; Listing generated by Microsoft (R) Optimizing Compiler Version 19.44.35217.0 

	TITLE	d:\_m2work\txoko-m2-work\txoko-client-src\vs_files\userinterface\distribute\guildmarkdownloader.obj
	.686P
	.XMM
	include listing.inc
	.model	flat

INCLUDELIB OLDNAMES

PUBLIC	??_C@_0BO@LNNOEBDM@RecvMarkBlock?3?5data?5corrupted@ ; `string'
PUBLIC	??_C@_02GMLFBBN@wb@				; `string'
PUBLIC	??_R2?$CDynamicPoolEx@VCRotationDecorator@NEffectUpdateDecorator@@@@8 ; CDynamicPoolEx<NEffectUpdateDecorator::CRotationDecorator>::`RTTI Base Class Array'
PUBLIC	??_R2?$CDynamicPoolEx@VCGravityDecorator@NEffectUpdateDecorator@@@@8 ; CDynamicPoolEx<NEffectUpdateDecorator::CGravityDecorator>::`RTTI Base Class Array'
PUBLIC	??_R2?$CDynamicPoolEx@VCAirResistanceDecorator@NEffectUpdateDecorator@@@@8 ; CDynamicPoolEx<NEffectUpdateDecorator::CAirResistanceDecorator>::`RTTI Base Class Array'
PUBLIC	??_R2?$CDynamicPoolEx@VCTextureAnimationRandomDecorator@NEffectUpdateDecorator@@@@8 ; CDynamicPoolEx<NEffectUpdateDecorator::CTextureAnimationRandomDecorator>::`RTTI Base Class Array'
PUBLIC	??_R2?$CDynamicPoolEx@VCTextureAnimationCCWDecorator@NEffectUpdateDecorator@@@@8 ; CDynamicPoolEx<NEffectUpdateDecorator::CTextureAnimationCCWDecorator>::`RTTI Base Class Array'
PUBLIC	??_R2?$CDynamicPoolEx@VCTextureAnimationCWDecorator@NEffectUpdateDecorator@@@@8 ; CDynamicPoolEx<NEffectUpdateDecorator::CTextureAnimationCWDecorator>::`RTTI Base Class Array'
PUBLIC	??_R2?$CDynamicPoolEx@VCNullDecorator@NEffectUpdateDecorator@@@@8 ; CDynamicPoolEx<NEffectUpdateDecorator::CNullDecorator>::`RTTI Base Class Array'
PUBLIC	??_R2?$CDynamicPoolEx@VCHeaderDecorator@NEffectUpdateDecorator@@@@8 ; CDynamicPoolEx<NEffectUpdateDecorator::CHeaderDecorator>::`RTTI Base Class Array'
PUBLIC	??_R2CGuildMarkDownloader@@8			; CGuildMarkDownloader::`RTTI Base Class Array'
PUBLIC	??_R2?$CSingleton@VCGuildMarkDownloader@@@@8	; CSingleton<CGuildMarkDownloader>::`RTTI Base Class Array'
PUBLIC	??_R1A@?0A@EA@?$CDynamicPoolEx@VCRotationDecorator@NEffectUpdateDecorator@@@@8 ; CDynamicPoolEx<NEffectUpdateDecorator::CRotationDecorator>::`RTTI Base Class Descriptor at (0,-1,0,64)'
PUBLIC	??_R1A@?0A@EA@?$CDynamicPoolEx@VCGravityDecorator@NEffectUpdateDecorator@@@@8 ; CDynamicPoolEx<NEffectUpdateDecorator::CGravityDecorator>::`RTTI Base Class Descriptor at (0,-1,0,64)'
PUBLIC	??_R1A@?0A@EA@?$CDynamicPoolEx@VCAirResistanceDecorator@NEffectUpdateDecorator@@@@8 ; CDynamicPoolEx<NEffectUpdateDecorator::CAirResistanceDecorator>::`RTTI Base Class Descriptor at (0,-1,0,64)'
PUBLIC	??_R1A@?0A@EA@?$CDynamicPoolEx@VCTextureAnimationRandomDecorator@NEffectUpdateDecorator@@@@8 ; CDynamicPoolEx<NEffectUpdateDecorator::CTextureAnimationRandomDecorator>::`RTTI Base Class Descriptor at (0,-1,0,64)'
PUBLIC	??_R1A@?0A@EA@?$CDynamicPoolEx@VCTextureAnimationCCWDecorator@NEffectUpdateDecorator@@@@8 ; CDynamicPoolEx<NEffectUpdateDecorator::CTextureAnimationCCWDecorator>::`RTTI Base Class Descriptor at (0,-1,0,64)'
PUBLIC	??_R1A@?0A@EA@?$CDynamicPoolEx@VCTextureAnimationCWDecorator@NEffectUpdateDecorator@@@@8 ; CDynamicPoolEx<NEffectUpdateDecorator::CTextureAnimationCWDecorator>::`RTTI Base Class Descriptor at (0,-1,0,64)'
PUBLIC	??_R1A@?0A@EA@?$CDynamicPoolEx@VCNullDecorator@NEffectUpdateDecorator@@@@8 ; CDynamicPoolEx<NEffectUpdateDecorator::CNullDecorator>::`RTTI Base Class Descriptor at (0,-1,0,64)'
PUBLIC	??_R1A@?0A@EA@?$CDynamicPoolEx@VCHeaderDecorator@NEffectUpdateDecorator@@@@8 ; CDynamicPoolEx<NEffectUpdateDecorator::CHeaderDecorator>::`RTTI Base Class Descriptor at (0,-1,0,64)'
PUBLIC	??_R1HM@?0A@EA@?$CSingleton@VCGuildMarkDownloader@@@@8 ; CSingleton<CGuildMarkDownloader>::`RTTI Base Class Descriptor at (124,-1,0,64)'
PUBLIC	??_R1A@?0A@EA@CGuildMarkDownloader@@8		; CGuildMarkDownloader::`RTTI Base Class Descriptor at (0,-1,0,64)'
PUBLIC	??_R1A@?0A@EA@?$CSingleton@VCGuildMarkDownloader@@@@8 ; CSingleton<CGuildMarkDownloader>::`RTTI Base Class Descriptor at (0,-1,0,64)'
PUBLIC	??_R3?$CDynamicPoolEx@VCRotationDecorator@NEffectUpdateDecorator@@@@8 ; CDynamicPoolEx<NEffectUpdateDecorator::CRotationDecorator>::`RTTI Class Hierarchy Descriptor'
PUBLIC	??_R0?AV?$CDynamicPoolEx@VCRotationDecorator@NEffectUpdateDecorator@@@@@8 ; CDynamicPoolEx<NEffectUpdateDecorator::CRotationDecorator> `RTTI Type Descriptor'
PUBLIC	??_R3?$CDynamicPoolEx@VCGravityDecorator@NEffectUpdateDecorator@@@@8 ; CDynamicPoolEx<NEffectUpdateDecorator::CGravityDecorator>::`RTTI Class Hierarchy Descriptor'
PUBLIC	??_R0?AV?$CDynamicPoolEx@VCGravityDecorator@NEffectUpdateDecorator@@@@@8 ; CDynamicPoolEx<NEffectUpdateDecorator::CGravityDecorator> `RTTI Type Descriptor'
PUBLIC	??_R3?$CDynamicPoolEx@VCAirResistanceDecorator@NEffectUpdateDecorator@@@@8 ; CDynamicPoolEx<NEffectUpdateDecorator::CAirResistanceDecorator>::`RTTI Class Hierarchy Descriptor'
PUBLIC	??_R0?AV?$CDynamicPoolEx@VCAirResistanceDecorator@NEffectUpdateDecorator@@@@@8 ; CDynamicPoolEx<NEffectUpdateDecorator::CAirResistanceDecorator> `RTTI Type Descriptor'
PUBLIC	??_R3?$CDynamicPoolEx@VCTextureAnimationRandomDecorator@NEffectUpdateDecorator@@@@8 ; CDynamicPoolEx<NEffectUpdateDecorator::CTextureAnimationRandomDecorator>::`RTTI Class Hierarchy Descriptor'
PUBLIC	??_R0?AV?$CDynamicPoolEx@VCTextureAnimationRandomDecorator@NEffectUpdateDecorator@@@@@8 ; CDynamicPoolEx<NEffectUpdateDecorator::CTextureAnimationRandomDecorator> `RTTI Type Descriptor'
PUBLIC	??_R3?$CDynamicPoolEx@VCTextureAnimationCCWDecorator@NEffectUpdateDecorator@@@@8 ; CDynamicPoolEx<NEffectUpdateDecorator::CTextureAnimationCCWDecorator>::`RTTI Class Hierarchy Descriptor'
PUBLIC	??_R0?AV?$CDynamicPoolEx@VCTextureAnimationCCWDecorator@NEffectUpdateDecorator@@@@@8 ; CDynamicPoolEx<NEffectUpdateDecorator::CTextureAnimationCCWDecorator> `RTTI Type Descriptor'
PUBLIC	??_R3?$CDynamicPoolEx@VCTextureAnimationCWDecorator@NEffectUpdateDecorator@@@@8 ; CDynamicPoolEx<NEffectUpdateDecorator::CTextureAnimationCWDecorator>::`RTTI Class Hierarchy Descriptor'
PUBLIC	??_R0?AV?$CDynamicPoolEx@VCTextureAnimationCWDecorator@NEffectUpdateDecorator@@@@@8 ; CDynamicPoolEx<NEffectUpdateDecorator::CTextureAnimationCWDecorator> `RTTI Type Descriptor'
PUBLIC	??_R3?$CDynamicPoolEx@VCNullDecorator@NEffectUpdateDecorator@@@@8 ; CDynamicPoolEx<NEffectUpdateDecorator::CNullDecorator>::`RTTI Class Hierarchy Descriptor'
PUBLIC	??_R0?AV?$CDynamicPoolEx@VCNullDecorator@NEffectUpdateDecorator@@@@@8 ; CDynamicPoolEx<NEffectUpdateDecorator::CNullDecorator> `RTTI Type Descriptor'
PUBLIC	??_R3?$CDynamicPoolEx@VCHeaderDecorator@NEffectUpdateDecorator@@@@8 ; CDynamicPoolEx<NEffectUpdateDecorator::CHeaderDecorator>::`RTTI Class Hierarchy Descriptor'
PUBLIC	??_R0?AV?$CDynamicPoolEx@VCHeaderDecorator@NEffectUpdateDecorator@@@@@8 ; CDynamicPoolEx<NEffectUpdateDecorator::CHeaderDecorator> `RTTI Type Descriptor'
PUBLIC	??_R3?$CSingleton@VCGuildMarkDownloader@@@@8	; CSingleton<CGuildMarkDownloader>::`RTTI Class Hierarchy Descriptor'
PUBLIC	??_R0?AV?$CSingleton@VCGuildMarkDownloader@@@@@8 ; CSingleton<CGuildMarkDownloader> `RTTI Type Descriptor'
PUBLIC	??_R3CGuildMarkDownloader@@8			; CGuildMarkDownloader::`RTTI Class Hierarchy Descriptor'
PUBLIC	??_R0?AVCGuildMarkDownloader@@@8		; CGuildMarkDownloader `RTTI Type Descriptor'
PUBLIC	??_R4?$CDynamicPoolEx@VCRotationDecorator@NEffectUpdateDecorator@@@@6B@ ; CDynamicPoolEx<NEffectUpdateDecorator::CRotationDecorator>::`RTTI Complete Object Locator'
PUBLIC	??_R4?$CDynamicPoolEx@VCGravityDecorator@NEffectUpdateDecorator@@@@6B@ ; CDynamicPoolEx<NEffectUpdateDecorator::CGravityDecorator>::`RTTI Complete Object Locator'
PUBLIC	??_R4?$CDynamicPoolEx@VCAirResistanceDecorator@NEffectUpdateDecorator@@@@6B@ ; CDynamicPoolEx<NEffectUpdateDecorator::CAirResistanceDecorator>::`RTTI Complete Object Locator'
PUBLIC	??_R4?$CDynamicPoolEx@VCTextureAnimationRandomDecorator@NEffectUpdateDecorator@@@@6B@ ; CDynamicPoolEx<NEffectUpdateDecorator::CTextureAnimationRandomDecorator>::`RTTI Complete Object Locator'
PUBLIC	??_R4?$CDynamicPoolEx@VCTextureAnimationCCWDecorator@NEffectUpdateDecorator@@@@6B@ ; CDynamicPoolEx<NEffectUpdateDecorator::CTextureAnimationCCWDecorator>::`RTTI Complete Object Locator'
PUBLIC	??_R4?$CDynamicPoolEx@VCTextureAnimationCWDecorator@NEffectUpdateDecorator@@@@6B@ ; CDynamicPoolEx<NEffectUpdateDecorator::CTextureAnimationCWDecorator>::`RTTI Complete Object Locator'
PUBLIC	??_R4?$CDynamicPoolEx@VCNullDecorator@NEffectUpdateDecorator@@@@6B@ ; CDynamicPoolEx<NEffectUpdateDecorator::CNullDecorator>::`RTTI Complete Object Locator'
PUBLIC	??_R4?$CDynamicPoolEx@VCHeaderDecorator@NEffectUpdateDecorator@@@@6B@ ; CDynamicPoolEx<NEffectUpdateDecorator::CHeaderDecorator>::`RTTI Complete Object Locator'
PUBLIC	??_R4?$CSingleton@VCGuildMarkDownloader@@@@6B@	; CSingleton<CGuildMarkDownloader>::`RTTI Complete Object Locator'
PUBLIC	??_R4CGuildMarkDownloader@@6B?$CSingleton@VCGuildMarkDownloader@@@@@ ; CGuildMarkDownloader::`RTTI Complete Object Locator'
PUBLIC	??_R4CGuildMarkDownloader@@6BCNetworkStream@@@	; CGuildMarkDownloader::`RTTI Complete Object Locator'
PUBLIC	??_7?$CDynamicPoolEx@VCHeaderDecorator@NEffectUpdateDecorator@@@@6B@ ; CDynamicPoolEx<NEffectUpdateDecorator::CHeaderDecorator>::`vftable'
PUBLIC	??_7?$CDynamicPoolEx@VCNullDecorator@NEffectUpdateDecorator@@@@6B@ ; CDynamicPoolEx<NEffectUpdateDecorator::CNullDecorator>::`vftable'
PUBLIC	??_7?$CDynamicPoolEx@VCTextureAnimationCWDecorator@NEffectUpdateDecorator@@@@6B@ ; CDynamicPoolEx<NEffectUpdateDecorator::CTextureAnimationCWDecorator>::`vftable'
PUBLIC	??_7?$CDynamicPoolEx@VCTextureAnimationCCWDecorator@NEffectUpdateDecorator@@@@6B@ ; CDynamicPoolEx<NEffectUpdateDecorator::CTextureAnimationCCWDecorator>::`vftable'
PUBLIC	??_7?$CDynamicPoolEx@VCTextureAnimationRandomDecorator@NEffectUpdateDecorator@@@@6B@ ; CDynamicPoolEx<NEffectUpdateDecorator::CTextureAnimationRandomDecorator>::`vftable'
PUBLIC	??_7?$CDynamicPoolEx@VCAirResistanceDecorator@NEffectUpdateDecorator@@@@6B@ ; CDynamicPoolEx<NEffectUpdateDecorator::CAirResistanceDecorator>::`vftable'
PUBLIC	??_7?$CDynamicPoolEx@VCGravityDecorator@NEffectUpdateDecorator@@@@6B@ ; CDynamicPoolEx<NEffectUpdateDecorator::CGravityDecorator>::`vftable'
PUBLIC	??_7?$CDynamicPoolEx@VCRotationDecorator@NEffectUpdateDecorator@@@@6B@ ; CDynamicPoolEx<NEffectUpdateDecorator::CRotationDecorator>::`vftable'
PUBLIC	?ms_singleton@?$singleton@VCGuildMarkManager@@@@0PAVCGuildMarkManager@@A ; singleton<CGuildMarkManager>::ms_singleton
PUBLIC	?ms_singleton@?$CSingleton@VCGuildMarkDownloader@@@@0PAVCGuildMarkDownloader@@A ; CSingleton<CGuildMarkDownloader>::ms_singleton
PUBLIC	??_7?$CSingleton@VCGuildMarkDownloader@@@@6B@	; CSingleton<CGuildMarkDownloader>::`vftable'
PUBLIC	?ms_singleton@?$CSingleton@VCPythonCharacterManager@@@@0PAVCPythonCharacterManager@@A ; CSingleton<CPythonCharacterManager>::ms_singleton
PUBLIC	??_7CGuildMarkDownloader@@6B?$CSingleton@VCGuildMarkDownloader@@@@@ ; CGuildMarkDownloader::`vftable'
PUBLIC	??_7CGuildMarkDownloader@@6BCNetworkStream@@@	; CGuildMarkDownloader::`vftable'
EXTRN	_fclose:PROC
EXTRN	_fwrite:PROC
EXTRN	_fopen:PROC
EXTRN	?MyCreateDirectory@@YAXPBD@Z:PROC		; MyCreateDirectory
EXTRN	?GetRecvBufferSize@CNetworkStream@@QAEHXZ:PROC	; CNetworkStream::GetRecvBufferSize
EXTRN	?GetFileSize@@YAKPBD@Z:PROC			; GetFileSize
EXTRN	?GetFileCRC32@@YAKPBD@Z:PROC			; GetFileCRC32
EXTRN	?Reload@CResource@@QAEXXZ:PROC			; CResource::Reload
EXTRN	?Type@CGraphicImage@@SAKXZ:PROC			; CGraphicImage::Type
EXTRN	?IsType@CResource@@QAE_NK@Z:PROC		; CResource::IsType
EXTRN	?Recv@CNetworkStream@@QAE_NHPAD@Z:PROC		; CNetworkStream::Recv
EXTRN	?Recv@CNetworkStream@@QAE_NH@Z:PROC		; CNetworkStream::Recv
EXTRN	?Connect@CNetworkStream@@QAE_NABVCNetworkAddress@@H@Z:PROC ; CNetworkStream::Connect
;	COMDAT ?ms_singleton@?$singleton@VCGuildMarkManager@@@@0PAVCGuildMarkManager@@A
_BSS	SEGMENT
?ms_singleton@?$singleton@VCGuildMarkManager@@@@0PAVCGuildMarkManager@@A DD 01H DUP (?) ; singleton<CGuildMarkManager>::ms_singleton
_BSS	ENDS
;	COMDAT ?ms_singleton@?$CSingleton@VCGuildMarkDownloader@@@@0PAVCGuildMarkDownloader@@A
_BSS	SEGMENT
?ms_singleton@?$CSingleton@VCGuildMarkDownloader@@@@0PAVCGuildMarkDownloader@@A DD 01H DUP (?) ; CSingleton<CGuildMarkDownloader>::ms_singleton
_BSS	ENDS
;	COMDAT ?ms_singleton@?$CSingleton@VCPythonCharacterManager@@@@0PAVCPythonCharacterManager@@A
_BSS	SEGMENT
?ms_singleton@?$CSingleton@VCPythonCharacterManager@@@@0PAVCPythonCharacterManager@@A DD 01H DUP (?) ; CSingleton<CPythonCharacterManager>::ms_singleton
_BSS	ENDS
;	COMDAT ??_7CGuildMarkDownloader@@6BCNetworkStream@@@
CONST	SEGMENT
??_7CGuildMarkDownloader@@6BCNetworkStream@@@ DD FLAT:??_R4CGuildMarkDownloader@@6BCNetworkStream@@@ ; CGuildMarkDownloader::`vftable'
	DD	FLAT:??_ECGuildMarkDownloader@@UAEPAXI@Z
	DD	FLAT:?OnConnectSuccess@CGuildMarkDownloader@@EAEXXZ
	DD	FLAT:?OnConnectFailure@CGuildMarkDownloader@@EAEXXZ
	DD	FLAT:?OnRemoteDisconnect@CGuildMarkDownloader@@EAEXXZ
	DD	FLAT:?OnDisconnect@CGuildMarkDownloader@@EAEXXZ
	DD	FLAT:?OnProcess@CNetworkStream@@MAE_NXZ
CONST	ENDS
;	COMDAT ??_7CGuildMarkDownloader@@6B?$CSingleton@VCGuildMarkDownloader@@@@@
CONST	SEGMENT
??_7CGuildMarkDownloader@@6B?$CSingleton@VCGuildMarkDownloader@@@@@ DD FLAT:??_R4CGuildMarkDownloader@@6B?$CSingleton@VCGuildMarkDownloader@@@@@ ; CGuildMarkDownloader::`vftable'
	DD	FLAT:??_ECGuildMarkDownloader@@WHM@AEPAXI@Z
CONST	ENDS
;	COMDAT ??_7?$CSingleton@VCGuildMarkDownloader@@@@6B@
CONST	SEGMENT
??_7?$CSingleton@VCGuildMarkDownloader@@@@6B@ DD FLAT:??_R4?$CSingleton@VCGuildMarkDownloader@@@@6B@ ; CSingleton<CGuildMarkDownloader>::`vftable'
	DD	FLAT:??_E?$CSingleton@VCGuildMarkDownloader@@@@UAEPAXI@Z
CONST	ENDS
;	COMDAT ??_7?$CDynamicPoolEx@VCRotationDecorator@NEffectUpdateDecorator@@@@6B@
CONST	SEGMENT
??_7?$CDynamicPoolEx@VCRotationDecorator@NEffectUpdateDecorator@@@@6B@ DD FLAT:??_R4?$CDynamicPoolEx@VCRotationDecorator@NEffectUpdateDecorator@@@@6B@ ; CDynamicPoolEx<NEffectUpdateDecorator::CRotationDecorator>::`vftable'
	DD	FLAT:??_E?$CDynamicPoolEx@VCRotationDecorator@NEffectUpdateDecorator@@@@UAEPAXI@Z
CONST	ENDS
;	COMDAT ??_7?$CDynamicPoolEx@VCGravityDecorator@NEffectUpdateDecorator@@@@6B@
CONST	SEGMENT
??_7?$CDynamicPoolEx@VCGravityDecorator@NEffectUpdateDecorator@@@@6B@ DD FLAT:??_R4?$CDynamicPoolEx@VCGravityDecorator@NEffectUpdateDecorator@@@@6B@ ; CDynamicPoolEx<NEffectUpdateDecorator::CGravityDecorator>::`vftable'
	DD	FLAT:??_E?$CDynamicPoolEx@VCGravityDecorator@NEffectUpdateDecorator@@@@UAEPAXI@Z
CONST	ENDS
;	COMDAT ??_7?$CDynamicPoolEx@VCAirResistanceDecorator@NEffectUpdateDecorator@@@@6B@
CONST	SEGMENT
??_7?$CDynamicPoolEx@VCAirResistanceDecorator@NEffectUpdateDecorator@@@@6B@ DD FLAT:??_R4?$CDynamicPoolEx@VCAirResistanceDecorator@NEffectUpdateDecorator@@@@6B@ ; CDynamicPoolEx<NEffectUpdateDecorator::CAirResistanceDecorator>::`vftable'
	DD	FLAT:??_E?$CDynamicPoolEx@VCAirResistanceDecorator@NEffectUpdateDecorator@@@@UAEPAXI@Z
CONST	ENDS
;	COMDAT ??_7?$CDynamicPoolEx@VCTextureAnimationRandomDecorator@NEffectUpdateDecorator@@@@6B@
CONST	SEGMENT
??_7?$CDynamicPoolEx@VCTextureAnimationRandomDecorator@NEffectUpdateDecorator@@@@6B@ DD FLAT:??_R4?$CDynamicPoolEx@VCTextureAnimationRandomDecorator@NEffectUpdateDecorator@@@@6B@ ; CDynamicPoolEx<NEffectUpdateDecorator::CTextureAnimationRandomDecorator>::`vftable'
	DD	FLAT:??_E?$CDynamicPoolEx@VCTextureAnimationRandomDecorator@NEffectUpdateDecorator@@@@UAEPAXI@Z
CONST	ENDS
;	COMDAT ??_7?$CDynamicPoolEx@VCTextureAnimationCCWDecorator@NEffectUpdateDecorator@@@@6B@
CONST	SEGMENT
??_7?$CDynamicPoolEx@VCTextureAnimationCCWDecorator@NEffectUpdateDecorator@@@@6B@ DD FLAT:??_R4?$CDynamicPoolEx@VCTextureAnimationCCWDecorator@NEffectUpdateDecorator@@@@6B@ ; CDynamicPoolEx<NEffectUpdateDecorator::CTextureAnimationCCWDecorator>::`vftable'
	DD	FLAT:??_E?$CDynamicPoolEx@VCTextureAnimationCCWDecorator@NEffectUpdateDecorator@@@@UAEPAXI@Z
CONST	ENDS
;	COMDAT ??_7?$CDynamicPoolEx@VCTextureAnimationCWDecorator@NEffectUpdateDecorator@@@@6B@
CONST	SEGMENT
??_7?$CDynamicPoolEx@VCTextureAnimationCWDecorator@NEffectUpdateDecorator@@@@6B@ DD FLAT:??_R4?$CDynamicPoolEx@VCTextureAnimationCWDecorator@NEffectUpdateDecorator@@@@6B@ ; CDynamicPoolEx<NEffectUpdateDecorator::CTextureAnimationCWDecorator>::`vftable'
	DD	FLAT:??_E?$CDynamicPoolEx@VCTextureAnimationCWDecorator@NEffectUpdateDecorator@@@@UAEPAXI@Z
CONST	ENDS
;	COMDAT ??_7?$CDynamicPoolEx@VCNullDecorator@NEffectUpdateDecorator@@@@6B@
CONST	SEGMENT
??_7?$CDynamicPoolEx@VCNullDecorator@NEffectUpdateDecorator@@@@6B@ DD FLAT:??_R4?$CDynamicPoolEx@VCNullDecorator@NEffectUpdateDecorator@@@@6B@ ; CDynamicPoolEx<NEffectUpdateDecorator::CNullDecorator>::`vftable'
	DD	FLAT:??_E?$CDynamicPoolEx@VCNullDecorator@NEffectUpdateDecorator@@@@UAEPAXI@Z
CONST	ENDS
;	COMDAT ??_7?$CDynamicPoolEx@VCHeaderDecorator@NEffectUpdateDecorator@@@@6B@
CONST	SEGMENT
??_7?$CDynamicPoolEx@VCHeaderDecorator@NEffectUpdateDecorator@@@@6B@ DD FLAT:??_R4?$CDynamicPoolEx@VCHeaderDecorator@NEffectUpdateDecorator@@@@6B@ ; CDynamicPoolEx<NEffectUpdateDecorator::CHeaderDecorator>::`vftable'
	DD	FLAT:??_E?$CDynamicPoolEx@VCHeaderDecorator@NEffectUpdateDecorator@@@@UAEPAXI@Z
CONST	ENDS
;	COMDAT ??_R4CGuildMarkDownloader@@6BCNetworkStream@@@
rdata$r	SEGMENT
??_R4CGuildMarkDownloader@@6BCNetworkStream@@@ DD 00H	; CGuildMarkDownloader::`RTTI Complete Object Locator'
	DD	00H
	DD	00H
	DD	FLAT:??_R0?AVCGuildMarkDownloader@@@8
	DD	FLAT:??_R3CGuildMarkDownloader@@8
rdata$r	ENDS
;	COMDAT ??_R4CGuildMarkDownloader@@6B?$CSingleton@VCGuildMarkDownloader@@@@@
rdata$r	SEGMENT
??_R4CGuildMarkDownloader@@6B?$CSingleton@VCGuildMarkDownloader@@@@@ DD 00H ; CGuildMarkDownloader::`RTTI Complete Object Locator'
	DD	07cH
	DD	00H
	DD	FLAT:??_R0?AVCGuildMarkDownloader@@@8
	DD	FLAT:??_R3CGuildMarkDownloader@@8
rdata$r	ENDS
;	COMDAT ??_R4?$CSingleton@VCGuildMarkDownloader@@@@6B@
rdata$r	SEGMENT
??_R4?$CSingleton@VCGuildMarkDownloader@@@@6B@ DD 00H	; CSingleton<CGuildMarkDownloader>::`RTTI Complete Object Locator'
	DD	00H
	DD	00H
	DD	FLAT:??_R0?AV?$CSingleton@VCGuildMarkDownloader@@@@@8
	DD	FLAT:??_R3?$CSingleton@VCGuildMarkDownloader@@@@8
rdata$r	ENDS
;	COMDAT ??_R4?$CDynamicPoolEx@VCHeaderDecorator@NEffectUpdateDecorator@@@@6B@
rdata$r	SEGMENT
??_R4?$CDynamicPoolEx@VCHeaderDecorator@NEffectUpdateDecorator@@@@6B@ DD 00H ; CDynamicPoolEx<NEffectUpdateDecorator::CHeaderDecorator>::`RTTI Complete Object Locator'
	DD	00H
	DD	00H
	DD	FLAT:??_R0?AV?$CDynamicPoolEx@VCHeaderDecorator@NEffectUpdateDecorator@@@@@8
	DD	FLAT:??_R3?$CDynamicPoolEx@VCHeaderDecorator@NEffectUpdateDecorator@@@@8
rdata$r	ENDS
;	COMDAT ??_R4?$CDynamicPoolEx@VCNullDecorator@NEffectUpdateDecorator@@@@6B@
rdata$r	SEGMENT
??_R4?$CDynamicPoolEx@VCNullDecorator@NEffectUpdateDecorator@@@@6B@ DD 00H ; CDynamicPoolEx<NEffectUpdateDecorator::CNullDecorator>::`RTTI Complete Object Locator'
	DD	00H
	DD	00H
	DD	FLAT:??_R0?AV?$CDynamicPoolEx@VCNullDecorator@NEffectUpdateDecorator@@@@@8
	DD	FLAT:??_R3?$CDynamicPoolEx@VCNullDecorator@NEffectUpdateDecorator@@@@8
rdata$r	ENDS
;	COMDAT ??_R4?$CDynamicPoolEx@VCTextureAnimationCWDecorator@NEffectUpdateDecorator@@@@6B@
rdata$r	SEGMENT
??_R4?$CDynamicPoolEx@VCTextureAnimationCWDecorator@NEffectUpdateDecorator@@@@6B@ DD 00H ; CDynamicPoolEx<NEffectUpdateDecorator::CTextureAnimationCWDecorator>::`RTTI Complete Object Locator'
	DD	00H
	DD	00H
	DD	FLAT:??_R0?AV?$CDynamicPoolEx@VCTextureAnimationCWDecorator@NEffectUpdateDecorator@@@@@8
	DD	FLAT:??_R3?$CDynamicPoolEx@VCTextureAnimationCWDecorator@NEffectUpdateDecorator@@@@8
rdata$r	ENDS
;	COMDAT ??_R4?$CDynamicPoolEx@VCTextureAnimationCCWDecorator@NEffectUpdateDecorator@@@@6B@
rdata$r	SEGMENT
??_R4?$CDynamicPoolEx@VCTextureAnimationCCWDecorator@NEffectUpdateDecorator@@@@6B@ DD 00H ; CDynamicPoolEx<NEffectUpdateDecorator::CTextureAnimationCCWDecorator>::`RTTI Complete Object Locator'
	DD	00H
	DD	00H
	DD	FLAT:??_R0?AV?$CDynamicPoolEx@VCTextureAnimationCCWDecorator@NEffectUpdateDecorator@@@@@8
	DD	FLAT:??_R3?$CDynamicPoolEx@VCTextureAnimationCCWDecorator@NEffectUpdateDecorator@@@@8
rdata$r	ENDS
;	COMDAT ??_R4?$CDynamicPoolEx@VCTextureAnimationRandomDecorator@NEffectUpdateDecorator@@@@6B@
rdata$r	SEGMENT
??_R4?$CDynamicPoolEx@VCTextureAnimationRandomDecorator@NEffectUpdateDecorator@@@@6B@ DD 00H ; CDynamicPoolEx<NEffectUpdateDecorator::CTextureAnimationRandomDecorator>::`RTTI Complete Object Locator'
	DD	00H
	DD	00H
	DD	FLAT:??_R0?AV?$CDynamicPoolEx@VCTextureAnimationRandomDecorator@NEffectUpdateDecorator@@@@@8
	DD	FLAT:??_R3?$CDynamicPoolEx@VCTextureAnimationRandomDecorator@NEffectUpdateDecorator@@@@8
rdata$r	ENDS
;	COMDAT ??_R4?$CDynamicPoolEx@VCAirResistanceDecorator@NEffectUpdateDecorator@@@@6B@
rdata$r	SEGMENT
??_R4?$CDynamicPoolEx@VCAirResistanceDecorator@NEffectUpdateDecorator@@@@6B@ DD 00H ; CDynamicPoolEx<NEffectUpdateDecorator::CAirResistanceDecorator>::`RTTI Complete Object Locator'
	DD	00H
	DD	00H
	DD	FLAT:??_R0?AV?$CDynamicPoolEx@VCAirResistanceDecorator@NEffectUpdateDecorator@@@@@8
	DD	FLAT:??_R3?$CDynamicPoolEx@VCAirResistanceDecorator@NEffectUpdateDecorator@@@@8
rdata$r	ENDS
;	COMDAT ??_R4?$CDynamicPoolEx@VCGravityDecorator@NEffectUpdateDecorator@@@@6B@
rdata$r	SEGMENT
??_R4?$CDynamicPoolEx@VCGravityDecorator@NEffectUpdateDecorator@@@@6B@ DD 00H ; CDynamicPoolEx<NEffectUpdateDecorator::CGravityDecorator>::`RTTI Complete Object Locator'
	DD	00H
	DD	00H
	DD	FLAT:??_R0?AV?$CDynamicPoolEx@VCGravityDecorator@NEffectUpdateDecorator@@@@@8
	DD	FLAT:??_R3?$CDynamicPoolEx@VCGravityDecorator@NEffectUpdateDecorator@@@@8
rdata$r	ENDS
;	COMDAT ??_R4?$CDynamicPoolEx@VCRotationDecorator@NEffectUpdateDecorator@@@@6B@
rdata$r	SEGMENT
??_R4?$CDynamicPoolEx@VCRotationDecorator@NEffectUpdateDecorator@@@@6B@ DD 00H ; CDynamicPoolEx<NEffectUpdateDecorator::CRotationDecorator>::`RTTI Complete Object Locator'
	DD	00H
	DD	00H
	DD	FLAT:??_R0?AV?$CDynamicPoolEx@VCRotationDecorator@NEffectUpdateDecorator@@@@@8
	DD	FLAT:??_R3?$CDynamicPoolEx@VCRotationDecorator@NEffectUpdateDecorator@@@@8
rdata$r	ENDS
;	COMDAT ??_R0?AVCGuildMarkDownloader@@@8
data$rs	SEGMENT
??_R0?AVCGuildMarkDownloader@@@8 DD FLAT:??_7type_info@@6B@ ; CGuildMarkDownloader `RTTI Type Descriptor'
	DD	00H
	DB	'.?AVCGuildMarkDownloader@@', 00H
data$rs	ENDS
;	COMDAT ??_R3CGuildMarkDownloader@@8
rdata$r	SEGMENT
??_R3CGuildMarkDownloader@@8 DD 00H			; CGuildMarkDownloader::`RTTI Class Hierarchy Descriptor'
	DD	01H
	DD	03H
	DD	FLAT:??_R2CGuildMarkDownloader@@8
rdata$r	ENDS
;	COMDAT ??_R0?AV?$CSingleton@VCGuildMarkDownloader@@@@@8
data$rs	SEGMENT
??_R0?AV?$CSingleton@VCGuildMarkDownloader@@@@@8 DD FLAT:??_7type_info@@6B@ ; CSingleton<CGuildMarkDownloader> `RTTI Type Descriptor'
	DD	00H
	DB	'.?AV?$CSingleton@VCGuildMarkDownloader@@@@', 00H
data$rs	ENDS
;	COMDAT ??_R3?$CSingleton@VCGuildMarkDownloader@@@@8
rdata$r	SEGMENT
??_R3?$CSingleton@VCGuildMarkDownloader@@@@8 DD 00H	; CSingleton<CGuildMarkDownloader>::`RTTI Class Hierarchy Descriptor'
	DD	00H
	DD	01H
	DD	FLAT:??_R2?$CSingleton@VCGuildMarkDownloader@@@@8
rdata$r	ENDS
;	COMDAT ??_R0?AV?$CDynamicPoolEx@VCHeaderDecorator@NEffectUpdateDecorator@@@@@8
data$rs	SEGMENT
??_R0?AV?$CDynamicPoolEx@VCHeaderDecorator@NEffectUpdateDecorator@@@@@8 DD FLAT:??_7type_info@@6B@ ; CDynamicPoolEx<NEffectUpdateDecorator::CHeaderDecorator> `RTTI Type Descriptor'
	DD	00H
	DB	'.?AV?$CDynamicPoolEx@VCHeaderDecorator@NEffectUpdateDeco'
	DB	'rator@@@@', 00H
data$rs	ENDS
;	COMDAT ??_R3?$CDynamicPoolEx@VCHeaderDecorator@NEffectUpdateDecorator@@@@8
rdata$r	SEGMENT
??_R3?$CDynamicPoolEx@VCHeaderDecorator@NEffectUpdateDecorator@@@@8 DD 00H ; CDynamicPoolEx<NEffectUpdateDecorator::CHeaderDecorator>::`RTTI Class Hierarchy Descriptor'
	DD	00H
	DD	01H
	DD	FLAT:??_R2?$CDynamicPoolEx@VCHeaderDecorator@NEffectUpdateDecorator@@@@8
rdata$r	ENDS
;	COMDAT ??_R0?AV?$CDynamicPoolEx@VCNullDecorator@NEffectUpdateDecorator@@@@@8
data$rs	SEGMENT
??_R0?AV?$CDynamicPoolEx@VCNullDecorator@NEffectUpdateDecorator@@@@@8 DD FLAT:??_7type_info@@6B@ ; CDynamicPoolEx<NEffectUpdateDecorator::CNullDecorator> `RTTI Type Descriptor'
	DD	00H
	DB	'.?AV?$CDynamicPoolEx@VCNullDecorator@NEffectUpdateDecora'
	DB	'tor@@@@', 00H
data$rs	ENDS
;	COMDAT ??_R3?$CDynamicPoolEx@VCNullDecorator@NEffectUpdateDecorator@@@@8
rdata$r	SEGMENT
??_R3?$CDynamicPoolEx@VCNullDecorator@NEffectUpdateDecorator@@@@8 DD 00H ; CDynamicPoolEx<NEffectUpdateDecorator::CNullDecorator>::`RTTI Class Hierarchy Descriptor'
	DD	00H
	DD	01H
	DD	FLAT:??_R2?$CDynamicPoolEx@VCNullDecorator@NEffectUpdateDecorator@@@@8
rdata$r	ENDS
;	COMDAT ??_R0?AV?$CDynamicPoolEx@VCTextureAnimationCWDecorator@NEffectUpdateDecorator@@@@@8
data$rs	SEGMENT
??_R0?AV?$CDynamicPoolEx@VCTextureAnimationCWDecorator@NEffectUpdateDecorator@@@@@8 DD FLAT:??_7type_info@@6B@ ; CDynamicPoolEx<NEffectUpdateDecorator::CTextureAnimationCWDecorator> `RTTI Type Descriptor'
	DD	00H
	DB	'.?AV?$CDynamicPoolEx@VCTextureAnimationCWDecorator@NEffe'
	DB	'ctUpdateDecorator@@@@', 00H
data$rs	ENDS
;	COMDAT ??_R3?$CDynamicPoolEx@VCTextureAnimationCWDecorator@NEffectUpdateDecorator@@@@8
rdata$r	SEGMENT
??_R3?$CDynamicPoolEx@VCTextureAnimationCWDecorator@NEffectUpdateDecorator@@@@8 DD 00H ; CDynamicPoolEx<NEffectUpdateDecorator::CTextureAnimationCWDecorator>::`RTTI Class Hierarchy Descriptor'
	DD	00H
	DD	01H
	DD	FLAT:??_R2?$CDynamicPoolEx@VCTextureAnimationCWDecorator@NEffectUpdateDecorator@@@@8
rdata$r	ENDS
;	COMDAT ??_R0?AV?$CDynamicPoolEx@VCTextureAnimationCCWDecorator@NEffectUpdateDecorator@@@@@8
data$rs	SEGMENT
??_R0?AV?$CDynamicPoolEx@VCTextureAnimationCCWDecorator@NEffectUpdateDecorator@@@@@8 DD FLAT:??_7type_info@@6B@ ; CDynamicPoolEx<NEffectUpdateDecorator::CTextureAnimationCCWDecorator> `RTTI Type Descriptor'
	DD	00H
	DB	'.?AV?$CDynamicPoolEx@VCTextureAnimationCCWDecorator@NEff'
	DB	'ectUpdateDecorator@@@@', 00H
data$rs	ENDS
;	COMDAT ??_R3?$CDynamicPoolEx@VCTextureAnimationCCWDecorator@NEffectUpdateDecorator@@@@8
rdata$r	SEGMENT
??_R3?$CDynamicPoolEx@VCTextureAnimationCCWDecorator@NEffectUpdateDecorator@@@@8 DD 00H ; CDynamicPoolEx<NEffectUpdateDecorator::CTextureAnimationCCWDecorator>::`RTTI Class Hierarchy Descriptor'
	DD	00H
	DD	01H
	DD	FLAT:??_R2?$CDynamicPoolEx@VCTextureAnimationCCWDecorator@NEffectUpdateDecorator@@@@8
rdata$r	ENDS
;	COMDAT ??_R0?AV?$CDynamicPoolEx@VCTextureAnimationRandomDecorator@NEffectUpdateDecorator@@@@@8
data$rs	SEGMENT
??_R0?AV?$CDynamicPoolEx@VCTextureAnimationRandomDecorator@NEffectUpdateDecorator@@@@@8 DD FLAT:??_7type_info@@6B@ ; CDynamicPoolEx<NEffectUpdateDecorator::CTextureAnimationRandomDecorator> `RTTI Type Descriptor'
	DD	00H
	DB	'.?AV?$CDynamicPoolEx@VCTextureAnimationRandomDecorator@N'
	DB	'EffectUpdateDecorator@@@@', 00H
data$rs	ENDS
;	COMDAT ??_R3?$CDynamicPoolEx@VCTextureAnimationRandomDecorator@NEffectUpdateDecorator@@@@8
rdata$r	SEGMENT
??_R3?$CDynamicPoolEx@VCTextureAnimationRandomDecorator@NEffectUpdateDecorator@@@@8 DD 00H ; CDynamicPoolEx<NEffectUpdateDecorator::CTextureAnimationRandomDecorator>::`RTTI Class Hierarchy Descriptor'
	DD	00H
	DD	01H
	DD	FLAT:??_R2?$CDynamicPoolEx@VCTextureAnimationRandomDecorator@NEffectUpdateDecorator@@@@8
rdata$r	ENDS
;	COMDAT ??_R0?AV?$CDynamicPoolEx@VCAirResistanceDecorator@NEffectUpdateDecorator@@@@@8
data$rs	SEGMENT
??_R0?AV?$CDynamicPoolEx@VCAirResistanceDecorator@NEffectUpdateDecorator@@@@@8 DD FLAT:??_7type_info@@6B@ ; CDynamicPoolEx<NEffectUpdateDecorator::CAirResistanceDecorator> `RTTI Type Descriptor'
	DD	00H
	DB	'.?AV?$CDynamicPoolEx@VCAirResistanceDecorator@NEffectUpd'
	DB	'ateDecorator@@@@', 00H
data$rs	ENDS
;	COMDAT ??_R3?$CDynamicPoolEx@VCAirResistanceDecorator@NEffectUpdateDecorator@@@@8
rdata$r	SEGMENT
??_R3?$CDynamicPoolEx@VCAirResistanceDecorator@NEffectUpdateDecorator@@@@8 DD 00H ; CDynamicPoolEx<NEffectUpdateDecorator::CAirResistanceDecorator>::`RTTI Class Hierarchy Descriptor'
	DD	00H
	DD	01H
	DD	FLAT:??_R2?$CDynamicPoolEx@VCAirResistanceDecorator@NEffectUpdateDecorator@@@@8
rdata$r	ENDS
;	COMDAT ??_R0?AV?$CDynamicPoolEx@VCGravityDecorator@NEffectUpdateDecorator@@@@@8
data$rs	SEGMENT
??_R0?AV?$CDynamicPoolEx@VCGravityDecorator@NEffectUpdateDecorator@@@@@8 DD FLAT:??_7type_info@@6B@ ; CDynamicPoolEx<NEffectUpdateDecorator::CGravityDecorator> `RTTI Type Descriptor'
	DD	00H
	DB	'.?AV?$CDynamicPoolEx@VCGravityDecorator@NEffectUpdateDec'
	DB	'orator@@@@', 00H
data$rs	ENDS
;	COMDAT ??_R3?$CDynamicPoolEx@VCGravityDecorator@NEffectUpdateDecorator@@@@8
rdata$r	SEGMENT
??_R3?$CDynamicPoolEx@VCGravityDecorator@NEffectUpdateDecorator@@@@8 DD 00H ; CDynamicPoolEx<NEffectUpdateDecorator::CGravityDecorator>::`RTTI Class Hierarchy Descriptor'
	DD	00H
	DD	01H
	DD	FLAT:??_R2?$CDynamicPoolEx@VCGravityDecorator@NEffectUpdateDecorator@@@@8
rdata$r	ENDS
;	COMDAT ??_R0?AV?$CDynamicPoolEx@VCRotationDecorator@NEffectUpdateDecorator@@@@@8
data$rs	SEGMENT
??_R0?AV?$CDynamicPoolEx@VCRotationDecorator@NEffectUpdateDecorator@@@@@8 DD FLAT:??_7type_info@@6B@ ; CDynamicPoolEx<NEffectUpdateDecorator::CRotationDecorator> `RTTI Type Descriptor'
	DD	00H
	DB	'.?AV?$CDynamicPoolEx@VCRotationDecorator@NEffectUpdateDe'
	DB	'corator@@@@', 00H
data$rs	ENDS
;	COMDAT ??_R3?$CDynamicPoolEx@VCRotationDecorator@NEffectUpdateDecorator@@@@8
rdata$r	SEGMENT
??_R3?$CDynamicPoolEx@VCRotationDecorator@NEffectUpdateDecorator@@@@8 DD 00H ; CDynamicPoolEx<NEffectUpdateDecorator::CRotationDecorator>::`RTTI Class Hierarchy Descriptor'
	DD	00H
	DD	01H
	DD	FLAT:??_R2?$CDynamicPoolEx@VCRotationDecorator@NEffectUpdateDecorator@@@@8
rdata$r	ENDS
;	COMDAT ??_R1A@?0A@EA@?$CSingleton@VCGuildMarkDownloader@@@@8
rdata$r	SEGMENT
??_R1A@?0A@EA@?$CSingleton@VCGuildMarkDownloader@@@@8 DD FLAT:??_R0?AV?$CSingleton@VCGuildMarkDownloader@@@@@8 ; CSingleton<CGuildMarkDownloader>::`RTTI Base Class Descriptor at (0,-1,0,64)'
	DD	00H
	DD	00H
	DD	0ffffffffH
	DD	00H
	DD	040H
	DD	FLAT:??_R3?$CSingleton@VCGuildMarkDownloader@@@@8
rdata$r	ENDS
;	COMDAT ??_R1A@?0A@EA@CGuildMarkDownloader@@8
rdata$r	SEGMENT
??_R1A@?0A@EA@CGuildMarkDownloader@@8 DD FLAT:??_R0?AVCGuildMarkDownloader@@@8 ; CGuildMarkDownloader::`RTTI Base Class Descriptor at (0,-1,0,64)'
	DD	02H
	DD	00H
	DD	0ffffffffH
	DD	00H
	DD	040H
	DD	FLAT:??_R3CGuildMarkDownloader@@8
rdata$r	ENDS
;	COMDAT ??_R1HM@?0A@EA@?$CSingleton@VCGuildMarkDownloader@@@@8
rdata$r	SEGMENT
??_R1HM@?0A@EA@?$CSingleton@VCGuildMarkDownloader@@@@8 DD FLAT:??_R0?AV?$CSingleton@VCGuildMarkDownloader@@@@@8 ; CSingleton<CGuildMarkDownloader>::`RTTI Base Class Descriptor at (124,-1,0,64)'
	DD	00H
	DD	07cH
	DD	0ffffffffH
	DD	00H
	DD	040H
	DD	FLAT:??_R3?$CSingleton@VCGuildMarkDownloader@@@@8
rdata$r	ENDS
;	COMDAT ??_R1A@?0A@EA@?$CDynamicPoolEx@VCHeaderDecorator@NEffectUpdateDecorator@@@@8
rdata$r	SEGMENT
??_R1A@?0A@EA@?$CDynamicPoolEx@VCHeaderDecorator@NEffectUpdateDecorator@@@@8 DD FLAT:??_R0?AV?$CDynamicPoolEx@VCHeaderDecorator@NEffectUpdateDecorator@@@@@8 ; CDynamicPoolEx<NEffectUpdateDecorator::CHeaderDecorator>::`RTTI Base Class Descriptor at (0,-1,0,64)'
	DD	00H
	DD	00H
	DD	0ffffffffH
	DD	00H
	DD	040H
	DD	FLAT:??_R3?$CDynamicPoolEx@VCHeaderDecorator@NEffectUpdateDecorator@@@@8
rdata$r	ENDS
;	COMDAT ??_R1A@?0A@EA@?$CDynamicPoolEx@VCNullDecorator@NEffectUpdateDecorator@@@@8
rdata$r	SEGMENT
??_R1A@?0A@EA@?$CDynamicPoolEx@VCNullDecorator@NEffectUpdateDecorator@@@@8 DD FLAT:??_R0?AV?$CDynamicPoolEx@VCNullDecorator@NEffectUpdateDecorator@@@@@8 ; CDynamicPoolEx<NEffectUpdateDecorator::CNullDecorator>::`RTTI Base Class Descriptor at (0,-1,0,64)'
	DD	00H
	DD	00H
	DD	0ffffffffH
	DD	00H
	DD	040H
	DD	FLAT:??_R3?$CDynamicPoolEx@VCNullDecorator@NEffectUpdateDecorator@@@@8
rdata$r	ENDS
;	COMDAT ??_R1A@?0A@EA@?$CDynamicPoolEx@VCTextureAnimationCWDecorator@NEffectUpdateDecorator@@@@8
rdata$r	SEGMENT
??_R1A@?0A@EA@?$CDynamicPoolEx@VCTextureAnimationCWDecorator@NEffectUpdateDecorator@@@@8 DD FLAT:??_R0?AV?$CDynamicPoolEx@VCTextureAnimationCWDecorator@NEffectUpdateDecorator@@@@@8 ; CDynamicPoolEx<NEffectUpdateDecorator::CTextureAnimationCWDecorator>::`RTTI Base Class Descriptor at (0,-1,0,64)'
	DD	00H
	DD	00H
	DD	0ffffffffH
	DD	00H
	DD	040H
	DD	FLAT:??_R3?$CDynamicPoolEx@VCTextureAnimationCWDecorator@NEffectUpdateDecorator@@@@8
rdata$r	ENDS
;	COMDAT ??_R1A@?0A@EA@?$CDynamicPoolEx@VCTextureAnimationCCWDecorator@NEffectUpdateDecorator@@@@8
rdata$r	SEGMENT
??_R1A@?0A@EA@?$CDynamicPoolEx@VCTextureAnimationCCWDecorator@NEffectUpdateDecorator@@@@8 DD FLAT:??_R0?AV?$CDynamicPoolEx@VCTextureAnimationCCWDecorator@NEffectUpdateDecorator@@@@@8 ; CDynamicPoolEx<NEffectUpdateDecorator::CTextureAnimationCCWDecorator>::`RTTI Base Class Descriptor at (0,-1,0,64)'
	DD	00H
	DD	00H
	DD	0ffffffffH
	DD	00H
	DD	040H
	DD	FLAT:??_R3?$CDynamicPoolEx@VCTextureAnimationCCWDecorator@NEffectUpdateDecorator@@@@8
rdata$r	ENDS
;	COMDAT ??_R1A@?0A@EA@?$CDynamicPoolEx@VCTextureAnimationRandomDecorator@NEffectUpdateDecorator@@@@8
rdata$r	SEGMENT
??_R1A@?0A@EA@?$CDynamicPoolEx@VCTextureAnimationRandomDecorator@NEffectUpdateDecorator@@@@8 DD FLAT:??_R0?AV?$CDynamicPoolEx@VCTextureAnimationRandomDecorator@NEffectUpdateDecorator@@@@@8 ; CDynamicPoolEx<NEffectUpdateDecorator::CTextureAnimationRandomDecorator>::`RTTI Base Class Descriptor at (0,-1,0,64)'
	DD	00H
	DD	00H
	DD	0ffffffffH
	DD	00H
	DD	040H
	DD	FLAT:??_R3?$CDynamicPoolEx@VCTextureAnimationRandomDecorator@NEffectUpdateDecorator@@@@8
rdata$r	ENDS
;	COMDAT ??_R1A@?0A@EA@?$CDynamicPoolEx@VCAirResistanceDecorator@NEffectUpdateDecorator@@@@8
rdata$r	SEGMENT
??_R1A@?0A@EA@?$CDynamicPoolEx@VCAirResistanceDecorator@NEffectUpdateDecorator@@@@8 DD FLAT:??_R0?AV?$CDynamicPoolEx@VCAirResistanceDecorator@NEffectUpdateDecorator@@@@@8 ; CDynamicPoolEx<NEffectUpdateDecorator::CAirResistanceDecorator>::`RTTI Base Class Descriptor at (0,-1,0,64)'
	DD	00H
	DD	00H
	DD	0ffffffffH
	DD	00H
	DD	040H
	DD	FLAT:??_R3?$CDynamicPoolEx@VCAirResistanceDecorator@NEffectUpdateDecorator@@@@8
rdata$r	ENDS
;	COMDAT ??_R1A@?0A@EA@?$CDynamicPoolEx@VCGravityDecorator@NEffectUpdateDecorator@@@@8
rdata$r	SEGMENT
??_R1A@?0A@EA@?$CDynamicPoolEx@VCGravityDecorator@NEffectUpdateDecorator@@@@8 DD FLAT:??_R0?AV?$CDynamicPoolEx@VCGravityDecorator@NEffectUpdateDecorator@@@@@8 ; CDynamicPoolEx<NEffectUpdateDecorator::CGravityDecorator>::`RTTI Base Class Descriptor at (0,-1,0,64)'
	DD	00H
	DD	00H
	DD	0ffffffffH
	DD	00H
	DD	040H
	DD	FLAT:??_R3?$CDynamicPoolEx@VCGravityDecorator@NEffectUpdateDecorator@@@@8
rdata$r	ENDS
;	COMDAT ??_R1A@?0A@EA@?$CDynamicPoolEx@VCRotationDecorator@NEffectUpdateDecorator@@@@8
rdata$r	SEGMENT
??_R1A@?0A@EA@?$CDynamicPoolEx@VCRotationDecorator@NEffectUpdateDecorator@@@@8 DD FLAT:??_R0?AV?$CDynamicPoolEx@VCRotationDecorator@NEffectUpdateDecorator@@@@@8 ; CDynamicPoolEx<NEffectUpdateDecorator::CRotationDecorator>::`RTTI Base Class Descriptor at (0,-1,0,64)'
	DD	00H
	DD	00H
	DD	0ffffffffH
	DD	00H
	DD	040H
	DD	FLAT:??_R3?$CDynamicPoolEx@VCRotationDecorator@NEffectUpdateDecorator@@@@8
rdata$r	ENDS
;	COMDAT ??_R2?$CSingleton@VCGuildMarkDownloader@@@@8
rdata$r	SEGMENT
??_R2?$CSingleton@VCGuildMarkDownloader@@@@8 DD FLAT:??_R1A@?0A@EA@?$CSingleton@VCGuildMarkDownloader@@@@8 ; CSingleton<CGuildMarkDownloader>::`RTTI Base Class Array'
rdata$r	ENDS
;	COMDAT ??_R2CGuildMarkDownloader@@8
rdata$r	SEGMENT
??_R2CGuildMarkDownloader@@8 DD FLAT:??_R1A@?0A@EA@CGuildMarkDownloader@@8 ; CGuildMarkDownloader::`RTTI Base Class Array'
	DD	FLAT:??_R1A@?0A@EA@CNetworkStream@@8
	DD	FLAT:??_R1HM@?0A@EA@?$CSingleton@VCGuildMarkDownloader@@@@8
rdata$r	ENDS
;	COMDAT ??_R2?$CDynamicPoolEx@VCHeaderDecorator@NEffectUpdateDecorator@@@@8
rdata$r	SEGMENT
??_R2?$CDynamicPoolEx@VCHeaderDecorator@NEffectUpdateDecorator@@@@8 DD FLAT:??_R1A@?0A@EA@?$CDynamicPoolEx@VCHeaderDecorator@NEffectUpdateDecorator@@@@8 ; CDynamicPoolEx<NEffectUpdateDecorator::CHeaderDecorator>::`RTTI Base Class Array'
rdata$r	ENDS
;	COMDAT ??_R2?$CDynamicPoolEx@VCNullDecorator@NEffectUpdateDecorator@@@@8
rdata$r	SEGMENT
??_R2?$CDynamicPoolEx@VCNullDecorator@NEffectUpdateDecorator@@@@8 DD FLAT:??_R1A@?0A@EA@?$CDynamicPoolEx@VCNullDecorator@NEffectUpdateDecorator@@@@8 ; CDynamicPoolEx<NEffectUpdateDecorator::CNullDecorator>::`RTTI Base Class Array'
rdata$r	ENDS
;	COMDAT ??_R2?$CDynamicPoolEx@VCTextureAnimationCWDecorator@NEffectUpdateDecorator@@@@8
rdata$r	SEGMENT
??_R2?$CDynamicPoolEx@VCTextureAnimationCWDecorator@NEffectUpdateDecorator@@@@8 DD FLAT:??_R1A@?0A@EA@?$CDynamicPoolEx@VCTextureAnimationCWDecorator@NEffectUpdateDecorator@@@@8 ; CDynamicPoolEx<NEffectUpdateDecorator::CTextureAnimationCWDecorator>::`RTTI Base Class Array'
rdata$r	ENDS
;	COMDAT ??_R2?$CDynamicPoolEx@VCTextureAnimationCCWDecorator@NEffectUpdateDecorator@@@@8
rdata$r	SEGMENT
??_R2?$CDynamicPoolEx@VCTextureAnimationCCWDecorator@NEffectUpdateDecorator@@@@8 DD FLAT:??_R1A@?0A@EA@?$CDynamicPoolEx@VCTextureAnimationCCWDecorator@NEffectUpdateDecorator@@@@8 ; CDynamicPoolEx<NEffectUpdateDecorator::CTextureAnimationCCWDecorator>::`RTTI Base Class Array'
rdata$r	ENDS
;	COMDAT ??_R2?$CDynamicPoolEx@VCTextureAnimationRandomDecorator@NEffectUpdateDecorator@@@@8
rdata$r	SEGMENT
??_R2?$CDynamicPoolEx@VCTextureAnimationRandomDecorator@NEffectUpdateDecorator@@@@8 DD FLAT:??_R1A@?0A@EA@?$CDynamicPoolEx@VCTextureAnimationRandomDecorator@NEffectUpdateDecorator@@@@8 ; CDynamicPoolEx<NEffectUpdateDecorator::CTextureAnimationRandomDecorator>::`RTTI Base Class Array'
rdata$r	ENDS
;	COMDAT ??_R2?$CDynamicPoolEx@VCAirResistanceDecorator@NEffectUpdateDecorator@@@@8
rdata$r	SEGMENT
??_R2?$CDynamicPoolEx@VCAirResistanceDecorator@NEffectUpdateDecorator@@@@8 DD FLAT:??_R1A@?0A@EA@?$CDynamicPoolEx@VCAirResistanceDecorator@NEffectUpdateDecorator@@@@8 ; CDynamicPoolEx<NEffectUpdateDecorator::CAirResistanceDecorator>::`RTTI Base Class Array'
rdata$r	ENDS
;	COMDAT ??_R2?$CDynamicPoolEx@VCGravityDecorator@NEffectUpdateDecorator@@@@8
rdata$r	SEGMENT
??_R2?$CDynamicPoolEx@VCGravityDecorator@NEffectUpdateDecorator@@@@8 DD FLAT:??_R1A@?0A@EA@?$CDynamicPoolEx@VCGravityDecorator@NEffectUpdateDecorator@@@@8 ; CDynamicPoolEx<NEffectUpdateDecorator::CGravityDecorator>::`RTTI Base Class Array'
rdata$r	ENDS
;	COMDAT ??_R2?$CDynamicPoolEx@VCRotationDecorator@NEffectUpdateDecorator@@@@8
rdata$r	SEGMENT
??_R2?$CDynamicPoolEx@VCRotationDecorator@NEffectUpdateDecorator@@@@8 DD FLAT:??_R1A@?0A@EA@?$CDynamicPoolEx@VCRotationDecorator@NEffectUpdateDecorator@@@@8 ; CDynamicPoolEx<NEffectUpdateDecorator::CRotationDecorator>::`RTTI Base Class Array'
rdata$r	ENDS
;	COMDAT ??_C@_02GMLFBBN@wb@
CONST	SEGMENT
??_C@_02GMLFBBN@wb@ DB 'wb', 00H			; `string'
CONST	ENDS
;	COMDAT ??_C@_0BO@LNNOEBDM@RecvMarkBlock?3?5data?5corrupted@
CONST	SEGMENT
??_C@_0BO@LNNOEBDM@RecvMarkBlock?3?5data?5corrupted@ DB 'RecvMarkBlock: d'
	DB	'ata corrupted', 00H				; `string'
PUBLIC	??$_Get_size_of_n@$03@std@@YAII@Z		; std::_Get_size_of_n<4>
PUBLIC	??_ECGuildMarkDownloader@@WHM@AEPAXI@Z		; [thunk]:CGuildMarkDownloader::`vector deleting destructor'
PUBLIC	?allocate@?$allocator@K@std@@QAEPAKI@Z		; std::allocator<unsigned long>::allocate
PUBLIC	??0?$allocator@PAVCRotationDecorator@NEffectUpdateDecorator@@@std@@QAE@XZ ; std::allocator<NEffectUpdateDecorator::CRotationDecorator *>::allocator<NEffectUpdateDecorator::CRotationDecorator *>
PUBLIC	??0?$_Vector_val@U?$_Simple_types@PAVCRotationDecorator@NEffectUpdateDecorator@@@std@@@std@@QAE@XZ ; std::_Vector_val<std::_Simple_types<NEffectUpdateDecorator::CRotationDecorator *> >::_Vector_val<std::_Simple_types<NEffectUpdateDecorator::CRotationDecorator *> >
PUBLIC	?_Get_first@?$_Compressed_pair@V?$allocator@PAVCRotationDecorator@NEffectUpdateDecorator@@@std@@V?$_Vector_val@U?$_Simple_types@PAVCRotationDecorator@NEffectUpdateDecorator@@@std@@@2@$00@std@@QAEAAV?$allocator@PAVCRotationDecorator@NEffectUpdateDecorator@@@2@XZ ; std::_Compressed_pair<std::allocator<NEffectUpdateDecorator::CRotationDecorator *>,std::_Vector_val<std::_Simple_types<NEffectUpdateDecorator::CRotationDecorator *> >,1>::_Get_first
PUBLIC	??0?$allocator@PAVCGravityDecorator@NEffectUpdateDecorator@@@std@@QAE@XZ ; std::allocator<NEffectUpdateDecorator::CGravityDecorator *>::allocator<NEffectUpdateDecorator::CGravityDecorator *>
PUBLIC	??0?$_Vector_val@U?$_Simple_types@PAVCGravityDecorator@NEffectUpdateDecorator@@@std@@@std@@QAE@XZ ; std::_Vector_val<std::_Simple_types<NEffectUpdateDecorator::CGravityDecorator *> >::_Vector_val<std::_Simple_types<NEffectUpdateDecorator::CGravityDecorator *> >
PUBLIC	?_Get_first@?$_Compressed_pair@V?$allocator@PAVCGravityDecorator@NEffectUpdateDecorator@@@std@@V?$_Vector_val@U?$_Simple_types@PAVCGravityDecorator@NEffectUpdateDecorator@@@std@@@2@$00@std@@QAEAAV?$allocator@PAVCGravityDecorator@NEffectUpdateDecorator@@@2@XZ ; std::_Compressed_pair<std::allocator<NEffectUpdateDecorator::CGravityDecorator *>,std::_Vector_val<std::_Simple_types<NEffectUpdateDecorator::CGravityDecorator *> >,1>::_Get_first
PUBLIC	??0?$allocator@PAVCAirResistanceDecorator@NEffectUpdateDecorator@@@std@@QAE@XZ ; std::allocator<NEffectUpdateDecorator::CAirResistanceDecorator *>::allocator<NEffectUpdateDecorator::CAirResistanceDecorator *>
PUBLIC	??0?$_Vector_val@U?$_Simple_types@PAVCAirResistanceDecorator@NEffectUpdateDecorator@@@std@@@std@@QAE@XZ ; std::_Vector_val<std::_Simple_types<NEffectUpdateDecorator::CAirResistanceDecorator *> >::_Vector_val<std::_Simple_types<NEffectUpdateDecorator::CAirResistanceDecorator *> >
PUBLIC	?_Get_first@?$_Compressed_pair@V?$allocator@PAVCAirResistanceDecorator@NEffectUpdateDecorator@@@std@@V?$_Vector_val@U?$_Simple_types@PAVCAirResistanceDecorator@NEffectUpdateDecorator@@@std@@@2@$00@std@@QAEAAV?$allocator@PAVCAirResistanceDecorator@NEffectUpdateDecorator@@@2@XZ ; std::_Compressed_pair<std::allocator<NEffectUpdateDecorator::CAirResistanceDecorator *>,std::_Vector_val<std::_Simple_types<NEffectUpdateDecorator::CAirResistanceDecorator *> >,1>::_Get_first
PUBLIC	??0?$allocator@PAVCTextureAnimationRandomDecorator@NEffectUpdateDecorator@@@std@@QAE@XZ ; std::allocator<NEffectUpdateDecorator::CTextureAnimationRandomDecorator *>::allocator<NEffectUpdateDecorator::CTextureAnimationRandomDecorator *>
PUBLIC	??0?$_Vector_val@U?$_Simple_types@PAVCTextureAnimationRandomDecorator@NEffectUpdateDecorator@@@std@@@std@@QAE@XZ ; std::_Vector_val<std::_Simple_types<NEffectUpdateDecorator::CTextureAnimationRandomDecorator *> >::_Vector_val<std::_Simple_types<NEffectUpdateDecorator::CTextureAnimationRandomDecorator *> >
PUBLIC	??0?$allocator@PAVCTextureAnimationCCWDecorator@NEffectUpdateDecorator@@@std@@QAE@XZ ; std::allocator<NEffectUpdateDecorator::CTextureAnimationCCWDecorator *>::allocator<NEffectUpdateDecorator::CTextureAnimationCCWDecorator *>
PUBLIC	??0?$_Vector_val@U?$_Simple_types@PAVCTextureAnimationCCWDecorator@NEffectUpdateDecorator@@@std@@@std@@QAE@XZ ; std::_Vector_val<std::_Simple_types<NEffectUpdateDecorator::CTextureAnimationCCWDecorator *> >::_Vector_val<std::_Simple_types<NEffectUpdateDecorator::CTextureAnimationCCWDecorator *> >
PUBLIC	??0?$allocator@PAVCTextureAnimationCWDecorator@NEffectUpdateDecorator@@@std@@QAE@XZ ; std::allocator<NEffectUpdateDecorator::CTextureAnimationCWDecorator *>::allocator<NEffectUpdateDecorator::CTextureAnimationCWDecorator *>
PUBLIC	??0?$_Vector_val@U?$_Simple_types@PAVCTextureAnimationCWDecorator@NEffectUpdateDecorator@@@std@@@std@@QAE@XZ ; std::_Vector_val<std::_Simple_types<NEffectUpdateDecorator::CTextureAnimationCWDecorator *> >::_Vector_val<std::_Simple_types<NEffectUpdateDecorator::CTextureAnimationCWDecorator *> >
PUBLIC	??0?$allocator@PAVCNullDecorator@NEffectUpdateDecorator@@@std@@QAE@XZ ; std::allocator<NEffectUpdateDecorator::CNullDecorator *>::allocator<NEffectUpdateDecorator::CNullDecorator *>
PUBLIC	??0?$_Vector_val@U?$_Simple_types@PAVCNullDecorator@NEffectUpdateDecorator@@@std@@@std@@QAE@XZ ; std::_Vector_val<std::_Simple_types<NEffectUpdateDecorator::CNullDecorator *> >::_Vector_val<std::_Simple_types<NEffectUpdateDecorator::CNullDecorator *> >
PUBLIC	??0?$allocator@PAVCHeaderDecorator@NEffectUpdateDecorator@@@std@@QAE@XZ ; std::allocator<NEffectUpdateDecorator::CHeaderDecorator *>::allocator<NEffectUpdateDecorator::CHeaderDecorator *>
PUBLIC	??0?$_Vector_val@U?$_Simple_types@PAVCHeaderDecorator@NEffectUpdateDecorator@@@std@@@std@@QAE@XZ ; std::_Vector_val<std::_Simple_types<NEffectUpdateDecorator::CHeaderDecorator *> >::_Vector_val<std::_Simple_types<NEffectUpdateDecorator::CHeaderDecorator *> >
PUBLIC	??$construct_at@KAAK@std@@YAPAKQAKAAK@Z		; std::construct_at<unsigned long,unsigned long &>
PUBLIC	?capacity@?$vector@KV?$allocator@K@std@@@std@@QBEIXZ ; std::vector<unsigned long,std::allocator<unsigned long> >::capacity
PUBLIC	?max_size@?$_Default_allocator_traits@V?$allocator@K@std@@@std@@SAIABV?$allocator@K@2@@Z ; std::_Default_allocator_traits<std::allocator<unsigned long> >::max_size
PUBLIC	?deallocate@?$allocator@PAVCRotationDecorator@NEffectUpdateDecorator@@@std@@QAEXQAPAVCRotationDecorator@NEffectUpdateDecorator@@I@Z ; std::allocator<NEffectUpdateDecorator::CRotationDecorator *>::deallocate
PUBLIC	?_Getal@?$vector@PAVCRotationDecorator@NEffectUpdateDecorator@@V?$allocator@PAVCRotationDecorator@NEffectUpdateDecorator@@@std@@@std@@AAEAAV?$allocator@PAVCRotationDecorator@NEffectUpdateDecorator@@@2@XZ ; std::vector<NEffectUpdateDecorator::CRotationDecorator *,std::allocator<NEffectUpdateDecorator::CRotationDecorator *> >::_Getal
PUBLIC	?deallocate@?$allocator@PAVCGravityDecorator@NEffectUpdateDecorator@@@std@@QAEXQAPAVCGravityDecorator@NEffectUpdateDecorator@@I@Z ; std::allocator<NEffectUpdateDecorator::CGravityDecorator *>::deallocate
PUBLIC	?_Getal@?$vector@PAVCGravityDecorator@NEffectUpdateDecorator@@V?$allocator@PAVCGravityDecorator@NEffectUpdateDecorator@@@std@@@std@@AAEAAV?$allocator@PAVCGravityDecorator@NEffectUpdateDecorator@@@2@XZ ; std::vector<NEffectUpdateDecorator::CGravityDecorator *,std::allocator<NEffectUpdateDecorator::CGravityDecorator *> >::_Getal
PUBLIC	?deallocate@?$allocator@PAVCAirResistanceDecorator@NEffectUpdateDecorator@@@std@@QAEXQAPAVCAirResistanceDecorator@NEffectUpdateDecorator@@I@Z ; std::allocator<NEffectUpdateDecorator::CAirResistanceDecorator *>::deallocate
PUBLIC	?_Getal@?$vector@PAVCAirResistanceDecorator@NEffectUpdateDecorator@@V?$allocator@PAVCAirResistanceDecorator@NEffectUpdateDecorator@@@std@@@std@@AAEAAV?$allocator@PAVCAirResistanceDecorator@NEffectUpdateDecorator@@@2@XZ ; std::vector<NEffectUpdateDecorator::CAirResistanceDecorator *,std::allocator<NEffectUpdateDecorator::CAirResistanceDecorator *> >::_Getal
PUBLIC	?deallocate@?$allocator@PAVCTextureAnimationRandomDecorator@NEffectUpdateDecorator@@@std@@QAEXQAPAVCTextureAnimationRandomDecorator@NEffectUpdateDecorator@@I@Z ; std::allocator<NEffectUpdateDecorator::CTextureAnimationRandomDecorator *>::deallocate
PUBLIC	?_Get_first@?$_Compressed_pair@V?$allocator@PAVCTextureAnimationRandomDecorator@NEffectUpdateDecorator@@@std@@V?$_Vector_val@U?$_Simple_types@PAVCTextureAnimationRandomDecorator@NEffectUpdateDecorator@@@std@@@2@$00@std@@QAEAAV?$allocator@PAVCTextureAnimationRandomDecorator@NEffectUpdateDecorator@@@2@XZ ; std::_Compressed_pair<std::allocator<NEffectUpdateDecorator::CTextureAnimationRandomDecorator *>,std::_Vector_val<std::_Simple_types<NEffectUpdateDecorator::CTextureAnimationRandomDecorator *> >,1>::_Get_first
PUBLIC	?deallocate@?$allocator@PAVCTextureAnimationCCWDecorator@NEffectUpdateDecorator@@@std@@QAEXQAPAVCTextureAnimationCCWDecorator@NEffectUpdateDecorator@@I@Z ; std::allocator<NEffectUpdateDecorator::CTextureAnimationCCWDecorator *>::deallocate
PUBLIC	?_Get_first@?$_Compressed_pair@V?$allocator@PAVCTextureAnimationCCWDecorator@NEffectUpdateDecorator@@@std@@V?$_Vector_val@U?$_Simple_types@PAVCTextureAnimationCCWDecorator@NEffectUpdateDecorator@@@std@@@2@$00@std@@QAEAAV?$allocator@PAVCTextureAnimationCCWDecorator@NEffectUpdateDecorator@@@2@XZ ; std::_Compressed_pair<std::allocator<NEffectUpdateDecorator::CTextureAnimationCCWDecorator *>,std::_Vector_val<std::_Simple_types<NEffectUpdateDecorator::CTextureAnimationCCWDecorator *> >,1>::_Get_first
PUBLIC	?deallocate@?$allocator@PAVCTextureAnimationCWDecorator@NEffectUpdateDecorator@@@std@@QAEXQAPAVCTextureAnimationCWDecorator@NEffectUpdateDecorator@@I@Z ; std::allocator<NEffectUpdateDecorator::CTextureAnimationCWDecorator *>::deallocate
PUBLIC	?_Get_first@?$_Compressed_pair@V?$allocator@PAVCTextureAnimationCWDecorator@NEffectUpdateDecorator@@@std@@V?$_Vector_val@U?$_Simple_types@PAVCTextureAnimationCWDecorator@NEffectUpdateDecorator@@@std@@@2@$00@std@@QAEAAV?$allocator@PAVCTextureAnimationCWDecorator@NEffectUpdateDecorator@@@2@XZ ; std::_Compressed_pair<std::allocator<NEffectUpdateDecorator::CTextureAnimationCWDecorator *>,std::_Vector_val<std::_Simple_types<NEffectUpdateDecorator::CTextureAnimationCWDecorator *> >,1>::_Get_first
PUBLIC	?deallocate@?$allocator@PAVCNullDecorator@NEffectUpdateDecorator@@@std@@QAEXQAPAVCNullDecorator@NEffectUpdateDecorator@@I@Z ; std::allocator<NEffectUpdateDecorator::CNullDecorator *>::deallocate
PUBLIC	?_Get_first@?$_Compressed_pair@V?$allocator@PAVCNullDecorator@NEffectUpdateDecorator@@@std@@V?$_Vector_val@U?$_Simple_types@PAVCNullDecorator@NEffectUpdateDecorator@@@std@@@2@$00@std@@QAEAAV?$allocator@PAVCNullDecorator@NEffectUpdateDecorator@@@2@XZ ; std::_Compressed_pair<std::allocator<NEffectUpdateDecorator::CNullDecorator *>,std::_Vector_val<std::_Simple_types<NEffectUpdateDecorator::CNullDecorator *> >,1>::_Get_first
PUBLIC	?deallocate@?$allocator@PAVCHeaderDecorator@NEffectUpdateDecorator@@@std@@QAEXQAPAVCHeaderDecorator@NEffectUpdateDecorator@@I@Z ; std::allocator<NEffectUpdateDecorator::CHeaderDecorator *>::deallocate
PUBLIC	?_Get_first@?$_Compressed_pair@V?$allocator@PAVCHeaderDecorator@NEffectUpdateDecorator@@@std@@V?$_Vector_val@U?$_Simple_types@PAVCHeaderDecorator@NEffectUpdateDecorator@@@std@@@2@$00@std@@QAEAAV?$allocator@PAVCHeaderDecorator@NEffectUpdateDecorator@@@2@XZ ; std::_Compressed_pair<std::allocator<NEffectUpdateDecorator::CHeaderDecorator *>,std::_Vector_val<std::_Simple_types<NEffectUpdateDecorator::CHeaderDecorator *> >,1>::_Get_first
PUBLIC	??$_Allocate_at_least_helper@V?$allocator@K@std@@@std@@YAPAKAAV?$allocator@K@0@AAI@Z ; std::_Allocate_at_least_helper<std::allocator<unsigned long> >
PUBLIC	??$?0$$V@?$_Compressed_pair@V?$allocator@PAVCRotationDecorator@NEffectUpdateDecorator@@@std@@V?$_Vector_val@U?$_Simple_types@PAVCRotationDecorator@NEffectUpdateDecorator@@@std@@@2@$00@std@@QAE@U_Zero_then_variadic_args_t@1@@Z ; std::_Compressed_pair<std::allocator<NEffectUpdateDecorator::CRotationDecorator *>,std::_Vector_val<std::_Simple_types<NEffectUpdateDecorator::CRotationDecorator *> >,1>::_Compressed_pair<std::allocator<NEffectUpdateDecorator::CRotationDecorator *>,std::_Vector_val<std::_Simple_types<NEffectUpdateDecorator::CRotationDecorator *> >,1><>
PUBLIC	??$_Unfancy_maybe_null@PAVCRotationDecorator@NEffectUpdateDecorator@@@std@@YAPAPAVCRotationDecorator@NEffectUpdateDecorator@@PAPAV12@@Z ; std::_Unfancy_maybe_null<NEffectUpdateDecorator::CRotationDecorator *>
PUBLIC	??$_Destroy_range@V?$allocator@PAVCRotationDecorator@NEffectUpdateDecorator@@@std@@@std@@YAXPAPAVCRotationDecorator@NEffectUpdateDecorator@@QAPAV12@AAV?$allocator@PAVCRotationDecorator@NEffectUpdateDecorator@@@0@@Z ; std::_Destroy_range<std::allocator<NEffectUpdateDecorator::CRotationDecorator *> >
PUBLIC	??$?0$$V@?$_Compressed_pair@V?$allocator@PAVCGravityDecorator@NEffectUpdateDecorator@@@std@@V?$_Vector_val@U?$_Simple_types@PAVCGravityDecorator@NEffectUpdateDecorator@@@std@@@2@$00@std@@QAE@U_Zero_then_variadic_args_t@1@@Z ; std::_Compressed_pair<std::allocator<NEffectUpdateDecorator::CGravityDecorator *>,std::_Vector_val<std::_Simple_types<NEffectUpdateDecorator::CGravityDecorator *> >,1>::_Compressed_pair<std::allocator<NEffectUpdateDecorator::CGravityDecorator *>,std::_Vector_val<std::_Simple_types<NEffectUpdateDecorator::CGravityDecorator *> >,1><>
PUBLIC	??$_Unfancy_maybe_null@PAVCGravityDecorator@NEffectUpdateDecorator@@@std@@YAPAPAVCGravityDecorator@NEffectUpdateDecorator@@PAPAV12@@Z ; std::_Unfancy_maybe_null<NEffectUpdateDecorator::CGravityDecorator *>
PUBLIC	??$_Destroy_range@V?$allocator@PAVCGravityDecorator@NEffectUpdateDecorator@@@std@@@std@@YAXPAPAVCGravityDecorator@NEffectUpdateDecorator@@QAPAV12@AAV?$allocator@PAVCGravityDecorator@NEffectUpdateDecorator@@@0@@Z ; std::_Destroy_range<std::allocator<NEffectUpdateDecorator::CGravityDecorator *> >
PUBLIC	??$?0$$V@?$_Compressed_pair@V?$allocator@PAVCAirResistanceDecorator@NEffectUpdateDecorator@@@std@@V?$_Vector_val@U?$_Simple_types@PAVCAirResistanceDecorator@NEffectUpdateDecorator@@@std@@@2@$00@std@@QAE@U_Zero_then_variadic_args_t@1@@Z ; std::_Compressed_pair<std::allocator<NEffectUpdateDecorator::CAirResistanceDecorator *>,std::_Vector_val<std::_Simple_types<NEffectUpdateDecorator::CAirResistanceDecorator *> >,1>::_Compressed_pair<std::allocator<NEffectUpdateDecorator::CAirResistanceDecorator *>,std::_Vector_val<std::_Simple_types<NEffectUpdateDecorator::CAirResistanceDecorator *> >,1><>
PUBLIC	??$_Unfancy_maybe_null@PAVCAirResistanceDecorator@NEffectUpdateDecorator@@@std@@YAPAPAVCAirResistanceDecorator@NEffectUpdateDecorator@@PAPAV12@@Z ; std::_Unfancy_maybe_null<NEffectUpdateDecorator::CAirResistanceDecorator *>
PUBLIC	??$_Destroy_range@V?$allocator@PAVCAirResistanceDecorator@NEffectUpdateDecorator@@@std@@@std@@YAXPAPAVCAirResistanceDecorator@NEffectUpdateDecorator@@QAPAV12@AAV?$allocator@PAVCAirResistanceDecorator@NEffectUpdateDecorator@@@0@@Z ; std::_Destroy_range<std::allocator<NEffectUpdateDecorator::CAirResistanceDecorator *> >
PUBLIC	??$?0$$V@?$_Compressed_pair@V?$allocator@PAVCTextureAnimationRandomDecorator@NEffectUpdateDecorator@@@std@@V?$_Vector_val@U?$_Simple_types@PAVCTextureAnimationRandomDecorator@NEffectUpdateDecorator@@@std@@@2@$00@std@@QAE@U_Zero_then_variadic_args_t@1@@Z ; std::_Compressed_pair<std::allocator<NEffectUpdateDecorator::CTextureAnimationRandomDecorator *>,std::_Vector_val<std::_Simple_types<NEffectUpdateDecorator::CTextureAnimationRandomDecorator *> >,1>::_Compressed_pair<std::allocator<NEffectUpdateDecorator::CTextureAnimationRandomDecorator *>,std::_Vector_val<std::_Simple_types<NEffectUpdateDecorator::CTextureAnimationRandomDecorator *> >,1><>
PUBLIC	??$_Unfancy_maybe_null@PAVCTextureAnimationRandomDecorator@NEffectUpdateDecorator@@@std@@YAPAPAVCTextureAnimationRandomDecorator@NEffectUpdateDecorator@@PAPAV12@@Z ; std::_Unfancy_maybe_null<NEffectUpdateDecorator::CTextureAnimationRandomDecorator *>
PUBLIC	??$_Destroy_range@V?$allocator@PAVCTextureAnimationRandomDecorator@NEffectUpdateDecorator@@@std@@@std@@YAXPAPAVCTextureAnimationRandomDecorator@NEffectUpdateDecorator@@QAPAV12@AAV?$allocator@PAVCTextureAnimationRandomDecorator@NEffectUpdateDecorator@@@0@@Z ; std::_Destroy_range<std::allocator<NEffectUpdateDecorator::CTextureAnimationRandomDecorator *> >
PUBLIC	??$?0$$V@?$_Compressed_pair@V?$allocator@PAVCTextureAnimationCCWDecorator@NEffectUpdateDecorator@@@std@@V?$_Vector_val@U?$_Simple_types@PAVCTextureAnimationCCWDecorator@NEffectUpdateDecorator@@@std@@@2@$00@std@@QAE@U_Zero_then_variadic_args_t@1@@Z ; std::_Compressed_pair<std::allocator<NEffectUpdateDecorator::CTextureAnimationCCWDecorator *>,std::_Vector_val<std::_Simple_types<NEffectUpdateDecorator::CTextureAnimationCCWDecorator *> >,1>::_Compressed_pair<std::allocator<NEffectUpdateDecorator::CTextureAnimationCCWDecorator *>,std::_Vector_val<std::_Simple_types<NEffectUpdateDecorator::CTextureAnimationCCWDecorator *> >,1><>
PUBLIC	??$_Unfancy_maybe_null@PAVCTextureAnimationCCWDecorator@NEffectUpdateDecorator@@@std@@YAPAPAVCTextureAnimationCCWDecorator@NEffectUpdateDecorator@@PAPAV12@@Z ; std::_Unfancy_maybe_null<NEffectUpdateDecorator::CTextureAnimationCCWDecorator *>
PUBLIC	??$_Destroy_range@V?$allocator@PAVCTextureAnimationCCWDecorator@NEffectUpdateDecorator@@@std@@@std@@YAXPAPAVCTextureAnimationCCWDecorator@NEffectUpdateDecorator@@QAPAV12@AAV?$allocator@PAVCTextureAnimationCCWDecorator@NEffectUpdateDecorator@@@0@@Z ; std::_Destroy_range<std::allocator<NEffectUpdateDecorator::CTextureAnimationCCWDecorator *> >
PUBLIC	??$?0$$V@?$_Compressed_pair@V?$allocator@PAVCTextureAnimationCWDecorator@NEffectUpdateDecorator@@@std@@V?$_Vector_val@U?$_Simple_types@PAVCTextureAnimationCWDecorator@NEffectUpdateDecorator@@@std@@@2@$00@std@@QAE@U_Zero_then_variadic_args_t@1@@Z ; std::_Compressed_pair<std::allocator<NEffectUpdateDecorator::CTextureAnimationCWDecorator *>,std::_Vector_val<std::_Simple_types<NEffectUpdateDecorator::CTextureAnimationCWDecorator *> >,1>::_Compressed_pair<std::allocator<NEffectUpdateDecorator::CTextureAnimationCWDecorator *>,std::_Vector_val<std::_Simple_types<NEffectUpdateDecorator::CTextureAnimationCWDecorator *> >,1><>
PUBLIC	??$_Unfancy_maybe_null@PAVCTextureAnimationCWDecorator@NEffectUpdateDecorator@@@std@@YAPAPAVCTextureAnimationCWDecorator@NEffectUpdateDecorator@@PAPAV12@@Z ; std::_Unfancy_maybe_null<NEffectUpdateDecorator::CTextureAnimationCWDecorator *>
PUBLIC	??$_Destroy_range@V?$allocator@PAVCTextureAnimationCWDecorator@NEffectUpdateDecorator@@@std@@@std@@YAXPAPAVCTextureAnimationCWDecorator@NEffectUpdateDecorator@@QAPAV12@AAV?$allocator@PAVCTextureAnimationCWDecorator@NEffectUpdateDecorator@@@0@@Z ; std::_Destroy_range<std::allocator<NEffectUpdateDecorator::CTextureAnimationCWDecorator *> >
PUBLIC	??$?0$$V@?$_Compressed_pair@V?$allocator@PAVCNullDecorator@NEffectUpdateDecorator@@@std@@V?$_Vector_val@U?$_Simple_types@PAVCNullDecorator@NEffectUpdateDecorator@@@std@@@2@$00@std@@QAE@U_Zero_then_variadic_args_t@1@@Z ; std::_Compressed_pair<std::allocator<NEffectUpdateDecorator::CNullDecorator *>,std::_Vector_val<std::_Simple_types<NEffectUpdateDecorator::CNullDecorator *> >,1>::_Compressed_pair<std::allocator<NEffectUpdateDecorator::CNullDecorator *>,std::_Vector_val<std::_Simple_types<NEffectUpdateDecorator::CNullDecorator *> >,1><>
PUBLIC	??$_Unfancy_maybe_null@PAVCNullDecorator@NEffectUpdateDecorator@@@std@@YAPAPAVCNullDecorator@NEffectUpdateDecorator@@PAPAV12@@Z ; std::_Unfancy_maybe_null<NEffectUpdateDecorator::CNullDecorator *>
PUBLIC	??$_Destroy_range@V?$allocator@PAVCNullDecorator@NEffectUpdateDecorator@@@std@@@std@@YAXPAPAVCNullDecorator@NEffectUpdateDecorator@@QAPAV12@AAV?$allocator@PAVCNullDecorator@NEffectUpdateDecorator@@@0@@Z ; std::_Destroy_range<std::allocator<NEffectUpdateDecorator::CNullDecorator *> >
PUBLIC	??$?0$$V@?$_Compressed_pair@V?$allocator@PAVCHeaderDecorator@NEffectUpdateDecorator@@@std@@V?$_Vector_val@U?$_Simple_types@PAVCHeaderDecorator@NEffectUpdateDecorator@@@std@@@2@$00@std@@QAE@U_Zero_then_variadic_args_t@1@@Z ; std::_Compressed_pair<std::allocator<NEffectUpdateDecorator::CHeaderDecorator *>,std::_Vector_val<std::_Simple_types<NEffectUpdateDecorator::CHeaderDecorator *> >,1>::_Compressed_pair<std::allocator<NEffectUpdateDecorator::CHeaderDecorator *>,std::_Vector_val<std::_Simple_types<NEffectUpdateDecorator::CHeaderDecorator *> >,1><>
PUBLIC	??$_Unfancy_maybe_null@PAVCHeaderDecorator@NEffectUpdateDecorator@@@std@@YAPAPAVCHeaderDecorator@NEffectUpdateDecorator@@PAPAV12@@Z ; std::_Unfancy_maybe_null<NEffectUpdateDecorator::CHeaderDecorator *>
PUBLIC	??$_Destroy_range@V?$allocator@PAVCHeaderDecorator@NEffectUpdateDecorator@@@std@@@std@@YAXPAPAVCHeaderDecorator@NEffectUpdateDecorator@@QAPAV12@AAV?$allocator@PAVCHeaderDecorator@NEffectUpdateDecorator@@@0@@Z ; std::_Destroy_range<std::allocator<NEffectUpdateDecorator::CHeaderDecorator *> >
PUBLIC	??$construct@KAAK@?$_Default_allocator_traits@V?$allocator@K@std@@@std@@SAXAAV?$allocator@K@1@QAKAAK@Z ; std::_Default_allocator_traits<std::allocator<unsigned long> >::construct<unsigned long,unsigned long &>
PUBLIC	??$forward@AAK@std@@YAAAKAAK@Z			; std::forward<unsigned long &>
PUBLIC	?max_size@?$vector@KV?$allocator@K@std@@@std@@QBEIXZ ; std::vector<unsigned long,std::allocator<unsigned long> >::max_size
PUBLIC	?_Calculate_growth@?$vector@KV?$allocator@K@std@@@std@@ABEII@Z ; std::vector<unsigned long,std::allocator<unsigned long> >::_Calculate_growth
PUBLIC	?_Buy_raw@?$vector@KV?$allocator@K@std@@@std@@AAEXI@Z ; std::vector<unsigned long,std::allocator<unsigned long> >::_Buy_raw
PUBLIC	?_Xlength@?$vector@KV?$allocator@K@std@@@std@@CAXXZ ; std::vector<unsigned long,std::allocator<unsigned long> >::_Xlength
PUBLIC	?Delete@?$CDynamicPoolEx@VCHeaderDecorator@NEffectUpdateDecorator@@@@KAXPAVCHeaderDecorator@NEffectUpdateDecorator@@@Z ; CDynamicPoolEx<NEffectUpdateDecorator::CHeaderDecorator>::Delete
PUBLIC	?Delete@?$CDynamicPoolEx@VCNullDecorator@NEffectUpdateDecorator@@@@KAXPAVCNullDecorator@NEffectUpdateDecorator@@@Z ; CDynamicPoolEx<NEffectUpdateDecorator::CNullDecorator>::Delete
PUBLIC	?Delete@?$CDynamicPoolEx@VCTextureAnimationCWDecorator@NEffectUpdateDecorator@@@@KAXPAVCTextureAnimationCWDecorator@NEffectUpdateDecorator@@@Z ; CDynamicPoolEx<NEffectUpdateDecorator::CTextureAnimationCWDecorator>::Delete
PUBLIC	?Delete@?$CDynamicPoolEx@VCTextureAnimationCCWDecorator@NEffectUpdateDecorator@@@@KAXPAVCTextureAnimationCCWDecorator@NEffectUpdateDecorator@@@Z ; CDynamicPoolEx<NEffectUpdateDecorator::CTextureAnimationCCWDecorator>::Delete
PUBLIC	?Delete@?$CDynamicPoolEx@VCTextureAnimationRandomDecorator@NEffectUpdateDecorator@@@@KAXPAVCTextureAnimationRandomDecorator@NEffectUpdateDecorator@@@Z ; CDynamicPoolEx<NEffectUpdateDecorator::CTextureAnimationRandomDecorator>::Delete
PUBLIC	?Delete@?$CDynamicPoolEx@VCAirResistanceDecorator@NEffectUpdateDecorator@@@@KAXPAVCAirResistanceDecorator@NEffectUpdateDecorator@@@Z ; CDynamicPoolEx<NEffectUpdateDecorator::CAirResistanceDecorator>::Delete
PUBLIC	?Delete@?$CDynamicPoolEx@VCGravityDecorator@NEffectUpdateDecorator@@@@KAXPAVCGravityDecorator@NEffectUpdateDecorator@@@Z ; CDynamicPoolEx<NEffectUpdateDecorator::CGravityDecorator>::Delete
PUBLIC	?Delete@?$CDynamicPoolEx@VCRotationDecorator@NEffectUpdateDecorator@@@@KAXPAVCRotationDecorator@NEffectUpdateDecorator@@@Z ; CDynamicPoolEx<NEffectUpdateDecorator::CRotationDecorator>::Delete
PUBLIC	??0?$vector@PAVCRotationDecorator@NEffectUpdateDecorator@@V?$allocator@PAVCRotationDecorator@NEffectUpdateDecorator@@@std@@@std@@QAE@XZ ; std::vector<NEffectUpdateDecorator::CRotationDecorator *,std::allocator<NEffectUpdateDecorator::CRotationDecorator *> >::vector<NEffectUpdateDecorator::CRotationDecorator *,std::allocator<NEffectUpdateDecorator::CRotationDecorator *> >
PUBLIC	?clear@?$vector@PAVCRotationDecorator@NEffectUpdateDecorator@@V?$allocator@PAVCRotationDecorator@NEffectUpdateDecorator@@@std@@@std@@QAEXXZ ; std::vector<NEffectUpdateDecorator::CRotationDecorator *,std::allocator<NEffectUpdateDecorator::CRotationDecorator *> >::clear
PUBLIC	?_Unchecked_begin@?$vector@PAVCRotationDecorator@NEffectUpdateDecorator@@V?$allocator@PAVCRotationDecorator@NEffectUpdateDecorator@@@std@@@std@@QAEPAPAVCRotationDecorator@NEffectUpdateDecorator@@XZ ; std::vector<NEffectUpdateDecorator::CRotationDecorator *,std::allocator<NEffectUpdateDecorator::CRotationDecorator *> >::_Unchecked_begin
PUBLIC	?_Unchecked_end@?$vector@PAVCRotationDecorator@NEffectUpdateDecorator@@V?$allocator@PAVCRotationDecorator@NEffectUpdateDecorator@@@std@@@std@@QAEPAPAVCRotationDecorator@NEffectUpdateDecorator@@XZ ; std::vector<NEffectUpdateDecorator::CRotationDecorator *,std::allocator<NEffectUpdateDecorator::CRotationDecorator *> >::_Unchecked_end
PUBLIC	?_Tidy@?$vector@PAVCRotationDecorator@NEffectUpdateDecorator@@V?$allocator@PAVCRotationDecorator@NEffectUpdateDecorator@@@std@@@std@@AAEXXZ ; std::vector<NEffectUpdateDecorator::CRotationDecorator *,std::allocator<NEffectUpdateDecorator::CRotationDecorator *> >::_Tidy
PUBLIC	??0?$vector@PAVCGravityDecorator@NEffectUpdateDecorator@@V?$allocator@PAVCGravityDecorator@NEffectUpdateDecorator@@@std@@@std@@QAE@XZ ; std::vector<NEffectUpdateDecorator::CGravityDecorator *,std::allocator<NEffectUpdateDecorator::CGravityDecorator *> >::vector<NEffectUpdateDecorator::CGravityDecorator *,std::allocator<NEffectUpdateDecorator::CGravityDecorator *> >
PUBLIC	?clear@?$vector@PAVCGravityDecorator@NEffectUpdateDecorator@@V?$allocator@PAVCGravityDecorator@NEffectUpdateDecorator@@@std@@@std@@QAEXXZ ; std::vector<NEffectUpdateDecorator::CGravityDecorator *,std::allocator<NEffectUpdateDecorator::CGravityDecorator *> >::clear
PUBLIC	?_Unchecked_begin@?$vector@PAVCGravityDecorator@NEffectUpdateDecorator@@V?$allocator@PAVCGravityDecorator@NEffectUpdateDecorator@@@std@@@std@@QAEPAPAVCGravityDecorator@NEffectUpdateDecorator@@XZ ; std::vector<NEffectUpdateDecorator::CGravityDecorator *,std::allocator<NEffectUpdateDecorator::CGravityDecorator *> >::_Unchecked_begin
PUBLIC	?_Unchecked_end@?$vector@PAVCGravityDecorator@NEffectUpdateDecorator@@V?$allocator@PAVCGravityDecorator@NEffectUpdateDecorator@@@std@@@std@@QAEPAPAVCGravityDecorator@NEffectUpdateDecorator@@XZ ; std::vector<NEffectUpdateDecorator::CGravityDecorator *,std::allocator<NEffectUpdateDecorator::CGravityDecorator *> >::_Unchecked_end
PUBLIC	?_Tidy@?$vector@PAVCGravityDecorator@NEffectUpdateDecorator@@V?$allocator@PAVCGravityDecorator@NEffectUpdateDecorator@@@std@@@std@@AAEXXZ ; std::vector<NEffectUpdateDecorator::CGravityDecorator *,std::allocator<NEffectUpdateDecorator::CGravityDecorator *> >::_Tidy
PUBLIC	??0?$vector@PAVCAirResistanceDecorator@NEffectUpdateDecorator@@V?$allocator@PAVCAirResistanceDecorator@NEffectUpdateDecorator@@@std@@@std@@QAE@XZ ; std::vector<NEffectUpdateDecorator::CAirResistanceDecorator *,std::allocator<NEffectUpdateDecorator::CAirResistanceDecorator *> >::vector<NEffectUpdateDecorator::CAirResistanceDecorator *,std::allocator<NEffectUpdateDecorator::CAirResistanceDecorator *> >
PUBLIC	?clear@?$vector@PAVCAirResistanceDecorator@NEffectUpdateDecorator@@V?$allocator@PAVCAirResistanceDecorator@NEffectUpdateDecorator@@@std@@@std@@QAEXXZ ; std::vector<NEffectUpdateDecorator::CAirResistanceDecorator *,std::allocator<NEffectUpdateDecorator::CAirResistanceDecorator *> >::clear
PUBLIC	?_Unchecked_begin@?$vector@PAVCAirResistanceDecorator@NEffectUpdateDecorator@@V?$allocator@PAVCAirResistanceDecorator@NEffectUpdateDecorator@@@std@@@std@@QAEPAPAVCAirResistanceDecorator@NEffectUpdateDecorator@@XZ ; std::vector<NEffectUpdateDecorator::CAirResistanceDecorator *,std::allocator<NEffectUpdateDecorator::CAirResistanceDecorator *> >::_Unchecked_begin
PUBLIC	?_Unchecked_end@?$vector@PAVCAirResistanceDecorator@NEffectUpdateDecorator@@V?$allocator@PAVCAirResistanceDecorator@NEffectUpdateDecorator@@@std@@@std@@QAEPAPAVCAirResistanceDecorator@NEffectUpdateDecorator@@XZ ; std::vector<NEffectUpdateDecorator::CAirResistanceDecorator *,std::allocator<NEffectUpdateDecorator::CAirResistanceDecorator *> >::_Unchecked_end
PUBLIC	?_Tidy@?$vector@PAVCAirResistanceDecorator@NEffectUpdateDecorator@@V?$allocator@PAVCAirResistanceDecorator@NEffectUpdateDecorator@@@std@@@std@@AAEXXZ ; std::vector<NEffectUpdateDecorator::CAirResistanceDecorator *,std::allocator<NEffectUpdateDecorator::CAirResistanceDecorator *> >::_Tidy
PUBLIC	??0?$vector@PAVCTextureAnimationRandomDecorator@NEffectUpdateDecorator@@V?$allocator@PAVCTextureAnimationRandomDecorator@NEffectUpdateDecorator@@@std@@@std@@QAE@XZ ; std::vector<NEffectUpdateDecorator::CTextureAnimationRandomDecorator *,std::allocator<NEffectUpdateDecorator::CTextureAnimationRandomDecorator *> >::vector<NEffectUpdateDecorator::CTextureAnimationRandomDecorator *,std::allocator<NEffectUpdateDecorator::CTextureAnimationRandomDecorator *> >
PUBLIC	?clear@?$vector@PAVCTextureAnimationRandomDecorator@NEffectUpdateDecorator@@V?$allocator@PAVCTextureAnimationRandomDecorator@NEffectUpdateDecorator@@@std@@@std@@QAEXXZ ; std::vector<NEffectUpdateDecorator::CTextureAnimationRandomDecorator *,std::allocator<NEffectUpdateDecorator::CTextureAnimationRandomDecorator *> >::clear
PUBLIC	?_Unchecked_begin@?$vector@PAVCTextureAnimationRandomDecorator@NEffectUpdateDecorator@@V?$allocator@PAVCTextureAnimationRandomDecorator@NEffectUpdateDecorator@@@std@@@std@@QAEPAPAVCTextureAnimationRandomDecorator@NEffectUpdateDecorator@@XZ ; std::vector<NEffectUpdateDecorator::CTextureAnimationRandomDecorator *,std::allocator<NEffectUpdateDecorator::CTextureAnimationRandomDecorator *> >::_Unchecked_begin
PUBLIC	?_Unchecked_end@?$vector@PAVCTextureAnimationRandomDecorator@NEffectUpdateDecorator@@V?$allocator@PAVCTextureAnimationRandomDecorator@NEffectUpdateDecorator@@@std@@@std@@QAEPAPAVCTextureAnimationRandomDecorator@NEffectUpdateDecorator@@XZ ; std::vector<NEffectUpdateDecorator::CTextureAnimationRandomDecorator *,std::allocator<NEffectUpdateDecorator::CTextureAnimationRandomDecorator *> >::_Unchecked_end
PUBLIC	?_Tidy@?$vector@PAVCTextureAnimationRandomDecorator@NEffectUpdateDecorator@@V?$allocator@PAVCTextureAnimationRandomDecorator@NEffectUpdateDecorator@@@std@@@std@@AAEXXZ ; std::vector<NEffectUpdateDecorator::CTextureAnimationRandomDecorator *,std::allocator<NEffectUpdateDecorator::CTextureAnimationRandomDecorator *> >::_Tidy
PUBLIC	?_Getal@?$vector@PAVCTextureAnimationRandomDecorator@NEffectUpdateDecorator@@V?$allocator@PAVCTextureAnimationRandomDecorator@NEffectUpdateDecorator@@@std@@@std@@AAEAAV?$allocator@PAVCTextureAnimationRandomDecorator@NEffectUpdateDecorator@@@2@XZ ; std::vector<NEffectUpdateDecorator::CTextureAnimationRandomDecorator *,std::allocator<NEffectUpdateDecorator::CTextureAnimationRandomDecorator *> >::_Getal
PUBLIC	??0?$vector@PAVCTextureAnimationCCWDecorator@NEffectUpdateDecorator@@V?$allocator@PAVCTextureAnimationCCWDecorator@NEffectUpdateDecorator@@@std@@@std@@QAE@XZ ; std::vector<NEffectUpdateDecorator::CTextureAnimationCCWDecorator *,std::allocator<NEffectUpdateDecorator::CTextureAnimationCCWDecorator *> >::vector<NEffectUpdateDecorator::CTextureAnimationCCWDecorator *,std::allocator<NEffectUpdateDecorator::CTextureAnimationCCWDecorator *> >
PUBLIC	?clear@?$vector@PAVCTextureAnimationCCWDecorator@NEffectUpdateDecorator@@V?$allocator@PAVCTextureAnimationCCWDecorator@NEffectUpdateDecorator@@@std@@@std@@QAEXXZ ; std::vector<NEffectUpdateDecorator::CTextureAnimationCCWDecorator *,std::allocator<NEffectUpdateDecorator::CTextureAnimationCCWDecorator *> >::clear
PUBLIC	?_Unchecked_begin@?$vector@PAVCTextureAnimationCCWDecorator@NEffectUpdateDecorator@@V?$allocator@PAVCTextureAnimationCCWDecorator@NEffectUpdateDecorator@@@std@@@std@@QAEPAPAVCTextureAnimationCCWDecorator@NEffectUpdateDecorator@@XZ ; std::vector<NEffectUpdateDecorator::CTextureAnimationCCWDecorator *,std::allocator<NEffectUpdateDecorator::CTextureAnimationCCWDecorator *> >::_Unchecked_begin
PUBLIC	?_Unchecked_end@?$vector@PAVCTextureAnimationCCWDecorator@NEffectUpdateDecorator@@V?$allocator@PAVCTextureAnimationCCWDecorator@NEffectUpdateDecorator@@@std@@@std@@QAEPAPAVCTextureAnimationCCWDecorator@NEffectUpdateDecorator@@XZ ; std::vector<NEffectUpdateDecorator::CTextureAnimationCCWDecorator *,std::allocator<NEffectUpdateDecorator::CTextureAnimationCCWDecorator *> >::_Unchecked_end
PUBLIC	?_Tidy@?$vector@PAVCTextureAnimationCCWDecorator@NEffectUpdateDecorator@@V?$allocator@PAVCTextureAnimationCCWDecorator@NEffectUpdateDecorator@@@std@@@std@@AAEXXZ ; std::vector<NEffectUpdateDecorator::CTextureAnimationCCWDecorator *,std::allocator<NEffectUpdateDecorator::CTextureAnimationCCWDecorator *> >::_Tidy
PUBLIC	?_Getal@?$vector@PAVCTextureAnimationCCWDecorator@NEffectUpdateDecorator@@V?$allocator@PAVCTextureAnimationCCWDecorator@NEffectUpdateDecorator@@@std@@@std@@AAEAAV?$allocator@PAVCTextureAnimationCCWDecorator@NEffectUpdateDecorator@@@2@XZ ; std::vector<NEffectUpdateDecorator::CTextureAnimationCCWDecorator *,std::allocator<NEffectUpdateDecorator::CTextureAnimationCCWDecorator *> >::_Getal
PUBLIC	??0?$vector@PAVCTextureAnimationCWDecorator@NEffectUpdateDecorator@@V?$allocator@PAVCTextureAnimationCWDecorator@NEffectUpdateDecorator@@@std@@@std@@QAE@XZ ; std::vector<NEffectUpdateDecorator::CTextureAnimationCWDecorator *,std::allocator<NEffectUpdateDecorator::CTextureAnimationCWDecorator *> >::vector<NEffectUpdateDecorator::CTextureAnimationCWDecorator *,std::allocator<NEffectUpdateDecorator::CTextureAnimationCWDecorator *> >
PUBLIC	?clear@?$vector@PAVCTextureAnimationCWDecorator@NEffectUpdateDecorator@@V?$allocator@PAVCTextureAnimationCWDecorator@NEffectUpdateDecorator@@@std@@@std@@QAEXXZ ; std::vector<NEffectUpdateDecorator::CTextureAnimationCWDecorator *,std::allocator<NEffectUpdateDecorator::CTextureAnimationCWDecorator *> >::clear
PUBLIC	?_Unchecked_begin@?$vector@PAVCTextureAnimationCWDecorator@NEffectUpdateDecorator@@V?$allocator@PAVCTextureAnimationCWDecorator@NEffectUpdateDecorator@@@std@@@std@@QAEPAPAVCTextureAnimationCWDecorator@NEffectUpdateDecorator@@XZ ; std::vector<NEffectUpdateDecorator::CTextureAnimationCWDecorator *,std::allocator<NEffectUpdateDecorator::CTextureAnimationCWDecorator *> >::_Unchecked_begin
PUBLIC	?_Unchecked_end@?$vector@PAVCTextureAnimationCWDecorator@NEffectUpdateDecorator@@V?$allocator@PAVCTextureAnimationCWDecorator@NEffectUpdateDecorator@@@std@@@std@@QAEPAPAVCTextureAnimationCWDecorator@NEffectUpdateDecorator@@XZ ; std::vector<NEffectUpdateDecorator::CTextureAnimationCWDecorator *,std::allocator<NEffectUpdateDecorator::CTextureAnimationCWDecorator *> >::_Unchecked_end
PUBLIC	?_Tidy@?$vector@PAVCTextureAnimationCWDecorator@NEffectUpdateDecorator@@V?$allocator@PAVCTextureAnimationCWDecorator@NEffectUpdateDecorator@@@std@@@std@@AAEXXZ ; std::vector<NEffectUpdateDecorator::CTextureAnimationCWDecorator *,std::allocator<NEffectUpdateDecorator::CTextureAnimationCWDecorator *> >::_Tidy
PUBLIC	?_Getal@?$vector@PAVCTextureAnimationCWDecorator@NEffectUpdateDecorator@@V?$allocator@PAVCTextureAnimationCWDecorator@NEffectUpdateDecorator@@@std@@@std@@AAEAAV?$allocator@PAVCTextureAnimationCWDecorator@NEffectUpdateDecorator@@@2@XZ ; std::vector<NEffectUpdateDecorator::CTextureAnimationCWDecorator *,std::allocator<NEffectUpdateDecorator::CTextureAnimationCWDecorator *> >::_Getal
PUBLIC	??0?$vector@PAVCNullDecorator@NEffectUpdateDecorator@@V?$allocator@PAVCNullDecorator@NEffectUpdateDecorator@@@std@@@std@@QAE@XZ ; std::vector<NEffectUpdateDecorator::CNullDecorator *,std::allocator<NEffectUpdateDecorator::CNullDecorator *> >::vector<NEffectUpdateDecorator::CNullDecorator *,std::allocator<NEffectUpdateDecorator::CNullDecorator *> >
PUBLIC	?clear@?$vector@PAVCNullDecorator@NEffectUpdateDecorator@@V?$allocator@PAVCNullDecorator@NEffectUpdateDecorator@@@std@@@std@@QAEXXZ ; std::vector<NEffectUpdateDecorator::CNullDecorator *,std::allocator<NEffectUpdateDecorator::CNullDecorator *> >::clear
PUBLIC	?_Unchecked_begin@?$vector@PAVCNullDecorator@NEffectUpdateDecorator@@V?$allocator@PAVCNullDecorator@NEffectUpdateDecorator@@@std@@@std@@QAEPAPAVCNullDecorator@NEffectUpdateDecorator@@XZ ; std::vector<NEffectUpdateDecorator::CNullDecorator *,std::allocator<NEffectUpdateDecorator::CNullDecorator *> >::_Unchecked_begin
PUBLIC	?_Unchecked_end@?$vector@PAVCNullDecorator@NEffectUpdateDecorator@@V?$allocator@PAVCNullDecorator@NEffectUpdateDecorator@@@std@@@std@@QAEPAPAVCNullDecorator@NEffectUpdateDecorator@@XZ ; std::vector<NEffectUpdateDecorator::CNullDecorator *,std::allocator<NEffectUpdateDecorator::CNullDecorator *> >::_Unchecked_end
PUBLIC	?_Tidy@?$vector@PAVCNullDecorator@NEffectUpdateDecorator@@V?$allocator@PAVCNullDecorator@NEffectUpdateDecorator@@@std@@@std@@AAEXXZ ; std::vector<NEffectUpdateDecorator::CNullDecorator *,std::allocator<NEffectUpdateDecorator::CNullDecorator *> >::_Tidy
PUBLIC	?_Getal@?$vector@PAVCNullDecorator@NEffectUpdateDecorator@@V?$allocator@PAVCNullDecorator@NEffectUpdateDecorator@@@std@@@std@@AAEAAV?$allocator@PAVCNullDecorator@NEffectUpdateDecorator@@@2@XZ ; std::vector<NEffectUpdateDecorator::CNullDecorator *,std::allocator<NEffectUpdateDecorator::CNullDecorator *> >::_Getal
PUBLIC	??0?$vector@PAVCHeaderDecorator@NEffectUpdateDecorator@@V?$allocator@PAVCHeaderDecorator@NEffectUpdateDecorator@@@std@@@std@@QAE@XZ ; std::vector<NEffectUpdateDecorator::CHeaderDecorator *,std::allocator<NEffectUpdateDecorator::CHeaderDecorator *> >::vector<NEffectUpdateDecorator::CHeaderDecorator *,std::allocator<NEffectUpdateDecorator::CHeaderDecorator *> >
PUBLIC	?clear@?$vector@PAVCHeaderDecorator@NEffectUpdateDecorator@@V?$allocator@PAVCHeaderDecorator@NEffectUpdateDecorator@@@std@@@std@@QAEXXZ ; std::vector<NEffectUpdateDecorator::CHeaderDecorator *,std::allocator<NEffectUpdateDecorator::CHeaderDecorator *> >::clear
PUBLIC	?_Unchecked_begin@?$vector@PAVCHeaderDecorator@NEffectUpdateDecorator@@V?$allocator@PAVCHeaderDecorator@NEffectUpdateDecorator@@@std@@@std@@QAEPAPAVCHeaderDecorator@NEffectUpdateDecorator@@XZ ; std::vector<NEffectUpdateDecorator::CHeaderDecorator *,std::allocator<NEffectUpdateDecorator::CHeaderDecorator *> >::_Unchecked_begin
PUBLIC	?_Unchecked_end@?$vector@PAVCHeaderDecorator@NEffectUpdateDecorator@@V?$allocator@PAVCHeaderDecorator@NEffectUpdateDecorator@@@std@@@std@@QAEPAPAVCHeaderDecorator@NEffectUpdateDecorator@@XZ ; std::vector<NEffectUpdateDecorator::CHeaderDecorator *,std::allocator<NEffectUpdateDecorator::CHeaderDecorator *> >::_Unchecked_end
PUBLIC	?_Tidy@?$vector@PAVCHeaderDecorator@NEffectUpdateDecorator@@V?$allocator@PAVCHeaderDecorator@NEffectUpdateDecorator@@@std@@@std@@AAEXXZ ; std::vector<NEffectUpdateDecorator::CHeaderDecorator *,std::allocator<NEffectUpdateDecorator::CHeaderDecorator *> >::_Tidy
PUBLIC	?_Getal@?$vector@PAVCHeaderDecorator@NEffectUpdateDecorator@@V?$allocator@PAVCHeaderDecorator@NEffectUpdateDecorator@@@std@@@std@@AAEAAV?$allocator@PAVCHeaderDecorator@NEffectUpdateDecorator@@@2@XZ ; std::vector<NEffectUpdateDecorator::CHeaderDecorator *,std::allocator<NEffectUpdateDecorator::CHeaderDecorator *> >::_Getal
PUBLIC	??0?$_Uninitialized_backout_al@V?$allocator@K@std@@@std@@QAE@PAKAAV?$allocator@K@1@@Z ; std::_Uninitialized_backout_al<std::allocator<unsigned long> >::_Uninitialized_backout_al<std::allocator<unsigned long> >
PUBLIC	??1?$_Uninitialized_backout_al@V?$allocator@K@std@@@std@@QAE@XZ ; std::_Uninitialized_backout_al<std::allocator<unsigned long> >::~_Uninitialized_backout_al<std::allocator<unsigned long> >
PUBLIC	?_Release@?$_Uninitialized_backout_al@V?$allocator@K@std@@@std@@QAEPAKXZ ; std::_Uninitialized_backout_al<std::allocator<unsigned long> >::_Release
PUBLIC	??$_Copy_memmove_tail@PAK@std@@YAPAKQBDQAKII@Z	; std::_Copy_memmove_tail<unsigned long *>
PUBLIC	??$to_address@K@std@@YAPAKQAK@Z			; std::to_address<unsigned long>
PUBLIC	??$_Emplace_back@AAK@?$_Uninitialized_backout_al@V?$allocator@K@std@@@std@@QAEXAAK@Z ; std::_Uninitialized_backout_al<std::allocator<unsigned long> >::_Emplace_back<unsigned long &>
PUBLIC	??$_Unfancy@K@std@@YAPAKPAK@Z			; std::_Unfancy<unsigned long>
PUBLIC	??0?$allocator@K@std@@QAE@XZ			; std::allocator<unsigned long>::allocator<unsigned long>
PUBLIC	?deallocate@?$allocator@K@std@@QAEXQAKI@Z	; std::allocator<unsigned long>::deallocate
PUBLIC	?_Clear_and_reserve_geometric@?$vector@KV?$allocator@K@std@@@std@@AAEXI@Z ; std::vector<unsigned long,std::allocator<unsigned long> >::_Clear_and_reserve_geometric
PUBLIC	??0?$_Vector_val@U?$_Simple_types@K@std@@@std@@QAE@XZ ; std::_Vector_val<std::_Simple_types<unsigned long> >::_Vector_val<std::_Simple_types<unsigned long> >
PUBLIC	?_Get_first@?$_Compressed_pair@V?$allocator@K@std@@V?$_Vector_val@U?$_Simple_types@K@std@@@2@$00@std@@QAEAAV?$allocator@K@2@XZ ; std::_Compressed_pair<std::allocator<unsigned long>,std::_Vector_val<std::_Simple_types<unsigned long> >,1>::_Get_first
PUBLIC	?_Get_first@?$_Compressed_pair@V?$allocator@K@std@@V?$_Vector_val@U?$_Simple_types@K@std@@@2@$00@std@@QBEABV?$allocator@K@2@XZ ; std::_Compressed_pair<std::allocator<unsigned long>,std::_Vector_val<std::_Simple_types<unsigned long> >,1>::_Get_first
PUBLIC	??0?$CDynamicPoolEx@VCHeaderDecorator@NEffectUpdateDecorator@@@@QAE@XZ ; CDynamicPoolEx<NEffectUpdateDecorator::CHeaderDecorator>::CDynamicPoolEx<NEffectUpdateDecorator::CHeaderDecorator>
PUBLIC	?Destroy@?$CDynamicPoolEx@VCHeaderDecorator@NEffectUpdateDecorator@@@@QAEXXZ ; CDynamicPoolEx<NEffectUpdateDecorator::CHeaderDecorator>::Destroy
PUBLIC	??0?$CDynamicPoolEx@VCNullDecorator@NEffectUpdateDecorator@@@@QAE@XZ ; CDynamicPoolEx<NEffectUpdateDecorator::CNullDecorator>::CDynamicPoolEx<NEffectUpdateDecorator::CNullDecorator>
PUBLIC	?Destroy@?$CDynamicPoolEx@VCNullDecorator@NEffectUpdateDecorator@@@@QAEXXZ ; CDynamicPoolEx<NEffectUpdateDecorator::CNullDecorator>::Destroy
PUBLIC	??0?$CDynamicPoolEx@VCTextureAnimationCWDecorator@NEffectUpdateDecorator@@@@QAE@XZ ; CDynamicPoolEx<NEffectUpdateDecorator::CTextureAnimationCWDecorator>::CDynamicPoolEx<NEffectUpdateDecorator::CTextureAnimationCWDecorator>
PUBLIC	?Destroy@?$CDynamicPoolEx@VCTextureAnimationCWDecorator@NEffectUpdateDecorator@@@@QAEXXZ ; CDynamicPoolEx<NEffectUpdateDecorator::CTextureAnimationCWDecorator>::Destroy
PUBLIC	??0?$CDynamicPoolEx@VCTextureAnimationCCWDecorator@NEffectUpdateDecorator@@@@QAE@XZ ; CDynamicPoolEx<NEffectUpdateDecorator::CTextureAnimationCCWDecorator>::CDynamicPoolEx<NEffectUpdateDecorator::CTextureAnimationCCWDecorator>
PUBLIC	?Destroy@?$CDynamicPoolEx@VCTextureAnimationCCWDecorator@NEffectUpdateDecorator@@@@QAEXXZ ; CDynamicPoolEx<NEffectUpdateDecorator::CTextureAnimationCCWDecorator>::Destroy
PUBLIC	??0?$CDynamicPoolEx@VCTextureAnimationRandomDecorator@NEffectUpdateDecorator@@@@QAE@XZ ; CDynamicPoolEx<NEffectUpdateDecorator::CTextureAnimationRandomDecorator>::CDynamicPoolEx<NEffectUpdateDecorator::CTextureAnimationRandomDecorator>
PUBLIC	?Destroy@?$CDynamicPoolEx@VCTextureAnimationRandomDecorator@NEffectUpdateDecorator@@@@QAEXXZ ; CDynamicPoolEx<NEffectUpdateDecorator::CTextureAnimationRandomDecorator>::Destroy
PUBLIC	??0?$CDynamicPoolEx@VCAirResistanceDecorator@NEffectUpdateDecorator@@@@QAE@XZ ; CDynamicPoolEx<NEffectUpdateDecorator::CAirResistanceDecorator>::CDynamicPoolEx<NEffectUpdateDecorator::CAirResistanceDecorator>
PUBLIC	?Destroy@?$CDynamicPoolEx@VCAirResistanceDecorator@NEffectUpdateDecorator@@@@QAEXXZ ; CDynamicPoolEx<NEffectUpdateDecorator::CAirResistanceDecorator>::Destroy
PUBLIC	??0?$CDynamicPoolEx@VCGravityDecorator@NEffectUpdateDecorator@@@@QAE@XZ ; CDynamicPoolEx<NEffectUpdateDecorator::CGravityDecorator>::CDynamicPoolEx<NEffectUpdateDecorator::CGravityDecorator>
PUBLIC	?Destroy@?$CDynamicPoolEx@VCGravityDecorator@NEffectUpdateDecorator@@@@QAEXXZ ; CDynamicPoolEx<NEffectUpdateDecorator::CGravityDecorator>::Destroy
PUBLIC	??0?$CDynamicPoolEx@VCRotationDecorator@NEffectUpdateDecorator@@@@QAE@XZ ; CDynamicPoolEx<NEffectUpdateDecorator::CRotationDecorator>::CDynamicPoolEx<NEffectUpdateDecorator::CRotationDecorator>
PUBLIC	?Destroy@?$CDynamicPoolEx@VCRotationDecorator@NEffectUpdateDecorator@@@@QAEXXZ ; CDynamicPoolEx<NEffectUpdateDecorator::CRotationDecorator>::Destroy
PUBLIC	??1?$vector@PAVCRotationDecorator@NEffectUpdateDecorator@@V?$allocator@PAVCRotationDecorator@NEffectUpdateDecorator@@@std@@@std@@QAE@XZ ; std::vector<NEffectUpdateDecorator::CRotationDecorator *,std::allocator<NEffectUpdateDecorator::CRotationDecorator *> >::~vector<NEffectUpdateDecorator::CRotationDecorator *,std::allocator<NEffectUpdateDecorator::CRotationDecorator *> >
PUBLIC	??1?$vector@PAVCGravityDecorator@NEffectUpdateDecorator@@V?$allocator@PAVCGravityDecorator@NEffectUpdateDecorator@@@std@@@std@@QAE@XZ ; std::vector<NEffectUpdateDecorator::CGravityDecorator *,std::allocator<NEffectUpdateDecorator::CGravityDecorator *> >::~vector<NEffectUpdateDecorator::CGravityDecorator *,std::allocator<NEffectUpdateDecorator::CGravityDecorator *> >
PUBLIC	??1?$vector@PAVCAirResistanceDecorator@NEffectUpdateDecorator@@V?$allocator@PAVCAirResistanceDecorator@NEffectUpdateDecorator@@@std@@@std@@QAE@XZ ; std::vector<NEffectUpdateDecorator::CAirResistanceDecorator *,std::allocator<NEffectUpdateDecorator::CAirResistanceDecorator *> >::~vector<NEffectUpdateDecorator::CAirResistanceDecorator *,std::allocator<NEffectUpdateDecorator::CAirResistanceDecorator *> >
PUBLIC	??1?$vector@PAVCTextureAnimationRandomDecorator@NEffectUpdateDecorator@@V?$allocator@PAVCTextureAnimationRandomDecorator@NEffectUpdateDecorator@@@std@@@std@@QAE@XZ ; std::vector<NEffectUpdateDecorator::CTextureAnimationRandomDecorator *,std::allocator<NEffectUpdateDecorator::CTextureAnimationRandomDecorator *> >::~vector<NEffectUpdateDecorator::CTextureAnimationRandomDecorator *,std::allocator<NEffectUpdateDecorator::CTextureAnimationRandomDecorator *> >
PUBLIC	??1?$vector@PAVCTextureAnimationCCWDecorator@NEffectUpdateDecorator@@V?$allocator@PAVCTextureAnimationCCWDecorator@NEffectUpdateDecorator@@@std@@@std@@QAE@XZ ; std::vector<NEffectUpdateDecorator::CTextureAnimationCCWDecorator *,std::allocator<NEffectUpdateDecorator::CTextureAnimationCCWDecorator *> >::~vector<NEffectUpdateDecorator::CTextureAnimationCCWDecorator *,std::allocator<NEffectUpdateDecorator::CTextureAnimationCCWDecorator *> >
PUBLIC	??1?$vector@PAVCTextureAnimationCWDecorator@NEffectUpdateDecorator@@V?$allocator@PAVCTextureAnimationCWDecorator@NEffectUpdateDecorator@@@std@@@std@@QAE@XZ ; std::vector<NEffectUpdateDecorator::CTextureAnimationCWDecorator *,std::allocator<NEffectUpdateDecorator::CTextureAnimationCWDecorator *> >::~vector<NEffectUpdateDecorator::CTextureAnimationCWDecorator *,std::allocator<NEffectUpdateDecorator::CTextureAnimationCWDecorator *> >
PUBLIC	??1?$vector@PAVCNullDecorator@NEffectUpdateDecorator@@V?$allocator@PAVCNullDecorator@NEffectUpdateDecorator@@@std@@@std@@QAE@XZ ; std::vector<NEffectUpdateDecorator::CNullDecorator *,std::allocator<NEffectUpdateDecorator::CNullDecorator *> >::~vector<NEffectUpdateDecorator::CNullDecorator *,std::allocator<NEffectUpdateDecorator::CNullDecorator *> >
PUBLIC	??1?$vector@PAVCHeaderDecorator@NEffectUpdateDecorator@@V?$allocator@PAVCHeaderDecorator@NEffectUpdateDecorator@@@std@@@std@@QAE@XZ ; std::vector<NEffectUpdateDecorator::CHeaderDecorator *,std::allocator<NEffectUpdateDecorator::CHeaderDecorator *> >::~vector<NEffectUpdateDecorator::CHeaderDecorator *,std::allocator<NEffectUpdateDecorator::CHeaderDecorator *> >
PUBLIC	??$_Copy_n_unchecked4@PAKIPAK@std@@YAPAKPAKI0@Z	; std::_Copy_n_unchecked4<unsigned long *,unsigned int,unsigned long *>
PUBLIC	??$_To_address@PAK@std@@YA?A_PABQAK@Z		; std::_To_address<unsigned long *>
PUBLIC	??$_Copy_memmove_n@PAKPAK@std@@YAPAKPAKI0@Z	; std::_Copy_memmove_n<unsigned long *,unsigned long *>
PUBLIC	??$_Uninitialized_copy_n@PAKV?$allocator@K@std@@@std@@YAPAKPAKI0AAV?$allocator@K@0@@Z ; std::_Uninitialized_copy_n<unsigned long *,std::allocator<unsigned long> >
PUBLIC	??$_Get_unwrapped@PAK@std@@YA?A_T$$QAPAK@Z	; std::_Get_unwrapped<unsigned long *>
PUBLIC	??$move@AAPAK@std@@YA$$QAPAKAAPAK@Z		; std::move<unsigned long * &>
PUBLIC	??_G?$CDynamicPoolEx@VCHeaderDecorator@NEffectUpdateDecorator@@@@UAEPAXI@Z ; CDynamicPoolEx<NEffectUpdateDecorator::CHeaderDecorator>::`scalar deleting destructor'
PUBLIC	??_G?$CDynamicPoolEx@VCNullDecorator@NEffectUpdateDecorator@@@@UAEPAXI@Z ; CDynamicPoolEx<NEffectUpdateDecorator::CNullDecorator>::`scalar deleting destructor'
PUBLIC	??_G?$CDynamicPoolEx@VCTextureAnimationCWDecorator@NEffectUpdateDecorator@@@@UAEPAXI@Z ; CDynamicPoolEx<NEffectUpdateDecorator::CTextureAnimationCWDecorator>::`scalar deleting destructor'
PUBLIC	??_G?$CDynamicPoolEx@VCTextureAnimationCCWDecorator@NEffectUpdateDecorator@@@@UAEPAXI@Z ; CDynamicPoolEx<NEffectUpdateDecorator::CTextureAnimationCCWDecorator>::`scalar deleting destructor'
PUBLIC	??_G?$CDynamicPoolEx@VCTextureAnimationRandomDecorator@NEffectUpdateDecorator@@@@UAEPAXI@Z ; CDynamicPoolEx<NEffectUpdateDecorator::CTextureAnimationRandomDecorator>::`scalar deleting destructor'
PUBLIC	??_G?$CDynamicPoolEx@VCAirResistanceDecorator@NEffectUpdateDecorator@@@@UAEPAXI@Z ; CDynamicPoolEx<NEffectUpdateDecorator::CAirResistanceDecorator>::`scalar deleting destructor'
PUBLIC	??_G?$CDynamicPoolEx@VCGravityDecorator@NEffectUpdateDecorator@@@@UAEPAXI@Z ; CDynamicPoolEx<NEffectUpdateDecorator::CGravityDecorator>::`scalar deleting destructor'
PUBLIC	??_G?$CDynamicPoolEx@VCRotationDecorator@NEffectUpdateDecorator@@@@UAEPAXI@Z ; CDynamicPoolEx<NEffectUpdateDecorator::CRotationDecorator>::`scalar deleting destructor'
PUBLIC	?_Tidy@?$vector@KV?$allocator@K@std@@@std@@AAEXXZ ; std::vector<unsigned long,std::allocator<unsigned long> >::_Tidy
PUBLIC	?_Getal@?$vector@KV?$allocator@K@std@@@std@@AAEAAV?$allocator@K@2@XZ ; std::vector<unsigned long,std::allocator<unsigned long> >::_Getal
PUBLIC	?_Getal@?$vector@KV?$allocator@K@std@@@std@@ABEABV?$allocator@K@2@XZ ; std::vector<unsigned long,std::allocator<unsigned long> >::_Getal
PUBLIC	??1?$CDynamicPoolEx@VCHeaderDecorator@NEffectUpdateDecorator@@@@UAE@XZ ; CDynamicPoolEx<NEffectUpdateDecorator::CHeaderDecorator>::~CDynamicPoolEx<NEffectUpdateDecorator::CHeaderDecorator>
PUBLIC	??1?$CDynamicPoolEx@VCNullDecorator@NEffectUpdateDecorator@@@@UAE@XZ ; CDynamicPoolEx<NEffectUpdateDecorator::CNullDecorator>::~CDynamicPoolEx<NEffectUpdateDecorator::CNullDecorator>
PUBLIC	??1?$CDynamicPoolEx@VCTextureAnimationCWDecorator@NEffectUpdateDecorator@@@@UAE@XZ ; CDynamicPoolEx<NEffectUpdateDecorator::CTextureAnimationCWDecorator>::~CDynamicPoolEx<NEffectUpdateDecorator::CTextureAnimationCWDecorator>
PUBLIC	??1?$CDynamicPoolEx@VCTextureAnimationCCWDecorator@NEffectUpdateDecorator@@@@UAE@XZ ; CDynamicPoolEx<NEffectUpdateDecorator::CTextureAnimationCCWDecorator>::~CDynamicPoolEx<NEffectUpdateDecorator::CTextureAnimationCCWDecorator>
PUBLIC	??1?$CDynamicPoolEx@VCTextureAnimationRandomDecorator@NEffectUpdateDecorator@@@@UAE@XZ ; CDynamicPoolEx<NEffectUpdateDecorator::CTextureAnimationRandomDecorator>::~CDynamicPoolEx<NEffectUpdateDecorator::CTextureAnimationRandomDecorator>
PUBLIC	??1?$CDynamicPoolEx@VCAirResistanceDecorator@NEffectUpdateDecorator@@@@UAE@XZ ; CDynamicPoolEx<NEffectUpdateDecorator::CAirResistanceDecorator>::~CDynamicPoolEx<NEffectUpdateDecorator::CAirResistanceDecorator>
PUBLIC	??1?$CDynamicPoolEx@VCGravityDecorator@NEffectUpdateDecorator@@@@UAE@XZ ; CDynamicPoolEx<NEffectUpdateDecorator::CGravityDecorator>::~CDynamicPoolEx<NEffectUpdateDecorator::CGravityDecorator>
PUBLIC	??1?$CDynamicPoolEx@VCRotationDecorator@NEffectUpdateDecorator@@@@UAE@XZ ; CDynamicPoolEx<NEffectUpdateDecorator::CRotationDecorator>::~CDynamicPoolEx<NEffectUpdateDecorator::CRotationDecorator>
PUBLIC	??$?0$$V@?$_Compressed_pair@V?$allocator@K@std@@V?$_Vector_val@U?$_Simple_types@K@std@@@2@$00@std@@QAE@U_Zero_then_variadic_args_t@1@@Z ; std::_Compressed_pair<std::allocator<unsigned long>,std::_Vector_val<std::_Simple_types<unsigned long> >,1>::_Compressed_pair<std::allocator<unsigned long>,std::_Vector_val<std::_Simple_types<unsigned long> >,1><>
PUBLIC	??$_Assign_counted_range@PAK@?$vector@KV?$allocator@K@std@@@std@@AAEXPAKI@Z ; std::vector<unsigned long,std::allocator<unsigned long> >::_Assign_counted_range<unsigned long *>
PUBLIC	??$_Pocca@V?$allocator@K@std@@@std@@YAXAAV?$allocator@K@0@ABV10@@Z ; std::_Pocca<std::allocator<unsigned long> >
PUBLIC	??$addressof@$$CBV?$vector@KV?$allocator@K@std@@@std@@@std@@YAPBV?$vector@KV?$allocator@K@std@@@0@ABV10@@Z ; std::addressof<std::vector<unsigned long,std::allocator<unsigned long> > const >
PUBLIC	??$_Destroy_range@V?$allocator@K@std@@@std@@YAXPAKQAKAAV?$allocator@K@0@@Z ; std::_Destroy_range<std::allocator<unsigned long> >
PUBLIC	??_G?$CSingleton@VCGuildMarkDownloader@@@@UAEPAXI@Z ; CSingleton<CGuildMarkDownloader>::`scalar deleting destructor'
PUBLIC	??0?$vector@KV?$allocator@K@std@@@std@@QAE@XZ	; std::vector<unsigned long,std::allocator<unsigned long> >::vector<unsigned long,std::allocator<unsigned long> >
PUBLIC	??1?$vector@KV?$allocator@K@std@@@std@@QAE@XZ	; std::vector<unsigned long,std::allocator<unsigned long> >::~vector<unsigned long,std::allocator<unsigned long> >
PUBLIC	??4?$vector@KV?$allocator@K@std@@@std@@QAEAAV01@ABV01@@Z ; std::vector<unsigned long,std::allocator<unsigned long> >::operator=
PUBLIC	?clear@?$vector@KV?$allocator@K@std@@@std@@QAEXXZ ; std::vector<unsigned long,std::allocator<unsigned long> >::clear
PUBLIC	?size@?$vector@KV?$allocator@K@std@@@std@@QBEIXZ ; std::vector<unsigned long,std::allocator<unsigned long> >::size
PUBLIC	??A?$vector@KV?$allocator@K@std@@@std@@QAEAAKI@Z ; std::vector<unsigned long,std::allocator<unsigned long> >::operator[]
PUBLIC	?Instance@?$singleton@VCGuildMarkManager@@@@SAAAVCGuildMarkManager@@XZ ; singleton<CGuildMarkManager>::Instance
PUBLIC	??0?$CSingleton@VCGuildMarkDownloader@@@@QAE@XZ	; CSingleton<CGuildMarkDownloader>::CSingleton<CGuildMarkDownloader>
PUBLIC	??1?$CSingleton@VCGuildMarkDownloader@@@@UAE@XZ	; CSingleton<CGuildMarkDownloader>::~CSingleton<CGuildMarkDownloader>
PUBLIC	?instance@?$CSingleton@VCPythonCharacterManager@@@@SAAAVCPythonCharacterManager@@XZ ; CSingleton<CPythonCharacterManager>::instance
PUBLIC	?__empty_global_delete@@YAXPAXIW4align_val_t@std@@@Z ; __empty_global_delete
PUBLIC	?__empty_global_delete@@YAXPAXW4align_val_t@std@@@Z ; __empty_global_delete
PUBLIC	?__empty_global_delete@@YAXPAXI@Z		; __empty_global_delete
PUBLIC	?__empty_global_delete@@YAXPAX@Z		; __empty_global_delete
PUBLIC	?__LoginState_RecvSymbolData@CGuildMarkDownloader@@AAE_NXZ ; CGuildMarkDownloader::__LoginState_RecvSymbolData
PUBLIC	?__SendSymbolCRCList@CGuildMarkDownloader@@AAE_NXZ ; CGuildMarkDownloader::__SendSymbolCRCList
PUBLIC	?__LoginState_RecvKeyAgreementCompleted@CGuildMarkDownloader@@AAE_NXZ ; CGuildMarkDownloader::__LoginState_RecvKeyAgreementCompleted
PUBLIC	?__LoginState_RecvKeyAgreement@CGuildMarkDownloader@@AAE_NXZ ; CGuildMarkDownloader::__LoginState_RecvKeyAgreement
PUBLIC	?__LoginState_RecvMarkBlock@CGuildMarkDownloader@@AAE_NXZ ; CGuildMarkDownloader::__LoginState_RecvMarkBlock
PUBLIC	?__SendMarkCRCList@CGuildMarkDownloader@@AAE_NXZ ; CGuildMarkDownloader::__SendMarkCRCList
PUBLIC	?__LoginState_RecvMarkIndex@CGuildMarkDownloader@@AAE_NXZ ; CGuildMarkDownloader::__LoginState_RecvMarkIndex
PUBLIC	?__SendMarkIDXList@CGuildMarkDownloader@@AAE_NXZ ; CGuildMarkDownloader::__SendMarkIDXList
PUBLIC	?__LoginState_RecvPhase@CGuildMarkDownloader@@AAE_NXZ ; CGuildMarkDownloader::__LoginState_RecvPhase
PUBLIC	?__LoginState_RecvPing@CGuildMarkDownloader@@AAE_NXZ ; CGuildMarkDownloader::__LoginState_RecvPing
PUBLIC	?__LoginState_RecvHandshake@CGuildMarkDownloader@@AAE_NXZ ; CGuildMarkDownloader::__LoginState_RecvHandshake
PUBLIC	?__DispatchPacket@CGuildMarkDownloader@@AAE_NI@Z ; CGuildMarkDownloader::__DispatchPacket
PUBLIC	?__GetPacketSize@CGuildMarkDownloader@@AAEII@Z	; CGuildMarkDownloader::__GetPacketSize
PUBLIC	?__LoginState_Process@CGuildMarkDownloader@@AAE_NXZ ; CGuildMarkDownloader::__LoginState_Process
PUBLIC	?__LoginState_Set@CGuildMarkDownloader@@AAEXXZ	; CGuildMarkDownloader::__LoginState_Set
PUBLIC	?__CompleteState_Set@CGuildMarkDownloader@@AAEXXZ ; CGuildMarkDownloader::__CompleteState_Set
PUBLIC	?__OfflineState_Set@CGuildMarkDownloader@@AAEXXZ ; CGuildMarkDownloader::__OfflineState_Set
PUBLIC	?__StateProcess@CGuildMarkDownloader@@AAE_NXZ	; CGuildMarkDownloader::__StateProcess
PUBLIC	?__Initialize@CGuildMarkDownloader@@AAEXXZ	; CGuildMarkDownloader::__Initialize
PUBLIC	?OnDisconnect@CGuildMarkDownloader@@EAEXXZ	; CGuildMarkDownloader::OnDisconnect
PUBLIC	?OnRemoteDisconnect@CGuildMarkDownloader@@EAEXXZ ; CGuildMarkDownloader::OnRemoteDisconnect
PUBLIC	?OnConnectSuccess@CGuildMarkDownloader@@EAEXXZ	; CGuildMarkDownloader::OnConnectSuccess
PUBLIC	?OnConnectFailure@CGuildMarkDownloader@@EAEXXZ	; CGuildMarkDownloader::OnConnectFailure
PUBLIC	?Process@CGuildMarkDownloader@@QAEXXZ		; CGuildMarkDownloader::Process
PUBLIC	?ConnectToRecvSymbol@CGuildMarkDownloader@@QAE_NABVCNetworkAddress@@KKABV?$vector@KV?$allocator@K@std@@@std@@@Z ; CGuildMarkDownloader::ConnectToRecvSymbol
PUBLIC	?Connect@CGuildMarkDownloader@@QAE_NABVCNetworkAddress@@KK@Z ; CGuildMarkDownloader::Connect
PUBLIC	??1CGuildMarkDownloader@@UAE@XZ			; CGuildMarkDownloader::~CGuildMarkDownloader
PUBLIC	??_GCGuildMarkDownloader@@UAEPAXI@Z		; CGuildMarkDownloader::`scalar deleting destructor'
PUBLIC	??0CGuildMarkDownloader@@QAE@XZ			; CGuildMarkDownloader::CGuildMarkDownloader
PUBLIC	?ms_kPool@?$CPooledObject@VCHeaderDecorator@NEffectUpdateDecorator@@@@1V?$CDynamicPoolEx@VCHeaderDecorator@NEffectUpdateDecorator@@@@A ; CPooledObject<NEffectUpdateDecorator::CHeaderDecorator>::ms_kPool
PUBLIC	?ms_kPool@?$CPooledObject@VCNullDecorator@NEffectUpdateDecorator@@@@1V?$CDynamicPoolEx@VCNullDecorator@NEffectUpdateDecorator@@@@A ; CPooledObject<NEffectUpdateDecorator::CNullDecorator>::ms_kPool
PUBLIC	?ms_kPool@?$CPooledObject@VCTextureAnimationCWDecorator@NEffectUpdateDecorator@@@@1V?$CDynamicPoolEx@VCTextureAnimationCWDecorator@NEffectUpdateDecorator@@@@A ; CPooledObject<NEffectUpdateDecorator::CTextureAnimationCWDecorator>::ms_kPool
PUBLIC	?ms_kPool@?$CPooledObject@VCTextureAnimationCCWDecorator@NEffectUpdateDecorator@@@@1V?$CDynamicPoolEx@VCTextureAnimationCCWDecorator@NEffectUpdateDecorator@@@@A ; CPooledObject<NEffectUpdateDecorator::CTextureAnimationCCWDecorator>::ms_kPool
PUBLIC	?ms_kPool@?$CPooledObject@VCTextureAnimationRandomDecorator@NEffectUpdateDecorator@@@@1V?$CDynamicPoolEx@VCTextureAnimationRandomDecorator@NEffectUpdateDecorator@@@@A ; CPooledObject<NEffectUpdateDecorator::CTextureAnimationRandomDecorator>::ms_kPool
PUBLIC	?ms_kPool@?$CPooledObject@VCAirResistanceDecorator@NEffectUpdateDecorator@@@@1V?$CDynamicPoolEx@VCAirResistanceDecorator@NEffectUpdateDecorator@@@@A ; CPooledObject<NEffectUpdateDecorator::CAirResistanceDecorator>::ms_kPool
PUBLIC	?ms_kPool@?$CPooledObject@VCGravityDecorator@NEffectUpdateDecorator@@@@1V?$CDynamicPoolEx@VCGravityDecorator@NEffectUpdateDecorator@@@@A ; CPooledObject<NEffectUpdateDecorator::CGravityDecorator>::ms_kPool
PUBLIC	?ms_kPool@?$CPooledObject@VCRotationDecorator@NEffectUpdateDecorator@@@@1V?$CDynamicPoolEx@VCRotationDecorator@NEffectUpdateDecorator@@@@A ; CPooledObject<NEffectUpdateDecorator::CRotationDecorator>::ms_kPool
EXTRN	??_ECGuildMarkDownloader@@UAEPAXI@Z:PROC	; CGuildMarkDownloader::`vector deleting destructor'
EXTRN	??_E?$CSingleton@VCGuildMarkDownloader@@@@UAEPAXI@Z:PROC ; CSingleton<CGuildMarkDownloader>::`vector deleting destructor'
EXTRN	??_E?$CDynamicPoolEx@VCHeaderDecorator@NEffectUpdateDecorator@@@@UAEPAXI@Z:PROC ; CDynamicPoolEx<NEffectUpdateDecorator::CHeaderDecorator>::`vector deleting destructor'
EXTRN	??_E?$CDynamicPoolEx@VCNullDecorator@NEffectUpdateDecorator@@@@UAEPAXI@Z:PROC ; CDynamicPoolEx<NEffectUpdateDecorator::CNullDecorator>::`vector deleting destructor'
EXTRN	??_E?$CDynamicPoolEx@VCTextureAnimationCWDecorator@NEffectUpdateDecorator@@@@UAEPAXI@Z:PROC ; CDynamicPoolEx<NEffectUpdateDecorator::CTextureAnimationCWDecorator>::`vector deleting destructor'
EXTRN	??_E?$CDynamicPoolEx@VCTextureAnimationCCWDecorator@NEffectUpdateDecorator@@@@UAEPAXI@Z:PROC ; CDynamicPoolEx<NEffectUpdateDecorator::CTextureAnimationCCWDecorator>::`vector deleting destructor'
EXTRN	??_E?$CDynamicPoolEx@VCTextureAnimationRandomDecorator@NEffectUpdateDecorator@@@@UAEPAXI@Z:PROC ; CDynamicPoolEx<NEffectUpdateDecorator::CTextureAnimationRandomDecorator>::`vector deleting destructor'
EXTRN	??_E?$CDynamicPoolEx@VCAirResistanceDecorator@NEffectUpdateDecorator@@@@UAEPAXI@Z:PROC ; CDynamicPoolEx<NEffectUpdateDecorator::CAirResistanceDecorator>::`vector deleting destructor'
EXTRN	??_E?$CDynamicPoolEx@VCGravityDecorator@NEffectUpdateDecorator@@@@UAEPAXI@Z:PROC ; CDynamicPoolEx<NEffectUpdateDecorator::CGravityDecorator>::`vector deleting destructor'
EXTRN	??_E?$CDynamicPoolEx@VCRotationDecorator@NEffectUpdateDecorator@@@@UAEPAXI@Z:PROC ; CDynamicPoolEx<NEffectUpdateDecorator::CRotationDecorator>::`vector deleting destructor'
;	COMDAT ?ms_kPool@?$CPooledObject@VCRotationDecorator@NEffectUpdateDecorator@@@@1V?$CDynamicPoolEx@VCRotationDecorator@NEffectUpdateDecorator@@@@A
_DATA	SEGMENT
?ms_kPool@?$CPooledObject@VCRotationDecorator@NEffectUpdateDecorator@@@@1V?$CDynamicPoolEx@VCRotationDecorator@NEffectUpdateDecorator@@@@A DD FLAT:??_7?$CDynamicPoolEx@VCRotationDecorator@NEffectUpdateDecorator@@@@6B@ ; CPooledObject<NEffectUpdateDecorator::CRotationDecorator>::ms_kPool
	DD	00H
	DD	00H
	DD	00H
	DD	00H
	DD	00H
	DD	00H
	DD	00H
	DD	00H
_DATA	ENDS
;	COMDAT ?ms_kPool@?$CPooledObject@VCGravityDecorator@NEffectUpdateDecorator@@@@1V?$CDynamicPoolEx@VCGravityDecorator@NEffectUpdateDecorator@@@@A
_DATA	SEGMENT
?ms_kPool@?$CPooledObject@VCGravityDecorator@NEffectUpdateDecorator@@@@1V?$CDynamicPoolEx@VCGravityDecorator@NEffectUpdateDecorator@@@@A DD FLAT:??_7?$CDynamicPoolEx@VCGravityDecorator@NEffectUpdateDecorator@@@@6B@ ; CPooledObject<NEffectUpdateDecorator::CGravityDecorator>::ms_kPool
	DD	00H
	DD	00H
	DD	00H
	DD	00H
	DD	00H
	DD	00H
	DD	00H
	DD	00H
_DATA	ENDS
;	COMDAT ?ms_kPool@?$CPooledObject@VCAirResistanceDecorator@NEffectUpdateDecorator@@@@1V?$CDynamicPoolEx@VCAirResistanceDecorator@NEffectUpdateDecorator@@@@A
_DATA	SEGMENT
?ms_kPool@?$CPooledObject@VCAirResistanceDecorator@NEffectUpdateDecorator@@@@1V?$CDynamicPoolEx@VCAirResistanceDecorator@NEffectUpdateDecorator@@@@A DD FLAT:??_7?$CDynamicPoolEx@VCAirResistanceDecorator@NEffectUpdateDecorator@@@@6B@ ; CPooledObject<NEffectUpdateDecorator::CAirResistanceDecorator>::ms_kPool
	DD	00H
	DD	00H
	DD	00H
	DD	00H
	DD	00H
	DD	00H
	DD	00H
	DD	00H
_DATA	ENDS
;	COMDAT ?ms_kPool@?$CPooledObject@VCTextureAnimationRandomDecorator@NEffectUpdateDecorator@@@@1V?$CDynamicPoolEx@VCTextureAnimationRandomDecorator@NEffectUpdateDecorator@@@@A
_DATA	SEGMENT
?ms_kPool@?$CPooledObject@VCTextureAnimationRandomDecorator@NEffectUpdateDecorator@@@@1V?$CDynamicPoolEx@VCTextureAnimationRandomDecorator@NEffectUpdateDecorator@@@@A DD FLAT:??_7?$CDynamicPoolEx@VCTextureAnimationRandomDecorator@NEffectUpdateDecorator@@@@6B@ ; CPooledObject<NEffectUpdateDecorator::CTextureAnimationRandomDecorator>::ms_kPool
	DD	00H
	DD	00H
	DD	00H
	DD	00H
	DD	00H
	DD	00H
	DD	00H
	DD	00H
_DATA	ENDS
;	COMDAT ?ms_kPool@?$CPooledObject@VCTextureAnimationCCWDecorator@NEffectUpdateDecorator@@@@1V?$CDynamicPoolEx@VCTextureAnimationCCWDecorator@NEffectUpdateDecorator@@@@A
_DATA	SEGMENT
?ms_kPool@?$CPooledObject@VCTextureAnimationCCWDecorator@NEffectUpdateDecorator@@@@1V?$CDynamicPoolEx@VCTextureAnimationCCWDecorator@NEffectUpdateDecorator@@@@A DD FLAT:??_7?$CDynamicPoolEx@VCTextureAnimationCCWDecorator@NEffectUpdateDecorator@@@@6B@ ; CPooledObject<NEffectUpdateDecorator::CTextureAnimationCCWDecorator>::ms_kPool
	DD	00H
	DD	00H
	DD	00H
	DD	00H
	DD	00H
	DD	00H
	DD	00H
	DD	00H
_DATA	ENDS
;	COMDAT ?ms_kPool@?$CPooledObject@VCTextureAnimationCWDecorator@NEffectUpdateDecorator@@@@1V?$CDynamicPoolEx@VCTextureAnimationCWDecorator@NEffectUpdateDecorator@@@@A
_DATA	SEGMENT
?ms_kPool@?$CPooledObject@VCTextureAnimationCWDecorator@NEffectUpdateDecorator@@@@1V?$CDynamicPoolEx@VCTextureAnimationCWDecorator@NEffectUpdateDecorator@@@@A DD FLAT:??_7?$CDynamicPoolEx@VCTextureAnimationCWDecorator@NEffectUpdateDecorator@@@@6B@ ; CPooledObject<NEffectUpdateDecorator::CTextureAnimationCWDecorator>::ms_kPool
	DD	00H
	DD	00H
	DD	00H
	DD	00H
	DD	00H
	DD	00H
	DD	00H
	DD	00H
_DATA	ENDS
;	COMDAT ?ms_kPool@?$CPooledObject@VCNullDecorator@NEffectUpdateDecorator@@@@1V?$CDynamicPoolEx@VCNullDecorator@NEffectUpdateDecorator@@@@A
_DATA	SEGMENT
?ms_kPool@?$CPooledObject@VCNullDecorator@NEffectUpdateDecorator@@@@1V?$CDynamicPoolEx@VCNullDecorator@NEffectUpdateDecorator@@@@A DD FLAT:??_7?$CDynamicPoolEx@VCNullDecorator@NEffectUpdateDecorator@@@@6B@ ; CPooledObject<NEffectUpdateDecorator::CNullDecorator>::ms_kPool
	DD	00H
	DD	00H
	DD	00H
	DD	00H
	DD	00H
	DD	00H
	DD	00H
	DD	00H
_DATA	ENDS
;	COMDAT ?ms_kPool@?$CPooledObject@VCHeaderDecorator@NEffectUpdateDecorator@@@@1V?$CDynamicPoolEx@VCHeaderDecorator@NEffectUpdateDecorator@@@@A
_DATA	SEGMENT
?ms_kPool@?$CPooledObject@VCHeaderDecorator@NEffectUpdateDecorator@@@@1V?$CDynamicPoolEx@VCHeaderDecorator@NEffectUpdateDecorator@@@@A DD FLAT:??_7?$CDynamicPoolEx@VCHeaderDecorator@NEffectUpdateDecorator@@@@6B@ ; CPooledObject<NEffectUpdateDecorator::CHeaderDecorator>::ms_kPool
	DD	00H
	DD	00H
	DD	00H
	DD	00H
	DD	00H
	DD	00H
	DD	00H
	DD	00H
_DATA	ENDS
;	COMDAT xdata$x
xdata$x	SEGMENT
__ehfuncinfo$??0CGuildMarkDownloader@@QAE@XZ DD 019930522H
	DD	03H
	DD	FLAT:__unwindtable$??0CGuildMarkDownloader@@QAE@XZ
	DD	2 DUP(00H)
	DD	2 DUP(00H)
	DD	00H
	DD	01H
__unwindtable$??0CGuildMarkDownloader@@QAE@XZ DD 0ffffffffH
	DD	FLAT:__unwindfunclet$??0CGuildMarkDownloader@@QAE@XZ$0
	DD	00H
	DD	FLAT:__unwindfunclet$??0CGuildMarkDownloader@@QAE@XZ$1
	DD	01H
	DD	FLAT:__unwindfunclet$??0CGuildMarkDownloader@@QAE@XZ$2
xdata$x	ENDS
;	COMDAT xdata$x
xdata$x	SEGMENT
__ehfuncinfo$?__LoginState_RecvMarkBlock@CGuildMarkDownloader@@AAE_NXZ DD 019930522H
	DD	01H
	DD	FLAT:__unwindtable$?__LoginState_RecvMarkBlock@CGuildMarkDownloader@@AAE_NXZ
	DD	2 DUP(00H)
	DD	2 DUP(00H)
	DD	00H
	DD	01H
__unwindtable$?__LoginState_RecvMarkBlock@CGuildMarkDownloader@@AAE_NXZ DD 0ffffffffH
	DD	FLAT:__unwindfunclet$?__LoginState_RecvMarkBlock@CGuildMarkDownloader@@AAE_NXZ$0
xdata$x	ENDS
;	COMDAT xdata$x
xdata$x	SEGMENT
__ehfuncinfo$?__SendSymbolCRCList@CGuildMarkDownloader@@AAE_NXZ DD 019930522H
	DD	01H
	DD	FLAT:__unwindtable$?__SendSymbolCRCList@CGuildMarkDownloader@@AAE_NXZ
	DD	2 DUP(00H)
	DD	2 DUP(00H)
	DD	00H
	DD	01H
__unwindtable$?__SendSymbolCRCList@CGuildMarkDownloader@@AAE_NXZ DD 0ffffffffH
	DD	FLAT:__unwindfunclet$?__SendSymbolCRCList@CGuildMarkDownloader@@AAE_NXZ$0
;	COMDAT CRT$XCU
CRT$XCU	SEGMENT
??ms_kPool$initializer$@?$CPooledObject@VCHeaderDecorator@NEffectUpdateDecorator@@@@1P6AXXZA@@3P6AXXZA DD FLAT:??__E?ms_kPool@?$CPooledObject@VCHeaderDecorator@NEffectUpdateDecorator@@@@1V?$CDynamicPoolEx@VCHeaderDecorator@NEffectUpdateDecorator@@@@A@@YAXXZ ; ??ms_kPool$initializer$@?$CPooledObject@VCHeaderDecorator@NEffectUpdateDecorator@@@@1P6AXXZA@@3P6AXXZA
CRT$XCU	ENDS
;	COMDAT CRT$XCU
CRT$XCU	SEGMENT
??ms_kPool$initializer$@?$CPooledObject@VCNullDecorator@NEffectUpdateDecorator@@@@1P6AXXZA@@3P6AXXZA DD FLAT:??__E?ms_kPool@?$CPooledObject@VCNullDecorator@NEffectUpdateDecorator@@@@1V?$CDynamicPoolEx@VCNullDecorator@NEffectUpdateDecorator@@@@A@@YAXXZ ; ??ms_kPool$initializer$@?$CPooledObject@VCNullDecorator@NEffectUpdateDecorator@@@@1P6AXXZA@@3P6AXXZA
CRT$XCU	ENDS
;	COMDAT CRT$XCU
CRT$XCU	SEGMENT
??ms_kPool$initializer$@?$CPooledObject@VCTextureAnimationCWDecorator@NEffectUpdateDecorator@@@@1P6AXXZA@@3P6AXXZA DD FLAT:??__E?ms_kPool@?$CPooledObject@VCTextureAnimationCWDecorator@NEffectUpdateDecorator@@@@1V?$CDynamicPoolEx@VCTextureAnimationCWDecorator@NEffectUpdateDecorator@@@@A@@YAXXZ ; ??ms_kPool$initializer$@?$CPooledObject@VCTextureAnimationCWDecorator@NEffectUpdateDecorator@@@@1P6AXXZA@@3P6AXXZA
CRT$XCU	ENDS
;	COMDAT CRT$XCU
CRT$XCU	SEGMENT
??ms_kPool$initializer$@?$CPooledObject@VCTextureAnimationCCWDecorator@NEffectUpdateDecorator@@@@1P6AXXZA@@3P6AXXZA DD FLAT:??__E?ms_kPool@?$CPooledObject@VCTextureAnimationCCWDecorator@NEffectUpdateDecorator@@@@1V?$CDynamicPoolEx@VCTextureAnimationCCWDecorator@NEffectUpdateDecorator@@@@A@@YAXXZ ; ??ms_kPool$initializer$@?$CPooledObject@VCTextureAnimationCCWDecorator@NEffectUpdateDecorator@@@@1P6AXXZA@@3P6AXXZA
CRT$XCU	ENDS
;	COMDAT CRT$XCU
CRT$XCU	SEGMENT
??ms_kPool$initializer$@?$CPooledObject@VCTextureAnimationRandomDecorator@NEffectUpdateDecorator@@@@1P6AXXZA@@3P6AXXZA DD FLAT:??__E?ms_kPool@?$CPooledObject@VCTextureAnimationRandomDecorator@NEffectUpdateDecorator@@@@1V?$CDynamicPoolEx@VCTextureAnimationRandomDecorator@NEffectUpdateDecorator@@@@A@@YAXXZ ; ??ms_kPool$initializer$@?$CPooledObject@VCTextureAnimationRandomDecorator@NEffectUpdateDecorator@@@@1P6AXXZA@@3P6AXXZA
CRT$XCU	ENDS
;	COMDAT CRT$XCU
CRT$XCU	SEGMENT
??ms_kPool$initializer$@?$CPooledObject@VCAirResistanceDecorator@NEffectUpdateDecorator@@@@1P6AXXZA@@3P6AXXZA DD FLAT:??__E?ms_kPool@?$CPooledObject@VCAirResistanceDecorator@NEffectUpdateDecorator@@@@1V?$CDynamicPoolEx@VCAirResistanceDecorator@NEffectUpdateDecorator@@@@A@@YAXXZ ; ??ms_kPool$initializer$@?$CPooledObject@VCAirResistanceDecorator@NEffectUpdateDecorator@@@@1P6AXXZA@@3P6AXXZA
CRT$XCU	ENDS
;	COMDAT CRT$XCU
CRT$XCU	SEGMENT
??ms_kPool$initializer$@?$CPooledObject@VCGravityDecorator@NEffectUpdateDecorator@@@@1P6AXXZA@@3P6AXXZA DD FLAT:??__E?ms_kPool@?$CPooledObject@VCGravityDecorator@NEffectUpdateDecorator@@@@1V?$CDynamicPoolEx@VCGravityDecorator@NEffectUpdateDecorator@@@@A@@YAXXZ ; ??ms_kPool$initializer$@?$CPooledObject@VCGravityDecorator@NEffectUpdateDecorator@@@@1P6AXXZA@@3P6AXXZA
CRT$XCU	ENDS
;	COMDAT CRT$XCU
CRT$XCU	SEGMENT
??ms_kPool$initializer$@?$CPooledObject@VCRotationDecorator@NEffectUpdateDecorator@@@@1P6AXXZA@@3P6AXXZA DD FLAT:??__E?ms_kPool@?$CPooledObject@VCRotationDecorator@NEffectUpdateDecorator@@@@1V?$CDynamicPoolEx@VCRotationDecorator@NEffectUpdateDecorator@@@@A@@YAXXZ ; ??ms_kPool$initializer$@?$CPooledObject@VCRotationDecorator@NEffectUpdateDecorator@@@@1P6AXXZA@@3P6AXXZA
CRT$XCU	ENDS
; Function compile flags: /Ogtp
; File D:\_m2work\txoko-m2-work\txoko-client-src\source\UserInterface\GuildMarkDownloader.cpp
; File D:\_m2work\txoko-m2-work\txoko-client-src\source\eterBase\Singleton.h
; File D:\_m2work\txoko-m2-work\txoko-client-src\source\UserInterface\GuildMarkDownloader.cpp
; File D:\_m2work\txoko-m2-work\txoko-client-src\source\eterBase\Singleton.h
; File D:\_m2work\txoko-m2-work\txoko-client-src\source\UserInterface\GuildMarkDownloader.cpp
; File C:\Program Files\Microsoft Visual Studio\2022\Community\VC\Tools\MSVC\14.44.35207\include\vector
; File D:\_m2work\txoko-m2-work\txoko-client-src\source\UserInterface\GuildMarkDownloader.cpp
;	COMDAT ??0CGuildMarkDownloader@@QAE@XZ
_TEXT	SEGMENT
_this$ = -16						; size = 4
__$EHRec$ = -12						; size = 12
??0CGuildMarkDownloader@@QAE@XZ PROC			; CGuildMarkDownloader::CGuildMarkDownloader, COMDAT
; _this$ = ecx

; 17   : {

  00000	55		 push	 ebp
  00001	8b ec		 mov	 ebp, esp
  00003	6a ff		 push	 -1
  00005	68 00 00 00 00	 push	 __ehhandler$??0CGuildMarkDownloader@@QAE@XZ
  0000a	64 a1 00 00 00
	00		 mov	 eax, DWORD PTR fs:0
  00010	50		 push	 eax
  00011	51		 push	 ecx
  00012	56		 push	 esi
  00013	a1 00 00 00 00	 mov	 eax, DWORD PTR ___security_cookie
  00018	33 c5		 xor	 eax, ebp
  0001a	50		 push	 eax
  0001b	8d 45 f4	 lea	 eax, DWORD PTR __$EHRec$[ebp]
  0001e	64 a3 00 00 00
	00		 mov	 DWORD PTR fs:0, eax
  00024	8b f1		 mov	 esi, ecx
  00026	89 75 f0	 mov	 DWORD PTR _this$[ebp], esi
  00029	e8 00 00 00 00	 call	 ??0CNetworkStream@@QAE@XZ ; CNetworkStream::CNetworkStream
; File D:\_m2work\txoko-m2-work\txoko-client-src\source\eterBase\Singleton.h

; 15   : 		ms_singleton = (T*) ((int) this + offset);

  0002e	8b c6		 mov	 eax, esi
; File D:\_m2work\txoko-m2-work\txoko-client-src\source\UserInterface\GuildMarkDownloader.cpp

; 17   : {

  00030	c7 45 fc 00 00
	00 00		 mov	 DWORD PTR __$EHRec$[ebp+8], 0
; File D:\_m2work\txoko-m2-work\txoko-client-src\source\eterBase\Singleton.h

; 15   : 		ms_singleton = (T*) ((int) this + offset);

  00037	a3 00 00 00 00	 mov	 DWORD PTR ?ms_singleton@?$CSingleton@VCGuildMarkDownloader@@@@0PAVCGuildMarkDownloader@@A, eax ; CSingleton<CGuildMarkDownloader>::ms_singleton
; File D:\_m2work\txoko-m2-work\txoko-client-src\source\UserInterface\GuildMarkDownloader.cpp

; 17   : {

  0003c	c7 06 00 00 00
	00		 mov	 DWORD PTR [esi], OFFSET ??_7CGuildMarkDownloader@@6BCNetworkStream@@@
  00042	c7 46 7c 00 00
	00 00		 mov	 DWORD PTR [esi+124], OFFSET ??_7CGuildMarkDownloader@@6B?$CSingleton@VCGuildMarkDownloader@@@@@
; File C:\Program Files\Microsoft Visual Studio\2022\Community\VC\Tools\MSVC\14.44.35207\include\vector

; 400  :     _CONSTEXPR20 _Vector_val() noexcept : _Myfirst(), _Mylast(), _Myend() {}

  00049	c7 86 8c 00 00
	00 00 00 00 00	 mov	 DWORD PTR [esi+140], 0
  00053	c7 86 90 00 00
	00 00 00 00 00	 mov	 DWORD PTR [esi+144], 0
  0005d	c7 86 94 00 00
	00 00 00 00 00	 mov	 DWORD PTR [esi+148], 0
; File D:\_m2work\txoko-m2-work\txoko-client-src\source\UserInterface\GuildMarkDownloader.cpp

; 18   : 	SetRecvBufferSize(640*1024);

  00067	68 00 00 0a 00	 push	 655360			; 000a0000H
  0006c	8b ce		 mov	 ecx, esi
  0006e	c6 45 fc 02	 mov	 BYTE PTR __$EHRec$[ebp+8], 2
  00072	e8 00 00 00 00	 call	 ?SetRecvBufferSize@CNetworkStream@@QAEXH@Z ; CNetworkStream::SetRecvBufferSize

; 19   : 	SetSendBufferSize(1024);

  00077	68 00 04 00 00	 push	 1024			; 00000400H
  0007c	8b ce		 mov	 ecx, esi
  0007e	e8 00 00 00 00	 call	 ?SetSendBufferSize@CNetworkStream@@QAEXH@Z ; CNetworkStream::SetSendBufferSize

; 20   : 	__Initialize();

  00083	8b ce		 mov	 ecx, esi
  00085	e8 00 00 00 00	 call	 ?__Initialize@CGuildMarkDownloader@@AAEXXZ ; CGuildMarkDownloader::__Initialize

; 21   : }

  0008a	8b c6		 mov	 eax, esi
  0008c	8b 4d f4	 mov	 ecx, DWORD PTR __$EHRec$[ebp]
  0008f	64 89 0d 00 00
	00 00		 mov	 DWORD PTR fs:0, ecx
  00096	59		 pop	 ecx
  00097	5e		 pop	 esi
  00098	8b e5		 mov	 esp, ebp
  0009a	5d		 pop	 ebp
  0009b	c3		 ret	 0
_TEXT	ENDS
;	COMDAT text$x
text$x	SEGMENT
__unwindfunclet$??0CGuildMarkDownloader@@QAE@XZ$0:
  00000	8b 4d f0	 mov	 ecx, DWORD PTR _this$[ebp]
  00003	e9 00 00 00 00	 jmp	 ??1CNetworkStream@@UAE@XZ ; CNetworkStream::~CNetworkStream
__unwindfunclet$??0CGuildMarkDownloader@@QAE@XZ$1:
  00008	8b 4d f0	 mov	 ecx, DWORD PTR _this$[ebp]
  0000b	83 c1 7c	 add	 ecx, 124		; 0000007cH
  0000e	e9 00 00 00 00	 jmp	 ??1?$CSingleton@VCGuildMarkDownloader@@@@UAE@XZ ; CSingleton<CGuildMarkDownloader>::~CSingleton<CGuildMarkDownloader>
__unwindfunclet$??0CGuildMarkDownloader@@QAE@XZ$2:
  00013	8b 4d f0	 mov	 ecx, DWORD PTR _this$[ebp]
  00016	81 c1 8c 00 00
	00		 add	 ecx, 140		; 0000008cH
  0001c	e9 00 00 00 00	 jmp	 ??1?$vector@KV?$allocator@K@std@@@std@@QAE@XZ ; std::vector<unsigned long,std::allocator<unsigned long> >::~vector<unsigned long,std::allocator<unsigned long> >
  00021	cc		 int	 3
  00022	cc		 int	 3
  00023	cc		 int	 3
  00024	cc		 int	 3
  00025	cc		 int	 3
__ehhandler$??0CGuildMarkDownloader@@QAE@XZ:
  00026	90		 npad	 1
  00027	90		 npad	 1
  00028	8b 54 24 08	 mov	 edx, DWORD PTR [esp+8]
  0002c	8d 42 0c	 lea	 eax, DWORD PTR [edx+12]
  0002f	8b 4a f4	 mov	 ecx, DWORD PTR [edx-12]
  00032	33 c8		 xor	 ecx, eax
  00034	e8 00 00 00 00	 call	 @__security_check_cookie@4
  00039	b8 00 00 00 00	 mov	 eax, OFFSET __ehfuncinfo$??0CGuildMarkDownloader@@QAE@XZ
  0003e	e9 00 00 00 00	 jmp	 ___CxxFrameHandler3
text$x	ENDS
??0CGuildMarkDownloader@@QAE@XZ ENDP			; CGuildMarkDownloader::CGuildMarkDownloader
; Function compile flags: /Ogtp
;	COMDAT ??_GCGuildMarkDownloader@@UAEPAXI@Z
_TEXT	SEGMENT
___flags$ = 8						; size = 4
??_GCGuildMarkDownloader@@UAEPAXI@Z PROC		; CGuildMarkDownloader::`scalar deleting destructor', COMDAT
; _this$ = ecx
  00000	55		 push	 ebp
  00001	8b ec		 mov	 ebp, esp
  00003	56		 push	 esi
  00004	8b f1		 mov	 esi, ecx
  00006	e8 00 00 00 00	 call	 ??1CGuildMarkDownloader@@UAE@XZ ; CGuildMarkDownloader::~CGuildMarkDownloader
  0000b	f6 45 08 01	 test	 BYTE PTR ___flags$[ebp], 1
  0000f	74 0e		 je	 SHORT $LN5@scalar
  00011	68 b0 00 00 00	 push	 176			; 000000b0H
  00016	56		 push	 esi
  00017	e8 00 00 00 00	 call	 ??3@YAXPAXI@Z		; operator delete
  0001c	83 c4 08	 add	 esp, 8
$LN5@scalar:
  0001f	8b c6		 mov	 eax, esi
  00021	5e		 pop	 esi
  00022	5d		 pop	 ebp
  00023	c2 04 00	 ret	 4
??_GCGuildMarkDownloader@@UAEPAXI@Z ENDP		; CGuildMarkDownloader::`scalar deleting destructor'
_TEXT	ENDS
; Function compile flags: /Ogtp
; File D:\_m2work\txoko-m2-work\txoko-client-src\source\UserInterface\GuildMarkDownloader.cpp
; File D:\_m2work\txoko-m2-work\txoko-client-src\source\eterBase\Singleton.h
; File D:\_m2work\txoko-m2-work\txoko-client-src\source\UserInterface\GuildMarkDownloader.cpp
; File D:\_m2work\txoko-m2-work\txoko-client-src\source\eterBase\Singleton.h
; File D:\_m2work\txoko-m2-work\txoko-client-src\source\UserInterface\GuildMarkDownloader.cpp
;	COMDAT ??1CGuildMarkDownloader@@UAE@XZ
_TEXT	SEGMENT
??1CGuildMarkDownloader@@UAE@XZ PROC			; CGuildMarkDownloader::~CGuildMarkDownloader, COMDAT
; _this$ = ecx

; 24   : {

  00000	56		 push	 esi
  00001	8b f1		 mov	 esi, ecx
  00003	c7 06 00 00 00
	00		 mov	 DWORD PTR [esi], OFFSET ??_7CGuildMarkDownloader@@6BCNetworkStream@@@
  00009	c7 46 7c 00 00
	00 00		 mov	 DWORD PTR [esi+124], OFFSET ??_7CGuildMarkDownloader@@6B?$CSingleton@VCGuildMarkDownloader@@@@@

; 25   : 	__OfflineState_Set();

  00010	e8 00 00 00 00	 call	 ?__OfflineState_Set@CGuildMarkDownloader@@AAEXXZ ; CGuildMarkDownloader::__OfflineState_Set

; 26   : }

  00015	8d 8e 8c 00 00
	00		 lea	 ecx, DWORD PTR [esi+140]
  0001b	e8 00 00 00 00	 call	 ??1?$vector@KV?$allocator@K@std@@@std@@QAE@XZ ; std::vector<unsigned long,std::allocator<unsigned long> >::~vector<unsigned long,std::allocator<unsigned long> >
; File D:\_m2work\txoko-m2-work\txoko-client-src\source\eterBase\Singleton.h

; 19   : 	{ 

  00020	c7 46 7c 00 00
	00 00		 mov	 DWORD PTR [esi+124], OFFSET ??_7?$CSingleton@VCGuildMarkDownloader@@@@6B@
; File D:\_m2work\txoko-m2-work\txoko-client-src\source\UserInterface\GuildMarkDownloader.cpp

; 26   : }

  00027	8b ce		 mov	 ecx, esi
; File D:\_m2work\txoko-m2-work\txoko-client-src\source\eterBase\Singleton.h

; 21   : 		ms_singleton = 0; 

  00029	c7 05 00 00 00
	00 00 00 00 00	 mov	 DWORD PTR ?ms_singleton@?$CSingleton@VCGuildMarkDownloader@@@@0PAVCGuildMarkDownloader@@A, 0 ; CSingleton<CGuildMarkDownloader>::ms_singleton
; File D:\_m2work\txoko-m2-work\txoko-client-src\source\UserInterface\GuildMarkDownloader.cpp

; 26   : }

  00033	5e		 pop	 esi
  00034	e9 00 00 00 00	 jmp	 ??1CNetworkStream@@UAE@XZ ; CNetworkStream::~CNetworkStream
??1CGuildMarkDownloader@@UAE@XZ ENDP			; CGuildMarkDownloader::~CGuildMarkDownloader
_TEXT	ENDS
; Function compile flags: /Ogtp
; File D:\_m2work\txoko-m2-work\txoko-client-src\source\UserInterface\GuildMarkDownloader.cpp
;	COMDAT ?Connect@CGuildMarkDownloader@@QAE_NABVCNetworkAddress@@KK@Z
_TEXT	SEGMENT
_c_rkNetAddr$ = 8					; size = 4
_dwHandle$ = 12						; size = 4
_dwRandomKey$ = 16					; size = 4
?Connect@CGuildMarkDownloader@@QAE_NABVCNetworkAddress@@KK@Z PROC ; CGuildMarkDownloader::Connect, COMDAT
; _this$ = ecx

; 29   : {

  00000	55		 push	 ebp
  00001	8b ec		 mov	 ebp, esp

; 30   : 	__OfflineState_Set();

  00003	e8 00 00 00 00	 call	 ?__OfflineState_Set@CGuildMarkDownloader@@AAEXXZ ; CGuildMarkDownloader::__OfflineState_Set

; 31   : 
; 32   : 	m_dwHandle=dwHandle;

  00008	8b 45 0c	 mov	 eax, DWORD PTR _dwHandle$[ebp]

; 33   : 	m_dwRandomKey=dwRandomKey;
; 34   : 	m_dwTodo=TODO_RECV_MARK;
; 35   : 	return CNetworkStream::Connect(c_rkNetAddr);

  0000b	6a 03		 push	 3
  0000d	ff 75 08	 push	 DWORD PTR _c_rkNetAddr$[ebp]
  00010	89 81 80 00 00
	00		 mov	 DWORD PTR [ecx+128], eax
  00016	8b 45 10	 mov	 eax, DWORD PTR _dwRandomKey$[ebp]
  00019	89 81 84 00 00
	00		 mov	 DWORD PTR [ecx+132], eax
  0001f	c7 81 88 00 00
	00 01 00 00 00	 mov	 DWORD PTR [ecx+136], 1
  00029	e8 00 00 00 00	 call	 ?Connect@CNetworkStream@@QAE_NABVCNetworkAddress@@H@Z ; CNetworkStream::Connect

; 36   : }

  0002e	5d		 pop	 ebp
  0002f	c2 0c 00	 ret	 12			; 0000000cH
?Connect@CGuildMarkDownloader@@QAE_NABVCNetworkAddress@@KK@Z ENDP ; CGuildMarkDownloader::Connect
_TEXT	ENDS
; Function compile flags: /Ogtp
; File D:\_m2work\txoko-m2-work\txoko-client-src\source\UserInterface\GuildMarkDownloader.cpp
;	COMDAT ?ConnectToRecvSymbol@CGuildMarkDownloader@@QAE_NABVCNetworkAddress@@KKABV?$vector@KV?$allocator@K@std@@@std@@@Z
_TEXT	SEGMENT
_c_rkNetAddr$ = 8					; size = 4
_dwHandle$ = 12						; size = 4
_dwRandomKey$ = 16					; size = 4
_c_rkVec_dwGuildID$ = 20				; size = 4
?ConnectToRecvSymbol@CGuildMarkDownloader@@QAE_NABVCNetworkAddress@@KKABV?$vector@KV?$allocator@K@std@@@std@@@Z PROC ; CGuildMarkDownloader::ConnectToRecvSymbol, COMDAT
; _this$ = ecx

; 39   : {

  00000	55		 push	 ebp
  00001	8b ec		 mov	 ebp, esp
  00003	56		 push	 esi
  00004	8b f1		 mov	 esi, ecx

; 40   : 	__OfflineState_Set();

  00006	e8 00 00 00 00	 call	 ?__OfflineState_Set@CGuildMarkDownloader@@AAEXXZ ; CGuildMarkDownloader::__OfflineState_Set

; 41   : 
; 42   : 	m_dwHandle=dwHandle;

  0000b	8b 45 0c	 mov	 eax, DWORD PTR _dwHandle$[ebp]

; 43   : 	m_dwRandomKey=dwRandomKey;
; 44   : 	m_dwTodo=TODO_RECV_SYMBOL;
; 45   : 	m_kVec_dwGuildID = c_rkVec_dwGuildID;

  0000e	8d 8e 8c 00 00
	00		 lea	 ecx, DWORD PTR [esi+140]
  00014	ff 75 14	 push	 DWORD PTR _c_rkVec_dwGuildID$[ebp]
  00017	89 86 80 00 00
	00		 mov	 DWORD PTR [esi+128], eax
  0001d	8b 45 10	 mov	 eax, DWORD PTR _dwRandomKey$[ebp]
  00020	89 86 84 00 00
	00		 mov	 DWORD PTR [esi+132], eax
  00026	c7 86 88 00 00
	00 02 00 00 00	 mov	 DWORD PTR [esi+136], 2
  00030	e8 00 00 00 00	 call	 ??4?$vector@KV?$allocator@K@std@@@std@@QAEAAV01@ABV01@@Z ; std::vector<unsigned long,std::allocator<unsigned long> >::operator=

; 46   : 	return CNetworkStream::Connect(c_rkNetAddr);

  00035	6a 03		 push	 3
  00037	ff 75 08	 push	 DWORD PTR _c_rkNetAddr$[ebp]
  0003a	8b ce		 mov	 ecx, esi
  0003c	e8 00 00 00 00	 call	 ?Connect@CNetworkStream@@QAE_NABVCNetworkAddress@@H@Z ; CNetworkStream::Connect
  00041	5e		 pop	 esi

; 47   : }

  00042	5d		 pop	 ebp
  00043	c2 10 00	 ret	 16			; 00000010H
?ConnectToRecvSymbol@CGuildMarkDownloader@@QAE_NABVCNetworkAddress@@KKABV?$vector@KV?$allocator@K@std@@@std@@@Z ENDP ; CGuildMarkDownloader::ConnectToRecvSymbol
_TEXT	ENDS
; Function compile flags: /Ogtp
; File D:\_m2work\txoko-m2-work\txoko-client-src\source\UserInterface\GuildMarkDownloader.cpp
;	COMDAT ?Process@CGuildMarkDownloader@@QAEXXZ
_TEXT	SEGMENT
?Process@CGuildMarkDownloader@@QAEXXZ PROC		; CGuildMarkDownloader::Process, COMDAT
; _this$ = ecx

; 50   : {

  00000	56		 push	 esi
  00001	8b f1		 mov	 esi, ecx

; 51   : 	CNetworkStream::Process();

  00003	e8 00 00 00 00	 call	 ?Process@CNetworkStream@@QAEXXZ ; CNetworkStream::Process

; 52   : 
; 53   : 	if (!__StateProcess())

  00008	8b ce		 mov	 ecx, esi
  0000a	e8 00 00 00 00	 call	 ?__StateProcess@CGuildMarkDownloader@@AAE_NXZ ; CGuildMarkDownloader::__StateProcess
  0000f	84 c0		 test	 al, al
  00011	75 0d		 jne	 SHORT $LN2@Process

; 54   : 	{
; 55   : 		__OfflineState_Set();

  00013	8b ce		 mov	 ecx, esi
  00015	e8 00 00 00 00	 call	 ?__OfflineState_Set@CGuildMarkDownloader@@AAEXXZ ; CGuildMarkDownloader::__OfflineState_Set

; 57   : 	}
; 58   : }

  0001a	5e		 pop	 esi

; 56   : 		Disconnect();

  0001b	e9 00 00 00 00	 jmp	 ?Disconnect@CNetworkStream@@QAEXXZ ; CNetworkStream::Disconnect
$LN2@Process:

; 57   : 	}
; 58   : }

  00020	5e		 pop	 esi
  00021	c3		 ret	 0
?Process@CGuildMarkDownloader@@QAEXXZ ENDP		; CGuildMarkDownloader::Process
_TEXT	ENDS
; Function compile flags: /Ogtp
; File D:\_m2work\txoko-m2-work\txoko-client-src\source\UserInterface\GuildMarkDownloader.cpp
;	COMDAT ?OnConnectFailure@CGuildMarkDownloader@@EAEXXZ
_TEXT	SEGMENT
?OnConnectFailure@CGuildMarkDownloader@@EAEXXZ PROC	; CGuildMarkDownloader::OnConnectFailure, COMDAT
; _this$ = ecx

; 62   : 	__OfflineState_Set();

  00000	e9 00 00 00 00	 jmp	 ?__OfflineState_Set@CGuildMarkDownloader@@AAEXXZ ; CGuildMarkDownloader::__OfflineState_Set
?OnConnectFailure@CGuildMarkDownloader@@EAEXXZ ENDP	; CGuildMarkDownloader::OnConnectFailure
_TEXT	ENDS
; Function compile flags: /Ogtp
; File D:\_m2work\txoko-m2-work\txoko-client-src\source\UserInterface\GuildMarkDownloader.cpp
;	COMDAT ?OnConnectSuccess@CGuildMarkDownloader@@EAEXXZ
_TEXT	SEGMENT
?OnConnectSuccess@CGuildMarkDownloader@@EAEXXZ PROC	; CGuildMarkDownloader::OnConnectSuccess, COMDAT
; _this$ = ecx

; 67   : 	__LoginState_Set();

  00000	e9 00 00 00 00	 jmp	 ?__LoginState_Set@CGuildMarkDownloader@@AAEXXZ ; CGuildMarkDownloader::__LoginState_Set
?OnConnectSuccess@CGuildMarkDownloader@@EAEXXZ ENDP	; CGuildMarkDownloader::OnConnectSuccess
_TEXT	ENDS
; Function compile flags: /Ogtp
; File D:\_m2work\txoko-m2-work\txoko-client-src\source\UserInterface\GuildMarkDownloader.cpp
;	COMDAT ?OnRemoteDisconnect@CGuildMarkDownloader@@EAEXXZ
_TEXT	SEGMENT
?OnRemoteDisconnect@CGuildMarkDownloader@@EAEXXZ PROC	; CGuildMarkDownloader::OnRemoteDisconnect, COMDAT
; _this$ = ecx

; 72   : 	__OfflineState_Set();

  00000	e9 00 00 00 00	 jmp	 ?__OfflineState_Set@CGuildMarkDownloader@@AAEXXZ ; CGuildMarkDownloader::__OfflineState_Set
?OnRemoteDisconnect@CGuildMarkDownloader@@EAEXXZ ENDP	; CGuildMarkDownloader::OnRemoteDisconnect
_TEXT	ENDS
; Function compile flags: /Ogtp
; File D:\_m2work\txoko-m2-work\txoko-client-src\source\UserInterface\GuildMarkDownloader.cpp
;	COMDAT ?OnDisconnect@CGuildMarkDownloader@@EAEXXZ
_TEXT	SEGMENT
?OnDisconnect@CGuildMarkDownloader@@EAEXXZ PROC		; CGuildMarkDownloader::OnDisconnect, COMDAT
; _this$ = ecx

; 77   : 	__OfflineState_Set();

  00000	e9 00 00 00 00	 jmp	 ?__OfflineState_Set@CGuildMarkDownloader@@AAEXXZ ; CGuildMarkDownloader::__OfflineState_Set
?OnDisconnect@CGuildMarkDownloader@@EAEXXZ ENDP		; CGuildMarkDownloader::OnDisconnect
_TEXT	ENDS
; Function compile flags: /Ogtp
; File D:\_m2work\txoko-m2-work\txoko-client-src\source\UserInterface\GuildMarkDownloader.cpp
; File C:\Program Files\Microsoft Visual Studio\2022\Community\VC\Tools\MSVC\14.44.35207\include\vector
; File D:\_m2work\txoko-m2-work\txoko-client-src\source\UserInterface\GuildMarkDownloader.cpp
;	COMDAT ?__Initialize@CGuildMarkDownloader@@AAEXXZ
_TEXT	SEGMENT
?__Initialize@CGuildMarkDownloader@@AAEXXZ PROC		; CGuildMarkDownloader::__Initialize, COMDAT
; _this$ = ecx

; 82   : 	m_eState=STATE_OFFLINE;

  00000	c7 81 98 00 00
	00 00 00 00 00	 mov	 DWORD PTR [ecx+152], 0

; 83   : 	m_pkMarkMgr=NULL;

  0000a	c7 81 a0 00 00
	00 00 00 00 00	 mov	 DWORD PTR [ecx+160], 0

; 84   : 	m_currentRequestingImageIndex=0;

  00014	c6 81 9c 00 00
	00 00		 mov	 BYTE PTR [ecx+156], 0

; 85   : 	m_dwBlockIndex=0;

  0001b	c7 81 a4 00 00
	00 00 00 00 00	 mov	 DWORD PTR [ecx+164], 0

; 86   : 	m_dwBlockDataPos=0;

  00025	c7 81 ac 00 00
	00 00 00 00 00	 mov	 DWORD PTR [ecx+172], 0

; 87   : 	m_dwBlockDataSize=0;

  0002f	c7 81 a8 00 00
	00 00 00 00 00	 mov	 DWORD PTR [ecx+168], 0

; 88   : 
; 89   : 	m_dwHandle=0;

  00039	c7 81 80 00 00
	00 00 00 00 00	 mov	 DWORD PTR [ecx+128], 0

; 90   : 	m_dwRandomKey=0;

  00043	c7 81 84 00 00
	00 00 00 00 00	 mov	 DWORD PTR [ecx+132], 0

; 91   : 	m_dwTodo=TODO_RECV_NONE;

  0004d	c7 81 88 00 00
	00 00 00 00 00	 mov	 DWORD PTR [ecx+136], 0
; File C:\Program Files\Microsoft Visual Studio\2022\Community\VC\Tools\MSVC\14.44.35207\include\vector

; 1812 :         if (_Myfirst == _Mylast) { // already empty, nothing to do

  00057	8b 81 8c 00 00
	00		 mov	 eax, DWORD PTR [ecx+140]
  0005d	3b 81 90 00 00
	00		 cmp	 eax, DWORD PTR [ecx+144]
  00063	74 06		 je	 SHORT $LN3@Initialize

; 1813 :             // This is an optimization for debug mode: we can avoid taking the debug lock to invalidate iterators.
; 1814 :             // Note that when clearing an empty vector, this will preserve past-the-end iterators, which is allowed by
; 1815 :             // N4950 [sequence.reqmts]/54 "a.clear() [...] may invalidate the past-the-end iterator".
; 1816 :             return;
; 1817 :         }
; 1818 : 
; 1819 :         _My_data._Orphan_all();
; 1820 :         _Destroy_range(_Myfirst, _Mylast, _Getal());
; 1821 :         _ASAN_VECTOR_MODIFY(static_cast<difference_type>(_Myfirst - _Mylast)); // negative when destroying elements
; 1822 :         _Mylast = _Myfirst;

  00065	89 81 90 00 00
	00		 mov	 DWORD PTR [ecx+144], eax
$LN3@Initialize:
; File D:\_m2work\txoko-m2-work\txoko-client-src\source\UserInterface\GuildMarkDownloader.cpp

; 93   : }

  0006b	c3		 ret	 0
?__Initialize@CGuildMarkDownloader@@AAEXXZ ENDP		; CGuildMarkDownloader::__Initialize
_TEXT	ENDS
; Function compile flags: /Ogtp
; File D:\_m2work\txoko-m2-work\txoko-client-src\source\UserInterface\GuildMarkDownloader.cpp
;	COMDAT ?__StateProcess@CGuildMarkDownloader@@AAE_NXZ
_TEXT	SEGMENT
?__StateProcess@CGuildMarkDownloader@@AAE_NXZ PROC	; CGuildMarkDownloader::__StateProcess, COMDAT
; _this$ = ecx

; 96   : {

  00000	51		 push	 ecx

; 97   : 	switch (m_eState)

  00001	8b 81 98 00 00
	00		 mov	 eax, DWORD PTR [ecx+152]
  00007	83 e8 01	 sub	 eax, 1
  0000a	74 0d		 je	 SHORT $LN4@StateProce
  0000c	83 e8 01	 sub	 eax, 1
  0000f	74 04		 je	 SHORT $LN5@StateProce

; 104  : 	}
; 105  : 
; 106  : 	return true;

  00011	b0 01		 mov	 al, 1

; 107  : }

  00013	59		 pop	 ecx
  00014	c3		 ret	 0
$LN5@StateProce:

; 101  : 			break;
; 102  : 		case STATE_COMPLETE:
; 103  : 			return false;

  00015	32 c0		 xor	 al, al

; 107  : }

  00017	59		 pop	 ecx
  00018	c3		 ret	 0
$LN4@StateProce:

; 98   : 	{
; 99   : 		case STATE_LOGIN:
; 100  : 			return __LoginState_Process();

  00019	e8 00 00 00 00	 call	 ?__LoginState_Process@CGuildMarkDownloader@@AAE_NXZ ; CGuildMarkDownloader::__LoginState_Process

; 107  : }

  0001e	59		 pop	 ecx
  0001f	c3		 ret	 0
?__StateProcess@CGuildMarkDownloader@@AAE_NXZ ENDP	; CGuildMarkDownloader::__StateProcess
_TEXT	ENDS
; Function compile flags: /Ogtp
; File D:\_m2work\txoko-m2-work\txoko-client-src\source\UserInterface\GuildMarkDownloader.cpp
;	COMDAT ?__OfflineState_Set@CGuildMarkDownloader@@AAEXXZ
_TEXT	SEGMENT
?__OfflineState_Set@CGuildMarkDownloader@@AAEXXZ PROC	; CGuildMarkDownloader::__OfflineState_Set, COMDAT
; _this$ = ecx

; 111  : 	__Initialize();

  00000	e9 00 00 00 00	 jmp	 ?__Initialize@CGuildMarkDownloader@@AAEXXZ ; CGuildMarkDownloader::__Initialize
?__OfflineState_Set@CGuildMarkDownloader@@AAEXXZ ENDP	; CGuildMarkDownloader::__OfflineState_Set
_TEXT	ENDS
; Function compile flags: /Ogtp
; File D:\_m2work\txoko-m2-work\txoko-client-src\source\UserInterface\GuildMarkDownloader.cpp
;	COMDAT ?__CompleteState_Set@CGuildMarkDownloader@@AAEXXZ
_TEXT	SEGMENT
?__CompleteState_Set@CGuildMarkDownloader@@AAEXXZ PROC	; CGuildMarkDownloader::__CompleteState_Set, COMDAT
; _this$ = ecx

; 115  : {

  00000	51		 push	 ecx

; 116  : 	m_eState = STATE_COMPLETE;

  00001	c7 81 98 00 00
	00 02 00 00 00	 mov	 DWORD PTR [ecx+152], 2

; 117  : 	CPythonCharacterManager::instance().RefreshAllGuildMark();

  0000b	8b 0d 00 00 00
	00		 mov	 ecx, DWORD PTR ?ms_singleton@?$CSingleton@VCPythonCharacterManager@@@@0PAVCPythonCharacterManager@@A ; CSingleton<CPythonCharacterManager>::ms_singleton
  00011	e8 00 00 00 00	 call	 ?RefreshAllGuildMark@CPythonCharacterManager@@QAEXXZ ; CPythonCharacterManager::RefreshAllGuildMark

; 118  : }

  00016	59		 pop	 ecx
  00017	c3		 ret	 0
?__CompleteState_Set@CGuildMarkDownloader@@AAEXXZ ENDP	; CGuildMarkDownloader::__CompleteState_Set
_TEXT	ENDS
; Function compile flags: /Ogtp
; File D:\_m2work\txoko-m2-work\txoko-client-src\source\UserInterface\GuildMarkDownloader.cpp
;	COMDAT ?__LoginState_Set@CGuildMarkDownloader@@AAEXXZ
_TEXT	SEGMENT
?__LoginState_Set@CGuildMarkDownloader@@AAEXXZ PROC	; CGuildMarkDownloader::__LoginState_Set, COMDAT
; _this$ = ecx

; 122  : 	m_eState = STATE_LOGIN;

  00000	c7 81 98 00 00
	00 01 00 00 00	 mov	 DWORD PTR [ecx+152], 1

; 123  : }

  0000a	c3		 ret	 0
?__LoginState_Set@CGuildMarkDownloader@@AAEXXZ ENDP	; CGuildMarkDownloader::__LoginState_Set
_TEXT	ENDS
; Function compile flags: /Ogtp
; File D:\_m2work\txoko-m2-work\txoko-client-src\source\UserInterface\GuildMarkDownloader.cpp
;	COMDAT ?__LoginState_Process@CGuildMarkDownloader@@AAE_NXZ
_TEXT	SEGMENT
_header$ = -1						; size = 1
?__LoginState_Process@CGuildMarkDownloader@@AAE_NXZ PROC ; CGuildMarkDownloader::__LoginState_Process, COMDAT
; _this$ = ecx

; 126  : {

  00000	55		 push	 ebp
  00001	8b ec		 mov	 ebp, esp
  00003	51		 push	 ecx
  00004	56		 push	 esi

; 127  : 	BYTE header;
; 128  : 
; 129  : 	if (!Peek(sizeof(BYTE), &header))

  00005	8d 45 ff	 lea	 eax, DWORD PTR _header$[ebp]
  00008	8b f1		 mov	 esi, ecx
  0000a	50		 push	 eax
  0000b	6a 01		 push	 1
  0000d	e8 00 00 00 00	 call	 ?Peek@CNetworkStream@@QAE_NHPAX@Z ; CNetworkStream::Peek
  00012	84 c0		 test	 al, al
  00014	74 56		 je	 SHORT $LN9@LoginState

; 130  : 		return true;
; 131  : 
; 132  : 	if (IsSecurityMode())

  00016	8b ce		 mov	 ecx, esi
  00018	e8 00 00 00 00	 call	 ?IsSecurityMode@CNetworkStream@@QAE_NXZ ; CNetworkStream::IsSecurityMode
  0001d	84 c0		 test	 al, al
  0001f	8a 45 ff	 mov	 al, BYTE PTR _header$[ebp]
  00022	74 1c		 je	 SHORT $LN4@LoginState

; 133  : 	{
; 134  : 		if (0 == header)

  00024	84 c0		 test	 al, al
  00026	75 18		 jne	 SHORT $LN4@LoginState

; 135  : 		{
; 136  : 			if (!Recv(sizeof(header), &header))

  00028	8d 45 ff	 lea	 eax, DWORD PTR _header$[ebp]
  0002b	8b ce		 mov	 ecx, esi
  0002d	50		 push	 eax
  0002e	6a 01		 push	 1
  00030	e8 00 00 00 00	 call	 ?Recv@CNetworkStream@@QAE_NHPAX@Z ; CNetworkStream::Recv
  00035	84 c0		 test	 al, al
  00037	74 14		 je	 SHORT $LN10@LoginState

; 152  : 	return true;
; 153  : }

  00039	b0 01		 mov	 al, 1
  0003b	5e		 pop	 esi
  0003c	8b e5		 mov	 esp, ebp
  0003e	5d		 pop	 ebp
  0003f	c3		 ret	 0
$LN4@LoginState:

; 137  : 				return false;
; 138  : 			
; 139  : 			return true;
; 140  : 		}
; 141  : 	}
; 142  : 	
; 143  : 	UINT needPacketSize = __GetPacketSize(header);

  00040	0f b6 c0	 movzx	 eax, al
  00043	50		 push	 eax
  00044	e8 00 00 00 00	 call	 ?__GetPacketSize@CGuildMarkDownloader@@AAEII@Z ; CGuildMarkDownloader::__GetPacketSize

; 144  : 
; 145  : 	if (!needPacketSize)

  00049	85 c0		 test	 eax, eax
  0004b	75 07		 jne	 SHORT $LN6@LoginState
$LN10@LoginState:

; 146  : 		return false;

  0004d	32 c0		 xor	 al, al

; 152  : 	return true;
; 153  : }

  0004f	5e		 pop	 esi
  00050	8b e5		 mov	 esp, ebp
  00052	5d		 pop	 ebp
  00053	c3		 ret	 0
$LN6@LoginState:

; 147  : 
; 148  : 	if (!Peek(needPacketSize))

  00054	50		 push	 eax
  00055	8b ce		 mov	 ecx, esi
  00057	e8 00 00 00 00	 call	 ?Peek@CNetworkStream@@QAE_NH@Z ; CNetworkStream::Peek
  0005c	84 c0		 test	 al, al
  0005e	74 0c		 je	 SHORT $LN9@LoginState

; 149  : 		return true;
; 150  : 
; 151  : 	__DispatchPacket(header);

  00060	0f b6 45 ff	 movzx	 eax, BYTE PTR _header$[ebp]
  00064	8b ce		 mov	 ecx, esi
  00066	50		 push	 eax
  00067	e8 00 00 00 00	 call	 ?__DispatchPacket@CGuildMarkDownloader@@AAE_NI@Z ; CGuildMarkDownloader::__DispatchPacket
$LN9@LoginState:

; 152  : 	return true;
; 153  : }

  0006c	b0 01		 mov	 al, 1
  0006e	5e		 pop	 esi
  0006f	8b e5		 mov	 esp, ebp
  00071	5d		 pop	 ebp
  00072	c3		 ret	 0
?__LoginState_Process@CGuildMarkDownloader@@AAE_NXZ ENDP ; CGuildMarkDownloader::__LoginState_Process
_TEXT	ENDS
; Function compile flags: /Ogtp
; File D:\_m2work\txoko-m2-work\txoko-client-src\source\UserInterface\GuildMarkDownloader.cpp
;	COMDAT ?__GetPacketSize@CGuildMarkDownloader@@AAEII@Z
_TEXT	SEGMENT
_header$ = 8						; size = 4
?__GetPacketSize@CGuildMarkDownloader@@AAEII@Z PROC	; CGuildMarkDownloader::__GetPacketSize, COMDAT
; _this$dead$ = ecx

; 157  : {

  00000	55		 push	 ebp
  00001	8b ec		 mov	 ebp, esp

; 158  : 	switch (header)

  00003	8b 45 08	 mov	 eax, DWORD PTR _header$[ebp]
  00006	83 c0 d4	 add	 eax, -44		; ffffffd4H
  00009	3d d3 00 00 00	 cmp	 eax, 211		; 000000d3H
  0000e	77 4d		 ja	 SHORT $LN2@GetPacketS
  00010	0f b6 80 00 00
	00 00		 movzx	 eax, BYTE PTR $LN14@GetPacketS[eax]
  00017	ff 24 85 00 00
	00 00		 jmp	 DWORD PTR $LN15@GetPacketS[eax*4]
$LN4@GetPacketS:

; 159  : 	{
; 160  : 		case HEADER_GC_PHASE:
; 161  : 			return sizeof(TPacketGCPhase);

  0001e	b8 02 00 00 00	 mov	 eax, 2

; 183  : }

  00023	5d		 pop	 ebp
  00024	c2 04 00	 ret	 4
$LN5@GetPacketS:

; 162  : 		case HEADER_GC_HANDSHAKE:
; 163  : 			return sizeof(TPacketGCHandshake);

  00027	b8 0d 00 00 00	 mov	 eax, 13			; 0000000dH

; 183  : }

  0002c	5d		 pop	 ebp
  0002d	c2 04 00	 ret	 4
$LN8@GetPacketS:

; 164  : 		case HEADER_GC_PING:
; 165  : 			return sizeof(TPacketGCPing);
; 166  : 		case HEADER_GC_MARK_IDXLIST:
; 167  : 			return sizeof(TPacketGCMarkIDXList);
; 168  : 		case HEADER_GC_MARK_BLOCK:
; 169  : 			return sizeof(TPacketGCMarkBlock);

  00030	b8 0a 00 00 00	 mov	 eax, 10			; 0000000aH

; 183  : }

  00035	5d		 pop	 ebp
  00036	c2 04 00	 ret	 4
$LN9@GetPacketS:

; 170  : 		case HEADER_GC_GUILD_SYMBOL_DATA:
; 171  : 			return sizeof(TPacketGCGuildSymbolData);

  00039	b8 07 00 00 00	 mov	 eax, 7

; 183  : }

  0003e	5d		 pop	 ebp
  0003f	c2 04 00	 ret	 4
$LN10@GetPacketS:

; 172  : 		case HEADER_GC_MARK_DIFF_DATA:	//  
; 173  : 			return sizeof(BYTE);

  00042	b8 01 00 00 00	 mov	 eax, 1

; 183  : }

  00047	5d		 pop	 ebp
  00048	c2 04 00	 ret	 4
$LN11@GetPacketS:

; 174  : #ifdef _IMPROVED_PACKET_ENCRYPTION_
; 175  : 		case HEADER_GC_KEY_AGREEMENT:
; 176  : 			return sizeof(TPacketKeyAgreement);

  0004b	b8 05 01 00 00	 mov	 eax, 261		; 00000105H

; 183  : }

  00050	5d		 pop	 ebp
  00051	c2 04 00	 ret	 4
$LN12@GetPacketS:

; 177  : 		case HEADER_GC_KEY_AGREEMENT_COMPLETED:
; 178  : 			return sizeof(TPacketKeyAgreementCompleted);

  00054	b8 04 00 00 00	 mov	 eax, 4

; 183  : }

  00059	5d		 pop	 ebp
  0005a	c2 04 00	 ret	 4
$LN2@GetPacketS:

; 179  : 
; 180  : #endif
; 181  : 	}
; 182  : 	return 0;

  0005d	33 c0		 xor	 eax, eax

; 183  : }

  0005f	5d		 pop	 ebp
  00060	c2 04 00	 ret	 4
  00063	90		 npad	 1
$LN15@GetPacketS:
  00064	00 00 00 00	 DD	 $LN10@GetPacketS
  00068	00 00 00 00	 DD	 $LN8@GetPacketS
  0006c	00 00 00 00	 DD	 $LN9@GetPacketS
  00070	00 00 00 00	 DD	 $LN12@GetPacketS
  00074	00 00 00 00	 DD	 $LN11@GetPacketS
  00078	00 00 00 00	 DD	 $LN4@GetPacketS
  0007c	00 00 00 00	 DD	 $LN5@GetPacketS
  00080	00 00 00 00	 DD	 $LN2@GetPacketS
$LN14@GetPacketS:
  00084	00		 DB	 0
  00085	07		 DB	 7
  00086	07		 DB	 7
  00087	07		 DB	 7
  00088	07		 DB	 7
  00089	07		 DB	 7
  0008a	07		 DB	 7
  0008b	07		 DB	 7
  0008c	07		 DB	 7
  0008d	07		 DB	 7
  0008e	07		 DB	 7
  0008f	07		 DB	 7
  00090	07		 DB	 7
  00091	07		 DB	 7
  00092	07		 DB	 7
  00093	07		 DB	 7
  00094	07		 DB	 7
  00095	07		 DB	 7
  00096	07		 DB	 7
  00097	07		 DB	 7
  00098	07		 DB	 7
  00099	07		 DB	 7
  0009a	07		 DB	 7
  0009b	07		 DB	 7
  0009c	07		 DB	 7
  0009d	07		 DB	 7
  0009e	07		 DB	 7
  0009f	07		 DB	 7
  000a0	07		 DB	 7
  000a1	07		 DB	 7
  000a2	07		 DB	 7
  000a3	07		 DB	 7
  000a4	07		 DB	 7
  000a5	07		 DB	 7
  000a6	07		 DB	 7
  000a7	07		 DB	 7
  000a8	07		 DB	 7
  000a9	07		 DB	 7
  000aa	07		 DB	 7
  000ab	07		 DB	 7
  000ac	07		 DB	 7
  000ad	07		 DB	 7
  000ae	07		 DB	 7
  000af	07		 DB	 7
  000b0	07		 DB	 7
  000b1	07		 DB	 7
  000b2	07		 DB	 7
  000b3	07		 DB	 7
  000b4	07		 DB	 7
  000b5	07		 DB	 7
  000b6	07		 DB	 7
  000b7	07		 DB	 7
  000b8	07		 DB	 7
  000b9	07		 DB	 7
  000ba	07		 DB	 7
  000bb	07		 DB	 7
  000bc	01		 DB	 1
  000bd	00		 DB	 0
  000be	02		 DB	 2
  000bf	07		 DB	 7
  000c0	07		 DB	 7
  000c1	07		 DB	 7
  000c2	07		 DB	 7
  000c3	07		 DB	 7
  000c4	07		 DB	 7
  000c5	07		 DB	 7
  000c6	07		 DB	 7
  000c7	07		 DB	 7
  000c8	07		 DB	 7
  000c9	07		 DB	 7
  000ca	07		 DB	 7
  000cb	07		 DB	 7
  000cc	07		 DB	 7
  000cd	07		 DB	 7
  000ce	07		 DB	 7
  000cf	07		 DB	 7
  000d0	07		 DB	 7
  000d1	07		 DB	 7
  000d2	07		 DB	 7
  000d3	07		 DB	 7
  000d4	07		 DB	 7
  000d5	07		 DB	 7
  000d6	07		 DB	 7
  000d7	07		 DB	 7
  000d8	07		 DB	 7
  000d9	07		 DB	 7
  000da	07		 DB	 7
  000db	07		 DB	 7
  000dc	07		 DB	 7
  000dd	02		 DB	 2
  000de	07		 DB	 7
  000df	07		 DB	 7
  000e0	07		 DB	 7
  000e1	07		 DB	 7
  000e2	07		 DB	 7
  000e3	07		 DB	 7
  000e4	07		 DB	 7
  000e5	07		 DB	 7
  000e6	07		 DB	 7
  000e7	07		 DB	 7
  000e8	07		 DB	 7
  000e9	07		 DB	 7
  000ea	07		 DB	 7
  000eb	07		 DB	 7
  000ec	07		 DB	 7
  000ed	07		 DB	 7
  000ee	07		 DB	 7
  000ef	07		 DB	 7
  000f0	07		 DB	 7
  000f1	07		 DB	 7
  000f2	07		 DB	 7
  000f3	07		 DB	 7
  000f4	07		 DB	 7
  000f5	07		 DB	 7
  000f6	07		 DB	 7
  000f7	07		 DB	 7
  000f8	07		 DB	 7
  000f9	07		 DB	 7
  000fa	07		 DB	 7
  000fb	07		 DB	 7
  000fc	07		 DB	 7
  000fd	07		 DB	 7
  000fe	07		 DB	 7
  000ff	07		 DB	 7
  00100	07		 DB	 7
  00101	07		 DB	 7
  00102	07		 DB	 7
  00103	07		 DB	 7
  00104	07		 DB	 7
  00105	07		 DB	 7
  00106	07		 DB	 7
  00107	07		 DB	 7
  00108	07		 DB	 7
  00109	07		 DB	 7
  0010a	07		 DB	 7
  0010b	07		 DB	 7
  0010c	07		 DB	 7
  0010d	07		 DB	 7
  0010e	07		 DB	 7
  0010f	07		 DB	 7
  00110	07		 DB	 7
  00111	07		 DB	 7
  00112	07		 DB	 7
  00113	07		 DB	 7
  00114	07		 DB	 7
  00115	07		 DB	 7
  00116	07		 DB	 7
  00117	07		 DB	 7
  00118	07		 DB	 7
  00119	07		 DB	 7
  0011a	07		 DB	 7
  0011b	07		 DB	 7
  0011c	07		 DB	 7
  0011d	07		 DB	 7
  0011e	07		 DB	 7
  0011f	07		 DB	 7
  00120	07		 DB	 7
  00121	07		 DB	 7
  00122	07		 DB	 7
  00123	07		 DB	 7
  00124	07		 DB	 7
  00125	07		 DB	 7
  00126	07		 DB	 7
  00127	07		 DB	 7
  00128	07		 DB	 7
  00129	07		 DB	 7
  0012a	07		 DB	 7
  0012b	07		 DB	 7
  0012c	07		 DB	 7
  0012d	07		 DB	 7
  0012e	07		 DB	 7
  0012f	07		 DB	 7
  00130	07		 DB	 7
  00131	07		 DB	 7
  00132	07		 DB	 7
  00133	07		 DB	 7
  00134	07		 DB	 7
  00135	07		 DB	 7
  00136	07		 DB	 7
  00137	07		 DB	 7
  00138	07		 DB	 7
  00139	07		 DB	 7
  0013a	07		 DB	 7
  0013b	07		 DB	 7
  0013c	07		 DB	 7
  0013d	07		 DB	 7
  0013e	07		 DB	 7
  0013f	07		 DB	 7
  00140	07		 DB	 7
  00141	07		 DB	 7
  00142	07		 DB	 7
  00143	07		 DB	 7
  00144	07		 DB	 7
  00145	07		 DB	 7
  00146	07		 DB	 7
  00147	07		 DB	 7
  00148	07		 DB	 7
  00149	07		 DB	 7
  0014a	07		 DB	 7
  0014b	07		 DB	 7
  0014c	07		 DB	 7
  0014d	07		 DB	 7
  0014e	07		 DB	 7
  0014f	07		 DB	 7
  00150	07		 DB	 7
  00151	07		 DB	 7
  00152	03		 DB	 3
  00153	04		 DB	 4
  00154	07		 DB	 7
  00155	05		 DB	 5
  00156	07		 DB	 7
  00157	06		 DB	 6
?__GetPacketSize@CGuildMarkDownloader@@AAEII@Z ENDP	; CGuildMarkDownloader::__GetPacketSize
_TEXT	ENDS
; Function compile flags: /Ogtp
; File D:\_m2work\txoko-m2-work\txoko-client-src\source\UserInterface\GuildMarkDownloader.cpp
;	COMDAT ?__DispatchPacket@CGuildMarkDownloader@@AAE_NI@Z
_TEXT	SEGMENT
_header$ = 8						; size = 4
?__DispatchPacket@CGuildMarkDownloader@@AAE_NI@Z PROC	; CGuildMarkDownloader::__DispatchPacket, COMDAT
; _this$ = ecx

; 186  : {

  00000	55		 push	 ebp
  00001	8b ec		 mov	 ebp, esp
  00003	83 e4 f8	 and	 esp, -8			; fffffff8H

; 187  : 	switch (header)

  00006	8b 45 08	 mov	 eax, DWORD PTR _header$[ebp]
  00009	83 c0 d4	 add	 eax, -44		; ffffffd4H
  0000c	3d d3 00 00 00	 cmp	 eax, 211		; 000000d3H
  00011	77 6e		 ja	 SHORT $LN2@DispatchPa
  00013	0f b6 80 00 00
	00 00		 movzx	 eax, BYTE PTR $LN14@DispatchPa[eax]
  0001a	ff 24 85 00 00
	00 00		 jmp	 DWORD PTR $LN15@DispatchPa[eax*4]
$LN4@DispatchPa:

; 188  : 	{
; 189  : 		case HEADER_GC_PHASE:
; 190  : 			return __LoginState_RecvPhase();

  00021	e8 00 00 00 00	 call	 ?__LoginState_RecvPhase@CGuildMarkDownloader@@AAE_NXZ ; CGuildMarkDownloader::__LoginState_RecvPhase

; 211  : }

  00026	8b e5		 mov	 esp, ebp
  00028	5d		 pop	 ebp
  00029	c2 04 00	 ret	 4
$LN5@DispatchPa:

; 191  : 		case HEADER_GC_HANDSHAKE:
; 192  : 			return __LoginState_RecvHandshake();

  0002c	e8 00 00 00 00	 call	 ?__LoginState_RecvHandshake@CGuildMarkDownloader@@AAE_NXZ ; CGuildMarkDownloader::__LoginState_RecvHandshake

; 211  : }

  00031	8b e5		 mov	 esp, ebp
  00033	5d		 pop	 ebp
  00034	c2 04 00	 ret	 4
$LN6@DispatchPa:

; 193  : 		case HEADER_GC_PING:
; 194  : 			return __LoginState_RecvPing();

  00037	e8 00 00 00 00	 call	 ?__LoginState_RecvPing@CGuildMarkDownloader@@AAE_NXZ ; CGuildMarkDownloader::__LoginState_RecvPing

; 211  : }

  0003c	8b e5		 mov	 esp, ebp
  0003e	5d		 pop	 ebp
  0003f	c2 04 00	 ret	 4
$LN7@DispatchPa:

; 195  : 		case HEADER_GC_MARK_IDXLIST:
; 196  : 			return __LoginState_RecvMarkIndex();

  00042	e8 00 00 00 00	 call	 ?__LoginState_RecvMarkIndex@CGuildMarkDownloader@@AAE_NXZ ; CGuildMarkDownloader::__LoginState_RecvMarkIndex

; 211  : }

  00047	8b e5		 mov	 esp, ebp
  00049	5d		 pop	 ebp
  0004a	c2 04 00	 ret	 4
$LN8@DispatchPa:

; 197  : 		case HEADER_GC_MARK_BLOCK:
; 198  : 			return __LoginState_RecvMarkBlock();

  0004d	e8 00 00 00 00	 call	 ?__LoginState_RecvMarkBlock@CGuildMarkDownloader@@AAE_NXZ ; CGuildMarkDownloader::__LoginState_RecvMarkBlock

; 211  : }

  00052	8b e5		 mov	 esp, ebp
  00054	5d		 pop	 ebp
  00055	c2 04 00	 ret	 4
$LN9@DispatchPa:

; 199  : 		case HEADER_GC_GUILD_SYMBOL_DATA:
; 200  : 			return __LoginState_RecvSymbolData();

  00058	e8 00 00 00 00	 call	 ?__LoginState_RecvSymbolData@CGuildMarkDownloader@@AAE_NXZ ; CGuildMarkDownloader::__LoginState_RecvSymbolData

; 211  : }

  0005d	8b e5		 mov	 esp, ebp
  0005f	5d		 pop	 ebp
  00060	c2 04 00	 ret	 4
$LN10@DispatchPa:

; 201  : 		case HEADER_GC_MARK_DIFF_DATA: //  
; 202  : 			return true;

  00063	b0 01		 mov	 al, 1

; 211  : }

  00065	8b e5		 mov	 esp, ebp
  00067	5d		 pop	 ebp
  00068	c2 04 00	 ret	 4
$LN11@DispatchPa:

; 203  : #ifdef _IMPROVED_PACKET_ENCRYPTION_
; 204  : 		case HEADER_GC_KEY_AGREEMENT:
; 205  : 			return __LoginState_RecvKeyAgreement();

  0006b	e8 00 00 00 00	 call	 ?__LoginState_RecvKeyAgreement@CGuildMarkDownloader@@AAE_NXZ ; CGuildMarkDownloader::__LoginState_RecvKeyAgreement

; 211  : }

  00070	8b e5		 mov	 esp, ebp
  00072	5d		 pop	 ebp
  00073	c2 04 00	 ret	 4
$LN12@DispatchPa:

; 206  : 		case HEADER_GC_KEY_AGREEMENT_COMPLETED:
; 207  : 			return __LoginState_RecvKeyAgreementCompleted();

  00076	e8 00 00 00 00	 call	 ?__LoginState_RecvKeyAgreementCompleted@CGuildMarkDownloader@@AAE_NXZ ; CGuildMarkDownloader::__LoginState_RecvKeyAgreementCompleted

; 211  : }

  0007b	8b e5		 mov	 esp, ebp
  0007d	5d		 pop	 ebp
  0007e	c2 04 00	 ret	 4
$LN2@DispatchPa:

; 208  : #endif
; 209  : 	}
; 210  : 	return false;	

  00081	32 c0		 xor	 al, al

; 211  : }

  00083	8b e5		 mov	 esp, ebp
  00085	5d		 pop	 ebp
  00086	c2 04 00	 ret	 4
  00089	0f 1f 00	 npad	 3
$LN15@DispatchPa:
  0008c	00 00 00 00	 DD	 $LN6@DispatchPa
  00090	00 00 00 00	 DD	 $LN8@DispatchPa
  00094	00 00 00 00	 DD	 $LN10@DispatchPa
  00098	00 00 00 00	 DD	 $LN7@DispatchPa
  0009c	00 00 00 00	 DD	 $LN9@DispatchPa
  000a0	00 00 00 00	 DD	 $LN12@DispatchPa
  000a4	00 00 00 00	 DD	 $LN11@DispatchPa
  000a8	00 00 00 00	 DD	 $LN4@DispatchPa
  000ac	00 00 00 00	 DD	 $LN5@DispatchPa
  000b0	00 00 00 00	 DD	 $LN2@DispatchPa
$LN14@DispatchPa:
  000b4	00		 DB	 0
  000b5	09		 DB	 9
  000b6	09		 DB	 9
  000b7	09		 DB	 9
  000b8	09		 DB	 9
  000b9	09		 DB	 9
  000ba	09		 DB	 9
  000bb	09		 DB	 9
  000bc	09		 DB	 9
  000bd	09		 DB	 9
  000be	09		 DB	 9
  000bf	09		 DB	 9
  000c0	09		 DB	 9
  000c1	09		 DB	 9
  000c2	09		 DB	 9
  000c3	09		 DB	 9
  000c4	09		 DB	 9
  000c5	09		 DB	 9
  000c6	09		 DB	 9
  000c7	09		 DB	 9
  000c8	09		 DB	 9
  000c9	09		 DB	 9
  000ca	09		 DB	 9
  000cb	09		 DB	 9
  000cc	09		 DB	 9
  000cd	09		 DB	 9
  000ce	09		 DB	 9
  000cf	09		 DB	 9
  000d0	09		 DB	 9
  000d1	09		 DB	 9
  000d2	09		 DB	 9
  000d3	09		 DB	 9
  000d4	09		 DB	 9
  000d5	09		 DB	 9
  000d6	09		 DB	 9
  000d7	09		 DB	 9
  000d8	09		 DB	 9
  000d9	09		 DB	 9
  000da	09		 DB	 9
  000db	09		 DB	 9
  000dc	09		 DB	 9
  000dd	09		 DB	 9
  000de	09		 DB	 9
  000df	09		 DB	 9
  000e0	09		 DB	 9
  000e1	09		 DB	 9
  000e2	09		 DB	 9
  000e3	09		 DB	 9
  000e4	09		 DB	 9
  000e5	09		 DB	 9
  000e6	09		 DB	 9
  000e7	09		 DB	 9
  000e8	09		 DB	 9
  000e9	09		 DB	 9
  000ea	09		 DB	 9
  000eb	09		 DB	 9
  000ec	01		 DB	 1
  000ed	02		 DB	 2
  000ee	03		 DB	 3
  000ef	09		 DB	 9
  000f0	09		 DB	 9
  000f1	09		 DB	 9
  000f2	09		 DB	 9
  000f3	09		 DB	 9
  000f4	09		 DB	 9
  000f5	09		 DB	 9
  000f6	09		 DB	 9
  000f7	09		 DB	 9
  000f8	09		 DB	 9
  000f9	09		 DB	 9
  000fa	09		 DB	 9
  000fb	09		 DB	 9
  000fc	09		 DB	 9
  000fd	09		 DB	 9
  000fe	09		 DB	 9
  000ff	09		 DB	 9
  00100	09		 DB	 9
  00101	09		 DB	 9
  00102	09		 DB	 9
  00103	09		 DB	 9
  00104	09		 DB	 9
  00105	09		 DB	 9
  00106	09		 DB	 9
  00107	09		 DB	 9
  00108	09		 DB	 9
  00109	09		 DB	 9
  0010a	09		 DB	 9
  0010b	09		 DB	 9
  0010c	09		 DB	 9
  0010d	04		 DB	 4
  0010e	09		 DB	 9
  0010f	09		 DB	 9
  00110	09		 DB	 9
  00111	09		 DB	 9
  00112	09		 DB	 9
  00113	09		 DB	 9
  00114	09		 DB	 9
  00115	09		 DB	 9
  00116	09		 DB	 9
  00117	09		 DB	 9
  00118	09		 DB	 9
  00119	09		 DB	 9
  0011a	09		 DB	 9
  0011b	09		 DB	 9
  0011c	09		 DB	 9
  0011d	09		 DB	 9
  0011e	09		 DB	 9
  0011f	09		 DB	 9
  00120	09		 DB	 9
  00121	09		 DB	 9
  00122	09		 DB	 9
  00123	09		 DB	 9
  00124	09		 DB	 9
  00125	09		 DB	 9
  00126	09		 DB	 9
  00127	09		 DB	 9
  00128	09		 DB	 9
  00129	09		 DB	 9
  0012a	09		 DB	 9
  0012b	09		 DB	 9
  0012c	09		 DB	 9
  0012d	09		 DB	 9
  0012e	09		 DB	 9
  0012f	09		 DB	 9
  00130	09		 DB	 9
  00131	09		 DB	 9
  00132	09		 DB	 9
  00133	09		 DB	 9
  00134	09		 DB	 9
  00135	09		 DB	 9
  00136	09		 DB	 9
  00137	09		 DB	 9
  00138	09		 DB	 9
  00139	09		 DB	 9
  0013a	09		 DB	 9
  0013b	09		 DB	 9
  0013c	09		 DB	 9
  0013d	09		 DB	 9
  0013e	09		 DB	 9
  0013f	09		 DB	 9
  00140	09		 DB	 9
  00141	09		 DB	 9
  00142	09		 DB	 9
  00143	09		 DB	 9
  00144	09		 DB	 9
  00145	09		 DB	 9
  00146	09		 DB	 9
  00147	09		 DB	 9
  00148	09		 DB	 9
  00149	09		 DB	 9
  0014a	09		 DB	 9
  0014b	09		 DB	 9
  0014c	09		 DB	 9
  0014d	09		 DB	 9
  0014e	09		 DB	 9
  0014f	09		 DB	 9
  00150	09		 DB	 9
  00151	09		 DB	 9
  00152	09		 DB	 9
  00153	09		 DB	 9
  00154	09		 DB	 9
  00155	09		 DB	 9
  00156	09		 DB	 9
  00157	09		 DB	 9
  00158	09		 DB	 9
  00159	09		 DB	 9
  0015a	09		 DB	 9
  0015b	09		 DB	 9
  0015c	09		 DB	 9
  0015d	09		 DB	 9
  0015e	09		 DB	 9
  0015f	09		 DB	 9
  00160	09		 DB	 9
  00161	09		 DB	 9
  00162	09		 DB	 9
  00163	09		 DB	 9
  00164	09		 DB	 9
  00165	09		 DB	 9
  00166	09		 DB	 9
  00167	09		 DB	 9
  00168	09		 DB	 9
  00169	09		 DB	 9
  0016a	09		 DB	 9
  0016b	09		 DB	 9
  0016c	09		 DB	 9
  0016d	09		 DB	 9
  0016e	09		 DB	 9
  0016f	09		 DB	 9
  00170	09		 DB	 9
  00171	09		 DB	 9
  00172	09		 DB	 9
  00173	09		 DB	 9
  00174	09		 DB	 9
  00175	09		 DB	 9
  00176	09		 DB	 9
  00177	09		 DB	 9
  00178	09		 DB	 9
  00179	09		 DB	 9
  0017a	09		 DB	 9
  0017b	09		 DB	 9
  0017c	09		 DB	 9
  0017d	09		 DB	 9
  0017e	09		 DB	 9
  0017f	09		 DB	 9
  00180	09		 DB	 9
  00181	09		 DB	 9
  00182	05		 DB	 5
  00183	06		 DB	 6
  00184	09		 DB	 9
  00185	07		 DB	 7
  00186	09		 DB	 9
  00187	08		 DB	 8
?__DispatchPacket@CGuildMarkDownloader@@AAE_NI@Z ENDP	; CGuildMarkDownloader::__DispatchPacket
_TEXT	ENDS
; Function compile flags: /Ogtp
; File D:\_m2work\txoko-m2-work\txoko-client-src\source\UserInterface\GuildMarkDownloader.cpp
;	COMDAT ?__LoginState_RecvHandshake@CGuildMarkDownloader@@AAE_NXZ
_TEXT	SEGMENT
_kPacketHandshake$ = -32				; size = 13
_kPacketMarkLogin$ = -16				; size = 9
__$ArrayPad$ = -4					; size = 4
?__LoginState_RecvHandshake@CGuildMarkDownloader@@AAE_NXZ PROC ; CGuildMarkDownloader::__LoginState_RecvHandshake, COMDAT
; _this$ = ecx

; 215  : {

  00000	55		 push	 ebp
  00001	8b ec		 mov	 ebp, esp
  00003	83 ec 20	 sub	 esp, 32			; 00000020H
  00006	a1 00 00 00 00	 mov	 eax, DWORD PTR ___security_cookie
  0000b	33 c5		 xor	 eax, ebp
  0000d	89 45 fc	 mov	 DWORD PTR __$ArrayPad$[ebp], eax
  00010	56		 push	 esi

; 216  : 	TPacketGCHandshake kPacketHandshake;
; 217  : 	if (!Recv(sizeof(kPacketHandshake), &kPacketHandshake))

  00011	8d 45 e0	 lea	 eax, DWORD PTR _kPacketHandshake$[ebp]
  00014	8b f1		 mov	 esi, ecx
  00016	50		 push	 eax
  00017	6a 0d		 push	 13			; 0000000dH
  00019	e8 00 00 00 00	 call	 ?Recv@CNetworkStream@@QAE_NHPAX@Z ; CNetworkStream::Recv
  0001e	84 c0		 test	 al, al
  00020	74 37		 je	 SHORT $LN5@LoginState

; 218  : 		return false;
; 219  : 
; 220  : 	TPacketCGMarkLogin kPacketMarkLogin;
; 221  : 
; 222  : 	kPacketMarkLogin.header = HEADER_CG_MARK_LOGIN;
; 223  : 	kPacketMarkLogin.handle = m_dwHandle;

  00022	8b 86 80 00 00
	00		 mov	 eax, DWORD PTR [esi+128]

; 224  : 	kPacketMarkLogin.random_key = m_dwRandomKey;
; 225  : 
; 226  : 	if (!Send(sizeof(kPacketMarkLogin), &kPacketMarkLogin))

  00028	8b ce		 mov	 ecx, esi
  0002a	89 45 f1	 mov	 DWORD PTR _kPacketMarkLogin$[ebp+1], eax
  0002d	8b 86 84 00 00
	00		 mov	 eax, DWORD PTR [esi+132]
  00033	89 45 f5	 mov	 DWORD PTR _kPacketMarkLogin$[ebp+5], eax
  00036	8d 45 f0	 lea	 eax, DWORD PTR _kPacketMarkLogin$[ebp]
  00039	50		 push	 eax
  0003a	6a 09		 push	 9
  0003c	c6 45 f0 64	 mov	 BYTE PTR _kPacketMarkLogin$[ebp], 100 ; 00000064H
  00040	e8 00 00 00 00	 call	 ?Send@CNetworkStream@@QAE_NHPBX@Z ; CNetworkStream::Send
  00045	84 c0		 test	 al, al
  00047	5e		 pop	 esi
  00048	0f 95 c0	 setne	 al

; 227  : 		return false;
; 228  : 
; 229  : 	return true;
; 230  : }

  0004b	8b 4d fc	 mov	 ecx, DWORD PTR __$ArrayPad$[ebp]
  0004e	33 cd		 xor	 ecx, ebp
  00050	e8 00 00 00 00	 call	 @__security_check_cookie@4
  00055	8b e5		 mov	 esp, ebp
  00057	5d		 pop	 ebp
  00058	c3		 ret	 0
$LN5@LoginState:
  00059	8b 4d fc	 mov	 ecx, DWORD PTR __$ArrayPad$[ebp]
  0005c	32 c0		 xor	 al, al
  0005e	33 cd		 xor	 ecx, ebp
  00060	5e		 pop	 esi
  00061	e8 00 00 00 00	 call	 @__security_check_cookie@4
  00066	8b e5		 mov	 esp, ebp
  00068	5d		 pop	 ebp
  00069	c3		 ret	 0
?__LoginState_RecvHandshake@CGuildMarkDownloader@@AAE_NXZ ENDP ; CGuildMarkDownloader::__LoginState_RecvHandshake
_TEXT	ENDS
; Function compile flags: /Ogtp
; File D:\_m2work\txoko-m2-work\txoko-client-src\source\UserInterface\GuildMarkDownloader.cpp
;	COMDAT ?__LoginState_RecvPing@CGuildMarkDownloader@@AAE_NXZ
_TEXT	SEGMENT
_kPacketPing$ = -2					; size = 1
_kPacketPong$ = -1					; size = 1
?__LoginState_RecvPing@CGuildMarkDownloader@@AAE_NXZ PROC ; CGuildMarkDownloader::__LoginState_RecvPing, COMDAT
; _this$ = ecx

; 233  : {

  00000	55		 push	 ebp
  00001	8b ec		 mov	 ebp, esp
  00003	51		 push	 ecx
  00004	56		 push	 esi

; 234  : 	TPacketGCPing kPacketPing;
; 235  : 
; 236  : 	if (!Recv(sizeof(kPacketPing), &kPacketPing))

  00005	8d 45 fe	 lea	 eax, DWORD PTR _kPacketPing$[ebp]
  00008	8b f1		 mov	 esi, ecx
  0000a	50		 push	 eax
  0000b	6a 01		 push	 1
  0000d	e8 00 00 00 00	 call	 ?Recv@CNetworkStream@@QAE_NHPAX@Z ; CNetworkStream::Recv
  00012	84 c0		 test	 al, al
  00014	74 33		 je	 SHORT $LN7@LoginState

; 237  : 		return false;
; 238  : 
; 239  : 	TPacketCGPong kPacketPong;
; 240  : 	kPacketPong.bHeader = HEADER_CG_PONG;
; 241  : 
; 242  : 	if (!Send(sizeof(TPacketCGPong), &kPacketPong))

  00016	8d 45 ff	 lea	 eax, DWORD PTR _kPacketPong$[ebp]
  00019	c6 45 ff fe	 mov	 BYTE PTR _kPacketPong$[ebp], 254 ; 000000feH
  0001d	50		 push	 eax
  0001e	6a 01		 push	 1
  00020	8b ce		 mov	 ecx, esi
  00022	e8 00 00 00 00	 call	 ?Send@CNetworkStream@@QAE_NHPBX@Z ; CNetworkStream::Send
  00027	84 c0		 test	 al, al
  00029	74 1e		 je	 SHORT $LN7@LoginState

; 244  : 
; 245  : 	if (IsSecurityMode())

  0002b	8b ce		 mov	 ecx, esi
  0002d	e8 00 00 00 00	 call	 ?IsSecurityMode@CNetworkStream@@QAE_NXZ ; CNetworkStream::IsSecurityMode
  00032	84 c0		 test	 al, al
  00034	74 0c		 je	 SHORT $LN4@LoginState

; 246  : 		return SendSequence();

  00036	8b ce		 mov	 ecx, esi
  00038	e8 00 00 00 00	 call	 ?SendSequence@CNetworkStream@@QAE_NXZ ; CNetworkStream::SendSequence
  0003d	5e		 pop	 esi

; 249  : }

  0003e	8b e5		 mov	 esp, ebp
  00040	5d		 pop	 ebp
  00041	c3		 ret	 0
$LN4@LoginState:

; 247  : 	else
; 248  : 		return true;

  00042	b0 01		 mov	 al, 1
  00044	5e		 pop	 esi

; 249  : }

  00045	8b e5		 mov	 esp, ebp
  00047	5d		 pop	 ebp
  00048	c3		 ret	 0
$LN7@LoginState:

; 243  : 		return false;

  00049	32 c0		 xor	 al, al
  0004b	5e		 pop	 esi

; 249  : }

  0004c	8b e5		 mov	 esp, ebp
  0004e	5d		 pop	 ebp
  0004f	c3		 ret	 0
?__LoginState_RecvPing@CGuildMarkDownloader@@AAE_NXZ ENDP ; CGuildMarkDownloader::__LoginState_RecvPing
_TEXT	ENDS
; Function compile flags: /Ogtp
; File D:\_m2work\txoko-m2-work\txoko-client-src\source\UserInterface\GuildMarkDownloader.cpp
;	COMDAT ?__LoginState_RecvPhase@CGuildMarkDownloader@@AAE_NXZ
_TEXT	SEGMENT
_kPacketPhase$ = -4					; size = 2
?__LoginState_RecvPhase@CGuildMarkDownloader@@AAE_NXZ PROC ; CGuildMarkDownloader::__LoginState_RecvPhase, COMDAT
; _this$ = ecx

; 252  : {

  00000	55		 push	 ebp
  00001	8b ec		 mov	 ebp, esp
  00003	51		 push	 ecx
  00004	56		 push	 esi

; 253  : 	TPacketGCPhase kPacketPhase;
; 254  : 
; 255  : 	if (!Recv(sizeof(kPacketPhase), &kPacketPhase))

  00005	8d 45 fc	 lea	 eax, DWORD PTR _kPacketPhase$[ebp]
  00008	8b f1		 mov	 esi, ecx
  0000a	50		 push	 eax
  0000b	6a 02		 push	 2
  0000d	e8 00 00 00 00	 call	 ?Recv@CNetworkStream@@QAE_NHPAX@Z ; CNetworkStream::Recv
  00012	84 c0		 test	 al, al
  00014	74 39		 je	 SHORT $LN12@LoginState

; 256  : 		return false;
; 257  : 
; 258  : 	if (kPacketPhase.phase == PHASE_LOGIN)

  00016	80 7d fd 02	 cmp	 BYTE PTR _kPacketPhase$[ebp+1], 2
  0001a	75 1b		 jne	 SHORT $LN8@LoginState

; 259  : 	{
; 260  : #ifndef _IMPROVED_PACKET_ENCRYPTION_
; 261  : 		const char* key = LocaleService_GetSecurityKey();
; 262  : 		SetSecurityMode(true, key);
; 263  : #endif
; 264  : 
; 265  : 		switch (m_dwTodo)

  0001c	8b 86 88 00 00
	00		 mov	 eax, DWORD PTR [esi+136]
  00022	83 e8 01	 sub	 eax, 1
  00025	74 17		 je	 SHORT $LN7@LoginState
  00027	83 e8 01	 sub	 eax, 1
  0002a	75 0b		 jne	 SHORT $LN8@LoginState

; 277  : 				// END_OF_MARK_BUG_FIX
; 278  : 				break;
; 279  : 			}
; 280  : 			case TODO_RECV_SYMBOL:
; 281  : 			{
; 282  : 				if (!__SendSymbolCRCList())

  0002c	8b ce		 mov	 ecx, esi
  0002e	e8 00 00 00 00	 call	 ?__SendSymbolCRCList@CGuildMarkDownloader@@AAE_NXZ ; CGuildMarkDownloader::__SendSymbolCRCList
  00033	84 c0		 test	 al, al
  00035	74 18		 je	 SHORT $LN12@LoginState
$LN8@LoginState:

; 283  : 					return false;
; 284  : 				break;
; 285  : 			}
; 286  : 		}
; 287  : 	}
; 288  : 
; 289  : 	return true;

  00037	b0 01		 mov	 al, 1

; 290  : }			 

  00039	5e		 pop	 esi
  0003a	8b e5		 mov	 esp, ebp
  0003c	5d		 pop	 ebp
  0003d	c3		 ret	 0
$LN7@LoginState:

; 266  : 		{
; 267  : 			case TODO_RECV_NONE:
; 268  : 			{
; 269  : 				assert(!"CGuildMarkDownloader::__LoginState_RecvPhase - Todo type is none");
; 270  : 				break;
; 271  : 			}
; 272  : 			case TODO_RECV_MARK:
; 273  : 			{
; 274  : 				// MARK_BUG_FIX
; 275  : 				if (!__SendMarkIDXList())

  0003e	8b ce		 mov	 ecx, esi
  00040	e8 00 00 00 00	 call	 ?__SendMarkIDXList@CGuildMarkDownloader@@AAE_NXZ ; CGuildMarkDownloader::__SendMarkIDXList
  00045	84 c0		 test	 al, al
  00047	0f 95 c0	 setne	 al

; 290  : }			 

  0004a	5e		 pop	 esi
  0004b	8b e5		 mov	 esp, ebp
  0004d	5d		 pop	 ebp
  0004e	c3		 ret	 0
$LN12@LoginState:

; 276  : 					return false;

  0004f	32 c0		 xor	 al, al

; 290  : }			 

  00051	5e		 pop	 esi
  00052	8b e5		 mov	 esp, ebp
  00054	5d		 pop	 ebp
  00055	c3		 ret	 0
?__LoginState_RecvPhase@CGuildMarkDownloader@@AAE_NXZ ENDP ; CGuildMarkDownloader::__LoginState_RecvPhase
_TEXT	ENDS
; Function compile flags: /Ogtp
; File D:\_m2work\txoko-m2-work\txoko-client-src\source\UserInterface\GuildMarkDownloader.cpp
;	COMDAT ?__SendMarkIDXList@CGuildMarkDownloader@@AAE_NXZ
_TEXT	SEGMENT
_kPacketMarkIDXList$ = -1				; size = 1
?__SendMarkIDXList@CGuildMarkDownloader@@AAE_NXZ PROC	; CGuildMarkDownloader::__SendMarkIDXList, COMDAT
; _this$ = ecx

; 294  : {

  00000	55		 push	 ebp
  00001	8b ec		 mov	 ebp, esp
  00003	51		 push	 ecx

; 295  : 	TPacketCGMarkIDXList kPacketMarkIDXList;
; 296  : 	kPacketMarkIDXList.header = HEADER_CG_MARK_IDXLIST;
; 297  : 	if (!Send(sizeof(kPacketMarkIDXList), &kPacketMarkIDXList))

  00004	8d 45 ff	 lea	 eax, DWORD PTR _kPacketMarkIDXList$[ebp]
  00007	c6 45 ff 68	 mov	 BYTE PTR _kPacketMarkIDXList$[ebp], 104 ; 00000068H
  0000b	50		 push	 eax
  0000c	6a 01		 push	 1
  0000e	e8 00 00 00 00	 call	 ?Send@CNetworkStream@@QAE_NHPBX@Z ; CNetworkStream::Send
  00013	84 c0		 test	 al, al
  00015	0f 95 c0	 setne	 al

; 298  : 		return false;
; 299  : 
; 300  : 	return true;
; 301  : }

  00018	8b e5		 mov	 esp, ebp
  0001a	5d		 pop	 ebp
  0001b	c3		 ret	 0
?__SendMarkIDXList@CGuildMarkDownloader@@AAE_NXZ ENDP	; CGuildMarkDownloader::__SendMarkIDXList
_TEXT	ENDS
; Function compile flags: /Ogtp
; File D:\_m2work\txoko-m2-work\txoko-client-src\source\UserInterface\GuildMarkDownloader.cpp
;	COMDAT ?__LoginState_RecvMarkIndex@CGuildMarkDownloader@@AAE_NXZ
_TEXT	SEGMENT
_kPacketMarkIndex$ = -16				; size = 7
_guildID$ = -8						; size = 2
_markID$ = -4						; size = 2
?__LoginState_RecvMarkIndex@CGuildMarkDownloader@@AAE_NXZ PROC ; CGuildMarkDownloader::__LoginState_RecvMarkIndex, COMDAT
; _this$ = ecx

; 304  : {

  00000	55		 push	 ebp
  00001	8b ec		 mov	 ebp, esp
  00003	83 ec 10	 sub	 esp, 16			; 00000010H

; 305  : 	TPacketGCMarkIDXList kPacketMarkIndex;
; 306  : 
; 307  : 	if (!Peek(sizeof(kPacketMarkIndex), &kPacketMarkIndex))

  00006	8d 45 f0	 lea	 eax, DWORD PTR _kPacketMarkIndex$[ebp]
  00009	56		 push	 esi
  0000a	57		 push	 edi
  0000b	50		 push	 eax
  0000c	6a 07		 push	 7
  0000e	8b f1		 mov	 esi, ecx
  00010	e8 00 00 00 00	 call	 ?Peek@CNetworkStream@@QAE_NHPAX@Z ; CNetworkStream::Peek
  00015	84 c0		 test	 al, al
  00017	0f 84 7c 00 00
	00		 je	 $LN14@LoginState

; 308  : 		return false;
; 309  : 
; 310  : 	//DWORD bufSize = sizeof(WORD) * 2 * kPacketMarkIndex.count;
; 311  : 
; 312  : 	if (!Peek(kPacketMarkIndex.bufSize))

  0001d	ff 75 f1	 push	 DWORD PTR _kPacketMarkIndex$[ebp+1]
  00020	8b ce		 mov	 ecx, esi
  00022	e8 00 00 00 00	 call	 ?Peek@CNetworkStream@@QAE_NH@Z ; CNetworkStream::Peek
  00027	84 c0		 test	 al, al
  00029	74 6e		 je	 SHORT $LN14@LoginState

; 313  : 		return false;
; 314  : 
; 315  : 	Recv(sizeof(kPacketMarkIndex));

  0002b	6a 07		 push	 7
  0002d	8b ce		 mov	 ecx, esi
  0002f	e8 00 00 00 00	 call	 ?Recv@CNetworkStream@@QAE_NH@Z ; CNetworkStream::Recv

; 316  : 
; 317  : 	WORD guildID, markID;
; 318  : 
; 319  : 	for (DWORD i = 0; i < kPacketMarkIndex.count; ++i)

  00034	33 c0		 xor	 eax, eax
  00036	33 ff		 xor	 edi, edi
  00038	66 3b 45 f5	 cmp	 ax, WORD PTR _kPacketMarkIndex$[ebp+5]
  0003c	73 3a		 jae	 SHORT $LN3@LoginState
  0003e	66 90		 npad	 2
$LL4@LoginState:

; 320  : 	{
; 321  : 		Recv(sizeof(WORD), &guildID);

  00040	8d 45 f8	 lea	 eax, DWORD PTR _guildID$[ebp]
  00043	8b ce		 mov	 ecx, esi
  00045	50		 push	 eax
  00046	6a 02		 push	 2
  00048	e8 00 00 00 00	 call	 ?Recv@CNetworkStream@@QAE_NHPAX@Z ; CNetworkStream::Recv

; 322  : 		Recv(sizeof(WORD), &markID);

  0004d	8d 45 fc	 lea	 eax, DWORD PTR _markID$[ebp]
  00050	8b ce		 mov	 ecx, esi
  00052	50		 push	 eax
  00053	6a 02		 push	 2
  00055	e8 00 00 00 00	 call	 ?Recv@CNetworkStream@@QAE_NHPAX@Z ; CNetworkStream::Recv

; 323  : 
; 324  : 		// ID -> ID  
; 325  : 		CGuildMarkManager::Instance().AddMarkIDByGuildID(guildID, markID);

  0005a	0f b7 45 fc	 movzx	 eax, WORD PTR _markID$[ebp]
  0005e	8b 0d 00 00 00
	00		 mov	 ecx, DWORD PTR ?ms_singleton@?$singleton@VCGuildMarkManager@@@@0PAVCGuildMarkManager@@A ; singleton<CGuildMarkManager>::ms_singleton
  00064	50		 push	 eax
  00065	0f b7 45 f8	 movzx	 eax, WORD PTR _guildID$[ebp]
  00069	50		 push	 eax
  0006a	e8 00 00 00 00	 call	 ?AddMarkIDByGuildID@CGuildMarkManager@@QAE_NKK@Z ; CGuildMarkManager::AddMarkIDByGuildID
  0006f	0f b7 45 f5	 movzx	 eax, WORD PTR _kPacketMarkIndex$[ebp+5]
  00073	47		 inc	 edi
  00074	3b f8		 cmp	 edi, eax
  00076	72 c8		 jb	 SHORT $LL4@LoginState
$LN3@LoginState:

; 326  : 	}
; 327  : 
; 328  : 	//     . (  )
; 329  : 	CGuildMarkManager::Instance().LoadMarkImages();

  00078	8b 0d 00 00 00
	00		 mov	 ecx, DWORD PTR ?ms_singleton@?$singleton@VCGuildMarkManager@@@@0PAVCGuildMarkManager@@A ; singleton<CGuildMarkManager>::ms_singleton
  0007e	e8 00 00 00 00	 call	 ?LoadMarkImages@CGuildMarkManager@@QAEXXZ ; CGuildMarkManager::LoadMarkImages

; 330  : 
; 331  : 	m_currentRequestingImageIndex = 0;
; 332  : 	__SendMarkCRCList();

  00083	8b ce		 mov	 ecx, esi
  00085	c6 86 9c 00 00
	00 00		 mov	 BYTE PTR [esi+156], 0
  0008c	e8 00 00 00 00	 call	 ?__SendMarkCRCList@CGuildMarkDownloader@@AAE_NXZ ; CGuildMarkDownloader::__SendMarkCRCList

; 333  : 	return true;

  00091	b0 01		 mov	 al, 1

; 334  : }

  00093	5f		 pop	 edi
  00094	5e		 pop	 esi
  00095	8b e5		 mov	 esp, ebp
  00097	5d		 pop	 ebp
  00098	c3		 ret	 0
$LN14@LoginState:
  00099	5f		 pop	 edi
  0009a	32 c0		 xor	 al, al
  0009c	5e		 pop	 esi
  0009d	8b e5		 mov	 esp, ebp
  0009f	5d		 pop	 ebp
  000a0	c3		 ret	 0
?__LoginState_RecvMarkIndex@CGuildMarkDownloader@@AAE_NXZ ENDP ; CGuildMarkDownloader::__LoginState_RecvMarkIndex
_TEXT	ENDS
; Function compile flags: /Ogtp
; File D:\_m2work\txoko-m2-work\txoko-client-src\source\UserInterface\GuildMarkDownloader.cpp
;	COMDAT ?__SendMarkCRCList@CGuildMarkDownloader@@AAE_NXZ
_TEXT	SEGMENT
_kPacketMarkCRCList$ = -336				; size = 322
__$ArrayPad$ = -4					; size = 4
?__SendMarkCRCList@CGuildMarkDownloader@@AAE_NXZ PROC	; CGuildMarkDownloader::__SendMarkCRCList, COMDAT
; _this$ = ecx

; 337  : {

  00000	55		 push	 ebp
  00001	8b ec		 mov	 ebp, esp
  00003	81 ec 54 01 00
	00		 sub	 esp, 340		; 00000154H
  00009	a1 00 00 00 00	 mov	 eax, DWORD PTR ___security_cookie
  0000e	33 c5		 xor	 eax, ebp
  00010	89 45 fc	 mov	 DWORD PTR __$ArrayPad$[ebp], eax
  00013	56		 push	 esi
  00014	8b f1		 mov	 esi, ecx

; 338  : 	TPacketCGMarkCRCList kPacketMarkCRCList;
; 339  : 
; 340  : 	if (!CGuildMarkManager::Instance().GetBlockCRCList(m_currentRequestingImageIndex, kPacketMarkCRCList.crclist))

  00016	8d 8d b2 fe ff
	ff		 lea	 ecx, DWORD PTR _kPacketMarkCRCList$[ebp+2]
  0001c	51		 push	 ecx
  0001d	8b 0d 00 00 00
	00		 mov	 ecx, DWORD PTR ?ms_singleton@?$singleton@VCGuildMarkManager@@@@0PAVCGuildMarkManager@@A ; singleton<CGuildMarkManager>::ms_singleton
  00023	0f b6 86 9c 00
	00 00		 movzx	 eax, BYTE PTR [esi+156]
  0002a	50		 push	 eax
  0002b	e8 00 00 00 00	 call	 ?GetBlockCRCList@CGuildMarkManager@@QAE_NKPAK@Z ; CGuildMarkManager::GetBlockCRCList
  00030	8b ce		 mov	 ecx, esi
  00032	84 c0		 test	 al, al
  00034	75 16		 jne	 SHORT $LN2@SendMarkCR

; 341  : 		__CompleteState_Set();

  00036	e8 00 00 00 00	 call	 ?__CompleteState_Set@CGuildMarkDownloader@@AAEXXZ ; CGuildMarkDownloader::__CompleteState_Set

; 349  : 			return false;
; 350  : 	}
; 351  : 	return true;

  0003b	b0 01		 mov	 al, 1

; 352  : }

  0003d	5e		 pop	 esi
  0003e	8b 4d fc	 mov	 ecx, DWORD PTR __$ArrayPad$[ebp]
  00041	33 cd		 xor	 ecx, ebp
  00043	e8 00 00 00 00	 call	 @__security_check_cookie@4
  00048	8b e5		 mov	 esp, ebp
  0004a	5d		 pop	 ebp
  0004b	c3		 ret	 0
$LN2@SendMarkCR:

; 342  : 	else
; 343  : 	{
; 344  : 		kPacketMarkCRCList.header = HEADER_CG_MARK_CRCLIST;
; 345  : 		kPacketMarkCRCList.imgIdx = m_currentRequestingImageIndex;

  0004c	8a 86 9c 00 00
	00		 mov	 al, BYTE PTR [esi+156]
  00052	88 85 b1 fe ff
	ff		 mov	 BYTE PTR _kPacketMarkCRCList$[ebp+1], al

; 346  : 		++m_currentRequestingImageIndex;

  00058	fe c0		 inc	 al
  0005a	88 86 9c 00 00
	00		 mov	 BYTE PTR [esi+156], al

; 347  : 
; 348  : 		if (!Send(sizeof(kPacketMarkCRCList), &kPacketMarkCRCList))

  00060	8d 85 b0 fe ff
	ff		 lea	 eax, DWORD PTR _kPacketMarkCRCList$[ebp]
  00066	50		 push	 eax
  00067	68 42 01 00 00	 push	 322			; 00000142H
  0006c	c6 85 b0 fe ff
	ff 65		 mov	 BYTE PTR _kPacketMarkCRCList$[ebp], 101 ; 00000065H
  00073	e8 00 00 00 00	 call	 ?Send@CNetworkStream@@QAE_NHPBX@Z ; CNetworkStream::Send

; 352  : }

  00078	8b 4d fc	 mov	 ecx, DWORD PTR __$ArrayPad$[ebp]
  0007b	84 c0		 test	 al, al
  0007d	5e		 pop	 esi
  0007e	0f 95 c0	 setne	 al
  00081	33 cd		 xor	 ecx, ebp
  00083	e8 00 00 00 00	 call	 @__security_check_cookie@4
  00088	8b e5		 mov	 esp, ebp
  0008a	5d		 pop	 ebp
  0008b	c3		 ret	 0
?__SendMarkCRCList@CGuildMarkDownloader@@AAE_NXZ ENDP	; CGuildMarkDownloader::__SendMarkCRCList
_TEXT	ENDS
; Function compile flags: /Ogtp
; File D:\_m2work\txoko-m2-work\txoko-client-src\source\UserInterface\GuildMarkDownloader.cpp
; File C:\Program Files\Microsoft Visual Studio\2022\Community\VC\Tools\MSVC\14.44.35207\include\xstring
; File D:\_m2work\txoko-m2-work\txoko-client-src\source\UserInterface\GuildMarkDownloader.cpp
; File C:\Program Files\Microsoft Visual Studio\2022\Community\VC\Tools\MSVC\14.44.35207\include\xstring
; File D:\_m2work\txoko-m2-work\txoko-client-src\source\UserInterface\GuildMarkDownloader.cpp
; File C:\Program Files\Microsoft Visual Studio\2022\Community\VC\Tools\MSVC\14.44.35207\include\xstring
; File D:\_m2work\txoko-m2-work\txoko-client-src\source\UserInterface\GuildMarkDownloader.cpp
; File C:\Program Files\Microsoft Visual Studio\2022\Community\VC\Tools\MSVC\14.44.35207\include\xstring
; File C:\Program Files\Microsoft Visual Studio\2022\Community\VC\Tools\MSVC\14.44.35207\include\xmemory
; File C:\Program Files\Microsoft Visual Studio\2022\Community\VC\Tools\MSVC\14.44.35207\include\xstring
; File C:\Program Files\Microsoft Visual Studio\2022\Community\VC\Tools\MSVC\14.44.35207\include\xmemory
; File C:\Program Files\Microsoft Visual Studio\2022\Community\VC\Tools\MSVC\14.44.35207\include\xstring
; File D:\_m2work\txoko-m2-work\txoko-client-src\source\UserInterface\GuildMarkDownloader.cpp
; File C:\Program Files\Microsoft Visual Studio\2022\Community\VC\Tools\MSVC\14.44.35207\include\xmemory
; File D:\_m2work\txoko-m2-work\txoko-client-src\source\UserInterface\GuildMarkDownloader.cpp
;	COMDAT ?__LoginState_RecvMarkBlock@CGuildMarkDownloader@@AAE_NXZ
_TEXT	SEGMENT
_compSize$ = -13196					; size = 4
_posBlock$ = -13189					; size = 1
_imagePath$2 = -13188					; size = 24
_kPacket$ = -13164					; size = 10
_compBuf$ = -13152					; size = 13123
__$ArrayPad$ = -20					; size = 4
__$EHRec$ = -12						; size = 12
?__LoginState_RecvMarkBlock@CGuildMarkDownloader@@AAE_NXZ PROC ; CGuildMarkDownloader::__LoginState_RecvMarkBlock, COMDAT
; _this$ = ecx

; 355  : {

  00000	53		 push	 ebx
  00001	8b dc		 mov	 ebx, esp
  00003	83 ec 08	 sub	 esp, 8
  00006	83 e4 f8	 and	 esp, -8			; fffffff8H
  00009	83 c4 04	 add	 esp, 4
  0000c	55		 push	 ebp
  0000d	8b 6b 04	 mov	 ebp, DWORD PTR [ebx+4]
  00010	89 6c 24 04	 mov	 DWORD PTR [esp+4], ebp
  00014	8b ec		 mov	 ebp, esp
  00016	6a ff		 push	 -1
  00018	68 00 00 00 00	 push	 __ehhandler$?__LoginState_RecvMarkBlock@CGuildMarkDownloader@@AAE_NXZ
  0001d	64 a1 00 00 00
	00		 mov	 eax, DWORD PTR fs:0
  00023	50		 push	 eax
  00024	53		 push	 ebx
  00025	b8 80 33 00 00	 mov	 eax, 13184		; 00003380H
  0002a	e8 00 00 00 00	 call	 __chkstk
  0002f	a1 00 00 00 00	 mov	 eax, DWORD PTR ___security_cookie
  00034	33 c5		 xor	 eax, ebp
  00036	89 45 ec	 mov	 DWORD PTR __$ArrayPad$[ebp], eax
  00039	56		 push	 esi
  0003a	57		 push	 edi
  0003b	50		 push	 eax
  0003c	8d 45 f4	 lea	 eax, DWORD PTR __$EHRec$[ebp]
  0003f	64 a3 00 00 00
	00		 mov	 DWORD PTR fs:0, eax
  00045	8b f1		 mov	 esi, ecx

; 356  : 	TPacketGCMarkBlock kPacket;
; 357  : 
; 358  : 	if (!Peek(sizeof(kPacket), &kPacket))

  00047	8d 85 94 cc ff
	ff		 lea	 eax, DWORD PTR _kPacket$[ebp]
  0004d	50		 push	 eax
  0004e	6a 0a		 push	 10			; 0000000aH
  00050	e8 00 00 00 00	 call	 ?Peek@CNetworkStream@@QAE_NHPAX@Z ; CNetworkStream::Peek
  00055	84 c0		 test	 al, al
  00057	0f 84 e3 01 00
	00		 je	 $LN85@LoginState

; 359  : 		return false;
; 360  : 
; 361  : 	if (!Peek(kPacket.bufSize))

  0005d	ff b5 95 cc ff
	ff		 push	 DWORD PTR _kPacket$[ebp+1]
  00063	8b ce		 mov	 ecx, esi
  00065	e8 00 00 00 00	 call	 ?Peek@CNetworkStream@@QAE_NH@Z ; CNetworkStream::Peek
  0006a	84 c0		 test	 al, al
  0006c	0f 84 ce 01 00
	00		 je	 $LN85@LoginState

; 363  : 
; 364  : 	Recv(sizeof(kPacket));

  00072	6a 0a		 push	 10			; 0000000aH
  00074	8b ce		 mov	 ecx, esi
  00076	e8 00 00 00 00	 call	 ?Recv@CNetworkStream@@QAE_NH@Z ; CNetworkStream::Recv

; 365  : 
; 366  : 	BYTE posBlock;
; 367  : 	DWORD compSize;
; 368  : 	char compBuf[SGuildMarkBlock::MAX_COMP_SIZE];
; 369  : 
; 370  : 	for (DWORD i = 0; i < kPacket.count; ++i)

  0007b	33 ff		 xor	 edi, edi
  0007d	39 bd 9a cc ff
	ff		 cmp	 DWORD PTR _kPacket$[ebp+6], edi
  00083	0f 86 8d 01 00
	00		 jbe	 $LN55@LoginState
  00089	0f 1f 80 00 00
	00 00		 npad	 7
$LL4@LoginState:

; 371  : 	{
; 372  : 		Recv(sizeof(BYTE), &posBlock);

  00090	8d 85 7b cc ff
	ff		 lea	 eax, DWORD PTR _posBlock$[ebp]
  00096	8b ce		 mov	 ecx, esi
  00098	50		 push	 eax
  00099	6a 01		 push	 1
  0009b	e8 00 00 00 00	 call	 ?Recv@CNetworkStream@@QAE_NHPAX@Z ; CNetworkStream::Recv

; 373  : 		Recv(sizeof(DWORD), &compSize);

  000a0	8d 85 74 cc ff
	ff		 lea	 eax, DWORD PTR _compSize$[ebp]
  000a6	8b ce		 mov	 ecx, esi
  000a8	50		 push	 eax
  000a9	6a 04		 push	 4
  000ab	e8 00 00 00 00	 call	 ?Recv@CNetworkStream@@QAE_NHPAX@Z ; CNetworkStream::Recv

; 374  : 
; 375  : 		if (compSize > SGuildMarkBlock::MAX_COMP_SIZE)

  000b0	8b 85 74 cc ff
	ff		 mov	 eax, DWORD PTR _compSize$[ebp]
  000b6	3d 43 33 00 00	 cmp	 eax, 13123		; 00003343H
  000bb	76 1c		 jbe	 SHORT $LN7@LoginState

; 376  : 		{
; 377  : 			TraceError("RecvMarkBlock: data corrupted");

  000bd	68 00 00 00 00	 push	 OFFSET ??_C@_0BO@LNNOEBDM@RecvMarkBlock?3?5data?5corrupted@
  000c2	e8 00 00 00 00	 call	 ?TraceError@@YAXPBDZZ	; TraceError
  000c7	83 c4 04	 add	 esp, 4

; 378  : 			Recv(compSize);

  000ca	8b ce		 mov	 ecx, esi
  000cc	ff b5 74 cc ff
	ff		 push	 DWORD PTR _compSize$[ebp]
  000d2	e8 00 00 00 00	 call	 ?Recv@CNetworkStream@@QAE_NH@Z ; CNetworkStream::Recv

; 379  : 		}

  000d7	eb 37		 jmp	 SHORT $LN2@LoginState
$LN7@LoginState:

; 380  : 		else
; 381  : 		{
; 382  : 			Recv(compSize, compBuf);

  000d9	8d 8d a0 cc ff
	ff		 lea	 ecx, DWORD PTR _compBuf$[ebp]
  000df	51		 push	 ecx
  000e0	50		 push	 eax
  000e1	8b ce		 mov	 ecx, esi
  000e3	e8 00 00 00 00	 call	 ?Recv@CNetworkStream@@QAE_NHPAD@Z ; CNetworkStream::Recv

; 383  : 			//    . CRC    .
; 384  : 			CGuildMarkManager::Instance().SaveBlockFromCompressedData(kPacket.imgIdx, posBlock, (const BYTE *) compBuf, compSize);

  000e8	ff b5 74 cc ff
	ff		 push	 DWORD PTR _compSize$[ebp]
  000ee	0f b6 85 7b cc
	ff ff		 movzx	 eax, BYTE PTR _posBlock$[ebp]
  000f5	8d 8d a0 cc ff
	ff		 lea	 ecx, DWORD PTR _compBuf$[ebp]
  000fb	51		 push	 ecx
  000fc	8b 0d 00 00 00
	00		 mov	 ecx, DWORD PTR ?ms_singleton@?$singleton@VCGuildMarkManager@@@@0PAVCGuildMarkManager@@A ; singleton<CGuildMarkManager>::ms_singleton
  00102	50		 push	 eax
  00103	0f b6 85 99 cc
	ff ff		 movzx	 eax, BYTE PTR _kPacket$[ebp+5]
  0010a	50		 push	 eax
  0010b	e8 00 00 00 00	 call	 ?SaveBlockFromCompressedData@CGuildMarkManager@@QAE_NKKPBEK@Z ; CGuildMarkManager::SaveBlockFromCompressedData
$LN2@LoginState:

; 365  : 
; 366  : 	BYTE posBlock;
; 367  : 	DWORD compSize;
; 368  : 	char compBuf[SGuildMarkBlock::MAX_COMP_SIZE];
; 369  : 
; 370  : 	for (DWORD i = 0; i < kPacket.count; ++i)

  00110	8b 85 9a cc ff
	ff		 mov	 eax, DWORD PTR _kPacket$[ebp+6]
  00116	47		 inc	 edi
  00117	3b f8		 cmp	 edi, eax
  00119	0f 82 71 ff ff
	ff		 jb	 $LL4@LoginState

; 385  : 		}
; 386  : 	}
; 387  : 
; 388  : 	if (kPacket.count > 0)

  0011f	85 c0		 test	 eax, eax
  00121	0f 84 ef 00 00
	00		 je	 $LN55@LoginState

; 389  : 	{
; 390  : 		//   
; 391  : 		CGuildMarkManager::Instance().SaveMarkImage(kPacket.imgIdx);

  00127	0f b6 85 99 cc
	ff ff		 movzx	 eax, BYTE PTR _kPacket$[ebp+5]
  0012e	8b 0d 00 00 00
	00		 mov	 ecx, DWORD PTR ?ms_singleton@?$singleton@VCGuildMarkManager@@@@0PAVCGuildMarkManager@@A ; singleton<CGuildMarkManager>::ms_singleton
  00134	50		 push	 eax
  00135	e8 00 00 00 00	 call	 ?SaveMarkImage@CGuildMarkManager@@QAEXK@Z ; CGuildMarkManager::SaveMarkImage
  0013a	0f 57 c0	 xorps	 xmm0, xmm0
; File C:\Program Files\Microsoft Visual Studio\2022\Community\VC\Tools\MSVC\14.44.35207\include\xstring

; 860  :         _My_data._Mysize = 0;

  0013d	c7 85 8c cc ff
	ff 00 00 00 00	 mov	 DWORD PTR _imagePath$2[ebp+16], 0

; 493  :         _CONSTEXPR20 _Bxty() noexcept : _Buf() {} // user-provided, for fancy pointers

  00147	0f 11 85 7c cc
	ff ff		 movups	 XMMWORD PTR _imagePath$2[ebp], xmm0

; 861  :         _My_data._Myres  = _Small_string_capacity;

  0014e	c7 85 90 cc ff
	ff 0f 00 00 00	 mov	 DWORD PTR _imagePath$2[ebp+20], 15 ; 0000000fH

; 862  :         _My_data._Activate_SSO_buffer();
; 863  : 
; 864  :         // the _Traits::assign is last so the codegen doesn't think the char write can alias this
; 865  :         _Traits::assign(_My_data._Bx._Buf[0], _Elem());

  00158	c6 85 7c cc ff
	ff 00		 mov	 BYTE PTR _imagePath$2[ebp], 0
; File D:\_m2work\txoko-m2-work\txoko-client-src\source\UserInterface\GuildMarkDownloader.cpp

; 396  : 		if (CGuildMarkManager::Instance().GetMarkImageFilename(kPacket.imgIdx, imagePath))

  0015f	8d 85 7c cc ff
	ff		 lea	 eax, DWORD PTR _imagePath$2[ebp]
  00165	c7 45 fc 00 00
	00 00		 mov	 DWORD PTR __$EHRec$[ebp+8], 0
  0016c	8b 0d 00 00 00
	00		 mov	 ecx, DWORD PTR ?ms_singleton@?$singleton@VCGuildMarkManager@@@@0PAVCGuildMarkManager@@A ; singleton<CGuildMarkManager>::ms_singleton
  00172	50		 push	 eax
  00173	0f b6 85 99 cc
	ff ff		 movzx	 eax, BYTE PTR _kPacket$[ebp+5]
  0017a	50		 push	 eax
  0017b	e8 00 00 00 00	 call	 ?GetMarkImageFilename@CGuildMarkManager@@QBE_NKAAV?$basic_string@DU?$char_traits@D@std@@V?$allocator@D@2@@std@@@Z ; CGuildMarkManager::GetMarkImageFilename
  00180	84 c0		 test	 al, al
  00182	74 3a		 je	 SHORT $LN11@LoginState
; File C:\Program Files\Microsoft Visual Studio\2022\Community\VC\Tools\MSVC\14.44.35207\include\xstring

; 453  :         return _Myres > _Small_string_capacity;

  00184	83 bd 90 cc ff
	ff 0f		 cmp	 DWORD PTR _imagePath$2[ebp+20], 15 ; 0000000fH

; 444  :         const value_type* _Result = _Bx._Buf;

  0018b	8d 85 7c cc ff
	ff		 lea	 eax, DWORD PTR _imagePath$2[ebp]
; File D:\_m2work\txoko-m2-work\txoko-client-src\source\UserInterface\GuildMarkDownloader.cpp

; 398  : 			CResource * pResource = CResourceManager::Instance().GetResourcePointer(imagePath.c_str());

  00191	8b 0d 00 00 00
	00		 mov	 ecx, DWORD PTR ?ms_singleton@?$CSingleton@VCResourceManager@@@@0PAVCResourceManager@@A ; CSingleton<CResourceManager>::ms_singleton
; File C:\Program Files\Microsoft Visual Studio\2022\Community\VC\Tools\MSVC\14.44.35207\include\xstring

; 445  :         if (_Large_mode_engaged()) {

  00197	0f 47 85 7c cc
	ff ff		 cmova	 eax, DWORD PTR _imagePath$2[ebp]
; File D:\_m2work\txoko-m2-work\txoko-client-src\source\UserInterface\GuildMarkDownloader.cpp

; 398  : 			CResource * pResource = CResourceManager::Instance().GetResourcePointer(imagePath.c_str());

  0019e	50		 push	 eax
  0019f	e8 00 00 00 00	 call	 ?GetResourcePointer@CResourceManager@@QAEPAVCResource@@PBD@Z ; CResourceManager::GetResourcePointer
  001a4	8b f8		 mov	 edi, eax

; 399  : 			if (pResource->IsType(CGraphicImage::Type()))

  001a6	e8 00 00 00 00	 call	 ?Type@CGraphicImage@@SAKXZ ; CGraphicImage::Type
  001ab	50		 push	 eax
  001ac	8b cf		 mov	 ecx, edi
  001ae	e8 00 00 00 00	 call	 ?IsType@CResource@@QAE_NK@Z ; CResource::IsType
  001b3	84 c0		 test	 al, al
  001b5	74 07		 je	 SHORT $LN11@LoginState

; 400  : 			{
; 401  : 				CGraphicImage* pkGrpImg=static_cast<CGraphicImage*>(pResource);
; 402  : 				pkGrpImg->Reload();

  001b7	8b cf		 mov	 ecx, edi
  001b9	e8 00 00 00 00	 call	 ?Reload@CResource@@QAEXXZ ; CResource::Reload
$LN11@LoginState:

; 403  : 			}
; 404  : 		}
; 405  : 	}

  001be	c7 45 fc ff ff
	ff ff		 mov	 DWORD PTR __$EHRec$[ebp+8], -1
; File C:\Program Files\Microsoft Visual Studio\2022\Community\VC\Tools\MSVC\14.44.35207\include\xstring

; 453  :         return _Myres > _Small_string_capacity;

  001c5	8b 8d 90 cc ff
	ff		 mov	 ecx, DWORD PTR _imagePath$2[ebp+20]
  001cb	83 f9 0f	 cmp	 ecx, 15			; 0000000fH

; 3083 :         if (_My_data._Large_mode_engaged()) {

  001ce	76 2b		 jbe	 SHORT $LN66@LoginState
; File C:\Program Files\Microsoft Visual Studio\2022\Community\VC\Tools\MSVC\14.44.35207\include\xmemory

; 985  :         _STD _Deallocate<_New_alignof<_Ty>>(_Ptr, sizeof(_Ty) * _Count);

  001d0	8b 95 7c cc ff
	ff		 mov	 edx, DWORD PTR _imagePath$2[ebp]
; File C:\Program Files\Microsoft Visual Studio\2022\Community\VC\Tools\MSVC\14.44.35207\include\xstring

; 852  :         _Al.deallocate(_Old_ptr, _Capacity + 1); // +1 for null terminator

  001d6	41		 inc	 ecx
; File C:\Program Files\Microsoft Visual Studio\2022\Community\VC\Tools\MSVC\14.44.35207\include\xmemory

; 985  :         _STD _Deallocate<_New_alignof<_Ty>>(_Ptr, sizeof(_Ty) * _Count);

  001d7	8b c2		 mov	 eax, edx

; 284  :         if (_Bytes >= _Big_allocation_threshold) {

  001d9	81 f9 00 10 00
	00		 cmp	 ecx, 4096		; 00001000H
  001df	72 10		 jb	 SHORT $LN74@LoginState

; 205  :     const uintptr_t _Ptr_container   = _Ptr_user[-1];

  001e1	8b 50 fc	 mov	 edx, DWORD PTR [eax-4]
  001e4	83 c1 23	 add	 ecx, 35			; 00000023H
  001e7	2b c2		 sub	 eax, edx

; 219  :     _STL_VERIFY(_Back_shift >= _Min_back_shift && _Back_shift <= _Non_user_size, "invalid argument");

  001e9	83 c0 fc	 add	 eax, -4			; fffffffcH
  001ec	83 f8 1f	 cmp	 eax, 31			; 0000001fH
  001ef	77 6f		 ja	 SHORT $LN90@LoginState
$LN74@LoginState:

; 289  :         ::operator delete(_Ptr, _Bytes);

  001f1	51		 push	 ecx
  001f2	52		 push	 edx
  001f3	e8 00 00 00 00	 call	 ??3@YAXPAXI@Z		; operator delete
  001f8	83 c4 08	 add	 esp, 8
$LN66@LoginState:
; File C:\Program Files\Microsoft Visual Studio\2022\Community\VC\Tools\MSVC\14.44.35207\include\xstring

; 3090 :         _My_data._Mysize = 0;

  001fb	c7 85 8c cc ff
	ff 00 00 00 00	 mov	 DWORD PTR _imagePath$2[ebp+16], 0

; 3091 :         _My_data._Myres  = _Small_string_capacity;

  00205	c7 85 90 cc ff
	ff 0f 00 00 00	 mov	 DWORD PTR _imagePath$2[ebp+20], 15 ; 0000000fH

; 3092 :         // the _Traits::assign is last so the codegen doesn't think the char write can alias this
; 3093 :         _Traits::assign(_My_data._Bx._Buf[0], _Elem());

  0020f	c6 85 7c cc ff
	ff 00		 mov	 BYTE PTR _imagePath$2[ebp], 0
$LN55@LoginState:
; File D:\_m2work\txoko-m2-work\txoko-client-src\source\UserInterface\GuildMarkDownloader.cpp

; 408  : 	if (m_currentRequestingImageIndex < CGuildMarkManager::Instance().GetMarkImageCount())

  00216	8b 0d 00 00 00
	00		 mov	 ecx, DWORD PTR ?ms_singleton@?$singleton@VCGuildMarkManager@@@@0PAVCGuildMarkManager@@A ; singleton<CGuildMarkManager>::ms_singleton
  0021c	e8 00 00 00 00	 call	 ?GetMarkImageCount@CGuildMarkManager@@QBEKXZ ; CGuildMarkManager::GetMarkImageCount
  00221	0f b6 96 9c 00
	00 00		 movzx	 edx, BYTE PTR [esi+156]
  00228	8b ce		 mov	 ecx, esi
  0022a	3b d0		 cmp	 edx, eax
  0022c	73 09		 jae	 SHORT $LN12@LoginState

; 409  : 		__SendMarkCRCList();

  0022e	e8 00 00 00 00	 call	 ?__SendMarkCRCList@CGuildMarkDownloader@@AAE_NXZ ; CGuildMarkDownloader::__SendMarkCRCList

; 412  : 
; 413  : 	return true;

  00233	b0 01		 mov	 al, 1
  00235	eb 0b		 jmp	 SHORT $LN1@LoginState
$LN12@LoginState:

; 410  : 	else
; 411  : 		__CompleteState_Set();

  00237	e8 00 00 00 00	 call	 ?__CompleteState_Set@CGuildMarkDownloader@@AAEXXZ ; CGuildMarkDownloader::__CompleteState_Set

; 412  : 
; 413  : 	return true;

  0023c	b0 01		 mov	 al, 1
  0023e	eb 02		 jmp	 SHORT $LN1@LoginState
$LN85@LoginState:

; 362  : 		return false;

  00240	32 c0		 xor	 al, al
$LN1@LoginState:

; 414  : }

  00242	8b 4d f4	 mov	 ecx, DWORD PTR __$EHRec$[ebp]
  00245	64 89 0d 00 00
	00 00		 mov	 DWORD PTR fs:0, ecx
  0024c	59		 pop	 ecx
  0024d	5f		 pop	 edi
  0024e	5e		 pop	 esi
  0024f	8b 4d ec	 mov	 ecx, DWORD PTR __$ArrayPad$[ebp]
  00252	33 cd		 xor	 ecx, ebp
  00254	e8 00 00 00 00	 call	 @__security_check_cookie@4
  00259	8b e5		 mov	 esp, ebp
  0025b	5d		 pop	 ebp
  0025c	8b e3		 mov	 esp, ebx
  0025e	5b		 pop	 ebx
  0025f	c3		 ret	 0
$LN90@LoginState:
; File C:\Program Files\Microsoft Visual Studio\2022\Community\VC\Tools\MSVC\14.44.35207\include\xmemory

; 219  :     _STL_VERIFY(_Back_shift >= _Min_back_shift && _Back_shift <= _Non_user_size, "invalid argument");

  00260	6a 00		 push	 0
  00262	6a 00		 push	 0
  00264	6a 00		 push	 0
  00266	6a 00		 push	 0
  00268	6a 00		 push	 0
  0026a	e8 00 00 00 00	 call	 __invoke_watson
$LN88@LoginState:
  0026f	cc		 int	 3
_TEXT	ENDS
;	COMDAT text$x
text$x	SEGMENT
__unwindfunclet$?__LoginState_RecvMarkBlock@CGuildMarkDownloader@@AAE_NXZ$0:
  00000	8d 8d 7c cc ff
	ff		 lea	 ecx, DWORD PTR _imagePath$2[ebp]
  00006	e9 00 00 00 00	 jmp	 ??1?$basic_string@DU?$char_traits@D@std@@V?$allocator@D@2@@std@@QAE@XZ ; std::basic_string<char,std::char_traits<char>,std::allocator<char> >::~basic_string<char,std::char_traits<char>,std::allocator<char> >
  0000b	cc		 int	 3
  0000c	cc		 int	 3
  0000d	cc		 int	 3
  0000e	cc		 int	 3
  0000f	cc		 int	 3
__ehhandler$?__LoginState_RecvMarkBlock@CGuildMarkDownloader@@AAE_NXZ:
  00010	90		 npad	 1
  00011	90		 npad	 1
  00012	8b 54 24 08	 mov	 edx, DWORD PTR [esp+8]
  00016	8d 42 0c	 lea	 eax, DWORD PTR [edx+12]
  00019	8b 8a 70 cc ff
	ff		 mov	 ecx, DWORD PTR [edx-13200]
  0001f	33 c8		 xor	 ecx, eax
  00021	e8 00 00 00 00	 call	 @__security_check_cookie@4
  00026	8b 4a f8	 mov	 ecx, DWORD PTR [edx-8]
  00029	33 c8		 xor	 ecx, eax
  0002b	e8 00 00 00 00	 call	 @__security_check_cookie@4
  00030	b8 00 00 00 00	 mov	 eax, OFFSET __ehfuncinfo$?__LoginState_RecvMarkBlock@CGuildMarkDownloader@@AAE_NXZ
  00035	e9 00 00 00 00	 jmp	 ___CxxFrameHandler3
text$x	ENDS
?__LoginState_RecvMarkBlock@CGuildMarkDownloader@@AAE_NXZ ENDP ; CGuildMarkDownloader::__LoginState_RecvMarkBlock
; Function compile flags: /Ogtp
; File D:\_m2work\txoko-m2-work\txoko-client-src\source\UserInterface\GuildMarkDownloader.cpp
;	COMDAT ?__LoginState_RecvKeyAgreement@CGuildMarkDownloader@@AAE_NXZ
_TEXT	SEGMENT
_dataLength$ = -536					; size = 4
_packet$ = -532						; size = 261
_packetToSend$ = -268					; size = 261
__$ArrayPad$ = -4					; size = 4
?__LoginState_RecvKeyAgreement@CGuildMarkDownloader@@AAE_NXZ PROC ; CGuildMarkDownloader::__LoginState_RecvKeyAgreement, COMDAT
; _this$ = ecx

; 419  : {

  00000	55		 push	 ebp
  00001	8b ec		 mov	 ebp, esp
  00003	81 ec 18 02 00
	00		 sub	 esp, 536		; 00000218H
  00009	a1 00 00 00 00	 mov	 eax, DWORD PTR ___security_cookie
  0000e	33 c5		 xor	 eax, ebp
  00010	89 45 fc	 mov	 DWORD PTR __$ArrayPad$[ebp], eax
  00013	56		 push	 esi

; 420  : 	TPacketKeyAgreement packet;
; 421  : 	if (!Recv(sizeof(packet), &packet))

  00014	8d 85 ec fd ff
	ff		 lea	 eax, DWORD PTR _packet$[ebp]
  0001a	8b f1		 mov	 esi, ecx
  0001c	50		 push	 eax
  0001d	68 05 01 00 00	 push	 261			; 00000105H
  00022	e8 00 00 00 00	 call	 ?Recv@CNetworkStream@@QAE_NHPAX@Z ; CNetworkStream::Recv
  00027	84 c0		 test	 al, al
  00029	75 0f		 jne	 SHORT $LN2@LoginState
  0002b	5e		 pop	 esi

; 460  : }

  0002c	8b 4d fc	 mov	 ecx, DWORD PTR __$ArrayPad$[ebp]
  0002f	33 cd		 xor	 ecx, ebp
  00031	e8 00 00 00 00	 call	 @__security_check_cookie@4
  00036	8b e5		 mov	 esp, ebp
  00038	5d		 pop	 ebp
  00039	c3		 ret	 0
$LN2@LoginState:

; 422  : 	{
; 423  : 		return false;
; 424  : 	}
; 425  : 
; 426  : 	Tracenf("KEY_AGREEMENT RECV %u", packet.wDataLength);

  0003a	0f b7 85 ef fd
	ff ff		 movzx	 eax, WORD PTR _packet$[ebp+3]
  00041	57		 push	 edi
  00042	50		 push	 eax
  00043	68 00 00 00 00	 push	 OFFSET ??_C@_0BG@BIKAAIDD@KEY_AGREEMENT?5RECV?5?$CFu@
  00048	e8 00 00 00 00	 call	 ?Tracenf@@YAXPBDZZ	; Tracenf
  0004d	83 c4 08	 add	 esp, 8

; 427  : 
; 428  : 	TPacketKeyAgreement packetToSend;
; 429  : 	size_t dataLength = TPacketKeyAgreement::MAX_DATA_LEN;

  00050	c7 85 e8 fd ff
	ff 00 01 00 00	 mov	 DWORD PTR _dataLength$[ebp], 256 ; 00000100H

; 430  : 	size_t agreedLength = Prepare(packetToSend.data, &dataLength);

  0005a	8d 85 e8 fd ff
	ff		 lea	 eax, DWORD PTR _dataLength$[ebp]
  00060	8b ce		 mov	 ecx, esi
  00062	50		 push	 eax
  00063	8d 85 f9 fe ff
	ff		 lea	 eax, DWORD PTR _packetToSend$[ebp+5]
  00069	50		 push	 eax
  0006a	e8 00 00 00 00	 call	 ?Prepare@CNetworkStream@@IAEIPAXPAI@Z ; CNetworkStream::Prepare
  0006f	8b f8		 mov	 edi, eax

; 431  : 	if (agreedLength == 0)

  00071	85 ff		 test	 edi, edi
  00073	0f 84 9b 00 00
	00		 je	 $LN4@LoginState

; 432  : 	{
; 433  : 		//  
; 434  : 		Disconnect();
; 435  : 		return false;
; 436  : 	}
; 437  : 	assert(dataLength <= TPacketKeyAgreement::MAX_DATA_LEN);
; 438  : 
; 439  : 	if (Activate(packet.wAgreedLength, packet.data, packet.wDataLength))

  00079	0f b7 8d ef fd
	ff ff		 movzx	 ecx, WORD PTR _packet$[ebp+3]
  00080	8d 85 f1 fd ff
	ff		 lea	 eax, DWORD PTR _packet$[ebp+5]
  00086	51		 push	 ecx
  00087	0f b7 8d ed fd
	ff ff		 movzx	 ecx, WORD PTR _packet$[ebp+1]
  0008e	50		 push	 eax
  0008f	51		 push	 ecx
  00090	8b ce		 mov	 ecx, esi
  00092	e8 00 00 00 00	 call	 ?Activate@CNetworkStream@@IAE_NIPBXI@Z ; CNetworkStream::Activate
  00097	84 c0		 test	 al, al
  00099	74 79		 je	 SHORT $LN4@LoginState

; 440  : 	{
; 441  : 		// Key agreement ,  
; 442  : 		packetToSend.bHeader = HEADER_CG_KEY_AGREEMENT;
; 443  : 		packetToSend.wAgreedLength = (WORD)agreedLength;
; 444  : 		packetToSend.wDataLength = (WORD)dataLength;

  0009b	66 8b 85 e8 fd
	ff ff		 mov	 ax, WORD PTR _dataLength$[ebp]

; 445  : 
; 446  : 		if (!Send(sizeof(packetToSend), &packetToSend))

  000a2	8b ce		 mov	 ecx, esi
  000a4	66 89 85 f7 fe
	ff ff		 mov	 WORD PTR _packetToSend$[ebp+3], ax
  000ab	8d 85 f4 fe ff
	ff		 lea	 eax, DWORD PTR _packetToSend$[ebp]
  000b1	50		 push	 eax
  000b2	68 05 01 00 00	 push	 261			; 00000105H
  000b7	c6 85 f4 fe ff
	ff fb		 mov	 BYTE PTR _packetToSend$[ebp], 251 ; 000000fbH
  000be	66 89 bd f5 fe
	ff ff		 mov	 WORD PTR _packetToSend$[ebp+1], di
  000c5	e8 00 00 00 00	 call	 ?Send@CNetworkStream@@QAE_NHPBX@Z ; CNetworkStream::Send
  000ca	84 c0		 test	 al, al
  000cc	75 1f		 jne	 SHORT $LN6@LoginState

; 447  : 		{
; 448  : 			Tracen(" CAccountConnector::__AuthState_RecvKeyAgreement - SendKeyAgreement Error");

  000ce	68 00 00 00 00	 push	 OFFSET ??_C@_0EK@DCNAEAA@?5CAccountConnector?3?3__AuthState@
  000d3	e8 00 00 00 00	 call	 ?Tracen@@YAXPBD@Z	; Tracen
  000d8	83 c4 04	 add	 esp, 4

; 457  : 		return false;

  000db	32 c0		 xor	 al, al
  000dd	5f		 pop	 edi
  000de	5e		 pop	 esi

; 460  : }

  000df	8b 4d fc	 mov	 ecx, DWORD PTR __$ArrayPad$[ebp]
  000e2	33 cd		 xor	 ecx, ebp
  000e4	e8 00 00 00 00	 call	 @__security_check_cookie@4
  000e9	8b e5		 mov	 esp, ebp
  000eb	5d		 pop	 ebp
  000ec	c3		 ret	 0
$LN6@LoginState:

; 449  : 			return false;
; 450  : 		}
; 451  : 		Tracenf("KEY_AGREEMENT SEND %u", packetToSend.wDataLength);

  000ed	0f b7 85 f7 fe
	ff ff		 movzx	 eax, WORD PTR _packetToSend$[ebp+3]
  000f4	50		 push	 eax
  000f5	68 00 00 00 00	 push	 OFFSET ??_C@_0BG@HCLENPJB@KEY_AGREEMENT?5SEND?5?$CFu@
  000fa	e8 00 00 00 00	 call	 ?Tracenf@@YAXPBDZZ	; Tracenf
  000ff	83 c4 08	 add	 esp, 8

; 458  : 	}
; 459  : 	return true;

  00102	b0 01		 mov	 al, 1
  00104	5f		 pop	 edi
  00105	5e		 pop	 esi

; 460  : }

  00106	8b 4d fc	 mov	 ecx, DWORD PTR __$ArrayPad$[ebp]
  00109	33 cd		 xor	 ecx, ebp
  0010b	e8 00 00 00 00	 call	 @__security_check_cookie@4
  00110	8b e5		 mov	 esp, ebp
  00112	5d		 pop	 ebp
  00113	c3		 ret	 0
$LN4@LoginState:

; 452  : 	}
; 453  : 	else
; 454  : 	{
; 455  : 		//   
; 456  : 		Disconnect();

  00114	8b ce		 mov	 ecx, esi
  00116	e8 00 00 00 00	 call	 ?Disconnect@CNetworkStream@@QAEXXZ ; CNetworkStream::Disconnect

; 460  : }

  0011b	8b 4d fc	 mov	 ecx, DWORD PTR __$ArrayPad$[ebp]
  0011e	32 c0		 xor	 al, al
  00120	5f		 pop	 edi
  00121	33 cd		 xor	 ecx, ebp
  00123	5e		 pop	 esi
  00124	e8 00 00 00 00	 call	 @__security_check_cookie@4
  00129	8b e5		 mov	 esp, ebp
  0012b	5d		 pop	 ebp
  0012c	c3		 ret	 0
?__LoginState_RecvKeyAgreement@CGuildMarkDownloader@@AAE_NXZ ENDP ; CGuildMarkDownloader::__LoginState_RecvKeyAgreement
_TEXT	ENDS
; Function compile flags: /Ogtp
; File D:\_m2work\txoko-m2-work\txoko-client-src\source\UserInterface\GuildMarkDownloader.cpp
;	COMDAT ?__LoginState_RecvKeyAgreementCompleted@CGuildMarkDownloader@@AAE_NXZ
_TEXT	SEGMENT
_packet$ = -4						; size = 4
?__LoginState_RecvKeyAgreementCompleted@CGuildMarkDownloader@@AAE_NXZ PROC ; CGuildMarkDownloader::__LoginState_RecvKeyAgreementCompleted, COMDAT
; _this$ = ecx

; 463  : {

  00000	55		 push	 ebp
  00001	8b ec		 mov	 ebp, esp
  00003	51		 push	 ecx
  00004	56		 push	 esi

; 464  : 	TPacketKeyAgreementCompleted packet;
; 465  : 	if (!Recv(sizeof(packet), &packet))

  00005	8d 45 fc	 lea	 eax, DWORD PTR _packet$[ebp]
  00008	8b f1		 mov	 esi, ecx
  0000a	50		 push	 eax
  0000b	6a 04		 push	 4
  0000d	e8 00 00 00 00	 call	 ?Recv@CNetworkStream@@QAE_NHPAX@Z ; CNetworkStream::Recv
  00012	84 c0		 test	 al, al
  00014	75 05		 jne	 SHORT $LN2@LoginState
  00016	5e		 pop	 esi

; 475  : }

  00017	8b e5		 mov	 esp, ebp
  00019	5d		 pop	 ebp
  0001a	c3		 ret	 0
$LN2@LoginState:

; 466  : 	{
; 467  : 		return false;
; 468  : 	}
; 469  : 
; 470  : 	Tracenf("KEY_AGREEMENT_COMPLETED RECV");

  0001b	68 00 00 00 00	 push	 OFFSET ??_C@_0BN@EDLJMNFO@KEY_AGREEMENT_COMPLETED?5RECV@
  00020	e8 00 00 00 00	 call	 ?Tracenf@@YAXPBDZZ	; Tracenf
  00025	83 c4 04	 add	 esp, 4

; 471  : 
; 472  : 	ActivateCipher();

  00028	8b ce		 mov	 ecx, esi
  0002a	e8 00 00 00 00	 call	 ?ActivateCipher@CNetworkStream@@IAEXXZ ; CNetworkStream::ActivateCipher

; 473  : 
; 474  : 	return true;

  0002f	b0 01		 mov	 al, 1
  00031	5e		 pop	 esi

; 475  : }

  00032	8b e5		 mov	 esp, ebp
  00034	5d		 pop	 ebp
  00035	c3		 ret	 0
?__LoginState_RecvKeyAgreementCompleted@CGuildMarkDownloader@@AAE_NXZ ENDP ; CGuildMarkDownloader::__LoginState_RecvKeyAgreementCompleted
_TEXT	ENDS
; Function compile flags: /Ogtp
; File D:\_m2work\txoko-m2-work\txoko-client-src\source\UserInterface\GuildMarkDownloader.cpp
; File C:\Program Files\Microsoft Visual Studio\2022\Community\VC\Tools\MSVC\14.44.35207\include\vector
; File D:\_m2work\txoko-m2-work\txoko-client-src\source\UserInterface\GuildMarkDownloader.cpp
; File C:\Program Files\Microsoft Visual Studio\2022\Community\VC\Tools\MSVC\14.44.35207\include\vector
; File D:\_m2work\txoko-m2-work\txoko-client-src\source\UserInterface\GuildMarkDownloader.cpp
; File C:\Program Files\Microsoft Visual Studio\2022\Community\VC\Tools\MSVC\14.44.35207\include\xstring
; File C:\Program Files\Microsoft Visual Studio\2022\Community\VC\Tools\MSVC\14.44.35207\include\__msvc_string_view.hpp
; File C:\Program Files\Microsoft Visual Studio\2022\Community\VC\Tools\MSVC\14.44.35207\include\xstring
; File C:\Program Files\Microsoft Visual Studio\2022\Community\VC\Tools\MSVC\14.44.35207\include\__msvc_string_view.hpp
; File C:\Program Files\Microsoft Visual Studio\2022\Community\VC\Tools\MSVC\14.44.35207\include\xstring
; File D:\_m2work\txoko-m2-work\txoko-client-src\source\UserInterface\GuildMarkDownloader.cpp
; File C:\Program Files\Microsoft Visual Studio\2022\Community\VC\Tools\MSVC\14.44.35207\include\xstring
; File D:\_m2work\txoko-m2-work\txoko-client-src\source\UserInterface\GuildMarkDownloader.cpp
; File C:\Program Files\Microsoft Visual Studio\2022\Community\VC\Tools\MSVC\14.44.35207\include\xstring
; File D:\_m2work\txoko-m2-work\txoko-client-src\source\UserInterface\GuildMarkDownloader.cpp
; File C:\Program Files\Microsoft Visual Studio\2022\Community\VC\Tools\MSVC\14.44.35207\include\xstring
; File D:\_m2work\txoko-m2-work\txoko-client-src\source\UserInterface\GuildMarkDownloader.cpp
; File C:\Program Files\Microsoft Visual Studio\2022\Community\VC\Tools\MSVC\14.44.35207\include\xstring
; File C:\Program Files\Microsoft Visual Studio\2022\Community\VC\Tools\MSVC\14.44.35207\include\xmemory
; File C:\Program Files\Microsoft Visual Studio\2022\Community\VC\Tools\MSVC\14.44.35207\include\xstring
; File C:\Program Files\Microsoft Visual Studio\2022\Community\VC\Tools\MSVC\14.44.35207\include\xmemory
; File C:\Program Files\Microsoft Visual Studio\2022\Community\VC\Tools\MSVC\14.44.35207\include\vector
; File D:\_m2work\txoko-m2-work\txoko-client-src\source\UserInterface\GuildMarkDownloader.cpp
; File C:\Program Files\Microsoft Visual Studio\2022\Community\VC\Tools\MSVC\14.44.35207\include\vector
; File D:\_m2work\txoko-m2-work\txoko-client-src\source\UserInterface\GuildMarkDownloader.cpp
; File C:\Program Files\Microsoft Visual Studio\2022\Community\VC\Tools\MSVC\14.44.35207\include\xstring
; File C:\Program Files\Microsoft Visual Studio\2022\Community\VC\Tools\MSVC\14.44.35207\include\xmemory
; File C:\Program Files\Microsoft Visual Studio\2022\Community\VC\Tools\MSVC\14.44.35207\include\xstring
; File C:\Program Files\Microsoft Visual Studio\2022\Community\VC\Tools\MSVC\14.44.35207\include\xmemory
; File D:\_m2work\txoko-m2-work\txoko-client-src\source\UserInterface\GuildMarkDownloader.cpp
; File C:\Program Files\Microsoft Visual Studio\2022\Community\VC\Tools\MSVC\14.44.35207\include\xmemory
; File D:\_m2work\txoko-m2-work\txoko-client-src\source\UserInterface\GuildMarkDownloader.cpp
;	COMDAT ?__SendSymbolCRCList@CGuildMarkDownloader@@AAE_NXZ
_TEXT	SEGMENT
tv518 = -64						; size = 4
_kSymbolCRCPacket$2 = -60				; size = 13
_strFileName$3 = -44					; size = 24
__$ArrayPad$ = -20					; size = 4
__$EHRec$ = -12						; size = 12
?__SendSymbolCRCList@CGuildMarkDownloader@@AAE_NXZ PROC	; CGuildMarkDownloader::__SendSymbolCRCList, COMDAT
; _this$ = ecx

; 479  : {

  00000	53		 push	 ebx
  00001	8b dc		 mov	 ebx, esp
  00003	83 ec 08	 sub	 esp, 8
  00006	83 e4 f8	 and	 esp, -8			; fffffff8H
  00009	83 c4 04	 add	 esp, 4
  0000c	55		 push	 ebp
  0000d	8b 6b 04	 mov	 ebp, DWORD PTR [ebx+4]
  00010	89 6c 24 04	 mov	 DWORD PTR [esp+4], ebp
  00014	8b ec		 mov	 ebp, esp
  00016	6a ff		 push	 -1
  00018	68 00 00 00 00	 push	 __ehhandler$?__SendSymbolCRCList@CGuildMarkDownloader@@AAE_NXZ
  0001d	64 a1 00 00 00
	00		 mov	 eax, DWORD PTR fs:0
  00023	50		 push	 eax
  00024	53		 push	 ebx
  00025	83 ec 30	 sub	 esp, 48			; 00000030H
  00028	a1 00 00 00 00	 mov	 eax, DWORD PTR ___security_cookie
  0002d	33 c5		 xor	 eax, ebp
  0002f	89 45 ec	 mov	 DWORD PTR __$ArrayPad$[ebp], eax
  00032	56		 push	 esi
  00033	57		 push	 edi
  00034	50		 push	 eax
  00035	8d 45 f4	 lea	 eax, DWORD PTR __$EHRec$[ebp]
  00038	64 a3 00 00 00
	00		 mov	 DWORD PTR fs:0, eax
  0003e	8b f9		 mov	 edi, ecx
; File C:\Program Files\Microsoft Visual Studio\2022\Community\VC\Tools\MSVC\14.44.35207\include\vector

; 1915 :         return static_cast<size_type>(_My_data._Mylast - _My_data._Myfirst);

  00040	8b 87 90 00 00
	00		 mov	 eax, DWORD PTR [edi+144]
; File D:\_m2work\txoko-m2-work\txoko-client-src\source\UserInterface\GuildMarkDownloader.cpp

; 480  : 	for (DWORD i=0; i<m_kVec_dwGuildID.size(); ++i)

  00046	33 f6		 xor	 esi, esi
; File C:\Program Files\Microsoft Visual Studio\2022\Community\VC\Tools\MSVC\14.44.35207\include\vector

; 1915 :         return static_cast<size_type>(_My_data._Mylast - _My_data._Myfirst);

  00048	8b 8f 8c 00 00
	00		 mov	 ecx, DWORD PTR [edi+140]
  0004e	2b c1		 sub	 eax, ecx
  00050	c1 f8 02	 sar	 eax, 2
; File D:\_m2work\txoko-m2-work\txoko-client-src\source\UserInterface\GuildMarkDownloader.cpp

; 480  : 	for (DWORD i=0; i<m_kVec_dwGuildID.size(); ++i)

  00053	85 c0		 test	 eax, eax
  00055	0f 84 de 00 00
	00		 je	 $LN3@SendSymbol
  0005b	0f 1f 44 00 00	 npad	 5
$LL4@SendSymbol:

; 481  : 	{
; 482  : 		TPacketCGSymbolCRC kSymbolCRCPacket;
; 483  : 		kSymbolCRCPacket.header = HEADER_CG_GUILD_SYMBOL_CRC;

  00060	c6 45 c4 71	 mov	 BYTE PTR _kSymbolCRCPacket$2[ebp], 113 ; 00000071H

; 484  : 		kSymbolCRCPacket.dwGuildID = m_kVec_dwGuildID[i];

  00064	8b 04 b1	 mov	 eax, DWORD PTR [ecx+esi*4]
  00067	89 45 c5	 mov	 DWORD PTR _kSymbolCRCPacket$2[ebp+1], eax

; 486  : 		std::string strFileName = GetGuildSymbolFileName(m_kVec_dwGuildID[i]);

  0006a	8b 0c b1	 mov	 ecx, DWORD PTR [ecx+esi*4]
  0006d	e8 00 00 00 00	 call	 ?GetGuildSymbolFileName@@YAPBDK@Z ; GetGuildSymbolFileName
  00072	8b d0		 mov	 edx, eax
; File C:\Program Files\Microsoft Visual Studio\2022\Community\VC\Tools\MSVC\14.44.35207\include\xstring

; 517  :     size_type _Mysize = 0; // current length of string (size)

  00074	c7 45 e4 00 00
	00 00		 mov	 DWORD PTR _strFileName$3[ebp+16], 0
; File C:\Program Files\Microsoft Visual Studio\2022\Community\VC\Tools\MSVC\14.44.35207\include\__msvc_string_view.hpp

; 456  :             return __builtin_strlen(_First);

  0007b	8b ca		 mov	 ecx, edx
; File C:\Program Files\Microsoft Visual Studio\2022\Community\VC\Tools\MSVC\14.44.35207\include\xstring

; 518  :     size_type _Myres  = 0; // current storage reserved for string (capacity)

  0007d	c7 45 e8 00 00
	00 00		 mov	 DWORD PTR _strFileName$3[ebp+20], 0
  00084	0f 57 c0	 xorps	 xmm0, xmm0

; 493  :         _CONSTEXPR20 _Bxty() noexcept : _Buf() {} // user-provided, for fancy pointers

  00087	0f 11 45 d4	 movups	 XMMWORD PTR _strFileName$3[ebp], xmm0
; File C:\Program Files\Microsoft Visual Studio\2022\Community\VC\Tools\MSVC\14.44.35207\include\__msvc_string_view.hpp

; 456  :             return __builtin_strlen(_First);

  0008b	8d 41 01	 lea	 eax, DWORD PTR [ecx+1]
  0008e	89 45 c0	 mov	 DWORD PTR tv518[ebp], eax
$LL127@SendSymbol:
  00091	8a 01		 mov	 al, BYTE PTR [ecx]
  00093	41		 inc	 ecx
  00094	84 c0		 test	 al, al
  00096	75 f9		 jne	 SHORT $LL127@SendSymbol
  00098	2b 4d c0	 sub	 ecx, DWORD PTR tv518[ebp]
; File C:\Program Files\Microsoft Visual Studio\2022\Community\VC\Tools\MSVC\14.44.35207\include\xstring

; 769  :         _Construct<_Construct_strategy::_From_ptr>(_Ptr, _Convert_size<size_type>(_Traits::length(_Ptr)));

  0009b	51		 push	 ecx
  0009c	52		 push	 edx
  0009d	8d 4d d4	 lea	 ecx, DWORD PTR _strFileName$3[ebp]
  000a0	e8 00 00 00 00	 call	 ??$_Construct@$00PBD@?$basic_string@DU?$char_traits@D@std@@V?$allocator@D@2@@std@@AAEXQBDI@Z ; std::basic_string<char,std::char_traits<char>,std::allocator<char> >::_Construct<1,char const *>
; File D:\_m2work\txoko-m2-work\txoko-client-src\source\UserInterface\GuildMarkDownloader.cpp

; 486  : 		std::string strFileName = GetGuildSymbolFileName(m_kVec_dwGuildID[i]);

  000a5	c7 45 fc 00 00
	00 00		 mov	 DWORD PTR __$EHRec$[ebp+8], 0
; File C:\Program Files\Microsoft Visual Studio\2022\Community\VC\Tools\MSVC\14.44.35207\include\xstring

; 444  :         const value_type* _Result = _Bx._Buf;

  000ac	8d 45 d4	 lea	 eax, DWORD PTR _strFileName$3[ebp]

; 453  :         return _Myres > _Small_string_capacity;

  000af	83 7d e8 0f	 cmp	 DWORD PTR _strFileName$3[ebp+20], 15 ; 0000000fH

; 445  :         if (_Large_mode_engaged()) {

  000b3	0f 47 45 d4	 cmova	 eax, DWORD PTR _strFileName$3[ebp]
; File D:\_m2work\txoko-m2-work\txoko-client-src\source\UserInterface\GuildMarkDownloader.cpp

; 487  : 		kSymbolCRCPacket.dwCRC = GetFileCRC32(strFileName.c_str());

  000b7	50		 push	 eax
  000b8	e8 00 00 00 00	 call	 ?GetFileCRC32@@YAKPBD@Z	; GetFileCRC32
; File C:\Program Files\Microsoft Visual Studio\2022\Community\VC\Tools\MSVC\14.44.35207\include\xstring

; 453  :         return _Myres > _Small_string_capacity;

  000bd	83 7d e8 0f	 cmp	 DWORD PTR _strFileName$3[ebp+20], 15 ; 0000000fH
; File D:\_m2work\txoko-m2-work\txoko-client-src\source\UserInterface\GuildMarkDownloader.cpp

; 487  : 		kSymbolCRCPacket.dwCRC = GetFileCRC32(strFileName.c_str());

  000c1	89 45 c9	 mov	 DWORD PTR _kSymbolCRCPacket$2[ebp+5], eax
; File C:\Program Files\Microsoft Visual Studio\2022\Community\VC\Tools\MSVC\14.44.35207\include\xstring

; 444  :         const value_type* _Result = _Bx._Buf;

  000c4	8d 45 d4	 lea	 eax, DWORD PTR _strFileName$3[ebp]

; 445  :         if (_Large_mode_engaged()) {

  000c7	0f 47 45 d4	 cmova	 eax, DWORD PTR _strFileName$3[ebp]
; File D:\_m2work\txoko-m2-work\txoko-client-src\source\UserInterface\GuildMarkDownloader.cpp

; 488  : 		kSymbolCRCPacket.dwSize = GetFileSize(strFileName.c_str());

  000cb	50		 push	 eax
  000cc	e8 00 00 00 00	 call	 ?GetFileSize@@YAKPBD@Z	; GetFileSize
  000d1	83 c4 08	 add	 esp, 8
  000d4	89 45 cd	 mov	 DWORD PTR _kSymbolCRCPacket$2[ebp+9], eax

; 489  : #ifdef _DEBUG
; 490  : 		printf("__SendSymbolCRCList [GuildID:%d / CRC:%u]\n", m_kVec_dwGuildID[i], kSymbolCRCPacket.dwCRC);
; 491  : #endif
; 492  : 		if (!Send(sizeof(kSymbolCRCPacket), &kSymbolCRCPacket))

  000d7	8d 45 c4	 lea	 eax, DWORD PTR _kSymbolCRCPacket$2[ebp]
  000da	8b cf		 mov	 ecx, edi
  000dc	50		 push	 eax
  000dd	6a 0d		 push	 13			; 0000000dH
  000df	e8 00 00 00 00	 call	 ?Send@CNetworkStream@@QAE_NHPBX@Z ; CNetworkStream::Send
  000e4	84 c0		 test	 al, al
  000e6	74 71		 je	 SHORT $LN121@SendSymbol

; 494  : 	}

  000e8	c7 45 fc ff ff
	ff ff		 mov	 DWORD PTR __$EHRec$[ebp+8], -1
; File C:\Program Files\Microsoft Visual Studio\2022\Community\VC\Tools\MSVC\14.44.35207\include\xstring

; 453  :         return _Myres > _Small_string_capacity;

  000ef	8b 4d e8	 mov	 ecx, DWORD PTR _strFileName$3[ebp+20]
  000f2	83 f9 0f	 cmp	 ecx, 15			; 0000000fH

; 3083 :         if (_My_data._Large_mode_engaged()) {

  000f5	76 28		 jbe	 SHORT $LN106@SendSymbol
; File C:\Program Files\Microsoft Visual Studio\2022\Community\VC\Tools\MSVC\14.44.35207\include\xmemory

; 985  :         _STD _Deallocate<_New_alignof<_Ty>>(_Ptr, sizeof(_Ty) * _Count);

  000f7	8b 55 d4	 mov	 edx, DWORD PTR _strFileName$3[ebp]
; File C:\Program Files\Microsoft Visual Studio\2022\Community\VC\Tools\MSVC\14.44.35207\include\xstring

; 852  :         _Al.deallocate(_Old_ptr, _Capacity + 1); // +1 for null terminator

  000fa	41		 inc	 ecx
; File C:\Program Files\Microsoft Visual Studio\2022\Community\VC\Tools\MSVC\14.44.35207\include\xmemory

; 985  :         _STD _Deallocate<_New_alignof<_Ty>>(_Ptr, sizeof(_Ty) * _Count);

  000fb	8b c2		 mov	 eax, edx

; 284  :         if (_Bytes >= _Big_allocation_threshold) {

  000fd	81 f9 00 10 00
	00		 cmp	 ecx, 4096		; 00001000H
  00103	72 10		 jb	 SHORT $LN114@SendSymbol

; 205  :     const uintptr_t _Ptr_container   = _Ptr_user[-1];

  00105	8b 50 fc	 mov	 edx, DWORD PTR [eax-4]
  00108	83 c1 23	 add	 ecx, 35			; 00000023H
  0010b	2b c2		 sub	 eax, edx

; 219  :     _STL_VERIFY(_Back_shift >= _Min_back_shift && _Back_shift <= _Non_user_size, "invalid argument");

  0010d	83 c0 fc	 add	 eax, -4			; fffffffcH
  00110	83 f8 1f	 cmp	 eax, 31			; 0000001fH
  00113	77 78		 ja	 SHORT $LN80@SendSymbol
$LN114@SendSymbol:

; 289  :         ::operator delete(_Ptr, _Bytes);

  00115	51		 push	 ecx
  00116	52		 push	 edx
  00117	e8 00 00 00 00	 call	 ??3@YAXPAXI@Z		; operator delete
  0011c	83 c4 08	 add	 esp, 8
$LN106@SendSymbol:
; File C:\Program Files\Microsoft Visual Studio\2022\Community\VC\Tools\MSVC\14.44.35207\include\vector

; 1915 :         return static_cast<size_type>(_My_data._Mylast - _My_data._Myfirst);

  0011f	8b 87 90 00 00
	00		 mov	 eax, DWORD PTR [edi+144]
; File D:\_m2work\txoko-m2-work\txoko-client-src\source\UserInterface\GuildMarkDownloader.cpp

; 480  : 	for (DWORD i=0; i<m_kVec_dwGuildID.size(); ++i)

  00125	46		 inc	 esi
; File C:\Program Files\Microsoft Visual Studio\2022\Community\VC\Tools\MSVC\14.44.35207\include\vector

; 1915 :         return static_cast<size_type>(_My_data._Mylast - _My_data._Myfirst);

  00126	8b 8f 8c 00 00
	00		 mov	 ecx, DWORD PTR [edi+140]
  0012c	2b c1		 sub	 eax, ecx
  0012e	c1 f8 02	 sar	 eax, 2
; File D:\_m2work\txoko-m2-work\txoko-client-src\source\UserInterface\GuildMarkDownloader.cpp

; 480  : 	for (DWORD i=0; i<m_kVec_dwGuildID.size(); ++i)

  00131	3b f0		 cmp	 esi, eax
  00133	0f 82 27 ff ff
	ff		 jb	 $LL4@SendSymbol
$LN3@SendSymbol:

; 495  : 
; 496  : 	return true;

  00139	b0 01		 mov	 al, 1
$LN1@SendSymbol:

; 497  : }

  0013b	8b 4d f4	 mov	 ecx, DWORD PTR __$EHRec$[ebp]
  0013e	64 89 0d 00 00
	00 00		 mov	 DWORD PTR fs:0, ecx
  00145	59		 pop	 ecx
  00146	5f		 pop	 edi
  00147	5e		 pop	 esi
  00148	8b 4d ec	 mov	 ecx, DWORD PTR __$ArrayPad$[ebp]
  0014b	33 cd		 xor	 ecx, ebp
  0014d	e8 00 00 00 00	 call	 @__security_check_cookie@4
  00152	8b e5		 mov	 esp, ebp
  00154	5d		 pop	 ebp
  00155	8b e3		 mov	 esp, ebx
  00157	5b		 pop	 ebx
  00158	c3		 ret	 0
$LN121@SendSymbol:
; File C:\Program Files\Microsoft Visual Studio\2022\Community\VC\Tools\MSVC\14.44.35207\include\xstring

; 453  :         return _Myres > _Small_string_capacity;

  00159	8b 4d e8	 mov	 ecx, DWORD PTR _strFileName$3[ebp+20]
  0015c	83 f9 0f	 cmp	 ecx, 15			; 0000000fH

; 3083 :         if (_My_data._Large_mode_engaged()) {

  0015f	76 28		 jbe	 SHORT $LN73@SendSymbol
; File C:\Program Files\Microsoft Visual Studio\2022\Community\VC\Tools\MSVC\14.44.35207\include\xmemory

; 985  :         _STD _Deallocate<_New_alignof<_Ty>>(_Ptr, sizeof(_Ty) * _Count);

  00161	8b 55 d4	 mov	 edx, DWORD PTR _strFileName$3[ebp]
; File C:\Program Files\Microsoft Visual Studio\2022\Community\VC\Tools\MSVC\14.44.35207\include\xstring

; 852  :         _Al.deallocate(_Old_ptr, _Capacity + 1); // +1 for null terminator

  00164	41		 inc	 ecx
; File C:\Program Files\Microsoft Visual Studio\2022\Community\VC\Tools\MSVC\14.44.35207\include\xmemory

; 985  :         _STD _Deallocate<_New_alignof<_Ty>>(_Ptr, sizeof(_Ty) * _Count);

  00165	8b c2		 mov	 eax, edx

; 284  :         if (_Bytes >= _Big_allocation_threshold) {

  00167	81 f9 00 10 00
	00		 cmp	 ecx, 4096		; 00001000H
  0016d	72 10		 jb	 SHORT $LN81@SendSymbol

; 205  :     const uintptr_t _Ptr_container   = _Ptr_user[-1];

  0016f	8b 50 fc	 mov	 edx, DWORD PTR [eax-4]
  00172	83 c1 23	 add	 ecx, 35			; 00000023H
  00175	2b c2		 sub	 eax, edx

; 219  :     _STL_VERIFY(_Back_shift >= _Min_back_shift && _Back_shift <= _Non_user_size, "invalid argument");

  00177	83 c0 fc	 add	 eax, -4			; fffffffcH
  0017a	83 f8 1f	 cmp	 eax, 31			; 0000001fH
  0017d	77 0e		 ja	 SHORT $LN80@SendSymbol
$LN81@SendSymbol:

; 289  :         ::operator delete(_Ptr, _Bytes);

  0017f	51		 push	 ecx
  00180	52		 push	 edx
  00181	e8 00 00 00 00	 call	 ??3@YAXPAXI@Z		; operator delete
  00186	83 c4 08	 add	 esp, 8
$LN73@SendSymbol:
; File D:\_m2work\txoko-m2-work\txoko-client-src\source\UserInterface\GuildMarkDownloader.cpp

; 493  : 			return false;

  00189	32 c0		 xor	 al, al
  0018b	eb ae		 jmp	 SHORT $LN1@SendSymbol
$LN80@SendSymbol:
; File C:\Program Files\Microsoft Visual Studio\2022\Community\VC\Tools\MSVC\14.44.35207\include\xmemory

; 219  :     _STL_VERIFY(_Back_shift >= _Min_back_shift && _Back_shift <= _Non_user_size, "invalid argument");

  0018d	6a 00		 push	 0
  0018f	6a 00		 push	 0
  00191	6a 00		 push	 0
  00193	6a 00		 push	 0
  00195	6a 00		 push	 0
  00197	e8 00 00 00 00	 call	 __invoke_watson
$LN129@SendSymbol:
  0019c	cc		 int	 3
_TEXT	ENDS
;	COMDAT text$x
text$x	SEGMENT
__unwindfunclet$?__SendSymbolCRCList@CGuildMarkDownloader@@AAE_NXZ$0:
  00000	8d 4d d4	 lea	 ecx, DWORD PTR _strFileName$3[ebp]
  00003	e9 00 00 00 00	 jmp	 ??1?$basic_string@DU?$char_traits@D@std@@V?$allocator@D@2@@std@@QAE@XZ ; std::basic_string<char,std::char_traits<char>,std::allocator<char> >::~basic_string<char,std::char_traits<char>,std::allocator<char> >
  00008	cc		 int	 3
  00009	cc		 int	 3
  0000a	cc		 int	 3
  0000b	cc		 int	 3
  0000c	cc		 int	 3
__ehhandler$?__SendSymbolCRCList@CGuildMarkDownloader@@AAE_NXZ:
  0000d	90		 npad	 1
  0000e	90		 npad	 1
  0000f	8b 54 24 08	 mov	 edx, DWORD PTR [esp+8]
  00013	8d 42 0c	 lea	 eax, DWORD PTR [edx+12]
  00016	8b 4a c0	 mov	 ecx, DWORD PTR [edx-64]
  00019	33 c8		 xor	 ecx, eax
  0001b	e8 00 00 00 00	 call	 @__security_check_cookie@4
  00020	8b 4a f8	 mov	 ecx, DWORD PTR [edx-8]
  00023	33 c8		 xor	 ecx, eax
  00025	e8 00 00 00 00	 call	 @__security_check_cookie@4
  0002a	b8 00 00 00 00	 mov	 eax, OFFSET __ehfuncinfo$?__SendSymbolCRCList@CGuildMarkDownloader@@AAE_NXZ
  0002f	e9 00 00 00 00	 jmp	 ___CxxFrameHandler3
text$x	ENDS
?__SendSymbolCRCList@CGuildMarkDownloader@@AAE_NXZ ENDP	; CGuildMarkDownloader::__SendSymbolCRCList
; Function compile flags: /Ogtp
; File D:\_m2work\txoko-m2-work\txoko-client-src\source\UserInterface\GuildMarkDownloader.cpp
; File C:\Program Files\Microsoft Visual Studio\2022\Community\VC\Tools\MSVC\14.44.35207\include\xstring
; File D:\_m2work\txoko-m2-work\txoko-client-src\source\UserInterface\GuildMarkDownloader.cpp
; File C:\Program Files\Microsoft Visual Studio\2022\Community\VC\Tools\MSVC\14.44.35207\include\xstring
; File D:\_m2work\txoko-m2-work\txoko-client-src\source\UserInterface\GuildMarkDownloader.cpp
; File C:\Program Files\Microsoft Visual Studio\2022\Community\VC\Tools\MSVC\14.44.35207\include\xstring
; File D:\_m2work\txoko-m2-work\txoko-client-src\source\UserInterface\GuildMarkDownloader.cpp
; File C:\Program Files\Microsoft Visual Studio\2022\Community\VC\Tools\MSVC\14.44.35207\include\xstring
; File D:\_m2work\txoko-m2-work\txoko-client-src\source\UserInterface\GuildMarkDownloader.cpp
;	COMDAT ?__LoginState_RecvSymbolData@CGuildMarkDownloader@@AAE_NXZ
_TEXT	SEGMENT
_kPacketSymbolData$ = -44				; size = 7
_dwGuildID$1$ = -36					; size = 4
_packet$ = -32						; size = 3
_strFileName$ = -28					; size = 24
__$ArrayPad$ = -4					; size = 4
?__LoginState_RecvSymbolData@CGuildMarkDownloader@@AAE_NXZ PROC ; CGuildMarkDownloader::__LoginState_RecvSymbolData, COMDAT
; _this$ = ecx

; 500  : {

  00000	55		 push	 ebp
  00001	8b ec		 mov	 ebp, esp
  00003	83 ec 2c	 sub	 esp, 44			; 0000002cH
  00006	a1 00 00 00 00	 mov	 eax, DWORD PTR ___security_cookie
  0000b	33 c5		 xor	 eax, ebp
  0000d	89 45 fc	 mov	 DWORD PTR __$ArrayPad$[ebp], eax
  00010	53		 push	 ebx
  00011	56		 push	 esi
  00012	57		 push	 edi

; 501  : 	TPacketGCBlankDynamic packet;
; 502  : 	if (!Peek(sizeof(TPacketGCBlankDynamic), &packet))

  00013	8d 45 e0	 lea	 eax, DWORD PTR _packet$[ebp]
  00016	8b f9		 mov	 edi, ecx
  00018	50		 push	 eax
  00019	6a 03		 push	 3
  0001b	e8 00 00 00 00	 call	 ?Peek@CNetworkStream@@QAE_NHPAX@Z ; CNetworkStream::Peek
  00020	84 c0		 test	 al, al
  00022	0f 84 f0 00 00
	00		 je	 $LN40@LoginState

; 503  : 		return true;
; 504  : 
; 505  : #ifdef _DEBUG
; 506  : 	printf("__LoginState_RecvSymbolData [%d/%d]\n", GetRecvBufferSize(), packet.size);
; 507  : #endif
; 508  : 	if (packet.size > GetRecvBufferSize())

  00028	0f b7 75 e1	 movzx	 esi, WORD PTR _packet$[ebp+1]
  0002c	8b cf		 mov	 ecx, edi
  0002e	e8 00 00 00 00	 call	 ?GetRecvBufferSize@CNetworkStream@@QAEHXZ ; CNetworkStream::GetRecvBufferSize
  00033	3b f0		 cmp	 esi, eax
  00035	0f 8f dd 00 00
	00		 jg	 $LN40@LoginState

; 509  : 		return true;
; 510  : 
; 511  : 	//////////////////////////////////////////////////////////////
; 512  : 
; 513  : 	TPacketGCGuildSymbolData kPacketSymbolData;
; 514  : 	if (!Recv(sizeof(kPacketSymbolData), &kPacketSymbolData))

  0003b	8d 45 d4	 lea	 eax, DWORD PTR _kPacketSymbolData$[ebp]
  0003e	8b cf		 mov	 ecx, edi
  00040	50		 push	 eax
  00041	6a 07		 push	 7
  00043	e8 00 00 00 00	 call	 ?Recv@CNetworkStream@@QAE_NHPAX@Z ; CNetworkStream::Recv
  00048	84 c0		 test	 al, al
  0004a	74 30		 je	 SHORT $LN42@LoginState

; 515  : 		return false;
; 516  : 
; 517  : 	WORD wDataSize = kPacketSymbolData.size - sizeof(kPacketSymbolData);

  0004c	8b 45 d5	 mov	 eax, DWORD PTR _kPacketSymbolData$[ebp+1]

; 518  : 	DWORD dwGuildID = kPacketSymbolData.guild_id;

  0004f	8b 4d d7	 mov	 ecx, DWORD PTR _kPacketSymbolData$[ebp+3]
  00052	83 c0 f9	 add	 eax, -7			; fffffff9H
  00055	0f b7 d8	 movzx	 ebx, ax

; 519  : 	BYTE * pbyBuf = new BYTE [wDataSize];

  00058	53		 push	 ebx
  00059	89 4d dc	 mov	 DWORD PTR _dwGuildID$1$[ebp], ecx
  0005c	e8 00 00 00 00	 call	 ??_U@YAPAXI@Z		; operator new[]
  00061	83 c4 04	 add	 esp, 4
  00064	8b f0		 mov	 esi, eax

; 520  : 
; 521  : 	if (!Recv(wDataSize, pbyBuf))

  00066	8b cf		 mov	 ecx, edi
  00068	56		 push	 esi
  00069	53		 push	 ebx
  0006a	e8 00 00 00 00	 call	 ?Recv@CNetworkStream@@QAE_NHPAX@Z ; CNetworkStream::Recv
  0006f	84 c0		 test	 al, al
  00071	75 1c		 jne	 SHORT $LN5@LoginState

; 522  : 	{
; 523  : 		delete[] pbyBuf;

  00073	56		 push	 esi
  00074	e8 00 00 00 00	 call	 ??_V@YAXPAX@Z		; operator delete[]
  00079	83 c4 04	 add	 esp, 4
$LN42@LoginState:

; 546  : }

  0007c	32 c0		 xor	 al, al
  0007e	5f		 pop	 edi
  0007f	5e		 pop	 esi
  00080	5b		 pop	 ebx
  00081	8b 4d fc	 mov	 ecx, DWORD PTR __$ArrayPad$[ebp]
  00084	33 cd		 xor	 ecx, ebp
  00086	e8 00 00 00 00	 call	 @__security_check_cookie@4
  0008b	8b e5		 mov	 esp, ebp
  0008d	5d		 pop	 ebp
  0008e	c3		 ret	 0
$LN5@LoginState:
; File C:\Program Files\Microsoft Visual Studio\2022\Community\VC\Tools\MSVC\14.44.35207\include\xstring

; 453  :         return _Myres > _Small_string_capacity;

  0008f	83 3d 14 00 00
	00 0f		 cmp	 DWORD PTR ?g_strGuildSymbolPathName@@3V?$basic_string@DU?$char_traits@D@std@@V?$allocator@D@2@@std@@A+20, 15 ; 0000000fH

; 444  :         const value_type* _Result = _Bx._Buf;

  00096	b8 00 00 00 00	 mov	 eax, OFFSET ?g_strGuildSymbolPathName@@3V?$basic_string@DU?$char_traits@D@std@@V?$allocator@D@2@@std@@A ; g_strGuildSymbolPathName

; 445  :         if (_Large_mode_engaged()) {

  0009b	0f 47 05 00 00
	00 00		 cmova	 eax, DWORD PTR ?g_strGuildSymbolPathName@@3V?$basic_string@DU?$char_traits@D@std@@V?$allocator@D@2@@std@@A
; File D:\_m2work\txoko-m2-work\txoko-client-src\source\UserInterface\GuildMarkDownloader.cpp

; 527  : 	MyCreateDirectory(g_strGuildSymbolPathName.c_str());

  000a2	50		 push	 eax
  000a3	e8 00 00 00 00	 call	 ?MyCreateDirectory@@YAXPBD@Z ; MyCreateDirectory

; 528  : 
; 529  : 	std::string strFileName = GetGuildSymbolFileName(dwGuildID);

  000a8	8b 4d dc	 mov	 ecx, DWORD PTR _dwGuildID$1$[ebp]
  000ab	83 c4 04	 add	 esp, 4
  000ae	e8 00 00 00 00	 call	 ?GetGuildSymbolFileName@@YAPBDK@Z ; GetGuildSymbolFileName
  000b3	50		 push	 eax
  000b4	8d 4d e4	 lea	 ecx, DWORD PTR _strFileName$[ebp]
  000b7	e8 00 00 00 00	 call	 ??0?$basic_string@DU?$char_traits@D@std@@V?$allocator@D@2@@std@@QAE@QBD@Z ; std::basic_string<char,std::char_traits<char>,std::allocator<char> >::basic_string<char,std::char_traits<char>,std::allocator<char> >
; File C:\Program Files\Microsoft Visual Studio\2022\Community\VC\Tools\MSVC\14.44.35207\include\xstring

; 453  :         return _Myres > _Small_string_capacity;

  000bc	83 7d f8 0f	 cmp	 DWORD PTR _strFileName$[ebp+20], 15 ; 0000000fH

; 444  :         const value_type* _Result = _Bx._Buf;

  000c0	8d 45 e4	 lea	 eax, DWORD PTR _strFileName$[ebp]
; File D:\_m2work\txoko-m2-work\txoko-client-src\source\UserInterface\GuildMarkDownloader.cpp

; 531  : 	FILE * File = fopen(strFileName.c_str(), "wb");

  000c3	68 00 00 00 00	 push	 OFFSET ??_C@_02GMLFBBN@wb@
; File C:\Program Files\Microsoft Visual Studio\2022\Community\VC\Tools\MSVC\14.44.35207\include\xstring

; 445  :         if (_Large_mode_engaged()) {

  000c8	0f 47 45 e4	 cmova	 eax, DWORD PTR _strFileName$[ebp]
; File D:\_m2work\txoko-m2-work\txoko-client-src\source\UserInterface\GuildMarkDownloader.cpp

; 531  : 	FILE * File = fopen(strFileName.c_str(), "wb");

  000cc	50		 push	 eax
  000cd	e8 00 00 00 00	 call	 _fopen
  000d2	8b f8		 mov	 edi, eax
  000d4	83 c4 08	 add	 esp, 8

; 532  : 	if (!File)

  000d7	85 ff		 test	 edi, edi
  000d9	75 04		 jne	 SHORT $LN6@LoginState
  000db	32 db		 xor	 bl, bl
  000dd	eb 15		 jmp	 SHORT $LN9@LoginState
$LN6@LoginState:

; 533  : 	{
; 534  : 		delete[] pbyBuf;
; 535  : 		return false;
; 536  : 	}
; 537  : 	fwrite(pbyBuf, wDataSize, 1, File);

  000df	57		 push	 edi
  000e0	6a 01		 push	 1
  000e2	53		 push	 ebx
  000e3	56		 push	 esi
  000e4	e8 00 00 00 00	 call	 _fwrite

; 538  : 	fclose(File);

  000e9	57		 push	 edi
  000ea	e8 00 00 00 00	 call	 _fclose
  000ef	83 c4 14	 add	 esp, 20			; 00000014H

; 545  : 	return true;

  000f2	b3 01		 mov	 bl, 1
$LN9@LoginState:
; File C:\Program Files\Microsoft Visual Studio\2022\Community\VC\Tools\MSVC\14.44.35207\include\xstring

; 1383 :         _Tidy_deallocate();

  000f4	56		 push	 esi
  000f5	e8 00 00 00 00	 call	 ??_V@YAXPAX@Z		; operator delete[]
  000fa	83 c4 04	 add	 esp, 4
  000fd	8d 4d e4	 lea	 ecx, DWORD PTR _strFileName$[ebp]
  00100	e8 00 00 00 00	 call	 ?_Tidy_deallocate@?$basic_string@DU?$char_traits@D@std@@V?$allocator@D@2@@std@@AAEXXZ ; std::basic_string<char,std::char_traits<char>,std::allocator<char> >::_Tidy_deallocate
; File D:\_m2work\txoko-m2-work\txoko-client-src\source\UserInterface\GuildMarkDownloader.cpp

; 545  : 	return true;

  00105	8a c3		 mov	 al, bl

; 546  : }

  00107	5f		 pop	 edi
  00108	5e		 pop	 esi
  00109	5b		 pop	 ebx
  0010a	8b 4d fc	 mov	 ecx, DWORD PTR __$ArrayPad$[ebp]
  0010d	33 cd		 xor	 ecx, ebp
  0010f	e8 00 00 00 00	 call	 @__security_check_cookie@4
  00114	8b e5		 mov	 esp, ebp
  00116	5d		 pop	 ebp
  00117	c3		 ret	 0
$LN40@LoginState:
  00118	8b 4d fc	 mov	 ecx, DWORD PTR __$ArrayPad$[ebp]
  0011b	b0 01		 mov	 al, 1
  0011d	5f		 pop	 edi
  0011e	5e		 pop	 esi
  0011f	33 cd		 xor	 ecx, ebp
  00121	5b		 pop	 ebx
  00122	e8 00 00 00 00	 call	 @__security_check_cookie@4
  00127	8b e5		 mov	 esp, ebp
  00129	5d		 pop	 ebp
  0012a	c3		 ret	 0
?__LoginState_RecvSymbolData@CGuildMarkDownloader@@AAE_NXZ ENDP ; CGuildMarkDownloader::__LoginState_RecvSymbolData
_TEXT	ENDS
; Function compile flags: /Ogtp
; File D:\_m2work\txoko-m2-work\txoko-client-src\source\UserInterface\GuildMarkDownloader.cpp
;	COMDAT ?__empty_global_delete@@YAXPAX@Z
_TEXT	SEGMENT
___formal$ = 8						; size = 4
?__empty_global_delete@@YAXPAX@Z PROC			; __empty_global_delete, COMDAT

  00000	c2 00 00	 ret	 0
?__empty_global_delete@@YAXPAX@Z ENDP			; __empty_global_delete
_TEXT	ENDS
; Function compile flags: /Ogtp
; File D:\_m2work\txoko-m2-work\txoko-client-src\source\UserInterface\GuildMarkDownloader.cpp
;	COMDAT ?__empty_global_delete@@YAXPAXI@Z
_TEXT	SEGMENT
___formal$ = 8						; size = 4
___formal$ = 12						; size = 4
?__empty_global_delete@@YAXPAXI@Z PROC			; __empty_global_delete, COMDAT

  00000	c2 00 00	 ret	 0
?__empty_global_delete@@YAXPAXI@Z ENDP			; __empty_global_delete
_TEXT	ENDS
; Function compile flags: /Ogtp
; File D:\_m2work\txoko-m2-work\txoko-client-src\source\UserInterface\GuildMarkDownloader.cpp
;	COMDAT ?__empty_global_delete@@YAXPAXW4align_val_t@std@@@Z
_TEXT	SEGMENT
___formal$ = 8						; size = 4
___formal$ = 12						; size = 4
?__empty_global_delete@@YAXPAXW4align_val_t@std@@@Z PROC ; __empty_global_delete, COMDAT

  00000	c2 00 00	 ret	 0
?__empty_global_delete@@YAXPAXW4align_val_t@std@@@Z ENDP ; __empty_global_delete
_TEXT	ENDS
; Function compile flags: /Ogtp
; File D:\_m2work\txoko-m2-work\txoko-client-src\source\UserInterface\GuildMarkDownloader.cpp
;	COMDAT ?__empty_global_delete@@YAXPAXIW4align_val_t@std@@@Z
_TEXT	SEGMENT
___formal$ = 8						; size = 4
___formal$ = 12						; size = 4
___formal$ = 16						; size = 4
?__empty_global_delete@@YAXPAXIW4align_val_t@std@@@Z PROC ; __empty_global_delete, COMDAT

  00000	c2 00 00	 ret	 0
?__empty_global_delete@@YAXPAXIW4align_val_t@std@@@Z ENDP ; __empty_global_delete
_TEXT	ENDS
; Function compile flags: /Ogtp
; File D:\_m2work\txoko-m2-work\txoko-client-src\source\eterBase\Singleton.h
;	COMDAT ?instance@?$CSingleton@VCPythonCharacterManager@@@@SAAAVCPythonCharacterManager@@XZ
_TEXT	SEGMENT
?instance@?$CSingleton@VCPythonCharacterManager@@@@SAAAVCPythonCharacterManager@@XZ PROC ; CSingleton<CPythonCharacterManager>::instance, COMDAT

; 37   : 		assert(ms_singleton);
; 38   : 		return (*ms_singleton);

  00000	a1 00 00 00 00	 mov	 eax, DWORD PTR ?ms_singleton@?$CSingleton@VCPythonCharacterManager@@@@0PAVCPythonCharacterManager@@A ; CSingleton<CPythonCharacterManager>::ms_singleton

; 39   : 	}

  00005	c3		 ret	 0
?instance@?$CSingleton@VCPythonCharacterManager@@@@SAAAVCPythonCharacterManager@@XZ ENDP ; CSingleton<CPythonCharacterManager>::instance
_TEXT	ENDS
; Function compile flags: /Ogtp
; File D:\_m2work\txoko-m2-work\txoko-client-src\source\eterBase\Singleton.h
;	COMDAT ??1?$CSingleton@VCGuildMarkDownloader@@@@UAE@XZ
_TEXT	SEGMENT
??1?$CSingleton@VCGuildMarkDownloader@@@@UAE@XZ PROC	; CSingleton<CGuildMarkDownloader>::~CSingleton<CGuildMarkDownloader>, COMDAT
; _this$ = ecx

; 19   : 	{ 

  00000	c7 01 00 00 00
	00		 mov	 DWORD PTR [ecx], OFFSET ??_7?$CSingleton@VCGuildMarkDownloader@@@@6B@

; 20   : 		assert(ms_singleton);
; 21   : 		ms_singleton = 0; 

  00006	c7 05 00 00 00
	00 00 00 00 00	 mov	 DWORD PTR ?ms_singleton@?$CSingleton@VCGuildMarkDownloader@@@@0PAVCGuildMarkDownloader@@A, 0 ; CSingleton<CGuildMarkDownloader>::ms_singleton

; 22   : 	}

  00010	c3		 ret	 0
??1?$CSingleton@VCGuildMarkDownloader@@@@UAE@XZ ENDP	; CSingleton<CGuildMarkDownloader>::~CSingleton<CGuildMarkDownloader>
_TEXT	ENDS
; Function compile flags: /Ogtp
; File D:\_m2work\txoko-m2-work\txoko-client-src\source\eterBase\Singleton.h
;	COMDAT ??0?$CSingleton@VCGuildMarkDownloader@@@@QAE@XZ
_TEXT	SEGMENT
??0?$CSingleton@VCGuildMarkDownloader@@@@QAE@XZ PROC	; CSingleton<CGuildMarkDownloader>::CSingleton<CGuildMarkDownloader>, COMDAT
; _this$ = ecx

; 12   : 	{ 
; 13   : 		assert(!ms_singleton);
; 14   : 		int offset = (int) (T*) 1 - (int) (CSingleton <T>*) (T*) 1; 
; 15   : 		ms_singleton = (T*) ((int) this + offset);

  00000	8d 41 84	 lea	 eax, DWORD PTR [ecx-124]
  00003	c7 01 00 00 00
	00		 mov	 DWORD PTR [ecx], OFFSET ??_7?$CSingleton@VCGuildMarkDownloader@@@@6B@
  00009	a3 00 00 00 00	 mov	 DWORD PTR ?ms_singleton@?$CSingleton@VCGuildMarkDownloader@@@@0PAVCGuildMarkDownloader@@A, eax ; CSingleton<CGuildMarkDownloader>::ms_singleton

; 16   : 	} 

  0000e	8b c1		 mov	 eax, ecx
  00010	c3		 ret	 0
??0?$CSingleton@VCGuildMarkDownloader@@@@QAE@XZ ENDP	; CSingleton<CGuildMarkDownloader>::CSingleton<CGuildMarkDownloader>
_TEXT	ENDS
; Function compile flags: /Ogtp
; File D:\_m2work\txoko-m2-work\txoko-client-src\source\eterBase\Singleton.h
;	COMDAT ?Instance@?$singleton@VCGuildMarkManager@@@@SAAAVCGuildMarkManager@@XZ
_TEXT	SEGMENT
?Instance@?$singleton@VCGuildMarkManager@@@@SAAAVCGuildMarkManager@@XZ PROC ; singleton<CGuildMarkManager>::Instance, COMDAT

; 67   : 		assert(ms_singleton);
; 68   : 		return (*ms_singleton);

  00000	a1 00 00 00 00	 mov	 eax, DWORD PTR ?ms_singleton@?$singleton@VCGuildMarkManager@@@@0PAVCGuildMarkManager@@A ; singleton<CGuildMarkManager>::ms_singleton

; 69   : 	}

  00005	c3		 ret	 0
?Instance@?$singleton@VCGuildMarkManager@@@@SAAAVCGuildMarkManager@@XZ ENDP ; singleton<CGuildMarkManager>::Instance
_TEXT	ENDS
; Function compile flags: /Ogtp
; File C:\Program Files\Microsoft Visual Studio\2022\Community\VC\Tools\MSVC\14.44.35207\include\vector
;	COMDAT ??A?$vector@KV?$allocator@K@std@@@std@@QAEAAKI@Z
_TEXT	SEGMENT
__Pos$ = 8						; size = 4
??A?$vector@KV?$allocator@K@std@@@std@@QAEAAKI@Z PROC	; std::vector<unsigned long,std::allocator<unsigned long> >::operator[], COMDAT
; _this$ = ecx

; 1927 :     _NODISCARD _CONSTEXPR20 _Ty& operator[](const size_type _Pos) noexcept /* strengthened */ {

  00000	55		 push	 ebp
  00001	8b ec		 mov	 ebp, esp

; 1928 :         auto& _My_data = _Mypair._Myval2;
; 1929 : #if _MSVC_STL_HARDENING_VECTOR || _ITERATOR_DEBUG_LEVEL != 0
; 1930 :         _STL_VERIFY(
; 1931 :             _Pos < static_cast<size_type>(_My_data._Mylast - _My_data._Myfirst), "vector subscript out of range");
; 1932 : #endif
; 1933 : 
; 1934 :         return _My_data._Myfirst[_Pos];

  00003	8b 09		 mov	 ecx, DWORD PTR [ecx]
  00005	8b 45 08	 mov	 eax, DWORD PTR __Pos$[ebp]
  00008	8d 04 81	 lea	 eax, DWORD PTR [ecx+eax*4]

; 1935 :     }

  0000b	5d		 pop	 ebp
  0000c	c2 04 00	 ret	 4
??A?$vector@KV?$allocator@K@std@@@std@@QAEAAKI@Z ENDP	; std::vector<unsigned long,std::allocator<unsigned long> >::operator[]
_TEXT	ENDS
; Function compile flags: /Ogtp
; File C:\Program Files\Microsoft Visual Studio\2022\Community\VC\Tools\MSVC\14.44.35207\include\vector
;	COMDAT ?size@?$vector@KV?$allocator@K@std@@@std@@QBEIXZ
_TEXT	SEGMENT
?size@?$vector@KV?$allocator@K@std@@@std@@QBEIXZ PROC	; std::vector<unsigned long,std::allocator<unsigned long> >::size, COMDAT
; _this$ = ecx

; 1914 :         auto& _My_data = _Mypair._Myval2;
; 1915 :         return static_cast<size_type>(_My_data._Mylast - _My_data._Myfirst);

  00000	8b 41 04	 mov	 eax, DWORD PTR [ecx+4]
  00003	2b 01		 sub	 eax, DWORD PTR [ecx]
  00005	c1 f8 02	 sar	 eax, 2

; 1916 :     }

  00008	c3		 ret	 0
?size@?$vector@KV?$allocator@K@std@@@std@@QBEIXZ ENDP	; std::vector<unsigned long,std::allocator<unsigned long> >::size
_TEXT	ENDS
; Function compile flags: /Ogtp
; File C:\Program Files\Microsoft Visual Studio\2022\Community\VC\Tools\MSVC\14.44.35207\include\vector
;	COMDAT ?clear@?$vector@KV?$allocator@K@std@@@std@@QAEXXZ
_TEXT	SEGMENT
?clear@?$vector@KV?$allocator@K@std@@@std@@QAEXXZ PROC	; std::vector<unsigned long,std::allocator<unsigned long> >::clear, COMDAT
; _this$ = ecx

; 1808 :         auto& _My_data    = _Mypair._Myval2;
; 1809 :         pointer& _Myfirst = _My_data._Myfirst;
; 1810 :         pointer& _Mylast  = _My_data._Mylast;
; 1811 : 
; 1812 :         if (_Myfirst == _Mylast) { // already empty, nothing to do

  00000	8b 01		 mov	 eax, DWORD PTR [ecx]
  00002	3b 41 04	 cmp	 eax, DWORD PTR [ecx+4]
  00005	74 03		 je	 SHORT $LN1@clear

; 1813 :             // This is an optimization for debug mode: we can avoid taking the debug lock to invalidate iterators.
; 1814 :             // Note that when clearing an empty vector, this will preserve past-the-end iterators, which is allowed by
; 1815 :             // N4950 [sequence.reqmts]/54 "a.clear() [...] may invalidate the past-the-end iterator".
; 1816 :             return;
; 1817 :         }
; 1818 : 
; 1819 :         _My_data._Orphan_all();
; 1820 :         _Destroy_range(_Myfirst, _Mylast, _Getal());
; 1821 :         _ASAN_VECTOR_MODIFY(static_cast<difference_type>(_Myfirst - _Mylast)); // negative when destroying elements
; 1822 :         _Mylast = _Myfirst;

  00007	89 41 04	 mov	 DWORD PTR [ecx+4], eax
$LN1@clear:

; 1823 :     }

  0000a	c3		 ret	 0
?clear@?$vector@KV?$allocator@K@std@@@std@@QAEXXZ ENDP	; std::vector<unsigned long,std::allocator<unsigned long> >::clear
_TEXT	ENDS
; Function compile flags: /Ogtp
; File C:\Program Files\Microsoft Visual Studio\2022\Community\VC\Tools\MSVC\14.44.35207\include\vector
; File C:\Program Files\Microsoft Visual Studio\2022\Community\VC\Tools\MSVC\14.44.35207\include\xmemory
; File C:\Program Files\Microsoft Visual Studio\2022\Community\VC\Tools\MSVC\14.44.35207\include\vector
; File C:\Program Files\Microsoft Visual Studio\2022\Community\VC\Tools\MSVC\14.44.35207\include\xmemory
; File C:\Program Files\Microsoft Visual Studio\2022\Community\VC\Tools\MSVC\14.44.35207\include\vector
; File C:\Program Files\Microsoft Visual Studio\2022\Community\VC\Tools\MSVC\14.44.35207\include\xmemory
; File C:\Program Files\Microsoft Visual Studio\2022\Community\VC\Tools\MSVC\14.44.35207\include\vector
;	COMDAT ??4?$vector@KV?$allocator@K@std@@@std@@QAEAAV01@ABV01@@Z
_TEXT	SEGMENT
__Right$ = 8						; size = 4
$T3 = 8							; size = 4
??4?$vector@KV?$allocator@K@std@@@std@@QAEAAV01@ABV01@@Z PROC ; std::vector<unsigned long,std::allocator<unsigned long> >::operator=, COMDAT
; _this$ = ecx

; 1523 :     _CONSTEXPR20 vector& operator=(const vector& _Right) {

  00000	55		 push	 ebp
  00001	8b ec		 mov	 ebp, esp
  00003	53		 push	 ebx
  00004	56		 push	 esi
  00005	57		 push	 edi

; 1524 :         if (this == _STD addressof(_Right)) {

  00006	8b 7d 08	 mov	 edi, DWORD PTR __Right$[ebp]
  00009	8b f1		 mov	 esi, ecx
  0000b	3b f7		 cmp	 esi, edi
  0000d	0f 84 ed 00 00
	00		 je	 $LN105@operator

; 1525 :             return *this;
; 1526 :         }
; 1527 : 
; 1528 :         auto& _Al       = _Getal();
; 1529 :         auto& _Right_al = _Right._Getal();
; 1530 :         if constexpr (_Choose_pocca_v<_Alty>) {
; 1531 :             if (_Al != _Right_al) {
; 1532 :                 _Tidy();
; 1533 :                 _Mypair._Myval2._Reload_proxy(_GET_PROXY_ALLOCATOR(_Alty, _Al), _GET_PROXY_ALLOCATOR(_Alty, _Right_al));
; 1534 :             }
; 1535 :         }
; 1536 : 
; 1537 :         _Pocca(_Al, _Right_al);
; 1538 :         auto& _Right_data = _Right._Mypair._Myval2;
; 1539 :         _Assign_counted_range(_Right_data._Myfirst, static_cast<size_type>(_Right_data._Mylast - _Right_data._Myfirst));

  00013	8b 07		 mov	 eax, DWORD PTR [edi]
  00015	8b 7f 04	 mov	 edi, DWORD PTR [edi+4]

; 1432 :         const auto _Oldcapacity = static_cast<size_type>(_Myend - _Myfirst);

  00018	8b 56 08	 mov	 edx, DWORD PTR [esi+8]

; 1525 :             return *this;
; 1526 :         }
; 1527 : 
; 1528 :         auto& _Al       = _Getal();
; 1529 :         auto& _Right_al = _Right._Getal();
; 1530 :         if constexpr (_Choose_pocca_v<_Alty>) {
; 1531 :             if (_Al != _Right_al) {
; 1532 :                 _Tidy();
; 1533 :                 _Mypair._Myval2._Reload_proxy(_GET_PROXY_ALLOCATOR(_Alty, _Al), _GET_PROXY_ALLOCATOR(_Alty, _Right_al));
; 1534 :             }
; 1535 :         }
; 1536 : 
; 1537 :         _Pocca(_Al, _Right_al);
; 1538 :         auto& _Right_data = _Right._Mypair._Myval2;
; 1539 :         _Assign_counted_range(_Right_data._Myfirst, static_cast<size_type>(_Right_data._Mylast - _Right_data._Myfirst));

  0001b	2b f8		 sub	 edi, eax

; 1432 :         const auto _Oldcapacity = static_cast<size_type>(_Myend - _Myfirst);

  0001d	8b 0e		 mov	 ecx, DWORD PTR [esi]
  0001f	2b d1		 sub	 edx, ecx

; 1525 :             return *this;
; 1526 :         }
; 1527 : 
; 1528 :         auto& _Al       = _Getal();
; 1529 :         auto& _Right_al = _Right._Getal();
; 1530 :         if constexpr (_Choose_pocca_v<_Alty>) {
; 1531 :             if (_Al != _Right_al) {
; 1532 :                 _Tidy();
; 1533 :                 _Mypair._Myval2._Reload_proxy(_GET_PROXY_ALLOCATOR(_Alty, _Al), _GET_PROXY_ALLOCATOR(_Alty, _Right_al));
; 1534 :             }
; 1535 :         }
; 1536 : 
; 1537 :         _Pocca(_Al, _Right_al);
; 1538 :         auto& _Right_data = _Right._Mypair._Myval2;
; 1539 :         _Assign_counted_range(_Right_data._Myfirst, static_cast<size_type>(_Right_data._Mylast - _Right_data._Myfirst));

  00021	c1 ff 02	 sar	 edi, 2

; 1432 :         const auto _Oldcapacity = static_cast<size_type>(_Myend - _Myfirst);

  00024	c1 fa 02	 sar	 edx, 2

; 1525 :             return *this;
; 1526 :         }
; 1527 : 
; 1528 :         auto& _Al       = _Getal();
; 1529 :         auto& _Right_al = _Right._Getal();
; 1530 :         if constexpr (_Choose_pocca_v<_Alty>) {
; 1531 :             if (_Al != _Right_al) {
; 1532 :                 _Tidy();
; 1533 :                 _Mypair._Myval2._Reload_proxy(_GET_PROXY_ALLOCATOR(_Alty, _Al), _GET_PROXY_ALLOCATOR(_Alty, _Right_al));
; 1534 :             }
; 1535 :         }
; 1536 : 
; 1537 :         _Pocca(_Al, _Right_al);
; 1538 :         auto& _Right_data = _Right._Mypair._Myval2;
; 1539 :         _Assign_counted_range(_Right_data._Myfirst, static_cast<size_type>(_Right_data._Mylast - _Right_data._Myfirst));

  00027	89 45 08	 mov	 DWORD PTR $T3[ebp], eax

; 1433 :         if (_Newsize > _Oldcapacity) {

  0002a	3b fa		 cmp	 edi, edx
  0002c	0f 86 97 00 00
	00		 jbe	 $LN8@operator

; 1703 :         if (_Newsize > max_size()) {

  00032	81 ff ff ff ff
	3f		 cmp	 edi, 1073741823		; 3fffffffH
  00038	0f 87 cb 00 00
	00		 ja	 $LN108@operator

; 2011 :         if (_Oldcapacity > _Max - _Oldcapacity / 2) {

  0003e	8b da		 mov	 ebx, edx
  00040	b8 ff ff ff 3f	 mov	 eax, 1073741823		; 3fffffffH
  00045	d1 eb		 shr	 ebx, 1
  00047	2b c3		 sub	 eax, ebx
  00049	3b d0		 cmp	 edx, eax
  0004b	76 07		 jbe	 SHORT $LN19@operator

; 2012 :             return _Max; // geometric growth would overflow

  0004d	bb ff ff ff 3f	 mov	 ebx, 1073741823		; 3fffffffH
  00052	eb 07		 jmp	 SHORT $LN20@operator
$LN19@operator:

; 2013 :         }
; 2014 : 
; 2015 :         const size_type _Geometric = _Oldcapacity + _Oldcapacity / 2;

  00054	03 da		 add	 ebx, edx

; 2016 : 
; 2017 :         if (_Geometric < _Newsize) {

  00056	3b df		 cmp	 ebx, edi
  00058	0f 42 df	 cmovb	 ebx, edi
$LN20@operator:

; 1709 :         if (_Myfirst) { // destroy and deallocate old array

  0005b	85 c9		 test	 ecx, ecx
  0005d	74 1b		 je	 SHORT $LN16@operator

; 1710 :             _Destroy_range(_Myfirst, _Mylast, _Al);
; 1711 :             _ASAN_VECTOR_REMOVE;
; 1712 :             _Al.deallocate(_Myfirst, static_cast<size_type>(_Myend - _Myfirst));

  0005f	52		 push	 edx
  00060	51		 push	 ecx
  00061	e8 00 00 00 00	 call	 ?deallocate@?$allocator@K@std@@QAEXQAKI@Z ; std::allocator<unsigned long>::deallocate

; 1713 : 
; 1714 :             _Myfirst = nullptr;

  00066	c7 06 00 00 00
	00		 mov	 DWORD PTR [esi], 0

; 1715 :             _Mylast  = nullptr;

  0006c	c7 46 04 00 00
	00 00		 mov	 DWORD PTR [esi+4], 0

; 1716 :             _Myend   = nullptr;

  00073	c7 46 08 00 00
	00 00		 mov	 DWORD PTR [esi+8], 0
$LN16@operator:
; File C:\Program Files\Microsoft Visual Studio\2022\Community\VC\Tools\MSVC\14.44.35207\include\xmemory

; 117  :         if (_Count > _Max_possible) {

  0007a	81 fb ff ff ff
	3f		 cmp	 ebx, 1073741823		; 3fffffffH
  00080	0f 87 88 00 00
	00		 ja	 $LN109@operator

; 119  :         }
; 120  :     }
; 121  : 
; 122  :     return _Count * _Ty_size;

  00086	c1 e3 02	 shl	 ebx, 2

; 227  :     if (_Bytes == 0) {

  00089	85 db		 test	 ebx, ebx
  0008b	75 12		 jne	 SHORT $LN36@operator

; 228  :         return nullptr;

  0008d	33 c9		 xor	 ecx, ecx
; File C:\Program Files\Microsoft Visual Studio\2022\Community\VC\Tools\MSVC\14.44.35207\include\vector

; 2035 :         _Myfirst              = _Newvec;

  0008f	89 0e		 mov	 DWORD PTR [esi], ecx

; 2036 :         _Mylast               = _Newvec;

  00091	89 4e 04	 mov	 DWORD PTR [esi+4], ecx

; 2037 :         _Myend                = _Newvec + _Newcapacity;

  00094	8d 04 0b	 lea	 eax, DWORD PTR [ebx+ecx]
  00097	89 46 08	 mov	 DWORD PTR [esi+8], eax

; 1442 :             return;

  0009a	8b 45 08	 mov	 eax, DWORD PTR $T3[ebp]
  0009d	eb 4e		 jmp	 SHORT $LN9@operator
$LN36@operator:
; File C:\Program Files\Microsoft Visual Studio\2022\Community\VC\Tools\MSVC\14.44.35207\include\xmemory

; 251  :         if (_Bytes >= _Big_allocation_threshold) {

  0009f	53		 push	 ebx
  000a0	81 fb 00 10 00
	00		 cmp	 ebx, 4096		; 00001000H
  000a6	72 07		 jb	 SHORT $LN38@operator

; 252  :             // boost the alignment of big allocations to help autovectorization
; 253  :             return _Allocate_manually_vector_aligned<_Traits>(_Bytes);

  000a8	e8 00 00 00 00	 call	 ??$_Allocate_manually_vector_aligned@U_Default_allocate_traits@std@@@std@@YAPAXI@Z ; std::_Allocate_manually_vector_aligned<std::_Default_allocate_traits>
  000ad	eb 05		 jmp	 SHORT $LN106@operator
$LN38@operator:

; 136  :         return ::operator new(_Bytes);

  000af	e8 00 00 00 00	 call	 ??2@YAPAXI@Z		; operator new
$LN106@operator:
; File C:\Program Files\Microsoft Visual Studio\2022\Community\VC\Tools\MSVC\14.44.35207\include\vector

; 2035 :         _Myfirst              = _Newvec;

  000b4	8b c8		 mov	 ecx, eax
  000b6	83 c4 04	 add	 esp, 4
  000b9	89 0e		 mov	 DWORD PTR [esi], ecx

; 2036 :         _Mylast               = _Newvec;

  000bb	89 4e 04	 mov	 DWORD PTR [esi+4], ecx

; 2037 :         _Myend                = _Newvec + _Newcapacity;

  000be	8d 04 0b	 lea	 eax, DWORD PTR [ebx+ecx]
  000c1	89 46 08	 mov	 DWORD PTR [esi+8], eax

; 1442 :             return;

  000c4	8b 45 08	 mov	 eax, DWORD PTR $T3[ebp]
  000c7	eb 24		 jmp	 SHORT $LN9@operator
$LN8@operator:

; 1443 :         }
; 1444 : 
; 1445 :         const auto _Oldsize = static_cast<size_type>(_Mylast - _Myfirst);

  000c9	8b 5e 04	 mov	 ebx, DWORD PTR [esi+4]
  000cc	2b d9		 sub	 ebx, ecx
  000ce	c1 fb 02	 sar	 ebx, 2

; 1446 :         if (_Newsize > _Oldsize) {

  000d1	3b fb		 cmp	 edi, ebx
  000d3	76 18		 jbe	 SHORT $LN9@operator

; 1447 :             bool _Copied = false;
; 1448 :             if constexpr (_Iter_copy_cat<_Iter, pointer>::_Bitcopy_assignable) {
; 1449 : #if _HAS_CXX20
; 1450 :                 if (!_STD is_constant_evaluated())
; 1451 : #endif // _HAS_CXX20
; 1452 :                 {
; 1453 :                     _Copy_memmove_n(_First, static_cast<size_t>(_Oldsize), _Myfirst);

  000d5	51		 push	 ecx
  000d6	8b d3		 mov	 edx, ebx
  000d8	8b c8		 mov	 ecx, eax
  000da	e8 00 00 00 00	 call	 ??$_Copy_memmove_n@PAKPAK@std@@YAPAKPAKI0@Z ; std::_Copy_memmove_n<unsigned long *,unsigned long *>

; 1454 :                     _First += _Oldsize;

  000df	8b 45 08	 mov	 eax, DWORD PTR $T3[ebp]
  000e2	83 c4 04	 add	 esp, 4

; 1455 :                     _Copied = true;

  000e5	8b 4e 04	 mov	 ecx, DWORD PTR [esi+4]

; 1456 :                 }
; 1457 :             }
; 1458 : 
; 1459 :             if (!_Copied) {
; 1460 :                 for (auto _Mid = _Myfirst; _Mid != _Mylast; ++_Mid, (void) ++_First) {
; 1461 :                     *_Mid = *_First;
; 1462 :                 }
; 1463 :             }
; 1464 : 
; 1465 :             if constexpr (_Nothrow_construct) {
; 1466 :                 _ASAN_VECTOR_MODIFY(static_cast<difference_type>(_Newsize - _Oldsize));
; 1467 :                 _Mylast = _STD _Uninitialized_copy_n(_STD move(_First), _Newsize - _Oldsize, _Mylast, _Al);

  000e8	2b fb		 sub	 edi, ebx
  000ea	8d 04 98	 lea	 eax, DWORD PTR [eax+ebx*4]
$LN9@operator:

; 1540 : 
; 1541 :         return *this;

  000ed	8d 1c b9	 lea	 ebx, DWORD PTR [ecx+edi*4]
  000f0	8b d7		 mov	 edx, edi
  000f2	51		 push	 ecx
  000f3	8b c8		 mov	 ecx, eax
  000f5	e8 00 00 00 00	 call	 ??$_Copy_memmove_n@PAKPAK@std@@YAPAKPAKI0@Z ; std::_Copy_memmove_n<unsigned long *,unsigned long *>
  000fa	83 c4 04	 add	 esp, 4
  000fd	89 5e 04	 mov	 DWORD PTR [esi+4], ebx
$LN105@operator:

; 1542 :     }

  00100	5f		 pop	 edi
  00101	8b c6		 mov	 eax, esi
  00103	5e		 pop	 esi
  00104	5b		 pop	 ebx
  00105	5d		 pop	 ebp
  00106	c2 04 00	 ret	 4
$LN108@operator:

; 1704 :             _Xlength();

  00109	e8 00 00 00 00	 call	 ?_Xlength@?$vector@KV?$allocator@K@std@@@std@@CAXXZ ; std::vector<unsigned long,std::allocator<unsigned long> >::_Xlength
$LN109@operator:
; File C:\Program Files\Microsoft Visual Studio\2022\Community\VC\Tools\MSVC\14.44.35207\include\xmemory

; 118  :             _Throw_bad_array_new_length(); // multiply overflow

  0010e	e8 00 00 00 00	 call	 ?_Throw_bad_array_new_length@std@@YAXXZ ; std::_Throw_bad_array_new_length
$LN104@operator:
  00113	cc		 int	 3
??4?$vector@KV?$allocator@K@std@@@std@@QAEAAV01@ABV01@@Z ENDP ; std::vector<unsigned long,std::allocator<unsigned long> >::operator=
_TEXT	ENDS
; Function compile flags: /Ogtp
; File C:\Program Files\Microsoft Visual Studio\2022\Community\VC\Tools\MSVC\14.44.35207\include\vector
; File C:\Program Files\Microsoft Visual Studio\2022\Community\VC\Tools\MSVC\14.44.35207\include\xmemory
; File C:\Program Files\Microsoft Visual Studio\2022\Community\VC\Tools\MSVC\14.44.35207\include\vector
; File C:\Program Files\Microsoft Visual Studio\2022\Community\VC\Tools\MSVC\14.44.35207\include\xmemory
; File C:\Program Files\Microsoft Visual Studio\2022\Community\VC\Tools\MSVC\14.44.35207\include\vector
; File C:\Program Files\Microsoft Visual Studio\2022\Community\VC\Tools\MSVC\14.44.35207\include\xmemory
; File C:\Program Files\Microsoft Visual Studio\2022\Community\VC\Tools\MSVC\14.44.35207\include\vector
;	COMDAT ??1?$vector@KV?$allocator@K@std@@@std@@QAE@XZ
_TEXT	SEGMENT
??1?$vector@KV?$allocator@K@std@@@std@@QAE@XZ PROC	; std::vector<unsigned long,std::allocator<unsigned long> >::~vector<unsigned long,std::allocator<unsigned long> >, COMDAT
; _this$ = ecx

; 829  :     _CONSTEXPR20 ~vector() noexcept {

  00000	56		 push	 esi
  00001	8b f1		 mov	 esi, ecx

; 2090 :         if (_Myfirst) { // destroy and deallocate old array

  00003	8b 06		 mov	 eax, DWORD PTR [esi]
  00005	85 c0		 test	 eax, eax
  00007	74 40		 je	 SHORT $LN5@vector

; 2091 :             _STD _Destroy_range(_Myfirst, _Mylast, _Al);
; 2092 :             _ASAN_VECTOR_REMOVE;
; 2093 :             _Al.deallocate(_Myfirst, static_cast<size_type>(_Myend - _Myfirst));

  00009	8b 4e 08	 mov	 ecx, DWORD PTR [esi+8]
  0000c	2b c8		 sub	 ecx, eax
; File C:\Program Files\Microsoft Visual Studio\2022\Community\VC\Tools\MSVC\14.44.35207\include\xmemory

; 985  :         _STD _Deallocate<_New_alignof<_Ty>>(_Ptr, sizeof(_Ty) * _Count);

  0000e	83 e1 fc	 and	 ecx, -4			; fffffffcH

; 284  :         if (_Bytes >= _Big_allocation_threshold) {

  00011	81 f9 00 10 00
	00		 cmp	 ecx, 4096		; 00001000H
  00017	72 12		 jb	 SHORT $LN19@vector

; 205  :     const uintptr_t _Ptr_container   = _Ptr_user[-1];

  00019	8b 50 fc	 mov	 edx, DWORD PTR [eax-4]
  0001c	83 c1 23	 add	 ecx, 35			; 00000023H

; 206  : 
; 207  :     // If the following asserts, it likely means that we are performing
; 208  :     // an aligned delete on memory coming from an unaligned allocation.
; 209  :     _STL_ASSERT(_Ptr_user[-2] == _Big_allocation_sentinel, "invalid argument");
; 210  : 
; 211  :     // Extra paranoia on aligned allocation/deallocation; ensure _Ptr_container is
; 212  :     // in range [_Min_back_shift, _Non_user_size]
; 213  : #ifdef _DEBUG
; 214  :     constexpr uintptr_t _Min_back_shift = 2 * sizeof(void*);
; 215  : #else // ^^^ defined(_DEBUG) / !defined(_DEBUG) vvv
; 216  :     constexpr uintptr_t _Min_back_shift = sizeof(void*);
; 217  : #endif // ^^^ !defined(_DEBUG) ^^^
; 218  :     const uintptr_t _Back_shift = reinterpret_cast<uintptr_t>(_Ptr) - _Ptr_container;

  0001f	2b c2		 sub	 eax, edx

; 219  :     _STL_VERIFY(_Back_shift >= _Min_back_shift && _Back_shift <= _Non_user_size, "invalid argument");

  00021	83 c0 fc	 add	 eax, -4			; fffffffcH
  00024	83 f8 1f	 cmp	 eax, 31			; 0000001fH
  00027	77 22		 ja	 SHORT $LN18@vector

; 220  :     _Ptr = reinterpret_cast<void*>(_Ptr_container);

  00029	8b c2		 mov	 eax, edx
$LN19@vector:

; 289  :         ::operator delete(_Ptr, _Bytes);

  0002b	51		 push	 ecx
  0002c	50		 push	 eax
  0002d	e8 00 00 00 00	 call	 ??3@YAXPAXI@Z		; operator delete
; File C:\Program Files\Microsoft Visual Studio\2022\Community\VC\Tools\MSVC\14.44.35207\include\vector

; 2095 :             _Myfirst = nullptr;

  00032	c7 06 00 00 00
	00		 mov	 DWORD PTR [esi], 0
; File C:\Program Files\Microsoft Visual Studio\2022\Community\VC\Tools\MSVC\14.44.35207\include\xmemory

; 289  :         ::operator delete(_Ptr, _Bytes);

  00038	83 c4 08	 add	 esp, 8
; File C:\Program Files\Microsoft Visual Studio\2022\Community\VC\Tools\MSVC\14.44.35207\include\vector

; 2096 :             _Mylast  = nullptr;

  0003b	c7 46 04 00 00
	00 00		 mov	 DWORD PTR [esi+4], 0

; 2097 :             _Myend   = nullptr;

  00042	c7 46 08 00 00
	00 00		 mov	 DWORD PTR [esi+8], 0
$LN5@vector:
  00049	5e		 pop	 esi

; 835  :     }

  0004a	c3		 ret	 0
$LN18@vector:
; File C:\Program Files\Microsoft Visual Studio\2022\Community\VC\Tools\MSVC\14.44.35207\include\xmemory

; 219  :     _STL_VERIFY(_Back_shift >= _Min_back_shift && _Back_shift <= _Non_user_size, "invalid argument");

  0004b	6a 00		 push	 0
  0004d	6a 00		 push	 0
  0004f	6a 00		 push	 0
  00051	6a 00		 push	 0
  00053	6a 00		 push	 0
  00055	e8 00 00 00 00	 call	 __invoke_watson
$LN27@vector:
  0005a	cc		 int	 3
??1?$vector@KV?$allocator@K@std@@@std@@QAE@XZ ENDP	; std::vector<unsigned long,std::allocator<unsigned long> >::~vector<unsigned long,std::allocator<unsigned long> >
_TEXT	ENDS
; Function compile flags: /Ogtp
; File C:\Program Files\Microsoft Visual Studio\2022\Community\VC\Tools\MSVC\14.44.35207\include\vector
;	COMDAT ??0?$vector@KV?$allocator@K@std@@@std@@QAE@XZ
_TEXT	SEGMENT
??0?$vector@KV?$allocator@K@std@@@std@@QAE@XZ PROC	; std::vector<unsigned long,std::allocator<unsigned long> >::vector<unsigned long,std::allocator<unsigned long> >, COMDAT
; _this$ = ecx

; 400  :     _CONSTEXPR20 _Vector_val() noexcept : _Myfirst(), _Mylast(), _Myend() {}

  00000	c7 01 00 00 00
	00		 mov	 DWORD PTR [ecx], 0

; 671  :         _Mypair._Myval2._Alloc_proxy(_GET_PROXY_ALLOCATOR(_Alty, _Getal()));
; 672  :     }

  00006	8b c1		 mov	 eax, ecx

; 400  :     _CONSTEXPR20 _Vector_val() noexcept : _Myfirst(), _Mylast(), _Myend() {}

  00008	c7 41 04 00 00
	00 00		 mov	 DWORD PTR [ecx+4], 0
  0000f	c7 41 08 00 00
	00 00		 mov	 DWORD PTR [ecx+8], 0

; 671  :         _Mypair._Myval2._Alloc_proxy(_GET_PROXY_ALLOCATOR(_Alty, _Getal()));
; 672  :     }

  00016	c3		 ret	 0
??0?$vector@KV?$allocator@K@std@@@std@@QAE@XZ ENDP	; std::vector<unsigned long,std::allocator<unsigned long> >::vector<unsigned long,std::allocator<unsigned long> >
_TEXT	ENDS
; Function compile flags: /Ogtp
; File D:\_m2work\txoko-m2-work\txoko-client-src\source\eterBase\Singleton.h
;	COMDAT ??_G?$CSingleton@VCGuildMarkDownloader@@@@UAEPAXI@Z
_TEXT	SEGMENT
___flags$ = 8						; size = 4
??_G?$CSingleton@VCGuildMarkDownloader@@@@UAEPAXI@Z PROC ; CSingleton<CGuildMarkDownloader>::`scalar deleting destructor', COMDAT
; _this$ = ecx
  00000	55		 push	 ebp
  00001	8b ec		 mov	 ebp, esp
  00003	f6 45 08 01	 test	 BYTE PTR ___flags$[ebp], 1

; 19   : 	{ 

  00007	56		 push	 esi
  00008	8b f1		 mov	 esi, ecx

; 20   : 		assert(ms_singleton);
; 21   : 		ms_singleton = 0; 

  0000a	c7 05 00 00 00
	00 00 00 00 00	 mov	 DWORD PTR ?ms_singleton@?$CSingleton@VCGuildMarkDownloader@@@@0PAVCGuildMarkDownloader@@A, 0 ; CSingleton<CGuildMarkDownloader>::ms_singleton
  00014	c7 06 00 00 00
	00		 mov	 DWORD PTR [esi], OFFSET ??_7?$CSingleton@VCGuildMarkDownloader@@@@6B@
  0001a	74 0b		 je	 SHORT $LN8@scalar
  0001c	6a 04		 push	 4
  0001e	56		 push	 esi
  0001f	e8 00 00 00 00	 call	 ??3@YAXPAXI@Z		; operator delete
  00024	83 c4 08	 add	 esp, 8
$LN8@scalar:
  00027	8b c6		 mov	 eax, esi
  00029	5e		 pop	 esi
  0002a	5d		 pop	 ebp
  0002b	c2 04 00	 ret	 4
??_G?$CSingleton@VCGuildMarkDownloader@@@@UAEPAXI@Z ENDP ; CSingleton<CGuildMarkDownloader>::`scalar deleting destructor'
_TEXT	ENDS
; Function compile flags: /Ogtp
; File C:\Program Files\Microsoft Visual Studio\2022\Community\VC\Tools\MSVC\14.44.35207\include\xmemory
;	COMDAT ??$_Destroy_range@V?$allocator@K@std@@@std@@YAXPAKQAKAAV?$allocator@K@0@@Z
_TEXT	SEGMENT
__Al$dead$ = 8						; size = 4
??$_Destroy_range@V?$allocator@K@std@@@std@@YAXPAKQAKAAV?$allocator@K@0@@Z PROC ; std::_Destroy_range<std::allocator<unsigned long> >, COMDAT
; __First$dead$ = ecx
; __Last$dead$ = edx

; 1099 :     // note that this is an optimization for debug mode codegen; in release mode the BE removes all of this
; 1100 :     using _Ty = typename _Alloc::value_type;
; 1101 :     if constexpr (!conjunction_v<is_trivially_destructible<_Ty>, _Uses_default_destroy<_Alloc, _Ty*>>) {
; 1102 :         for (; _First != _Last; ++_First) {
; 1103 :             allocator_traits<_Alloc>::destroy(_Al, _STD _Unfancy(_First));
; 1104 :         }
; 1105 :     }
; 1106 : }

  00000	c2 00 00	 ret	 0
??$_Destroy_range@V?$allocator@K@std@@@std@@YAXPAKQAKAAV?$allocator@K@0@@Z ENDP ; std::_Destroy_range<std::allocator<unsigned long> >
_TEXT	ENDS
; Function compile flags: /Ogtp
; File C:\Program Files\Microsoft Visual Studio\2022\Community\VC\Tools\MSVC\14.44.35207\include\type_traits
;	COMDAT ??$addressof@$$CBV?$vector@KV?$allocator@K@std@@@std@@@std@@YAPBV?$vector@KV?$allocator@K@std@@@0@ABV10@@Z
_TEXT	SEGMENT
??$addressof@$$CBV?$vector@KV?$allocator@K@std@@@std@@@std@@YAPBV?$vector@KV?$allocator@K@std@@@0@ABV10@@Z PROC ; std::addressof<std::vector<unsigned long,std::allocator<unsigned long> > const >, COMDAT
; __Val$ = ecx

; 1525 :     return __builtin_addressof(_Val);

  00000	8b c1		 mov	 eax, ecx

; 1526 : }

  00002	c3		 ret	 0
??$addressof@$$CBV?$vector@KV?$allocator@K@std@@@std@@@std@@YAPBV?$vector@KV?$allocator@K@std@@@0@ABV10@@Z ENDP ; std::addressof<std::vector<unsigned long,std::allocator<unsigned long> > const >
_TEXT	ENDS
; Function compile flags: /Ogtp
