; Listing generated by Microsoft (R) Optimizing Compiler Version 19.44.35217.0 

	TITLE	d:\_m2work\txoko-m2-work\txoko-client-src\vs_files\userinterface\distribute\instancebasemovement.obj
	.686P
	.XMM
	include listing.inc
	.model	flat

INCLUDELIB OLDNAMES

PUBLIC	??_C@_0CJ@ECOCCIHP@Failed?5to?5move?5next?5position?5?$CI?$CF@ ; `string'
EXTRN	?SetWalkMode@CActorInstance@@QAEXXZ:PROC	; CActorInstance::SetWalkMode
EXTRN	?SetRunMode@CActorInstance@@QAEXXZ:PROC		; CActorInstance::SetRunMode
EXTRN	?isAttacking@CActorInstance@@QAEHXZ:PROC	; CActorInstance::isAttacking
EXTRN	?IsAttacked@CActorInstance@@QAEHXZ:PROC		; CActorInstance::IsAttacked
EXTRN	?IsMoving@CActorInstance@@QAEHXZ:PROC		; CActorInstance::IsMoving
EXTRN	?IsWaiting@CActorInstance@@QAEHXZ:PROC		; CActorInstance::IsWaiting
EXTRN	?Move@CActorInstance@@QAEXXZ:PROC		; CActorInstance::Move
EXTRN	?GetDegreeDifference@@YAMMM@Z:PROC		; GetDegreeDifference
EXTRN	?TEMP_Push@CActorInstance@@QAEXHH@Z:PROC	; CActorInstance::TEMP_Push
EXTRN	?__OnStop@CActorInstance@@QAEXXZ:PROC		; CActorInstance::__OnStop
;	COMDAT ??_C@_0CJ@ECOCCIHP@Failed?5to?5move?5next?5position?5?$CI?$CF@
CONST	SEGMENT
??_C@_0CJ@ECOCCIHP@Failed?5to?5move?5next?5position?5?$CI?$CF@ DB 'Failed'
	DB	' to move next position (%f,%f, %f)', 00H	; `string'
PUBLIC	?floor@@YAMM@Z					; floor
PUBLIC	?D3DXVec3Scale@@YAPAUD3DXVECTOR3@@PAU1@PBU1@M@Z	; D3DXVec3Scale
PUBLIC	?D3DXVec3Add@@YAPAUD3DXVECTOR3@@PAU1@PBU1@1@Z	; D3DXVec3Add
PUBLIC	?SetWalkMode@CInstanceBase@@QAEXXZ		; CInstanceBase::SetWalkMode
PUBLIC	?SetRunMode@CInstanceBase@@QAEXXZ		; CInstanceBase::SetRunMode
PUBLIC	?NEW_MoveToDirection@CInstanceBase@@QAEXM@Z	; CInstanceBase::NEW_MoveToDirection
PUBLIC	?NEW_Goto@CInstanceBase@@QAE_NABUD3DXVECTOR3@@M@Z ; CInstanceBase::NEW_Goto
PUBLIC	?NEW_MoveToDestInstanceDirection@CInstanceBase@@QAEXAAV1@@Z ; CInstanceBase::NEW_MoveToDestInstanceDirection
PUBLIC	?IsActingEmotion@CInstanceBase@@QAEHXZ		; CInstanceBase::IsActingEmotion
PUBLIC	?IsAttacked@CInstanceBase@@QAEHXZ		; CInstanceBase::IsAttacked
PUBLIC	?IsPushing@CInstanceBase@@QAEHXZ		; CInstanceBase::IsPushing
PUBLIC	?NEW_SetAdvancingRotationFromPixelPosition@CInstanceBase@@QAEXABUD3DXVECTOR3@@0@Z ; CInstanceBase::NEW_SetAdvancingRotationFromPixelPosition
PUBLIC	?NEW_SetAdvancingRotationFromDirPixelPosition@CInstanceBase@@QAEXABUD3DXVECTOR3@@@Z ; CInstanceBase::NEW_SetAdvancingRotationFromDirPixelPosition
PUBLIC	?NEW_GetAdvancingRotationFromDirPixelPosition@CInstanceBase@@QAEMABUD3DXVECTOR3@@@Z ; CInstanceBase::NEW_GetAdvancingRotationFromDirPixelPosition
PUBLIC	?CInstanceBase_GetDegreeFromPosition@@YAMMM@Z	; CInstanceBase_GetDegreeFromPosition
PUBLIC	?NEW_CanMoveToDestPixelPosition@CInstanceBase@@QAE_NABUD3DXVECTOR3@@@Z ; CInstanceBase::NEW_CanMoveToDestPixelPosition
PUBLIC	?NEW_SyncPixelPosition@CInstanceBase@@QAEXAAJ0@Z ; CInstanceBase::NEW_SyncPixelPosition
PUBLIC	?ClampDegree@@YAMM@Z				; ClampDegree
PUBLIC	?IsKnockDown@CInstanceBase@@QAEHXZ		; CInstanceBase::IsKnockDown
PUBLIC	?EndGoing@CInstanceBase@@QAEXXZ			; CInstanceBase::EndGoing
PUBLIC	?IsAttacking@CInstanceBase@@QAEHXZ		; CInstanceBase::IsAttacking
PUBLIC	?NEW_MoveToDestPixelPositionDirection@CInstanceBase@@QAE_NABUD3DXVECTOR3@@@Z ; CInstanceBase::NEW_MoveToDestPixelPositionDirection
PUBLIC	?NEW_Stop@CInstanceBase@@QAEXXZ			; CInstanceBase::NEW_Stop
PUBLIC	?SetMoveSpeed@CInstanceBase@@QAEXI@Z		; CInstanceBase::SetMoveSpeed
PUBLIC	?SetAttackSpeed@CInstanceBase@@QAEXI@Z		; CInstanceBase::SetAttackSpeed
PUBLIC	?SetRotationSpeed@CInstanceBase@@QAEXM@Z	; CInstanceBase::SetRotationSpeed
PUBLIC	?IsWalking@CInstanceBase@@QAEHXZ		; CInstanceBase::IsWalking
PUBLIC	?StartWalking@CInstanceBase@@IAEXXZ		; CInstanceBase::StartWalking
PUBLIC	?IsWaiting@CInstanceBase@@QAEHXZ		; CInstanceBase::IsWaiting
PUBLIC	?EndWalking@CInstanceBase@@QAEXM@Z		; CInstanceBase::EndWalking
PUBLIC	?SetAdvancingRotation@CInstanceBase@@QAEXM@Z	; CInstanceBase::SetAdvancingRotation
PUBLIC	?NEW_GetAdvancingRotationFromPixelPosition@CInstanceBase@@QAEMABUD3DXVECTOR3@@0@Z ; CInstanceBase::NEW_GetAdvancingRotationFromPixelPosition
PUBLIC	?EndWalkingWithoutBlending@CInstanceBase@@QAEXXZ ; CInstanceBase::EndWalkingWithoutBlending
; Function compile flags: /Ogtp
; File D:\_m2work\txoko-m2-work\txoko-client-src\source\UserInterface\InstanceBaseMovement.cpp
;	COMDAT ?EndWalkingWithoutBlending@CInstanceBase@@QAEXXZ
_TEXT	SEGMENT
?EndWalkingWithoutBlending@CInstanceBase@@QAEXXZ PROC	; CInstanceBase::EndWalkingWithoutBlending, COMDAT
; _this$ = ecx

; 185  : {

  00000	0f 57 c9	 xorps	 xmm1, xmm1

; 186  : 	EndWalking(0.0f);

  00003	e9 00 00 00 00	 jmp	 ?EndWalking@CInstanceBase@@QAEXM@Z ; CInstanceBase::EndWalking
?EndWalkingWithoutBlending@CInstanceBase@@QAEXXZ ENDP	; CInstanceBase::EndWalkingWithoutBlending
_TEXT	ENDS
; Function compile flags: /Ogtp
; File D:\_m2work\txoko-m2-work\txoko-client-src\source\UserInterface\InstanceBaseMovement.cpp
; File D:\_m2work\txoko-m2-work\txoko-client-src\extern\include\d3dx8math.inl
; File D:\_m2work\txoko-m2-work\txoko-client-src\source\UserInterface\InstanceBaseMovement.cpp
; File D:\_m2work\txoko-m2-work\txoko-client-src\extern\include\d3dx8math.inl
; File D:\_m2work\txoko-m2-work\txoko-client-src\source\UserInterface\InstanceBaseMovement.cpp
; File D:\_m2work\txoko-m2-work\txoko-client-src\extern\include\d3dx8math.inl
; File D:\_m2work\txoko-m2-work\txoko-client-src\source\UserInterface\InstanceBaseMovement.cpp
;	COMDAT ?NEW_GetAdvancingRotationFromPixelPosition@CInstanceBase@@QAEMABUD3DXVECTOR3@@0@Z
_TEXT	SEGMENT
_kPPosDelta$ = -12					; size = 12
_c_rkPPosSrc$ = 8					; size = 4
_c_rkPPosDst$ = 12					; size = 4
?NEW_GetAdvancingRotationFromPixelPosition@CInstanceBase@@QAEMABUD3DXVECTOR3@@0@Z PROC ; CInstanceBase::NEW_GetAdvancingRotationFromPixelPosition, COMDAT
; _this$dead$ = ecx

; 93   : {

  00000	55		 push	 ebp
  00001	8b ec		 mov	 ebp, esp
  00003	83 ec 0c	 sub	 esp, 12			; 0000000cH
; File D:\_m2work\txoko-m2-work\txoko-client-src\extern\include\d3dx8math.inl

; 263  :     return D3DXVECTOR3(x - v.x, y - v.y, z - v.z);

  00006	8b 4d 0c	 mov	 ecx, DWORD PTR _c_rkPPosDst$[ebp]
  00009	8b 45 08	 mov	 eax, DWORD PTR _c_rkPPosSrc$[ebp]
  0000c	f3 0f 10 01	 movss	 xmm0, DWORD PTR [ecx]
  00010	f3 0f 5c 00	 subss	 xmm0, DWORD PTR [eax]
; File D:\_m2work\txoko-m2-work\txoko-client-src\source\UserInterface\InstanceBaseMovement.cpp

; 95   : 	kPPosDelta=c_rkPPosDst-c_rkPPosSrc;

  00014	f3 0f 11 45 f4	 movss	 DWORD PTR _kPPosDelta$[ebp], xmm0
; File D:\_m2work\txoko-m2-work\txoko-client-src\extern\include\d3dx8math.inl

; 263  :     return D3DXVECTOR3(x - v.x, y - v.y, z - v.z);

  00019	f3 0f 10 41 04	 movss	 xmm0, DWORD PTR [ecx+4]
  0001e	f3 0f 5c 40 04	 subss	 xmm0, DWORD PTR [eax+4]
; File D:\_m2work\txoko-m2-work\txoko-client-src\source\UserInterface\InstanceBaseMovement.cpp

; 95   : 	kPPosDelta=c_rkPPosDst-c_rkPPosSrc;

  00023	f3 0f 11 45 f8	 movss	 DWORD PTR _kPPosDelta$[ebp+4], xmm0
; File D:\_m2work\txoko-m2-work\txoko-client-src\extern\include\d3dx8math.inl

; 263  :     return D3DXVECTOR3(x - v.x, y - v.y, z - v.z);

  00028	f3 0f 10 41 08	 movss	 xmm0, DWORD PTR [ecx+8]
  0002d	f3 0f 5c 40 08	 subss	 xmm0, DWORD PTR [eax+8]
; File D:\_m2work\txoko-m2-work\txoko-client-src\source\UserInterface\InstanceBaseMovement.cpp

; 96   : 	return NEW_GetAdvancingRotationFromDirPixelPosition(kPPosDelta);

  00032	8d 45 f4	 lea	 eax, DWORD PTR _kPPosDelta$[ebp]
  00035	50		 push	 eax
  00036	f3 0f 11 45 fc	 movss	 DWORD PTR _kPPosDelta$[ebp+8], xmm0
  0003b	e8 00 00 00 00	 call	 ?NEW_GetAdvancingRotationFromDirPixelPosition@CInstanceBase@@QAEMABUD3DXVECTOR3@@@Z ; CInstanceBase::NEW_GetAdvancingRotationFromDirPixelPosition

; 97   : }

  00040	8b e5		 mov	 esp, ebp
  00042	5d		 pop	 ebp
  00043	c2 08 00	 ret	 8
?NEW_GetAdvancingRotationFromPixelPosition@CInstanceBase@@QAEMABUD3DXVECTOR3@@0@Z ENDP ; CInstanceBase::NEW_GetAdvancingRotationFromPixelPosition
_TEXT	ENDS
; Function compile flags: /Ogtp
; File D:\_m2work\txoko-m2-work\txoko-client-src\source\UserInterface\InstanceBaseMovement.cpp
; File D:\_m2work\txoko-m2-work\txoko-client-src\source\eterLib\GrpMath.h
; File D:\_m2work\txoko-m2-work\txoko-client-src\source\UserInterface\InstanceBaseMovement.cpp
;	COMDAT ?SetAdvancingRotation@CInstanceBase@@QAEXM@Z
_TEXT	SEGMENT
_fDegree$1$ = -8					; size = 4
tv128 = -8						; size = 4
tv94 = -4						; size = 4
tv153 = -4						; size = 4
?SetAdvancingRotation@CInstanceBase@@QAEXM@Z PROC	; CInstanceBase::SetAdvancingRotation, COMDAT
; _this$ = ecx
; _fRotation$ = xmm1s

; 136  : {

  00000	55		 push	 ebp
  00001	8b ec		 mov	 ebp, esp
  00003	83 ec 08	 sub	 esp, 8
  00006	56		 push	 esi
  00007	57		 push	 edi

; 137  : 	float frotDifference = GetDegreeDifference(GetRotation(), fRotation);

  00008	51		 push	 ecx
  00009	f3 0f 11 4d f8	 movss	 DWORD PTR _fDegree$1$[ebp], xmm1
  0000e	8b f1		 mov	 esi, ecx
  00010	f3 0f 11 0c 24	 movss	 DWORD PTR [esp], xmm1
  00015	e8 00 00 00 00	 call	 ?GetRotation@CInstanceBase@@QAEMXZ ; CInstanceBase::GetRotation
  0001a	51		 push	 ecx
  0001b	f3 0f 11 04 24	 movss	 DWORD PTR [esp], xmm0
  00020	e8 00 00 00 00	 call	 ?GetDegreeDifference@@YAMMM@Z ; GetDegreeDifference

; 138  : 
; 139  : 	if (frotDifference > 45.0f)

  00025	f3 0f 10 8e cc
	01 00 00	 movss	 xmm1, DWORD PTR [esi+460]
  0002d	83 c4 08	 add	 esp, 8
  00030	d9 5d fc	 fstp	 DWORD PTR tv153[ebp]
  00033	f3 0f 10 45 fc	 movss	 xmm0, DWORD PTR tv153[ebp]
  00038	0f 2f 05 00 00
	00 00		 comiss	 xmm0, DWORD PTR __real@42340000
  0003f	77 10		 ja	 SHORT $LN3@SetAdvanci

; 140  : 		m_fRotSpd = m_fMaxRotSpd;
; 141  : 	else
; 142  : 		m_fRotSpd = m_fMaxRotSpd * 5 / 12;

  00041	f3 0f 59 0d 00
	00 00 00	 mulss	 xmm1, DWORD PTR __real@40a00000
  00049	f3 0f 5e 0d 00
	00 00 00	 divss	 xmm1, DWORD PTR __real@41400000
$LN3@SetAdvanci:

; 144  : 	m_GraphicThingInstance.SetAdvancingRotation(ClampDegree(fRotation));

  00051	f3 0f 11 8e c8
	01 00 00	 movss	 DWORD PTR [esi+456], xmm1
; File D:\_m2work\txoko-m2-work\txoko-client-src\source\eterLib\GrpMath.h

; 34   : 	if (fDegree >= 360.0f)

  00059	f3 0f 10 15 00
	00 00 00	 movss	 xmm2, DWORD PTR __real@43b40000
  00061	f3 0f 10 4d f8	 movss	 xmm1, DWORD PTR _fDegree$1$[ebp]
  00066	0f 2f ca	 comiss	 xmm1, xmm2
  00069	72 04		 jb	 SHORT $LN6@SetAdvanci

; 35   : 		fDegree -= 360.0f;

  0006b	f3 0f 5c ca	 subss	 xmm1, xmm2
$LN6@SetAdvanci:
  0006f	0f 57 c0	 xorps	 xmm0, xmm0

; 36   : 	if (fDegree < 0.0f)

  00072	0f 2f c1	 comiss	 xmm0, xmm1
  00075	76 04		 jbe	 SHORT $LN7@SetAdvanci

; 37   : 		fDegree += 360.0f;

  00077	f3 0f 58 ca	 addss	 xmm1, xmm2
$LN7@SetAdvanci:
; File D:\_m2work\txoko-m2-work\txoko-client-src\source\UserInterface\InstanceBaseMovement.cpp

; 144  : 	m_GraphicThingInstance.SetAdvancingRotation(ClampDegree(fRotation));

  0007b	51		 push	 ecx
  0007c	8d 8e d4 01 00
	00		 lea	 ecx, DWORD PTR [esi+468]
  00082	f3 0f 11 0c 24	 movss	 DWORD PTR [esp], xmm1
  00087	e8 00 00 00 00	 call	 ?SetAdvancingRotation@CActorInstance@@QAEXM@Z ; CActorInstance::SetAdvancingRotation

; 145  : 	m_iRotatingDirection = GetRotatingDirection(m_GraphicThingInstance.GetRotation(),

  0008c	8d 8e d4 01 00
	00		 lea	 ecx, DWORD PTR [esi+468]
  00092	e8 00 00 00 00	 call	 ?GetAdvancingRotation@CActorInstance@@QAEMXZ ; CActorInstance::GetAdvancingRotation
  00097	d9 5d f8	 fstp	 DWORD PTR tv128[ebp]
  0009a	8d 8e d4 01 00
	00		 lea	 ecx, DWORD PTR [esi+468]
  000a0	e8 00 00 00 00	 call	 ?GetRotation@CActorInstance@@QAEMXZ ; CActorInstance::GetRotation
  000a5	f3 0f 10 45 f8	 movss	 xmm0, DWORD PTR tv128[ebp]
  000aa	83 ec 08	 sub	 esp, 8
  000ad	d9 5d fc	 fstp	 DWORD PTR tv94[ebp]
  000b0	f3 0f 11 44 24
	04		 movss	 DWORD PTR [esp+4], xmm0
  000b6	f3 0f 10 45 fc	 movss	 xmm0, DWORD PTR tv94[ebp]
  000bb	f3 0f 11 04 24	 movss	 DWORD PTR [esp], xmm0
  000c0	e8 00 00 00 00	 call	 ?GetRotatingDirection@@YAHMM@Z ; GetRotatingDirection
  000c5	83 c4 08	 add	 esp, 8
  000c8	89 86 74 01 00
	00		 mov	 DWORD PTR [esi+372], eax
  000ce	5f		 pop	 edi
  000cf	5e		 pop	 esi

; 146  : 												m_GraphicThingInstance.GetAdvancingRotation());
; 147  : }

  000d0	8b e5		 mov	 esp, ebp
  000d2	5d		 pop	 ebp
  000d3	c3		 ret	 0
?SetAdvancingRotation@CInstanceBase@@QAEXM@Z ENDP	; CInstanceBase::SetAdvancingRotation
_TEXT	ENDS
; Function compile flags: /Ogtp
; File D:\_m2work\txoko-m2-work\txoko-client-src\source\UserInterface\InstanceBaseMovement.cpp
;	COMDAT ?EndWalking@CInstanceBase@@QAEXM@Z
_TEXT	SEGMENT
_fBlendingTime$1$ = -4					; size = 4
?EndWalking@CInstanceBase@@QAEXM@Z PROC			; CInstanceBase::EndWalking, COMDAT
; _this$ = ecx
; _fBlendingTime$ = xmm1s

; 164  : {

  00000	55		 push	 ebp
  00001	8b ec		 mov	 ebp, esp
  00003	51		 push	 ecx
  00004	56		 push	 esi
  00005	8b f1		 mov	 esi, ecx
  00007	f3 0f 11 4d fc	 movss	 DWORD PTR _fBlendingTime$1$[ebp], xmm1

; 165  : 	assert (!IsWaiting() && "CInstanceBase::EndWalking");
; 166  : 
; 167  : 	m_isGoing = FALSE;

  0000c	c6 86 88 01 00
	00 00		 mov	 BYTE PTR [esi+392], 0

; 168  : 
; 169  : 	// 걷고 있을때는 무조건 멈추게 해야 한다
; 170  : 	if (IsWalking()||!IsAttacked())

  00013	e8 00 00 00 00	 call	 ?IsWalking@CInstanceBase@@QAEHXZ ; CInstanceBase::IsWalking
  00018	85 c0		 test	 eax, eax
  0001a	75 0b		 jne	 SHORT $LN3@EndWalking
  0001c	8b ce		 mov	 ecx, esi
  0001e	e8 00 00 00 00	 call	 ?IsAttacked@CInstanceBase@@QAEHXZ ; CInstanceBase::IsAttacked
  00023	85 c0		 test	 eax, eax
  00025	75 45		 jne	 SHORT $LN6@EndWalking
$LN3@EndWalking:

; 171  : 	{
; 172  : 		m_GraphicThingInstance.Stop(fBlendingTime);

  00027	f3 0f 10 45 fc	 movss	 xmm0, DWORD PTR _fBlendingTime$1$[ebp]
  0002c	51		 push	 ecx
  0002d	8d 8e d4 01 00
	00		 lea	 ecx, DWORD PTR [esi+468]
  00033	f3 0f 11 04 24	 movss	 DWORD PTR [esp], xmm0
  00038	e8 00 00 00 00	 call	 ?Stop@CActorInstance@@QAEXM@Z ; CActorInstance::Stop

; 173  : 		if (IsAffect(AFFECT_GYEONGGONG))

  0003d	6a 11		 push	 17			; 00000011H
  0003f	8b ce		 mov	 ecx, esi
  00041	e8 00 00 00 00	 call	 ?IsAffect@CInstanceBase@@QAE_NI@Z ; CInstanceBase::IsAffect
  00046	8b ce		 mov	 ecx, esi
  00048	84 c0		 test	 al, al
  0004a	74 0c		 je	 SHORT $LN4@EndWalking

; 174  : 		{
; 175  : 			__EffectContainer_DetachEffect(EFFECT_AFFECT_GYEONGGONG);

  0004c	6a 2c		 push	 44			; 0000002cH

; 180  : 		}
; 181  : 	}
; 182  : }

  0004e	e8 00 00 00 00	 call	 ?__EffectContainer_DetachEffect@CInstanceBase@@IAEXK@Z ; CInstanceBase::__EffectContainer_DetachEffect
  00053	5e		 pop	 esi
  00054	8b e5		 mov	 esp, ebp
  00056	5d		 pop	 ebp
  00057	c3		 ret	 0
$LN4@EndWalking:

; 176  : 		}
; 177  : 		else if (IsAffect(AFFECT_KWAESOK))

  00058	6a 18		 push	 24			; 00000018H
  0005a	e8 00 00 00 00	 call	 ?IsAffect@CInstanceBase@@QAE_NI@Z ; CInstanceBase::IsAffect
  0005f	84 c0		 test	 al, al
  00061	74 09		 je	 SHORT $LN6@EndWalking

; 178  : 		{
; 179  : 			__EffectContainer_DetachEffect(EFFECT_AFFECT_KWAESOK);

  00063	6a 33		 push	 51			; 00000033H
  00065	8b ce		 mov	 ecx, esi

; 180  : 		}
; 181  : 	}
; 182  : }

  00067	e8 00 00 00 00	 call	 ?__EffectContainer_DetachEffect@CInstanceBase@@IAEXK@Z ; CInstanceBase::__EffectContainer_DetachEffect
$LN6@EndWalking:
  0006c	5e		 pop	 esi
  0006d	8b e5		 mov	 esp, ebp
  0006f	5d		 pop	 ebp
  00070	c3		 ret	 0
?EndWalking@CInstanceBase@@QAEXM@Z ENDP			; CInstanceBase::EndWalking
_TEXT	ENDS
; Function compile flags: /Ogtp
; File D:\_m2work\txoko-m2-work\txoko-client-src\source\UserInterface\InstanceBaseMovement.cpp
;	COMDAT ?IsWaiting@CInstanceBase@@QAEHXZ
_TEXT	SEGMENT
?IsWaiting@CInstanceBase@@QAEHXZ PROC			; CInstanceBase::IsWaiting, COMDAT
; _this$ = ecx

; 191  : 	return m_GraphicThingInstance.IsWaiting();

  00000	81 c1 d4 01 00
	00		 add	 ecx, 468		; 000001d4H
  00006	e9 00 00 00 00	 jmp	 ?IsWaiting@CActorInstance@@QAEHXZ ; CActorInstance::IsWaiting
?IsWaiting@CInstanceBase@@QAEHXZ ENDP			; CInstanceBase::IsWaiting
_TEXT	ENDS
; Function compile flags: /Ogtp
; File D:\_m2work\txoko-m2-work\txoko-client-src\source\UserInterface\InstanceBaseMovement.cpp
;	COMDAT ?StartWalking@CInstanceBase@@IAEXXZ
_TEXT	SEGMENT
?StartWalking@CInstanceBase@@IAEXXZ PROC		; CInstanceBase::StartWalking, COMDAT
; _this$ = ecx

; 150  : {

  00000	55		 push	 ebp
  00001	8b ec		 mov	 ebp, esp
  00003	83 e4 f8	 and	 esp, -8			; fffffff8H
  00006	51		 push	 ecx
  00007	56		 push	 esi
  00008	8b f1		 mov	 esi, ecx

; 151  : 	m_GraphicThingInstance.Move();

  0000a	8d 8e d4 01 00
	00		 lea	 ecx, DWORD PTR [esi+468]
  00010	e8 00 00 00 00	 call	 ?Move@CActorInstance@@QAEXXZ ; CActorInstance::Move

; 152  : 
; 153  : 	if (IsAffect(AFFECT_GYEONGGONG))

  00015	6a 11		 push	 17			; 00000011H
  00017	8b ce		 mov	 ecx, esi
  00019	e8 00 00 00 00	 call	 ?IsAffect@CInstanceBase@@QAE_NI@Z ; CInstanceBase::IsAffect
  0001e	8b ce		 mov	 ecx, esi
  00020	84 c0		 test	 al, al
  00022	74 12		 je	 SHORT $LN2@StartWalki

; 154  : 	{
; 155  : 		m_adwCRCAffectEffect[AFFECT_GYEONGGONG] = __EffectContainer_AttachEffect(EFFECT_AFFECT_GYEONGGONG);

  00024	6a 2c		 push	 44			; 0000002cH
  00026	e8 00 00 00 00	 call	 ?__EffectContainer_AttachEffect@CInstanceBase@@IAEKK@Z ; CInstanceBase::__EffectContainer_AttachEffect
  0002b	89 86 94 00 00
	00		 mov	 DWORD PTR [esi+148], eax

; 160  : 	}
; 161  : }

  00031	5e		 pop	 esi
  00032	8b e5		 mov	 esp, ebp
  00034	5d		 pop	 ebp
  00035	c3		 ret	 0
$LN2@StartWalki:

; 156  : 	}
; 157  : 	else if (IsAffect(AFFECT_KWAESOK))

  00036	6a 18		 push	 24			; 00000018H
  00038	e8 00 00 00 00	 call	 ?IsAffect@CInstanceBase@@QAE_NI@Z ; CInstanceBase::IsAffect
  0003d	84 c0		 test	 al, al
  0003f	74 0f		 je	 SHORT $LN4@StartWalki

; 158  : 	{
; 159  : 		m_adwCRCAffectEffect[AFFECT_KWAESOK] = __EffectContainer_AttachEffect(EFFECT_AFFECT_KWAESOK);

  00041	6a 33		 push	 51			; 00000033H
  00043	8b ce		 mov	 ecx, esi
  00045	e8 00 00 00 00	 call	 ?__EffectContainer_AttachEffect@CInstanceBase@@IAEKK@Z ; CInstanceBase::__EffectContainer_AttachEffect
  0004a	89 86 b0 00 00
	00		 mov	 DWORD PTR [esi+176], eax
$LN4@StartWalki:

; 160  : 	}
; 161  : }

  00050	5e		 pop	 esi
  00051	8b e5		 mov	 esp, ebp
  00053	5d		 pop	 ebp
  00054	c3		 ret	 0
?StartWalking@CInstanceBase@@IAEXXZ ENDP		; CInstanceBase::StartWalking
_TEXT	ENDS
; Function compile flags: /Ogtp
; File D:\_m2work\txoko-m2-work\txoko-client-src\source\UserInterface\InstanceBaseMovement.cpp
;	COMDAT ?IsWalking@CInstanceBase@@QAEHXZ
_TEXT	SEGMENT
?IsWalking@CInstanceBase@@QAEHXZ PROC			; CInstanceBase::IsWalking, COMDAT
; _this$ = ecx

; 196  : 	return m_GraphicThingInstance.IsMoving();

  00000	81 c1 d4 01 00
	00		 add	 ecx, 468		; 000001d4H
  00006	e9 00 00 00 00	 jmp	 ?IsMoving@CActorInstance@@QAEHXZ ; CActorInstance::IsMoving
?IsWalking@CInstanceBase@@QAEHXZ ENDP			; CInstanceBase::IsWalking
_TEXT	ENDS
; Function compile flags: /Ogtp
; File D:\_m2work\txoko-m2-work\txoko-client-src\source\UserInterface\InstanceBaseMovement.cpp
;	COMDAT ?SetRotationSpeed@CInstanceBase@@QAEXM@Z
_TEXT	SEGMENT
?SetRotationSpeed@CInstanceBase@@QAEXM@Z PROC		; CInstanceBase::SetRotationSpeed, COMDAT
; _this$ = ecx
; _fRotSpd$ = xmm1s

; 27   : 	m_fMaxRotSpd = fRotSpd;

  00000	f3 0f 11 89 cc
	01 00 00	 movss	 DWORD PTR [ecx+460], xmm1

; 28   : }

  00008	c3		 ret	 0
?SetRotationSpeed@CInstanceBase@@QAEXM@Z ENDP		; CInstanceBase::SetRotationSpeed
_TEXT	ENDS
; Function compile flags: /Ogtp
; File D:\_m2work\txoko-m2-work\txoko-client-src\source\UserInterface\InstanceBaseMovement.cpp
;	COMDAT ?SetAttackSpeed@CInstanceBase@@QAEXI@Z
_TEXT	SEGMENT
_uAtkSpd$ = 8						; size = 4
?SetAttackSpeed@CInstanceBase@@QAEXI@Z PROC		; CInstanceBase::SetAttackSpeed, COMDAT
; _this$ = ecx

; 7    : {

  00000	55		 push	 ebp
  00001	8b ec		 mov	 ebp, esp
  00003	56		 push	 esi

; 8    : 	if (uAtkSpd > 1100)
; 9    : 		uAtkSpd = 0;
; 10   : 
; 11   : 	m_GraphicThingInstance.SetAttackSpeed(uAtkSpd/100.0f);	

  00004	33 f6		 xor	 esi, esi
  00006	81 7d 08 4c 04
	00 00		 cmp	 DWORD PTR _uAtkSpd$[ebp], 1100 ; 0000044cH
  0000d	57		 push	 edi
  0000e	0f 46 75 08	 cmovbe	 esi, DWORD PTR _uAtkSpd$[ebp]
  00012	8b f9		 mov	 edi, ecx
  00014	8b c6		 mov	 eax, esi
  00016	c1 e8 1f	 shr	 eax, 31			; 0000001fH
  00019	51		 push	 ecx
  0001a	66 0f 6e c6	 movd	 xmm0, esi
  0001e	8d 8f d4 01 00
	00		 lea	 ecx, DWORD PTR [edi+468]
  00024	f3 0f e6 c0	 cvtdq2pd xmm0, xmm0
  00028	f2 0f 58 04 c5
	00 00 00 00	 addsd	 xmm0, QWORD PTR __xmm@41f00000000000000000000000000000[eax*8]
  00031	66 0f 5a c0	 cvtpd2ps xmm0, xmm0
  00035	f3 0f 5e 05 00
	00 00 00	 divss	 xmm0, DWORD PTR __real@42c80000
  0003d	f3 0f 11 04 24	 movss	 DWORD PTR [esp], xmm0
  00042	e8 00 00 00 00	 call	 ?SetAttackSpeed@CActorInstance@@QAEXM@Z ; CActorInstance::SetAttackSpeed

; 12   : 	m_kHorse.SetAttackSpeed(uAtkSpd);

  00047	56		 push	 esi
  00048	8d 4f 04	 lea	 ecx, DWORD PTR [edi+4]
  0004b	e8 00 00 00 00	 call	 ?SetAttackSpeed@SHORSE@CInstanceBase@@QAEXI@Z ; CInstanceBase::SHORSE::SetAttackSpeed
  00050	5f		 pop	 edi
  00051	5e		 pop	 esi

; 13   : }

  00052	5d		 pop	 ebp
  00053	c2 04 00	 ret	 4
?SetAttackSpeed@CInstanceBase@@QAEXI@Z ENDP		; CInstanceBase::SetAttackSpeed
_TEXT	ENDS
; Function compile flags: /Ogtp
; File D:\_m2work\txoko-m2-work\txoko-client-src\source\UserInterface\InstanceBaseMovement.cpp
;	COMDAT ?SetMoveSpeed@CInstanceBase@@QAEXI@Z
_TEXT	SEGMENT
_uMovSpd$ = 8						; size = 4
?SetMoveSpeed@CInstanceBase@@QAEXI@Z PROC		; CInstanceBase::SetMoveSpeed, COMDAT
; _this$ = ecx

; 16   : {

  00000	55		 push	 ebp
  00001	8b ec		 mov	 ebp, esp
  00003	56		 push	 esi

; 17   : 	if (uMovSpd > 1100)
; 18   : 		uMovSpd = 0;
; 19   : 
; 20   : 	m_GraphicThingInstance.SetMoveSpeed(uMovSpd/100.0f);	

  00004	33 f6		 xor	 esi, esi
  00006	81 7d 08 4c 04
	00 00		 cmp	 DWORD PTR _uMovSpd$[ebp], 1100 ; 0000044cH
  0000d	57		 push	 edi
  0000e	0f 46 75 08	 cmovbe	 esi, DWORD PTR _uMovSpd$[ebp]
  00012	8b f9		 mov	 edi, ecx
  00014	8b c6		 mov	 eax, esi
  00016	c1 e8 1f	 shr	 eax, 31			; 0000001fH
  00019	51		 push	 ecx
  0001a	66 0f 6e c6	 movd	 xmm0, esi
  0001e	8d 8f d4 01 00
	00		 lea	 ecx, DWORD PTR [edi+468]
  00024	f3 0f e6 c0	 cvtdq2pd xmm0, xmm0
  00028	f2 0f 58 04 c5
	00 00 00 00	 addsd	 xmm0, QWORD PTR __xmm@41f00000000000000000000000000000[eax*8]
  00031	66 0f 5a c0	 cvtpd2ps xmm0, xmm0
  00035	f3 0f 5e 05 00
	00 00 00	 divss	 xmm0, DWORD PTR __real@42c80000
  0003d	f3 0f 11 04 24	 movss	 DWORD PTR [esp], xmm0
  00042	e8 00 00 00 00	 call	 ?SetMoveSpeed@CActorInstance@@QAEXM@Z ; CActorInstance::SetMoveSpeed

; 21   : 	m_kHorse.SetMoveSpeed(uMovSpd);

  00047	56		 push	 esi
  00048	8d 4f 04	 lea	 ecx, DWORD PTR [edi+4]
  0004b	e8 00 00 00 00	 call	 ?SetMoveSpeed@SHORSE@CInstanceBase@@QAEXI@Z ; CInstanceBase::SHORSE::SetMoveSpeed
  00050	5f		 pop	 edi
  00051	5e		 pop	 esi

; 22   : }

  00052	5d		 pop	 ebp
  00053	c2 04 00	 ret	 4
?SetMoveSpeed@CInstanceBase@@QAEXI@Z ENDP		; CInstanceBase::SetMoveSpeed
_TEXT	ENDS
; Function compile flags: /Ogtp
; File D:\_m2work\txoko-m2-work\txoko-client-src\source\UserInterface\InstanceBaseMovement.cpp
;	COMDAT ?NEW_Stop@CInstanceBase@@QAEXXZ
_TEXT	SEGMENT
?NEW_Stop@CInstanceBase@@QAEXXZ PROC			; CInstanceBase::NEW_Stop, COMDAT
; _this$ = ecx

; 31   : {

  00000	56		 push	 esi
  00001	8b f1		 mov	 esi, ecx

; 32   : 	if (__IsSyncing())

  00003	e8 00 00 00 00	 call	 ?__IsSyncing@CInstanceBase@@QAEHXZ ; CInstanceBase::__IsSyncing
  00008	85 c0		 test	 eax, eax
  0000a	75 3c		 jne	 SHORT $LN1@NEW_Stop

; 33   : 		return;
; 34   : 
; 35   : 	if (isLock())

  0000c	8b ce		 mov	 ecx, esi
  0000e	e8 00 00 00 00	 call	 ?isLock@CInstanceBase@@QAEHXZ ; CInstanceBase::isLock
  00013	85 c0		 test	 eax, eax
  00015	75 31		 jne	 SHORT $LN1@NEW_Stop

; 36   : 		return;
; 37   : 
; 38   : 	if (IsUsingSkill())

  00017	8b ce		 mov	 ecx, esi
  00019	e8 00 00 00 00	 call	 ?IsUsingSkill@CInstanceBase@@QAEHXZ ; CInstanceBase::IsUsingSkill
  0001e	85 c0		 test	 eax, eax
  00020	75 26		 jne	 SHORT $LN1@NEW_Stop

; 39   : 		return;
; 40   : 
; 41   : 	if (!IsWaiting())

  00022	8b ce		 mov	 ecx, esi
  00024	e8 00 00 00 00	 call	 ?IsWaiting@CInstanceBase@@QAEHXZ ; CInstanceBase::IsWaiting
  00029	85 c0		 test	 eax, eax
  0002b	75 0f		 jne	 SHORT $LN5@NEW_Stop

; 42   : 		EndWalking();

  0002d	f3 0f 10 0d 00
	00 00 00	 movss	 xmm1, DWORD PTR __real@3e19999a
  00035	8b ce		 mov	 ecx, esi
  00037	e8 00 00 00 00	 call	 ?EndWalking@CInstanceBase@@QAEXM@Z ; CInstanceBase::EndWalking
$LN5@NEW_Stop:

; 43   : 
; 44   : 	m_GraphicThingInstance.__OnStop();

  0003c	8d 8e d4 01 00
	00		 lea	 ecx, DWORD PTR [esi+468]
  00042	5e		 pop	 esi
  00043	e9 00 00 00 00	 jmp	 ?__OnStop@CActorInstance@@QAEXXZ ; CActorInstance::__OnStop
$LN1@NEW_Stop:
  00048	5e		 pop	 esi

; 45   : }

  00049	c3		 ret	 0
?NEW_Stop@CInstanceBase@@QAEXXZ ENDP			; CInstanceBase::NEW_Stop
_TEXT	ENDS
; Function compile flags: /Ogtp
; File D:\_m2work\txoko-m2-work\txoko-client-src\source\UserInterface\InstanceBaseMovement.cpp
;	COMDAT ?NEW_MoveToDestPixelPositionDirection@CInstanceBase@@QAE_NABUD3DXVECTOR3@@@Z
_TEXT	SEGMENT
_kPPosCur$ = -12					; size = 12
_c_rkPPosDst$ = 8					; size = 4
?NEW_MoveToDestPixelPositionDirection@CInstanceBase@@QAE_NABUD3DXVECTOR3@@@Z PROC ; CInstanceBase::NEW_MoveToDestPixelPositionDirection, COMDAT
; _this$ = ecx

; 243  : {

  00000	55		 push	 ebp
  00001	8b ec		 mov	 ebp, esp
  00003	83 ec 10	 sub	 esp, 16			; 00000010H

; 244  : 	TPixelPosition kPPosCur;
; 245  : 	NEW_GetPixelPosition(&kPPosCur);

  00006	8d 45 f4	 lea	 eax, DWORD PTR _kPPosCur$[ebp]
  00009	57		 push	 edi
  0000a	50		 push	 eax
  0000b	8b f9		 mov	 edi, ecx
  0000d	e8 00 00 00 00	 call	 ?NEW_GetPixelPosition@CInstanceBase@@QAEXPAUD3DXVECTOR3@@@Z ; CInstanceBase::NEW_GetPixelPosition

; 246  : 	float fDstRot = NEW_GetAdvancingRotationFromPixelPosition(kPPosCur, c_rkPPosDst);

  00012	ff 75 08	 push	 DWORD PTR _c_rkPPosDst$[ebp]
  00015	8d 45 f4	 lea	 eax, DWORD PTR _kPPosCur$[ebp]
  00018	50		 push	 eax
  00019	e8 00 00 00 00	 call	 ?NEW_GetAdvancingRotationFromPixelPosition@CInstanceBase@@QAEMABUD3DXVECTOR3@@0@Z ; CInstanceBase::NEW_GetAdvancingRotationFromPixelPosition

; 247  : 
; 248  : 	return NEW_Goto(c_rkPPosDst, fDstRot);

  0001e	ff 75 08	 push	 DWORD PTR _c_rkPPosDst$[ebp]
  00021	0f 28 d0	 movaps	 xmm2, xmm0
  00024	8b cf		 mov	 ecx, edi
  00026	e8 00 00 00 00	 call	 ?NEW_Goto@CInstanceBase@@QAE_NABUD3DXVECTOR3@@M@Z ; CInstanceBase::NEW_Goto

; 249  : }

  0002b	5f		 pop	 edi
  0002c	8b e5		 mov	 esp, ebp
  0002e	5d		 pop	 ebp
  0002f	c2 04 00	 ret	 4
?NEW_MoveToDestPixelPositionDirection@CInstanceBase@@QAE_NABUD3DXVECTOR3@@@Z ENDP ; CInstanceBase::NEW_MoveToDestPixelPositionDirection
_TEXT	ENDS
; Function compile flags: /Ogtp
; File D:\_m2work\txoko-m2-work\txoko-client-src\source\UserInterface\InstanceBaseMovement.cpp
;	COMDAT ?IsAttacking@CInstanceBase@@QAEHXZ
_TEXT	SEGMENT
?IsAttacking@CInstanceBase@@QAEHXZ PROC			; CInstanceBase::IsAttacking, COMDAT
; _this$ = ecx

; 219  : 	return m_GraphicThingInstance.isAttacking();

  00000	81 c1 d4 01 00
	00		 add	 ecx, 468		; 000001d4H
  00006	e9 00 00 00 00	 jmp	 ?isAttacking@CActorInstance@@QAEHXZ ; CActorInstance::isAttacking
?IsAttacking@CInstanceBase@@QAEHXZ ENDP			; CInstanceBase::IsAttacking
_TEXT	ENDS
; Function compile flags: /Ogtp
; File D:\_m2work\txoko-m2-work\txoko-client-src\source\UserInterface\InstanceBaseMovement.cpp
;	COMDAT ?EndGoing@CInstanceBase@@QAEXXZ
_TEXT	SEGMENT
?EndGoing@CInstanceBase@@QAEXXZ PROC			; CInstanceBase::EndGoing, COMDAT
; _this$ = ecx

; 339  : {

  00000	56		 push	 esi
  00001	8b f1		 mov	 esi, ecx

; 340  : 	if (!IsWaiting())

  00003	e8 00 00 00 00	 call	 ?IsWaiting@CInstanceBase@@QAEHXZ ; CInstanceBase::IsWaiting
  00008	85 c0		 test	 eax, eax
  0000a	75 0f		 jne	 SHORT $LN4@EndGoing

; 341  : 		EndWalking();

  0000c	f3 0f 10 0d 00
	00 00 00	 movss	 xmm1, DWORD PTR __real@3e19999a
  00014	8b ce		 mov	 ecx, esi
  00016	e8 00 00 00 00	 call	 ?EndWalking@CInstanceBase@@QAEXM@Z ; CInstanceBase::EndWalking
$LN4@EndGoing:

; 342  : 
; 343  : 	//Tracen("EndGoing");
; 344  : 
; 345  : 	m_isGoing = FALSE;
; 346  : }

  0001b	c6 86 88 01 00
	00 00		 mov	 BYTE PTR [esi+392], 0
  00022	5e		 pop	 esi
  00023	c3		 ret	 0
?EndGoing@CInstanceBase@@QAEXXZ ENDP			; CInstanceBase::EndGoing
_TEXT	ENDS
; Function compile flags: /Ogtp
; File D:\_m2work\txoko-m2-work\txoko-client-src\source\UserInterface\InstanceBaseMovement.cpp
;	COMDAT ?IsKnockDown@CInstanceBase@@QAEHXZ
_TEXT	SEGMENT
?IsKnockDown@CInstanceBase@@QAEHXZ PROC			; CInstanceBase::IsKnockDown, COMDAT
; _this$ = ecx

; 211  : 	if (!m_GraphicThingInstance.IsKnockDown())

  00000	81 c1 d4 01 00
	00		 add	 ecx, 468		; 000001d4H
  00006	e8 00 00 00 00	 call	 ?IsKnockDown@CActorInstance@@QAEHXZ ; CActorInstance::IsKnockDown
  0000b	f7 d8		 neg	 eax
  0000d	1b c0		 sbb	 eax, eax
  0000f	f7 d8		 neg	 eax

; 212  : 		return FALSE;
; 213  : 
; 214  : 	return TRUE;
; 215  : }

  00011	c3		 ret	 0
?IsKnockDown@CInstanceBase@@QAEHXZ ENDP			; CInstanceBase::IsKnockDown
_TEXT	ENDS
; Function compile flags: /Ogtp
; File D:\_m2work\txoko-m2-work\txoko-client-src\source\eterLib\GrpMath.h
;	COMDAT ?ClampDegree@@YAMM@Z
_TEXT	SEGMENT
?ClampDegree@@YAMM@Z PROC				; ClampDegree, COMDAT
; _fDegree$ = xmm0s

; 34   : 	if (fDegree >= 360.0f)

  00000	f3 0f 10 15 00
	00 00 00	 movss	 xmm2, DWORD PTR __real@43b40000
  00008	0f 2f c2	 comiss	 xmm0, xmm2
  0000b	72 04		 jb	 SHORT $LN2@ClampDegre

; 35   : 		fDegree -= 360.0f;

  0000d	f3 0f 5c c2	 subss	 xmm0, xmm2
$LN2@ClampDegre:
  00011	0f 57 c9	 xorps	 xmm1, xmm1

; 36   : 	if (fDegree < 0.0f)

  00014	0f 2f c8	 comiss	 xmm1, xmm0
  00017	76 04		 jbe	 SHORT $LN3@ClampDegre

; 37   : 		fDegree += 360.0f;

  00019	f3 0f 58 c2	 addss	 xmm0, xmm2
$LN3@ClampDegre:

; 38   : 
; 39   : 	return fDegree;
; 40   : }

  0001d	c3		 ret	 0
?ClampDegree@@YAMM@Z ENDP				; ClampDegree
_TEXT	ENDS
; Function compile flags: /Ogtp
; File D:\_m2work\txoko-m2-work\txoko-client-src\source\UserInterface\InstanceBaseMovement.cpp
;	COMDAT ?NEW_SyncPixelPosition@CInstanceBase@@QAEXAAJ0@Z
_TEXT	SEGMENT
_nPPosX$ = 8						; size = 4
_nPPosY$ = 12						; size = 4
?NEW_SyncPixelPosition@CInstanceBase@@QAEXAAJ0@Z PROC	; CInstanceBase::NEW_SyncPixelPosition, COMDAT
; _this$ = ecx

; 48   : {

  00000	55		 push	 ebp
  00001	8b ec		 mov	 ebp, esp

; 49   : 	m_GraphicThingInstance.TEMP_Push(nPPosX, nPPosY);

  00003	8b 45 0c	 mov	 eax, DWORD PTR _nPPosY$[ebp]
  00006	81 c1 d4 01 00
	00		 add	 ecx, 468		; 000001d4H
  0000c	ff 30		 push	 DWORD PTR [eax]
  0000e	8b 45 08	 mov	 eax, DWORD PTR _nPPosX$[ebp]
  00011	ff 30		 push	 DWORD PTR [eax]
  00013	e8 00 00 00 00	 call	 ?TEMP_Push@CActorInstance@@QAEXHH@Z ; CActorInstance::TEMP_Push

; 50   : }

  00018	5d		 pop	 ebp
  00019	c2 08 00	 ret	 8
?NEW_SyncPixelPosition@CInstanceBase@@QAEXAAJ0@Z ENDP	; CInstanceBase::NEW_SyncPixelPosition
_TEXT	ENDS
; Function compile flags: /Ogtp
; File D:\_m2work\txoko-m2-work\txoko-client-src\source\UserInterface\InstanceBaseMovement.cpp
;	COMDAT ?NEW_CanMoveToDestPixelPosition@CInstanceBase@@QAE_NABUD3DXVECTOR3@@@Z
_TEXT	SEGMENT
_kPPosCur$ = -12					; size = 12
_c_rkPPosDst$ = 8					; size = 4
?NEW_CanMoveToDestPixelPosition@CInstanceBase@@QAE_NABUD3DXVECTOR3@@@Z PROC ; CInstanceBase::NEW_CanMoveToDestPixelPosition, COMDAT
; _this$ = ecx

; 53   : {

  00000	55		 push	 ebp
  00001	8b ec		 mov	 ebp, esp
  00003	83 ec 0c	 sub	 esp, 12			; 0000000cH

; 54   : 	TPixelPosition kPPosCur;
; 55   : 	NEW_GetPixelPosition(&kPPosCur);

  00006	8d 45 f4	 lea	 eax, DWORD PTR _kPPosCur$[ebp]
  00009	50		 push	 eax
  0000a	e8 00 00 00 00	 call	 ?NEW_GetPixelPosition@CInstanceBase@@QAEXPAUD3DXVECTOR3@@@Z ; CInstanceBase::NEW_GetPixelPosition

; 56   : 
; 57   : 	if (kPPosCur.x==c_rkPPosDst.x && kPPosCur.y==c_rkPPosDst.y)

  0000f	8b 4d 08	 mov	 ecx, DWORD PTR _c_rkPPosDst$[ebp]
  00012	f3 0f 10 45 f4	 movss	 xmm0, DWORD PTR _kPPosCur$[ebp]
  00017	0f 2e 01	 ucomiss xmm0, DWORD PTR [ecx]
  0001a	9f		 lahf
  0001b	f6 c4 44	 test	 ah, 68			; 00000044H
  0001e	7a 17		 jp	 SHORT $LN2@NEW_CanMov
  00020	f3 0f 10 45 f8	 movss	 xmm0, DWORD PTR _kPPosCur$[ebp+4]
  00025	0f 2e 41 04	 ucomiss xmm0, DWORD PTR [ecx+4]
  00029	9f		 lahf
  0002a	f6 c4 44	 test	 ah, 68			; 00000044H
  0002d	7a 08		 jp	 SHORT $LN2@NEW_CanMov

; 58   : 		return false;

  0002f	32 c0		 xor	 al, al

; 61   : }

  00031	8b e5		 mov	 esp, ebp
  00033	5d		 pop	 ebp
  00034	c2 04 00	 ret	 4
$LN2@NEW_CanMov:

; 59   : 	
; 60   : 	return true;

  00037	b0 01		 mov	 al, 1

; 61   : }

  00039	8b e5		 mov	 esp, ebp
  0003b	5d		 pop	 ebp
  0003c	c2 04 00	 ret	 4
?NEW_CanMoveToDestPixelPosition@CInstanceBase@@QAE_NABUD3DXVECTOR3@@@Z ENDP ; CInstanceBase::NEW_CanMoveToDestPixelPosition
_TEXT	ENDS
; Function compile flags: /Ogtp
; File D:\_m2work\txoko-m2-work\txoko-client-src\source\UserInterface\InstanceBaseMovement.cpp
; File C:\Program Files\Microsoft Visual Studio\2022\Community\VC\Tools\MSVC\14.44.35207\include\cmath
; File D:\_m2work\txoko-m2-work\txoko-client-src\source\UserInterface\InstanceBaseMovement.cpp
; File C:\Program Files\Microsoft Visual Studio\2022\Community\VC\Tools\MSVC\14.44.35207\include\cmath
; File D:\_m2work\txoko-m2-work\txoko-client-src\extern\include\d3dx8math.inl
; File C:\Program Files\Microsoft Visual Studio\2022\Community\VC\Tools\MSVC\14.44.35207\include\cmath
; File D:\_m2work\txoko-m2-work\txoko-client-src\extern\include\d3dx8math.inl
; File D:\_m2work\txoko-m2-work\txoko-client-src\source\UserInterface\InstanceBaseMovement.cpp
; File D:\_m2work\txoko-m2-work\txoko-client-src\extern\include\d3dx8math.inl
; File D:\_m2work\txoko-m2-work\txoko-client-src\source\UserInterface\InstanceBaseMovement.cpp
; File D:\_m2work\txoko-m2-work\txoko-client-src\extern\include\d3dx8math.inl
; File D:\_m2work\txoko-m2-work\txoko-client-src\source\UserInterface\InstanceBaseMovement.cpp
; File D:\_m2work\txoko-m2-work\txoko-client-src\extern\include\d3dx8math.inl
; File D:\_m2work\txoko-m2-work\txoko-client-src\source\UserInterface\InstanceBaseMovement.cpp
;	COMDAT ?CInstanceBase_GetDegreeFromPosition@@YAMMM@Z
_TEXT	SEGMENT
_y$ = -28						; size = 4
_x$ = -24						; size = 4
_ret$ = -20						; size = 4
_vtDir$ = -16						; size = 12
__$ArrayPad$ = -4					; size = 4
?CInstanceBase_GetDegreeFromPosition@@YAMMM@Z PROC	; CInstanceBase_GetDegreeFromPosition, COMDAT
; _x$ = xmm0s
; _y$ = xmm1s

; 64   : {

  00000	55		 push	 ebp
  00001	8b ec		 mov	 ebp, esp
  00003	83 ec 1c	 sub	 esp, 28			; 0000001cH
  00006	a1 00 00 00 00	 mov	 eax, DWORD PTR ___security_cookie
  0000b	33 c5		 xor	 eax, ebp
  0000d	89 45 fc	 mov	 DWORD PTR __$ArrayPad$[ebp], eax
; File C:\Program Files\Microsoft Visual Studio\2022\Community\VC\Tools\MSVC\14.44.35207\include\cmath

; 126  :     return __floorf(_Xx);

  00010	83 ec 08	 sub	 esp, 8
; File D:\_m2work\txoko-m2-work\txoko-client-src\source\UserInterface\InstanceBaseMovement.cpp

; 64   : {

  00013	f3 0f 11 45 e8	 movss	 DWORD PTR _x$[ebp], xmm0
  00018	d9 45 e8	 fld	 DWORD PTR _x$[ebp]
  0001b	f3 0f 11 4d e4	 movss	 DWORD PTR _y$[ebp], xmm1
; File C:\Program Files\Microsoft Visual Studio\2022\Community\VC\Tools\MSVC\14.44.35207\include\cmath

; 126  :     return __floorf(_Xx);

  00020	dd 1c 24	 fstp	 QWORD PTR [esp]
  00023	e8 00 00 00 00	 call	 _floor
; File D:\_m2work\txoko-m2-work\txoko-client-src\extern\include\d3dx8math.inl

; 180  :     x = fx;

  00028	d9 5d f0	 fstp	 DWORD PTR _vtDir$[ebp]
  0002b	d9 45 e4	 fld	 DWORD PTR _y$[ebp]
; File C:\Program Files\Microsoft Visual Studio\2022\Community\VC\Tools\MSVC\14.44.35207\include\cmath

; 126  :     return __floorf(_Xx);

  0002e	dd 1c 24	 fstp	 QWORD PTR [esp]
  00031	e8 00 00 00 00	 call	 _floor
  00036	83 c4 08	 add	 esp, 8
; File D:\_m2work\txoko-m2-work\txoko-client-src\extern\include\d3dx8math.inl

; 182  :     z = fz;

  00039	c7 45 f8 00 00
	00 00		 mov	 DWORD PTR _vtDir$[ebp+8], 0
; File D:\_m2work\txoko-m2-work\txoko-client-src\source\UserInterface\InstanceBaseMovement.cpp

; 66   : 	D3DXVec3Normalize(&vtDir, &vtDir);

  00040	8d 45 f0	 lea	 eax, DWORD PTR _vtDir$[ebp]
; File D:\_m2work\txoko-m2-work\txoko-client-src\extern\include\d3dx8math.inl

; 181  :     y = fy;

  00043	d9 5d f4	 fstp	 DWORD PTR _vtDir$[ebp+4]
; File D:\_m2work\txoko-m2-work\txoko-client-src\source\UserInterface\InstanceBaseMovement.cpp

; 66   : 	D3DXVec3Normalize(&vtDir, &vtDir);

  00046	50		 push	 eax
  00047	50		 push	 eax
  00048	e8 00 00 00 00	 call	 _D3DXVec3Normalize@8
; File D:\_m2work\txoko-m2-work\txoko-client-src\extern\include\d3dx8math.inl

; 182  :     z = fz;

  0004d	f3 0f 10 45 f4	 movss	 xmm0, DWORD PTR _vtDir$[ebp+4]
  00052	0f 57 d2	 xorps	 xmm2, xmm2

; 1264 :     return pV1->x * pV2->x + pV1->y * pV2->y + pV1->z * pV2->z;

  00055	f3 0f 10 4d f0	 movss	 xmm1, DWORD PTR _vtDir$[ebp]

; 182  :     z = fz;

  0005a	f3 0f 59 05 00
	00 00 00	 mulss	 xmm0, DWORD PTR __real@3f800000
; File D:\_m2work\txoko-m2-work\txoko-client-src\source\UserInterface\InstanceBaseMovement.cpp

; 69   : 	float ret = D3DXToDegree(acosf(D3DXVec3Dot(&vtDir, &vtStan)));

  00062	51		 push	 ecx
; File D:\_m2work\txoko-m2-work\txoko-client-src\extern\include\d3dx8math.inl

; 1264 :     return pV1->x * pV2->x + pV1->y * pV2->y + pV1->z * pV2->z;

  00063	f3 0f 59 ca	 mulss	 xmm1, xmm2
  00067	f3 0f 5c c8	 subss	 xmm1, xmm0
  0006b	f3 0f 10 45 f8	 movss	 xmm0, DWORD PTR _vtDir$[ebp+8]
  00070	f3 0f 59 c2	 mulss	 xmm0, xmm2
  00074	f3 0f 58 c8	 addss	 xmm1, xmm0
; File D:\_m2work\txoko-m2-work\txoko-client-src\source\UserInterface\InstanceBaseMovement.cpp

; 69   : 	float ret = D3DXToDegree(acosf(D3DXVec3Dot(&vtDir, &vtStan)));

  00078	f3 0f 11 0c 24	 movss	 DWORD PTR [esp], xmm1
  0007d	e8 00 00 00 00	 call	 _acosf
  00082	d8 0d 00 00 00
	00		 fmul	 DWORD PTR __real@42652ee0
  00088	0f 57 c0	 xorps	 xmm0, xmm0
  0008b	83 c4 04	 add	 esp, 4

; 70   : 
; 71   : 	if (vtDir.x < 0.0f)

  0008e	0f 2f 45 f0	 comiss	 xmm0, DWORD PTR _vtDir$[ebp]
  00092	d9 5d ec	 fstp	 DWORD PTR _ret$[ebp]
  00095	76 1b		 jbe	 SHORT $LN18@CInstanceB

; 72   : 		ret = 360.0f - ret;

  00097	f3 0f 10 05 00
	00 00 00	 movss	 xmm0, DWORD PTR __real@43b40000
  0009f	f3 0f 5c 45 ec	 subss	 xmm0, DWORD PTR _ret$[ebp]

; 73   : 
; 74   : 	return ret;
; 75   : }

  000a4	8b 4d fc	 mov	 ecx, DWORD PTR __$ArrayPad$[ebp]
  000a7	33 cd		 xor	 ecx, ebp
  000a9	e8 00 00 00 00	 call	 @__security_check_cookie@4
  000ae	8b e5		 mov	 esp, ebp
  000b0	5d		 pop	 ebp
  000b1	c3		 ret	 0
$LN18@CInstanceB:
  000b2	8b 4d fc	 mov	 ecx, DWORD PTR __$ArrayPad$[ebp]
  000b5	f3 0f 10 45 ec	 movss	 xmm0, DWORD PTR _ret$[ebp]
  000ba	33 cd		 xor	 ecx, ebp
  000bc	e8 00 00 00 00	 call	 @__security_check_cookie@4
  000c1	8b e5		 mov	 esp, ebp
  000c3	5d		 pop	 ebp
  000c4	c3		 ret	 0
?CInstanceBase_GetDegreeFromPosition@@YAMMM@Z ENDP	; CInstanceBase_GetDegreeFromPosition
_TEXT	ENDS
; Function compile flags: /Ogtp
; File D:\_m2work\txoko-m2-work\txoko-client-src\source\UserInterface\InstanceBaseMovement.cpp
; File D:\_m2work\txoko-m2-work\txoko-client-src\source\eterLib\GrpMath.h
; File D:\_m2work\txoko-m2-work\txoko-client-src\source\UserInterface\InstanceBaseMovement.cpp
;	COMDAT ?NEW_GetAdvancingRotationFromDirPixelPosition@CInstanceBase@@QAEMABUD3DXVECTOR3@@@Z
_TEXT	SEGMENT
_c_rkPPosDir$ = 8					; size = 4
?NEW_GetAdvancingRotationFromDirPixelPosition@CInstanceBase@@QAEMABUD3DXVECTOR3@@@Z PROC ; CInstanceBase::NEW_GetAdvancingRotationFromDirPixelPosition, COMDAT
; _this$dead$ = ecx

; 78   : {	

  00000	55		 push	 ebp
  00001	8b ec		 mov	 ebp, esp

; 79   : 	float fDirRot=CInstanceBase_GetDegreeFromPosition(c_rkPPosDir.x, -c_rkPPosDir.y);

  00003	8b 45 08	 mov	 eax, DWORD PTR _c_rkPPosDir$[ebp]
  00006	f3 0f 10 48 04	 movss	 xmm1, DWORD PTR [eax+4]
  0000b	0f 57 0d 00 00
	00 00		 xorps	 xmm1, DWORD PTR __xmm@80000000800000008000000080000000
  00012	f3 0f 10 00	 movss	 xmm0, DWORD PTR [eax]
  00016	e8 00 00 00 00	 call	 ?CInstanceBase_GetDegreeFromPosition@@YAMMM@Z ; CInstanceBase_GetDegreeFromPosition
; File D:\_m2work\txoko-m2-work\txoko-client-src\source\eterLib\GrpMath.h

; 34   : 	if (fDegree >= 360.0f)

  0001b	f3 0f 10 15 00
	00 00 00	 movss	 xmm2, DWORD PTR __real@43b40000
  00023	0f 2f c2	 comiss	 xmm0, xmm2
  00026	72 04		 jb	 SHORT $LN4@NEW_GetAdv

; 35   : 		fDegree -= 360.0f;

  00028	f3 0f 5c c2	 subss	 xmm0, xmm2
$LN4@NEW_GetAdv:
  0002c	0f 57 c9	 xorps	 xmm1, xmm1

; 36   : 	if (fDegree < 0.0f)

  0002f	0f 2f c8	 comiss	 xmm1, xmm0
  00032	76 04		 jbe	 SHORT $LN5@NEW_GetAdv

; 37   : 		fDegree += 360.0f;

  00034	f3 0f 58 c2	 addss	 xmm0, xmm2
$LN5@NEW_GetAdv:
; File D:\_m2work\txoko-m2-work\txoko-client-src\source\UserInterface\InstanceBaseMovement.cpp

; 83   : }

  00038	5d		 pop	 ebp
  00039	c2 04 00	 ret	 4
?NEW_GetAdvancingRotationFromDirPixelPosition@CInstanceBase@@QAEMABUD3DXVECTOR3@@@Z ENDP ; CInstanceBase::NEW_GetAdvancingRotationFromDirPixelPosition
_TEXT	ENDS
; Function compile flags: /Ogtp
; File D:\_m2work\txoko-m2-work\txoko-client-src\source\UserInterface\InstanceBaseMovement.cpp
;	COMDAT ?NEW_SetAdvancingRotationFromDirPixelPosition@CInstanceBase@@QAEXABUD3DXVECTOR3@@@Z
_TEXT	SEGMENT
_fCurRot$ = -4						; size = 4
_c_rkPPosDir$ = 8					; size = 4
_fAdvRot$ = 8						; size = 4
?NEW_SetAdvancingRotationFromDirPixelPosition@CInstanceBase@@QAEXABUD3DXVECTOR3@@@Z PROC ; CInstanceBase::NEW_SetAdvancingRotationFromDirPixelPosition, COMDAT
; _this$ = ecx

; 101  : {

  00000	55		 push	 ebp
  00001	8b ec		 mov	 ebp, esp
  00003	51		 push	 ecx
  00004	56		 push	 esi
  00005	57		 push	 edi

; 102  : 	float fClampDirRot=NEW_GetAdvancingRotationFromDirPixelPosition(c_rkPPosDir);

  00006	ff 75 08	 push	 DWORD PTR _c_rkPPosDir$[ebp]
  00009	8b f9		 mov	 edi, ecx
  0000b	e8 00 00 00 00	 call	 ?NEW_GetAdvancingRotationFromDirPixelPosition@CInstanceBase@@QAEMABUD3DXVECTOR3@@@Z ; CInstanceBase::NEW_GetAdvancingRotationFromDirPixelPosition

; 103  : 	m_GraphicThingInstance.SetAdvancingRotation(fClampDirRot);

  00010	51		 push	 ecx
  00011	8d 8f d4 01 00
	00		 lea	 ecx, DWORD PTR [edi+468]
  00017	f3 0f 11 04 24	 movss	 DWORD PTR [esp], xmm0
  0001c	e8 00 00 00 00	 call	 ?SetAdvancingRotation@CActorInstance@@QAEXM@Z ; CActorInstance::SetAdvancingRotation

; 104  : 
; 105  : 	float fCurRot=m_GraphicThingInstance.GetRotation();

  00021	8d 8f d4 01 00
	00		 lea	 ecx, DWORD PTR [edi+468]
  00027	e8 00 00 00 00	 call	 ?GetRotation@CActorInstance@@QAEMXZ ; CActorInstance::GetRotation
  0002c	d9 5d fc	 fstp	 DWORD PTR _fCurRot$[ebp]

; 106  : 	float fAdvRot=m_GraphicThingInstance.GetAdvancingRotation();

  0002f	8d 8f d4 01 00
	00		 lea	 ecx, DWORD PTR [edi+468]
  00035	e8 00 00 00 00	 call	 ?GetAdvancingRotation@CActorInstance@@QAEMXZ ; CActorInstance::GetAdvancingRotation

; 107  : 
; 108  : 	m_iRotatingDirection = GetRotatingDirection(fCurRot, fAdvRot);

  0003a	83 ec 08	 sub	 esp, 8
  0003d	d9 5d 08	 fstp	 DWORD PTR _fAdvRot$[ebp]
  00040	f3 0f 10 45 08	 movss	 xmm0, DWORD PTR _fAdvRot$[ebp]
  00045	f3 0f 11 44 24
	04		 movss	 DWORD PTR [esp+4], xmm0
  0004b	f3 0f 10 45 fc	 movss	 xmm0, DWORD PTR _fCurRot$[ebp]
  00050	f3 0f 11 04 24	 movss	 DWORD PTR [esp], xmm0
  00055	e8 00 00 00 00	 call	 ?GetRotatingDirection@@YAHMM@Z ; GetRotatingDirection
  0005a	83 c4 08	 add	 esp, 8
  0005d	89 87 74 01 00
	00		 mov	 DWORD PTR [edi+372], eax
  00063	5f		 pop	 edi
  00064	5e		 pop	 esi

; 109  : }

  00065	8b e5		 mov	 esp, ebp
  00067	5d		 pop	 ebp
  00068	c2 04 00	 ret	 4
?NEW_SetAdvancingRotationFromDirPixelPosition@CInstanceBase@@QAEXABUD3DXVECTOR3@@@Z ENDP ; CInstanceBase::NEW_SetAdvancingRotationFromDirPixelPosition
_TEXT	ENDS
; Function compile flags: /Ogtp
; File D:\_m2work\txoko-m2-work\txoko-client-src\source\UserInterface\InstanceBaseMovement.cpp
; File D:\_m2work\txoko-m2-work\txoko-client-src\extern\include\d3dx8math.inl
; File D:\_m2work\txoko-m2-work\txoko-client-src\source\UserInterface\InstanceBaseMovement.cpp
; File D:\_m2work\txoko-m2-work\txoko-client-src\extern\include\d3dx8math.inl
; File D:\_m2work\txoko-m2-work\txoko-client-src\source\UserInterface\InstanceBaseMovement.cpp
; File D:\_m2work\txoko-m2-work\txoko-client-src\extern\include\d3dx8math.inl
; File D:\_m2work\txoko-m2-work\txoko-client-src\source\UserInterface\InstanceBaseMovement.cpp
;	COMDAT ?NEW_SetAdvancingRotationFromPixelPosition@CInstanceBase@@QAEXABUD3DXVECTOR3@@0@Z
_TEXT	SEGMENT
_kPPosDelta$ = -12					; size = 12
_c_rkPPosSrc$ = 8					; size = 4
_c_rkPPosDst$ = 12					; size = 4
?NEW_SetAdvancingRotationFromPixelPosition@CInstanceBase@@QAEXABUD3DXVECTOR3@@0@Z PROC ; CInstanceBase::NEW_SetAdvancingRotationFromPixelPosition, COMDAT
; _this$ = ecx

; 113  : {

  00000	55		 push	 ebp
  00001	8b ec		 mov	 ebp, esp
  00003	83 ec 0c	 sub	 esp, 12			; 0000000cH
; File D:\_m2work\txoko-m2-work\txoko-client-src\extern\include\d3dx8math.inl

; 263  :     return D3DXVECTOR3(x - v.x, y - v.y, z - v.z);

  00006	8b 55 0c	 mov	 edx, DWORD PTR _c_rkPPosDst$[ebp]
  00009	8b 45 08	 mov	 eax, DWORD PTR _c_rkPPosSrc$[ebp]
  0000c	f3 0f 10 02	 movss	 xmm0, DWORD PTR [edx]
  00010	f3 0f 5c 00	 subss	 xmm0, DWORD PTR [eax]
; File D:\_m2work\txoko-m2-work\txoko-client-src\source\UserInterface\InstanceBaseMovement.cpp

; 115  : 	kPPosDelta=c_rkPPosDst-c_rkPPosSrc;

  00014	f3 0f 11 45 f4	 movss	 DWORD PTR _kPPosDelta$[ebp], xmm0
; File D:\_m2work\txoko-m2-work\txoko-client-src\extern\include\d3dx8math.inl

; 263  :     return D3DXVECTOR3(x - v.x, y - v.y, z - v.z);

  00019	f3 0f 10 42 04	 movss	 xmm0, DWORD PTR [edx+4]
  0001e	f3 0f 5c 40 04	 subss	 xmm0, DWORD PTR [eax+4]
; File D:\_m2work\txoko-m2-work\txoko-client-src\source\UserInterface\InstanceBaseMovement.cpp

; 115  : 	kPPosDelta=c_rkPPosDst-c_rkPPosSrc;

  00023	f3 0f 11 45 f8	 movss	 DWORD PTR _kPPosDelta$[ebp+4], xmm0
; File D:\_m2work\txoko-m2-work\txoko-client-src\extern\include\d3dx8math.inl

; 263  :     return D3DXVECTOR3(x - v.x, y - v.y, z - v.z);

  00028	f3 0f 10 42 08	 movss	 xmm0, DWORD PTR [edx+8]
  0002d	f3 0f 5c 40 08	 subss	 xmm0, DWORD PTR [eax+8]
; File D:\_m2work\txoko-m2-work\txoko-client-src\source\UserInterface\InstanceBaseMovement.cpp

; 117  : 	NEW_SetAdvancingRotationFromDirPixelPosition(kPPosDelta);

  00032	8d 45 f4	 lea	 eax, DWORD PTR _kPPosDelta$[ebp]
  00035	50		 push	 eax
  00036	f3 0f 11 45 fc	 movss	 DWORD PTR _kPPosDelta$[ebp+8], xmm0
  0003b	e8 00 00 00 00	 call	 ?NEW_SetAdvancingRotationFromDirPixelPosition@CInstanceBase@@QAEXABUD3DXVECTOR3@@@Z ; CInstanceBase::NEW_SetAdvancingRotationFromDirPixelPosition

; 118  : }

  00040	8b e5		 mov	 esp, ebp
  00042	5d		 pop	 ebp
  00043	c2 08 00	 ret	 8
?NEW_SetAdvancingRotationFromPixelPosition@CInstanceBase@@QAEXABUD3DXVECTOR3@@0@Z ENDP ; CInstanceBase::NEW_SetAdvancingRotationFromPixelPosition
_TEXT	ENDS
; Function compile flags: /Ogtp
; File D:\_m2work\txoko-m2-work\txoko-client-src\source\UserInterface\InstanceBaseMovement.cpp
;	COMDAT ?IsPushing@CInstanceBase@@QAEHXZ
_TEXT	SEGMENT
?IsPushing@CInstanceBase@@QAEHXZ PROC			; CInstanceBase::IsPushing, COMDAT
; _this$ = ecx

; 201  : 	return m_GraphicThingInstance.IsPushing();

  00000	81 c1 d4 01 00
	00		 add	 ecx, 468		; 000001d4H
  00006	e8 00 00 00 00	 call	 ?IsPushing@CActorInstance@@QAE_NXZ ; CActorInstance::IsPushing
  0000b	0f b6 c0	 movzx	 eax, al

; 202  : }

  0000e	c3		 ret	 0
?IsPushing@CInstanceBase@@QAEHXZ ENDP			; CInstanceBase::IsPushing
_TEXT	ENDS
; Function compile flags: /Ogtp
; File D:\_m2work\txoko-m2-work\txoko-client-src\source\UserInterface\InstanceBaseMovement.cpp
;	COMDAT ?IsAttacked@CInstanceBase@@QAEHXZ
_TEXT	SEGMENT
?IsAttacked@CInstanceBase@@QAEHXZ PROC			; CInstanceBase::IsAttacked, COMDAT
; _this$ = ecx

; 206  : 	return m_GraphicThingInstance.IsAttacked();		

  00000	81 c1 d4 01 00
	00		 add	 ecx, 468		; 000001d4H
  00006	e9 00 00 00 00	 jmp	 ?IsAttacked@CActorInstance@@QAEHXZ ; CActorInstance::IsAttacked
?IsAttacked@CInstanceBase@@QAEHXZ ENDP			; CInstanceBase::IsAttacked
_TEXT	ENDS
; Function compile flags: /Ogtp
; File D:\_m2work\txoko-m2-work\txoko-client-src\source\UserInterface\InstanceBaseMovement.cpp
;	COMDAT ?IsActingEmotion@CInstanceBase@@QAEHXZ
_TEXT	SEGMENT
?IsActingEmotion@CInstanceBase@@QAEHXZ PROC		; CInstanceBase::IsActingEmotion, COMDAT
; _this$ = ecx

; 224  : 	return m_GraphicThingInstance.IsActEmotion();

  00000	81 c1 d4 01 00
	00		 add	 ecx, 468		; 000001d4H
  00006	e9 00 00 00 00	 jmp	 ?IsActEmotion@CActorInstance@@QAEHXZ ; CActorInstance::IsActEmotion
?IsActingEmotion@CInstanceBase@@QAEHXZ ENDP		; CInstanceBase::IsActingEmotion
_TEXT	ENDS
; Function compile flags: /Ogtp
; File D:\_m2work\txoko-m2-work\txoko-client-src\source\UserInterface\InstanceBaseMovement.cpp
;	COMDAT ?NEW_MoveToDestInstanceDirection@CInstanceBase@@QAEXAAV1@@Z
_TEXT	SEGMENT
_kPPosDst$ = -16					; size = 12
__$ArrayPad$ = -4					; size = 4
_rkInstDst$ = 8						; size = 4
?NEW_MoveToDestInstanceDirection@CInstanceBase@@QAEXAAV1@@Z PROC ; CInstanceBase::NEW_MoveToDestInstanceDirection, COMDAT
; _this$ = ecx

; 235  : {

  00000	55		 push	 ebp
  00001	8b ec		 mov	 ebp, esp
  00003	83 ec 10	 sub	 esp, 16			; 00000010H
  00006	a1 00 00 00 00	 mov	 eax, DWORD PTR ___security_cookie
  0000b	33 c5		 xor	 eax, ebp
  0000d	89 45 fc	 mov	 DWORD PTR __$ArrayPad$[ebp], eax
  00010	56		 push	 esi

; 236  : 	TPixelPosition kPPosDst;
; 237  : 	rkInstDst.NEW_GetPixelPosition(&kPPosDst);

  00011	8d 45 f0	 lea	 eax, DWORD PTR _kPPosDst$[ebp]
  00014	8b f1		 mov	 esi, ecx
  00016	8b 4d 08	 mov	 ecx, DWORD PTR _rkInstDst$[ebp]
  00019	50		 push	 eax
  0001a	e8 00 00 00 00	 call	 ?NEW_GetPixelPosition@CInstanceBase@@QAEXPAUD3DXVECTOR3@@@Z ; CInstanceBase::NEW_GetPixelPosition

; 238  : 
; 239  : 	NEW_MoveToDestPixelPositionDirection(kPPosDst);

  0001f	8d 45 f0	 lea	 eax, DWORD PTR _kPPosDst$[ebp]
  00022	8b ce		 mov	 ecx, esi
  00024	50		 push	 eax
  00025	e8 00 00 00 00	 call	 ?NEW_MoveToDestPixelPositionDirection@CInstanceBase@@QAE_NABUD3DXVECTOR3@@@Z ; CInstanceBase::NEW_MoveToDestPixelPositionDirection

; 240  : }

  0002a	8b 4d fc	 mov	 ecx, DWORD PTR __$ArrayPad$[ebp]
  0002d	33 cd		 xor	 ecx, ebp
  0002f	5e		 pop	 esi
  00030	e8 00 00 00 00	 call	 @__security_check_cookie@4
  00035	8b e5		 mov	 esp, ebp
  00037	5d		 pop	 ebp
  00038	c2 04 00	 ret	 4
?NEW_MoveToDestInstanceDirection@CInstanceBase@@QAEXAAV1@@Z ENDP ; CInstanceBase::NEW_MoveToDestInstanceDirection
_TEXT	ENDS
; Function compile flags: /Ogtp
; File D:\_m2work\txoko-m2-work\txoko-client-src\source\UserInterface\InstanceBaseMovement.cpp
;	COMDAT ?NEW_Goto@CInstanceBase@@QAE_NABUD3DXVECTOR3@@M@Z
_TEXT	SEGMENT
_fDstRot$1$ = -4					; size = 4
_c_rkPPosDst$ = 8					; size = 4
?NEW_Goto@CInstanceBase@@QAE_NABUD3DXVECTOR3@@M@Z PROC	; CInstanceBase::NEW_Goto, COMDAT
; _this$ = ecx
; _fDstRot$ = xmm2s

; 252  : {

  00000	55		 push	 ebp
  00001	8b ec		 mov	 ebp, esp
  00003	51		 push	 ecx
  00004	56		 push	 esi
  00005	57		 push	 edi
  00006	f3 0f 11 55 fc	 movss	 DWORD PTR _fDstRot$1$[ebp], xmm2
  0000b	8b f9		 mov	 edi, ecx

; 253  : 	if (__IsSyncing())

  0000d	e8 00 00 00 00	 call	 ?__IsSyncing@CInstanceBase@@QAEHXZ ; CInstanceBase::__IsSyncing
  00012	85 c0		 test	 eax, eax
  00014	0f 85 d6 00 00
	00		 jne	 $LN9@NEW_Goto

; 254  : 	{
; 255  : 		return false;
; 256  : 	}
; 257  : 
; 258  : 	if (m_GraphicThingInstance.IsUsingMovingSkill())

  0001a	8d 8f d4 01 00
	00		 lea	 ecx, DWORD PTR [edi+468]
  00020	e8 00 00 00 00	 call	 ?IsUsingMovingSkill@CActorInstance@@QAEHXZ ; CActorInstance::IsUsingMovingSkill
  00025	8b cf		 mov	 ecx, edi
  00027	85 c0		 test	 eax, eax
  00029	74 14		 je	 SHORT $LN3@NEW_Goto

; 259  : 	{
; 260  : 		SetAdvancingRotation(fDstRot);

  0002b	f3 0f 10 4d fc	 movss	 xmm1, DWORD PTR _fDstRot$1$[ebp]
  00030	e8 00 00 00 00	 call	 ?SetAdvancingRotation@CInstanceBase@@QAEXM@Z ; CInstanceBase::SetAdvancingRotation

; 261  : 		return true;

  00035	b0 01		 mov	 al, 1

; 291  : }

  00037	5f		 pop	 edi
  00038	5e		 pop	 esi
  00039	8b e5		 mov	 esp, ebp
  0003b	5d		 pop	 ebp
  0003c	c2 04 00	 ret	 4
$LN3@NEW_Goto:

; 262  : 	}
; 263  : 
; 264  : 	if (isLock())

  0003f	e8 00 00 00 00	 call	 ?isLock@CInstanceBase@@QAEHXZ ; CInstanceBase::isLock
  00044	85 c0		 test	 eax, eax
  00046	0f 85 a4 00 00
	00		 jne	 $LN9@NEW_Goto

; 265  : 	{
; 266  : 		return false;
; 267  : 	}
; 268  : 
; 269  : 	if (!NEW_CanMoveToDestPixelPosition(c_rkPPosDst))

  0004c	8b 75 08	 mov	 esi, DWORD PTR _c_rkPPosDst$[ebp]
  0004f	8b cf		 mov	 ecx, edi
  00051	56		 push	 esi
  00052	e8 00 00 00 00	 call	 ?NEW_CanMoveToDestPixelPosition@CInstanceBase@@QAE_NABUD3DXVECTOR3@@@Z ; CInstanceBase::NEW_CanMoveToDestPixelPosition
  00057	8b cf		 mov	 ecx, edi
  00059	84 c0		 test	 al, al
  0005b	75 22		 jne	 SHORT $LN5@NEW_Goto

; 270  : 	{
; 271  : 		if (!IsWaiting())

  0005d	e8 00 00 00 00	 call	 ?IsWaiting@CInstanceBase@@QAEHXZ ; CInstanceBase::IsWaiting
  00062	85 c0		 test	 eax, eax
  00064	75 0f		 jne	 SHORT $LN6@NEW_Goto

; 272  : 			EndWalking();

  00066	f3 0f 10 0d 00
	00 00 00	 movss	 xmm1, DWORD PTR __real@3e19999a
  0006e	8b cf		 mov	 ecx, edi
  00070	e8 00 00 00 00	 call	 ?EndWalking@CInstanceBase@@QAEXM@Z ; CInstanceBase::EndWalking
$LN6@NEW_Goto:

; 273  : 
; 274  : 		return true;

  00075	b0 01		 mov	 al, 1

; 291  : }

  00077	5f		 pop	 edi
  00078	5e		 pop	 esi
  00079	8b e5		 mov	 esp, ebp
  0007b	5d		 pop	 ebp
  0007c	c2 04 00	 ret	 4
$LN5@NEW_Goto:

; 275  : 	}
; 276  : 
; 277  : 	NEW_SetSrcPixelPosition(NEW_GetCurPixelPositionRef());

  0007f	e8 00 00 00 00	 call	 ?NEW_GetCurPixelPositionRef@CInstanceBase@@IAEABUD3DXVECTOR3@@XZ ; CInstanceBase::NEW_GetCurPixelPositionRef
  00084	50		 push	 eax
  00085	8b cf		 mov	 ecx, edi
  00087	e8 00 00 00 00	 call	 ?NEW_SetSrcPixelPosition@CInstanceBase@@IAEXABUD3DXVECTOR3@@@Z ; CInstanceBase::NEW_SetSrcPixelPosition

; 278  : 	NEW_SetDstPixelPosition(c_rkPPosDst);

  0008c	56		 push	 esi
  0008d	8b cf		 mov	 ecx, edi
  0008f	e8 00 00 00 00	 call	 ?NEW_SetDstPixelPosition@CInstanceBase@@IAEXABUD3DXVECTOR3@@@Z ; CInstanceBase::NEW_SetDstPixelPosition

; 279  : 	NEW_SetDstPixelPositionZ(NEW_GetSrcPixelPositionRef().z);

  00094	8b cf		 mov	 ecx, edi
  00096	e8 00 00 00 00	 call	 ?NEW_GetSrcPixelPositionRef@CInstanceBase@@IAEABUD3DXVECTOR3@@XZ ; CInstanceBase::NEW_GetSrcPixelPositionRef
  0009b	8b cf		 mov	 ecx, edi
  0009d	f3 0f 10 48 08	 movss	 xmm1, DWORD PTR [eax+8]
  000a2	e8 00 00 00 00	 call	 ?NEW_SetDstPixelPositionZ@CInstanceBase@@IAEXM@Z ; CInstanceBase::NEW_SetDstPixelPositionZ

; 280  : 	m_fDstRot=fDstRot;

  000a7	f3 0f 10 45 fc	 movss	 xmm0, DWORD PTR _fDstRot$1$[ebp]

; 281  : 	m_isGoing = TRUE;
; 282  : 
; 283  : 	if (!IsWalking())

  000ac	8b cf		 mov	 ecx, edi
  000ae	f3 0f 11 87 c0
	01 00 00	 movss	 DWORD PTR [edi+448], xmm0
  000b6	c6 87 88 01 00
	00 01		 mov	 BYTE PTR [edi+392], 1
  000bd	e8 00 00 00 00	 call	 ?IsWalking@CInstanceBase@@QAEHXZ ; CInstanceBase::IsWalking
  000c2	85 c0		 test	 eax, eax
  000c4	75 07		 jne	 SHORT $LN7@NEW_Goto

; 284  : 	{
; 285  : 		StartWalking();

  000c6	8b cf		 mov	 ecx, edi
  000c8	e8 00 00 00 00	 call	 ?StartWalking@CInstanceBase@@IAEXXZ ; CInstanceBase::StartWalking
$LN7@NEW_Goto:

; 286  : 	}
; 287  : 
; 288  : 	NEW_SetAdvancingRotationFromPixelPosition(NEW_GetSrcPixelPositionRef(), NEW_GetDstPixelPositionRef());

  000cd	8b cf		 mov	 ecx, edi
  000cf	e8 00 00 00 00	 call	 ?NEW_GetDstPixelPositionRef@CInstanceBase@@QAEABUD3DXVECTOR3@@XZ ; CInstanceBase::NEW_GetDstPixelPositionRef
  000d4	8b cf		 mov	 ecx, edi
  000d6	8b f0		 mov	 esi, eax
  000d8	e8 00 00 00 00	 call	 ?NEW_GetSrcPixelPositionRef@CInstanceBase@@IAEABUD3DXVECTOR3@@XZ ; CInstanceBase::NEW_GetSrcPixelPositionRef
  000dd	56		 push	 esi
  000de	50		 push	 eax
  000df	8b cf		 mov	 ecx, edi
  000e1	e8 00 00 00 00	 call	 ?NEW_SetAdvancingRotationFromPixelPosition@CInstanceBase@@QAEXABUD3DXVECTOR3@@0@Z ; CInstanceBase::NEW_SetAdvancingRotationFromPixelPosition

; 289  : 
; 290  : 	return true;

  000e6	b0 01		 mov	 al, 1

; 291  : }

  000e8	5f		 pop	 edi
  000e9	5e		 pop	 esi
  000ea	8b e5		 mov	 esp, ebp
  000ec	5d		 pop	 ebp
  000ed	c2 04 00	 ret	 4
$LN9@NEW_Goto:
  000f0	5f		 pop	 edi
  000f1	32 c0		 xor	 al, al
  000f3	5e		 pop	 esi
  000f4	8b e5		 mov	 esp, ebp
  000f6	5d		 pop	 ebp
  000f7	c2 04 00	 ret	 4
?NEW_Goto@CInstanceBase@@QAE_NABUD3DXVECTOR3@@M@Z ENDP	; CInstanceBase::NEW_Goto
_TEXT	ENDS
; Function compile flags: /Ogtp
; File D:\_m2work\txoko-m2-work\txoko-client-src\source\UserInterface\InstanceBaseMovement.cpp
; File D:\_m2work\txoko-m2-work\txoko-client-src\extern\include\d3dx8math.inl
; File D:\_m2work\txoko-m2-work\txoko-client-src\source\UserInterface\InstanceBaseMovement.cpp
; File D:\_m2work\txoko-m2-work\txoko-client-src\extern\include\d3dx8math.inl
; File D:\_m2work\txoko-m2-work\txoko-client-src\source\UserInterface\InstanceBaseMovement.cpp
; File D:\_m2work\txoko-m2-work\txoko-client-src\extern\include\d3dx8math.inl
; File D:\_m2work\txoko-m2-work\txoko-client-src\source\UserInterface\InstanceBaseMovement.cpp
; File D:\_m2work\txoko-m2-work\txoko-client-src\extern\include\d3dx8math.inl
; File D:\_m2work\txoko-m2-work\txoko-client-src\source\UserInterface\InstanceBaseMovement.cpp
; File D:\_m2work\txoko-m2-work\txoko-client-src\extern\include\d3dx8math.inl
; File D:\_m2work\txoko-m2-work\txoko-client-src\source\UserInterface\InstanceBaseMovement.cpp
; File D:\_m2work\txoko-m2-work\txoko-client-src\extern\include\d3dx8math.inl
; File D:\_m2work\txoko-m2-work\txoko-client-src\source\UserInterface\InstanceBaseMovement.cpp
; File D:\_m2work\txoko-m2-work\txoko-client-src\extern\include\d3dx8math.inl
; File D:\_m2work\txoko-m2-work\txoko-client-src\source\UserInterface\InstanceBaseMovement.cpp
; File D:\_m2work\txoko-m2-work\txoko-client-src\extern\include\d3dx8math.inl
; File D:\_m2work\txoko-m2-work\txoko-client-src\source\UserInterface\InstanceBaseMovement.cpp
; File D:\_m2work\txoko-m2-work\txoko-client-src\extern\include\d3dx8math.inl
; File D:\_m2work\txoko-m2-work\txoko-client-src\source\UserInterface\InstanceBaseMovement.cpp
;	COMDAT ?NEW_MoveToDirection@CInstanceBase@@QAEXM@Z
_TEXT	SEGMENT
_fDirRot$1$ = -124					; size = 4
tv334 = -120						; size = 4
tv337 = -116						; size = 4
tv338 = -112						; size = 4
_kD3DVt3AdvDir$ = -108					; size = 12
_kPPosCur$ = -96					; size = 12
_kPPosDst$ = -84					; size = 12
_kD3DMatAdv$ = -72					; size = 64
__$ArrayPad$ = -4					; size = 4
?NEW_MoveToDirection@CInstanceBase@@QAEXM@Z PROC	; CInstanceBase::NEW_MoveToDirection, COMDAT
; _this$ = ecx
; _fDirRot$ = xmm1s

; 294  : {

  00000	55		 push	 ebp
  00001	8b ec		 mov	 ebp, esp
  00003	83 e4 f8	 and	 esp, -8			; fffffff8H
  00006	83 ec 7c	 sub	 esp, 124		; 0000007cH
  00009	a1 00 00 00 00	 mov	 eax, DWORD PTR ___security_cookie
  0000e	33 c4		 xor	 eax, esp
  00010	89 44 24 78	 mov	 DWORD PTR __$ArrayPad$[esp+124], eax
  00014	56		 push	 esi
  00015	f3 0f 11 4c 24
	04		 movss	 DWORD PTR _fDirRot$1$[esp+128], xmm1
  0001b	8b f1		 mov	 esi, ecx

; 295  : 	if (__IsSyncing())

  0001d	e8 00 00 00 00	 call	 ?__IsSyncing@CInstanceBase@@QAEHXZ ; CInstanceBase::__IsSyncing
  00022	85 c0		 test	 eax, eax
  00024	0f 85 56 01 00
	00		 jne	 $LN1@NEW_MoveTo

; 296  : 		return;
; 297  : 
; 298  : 	if (m_GraphicThingInstance.IsUsingMovingSkill())

  0002a	8d 8e d4 01 00
	00		 lea	 ecx, DWORD PTR [esi+468]
  00030	e8 00 00 00 00	 call	 ?IsUsingMovingSkill@CActorInstance@@QAEHXZ ; CActorInstance::IsUsingMovingSkill
  00035	8b ce		 mov	 ecx, esi
  00037	85 c0		 test	 eax, eax
  00039	74 1b		 je	 SHORT $LN3@NEW_MoveTo

; 299  : 	{
; 300  : 		SetAdvancingRotation(fDirRot);

  0003b	f3 0f 10 4c 24
	04		 movss	 xmm1, DWORD PTR _fDirRot$1$[esp+128]
  00041	e8 00 00 00 00	 call	 ?SetAdvancingRotation@CInstanceBase@@QAEXM@Z ; CInstanceBase::SetAdvancingRotation

; 336  : }

  00046	5e		 pop	 esi
  00047	8b 4c 24 78	 mov	 ecx, DWORD PTR __$ArrayPad$[esp+124]
  0004b	33 cc		 xor	 ecx, esp
  0004d	e8 00 00 00 00	 call	 @__security_check_cookie@4
  00052	8b e5		 mov	 esp, ebp
  00054	5d		 pop	 ebp
  00055	c3		 ret	 0
$LN3@NEW_MoveTo:

; 301  : 		return;
; 302  : 	}
; 303  : 
; 304  : 	if (isLock())

  00056	e8 00 00 00 00	 call	 ?isLock@CInstanceBase@@QAEHXZ ; CInstanceBase::isLock
  0005b	85 c0		 test	 eax, eax
  0005d	0f 85 1d 01 00
	00		 jne	 $LN1@NEW_MoveTo

; 305  : 		return;
; 306  : 
; 307  : 	m_isGoing = FALSE;
; 308  : 
; 309  : 	SetAdvancingRotation(fDirRot);	

  00063	f3 0f 10 4c 24
	04		 movss	 xmm1, DWORD PTR _fDirRot$1$[esp+128]
  00069	8b ce		 mov	 ecx, esi
  0006b	88 86 88 01 00
	00		 mov	 BYTE PTR [esi+392], al
  00071	e8 00 00 00 00	 call	 ?SetAdvancingRotation@CInstanceBase@@QAEXM@Z ; CInstanceBase::SetAdvancingRotation

; 310  : 
; 311  : 	if (!IsWalking())

  00076	8b ce		 mov	 ecx, esi
  00078	e8 00 00 00 00	 call	 ?IsWalking@CInstanceBase@@QAEHXZ ; CInstanceBase::IsWalking
  0007d	85 c0		 test	 eax, eax
  0007f	75 07		 jne	 SHORT $LN5@NEW_MoveTo

; 312  : 	{ 
; 313  : 		StartWalking();

  00081	8b ce		 mov	 ecx, esi
  00083	e8 00 00 00 00	 call	 ?StartWalking@CInstanceBase@@IAEXXZ ; CInstanceBase::StartWalking
$LN5@NEW_MoveTo:

; 314  : 	}
; 315  : 
; 316  : 	TPixelPosition kPPosCur;
; 317  : 	NEW_GetPixelPosition(&kPPosCur);

  00088	8d 44 24 20	 lea	 eax, DWORD PTR _kPPosCur$[esp+128]
  0008c	8b ce		 mov	 ecx, esi
  0008e	50		 push	 eax
  0008f	e8 00 00 00 00	 call	 ?NEW_GetPixelPosition@CInstanceBase@@QAEXPAUD3DXVECTOR3@@@Z ; CInstanceBase::NEW_GetPixelPosition
; File D:\_m2work\txoko-m2-work\txoko-client-src\extern\include\d3dx8math.inl

; 180  :     x = fx;

  00094	f3 0f 10 44 24
	20		 movss	 xmm0, DWORD PTR _kPPosCur$[esp+128]
; File D:\_m2work\txoko-m2-work\txoko-client-src\source\UserInterface\InstanceBaseMovement.cpp

; 324  : 	D3DXMatrixRotationZ(&kD3DMatAdv, D3DXToRadian(fDirRot));

  0009a	8d 44 24 38	 lea	 eax, DWORD PTR _kD3DMatAdv$[esp+128]
; File D:\_m2work\txoko-m2-work\txoko-client-src\extern\include\d3dx8math.inl

; 180  :     x = fx;

  0009e	f3 0f 11 44 24
	08		 movss	 DWORD PTR tv334[esp+128], xmm0
; File D:\_m2work\txoko-m2-work\txoko-client-src\source\UserInterface\InstanceBaseMovement.cpp

; 319  : 	D3DXVECTOR3 kD3DVt3Cur(kPPosCur.x, -kPPosCur.y, kPPosCur.z);		

  000a4	f3 0f 10 44 24
	24		 movss	 xmm0, DWORD PTR _kPPosCur$[esp+132]
  000aa	0f 57 05 00 00
	00 00		 xorps	 xmm0, DWORD PTR __xmm@80000000800000008000000080000000
  000b1	f3 0f 11 44 24
	10		 movss	 DWORD PTR tv338[esp+128], xmm0
; File D:\_m2work\txoko-m2-work\txoko-client-src\extern\include\d3dx8math.inl

; 182  :     z = fz;

  000b7	f3 0f 10 44 24
	28		 movss	 xmm0, DWORD PTR _kPPosCur$[esp+136]
  000bd	f3 0f 11 44 24
	0c		 movss	 DWORD PTR tv337[esp+128], xmm0
; File D:\_m2work\txoko-m2-work\txoko-client-src\source\UserInterface\InstanceBaseMovement.cpp

; 324  : 	D3DXMatrixRotationZ(&kD3DMatAdv, D3DXToRadian(fDirRot));

  000c3	f3 0f 10 44 24
	04		 movss	 xmm0, DWORD PTR _fDirRot$1$[esp+128]
  000c9	f3 0f 59 05 00
	00 00 00	 mulss	 xmm0, DWORD PTR __real@3c8efa35
  000d1	51		 push	 ecx
; File D:\_m2work\txoko-m2-work\txoko-client-src\extern\include\d3dx8math.inl

; 180  :     x = fx;

  000d2	c7 44 24 18 00
	00 00 00	 mov	 DWORD PTR _kD3DVt3AdvDir$[esp+132], 0

; 181  :     y = fy;

  000da	c7 44 24 1c 00
	00 80 bf	 mov	 DWORD PTR _kD3DVt3AdvDir$[esp+136], -1082130432 ; bf800000H
; File D:\_m2work\txoko-m2-work\txoko-client-src\source\UserInterface\InstanceBaseMovement.cpp

; 324  : 	D3DXMatrixRotationZ(&kD3DMatAdv, D3DXToRadian(fDirRot));

  000e2	f3 0f 11 04 24	 movss	 DWORD PTR [esp], xmm0
  000e7	50		 push	 eax
; File D:\_m2work\txoko-m2-work\txoko-client-src\extern\include\d3dx8math.inl

; 182  :     z = fz;

  000e8	c7 44 24 24 00
	00 00 00	 mov	 DWORD PTR _kD3DVt3AdvDir$[esp+144], 0
; File D:\_m2work\txoko-m2-work\txoko-client-src\source\UserInterface\InstanceBaseMovement.cpp

; 324  : 	D3DXMatrixRotationZ(&kD3DMatAdv, D3DXToRadian(fDirRot));

  000f0	e8 00 00 00 00	 call	 _D3DXMatrixRotationZ@8

; 325  : 	D3DXVec3TransformCoord(&kD3DVt3AdvDir, &kD3DVt3AdvDir, &kD3DMatAdv);

  000f5	8d 44 24 38	 lea	 eax, DWORD PTR _kD3DMatAdv$[esp+128]
  000f9	50		 push	 eax
  000fa	8d 44 24 18	 lea	 eax, DWORD PTR _kD3DVt3AdvDir$[esp+132]
  000fe	50		 push	 eax
  000ff	50		 push	 eax
  00100	e8 00 00 00 00	 call	 _D3DXVec3TransformCoord@12
; File D:\_m2work\txoko-m2-work\txoko-client-src\extern\include\d3dx8math.inl

; 1349 :     pOut->x = pV->x * s;

  00105	f3 0f 10 05 00
	00 00 00	 movss	 xmm0, DWORD PTR __real@43960000
; File D:\_m2work\txoko-m2-work\txoko-client-src\source\UserInterface\InstanceBaseMovement.cpp

; 334  : 	NEW_SetSrcPixelPosition(kPPosCur);

  0010d	8d 44 24 20	 lea	 eax, DWORD PTR _kPPosCur$[esp+128]
; File D:\_m2work\txoko-m2-work\txoko-client-src\extern\include\d3dx8math.inl

; 1350 :     pOut->y = pV->y * s;

  00111	f3 0f 10 54 24
	18		 movss	 xmm2, DWORD PTR _kD3DVt3AdvDir$[esp+132]
; File D:\_m2work\txoko-m2-work\txoko-client-src\source\UserInterface\InstanceBaseMovement.cpp

; 334  : 	NEW_SetSrcPixelPosition(kPPosCur);

  00117	8b ce		 mov	 ecx, esi
; File D:\_m2work\txoko-m2-work\txoko-client-src\extern\include\d3dx8math.inl

; 1349 :     pOut->x = pV->x * s;

  00119	f3 0f 10 5c 24
	14		 movss	 xmm3, DWORD PTR _kD3DVt3AdvDir$[esp+128]

; 1351 :     pOut->z = pV->z * s;

  0011f	f3 0f 10 4c 24
	1c		 movss	 xmm1, DWORD PTR _kD3DVt3AdvDir$[esp+136]
  00125	f3 0f 59 d0	 mulss	 xmm2, xmm0
; File D:\_m2work\txoko-m2-work\txoko-client-src\source\UserInterface\InstanceBaseMovement.cpp

; 334  : 	NEW_SetSrcPixelPosition(kPPosCur);

  00129	50		 push	 eax
; File D:\_m2work\txoko-m2-work\txoko-client-src\extern\include\d3dx8math.inl

; 1349 :     pOut->x = pV->x * s;

  0012a	f3 0f 59 d8	 mulss	 xmm3, xmm0

; 1351 :     pOut->z = pV->z * s;

  0012e	f3 0f 59 c8	 mulss	 xmm1, xmm0
  00132	f3 0f 11 54 24
	1c		 movss	 DWORD PTR _kD3DVt3AdvDir$[esp+136], xmm2

; 1293 :     pOut->x = pV1->x + pV2->x;

  00138	f3 0f 58 54 24
	14		 addss	 xmm2, DWORD PTR tv338[esp+132]

; 1349 :     pOut->x = pV->x * s;

  0013e	f3 0f 11 5c 24
	18		 movss	 DWORD PTR _kD3DVt3AdvDir$[esp+132], xmm3

; 1351 :     pOut->z = pV->z * s;

  00144	f3 0f 58 5c 24
	0c		 addss	 xmm3, DWORD PTR tv334[esp+132]
  0014a	f3 0f 11 4c 24
	20		 movss	 DWORD PTR _kD3DVt3AdvDir$[esp+140], xmm1

; 1294 :     pOut->y = pV1->y + pV2->y;

  00150	f3 0f 58 4c 24
	10		 addss	 xmm1, DWORD PTR tv337[esp+132]
; File D:\_m2work\txoko-m2-work\txoko-client-src\source\UserInterface\InstanceBaseMovement.cpp

; 330  : 	kPPosDst.x = +kD3DVt3Dst.x;

  00156	0f 57 15 00 00
	00 00		 xorps	 xmm2, DWORD PTR __xmm@80000000800000008000000080000000

; 331  : 	kPPosDst.y = -kD3DVt3Dst.y;

  0015d	f3 0f 11 54 24
	34		 movss	 DWORD PTR _kPPosDst$[esp+136], xmm2
  00163	f3 0f 11 5c 24
	30		 movss	 DWORD PTR _kPPosDst$[esp+132], xmm3

; 332  : 	kPPosDst.z = +kD3DVt3Dst.z;

  00169	f3 0f 11 4c 24
	38		 movss	 DWORD PTR _kPPosDst$[esp+140], xmm1

; 334  : 	NEW_SetSrcPixelPosition(kPPosCur);

  0016f	e8 00 00 00 00	 call	 ?NEW_SetSrcPixelPosition@CInstanceBase@@IAEXABUD3DXVECTOR3@@@Z ; CInstanceBase::NEW_SetSrcPixelPosition

; 335  : 	NEW_SetDstPixelPosition(kPPosDst);

  00174	8d 44 24 2c	 lea	 eax, DWORD PTR _kPPosDst$[esp+128]
  00178	8b ce		 mov	 ecx, esi
  0017a	50		 push	 eax
  0017b	e8 00 00 00 00	 call	 ?NEW_SetDstPixelPosition@CInstanceBase@@IAEXABUD3DXVECTOR3@@@Z ; CInstanceBase::NEW_SetDstPixelPosition
$LN1@NEW_MoveTo:

; 336  : }

  00180	8b 4c 24 7c	 mov	 ecx, DWORD PTR __$ArrayPad$[esp+128]
  00184	5e		 pop	 esi
  00185	33 cc		 xor	 ecx, esp
  00187	e8 00 00 00 00	 call	 @__security_check_cookie@4
  0018c	8b e5		 mov	 esp, ebp
  0018e	5d		 pop	 ebp
  0018f	c3		 ret	 0
?NEW_MoveToDirection@CInstanceBase@@QAEXM@Z ENDP	; CInstanceBase::NEW_MoveToDirection
_TEXT	ENDS
; Function compile flags: /Ogtp
; File D:\_m2work\txoko-m2-work\txoko-client-src\source\UserInterface\InstanceBaseMovement.cpp
;	COMDAT ?SetRunMode@CInstanceBase@@QAEXXZ
_TEXT	SEGMENT
?SetRunMode@CInstanceBase@@QAEXXZ PROC			; CInstanceBase::SetRunMode, COMDAT
; _this$ = ecx

; 350  : 	m_GraphicThingInstance.SetRunMode();

  00000	81 c1 d4 01 00
	00		 add	 ecx, 468		; 000001d4H
  00006	e9 00 00 00 00	 jmp	 ?SetRunMode@CActorInstance@@QAEXXZ ; CActorInstance::SetRunMode
?SetRunMode@CInstanceBase@@QAEXXZ ENDP			; CInstanceBase::SetRunMode
_TEXT	ENDS
; Function compile flags: /Ogtp
; File D:\_m2work\txoko-m2-work\txoko-client-src\source\UserInterface\InstanceBaseMovement.cpp
;	COMDAT ?SetWalkMode@CInstanceBase@@QAEXXZ
_TEXT	SEGMENT
?SetWalkMode@CInstanceBase@@QAEXXZ PROC			; CInstanceBase::SetWalkMode, COMDAT
; _this$ = ecx

; 355  : 	m_GraphicThingInstance.SetWalkMode();

  00000	81 c1 d4 01 00
	00		 add	 ecx, 468		; 000001d4H
  00006	e9 00 00 00 00	 jmp	 ?SetWalkMode@CActorInstance@@QAEXXZ ; CActorInstance::SetWalkMode
?SetWalkMode@CInstanceBase@@QAEXXZ ENDP			; CInstanceBase::SetWalkMode
_TEXT	ENDS
; Function compile flags: /Ogtp
; File D:\_m2work\txoko-m2-work\txoko-client-src\extern\include\d3dx8math.inl
;	COMDAT ?D3DXVec3Add@@YAPAUD3DXVECTOR3@@PAU1@PBU1@1@Z
_TEXT	SEGMENT
_pV2$ = 8						; size = 4
?D3DXVec3Add@@YAPAUD3DXVECTOR3@@PAU1@PBU1@1@Z PROC	; D3DXVec3Add, COMDAT
; _pOut$ = ecx
; _pV1$ = edx

; 1287 : {

  00000	55		 push	 ebp
  00001	8b ec		 mov	 ebp, esp

; 1288 : #ifdef D3DX_DEBUG
; 1289 :     if(!pOut || !pV1 || !pV2)
; 1290 :         return NULL;
; 1291 : #endif
; 1292 : 
; 1293 :     pOut->x = pV1->x + pV2->x;

  00003	8b 45 08	 mov	 eax, DWORD PTR _pV2$[ebp]
  00006	f3 0f 10 02	 movss	 xmm0, DWORD PTR [edx]
  0000a	f3 0f 58 00	 addss	 xmm0, DWORD PTR [eax]
  0000e	f3 0f 11 01	 movss	 DWORD PTR [ecx], xmm0

; 1294 :     pOut->y = pV1->y + pV2->y;

  00012	f3 0f 10 42 04	 movss	 xmm0, DWORD PTR [edx+4]
  00017	f3 0f 58 40 04	 addss	 xmm0, DWORD PTR [eax+4]
  0001c	f3 0f 11 41 04	 movss	 DWORD PTR [ecx+4], xmm0

; 1295 :     pOut->z = pV1->z + pV2->z;

  00021	f3 0f 10 42 08	 movss	 xmm0, DWORD PTR [edx+8]
  00026	f3 0f 58 40 08	 addss	 xmm0, DWORD PTR [eax+8]

; 1296 :     return pOut;

  0002b	8b c1		 mov	 eax, ecx
  0002d	f3 0f 11 41 08	 movss	 DWORD PTR [ecx+8], xmm0

; 1297 : }

  00032	5d		 pop	 ebp
  00033	c3		 ret	 0
?D3DXVec3Add@@YAPAUD3DXVECTOR3@@PAU1@PBU1@1@Z ENDP	; D3DXVec3Add
_TEXT	ENDS
; Function compile flags: /Ogtp
; File D:\_m2work\txoko-m2-work\txoko-client-src\extern\include\d3dx8math.inl
;	COMDAT ?D3DXVec3Scale@@YAPAUD3DXVECTOR3@@PAU1@PBU1@M@Z
_TEXT	SEGMENT
?D3DXVec3Scale@@YAPAUD3DXVECTOR3@@PAU1@PBU1@M@Z PROC	; D3DXVec3Scale, COMDAT
; _pOut$ = ecx
; _pV$ = edx
; _s$ = xmm2s

; 1344 : #ifdef D3DX_DEBUG
; 1345 :     if(!pOut || !pV)
; 1346 :         return NULL;
; 1347 : #endif
; 1348 : 
; 1349 :     pOut->x = pV->x * s;

  00000	0f 28 c2	 movaps	 xmm0, xmm2

; 1350 :     pOut->y = pV->y * s;
; 1351 :     pOut->z = pV->z * s;
; 1352 :     return pOut;

  00003	8b c1		 mov	 eax, ecx
  00005	f3 0f 59 02	 mulss	 xmm0, DWORD PTR [edx]
  00009	f3 0f 11 01	 movss	 DWORD PTR [ecx], xmm0
  0000d	0f 28 c2	 movaps	 xmm0, xmm2
  00010	f3 0f 59 42 04	 mulss	 xmm0, DWORD PTR [edx+4]
  00015	f3 0f 11 41 04	 movss	 DWORD PTR [ecx+4], xmm0
  0001a	f3 0f 59 52 08	 mulss	 xmm2, DWORD PTR [edx+8]
  0001f	f3 0f 11 51 08	 movss	 DWORD PTR [ecx+8], xmm2

; 1353 : }

  00024	c3		 ret	 0
?D3DXVec3Scale@@YAPAUD3DXVECTOR3@@PAU1@PBU1@M@Z ENDP	; D3DXVec3Scale
_TEXT	ENDS
; Function compile flags: /Ogtp
; File C:\Program Files\Microsoft Visual Studio\2022\Community\VC\Tools\MSVC\14.44.35207\include\cmath
;	COMDAT ?floor@@YAMM@Z
_TEXT	SEGMENT
tv72 = -8						; size = 4
__Xx$ = -4						; size = 4
?floor@@YAMM@Z PROC					; floor, COMDAT
; __Xx$ = xmm0s

; 124  : _NODISCARD _Check_return_ inline float floor(_In_ float _Xx) noexcept /* strengthened */ {

  00000	55		 push	 ebp
  00001	8b ec		 mov	 ebp, esp
  00003	83 ec 08	 sub	 esp, 8

; 125  : #if _HAS_CMATH_INTRINSICS
; 126  :     return __floorf(_Xx);

  00006	83 ec 08	 sub	 esp, 8
  00009	f3 0f 11 45 fc	 movss	 DWORD PTR __Xx$[ebp], xmm0
  0000e	d9 45 fc	 fld	 DWORD PTR __Xx$[ebp]
  00011	dd 1c 24	 fstp	 QWORD PTR [esp]
  00014	e8 00 00 00 00	 call	 _floor
  00019	d9 5d f8	 fstp	 DWORD PTR tv72[ebp]
  0001c	f3 0f 10 45 f8	 movss	 xmm0, DWORD PTR tv72[ebp]
  00021	83 c4 08	 add	 esp, 8

; 127  : #elif defined(__clang__)
; 128  :     return __builtin_floorf(_Xx);
; 129  : #else // ^^^ defined(__clang__) / intrinsics unavailable vvv
; 130  :     return _CSTD floorf(_Xx);
; 131  : #endif // ^^^ intrinsics unavailable ^^^
; 132  : }

  00024	8b e5		 mov	 esp, ebp
  00026	5d		 pop	 ebp
  00027	c3		 ret	 0
?floor@@YAMM@Z ENDP					; floor
_TEXT	ENDS
END
