; Listing generated by Microsoft (R) Optimizing Compiler Version 19.44.35217.0 

	TITLE	d:\_m2work\server client tmp4\clientvs22\vs_files\userinterface\distribute\instancebase.obj
	.686P
	.XMM
	include listing.inc
	.model	flat

INCLUDELIB OLDNAMES

PUBLIC	??_C@_06PNAKCKLH@saddle@			; `string'
PUBLIC	??_C@_0EL@PHAIMNFF@CInstanceBase?3?3__EnableSkipColl@ ; `string'
PUBLIC	??_C@_01CLKCMJKC@?5@				; `string'
PUBLIC	??_C@_0BP@PGINAIMI@Inst?5?9?5UC?5?$CFd?0?5RC?5?$CFd?5Pool?5?9?5?$CFd?5@ ; `string'
PUBLIC	??_C@_0EG@IFLKAGDE@CInstanceBase?3?3PushTCPState?5?G?C?$LH@ ; `string'
PUBLIC	??_C@_0DM@EIDAANLK@vid?$DN?$CFd?5?$LP?r?A?w?$MA?O?5?$LM?v?5?$LO?x?$LE?B?5?$LL?s?E?B?$LG?s?5?$LN?$LK@ ; `string'
PUBLIC	??_C@_0EG@MNIPPABI@CPythonCharacterManager?3?3Change@ ; `string'
PUBLIC	??_C@_0O@NKNMEGII@list?5too?5long@		; `string'
PUBLIC	??_R2CActorInstanceBackground@@8		; CActorInstanceBackground::`RTTI Base Class Array'
PUBLIC	??_R2?$CDynamicPool@VCInstanceBase@@@@8		; CDynamicPool<CInstanceBase>::`RTTI Base Class Array'
PUBLIC	??_R2CInstanceBase@@8				; CInstanceBase::`RTTI Base Class Array'
PUBLIC	??_R1A@?0A@EA@CActorInstanceBackground@@8	; CActorInstanceBackground::`RTTI Base Class Descriptor at (0,-1,0,64)'
PUBLIC	??_R1A@?0A@EA@?$CDynamicPool@VCInstanceBase@@@@8 ; CDynamicPool<CInstanceBase>::`RTTI Base Class Descriptor at (0,-1,0,64)'
PUBLIC	??_R1A@?0A@EA@CInstanceBase@@8			; CInstanceBase::`RTTI Base Class Descriptor at (0,-1,0,64)'
PUBLIC	??_R3CActorInstanceBackground@@8		; CActorInstanceBackground::`RTTI Class Hierarchy Descriptor'
PUBLIC	??_R0?AVCActorInstanceBackground@@@8		; CActorInstanceBackground `RTTI Type Descriptor'
PUBLIC	??_R3?$CDynamicPool@VCInstanceBase@@@@8		; CDynamicPool<CInstanceBase>::`RTTI Class Hierarchy Descriptor'
PUBLIC	??_R0?AV?$CDynamicPool@VCInstanceBase@@@@@8	; CDynamicPool<CInstanceBase> `RTTI Type Descriptor'
PUBLIC	??_R3CInstanceBase@@8				; CInstanceBase::`RTTI Class Hierarchy Descriptor'
PUBLIC	??_R0?AVCInstanceBase@@@8			; CInstanceBase `RTTI Type Descriptor'
PUBLIC	??_R4CActorInstanceBackground@@6B@		; CActorInstanceBackground::`RTTI Complete Object Locator'
PUBLIC	??_R4?$CDynamicPool@VCInstanceBase@@@@6B@	; CDynamicPool<CInstanceBase>::`RTTI Complete Object Locator'
PUBLIC	??_R4CInstanceBase@@6B@				; CInstanceBase::`RTTI Complete Object Locator'
PUBLIC	?ms_singleton@?$CSingleton@VCStateManager@@@@0PAVCStateManager@@A ; CSingleton<CStateManager>::ms_singleton
PUBLIC	??_7?$CDynamicPool@VCInstanceBase@@@@6B@	; CDynamicPool<CInstanceBase>::`vftable'
PUBLIC	?ms_singleton@?$CSingleton@VCPythonNonPlayer@@@@0PAVCPythonNonPlayer@@A ; CSingleton<CPythonNonPlayer>::ms_singleton
PUBLIC	?ms_singleton@?$TAbstractSingleton@VIAbstractPlayer@@@@0PAVIAbstractPlayer@@A ; TAbstractSingleton<IAbstractPlayer>::ms_singleton
PUBLIC	?ms_singleton@?$CSingleton@VCPythonPlayer@@@@0PAVCPythonPlayer@@A ; CSingleton<CPythonPlayer>::ms_singleton
PUBLIC	?ms_singleton@?$TAbstractSingleton@VIAbstractApplication@@@@0PAVIAbstractApplication@@A ; TAbstractSingleton<IAbstractApplication>::ms_singleton
PUBLIC	?ms_singleton@?$CSingleton@VCItemManager@@@@0PAVCItemManager@@A ; CSingleton<CItemManager>::ms_singleton
PUBLIC	??_7CInstanceBase@@6B@				; CInstanceBase::`vftable'
PUBLIC	?g_iAccumulationTime@@3HA			; g_iAccumulationTime
PUBLIC	?_OptionsStorage@?1??__local_stdio_printf_options@@9@4_KA ; `__local_stdio_printf_options'::`2'::_OptionsStorage
PUBLIC	?ms_dwDeformCounter@CInstanceBase@@1KA		; CInstanceBase::ms_dwDeformCounter
PUBLIC	?ms_dwRenderCounter@CInstanceBase@@1KA		; CInstanceBase::ms_dwRenderCounter
PUBLIC	?ms_dwUpdateCounter@CInstanceBase@@1KA		; CInstanceBase::ms_dwUpdateCounter
PUBLIC	??_7CActorInstanceBackground@@6B@		; CActorInstanceBackground::`vftable'
PUBLIC	??_R4?$CSingleton@VIBackground@@@@6B@		; CSingleton<IBackground>::`RTTI Complete Object Locator'
PUBLIC	??_7?$CSingleton@VIBackground@@@@6B@		; CSingleton<IBackground>::`vftable'
PUBLIC	?ms_singleton@?$CSingleton@VIBackground@@@@0PAVIBackground@@A ; CSingleton<IBackground>::ms_singleton
PUBLIC	??_R0?AVIBackground@@@8				; IBackground `RTTI Type Descriptor'
PUBLIC	??_R1A@?0A@EA@IBackground@@8			; IBackground::`RTTI Base Class Descriptor at (0,-1,0,64)'
PUBLIC	??_R0?AV?$CSingleton@VIBackground@@@@@8		; CSingleton<IBackground> `RTTI Type Descriptor'
PUBLIC	??_R2?$CSingleton@VIBackground@@@@8		; CSingleton<IBackground>::`RTTI Base Class Array'
PUBLIC	??_R3?$CSingleton@VIBackground@@@@8		; CSingleton<IBackground>::`RTTI Class Hierarchy Descriptor'
PUBLIC	??_R1A@?0A@EA@?$CSingleton@VIBackground@@@@8	; CSingleton<IBackground>::`RTTI Base Class Descriptor at (0,-1,0,64)'
PUBLIC	??_R2IBackground@@8				; IBackground::`RTTI Base Class Array'
PUBLIC	??_R3IBackground@@8				; IBackground::`RTTI Class Hierarchy Descriptor'
PUBLIC	??_R4IBackground@@6B@				; IBackground::`RTTI Complete Object Locator'
PUBLIC	??_7IBackground@@6B@				; IBackground::`vftable'
PUBLIC	?USE_ARMOR_SPECULAR@@3HA			; USE_ARMOR_SPECULAR
PUBLIC	?HAIR_COLOR_ENABLE@@3HA				; HAIR_COLOR_ENABLE
EXTRN	___std_find_first_of_trivial_pos_1@16:PROC
EXTRN	?GetBoundBox@CGraphicThingInstance@@QAEXPAUD3DXVECTOR3@@0@Z:PROC ; CGraphicThingInstance::GetBoundBox
EXTRN	??1CActorInstance@@UAE@XZ:PROC			; CActorInstance::~CActorInstance
EXTRN	?Initialize@CGraphicObjectInstance@@QAEXXZ:PROC	; CGraphicObjectInstance::Initialize
EXTRN	?DestroyDeviceObjects@CGraphicThingInstance@@QAEXXZ:PROC ; CGraphicThingInstance::DestroyDeviceObjects
EXTRN	?CreateDeviceObjects@CGraphicThingInstance@@QAE_NXZ:PROC ; CGraphicThingInstance::CreateDeviceObjects
EXTRN	?RegisterBoundingSphere@CGraphicObjectInstance@@QAEXXZ:PROC ; CGraphicObjectInstance::RegisterBoundingSphere
EXTRN	?DeformNoSkin@CGraphicThingInstance@@QAEXXZ:PROC ; CGraphicThingInstance::DeformNoSkin
EXTRN	?InterceptLoopMotion@CActorInstance@@QAE_NKM@Z:PROC ; CActorInstance::InterceptLoopMotion
EXTRN	?GetPartItemID@CActorInstance@@QAEKK@Z:PROC	; CActorInstance::GetPartItemID
EXTRN	?AttachWeapon@CActorInstance@@QAEXKKK@Z:PROC	; CActorInstance::AttachWeapon
EXTRN	?GetIndex@CItemData@@QBEKXZ:PROC		; CItemData::GetIndex
EXTRN	?GetSubType@CItemData@@QBEEXZ:PROC		; CItemData::GetSubType
EXTRN	?GetType@CItemData@@QBEEXZ:PROC			; CItemData::GetType
EXTRN	?GetSocketCount@CItemData@@QBEHXZ:PROC		; CItemData::GetSocketCount
EXTRN	?GetRefine@CItemData@@QBEIXZ:PROC		; CItemData::GetRefine
EXTRN	?GetWeaponType@CItemData@@QBEKXZ:PROC		; CItemData::GetWeaponType
EXTRN	?GetSpecularPowerf@CItemData@@QBEMXZ:PROC	; CItemData::GetSpecularPowerf
EXTRN	?SetHair@CActorInstance@@QAEXK@Z:PROC		; CActorInstance::SetHair
EXTRN	?GetAlphaValue@CActorInstance@@QAEMXZ:PROC	; CActorInstance::GetAlphaValue
EXTRN	?SetBlendRenderMode@CActorInstance@@QAEXXZ:PROC	; CActorInstance::SetBlendRenderMode
EXTRN	?SetAddColor@CActorInstance@@QAEXABUD3DXCOLOR@@@Z:PROC ; CActorInstance::SetAddColor
EXTRN	?SetRenderMode@CActorInstance@@QAEXH@Z:PROC	; CActorInstance::SetRenderMode
EXTRN	?SetModulateRenderMode@CActorInstance@@QAEXXZ:PROC ; CActorInstance::SetModulateRenderMode
EXTRN	?SetAddRenderMode@CActorInstance@@QAEXXZ:PROC	; CActorInstance::SetAddRenderMode
EXTRN	?RestoreRenderMode@CActorInstance@@QAEXXZ:PROC	; CActorInstance::RestoreRenderMode
EXTRN	?IntersectDefendingSphere@CActorInstance@@QAE_NXZ:PROC ; CActorInstance::IntersectDefendingSphere
EXTRN	?Intersect@CGraphicThingInstance@@QAE_NPAM00@Z:PROC ; CGraphicThingInstance::Intersect
EXTRN	?isShow@CGraphicObjectInstance@@QAE_NXZ:PROC	; CGraphicObjectInstance::isShow
EXTRN	?GetActorType@CActorInstance@@QBEIXZ:PROC	; CActorInstance::GetActorType
EXTRN	?IsDoor@CActorInstance@@QAE_NXZ:PROC		; CActorInstance::IsDoor
EXTRN	?IsBuilding@CActorInstance@@QAE_NXZ:PROC	; CActorInstance::IsBuilding
EXTRN	?IsObject@CActorInstance@@QAE_NXZ:PROC		; CActorInstance::IsObject
EXTRN	?IsGoto@CActorInstance@@QAE_NXZ:PROC		; CActorInstance::IsGoto
EXTRN	?IsWarp@CActorInstance@@QAE_NXZ:PROC		; CActorInstance::IsWarp
EXTRN	?IsStone@CActorInstance@@QAE_NXZ:PROC		; CActorInstance::IsStone
EXTRN	?IsEnemy@CActorInstance@@QAE_NXZ:PROC		; CActorInstance::IsEnemy
EXTRN	?IsNPC@CActorInstance@@QAE_NXZ:PROC		; CActorInstance::IsNPC
EXTRN	?IsPC@CActorInstance@@QAE_NXZ:PROC		; CActorInstance::IsPC
EXTRN	?IsPoly@CActorInstance@@QAE_NXZ:PROC		; CActorInstance::IsPoly
EXTRN	?CanChangeTarget@CActorInstance@@QAE_NXZ:PROC	; CActorInstance::CanChangeTarget
EXTRN	?SetComboType@CActorInstance@@QAEXG@Z:PROC	; CActorInstance::SetComboType
EXTRN	?SetActorType@CActorInstance@@QAEXI@Z:PROC	; CActorInstance::SetActorType
EXTRN	?SetVirtualID@CActorInstance@@QAEXK@Z:PROC	; CActorInstance::SetVirtualID
EXTRN	?RenderCollisionData@CActorInstance@@QAEXXZ:PROC ; CActorInstance::RenderCollisionData
EXTRN	?RenderToShadowMap@CActorInstance@@QAEXXZ:PROC	; CActorInstance::RenderToShadowMap
EXTRN	?RestoreRenderState@CStateManager@@QAEXW4_D3DRENDERSTATETYPE@@@Z:PROC ; CStateManager::RestoreRenderState
EXTRN	?RenderLine3d@CScreen@@QAEXMMMMMM@Z:PROC	; CScreen::RenderLine3d
EXTRN	?SetDiffuseColor@CScreen@@QAEXMMMM@Z:PROC	; CScreen::SetDiffuseColor
EXTRN	?GetPixelPosition@CActorInstance@@QAEXPAUD3DXVECTOR3@@@Z:PROC ; CActorInstance::GetPixelPosition
EXTRN	?SetRenderState@CStateManager@@QAEXW4_D3DRENDERSTATETYPE@@K@Z:PROC ; CStateManager::SetRenderState
EXTRN	?SaveRenderState@CStateManager@@QAEXW4_D3DRENDERSTATETYPE@@K@Z:PROC ; CStateManager::SaveRenderState
EXTRN	?SetTextureStageState@CStateManager@@QAEXKW4_D3DTEXTURESTAGESTATETYPE@@K@Z:PROC ; CStateManager::SetTextureStageState
EXTRN	__Init_thread_footer:PROC
EXTRN	??0CScreen@@QAE@XZ:PROC				; CScreen::CScreen
EXTRN	__Init_thread_abort:PROC
EXTRN	__Init_thread_header:PROC
EXTRN	__Init_thread_epoch:DWORD
EXTRN	?IsDirLine@CActorInstance@@SA_NXZ:PROC		; CActorInstance::IsDirLine
EXTRN	?RenderTrace@CActorInstance@@QAEXXZ:PROC	; CActorInstance::RenderTrace
EXTRN	?INSTANCEBASE_Transform@CActorInstance@@QAEXXZ:PROC ; CActorInstance::INSTANCEBASE_Transform
EXTRN	?HORSE_MotionProcess@CActorInstance@@QAEXH@Z:PROC ; CActorInstance::HORSE_MotionProcess
EXTRN	?MotionProcess@CActorInstance@@QAEXH@Z:PROC	; CActorInstance::MotionProcess
EXTRN	?UpdateAdvancingPointInstance@CActorInstance@@QAEXXZ:PROC ; CActorInstance::UpdateAdvancingPointInstance
EXTRN	?SetMaterialColor@CActorInstance@@QAEXK@Z:PROC	; CActorInstance::SetMaterialColor
EXTRN	?ELTimer_GetFrameMSec@@YAKXZ:PROC		; ELTimer_GetFrameMSec
EXTRN	?IsMovement@CActorInstance@@QAEHXZ:PROC		; CActorInstance::IsMovement
EXTRN	?AccumulationMovement@CActorInstance@@QAEXXZ:PROC ; CActorInstance::AccumulationMovement
EXTRN	?ComboProcess@CActorInstance@@QAEXXZ:PROC	; CActorInstance::ComboProcess
EXTRN	?RotationProcess@CActorInstance@@QAEXXZ:PROC	; CActorInstance::RotationProcess
EXTRN	?PhysicsProcess@CActorInstance@@QAEXXZ:PROC	; CActorInstance::PhysicsProcess
EXTRN	?SetAdvancingRotation@CActorInstance@@QAEXM@Z:PROC ; CActorInstance::SetAdvancingRotation
EXTRN	?GetTargetRotation@CActorInstance@@QAEMXZ:PROC	; CActorInstance::GetTargetRotation
EXTRN	?SetRotation@CActorInstance@@QAEXM@Z:PROC	; CActorInstance::SetRotation
EXTRN	?GetSecondElapsed@CGraphicThingInstance@@QAEMXZ:PROC ; CGraphicThingInstance::GetSecondElapsed
EXTRN	?GetRotatingDirection@@YAHMM@Z:PROC		; GetRotatingDirection
EXTRN	?GetAdvancingRotation@CActorInstance@@QAEMXZ:PROC ; CActorInstance::GetAdvancingRotation
EXTRN	?GetRotation@CActorInstance@@QAEMXZ:PROC	; CActorInstance::GetRotation
EXTRN	?IsUsingMovingSkill@CActorInstance@@QAEHXZ:PROC	; CActorInstance::IsUsingMovingSkill
EXTRN	?GetMovementVectorRef@CActorInstance@@QAEABUD3DXVECTOR3@@XZ:PROC ; CActorInstance::GetMovementVectorRef
EXTRN	?InterceptOnceMotion@CActorInstance@@QAE_NKMIM@Z:PROC ; CActorInstance::InterceptOnceMotion
EXTRN	?Lognf@@YAXIPBDZZ:PROC				; Lognf
EXTRN	?IsActEmotion@CActorInstance@@QAEHXZ:PROC	; CActorInstance::IsActEmotion
EXTRN	?CanCancelSkill@CActorInstance@@QAEHXZ:PROC	; CActorInstance::CanCancelSkill
EXTRN	?IsUsingSkill@CActorInstance@@QAEHXZ:PROC	; CActorInstance::IsUsingSkill
EXTRN	?IsKnockDown@CActorInstance@@QAEHXZ:PROC	; CActorInstance::IsKnockDown
EXTRN	?ELTimer_GetServerFrameMSec@@YAKXZ:PROC		; ELTimer_GetServerFrameMSec
EXTRN	?GetLocalTime@CGraphicThingInstance@@QAEMXZ:PROC ; CGraphicThingInstance::GetLocalTime
EXTRN	?SetOwner@CActorInstance@@QAEXK@Z:PROC		; CActorInstance::SetOwner
EXTRN	?__IsSyncing@CActorInstance@@QAE_NXZ:PROC	; CActorInstance::__IsSyncing
EXTRN	?IsSleep@CActorInstance@@QAEHXZ:PROC		; CActorInstance::IsSleep
EXTRN	?IsStun@CActorInstance@@QAEHXZ:PROC		; CActorInstance::IsStun
EXTRN	?IsDead@CActorInstance@@QAEHXZ:PROC		; CActorInstance::IsDead
EXTRN	?IsFishing@CActorInstance@@QAEHXZ:PROC		; CActorInstance::IsFishing
EXTRN	?GetMotionMode@CActorInstance@@QAEHXZ:PROC	; CActorInstance::GetMotionMode
EXTRN	?IsHandMode@CActorInstance@@QAE_NXZ:PROC	; CActorInstance::IsHandMode
EXTRN	?IsBowMode@CActorInstance@@QAE_NXZ:PROC		; CActorInstance::IsBowMode
EXTRN	?CanFishing@CActorInstance@@QAE_NXZ:PROC	; CActorInstance::CanFishing
EXTRN	?CanAttack@CActorInstance@@QAE_NXZ:PROC		; CActorInstance::CanAttack
EXTRN	?CanUseSkill@CActorInstance@@QAE_NXZ:PROC	; CActorInstance::CanUseSkill
EXTRN	?CanMove@CActorInstance@@QAE_NXZ:PROC		; CActorInstance::CanMove
EXTRN	?CanAct@CActorInstance@@QAE_NXZ:PROC		; CActorInstance::CanAct
EXTRN	?__OnMoving@CActorInstance@@QAEXXZ:PROC		; CActorInstance::__OnMoving
EXTRN	?__OnWaiting@CActorInstance@@QAEXXZ:PROC	; CActorInstance::__OnWaiting
EXTRN	?__OnSyncing@CActorInstance@@QAEXXZ:PROC	; CActorInstance::__OnSyncing
EXTRN	?NEW_GetSrcPixelPositionRef@CActorInstance@@QAEABUD3DXVECTOR3@@XZ:PROC ; CActorInstance::NEW_GetSrcPixelPositionRef
EXTRN	?NEW_GetDstPixelPositionRef@CActorInstance@@QAEABUD3DXVECTOR3@@XZ:PROC ; CActorInstance::NEW_GetDstPixelPositionRef
EXTRN	?NEW_SetSrcPixelPosition@CActorInstance@@QAEXABUD3DXVECTOR3@@@Z:PROC ; CActorInstance::NEW_SetSrcPixelPosition
EXTRN	?NEW_SetDstPixelPosition@CActorInstance@@QAEXABUD3DXVECTOR3@@@Z:PROC ; CActorInstance::NEW_SetDstPixelPosition
EXTRN	?NEW_SetDstPixelPositionZ@CActorInstance@@QAEXM@Z:PROC ; CActorInstance::NEW_SetDstPixelPositionZ
EXTRN	?NEW_GetLastPixelPositionRef@CActorInstance@@QAEABUD3DXVECTOR3@@XZ:PROC ; CActorInstance::NEW_GetLastPixelPositionRef
EXTRN	?IsPushing@CActorInstance@@QAE_NXZ:PROC		; CActorInstance::IsPushing
EXTRN	___stdio_common_vsprintf:PROC
EXTRN	?MountHorse@CActorInstance@@QAEXPAV1@@Z:PROC	; CActorInstance::MountHorse
EXTRN	?ChangeMaterial@CActorInstance@@QAEXPBD@Z:PROC	; CActorInstance::ChangeMaterial
EXTRN	?IsFile@@YA_NPBD@Z:PROC				; IsFile
EXTRN	?DieEnd@CActorInstance@@QAEXXZ:PROC		; CActorInstance::DieEnd
EXTRN	?SetMainInstance@CActorInstance@@QAEXXZ:PROC	; CActorInstance::SetMainInstance
EXTRN	?SPixelPosition_CalculateDistanceSq3d@@YAMABUD3DXVECTOR3@@0@Z:PROC ; SPixelPosition_CalculateDistanceSq3d
EXTRN	?NEW_GetCurPixelPositionRef@CActorInstance@@QAEABUD3DXVECTOR3@@XZ:PROC ; CActorInstance::NEW_GetCurPixelPositionRef
EXTRN	?IsParalysis@CActorInstance@@QAEHXZ:PROC	; CActorInstance::IsParalysis
EXTRN	?GetShadowMapColor@CMapManager@@QAEKMM@Z:PROC	; CMapManager::GetShadowMapColor
EXTRN	?DisableSkipCollision@CActorInstance@@QAEXXZ:PROC ; CActorInstance::DisableSkipCollision
EXTRN	?EnableSkipCollision@CActorInstance@@QAEXXZ:PROC ; CActorInstance::EnableSkipCollision
EXTRN	?isAttrOn@CMapManager@@QAE_NMME@Z:PROC		; CMapManager::isAttrOn
EXTRN	?GetWaterHeight@CMapManager@@QAE_NHHPAJ@Z:PROC	; CMapManager::GetWaterHeight
EXTRN	?GetLODControllerPointer@CGraphicThingInstance@@QAEPAVCGrannyLODController@@K@Z:PROC ; CGraphicThingInstance::GetLODControllerPointer
EXTRN	?isAttrOn@CMapManager@@QAE_NHHE@Z:PROC		; CMapManager::isAttrOn
EXTRN	__purecall:PROC
EXTRN	?GetValue@CItemData@@QBEJE@Z:PROC		; CItemData::GetValue
EXTRN	?GetItemDataPointer@CItemManager@@QAEHKPAPAVCItemData@@@Z:PROC ; CItemManager::GetItemDataPointer
EXTRN	?AvoidObject@CActorInstance@@QAE_NABVCGraphicObjectInstance@@@Z:PROC ; CActorInstance::AvoidObject
EXTRN	?IsBlockObject@CActorInstance@@QAE_NABVCGraphicObjectInstance@@@Z:PROC ; CActorInstance::IsBlockObject
EXTRN	?BlockMovement@CActorInstance@@QAEXXZ:PROC	; CActorInstance::BlockMovement
EXTRN	?DetachModelInstance@CGraphicThingInstance@@QAEXHAAV1@H@Z:PROC ; CGraphicThingInstance::DetachModelInstance
EXTRN	?AttachModelInstance@CGraphicThingInstance@@QAEXHPBDAAV1@H@Z:PROC ; CGraphicThingInstance::AttachModelInstance
EXTRN	?Render@CGraphicObjectInstance@@QAE_NXZ:PROC	; CGraphicObjectInstance::Render
EXTRN	?INSTANCEBASE_Deform@CActorInstance@@QAEXXZ:PROC ; CActorInstance::INSTANCEBASE_Deform
EXTRN	?GetRace@CActorInstance@@QAEKXZ:PROC		; CActorInstance::GetRace
EXTRN	?Destroy@CActorInstance@@QAEXXZ:PROC		; CActorInstance::Destroy
EXTRN	?SetCurPixelPosition@CActorInstance@@QAEXABUD3DXVECTOR3@@@Z:PROC ; CActorInstance::SetCurPixelPosition
EXTRN	?RefreshActorInstance@CActorInstance@@QAEXXZ:PROC ; CActorInstance::RefreshActorInstance
EXTRN	?Stop@CActorInstance@@QAEXM@Z:PROC		; CActorInstance::Stop
EXTRN	?SetMotionMode@CActorInstance@@QAEXH@Z:PROC	; CActorInstance::SetMotionMode
EXTRN	?BlendAlphaValue@CActorInstance@@QAEXMM@Z:PROC	; CActorInstance::BlendAlphaValue
EXTRN	?SetAlphaValue@CActorInstance@@QAEXM@Z:PROC	; CActorInstance::SetAlphaValue
EXTRN	?SetBattleHitEffect@CActorInstance@@QAEXK@Z:PROC ; CActorInstance::SetBattleHitEffect
EXTRN	?SetShape@CActorInstance@@QAEXKM@Z:PROC		; CActorInstance::SetShape
EXTRN	?SetRace@CActorInstance@@QAE_NK@Z:PROC		; CActorInstance::SetRace
EXTRN	?GetEmptyPtr@IEventHandler@CActorInstance@@SAPAV12@XZ:PROC ; CActorInstance::IEventHandler::GetEmptyPtr
EXTRN	?SetEventHandler@CActorInstance@@QAEXPAVIEventHandler@1@@Z:PROC ; CActorInstance::SetEventHandler
EXTRN	??0CActorInstance@@QAE@XZ:PROC			; CActorInstance::CActorInstance
EXTRN	?SetMoveSpeed@CActorInstance@@QAEXM@Z:PROC	; CActorInstance::SetMoveSpeed
EXTRN	?SetAttackSpeed@CActorInstance@@QAEXM@Z:PROC	; CActorInstance::SetAttackSpeed
EXTRN	??1CScreen@@UAE@XZ:PROC				; CScreen::~CScreen
;	COMDAT ?ms_singleton@?$CSingleton@VCStateManager@@@@0PAVCStateManager@@A
_BSS	SEGMENT
?ms_singleton@?$CSingleton@VCStateManager@@@@0PAVCStateManager@@A DD 01H DUP (?) ; CSingleton<CStateManager>::ms_singleton
_BSS	ENDS
;	COMDAT ?ms_singleton@?$CSingleton@VCPythonNonPlayer@@@@0PAVCPythonNonPlayer@@A
_BSS	SEGMENT
?ms_singleton@?$CSingleton@VCPythonNonPlayer@@@@0PAVCPythonNonPlayer@@A DD 01H DUP (?) ; CSingleton<CPythonNonPlayer>::ms_singleton
_BSS	ENDS
;	COMDAT ?ms_singleton@?$TAbstractSingleton@VIAbstractPlayer@@@@0PAVIAbstractPlayer@@A
_BSS	SEGMENT
?ms_singleton@?$TAbstractSingleton@VIAbstractPlayer@@@@0PAVIAbstractPlayer@@A DD 01H DUP (?) ; TAbstractSingleton<IAbstractPlayer>::ms_singleton
_BSS	ENDS
;	COMDAT ?ms_singleton@?$CSingleton@VCPythonPlayer@@@@0PAVCPythonPlayer@@A
_BSS	SEGMENT
?ms_singleton@?$CSingleton@VCPythonPlayer@@@@0PAVCPythonPlayer@@A DD 01H DUP (?) ; CSingleton<CPythonPlayer>::ms_singleton
_BSS	ENDS
;	COMDAT ?ms_singleton@?$TAbstractSingleton@VIAbstractApplication@@@@0PAVIAbstractApplication@@A
_BSS	SEGMENT
?ms_singleton@?$TAbstractSingleton@VIAbstractApplication@@@@0PAVIAbstractApplication@@A DD 01H DUP (?) ; TAbstractSingleton<IAbstractApplication>::ms_singleton
_BSS	ENDS
;	COMDAT ?ms_singleton@?$CSingleton@VCItemManager@@@@0PAVCItemManager@@A
_BSS	SEGMENT
?ms_singleton@?$CSingleton@VCItemManager@@@@0PAVCItemManager@@A DD 01H DUP (?) ; CSingleton<CItemManager>::ms_singleton
?g_iAccumulationTime@@3HA DD 01H DUP (?)		; g_iAccumulationTime
_BSS	ENDS
;	COMDAT ?_OptionsStorage@?1??__local_stdio_printf_options@@9@4_KA
_BSS	SEGMENT
?_OptionsStorage@?1??__local_stdio_printf_options@@9@4_KA DQ 01H DUP (?) ; `__local_stdio_printf_options'::`2'::_OptionsStorage
?ms_dwDeformCounter@CInstanceBase@@1KA DD 01H DUP (?)	; CInstanceBase::ms_dwDeformCounter
?ms_dwRenderCounter@CInstanceBase@@1KA DD 01H DUP (?)	; CInstanceBase::ms_dwRenderCounter
?ms_dwUpdateCounter@CInstanceBase@@1KA DD 01H DUP (?)	; CInstanceBase::ms_dwUpdateCounter
_BSS	ENDS
;	COMDAT ?ms_singleton@?$CSingleton@VIBackground@@@@0PAVIBackground@@A
_BSS	SEGMENT
?ms_singleton@?$CSingleton@VIBackground@@@@0PAVIBackground@@A DD 01H DUP (?) ; CSingleton<IBackground>::ms_singleton
?USE_ARMOR_SPECULAR@@3HA DD 01H DUP (?)			; USE_ARMOR_SPECULAR
?HAIR_COLOR_ENABLE@@3HA DD 01H DUP (?)			; HAIR_COLOR_ENABLE
_BSS	ENDS
;	COMDAT ??_7IBackground@@6B@
CONST	SEGMENT
??_7IBackground@@6B@ DD FLAT:??_R4IBackground@@6B@	; IBackground::`vftable'
	DD	FLAT:??_EIBackground@@UAEPAXI@Z
	DD	FLAT:__purecall
CONST	ENDS
;	COMDAT ??_R4IBackground@@6B@
rdata$r	SEGMENT
??_R4IBackground@@6B@ DD 00H				; IBackground::`RTTI Complete Object Locator'
	DD	00H
	DD	00H
	DD	FLAT:??_R0?AVIBackground@@@8
	DD	FLAT:??_R3IBackground@@8
rdata$r	ENDS
;	COMDAT ??_R3IBackground@@8
rdata$r	SEGMENT
??_R3IBackground@@8 DD 00H				; IBackground::`RTTI Class Hierarchy Descriptor'
	DD	00H
	DD	02H
	DD	FLAT:??_R2IBackground@@8
rdata$r	ENDS
;	COMDAT ??_R2IBackground@@8
rdata$r	SEGMENT
??_R2IBackground@@8 DD FLAT:??_R1A@?0A@EA@IBackground@@8 ; IBackground::`RTTI Base Class Array'
	DD	FLAT:??_R1A@?0A@EA@?$CSingleton@VIBackground@@@@8
rdata$r	ENDS
;	COMDAT ??_R1A@?0A@EA@?$CSingleton@VIBackground@@@@8
rdata$r	SEGMENT
??_R1A@?0A@EA@?$CSingleton@VIBackground@@@@8 DD FLAT:??_R0?AV?$CSingleton@VIBackground@@@@@8 ; CSingleton<IBackground>::`RTTI Base Class Descriptor at (0,-1,0,64)'
	DD	00H
	DD	00H
	DD	0ffffffffH
	DD	00H
	DD	040H
	DD	FLAT:??_R3?$CSingleton@VIBackground@@@@8
rdata$r	ENDS
;	COMDAT ??_R3?$CSingleton@VIBackground@@@@8
rdata$r	SEGMENT
??_R3?$CSingleton@VIBackground@@@@8 DD 00H		; CSingleton<IBackground>::`RTTI Class Hierarchy Descriptor'
	DD	00H
	DD	01H
	DD	FLAT:??_R2?$CSingleton@VIBackground@@@@8
rdata$r	ENDS
;	COMDAT ??_R2?$CSingleton@VIBackground@@@@8
rdata$r	SEGMENT
??_R2?$CSingleton@VIBackground@@@@8 DD FLAT:??_R1A@?0A@EA@?$CSingleton@VIBackground@@@@8 ; CSingleton<IBackground>::`RTTI Base Class Array'
rdata$r	ENDS
;	COMDAT ??_R0?AV?$CSingleton@VIBackground@@@@@8
data$rs	SEGMENT
??_R0?AV?$CSingleton@VIBackground@@@@@8 DD FLAT:??_7type_info@@6B@ ; CSingleton<IBackground> `RTTI Type Descriptor'
	DD	00H
	DB	'.?AV?$CSingleton@VIBackground@@@@', 00H
data$rs	ENDS
;	COMDAT ??_R1A@?0A@EA@IBackground@@8
rdata$r	SEGMENT
??_R1A@?0A@EA@IBackground@@8 DD FLAT:??_R0?AVIBackground@@@8 ; IBackground::`RTTI Base Class Descriptor at (0,-1,0,64)'
	DD	01H
	DD	00H
	DD	0ffffffffH
	DD	00H
	DD	040H
	DD	FLAT:??_R3IBackground@@8
rdata$r	ENDS
;	COMDAT ??_R0?AVIBackground@@@8
data$rs	SEGMENT
??_R0?AVIBackground@@@8 DD FLAT:??_7type_info@@6B@	; IBackground `RTTI Type Descriptor'
	DD	00H
	DB	'.?AVIBackground@@', 00H
data$rs	ENDS
;	COMDAT ??_7?$CSingleton@VIBackground@@@@6B@
CONST	SEGMENT
??_7?$CSingleton@VIBackground@@@@6B@ DD FLAT:??_R4?$CSingleton@VIBackground@@@@6B@ ; CSingleton<IBackground>::`vftable'
	DD	FLAT:??_E?$CSingleton@VIBackground@@@@UAEPAXI@Z
CONST	ENDS
;	COMDAT ??_R4?$CSingleton@VIBackground@@@@6B@
rdata$r	SEGMENT
??_R4?$CSingleton@VIBackground@@@@6B@ DD 00H		; CSingleton<IBackground>::`RTTI Complete Object Locator'
	DD	00H
	DD	00H
	DD	FLAT:??_R0?AV?$CSingleton@VIBackground@@@@@8
	DD	FLAT:??_R3?$CSingleton@VIBackground@@@@8
rdata$r	ENDS
;	COMDAT ??_7CActorInstanceBackground@@6B@
CONST	SEGMENT
??_7CActorInstanceBackground@@6B@ DD FLAT:??_R4CActorInstanceBackground@@6B@ ; CActorInstanceBackground::`vftable'
	DD	FLAT:??_ECActorInstanceBackground@@UAEPAXI@Z
	DD	FLAT:?IsBlock@CActorInstanceBackground@@UAE_NHH@Z
CONST	ENDS
;	COMDAT ??_7CInstanceBase@@6B@
CONST	SEGMENT
??_7CInstanceBase@@6B@ DD FLAT:??_R4CInstanceBase@@6B@	; CInstanceBase::`vftable'
	DD	FLAT:??_ECInstanceBase@@UAEPAXI@Z
CONST	ENDS
;	COMDAT ??_7?$CDynamicPool@VCInstanceBase@@@@6B@
CONST	SEGMENT
??_7?$CDynamicPool@VCInstanceBase@@@@6B@ DD FLAT:??_R4?$CDynamicPool@VCInstanceBase@@@@6B@ ; CDynamicPool<CInstanceBase>::`vftable'
	DD	FLAT:??_E?$CDynamicPool@VCInstanceBase@@@@UAEPAXI@Z
CONST	ENDS
;	COMDAT ??_R4CInstanceBase@@6B@
rdata$r	SEGMENT
??_R4CInstanceBase@@6B@ DD 00H				; CInstanceBase::`RTTI Complete Object Locator'
	DD	00H
	DD	00H
	DD	FLAT:??_R0?AVCInstanceBase@@@8
	DD	FLAT:??_R3CInstanceBase@@8
rdata$r	ENDS
;	COMDAT ??_R4?$CDynamicPool@VCInstanceBase@@@@6B@
rdata$r	SEGMENT
??_R4?$CDynamicPool@VCInstanceBase@@@@6B@ DD 00H	; CDynamicPool<CInstanceBase>::`RTTI Complete Object Locator'
	DD	00H
	DD	00H
	DD	FLAT:??_R0?AV?$CDynamicPool@VCInstanceBase@@@@@8
	DD	FLAT:??_R3?$CDynamicPool@VCInstanceBase@@@@8
rdata$r	ENDS
;	COMDAT ??_R4CActorInstanceBackground@@6B@
rdata$r	SEGMENT
??_R4CActorInstanceBackground@@6B@ DD 00H		; CActorInstanceBackground::`RTTI Complete Object Locator'
	DD	00H
	DD	00H
	DD	FLAT:??_R0?AVCActorInstanceBackground@@@8
	DD	FLAT:??_R3CActorInstanceBackground@@8
rdata$r	ENDS
;	COMDAT ??_R0?AVCInstanceBase@@@8
data$rs	SEGMENT
??_R0?AVCInstanceBase@@@8 DD FLAT:??_7type_info@@6B@	; CInstanceBase `RTTI Type Descriptor'
	DD	00H
	DB	'.?AVCInstanceBase@@', 00H
data$rs	ENDS
;	COMDAT ??_R3CInstanceBase@@8
rdata$r	SEGMENT
??_R3CInstanceBase@@8 DD 00H				; CInstanceBase::`RTTI Class Hierarchy Descriptor'
	DD	00H
	DD	01H
	DD	FLAT:??_R2CInstanceBase@@8
rdata$r	ENDS
;	COMDAT ??_R0?AV?$CDynamicPool@VCInstanceBase@@@@@8
data$rs	SEGMENT
??_R0?AV?$CDynamicPool@VCInstanceBase@@@@@8 DD FLAT:??_7type_info@@6B@ ; CDynamicPool<CInstanceBase> `RTTI Type Descriptor'
	DD	00H
	DB	'.?AV?$CDynamicPool@VCInstanceBase@@@@', 00H
data$rs	ENDS
;	COMDAT ??_R3?$CDynamicPool@VCInstanceBase@@@@8
rdata$r	SEGMENT
??_R3?$CDynamicPool@VCInstanceBase@@@@8 DD 00H		; CDynamicPool<CInstanceBase>::`RTTI Class Hierarchy Descriptor'
	DD	00H
	DD	01H
	DD	FLAT:??_R2?$CDynamicPool@VCInstanceBase@@@@8
rdata$r	ENDS
;	COMDAT ??_R0?AVCActorInstanceBackground@@@8
data$rs	SEGMENT
??_R0?AVCActorInstanceBackground@@@8 DD FLAT:??_7type_info@@6B@ ; CActorInstanceBackground `RTTI Type Descriptor'
	DD	00H
	DB	'.?AVCActorInstanceBackground@@', 00H
data$rs	ENDS
;	COMDAT ??_R3CActorInstanceBackground@@8
rdata$r	SEGMENT
??_R3CActorInstanceBackground@@8 DD 00H			; CActorInstanceBackground::`RTTI Class Hierarchy Descriptor'
	DD	00H
	DD	03H
	DD	FLAT:??_R2CActorInstanceBackground@@8
rdata$r	ENDS
;	COMDAT ??_R1A@?0A@EA@CInstanceBase@@8
rdata$r	SEGMENT
??_R1A@?0A@EA@CInstanceBase@@8 DD FLAT:??_R0?AVCInstanceBase@@@8 ; CInstanceBase::`RTTI Base Class Descriptor at (0,-1,0,64)'
	DD	00H
	DD	00H
	DD	0ffffffffH
	DD	00H
	DD	040H
	DD	FLAT:??_R3CInstanceBase@@8
rdata$r	ENDS
;	COMDAT ??_R1A@?0A@EA@?$CDynamicPool@VCInstanceBase@@@@8
rdata$r	SEGMENT
??_R1A@?0A@EA@?$CDynamicPool@VCInstanceBase@@@@8 DD FLAT:??_R0?AV?$CDynamicPool@VCInstanceBase@@@@@8 ; CDynamicPool<CInstanceBase>::`RTTI Base Class Descriptor at (0,-1,0,64)'
	DD	00H
	DD	00H
	DD	0ffffffffH
	DD	00H
	DD	040H
	DD	FLAT:??_R3?$CDynamicPool@VCInstanceBase@@@@8
rdata$r	ENDS
;	COMDAT ??_R1A@?0A@EA@CActorInstanceBackground@@8
rdata$r	SEGMENT
??_R1A@?0A@EA@CActorInstanceBackground@@8 DD FLAT:??_R0?AVCActorInstanceBackground@@@8 ; CActorInstanceBackground::`RTTI Base Class Descriptor at (0,-1,0,64)'
	DD	02H
	DD	00H
	DD	0ffffffffH
	DD	00H
	DD	040H
	DD	FLAT:??_R3CActorInstanceBackground@@8
rdata$r	ENDS
;	COMDAT ??_R2CInstanceBase@@8
rdata$r	SEGMENT
??_R2CInstanceBase@@8 DD FLAT:??_R1A@?0A@EA@CInstanceBase@@8 ; CInstanceBase::`RTTI Base Class Array'
rdata$r	ENDS
;	COMDAT ??_R2?$CDynamicPool@VCInstanceBase@@@@8
rdata$r	SEGMENT
??_R2?$CDynamicPool@VCInstanceBase@@@@8 DD FLAT:??_R1A@?0A@EA@?$CDynamicPool@VCInstanceBase@@@@8 ; CDynamicPool<CInstanceBase>::`RTTI Base Class Array'
rdata$r	ENDS
;	COMDAT ??_R2CActorInstanceBackground@@8
rdata$r	SEGMENT
??_R2CActorInstanceBackground@@8 DD FLAT:??_R1A@?0A@EA@CActorInstanceBackground@@8 ; CActorInstanceBackground::`RTTI Base Class Array'
	DD	FLAT:??_R1A@?0A@EA@IBackground@@8
	DD	FLAT:??_R1A@?0A@EA@?$CSingleton@VIBackground@@@@8
rdata$r	ENDS
;	COMDAT ??_C@_0O@NKNMEGII@list?5too?5long@
CONST	SEGMENT
??_C@_0O@NKNMEGII@list?5too?5long@ DB 'list too long', 00H ; `string'
CONST	ENDS
;	COMDAT ??_C@_0EG@MNIPPABI@CPythonCharacterManager?3?3Change@
CONST	SEGMENT
??_C@_0EG@MNIPPABI@CPythonCharacterManager?3?3Change@ DB 'CPythonCharacte'
	DB	'rManager::ChangeArmor - SetRace VID[%d] Race[%d] ERROR', 00H ; `string'
CONST	ENDS
;	COMDAT ??_C@_0DM@EIDAANLK@vid?$DN?$CFd?5?$LP?r?A?w?$MA?O?5?$LM?v?5?$LO?x?$LE?B?5?$LL?s?E?B?$LG?s?5?$LN?$LK@
CONST	SEGMENT
??_C@_0DM@EIDAANLK@vid?$DN?$CFd?5?$LP?r?A?w?$MA?O?5?$LM?v?5?$LO?x?$LE?B?5?$LL?s?E?B?$LG?s?5?$LN?$LK@ DB 'v'
	DB	'id=%d ', 0bfH, 0f2H, 0c1H, 0f7H, 0c0H, 0cfH, ' ', 0bcH, 0f6H, ' '
	DB	0beH, 0f8H, 0b4H, 0c2H, ' ', 0bbH, 0f3H, 0c5H, 0c2H, 0b6H, 0f3H
	DB	' ', 0bdH, 0baH, 0c5H, 0b5H, ' IsDead=%d, IsKnockDown=%d', 00H ; `string'
CONST	ENDS
;	COMDAT ??_C@_0EG@IFLKAGDE@CInstanceBase?3?3PushTCPState?5?G?C?$LH@
CONST	SEGMENT
??_C@_0EG@IFLKAGDE@CInstanceBase?3?3PushTCPState?5?G?C?$LH@ DB 'CInstance'
	DB	'Base::PushTCPState ', 0c7H, 0c3H, 0b7H, 0b9H, 0c0H, 0ccH, 0beH
	DB	0eeH, ' ', 0c0H, 0daH, 0bdH, 0c5H, 0bfH, 0a1H, 0b0H, 0d4H, ' ', 0c0H
	DB	0ccH, 0b5H, 0bfH, 0c6H, 0d0H, 0c5H, 0b6H, 0c0H, 0baH, ' ', 0bfH
	DB	0c0H, 0b8H, 0e9H, ' ', 0beH, 0c8H, 0b5H, 0c8H, 0b4H, 0d9H, '!', 00H ; `string'
CONST	ENDS
;	COMDAT ??_C@_0BP@PGINAIMI@Inst?5?9?5UC?5?$CFd?0?5RC?5?$CFd?5Pool?5?9?5?$CFd?5@
CONST	SEGMENT
??_C@_0BP@PGINAIMI@Inst?5?9?5UC?5?$CFd?0?5RC?5?$CFd?5Pool?5?9?5?$CFd?5@ DB 'I'
	DB	'nst - UC %d, RC %d Pool - %d ', 00H		; `string'
CONST	ENDS
;	COMDAT ??_C@_01CLKCMJKC@?5@
CONST	SEGMENT
??_C@_01CLKCMJKC@?5@ DB ' ', 00H			; `string'
CONST	ENDS
;	COMDAT ??_C@_0EL@PHAIMNFF@CInstanceBase?3?3__EnableSkipColl@
CONST	SEGMENT
??_C@_0EL@PHAIMNFF@CInstanceBase?3?3__EnableSkipColl@ DB 'CInstanceBase::'
	DB	'__EnableSkipCollision - ', 0c0H, 0daH, 0bdH, 0c5H, 0c0H, 0baH
	DB	' ', 0c3H, 0e6H, 0b5H, 0b9H, 0b0H, 0cbH, 0bbH, 0e7H, 0bdH, 0baH
	DB	0c5H, 0b5H, 0c0H, 0ccH, ' ', 0b5H, 0c7H, 0b8H, 0e9H, ' ', 0beH
	DB	0c8H, 0b5H, 0c8H, 0b4H, 0d9H, '!!', 00H	; `string'
CONST	ENDS
;	COMDAT ??_C@_06PNAKCKLH@saddle@
CONST	SEGMENT
??_C@_06PNAKCKLH@saddle@ DB 'saddle', 00H		; `string'
PUBLIC	?length@?$basic_string@DU?$char_traits@D@std@@V?$allocator@D@2@@std@@QBEIXZ ; std::basic_string<char,std::char_traits<char>,std::allocator<char> >::length
PUBLIC	??0IBackground@@QAE@XZ				; IBackground::IBackground
PUBLIC	??_GIBackground@@UAEPAXI@Z			; IBackground::`scalar deleting destructor'
PUBLIC	??1?$CSingleton@VIBackground@@@@UAE@XZ		; CSingleton<IBackground>::~CSingleton<IBackground>
PUBLIC	??_G?$CSingleton@VIBackground@@@@UAEPAXI@Z	; CSingleton<IBackground>::`scalar deleting destructor'
PUBLIC	??0?$CSingleton@VIBackground@@@@QAE@XZ		; CSingleton<IBackground>::CSingleton<IBackground>
PUBLIC	??1IBackground@@UAE@XZ				; IBackground::~IBackground
PUBLIC	?GetLODLevel@CGrannyLODController@@QAEEXZ	; CGrannyLODController::GetLODLevel
PUBLIC	??0D3DXCOLOR@@QAE@K@Z				; D3DXCOLOR::D3DXCOLOR
PUBLIC	?resize@?$basic_string@DU?$char_traits@D@std@@V?$allocator@D@2@@std@@QAEXID@Z ; std::basic_string<char,std::char_traits<char>,std::allocator<char> >::resize
PUBLIC	?append@?$basic_string@DU?$char_traits@D@std@@V?$allocator@D@2@@std@@QAEAAV12@ID@Z ; std::basic_string<char,std::char_traits<char>,std::allocator<char> >::append
PUBLIC	??$_Reallocate_grow_by@V<lambda_1>@?1??append@?$basic_string@DU?$char_traits@D@std@@V?$allocator@D@2@@std@@QAEAAV34@ID@Z@ID@?$basic_string@DU?$char_traits@D@std@@V?$allocator@D@2@@std@@AAEAAV01@IV<lambda_1>@?1??append@01@QAEAAV01@ID@Z@ID@Z ; std::basic_string<char,std::char_traits<char>,std::allocator<char> >::_Reallocate_grow_by<`std::basic_string<char,std::char_traits<char>,std::allocator<char> >::append'::`2'::<lambda_1>,unsigned int,char>
PUBLIC	??R<lambda_1>@?1??append@?$basic_string@DU?$char_traits@D@std@@V?$allocator@D@2@@std@@QAEAAV23@ID@Z@QBE@QADQBDIID@Z ; `std::basic_string<char,std::char_traits<char>,std::allocator<char> >::append'::`2'::<lambda_1>::operator()
PUBLIC	?assign@?$_Narrow_char_traits@DH@std@@SAPADQADID@Z ; std::_Narrow_char_traits<char,int>::assign
PUBLIC	?assign@?$_Char_traits@DH@std@@SAPADQADID@Z	; std::_Char_traits<char,int>::assign
PUBLIC	?_Eos@?$basic_string@DU?$char_traits@D@std@@V?$allocator@D@2@@std@@AAEXI@Z ; std::basic_string<char,std::char_traits<char>,std::allocator<char> >::_Eos
PUBLIC	?size@?$basic_string@DU?$char_traits@D@std@@V?$allocator@D@2@@std@@QBEIXZ ; std::basic_string<char,std::char_traits<char>,std::allocator<char> >::size
PUBLIC	_sprintf
PUBLIC	__vsprintf_l
PUBLIC	__vsnprintf_l
PUBLIC	___local_stdio_printf_options
PUBLIC	?sqrt@@YAMM@Z					; sqrt
PUBLIC	_fmodf
PUBLIC	?_Is_constant_evaluated@std@@YA_NXZ		; std::_Is_constant_evaluated
PUBLIC	??$construct_at@PAVCInstanceBase@@PAV1@@std@@YAPAPAVCInstanceBase@@QAPAV1@$$QAPAV1@@Z ; std::construct_at<CInstanceBase *,CInstanceBase *>
PUBLIC	??$construct_at@PAU?$_Tree_node@U?$pair@$$CBKK@std@@PAX@std@@ABQAU12@@std@@YAPAPAU?$_Tree_node@U?$pair@$$CBKK@std@@PAX@0@QAPAU10@ABQAU10@@Z ; std::construct_at<std::_Tree_node<std::pair<unsigned long const ,unsigned long>,void *> *,std::_Tree_node<std::pair<unsigned long const ,unsigned long>,void *> * const &>
PUBLIC	??$forward@ABQAU?$_Tree_node@U?$pair@$$CBKK@std@@PAX@std@@@std@@YAABQAU?$_Tree_node@U?$pair@$$CBKK@std@@PAX@0@ABQAU10@@Z ; std::forward<std::_Tree_node<std::pair<unsigned long const ,unsigned long>,void *> * const &>
PUBLIC	??$addressof@PAU?$_Tree_node@U?$pair@$$CBKK@std@@PAX@std@@@std@@YAPAPAU?$_Tree_node@U?$pair@$$CBKK@std@@PAX@0@AAPAU10@@Z ; std::addressof<std::_Tree_node<std::pair<unsigned long const ,unsigned long>,void *> *>
PUBLIC	??$construct_at@PAVCInstanceBase@@ABQAV1@@std@@YAPAPAVCInstanceBase@@QAPAV1@ABQAV1@@Z ; std::construct_at<CInstanceBase *,CInstanceBase * const &>
PUBLIC	??$addressof@PAVCInstanceBase@@@std@@YAPAPAVCInstanceBase@@AAPAV1@@Z ; std::addressof<CInstanceBase *>
PUBLIC	??$construct@PAVCInstanceBase@@PAV1@@?$_Default_allocator_traits@V?$allocator@PAVCInstanceBase@@@std@@@std@@SAXAAV?$allocator@PAVCInstanceBase@@@1@QAPAVCInstanceBase@@$$QAPAV3@@Z ; std::_Default_allocator_traits<std::allocator<CInstanceBase *> >::construct<CInstanceBase *,CInstanceBase *>
PUBLIC	??$forward@PAVCInstanceBase@@@std@@YA$$QAPAVCInstanceBase@@AAPAV1@@Z ; std::forward<CInstanceBase *>
PUBLIC	??$_Copy_memmove_tail@PAPAVCInstanceBase@@@std@@YAPAPAVCInstanceBase@@QBDQAPAV1@II@Z ; std::_Copy_memmove_tail<CInstanceBase * *>
PUBLIC	??$move@AAPAPAVCInstanceBase@@@std@@YA$$QAPAPAVCInstanceBase@@AAPAPAV1@@Z ; std::move<CInstanceBase * * &>
PUBLIC	??$to_address@PAVCInstanceBase@@@std@@YAPAPAVCInstanceBase@@QAPAV1@@Z ; std::to_address<CInstanceBase *>
PUBLIC	??$destroy_at@USEffectDamage@CInstanceBase@@@std@@YAXQAUSEffectDamage@CInstanceBase@@@Z ; std::destroy_at<CInstanceBase::SEffectDamage>
PUBLIC	??$destroy_at@U?$pair@$$CBKK@std@@@std@@YAXQAU?$pair@$$CBKK@0@@Z ; std::destroy_at<std::pair<unsigned long const ,unsigned long> >
PUBLIC	??0?$allocator@U?$_Tree_node@U?$pair@$$CBKK@std@@PAX@std@@@std@@QAE@XZ ; std::allocator<std::_Tree_node<std::pair<unsigned long const ,unsigned long>,void *> >::allocator<std::_Tree_node<std::pair<unsigned long const ,unsigned long>,void *> >
PUBLIC	?deallocate@?$allocator@U?$_Tree_node@U?$pair@$$CBKK@std@@PAX@std@@@std@@QAEXQAU?$_Tree_node@U?$pair@$$CBKK@std@@PAX@2@I@Z ; std::allocator<std::_Tree_node<std::pair<unsigned long const ,unsigned long>,void *> >::deallocate
PUBLIC	?allocate@?$allocator@U?$_Tree_node@U?$pair@$$CBKK@std@@PAX@std@@@std@@QAEPAU?$_Tree_node@U?$pair@$$CBKK@std@@PAX@2@I@Z ; std::allocator<std::_Tree_node<std::pair<unsigned long const ,unsigned long>,void *> >::allocate
PUBLIC	??0?$_Tree_val@U?$_Tree_simple_types@U?$pair@$$CBKK@std@@@std@@@std@@QAE@XZ ; std::_Tree_val<std::_Tree_simple_types<std::pair<unsigned long const ,unsigned long> > >::_Tree_val<std::_Tree_simple_types<std::pair<unsigned long const ,unsigned long> > >
PUBLIC	?allocate@?$allocator@PAVCInstanceBase@@@std@@QAEPAPAVCInstanceBase@@I@Z ; std::allocator<CInstanceBase *>::allocate
PUBLIC	?_Calculate_growth@?$vector@PAVCInstanceBase@@V?$allocator@PAVCInstanceBase@@@std@@@std@@ABEII@Z ; std::vector<CInstanceBase *,std::allocator<CInstanceBase *> >::_Calculate_growth
PUBLIC	?deallocate@?$allocator@U?$_List_node@USCommand@CInstanceBase@@PAX@std@@@std@@QAEXQAU?$_List_node@USCommand@CInstanceBase@@PAX@2@I@Z ; std::allocator<std::_List_node<CInstanceBase::SCommand,void *> >::deallocate
PUBLIC	?_Get_first@?$_Compressed_pair@V?$allocator@U?$_List_node@USCommand@CInstanceBase@@PAX@std@@@std@@V?$_List_val@U?$_List_simple_types@USCommand@CInstanceBase@@@std@@@2@$00@std@@QBEABV?$allocator@U?$_List_node@USCommand@CInstanceBase@@PAX@std@@@2@XZ ; std::_Compressed_pair<std::allocator<std::_List_node<CInstanceBase::SCommand,void *> >,std::_List_val<std::_List_simple_types<CInstanceBase::SCommand> >,1>::_Get_first
PUBLIC	?deallocate@?$allocator@U?$_List_node@USEffectDamage@CInstanceBase@@PAX@std@@@std@@QAEXQAU?$_List_node@USEffectDamage@CInstanceBase@@PAX@2@I@Z ; std::allocator<std::_List_node<CInstanceBase::SEffectDamage,void *> >::deallocate
PUBLIC	??1_Reallocation_guard@?$vector@PAVCInstanceBase@@V?$allocator@PAVCInstanceBase@@@std@@@std@@QAE@XZ ; std::vector<CInstanceBase *,std::allocator<CInstanceBase *> >::_Reallocation_guard::~_Reallocation_guard
PUBLIC	?_Get_first@?$_Compressed_pair@V?$allocator@PAVCInstanceBase@@@std@@V?$_Vector_val@U?$_Simple_types@PAVCInstanceBase@@@std@@@2@$00@std@@QBEABV?$allocator@PAVCInstanceBase@@@2@XZ ; std::_Compressed_pair<std::allocator<CInstanceBase *>,std::_Vector_val<std::_Simple_types<CInstanceBase *> >,1>::_Get_first
PUBLIC	??0?$_Uninitialized_backout_al@V?$allocator@PAVCInstanceBase@@@std@@@std@@QAE@PAPAVCInstanceBase@@AAV?$allocator@PAVCInstanceBase@@@1@@Z ; std::_Uninitialized_backout_al<std::allocator<CInstanceBase *> >::_Uninitialized_backout_al<std::allocator<CInstanceBase *> >
PUBLIC	??1?$_Uninitialized_backout_al@V?$allocator@PAVCInstanceBase@@@std@@@std@@QAE@XZ ; std::_Uninitialized_backout_al<std::allocator<CInstanceBase *> >::~_Uninitialized_backout_al<std::allocator<CInstanceBase *> >
PUBLIC	?_Release@?$_Uninitialized_backout_al@V?$allocator@PAVCInstanceBase@@@std@@@std@@QAEPAPAVCInstanceBase@@XZ ; std::_Uninitialized_backout_al<std::allocator<CInstanceBase *> >::_Release
PUBLIC	??$_Construct_in_place@PAU?$_Tree_node@U?$pair@$$CBKK@std@@PAX@std@@ABQAU12@@std@@YAXAAPAU?$_Tree_node@U?$pair@$$CBKK@std@@PAX@0@ABQAU10@@Z ; std::_Construct_in_place<std::_Tree_node<std::pair<unsigned long const ,unsigned long>,void *> *,std::_Tree_node<std::pair<unsigned long const ,unsigned long>,void *> * const &>
PUBLIC	??$construct_at@PAU?$_List_node@USCommand@CInstanceBase@@PAX@std@@ABQAU12@@std@@YAPAPAU?$_List_node@USCommand@CInstanceBase@@PAX@0@QAPAU10@ABQAU10@@Z ; std::construct_at<std::_List_node<CInstanceBase::SCommand,void *> *,std::_List_node<CInstanceBase::SCommand,void *> * const &>
PUBLIC	??$forward@ABQAU?$_List_node@USCommand@CInstanceBase@@PAX@std@@@std@@YAABQAU?$_List_node@USCommand@CInstanceBase@@PAX@0@ABQAU10@@Z ; std::forward<std::_List_node<CInstanceBase::SCommand,void *> * const &>
PUBLIC	??$construct@PAVCInstanceBase@@ABQAV1@@?$_Default_allocator_traits@V?$allocator@PAVCInstanceBase@@@std@@@std@@SAXAAV?$allocator@PAVCInstanceBase@@@1@QAPAVCInstanceBase@@ABQAV3@@Z ; std::_Default_allocator_traits<std::allocator<CInstanceBase *> >::construct<CInstanceBase *,CInstanceBase * const &>
PUBLIC	??$_Construct_in_place@PAVCInstanceBase@@ABQAV1@@std@@YAXAAPAVCInstanceBase@@ABQAV1@@Z ; std::_Construct_in_place<CInstanceBase *,CInstanceBase * const &>
PUBLIC	??$_Emplace_back@PAVCInstanceBase@@@?$_Uninitialized_backout_al@V?$allocator@PAVCInstanceBase@@@std@@@std@@QAEX$$QAPAVCInstanceBase@@@Z ; std::_Uninitialized_backout_al<std::allocator<CInstanceBase *> >::_Emplace_back<CInstanceBase *>
PUBLIC	??$_To_address@PAPAVCInstanceBase@@@std@@YA?A_PABQAPAVCInstanceBase@@@Z ; std::_To_address<CInstanceBase * *>
PUBLIC	??$_Copy_memmove@PAPAVCInstanceBase@@PAPAV1@@std@@YAPAPAVCInstanceBase@@PAPAV1@00@Z ; std::_Copy_memmove<CInstanceBase * *,CInstanceBase * *>
PUBLIC	??$move@AAPAVCInstanceBase@@@std@@YA$$QAPAVCInstanceBase@@AAPAV1@@Z ; std::move<CInstanceBase * &>
PUBLIC	??$destroy@USEffectDamage@CInstanceBase@@@?$_Default_allocator_traits@V?$allocator@U?$_List_node@USEffectDamage@CInstanceBase@@PAX@std@@@std@@@std@@SAXAAV?$allocator@U?$_List_node@USEffectDamage@CInstanceBase@@PAX@std@@@1@QAUSEffectDamage@CInstanceBase@@@Z ; std::_Default_allocator_traits<std::allocator<std::_List_node<CInstanceBase::SEffectDamage,void *> > >::destroy<CInstanceBase::SEffectDamage>
PUBLIC	??$addressof@USEffectDamage@CInstanceBase@@@std@@YAPAUSEffectDamage@CInstanceBase@@AAU12@@Z ; std::addressof<CInstanceBase::SEffectDamage>
PUBLIC	??$destroy@U?$pair@$$CBKK@std@@@?$_Default_allocator_traits@V?$allocator@U?$_Tree_node@U?$pair@$$CBKK@std@@PAX@std@@@std@@@std@@SAXAAV?$allocator@U?$_Tree_node@U?$pair@$$CBKK@std@@PAX@std@@@1@QAU?$pair@$$CBKK@1@@Z ; std::_Default_allocator_traits<std::allocator<std::_Tree_node<std::pair<unsigned long const ,unsigned long>,void *> > >::destroy<std::pair<unsigned long const ,unsigned long> >
PUBLIC	??$addressof@U?$pair@$$CBKK@std@@@std@@YAPAU?$pair@$$CBKK@0@AAU10@@Z ; std::addressof<std::pair<unsigned long const ,unsigned long> >
PUBLIC	??$construct_at@USCommand@CInstanceBase@@ABU12@@std@@YAPAUSCommand@CInstanceBase@@QAU12@ABU12@@Z ; std::construct_at<CInstanceBase::SCommand,CInstanceBase::SCommand const &>
PUBLIC	??$destroy_at@USCommand@CInstanceBase@@@std@@YAXQAUSCommand@CInstanceBase@@@Z ; std::destroy_at<CInstanceBase::SCommand>
PUBLIC	?deallocate@?$_Default_allocator_traits@V?$allocator@U?$_Tree_node@U?$pair@$$CBKK@std@@PAX@std@@@std@@@std@@SAXAAV?$allocator@U?$_Tree_node@U?$pair@$$CBKK@std@@PAX@std@@@2@QAU?$_Tree_node@U?$pair@$$CBKK@std@@PAX@2@I@Z ; std::_Default_allocator_traits<std::allocator<std::_Tree_node<std::pair<unsigned long const ,unsigned long>,void *> > >::deallocate
PUBLIC	??0?$allocator@PAVCInstanceBase@@@std@@QAE@XZ	; std::allocator<CInstanceBase *>::allocator<CInstanceBase *>
PUBLIC	?deallocate@?$allocator@PAVCInstanceBase@@@std@@QAEXQAPAVCInstanceBase@@I@Z ; std::allocator<CInstanceBase *>::deallocate
PUBLIC	?_Change_array@?$vector@PAVCInstanceBase@@V?$allocator@PAVCInstanceBase@@@std@@@std@@AAEXQAPAVCInstanceBase@@II@Z ; std::vector<CInstanceBase *,std::allocator<CInstanceBase *> >::_Change_array
PUBLIC	?_Getal@?$vector@PAVCInstanceBase@@V?$allocator@PAVCInstanceBase@@@std@@@std@@ABEABV?$allocator@PAVCInstanceBase@@@2@XZ ; std::vector<CInstanceBase *,std::allocator<CInstanceBase *> >::_Getal
PUBLIC	?_Getal@?$list@USCommand@CInstanceBase@@V?$allocator@USCommand@CInstanceBase@@@std@@@std@@ABEABV?$allocator@U?$_List_node@USCommand@CInstanceBase@@PAX@std@@@2@XZ ; std::list<CInstanceBase::SCommand,std::allocator<CInstanceBase::SCommand> >::_Getal
PUBLIC	?deallocate@?$_Default_allocator_traits@V?$allocator@U?$_List_node@USCommand@CInstanceBase@@PAX@std@@@std@@@std@@SAXAAV?$allocator@U?$_List_node@USCommand@CInstanceBase@@PAX@std@@@2@QAU?$_List_node@USCommand@CInstanceBase@@PAX@2@I@Z ; std::_Default_allocator_traits<std::allocator<std::_List_node<CInstanceBase::SCommand,void *> > >::deallocate
PUBLIC	?max_size@?$_Default_allocator_traits@V?$allocator@U?$_List_node@USCommand@CInstanceBase@@PAX@std@@@std@@@std@@SAIABV?$allocator@U?$_List_node@USCommand@CInstanceBase@@PAX@std@@@2@@Z ; std::_Default_allocator_traits<std::allocator<std::_List_node<CInstanceBase::SCommand,void *> > >::max_size
PUBLIC	?deallocate@?$_Default_allocator_traits@V?$allocator@U?$_List_node@USEffectDamage@CInstanceBase@@PAX@std@@@std@@@std@@SAXAAV?$allocator@U?$_List_node@USEffectDamage@CInstanceBase@@PAX@std@@@2@QAU?$_List_node@USEffectDamage@CInstanceBase@@PAX@2@I@Z ; std::_Default_allocator_traits<std::allocator<std::_List_node<CInstanceBase::SEffectDamage,void *> > >::deallocate
PUBLIC	?_Get_first@?$_Compressed_pair@V?$allocator@U?$_List_node@USEffectDamage@CInstanceBase@@PAX@std@@@std@@V?$_List_val@U?$_List_simple_types@USEffectDamage@CInstanceBase@@@std@@@2@$00@std@@QAEAAV?$allocator@U?$_List_node@USEffectDamage@CInstanceBase@@PAX@std@@@2@XZ ; std::_Compressed_pair<std::allocator<std::_List_node<CInstanceBase::SEffectDamage,void *> >,std::_List_val<std::_List_simple_types<CInstanceBase::SEffectDamage> >,1>::_Get_first
PUBLIC	?max_size@?$_Default_allocator_traits@V?$allocator@PAVCInstanceBase@@@std@@@std@@SAIABV?$allocator@PAVCInstanceBase@@@2@@Z ; std::_Default_allocator_traits<std::allocator<CInstanceBase *> >::max_size
PUBLIC	??0?$_Vector_val@U?$_Simple_types@PAVCInstanceBase@@@std@@@std@@QAE@XZ ; std::_Vector_val<std::_Simple_types<CInstanceBase *> >::_Vector_val<std::_Simple_types<CInstanceBase *> >
PUBLIC	?_Get_first@?$_Compressed_pair@V?$allocator@PAVCInstanceBase@@@std@@V?$_Vector_val@U?$_Simple_types@PAVCInstanceBase@@@std@@@2@$00@std@@QAEAAV?$allocator@PAVCInstanceBase@@@2@XZ ; std::_Compressed_pair<std::allocator<CInstanceBase *>,std::_Vector_val<std::_Simple_types<CInstanceBase *> >,1>::_Get_first
PUBLIC	??0?$_Alloc_construct_ptr@V?$allocator@U?$_List_node@USCommand@CInstanceBase@@PAX@std@@@std@@@std@@QAE@AAV?$allocator@U?$_List_node@USCommand@CInstanceBase@@PAX@std@@@1@@Z ; std::_Alloc_construct_ptr<std::allocator<std::_List_node<CInstanceBase::SCommand,void *> > >::_Alloc_construct_ptr<std::allocator<std::_List_node<CInstanceBase::SCommand,void *> > >
PUBLIC	?_Allocate@?$_Alloc_construct_ptr@V?$allocator@U?$_List_node@USCommand@CInstanceBase@@PAX@std@@@std@@@std@@QAEXXZ ; std::_Alloc_construct_ptr<std::allocator<std::_List_node<CInstanceBase::SCommand,void *> > >::_Allocate
PUBLIC	??1?$_Alloc_construct_ptr@V?$allocator@U?$_List_node@USCommand@CInstanceBase@@PAX@std@@@std@@@std@@QAE@XZ ; std::_Alloc_construct_ptr<std::allocator<std::_List_node<CInstanceBase::SCommand,void *> > >::~_Alloc_construct_ptr<std::allocator<std::_List_node<CInstanceBase::SCommand,void *> > >
PUBLIC	??$_Buyheadnode@V?$allocator@U?$_Tree_node@U?$pair@$$CBKK@std@@PAX@std@@@std@@@?$_Tree_node@U?$pair@$$CBKK@std@@PAX@std@@SAPAU01@AAV?$allocator@U?$_Tree_node@U?$pair@$$CBKK@std@@PAX@std@@@1@@Z ; std::_Tree_node<std::pair<unsigned long const ,unsigned long>,void *>::_Buyheadnode<std::allocator<std::_Tree_node<std::pair<unsigned long const ,unsigned long>,void *> > >
PUBLIC	??$_Unfancy_maybe_null@PAVCInstanceBase@@@std@@YAPAPAVCInstanceBase@@PAPAV1@@Z ; std::_Unfancy_maybe_null<CInstanceBase *>
PUBLIC	??$_Destroy_range@V?$allocator@PAVCInstanceBase@@@std@@@std@@YAXPAPAVCInstanceBase@@QAPAV1@AAV?$allocator@PAVCInstanceBase@@@0@@Z ; std::_Destroy_range<std::allocator<CInstanceBase *> >
PUBLIC	??$_Get_size_of_n@$0CM@@std@@YAII@Z		; std::_Get_size_of_n<44>
PUBLIC	??$_Get_size_of_n@$0BI@@std@@YAII@Z		; std::_Get_size_of_n<24>
PUBLIC	??$_Construct_in_place@PAU?$_List_node@USCommand@CInstanceBase@@PAX@std@@ABQAU12@@std@@YAXAAPAU?$_List_node@USCommand@CInstanceBase@@PAX@0@ABQAU10@@Z ; std::_Construct_in_place<std::_List_node<CInstanceBase::SCommand,void *> *,std::_List_node<CInstanceBase::SCommand,void *> * const &>
PUBLIC	??$forward@ABU?$less@K@std@@@std@@YAABU?$less@K@0@ABU10@@Z ; std::forward<std::less<unsigned long> const &>
PUBLIC	??$forward@U_Zero_then_variadic_args_t@std@@@std@@YA$$QAU_Zero_then_variadic_args_t@0@AAU10@@Z ; std::forward<std::_Zero_then_variadic_args_t>
PUBLIC	??$_Emplace_reallocate@ABQAVCInstanceBase@@@?$vector@PAVCInstanceBase@@V?$allocator@PAVCInstanceBase@@@std@@@std@@AAEPAPAVCInstanceBase@@QAPAV2@ABQAV2@@Z ; std::vector<CInstanceBase *,std::allocator<CInstanceBase *> >::_Emplace_reallocate<CInstanceBase * const &>
PUBLIC	??$_Emplace_back_with_unused_capacity@ABQAVCInstanceBase@@@?$vector@PAVCInstanceBase@@V?$allocator@PAVCInstanceBase@@@std@@@std@@AAEAAPAVCInstanceBase@@ABQAV2@@Z ; std::vector<CInstanceBase *,std::allocator<CInstanceBase *> >::_Emplace_back_with_unused_capacity<CInstanceBase * const &>
PUBLIC	??$forward@ABQAVCInstanceBase@@@std@@YAABQAVCInstanceBase@@ABQAV1@@Z ; std::forward<CInstanceBase * const &>
PUBLIC	??$_Uninitialized_move@PAPAVCInstanceBase@@V?$allocator@PAVCInstanceBase@@@std@@@std@@YAPAPAVCInstanceBase@@QAPAV1@0PAPAV1@AAV?$allocator@PAVCInstanceBase@@@0@@Z ; std::_Uninitialized_move<CInstanceBase * *,std::allocator<CInstanceBase *> >
PUBLIC	??$_Get_unwrapped@ABQAPAVCInstanceBase@@@std@@YA?A_TABQAPAVCInstanceBase@@@Z ; std::_Get_unwrapped<CInstanceBase * * const &>
PUBLIC	??$_Allocate_at_least_helper@V?$allocator@PAVCInstanceBase@@@std@@@std@@YAPAPAVCInstanceBase@@AAV?$allocator@PAVCInstanceBase@@@0@AAI@Z ; std::_Allocate_at_least_helper<std::allocator<CInstanceBase *> >
PUBLIC	??$destroy_at@PAVCInstanceBase@@@std@@YAXQAPAVCInstanceBase@@@Z ; std::destroy_at<CInstanceBase *>
PUBLIC	??$_Destroy_in_place@PAU?$_List_node@USCommand@CInstanceBase@@PAX@std@@@std@@YAXAAPAU?$_List_node@USCommand@CInstanceBase@@PAX@0@@Z ; std::_Destroy_in_place<std::_List_node<CInstanceBase::SCommand,void *> *>
PUBLIC	??$construct_at@PAU?$_List_node@USCommand@CInstanceBase@@PAX@std@@AAPAU12@@std@@YAPAPAU?$_List_node@USCommand@CInstanceBase@@PAX@0@QAPAU10@AAPAU10@@Z ; std::construct_at<std::_List_node<CInstanceBase::SCommand,void *> *,std::_List_node<CInstanceBase::SCommand,void *> * &>
PUBLIC	??$forward@AAPAU?$_List_node@USCommand@CInstanceBase@@PAX@std@@@std@@YAAAPAU?$_List_node@USCommand@CInstanceBase@@PAX@0@AAPAU10@@Z ; std::forward<std::_List_node<CInstanceBase::SCommand,void *> * &>
PUBLIC	??$addressof@PAU?$_List_node@USCommand@CInstanceBase@@PAX@std@@@std@@YAPAPAU?$_List_node@USCommand@CInstanceBase@@PAX@0@AAPAU10@@Z ; std::addressof<std::_List_node<CInstanceBase::SCommand,void *> *>
PUBLIC	??$_Destroy_in_place@PAU?$_List_node@USEffectDamage@CInstanceBase@@PAX@std@@@std@@YAXAAPAU?$_List_node@USEffectDamage@CInstanceBase@@PAX@0@@Z ; std::_Destroy_in_place<std::_List_node<CInstanceBase::SEffectDamage,void *> *>
PUBLIC	??$_Freenode@V?$allocator@U?$_List_node@USEffectDamage@CInstanceBase@@PAX@std@@@std@@@?$_List_node@USEffectDamage@CInstanceBase@@PAX@std@@SAXAAV?$allocator@U?$_List_node@USEffectDamage@CInstanceBase@@PAX@std@@@1@PAU01@@Z ; std::_List_node<CInstanceBase::SEffectDamage,void *>::_Freenode<std::allocator<std::_List_node<CInstanceBase::SEffectDamage,void *> > >
PUBLIC	??$construct_at@PAU?$_List_node@USEffectDamage@CInstanceBase@@PAX@std@@AAPAU12@@std@@YAPAPAU?$_List_node@USEffectDamage@CInstanceBase@@PAX@0@QAPAU10@AAPAU10@@Z ; std::construct_at<std::_List_node<CInstanceBase::SEffectDamage,void *> *,std::_List_node<CInstanceBase::SEffectDamage,void *> * &>
PUBLIC	??$forward@AAPAU?$_List_node@USEffectDamage@CInstanceBase@@PAX@std@@@std@@YAAAPAU?$_List_node@USEffectDamage@CInstanceBase@@PAX@0@AAPAU10@@Z ; std::forward<std::_List_node<CInstanceBase::SEffectDamage,void *> * &>
PUBLIC	??$addressof@PAU?$_List_node@USEffectDamage@CInstanceBase@@PAX@std@@@std@@YAPAPAU?$_List_node@USEffectDamage@CInstanceBase@@PAX@0@AAPAU10@@Z ; std::addressof<std::_List_node<CInstanceBase::SEffectDamage,void *> *>
PUBLIC	??$_Destroy_in_place@PAU?$_Tree_node@U?$pair@$$CBKK@std@@PAX@std@@@std@@YAXAAPAU?$_Tree_node@U?$pair@$$CBKK@std@@PAX@0@@Z ; std::_Destroy_in_place<std::_Tree_node<std::pair<unsigned long const ,unsigned long>,void *> *>
PUBLIC	??$_Freenode@V?$allocator@U?$_Tree_node@U?$pair@$$CBKK@std@@PAX@std@@@std@@@?$_Tree_node@U?$pair@$$CBKK@std@@PAX@std@@SAXAAV?$allocator@U?$_Tree_node@U?$pair@$$CBKK@std@@PAX@std@@@1@PAU01@@Z ; std::_Tree_node<std::pair<unsigned long const ,unsigned long>,void *>::_Freenode<std::allocator<std::_Tree_node<std::pair<unsigned long const ,unsigned long>,void *> > >
PUBLIC	??$exchange@PAU?$_Tree_node@U?$pair@$$CBKK@std@@PAX@std@@AAPAU12@@std@@YAPAU?$_Tree_node@U?$pair@$$CBKK@std@@PAX@0@AAPAU10@0@Z ; std::exchange<std::_Tree_node<std::pair<unsigned long const ,unsigned long>,void *> *,std::_Tree_node<std::pair<unsigned long const ,unsigned long>,void *> * &>
PUBLIC	??$construct@USCommand@CInstanceBase@@ABU12@@?$_Default_allocator_traits@V?$allocator@U?$_List_node@USCommand@CInstanceBase@@PAX@std@@@std@@@std@@SAXAAV?$allocator@U?$_List_node@USCommand@CInstanceBase@@PAX@std@@@1@QAUSCommand@CInstanceBase@@ABU34@@Z ; std::_Default_allocator_traits<std::allocator<std::_List_node<CInstanceBase::SCommand,void *> > >::construct<CInstanceBase::SCommand,CInstanceBase::SCommand const &>
PUBLIC	??$destroy@USCommand@CInstanceBase@@@?$_Default_allocator_traits@V?$allocator@U?$_List_node@USCommand@CInstanceBase@@PAX@std@@@std@@@std@@SAXAAV?$allocator@U?$_List_node@USCommand@CInstanceBase@@PAX@std@@@1@QAUSCommand@CInstanceBase@@@Z ; std::_Default_allocator_traits<std::allocator<std::_List_node<CInstanceBase::SCommand,void *> > >::destroy<CInstanceBase::SCommand>
PUBLIC	??$addressof@USCommand@CInstanceBase@@@std@@YAPAUSCommand@CInstanceBase@@AAU12@@Z ; std::addressof<CInstanceBase::SCommand>
PUBLIC	??$?0$$V@?$_Compressed_pair@V?$allocator@U?$_Tree_node@U?$pair@$$CBKK@std@@PAX@std@@@std@@V?$_Tree_val@U?$_Tree_simple_types@U?$pair@$$CBKK@std@@@std@@@2@$00@std@@QAE@U_Zero_then_variadic_args_t@1@@Z ; std::_Compressed_pair<std::allocator<std::_Tree_node<std::pair<unsigned long const ,unsigned long>,void *> >,std::_Tree_val<std::_Tree_simple_types<std::pair<unsigned long const ,unsigned long> > >,1>::_Compressed_pair<std::allocator<std::_Tree_node<std::pair<unsigned long const ,unsigned long>,void *> >,std::_Tree_val<std::_Tree_simple_types<std::pair<unsigned long const ,unsigned long> > >,1><>
PUBLIC	?find@?$_Narrow_char_traits@DH@std@@SAPBDQBDIABD@Z ; std::_Narrow_char_traits<char,int>::find
PUBLIC	?_Alloc_sentinel_and_proxy@?$_Tree@V?$_Tmap_traits@KKU?$less@K@std@@V?$allocator@U?$pair@$$CBKK@std@@@2@$0A@@std@@@std@@IAEXXZ ; std::_Tree<std::_Tmap_traits<unsigned long,unsigned long,std::less<unsigned long>,std::allocator<std::pair<unsigned long const ,unsigned long> >,0> >::_Alloc_sentinel_and_proxy
PUBLIC	?_Get_first@?$_Compressed_pair@V?$allocator@U?$_Tree_node@U?$pair@$$CBKK@std@@PAX@std@@@std@@V?$_Tree_val@U?$_Tree_simple_types@U?$pair@$$CBKK@std@@@std@@@2@$00@std@@QAEAAV?$allocator@U?$_Tree_node@U?$pair@$$CBKK@std@@PAX@std@@@2@XZ ; std::_Compressed_pair<std::allocator<std::_Tree_node<std::pair<unsigned long const ,unsigned long>,void *> >,std::_Tree_val<std::_Tree_simple_types<std::pair<unsigned long const ,unsigned long> > >,1>::_Get_first
PUBLIC	?clear@?$vector@PAVCInstanceBase@@V?$allocator@PAVCInstanceBase@@@std@@@std@@QAEXXZ ; std::vector<CInstanceBase *,std::allocator<CInstanceBase *> >::clear
PUBLIC	?_Unchecked_begin@?$vector@PAVCInstanceBase@@V?$allocator@PAVCInstanceBase@@@std@@@std@@QAEPAPAVCInstanceBase@@XZ ; std::vector<CInstanceBase *,std::allocator<CInstanceBase *> >::_Unchecked_begin
PUBLIC	?_Unchecked_end@?$vector@PAVCInstanceBase@@V?$allocator@PAVCInstanceBase@@@std@@@std@@QAEPAPAVCInstanceBase@@XZ ; std::vector<CInstanceBase *,std::allocator<CInstanceBase *> >::_Unchecked_end
PUBLIC	?max_size@?$vector@PAVCInstanceBase@@V?$allocator@PAVCInstanceBase@@@std@@@std@@QBEIXZ ; std::vector<CInstanceBase *,std::allocator<CInstanceBase *> >::max_size
PUBLIC	?capacity@?$vector@PAVCInstanceBase@@V?$allocator@PAVCInstanceBase@@@std@@@std@@QBEIXZ ; std::vector<CInstanceBase *,std::allocator<CInstanceBase *> >::capacity
PUBLIC	?_Tidy@?$vector@PAVCInstanceBase@@V?$allocator@PAVCInstanceBase@@@std@@@std@@AAEXXZ ; std::vector<CInstanceBase *,std::allocator<CInstanceBase *> >::_Tidy
PUBLIC	?_Xlength@?$vector@PAVCInstanceBase@@V?$allocator@PAVCInstanceBase@@@std@@@std@@CAXXZ ; std::vector<CInstanceBase *,std::allocator<CInstanceBase *> >::_Xlength
PUBLIC	?_Orphan_range@?$vector@PAVCInstanceBase@@V?$allocator@PAVCInstanceBase@@@std@@@std@@ABEXPAPAVCInstanceBase@@0@Z ; std::vector<CInstanceBase *,std::allocator<CInstanceBase *> >::_Orphan_range
PUBLIC	?_Getal@?$vector@PAVCInstanceBase@@V?$allocator@PAVCInstanceBase@@@std@@@std@@AAEAAV?$allocator@PAVCInstanceBase@@@2@XZ ; std::vector<CInstanceBase *,std::allocator<CInstanceBase *> >::_Getal
PUBLIC	?max_size@?$list@USCommand@CInstanceBase@@V?$allocator@USCommand@CInstanceBase@@@std@@@std@@QBEIXZ ; std::list<CInstanceBase::SCommand,std::allocator<CInstanceBase::SCommand> >::max_size
PUBLIC	??0?$allocator@U?$_List_node@USCommand@CInstanceBase@@PAX@std@@@std@@QAE@XZ ; std::allocator<std::_List_node<CInstanceBase::SCommand,void *> >::allocator<std::_List_node<CInstanceBase::SCommand,void *> >
PUBLIC	?allocate@?$allocator@U?$_List_node@USCommand@CInstanceBase@@PAX@std@@@std@@QAEPAU?$_List_node@USCommand@CInstanceBase@@PAX@2@I@Z ; std::allocator<std::_List_node<CInstanceBase::SCommand,void *> >::allocate
PUBLIC	??0?$_List_val@U?$_List_simple_types@USCommand@CInstanceBase@@@std@@@std@@QAE@XZ ; std::_List_val<std::_List_simple_types<CInstanceBase::SCommand> >::_List_val<std::_List_simple_types<CInstanceBase::SCommand> >
PUBLIC	?_Orphan_ptr2@?$_List_val@U?$_List_simple_types@USCommand@CInstanceBase@@@std@@@std@@QAEXPAU?$_List_node@USCommand@CInstanceBase@@PAX@2@@Z ; std::_List_val<std::_List_simple_types<CInstanceBase::SCommand> >::_Orphan_ptr2
PUBLIC	?_Get_first@?$_Compressed_pair@V?$allocator@U?$_List_node@USCommand@CInstanceBase@@PAX@std@@@std@@V?$_List_val@U?$_List_simple_types@USCommand@CInstanceBase@@@std@@@2@$00@std@@QAEAAV?$allocator@U?$_List_node@USCommand@CInstanceBase@@PAX@std@@@2@XZ ; std::_Compressed_pair<std::allocator<std::_List_node<CInstanceBase::SCommand,void *> >,std::_List_val<std::_List_simple_types<CInstanceBase::SCommand> >,1>::_Get_first
PUBLIC	?_Getal@?$list@USEffectDamage@CInstanceBase@@V?$allocator@USEffectDamage@CInstanceBase@@@std@@@std@@AAEAAV?$allocator@U?$_List_node@USEffectDamage@CInstanceBase@@PAX@std@@@2@XZ ; std::list<CInstanceBase::SEffectDamage,std::allocator<CInstanceBase::SEffectDamage> >::_Getal
PUBLIC	??0?$allocator@U?$_List_node@USEffectDamage@CInstanceBase@@PAX@std@@@std@@QAE@XZ ; std::allocator<std::_List_node<CInstanceBase::SEffectDamage,void *> >::allocator<std::_List_node<CInstanceBase::SEffectDamage,void *> >
PUBLIC	?allocate@?$allocator@U?$_List_node@USEffectDamage@CInstanceBase@@PAX@std@@@std@@QAEPAU?$_List_node@USEffectDamage@CInstanceBase@@PAX@2@I@Z ; std::allocator<std::_List_node<CInstanceBase::SEffectDamage,void *> >::allocate
PUBLIC	??0?$_List_val@U?$_List_simple_types@USEffectDamage@CInstanceBase@@@std@@@std@@QAE@XZ ; std::_List_val<std::_List_simple_types<CInstanceBase::SEffectDamage> >::_List_val<std::_List_simple_types<CInstanceBase::SEffectDamage> >
PUBLIC	?Delete@?$CDynamicPool@VCInstanceBase@@@@KAXPAVCInstanceBase@@@Z ; CDynamicPool<CInstanceBase>::Delete
PUBLIC	??1?$_List_node_emplace_op2@V?$allocator@U?$_List_node@USCommand@CInstanceBase@@PAX@std@@@std@@@std@@QAE@XZ ; std::_List_node_emplace_op2<std::allocator<std::_List_node<CInstanceBase::SCommand,void *> > >::~_List_node_emplace_op2<std::allocator<std::_List_node<CInstanceBase::SCommand,void *> > >
PUBLIC	?_Transfer_before@?$_List_node_emplace_op2@V?$allocator@U?$_List_node@USCommand@CInstanceBase@@PAX@std@@@std@@@std@@QAEPAU?$_List_node@USCommand@CInstanceBase@@PAX@2@QAU32@@Z ; std::_List_node_emplace_op2<std::allocator<std::_List_node<CInstanceBase::SCommand,void *> > >::_Transfer_before
PUBLIC	?_Mark@?$_String_bitmap@D$00@std@@QAE_NPBDQBD@Z	; std::_String_bitmap<char,1>::_Mark
PUBLIC	?_Match@?$_String_bitmap@D$00@std@@QBE_ND@Z	; std::_String_bitmap<char,1>::_Match
PUBLIC	??$?0ABU?$less@K@std@@U_Zero_then_variadic_args_t@1@@?$_Compressed_pair@U?$less@K@std@@V?$_Compressed_pair@V?$allocator@U?$_Tree_node@U?$pair@$$CBKK@std@@PAX@std@@@std@@V?$_Tree_val@U?$_Tree_simple_types@U?$pair@$$CBKK@std@@@std@@@2@$00@2@$00@std@@QAE@U_One_then_variadic_args_t@1@ABU?$less@K@1@$$QAU_Zero_then_variadic_args_t@1@@Z ; std::_Compressed_pair<std::less<unsigned long>,std::_Compressed_pair<std::allocator<std::_Tree_node<std::pair<unsigned long const ,unsigned long>,void *> >,std::_Tree_val<std::_Tree_simple_types<std::pair<unsigned long const ,unsigned long> > >,1>,1>::_Compressed_pair<std::less<unsigned long>,std::_Compressed_pair<std::allocator<std::_Tree_node<std::pair<unsigned long const ,unsigned long>,void *> >,std::_Tree_val<std::_Tree_simple_types<std::pair<unsigned long const ,unsigned long> > >,1>,1><std::less<unsigned long> const &,std::_Zero_then_variadic_args_t>
PUBLIC	??$addressof@V?$_Tree_val@U?$_Tree_simple_types@U?$pair@$$CBKK@std@@@std@@@std@@@std@@YAPAV?$_Tree_val@U?$_Tree_simple_types@U?$pair@$$CBKK@std@@@std@@@0@AAV10@@Z ; std::addressof<std::_Tree_val<std::_Tree_simple_types<std::pair<unsigned long const ,unsigned long> > > >
PUBLIC	??$?0$$V@?$_Compressed_pair@V?$allocator@PAVCInstanceBase@@@std@@V?$_Vector_val@U?$_Simple_types@PAVCInstanceBase@@@std@@@2@$00@std@@QAE@U_Zero_then_variadic_args_t@1@@Z ; std::_Compressed_pair<std::allocator<CInstanceBase *>,std::_Vector_val<std::_Simple_types<CInstanceBase *> >,1>::_Compressed_pair<std::allocator<CInstanceBase *>,std::_Vector_val<std::_Simple_types<CInstanceBase *> >,1><>
PUBLIC	??$_Emplace_one_at_back@ABQAVCInstanceBase@@@?$vector@PAVCInstanceBase@@V?$allocator@PAVCInstanceBase@@@std@@@std@@AAEAAPAVCInstanceBase@@ABQAV2@@Z ; std::vector<CInstanceBase *,std::allocator<CInstanceBase *> >::_Emplace_one_at_back<CInstanceBase * const &>
PUBLIC	??$destroy@PAVCInstanceBase@@@?$_Default_allocator_traits@V?$allocator@PAVCInstanceBase@@@std@@@std@@SAXAAV?$allocator@PAVCInstanceBase@@@1@QAPAVCInstanceBase@@@Z ; std::_Default_allocator_traits<std::allocator<CInstanceBase *> >::destroy<CInstanceBase *>
PUBLIC	??$_Unfancy@PAVCInstanceBase@@@std@@YAPAPAVCInstanceBase@@PAPAV1@@Z ; std::_Unfancy<CInstanceBase *>
PUBLIC	??$_Freenode0@V?$allocator@U?$_List_node@USCommand@CInstanceBase@@PAX@std@@@std@@@?$_List_node@USCommand@CInstanceBase@@PAX@std@@SAXAAV?$allocator@U?$_List_node@USCommand@CInstanceBase@@PAX@std@@@1@PAU01@@Z ; std::_List_node<CInstanceBase::SCommand,void *>::_Freenode0<std::allocator<std::_List_node<CInstanceBase::SCommand,void *> > >
PUBLIC	??$_Construct_in_place@PAU?$_List_node@USCommand@CInstanceBase@@PAX@std@@AAPAU12@@std@@YAXAAPAU?$_List_node@USCommand@CInstanceBase@@PAX@0@0@Z ; std::_Construct_in_place<std::_List_node<CInstanceBase::SCommand,void *> *,std::_List_node<CInstanceBase::SCommand,void *> * &>
PUBLIC	??$_Freenode0@V?$allocator@U?$_List_node@USEffectDamage@CInstanceBase@@PAX@std@@@std@@@?$_List_node@USEffectDamage@CInstanceBase@@PAX@std@@SAXAAV?$allocator@U?$_List_node@USEffectDamage@CInstanceBase@@PAX@std@@@1@PAU01@@Z ; std::_List_node<CInstanceBase::SEffectDamage,void *>::_Freenode0<std::allocator<std::_List_node<CInstanceBase::SEffectDamage,void *> > >
PUBLIC	??$_Free_non_head@V?$allocator@U?$_List_node@USEffectDamage@CInstanceBase@@PAX@std@@@std@@@?$_List_node@USEffectDamage@CInstanceBase@@PAX@std@@SAXAAV?$allocator@U?$_List_node@USEffectDamage@CInstanceBase@@PAX@std@@@1@PAU01@@Z ; std::_List_node<CInstanceBase::SEffectDamage,void *>::_Free_non_head<std::allocator<std::_List_node<CInstanceBase::SEffectDamage,void *> > >
PUBLIC	??$_Construct_in_place@PAU?$_List_node@USEffectDamage@CInstanceBase@@PAX@std@@AAPAU12@@std@@YAXAAPAU?$_List_node@USEffectDamage@CInstanceBase@@PAX@0@0@Z ; std::_Construct_in_place<std::_List_node<CInstanceBase::SEffectDamage,void *> *,std::_List_node<CInstanceBase::SEffectDamage,void *> * &>
PUBLIC	??$_Find_first_of_pos_vectorized@DD@std@@YAIQBDI0I@Z ; std::_Find_first_of_pos_vectorized<char,char>
PUBLIC	??$_Freenode0@V?$allocator@U?$_Tree_node@U?$pair@$$CBKK@std@@PAX@std@@@std@@@?$_Tree_node@U?$pair@$$CBKK@std@@PAX@std@@SAXAAV?$allocator@U?$_Tree_node@U?$pair@$$CBKK@std@@PAX@std@@@1@PAU01@@Z ; std::_Tree_node<std::pair<unsigned long const ,unsigned long>,void *>::_Freenode0<std::allocator<std::_Tree_node<std::pair<unsigned long const ,unsigned long>,void *> > >
PUBLIC	??$_Erase_tree@V?$allocator@U?$_Tree_node@U?$pair@$$CBKK@std@@PAX@std@@@std@@@?$_Tree_val@U?$_Tree_simple_types@U?$pair@$$CBKK@std@@@std@@@std@@QAEXAAV?$allocator@U?$_Tree_node@U?$pair@$$CBKK@std@@PAX@std@@@1@PAU?$_Tree_node@U?$pair@$$CBKK@std@@PAX@1@@Z ; std::_Tree_val<std::_Tree_simple_types<std::pair<unsigned long const ,unsigned long> > >::_Erase_tree<std::allocator<std::_Tree_node<std::pair<unsigned long const ,unsigned long>,void *> > >
PUBLIC	??$?0ABUSCommand@CInstanceBase@@@?$_List_node_emplace_op2@V?$allocator@U?$_List_node@USCommand@CInstanceBase@@PAX@std@@@std@@@std@@QAE@AAV?$allocator@U?$_List_node@USCommand@CInstanceBase@@PAX@std@@@1@ABUSCommand@CInstanceBase@@@Z ; std::_List_node_emplace_op2<std::allocator<std::_List_node<CInstanceBase::SCommand,void *> > >::_List_node_emplace_op2<std::allocator<std::_List_node<CInstanceBase::SCommand,void *> > ><CInstanceBase::SCommand const &>
PUBLIC	??$forward@ABUSCommand@CInstanceBase@@@std@@YAABUSCommand@CInstanceBase@@ABU12@@Z ; std::forward<CInstanceBase::SCommand const &>
PUBLIC	??$_Freenode@V?$allocator@U?$_List_node@USCommand@CInstanceBase@@PAX@std@@@std@@@?$_List_node@USCommand@CInstanceBase@@PAX@std@@SAXAAV?$allocator@U?$_List_node@USCommand@CInstanceBase@@PAX@std@@@1@PAU01@@Z ; std::_List_node<CInstanceBase::SCommand,void *>::_Freenode<std::allocator<std::_List_node<CInstanceBase::SCommand,void *> > >
PUBLIC	??0?$_Tree@V?$_Tmap_traits@KKU?$less@K@std@@V?$allocator@U?$pair@$$CBKK@std@@@2@$0A@@std@@@std@@QAE@ABU?$less@K@1@@Z ; std::_Tree<std::_Tmap_traits<unsigned long,unsigned long,std::less<unsigned long>,std::allocator<std::pair<unsigned long const ,unsigned long> >,0> >::_Tree<std::_Tmap_traits<unsigned long,unsigned long,std::less<unsigned long>,std::allocator<std::pair<unsigned long const ,unsigned long> >,0> >
PUBLIC	?_Getal@?$_Tree@V?$_Tmap_traits@KKU?$less@K@std@@V?$allocator@U?$pair@$$CBKK@std@@@2@$0A@@std@@@std@@IAEAAV?$allocator@U?$_Tree_node@U?$pair@$$CBKK@std@@PAX@std@@@2@XZ ; std::_Tree<std::_Tmap_traits<unsigned long,unsigned long,std::less<unsigned long>,std::allocator<std::pair<unsigned long const ,unsigned long> >,0> >::_Getal
PUBLIC	?_Get_scary@?$_Tree@V?$_Tmap_traits@KKU?$less@K@std@@V?$allocator@U?$pair@$$CBKK@std@@@2@$0A@@std@@@std@@IAEPAV?$_Tree_val@U?$_Tree_simple_types@U?$pair@$$CBKK@std@@@std@@@2@XZ ; std::_Tree<std::_Tmap_traits<unsigned long,unsigned long,std::less<unsigned long>,std::allocator<std::pair<unsigned long const ,unsigned long> >,0> >::_Get_scary
PUBLIC	??0?$vector@PAVCInstanceBase@@V?$allocator@PAVCInstanceBase@@@std@@@std@@QAE@XZ ; std::vector<CInstanceBase *,std::allocator<CInstanceBase *> >::vector<CInstanceBase *,std::allocator<CInstanceBase *> >
PUBLIC	??1?$vector@PAVCInstanceBase@@V?$allocator@PAVCInstanceBase@@@std@@@std@@QAE@XZ ; std::vector<CInstanceBase *,std::allocator<CInstanceBase *> >::~vector<CInstanceBase *,std::allocator<CInstanceBase *> >
PUBLIC	?push_back@?$vector@PAVCInstanceBase@@V?$allocator@PAVCInstanceBase@@@std@@@std@@QAEXABQAVCInstanceBase@@@Z ; std::vector<CInstanceBase *,std::allocator<CInstanceBase *> >::push_back
PUBLIC	?pop_back@?$vector@PAVCInstanceBase@@V?$allocator@PAVCInstanceBase@@@std@@@std@@QAEXXZ ; std::vector<CInstanceBase *,std::allocator<CInstanceBase *> >::pop_back
PUBLIC	?empty@?$vector@PAVCInstanceBase@@V?$allocator@PAVCInstanceBase@@@std@@@std@@QBE_NXZ ; std::vector<CInstanceBase *,std::allocator<CInstanceBase *> >::empty
PUBLIC	?size@?$vector@PAVCInstanceBase@@V?$allocator@PAVCInstanceBase@@@std@@@std@@QBEIXZ ; std::vector<CInstanceBase *,std::allocator<CInstanceBase *> >::size
PUBLIC	?back@?$vector@PAVCInstanceBase@@V?$allocator@PAVCInstanceBase@@@std@@@std@@QAEAAPAVCInstanceBase@@XZ ; std::vector<CInstanceBase *,std::allocator<CInstanceBase *> >::back
PUBLIC	?_Unchecked_erase@?$list@USCommand@CInstanceBase@@V?$allocator@USCommand@CInstanceBase@@@std@@@std@@AAEPAU?$_List_node@USCommand@CInstanceBase@@PAX@2@QAU32@@Z ; std::list<CInstanceBase::SCommand,std::allocator<CInstanceBase::SCommand> >::_Unchecked_erase
PUBLIC	?_Tidy@?$list@USCommand@CInstanceBase@@V?$allocator@USCommand@CInstanceBase@@@std@@@std@@AAEXXZ ; std::list<CInstanceBase::SCommand,std::allocator<CInstanceBase::SCommand> >::_Tidy
PUBLIC	?_Alloc_sentinel_and_proxy@?$list@USCommand@CInstanceBase@@V?$allocator@USCommand@CInstanceBase@@@std@@@std@@AAEXXZ ; std::list<CInstanceBase::SCommand,std::allocator<CInstanceBase::SCommand> >::_Alloc_sentinel_and_proxy
PUBLIC	?_Getal@?$list@USCommand@CInstanceBase@@V?$allocator@USCommand@CInstanceBase@@@std@@@std@@AAEAAV?$allocator@U?$_List_node@USCommand@CInstanceBase@@PAX@std@@@2@XZ ; std::list<CInstanceBase::SCommand,std::allocator<CInstanceBase::SCommand> >::_Getal
PUBLIC	?_Orphan_non_end@?$_List_val@U?$_List_simple_types@USCommand@CInstanceBase@@@std@@@std@@QAEXXZ ; std::_List_val<std::_List_simple_types<CInstanceBase::SCommand> >::_Orphan_non_end
PUBLIC	?_Tidy@?$list@USEffectDamage@CInstanceBase@@V?$allocator@USEffectDamage@CInstanceBase@@@std@@@std@@AAEXXZ ; std::list<CInstanceBase::SEffectDamage,std::allocator<CInstanceBase::SEffectDamage> >::_Tidy
PUBLIC	?_Alloc_sentinel_and_proxy@?$list@USEffectDamage@CInstanceBase@@V?$allocator@USEffectDamage@CInstanceBase@@@std@@@std@@AAEXXZ ; std::list<CInstanceBase::SEffectDamage,std::allocator<CInstanceBase::SEffectDamage> >::_Alloc_sentinel_and_proxy
PUBLIC	?Destroy@?$CDynamicPool@VCInstanceBase@@@@QAEXXZ ; CDynamicPool<CInstanceBase>::Destroy
PUBLIC	??0?$_String_bitmap@D$00@std@@QAE@XZ		; std::_String_bitmap<char,1>::_String_bitmap<char,1>
PUBLIC	??$_Traits_find_first_of@U?$char_traits@D@std@@@std@@YAIQBDII0I@Z ; std::_Traits_find_first_of<std::char_traits<char> >
PUBLIC	??$_Erase_head@V?$allocator@U?$_Tree_node@U?$pair@$$CBKK@std@@PAX@std@@@std@@@?$_Tree_val@U?$_Tree_simple_types@U?$pair@$$CBKK@std@@@std@@@std@@QAEXAAV?$allocator@U?$_Tree_node@U?$pair@$$CBKK@std@@PAX@std@@@1@@Z ; std::_Tree_val<std::_Tree_simple_types<std::pair<unsigned long const ,unsigned long> > >::_Erase_head<std::allocator<std::_Tree_node<std::pair<unsigned long const ,unsigned long>,void *> > >
PUBLIC	??$?0$$V@?$_Compressed_pair@V?$allocator@U?$_List_node@USCommand@CInstanceBase@@PAX@std@@@std@@V?$_List_val@U?$_List_simple_types@USCommand@CInstanceBase@@@std@@@2@$00@std@@QAE@U_Zero_then_variadic_args_t@1@@Z ; std::_Compressed_pair<std::allocator<std::_List_node<CInstanceBase::SCommand,void *> >,std::_List_val<std::_List_simple_types<CInstanceBase::SCommand> >,1>::_Compressed_pair<std::allocator<std::_List_node<CInstanceBase::SCommand,void *> >,std::_List_val<std::_List_simple_types<CInstanceBase::SCommand> >,1><>
PUBLIC	??$_Emplace@ABUSCommand@CInstanceBase@@@?$list@USCommand@CInstanceBase@@V?$allocator@USCommand@CInstanceBase@@@std@@@std@@QAEPAU?$_List_node@USCommand@CInstanceBase@@PAX@1@QAU21@ABUSCommand@CInstanceBase@@@Z ; std::list<CInstanceBase::SCommand,std::allocator<CInstanceBase::SCommand> >::_Emplace<CInstanceBase::SCommand const &>
PUBLIC	??$_Free_non_head@V?$allocator@U?$_List_node@USCommand@CInstanceBase@@PAX@std@@@std@@@?$_List_node@USCommand@CInstanceBase@@PAX@std@@SAXAAV?$allocator@U?$_List_node@USCommand@CInstanceBase@@PAX@std@@@1@PAU01@@Z ; std::_List_node<CInstanceBase::SCommand,void *>::_Free_non_head<std::allocator<std::_List_node<CInstanceBase::SCommand,void *> > >
PUBLIC	??$?0$$V@?$_Compressed_pair@V?$allocator@U?$_List_node@USEffectDamage@CInstanceBase@@PAX@std@@@std@@V?$_List_val@U?$_List_simple_types@USEffectDamage@CInstanceBase@@@std@@@2@$00@std@@QAE@U_Zero_then_variadic_args_t@1@@Z ; std::_Compressed_pair<std::allocator<std::_List_node<CInstanceBase::SEffectDamage,void *> >,std::_List_val<std::_List_simple_types<CInstanceBase::SEffectDamage> >,1>::_Compressed_pair<std::allocator<std::_List_node<CInstanceBase::SEffectDamage,void *> >,std::_List_val<std::_List_simple_types<CInstanceBase::SEffectDamage> >,1><>
PUBLIC	??_G?$CDynamicPool@VCInstanceBase@@@@UAEPAXI@Z	; CDynamicPool<CInstanceBase>::`scalar deleting destructor'
PUBLIC	?find_first_of@?$basic_string@DU?$char_traits@D@std@@V?$allocator@D@2@@std@@QBEIQBDI@Z ; std::basic_string<char,std::char_traits<char>,std::allocator<char> >::find_first_of
PUBLIC	??0?$map@KKU?$less@K@std@@V?$allocator@U?$pair@$$CBKK@std@@@2@@std@@QAE@XZ ; std::map<unsigned long,unsigned long,std::less<unsigned long>,std::allocator<std::pair<unsigned long const ,unsigned long> > >::map<unsigned long,unsigned long,std::less<unsigned long>,std::allocator<std::pair<unsigned long const ,unsigned long> > >
PUBLIC	??1?$_Tree@V?$_Tmap_traits@KKU?$less@K@std@@V?$allocator@U?$pair@$$CBKK@std@@@2@$0A@@std@@@std@@QAE@XZ ; std::_Tree<std::_Tmap_traits<unsigned long,unsigned long,std::less<unsigned long>,std::allocator<std::pair<unsigned long const ,unsigned long> >,0> >::~_Tree<std::_Tmap_traits<unsigned long,unsigned long,std::less<unsigned long>,std::allocator<std::pair<unsigned long const ,unsigned long> >,0> >
PUBLIC	?Instance@?$CSingleton@VCStateManager@@@@SAAAVCStateManager@@XZ ; CSingleton<CStateManager>::Instance
PUBLIC	??0?$list@USCommand@CInstanceBase@@V?$allocator@USCommand@CInstanceBase@@@std@@@std@@QAE@XZ ; std::list<CInstanceBase::SCommand,std::allocator<CInstanceBase::SCommand> >::list<CInstanceBase::SCommand,std::allocator<CInstanceBase::SCommand> >
PUBLIC	??1?$list@USCommand@CInstanceBase@@V?$allocator@USCommand@CInstanceBase@@@std@@@std@@QAE@XZ ; std::list<CInstanceBase::SCommand,std::allocator<CInstanceBase::SCommand> >::~list<CInstanceBase::SCommand,std::allocator<CInstanceBase::SCommand> >
PUBLIC	?empty@?$list@USCommand@CInstanceBase@@V?$allocator@USCommand@CInstanceBase@@@std@@@std@@QBE_NXZ ; std::list<CInstanceBase::SCommand,std::allocator<CInstanceBase::SCommand> >::empty
PUBLIC	?front@?$list@USCommand@CInstanceBase@@V?$allocator@USCommand@CInstanceBase@@@std@@@std@@QAEAAUSCommand@CInstanceBase@@XZ ; std::list<CInstanceBase::SCommand,std::allocator<CInstanceBase::SCommand> >::front
PUBLIC	?pop_front@?$list@USCommand@CInstanceBase@@V?$allocator@USCommand@CInstanceBase@@@std@@@std@@QAEXXZ ; std::list<CInstanceBase::SCommand,std::allocator<CInstanceBase::SCommand> >::pop_front
PUBLIC	?push_back@?$list@USCommand@CInstanceBase@@V?$allocator@USCommand@CInstanceBase@@@std@@@std@@QAEXABUSCommand@CInstanceBase@@@Z ; std::list<CInstanceBase::SCommand,std::allocator<CInstanceBase::SCommand> >::push_back
PUBLIC	?clear@?$list@USCommand@CInstanceBase@@V?$allocator@USCommand@CInstanceBase@@@std@@@std@@QAEXXZ ; std::list<CInstanceBase::SCommand,std::allocator<CInstanceBase::SCommand> >::clear
PUBLIC	??0?$list@USEffectDamage@CInstanceBase@@V?$allocator@USEffectDamage@CInstanceBase@@@std@@@std@@QAE@XZ ; std::list<CInstanceBase::SEffectDamage,std::allocator<CInstanceBase::SEffectDamage> >::list<CInstanceBase::SEffectDamage,std::allocator<CInstanceBase::SEffectDamage> >
PUBLIC	??1?$list@USEffectDamage@CInstanceBase@@V?$allocator@USEffectDamage@CInstanceBase@@@std@@@std@@QAE@XZ ; std::list<CInstanceBase::SEffectDamage,std::allocator<CInstanceBase::SEffectDamage> >::~list<CInstanceBase::SEffectDamage,std::allocator<CInstanceBase::SEffectDamage> >
PUBLIC	??0?$CDynamicPool@VCInstanceBase@@@@QAE@XZ	; CDynamicPool<CInstanceBase>::CDynamicPool<CInstanceBase>
PUBLIC	??1?$CDynamicPool@VCInstanceBase@@@@UAE@XZ	; CDynamicPool<CInstanceBase>::~CDynamicPool<CInstanceBase>
PUBLIC	?Clear@?$CDynamicPool@VCInstanceBase@@@@QAEXXZ	; CDynamicPool<CInstanceBase>::Clear
PUBLIC	?Alloc@?$CDynamicPool@VCInstanceBase@@@@QAEPAVCInstanceBase@@XZ ; CDynamicPool<CInstanceBase>::Alloc
PUBLIC	?Free@?$CDynamicPool@VCInstanceBase@@@@QAEXPAVCInstanceBase@@@Z ; CDynamicPool<CInstanceBase>::Free
PUBLIC	?GetCapacity@?$CDynamicPool@VCInstanceBase@@@@QAEKXZ ; CDynamicPool<CInstanceBase>::GetCapacity
PUBLIC	?Instance@?$CSingleton@VCPythonNonPlayer@@@@SAAAVCPythonNonPlayer@@XZ ; CSingleton<CPythonNonPlayer>::Instance
PUBLIC	?GetSingleton@?$TAbstractSingleton@VIAbstractPlayer@@@@SAAAVIAbstractPlayer@@XZ ; TAbstractSingleton<IAbstractPlayer>::GetSingleton
PUBLIC	?Instance@?$CSingleton@VCPythonPlayer@@@@SAAAVCPythonPlayer@@XZ ; CSingleton<CPythonPlayer>::Instance
PUBLIC	?Instance@?$CSingleton@VCPythonCharacterManager@@@@SAAAVCPythonCharacterManager@@XZ ; CSingleton<CPythonCharacterManager>::Instance
PUBLIC	?GetSingleton@?$TAbstractSingleton@VIAbstractApplication@@@@SAAAVIAbstractApplication@@XZ ; TAbstractSingleton<IAbstractApplication>::GetSingleton
PUBLIC	?Instance@?$CSingleton@VCItemManager@@@@SAAAVCItemManager@@XZ ; CSingleton<CItemManager>::Instance
PUBLIC	?SetLevel@CInstanceBase@@QAEXK@Z		; CInstanceBase::SetLevel
PUBLIC	?GetBoundBox@CInstanceBase@@QAEXPAUD3DXVECTOR3@@0@Z ; CInstanceBase::GetBoundBox
PUBLIC	??1CInstanceBase@@UAE@XZ			; CInstanceBase::~CInstanceBase
PUBLIC	??0SMoveAfterFunc@CInstanceBase@@QAE@XZ		; CInstanceBase::SMoveAfterFunc::SMoveAfterFunc
PUBLIC	??1?$map@KKU?$less@K@std@@V?$allocator@U?$pair@$$CBKK@std@@@2@@std@@QAE@XZ ; std::map<unsigned long,unsigned long,std::less<unsigned long>,std::allocator<std::pair<unsigned long const ,unsigned long> > >::~map<unsigned long,unsigned long,std::less<unsigned long>,std::allocator<std::pair<unsigned long const ,unsigned long> > >
PUBLIC	??1SEffectContainer@CInstanceBase@@QAE@XZ	; CInstanceBase::SEffectContainer::~SEffectContainer
PUBLIC	??0SEffectContainer@CInstanceBase@@QAE@XZ	; CInstanceBase::SEffectContainer::SEffectContainer
PUBLIC	??_GCInstanceBase@@UAEPAXI@Z			; CInstanceBase::`scalar deleting destructor'
PUBLIC	??0CInstanceBase@@QAE@XZ			; CInstanceBase::CInstanceBase
PUBLIC	?__Initialize@CInstanceBase@@IAEXXZ		; CInstanceBase::__Initialize
PUBLIC	?__Warrior_Initialize@CInstanceBase@@IAEXXZ	; CInstanceBase::__Warrior_Initialize
PUBLIC	?__InitializeRotationSpeed@CInstanceBase@@IAEXXZ ; CInstanceBase::__InitializeRotationSpeed
PUBLIC	?Destroy@CInstanceBase@@QAEXXZ			; CInstanceBase::Destroy
PUBLIC	?RegisterBoundingSphere@CInstanceBase@@QAEXXZ	; CInstanceBase::RegisterBoundingSphere
PUBLIC	?RefreshState@CInstanceBase@@IAEXK_N@Z		; CInstanceBase::RefreshState
PUBLIC	?__IsShapeAnimalWear@CInstanceBase@@IAE_NXZ	; CInstanceBase::__IsShapeAnimalWear
PUBLIC	?ChangeArmor@CInstanceBase@@QAE_NK@Z		; CInstanceBase::ChangeArmor
PUBLIC	?ChangeWeapon@CInstanceBase@@QAEXK@Z		; CInstanceBase::ChangeWeapon
PUBLIC	?SetWeapon@CInstanceBase@@QAE_NK@Z		; CInstanceBase::SetWeapon
PUBLIC	?__GetRefinedEffect@CInstanceBase@@IAEIPAVCItemData@@@Z ; CInstanceBase::__GetRefinedEffect
PUBLIC	?__ClearArmorRefineEffect@CInstanceBase@@IAEXXZ	; CInstanceBase::__ClearArmorRefineEffect
PUBLIC	?__ClearWeaponRefineEffect@CInstanceBase@@IAEXXZ ; CInstanceBase::__ClearWeaponRefineEffect
PUBLIC	?GetWeaponType@CInstanceBase@@QAEKXZ		; CInstanceBase::GetWeaponType
PUBLIC	?SetShape@CInstanceBase@@QAEXKM@Z		; CInstanceBase::SetShape
PUBLIC	?SetArmor@CInstanceBase@@QAEXK@Z		; CInstanceBase::SetArmor
PUBLIC	?ChangeHair@CInstanceBase@@QAEXK@Z		; CInstanceBase::ChangeHair
PUBLIC	?SetHair@CInstanceBase@@QAEXK@Z			; CInstanceBase::SetHair
PUBLIC	?__GetAlphaValue@CInstanceBase@@IAEMXZ		; CInstanceBase::__GetAlphaValue
PUBLIC	?__SetAlphaValue@CInstanceBase@@IAEXM@Z		; CInstanceBase::__SetAlphaValue
PUBLIC	?__SetBlendRenderingMode@CInstanceBase@@IAEXXZ	; CInstanceBase::__SetBlendRenderingMode
PUBLIC	?SetAddColor@CInstanceBase@@QAEXABUD3DXCOLOR@@@Z ; CInstanceBase::SetAddColor
PUBLIC	?SetModulateRenderMode@CInstanceBase@@QAEXXZ	; CInstanceBase::SetModulateRenderMode
PUBLIC	?SetAddRenderMode@CInstanceBase@@QAEXXZ		; CInstanceBase::SetAddRenderMode
PUBLIC	?RestoreRenderMode@CInstanceBase@@QAEXXZ	; CInstanceBase::RestoreRenderMode
PUBLIC	?Refresh@CInstanceBase@@QAEXK_N@Z		; CInstanceBase::Refresh
PUBLIC	?RefreshActorInstance@CInstanceBase@@IAEXXZ	; CInstanceBase::RefreshActorInstance
PUBLIC	?GetGraphicThingInstancePtr@CInstanceBase@@QAEPAVCActorInstance@@XZ ; CInstanceBase::GetGraphicThingInstancePtr
PUBLIC	?GetGraphicThingInstanceRef@CInstanceBase@@QAEAAVCActorInstance@@XZ ; CInstanceBase::GetGraphicThingInstanceRef
PUBLIC	?GetDistance@CInstanceBase@@QAEMABUD3DXVECTOR3@@@Z ; CInstanceBase::GetDistance
PUBLIC	?GetDistance@CInstanceBase@@QAEMPAV1@@Z		; CInstanceBase::GetDistance
PUBLIC	?IntersectDefendingSphere@CInstanceBase@@QAE_NXZ ; CInstanceBase::IntersectDefendingSphere
PUBLIC	?IntersectBoundingBox@CInstanceBase@@QAE_NXZ	; CInstanceBase::IntersectBoundingBox
PUBLIC	?__CanRender@CInstanceBase@@IAE_NXZ		; CInstanceBase::__CanRender
PUBLIC	?__IsInViewFrustum@CInstanceBase@@IAE_NXZ	; CInstanceBase::__IsInViewFrustum
PUBLIC	?GetVirtualNumber@CInstanceBase@@QAEKXZ		; CInstanceBase::GetVirtualNumber
PUBLIC	?GetVirtualID@CInstanceBase@@QAEKXZ		; CInstanceBase::GetVirtualID
PUBLIC	?GetInstanceType@CInstanceBase@@QAEHXZ		; CInstanceBase::GetInstanceType
PUBLIC	?IsForceVisible@CInstanceBase@@QAEHXZ		; CInstanceBase::IsForceVisible
PUBLIC	?IsFlag@CInstanceBase@@QAEHXZ			; CInstanceBase::IsFlag
PUBLIC	?IsStoneDoor@CInstanceBase@@QAEHXZ		; CInstanceBase::IsStoneDoor
PUBLIC	?IsWoodenDoor@CInstanceBase@@QAEHXZ		; CInstanceBase::IsWoodenDoor
PUBLIC	?IsDoor@CInstanceBase@@QAEHXZ			; CInstanceBase::IsDoor
PUBLIC	?IsBuilding@CInstanceBase@@QAEHXZ		; CInstanceBase::IsBuilding
PUBLIC	?IsObject@CInstanceBase@@QAEHXZ			; CInstanceBase::IsObject
PUBLIC	?IsGoto@CInstanceBase@@QAEHXZ			; CInstanceBase::IsGoto
PUBLIC	?IsWarp@CInstanceBase@@QAEHXZ			; CInstanceBase::IsWarp
PUBLIC	?IsResource@CInstanceBase@@QAEHXZ		; CInstanceBase::IsResource
PUBLIC	?IsGuildWall@CInstanceBase@@QAEHXZ		; CInstanceBase::IsGuildWall
PUBLIC	?IsStone@CInstanceBase@@QAEHXZ			; CInstanceBase::IsStone
PUBLIC	?IsEnemy@CInstanceBase@@QAEHXZ			; CInstanceBase::IsEnemy
PUBLIC	?IsNPC@CInstanceBase@@QAEHXZ			; CInstanceBase::IsNPC
PUBLIC	?IsPC@CInstanceBase@@QAEHXZ			; CInstanceBase::IsPC
PUBLIC	?IsPoly@CInstanceBase@@QAEHXZ			; CInstanceBase::IsPoly
PUBLIC	?CanViewTargetHP@CInstanceBase@@QAE_NAAV1@@Z	; CInstanceBase::CanViewTargetHP
PUBLIC	?CanPickInstance@CInstanceBase@@QAE_NXZ		; CInstanceBase::CanPickInstance
PUBLIC	?CanChangeTarget@CInstanceBase@@QAE_NXZ		; CInstanceBase::CanChangeTarget
PUBLIC	?IsTargetableInstance@CInstanceBase@@QAE_NAAV1@@Z ; CInstanceBase::IsTargetableInstance
PUBLIC	?IsAttackableInstance@CInstanceBase@@QAE_NAAV1@@Z ; CInstanceBase::IsAttackableInstance
PUBLIC	?GetDuelMode@CInstanceBase@@QAEKXZ		; CInstanceBase::GetDuelMode
PUBLIC	?SetDuelMode@CInstanceBase@@QAEXK@Z		; CInstanceBase::SetDuelMode
PUBLIC	?IsConflictAlignmentInstance@CInstanceBase@@QAE_NAAV1@@Z ; CInstanceBase::IsConflictAlignmentInstance
PUBLIC	?GetRace@CInstanceBase@@QAEKXZ			; CInstanceBase::GetRace
PUBLIC	?GetNameString@CInstanceBase@@QAEPBDXZ		; CInstanceBase::GetNameString
PUBLIC	?SetComboType@CInstanceBase@@QAEXI@Z		; CInstanceBase::SetComboType
PUBLIC	?SetStateFlags@CInstanceBase@@QAEXK@Z		; CInstanceBase::SetStateFlags
PUBLIC	?SetPartyMemberFlag@CInstanceBase@@QAEX_N@Z	; CInstanceBase::SetPartyMemberFlag
PUBLIC	?SetKiller@CInstanceBase@@QAEX_N@Z		; CInstanceBase::SetKiller
PUBLIC	?SetPKMode@CInstanceBase@@QAEXE@Z		; CInstanceBase::SetPKMode
PUBLIC	?SetAlignment@CInstanceBase@@QAEXF@Z		; CInstanceBase::SetAlignment
PUBLIC	?SetInstanceType@CInstanceBase@@QAEXH@Z		; CInstanceBase::SetInstanceType
PUBLIC	?SetVirtualNumber@CInstanceBase@@QAEXK@Z	; CInstanceBase::SetVirtualNumber
PUBLIC	?SetVirtualID@CInstanceBase@@QAEXK@Z		; CInstanceBase::SetVirtualID
PUBLIC	?RenderCollision@CInstanceBase@@QAEXXZ		; CInstanceBase::RenderCollision
PUBLIC	?RenderToShadowMap@CInstanceBase@@QAEXXZ	; CInstanceBase::RenderToShadowMap
PUBLIC	?Render@CInstanceBase@@QAEXXZ			; CInstanceBase::Render
PUBLIC	?RenderTrace@CInstanceBase@@QAEXXZ		; CInstanceBase::RenderTrace
PUBLIC	?Deform@CInstanceBase@@QAEXXZ			; CInstanceBase::Deform
PUBLIC	?Transform@CInstanceBase@@QAEXXZ		; CInstanceBase::Transform
PUBLIC	?Update@CInstanceBase@@QAEXXZ			; CInstanceBase::Update
PUBLIC	?__ProcessFunctionEmotion@CInstanceBase@@IAEXKKABUD3DXVECTOR3@@@Z ; CInstanceBase::__ProcessFunctionEmotion
PUBLIC	?MovementProcess@CInstanceBase@@IAEXXZ		; CInstanceBase::MovementProcess
PUBLIC	?StateProcess@CInstanceBase@@IAEXXZ		; CInstanceBase::StateProcess
PUBLIC	?__IsEnableTCPProcess@CInstanceBase@@IAEHI@Z	; CInstanceBase::__IsEnableTCPProcess
PUBLIC	?__CanProcessNetworkStatePacket@CInstanceBase@@IAEHXZ ; CInstanceBase::__CanProcessNetworkStatePacket
PUBLIC	?PushTCPState@CInstanceBase@@QAEXKABUD3DXVECTOR3@@MII@Z ; CInstanceBase::PushTCPState
PUBLIC	??0SCommand@CInstanceBase@@QAE@XZ		; CInstanceBase::SCommand::SCommand
PUBLIC	?PushTCPStateExpanded@CInstanceBase@@QAEXKABUD3DXVECTOR3@@MIII@Z ; CInstanceBase::PushTCPStateExpanded
PUBLIC	?NEW_SetOwner@CInstanceBase@@QAEXK@Z		; CInstanceBase::NEW_SetOwner
PUBLIC	?__IsSyncing@CInstanceBase@@QAEHXZ		; CInstanceBase::__IsSyncing
PUBLIC	?IsSleep@CInstanceBase@@QAEHXZ			; CInstanceBase::IsSleep
PUBLIC	?IsStun@CInstanceBase@@QAEHXZ			; CInstanceBase::IsStun
PUBLIC	?IsDead@CInstanceBase@@QAEHXZ			; CInstanceBase::IsDead
PUBLIC	?IsFishing@CInstanceBase@@QAEHXZ		; CInstanceBase::IsFishing
PUBLIC	?IsFishingMode@CInstanceBase@@QAEHXZ		; CInstanceBase::IsFishingMode
PUBLIC	?IsHandMode@CInstanceBase@@QAEHXZ		; CInstanceBase::IsHandMode
PUBLIC	?IsBowMode@CInstanceBase@@QAEHXZ		; CInstanceBase::IsBowMode
PUBLIC	?CanFishing@CInstanceBase@@QAE_NXZ		; CInstanceBase::CanFishing
PUBLIC	?CanAttack@CInstanceBase@@QAE_NXZ		; CInstanceBase::CanAttack
PUBLIC	?CanUseSkill@CInstanceBase@@QAE_NXZ		; CInstanceBase::CanUseSkill
PUBLIC	?CanMove@CInstanceBase@@QAE_NXZ			; CInstanceBase::CanMove
PUBLIC	?CanAct@CInstanceBase@@QAE_NXZ			; CInstanceBase::CanAct
PUBLIC	?GetShape@CInstanceBase@@QAEKXZ			; CInstanceBase::GetShape
PUBLIC	?GetPart@CInstanceBase@@QAEKW4EParts@CRaceData@@@Z ; CInstanceBase::GetPart
PUBLIC	?ChangeGuild@CInstanceBase@@QAEXK@Z		; CInstanceBase::ChangeGuild
PUBLIC	?OnMoving@CInstanceBase@@IAEXXZ			; CInstanceBase::OnMoving
PUBLIC	?OnWaiting@CInstanceBase@@IAEXXZ		; CInstanceBase::OnWaiting
PUBLIC	?NEW_GetSrcPixelPositionRef@CInstanceBase@@IAEABUD3DXVECTOR3@@XZ ; CInstanceBase::NEW_GetSrcPixelPositionRef
PUBLIC	?NEW_GetDstPixelPositionRef@CInstanceBase@@QAEABUD3DXVECTOR3@@XZ ; CInstanceBase::NEW_GetDstPixelPositionRef
PUBLIC	?NEW_GetCurPixelPositionRef@CInstanceBase@@IAEABUD3DXVECTOR3@@XZ ; CInstanceBase::NEW_GetCurPixelPositionRef
PUBLIC	?NEW_SetSrcPixelPosition@CInstanceBase@@IAEXABUD3DXVECTOR3@@@Z ; CInstanceBase::NEW_SetSrcPixelPosition
PUBLIC	?NEW_SetDstPixelPosition@CInstanceBase@@IAEXABUD3DXVECTOR3@@@Z ; CInstanceBase::NEW_SetDstPixelPosition
PUBLIC	?NEW_SetDstPixelPositionZ@CInstanceBase@@IAEXM@Z ; CInstanceBase::NEW_SetDstPixelPositionZ
PUBLIC	?ResetPerformanceCounter@CInstanceBase@@SAXXZ	; CInstanceBase::ResetPerformanceCounter
PUBLIC	?GetInfo@CInstanceBase@@SAXPAV?$basic_string@DU?$char_traits@D@std@@V?$allocator@D@2@@std@@@Z ; CInstanceBase::GetInfo
PUBLIC	?DismountHorse@CInstanceBase@@QAEXXZ		; CInstanceBase::DismountHorse
PUBLIC	?MountHorse@CInstanceBase@@QAEXI@Z		; CInstanceBase::MountHorse
PUBLIC	?IsMountingHorse@CInstanceBase@@QAEHXZ		; CInstanceBase::IsMountingHorse
PUBLIC	?IsNewMount@CInstanceBase@@QAEHXZ		; CInstanceBase::IsNewMount
PUBLIC	?IsHoldingPickAxe@CInstanceBase@@QAEHXZ		; CInstanceBase::IsHoldingPickAxe
PUBLIC	?IsWearingDress@CInstanceBase@@QAEHXZ		; CInstanceBase::IsWearingDress
PUBLIC	?__IsChangableWeapon@CInstanceBase@@IAEHH@Z	; CInstanceBase::__IsChangableWeapon
PUBLIC	?SetRace@CInstanceBase@@QAE_NK@Z		; CInstanceBase::SetRace
PUBLIC	?SetNameString@CInstanceBase@@QAEXPBDH@Z	; CInstanceBase::SetNameString
PUBLIC	?__Create_SetWarpName@CInstanceBase@@IAEXABUSCreateData@1@@Z ; CInstanceBase::__Create_SetWarpName
PUBLIC	?__Create_SetName@CInstanceBase@@IAEXABUSCreateData@1@@Z ; CInstanceBase::__Create_SetName
PUBLIC	?Create@CInstanceBase@@QAE_NABUSCreateData@1@@Z	; CInstanceBase::Create
PUBLIC	?__FindRaceType@CInstanceBase@@IAE_NKPAE@Z	; CInstanceBase::__FindRaceType
PUBLIC	?__GetBowRange@CInstanceBase@@IAEMXZ		; CInstanceBase::__GetBowRange
PUBLIC	?__MainCanSeeHiddenThing@CInstanceBase@@IAE_NXZ	; CInstanceBase::__MainCanSeeHiddenThing
PUBLIC	?__IsExistMainInstance@CInstanceBase@@IAE_NXZ	; CInstanceBase::__IsExistMainInstance
PUBLIC	?__IsMainInstance@CInstanceBase@@IAE_NXZ	; CInstanceBase::__IsMainInstance
PUBLIC	?__ClearMainInstance@CInstanceBase@@IAEXXZ	; CInstanceBase::__ClearMainInstance
PUBLIC	?__GetMainInstancePtr@CInstanceBase@@IAEPAV1@XZ	; CInstanceBase::__GetMainInstancePtr
PUBLIC	?SetMainInstance@CInstanceBase@@QAEXXZ		; CInstanceBase::SetMainInstance
PUBLIC	?Delete@CInstanceBase@@SAXPAV1@@Z		; CInstanceBase::Delete
PUBLIC	?New@CInstanceBase@@SAPAV1@XZ			; CInstanceBase::New
PUBLIC	?DestroySystem@CInstanceBase@@SAXXZ		; CInstanceBase::DestroySystem
PUBLIC	?OnUntargeted@CInstanceBase@@QAEXXZ		; CInstanceBase::OnUntargeted
PUBLIC	?OnTargeted@CInstanceBase@@QAEXXZ		; CInstanceBase::OnTargeted
PUBLIC	?OnUnselected@CInstanceBase@@QAEXXZ		; CInstanceBase::OnUnselected
PUBLIC	?OnSelected@CInstanceBase@@QAEXXZ		; CInstanceBase::OnSelected
PUBLIC	?CalculateDistanceSq3d@CInstanceBase@@QAEMABUD3DXVECTOR3@@@Z ; CInstanceBase::CalculateDistanceSq3d
PUBLIC	?IsInSafe@CInstanceBase@@QAEHXZ			; CInstanceBase::IsInSafe
PUBLIC	?IsPartyMember@CInstanceBase@@QAE_NXZ		; CInstanceBase::IsPartyMember
PUBLIC	?IsKiller@CInstanceBase@@QAE_NXZ		; CInstanceBase::IsKiller
PUBLIC	?GetPKMode@CInstanceBase@@QAEEXZ		; CInstanceBase::GetPKMode
PUBLIC	?GetAlignmentType@CInstanceBase@@QAEHXZ		; CInstanceBase::GetAlignmentType
PUBLIC	?GetAlignmentGrade@CInstanceBase@@QAEIXZ	; CInstanceBase::GetAlignmentGrade
PUBLIC	?GetAlignment@CInstanceBase@@QAEHXZ		; CInstanceBase::GetAlignment
PUBLIC	?GetGuildID@CInstanceBase@@QAEKXZ		; CInstanceBase::GetGuildID
PUBLIC	?GetEmpireID@CInstanceBase@@QAEKXZ		; CInstanceBase::GetEmpireID
PUBLIC	?IsSameEmpire@CInstanceBase@@QAEHAAV1@@Z	; CInstanceBase::IsSameEmpire
PUBLIC	?IsGameMaster@CInstanceBase@@QAEHXZ		; CInstanceBase::IsGameMaster
PUBLIC	?IsInvisibility@CInstanceBase@@QAEHXZ		; CInstanceBase::IsInvisibility
PUBLIC	?__GetBackgroundHeight@CInstanceBase@@KAMMM@Z	; CInstanceBase::__GetBackgroundHeight
PUBLIC	?__GetShadowMapColor@CInstanceBase@@KAKMM@Z	; CInstanceBase::__GetShadowMapColor
PUBLIC	?__DisableSkipCollision@CInstanceBase@@IAEXXZ	; CInstanceBase::__DisableSkipCollision
PUBLIC	?__EnableSkipCollision@CInstanceBase@@IAEXXZ	; CInstanceBase::__EnableSkipCollision
PUBLIC	?__IsInDustRange@CInstanceBase@@IAE_NXZ		; CInstanceBase::__IsInDustRange
PUBLIC	?__Background_IsWaterPixelPosition@CInstanceBase@@QAE_NABUD3DXVECTOR3@@@Z ; CInstanceBase::__Background_IsWaterPixelPosition
PUBLIC	?__Background_GetWaterHeight@CInstanceBase@@QAE_NABUD3DXVECTOR3@@PAM@Z ; CInstanceBase::__Background_GetWaterHeight
PUBLIC	?__LessRenderOrder_GetLODLevel@CInstanceBase@@IAEIXZ ; CInstanceBase::__LessRenderOrder_GetLODLevel
PUBLIC	?LessRenderOrder@CInstanceBase@@QAE_NPAV1@@Z	; CInstanceBase::LessRenderOrder
PUBLIC	??_GCActorInstanceBackground@@UAEPAXI@Z		; CActorInstanceBackground::`scalar deleting destructor'
PUBLIC	?IsBlock@CActorInstanceBackground@@UAE_NHH@Z	; CActorInstanceBackground::IsBlock
PUBLIC	??1CActorInstanceBackground@@UAE@XZ		; CActorInstanceBackground::~CActorInstanceBackground
PUBLIC	??0CActorInstanceBackground@@QAE@XZ		; CActorInstanceBackground::CActorInstanceBackground
PUBLIC	?__ArmorVnumToShape@@YA_NHPAK@Z			; __ArmorVnumToShape
PUBLIC	?AvoidObject@CInstanceBase@@QAE_NABVCGraphicObjectInstance@@@Z ; CInstanceBase::AvoidObject
PUBLIC	?IsBlockObject@CInstanceBase@@QAE_NABVCGraphicObjectInstance@@@Z ; CInstanceBase::IsBlockObject
PUBLIC	?BlockMovement@CInstanceBase@@QAEXXZ		; CInstanceBase::BlockMovement
PUBLIC	?__DetachHorseSaddle@CInstanceBase@@IAEXXZ	; CInstanceBase::__DetachHorseSaddle
PUBLIC	?__AttachHorseSaddle@CInstanceBase@@IAEXXZ	; CInstanceBase::__AttachHorseSaddle
PUBLIC	?Render@SHORSE@CInstanceBase@@QAEXXZ		; CInstanceBase::SHORSE::Render
PUBLIC	?Deform@SHORSE@CInstanceBase@@QAEXXZ		; CInstanceBase::SHORSE::Deform
PUBLIC	?IsMounting@SHORSE@CInstanceBase@@QAE_NXZ	; CInstanceBase::SHORSE::IsMounting
PUBLIC	?CanAttack@SHORSE@CInstanceBase@@QAE_NXZ	; CInstanceBase::SHORSE::CanAttack
PUBLIC	?CanUseSkill@SHORSE@CInstanceBase@@QAE_NXZ	; CInstanceBase::SHORSE::CanUseSkill
PUBLIC	?IsNewMount@SHORSE@CInstanceBase@@QAE_NXZ	; CInstanceBase::SHORSE::IsNewMount
PUBLIC	?GetLevel@SHORSE@CInstanceBase@@QAEIXZ		; CInstanceBase::SHORSE::GetLevel
PUBLIC	?GetActorPtr@SHORSE@CInstanceBase@@QAEPAVCActorInstance@@XZ ; CInstanceBase::SHORSE::GetActorPtr
PUBLIC	?GetActorRef@SHORSE@CInstanceBase@@QAEAAVCActorInstance@@XZ ; CInstanceBase::SHORSE::GetActorRef
PUBLIC	?Destroy@SHORSE@CInstanceBase@@QAEXXZ		; CInstanceBase::SHORSE::Destroy
PUBLIC	?Create@SHORSE@CInstanceBase@@QAEXABUD3DXVECTOR3@@II@Z ; CInstanceBase::SHORSE::Create
PUBLIC	?SetMoveSpeed@SHORSE@CInstanceBase@@QAEXI@Z	; CInstanceBase::SHORSE::SetMoveSpeed
PUBLIC	?SetAttackSpeed@SHORSE@CInstanceBase@@QAEXI@Z	; CInstanceBase::SHORSE::SetAttackSpeed
PUBLIC	?__Initialize@SHORSE@CInstanceBase@@QAEXXZ	; CInstanceBase::SHORSE::__Initialize
PUBLIC	??1SHORSE@CInstanceBase@@QAE@XZ			; CInstanceBase::SHORSE::~SHORSE
PUBLIC	??0SHORSE@CInstanceBase@@QAE@XZ			; CInstanceBase::SHORSE::SHORSE
PUBLIC	?IsWall@@YA_NI@Z				; IsWall
PUBLIC	?RaceToJob@@YAHH@Z				; RaceToJob
PUBLIC	?ms_kPool@CInstanceBase@@2V?$CDynamicPool@VCInstanceBase@@@@A ; CInstanceBase::ms_kPool
EXTRN	??_EIBackground@@UAEPAXI@Z:PROC			; IBackground::`vector deleting destructor'
EXTRN	??_E?$CSingleton@VIBackground@@@@UAEPAXI@Z:PROC	; CSingleton<IBackground>::`vector deleting destructor'
EXTRN	??_ECInstanceBase@@UAEPAXI@Z:PROC		; CInstanceBase::`vector deleting destructor'
EXTRN	??_E?$CDynamicPool@VCInstanceBase@@@@UAEPAXI@Z:PROC ; CDynamicPool<CInstanceBase>::`vector deleting destructor'
EXTRN	??_ECActorInstanceBackground@@UAEPAXI@Z:PROC	; CActorInstanceBackground::`vector deleting destructor'
;	COMDAT ?$TSS0@?9??Render@CInstanceBase@@QAEXXZ@4HA
_BSS	SEGMENT
?$TSS0@?9??Render@CInstanceBase@@QAEXXZ@4HA DD 01H DUP (?) ; `CInstanceBase::Render'::`10'::$TSS0
_BSS	ENDS
;	COMDAT ?s_kScreen@?9??Render@CInstanceBase@@QAEXXZ@4VCScreen@@A
_BSS	SEGMENT
?s_kScreen@?9??Render@CInstanceBase@@QAEXXZ@4VCScreen@@A DD 01H DUP (?) ; `CInstanceBase::Render'::`10'::s_kScreen
_BSS	ENDS
;	COMDAT xdata$x
xdata$x	SEGMENT
__ehfuncinfo$?Create@SHORSE@CInstanceBase@@QAEXABUD3DXVECTOR3@@II@Z DD 019930522H
	DD	01H
	DD	FLAT:__unwindtable$?Create@SHORSE@CInstanceBase@@QAEXABUD3DXVECTOR3@@II@Z
	DD	2 DUP(00H)
	DD	2 DUP(00H)
	DD	00H
	DD	01H
__unwindtable$?Create@SHORSE@CInstanceBase@@QAEXABUD3DXVECTOR3@@II@Z DD 0ffffffffH
	DD	FLAT:__unwindfunclet$?Create@SHORSE@CInstanceBase@@QAEXABUD3DXVECTOR3@@II@Z$0
xdata$x	ENDS
;	COMDAT xdata$x
xdata$x	SEGMENT
__ehfuncinfo$?New@CInstanceBase@@SAPAV1@XZ DD 019930522H
	DD	01H
	DD	FLAT:__unwindtable$?New@CInstanceBase@@SAPAV1@XZ
	DD	2 DUP(00H)
	DD	2 DUP(00H)
	DD	00H
	DD	01H
__unwindtable$?New@CInstanceBase@@SAPAV1@XZ DD 0ffffffffH
	DD	FLAT:__unwindfunclet$?New@CInstanceBase@@SAPAV1@XZ$0
xdata$x	ENDS
;	COMDAT xdata$x
xdata$x	SEGMENT
__ehfuncinfo$?Create@CInstanceBase@@QAE_NABUSCreateData@1@@Z DD 019930522H
	DD	01H
	DD	FLAT:__unwindtable$?Create@CInstanceBase@@QAE_NABUSCreateData@1@@Z
	DD	2 DUP(00H)
	DD	2 DUP(00H)
	DD	00H
	DD	01H
__unwindtable$?Create@CInstanceBase@@QAE_NABUSCreateData@1@@Z DD 0ffffffffH
	DD	FLAT:__unwindfunclet$?Create@CInstanceBase@@QAE_NABUSCreateData@1@@Z$0
xdata$x	ENDS
;	COMDAT xdata$x
xdata$x	SEGMENT
__ehfuncinfo$?__Create_SetWarpName@CInstanceBase@@IAEXABUSCreateData@1@@Z DD 019930522H
	DD	01H
	DD	FLAT:__unwindtable$?__Create_SetWarpName@CInstanceBase@@IAEXABUSCreateData@1@@Z
	DD	2 DUP(00H)
	DD	2 DUP(00H)
	DD	00H
	DD	01H
__unwindtable$?__Create_SetWarpName@CInstanceBase@@IAEXABUSCreateData@1@@Z DD 0ffffffffH
	DD	FLAT:__unwindfunclet$?__Create_SetWarpName@CInstanceBase@@IAEXABUSCreateData@1@@Z$0
xdata$x	ENDS
;	COMDAT xdata$x
xdata$x	SEGMENT
__ehfuncinfo$?Render@CInstanceBase@@QAEXXZ DD 019930522H
	DD	01H
	DD	FLAT:__unwindtable$?Render@CInstanceBase@@QAEXXZ
	DD	2 DUP(00H)
	DD	2 DUP(00H)
	DD	00H
	DD	01H
__unwindtable$?Render@CInstanceBase@@QAEXXZ DD 0ffffffffH
	DD	FLAT:__unwindfunclet$?Render@CInstanceBase@@QAEXXZ$0
xdata$x	ENDS
;	COMDAT xdata$x
xdata$x	SEGMENT
__ehfuncinfo$??0CInstanceBase@@QAE@XZ DD 019930522H
	DD	05H
	DD	FLAT:__unwindtable$??0CInstanceBase@@QAE@XZ
	DD	2 DUP(00H)
	DD	2 DUP(00H)
	DD	00H
	DD	01H
__unwindtable$??0CInstanceBase@@QAE@XZ DD 0ffffffffH
	DD	FLAT:__unwindfunclet$??0CInstanceBase@@QAE@XZ$0
	DD	00H
	DD	FLAT:__unwindfunclet$??0CInstanceBase@@QAE@XZ$1
	DD	01H
	DD	FLAT:__unwindfunclet$??0CInstanceBase@@QAE@XZ$2
	DD	02H
	DD	FLAT:__unwindfunclet$??0CInstanceBase@@QAE@XZ$3
	DD	03H
	DD	FLAT:__unwindfunclet$??0CInstanceBase@@QAE@XZ$4
xdata$x	ENDS
;	COMDAT xdata$x
xdata$x	SEGMENT
__ehfuncinfo$??1CInstanceBase@@UAE@XZ DD 019930522H
	DD	00H
	DD	00H
	DD	2 DUP(00H)
	DD	2 DUP(00H)
	DD	00H
	DD	05H
xdata$x	ENDS
;	COMDAT xdata$x
xdata$x	SEGMENT
__ehfuncinfo$?Alloc@?$CDynamicPool@VCInstanceBase@@@@QAEPAVCInstanceBase@@XZ DD 019930522H
	DD	01H
	DD	FLAT:__unwindtable$?Alloc@?$CDynamicPool@VCInstanceBase@@@@QAEPAVCInstanceBase@@XZ
	DD	2 DUP(00H)
	DD	2 DUP(00H)
	DD	00H
	DD	01H
__unwindtable$?Alloc@?$CDynamicPool@VCInstanceBase@@@@QAEPAVCInstanceBase@@XZ DD 0ffffffffH
	DD	FLAT:__unwindfunclet$?Alloc@?$CDynamicPool@VCInstanceBase@@@@QAEPAVCInstanceBase@@XZ$0
xdata$x	ENDS
;	COMDAT xdata$x
xdata$x	SEGMENT
__ehfuncinfo$?push_back@?$list@USCommand@CInstanceBase@@V?$allocator@USCommand@CInstanceBase@@@std@@@std@@QAEXABUSCommand@CInstanceBase@@@Z DD 019930522H
	DD	01H
	DD	FLAT:__unwindtable$?push_back@?$list@USCommand@CInstanceBase@@V?$allocator@USCommand@CInstanceBase@@@std@@@std@@QAEXABUSCommand@CInstanceBase@@@Z
	DD	2 DUP(00H)
	DD	2 DUP(00H)
	DD	00H
	DD	01H
__unwindtable$?push_back@?$list@USCommand@CInstanceBase@@V?$allocator@USCommand@CInstanceBase@@@std@@@std@@QAEXABUSCommand@CInstanceBase@@@Z DD 0ffffffffH
	DD	FLAT:__unwindfunclet$?push_back@?$list@USCommand@CInstanceBase@@V?$allocator@USCommand@CInstanceBase@@@std@@@std@@QAEXABUSCommand@CInstanceBase@@@Z$1
xdata$x	ENDS
;	COMDAT xdata$x
xdata$x	SEGMENT
__ehfuncinfo$??$_Emplace@ABUSCommand@CInstanceBase@@@?$list@USCommand@CInstanceBase@@V?$allocator@USCommand@CInstanceBase@@@std@@@std@@QAEPAU?$_List_node@USCommand@CInstanceBase@@PAX@1@QAU21@ABUSCommand@CInstanceBase@@@Z DD 019930522H
	DD	01H
	DD	FLAT:__unwindtable$??$_Emplace@ABUSCommand@CInstanceBase@@@?$list@USCommand@CInstanceBase@@V?$allocator@USCommand@CInstanceBase@@@std@@@std@@QAEPAU?$_List_node@USCommand@CInstanceBase@@PAX@1@QAU21@ABUSCommand@CInstanceBase@@@Z
	DD	2 DUP(00H)
	DD	2 DUP(00H)
	DD	00H
	DD	01H
__unwindtable$??$_Emplace@ABUSCommand@CInstanceBase@@@?$list@USCommand@CInstanceBase@@V?$allocator@USCommand@CInstanceBase@@@std@@@std@@QAEPAU?$_List_node@USCommand@CInstanceBase@@PAX@1@QAU21@ABUSCommand@CInstanceBase@@@Z DD 0ffffffffH
	DD	FLAT:__unwindfunclet$??$_Emplace@ABUSCommand@CInstanceBase@@@?$list@USCommand@CInstanceBase@@V?$allocator@USCommand@CInstanceBase@@@std@@@std@@QAEPAU?$_List_node@USCommand@CInstanceBase@@PAX@1@QAU21@ABUSCommand@CInstanceBase@@@Z$1
xdata$x	ENDS
;	COMDAT xdata$x
xdata$x	SEGMENT
__ehfuncinfo$??$?0ABUSCommand@CInstanceBase@@@?$_List_node_emplace_op2@V?$allocator@U?$_List_node@USCommand@CInstanceBase@@PAX@std@@@std@@@std@@QAE@AAV?$allocator@U?$_List_node@USCommand@CInstanceBase@@PAX@std@@@1@ABUSCommand@CInstanceBase@@@Z DD 019930522H
	DD	01H
	DD	FLAT:__unwindtable$??$?0ABUSCommand@CInstanceBase@@@?$_List_node_emplace_op2@V?$allocator@U?$_List_node@USCommand@CInstanceBase@@PAX@std@@@std@@@std@@QAE@AAV?$allocator@U?$_List_node@USCommand@CInstanceBase@@PAX@std@@@1@ABUSCommand@CInstanceBase@@@Z
	DD	2 DUP(00H)
	DD	2 DUP(00H)
	DD	00H
	DD	01H
__unwindtable$??$?0ABUSCommand@CInstanceBase@@@?$_List_node_emplace_op2@V?$allocator@U?$_List_node@USCommand@CInstanceBase@@PAX@std@@@std@@@std@@QAE@AAV?$allocator@U?$_List_node@USCommand@CInstanceBase@@PAX@std@@@1@ABUSCommand@CInstanceBase@@@Z DD 0ffffffffH
	DD	FLAT:__unwindfunclet$??$?0ABUSCommand@CInstanceBase@@@?$_List_node_emplace_op2@V?$allocator@U?$_List_node@USCommand@CInstanceBase@@PAX@std@@@std@@@std@@QAE@AAV?$allocator@U?$_List_node@USCommand@CInstanceBase@@PAX@std@@@1@ABUSCommand@CInstanceBase@@@Z$0
?gs_kActorInstBG@@3VCActorInstanceBackground@@A DD FLAT:??_7CActorInstanceBackground@@6B@ ; gs_kActorInstBG
?ms_kPool@CInstanceBase@@2V?$CDynamicPool@VCInstanceBase@@@@A DD FLAT:??_7?$CDynamicPool@VCInstanceBase@@@@6B@ ; CInstanceBase::ms_kPool
	DD	00H
	DD	00H
	DD	00H
	DD	00H
	DD	00H
	DD	00H
	DD	00H
	DD	00H
	ORG $-20
?gs_kActorInstBG$initializer$@@3P6AXXZA DD FLAT:??__Egs_kActorInstBG@@YAXXZ ; gs_kActorInstBG$initializer$
??ms_kPool$initializer$@CInstanceBase@@2P6AXXZA@@3P6AXXZA DD FLAT:??__E?ms_kPool@CInstanceBase@@2V?$CDynamicPool@VCInstanceBase@@@@A@@YAXXZ ; ??ms_kPool$initializer$@CInstanceBase@@2P6AXXZA@@3P6AXXZA
; Function compile flags: /Ogtp
; File D:\_m2work\Server Client TMP4\ClientVS22\source\UserInterface\InstanceBase.h
;	COMDAT ?RaceToJob@@YAHH@Z
_TEXT	SEGMENT
?RaceToJob@@YAHH@Z PROC					; RaceToJob, COMDAT
; _race$ = ecx

; 1111 : 	const int JOB_NUM = 4;
; 1112 : 	return race % JOB_NUM;

  00000	81 e1 03 00 00
	80		 and	 ecx, -2147483645	; 80000003H
  00006	79 05		 jns	 SHORT $LN3@RaceToJob
  00008	49		 dec	 ecx
  00009	83 c9 fc	 or	 ecx, -4			; fffffffcH
  0000c	41		 inc	 ecx
$LN3@RaceToJob:
  0000d	8b c1		 mov	 eax, ecx

; 1113 : }

  0000f	c3		 ret	 0
?RaceToJob@@YAHH@Z ENDP					; RaceToJob
_TEXT	ENDS
; Function compile flags: /Ogtp
; File D:\_m2work\Server Client TMP4\ClientVS22\source\UserInterface\InstanceBase.cpp
;	COMDAT ?IsWall@@YA_NI@Z
_TEXT	SEGMENT
?IsWall@@YA_NI@Z PROC					; IsWall, COMDAT
; _race$ = ecx

; 23   : 	switch (race)

  00000	81 c1 87 c8 ff
	ff		 add	 ecx, -14201		; ffffc887H
  00006	83 f9 03	 cmp	 ecx, 3
  00009	77 0a		 ja	 SHORT $LN2@IsWall
  0000b	ff 24 8d 00 00
	00 00		 jmp	 DWORD PTR $LN9@IsWall[ecx*4]
$LN4@IsWall:

; 24   : 	{
; 25   : 		case 14201:
; 26   : 		case 14202:
; 27   : 		case 14203:
; 28   : 		case 14204:
; 29   : 			return true;

  00012	b0 01		 mov	 al, 1

; 33   : }

  00014	c3		 ret	 0
$LN2@IsWall:

; 30   : 			break;
; 31   : 	}
; 32   : 	return false;

  00015	32 c0		 xor	 al, al

; 33   : }

  00017	c3		 ret	 0
$LN9@IsWall:
  00018	00 00 00 00	 DD	 $LN4@IsWall
  0001c	00 00 00 00	 DD	 $LN4@IsWall
  00020	00 00 00 00	 DD	 $LN4@IsWall
  00024	00 00 00 00	 DD	 $LN4@IsWall
?IsWall@@YA_NI@Z ENDP					; IsWall
_TEXT	ENDS
; Function compile flags: /Ogtp
; File D:\_m2work\Server Client TMP4\ClientVS22\source\UserInterface\InstanceBase.cpp
;	COMDAT ??0SHORSE@CInstanceBase@@QAE@XZ
_TEXT	SEGMENT
??0SHORSE@CInstanceBase@@QAE@XZ PROC			; CInstanceBase::SHORSE::SHORSE, COMDAT
; _this$ = ecx

; 40   : 	__Initialize();

  00000	e8 00 00 00 00	 call	 ?__Initialize@SHORSE@CInstanceBase@@QAEXXZ ; CInstanceBase::SHORSE::__Initialize

; 41   : }

  00005	8b c1		 mov	 eax, ecx
  00007	c3		 ret	 0
??0SHORSE@CInstanceBase@@QAE@XZ ENDP			; CInstanceBase::SHORSE::SHORSE
_TEXT	ENDS
; Function compile flags: /Ogtp
; File D:\_m2work\Server Client TMP4\ClientVS22\source\UserInterface\InstanceBase.cpp
;	COMDAT ??1SHORSE@CInstanceBase@@QAE@XZ
_TEXT	SEGMENT
??1SHORSE@CInstanceBase@@QAE@XZ PROC			; CInstanceBase::SHORSE::~SHORSE, COMDAT
; _this$ = ecx

; 45   : 	assert(m_pkActor==NULL);
; 46   : }

  00000	c2 00 00	 ret	 0
??1SHORSE@CInstanceBase@@QAE@XZ ENDP			; CInstanceBase::SHORSE::~SHORSE
_TEXT	ENDS
; Function compile flags: /Ogtp
; File D:\_m2work\Server Client TMP4\ClientVS22\source\UserInterface\InstanceBase.cpp
;	COMDAT ?__Initialize@SHORSE@CInstanceBase@@QAEXXZ
_TEXT	SEGMENT
?__Initialize@SHORSE@CInstanceBase@@QAEXXZ PROC		; CInstanceBase::SHORSE::__Initialize, COMDAT
; _this$ = ecx

; 50   : 	m_isMounting=false;

  00000	c6 01 00	 mov	 BYTE PTR [ecx], 0

; 51   : 	m_pkActor=NULL;

  00003	c7 41 04 00 00
	00 00		 mov	 DWORD PTR [ecx+4], 0

; 52   : }

  0000a	c3		 ret	 0
?__Initialize@SHORSE@CInstanceBase@@QAEXXZ ENDP		; CInstanceBase::SHORSE::__Initialize
_TEXT	ENDS
; Function compile flags: /Ogtp
; File D:\_m2work\Server Client TMP4\ClientVS22\source\UserInterface\InstanceBase.cpp
;	COMDAT ?SetAttackSpeed@SHORSE@CInstanceBase@@QAEXI@Z
_TEXT	SEGMENT
_uAtkSpd$ = 8						; size = 4
?SetAttackSpeed@SHORSE@CInstanceBase@@QAEXI@Z PROC	; CInstanceBase::SHORSE::SetAttackSpeed, COMDAT
; _this$ = ecx

; 55   : {

  00000	55		 push	 ebp
  00001	8b ec		 mov	 ebp, esp

; 56   : 	if (!IsMounting())

  00003	e8 00 00 00 00	 call	 ?IsMounting@SHORSE@CInstanceBase@@QAE_NXZ ; CInstanceBase::SHORSE::IsMounting
  00008	84 c0		 test	 al, al
  0000a	74 35		 je	 SHORT $LN1@SetAttackS

; 57   : 		return;
; 58   : 
; 59   : 	CActorInstance& rkActor=GetActorRef();

  0000c	e8 00 00 00 00	 call	 ?GetActorRef@SHORSE@CInstanceBase@@QAEAAVCActorInstance@@XZ ; CInstanceBase::SHORSE::GetActorRef

; 60   : 	rkActor.SetAttackSpeed(uAtkSpd/100.0f);	

  00011	8b 4d 08	 mov	 ecx, DWORD PTR _uAtkSpd$[ebp]
  00014	66 0f 6e c1	 movd	 xmm0, ecx
  00018	f3 0f e6 c0	 cvtdq2pd xmm0, xmm0
  0001c	c1 e9 1f	 shr	 ecx, 31			; 0000001fH
  0001f	51		 push	 ecx
  00020	f2 0f 58 04 cd
	00 00 00 00	 addsd	 xmm0, QWORD PTR __xmm@41f00000000000000000000000000000[ecx*8]
  00029	8b c8		 mov	 ecx, eax
  0002b	66 0f 5a c0	 cvtpd2ps xmm0, xmm0
  0002f	f3 0f 5e 05 00
	00 00 00	 divss	 xmm0, DWORD PTR __real@42c80000
  00037	f3 0f 11 04 24	 movss	 DWORD PTR [esp], xmm0
  0003c	e8 00 00 00 00	 call	 ?SetAttackSpeed@CActorInstance@@QAEXM@Z ; CActorInstance::SetAttackSpeed
$LN1@SetAttackS:

; 61   : }

  00041	5d		 pop	 ebp
  00042	c2 04 00	 ret	 4
?SetAttackSpeed@SHORSE@CInstanceBase@@QAEXI@Z ENDP	; CInstanceBase::SHORSE::SetAttackSpeed
_TEXT	ENDS
; Function compile flags: /Ogtp
; File D:\_m2work\Server Client TMP4\ClientVS22\source\UserInterface\InstanceBase.cpp
;	COMDAT ?SetMoveSpeed@SHORSE@CInstanceBase@@QAEXI@Z
_TEXT	SEGMENT
_uMovSpd$ = 8						; size = 4
?SetMoveSpeed@SHORSE@CInstanceBase@@QAEXI@Z PROC	; CInstanceBase::SHORSE::SetMoveSpeed, COMDAT
; _this$ = ecx

; 64   : {	

  00000	55		 push	 ebp
  00001	8b ec		 mov	 ebp, esp

; 65   : 	if (!IsMounting())

  00003	e8 00 00 00 00	 call	 ?IsMounting@SHORSE@CInstanceBase@@QAE_NXZ ; CInstanceBase::SHORSE::IsMounting
  00008	84 c0		 test	 al, al
  0000a	74 35		 je	 SHORT $LN1@SetMoveSpe

; 66   : 		return;
; 67   : 
; 68   : 	CActorInstance& rkActor=GetActorRef();

  0000c	e8 00 00 00 00	 call	 ?GetActorRef@SHORSE@CInstanceBase@@QAEAAVCActorInstance@@XZ ; CInstanceBase::SHORSE::GetActorRef

; 69   : 	rkActor.SetMoveSpeed(uMovSpd/100.0f);

  00011	8b 4d 08	 mov	 ecx, DWORD PTR _uMovSpd$[ebp]
  00014	66 0f 6e c1	 movd	 xmm0, ecx
  00018	f3 0f e6 c0	 cvtdq2pd xmm0, xmm0
  0001c	c1 e9 1f	 shr	 ecx, 31			; 0000001fH
  0001f	51		 push	 ecx
  00020	f2 0f 58 04 cd
	00 00 00 00	 addsd	 xmm0, QWORD PTR __xmm@41f00000000000000000000000000000[ecx*8]
  00029	8b c8		 mov	 ecx, eax
  0002b	66 0f 5a c0	 cvtpd2ps xmm0, xmm0
  0002f	f3 0f 5e 05 00
	00 00 00	 divss	 xmm0, DWORD PTR __real@42c80000
  00037	f3 0f 11 04 24	 movss	 DWORD PTR [esp], xmm0
  0003c	e8 00 00 00 00	 call	 ?SetMoveSpeed@CActorInstance@@QAEXM@Z ; CActorInstance::SetMoveSpeed
$LN1@SetMoveSpe:

; 70   : }

  00041	5d		 pop	 ebp
  00042	c2 04 00	 ret	 4
?SetMoveSpeed@SHORSE@CInstanceBase@@QAEXI@Z ENDP	; CInstanceBase::SHORSE::SetMoveSpeed
_TEXT	ENDS
; Function compile flags: /Ogtp
; File D:\_m2work\Server Client TMP4\ClientVS22\source\UserInterface\InstanceBase.cpp
;	COMDAT ?Create@SHORSE@CInstanceBase@@QAEXABUD3DXVECTOR3@@II@Z
_TEXT	SEGMENT
$T2 = -16						; size = 4
__$EHRec$ = -12						; size = 12
_c_rkPPos$ = 8						; size = 4
_eRace$ = 12						; size = 4
_eHitEffect$ = 16					; size = 4
?Create@SHORSE@CInstanceBase@@QAEXABUD3DXVECTOR3@@II@Z PROC ; CInstanceBase::SHORSE::Create, COMDAT
; _this$ = ecx

; 73   : {

  00000	55		 push	 ebp
  00001	8b ec		 mov	 ebp, esp
  00003	6a ff		 push	 -1
  00005	68 00 00 00 00	 push	 __ehhandler$?Create@SHORSE@CInstanceBase@@QAEXABUD3DXVECTOR3@@II@Z
  0000a	64 a1 00 00 00
	00		 mov	 eax, DWORD PTR fs:0
  00010	50		 push	 eax
  00011	51		 push	 ecx
  00012	56		 push	 esi
  00013	57		 push	 edi
  00014	a1 00 00 00 00	 mov	 eax, DWORD PTR ___security_cookie
  00019	33 c5		 xor	 eax, ebp
  0001b	50		 push	 eax
  0001c	8d 45 f4	 lea	 eax, DWORD PTR __$EHRec$[ebp]
  0001f	64 a3 00 00 00
	00		 mov	 DWORD PTR fs:0, eax
  00025	8b f1		 mov	 esi, ecx

; 74   : 	assert(NULL==m_pkActor && "CInstanceBase::SHORSE::Create - ALREADY MOUNT");
; 75   : 
; 76   : 	m_pkActor=new CActorInstance;

  00027	68 b0 04 00 00	 push	 1200			; 000004b0H
  0002c	e8 00 00 00 00	 call	 ??2@YAPAXI@Z		; operator new
  00031	83 c4 04	 add	 esp, 4
  00034	89 45 f0	 mov	 DWORD PTR $T2[ebp], eax
  00037	8b c8		 mov	 ecx, eax
  00039	c7 45 fc 00 00
	00 00		 mov	 DWORD PTR __$EHRec$[ebp+8], 0
  00040	e8 00 00 00 00	 call	 ??0CActorInstance@@QAE@XZ ; CActorInstance::CActorInstance
  00045	c7 45 fc ff ff
	ff ff		 mov	 DWORD PTR __$EHRec$[ebp+8], -1

; 77   : 
; 78   : 	CActorInstance& rkActor=GetActorRef();

  0004c	8b ce		 mov	 ecx, esi
  0004e	89 46 04	 mov	 DWORD PTR [esi+4], eax
  00051	e8 00 00 00 00	 call	 ?GetActorRef@SHORSE@CInstanceBase@@QAEAAVCActorInstance@@XZ ; CInstanceBase::SHORSE::GetActorRef
  00056	8b f8		 mov	 edi, eax

; 79   : 	rkActor.SetEventHandler(CActorInstance::IEventHandler::GetEmptyPtr());

  00058	e8 00 00 00 00	 call	 ?GetEmptyPtr@IEventHandler@CActorInstance@@SAPAV12@XZ ; CActorInstance::IEventHandler::GetEmptyPtr
  0005d	50		 push	 eax
  0005e	8b cf		 mov	 ecx, edi
  00060	e8 00 00 00 00	 call	 ?SetEventHandler@CActorInstance@@QAEXPAVIEventHandler@1@@Z ; CActorInstance::SetEventHandler

; 80   : 	if (!rkActor.SetRace(eRace))

  00065	ff 75 0c	 push	 DWORD PTR _eRace$[ebp]
  00068	8b cf		 mov	 ecx, edi
  0006a	e8 00 00 00 00	 call	 ?SetRace@CActorInstance@@QAE_NK@Z ; CActorInstance::SetRace
  0006f	84 c0		 test	 al, al
  00071	75 27		 jne	 SHORT $LN2@Create

; 81   : 	{
; 82   : 		delete m_pkActor;

  00073	8b 4e 04	 mov	 ecx, DWORD PTR [esi+4]
  00076	85 c9		 test	 ecx, ecx
  00078	74 06		 je	 SHORT $LN6@Create
  0007a	8b 01		 mov	 eax, DWORD PTR [ecx]
  0007c	6a 01		 push	 1
  0007e	ff 10		 call	 DWORD PTR [eax]
$LN6@Create:

; 83   : 		m_pkActor=NULL;

  00080	c7 46 04 00 00
	00 00		 mov	 DWORD PTR [esi+4], 0

; 100  : }

  00087	8b 4d f4	 mov	 ecx, DWORD PTR __$EHRec$[ebp]
  0008a	64 89 0d 00 00
	00 00		 mov	 DWORD PTR fs:0, ecx
  00091	59		 pop	 ecx
  00092	5f		 pop	 edi
  00093	5e		 pop	 esi
  00094	8b e5		 mov	 esp, ebp
  00096	5d		 pop	 ebp
  00097	c2 0c 00	 ret	 12			; 0000000cH
$LN2@Create:

; 84   : 		return;
; 85   : 	}
; 86   : 
; 87   : 	rkActor.SetShape(0);

  0009a	51		 push	 ecx
  0009b	c7 04 24 00 00
	00 00		 mov	 DWORD PTR [esp], 0
  000a2	8b cf		 mov	 ecx, edi
  000a4	6a 00		 push	 0
  000a6	e8 00 00 00 00	 call	 ?SetShape@CActorInstance@@QAEXKM@Z ; CActorInstance::SetShape

; 88   : 	rkActor.SetBattleHitEffect(eHitEffect);

  000ab	ff 75 10	 push	 DWORD PTR _eHitEffect$[ebp]
  000ae	8b cf		 mov	 ecx, edi
  000b0	e8 00 00 00 00	 call	 ?SetBattleHitEffect@CActorInstance@@QAEXK@Z ; CActorInstance::SetBattleHitEffect

; 89   : 	rkActor.SetAlphaValue(0.0f);

  000b5	51		 push	 ecx
  000b6	8b cf		 mov	 ecx, edi
  000b8	c7 04 24 00 00
	00 00		 mov	 DWORD PTR [esp], 0
  000bf	e8 00 00 00 00	 call	 ?SetAlphaValue@CActorInstance@@QAEXM@Z ; CActorInstance::SetAlphaValue

; 90   : 	rkActor.BlendAlphaValue(1.0f, 0.5f);

  000c4	83 ec 08	 sub	 esp, 8
  000c7	8b cf		 mov	 ecx, edi
  000c9	c7 44 24 04 00
	00 00 3f	 mov	 DWORD PTR [esp+4], 1056964608 ; 3f000000H
  000d1	c7 04 24 00 00
	80 3f		 mov	 DWORD PTR [esp], 1065353216 ; 3f800000H
  000d8	e8 00 00 00 00	 call	 ?BlendAlphaValue@CActorInstance@@QAEXMM@Z ; CActorInstance::BlendAlphaValue

; 91   : 	rkActor.SetMoveSpeed(1.0f);

  000dd	51		 push	 ecx
  000de	8b cf		 mov	 ecx, edi
  000e0	c7 04 24 00 00
	80 3f		 mov	 DWORD PTR [esp], 1065353216 ; 3f800000H
  000e7	e8 00 00 00 00	 call	 ?SetMoveSpeed@CActorInstance@@QAEXM@Z ; CActorInstance::SetMoveSpeed

; 92   : 	rkActor.SetAttackSpeed(1.0f);

  000ec	51		 push	 ecx
  000ed	8b cf		 mov	 ecx, edi
  000ef	c7 04 24 00 00
	80 3f		 mov	 DWORD PTR [esp], 1065353216 ; 3f800000H
  000f6	e8 00 00 00 00	 call	 ?SetAttackSpeed@CActorInstance@@QAEXM@Z ; CActorInstance::SetAttackSpeed

; 93   : 	rkActor.SetMotionMode(CRaceMotionData::MODE_GENERAL);

  000fb	6a 01		 push	 1
  000fd	8b cf		 mov	 ecx, edi
  000ff	e8 00 00 00 00	 call	 ?SetMotionMode@CActorInstance@@QAEXH@Z ; CActorInstance::SetMotionMode

; 94   : 	rkActor.Stop();

  00104	51		 push	 ecx
  00105	8b cf		 mov	 ecx, edi
  00107	c7 04 24 9a 99
	19 3e		 mov	 DWORD PTR [esp], 1041865114 ; 3e19999aH
  0010e	e8 00 00 00 00	 call	 ?Stop@CActorInstance@@QAEXM@Z ; CActorInstance::Stop

; 95   : 	rkActor.RefreshActorInstance();

  00113	8b cf		 mov	 ecx, edi
  00115	e8 00 00 00 00	 call	 ?RefreshActorInstance@CActorInstance@@QAEXXZ ; CActorInstance::RefreshActorInstance

; 96   : 
; 97   : 	rkActor.SetCurPixelPosition(c_rkPPos);

  0011a	ff 75 08	 push	 DWORD PTR _c_rkPPos$[ebp]
  0011d	8b cf		 mov	 ecx, edi
  0011f	e8 00 00 00 00	 call	 ?SetCurPixelPosition@CActorInstance@@QAEXABUD3DXVECTOR3@@@Z ; CActorInstance::SetCurPixelPosition

; 98   : 
; 99   : 	m_isMounting=true;

  00124	c6 06 01	 mov	 BYTE PTR [esi], 1

; 100  : }

  00127	8b 4d f4	 mov	 ecx, DWORD PTR __$EHRec$[ebp]
  0012a	64 89 0d 00 00
	00 00		 mov	 DWORD PTR fs:0, ecx
  00131	59		 pop	 ecx
  00132	5f		 pop	 edi
  00133	5e		 pop	 esi
  00134	8b e5		 mov	 esp, ebp
  00136	5d		 pop	 ebp
  00137	c2 0c 00	 ret	 12			; 0000000cH
_TEXT	ENDS
;	COMDAT text$x
text$x	SEGMENT
__unwindfunclet$?Create@SHORSE@CInstanceBase@@QAEXABUD3DXVECTOR3@@II@Z$0:
  00000	68 b0 04 00 00	 push	 1200			; 000004b0H
  00005	8b 45 f0	 mov	 eax, DWORD PTR $T2[ebp]
  00008	50		 push	 eax
  00009	e8 00 00 00 00	 call	 ??3@YAXPAXI@Z		; operator delete
  0000e	83 c4 08	 add	 esp, 8
  00011	c3		 ret	 0
  00012	cc		 int	 3
  00013	cc		 int	 3
  00014	cc		 int	 3
  00015	cc		 int	 3
  00016	cc		 int	 3
__ehhandler$?Create@SHORSE@CInstanceBase@@QAEXABUD3DXVECTOR3@@II@Z:
  00017	90		 npad	 1
  00018	90		 npad	 1
  00019	8b 54 24 08	 mov	 edx, DWORD PTR [esp+8]
  0001d	8d 42 0c	 lea	 eax, DWORD PTR [edx+12]
  00020	8b 4a f0	 mov	 ecx, DWORD PTR [edx-16]
  00023	33 c8		 xor	 ecx, eax
  00025	e8 00 00 00 00	 call	 @__security_check_cookie@4
  0002a	b8 00 00 00 00	 mov	 eax, OFFSET __ehfuncinfo$?Create@SHORSE@CInstanceBase@@QAEXABUD3DXVECTOR3@@II@Z
  0002f	e9 00 00 00 00	 jmp	 ___CxxFrameHandler3
text$x	ENDS
?Create@SHORSE@CInstanceBase@@QAEXABUD3DXVECTOR3@@II@Z ENDP ; CInstanceBase::SHORSE::Create
; Function compile flags: /Ogtp
; File D:\_m2work\Server Client TMP4\ClientVS22\source\UserInterface\InstanceBase.cpp
;	COMDAT ?Destroy@SHORSE@CInstanceBase@@QAEXXZ
_TEXT	SEGMENT
?Destroy@SHORSE@CInstanceBase@@QAEXXZ PROC		; CInstanceBase::SHORSE::Destroy, COMDAT
; _this$ = ecx

; 103  : {

  00000	56		 push	 esi
  00001	8b f1		 mov	 esi, ecx

; 104  : 	if (m_pkActor)

  00003	8b 4e 04	 mov	 ecx, DWORD PTR [esi+4]
  00006	85 c9		 test	 ecx, ecx
  00008	74 12		 je	 SHORT $LN4@Destroy

; 105  : 	{
; 106  : 		m_pkActor->Destroy();

  0000a	e8 00 00 00 00	 call	 ?Destroy@CActorInstance@@QAEXXZ ; CActorInstance::Destroy

; 107  : 		delete m_pkActor;	

  0000f	8b 4e 04	 mov	 ecx, DWORD PTR [esi+4]
  00012	85 c9		 test	 ecx, ecx
  00014	74 06		 je	 SHORT $LN4@Destroy
  00016	8b 01		 mov	 eax, DWORD PTR [ecx]
  00018	6a 01		 push	 1
  0001a	ff 10		 call	 DWORD PTR [eax]
$LN4@Destroy:

; 108  : 	}	
; 109  : 
; 110  : 	__Initialize();

  0001c	8b ce		 mov	 ecx, esi
  0001e	5e		 pop	 esi
  0001f	e9 00 00 00 00	 jmp	 ?__Initialize@SHORSE@CInstanceBase@@QAEXXZ ; CInstanceBase::SHORSE::__Initialize
?Destroy@SHORSE@CInstanceBase@@QAEXXZ ENDP		; CInstanceBase::SHORSE::Destroy
_TEXT	ENDS
; Function compile flags: /Ogtp
; File D:\_m2work\Server Client TMP4\ClientVS22\source\UserInterface\InstanceBase.cpp
;	COMDAT ?GetActorRef@SHORSE@CInstanceBase@@QAEAAVCActorInstance@@XZ
_TEXT	SEGMENT
?GetActorRef@SHORSE@CInstanceBase@@QAEAAVCActorInstance@@XZ PROC ; CInstanceBase::SHORSE::GetActorRef, COMDAT
; _this$ = ecx

; 115  : 	assert(NULL!=m_pkActor && "CInstanceBase::SHORSE::GetActorRef");
; 116  : 	return *m_pkActor;

  00000	8b 41 04	 mov	 eax, DWORD PTR [ecx+4]

; 117  : }

  00003	c3		 ret	 0
?GetActorRef@SHORSE@CInstanceBase@@QAEAAVCActorInstance@@XZ ENDP ; CInstanceBase::SHORSE::GetActorRef
_TEXT	ENDS
; Function compile flags: /Ogtp
; File D:\_m2work\Server Client TMP4\ClientVS22\source\UserInterface\InstanceBase.cpp
;	COMDAT ?GetActorPtr@SHORSE@CInstanceBase@@QAEPAVCActorInstance@@XZ
_TEXT	SEGMENT
?GetActorPtr@SHORSE@CInstanceBase@@QAEPAVCActorInstance@@XZ PROC ; CInstanceBase::SHORSE::GetActorPtr, COMDAT
; _this$ = ecx

; 121  : 	return m_pkActor;

  00000	8b 41 04	 mov	 eax, DWORD PTR [ecx+4]

; 122  : }

  00003	c3		 ret	 0
?GetActorPtr@SHORSE@CInstanceBase@@QAEPAVCActorInstance@@XZ ENDP ; CInstanceBase::SHORSE::GetActorPtr
_TEXT	ENDS
; Function compile flags: /Ogtp
; File D:\_m2work\Server Client TMP4\ClientVS22\source\UserInterface\InstanceBase.cpp
;	COMDAT ?GetLevel@SHORSE@CInstanceBase@@QAEIXZ
_TEXT	SEGMENT
?GetLevel@SHORSE@CInstanceBase@@QAEIXZ PROC		; CInstanceBase::SHORSE::GetLevel, COMDAT
; _this$ = ecx

; 126  : 	if (m_pkActor)

  00000	8b 49 04	 mov	 ecx, DWORD PTR [ecx+4]
  00003	85 c9		 test	 ecx, ecx
  00005	0f 84 a3 00 00
	00		 je	 $LN37@GetLevel

; 127  : 	{
; 128  : 		DWORD mount = m_pkActor->GetRace();

  0000b	e8 00 00 00 00	 call	 ?GetRace@CActorInstance@@QAEKXZ ; CActorInstance::GetRace
  00010	8b d0		 mov	 edx, eax

; 129  : 		switch (mount)

  00012	8d 82 7b b1 ff
	ff		 lea	 eax, DWORD PTR [edx-20101]
  00018	83 f8 79	 cmp	 eax, 121		; 00000079H
  0001b	77 14		 ja	 SHORT $LN2@GetLevel
  0001d	0f b6 88 00 00
	00 00		 movzx	 ecx, BYTE PTR $LN41@GetLevel[eax]
  00024	ff 24 8d 00 00
	00 00		 jmp	 DWORD PTR $LN42@GetLevel[ecx*4]
$LN5@GetLevel:

; 130  : 		{
; 131  : 			case 20101:
; 132  : 			case 20102:
; 133  : 			case 20103:
; 134  : 				return 1;

  0002b	b8 01 00 00 00	 mov	 eax, 1

; 185  : }

  00030	c3		 ret	 0
$LN2@GetLevel:

; 135  : 			case 20104:
; 136  : 			case 20105:
; 137  : 			case 20106:
; 138  : 				return 2;
; 139  : 			case 20107:
; 140  : 			case 20108:
; 141  : 			case 20109:
; 142  : 			case 20110: // #0000673: [M2EU]      
; 143  : 			case 20111: // #0000673: [M2EU]      
; 144  : 			case 20112: // #0000673: [M2EU]      
; 145  : 			case 20113: // #0000673: [M2EU]      
; 146  : 			case 20114:
; 147  : 			case 20115:
; 148  : 			case 20116:
; 149  : 			case 20117:
; 150  : 			case 20118:
; 151  : 			case 20120:
; 152  : 			case 20121:
; 153  : 			case 20122:
; 154  : 			case 20123:
; 155  : 			case 20124:
; 156  : 			case 20125:
; 157  : 				return 3;
; 158  : 			case 20119: //    ,  2 
; 159  : 			case 20219: //    ,  2  (=  )
; 160  : 			case 20220:
; 161  : 			case 20221:
; 162  : 			case 20222:
; 163  : 				return 2;
; 164  : 		}
; 165  : 
; 166  : 		//      (20201 ~ 20212    4  , , )
; 167  : 		//	--     /         .. [hyo]
; 168  : 		{
; 169  : 			//   2 ( ,  )
; 170  : 			if ((20205 <= mount &&  20208 >= mount) ||
; 171  : 				(20214 == mount) || (20217 == mount) ||			//  ,  
; 172  : 				(20224 == mount) || (20229 == mount)

  00031	81 fa ed 4e 00
	00		 cmp	 edx, 20205		; 00004eedH
  00037	72 08		 jb	 SHORT $LN36@GetLevel
  00039	81 fa f0 4e 00
	00		 cmp	 edx, 20208		; 00004ef0H
  0003f	76 67		 jbe	 SHORT $LN35@GetLevel
$LN36@GetLevel:
  00041	81 fa f6 4e 00
	00		 cmp	 edx, 20214		; 00004ef6H
  00047	74 5f		 je	 SHORT $LN35@GetLevel
  00049	81 fa f9 4e 00
	00		 cmp	 edx, 20217		; 00004ef9H
  0004f	74 57		 je	 SHORT $LN35@GetLevel
  00051	81 fa 00 4f 00
	00		 cmp	 edx, 20224		; 00004f00H
  00057	74 4f		 je	 SHORT $LN35@GetLevel
  00059	81 fa 05 4f 00
	00		 cmp	 edx, 20229		; 00004f05H
  0005f	74 47		 je	 SHORT $LN35@GetLevel

; 175  : 
; 176  : 			//   3 ( ,  )
; 177  : 			if ((20209 <= mount &&  20212 >= mount) || 
; 178  : 				(20215 == mount) || (20218 == mount) ||			//  ,  
; 179  : 				(20220 == mount) || (20225 == mount) || (20230 == mount)

  00061	81 fa f1 4e 00
	00		 cmp	 edx, 20209		; 00004ef1H
  00067	72 08		 jb	 SHORT $LN39@GetLevel
  00069	81 fa f4 4e 00
	00		 cmp	 edx, 20212		; 00004ef4H
  0006f	76 31		 jbe	 SHORT $LN38@GetLevel
$LN39@GetLevel:
  00071	81 fa f7 4e 00
	00		 cmp	 edx, 20215		; 00004ef7H
  00077	74 29		 je	 SHORT $LN38@GetLevel
  00079	81 fa fa 4e 00
	00		 cmp	 edx, 20218		; 00004efaH
  0007f	74 21		 je	 SHORT $LN38@GetLevel
  00081	81 fa fc 4e 00
	00		 cmp	 edx, 20220		; 00004efcH
  00087	74 19		 je	 SHORT $LN38@GetLevel
  00089	81 fa 01 4f 00
	00		 cmp	 edx, 20225		; 00004f01H
  0008f	74 11		 je	 SHORT $LN38@GetLevel
  00091	33 c0		 xor	 eax, eax
  00093	b9 03 00 00 00	 mov	 ecx, 3
  00098	81 fa 06 4f 00
	00		 cmp	 edx, 20230		; 00004f06H
  0009e	0f 44 c1	 cmove	 eax, ecx

; 185  : }

  000a1	c3		 ret	 0
$LN38@GetLevel:

; 180  : 				)
; 181  : 				return 3;

  000a2	b8 03 00 00 00	 mov	 eax, 3

; 185  : }

  000a7	c3		 ret	 0
$LN35@GetLevel:

; 173  : 				)
; 174  : 				return 2;

  000a8	b8 02 00 00 00	 mov	 eax, 2

; 185  : }

  000ad	c3		 ret	 0
$LN37@GetLevel:

; 182  : 		}
; 183  : 	}
; 184  : 	return 0;

  000ae	33 c0		 xor	 eax, eax

; 185  : }

  000b0	c3		 ret	 0
  000b1	0f 1f 00	 npad	 3
$LN42@GetLevel:
  000b4	00 00 00 00	 DD	 $LN5@GetLevel
  000b8	00 00 00 00	 DD	 $LN35@GetLevel
  000bc	00 00 00 00	 DD	 $LN38@GetLevel
  000c0	00 00 00 00	 DD	 $LN2@GetLevel
$LN41@GetLevel:
  000c4	00		 DB	 0
  000c5	00		 DB	 0
  000c6	00		 DB	 0
  000c7	01		 DB	 1
  000c8	01		 DB	 1
  000c9	01		 DB	 1
  000ca	02		 DB	 2
  000cb	02		 DB	 2
  000cc	02		 DB	 2
  000cd	02		 DB	 2
  000ce	02		 DB	 2
  000cf	02		 DB	 2
  000d0	02		 DB	 2
  000d1	02		 DB	 2
  000d2	02		 DB	 2
  000d3	02		 DB	 2
  000d4	02		 DB	 2
  000d5	02		 DB	 2
  000d6	01		 DB	 1
  000d7	02		 DB	 2
  000d8	02		 DB	 2
  000d9	02		 DB	 2
  000da	02		 DB	 2
  000db	02		 DB	 2
  000dc	02		 DB	 2
  000dd	03		 DB	 3
  000de	03		 DB	 3
  000df	03		 DB	 3
  000e0	03		 DB	 3
  000e1	03		 DB	 3
  000e2	03		 DB	 3
  000e3	03		 DB	 3
  000e4	03		 DB	 3
  000e5	03		 DB	 3
  000e6	03		 DB	 3
  000e7	03		 DB	 3
  000e8	03		 DB	 3
  000e9	03		 DB	 3
  000ea	03		 DB	 3
  000eb	03		 DB	 3
  000ec	03		 DB	 3
  000ed	03		 DB	 3
  000ee	03		 DB	 3
  000ef	03		 DB	 3
  000f0	03		 DB	 3
  000f1	03		 DB	 3
  000f2	03		 DB	 3
  000f3	03		 DB	 3
  000f4	03		 DB	 3
  000f5	03		 DB	 3
  000f6	03		 DB	 3
  000f7	03		 DB	 3
  000f8	03		 DB	 3
  000f9	03		 DB	 3
  000fa	03		 DB	 3
  000fb	03		 DB	 3
  000fc	03		 DB	 3
  000fd	03		 DB	 3
  000fe	03		 DB	 3
  000ff	03		 DB	 3
  00100	03		 DB	 3
  00101	03		 DB	 3
  00102	03		 DB	 3
  00103	03		 DB	 3
  00104	03		 DB	 3
  00105	03		 DB	 3
  00106	03		 DB	 3
  00107	03		 DB	 3
  00108	03		 DB	 3
  00109	03		 DB	 3
  0010a	03		 DB	 3
  0010b	03		 DB	 3
  0010c	03		 DB	 3
  0010d	03		 DB	 3
  0010e	03		 DB	 3
  0010f	03		 DB	 3
  00110	03		 DB	 3
  00111	03		 DB	 3
  00112	03		 DB	 3
  00113	03		 DB	 3
  00114	03		 DB	 3
  00115	03		 DB	 3
  00116	03		 DB	 3
  00117	03		 DB	 3
  00118	03		 DB	 3
  00119	03		 DB	 3
  0011a	03		 DB	 3
  0011b	03		 DB	 3
  0011c	03		 DB	 3
  0011d	03		 DB	 3
  0011e	03		 DB	 3
  0011f	03		 DB	 3
  00120	03		 DB	 3
  00121	03		 DB	 3
  00122	03		 DB	 3
  00123	03		 DB	 3
  00124	03		 DB	 3
  00125	03		 DB	 3
  00126	03		 DB	 3
  00127	03		 DB	 3
  00128	03		 DB	 3
  00129	03		 DB	 3
  0012a	03		 DB	 3
  0012b	03		 DB	 3
  0012c	03		 DB	 3
  0012d	03		 DB	 3
  0012e	03		 DB	 3
  0012f	03		 DB	 3
  00130	03		 DB	 3
  00131	03		 DB	 3
  00132	03		 DB	 3
  00133	03		 DB	 3
  00134	03		 DB	 3
  00135	03		 DB	 3
  00136	03		 DB	 3
  00137	03		 DB	 3
  00138	03		 DB	 3
  00139	03		 DB	 3
  0013a	01		 DB	 1
  0013b	01		 DB	 1
  0013c	01		 DB	 1
  0013d	01		 DB	 1
?GetLevel@SHORSE@CInstanceBase@@QAEIXZ ENDP		; CInstanceBase::SHORSE::GetLevel
_TEXT	ENDS
; Function compile flags: /Ogtp
; File D:\_m2work\Server Client TMP4\ClientVS22\source\UserInterface\InstanceBase.cpp
;	COMDAT ?IsNewMount@SHORSE@CInstanceBase@@QAE_NXZ
_TEXT	SEGMENT
?IsNewMount@SHORSE@CInstanceBase@@QAE_NXZ PROC		; CInstanceBase::SHORSE::IsNewMount, COMDAT
; _this$ = ecx

; 189  : 	if (!m_pkActor)

  00000	8b 49 04	 mov	 ecx, DWORD PTR [ecx+4]
  00003	85 c9		 test	 ecx, ecx
  00005	75 03		 jne	 SHORT $LN2@IsNewMount
$LN10@IsNewMount:

; 201  : 		(20220 == mount)
; 202  : 		)
; 203  : 		return true;
; 204  : 
; 205  : 	return false;
; 206  : }

  00007	32 c0		 xor	 al, al
  00009	c3		 ret	 0
$LN2@IsNewMount:

; 190  : 		return false;
; 191  : 	DWORD mount = m_pkActor->GetRace();

  0000a	e8 00 00 00 00	 call	 ?GetRace@CActorInstance@@QAEKXZ ; CActorInstance::GetRace

; 192  : 
; 193  : 	if ((20205 <= mount &&  20208 >= mount) ||
; 194  : 		(20214 == mount) || (20217 == mount)			//  ,  

  0000f	3d ed 4e 00 00	 cmp	 eax, 20205		; 00004eedH
  00014	72 07		 jb	 SHORT $LN5@IsNewMount
  00016	3d f0 4e 00 00	 cmp	 eax, 20208		; 00004ef0H
  0001b	76 31		 jbe	 SHORT $LN4@IsNewMount
$LN5@IsNewMount:
  0001d	3d f6 4e 00 00	 cmp	 eax, 20214		; 00004ef6H
  00022	74 2a		 je	 SHORT $LN4@IsNewMount
  00024	3d f9 4e 00 00	 cmp	 eax, 20217		; 00004ef9H
  00029	74 23		 je	 SHORT $LN4@IsNewMount

; 197  : 
; 198  : 	//  
; 199  : 	if ((20209 <= mount &&  20212 >= mount) || 
; 200  : 		(20215 == mount) || (20218 == mount) ||			//  ,  

  0002b	3d f1 4e 00 00	 cmp	 eax, 20209		; 00004ef1H
  00030	72 07		 jb	 SHORT $LN8@IsNewMount
  00032	3d f4 4e 00 00	 cmp	 eax, 20212		; 00004ef4H
  00037	76 15		 jbe	 SHORT $LN4@IsNewMount
$LN8@IsNewMount:
  00039	3d f7 4e 00 00	 cmp	 eax, 20215		; 00004ef7H
  0003e	74 0e		 je	 SHORT $LN4@IsNewMount
  00040	3d fa 4e 00 00	 cmp	 eax, 20218		; 00004efaH
  00045	74 07		 je	 SHORT $LN4@IsNewMount
  00047	3d fc 4e 00 00	 cmp	 eax, 20220		; 00004efcH
  0004c	75 b9		 jne	 SHORT $LN10@IsNewMount
$LN4@IsNewMount:

; 195  : 		)
; 196  : 		return true;

  0004e	b0 01		 mov	 al, 1

; 201  : 		(20220 == mount)
; 202  : 		)
; 203  : 		return true;
; 204  : 
; 205  : 	return false;
; 206  : }

  00050	c3		 ret	 0
?IsNewMount@SHORSE@CInstanceBase@@QAE_NXZ ENDP		; CInstanceBase::SHORSE::IsNewMount
_TEXT	ENDS
; Function compile flags: /Ogtp
; File D:\_m2work\Server Client TMP4\ClientVS22\source\UserInterface\InstanceBase.cpp
;	COMDAT ?CanUseSkill@SHORSE@CInstanceBase@@QAE_NXZ
_TEXT	SEGMENT
?CanUseSkill@SHORSE@CInstanceBase@@QAE_NXZ PROC		; CInstanceBase::SHORSE::CanUseSkill, COMDAT
; _this$ = ecx

; 209  : 	//    3  .
; 210  : 	if (IsMounting())

  00000	e8 00 00 00 00	 call	 ?IsMounting@SHORSE@CInstanceBase@@QAE_NXZ ; CInstanceBase::SHORSE::IsMounting
  00005	84 c0		 test	 al, al
  00007	74 0c		 je	 SHORT $LN2@CanUseSkil

; 211  : 		return 2 < GetLevel();

  00009	e8 00 00 00 00	 call	 ?GetLevel@SHORSE@CInstanceBase@@QAEIXZ ; CInstanceBase::SHORSE::GetLevel
  0000e	83 f8 02	 cmp	 eax, 2
  00011	0f 97 c0	 seta	 al

; 214  : }

  00014	c3		 ret	 0
$LN2@CanUseSkil:

; 212  : 
; 213  : 	return true;

  00015	b0 01		 mov	 al, 1

; 214  : }

  00017	c3		 ret	 0
?CanUseSkill@SHORSE@CInstanceBase@@QAE_NXZ ENDP		; CInstanceBase::SHORSE::CanUseSkill
_TEXT	ENDS
; Function compile flags: /Ogtp
; File D:\_m2work\Server Client TMP4\ClientVS22\source\UserInterface\InstanceBase.cpp
;	COMDAT ?CanAttack@SHORSE@CInstanceBase@@QAE_NXZ
_TEXT	SEGMENT
?CanAttack@SHORSE@CInstanceBase@@QAE_NXZ PROC		; CInstanceBase::SHORSE::CanAttack, COMDAT
; _this$ = ecx

; 218  : 	if (IsMounting())

  00000	e8 00 00 00 00	 call	 ?IsMounting@SHORSE@CInstanceBase@@QAE_NXZ ; CInstanceBase::SHORSE::IsMounting
  00005	84 c0		 test	 al, al
  00007	74 0c		 je	 SHORT $LN3@CanAttack

; 219  : 		if (GetLevel()<=1)

  00009	e8 00 00 00 00	 call	 ?GetLevel@SHORSE@CInstanceBase@@QAEIXZ ; CInstanceBase::SHORSE::GetLevel
  0000e	83 f8 01	 cmp	 eax, 1
  00011	0f 97 c0	 seta	 al

; 223  : }

  00014	c3		 ret	 0
$LN3@CanAttack:

; 220  : 			return false;
; 221  : 
; 222  : 	return true;

  00015	b0 01		 mov	 al, 1

; 223  : }

  00017	c3		 ret	 0
?CanAttack@SHORSE@CInstanceBase@@QAE_NXZ ENDP		; CInstanceBase::SHORSE::CanAttack
_TEXT	ENDS
; Function compile flags: /Ogtp
; File D:\_m2work\Server Client TMP4\ClientVS22\source\UserInterface\InstanceBase.cpp
;	COMDAT ?IsMounting@SHORSE@CInstanceBase@@QAE_NXZ
_TEXT	SEGMENT
?IsMounting@SHORSE@CInstanceBase@@QAE_NXZ PROC		; CInstanceBase::SHORSE::IsMounting, COMDAT
; _this$ = ecx

; 227  : 	return m_isMounting;

  00000	8a 01		 mov	 al, BYTE PTR [ecx]

; 228  : }

  00002	c3		 ret	 0
?IsMounting@SHORSE@CInstanceBase@@QAE_NXZ ENDP		; CInstanceBase::SHORSE::IsMounting
_TEXT	ENDS
; Function compile flags: /Ogtp
; File D:\_m2work\Server Client TMP4\ClientVS22\source\UserInterface\InstanceBase.cpp
;	COMDAT ?Deform@SHORSE@CInstanceBase@@QAEXXZ
_TEXT	SEGMENT
?Deform@SHORSE@CInstanceBase@@QAEXXZ PROC		; CInstanceBase::SHORSE::Deform, COMDAT
; _this$ = ecx

; 232  : 	if (!IsMounting())

  00000	e8 00 00 00 00	 call	 ?IsMounting@SHORSE@CInstanceBase@@QAE_NXZ ; CInstanceBase::SHORSE::IsMounting
  00005	84 c0		 test	 al, al
  00007	74 0c		 je	 SHORT $LN1@Deform

; 233  : 		return;
; 234  : 
; 235  : 	CActorInstance& rkActor=GetActorRef();

  00009	e8 00 00 00 00	 call	 ?GetActorRef@SHORSE@CInstanceBase@@QAEAAVCActorInstance@@XZ ; CInstanceBase::SHORSE::GetActorRef

; 236  : 	rkActor.INSTANCEBASE_Deform();

  0000e	8b c8		 mov	 ecx, eax
  00010	e9 00 00 00 00	 jmp	 ?INSTANCEBASE_Deform@CActorInstance@@QAEXXZ ; CActorInstance::INSTANCEBASE_Deform
$LN1@Deform:

; 237  : }

  00015	c3		 ret	 0
?Deform@SHORSE@CInstanceBase@@QAEXXZ ENDP		; CInstanceBase::SHORSE::Deform
_TEXT	ENDS
; Function compile flags: /Ogtp
; File D:\_m2work\Server Client TMP4\ClientVS22\source\UserInterface\InstanceBase.cpp
;	COMDAT ?Render@SHORSE@CInstanceBase@@QAEXXZ
_TEXT	SEGMENT
?Render@SHORSE@CInstanceBase@@QAEXXZ PROC		; CInstanceBase::SHORSE::Render, COMDAT
; _this$ = ecx

; 241  : 	if (!IsMounting())

  00000	e8 00 00 00 00	 call	 ?IsMounting@SHORSE@CInstanceBase@@QAE_NXZ ; CInstanceBase::SHORSE::IsMounting
  00005	84 c0		 test	 al, al
  00007	74 0c		 je	 SHORT $LN1@Render

; 242  : 		return;
; 243  : 
; 244  : 	CActorInstance& rkActor=GetActorRef();

  00009	e8 00 00 00 00	 call	 ?GetActorRef@SHORSE@CInstanceBase@@QAEAAVCActorInstance@@XZ ; CInstanceBase::SHORSE::GetActorRef

; 245  : 	rkActor.Render();

  0000e	8b c8		 mov	 ecx, eax
  00010	e9 00 00 00 00	 jmp	 ?Render@CGraphicObjectInstance@@QAE_NXZ ; CGraphicObjectInstance::Render
$LN1@Render:

; 246  : }

  00015	c3		 ret	 0
?Render@SHORSE@CInstanceBase@@QAEXXZ ENDP		; CInstanceBase::SHORSE::Render
_TEXT	ENDS
; Function compile flags: /Ogtp
; File D:\_m2work\Server Client TMP4\ClientVS22\source\UserInterface\InstanceBase.cpp
;	COMDAT ?__AttachHorseSaddle@CInstanceBase@@IAEXXZ
_TEXT	SEGMENT
?__AttachHorseSaddle@CInstanceBase@@IAEXXZ PROC		; CInstanceBase::__AttachHorseSaddle, COMDAT
; _this$ = ecx

; 249  : {

  00000	8b d1		 mov	 edx, ecx

; 250  : 	if (!IsMountingHorse())

  00002	e8 00 00 00 00	 call	 ?IsMountingHorse@CInstanceBase@@QAEHXZ ; CInstanceBase::IsMountingHorse
  00007	85 c0		 test	 eax, eax
  00009	74 18		 je	 SHORT $LN1@AttachHors

; 251  : 		return;
; 252  : 	m_kHorse.m_pkActor->AttachModelInstance(CRaceData::PART_MAIN, "saddle", m_GraphicThingInstance, CRaceData::PART_MAIN);

  0000b	8b 4a 08	 mov	 ecx, DWORD PTR [edx+8]
  0000e	8d 82 d4 01 00
	00		 lea	 eax, DWORD PTR [edx+468]
  00014	6a 00		 push	 0
  00016	50		 push	 eax
  00017	68 00 00 00 00	 push	 OFFSET ??_C@_06PNAKCKLH@saddle@
  0001c	6a 00		 push	 0
  0001e	e8 00 00 00 00	 call	 ?AttachModelInstance@CGraphicThingInstance@@QAEXHPBDAAV1@H@Z ; CGraphicThingInstance::AttachModelInstance
$LN1@AttachHors:

; 253  : }

  00023	c3		 ret	 0
?__AttachHorseSaddle@CInstanceBase@@IAEXXZ ENDP		; CInstanceBase::__AttachHorseSaddle
_TEXT	ENDS
; Function compile flags: /Ogtp
; File D:\_m2work\Server Client TMP4\ClientVS22\source\UserInterface\InstanceBase.cpp
;	COMDAT ?__DetachHorseSaddle@CInstanceBase@@IAEXXZ
_TEXT	SEGMENT
?__DetachHorseSaddle@CInstanceBase@@IAEXXZ PROC		; CInstanceBase::__DetachHorseSaddle, COMDAT
; _this$ = ecx

; 256  : {

  00000	8b d1		 mov	 edx, ecx

; 257  : 	if (!IsMountingHorse())

  00002	e8 00 00 00 00	 call	 ?IsMountingHorse@CInstanceBase@@QAEHXZ ; CInstanceBase::IsMountingHorse
  00007	85 c0		 test	 eax, eax
  00009	74 13		 je	 SHORT $LN1@DetachHors

; 258  : 		return;
; 259  : 	m_kHorse.m_pkActor->DetachModelInstance(CRaceData::PART_MAIN, m_GraphicThingInstance, CRaceData::PART_MAIN);

  0000b	8b 4a 08	 mov	 ecx, DWORD PTR [edx+8]
  0000e	8d 82 d4 01 00
	00		 lea	 eax, DWORD PTR [edx+468]
  00014	6a 00		 push	 0
  00016	50		 push	 eax
  00017	6a 00		 push	 0
  00019	e8 00 00 00 00	 call	 ?DetachModelInstance@CGraphicThingInstance@@QAEXHAAV1@H@Z ; CGraphicThingInstance::DetachModelInstance
$LN1@DetachHors:

; 260  : }

  0001e	c3		 ret	 0
?__DetachHorseSaddle@CInstanceBase@@IAEXXZ ENDP		; CInstanceBase::__DetachHorseSaddle
_TEXT	ENDS
; Function compile flags: /Ogtp
; File D:\_m2work\Server Client TMP4\ClientVS22\source\UserInterface\InstanceBase.cpp
;	COMDAT ?BlockMovement@CInstanceBase@@QAEXXZ
_TEXT	SEGMENT
?BlockMovement@CInstanceBase@@QAEXXZ PROC		; CInstanceBase::BlockMovement, COMDAT
; _this$ = ecx

; 266  : 	m_GraphicThingInstance.BlockMovement();

  00000	81 c1 d4 01 00
	00		 add	 ecx, 468		; 000001d4H
  00006	e9 00 00 00 00	 jmp	 ?BlockMovement@CActorInstance@@QAEXXZ ; CActorInstance::BlockMovement
?BlockMovement@CInstanceBase@@QAEXXZ ENDP		; CInstanceBase::BlockMovement
_TEXT	ENDS
; Function compile flags: /Ogtp
; File D:\_m2work\Server Client TMP4\ClientVS22\source\UserInterface\InstanceBase.cpp
;	COMDAT ?IsBlockObject@CInstanceBase@@QAE_NABVCGraphicObjectInstance@@@Z
_TEXT	SEGMENT
_c_rkBGObj$ = 8						; size = 4
?IsBlockObject@CInstanceBase@@QAE_NABVCGraphicObjectInstance@@@Z PROC ; CInstanceBase::IsBlockObject, COMDAT
; _this$ = ecx

; 270  : {

  00000	55		 push	 ebp
  00001	8b ec		 mov	 ebp, esp

; 271  : 	return m_GraphicThingInstance.IsBlockObject(c_rkBGObj);

  00003	81 c1 d4 01 00
	00		 add	 ecx, 468		; 000001d4H

; 272  : }

  00009	5d		 pop	 ebp

; 271  : 	return m_GraphicThingInstance.IsBlockObject(c_rkBGObj);

  0000a	e9 00 00 00 00	 jmp	 ?IsBlockObject@CActorInstance@@QAE_NABVCGraphicObjectInstance@@@Z ; CActorInstance::IsBlockObject
?IsBlockObject@CInstanceBase@@QAE_NABVCGraphicObjectInstance@@@Z ENDP ; CInstanceBase::IsBlockObject
_TEXT	ENDS
; Function compile flags: /Ogtp
; File D:\_m2work\Server Client TMP4\ClientVS22\source\UserInterface\InstanceBase.cpp
;	COMDAT ?AvoidObject@CInstanceBase@@QAE_NABVCGraphicObjectInstance@@@Z
_TEXT	SEGMENT
_c_rkBGObj$ = 8						; size = 4
?AvoidObject@CInstanceBase@@QAE_NABVCGraphicObjectInstance@@@Z PROC ; CInstanceBase::AvoidObject, COMDAT
; _this$ = ecx

; 275  : {

  00000	55		 push	 ebp
  00001	8b ec		 mov	 ebp, esp

; 276  : 	return m_GraphicThingInstance.AvoidObject(c_rkBGObj);

  00003	81 c1 d4 01 00
	00		 add	 ecx, 468		; 000001d4H

; 277  : }

  00009	5d		 pop	 ebp

; 276  : 	return m_GraphicThingInstance.AvoidObject(c_rkBGObj);

  0000a	e9 00 00 00 00	 jmp	 ?AvoidObject@CActorInstance@@QAE_NABVCGraphicObjectInstance@@@Z ; CActorInstance::AvoidObject
?AvoidObject@CInstanceBase@@QAE_NABVCGraphicObjectInstance@@@Z ENDP ; CInstanceBase::AvoidObject
_TEXT	ENDS
; Function compile flags: /Ogtp
; File D:\_m2work\Server Client TMP4\ClientVS22\source\UserInterface\InstanceBase.cpp
;	COMDAT ?__ArmorVnumToShape@@YA_NHPAK@Z
_TEXT	SEGMENT
_pItemData$ = -4					; size = 4
?__ArmorVnumToShape@@YA_NHPAK@Z PROC			; __ArmorVnumToShape, COMDAT
; _iVnum$ = ecx
; _pdwShape$ = edx

; 282  : {

  00000	55		 push	 ebp
  00001	8b ec		 mov	 ebp, esp
  00003	51		 push	 ecx
  00004	56		 push	 esi
  00005	8b f2		 mov	 esi, edx

; 283  : 	*pdwShape = iVnum;

  00007	89 0e		 mov	 DWORD PTR [esi], ecx

; 284  : 
; 285  : 	/////////////////////////////////////////
; 286  : 
; 287  : 	if (0 == iVnum || 1 == iVnum)

  00009	85 c9		 test	 ecx, ecx
  0000b	74 35		 je	 SHORT $LN3@ArmorVnumT
  0000d	83 f9 01	 cmp	 ecx, 1
  00010	74 30		 je	 SHORT $LN3@ArmorVnumT

; 289  : 
; 290  : 	if (!USE_ARMOR_SPECULAR)

  00012	83 3d 00 00 00
	00 00		 cmp	 DWORD PTR ?USE_ARMOR_SPECULAR@@3HA, 0 ; USE_ARMOR_SPECULAR
  00019	74 27		 je	 SHORT $LN3@ArmorVnumT

; 291  : 		return false;
; 292  : 
; 293  : 	CItemData * pItemData;
; 294  : 	if (!CItemManager::Instance().GetItemDataPointer(iVnum, &pItemData))

  0001b	8d 45 fc	 lea	 eax, DWORD PTR _pItemData$[ebp]
  0001e	50		 push	 eax
  0001f	51		 push	 ecx
  00020	8b 0d 00 00 00
	00		 mov	 ecx, DWORD PTR ?ms_singleton@?$CSingleton@VCItemManager@@@@0PAVCItemManager@@A ; CSingleton<CItemManager>::ms_singleton
  00026	e8 00 00 00 00	 call	 ?GetItemDataPointer@CItemManager@@QAEHKPAPAVCItemData@@@Z ; CItemManager::GetItemDataPointer
  0002b	85 c0		 test	 eax, eax
  0002d	74 13		 je	 SHORT $LN3@ArmorVnumT

; 295  : 		return false;
; 296  : 
; 297  : 	enum
; 298  : 	{
; 299  : 		SHAPE_VALUE_SLOT_INDEX = 3,
; 300  : 	};
; 301  : 
; 302  : 	*pdwShape = pItemData->GetValue(SHAPE_VALUE_SLOT_INDEX);

  0002f	8b 4d fc	 mov	 ecx, DWORD PTR _pItemData$[ebp]
  00032	6a 03		 push	 3
  00034	e8 00 00 00 00	 call	 ?GetValue@CItemData@@QBEJE@Z ; CItemData::GetValue
  00039	89 06		 mov	 DWORD PTR [esi], eax

; 303  : 
; 304  : 	return true;

  0003b	b0 01		 mov	 al, 1
  0003d	5e		 pop	 esi

; 305  : }

  0003e	8b e5		 mov	 esp, ebp
  00040	5d		 pop	 ebp
  00041	c3		 ret	 0
$LN3@ArmorVnumT:

; 288  : 		return false;

  00042	32 c0		 xor	 al, al
  00044	5e		 pop	 esi

; 305  : }

  00045	8b e5		 mov	 esp, ebp
  00047	5d		 pop	 ebp
  00048	c3		 ret	 0
?__ArmorVnumToShape@@YA_NHPAK@Z ENDP			; __ArmorVnumToShape
_TEXT	ENDS
; Function compile flags: /Ogtp
; File D:\_m2work\Server Client TMP4\ClientVS22\source\UserInterface\InstanceBase.cpp
; File D:\_m2work\Server Client TMP4\ClientVS22\source\eterBase\Singleton.h
; File D:\_m2work\Server Client TMP4\ClientVS22\source\UserInterface\InstanceBase.cpp
;	COMDAT ??0CActorInstanceBackground@@QAE@XZ
_TEXT	SEGMENT
??0CActorInstanceBackground@@QAE@XZ PROC		; CActorInstanceBackground::CActorInstanceBackground, COMDAT
; _this$dead$ = ecx
; File D:\_m2work\Server Client TMP4\ClientVS22\source\eterBase\Singleton.h

; 15   : 		ms_singleton = (T*) ((int) this + offset);

  00000	c7 05 00 00 00
	00 00 00 00 00	 mov	 DWORD PTR ?ms_singleton@?$CSingleton@VIBackground@@@@0PAVIBackground@@A, OFFSET ?gs_kActorInstBG@@3VCActorInstanceBackground@@A ; CSingleton<IBackground>::ms_singleton
; File D:\_m2work\Server Client TMP4\ClientVS22\source\UserInterface\InstanceBase.cpp

; 311  : 		CActorInstanceBackground() {}

  0000a	b8 00 00 00 00	 mov	 eax, OFFSET ?gs_kActorInstBG@@3VCActorInstanceBackground@@A
  0000f	c7 05 00 00 00
	00 00 00 00 00	 mov	 DWORD PTR ?gs_kActorInstBG@@3VCActorInstanceBackground@@A, OFFSET ??_7CActorInstanceBackground@@6B@
  00019	c3		 ret	 0
??0CActorInstanceBackground@@QAE@XZ ENDP		; CActorInstanceBackground::CActorInstanceBackground
_TEXT	ENDS
; Function compile flags: /Ogtp
; File D:\_m2work\Server Client TMP4\ClientVS22\source\UserInterface\InstanceBase.cpp
; File D:\_m2work\Server Client TMP4\ClientVS22\source\eterBase\Singleton.h
; File D:\_m2work\Server Client TMP4\ClientVS22\source\UserInterface\InstanceBase.cpp
;	COMDAT ??1CActorInstanceBackground@@UAE@XZ
_TEXT	SEGMENT
??1CActorInstanceBackground@@UAE@XZ PROC		; CActorInstanceBackground::~CActorInstanceBackground, COMDAT
; _this$ = ecx
; File D:\_m2work\Server Client TMP4\ClientVS22\source\eterBase\Singleton.h

; 19   : 	{ 

  00000	c7 01 00 00 00
	00		 mov	 DWORD PTR [ecx], OFFSET ??_7?$CSingleton@VIBackground@@@@6B@

; 20   : 		assert(ms_singleton);
; 21   : 		ms_singleton = 0; 

  00006	c7 05 00 00 00
	00 00 00 00 00	 mov	 DWORD PTR ?ms_singleton@?$CSingleton@VIBackground@@@@0PAVIBackground@@A, 0 ; CSingleton<IBackground>::ms_singleton
; File D:\_m2work\Server Client TMP4\ClientVS22\source\UserInterface\InstanceBase.cpp

; 312  : 		virtual ~CActorInstanceBackground() {}

  00010	c3		 ret	 0
??1CActorInstanceBackground@@UAE@XZ ENDP		; CActorInstanceBackground::~CActorInstanceBackground
_TEXT	ENDS
; Function compile flags: /Ogtp
; File D:\_m2work\Server Client TMP4\ClientVS22\source\UserInterface\InstanceBase.cpp
;	COMDAT ?IsBlock@CActorInstanceBackground@@UAE_NHH@Z
_TEXT	SEGMENT
_x$ = 8							; size = 4
_y$ = 12						; size = 4
?IsBlock@CActorInstanceBackground@@UAE_NHH@Z PROC	; CActorInstanceBackground::IsBlock, COMDAT
; _this$ = ecx

; 314  : 		{

  00000	55		 push	 ebp
  00001	8b ec		 mov	 ebp, esp

; 315  : 			CPythonBackground& rkBG=CPythonBackground::Instance();
; 316  : 			return rkBG.isAttrOn(x, y, CTerrainImpl::ATTRIBUTE_BLOCK);

  00003	8b 0d 00 00 00
	00		 mov	 ecx, DWORD PTR ?ms_singleton@?$CSingleton@VCPythonBackground@@@@0PAVCPythonBackground@@A ; CSingleton<CPythonBackground>::ms_singleton
  00009	6a 01		 push	 1
  0000b	ff 75 0c	 push	 DWORD PTR _y$[ebp]
  0000e	ff 75 08	 push	 DWORD PTR _x$[ebp]
  00011	e8 00 00 00 00	 call	 ?isAttrOn@CMapManager@@QAE_NHHE@Z ; CMapManager::isAttrOn

; 317  : 		}

  00016	5d		 pop	 ebp
  00017	c2 08 00	 ret	 8
?IsBlock@CActorInstanceBackground@@UAE_NHH@Z ENDP	; CActorInstanceBackground::IsBlock
_TEXT	ENDS
; Function compile flags: /Ogtp
; File D:\_m2work\Server Client TMP4\ClientVS22\source\eterBase\Singleton.h
;	COMDAT ??_GCActorInstanceBackground@@UAEPAXI@Z
_TEXT	SEGMENT
___flags$ = 8						; size = 4
??_GCActorInstanceBackground@@UAEPAXI@Z PROC		; CActorInstanceBackground::`scalar deleting destructor', COMDAT
; _this$ = ecx
  00000	55		 push	 ebp
  00001	8b ec		 mov	 ebp, esp
  00003	f6 45 08 01	 test	 BYTE PTR ___flags$[ebp], 1

; 19   : 	{ 

  00007	56		 push	 esi
  00008	8b f1		 mov	 esi, ecx
  0000a	c7 06 00 00 00
	00		 mov	 DWORD PTR [esi], OFFSET ??_7?$CSingleton@VIBackground@@@@6B@

; 20   : 		assert(ms_singleton);
; 21   : 		ms_singleton = 0; 

  00010	c7 05 00 00 00
	00 00 00 00 00	 mov	 DWORD PTR ?ms_singleton@?$CSingleton@VIBackground@@@@0PAVIBackground@@A, 0 ; CSingleton<IBackground>::ms_singleton
  0001a	74 0b		 je	 SHORT $LN18@scalar
  0001c	6a 04		 push	 4
  0001e	56		 push	 esi
  0001f	e8 00 00 00 00	 call	 ??3@YAXPAXI@Z		; operator delete
  00024	83 c4 08	 add	 esp, 8
$LN18@scalar:
  00027	8b c6		 mov	 eax, esi
  00029	5e		 pop	 esi
  0002a	5d		 pop	 ebp
  0002b	c2 04 00	 ret	 4
??_GCActorInstanceBackground@@UAEPAXI@Z ENDP		; CActorInstanceBackground::`scalar deleting destructor'
_TEXT	ENDS
; Function compile flags: /Ogtp
; File D:\_m2work\Server Client TMP4\ClientVS22\source\UserInterface\InstanceBase.cpp
; File D:\_m2work\Server Client TMP4\ClientVS22\source\eterBase\Singleton.h
; File D:\_m2work\Server Client TMP4\ClientVS22\source\UserInterface\InstanceBase.cpp
;	COMDAT ??__Egs_kActorInstBG@@YAXXZ
text$di	SEGMENT
??__Egs_kActorInstBG@@YAXXZ PROC			; `dynamic initializer for 'gs_kActorInstBG'', COMDAT

; 320  : static CActorInstanceBackground gs_kActorInstBG;

  00000	68 00 00 00 00	 push	 OFFSET ??__Fgs_kActorInstBG@@YAXXZ ; `dynamic atexit destructor for 'gs_kActorInstBG''
; File D:\_m2work\Server Client TMP4\ClientVS22\source\eterBase\Singleton.h

; 15   : 		ms_singleton = (T*) ((int) this + offset);

  00005	c7 05 00 00 00
	00 00 00 00 00	 mov	 DWORD PTR ?ms_singleton@?$CSingleton@VIBackground@@@@0PAVIBackground@@A, OFFSET ?gs_kActorInstBG@@3VCActorInstanceBackground@@A ; CSingleton<IBackground>::ms_singleton
; File D:\_m2work\Server Client TMP4\ClientVS22\source\UserInterface\InstanceBase.cpp

; 320  : static CActorInstanceBackground gs_kActorInstBG;

  0000f	e8 00 00 00 00	 call	 _atexit
  00014	59		 pop	 ecx
  00015	c3		 ret	 0
??__Egs_kActorInstBG@@YAXXZ ENDP			; `dynamic initializer for 'gs_kActorInstBG''
text$di	ENDS
; Function compile flags: /Ogtp
; File D:\_m2work\Server Client TMP4\ClientVS22\source\eterBase\Singleton.h
;	COMDAT ??__Fgs_kActorInstBG@@YAXXZ
text$yd	SEGMENT
??__Fgs_kActorInstBG@@YAXXZ PROC			; `dynamic atexit destructor for 'gs_kActorInstBG'', COMDAT

; 19   : 	{ 

  00000	c7 05 00 00 00
	00 00 00 00 00	 mov	 DWORD PTR ?gs_kActorInstBG@@3VCActorInstanceBackground@@A, OFFSET ??_7?$CSingleton@VIBackground@@@@6B@

; 20   : 		assert(ms_singleton);
; 21   : 		ms_singleton = 0; 

  0000a	c7 05 00 00 00
	00 00 00 00 00	 mov	 DWORD PTR ?ms_singleton@?$CSingleton@VIBackground@@@@0PAVIBackground@@A, 0 ; CSingleton<IBackground>::ms_singleton
  00014	c3		 ret	 0
??__Fgs_kActorInstBG@@YAXXZ ENDP			; `dynamic atexit destructor for 'gs_kActorInstBG''
text$yd	ENDS
; Function compile flags: /Ogtp
; File D:\_m2work\Server Client TMP4\ClientVS22\source\UserInterface\InstanceBase.cpp
;	COMDAT ?LessRenderOrder@CInstanceBase@@QAE_NPAV1@@Z
_TEXT	SEGMENT
_pkInst$ = 8						; size = 4
?LessRenderOrder@CInstanceBase@@QAE_NPAV1@@Z PROC	; CInstanceBase::LessRenderOrder, COMDAT
; _this$ = ecx

; 323  : {

  00000	55		 push	 ebp
  00001	8b ec		 mov	 ebp, esp
  00003	53		 push	 ebx
  00004	56		 push	 esi
  00005	57		 push	 edi
  00006	8b f1		 mov	 esi, ecx

; 324  : 	int nMainAlpha=(__GetAlphaValue() < 1.0f) ? 1 : 0;

  00008	e8 00 00 00 00	 call	 ?__GetAlphaValue@CInstanceBase@@IAEMXZ ; CInstanceBase::__GetAlphaValue
  0000d	f3 0f 10 0d 00
	00 00 00	 movss	 xmm1, DWORD PTR __real@3f800000
  00015	33 db		 xor	 ebx, ebx

; 325  : 	int nTestAlpha=(pkInst->__GetAlphaValue() < 1.0f) ? 1 : 0;

  00017	8b 7d 08	 mov	 edi, DWORD PTR _pkInst$[ebp]
  0001a	8b cf		 mov	 ecx, edi
  0001c	0f 2f c8	 comiss	 xmm1, xmm0
  0001f	0f 97 c3	 seta	 bl
  00022	e8 00 00 00 00	 call	 ?__GetAlphaValue@CInstanceBase@@IAEMXZ ; CInstanceBase::__GetAlphaValue
  00027	f3 0f 10 0d 00
	00 00 00	 movss	 xmm1, DWORD PTR __real@3f800000
  0002f	33 c0		 xor	 eax, eax
  00031	0f 2f c8	 comiss	 xmm1, xmm0
  00034	0f 97 c0	 seta	 al

; 326  : 	if (nMainAlpha < nTestAlpha)

  00037	3b d8		 cmp	 ebx, eax
  00039	72 7f		 jb	 SHORT $LN13@LessRender

; 327  : 		return true;
; 328  : 	if (nMainAlpha > nTestAlpha)

  0003b	77 74		 ja	 SHORT $LN10@LessRender

; 329  : 		return false;
; 330  : 
; 331  : 	if (GetRace()<pkInst->GetRace())

  0003d	8b cf		 mov	 ecx, edi
  0003f	e8 00 00 00 00	 call	 ?GetRace@CInstanceBase@@QAEKXZ ; CInstanceBase::GetRace
  00044	8b ce		 mov	 ecx, esi
  00046	8b d0		 mov	 edx, eax
  00048	e8 00 00 00 00	 call	 ?GetRace@CInstanceBase@@QAEKXZ ; CInstanceBase::GetRace
  0004d	3b c2		 cmp	 eax, edx
  0004f	72 69		 jb	 SHORT $LN13@LessRender

; 332  : 		return true;
; 333  : 	if (GetRace()>pkInst->GetRace())

  00051	8b cf		 mov	 ecx, edi
  00053	e8 00 00 00 00	 call	 ?GetRace@CInstanceBase@@QAEKXZ ; CInstanceBase::GetRace
  00058	8b ce		 mov	 ecx, esi
  0005a	8b d0		 mov	 edx, eax
  0005c	e8 00 00 00 00	 call	 ?GetRace@CInstanceBase@@QAEKXZ ; CInstanceBase::GetRace
  00061	3b c2		 cmp	 eax, edx
  00063	77 4c		 ja	 SHORT $LN10@LessRender

; 334  : 		return false;
; 335  : 
; 336  : 	if (GetShape()<pkInst->GetShape())

  00065	8b cf		 mov	 ecx, edi
  00067	e8 00 00 00 00	 call	 ?GetShape@CInstanceBase@@QAEKXZ ; CInstanceBase::GetShape
  0006c	8b ce		 mov	 ecx, esi
  0006e	8b d0		 mov	 edx, eax
  00070	e8 00 00 00 00	 call	 ?GetShape@CInstanceBase@@QAEKXZ ; CInstanceBase::GetShape
  00075	3b c2		 cmp	 eax, edx
  00077	72 41		 jb	 SHORT $LN13@LessRender

; 337  : 		return true;
; 338  : 
; 339  : 	if (GetShape()>pkInst->GetShape())

  00079	8b cf		 mov	 ecx, edi
  0007b	e8 00 00 00 00	 call	 ?GetShape@CInstanceBase@@QAEKXZ ; CInstanceBase::GetShape
  00080	8b ce		 mov	 ecx, esi
  00082	8b d0		 mov	 edx, eax
  00084	e8 00 00 00 00	 call	 ?GetShape@CInstanceBase@@QAEKXZ ; CInstanceBase::GetShape
  00089	3b c2		 cmp	 eax, edx
  0008b	77 24		 ja	 SHORT $LN10@LessRender

; 340  : 		return false;
; 341  : 
; 342  : 	UINT uLeftLODLevel=__LessRenderOrder_GetLODLevel();

  0008d	e8 00 00 00 00	 call	 ?__LessRenderOrder_GetLODLevel@CInstanceBase@@IAEIXZ ; CInstanceBase::__LessRenderOrder_GetLODLevel

; 343  : 	UINT uRightLODLevel=pkInst->__LessRenderOrder_GetLODLevel();

  00092	8b cf		 mov	 ecx, edi
  00094	8b d8		 mov	 ebx, eax
  00096	e8 00 00 00 00	 call	 ?__LessRenderOrder_GetLODLevel@CInstanceBase@@IAEIXZ ; CInstanceBase::__LessRenderOrder_GetLODLevel

; 344  : 	if (uLeftLODLevel<uRightLODLevel)

  0009b	3b d8		 cmp	 ebx, eax
  0009d	72 1b		 jb	 SHORT $LN13@LessRender

; 345  : 		return true;
; 346  : 	if (uLeftLODLevel>uRightLODLevel)

  0009f	77 10		 ja	 SHORT $LN10@LessRender

; 347  : 		return false;
; 348  : 
; 349  : 	if (m_awPart[CRaceData::PART_WEAPON]<pkInst->m_awPart[CRaceData::PART_WEAPON])

  000a1	8b 46 2c	 mov	 eax, DWORD PTR [esi+44]
  000a4	3b 47 2c	 cmp	 eax, DWORD PTR [edi+44]
  000a7	5f		 pop	 edi

; 350  : 		return true;
; 351  : 
; 352  : 	return false;
; 353  : }

  000a8	5e		 pop	 esi
  000a9	0f 92 c0	 setb	 al
  000ac	5b		 pop	 ebx
  000ad	5d		 pop	 ebp
  000ae	c2 04 00	 ret	 4
$LN10@LessRender:
  000b1	5f		 pop	 edi
  000b2	5e		 pop	 esi
  000b3	32 c0		 xor	 al, al
  000b5	5b		 pop	 ebx
  000b6	5d		 pop	 ebp
  000b7	c2 04 00	 ret	 4
$LN13@LessRender:
  000ba	5f		 pop	 edi
  000bb	5e		 pop	 esi
  000bc	b0 01		 mov	 al, 1
  000be	5b		 pop	 ebx
  000bf	5d		 pop	 ebp
  000c0	c2 04 00	 ret	 4
?LessRenderOrder@CInstanceBase@@QAE_NPAV1@@Z ENDP	; CInstanceBase::LessRenderOrder
_TEXT	ENDS
; Function compile flags: /Ogtp
; File D:\_m2work\Server Client TMP4\ClientVS22\source\UserInterface\InstanceBase.cpp
;	COMDAT ?__LessRenderOrder_GetLODLevel@CInstanceBase@@IAEIXZ
_TEXT	SEGMENT
?__LessRenderOrder_GetLODLevel@CInstanceBase@@IAEIXZ PROC ; CInstanceBase::__LessRenderOrder_GetLODLevel, COMDAT
; _this$ = ecx

; 357  : 	CGrannyLODController* pLODCtrl=m_GraphicThingInstance.GetLODControllerPointer(0);

  00000	6a 00		 push	 0
  00002	81 c1 d4 01 00
	00		 add	 ecx, 468		; 000001d4H
  00008	e8 00 00 00 00	 call	 ?GetLODControllerPointer@CGraphicThingInstance@@QAEPAVCGrannyLODController@@K@Z ; CGraphicThingInstance::GetLODControllerPointer

; 358  : 	if (!pLODCtrl)

  0000d	85 c0		 test	 eax, eax
  0000f	75 01		 jne	 SHORT $LN2@LessRender

; 362  : }

  00011	c3		 ret	 0
$LN2@LessRender:

; 359  : 		return 0;
; 360  : 
; 361  : 	return pLODCtrl->GetLODLevel();

  00012	0f b6 40 1c	 movzx	 eax, BYTE PTR [eax+28]

; 362  : }

  00016	c3		 ret	 0
?__LessRenderOrder_GetLODLevel@CInstanceBase@@IAEIXZ ENDP ; CInstanceBase::__LessRenderOrder_GetLODLevel
_TEXT	ENDS
; Function compile flags: /Ogtp
; File D:\_m2work\Server Client TMP4\ClientVS22\source\UserInterface\InstanceBase.cpp
;	COMDAT ?__Background_GetWaterHeight@CInstanceBase@@QAE_NABUD3DXVECTOR3@@PAM@Z
_TEXT	SEGMENT
_c_rkPPos$ = 8						; size = 4
_lHeight$ = 8						; size = 4
_pfHeight$ = 12						; size = 4
?__Background_GetWaterHeight@CInstanceBase@@QAE_NABUD3DXVECTOR3@@PAM@Z PROC ; CInstanceBase::__Background_GetWaterHeight, COMDAT
; _this$dead$ = ecx

; 365  : {

  00000	55		 push	 ebp
  00001	8b ec		 mov	 ebp, esp

; 366  : 	long lHeight;
; 367  : 	if (!CPythonBackground::Instance().GetWaterHeight(int(c_rkPPos.x), int(c_rkPPos.y), &lHeight))

  00003	8b 45 08	 mov	 eax, DWORD PTR _c_rkPPos$[ebp]
  00006	8d 4d 08	 lea	 ecx, DWORD PTR _lHeight$[ebp]
  00009	51		 push	 ecx
  0000a	8b 0d 00 00 00
	00		 mov	 ecx, DWORD PTR ?ms_singleton@?$CSingleton@VCPythonBackground@@@@0PAVCPythonBackground@@A ; CSingleton<CPythonBackground>::ms_singleton
  00010	f3 0f 2c 50 04	 cvttss2si edx, DWORD PTR [eax+4]
  00015	f3 0f 2c 00	 cvttss2si eax, DWORD PTR [eax]
  00019	52		 push	 edx
  0001a	50		 push	 eax
  0001b	e8 00 00 00 00	 call	 ?GetWaterHeight@CMapManager@@QAE_NHHPAJ@Z ; CMapManager::GetWaterHeight
  00020	84 c0		 test	 al, al
  00022	75 04		 jne	 SHORT $LN2@Background

; 373  : }

  00024	5d		 pop	 ebp
  00025	c2 08 00	 ret	 8
$LN2@Background:
  00028	66 0f 6e 45 08	 movd	 xmm0, DWORD PTR _lHeight$[ebp]

; 368  : 		return false;
; 369  : 
; 370  : 	*pfHeight = float(lHeight);

  0002d	8b 45 0c	 mov	 eax, DWORD PTR _pfHeight$[ebp]
  00030	0f 5b c0	 cvtdq2ps xmm0, xmm0
  00033	f3 0f 11 00	 movss	 DWORD PTR [eax], xmm0

; 371  : 
; 372  : 	return true;

  00037	b0 01		 mov	 al, 1

; 373  : }

  00039	5d		 pop	 ebp
  0003a	c2 08 00	 ret	 8
?__Background_GetWaterHeight@CInstanceBase@@QAE_NABUD3DXVECTOR3@@PAM@Z ENDP ; CInstanceBase::__Background_GetWaterHeight
_TEXT	ENDS
; Function compile flags: /Ogtp
; File D:\_m2work\Server Client TMP4\ClientVS22\source\UserInterface\InstanceBase.cpp
;	COMDAT ?__Background_IsWaterPixelPosition@CInstanceBase@@QAE_NABUD3DXVECTOR3@@@Z
_TEXT	SEGMENT
_c_rkPPos$ = 8						; size = 4
?__Background_IsWaterPixelPosition@CInstanceBase@@QAE_NABUD3DXVECTOR3@@@Z PROC ; CInstanceBase::__Background_IsWaterPixelPosition, COMDAT
; _this$dead$ = ecx

; 376  : {

  00000	55		 push	 ebp
  00001	8b ec		 mov	 ebp, esp

; 377  : 	return CPythonBackground::Instance().isAttrOn(c_rkPPos.x, c_rkPPos.y, CTerrainImpl::ATTRIBUTE_WATER);

  00003	8b 45 08	 mov	 eax, DWORD PTR _c_rkPPos$[ebp]
  00006	8b 0d 00 00 00
	00		 mov	 ecx, DWORD PTR ?ms_singleton@?$CSingleton@VCPythonBackground@@@@0PAVCPythonBackground@@A ; CSingleton<CPythonBackground>::ms_singleton
  0000c	6a 02		 push	 2
  0000e	83 ec 08	 sub	 esp, 8
  00011	f3 0f 10 40 04	 movss	 xmm0, DWORD PTR [eax+4]
  00016	f3 0f 10 08	 movss	 xmm1, DWORD PTR [eax]
  0001a	f3 0f 11 44 24
	04		 movss	 DWORD PTR [esp+4], xmm0
  00020	f3 0f 11 0c 24	 movss	 DWORD PTR [esp], xmm1
  00025	e8 00 00 00 00	 call	 ?isAttrOn@CMapManager@@QAE_NMME@Z ; CMapManager::isAttrOn

; 378  : }

  0002a	5d		 pop	 ebp
  0002b	c2 04 00	 ret	 4
?__Background_IsWaterPixelPosition@CInstanceBase@@QAE_NABUD3DXVECTOR3@@@Z ENDP ; CInstanceBase::__Background_IsWaterPixelPosition
_TEXT	ENDS
; Function compile flags: /Ogtp
; File D:\_m2work\Server Client TMP4\ClientVS22\source\UserInterface\InstanceBase.cpp
;	COMDAT ??__E?ms_kPool@CInstanceBase@@2V?$CDynamicPool@VCInstanceBase@@@@A@@YAXXZ
text$di	SEGMENT
??__E?ms_kPool@CInstanceBase@@2V?$CDynamicPool@VCInstanceBase@@@@A@@YAXXZ PROC ; `dynamic initializer for 'CInstanceBase::ms_kPool'', COMDAT

; 387  : CDynamicPool<CInstanceBase> CInstanceBase::ms_kPool;

  00000	68 00 00 00 00	 push	 OFFSET ??__F?ms_kPool@CInstanceBase@@2V?$CDynamicPool@VCInstanceBase@@@@A@@YAXXZ ; `dynamic atexit destructor for 'CInstanceBase::ms_kPool''
  00005	e8 00 00 00 00	 call	 _atexit
  0000a	59		 pop	 ecx
  0000b	c3		 ret	 0
??__E?ms_kPool@CInstanceBase@@2V?$CDynamicPool@VCInstanceBase@@@@A@@YAXXZ ENDP ; `dynamic initializer for 'CInstanceBase::ms_kPool''
text$di	ENDS
; Function compile flags: /Ogtp
; File D:\_m2work\Server Client TMP4\ClientVS22\source\eterLib\Pool.h
;	COMDAT ??__F?ms_kPool@CInstanceBase@@2V?$CDynamicPool@VCInstanceBase@@@@A@@YAXXZ
text$yd	SEGMENT
??__F?ms_kPool@CInstanceBase@@2V?$CDynamicPool@VCInstanceBase@@@@A@@YAXXZ PROC ; `dynamic atexit destructor for 'CInstanceBase::ms_kPool'', COMDAT

; 26   : 		}

  00000	b9 10 00 00 00	 mov	 ecx, OFFSET ?ms_kPool@CInstanceBase@@2V?$CDynamicPool@VCInstanceBase@@@@A+16
  00005	c7 05 00 00 00
	00 00 00 00 00	 mov	 DWORD PTR ?ms_kPool@CInstanceBase@@2V?$CDynamicPool@VCInstanceBase@@@@A, OFFSET ??_7?$CDynamicPool@VCInstanceBase@@@@6B@
  0000f	e8 00 00 00 00	 call	 ??1?$vector@PAVCInstanceBase@@V?$allocator@PAVCInstanceBase@@@std@@@std@@QAE@XZ ; std::vector<CInstanceBase *,std::allocator<CInstanceBase *> >::~vector<CInstanceBase *,std::allocator<CInstanceBase *> >
  00014	b9 04 00 00 00	 mov	 ecx, OFFSET ?ms_kPool@CInstanceBase@@2V?$CDynamicPool@VCInstanceBase@@@@A+4
  00019	e9 00 00 00 00	 jmp	 ??1?$vector@PAVCInstanceBase@@V?$allocator@PAVCInstanceBase@@@std@@@std@@QAE@XZ ; std::vector<CInstanceBase *,std::allocator<CInstanceBase *> >::~vector<CInstanceBase *,std::allocator<CInstanceBase *> >
??__F?ms_kPool@CInstanceBase@@2V?$CDynamicPool@VCInstanceBase@@@@A@@YAXXZ ENDP ; `dynamic atexit destructor for 'CInstanceBase::ms_kPool''
text$yd	ENDS
; Function compile flags: /Ogtp
; File D:\_m2work\Server Client TMP4\ClientVS22\source\UserInterface\InstanceBase.cpp
;	COMDAT ?__IsInDustRange@CInstanceBase@@IAE_NXZ
_TEXT	SEGMENT
_fDistance$1$ = -4					; size = 4
?__IsInDustRange@CInstanceBase@@IAE_NXZ PROC		; CInstanceBase::__IsInDustRange, COMDAT
; _this$ = ecx

; 390  : {

  00000	55		 push	 ebp
  00001	8b ec		 mov	 ebp, esp
  00003	51		 push	 ecx
  00004	56		 push	 esi
  00005	8b f1		 mov	 esi, ecx

; 391  : 	if (!__IsExistMainInstance())

  00007	e8 00 00 00 00	 call	 ?__IsExistMainInstance@CInstanceBase@@IAE_NXZ ; CInstanceBase::__IsExistMainInstance
  0000c	84 c0		 test	 al, al
  0000e	74 49		 je	 SHORT $LN5@IsInDustRa

; 392  : 		return false;
; 393  : 
; 394  : 	CInstanceBase* pkInstMain=__GetMainInstancePtr();

  00010	e8 00 00 00 00	 call	 ?__GetMainInstancePtr@CInstanceBase@@IAEPAV1@XZ ; CInstanceBase::__GetMainInstancePtr

; 395  : 
; 396  : 	float fDistance=NEW_GetDistanceFromDestInstance(*pkInstMain);

  00015	50		 push	 eax
  00016	8b ce		 mov	 ecx, esi
  00018	e8 00 00 00 00	 call	 ?NEW_GetDistanceFromDestInstance@CInstanceBase@@QAEMAAV1@@Z ; CInstanceBase::NEW_GetDistanceFromDestInstance

; 397  : 
; 398  : 	if (IsPC())

  0001d	8b ce		 mov	 ecx, esi
  0001f	f3 0f 11 45 fc	 movss	 DWORD PTR _fDistance$1$[ebp], xmm0
  00024	e8 00 00 00 00	 call	 ?IsPC@CInstanceBase@@QAEHXZ ; CInstanceBase::IsPC
  00029	f3 0f 10 55 fc	 movss	 xmm2, DWORD PTR _fDistance$1$[ebp]
  0002e	85 c0		 test	 eax, eax
  00030	74 14		 je	 SHORT $LN4@IsInDustRa

; 399  : 	{
; 400  : 		if (fDistance<=PC_DUST_RANGE)

  00032	f3 0f 10 0d 00
	00 00 00	 movss	 xmm1, DWORD PTR __real@44fa0000
  0003a	0f 2f ca	 comiss	 xmm1, xmm2
  0003d	72 07		 jb	 SHORT $LN4@IsInDustRa

; 405  : 		return true;

  0003f	b0 01		 mov	 al, 1
  00041	5e		 pop	 esi

; 408  : }

  00042	8b e5		 mov	 esp, ebp
  00044	5d		 pop	 ebp
  00045	c3		 ret	 0
$LN4@IsInDustRa:

; 401  : 			return true;
; 402  : 	}
; 403  : 
; 404  : 	if (fDistance<=NPC_DUST_RANGE)

  00046	f3 0f 10 05 00
	00 00 00	 movss	 xmm0, DWORD PTR __real@447a0000
  0004e	0f 2f c2	 comiss	 xmm0, xmm2
  00051	5e		 pop	 esi
  00052	0f 93 c0	 setae	 al

; 408  : }

  00055	8b e5		 mov	 esp, ebp
  00057	5d		 pop	 ebp
  00058	c3		 ret	 0
$LN5@IsInDustRa:

; 406  : 
; 407  : 	return false;

  00059	32 c0		 xor	 al, al
  0005b	5e		 pop	 esi

; 408  : }

  0005c	8b e5		 mov	 esp, ebp
  0005e	5d		 pop	 ebp
  0005f	c3		 ret	 0
?__IsInDustRange@CInstanceBase@@IAE_NXZ ENDP		; CInstanceBase::__IsInDustRange
_TEXT	ENDS
; Function compile flags: /Ogtp
; File D:\_m2work\Server Client TMP4\ClientVS22\source\UserInterface\InstanceBase.cpp
;	COMDAT ?__EnableSkipCollision@CInstanceBase@@IAEXXZ
_TEXT	SEGMENT
?__EnableSkipCollision@CInstanceBase@@IAEXXZ PROC	; CInstanceBase::__EnableSkipCollision, COMDAT
; _this$ = ecx

; 411  : {

  00000	56		 push	 esi
  00001	8b f1		 mov	 esi, ecx

; 412  : 	if (__IsMainInstance())

  00003	e8 00 00 00 00	 call	 ?__IsMainInstance@CInstanceBase@@IAE_NXZ ; CInstanceBase::__IsMainInstance
  00008	84 c0		 test	 al, al
  0000a	74 0f		 je	 SHORT $LN2@EnableSkip

; 413  : 	{
; 414  : 		TraceError("CInstanceBase::__EnableSkipCollision -    !!");

  0000c	68 00 00 00 00	 push	 OFFSET ??_C@_0EL@PHAIMNFF@CInstanceBase?3?3__EnableSkipColl@
  00011	e8 00 00 00 00	 call	 ?TraceError@@YAXPBDZZ	; TraceError
  00016	83 c4 04	 add	 esp, 4
  00019	5e		 pop	 esi

; 418  : }

  0001a	c3		 ret	 0
$LN2@EnableSkip:

; 415  : 		return;
; 416  : 	}
; 417  : 	m_GraphicThingInstance.EnableSkipCollision();

  0001b	8d 8e d4 01 00
	00		 lea	 ecx, DWORD PTR [esi+468]
  00021	5e		 pop	 esi
  00022	e9 00 00 00 00	 jmp	 ?EnableSkipCollision@CActorInstance@@QAEXXZ ; CActorInstance::EnableSkipCollision
?__EnableSkipCollision@CInstanceBase@@IAEXXZ ENDP	; CInstanceBase::__EnableSkipCollision
_TEXT	ENDS
; Function compile flags: /Ogtp
; File D:\_m2work\Server Client TMP4\ClientVS22\source\UserInterface\InstanceBase.cpp
;	COMDAT ?__DisableSkipCollision@CInstanceBase@@IAEXXZ
_TEXT	SEGMENT
?__DisableSkipCollision@CInstanceBase@@IAEXXZ PROC	; CInstanceBase::__DisableSkipCollision, COMDAT
; _this$ = ecx

; 422  : 	m_GraphicThingInstance.DisableSkipCollision();

  00000	81 c1 d4 01 00
	00		 add	 ecx, 468		; 000001d4H
  00006	e9 00 00 00 00	 jmp	 ?DisableSkipCollision@CActorInstance@@QAEXXZ ; CActorInstance::DisableSkipCollision
?__DisableSkipCollision@CInstanceBase@@IAEXXZ ENDP	; CInstanceBase::__DisableSkipCollision
_TEXT	ENDS
; Function compile flags: /Ogtp
; File D:\_m2work\Server Client TMP4\ClientVS22\source\UserInterface\InstanceBase.cpp
;	COMDAT ?__GetShadowMapColor@CInstanceBase@@KAKMM@Z
_TEXT	SEGMENT
?__GetShadowMapColor@CInstanceBase@@KAKMM@Z PROC	; CInstanceBase::__GetShadowMapColor, COMDAT
; _x$ = xmm0s
; _y$ = xmm1s

; 427  : 	CPythonBackground& rkBG=CPythonBackground::Instance();
; 428  : 	return rkBG.GetShadowMapColor(x, y);

  00000	8b 0d 00 00 00
	00		 mov	 ecx, DWORD PTR ?ms_singleton@?$CSingleton@VCPythonBackground@@@@0PAVCPythonBackground@@A ; CSingleton<CPythonBackground>::ms_singleton
  00006	83 ec 08	 sub	 esp, 8
  00009	f3 0f 11 4c 24
	04		 movss	 DWORD PTR [esp+4], xmm1
  0000f	f3 0f 11 04 24	 movss	 DWORD PTR [esp], xmm0
  00014	e8 00 00 00 00	 call	 ?GetShadowMapColor@CMapManager@@QAEKMM@Z ; CMapManager::GetShadowMapColor

; 429  : }

  00019	c3		 ret	 0
?__GetShadowMapColor@CInstanceBase@@KAKMM@Z ENDP	; CInstanceBase::__GetShadowMapColor
_TEXT	ENDS
; Function compile flags: /Ogtp
; File D:\_m2work\Server Client TMP4\ClientVS22\source\UserInterface\InstanceBase.cpp
;	COMDAT ?__GetBackgroundHeight@CInstanceBase@@KAMMM@Z
_TEXT	SEGMENT
tv74 = -4						; size = 4
?__GetBackgroundHeight@CInstanceBase@@KAMMM@Z PROC	; CInstanceBase::__GetBackgroundHeight, COMDAT
; _x$ = xmm0s
; _y$ = xmm1s

; 432  : {

  00000	55		 push	 ebp
  00001	8b ec		 mov	 ebp, esp
  00003	51		 push	 ecx

; 433  : 	CPythonBackground& rkBG=CPythonBackground::Instance();
; 434  : 	return rkBG.GetHeight(x, y);

  00004	8b 0d 00 00 00
	00		 mov	 ecx, DWORD PTR ?ms_singleton@?$CSingleton@VCPythonBackground@@@@0PAVCPythonBackground@@A ; CSingleton<CPythonBackground>::ms_singleton
  0000a	83 ec 08	 sub	 esp, 8
  0000d	f3 0f 11 4c 24
	04		 movss	 DWORD PTR [esp+4], xmm1
  00013	f3 0f 11 04 24	 movss	 DWORD PTR [esp], xmm0
  00018	e8 00 00 00 00	 call	 ?GetHeight@CMapManager@@QAEMMM@Z ; CMapManager::GetHeight
  0001d	d9 5d fc	 fstp	 DWORD PTR tv74[ebp]
  00020	f3 0f 10 45 fc	 movss	 xmm0, DWORD PTR tv74[ebp]

; 435  : }

  00025	8b e5		 mov	 esp, ebp
  00027	5d		 pop	 ebp
  00028	c3		 ret	 0
?__GetBackgroundHeight@CInstanceBase@@KAMMM@Z ENDP	; CInstanceBase::__GetBackgroundHeight
_TEXT	ENDS
; Function compile flags: /Ogtp
; File D:\_m2work\Server Client TMP4\ClientVS22\source\UserInterface\InstanceBase.cpp
;	COMDAT ?IsInvisibility@CInstanceBase@@QAEHXZ
_TEXT	SEGMENT
?IsInvisibility@CInstanceBase@@QAEHXZ PROC		; CInstanceBase::IsInvisibility, COMDAT
; _this$ = ecx

; 451  : 	if (IsAffect(AFFECT_INVISIBILITY))

  00000	6a 01		 push	 1
  00002	e8 00 00 00 00	 call	 ?IsAffect@CInstanceBase@@QAE_NI@Z ; CInstanceBase::IsAffect
  00007	33 c9		 xor	 ecx, ecx
  00009	84 c0		 test	 al, al
  0000b	0f 95 c1	 setne	 cl

; 452  : 		return true;

  0000e	8b c1		 mov	 eax, ecx

; 453  : 
; 454  : 	return false;
; 455  : }

  00010	c3		 ret	 0
?IsInvisibility@CInstanceBase@@QAEHXZ ENDP		; CInstanceBase::IsInvisibility
_TEXT	ENDS
; Function compile flags: /Ogtp
; File D:\_m2work\Server Client TMP4\ClientVS22\source\UserInterface\InstanceBase.cpp
;	COMDAT ?IsGameMaster@CInstanceBase@@QAEHXZ
_TEXT	SEGMENT
?IsGameMaster@CInstanceBase@@QAEHXZ PROC		; CInstanceBase::IsGameMaster, COMDAT
; _this$ = ecx

; 464  : 	if (m_kAffectFlagContainer.IsSet(AFFECT_YMIR))

  00000	6a 00		 push	 0
  00002	83 c1 48	 add	 ecx, 72			; 00000048H
  00005	e8 00 00 00 00	 call	 ?IsSet@CAffectFlagContainer@@QBE_NI@Z ; CAffectFlagContainer::IsSet
  0000a	33 c9		 xor	 ecx, ecx
  0000c	84 c0		 test	 al, al
  0000e	0f 95 c1	 setne	 cl

; 465  : 		return true;

  00011	8b c1		 mov	 eax, ecx

; 466  : 	return false;
; 467  : }

  00013	c3		 ret	 0
?IsGameMaster@CInstanceBase@@QAEHXZ ENDP		; CInstanceBase::IsGameMaster
_TEXT	ENDS
; Function compile flags: /Ogtp
; File D:\_m2work\Server Client TMP4\ClientVS22\source\UserInterface\InstanceBase.cpp
;	COMDAT ?IsSameEmpire@CInstanceBase@@QAEHAAV1@@Z
_TEXT	SEGMENT
_rkInstDst$ = 8						; size = 4
?IsSameEmpire@CInstanceBase@@QAEHAAV1@@Z PROC		; CInstanceBase::IsSameEmpire, COMDAT
; _this$ = ecx

; 471  : {

  00000	55		 push	 ebp
  00001	8b ec		 mov	 ebp, esp
  00003	56		 push	 esi

; 472  : 	if (0 == rkInstDst.m_dwEmpireID)

  00004	8b 75 08	 mov	 esi, DWORD PTR _rkInstDst$[ebp]
  00007	57		 push	 edi
  00008	8b f9		 mov	 edi, ecx
  0000a	83 7e 40 00	 cmp	 DWORD PTR [esi+64], 0
  0000e	74 23		 je	 SHORT $LN7@IsSameEmpi

; 473  : 		return TRUE;
; 474  : 
; 475  : 	if (IsGameMaster())

  00010	e8 00 00 00 00	 call	 ?IsGameMaster@CInstanceBase@@QAEHXZ ; CInstanceBase::IsGameMaster
  00015	85 c0		 test	 eax, eax
  00017	75 1a		 jne	 SHORT $LN7@IsSameEmpi

; 476  : 		return TRUE;
; 477  : 
; 478  : 	if (rkInstDst.IsGameMaster())

  00019	8b ce		 mov	 ecx, esi
  0001b	e8 00 00 00 00	 call	 ?IsGameMaster@CInstanceBase@@QAEHXZ ; CInstanceBase::IsGameMaster
  00020	85 c0		 test	 eax, eax
  00022	75 0f		 jne	 SHORT $LN7@IsSameEmpi

; 479  : 		return TRUE;
; 480  : 
; 481  : 	if (rkInstDst.m_dwEmpireID==m_dwEmpireID)

  00024	8b 4e 40	 mov	 ecx, DWORD PTR [esi+64]
  00027	3b 4f 40	 cmp	 ecx, DWORD PTR [edi+64]
  0002a	5f		 pop	 edi
  0002b	0f 94 c0	 sete	 al

; 483  : 
; 484  : 	return FALSE;
; 485  : }

  0002e	5e		 pop	 esi
  0002f	5d		 pop	 ebp
  00030	c2 04 00	 ret	 4
$LN7@IsSameEmpi:
  00033	5f		 pop	 edi

; 482  : 		return TRUE;

  00034	b8 01 00 00 00	 mov	 eax, 1

; 483  : 
; 484  : 	return FALSE;
; 485  : }

  00039	5e		 pop	 esi
  0003a	5d		 pop	 ebp
  0003b	c2 04 00	 ret	 4
?IsSameEmpire@CInstanceBase@@QAEHAAV1@@Z ENDP		; CInstanceBase::IsSameEmpire
_TEXT	ENDS
; Function compile flags: /Ogtp
; File D:\_m2work\Server Client TMP4\ClientVS22\source\UserInterface\InstanceBase.cpp
;	COMDAT ?GetEmpireID@CInstanceBase@@QAEKXZ
_TEXT	SEGMENT
?GetEmpireID@CInstanceBase@@QAEKXZ PROC			; CInstanceBase::GetEmpireID, COMDAT
; _this$ = ecx

; 489  : 	return m_dwEmpireID;

  00000	8b 41 40	 mov	 eax, DWORD PTR [ecx+64]

; 490  : }

  00003	c3		 ret	 0
?GetEmpireID@CInstanceBase@@QAEKXZ ENDP			; CInstanceBase::GetEmpireID
_TEXT	ENDS
; Function compile flags: /Ogtp
; File D:\_m2work\Server Client TMP4\ClientVS22\source\UserInterface\InstanceBase.cpp
;	COMDAT ?GetGuildID@CInstanceBase@@QAEKXZ
_TEXT	SEGMENT
?GetGuildID@CInstanceBase@@QAEKXZ PROC			; CInstanceBase::GetGuildID, COMDAT
; _this$ = ecx

; 494  : 	return m_dwGuildID;

  00000	8b 41 44	 mov	 eax, DWORD PTR [ecx+68]

; 495  : }

  00003	c3		 ret	 0
?GetGuildID@CInstanceBase@@QAEKXZ ENDP			; CInstanceBase::GetGuildID
_TEXT	ENDS
; Function compile flags: /Ogtp
; File D:\_m2work\Server Client TMP4\ClientVS22\source\UserInterface\InstanceBase.cpp
;	COMDAT ?GetAlignment@CInstanceBase@@QAEHXZ
_TEXT	SEGMENT
?GetAlignment@CInstanceBase@@QAEHXZ PROC		; CInstanceBase::GetAlignment, COMDAT
; _this$ = ecx

; 499  : 	return m_sAlignment;

  00000	0f bf 81 6c 01
	00 00		 movsx	 eax, WORD PTR [ecx+364]

; 500  : }

  00007	c3		 ret	 0
?GetAlignment@CInstanceBase@@QAEHXZ ENDP		; CInstanceBase::GetAlignment
_TEXT	ENDS
; Function compile flags: /Ogtp
; File D:\_m2work\Server Client TMP4\ClientVS22\source\UserInterface\InstanceBase.cpp
;	COMDAT ?GetAlignmentGrade@CInstanceBase@@QAEIXZ
_TEXT	SEGMENT
?GetAlignmentGrade@CInstanceBase@@QAEIXZ PROC		; CInstanceBase::GetAlignmentGrade, COMDAT
; _this$ = ecx

; 504  : 	if (m_sAlignment >= 12000)

  00000	0f b7 81 6c 01
	00 00		 movzx	 eax, WORD PTR [ecx+364]
  00007	ba e0 2e 00 00	 mov	 edx, 12000		; 00002ee0H
  0000c	8b c8		 mov	 ecx, eax
  0000e	66 3b c2	 cmp	 ax, dx
  00011	7c 03		 jl	 SHORT $LN2@GetAlignme

; 505  : 		return 0;

  00013	33 c0		 xor	 eax, eax

; 519  : 		return 7;
; 520  : 
; 521  : 	return 8;
; 522  : }

  00015	c3		 ret	 0
$LN2@GetAlignme:

; 506  : 	else if (m_sAlignment >= 8000)

  00016	ba 40 1f 00 00	 mov	 edx, 8000		; 00001f40H
  0001b	66 3b c2	 cmp	 ax, dx
  0001e	7c 06		 jl	 SHORT $LN4@GetAlignme

; 507  : 		return 1;

  00020	b8 01 00 00 00	 mov	 eax, 1

; 519  : 		return 7;
; 520  : 
; 521  : 	return 8;
; 522  : }

  00025	c3		 ret	 0
$LN4@GetAlignme:

; 508  : 	else if (m_sAlignment >= 4000)

  00026	ba a0 0f 00 00	 mov	 edx, 4000		; 00000fa0H
  0002b	66 3b c2	 cmp	 ax, dx
  0002e	7c 06		 jl	 SHORT $LN6@GetAlignme

; 509  : 		return 2;

  00030	b8 02 00 00 00	 mov	 eax, 2

; 519  : 		return 7;
; 520  : 
; 521  : 	return 8;
; 522  : }

  00035	c3		 ret	 0
$LN6@GetAlignme:

; 510  : 	else if (m_sAlignment >= 1000)

  00036	ba e8 03 00 00	 mov	 edx, 1000		; 000003e8H
  0003b	66 3b c2	 cmp	 ax, dx
  0003e	7c 06		 jl	 SHORT $LN8@GetAlignme

; 511  : 		return 3;

  00040	b8 03 00 00 00	 mov	 eax, 3

; 519  : 		return 7;
; 520  : 
; 521  : 	return 8;
; 522  : }

  00045	c3		 ret	 0
$LN8@GetAlignme:

; 512  : 	else if (m_sAlignment >= 0)

  00046	66 85 c0	 test	 ax, ax
  00049	78 06		 js	 SHORT $LN10@GetAlignme

; 513  : 		return 4;

  0004b	b8 04 00 00 00	 mov	 eax, 4

; 519  : 		return 7;
; 520  : 
; 521  : 	return 8;
; 522  : }

  00050	c3		 ret	 0
$LN10@GetAlignme:

; 514  : 	else if (m_sAlignment > -4000)

  00051	ba 60 f0 ff ff	 mov	 edx, -4000		; fffff060H
  00056	66 3b c2	 cmp	 ax, dx
  00059	7e 06		 jle	 SHORT $LN12@GetAlignme

; 515  : 		return 5;

  0005b	b8 05 00 00 00	 mov	 eax, 5

; 519  : 		return 7;
; 520  : 
; 521  : 	return 8;
; 522  : }

  00060	c3		 ret	 0
$LN12@GetAlignme:

; 516  : 	else if (m_sAlignment > -8000)

  00061	ba c0 e0 ff ff	 mov	 edx, -8000		; ffffe0c0H
  00066	66 3b c2	 cmp	 ax, dx
  00069	7e 06		 jle	 SHORT $LN14@GetAlignme

; 517  : 		return 6;

  0006b	b8 06 00 00 00	 mov	 eax, 6

; 519  : 		return 7;
; 520  : 
; 521  : 	return 8;
; 522  : }

  00070	c3		 ret	 0
$LN14@GetAlignme:

; 518  : 	else if (m_sAlignment > -12000)

  00071	33 c0		 xor	 eax, eax
  00073	ba 20 d1 ff ff	 mov	 edx, -12000		; ffffd120H
  00078	66 3b ca	 cmp	 cx, dx
  0007b	0f 9e c0	 setle	 al
  0007e	83 c0 07	 add	 eax, 7

; 519  : 		return 7;
; 520  : 
; 521  : 	return 8;
; 522  : }

  00081	c3		 ret	 0
?GetAlignmentGrade@CInstanceBase@@QAEIXZ ENDP		; CInstanceBase::GetAlignmentGrade
_TEXT	ENDS
; Function compile flags: /Ogtp
; File D:\_m2work\Server Client TMP4\ClientVS22\source\UserInterface\InstanceBase.cpp
;	COMDAT ?GetAlignmentType@CInstanceBase@@QAEHXZ
_TEXT	SEGMENT
?GetAlignmentType@CInstanceBase@@QAEHXZ PROC		; CInstanceBase::GetAlignmentType, COMDAT
; _this$ = ecx

; 526  : 	switch (GetAlignmentGrade())

  00000	e8 00 00 00 00	 call	 ?GetAlignmentGrade@CInstanceBase@@QAEIXZ ; CInstanceBase::GetAlignmentGrade
  00005	83 f8 08	 cmp	 eax, 8
  00008	77 17		 ja	 SHORT $LN2@GetAlignme
  0000a	0f b6 80 00 00
	00 00		 movzx	 eax, BYTE PTR $LN13@GetAlignme[eax]
  00011	ff 24 85 00 00
	00 00		 jmp	 DWORD PTR $LN14@GetAlignme[eax*4]
$LN4@GetAlignme:

; 527  : 	{
; 528  : 		case 0:
; 529  : 		case 1:
; 530  : 		case 2:
; 531  : 		case 3:
; 532  : 		{
; 533  : 			return ALIGNMENT_TYPE_WHITE;

  00018	33 c0		 xor	 eax, eax

; 548  : }

  0001a	c3		 ret	 0
$LN8@GetAlignme:

; 534  : 			break;
; 535  : 		}
; 536  : 
; 537  : 		case 5:
; 538  : 		case 6:
; 539  : 		case 7:
; 540  : 		case 8:
; 541  : 		{
; 542  : 			return ALIGNMENT_TYPE_DARK;

  0001b	b8 02 00 00 00	 mov	 eax, 2

; 548  : }

  00020	c3		 ret	 0
$LN2@GetAlignme:

; 543  : 			break;
; 544  : 		}
; 545  : 	}
; 546  : 
; 547  : 	return ALIGNMENT_TYPE_NORMAL;

  00021	b8 01 00 00 00	 mov	 eax, 1

; 548  : }

  00026	c3		 ret	 0
  00027	90		 npad	 1
$LN14@GetAlignme:
  00028	00 00 00 00	 DD	 $LN4@GetAlignme
  0002c	00 00 00 00	 DD	 $LN8@GetAlignme
  00030	00 00 00 00	 DD	 $LN2@GetAlignme
$LN13@GetAlignme:
  00034	00		 DB	 0
  00035	00		 DB	 0
  00036	00		 DB	 0
  00037	00		 DB	 0
  00038	02		 DB	 2
  00039	01		 DB	 1
  0003a	01		 DB	 1
  0003b	01		 DB	 1
  0003c	01		 DB	 1
?GetAlignmentType@CInstanceBase@@QAEHXZ ENDP		; CInstanceBase::GetAlignmentType
_TEXT	ENDS
; Function compile flags: /Ogtp
; File D:\_m2work\Server Client TMP4\ClientVS22\source\UserInterface\InstanceBase.cpp
;	COMDAT ?GetPKMode@CInstanceBase@@QAEEXZ
_TEXT	SEGMENT
?GetPKMode@CInstanceBase@@QAEEXZ PROC			; CInstanceBase::GetPKMode, COMDAT
; _this$ = ecx

; 552  : 	return m_byPKMode;

  00000	8a 81 6e 01 00
	00		 mov	 al, BYTE PTR [ecx+366]

; 553  : }

  00006	c3		 ret	 0
?GetPKMode@CInstanceBase@@QAEEXZ ENDP			; CInstanceBase::GetPKMode
_TEXT	ENDS
; Function compile flags: /Ogtp
; File D:\_m2work\Server Client TMP4\ClientVS22\source\UserInterface\InstanceBase.cpp
;	COMDAT ?IsKiller@CInstanceBase@@QAE_NXZ
_TEXT	SEGMENT
?IsKiller@CInstanceBase@@QAE_NXZ PROC			; CInstanceBase::IsKiller, COMDAT
; _this$ = ecx

; 557  : 	return m_isKiller;

  00000	8a 81 6f 01 00
	00		 mov	 al, BYTE PTR [ecx+367]

; 558  : }

  00006	c3		 ret	 0
?IsKiller@CInstanceBase@@QAE_NXZ ENDP			; CInstanceBase::IsKiller
_TEXT	ENDS
; Function compile flags: /Ogtp
; File D:\_m2work\Server Client TMP4\ClientVS22\source\UserInterface\InstanceBase.cpp
;	COMDAT ?IsPartyMember@CInstanceBase@@QAE_NXZ
_TEXT	SEGMENT
?IsPartyMember@CInstanceBase@@QAE_NXZ PROC		; CInstanceBase::IsPartyMember, COMDAT
; _this$ = ecx

; 562  : 	return m_isPartyMember;

  00000	8a 81 70 01 00
	00		 mov	 al, BYTE PTR [ecx+368]

; 563  : }

  00006	c3		 ret	 0
?IsPartyMember@CInstanceBase@@QAE_NXZ ENDP		; CInstanceBase::IsPartyMember
_TEXT	ENDS
; Function compile flags: /Ogtp
; File D:\_m2work\Server Client TMP4\ClientVS22\source\UserInterface\InstanceBase.cpp
;	COMDAT ?IsInSafe@CInstanceBase@@QAEHXZ
_TEXT	SEGMENT
?IsInSafe@CInstanceBase@@QAEHXZ PROC			; CInstanceBase::IsInSafe, COMDAT
; _this$ = ecx

; 567  : 	const TPixelPosition& c_rkPPosCur=m_GraphicThingInstance.NEW_GetCurPixelPositionRef();

  00000	81 c1 d4 01 00
	00		 add	 ecx, 468		; 000001d4H
  00006	e8 00 00 00 00	 call	 ?NEW_GetCurPixelPositionRef@CActorInstance@@QAEABUD3DXVECTOR3@@XZ ; CActorInstance::NEW_GetCurPixelPositionRef

; 568  : 	if (CPythonBackground::Instance().isAttrOn(c_rkPPosCur.x, c_rkPPosCur.y, CTerrainImpl::ATTRIBUTE_BANPK))

  0000b	8b 0d 00 00 00
	00		 mov	 ecx, DWORD PTR ?ms_singleton@?$CSingleton@VCPythonBackground@@@@0PAVCPythonBackground@@A ; CSingleton<CPythonBackground>::ms_singleton
  00011	6a 04		 push	 4
  00013	83 ec 08	 sub	 esp, 8
  00016	f3 0f 10 40 04	 movss	 xmm0, DWORD PTR [eax+4]
  0001b	f3 0f 10 08	 movss	 xmm1, DWORD PTR [eax]
  0001f	f3 0f 11 44 24
	04		 movss	 DWORD PTR [esp+4], xmm0
  00025	f3 0f 11 0c 24	 movss	 DWORD PTR [esp], xmm1
  0002a	e8 00 00 00 00	 call	 ?isAttrOn@CMapManager@@QAE_NMME@Z ; CMapManager::isAttrOn
  0002f	33 c9		 xor	 ecx, ecx
  00031	84 c0		 test	 al, al
  00033	0f 95 c1	 setne	 cl

; 569  : 		return TRUE;

  00036	8b c1		 mov	 eax, ecx

; 570  : 
; 571  : 	return FALSE;
; 572  : }

  00038	c3		 ret	 0
?IsInSafe@CInstanceBase@@QAEHXZ ENDP			; CInstanceBase::IsInSafe
_TEXT	ENDS
; Function compile flags: /Ogtp
; File D:\_m2work\Server Client TMP4\ClientVS22\source\UserInterface\InstanceBase.cpp
;	COMDAT ?CalculateDistanceSq3d@CInstanceBase@@QAEMABUD3DXVECTOR3@@@Z
_TEXT	SEGMENT
_c_rkPPosDst$ = 8					; size = 4
tv72 = 8						; size = 4
?CalculateDistanceSq3d@CInstanceBase@@QAEMABUD3DXVECTOR3@@@Z PROC ; CInstanceBase::CalculateDistanceSq3d, COMDAT
; _this$ = ecx

; 575  : {

  00000	55		 push	 ebp
  00001	8b ec		 mov	 ebp, esp

; 576  : 	const TPixelPosition& c_rkPPosSrc=m_GraphicThingInstance.NEW_GetCurPixelPositionRef();

  00003	81 c1 d4 01 00
	00		 add	 ecx, 468		; 000001d4H
  00009	e8 00 00 00 00	 call	 ?NEW_GetCurPixelPositionRef@CActorInstance@@QAEABUD3DXVECTOR3@@XZ ; CActorInstance::NEW_GetCurPixelPositionRef

; 577  : 	return SPixelPosition_CalculateDistanceSq3d(c_rkPPosSrc, c_rkPPosDst);

  0000e	ff 75 08	 push	 DWORD PTR _c_rkPPosDst$[ebp]
  00011	50		 push	 eax
  00012	e8 00 00 00 00	 call	 ?SPixelPosition_CalculateDistanceSq3d@@YAMABUD3DXVECTOR3@@0@Z ; SPixelPosition_CalculateDistanceSq3d
  00017	d9 5d 08	 fstp	 DWORD PTR tv72[ebp]
  0001a	f3 0f 10 45 08	 movss	 xmm0, DWORD PTR tv72[ebp]
  0001f	83 c4 08	 add	 esp, 8

; 578  : }

  00022	5d		 pop	 ebp
  00023	c2 04 00	 ret	 4
?CalculateDistanceSq3d@CInstanceBase@@QAEMABUD3DXVECTOR3@@@Z ENDP ; CInstanceBase::CalculateDistanceSq3d
_TEXT	ENDS
; Function compile flags: /Ogtp
; File D:\_m2work\Server Client TMP4\ClientVS22\source\UserInterface\InstanceBase.cpp
;	COMDAT ?OnSelected@CInstanceBase@@QAEXXZ
_TEXT	SEGMENT
?OnSelected@CInstanceBase@@QAEXXZ PROC			; CInstanceBase::OnSelected, COMDAT
; _this$ = ecx

; 581  : {

  00000	56		 push	 esi
  00001	8b f1		 mov	 esi, ecx

; 582  : #ifdef __MOVIE_MODE__
; 583  : 	if (!__IsExistMainInstance())
; 584  : 		return;
; 585  : #endif
; 586  : 
; 587  : 	if (IsStoneDoor())

  00003	e8 00 00 00 00	 call	 ?IsStoneDoor@CInstanceBase@@QAEHXZ ; CInstanceBase::IsStoneDoor
  00008	85 c0		 test	 eax, eax
  0000a	75 13		 jne	 SHORT $LN1@OnSelected

; 588  : 		return;
; 589  : 
; 590  : 	if (IsDead())

  0000c	8b ce		 mov	 ecx, esi
  0000e	e8 00 00 00 00	 call	 ?IsDead@CInstanceBase@@QAEHXZ ; CInstanceBase::IsDead
  00013	85 c0		 test	 eax, eax
  00015	75 08		 jne	 SHORT $LN1@OnSelected

; 591  : 		return;
; 592  : 
; 593  : 	__AttachSelectEffect();

  00017	8b ce		 mov	 ecx, esi

; 594  : }

  00019	5e		 pop	 esi

; 591  : 		return;
; 592  : 
; 593  : 	__AttachSelectEffect();

  0001a	e9 00 00 00 00	 jmp	 ?__AttachSelectEffect@CInstanceBase@@IAEXXZ ; CInstanceBase::__AttachSelectEffect
$LN1@OnSelected:

; 594  : }

  0001f	5e		 pop	 esi
  00020	c3		 ret	 0
?OnSelected@CInstanceBase@@QAEXXZ ENDP			; CInstanceBase::OnSelected
_TEXT	ENDS
; Function compile flags: /Ogtp
; File D:\_m2work\Server Client TMP4\ClientVS22\source\UserInterface\InstanceBase.cpp
;	COMDAT ?OnUnselected@CInstanceBase@@QAEXXZ
_TEXT	SEGMENT
?OnUnselected@CInstanceBase@@QAEXXZ PROC		; CInstanceBase::OnUnselected, COMDAT
; _this$ = ecx

; 598  : 	__DetachSelectEffect();

  00000	e9 00 00 00 00	 jmp	 ?__DetachSelectEffect@CInstanceBase@@IAEXXZ ; CInstanceBase::__DetachSelectEffect
?OnUnselected@CInstanceBase@@QAEXXZ ENDP		; CInstanceBase::OnUnselected
_TEXT	ENDS
; Function compile flags: /Ogtp
; File D:\_m2work\Server Client TMP4\ClientVS22\source\UserInterface\InstanceBase.cpp
;	COMDAT ?OnTargeted@CInstanceBase@@QAEXXZ
_TEXT	SEGMENT
?OnTargeted@CInstanceBase@@QAEXXZ PROC			; CInstanceBase::OnTargeted, COMDAT
; _this$ = ecx

; 602  : {

  00000	56		 push	 esi
  00001	8b f1		 mov	 esi, ecx

; 603  : #ifdef __MOVIE_MODE__
; 604  : 	if (!__IsExistMainInstance())
; 605  : 		return;
; 606  : #endif
; 607  : 
; 608  : 	if (IsStoneDoor())

  00003	e8 00 00 00 00	 call	 ?IsStoneDoor@CInstanceBase@@QAEHXZ ; CInstanceBase::IsStoneDoor
  00008	85 c0		 test	 eax, eax
  0000a	75 13		 jne	 SHORT $LN1@OnTargeted

; 609  : 		return;
; 610  : 
; 611  : 	if (IsDead())

  0000c	8b ce		 mov	 ecx, esi
  0000e	e8 00 00 00 00	 call	 ?IsDead@CInstanceBase@@QAEHXZ ; CInstanceBase::IsDead
  00013	85 c0		 test	 eax, eax
  00015	75 08		 jne	 SHORT $LN1@OnTargeted

; 612  : 		return;
; 613  : 
; 614  : 	__AttachTargetEffect();

  00017	8b ce		 mov	 ecx, esi
  00019	5e		 pop	 esi
  0001a	e9 00 00 00 00	 jmp	 ?__AttachTargetEffect@CInstanceBase@@IAEXXZ ; CInstanceBase::__AttachTargetEffect
$LN1@OnTargeted:
  0001f	5e		 pop	 esi

; 615  : }

  00020	c3		 ret	 0
?OnTargeted@CInstanceBase@@QAEXXZ ENDP			; CInstanceBase::OnTargeted
_TEXT	ENDS
; Function compile flags: /Ogtp
; File D:\_m2work\Server Client TMP4\ClientVS22\source\UserInterface\InstanceBase.cpp
;	COMDAT ?OnUntargeted@CInstanceBase@@QAEXXZ
_TEXT	SEGMENT
?OnUntargeted@CInstanceBase@@QAEXXZ PROC		; CInstanceBase::OnUntargeted, COMDAT
; _this$ = ecx

; 619  : 	__DetachTargetEffect();

  00000	e9 00 00 00 00	 jmp	 ?__DetachTargetEffect@CInstanceBase@@IAEXXZ ; CInstanceBase::__DetachTargetEffect
?OnUntargeted@CInstanceBase@@QAEXXZ ENDP		; CInstanceBase::OnUntargeted
_TEXT	ENDS
; Function compile flags: /Ogtp
; File D:\_m2work\Server Client TMP4\ClientVS22\source\UserInterface\InstanceBase.cpp
; File D:\_m2work\Server Client TMP4\ClientVS22\source\eterLib\Pool.h
; File D:\_m2work\Server Client TMP4\ClientVS22\source\UserInterface\InstanceBase.cpp
; File D:\_m2work\Server Client TMP4\ClientVS22\source\eterLib\Pool.h
; File C:\Program Files\Microsoft Visual Studio\2022\Community\VC\Tools\MSVC\14.44.35207\include\vector
; File D:\_m2work\Server Client TMP4\ClientVS22\source\UserInterface\InstanceBase.cpp
;	COMDAT ?DestroySystem@CInstanceBase@@SAXXZ
_TEXT	SEGMENT
?DestroySystem@CInstanceBase@@SAXXZ PROC		; CInstanceBase::DestroySystem, COMDAT

; 623  : {

  00000	56		 push	 esi
; File D:\_m2work\Server Client TMP4\ClientVS22\source\eterLib\Pool.h

; 50   : 			for (auto v : m_kVct_pkData)

  00001	8b 35 04 00 00
	00		 mov	 esi, DWORD PTR ?ms_kPool@CInstanceBase@@2V?$CDynamicPool@VCInstanceBase@@@@A+4
; File D:\_m2work\Server Client TMP4\ClientVS22\source\UserInterface\InstanceBase.cpp

; 623  : {

  00007	57		 push	 edi
; File D:\_m2work\Server Client TMP4\ClientVS22\source\eterLib\Pool.h

; 50   : 			for (auto v : m_kVct_pkData)

  00008	8b 3d 08 00 00
	00		 mov	 edi, DWORD PTR ?ms_kPool@CInstanceBase@@2V?$CDynamicPool@VCInstanceBase@@@@A+8
  0000e	3b f7		 cmp	 esi, edi
  00010	74 29		 je	 SHORT $LN14@DestroySys
$LL8@DestroySys:

; 111  : 			delete pkData;

  00012	8b 0e		 mov	 ecx, DWORD PTR [esi]
  00014	85 c9		 test	 ecx, ecx
  00016	74 06		 je	 SHORT $LN6@DestroySys
  00018	8b 01		 mov	 eax, DWORD PTR [ecx]
  0001a	6a 01		 push	 1
  0001c	ff 10		 call	 DWORD PTR [eax]
$LN6@DestroySys:

; 50   : 			for (auto v : m_kVct_pkData)

  0001e	83 c6 04	 add	 esi, 4
  00021	3b f7		 cmp	 esi, edi
  00023	75 ed		 jne	 SHORT $LL8@DestroySys
  00025	8b 3d 08 00 00
	00		 mov	 edi, DWORD PTR ?ms_kPool@CInstanceBase@@2V?$CDynamicPool@VCInstanceBase@@@@A+8
  0002b	8b 35 04 00 00
	00		 mov	 esi, DWORD PTR ?ms_kPool@CInstanceBase@@2V?$CDynamicPool@VCInstanceBase@@@@A+4
; File C:\Program Files\Microsoft Visual Studio\2022\Community\VC\Tools\MSVC\14.44.35207\include\vector

; 1812 :         if (_Myfirst == _Mylast) { // already empty, nothing to do

  00031	3b f7		 cmp	 esi, edi
  00033	74 06		 je	 SHORT $LN14@DestroySys

; 1813 :             // This is an optimization for debug mode: we can avoid taking the debug lock to invalidate iterators.
; 1814 :             // Note that when clearing an empty vector, this will preserve past-the-end iterators, which is allowed by
; 1815 :             // N4950 [sequence.reqmts]/54 "a.clear() [...] may invalidate the past-the-end iterator".
; 1816 :             return;
; 1817 :         }
; 1818 : 
; 1819 :         _My_data._Orphan_all();
; 1820 :         _Destroy_range(_Myfirst, _Mylast, _Getal());
; 1821 :         _ASAN_VECTOR_MODIFY(static_cast<difference_type>(_Myfirst - _Mylast)); // negative when destroying elements
; 1822 :         _Mylast = _Myfirst;

  00035	89 35 08 00 00
	00		 mov	 DWORD PTR ?ms_kPool@CInstanceBase@@2V?$CDynamicPool@VCInstanceBase@@@@A+8, esi
$LN14@DestroySys:

; 1812 :         if (_Myfirst == _Mylast) { // already empty, nothing to do

  0003b	a1 10 00 00 00	 mov	 eax, DWORD PTR ?ms_kPool@CInstanceBase@@2V?$CDynamicPool@VCInstanceBase@@@@A+16
  00040	5f		 pop	 edi
  00041	5e		 pop	 esi
  00042	3b 05 14 00 00
	00		 cmp	 eax, DWORD PTR ?ms_kPool@CInstanceBase@@2V?$CDynamicPool@VCInstanceBase@@@@A+20
  00048	74 05		 je	 SHORT $LN18@DestroySys

; 1813 :             // This is an optimization for debug mode: we can avoid taking the debug lock to invalidate iterators.
; 1814 :             // Note that when clearing an empty vector, this will preserve past-the-end iterators, which is allowed by
; 1815 :             // N4950 [sequence.reqmts]/54 "a.clear() [...] may invalidate the past-the-end iterator".
; 1816 :             return;
; 1817 :         }
; 1818 : 
; 1819 :         _My_data._Orphan_all();
; 1820 :         _Destroy_range(_Myfirst, _Mylast, _Getal());
; 1821 :         _ASAN_VECTOR_MODIFY(static_cast<difference_type>(_Myfirst - _Mylast)); // negative when destroying elements
; 1822 :         _Mylast = _Myfirst;

  0004a	a3 14 00 00 00	 mov	 DWORD PTR ?ms_kPool@CInstanceBase@@2V?$CDynamicPool@VCInstanceBase@@@@A+20, eax
$LN18@DestroySys:
; File D:\_m2work\Server Client TMP4\ClientVS22\source\UserInterface\InstanceBase.cpp

; 625  : }

  0004f	c3		 ret	 0
?DestroySystem@CInstanceBase@@SAXXZ ENDP		; CInstanceBase::DestroySystem
_TEXT	ENDS
; Function compile flags: /Ogtp
; File D:\_m2work\Server Client TMP4\ClientVS22\source\UserInterface\InstanceBase.cpp
; File C:\Program Files\Microsoft Visual Studio\2022\Community\VC\Tools\MSVC\14.44.35207\include\vector
; File D:\_m2work\Server Client TMP4\ClientVS22\source\eterLib\Pool.h
; File C:\Program Files\Microsoft Visual Studio\2022\Community\VC\Tools\MSVC\14.44.35207\include\vector
; File D:\_m2work\Server Client TMP4\ClientVS22\source\eterLib\Pool.h
; File C:\Program Files\Microsoft Visual Studio\2022\Community\VC\Tools\MSVC\14.44.35207\include\vector
; File D:\_m2work\Server Client TMP4\ClientVS22\source\eterLib\Pool.h
; File D:\_m2work\Server Client TMP4\ClientVS22\source\UserInterface\InstanceBase.cpp
; File D:\_m2work\Server Client TMP4\ClientVS22\source\eterLib\Pool.h
; File C:\Program Files\Microsoft Visual Studio\2022\Community\VC\Tools\MSVC\14.44.35207\include\vector
; File D:\_m2work\Server Client TMP4\ClientVS22\source\UserInterface\InstanceBase.cpp
;	COMDAT ?New@CInstanceBase@@SAPAV1@XZ
_TEXT	SEGMENT
_pkNewData$2 = -16					; size = 4
$T3 = -16						; size = 4
__$EHRec$ = -12						; size = 12
?New@CInstanceBase@@SAPAV1@XZ PROC			; CInstanceBase::New, COMDAT

; 638  : {

  00000	55		 push	 ebp
  00001	8b ec		 mov	 ebp, esp
  00003	6a ff		 push	 -1
  00005	68 00 00 00 00	 push	 __ehhandler$?New@CInstanceBase@@SAPAV1@XZ
  0000a	64 a1 00 00 00
	00		 mov	 eax, DWORD PTR fs:0
  00010	50		 push	 eax
  00011	51		 push	 ecx
  00012	56		 push	 esi
  00013	a1 00 00 00 00	 mov	 eax, DWORD PTR ___security_cookie
  00018	33 c5		 xor	 eax, ebp
  0001a	50		 push	 eax
  0001b	8d 45 f4	 lea	 eax, DWORD PTR __$EHRec$[ebp]
  0001e	64 a3 00 00 00
	00		 mov	 DWORD PTR fs:0, eax
; File C:\Program Files\Microsoft Visual Studio\2022\Community\VC\Tools\MSVC\14.44.35207\include\vector

; 1910 :         return _My_data._Myfirst == _My_data._Mylast;

  00024	8b 0d 14 00 00
	00		 mov	 ecx, DWORD PTR ?ms_kPool@CInstanceBase@@2V?$CDynamicPool@VCInstanceBase@@@@A+20
  0002a	39 0d 10 00 00
	00		 cmp	 DWORD PTR ?ms_kPool@CInstanceBase@@2V?$CDynamicPool@VCInstanceBase@@@@A+16, ecx
; File D:\_m2work\Server Client TMP4\ClientVS22\source\eterLib\Pool.h

; 64   : 			if (m_kVct_pkFree.empty())

  00030	75 50		 jne	 SHORT $LN4@New

; 66   : 				T* pkNewData=new T;

  00032	68 b0 06 00 00	 push	 1712			; 000006b0H
  00037	e8 00 00 00 00	 call	 ??2@YAPAXI@Z		; operator new
  0003c	83 c4 04	 add	 esp, 4
  0003f	89 45 f0	 mov	 DWORD PTR $T3[ebp], eax
  00042	8b c8		 mov	 ecx, eax
  00044	c7 45 fc 00 00
	00 00		 mov	 DWORD PTR __$EHRec$[ebp+8], 0
  0004b	e8 00 00 00 00	 call	 ??0CInstanceBase@@QAE@XZ ; CInstanceBase::CInstanceBase
  00050	8b f0		 mov	 esi, eax
  00052	c7 45 fc ff ff
	ff ff		 mov	 DWORD PTR __$EHRec$[ebp+8], -1
; File C:\Program Files\Microsoft Visual Studio\2022\Community\VC\Tools\MSVC\14.44.35207\include\vector

; 933  :         _Emplace_one_at_back(_Val);

  00059	8d 45 f0	 lea	 eax, DWORD PTR _pkNewData$2[ebp]
; File D:\_m2work\Server Client TMP4\ClientVS22\source\eterLib\Pool.h

; 66   : 				T* pkNewData=new T;

  0005c	89 75 f0	 mov	 DWORD PTR _pkNewData$2[ebp], esi
; File C:\Program Files\Microsoft Visual Studio\2022\Community\VC\Tools\MSVC\14.44.35207\include\vector

; 933  :         _Emplace_one_at_back(_Val);

  0005f	50		 push	 eax
  00060	b9 04 00 00 00	 mov	 ecx, OFFSET ?ms_kPool@CInstanceBase@@2V?$CDynamicPool@VCInstanceBase@@@@A+4
  00065	e8 00 00 00 00	 call	 ??$_Emplace_one_at_back@ABQAVCInstanceBase@@@?$vector@PAVCInstanceBase@@V?$allocator@PAVCInstanceBase@@@std@@@std@@AAEAAPAVCInstanceBase@@ABQAV2@@Z ; std::vector<CInstanceBase *,std::allocator<CInstanceBase *> >::_Emplace_one_at_back<CInstanceBase * const &>
; File D:\_m2work\Server Client TMP4\ClientVS22\source\eterLib\Pool.h

; 68   : 				++m_uUsedCapacity;

  0006a	ff 05 20 00 00
	00		 inc	 DWORD PTR ?ms_kPool@CInstanceBase@@2V?$CDynamicPool@VCInstanceBase@@@@A+32
; File D:\_m2work\Server Client TMP4\ClientVS22\source\UserInterface\InstanceBase.cpp

; 639  : 	return ms_kPool.Alloc();

  00070	8b c6		 mov	 eax, esi

; 640  : }

  00072	8b 4d f4	 mov	 ecx, DWORD PTR __$EHRec$[ebp]
  00075	64 89 0d 00 00
	00 00		 mov	 DWORD PTR fs:0, ecx
  0007c	59		 pop	 ecx
  0007d	5e		 pop	 esi
  0007e	8b e5		 mov	 esp, ebp
  00080	5d		 pop	 ebp
  00081	c3		 ret	 0
$LN4@New:
; File D:\_m2work\Server Client TMP4\ClientVS22\source\eterLib\Pool.h

; 72   : 			T* pkFreeData=m_kVct_pkFree.back();

  00082	8b 41 fc	 mov	 eax, DWORD PTR [ecx-4]
; File C:\Program Files\Microsoft Visual Studio\2022\Community\VC\Tools\MSVC\14.44.35207\include\vector

; 1989 :         return _My_data._Mylast[-1];

  00085	83 c1 fc	 add	 ecx, -4			; fffffffcH

; 1759 :         --_Mylast;

  00088	89 0d 14 00 00
	00		 mov	 DWORD PTR ?ms_kPool@CInstanceBase@@2V?$CDynamicPool@VCInstanceBase@@@@A+20, ecx
; File D:\_m2work\Server Client TMP4\ClientVS22\source\UserInterface\InstanceBase.cpp

; 640  : }

  0008e	8b 4d f4	 mov	 ecx, DWORD PTR __$EHRec$[ebp]
  00091	64 89 0d 00 00
	00 00		 mov	 DWORD PTR fs:0, ecx
  00098	59		 pop	 ecx
  00099	5e		 pop	 esi
  0009a	8b e5		 mov	 esp, ebp
  0009c	5d		 pop	 ebp
  0009d	c3		 ret	 0
_TEXT	ENDS
;	COMDAT text$x
text$x	SEGMENT
__unwindfunclet$?New@CInstanceBase@@SAPAV1@XZ$0:
  00000	68 b0 06 00 00	 push	 1712			; 000006b0H
  00005	8b 45 f0	 mov	 eax, DWORD PTR $T3[ebp]
  00008	50		 push	 eax
  00009	e8 00 00 00 00	 call	 ??3@YAXPAXI@Z		; operator delete
  0000e	83 c4 08	 add	 esp, 8
  00011	c3		 ret	 0
  00012	cc		 int	 3
  00013	cc		 int	 3
  00014	cc		 int	 3
  00015	cc		 int	 3
  00016	cc		 int	 3
__ehhandler$?New@CInstanceBase@@SAPAV1@XZ:
  00017	90		 npad	 1
  00018	90		 npad	 1
  00019	8b 54 24 08	 mov	 edx, DWORD PTR [esp+8]
  0001d	8d 42 0c	 lea	 eax, DWORD PTR [edx+12]
  00020	8b 4a f4	 mov	 ecx, DWORD PTR [edx-12]
  00023	33 c8		 xor	 ecx, eax
  00025	e8 00 00 00 00	 call	 @__security_check_cookie@4
  0002a	b8 00 00 00 00	 mov	 eax, OFFSET __ehfuncinfo$?New@CInstanceBase@@SAPAV1@XZ
  0002f	e9 00 00 00 00	 jmp	 ___CxxFrameHandler3
text$x	ENDS
?New@CInstanceBase@@SAPAV1@XZ ENDP			; CInstanceBase::New
; Function compile flags: /Ogtp
; File D:\_m2work\Server Client TMP4\ClientVS22\source\UserInterface\InstanceBase.cpp
; File C:\Program Files\Microsoft Visual Studio\2022\Community\VC\Tools\MSVC\14.44.35207\include\vector
; File D:\_m2work\Server Client TMP4\ClientVS22\source\UserInterface\InstanceBase.cpp
; File C:\Program Files\Microsoft Visual Studio\2022\Community\VC\Tools\MSVC\14.44.35207\include\vector
; File D:\_m2work\Server Client TMP4\ClientVS22\source\UserInterface\InstanceBase.cpp
;	COMDAT ?Delete@CInstanceBase@@SAXPAV1@@Z
_TEXT	SEGMENT
_pkInst$ = 8						; size = 4
_pkData$ = 8						; size = 4
?Delete@CInstanceBase@@SAXPAV1@@Z PROC			; CInstanceBase::Delete, COMDAT

; 643  : {

  00000	55		 push	 ebp
  00001	8b ec		 mov	 ebp, esp
  00003	56		 push	 esi

; 644  : 	pkInst->Destroy();

  00004	8b 75 08	 mov	 esi, DWORD PTR _pkInst$[ebp]
  00007	8b ce		 mov	 ecx, esi
  00009	e8 00 00 00 00	 call	 ?Destroy@CInstanceBase@@QAEXXZ ; CInstanceBase::Destroy
; File C:\Program Files\Microsoft Visual Studio\2022\Community\VC\Tools\MSVC\14.44.35207\include\vector

; 933  :         _Emplace_one_at_back(_Val);

  0000e	8d 45 08	 lea	 eax, DWORD PTR _pkData$[ebp]
; File D:\_m2work\Server Client TMP4\ClientVS22\source\UserInterface\InstanceBase.cpp

; 645  : 	ms_kPool.Free(pkInst);

  00011	89 75 08	 mov	 DWORD PTR _pkData$[ebp], esi
; File C:\Program Files\Microsoft Visual Studio\2022\Community\VC\Tools\MSVC\14.44.35207\include\vector

; 933  :         _Emplace_one_at_back(_Val);

  00014	50		 push	 eax
  00015	b9 10 00 00 00	 mov	 ecx, OFFSET ?ms_kPool@CInstanceBase@@2V?$CDynamicPool@VCInstanceBase@@@@A+16
  0001a	e8 00 00 00 00	 call	 ??$_Emplace_one_at_back@ABQAVCInstanceBase@@@?$vector@PAVCInstanceBase@@V?$allocator@PAVCInstanceBase@@@std@@@std@@AAEAAPAVCInstanceBase@@ABQAV2@@Z ; std::vector<CInstanceBase *,std::allocator<CInstanceBase *> >::_Emplace_one_at_back<CInstanceBase * const &>
  0001f	5e		 pop	 esi
; File D:\_m2work\Server Client TMP4\ClientVS22\source\UserInterface\InstanceBase.cpp

; 646  : }

  00020	5d		 pop	 ebp
  00021	c3		 ret	 0
?Delete@CInstanceBase@@SAXPAV1@@Z ENDP			; CInstanceBase::Delete
_TEXT	ENDS
; Function compile flags: /Ogtp
; File D:\_m2work\Server Client TMP4\ClientVS22\source\UserInterface\InstanceBase.cpp
;	COMDAT ?SetMainInstance@CInstanceBase@@QAEXXZ
_TEXT	SEGMENT
?SetMainInstance@CInstanceBase@@QAEXXZ PROC		; CInstanceBase::SetMainInstance, COMDAT
; _this$ = ecx

; 649  : {

  00000	56		 push	 esi

; 650  : 	CPythonCharacterManager& rkChrMgr=CPythonCharacterManager::Instance();

  00001	8b 35 00 00 00
	00		 mov	 esi, DWORD PTR ?ms_singleton@?$CSingleton@VCPythonCharacterManager@@@@0PAVCPythonCharacterManager@@A ; CSingleton<CPythonCharacterManager>::ms_singleton
  00007	57		 push	 edi
  00008	8b f9		 mov	 edi, ecx

; 651  : 
; 652  : 	DWORD dwVID=GetVirtualID();

  0000a	e8 00 00 00 00	 call	 ?GetVirtualID@CInstanceBase@@QAEKXZ ; CInstanceBase::GetVirtualID

; 653  : 	rkChrMgr.SetMainInstance(dwVID);

  0000f	50		 push	 eax
  00010	8b ce		 mov	 ecx, esi
  00012	e8 00 00 00 00	 call	 ?SetMainInstance@CPythonCharacterManager@@QAE_NK@Z ; CPythonCharacterManager::SetMainInstance

; 654  : 
; 655  : 	m_GraphicThingInstance.SetMainInstance();

  00017	8d 8f d4 01 00
	00		 lea	 ecx, DWORD PTR [edi+468]
  0001d	5f		 pop	 edi
  0001e	5e		 pop	 esi
  0001f	e9 00 00 00 00	 jmp	 ?SetMainInstance@CActorInstance@@QAEXXZ ; CActorInstance::SetMainInstance
?SetMainInstance@CInstanceBase@@QAEXXZ ENDP		; CInstanceBase::SetMainInstance
_TEXT	ENDS
; Function compile flags: /Ogtp
; File D:\_m2work\Server Client TMP4\ClientVS22\source\UserInterface\InstanceBase.cpp
;	COMDAT ?__GetMainInstancePtr@CInstanceBase@@IAEPAV1@XZ
_TEXT	SEGMENT
?__GetMainInstancePtr@CInstanceBase@@IAEPAV1@XZ PROC	; CInstanceBase::__GetMainInstancePtr, COMDAT
; _this$dead$ = ecx

; 660  : 	CPythonCharacterManager& rkChrMgr=CPythonCharacterManager::Instance();
; 661  : 	return rkChrMgr.GetMainInstancePtr();

  00000	8b 0d 00 00 00
	00		 mov	 ecx, DWORD PTR ?ms_singleton@?$CSingleton@VCPythonCharacterManager@@@@0PAVCPythonCharacterManager@@A ; CSingleton<CPythonCharacterManager>::ms_singleton
  00006	e9 00 00 00 00	 jmp	 ?GetMainInstancePtr@CPythonCharacterManager@@QAEPAVCInstanceBase@@XZ ; CPythonCharacterManager::GetMainInstancePtr
?__GetMainInstancePtr@CInstanceBase@@IAEPAV1@XZ ENDP	; CInstanceBase::__GetMainInstancePtr
_TEXT	ENDS
; Function compile flags: /Ogtp
; File D:\_m2work\Server Client TMP4\ClientVS22\source\UserInterface\InstanceBase.cpp
;	COMDAT ?__ClearMainInstance@CInstanceBase@@IAEXXZ
_TEXT	SEGMENT
?__ClearMainInstance@CInstanceBase@@IAEXXZ PROC		; CInstanceBase::__ClearMainInstance, COMDAT
; _this$dead$ = ecx

; 666  : 	CPythonCharacterManager& rkChrMgr=CPythonCharacterManager::Instance();
; 667  : 	rkChrMgr.ClearMainInstance();

  00000	8b 0d 00 00 00
	00		 mov	 ecx, DWORD PTR ?ms_singleton@?$CSingleton@VCPythonCharacterManager@@@@0PAVCPythonCharacterManager@@A ; CSingleton<CPythonCharacterManager>::ms_singleton
  00006	e9 00 00 00 00	 jmp	 ?ClearMainInstance@CPythonCharacterManager@@QAEXXZ ; CPythonCharacterManager::ClearMainInstance
?__ClearMainInstance@CInstanceBase@@IAEXXZ ENDP		; CInstanceBase::__ClearMainInstance
_TEXT	ENDS
; Function compile flags: /Ogtp
; File D:\_m2work\Server Client TMP4\ClientVS22\source\UserInterface\InstanceBase.cpp
;	COMDAT ?__IsMainInstance@CInstanceBase@@IAE_NXZ
_TEXT	SEGMENT
?__IsMainInstance@CInstanceBase@@IAE_NXZ PROC		; CInstanceBase::__IsMainInstance, COMDAT
; _this$ = ecx

; 672  : {

  00000	8b d1		 mov	 edx, ecx

; 673  : 	if (this==__GetMainInstancePtr())

  00002	e8 00 00 00 00	 call	 ?__GetMainInstancePtr@CInstanceBase@@IAEPAV1@XZ ; CInstanceBase::__GetMainInstancePtr
  00007	3b d0		 cmp	 edx, eax
  00009	0f 94 c0	 sete	 al

; 674  : 		return true;
; 675  : 
; 676  : 	return false;
; 677  : }

  0000c	c3		 ret	 0
?__IsMainInstance@CInstanceBase@@IAE_NXZ ENDP		; CInstanceBase::__IsMainInstance
_TEXT	ENDS
; Function compile flags: /Ogtp
; File D:\_m2work\Server Client TMP4\ClientVS22\source\UserInterface\InstanceBase.cpp
;	COMDAT ?__IsExistMainInstance@CInstanceBase@@IAE_NXZ
_TEXT	SEGMENT
?__IsExistMainInstance@CInstanceBase@@IAE_NXZ PROC	; CInstanceBase::__IsExistMainInstance, COMDAT
; _this$dead$ = ecx

; 681  : 	if(__GetMainInstancePtr())

  00000	e8 00 00 00 00	 call	 ?__GetMainInstancePtr@CInstanceBase@@IAEPAV1@XZ ; CInstanceBase::__GetMainInstancePtr
  00005	85 c0		 test	 eax, eax
  00007	0f 95 c0	 setne	 al

; 682  : 		return true;
; 683  : 	else
; 684  : 		return false;
; 685  : }

  0000a	c3		 ret	 0
?__IsExistMainInstance@CInstanceBase@@IAE_NXZ ENDP	; CInstanceBase::__IsExistMainInstance
_TEXT	ENDS
; Function compile flags: /Ogtp
; File D:\_m2work\Server Client TMP4\ClientVS22\source\UserInterface\InstanceBase.cpp
;	COMDAT ?__MainCanSeeHiddenThing@CInstanceBase@@IAE_NXZ
_TEXT	SEGMENT
?__MainCanSeeHiddenThing@CInstanceBase@@IAE_NXZ PROC	; CInstanceBase::__MainCanSeeHiddenThing, COMDAT
; _this$dead$ = ecx

; 689  : 	return false;

  00000	32 c0		 xor	 al, al

; 690  : //	CInstanceBase * pInstance = __GetMainInstancePtr();
; 691  : //	return pInstance->IsAffect(AFFECT_GAMJI);
; 692  : }

  00002	c3		 ret	 0
?__MainCanSeeHiddenThing@CInstanceBase@@IAE_NXZ ENDP	; CInstanceBase::__MainCanSeeHiddenThing
_TEXT	ENDS
; Function compile flags: /Ogtp
; File D:\_m2work\Server Client TMP4\ClientVS22\source\UserInterface\InstanceBase.cpp
;	COMDAT ?__GetBowRange@CInstanceBase@@IAEMXZ
_TEXT	SEGMENT
?__GetBowRange@CInstanceBase@@IAEMXZ PROC		; CInstanceBase::__GetBowRange, COMDAT
; _this$ = ecx

; 696  : 	float fRange = 2500.0f - 100.0f;
; 697  : 
; 698  : 	if (__IsMainInstance())

  00000	e8 00 00 00 00	 call	 ?__IsMainInstance@CInstanceBase@@IAE_NXZ ; CInstanceBase::__IsMainInstance
  00005	84 c0		 test	 al, al
  00007	74 1d		 je	 SHORT $LN4@GetBowRang

; 699  : 	{
; 700  : 		IAbstractPlayer& rPlayer=IAbstractPlayer::GetSingleton();

  00009	8b 0d 00 00 00
	00		 mov	 ecx, DWORD PTR ?ms_singleton@?$TAbstractSingleton@VIAbstractPlayer@@@@0PAVIAbstractPlayer@@A ; TAbstractSingleton<IAbstractPlayer>::ms_singleton

; 701  : 		fRange += float(rPlayer.GetStatus(POINT_BOW_DISTANCE));

  0000f	6a 22		 push	 34			; 00000022H
  00011	8b 01		 mov	 eax, DWORD PTR [ecx]
  00013	ff 50 10	 call	 DWORD PTR [eax+16]
  00016	66 0f 6e c0	 movd	 xmm0, eax
  0001a	0f 5b c0	 cvtdq2ps xmm0, xmm0
  0001d	f3 0f 58 05 00
	00 00 00	 addss	 xmm0, DWORD PTR __real@45160000

; 705  : }

  00025	c3		 ret	 0
$LN4@GetBowRang:

; 702  : 	}
; 703  : 
; 704  : 	return fRange;

  00026	f3 0f 10 05 00
	00 00 00	 movss	 xmm0, DWORD PTR __real@45160000

; 705  : }

  0002e	c3		 ret	 0
?__GetBowRange@CInstanceBase@@IAEMXZ ENDP		; CInstanceBase::__GetBowRange
_TEXT	ENDS
; Function compile flags: /Ogtp
; File D:\_m2work\Server Client TMP4\ClientVS22\source\UserInterface\InstanceBase.cpp
;	COMDAT ?__FindRaceType@CInstanceBase@@IAE_NKPAE@Z
_TEXT	SEGMENT
_dwRace$ = 8						; size = 4
_pbType$ = 12						; size = 4
?__FindRaceType@CInstanceBase@@IAE_NKPAE@Z PROC		; CInstanceBase::__FindRaceType, COMDAT
; _this$dead$ = ecx

; 714  : {

  00000	55		 push	 ebp
  00001	8b ec		 mov	 ebp, esp

; 715  : 	CPythonNonPlayer& rkNonPlayer=CPythonNonPlayer::Instance();
; 716  : 	return rkNonPlayer.GetInstanceType(dwRace, pbType);

  00003	8b 0d 00 00 00
	00		 mov	 ecx, DWORD PTR ?ms_singleton@?$CSingleton@VCPythonNonPlayer@@@@0PAVCPythonNonPlayer@@A ; CSingleton<CPythonNonPlayer>::ms_singleton

; 717  : }

  00009	5d		 pop	 ebp

; 715  : 	CPythonNonPlayer& rkNonPlayer=CPythonNonPlayer::Instance();
; 716  : 	return rkNonPlayer.GetInstanceType(dwRace, pbType);

  0000a	e9 00 00 00 00	 jmp	 ?GetInstanceType@CPythonNonPlayer@@QAE_NKPAE@Z ; CPythonNonPlayer::GetInstanceType
?__FindRaceType@CInstanceBase@@IAE_NKPAE@Z ENDP		; CInstanceBase::__FindRaceType
_TEXT	ENDS
; Function compile flags: /Ogtp
; File D:\_m2work\Server Client TMP4\ClientVS22\source\UserInterface\InstanceBase.cpp
; File D:\_m2work\Server Client TMP4\ClientVS22\extern\include\d3dx8math.inl
; File D:\_m2work\Server Client TMP4\ClientVS22\source\UserInterface\InstanceBase.cpp
; File D:\_m2work\Server Client TMP4\ClientVS22\extern\include\d3dx8math.inl
; File D:\_m2work\Server Client TMP4\ClientVS22\source\UserInterface\InstanceBase.cpp
; File D:\_m2work\Server Client TMP4\ClientVS22\extern\include\d3dx8math.inl
; File D:\_m2work\Server Client TMP4\ClientVS22\source\UserInterface\InstanceBase.cpp
; File D:\_m2work\Server Client TMP4\ClientVS22\extern\include\d3dx8math.inl
; File D:\_m2work\Server Client TMP4\ClientVS22\source\UserInterface\InstanceBase.cpp
; File D:\_m2work\Server Client TMP4\ClientVS22\extern\include\d3dx8math.inl
; File D:\_m2work\Server Client TMP4\ClientVS22\source\UserInterface\InstanceBase.cpp
; File C:\Program Files\Microsoft Visual Studio\2022\Community\VC\Tools\MSVC\14.44.35207\include\xstring
; File C:\Program Files\Microsoft Visual Studio\2022\Community\VC\Tools\MSVC\14.44.35207\include\__msvc_string_view.hpp
; File C:\Program Files\Microsoft Visual Studio\2022\Community\VC\Tools\MSVC\14.44.35207\include\xstring
; File C:\Program Files\Microsoft Visual Studio\2022\Community\VC\Tools\MSVC\14.44.35207\include\__msvc_string_view.hpp
; File C:\Program Files\Microsoft Visual Studio\2022\Community\VC\Tools\MSVC\14.44.35207\include\xstring
; File D:\_m2work\Server Client TMP4\ClientVS22\source\UserInterface\InstanceBase.cpp
; File C:\Program Files\Microsoft Visual Studio\2022\Community\VC\Tools\MSVC\14.44.35207\include\xstring
; File D:\_m2work\Server Client TMP4\ClientVS22\source\UserInterface\InstanceBase.cpp
; File C:\Program Files\Microsoft Visual Studio\2022\Community\VC\Tools\MSVC\14.44.35207\include\xstring
; File D:\_m2work\Server Client TMP4\ClientVS22\source\UserInterface\InstanceBase.cpp
; File C:\Program Files\Microsoft Visual Studio\2022\Community\VC\Tools\MSVC\14.44.35207\include\xstring
; File D:\_m2work\Server Client TMP4\ClientVS22\source\UserInterface\InstanceBase.cpp
; File C:\Program Files\Microsoft Visual Studio\2022\Community\VC\Tools\MSVC\14.44.35207\include\xstring
; File C:\Program Files\Microsoft Visual Studio\2022\Community\VC\Tools\MSVC\14.44.35207\include\xmemory
; File C:\Program Files\Microsoft Visual Studio\2022\Community\VC\Tools\MSVC\14.44.35207\include\xstring
; File C:\Program Files\Microsoft Visual Studio\2022\Community\VC\Tools\MSVC\14.44.35207\include\xmemory
; File D:\_m2work\Server Client TMP4\ClientVS22\source\UserInterface\InstanceBase.cpp
; File C:\Program Files\Microsoft Visual Studio\2022\Community\VC\Tools\MSVC\14.44.35207\include\xmemory
; File D:\_m2work\Server Client TMP4\ClientVS22\source\UserInterface\InstanceBase.cpp
;	COMDAT ?Create@CInstanceBase@@QAE_NABUSCreateData@1@@Z
_TEXT	SEGMENT
_center_x$2 = -72					; size = 4
_center_y$3 = -68					; size = 4
$T4 = -68						; size = 1
_dwBodyColor$1$ = -64					; size = 4
tv637 = -64						; size = 4
_strFileName$5 = -60					; size = 24
$T6 = -36						; size = 16
$T7 = -32						; size = 12
__$ArrayPad$ = -20					; size = 4
__$EHRec$ = -12						; size = 12
_c_rkCreateData$ = 8					; size = 4
?Create@CInstanceBase@@QAE_NABUSCreateData@1@@Z PROC	; CInstanceBase::Create, COMDAT
; _this$ = ecx

; 720  : {

  00000	53		 push	 ebx
  00001	8b dc		 mov	 ebx, esp
  00003	83 ec 08	 sub	 esp, 8
  00006	83 e4 f8	 and	 esp, -8			; fffffff8H
  00009	83 c4 04	 add	 esp, 4
  0000c	55		 push	 ebp
  0000d	8b 6b 04	 mov	 ebp, DWORD PTR [ebx+4]
  00010	89 6c 24 04	 mov	 DWORD PTR [esp+4], ebp
  00014	8b ec		 mov	 ebp, esp
  00016	6a ff		 push	 -1
  00018	68 00 00 00 00	 push	 __ehhandler$?Create@CInstanceBase@@QAE_NABUSCreateData@1@@Z
  0001d	64 a1 00 00 00
	00		 mov	 eax, DWORD PTR fs:0
  00023	50		 push	 eax
  00024	53		 push	 ebx
  00025	83 ec 38	 sub	 esp, 56			; 00000038H
  00028	a1 00 00 00 00	 mov	 eax, DWORD PTR ___security_cookie
  0002d	33 c5		 xor	 eax, ebp
  0002f	89 45 ec	 mov	 DWORD PTR __$ArrayPad$[ebp], eax
  00032	56		 push	 esi
  00033	57		 push	 edi
  00034	50		 push	 eax
  00035	8d 45 f4	 lea	 eax, DWORD PTR __$EHRec$[ebp]
  00038	64 a3 00 00 00
	00		 mov	 DWORD PTR fs:0, eax
  0003e	8b f9		 mov	 edi, ecx

; 721  : 	IAbstractApplication::GetSingleton().SkipRenderBuffering(300);

  00040	8b 0d 00 00 00
	00		 mov	 ecx, DWORD PTR ?ms_singleton@?$TAbstractSingleton@VIAbstractApplication@@@@0PAVIAbstractApplication@@A ; TAbstractSingleton<IAbstractApplication>::ms_singleton
  00046	8b 73 08	 mov	 esi, DWORD PTR _c_rkCreateData$[ebx]
  00049	68 2c 01 00 00	 push	 300			; 0000012cH
  0004e	8b 01		 mov	 eax, DWORD PTR [ecx]
  00050	ff 50 10	 call	 DWORD PTR [eax+16]

; 722  : 
; 723  : 	SetInstanceType(c_rkCreateData.m_bType);

  00053	0f b6 06	 movzx	 eax, BYTE PTR [esi]
  00056	8b cf		 mov	 ecx, edi
  00058	50		 push	 eax
  00059	e8 00 00 00 00	 call	 ?SetInstanceType@CInstanceBase@@QAEXH@Z ; CInstanceBase::SetInstanceType

; 724  : 
; 725  : 
; 726  : 	if (!SetRace(c_rkCreateData.m_dwRace))

  0005e	ff 76 18	 push	 DWORD PTR [esi+24]
  00061	8b cf		 mov	 ecx, edi
  00063	e8 00 00 00 00	 call	 ?SetRace@CInstanceBase@@QAE_NK@Z ; CInstanceBase::SetRace
  00068	84 c0		 test	 al, al
  0006a	0f 84 7b 03 00
	00		 je	 $LN1@Create
$LN2@Create:

; 727  : 		return false;
; 728  : 
; 729  : 	SetVirtualID(c_rkCreateData.m_dwVID);

  00070	ff 76 14	 push	 DWORD PTR [esi+20]
  00073	8b cf		 mov	 ecx, edi
  00075	e8 00 00 00 00	 call	 ?SetVirtualID@CInstanceBase@@QAEXK@Z ; CInstanceBase::SetVirtualID

; 730  : 
; 731  : 	if (c_rkCreateData.m_isMain)

  0007a	80 7e 64 00	 cmp	 BYTE PTR [esi+100], 0
  0007e	74 07		 je	 SHORT $LN3@Create

; 732  : 		SetMainInstance();

  00080	8b cf		 mov	 ecx, edi
  00082	e8 00 00 00 00	 call	 ?SetMainInstance@CInstanceBase@@QAEXXZ ; CInstanceBase::SetMainInstance
$LN3@Create:

; 733  : 
; 734  : 	if (IsGuildWall())

  00087	8b cf		 mov	 ecx, edi
  00089	e8 00 00 00 00	 call	 ?IsGuildWall@CInstanceBase@@QAEHXZ ; CInstanceBase::IsGuildWall
  0008e	85 c0		 test	 eax, eax
  00090	74 77		 je	 SHORT $LN4@Create

; 735  : 	{
; 736  : 		unsigned center_x;
; 737  : 		unsigned center_y;
; 738  : 
; 739  : 		c_rkCreateData.m_kAffectFlags.ConvertToPosition(&center_x, &center_y);

  00092	8d 45 bc	 lea	 eax, DWORD PTR _center_y$3[ebp]
  00095	50		 push	 eax
  00096	8d 45 b8	 lea	 eax, DWORD PTR _center_x$2[ebp]
  00099	50		 push	 eax
  0009a	8d 4e 43	 lea	 ecx, DWORD PTR [esi+67]
  0009d	e8 00 00 00 00	 call	 ?ConvertToPosition@CAffectFlagContainer@@QBEXPAI0@Z ; CAffectFlagContainer::ConvertToPosition

; 740  : 		
; 741  : 		float center_z = __GetBackgroundHeight(center_x, center_y);

  000a2	8b 45 bc	 mov	 eax, DWORD PTR _center_y$3[ebp]
  000a5	66 0f 6e c0	 movd	 xmm0, eax
  000a9	f3 0f e6 c0	 cvtdq2pd xmm0, xmm0
  000ad	c1 e8 1f	 shr	 eax, 31			; 0000001fH
  000b0	f2 0f 58 04 c5
	00 00 00 00	 addsd	 xmm0, QWORD PTR __xmm@41f00000000000000000000000000000[eax*8]
  000b9	8b 45 b8	 mov	 eax, DWORD PTR _center_x$2[ebp]
  000bc	66 0f 5a c8	 cvtpd2ps xmm1, xmm0
  000c0	66 0f 6e c0	 movd	 xmm0, eax
  000c4	f3 0f e6 c0	 cvtdq2pd xmm0, xmm0
  000c8	c1 e8 1f	 shr	 eax, 31			; 0000001fH
  000cb	f2 0f 58 04 c5
	00 00 00 00	 addsd	 xmm0, QWORD PTR __xmm@41f00000000000000000000000000000[eax*8]
  000d4	66 0f 5a c0	 cvtpd2ps xmm0, xmm0
  000d8	e8 00 00 00 00	 call	 ?__GetBackgroundHeight@CInstanceBase@@KAMMM@Z ; CInstanceBase::__GetBackgroundHeight
  000dd	66 0f 6e 56 24	 movd	 xmm2, DWORD PTR [esi+36]

; 742  : 		NEW_SetPixelPosition(TPixelPosition(float(c_rkCreateData.m_lPosX), float(c_rkCreateData.m_lPosY), center_z));

  000e2	8d 45 e0	 lea	 eax, DWORD PTR $T7[ebp]
  000e5	66 0f 6e 4e 28	 movd	 xmm1, DWORD PTR [esi+40]
  000ea	8b cf		 mov	 ecx, edi
  000ec	0f 5b d2	 cvtdq2ps xmm2, xmm2
  000ef	50		 push	 eax
  000f0	0f 5b c9	 cvtdq2ps xmm1, xmm1
; File D:\_m2work\Server Client TMP4\ClientVS22\extern\include\d3dx8math.inl

; 180  :     x = fx;

  000f3	f3 0f 11 55 e0	 movss	 DWORD PTR $T7[ebp], xmm2

; 181  :     y = fy;

  000f8	f3 0f 11 4d e4	 movss	 DWORD PTR $T7[ebp+4], xmm1

; 182  :     z = fz;

  000fd	f3 0f 11 45 e8	 movss	 DWORD PTR $T7[ebp+8], xmm0
; File D:\_m2work\Server Client TMP4\ClientVS22\source\UserInterface\InstanceBase.cpp

; 742  : 		NEW_SetPixelPosition(TPixelPosition(float(c_rkCreateData.m_lPosX), float(c_rkCreateData.m_lPosY), center_z));

  00102	e8 00 00 00 00	 call	 ?NEW_SetPixelPosition@CInstanceBase@@QAEXABUD3DXVECTOR3@@@Z ; CInstanceBase::NEW_SetPixelPosition

; 743  : 	}

  00107	eb 17		 jmp	 SHORT $LN5@Create
$LN4@Create:
  00109	66 0f 6e 56 28	 movd	 xmm2, DWORD PTR [esi+40]

; 744  : 	else
; 745  : 	{
; 746  : 		SCRIPT_SetPixelPosition(float(c_rkCreateData.m_lPosX), float(c_rkCreateData.m_lPosY));

  0010e	8b cf		 mov	 ecx, edi
  00110	66 0f 6e 4e 24	 movd	 xmm1, DWORD PTR [esi+36]
  00115	0f 5b d2	 cvtdq2ps xmm2, xmm2
  00118	0f 5b c9	 cvtdq2ps xmm1, xmm1
  0011b	e8 00 00 00 00	 call	 ?SCRIPT_SetPixelPosition@CInstanceBase@@QAEXMM@Z ; CInstanceBase::SCRIPT_SetPixelPosition
$LN5@Create:

; 747  : 	}	
; 748  : 
; 749  : 	if (0 != c_rkCreateData.m_dwMountVnum)

  00120	8b 46 3c	 mov	 eax, DWORD PTR [esi+60]
  00123	85 c0		 test	 eax, eax
  00125	74 08		 je	 SHORT $LN6@Create

; 750  : 		MountHorse(c_rkCreateData.m_dwMountVnum);

  00127	50		 push	 eax
  00128	8b cf		 mov	 ecx, edi
  0012a	e8 00 00 00 00	 call	 ?MountHorse@CInstanceBase@@QAEXI@Z ; CInstanceBase::MountHorse
$LN6@Create:

; 751  : 
; 752  : 	SetArmor(c_rkCreateData.m_dwArmor);

  0012f	ff 76 30	 push	 DWORD PTR [esi+48]
  00132	8b cf		 mov	 ecx, edi
  00134	e8 00 00 00 00	 call	 ?SetArmor@CInstanceBase@@QAEXK@Z ; CInstanceBase::SetArmor

; 753  : 
; 754  : 	if (IsPC())

  00139	8b cf		 mov	 ecx, edi
  0013b	e8 00 00 00 00	 call	 ?IsPC@CInstanceBase@@QAEHXZ ; CInstanceBase::IsPC
  00140	85 c0		 test	 eax, eax
  00142	74 14		 je	 SHORT $LN7@Create

; 755  : 	{
; 756  : 		SetHair(c_rkCreateData.m_dwHair);

  00144	ff 76 38	 push	 DWORD PTR [esi+56]
  00147	8b cf		 mov	 ecx, edi
  00149	e8 00 00 00 00	 call	 ?SetHair@CInstanceBase@@QAEXK@Z ; CInstanceBase::SetHair

; 757  : 		SetWeapon(c_rkCreateData.m_dwWeapon);

  0014e	ff 76 34	 push	 DWORD PTR [esi+52]
  00151	8b cf		 mov	 ecx, edi
  00153	e8 00 00 00 00	 call	 ?SetWeapon@CInstanceBase@@QAE_NK@Z ; CInstanceBase::SetWeapon
$LN7@Create:

; 758  : 	}
; 759  : 
; 760  : 	__Create_SetName(c_rkCreateData);

  00158	56		 push	 esi
  00159	8b cf		 mov	 ecx, edi
  0015b	e8 00 00 00 00	 call	 ?__Create_SetName@CInstanceBase@@IAEXABUSCreateData@1@@Z ; CInstanceBase::__Create_SetName

; 761  : 
; 762  : 	m_dwLevel = c_rkCreateData.m_dwLevel;

  00160	8b 46 10	 mov	 eax, DWORD PTR [esi+16]

; 763  : 	m_dwGuildID = c_rkCreateData.m_dwGuildID;
; 764  : 	m_dwEmpireID = c_rkCreateData.m_dwEmpireID;
; 765  : 
; 766  : 	SetVirtualNumber(c_rkCreateData.m_dwRace);

  00163	8b cf		 mov	 ecx, edi
  00165	89 47 3c	 mov	 DWORD PTR [edi+60], eax
  00168	8b 46 0c	 mov	 eax, DWORD PTR [esi+12]
  0016b	89 47 44	 mov	 DWORD PTR [edi+68], eax
  0016e	8b 46 08	 mov	 eax, DWORD PTR [esi+8]
  00171	89 47 40	 mov	 DWORD PTR [edi+64], eax
  00174	ff 76 18	 push	 DWORD PTR [esi+24]
  00177	e8 00 00 00 00	 call	 ?SetVirtualNumber@CInstanceBase@@QAEXK@Z ; CInstanceBase::SetVirtualNumber

; 767  : 	SetRotation(c_rkCreateData.m_fRot);

  0017c	f3 0f 10 4e 2c	 movss	 xmm1, DWORD PTR [esi+44]
  00181	e8 00 00 00 00	 call	 ?SetRotation@CInstanceBase@@QAEXM@Z ; CInstanceBase::SetRotation

; 768  : 
; 769  : 	SetAlignment(c_rkCreateData.m_sAlignment);

  00186	0f b7 46 40	 movzx	 eax, WORD PTR [esi+64]
  0018a	8b cf		 mov	 ecx, edi
  0018c	50		 push	 eax
  0018d	e8 00 00 00 00	 call	 ?SetAlignment@CInstanceBase@@QAEXF@Z ; CInstanceBase::SetAlignment

; 770  : 	SetPKMode(c_rkCreateData.m_byPKMode);

  00192	0f b6 46 42	 movzx	 eax, BYTE PTR [esi+66]
  00196	8b cf		 mov	 ecx, edi
  00198	50		 push	 eax
  00199	e8 00 00 00 00	 call	 ?SetPKMode@CInstanceBase@@QAEXE@Z ; CInstanceBase::SetPKMode

; 771  : 
; 772  : 	SetMoveSpeed(c_rkCreateData.m_dwMovSpd);

  0019e	ff 76 1c	 push	 DWORD PTR [esi+28]
  001a1	8b cf		 mov	 ecx, edi
  001a3	e8 00 00 00 00	 call	 ?SetMoveSpeed@CInstanceBase@@QAEXI@Z ; CInstanceBase::SetMoveSpeed

; 773  : 	SetAttackSpeed(c_rkCreateData.m_dwAtkSpd);

  001a8	ff 76 20	 push	 DWORD PTR [esi+32]
  001ab	8b cf		 mov	 ecx, edi
  001ad	e8 00 00 00 00	 call	 ?SetAttackSpeed@CInstanceBase@@QAEXI@Z ; CInstanceBase::SetAttackSpeed

; 774  : 	
; 775  : 	// NOTE : Dress    Alpha   .
; 776  : 	if (!IsWearingDress())

  001b2	8b cf		 mov	 ecx, edi
  001b4	e8 00 00 00 00	 call	 ?IsWearingDress@CInstanceBase@@QAEHXZ ; CInstanceBase::IsWearingDress
  001b9	85 c0		 test	 eax, eax
  001bb	75 2c		 jne	 SHORT $LN97@Create

; 777  : 	{
; 778  : 		// NOTE :  Affect    
; 779  : 		m_GraphicThingInstance.SetAlphaValue(0.0f);

  001bd	51		 push	 ecx
  001be	8d 8f d4 01 00
	00		 lea	 ecx, DWORD PTR [edi+468]
  001c4	89 04 24	 mov	 DWORD PTR [esp], eax
  001c7	e8 00 00 00 00	 call	 ?SetAlphaValue@CActorInstance@@QAEXM@Z ; CActorInstance::SetAlphaValue

; 780  : 		m_GraphicThingInstance.BlendAlphaValue(1.0f, 0.5f);

  001cc	83 ec 08	 sub	 esp, 8
  001cf	8d 8f d4 01 00
	00		 lea	 ecx, DWORD PTR [edi+468]
  001d5	c7 44 24 04 00
	00 00 3f	 mov	 DWORD PTR [esp+4], 1056964608 ; 3f000000H
  001dd	c7 04 24 00 00
	80 3f		 mov	 DWORD PTR [esp], 1065353216 ; 3f800000H
  001e4	e8 00 00 00 00	 call	 ?BlendAlphaValue@CActorInstance@@QAEXMM@Z ; CActorInstance::BlendAlphaValue
$LN97@Create:

; 781  : 	}
; 782  : 
; 783  : 	if (!IsGuildWall())

  001e9	8b cf		 mov	 ecx, edi
  001eb	e8 00 00 00 00	 call	 ?IsGuildWall@CInstanceBase@@QAEHXZ ; CInstanceBase::IsGuildWall
  001f0	85 c0		 test	 eax, eax
  001f2	75 0b		 jne	 SHORT $LN9@Create

; 784  : 	{
; 785  : 		SetAffectFlagContainer(c_rkCreateData.m_kAffectFlags);

  001f4	8d 46 43	 lea	 eax, DWORD PTR [esi+67]
  001f7	8b cf		 mov	 ecx, edi
  001f9	50		 push	 eax
  001fa	e8 00 00 00 00	 call	 ?SetAffectFlagContainer@CInstanceBase@@QAEXABVCAffectFlagContainer@@@Z ; CInstanceBase::SetAffectFlagContainer
$LN9@Create:

; 786  : 	}	
; 787  : 
; 788  : 	// NOTE :  Affect    
; 789  : 	AttachTextTail();

  001ff	8b cf		 mov	 ecx, edi
  00201	e8 00 00 00 00	 call	 ?AttachTextTail@CInstanceBase@@QAEXXZ ; CInstanceBase::AttachTextTail

; 790  : 	RefreshTextTail();

  00206	8b cf		 mov	 ecx, edi
  00208	e8 00 00 00 00	 call	 ?RefreshTextTail@CInstanceBase@@QAEXXZ ; CInstanceBase::RefreshTextTail

; 791  : 
; 792  : 	if (c_rkCreateData.m_dwStateFlags & ADD_CHARACTER_STATE_SPAWN) 

  0020d	f6 46 04 02	 test	 BYTE PTR [esi+4], 2
  00211	74 35		 je	 SHORT $LN10@Create

; 793  : 	{
; 794  : 		if (IsAffect(AFFECT_SPAWN))

  00213	6a 02		 push	 2
  00215	8b cf		 mov	 ecx, edi
  00217	e8 00 00 00 00	 call	 ?IsAffect@CInstanceBase@@QAE_NI@Z ; CInstanceBase::IsAffect
  0021c	84 c0		 test	 al, al
  0021e	74 09		 je	 SHORT $LN12@Create

; 795  : 			__AttachEffect(EFFECT_SPAWN_APPEAR);

  00220	6a 09		 push	 9
  00222	8b cf		 mov	 ecx, edi
  00224	e8 00 00 00 00	 call	 ?__AttachEffect@CInstanceBase@@IAEKI@Z ; CInstanceBase::__AttachEffect
$LN12@Create:

; 796  : 
; 797  : 		if (IsPC())

  00229	8b cf		 mov	 ecx, edi
  0022b	e8 00 00 00 00	 call	 ?IsPC@CInstanceBase@@QAEHXZ ; CInstanceBase::IsPC

; 798  : 		{
; 799  : 			Refresh(CRaceMotionData::NAME_WAIT, true);
; 800  : 		}
; 801  : 		else
; 802  : 		{
; 803  : 			Refresh(CRaceMotionData::NAME_SPAWN, false);
; 804  : 		}
; 805  : 	}

  00230	85 c0		 test	 eax, eax
  00232	c7 45 c0 19 00
	00 00		 mov	 DWORD PTR tv637[ebp], 25 ; 00000019H
  00239	b9 01 00 00 00	 mov	 ecx, 1
  0023e	0f 44 4d c0	 cmove	 ecx, DWORD PTR tv637[ebp]
  00242	0f 95 45 bc	 setne	 BYTE PTR $T4[ebp]
  00246	eb 08		 jmp	 SHORT $LN103@Create
$LN10@Create:

; 806  : 	else
; 807  : 	{
; 808  : 		Refresh(CRaceMotionData::NAME_WAIT, true);

  00248	b9 01 00 00 00	 mov	 ecx, 1
  0024d	88 4d bc	 mov	 BYTE PTR $T4[ebp], cl
$LN103@Create:

; 809  : 	}
; 810  : 
; 811  : 	__AttachEmpireEffect(c_rkCreateData.m_dwEmpireID);

  00250	ff 75 bc	 push	 DWORD PTR $T4[ebp]
  00253	8b d7		 mov	 edx, edi
  00255	51		 push	 ecx
  00256	8b ca		 mov	 ecx, edx
  00258	e8 00 00 00 00	 call	 ?Refresh@CInstanceBase@@QAEXK_N@Z ; CInstanceBase::Refresh
  0025d	ff 76 08	 push	 DWORD PTR [esi+8]
  00260	8b cf		 mov	 ecx, edi
  00262	e8 00 00 00 00	 call	 ?__AttachEmpireEffect@CInstanceBase@@IAEXK@Z ; CInstanceBase::__AttachEmpireEffect

; 812  : 
; 813  : 	RegisterBoundingSphere();

  00267	8b cf		 mov	 ecx, edi
  00269	e8 00 00 00 00	 call	 ?RegisterBoundingSphere@CInstanceBase@@QAEXXZ ; CInstanceBase::RegisterBoundingSphere

; 814  : 
; 815  : 	if (c_rkCreateData.m_dwStateFlags & ADD_CHARACTER_STATE_DEAD)

  0026e	f6 46 04 01	 test	 BYTE PTR [esi+4], 1
  00272	74 0b		 je	 SHORT $LN99@Create

; 816  : 		m_GraphicThingInstance.DieEnd();

  00274	8d 8f d4 01 00
	00		 lea	 ecx, DWORD PTR [edi+468]
  0027a	e8 00 00 00 00	 call	 ?DieEnd@CActorInstance@@QAEXXZ ; CActorInstance::DieEnd
$LN99@Create:

; 817  : 
; 818  : 	SetStateFlags(c_rkCreateData.m_dwStateFlags);

  0027f	ff 76 04	 push	 DWORD PTR [esi+4]
  00282	8b cf		 mov	 ecx, edi
  00284	e8 00 00 00 00	 call	 ?SetStateFlags@CInstanceBase@@QAEXK@Z ; CInstanceBase::SetStateFlags

; 819  : 
; 820  : 	m_GraphicThingInstance.SetBattleHitEffect(ms_adwCRCAffectEffect[EFFECT_HIT]);

  00289	ff 35 08 00 00
	00		 push	 DWORD PTR ?ms_adwCRCAffectEffect@CInstanceBase@@1PAKA+8
  0028f	8d 8f d4 01 00
	00		 lea	 ecx, DWORD PTR [edi+468]
  00295	e8 00 00 00 00	 call	 ?SetBattleHitEffect@CActorInstance@@QAEXK@Z ; CActorInstance::SetBattleHitEffect

; 821  : 
; 822  : 	if (!IsPC())

  0029a	8b cf		 mov	 ecx, edi
  0029c	e8 00 00 00 00	 call	 ?IsPC@CInstanceBase@@QAEHXZ ; CInstanceBase::IsPC
  002a1	85 c0		 test	 eax, eax
  002a3	0f 85 88 00 00
	00		 jne	 $LN17@Create

; 823  : 	{
; 824  : 		DWORD dwBodyColor = CPythonNonPlayer::Instance().GetMonsterColor(c_rkCreateData.m_dwRace);

  002a9	ff 76 18	 push	 DWORD PTR [esi+24]
  002ac	8b 0d 00 00 00
	00		 mov	 ecx, DWORD PTR ?ms_singleton@?$CSingleton@VCPythonNonPlayer@@@@0PAVCPythonNonPlayer@@A ; CSingleton<CPythonNonPlayer>::ms_singleton
  002b2	e8 00 00 00 00	 call	 ?GetMonsterColor@CPythonNonPlayer@@QAEKK@Z ; CPythonNonPlayer::GetMonsterColor
  002b7	89 45 c0	 mov	 DWORD PTR _dwBodyColor$1$[ebp], eax

; 825  : 		if (0 != dwBodyColor)

  002ba	85 c0		 test	 eax, eax
  002bc	74 73		 je	 SHORT $LN17@Create

; 826  : 		{
; 827  : 			SetModulateRenderMode();

  002be	8b cf		 mov	 ecx, edi
  002c0	e8 00 00 00 00	 call	 ?SetModulateRenderMode@CInstanceBase@@QAEXXZ ; CInstanceBase::SetModulateRenderMode
; File D:\_m2work\Server Client TMP4\ClientVS22\extern\include\d3dx8math.inl

; 888  :     r = f * (FLOAT) (unsigned char) (dw >> 16);

  002c5	8b 55 c0	 mov	 edx, DWORD PTR _dwBodyColor$1$[ebp]
  002c8	8b ca		 mov	 ecx, edx
  002ca	f3 0f 10 0d 00
	00 00 00	 movss	 xmm1, DWORD PTR __real@3b808081

; 889  :     g = f * (FLOAT) (unsigned char) (dw >>  8);

  002d2	8b c2		 mov	 eax, edx
  002d4	c1 e9 10	 shr	 ecx, 16			; 00000010H
  002d7	0f b6 c9	 movzx	 ecx, cl
  002da	c1 e8 08	 shr	 eax, 8
  002dd	0f b6 c0	 movzx	 eax, al
  002e0	66 0f 6e c1	 movd	 xmm0, ecx
; File D:\_m2work\Server Client TMP4\ClientVS22\source\UserInterface\InstanceBase.cpp

; 828  : 			SetAddColor(dwBodyColor);

  002e4	8b cf		 mov	 ecx, edi
; File D:\_m2work\Server Client TMP4\ClientVS22\extern\include\d3dx8math.inl

; 888  :     r = f * (FLOAT) (unsigned char) (dw >> 16);

  002e6	0f 5b c0	 cvtdq2ps xmm0, xmm0
  002e9	f3 0f 59 c1	 mulss	 xmm0, xmm1
  002ed	f3 0f 11 45 dc	 movss	 DWORD PTR $T6[ebp], xmm0
  002f2	66 0f 6e c0	 movd	 xmm0, eax

; 889  :     g = f * (FLOAT) (unsigned char) (dw >>  8);

  002f6	0f 5b c0	 cvtdq2ps xmm0, xmm0

; 890  :     b = f * (FLOAT) (unsigned char) (dw >>  0);

  002f9	0f b6 c2	 movzx	 eax, dl

; 891  :     a = f * (FLOAT) (unsigned char) (dw >> 24);

  002fc	c1 ea 18	 shr	 edx, 24			; 00000018H
  002ff	f3 0f 59 c1	 mulss	 xmm0, xmm1
  00303	f3 0f 11 45 e0	 movss	 DWORD PTR $T6[ebp+4], xmm0
  00308	66 0f 6e c0	 movd	 xmm0, eax
; File D:\_m2work\Server Client TMP4\ClientVS22\source\UserInterface\InstanceBase.cpp

; 828  : 			SetAddColor(dwBodyColor);

  0030c	8d 45 dc	 lea	 eax, DWORD PTR $T6[ebp]
; File D:\_m2work\Server Client TMP4\ClientVS22\extern\include\d3dx8math.inl

; 890  :     b = f * (FLOAT) (unsigned char) (dw >>  0);

  0030f	0f 5b c0	 cvtdq2ps xmm0, xmm0
; File D:\_m2work\Server Client TMP4\ClientVS22\source\UserInterface\InstanceBase.cpp

; 828  : 			SetAddColor(dwBodyColor);

  00312	50		 push	 eax
; File D:\_m2work\Server Client TMP4\ClientVS22\extern\include\d3dx8math.inl

; 890  :     b = f * (FLOAT) (unsigned char) (dw >>  0);

  00313	f3 0f 59 c1	 mulss	 xmm0, xmm1
  00317	f3 0f 11 45 e4	 movss	 DWORD PTR $T6[ebp+8], xmm0
  0031c	66 0f 6e c2	 movd	 xmm0, edx

; 891  :     a = f * (FLOAT) (unsigned char) (dw >> 24);

  00320	0f 5b c0	 cvtdq2ps xmm0, xmm0
  00323	f3 0f 59 c1	 mulss	 xmm0, xmm1
  00327	f3 0f 11 45 e8	 movss	 DWORD PTR $T6[ebp+12], xmm0
; File D:\_m2work\Server Client TMP4\ClientVS22\source\UserInterface\InstanceBase.cpp

; 828  : 			SetAddColor(dwBodyColor);

  0032c	e8 00 00 00 00	 call	 ?SetAddColor@CInstanceBase@@QAEXABUD3DXCOLOR@@@Z ; CInstanceBase::SetAddColor
$LN17@Create:

; 829  : 		}
; 830  : 	}
; 831  : 
; 832  : 	__AttachHorseSaddle();

  00331	8b cf		 mov	 ecx, edi
  00333	e8 00 00 00 00	 call	 ?__AttachHorseSaddle@CInstanceBase@@IAEXXZ ; CInstanceBase::__AttachHorseSaddle

; 833  : 
; 834  : 	//     ,    
; 835  : 	const int c_iGuildSymbolRace = 14200;
; 836  : 	if (c_iGuildSymbolRace == GetRace())

  00338	8b cf		 mov	 ecx, edi
  0033a	e8 00 00 00 00	 call	 ?GetRace@CInstanceBase@@QAEKXZ ; CInstanceBase::GetRace
  0033f	3d 78 37 00 00	 cmp	 eax, 14200		; 00003778H
  00344	0f 85 9f 00 00
	00		 jne	 $LN82@Create

; 838  : 		std::string strFileName = GetGuildSymbolFileName(m_dwGuildID);

  0034a	8b 4f 44	 mov	 ecx, DWORD PTR [edi+68]
  0034d	e8 00 00 00 00	 call	 ?GetGuildSymbolFileName@@YAPBDK@Z ; GetGuildSymbolFileName
  00352	8b d0		 mov	 edx, eax
; File C:\Program Files\Microsoft Visual Studio\2022\Community\VC\Tools\MSVC\14.44.35207\include\xstring

; 517  :     size_type _Mysize = 0; // current length of string (size)

  00354	c7 45 d4 00 00
	00 00		 mov	 DWORD PTR _strFileName$5[ebp+16], 0
; File C:\Program Files\Microsoft Visual Studio\2022\Community\VC\Tools\MSVC\14.44.35207\include\__msvc_string_view.hpp

; 456  :             return __builtin_strlen(_First);

  0035b	8b ca		 mov	 ecx, edx
; File C:\Program Files\Microsoft Visual Studio\2022\Community\VC\Tools\MSVC\14.44.35207\include\xstring

; 518  :     size_type _Myres  = 0; // current storage reserved for string (capacity)

  0035d	c7 45 d8 00 00
	00 00		 mov	 DWORD PTR _strFileName$5[ebp+20], 0
  00364	0f 57 c0	 xorps	 xmm0, xmm0

; 493  :         _CONSTEXPR20 _Bxty() noexcept : _Buf() {} // user-provided, for fancy pointers

  00367	0f 11 45 c4	 movups	 XMMWORD PTR _strFileName$5[ebp], xmm0
; File C:\Program Files\Microsoft Visual Studio\2022\Community\VC\Tools\MSVC\14.44.35207\include\__msvc_string_view.hpp

; 456  :             return __builtin_strlen(_First);

  0036b	8d 71 01	 lea	 esi, DWORD PTR [ecx+1]
  0036e	66 90		 npad	 2
$LL100@Create:
  00370	8a 01		 mov	 al, BYTE PTR [ecx]
  00372	41		 inc	 ecx
  00373	84 c0		 test	 al, al
  00375	75 f9		 jne	 SHORT $LL100@Create
  00377	2b ce		 sub	 ecx, esi
; File C:\Program Files\Microsoft Visual Studio\2022\Community\VC\Tools\MSVC\14.44.35207\include\xstring

; 769  :         _Construct<_Construct_strategy::_From_ptr>(_Ptr, _Convert_size<size_type>(_Traits::length(_Ptr)));

  00379	51		 push	 ecx
  0037a	52		 push	 edx
  0037b	8d 4d c4	 lea	 ecx, DWORD PTR _strFileName$5[ebp]
  0037e	e8 00 00 00 00	 call	 ??$_Construct@$00PBD@?$basic_string@DU?$char_traits@D@std@@V?$allocator@D@2@@std@@AAEXQBDI@Z ; std::basic_string<char,std::char_traits<char>,std::allocator<char> >::_Construct<1,char const *>
; File D:\_m2work\Server Client TMP4\ClientVS22\source\UserInterface\InstanceBase.cpp

; 838  : 		std::string strFileName = GetGuildSymbolFileName(m_dwGuildID);

  00383	c7 45 fc 00 00
	00 00		 mov	 DWORD PTR __$EHRec$[ebp+8], 0
; File C:\Program Files\Microsoft Visual Studio\2022\Community\VC\Tools\MSVC\14.44.35207\include\xstring

; 444  :         const value_type* _Result = _Bx._Buf;

  0038a	8d 45 c4	 lea	 eax, DWORD PTR _strFileName$5[ebp]

; 453  :         return _Myres > _Small_string_capacity;

  0038d	83 7d d8 0f	 cmp	 DWORD PTR _strFileName$5[ebp+20], 15 ; 0000000fH

; 445  :         if (_Large_mode_engaged()) {

  00391	0f 47 45 c4	 cmova	 eax, DWORD PTR _strFileName$5[ebp]
; File D:\_m2work\Server Client TMP4\ClientVS22\source\UserInterface\InstanceBase.cpp

; 839  : 		if (IsFile(strFileName.c_str()))

  00395	50		 push	 eax
  00396	e8 00 00 00 00	 call	 ?IsFile@@YA_NPBD@Z	; IsFile
  0039b	83 c4 04	 add	 esp, 4
  0039e	84 c0		 test	 al, al
  003a0	74 17		 je	 SHORT $LN19@Create
; File C:\Program Files\Microsoft Visual Studio\2022\Community\VC\Tools\MSVC\14.44.35207\include\xstring

; 453  :         return _Myres > _Small_string_capacity;

  003a2	83 7d d8 0f	 cmp	 DWORD PTR _strFileName$5[ebp+20], 15 ; 0000000fH

; 444  :         const value_type* _Result = _Bx._Buf;

  003a6	8d 45 c4	 lea	 eax, DWORD PTR _strFileName$5[ebp]
; File D:\_m2work\Server Client TMP4\ClientVS22\source\UserInterface\InstanceBase.cpp

; 840  : 			m_GraphicThingInstance.ChangeMaterial(strFileName.c_str());

  003a9	8d 8f d4 01 00
	00		 lea	 ecx, DWORD PTR [edi+468]
; File C:\Program Files\Microsoft Visual Studio\2022\Community\VC\Tools\MSVC\14.44.35207\include\xstring

; 445  :         if (_Large_mode_engaged()) {

  003af	0f 47 45 c4	 cmova	 eax, DWORD PTR _strFileName$5[ebp]
; File D:\_m2work\Server Client TMP4\ClientVS22\source\UserInterface\InstanceBase.cpp

; 840  : 			m_GraphicThingInstance.ChangeMaterial(strFileName.c_str());

  003b3	50		 push	 eax
  003b4	e8 00 00 00 00	 call	 ?ChangeMaterial@CActorInstance@@QAEXPBD@Z ; CActorInstance::ChangeMaterial
$LN19@Create:
; File C:\Program Files\Microsoft Visual Studio\2022\Community\VC\Tools\MSVC\14.44.35207\include\xstring

; 453  :         return _Myres > _Small_string_capacity;

  003b9	8b 4d d8	 mov	 ecx, DWORD PTR _strFileName$5[ebp+20]
  003bc	83 f9 0f	 cmp	 ecx, 15			; 0000000fH

; 3083 :         if (_My_data._Large_mode_engaged()) {

  003bf	76 28		 jbe	 SHORT $LN82@Create
; File C:\Program Files\Microsoft Visual Studio\2022\Community\VC\Tools\MSVC\14.44.35207\include\xmemory

; 985  :         _STD _Deallocate<_New_alignof<_Ty>>(_Ptr, sizeof(_Ty) * _Count);

  003c1	8b 55 c4	 mov	 edx, DWORD PTR _strFileName$5[ebp]
; File C:\Program Files\Microsoft Visual Studio\2022\Community\VC\Tools\MSVC\14.44.35207\include\xstring

; 852  :         _Al.deallocate(_Old_ptr, _Capacity + 1); // +1 for null terminator

  003c4	41		 inc	 ecx
; File C:\Program Files\Microsoft Visual Studio\2022\Community\VC\Tools\MSVC\14.44.35207\include\xmemory

; 985  :         _STD _Deallocate<_New_alignof<_Ty>>(_Ptr, sizeof(_Ty) * _Count);

  003c5	8b c2		 mov	 eax, edx

; 284  :         if (_Bytes >= _Big_allocation_threshold) {

  003c7	81 f9 00 10 00
	00		 cmp	 ecx, 4096		; 00001000H
  003cd	72 10		 jb	 SHORT $LN90@Create

; 205  :     const uintptr_t _Ptr_container   = _Ptr_user[-1];

  003cf	8b 50 fc	 mov	 edx, DWORD PTR [eax-4]
  003d2	83 c1 23	 add	 ecx, 35			; 00000023H
  003d5	2b c2		 sub	 eax, edx

; 219  :     _STL_VERIFY(_Back_shift >= _Min_back_shift && _Back_shift <= _Non_user_size, "invalid argument");

  003d7	83 c0 fc	 add	 eax, -4			; fffffffcH
  003da	83 f8 1f	 cmp	 eax, 31			; 0000001fH
  003dd	77 2c		 ja	 SHORT $LN105@Create
$LN90@Create:

; 289  :         ::operator delete(_Ptr, _Bytes);

  003df	51		 push	 ecx
  003e0	52		 push	 edx
  003e1	e8 00 00 00 00	 call	 ??3@YAXPAXI@Z		; operator delete
  003e6	83 c4 08	 add	 esp, 8
$LN82@Create:
; File D:\_m2work\Server Client TMP4\ClientVS22\source\UserInterface\InstanceBase.cpp

; 843  : 	return true;

  003e9	b0 01		 mov	 al, 1
$LN1@Create:

; 844  : }

  003eb	8b 4d f4	 mov	 ecx, DWORD PTR __$EHRec$[ebp]
  003ee	64 89 0d 00 00
	00 00		 mov	 DWORD PTR fs:0, ecx
  003f5	59		 pop	 ecx
  003f6	5f		 pop	 edi
  003f7	5e		 pop	 esi
  003f8	8b 4d ec	 mov	 ecx, DWORD PTR __$ArrayPad$[ebp]
  003fb	33 cd		 xor	 ecx, ebp
  003fd	e8 00 00 00 00	 call	 @__security_check_cookie@4
  00402	8b e5		 mov	 esp, ebp
  00404	5d		 pop	 ebp
  00405	8b e3		 mov	 esp, ebx
  00407	5b		 pop	 ebx
  00408	c2 04 00	 ret	 4
$LN105@Create:
; File C:\Program Files\Microsoft Visual Studio\2022\Community\VC\Tools\MSVC\14.44.35207\include\xmemory

; 219  :     _STL_VERIFY(_Back_shift >= _Min_back_shift && _Back_shift <= _Non_user_size, "invalid argument");

  0040b	6a 00		 push	 0
  0040d	6a 00		 push	 0
  0040f	6a 00		 push	 0
  00411	6a 00		 push	 0
  00413	6a 00		 push	 0
  00415	e8 00 00 00 00	 call	 __invoke_watson
$LN102@Create:
  0041a	cc		 int	 3
_TEXT	ENDS
;	COMDAT text$x
text$x	SEGMENT
__unwindfunclet$?Create@CInstanceBase@@QAE_NABUSCreateData@1@@Z$0:
  00000	8d 4d c4	 lea	 ecx, DWORD PTR _strFileName$5[ebp]
  00003	e9 00 00 00 00	 jmp	 ??1?$basic_string@DU?$char_traits@D@std@@V?$allocator@D@2@@std@@QAE@XZ ; std::basic_string<char,std::char_traits<char>,std::allocator<char> >::~basic_string<char,std::char_traits<char>,std::allocator<char> >
  00008	cc		 int	 3
  00009	cc		 int	 3
  0000a	cc		 int	 3
  0000b	cc		 int	 3
  0000c	cc		 int	 3
__ehhandler$?Create@CInstanceBase@@QAE_NABUSCreateData@1@@Z:
  0000d	90		 npad	 1
  0000e	90		 npad	 1
  0000f	8b 54 24 08	 mov	 edx, DWORD PTR [esp+8]
  00013	8d 42 0c	 lea	 eax, DWORD PTR [edx+12]
  00016	8b 4a b8	 mov	 ecx, DWORD PTR [edx-72]
  00019	33 c8		 xor	 ecx, eax
  0001b	e8 00 00 00 00	 call	 @__security_check_cookie@4
  00020	8b 4a f8	 mov	 ecx, DWORD PTR [edx-8]
  00023	33 c8		 xor	 ecx, eax
  00025	e8 00 00 00 00	 call	 @__security_check_cookie@4
  0002a	b8 00 00 00 00	 mov	 eax, OFFSET __ehfuncinfo$?Create@CInstanceBase@@QAE_NABUSCreateData@1@@Z
  0002f	e9 00 00 00 00	 jmp	 ___CxxFrameHandler3
text$x	ENDS
?Create@CInstanceBase@@QAE_NABUSCreateData@1@@Z ENDP	; CInstanceBase::Create
; Function compile flags: /Ogtp
; File D:\_m2work\Server Client TMP4\ClientVS22\source\UserInterface\InstanceBase.cpp
; File C:\Program Files\Microsoft Visual Studio\2022\Community\VC\Tools\MSVC\14.44.35207\include\xstring
; File D:\_m2work\Server Client TMP4\ClientVS22\source\UserInterface\InstanceBase.cpp
;	COMDAT ?__Create_SetName@CInstanceBase@@IAEXABUSCreateData@1@@Z
_TEXT	SEGMENT
_c_rkCreateData$ = 8					; size = 4
?__Create_SetName@CInstanceBase@@IAEXABUSCreateData@1@@Z PROC ; CInstanceBase::__Create_SetName, COMDAT
; _this$ = ecx

; 848  : {

  00000	55		 push	 ebp
  00001	8b ec		 mov	 ebp, esp
  00003	56		 push	 esi
  00004	8b f1		 mov	 esi, ecx

; 849  : 	if (IsGoto())

  00006	e8 00 00 00 00	 call	 ?IsGoto@CInstanceBase@@QAEHXZ ; CInstanceBase::IsGoto
  0000b	8b ce		 mov	 ecx, esi
  0000d	85 c0		 test	 eax, eax
  0000f	74 11		 je	 SHORT $LN2@Create_Set

; 850  : 	{
; 851  : 		SetNameString("", 0);

  00011	6a 00		 push	 0
  00013	68 00 00 00 00	 push	 OFFSET ??_C@_00CNPNBAHC@@

; 861  : }

  00018	e8 00 00 00 00	 call	 ?SetNameString@CInstanceBase@@QAEXPBDH@Z ; CInstanceBase::SetNameString
  0001d	5e		 pop	 esi
  0001e	5d		 pop	 ebp
  0001f	c2 04 00	 ret	 4
$LN2@Create_Set:

; 852  : 		return;
; 853  : 	}
; 854  : 	if (IsWarp())

  00022	e8 00 00 00 00	 call	 ?IsWarp@CInstanceBase@@QAEHXZ ; CInstanceBase::IsWarp
  00027	85 c0		 test	 eax, eax
  00029	74 0f		 je	 SHORT $LN3@Create_Set

; 855  : 	{
; 856  : 		__Create_SetWarpName(c_rkCreateData);

  0002b	ff 75 08	 push	 DWORD PTR _c_rkCreateData$[ebp]
  0002e	8b ce		 mov	 ecx, esi
  00030	e8 00 00 00 00	 call	 ?__Create_SetWarpName@CInstanceBase@@IAEXABUSCreateData@1@@Z ; CInstanceBase::__Create_SetWarpName

; 861  : }

  00035	5e		 pop	 esi
  00036	5d		 pop	 ebp
  00037	c2 04 00	 ret	 4
$LN3@Create_Set:

; 860  : 	SetNameString(c_rkCreateData.m_stName.c_str(), c_rkCreateData.m_stName.length());

  0003a	8b 45 08	 mov	 eax, DWORD PTR _c_rkCreateData$[ebp]
  0003d	8b 48 5c	 mov	 ecx, DWORD PTR [eax+92]
; File C:\Program Files\Microsoft Visual Studio\2022\Community\VC\Tools\MSVC\14.44.35207\include\xstring

; 2356 :         return _Mypair._Myval2._Myptr();

  00040	83 c0 4c	 add	 eax, 76			; 0000004cH

; 453  :         return _Myres > _Small_string_capacity;

  00043	83 78 14 0f	 cmp	 DWORD PTR [eax+20], 15	; 0000000fH

; 445  :         if (_Large_mode_engaged()) {

  00047	76 02		 jbe	 SHORT $LN9@Create_Set

; 446  :             _Result = _Unfancy(_Bx._Ptr);

  00049	8b 00		 mov	 eax, DWORD PTR [eax]
$LN9@Create_Set:
; File D:\_m2work\Server Client TMP4\ClientVS22\source\UserInterface\InstanceBase.cpp

; 860  : 	SetNameString(c_rkCreateData.m_stName.c_str(), c_rkCreateData.m_stName.length());

  0004b	51		 push	 ecx
  0004c	50		 push	 eax
  0004d	8b ce		 mov	 ecx, esi

; 861  : }

  0004f	e8 00 00 00 00	 call	 ?SetNameString@CInstanceBase@@QAEXPBDH@Z ; CInstanceBase::SetNameString
  00054	5e		 pop	 esi
  00055	5d		 pop	 ebp
  00056	c2 04 00	 ret	 4
?__Create_SetName@CInstanceBase@@IAEXABUSCreateData@1@@Z ENDP ; CInstanceBase::__Create_SetName
_TEXT	ENDS
; Function compile flags: /Ogtp
; File D:\_m2work\Server Client TMP4\ClientVS22\source\UserInterface\InstanceBase.cpp
; File C:\Program Files\Microsoft Visual Studio\2022\Community\VC\Tools\MSVC\14.44.35207\include\__msvc_string_view.hpp
; File C:\Program Files\Microsoft Visual Studio\2022\Community\VC\Tools\MSVC\14.44.35207\include\xstring
; File C:\Program Files\Microsoft Visual Studio\2022\Community\VC\Tools\MSVC\14.44.35207\include\__msvc_string_view.hpp
; File C:\Program Files\Microsoft Visual Studio\2022\Community\VC\Tools\MSVC\14.44.35207\include\xstring
; File D:\_m2work\Server Client TMP4\ClientVS22\source\UserInterface\InstanceBase.cpp
; File C:\Program Files\Microsoft Visual Studio\2022\Community\VC\Tools\MSVC\14.44.35207\include\xstring
; File D:\_m2work\Server Client TMP4\ClientVS22\source\UserInterface\InstanceBase.cpp
; File C:\Program Files\Microsoft Visual Studio\2022\Community\VC\Tools\MSVC\14.44.35207\include\xstring
; File D:\_m2work\Server Client TMP4\ClientVS22\source\UserInterface\InstanceBase.cpp
; File C:\Program Files\Microsoft Visual Studio\2022\Community\VC\Tools\MSVC\14.44.35207\include\xstring
; File D:\_m2work\Server Client TMP4\ClientVS22\source\UserInterface\InstanceBase.cpp
; File C:\Program Files\Microsoft Visual Studio\2022\Community\VC\Tools\MSVC\14.44.35207\include\xstring
; File C:\Program Files\Microsoft Visual Studio\2022\Community\VC\Tools\MSVC\14.44.35207\include\xmemory
; File C:\Program Files\Microsoft Visual Studio\2022\Community\VC\Tools\MSVC\14.44.35207\include\xstring
; File C:\Program Files\Microsoft Visual Studio\2022\Community\VC\Tools\MSVC\14.44.35207\include\xmemory
; File D:\_m2work\Server Client TMP4\ClientVS22\source\UserInterface\InstanceBase.cpp
; File C:\Program Files\Microsoft Visual Studio\2022\Community\VC\Tools\MSVC\14.44.35207\include\xstring
; File D:\_m2work\Server Client TMP4\ClientVS22\source\UserInterface\InstanceBase.cpp
; File C:\Program Files\Microsoft Visual Studio\2022\Community\VC\Tools\MSVC\14.44.35207\include\xmemory
; File D:\_m2work\Server Client TMP4\ClientVS22\source\UserInterface\InstanceBase.cpp
;	COMDAT ?__Create_SetWarpName@CInstanceBase@@IAEXABUSCreateData@1@@Z
_TEXT	SEGMENT
_c_szName$ = -48					; size = 4
_strName$2 = -44					; size = 24
__$ArrayPad$ = -20					; size = 4
__$EHRec$ = -12						; size = 12
_c_rkCreateData$ = 8					; size = 4
?__Create_SetWarpName@CInstanceBase@@IAEXABUSCreateData@1@@Z PROC ; CInstanceBase::__Create_SetWarpName, COMDAT
; _this$ = ecx

; 864  : {

  00000	53		 push	 ebx
  00001	8b dc		 mov	 ebx, esp
  00003	83 ec 08	 sub	 esp, 8
  00006	83 e4 f8	 and	 esp, -8			; fffffff8H
  00009	83 c4 04	 add	 esp, 4
  0000c	55		 push	 ebp
  0000d	8b 6b 04	 mov	 ebp, DWORD PTR [ebx+4]
  00010	89 6c 24 04	 mov	 DWORD PTR [esp+4], ebp
  00014	8b ec		 mov	 ebp, esp
  00016	6a ff		 push	 -1
  00018	68 00 00 00 00	 push	 __ehhandler$?__Create_SetWarpName@CInstanceBase@@IAEXABUSCreateData@1@@Z
  0001d	64 a1 00 00 00
	00		 mov	 eax, DWORD PTR fs:0
  00023	50		 push	 eax
  00024	53		 push	 ebx
  00025	83 ec 20	 sub	 esp, 32			; 00000020H
  00028	a1 00 00 00 00	 mov	 eax, DWORD PTR ___security_cookie
  0002d	33 c5		 xor	 eax, ebp
  0002f	89 45 ec	 mov	 DWORD PTR __$ArrayPad$[ebp], eax
  00032	56		 push	 esi
  00033	57		 push	 edi
  00034	50		 push	 eax
  00035	8d 45 f4	 lea	 eax, DWORD PTR __$EHRec$[ebp]
  00038	64 a3 00 00 00
	00		 mov	 DWORD PTR fs:0, eax
  0003e	8b f9		 mov	 edi, ecx
  00040	8b 73 08	 mov	 esi, DWORD PTR _c_rkCreateData$[ebx]

; 865  : 	const char * c_szName;
; 866  : 	if (CPythonNonPlayer::Instance().GetName(c_rkCreateData.m_dwRace, &c_szName))

  00043	8d 45 d0	 lea	 eax, DWORD PTR _c_szName$[ebp]
  00046	8b 0d 00 00 00
	00		 mov	 ecx, DWORD PTR ?ms_singleton@?$CSingleton@VCPythonNonPlayer@@@@0PAVCPythonNonPlayer@@A ; CSingleton<CPythonNonPlayer>::ms_singleton
  0004c	50		 push	 eax
  0004d	ff 76 18	 push	 DWORD PTR [esi+24]
  00050	e8 00 00 00 00	 call	 ?GetName@CPythonNonPlayer@@QAE_NKPAPBD@Z ; CPythonNonPlayer::GetName
  00055	84 c0		 test	 al, al
  00057	0f 84 d0 00 00
	00		 je	 $LN2@Create_Set
; File C:\Program Files\Microsoft Visual Studio\2022\Community\VC\Tools\MSVC\14.44.35207\include\__msvc_string_view.hpp

; 456  :             return __builtin_strlen(_First);

  0005d	8b 55 d0	 mov	 edx, DWORD PTR _c_szName$[ebp]
  00060	0f 57 c0	 xorps	 xmm0, xmm0
  00063	8b ca		 mov	 ecx, edx
; File C:\Program Files\Microsoft Visual Studio\2022\Community\VC\Tools\MSVC\14.44.35207\include\xstring

; 517  :     size_type _Mysize = 0; // current length of string (size)

  00065	c7 45 e4 00 00
	00 00		 mov	 DWORD PTR _strName$2[ebp+16], 0

; 493  :         _CONSTEXPR20 _Bxty() noexcept : _Buf() {} // user-provided, for fancy pointers

  0006c	0f 11 45 d4	 movups	 XMMWORD PTR _strName$2[ebp], xmm0

; 518  :     size_type _Myres  = 0; // current storage reserved for string (capacity)

  00070	c7 45 e8 00 00
	00 00		 mov	 DWORD PTR _strName$2[ebp+20], 0
; File C:\Program Files\Microsoft Visual Studio\2022\Community\VC\Tools\MSVC\14.44.35207\include\__msvc_string_view.hpp

; 456  :             return __builtin_strlen(_First);

  00077	8d 71 01	 lea	 esi, DWORD PTR [ecx+1]
  0007a	66 0f 1f 44 00
	00		 npad	 6
$LL137@Create_Set:
  00080	8a 01		 mov	 al, BYTE PTR [ecx]
  00082	41		 inc	 ecx
  00083	84 c0		 test	 al, al
  00085	75 f9		 jne	 SHORT $LL137@Create_Set
  00087	2b ce		 sub	 ecx, esi
; File C:\Program Files\Microsoft Visual Studio\2022\Community\VC\Tools\MSVC\14.44.35207\include\xstring

; 769  :         _Construct<_Construct_strategy::_From_ptr>(_Ptr, _Convert_size<size_type>(_Traits::length(_Ptr)));

  00089	51		 push	 ecx
  0008a	52		 push	 edx
  0008b	8d 4d d4	 lea	 ecx, DWORD PTR _strName$2[ebp]
  0008e	e8 00 00 00 00	 call	 ??$_Construct@$00PBD@?$basic_string@DU?$char_traits@D@std@@V?$allocator@D@2@@std@@AAEXQBDI@Z ; std::basic_string<char,std::char_traits<char>,std::allocator<char> >::_Construct<1,char const *>
; File D:\_m2work\Server Client TMP4\ClientVS22\source\UserInterface\InstanceBase.cpp

; 868  : 		std::string strName = c_szName;

  00093	c7 45 fc 00 00
	00 00		 mov	 DWORD PTR __$EHRec$[ebp+8], 0
; File C:\Program Files\Microsoft Visual Studio\2022\Community\VC\Tools\MSVC\14.44.35207\include\xstring

; 444  :         const value_type* _Result = _Bx._Buf;

  0009a	8d 4d d4	 lea	 ecx, DWORD PTR _strName$2[ebp]

; 453  :         return _Myres > _Small_string_capacity;

  0009d	83 7d e8 0f	 cmp	 DWORD PTR _strName$2[ebp+20], 15 ; 0000000fH

; 2697 :         return static_cast<size_type>(_Traits_find_first_of<_Traits>(

  000a1	8b 55 e4	 mov	 edx, DWORD PTR _strName$2[ebp+16]

; 445  :         if (_Large_mode_engaged()) {

  000a4	0f 47 4d d4	 cmova	 ecx, DWORD PTR _strName$2[ebp]

; 2697 :         return static_cast<size_type>(_Traits_find_first_of<_Traits>(

  000a8	6a 01		 push	 1
  000aa	68 00 00 00 00	 push	 OFFSET ??_C@_01CLKCMJKC@?5@
  000af	6a 00		 push	 0
  000b1	e8 00 00 00 00	 call	 ??$_Traits_find_first_of@U?$char_traits@D@std@@@std@@YAIQBDII0I@Z ; std::_Traits_find_first_of<std::char_traits<char> >
  000b6	83 c4 0c	 add	 esp, 12			; 0000000cH
; File D:\_m2work\Server Client TMP4\ClientVS22\source\UserInterface\InstanceBase.cpp

; 870  : 		if (iFindingPos > 0)

  000b9	85 c0		 test	 eax, eax
  000bb	7e 28		 jle	 SHORT $LN72@Create_Set
; File C:\Program Files\Microsoft Visual Studio\2022\Community\VC\Tools\MSVC\14.44.35207\include\xstring

; 2389 :         if (_New_size <= _Old_size) {

  000bd	8b 4d e4	 mov	 ecx, DWORD PTR _strName$2[ebp+16]
  000c0	3b c1		 cmp	 eax, ecx
  000c2	77 14		 ja	 SHORT $LN71@Create_Set

; 453  :         return _Myres > _Small_string_capacity;

  000c4	83 7d e8 0f	 cmp	 DWORD PTR _strName$2[ebp+20], 15 ; 0000000fH

; 435  :         value_type* _Result = _Bx._Buf;

  000c8	8d 4d d4	 lea	 ecx, DWORD PTR _strName$2[ebp]

; 3076 :         _Mypair._Myval2._Mysize = _New_size;

  000cb	89 45 e4	 mov	 DWORD PTR _strName$2[ebp+16], eax

; 436  :         if (_Large_mode_engaged()) {

  000ce	0f 47 4d d4	 cmova	 ecx, DWORD PTR _strName$2[ebp]

; 3077 :         _Traits::assign(_Mypair._Myval2._Myptr()[_New_size], _Elem());

  000d2	c6 04 01 00	 mov	 BYTE PTR [ecx+eax], 0

; 2391 :         } else {

  000d6	eb 0d		 jmp	 SHORT $LN72@Create_Set
$LN71@Create_Set:

; 2392 :             append(_New_size - _Old_size, _Ch);

  000d8	2b c1		 sub	 eax, ecx
  000da	8d 4d d4	 lea	 ecx, DWORD PTR _strName$2[ebp]
  000dd	6a 00		 push	 0
  000df	50		 push	 eax
  000e0	e8 00 00 00 00	 call	 ?append@?$basic_string@DU?$char_traits@D@std@@V?$allocator@D@2@@std@@QAEAAV12@ID@Z ; std::basic_string<char,std::char_traits<char>,std::allocator<char> >::append
$LN72@Create_Set:

; 453  :         return _Myres > _Small_string_capacity;

  000e5	83 7d e8 0f	 cmp	 DWORD PTR _strName$2[ebp+20], 15 ; 0000000fH

; 444  :         const value_type* _Result = _Bx._Buf;

  000e9	8d 45 d4	 lea	 eax, DWORD PTR _strName$2[ebp]
; File D:\_m2work\Server Client TMP4\ClientVS22\source\UserInterface\InstanceBase.cpp

; 874  : 		SetNameString(strName.c_str(), strName.length());

  000ec	ff 75 e4	 push	 DWORD PTR _strName$2[ebp+16]
; File C:\Program Files\Microsoft Visual Studio\2022\Community\VC\Tools\MSVC\14.44.35207\include\xstring

; 445  :         if (_Large_mode_engaged()) {

  000ef	0f 47 45 d4	 cmova	 eax, DWORD PTR _strName$2[ebp]
; File D:\_m2work\Server Client TMP4\ClientVS22\source\UserInterface\InstanceBase.cpp

; 874  : 		SetNameString(strName.c_str(), strName.length());

  000f3	8b cf		 mov	 ecx, edi
  000f5	50		 push	 eax
  000f6	e8 00 00 00 00	 call	 ?SetNameString@CInstanceBase@@QAEXPBDH@Z ; CInstanceBase::SetNameString
; File C:\Program Files\Microsoft Visual Studio\2022\Community\VC\Tools\MSVC\14.44.35207\include\xstring

; 453  :         return _Myres > _Small_string_capacity;

  000fb	8b 4d e8	 mov	 ecx, DWORD PTR _strName$2[ebp+20]
  000fe	83 f9 0f	 cmp	 ecx, 15			; 0000000fH

; 3083 :         if (_My_data._Large_mode_engaged()) {

  00101	76 40		 jbe	 SHORT $LN3@Create_Set
; File C:\Program Files\Microsoft Visual Studio\2022\Community\VC\Tools\MSVC\14.44.35207\include\xmemory

; 985  :         _STD _Deallocate<_New_alignof<_Ty>>(_Ptr, sizeof(_Ty) * _Count);

  00103	8b 55 d4	 mov	 edx, DWORD PTR _strName$2[ebp]
; File C:\Program Files\Microsoft Visual Studio\2022\Community\VC\Tools\MSVC\14.44.35207\include\xstring

; 852  :         _Al.deallocate(_Old_ptr, _Capacity + 1); // +1 for null terminator

  00106	41		 inc	 ecx
; File C:\Program Files\Microsoft Visual Studio\2022\Community\VC\Tools\MSVC\14.44.35207\include\xmemory

; 985  :         _STD _Deallocate<_New_alignof<_Ty>>(_Ptr, sizeof(_Ty) * _Count);

  00107	8b c2		 mov	 eax, edx

; 284  :         if (_Bytes >= _Big_allocation_threshold) {

  00109	81 f9 00 10 00
	00		 cmp	 ecx, 4096		; 00001000H
  0010f	72 10		 jb	 SHORT $LN120@Create_Set

; 205  :     const uintptr_t _Ptr_container   = _Ptr_user[-1];

  00111	8b 50 fc	 mov	 edx, DWORD PTR [eax-4]
  00114	83 c1 23	 add	 ecx, 35			; 00000023H
  00117	2b c2		 sub	 eax, edx

; 219  :     _STL_VERIFY(_Back_shift >= _Min_back_shift && _Back_shift <= _Non_user_size, "invalid argument");

  00119	83 c0 fc	 add	 eax, -4			; fffffffcH
  0011c	83 f8 1f	 cmp	 eax, 31			; 0000001fH
  0011f	77 42		 ja	 SHORT $LN141@Create_Set
$LN120@Create_Set:

; 289  :         ::operator delete(_Ptr, _Bytes);

  00121	51		 push	 ecx
  00122	52		 push	 edx
  00123	e8 00 00 00 00	 call	 ??3@YAXPAXI@Z		; operator delete
  00128	83 c4 08	 add	 esp, 8
; File D:\_m2work\Server Client TMP4\ClientVS22\source\UserInterface\InstanceBase.cpp

; 875  : 	}

  0012b	eb 16		 jmp	 SHORT $LN3@Create_Set
$LN2@Create_Set:
; File C:\Program Files\Microsoft Visual Studio\2022\Community\VC\Tools\MSVC\14.44.35207\include\xstring

; 453  :         return _Myres > _Small_string_capacity;

  0012d	83 7e 60 0f	 cmp	 DWORD PTR [esi+96], 15	; 0000000fH

; 2356 :         return _Mypair._Myval2._Myptr();

  00131	8d 46 4c	 lea	 eax, DWORD PTR [esi+76]

; 445  :         if (_Large_mode_engaged()) {

  00134	76 02		 jbe	 SHORT $LN131@Create_Set

; 446  :             _Result = _Unfancy(_Bx._Ptr);

  00136	8b 00		 mov	 eax, DWORD PTR [eax]
$LN131@Create_Set:
; File D:\_m2work\Server Client TMP4\ClientVS22\source\UserInterface\InstanceBase.cpp

; 878  : 		SetNameString(c_rkCreateData.m_stName.c_str(), c_rkCreateData.m_stName.length());

  00138	ff 76 5c	 push	 DWORD PTR [esi+92]
  0013b	8b cf		 mov	 ecx, edi
  0013d	50		 push	 eax
  0013e	e8 00 00 00 00	 call	 ?SetNameString@CInstanceBase@@QAEXPBDH@Z ; CInstanceBase::SetNameString
$LN3@Create_Set:

; 880  : }

  00143	8b 4d f4	 mov	 ecx, DWORD PTR __$EHRec$[ebp]
  00146	64 89 0d 00 00
	00 00		 mov	 DWORD PTR fs:0, ecx
  0014d	59		 pop	 ecx
  0014e	5f		 pop	 edi
  0014f	5e		 pop	 esi
  00150	8b 4d ec	 mov	 ecx, DWORD PTR __$ArrayPad$[ebp]
  00153	33 cd		 xor	 ecx, ebp
  00155	e8 00 00 00 00	 call	 @__security_check_cookie@4
  0015a	8b e5		 mov	 esp, ebp
  0015c	5d		 pop	 ebp
  0015d	8b e3		 mov	 esp, ebx
  0015f	5b		 pop	 ebx
  00160	c2 04 00	 ret	 4
$LN141@Create_Set:
; File C:\Program Files\Microsoft Visual Studio\2022\Community\VC\Tools\MSVC\14.44.35207\include\xmemory

; 219  :     _STL_VERIFY(_Back_shift >= _Min_back_shift && _Back_shift <= _Non_user_size, "invalid argument");

  00163	6a 00		 push	 0
  00165	6a 00		 push	 0
  00167	6a 00		 push	 0
  00169	6a 00		 push	 0
  0016b	6a 00		 push	 0
  0016d	e8 00 00 00 00	 call	 __invoke_watson
$LN139@Create_Set:
  00172	cc		 int	 3
_TEXT	ENDS
;	COMDAT text$x
text$x	SEGMENT
__unwindfunclet$?__Create_SetWarpName@CInstanceBase@@IAEXABUSCreateData@1@@Z$0:
  00000	8d 4d d4	 lea	 ecx, DWORD PTR _strName$2[ebp]
  00003	e9 00 00 00 00	 jmp	 ??1?$basic_string@DU?$char_traits@D@std@@V?$allocator@D@2@@std@@QAE@XZ ; std::basic_string<char,std::char_traits<char>,std::allocator<char> >::~basic_string<char,std::char_traits<char>,std::allocator<char> >
  00008	cc		 int	 3
  00009	cc		 int	 3
  0000a	cc		 int	 3
  0000b	cc		 int	 3
  0000c	cc		 int	 3
__ehhandler$?__Create_SetWarpName@CInstanceBase@@IAEXABUSCreateData@1@@Z:
  0000d	90		 npad	 1
  0000e	90		 npad	 1
  0000f	8b 54 24 08	 mov	 edx, DWORD PTR [esp+8]
  00013	8d 42 0c	 lea	 eax, DWORD PTR [edx+12]
  00016	8b 4a d0	 mov	 ecx, DWORD PTR [edx-48]
  00019	33 c8		 xor	 ecx, eax
  0001b	e8 00 00 00 00	 call	 @__security_check_cookie@4
  00020	8b 4a f8	 mov	 ecx, DWORD PTR [edx-8]
  00023	33 c8		 xor	 ecx, eax
  00025	e8 00 00 00 00	 call	 @__security_check_cookie@4
  0002a	b8 00 00 00 00	 mov	 eax, OFFSET __ehfuncinfo$?__Create_SetWarpName@CInstanceBase@@IAEXABUSCreateData@1@@Z
  0002f	e9 00 00 00 00	 jmp	 ___CxxFrameHandler3
text$x	ENDS
?__Create_SetWarpName@CInstanceBase@@IAEXABUSCreateData@1@@Z ENDP ; CInstanceBase::__Create_SetWarpName
; Function compile flags: /Ogtp
; File D:\_m2work\Server Client TMP4\ClientVS22\source\UserInterface\InstanceBase.cpp
;	COMDAT ?SetNameString@CInstanceBase@@QAEXPBDH@Z
_TEXT	SEGMENT
_c_szName$ = 8						; size = 4
_len$ = 12						; size = 4
?SetNameString@CInstanceBase@@QAEXPBDH@Z PROC		; CInstanceBase::SetNameString, COMDAT
; _this$ = ecx

; 883  : {

  00000	55		 push	 ebp
  00001	8b ec		 mov	 ebp, esp

; 884  : 	m_stName.assign(c_szName, len);

  00003	83 c1 10	 add	 ecx, 16			; 00000010H

; 885  : }

  00006	5d		 pop	 ebp

; 884  : 	m_stName.assign(c_szName, len);

  00007	e9 00 00 00 00	 jmp	 ?assign@?$basic_string@DU?$char_traits@D@std@@V?$allocator@D@2@@std@@QAEAAV12@QBDI@Z ; std::basic_string<char,std::char_traits<char>,std::allocator<char> >::assign
?SetNameString@CInstanceBase@@QAEXPBDH@Z ENDP		; CInstanceBase::SetNameString
_TEXT	ENDS
; Function compile flags: /Ogtp
; File D:\_m2work\Server Client TMP4\ClientVS22\source\UserInterface\InstanceBase.cpp
;	COMDAT ?SetRace@CInstanceBase@@QAE_NK@Z
_TEXT	SEGMENT
_eRace$ = 8						; size = 4
?SetRace@CInstanceBase@@QAE_NK@Z PROC			; CInstanceBase::SetRace, COMDAT
; _this$ = ecx

; 889  : {

  00000	55		 push	 ebp
  00001	8b ec		 mov	 ebp, esp

; 890  : 	m_dwRace = eRace;

  00003	8b 45 08	 mov	 eax, DWORD PTR _eRace$[ebp]
  00006	56		 push	 esi
  00007	8b f1		 mov	 esi, ecx

; 891  : 
; 892  : 	if (!m_GraphicThingInstance.SetRace(eRace))

  00009	50		 push	 eax
  0000a	8d 8e d4 01 00
	00		 lea	 ecx, DWORD PTR [esi+468]
  00010	89 86 64 01 00
	00		 mov	 DWORD PTR [esi+356], eax
  00016	e8 00 00 00 00	 call	 ?SetRace@CActorInstance@@QAE_NK@Z ; CActorInstance::SetRace
  0001b	84 c0		 test	 al, al
  0001d	75 05		 jne	 SHORT $LN2@SetRace
  0001f	5e		 pop	 esi

; 899  : }

  00020	5d		 pop	 ebp
  00021	c2 04 00	 ret	 4
$LN2@SetRace:
  00024	57		 push	 edi

; 893  : 		return false;
; 894  : 
; 895  : 	if (!__FindRaceType(m_dwRace, &m_eRaceType))

  00025	8d be 5d 01 00
	00		 lea	 edi, DWORD PTR [esi+349]
  0002b	57		 push	 edi
  0002c	ff b6 64 01 00
	00		 push	 DWORD PTR [esi+356]
  00032	e8 00 00 00 00	 call	 ?__FindRaceType@CInstanceBase@@IAE_NKPAE@Z ; CInstanceBase::__FindRaceType
  00037	84 c0		 test	 al, al
  00039	75 03		 jne	 SHORT $LN3@SetRace

; 896  : 		m_eRaceType=CActorInstance::TYPE_PC;

  0003b	c6 07 06	 mov	 BYTE PTR [edi], 6
$LN3@SetRace:

; 897  : 
; 898  : 	return true;

  0003e	5f		 pop	 edi
  0003f	b0 01		 mov	 al, 1
  00041	5e		 pop	 esi

; 899  : }

  00042	5d		 pop	 ebp
  00043	c2 04 00	 ret	 4
?SetRace@CInstanceBase@@QAE_NK@Z ENDP			; CInstanceBase::SetRace
_TEXT	ENDS
; Function compile flags: /Ogtp
; File D:\_m2work\Server Client TMP4\ClientVS22\source\UserInterface\InstanceBase.cpp
;	COMDAT ?__IsChangableWeapon@CInstanceBase@@IAEHH@Z
_TEXT	SEGMENT
_c_iBouquets$1 = -20					; size = 20
_iWeaponID$ = 8						; size = 4
?__IsChangableWeapon@CInstanceBase@@IAEHH@Z PROC	; CInstanceBase::__IsChangableWeapon, COMDAT
; _this$ = ecx

; 902  : {	

  00000	55		 push	 ebp
  00001	8b ec		 mov	 ebp, esp
  00003	83 ec 14	 sub	 esp, 20			; 00000014H

; 903  : 	//       ..
; 904  : 	if (IsWearingDress())

  00006	e8 00 00 00 00	 call	 ?IsWearingDress@CInstanceBase@@QAEHXZ ; CInstanceBase::IsWearingDress
  0000b	85 c0		 test	 eax, eax
  0000d	74 34		 je	 SHORT $LN5@IsChangabl

; 905  : 	{
; 906  : 		const int c_iBouquets[] =
; 907  : 		{
; 908  : 			50201,	// Bouquet for Assassin

  0000f	0f 28 05 00 00
	00 00		 movaps	 xmm0, XMMWORD PTR __xmm@0000c41c0000c41b0000c41a0000c419

; 909  : 			50202,	// Bouquet for Shaman
; 910  : 			50203,
; 911  : 			50204,
; 912  : 			0, // #0000545: [M2CN]     
; 913  : 		};
; 914  : 
; 915  : 		for (int i = 0; c_iBouquets[i] != 0; ++i)

  00016	33 c9		 xor	 ecx, ecx
  00018	8b 55 08	 mov	 edx, DWORD PTR _iWeaponID$[ebp]
  0001b	b8 19 c4 00 00	 mov	 eax, 50201		; 0000c419H
  00020	0f 11 45 ec	 movups	 XMMWORD PTR _c_iBouquets$1[ebp], xmm0
  00024	c7 45 fc 00 00
	00 00		 mov	 DWORD PTR _c_iBouquets$1[ebp+16], 0
  0002b	0f 1f 44 00 00	 npad	 5
$LL4@IsChangabl:

; 916  : 			if (iWeaponID == c_iBouquets[i])

  00030	3b d0		 cmp	 edx, eax
  00032	74 0f		 je	 SHORT $LN5@IsChangabl

; 909  : 			50202,	// Bouquet for Shaman
; 910  : 			50203,
; 911  : 			50204,
; 912  : 			0, // #0000545: [M2CN]     
; 913  : 		};
; 914  : 
; 915  : 		for (int i = 0; c_iBouquets[i] != 0; ++i)

  00034	8b 44 8d f0	 mov	 eax, DWORD PTR _c_iBouquets$1[ebp+ecx*4+4]
  00038	41		 inc	 ecx
  00039	85 c0		 test	 eax, eax
  0003b	75 f3		 jne	 SHORT $LL4@IsChangabl

; 923  : }

  0003d	8b e5		 mov	 esp, ebp
  0003f	5d		 pop	 ebp
  00040	c2 04 00	 ret	 4
$LN5@IsChangabl:

; 917  : 				return true;
; 918  : 
; 919  : 		return false;
; 920  : 	}
; 921  : 	else
; 922  : 		return true;

  00043	b8 01 00 00 00	 mov	 eax, 1

; 923  : }

  00048	8b e5		 mov	 esp, ebp
  0004a	5d		 pop	 ebp
  0004b	c2 04 00	 ret	 4
?__IsChangableWeapon@CInstanceBase@@IAEHH@Z ENDP	; CInstanceBase::__IsChangableWeapon
_TEXT	ENDS
; Function compile flags: /Ogtp
; File D:\_m2work\Server Client TMP4\ClientVS22\source\UserInterface\InstanceBase.cpp
;	COMDAT ?IsWearingDress@CInstanceBase@@QAEHXZ
_TEXT	SEGMENT
?IsWearingDress@CInstanceBase@@QAEHXZ PROC		; CInstanceBase::IsWearingDress, COMDAT
; _this$ = ecx

; 927  : 	const int c_iWeddingDressShape = 201;
; 928  : 	return c_iWeddingDressShape == m_eShape;

  00000	33 c0		 xor	 eax, eax
  00002	81 b9 60 01 00
	00 c9 00 00 00	 cmp	 DWORD PTR [ecx+352], 201 ; 000000c9H
  0000c	0f 94 c0	 sete	 al

; 929  : }

  0000f	c3		 ret	 0
?IsWearingDress@CInstanceBase@@QAEHXZ ENDP		; CInstanceBase::IsWearingDress
_TEXT	ENDS
; Function compile flags: /Ogtp
; File D:\_m2work\Server Client TMP4\ClientVS22\source\UserInterface\InstanceBase.cpp
;	COMDAT ?IsHoldingPickAxe@CInstanceBase@@QAEHXZ
_TEXT	SEGMENT
?IsHoldingPickAxe@CInstanceBase@@QAEHXZ PROC		; CInstanceBase::IsHoldingPickAxe, COMDAT
; _this$ = ecx

; 933  : 	const int c_iPickAxeStart = 29101;
; 934  : 	const int c_iPickAxeEnd = 29110;
; 935  : 	return m_awPart[CRaceData::PART_WEAPON] >= c_iPickAxeStart && m_awPart[CRaceData::PART_WEAPON] <= c_iPickAxeEnd;

  00000	8b 41 2c	 mov	 eax, DWORD PTR [ecx+44]
  00003	b9 09 00 00 00	 mov	 ecx, 9
  00008	2d ad 71 00 00	 sub	 eax, 29101		; 000071adH
  0000d	3b c8		 cmp	 ecx, eax
  0000f	1b c0		 sbb	 eax, eax
  00011	40		 inc	 eax

; 936  : }

  00012	c3		 ret	 0
?IsHoldingPickAxe@CInstanceBase@@QAEHXZ ENDP		; CInstanceBase::IsHoldingPickAxe
_TEXT	ENDS
; Function compile flags: /Ogtp
; File D:\_m2work\Server Client TMP4\ClientVS22\source\UserInterface\InstanceBase.cpp
;	COMDAT ?IsNewMount@CInstanceBase@@QAEHXZ
_TEXT	SEGMENT
?IsNewMount@CInstanceBase@@QAEHXZ PROC			; CInstanceBase::IsNewMount, COMDAT
; _this$ = ecx

; 940  : 	return m_kHorse.IsNewMount();

  00000	83 c1 04	 add	 ecx, 4
  00003	e8 00 00 00 00	 call	 ?IsNewMount@SHORSE@CInstanceBase@@QAE_NXZ ; CInstanceBase::SHORSE::IsNewMount
  00008	0f b6 c0	 movzx	 eax, al

; 941  : }

  0000b	c3		 ret	 0
?IsNewMount@CInstanceBase@@QAEHXZ ENDP			; CInstanceBase::IsNewMount
_TEXT	ENDS
; Function compile flags: /Ogtp
; File D:\_m2work\Server Client TMP4\ClientVS22\source\UserInterface\InstanceBase.cpp
;	COMDAT ?IsMountingHorse@CInstanceBase@@QAEHXZ
_TEXT	SEGMENT
?IsMountingHorse@CInstanceBase@@QAEHXZ PROC		; CInstanceBase::IsMountingHorse, COMDAT
; _this$ = ecx

; 945  : 	return m_kHorse.IsMounting();

  00000	83 c1 04	 add	 ecx, 4
  00003	e8 00 00 00 00	 call	 ?IsMounting@SHORSE@CInstanceBase@@QAE_NXZ ; CInstanceBase::SHORSE::IsMounting
  00008	0f b6 c0	 movzx	 eax, al

; 946  : }

  0000b	c3		 ret	 0
?IsMountingHorse@CInstanceBase@@QAEHXZ ENDP		; CInstanceBase::IsMountingHorse
_TEXT	ENDS
; Function compile flags: /Ogtp
; File D:\_m2work\Server Client TMP4\ClientVS22\source\UserInterface\InstanceBase.cpp
;	COMDAT ?MountHorse@CInstanceBase@@QAEXI@Z
_TEXT	SEGMENT
_eRace$ = 8						; size = 4
?MountHorse@CInstanceBase@@QAEXI@Z PROC			; CInstanceBase::MountHorse, COMDAT
; _this$ = ecx

; 949  : {

  00000	55		 push	 ebp
  00001	8b ec		 mov	 ebp, esp
  00003	53		 push	 ebx
  00004	56		 push	 esi
  00005	57		 push	 edi
  00006	8b f9		 mov	 edi, ecx

; 950  : 	m_kHorse.Destroy();

  00008	8d 4f 04	 lea	 ecx, DWORD PTR [edi+4]
  0000b	e8 00 00 00 00	 call	 ?Destroy@SHORSE@CInstanceBase@@QAEXXZ ; CInstanceBase::SHORSE::Destroy

; 951  : 	m_kHorse.Create(m_GraphicThingInstance.NEW_GetCurPixelPositionRef(), eRace, ms_adwCRCAffectEffect[EFFECT_HIT]);

  00010	8b 35 08 00 00
	00		 mov	 esi, DWORD PTR ?ms_adwCRCAffectEffect@CInstanceBase@@1PAKA+8
  00016	8d 8f d4 01 00
	00		 lea	 ecx, DWORD PTR [edi+468]
  0001c	e8 00 00 00 00	 call	 ?NEW_GetCurPixelPositionRef@CActorInstance@@QAEABUD3DXVECTOR3@@XZ ; CActorInstance::NEW_GetCurPixelPositionRef
  00021	56		 push	 esi
  00022	ff 75 08	 push	 DWORD PTR _eRace$[ebp]
  00025	8d 4f 04	 lea	 ecx, DWORD PTR [edi+4]
  00028	50		 push	 eax
  00029	e8 00 00 00 00	 call	 ?Create@SHORSE@CInstanceBase@@QAEXABUD3DXVECTOR3@@II@Z ; CInstanceBase::SHORSE::Create

; 952  : 
; 953  : 	SetMotionMode(CRaceMotionData::MODE_HORSE);	

  0002e	6a 09		 push	 9
  00030	8b cf		 mov	 ecx, edi
  00032	e8 00 00 00 00	 call	 ?SetMotionMode@CInstanceBase@@QAEXH@Z ; CInstanceBase::SetMotionMode

; 954  : 	SetRotationSpeed(c_fDefaultHorseRotationSpeed);

  00037	f3 0f 10 0d 00
	00 00 00	 movss	 xmm1, DWORD PTR __real@43960000
  0003f	8b cf		 mov	 ecx, edi
  00041	e8 00 00 00 00	 call	 ?SetRotationSpeed@CInstanceBase@@QAEXM@Z ; CInstanceBase::SetRotationSpeed

; 955  : 
; 956  : 	m_GraphicThingInstance.MountHorse(m_kHorse.GetActorPtr());

  00046	8d 4f 04	 lea	 ecx, DWORD PTR [edi+4]
  00049	e8 00 00 00 00	 call	 ?GetActorPtr@SHORSE@CInstanceBase@@QAEPAVCActorInstance@@XZ ; CInstanceBase::SHORSE::GetActorPtr
  0004e	50		 push	 eax
  0004f	8d 8f d4 01 00
	00		 lea	 ecx, DWORD PTR [edi+468]
  00055	e8 00 00 00 00	 call	 ?MountHorse@CActorInstance@@QAEXPAV1@@Z ; CActorInstance::MountHorse

; 957  : 	m_GraphicThingInstance.Stop();

  0005a	51		 push	 ecx
  0005b	8d 8f d4 01 00
	00		 lea	 ecx, DWORD PTR [edi+468]
  00061	c7 04 24 9a 99
	19 3e		 mov	 DWORD PTR [esp], 1041865114 ; 3e19999aH
  00068	e8 00 00 00 00	 call	 ?Stop@CActorInstance@@QAEXM@Z ; CActorInstance::Stop

; 958  : 	m_GraphicThingInstance.RefreshActorInstance();

  0006d	8d 8f d4 01 00
	00		 lea	 ecx, DWORD PTR [edi+468]
  00073	e8 00 00 00 00	 call	 ?RefreshActorInstance@CActorInstance@@QAEXXZ ; CActorInstance::RefreshActorInstance
  00078	5f		 pop	 edi
  00079	5e		 pop	 esi
  0007a	5b		 pop	 ebx

; 959  : }

  0007b	5d		 pop	 ebp
  0007c	c2 04 00	 ret	 4
?MountHorse@CInstanceBase@@QAEXI@Z ENDP			; CInstanceBase::MountHorse
_TEXT	ENDS
; Function compile flags: /Ogtp
; File D:\_m2work\Server Client TMP4\ClientVS22\source\UserInterface\InstanceBase.cpp
;	COMDAT ?DismountHorse@CInstanceBase@@QAEXXZ
_TEXT	SEGMENT
?DismountHorse@CInstanceBase@@QAEXXZ PROC		; CInstanceBase::DismountHorse, COMDAT
; _this$ = ecx

; 963  : 	m_kHorse.Destroy();

  00000	83 c1 04	 add	 ecx, 4
  00003	e9 00 00 00 00	 jmp	 ?Destroy@SHORSE@CInstanceBase@@QAEXXZ ; CInstanceBase::SHORSE::Destroy
?DismountHorse@CInstanceBase@@QAEXXZ ENDP		; CInstanceBase::DismountHorse
_TEXT	ENDS
; Function compile flags: /Ogtp
; File D:\_m2work\Server Client TMP4\ClientVS22\source\UserInterface\InstanceBase.cpp
; File C:\Program Files\Microsoft Visual Studio\2022\Community\VC\Tools\MSVC\14.44.35207\include\vector
; File D:\_m2work\Server Client TMP4\ClientVS22\source\UserInterface\InstanceBase.cpp
; File C:\Program Files\Microsoft Visual Studio\2022\Community\VC\Tools\MSVC\14.44.35207\include\vector
; File D:\_m2work\Server Client TMP4\ClientVS22\source\UserInterface\InstanceBase.cpp
; File C:\Program Files\Microsoft Visual Studio\2022\Community\VC\Tools\MSVC\14.44.35207\include\__msvc_string_view.hpp
; File D:\_m2work\Server Client TMP4\ClientVS22\source\UserInterface\InstanceBase.cpp
; File C:\Program Files\Microsoft Visual Studio\2022\Community\VC\Tools\MSVC\14.44.35207\include\__msvc_string_view.hpp
; File C:\Program Files\Microsoft Visual Studio\2022\Community\VC\Tools\MSVC\14.44.35207\include\xstring
; File D:\_m2work\Server Client TMP4\ClientVS22\source\UserInterface\InstanceBase.cpp
; File C:\Program Files\Microsoft Visual Studio\2022\Community\VC\Tools\MSVC\14.44.35207\include\xstring
; File D:\_m2work\Server Client TMP4\ClientVS22\source\UserInterface\InstanceBase.cpp
;	COMDAT ?GetInfo@CInstanceBase@@SAXPAV?$basic_string@DU?$char_traits@D@std@@V?$allocator@D@2@@std@@@Z
_TEXT	SEGMENT
_szInfo$ = -260						; size = 256
__$ArrayPad$ = -4					; size = 4
?GetInfo@CInstanceBase@@SAXPAV?$basic_string@DU?$char_traits@D@std@@V?$allocator@D@2@@std@@@Z PROC ; CInstanceBase::GetInfo, COMDAT
; _pstInfo$ = ecx

; 967  : {

  00000	55		 push	 ebp
  00001	8b ec		 mov	 ebp, esp
  00003	81 ec 04 01 00
	00		 sub	 esp, 260		; 00000104H
  00009	a1 00 00 00 00	 mov	 eax, DWORD PTR ___security_cookie
  0000e	33 c5		 xor	 eax, ebp
  00010	89 45 fc	 mov	 DWORD PTR __$ArrayPad$[ebp], eax
; File C:\Program Files\Microsoft Visual Studio\2022\Community\VC\Tools\MSVC\14.44.35207\include\vector

; 1915 :         return static_cast<size_type>(_My_data._Mylast - _My_data._Myfirst);

  00013	a1 08 00 00 00	 mov	 eax, DWORD PTR ?ms_kPool@CInstanceBase@@2V?$CDynamicPool@VCInstanceBase@@@@A+8
  00018	2b 05 04 00 00
	00		 sub	 eax, DWORD PTR ?ms_kPool@CInstanceBase@@2V?$CDynamicPool@VCInstanceBase@@@@A+4
; File D:\_m2work\Server Client TMP4\ClientVS22\source\UserInterface\InstanceBase.cpp

; 967  : {

  0001e	56		 push	 esi
; File C:\Program Files\Microsoft Visual Studio\2022\Community\VC\Tools\MSVC\14.44.35207\include\vector

; 1915 :         return static_cast<size_type>(_My_data._Mylast - _My_data._Myfirst);

  0001f	c1 f8 02	 sar	 eax, 2
; File D:\_m2work\Server Client TMP4\ClientVS22\source\UserInterface\InstanceBase.cpp

; 967  : {

  00022	8b f1		 mov	 esi, ecx

; 969  : 	sprintf(szInfo, "Inst - UC %d, RC %d Pool - %d ", 

  00024	50		 push	 eax
  00025	ff 35 00 00 00
	00		 push	 DWORD PTR ?ms_dwRenderCounter@CInstanceBase@@1KA ; CInstanceBase::ms_dwRenderCounter
  0002b	8d 85 fc fe ff
	ff		 lea	 eax, DWORD PTR _szInfo$[ebp]
  00031	ff 35 00 00 00
	00		 push	 DWORD PTR ?ms_dwUpdateCounter@CInstanceBase@@1KA ; CInstanceBase::ms_dwUpdateCounter
  00037	68 00 00 00 00	 push	 OFFSET ??_C@_0BP@PGINAIMI@Inst?5?9?5UC?5?$CFd?0?5RC?5?$CFd?5Pool?5?9?5?$CFd?5@
  0003c	50		 push	 eax
  0003d	e8 00 00 00 00	 call	 _sprintf
; File C:\Program Files\Microsoft Visual Studio\2022\Community\VC\Tools\MSVC\14.44.35207\include\__msvc_string_view.hpp

; 456  :             return __builtin_strlen(_First);

  00042	8d 85 fc fe ff
	ff		 lea	 eax, DWORD PTR _szInfo$[ebp]
; File D:\_m2work\Server Client TMP4\ClientVS22\source\UserInterface\InstanceBase.cpp

; 969  : 	sprintf(szInfo, "Inst - UC %d, RC %d Pool - %d ", 

  00048	83 c4 14	 add	 esp, 20			; 00000014H
; File C:\Program Files\Microsoft Visual Studio\2022\Community\VC\Tools\MSVC\14.44.35207\include\__msvc_string_view.hpp

; 456  :             return __builtin_strlen(_First);

  0004b	8d 50 01	 lea	 edx, DWORD PTR [eax+1]
  0004e	66 90		 npad	 2
$LL13@GetInfo:
  00050	8a 08		 mov	 cl, BYTE PTR [eax]
  00052	40		 inc	 eax
  00053	84 c9		 test	 cl, cl
  00055	75 f9		 jne	 SHORT $LL13@GetInfo
  00057	2b c2		 sub	 eax, edx
; File C:\Program Files\Microsoft Visual Studio\2022\Community\VC\Tools\MSVC\14.44.35207\include\xstring

; 1534 :         return append(_Ptr, _Convert_size<size_type>(_Traits::length(_Ptr)));

  00059	8b ce		 mov	 ecx, esi
  0005b	50		 push	 eax
  0005c	8d 85 fc fe ff
	ff		 lea	 eax, DWORD PTR _szInfo$[ebp]
  00062	50		 push	 eax
  00063	e8 00 00 00 00	 call	 ?append@?$basic_string@DU?$char_traits@D@std@@V?$allocator@D@2@@std@@QAEAAV12@QBDI@Z ; std::basic_string<char,std::char_traits<char>,std::allocator<char> >::append
; File D:\_m2work\Server Client TMP4\ClientVS22\source\UserInterface\InstanceBase.cpp

; 976  : }

  00068	8b 4d fc	 mov	 ecx, DWORD PTR __$ArrayPad$[ebp]
  0006b	33 cd		 xor	 ecx, ebp
; File C:\Program Files\Microsoft Visual Studio\2022\Community\VC\Tools\MSVC\14.44.35207\include\xstring

; 1534 :         return append(_Ptr, _Convert_size<size_type>(_Traits::length(_Ptr)));

  0006d	5e		 pop	 esi
; File D:\_m2work\Server Client TMP4\ClientVS22\source\UserInterface\InstanceBase.cpp

; 976  : }

  0006e	e8 00 00 00 00	 call	 @__security_check_cookie@4
  00073	8b e5		 mov	 esp, ebp
  00075	5d		 pop	 ebp
  00076	c3		 ret	 0
?GetInfo@CInstanceBase@@SAXPAV?$basic_string@DU?$char_traits@D@std@@V?$allocator@D@2@@std@@@Z ENDP ; CInstanceBase::GetInfo
_TEXT	ENDS
; Function compile flags: /Ogtp
; File D:\_m2work\Server Client TMP4\ClientVS22\source\UserInterface\InstanceBase.cpp
;	COMDAT ?ResetPerformanceCounter@CInstanceBase@@SAXXZ
_TEXT	SEGMENT
?ResetPerformanceCounter@CInstanceBase@@SAXXZ PROC	; CInstanceBase::ResetPerformanceCounter, COMDAT

; 980  : 	ms_dwUpdateCounter=0;

  00000	c7 05 00 00 00
	00 00 00 00 00	 mov	 DWORD PTR ?ms_dwUpdateCounter@CInstanceBase@@1KA, 0 ; CInstanceBase::ms_dwUpdateCounter

; 981  : 	ms_dwRenderCounter=0;

  0000a	c7 05 00 00 00
	00 00 00 00 00	 mov	 DWORD PTR ?ms_dwRenderCounter@CInstanceBase@@1KA, 0 ; CInstanceBase::ms_dwRenderCounter

; 982  : 	ms_dwDeformCounter=0;

  00014	c7 05 00 00 00
	00 00 00 00 00	 mov	 DWORD PTR ?ms_dwDeformCounter@CInstanceBase@@1KA, 0 ; CInstanceBase::ms_dwDeformCounter

; 983  : }

  0001e	c3		 ret	 0
?ResetPerformanceCounter@CInstanceBase@@SAXXZ ENDP	; CInstanceBase::ResetPerformanceCounter
_TEXT	ENDS
; Function compile flags: /Ogtp
; File D:\_m2work\Server Client TMP4\ClientVS22\source\UserInterface\InstanceBase.cpp
;	COMDAT ?NEW_SetDstPixelPositionZ@CInstanceBase@@IAEXM@Z
_TEXT	SEGMENT
?NEW_SetDstPixelPositionZ@CInstanceBase@@IAEXM@Z PROC	; CInstanceBase::NEW_SetDstPixelPositionZ, COMDAT
; _this$ = ecx
; _z$ = xmm1s

; 997  : 	m_GraphicThingInstance.NEW_SetDstPixelPositionZ(z);

  00000	51		 push	 ecx
  00001	81 c1 d4 01 00
	00		 add	 ecx, 468		; 000001d4H
  00007	f3 0f 11 0c 24	 movss	 DWORD PTR [esp], xmm1
  0000c	e8 00 00 00 00	 call	 ?NEW_SetDstPixelPositionZ@CActorInstance@@QAEXM@Z ; CActorInstance::NEW_SetDstPixelPositionZ

; 998  : }

  00011	c3		 ret	 0
?NEW_SetDstPixelPositionZ@CInstanceBase@@IAEXM@Z ENDP	; CInstanceBase::NEW_SetDstPixelPositionZ
_TEXT	ENDS
; Function compile flags: /Ogtp
; File D:\_m2work\Server Client TMP4\ClientVS22\source\UserInterface\InstanceBase.cpp
;	COMDAT ?NEW_SetDstPixelPosition@CInstanceBase@@IAEXABUD3DXVECTOR3@@@Z
_TEXT	SEGMENT
_c_rkPPosDst$ = 8					; size = 4
?NEW_SetDstPixelPosition@CInstanceBase@@IAEXABUD3DXVECTOR3@@@Z PROC ; CInstanceBase::NEW_SetDstPixelPosition, COMDAT
; _this$ = ecx

; 1001 : {

  00000	55		 push	 ebp
  00001	8b ec		 mov	 ebp, esp

; 1002 : 	m_GraphicThingInstance.NEW_SetDstPixelPosition(c_rkPPosDst);

  00003	81 c1 d4 01 00
	00		 add	 ecx, 468		; 000001d4H

; 1003 : }

  00009	5d		 pop	 ebp

; 1002 : 	m_GraphicThingInstance.NEW_SetDstPixelPosition(c_rkPPosDst);

  0000a	e9 00 00 00 00	 jmp	 ?NEW_SetDstPixelPosition@CActorInstance@@QAEXABUD3DXVECTOR3@@@Z ; CActorInstance::NEW_SetDstPixelPosition
?NEW_SetDstPixelPosition@CInstanceBase@@IAEXABUD3DXVECTOR3@@@Z ENDP ; CInstanceBase::NEW_SetDstPixelPosition
_TEXT	ENDS
; Function compile flags: /Ogtp
; File D:\_m2work\Server Client TMP4\ClientVS22\source\UserInterface\InstanceBase.cpp
;	COMDAT ?NEW_SetSrcPixelPosition@CInstanceBase@@IAEXABUD3DXVECTOR3@@@Z
_TEXT	SEGMENT
_c_rkPPosSrc$ = 8					; size = 4
?NEW_SetSrcPixelPosition@CInstanceBase@@IAEXABUD3DXVECTOR3@@@Z PROC ; CInstanceBase::NEW_SetSrcPixelPosition, COMDAT
; _this$ = ecx

; 1006 : {

  00000	55		 push	 ebp
  00001	8b ec		 mov	 ebp, esp

; 1007 : 	m_GraphicThingInstance.NEW_SetSrcPixelPosition(c_rkPPosSrc);

  00003	81 c1 d4 01 00
	00		 add	 ecx, 468		; 000001d4H

; 1008 : }

  00009	5d		 pop	 ebp

; 1007 : 	m_GraphicThingInstance.NEW_SetSrcPixelPosition(c_rkPPosSrc);

  0000a	e9 00 00 00 00	 jmp	 ?NEW_SetSrcPixelPosition@CActorInstance@@QAEXABUD3DXVECTOR3@@@Z ; CActorInstance::NEW_SetSrcPixelPosition
?NEW_SetSrcPixelPosition@CInstanceBase@@IAEXABUD3DXVECTOR3@@@Z ENDP ; CInstanceBase::NEW_SetSrcPixelPosition
_TEXT	ENDS
; Function compile flags: /Ogtp
; File D:\_m2work\Server Client TMP4\ClientVS22\source\UserInterface\InstanceBase.cpp
;	COMDAT ?NEW_GetCurPixelPositionRef@CInstanceBase@@IAEABUD3DXVECTOR3@@XZ
_TEXT	SEGMENT
?NEW_GetCurPixelPositionRef@CInstanceBase@@IAEABUD3DXVECTOR3@@XZ PROC ; CInstanceBase::NEW_GetCurPixelPositionRef, COMDAT
; _this$ = ecx

; 1012 : 	return m_GraphicThingInstance.NEW_GetCurPixelPositionRef();	

  00000	81 c1 d4 01 00
	00		 add	 ecx, 468		; 000001d4H
  00006	e9 00 00 00 00	 jmp	 ?NEW_GetCurPixelPositionRef@CActorInstance@@QAEABUD3DXVECTOR3@@XZ ; CActorInstance::NEW_GetCurPixelPositionRef
?NEW_GetCurPixelPositionRef@CInstanceBase@@IAEABUD3DXVECTOR3@@XZ ENDP ; CInstanceBase::NEW_GetCurPixelPositionRef
_TEXT	ENDS
; Function compile flags: /Ogtp
; File D:\_m2work\Server Client TMP4\ClientVS22\source\UserInterface\InstanceBase.cpp
;	COMDAT ?NEW_GetDstPixelPositionRef@CInstanceBase@@QAEABUD3DXVECTOR3@@XZ
_TEXT	SEGMENT
?NEW_GetDstPixelPositionRef@CInstanceBase@@QAEABUD3DXVECTOR3@@XZ PROC ; CInstanceBase::NEW_GetDstPixelPositionRef, COMDAT
; _this$ = ecx

; 1017 : 	return m_GraphicThingInstance.NEW_GetDstPixelPositionRef();

  00000	81 c1 d4 01 00
	00		 add	 ecx, 468		; 000001d4H
  00006	e9 00 00 00 00	 jmp	 ?NEW_GetDstPixelPositionRef@CActorInstance@@QAEABUD3DXVECTOR3@@XZ ; CActorInstance::NEW_GetDstPixelPositionRef
?NEW_GetDstPixelPositionRef@CInstanceBase@@QAEABUD3DXVECTOR3@@XZ ENDP ; CInstanceBase::NEW_GetDstPixelPositionRef
_TEXT	ENDS
; Function compile flags: /Ogtp
; File D:\_m2work\Server Client TMP4\ClientVS22\source\UserInterface\InstanceBase.cpp
;	COMDAT ?NEW_GetSrcPixelPositionRef@CInstanceBase@@IAEABUD3DXVECTOR3@@XZ
_TEXT	SEGMENT
?NEW_GetSrcPixelPositionRef@CInstanceBase@@IAEABUD3DXVECTOR3@@XZ PROC ; CInstanceBase::NEW_GetSrcPixelPositionRef, COMDAT
; _this$ = ecx

; 1022 : 	return m_GraphicThingInstance.NEW_GetSrcPixelPositionRef();

  00000	81 c1 d4 01 00
	00		 add	 ecx, 468		; 000001d4H
  00006	e9 00 00 00 00	 jmp	 ?NEW_GetSrcPixelPositionRef@CActorInstance@@QAEABUD3DXVECTOR3@@XZ ; CActorInstance::NEW_GetSrcPixelPositionRef
?NEW_GetSrcPixelPositionRef@CInstanceBase@@IAEABUD3DXVECTOR3@@XZ ENDP ; CInstanceBase::NEW_GetSrcPixelPositionRef
_TEXT	ENDS
; Function compile flags: /Ogtp
; File D:\_m2work\Server Client TMP4\ClientVS22\source\UserInterface\InstanceBase.cpp
;	COMDAT ?OnWaiting@CInstanceBase@@IAEXXZ
_TEXT	SEGMENT
?OnWaiting@CInstanceBase@@IAEXXZ PROC			; CInstanceBase::OnWaiting, COMDAT
; _this$ = ecx

; 1033 : 	m_GraphicThingInstance.__OnWaiting();

  00000	81 c1 d4 01 00
	00		 add	 ecx, 468		; 000001d4H
  00006	e9 00 00 00 00	 jmp	 ?__OnWaiting@CActorInstance@@QAEXXZ ; CActorInstance::__OnWaiting
?OnWaiting@CInstanceBase@@IAEXXZ ENDP			; CInstanceBase::OnWaiting
_TEXT	ENDS
; Function compile flags: /Ogtp
; File D:\_m2work\Server Client TMP4\ClientVS22\source\UserInterface\InstanceBase.cpp
;	COMDAT ?OnMoving@CInstanceBase@@IAEXXZ
_TEXT	SEGMENT
?OnMoving@CInstanceBase@@IAEXXZ PROC			; CInstanceBase::OnMoving, COMDAT
; _this$ = ecx

; 1038 : 	m_GraphicThingInstance.__OnMoving();

  00000	81 c1 d4 01 00
	00		 add	 ecx, 468		; 000001d4H
  00006	e9 00 00 00 00	 jmp	 ?__OnMoving@CActorInstance@@QAEXXZ ; CActorInstance::__OnMoving
?OnMoving@CInstanceBase@@IAEXXZ ENDP			; CInstanceBase::OnMoving
_TEXT	ENDS
; Function compile flags: /Ogtp
; File D:\_m2work\Server Client TMP4\ClientVS22\source\UserInterface\InstanceBase.cpp
;	COMDAT ?ChangeGuild@CInstanceBase@@QAEXK@Z
_TEXT	SEGMENT
_dwGuildID$ = 8						; size = 4
?ChangeGuild@CInstanceBase@@QAEXK@Z PROC		; CInstanceBase::ChangeGuild, COMDAT
; _this$ = ecx

; 1042 : {

  00000	55		 push	 ebp
  00001	8b ec		 mov	 ebp, esp

; 1043 : 	m_dwGuildID=dwGuildID;

  00003	8b 45 08	 mov	 eax, DWORD PTR _dwGuildID$[ebp]
  00006	56		 push	 esi
  00007	8b f1		 mov	 esi, ecx
  00009	89 46 44	 mov	 DWORD PTR [esi+68], eax

; 1044 : 
; 1045 : 	DetachTextTail();

  0000c	e8 00 00 00 00	 call	 ?DetachTextTail@CInstanceBase@@QAEXXZ ; CInstanceBase::DetachTextTail

; 1046 : 	AttachTextTail();

  00011	8b ce		 mov	 ecx, esi
  00013	e8 00 00 00 00	 call	 ?AttachTextTail@CInstanceBase@@QAEXXZ ; CInstanceBase::AttachTextTail

; 1047 : 	RefreshTextTail();

  00018	8b ce		 mov	 ecx, esi
  0001a	e8 00 00 00 00	 call	 ?RefreshTextTail@CInstanceBase@@QAEXXZ ; CInstanceBase::RefreshTextTail

; 1048 : }

  0001f	5e		 pop	 esi
  00020	5d		 pop	 ebp
  00021	c2 04 00	 ret	 4
?ChangeGuild@CInstanceBase@@QAEXK@Z ENDP		; CInstanceBase::ChangeGuild
_TEXT	ENDS
; Function compile flags: /Ogtp
; File D:\_m2work\Server Client TMP4\ClientVS22\source\UserInterface\InstanceBase.cpp
;	COMDAT ?GetPart@CInstanceBase@@QAEKW4EParts@CRaceData@@@Z
_TEXT	SEGMENT
_part$ = 8						; size = 4
?GetPart@CInstanceBase@@QAEKW4EParts@CRaceData@@@Z PROC	; CInstanceBase::GetPart, COMDAT
; _this$ = ecx

; 1051 : {

  00000	55		 push	 ebp
  00001	8b ec		 mov	 ebp, esp

; 1052 : 	assert(part >= 0 && part < CRaceData::PART_MAX_NUM);
; 1053 : 	return m_awPart[part];

  00003	8b 45 08	 mov	 eax, DWORD PTR _part$[ebp]
  00006	8b 44 81 28	 mov	 eax, DWORD PTR [ecx+eax*4+40]

; 1054 : }

  0000a	5d		 pop	 ebp
  0000b	c2 04 00	 ret	 4
?GetPart@CInstanceBase@@QAEKW4EParts@CRaceData@@@Z ENDP	; CInstanceBase::GetPart
_TEXT	ENDS
; Function compile flags: /Ogtp
; File D:\_m2work\Server Client TMP4\ClientVS22\source\UserInterface\InstanceBase.cpp
;	COMDAT ?GetShape@CInstanceBase@@QAEKXZ
_TEXT	SEGMENT
?GetShape@CInstanceBase@@QAEKXZ PROC			; CInstanceBase::GetShape, COMDAT
; _this$ = ecx

; 1058 : 	return m_eShape;

  00000	8b 81 60 01 00
	00		 mov	 eax, DWORD PTR [ecx+352]

; 1059 : }

  00006	c3		 ret	 0
?GetShape@CInstanceBase@@QAEKXZ ENDP			; CInstanceBase::GetShape
_TEXT	ENDS
; Function compile flags: /Ogtp
; File D:\_m2work\Server Client TMP4\ClientVS22\source\UserInterface\InstanceBase.cpp
;	COMDAT ?CanAct@CInstanceBase@@QAE_NXZ
_TEXT	SEGMENT
?CanAct@CInstanceBase@@QAE_NXZ PROC			; CInstanceBase::CanAct, COMDAT
; _this$ = ecx

; 1063 : 	return m_GraphicThingInstance.CanAct();

  00000	81 c1 d4 01 00
	00		 add	 ecx, 468		; 000001d4H
  00006	e9 00 00 00 00	 jmp	 ?CanAct@CActorInstance@@QAE_NXZ ; CActorInstance::CanAct
?CanAct@CInstanceBase@@QAE_NXZ ENDP			; CInstanceBase::CanAct
_TEXT	ENDS
; Function compile flags: /Ogtp
; File D:\_m2work\Server Client TMP4\ClientVS22\source\UserInterface\InstanceBase.cpp
;	COMDAT ?CanMove@CInstanceBase@@QAE_NXZ
_TEXT	SEGMENT
?CanMove@CInstanceBase@@QAE_NXZ PROC			; CInstanceBase::CanMove, COMDAT
; _this$ = ecx

; 1068 : 	return m_GraphicThingInstance.CanMove();

  00000	81 c1 d4 01 00
	00		 add	 ecx, 468		; 000001d4H
  00006	e9 00 00 00 00	 jmp	 ?CanMove@CActorInstance@@QAE_NXZ ; CActorInstance::CanMove
?CanMove@CInstanceBase@@QAE_NXZ ENDP			; CInstanceBase::CanMove
_TEXT	ENDS
; Function compile flags: /Ogtp
; File D:\_m2work\Server Client TMP4\ClientVS22\source\UserInterface\InstanceBase.cpp
;	COMDAT ?CanUseSkill@CInstanceBase@@QAE_NXZ
_TEXT	SEGMENT
?CanUseSkill@CInstanceBase@@QAE_NXZ PROC		; CInstanceBase::CanUseSkill, COMDAT
; _this$ = ecx

; 1072 : {

  00000	56		 push	 esi
  00001	8b f1		 mov	 esi, ecx

; 1073 : 	if (IsPoly())

  00003	e8 00 00 00 00	 call	 ?IsPoly@CInstanceBase@@QAEHXZ ; CInstanceBase::IsPoly
  00008	85 c0		 test	 eax, eax
  0000a	75 32		 jne	 SHORT $LN8@CanUseSkil

; 1074 : 		return false;
; 1075 : 
; 1076 : 	if (IsWearingDress())

  0000c	8b ce		 mov	 ecx, esi
  0000e	e8 00 00 00 00	 call	 ?IsWearingDress@CInstanceBase@@QAEHXZ ; CInstanceBase::IsWearingDress
  00013	85 c0		 test	 eax, eax
  00015	75 27		 jne	 SHORT $LN8@CanUseSkil

; 1077 : 		return false;
; 1078 : 
; 1079 : 	if (IsHoldingPickAxe())

  00017	e8 00 00 00 00	 call	 ?IsHoldingPickAxe@CInstanceBase@@QAEHXZ ; CInstanceBase::IsHoldingPickAxe
  0001c	85 c0		 test	 eax, eax
  0001e	75 1e		 jne	 SHORT $LN8@CanUseSkil

; 1080 : 		return false;
; 1081 : 
; 1082 : 	if (!m_kHorse.CanUseSkill())

  00020	8d 4e 04	 lea	 ecx, DWORD PTR [esi+4]
  00023	e8 00 00 00 00	 call	 ?CanUseSkill@SHORSE@CInstanceBase@@QAE_NXZ ; CInstanceBase::SHORSE::CanUseSkill
  00028	84 c0		 test	 al, al
  0002a	74 12		 je	 SHORT $LN8@CanUseSkil

; 1083 : 		return false;
; 1084 : 
; 1085 : 	if (!m_GraphicThingInstance.CanUseSkill())

  0002c	8d 8e d4 01 00
	00		 lea	 ecx, DWORD PTR [esi+468]
  00032	e8 00 00 00 00	 call	 ?CanUseSkill@CActorInstance@@QAE_NXZ ; CActorInstance::CanUseSkill
  00037	84 c0		 test	 al, al
  00039	5e		 pop	 esi
  0003a	0f 95 c0	 setne	 al

; 1087 : 
; 1088 : 	return true;
; 1089 : }

  0003d	c3		 ret	 0
$LN8@CanUseSkil:

; 1086 : 		return false;

  0003e	32 c0		 xor	 al, al
  00040	5e		 pop	 esi

; 1087 : 
; 1088 : 	return true;
; 1089 : }

  00041	c3		 ret	 0
?CanUseSkill@CInstanceBase@@QAE_NXZ ENDP		; CInstanceBase::CanUseSkill
_TEXT	ENDS
; Function compile flags: /Ogtp
; File D:\_m2work\Server Client TMP4\ClientVS22\source\UserInterface\InstanceBase.cpp
;	COMDAT ?CanAttack@CInstanceBase@@QAE_NXZ
_TEXT	SEGMENT
?CanAttack@CInstanceBase@@QAE_NXZ PROC			; CInstanceBase::CanAttack, COMDAT
; _this$ = ecx

; 1092 : {

  00000	56		 push	 esi
  00001	8b f1		 mov	 esi, ecx

; 1093 : 	if (!m_kHorse.CanAttack())

  00003	8d 4e 04	 lea	 ecx, DWORD PTR [esi+4]
  00006	e8 00 00 00 00	 call	 ?CanAttack@SHORSE@CInstanceBase@@QAE_NXZ ; CInstanceBase::SHORSE::CanAttack
  0000b	84 c0		 test	 al, al
  0000d	74 20		 je	 SHORT $LN6@CanAttack

; 1094 : 		return false;
; 1095 : 
; 1096 : 	if (IsWearingDress())

  0000f	8b ce		 mov	 ecx, esi
  00011	e8 00 00 00 00	 call	 ?IsWearingDress@CInstanceBase@@QAEHXZ ; CInstanceBase::IsWearingDress
  00016	85 c0		 test	 eax, eax
  00018	75 15		 jne	 SHORT $LN6@CanAttack

; 1097 : 		return false;
; 1098 : 
; 1099 : 	if (IsHoldingPickAxe())

  0001a	e8 00 00 00 00	 call	 ?IsHoldingPickAxe@CInstanceBase@@QAEHXZ ; CInstanceBase::IsHoldingPickAxe
  0001f	85 c0		 test	 eax, eax
  00021	75 0c		 jne	 SHORT $LN6@CanAttack

; 1101 : 	
; 1102 : 	return m_GraphicThingInstance.CanAttack();

  00023	8d 8e d4 01 00
	00		 lea	 ecx, DWORD PTR [esi+468]
  00029	5e		 pop	 esi
  0002a	e9 00 00 00 00	 jmp	 ?CanAttack@CActorInstance@@QAE_NXZ ; CActorInstance::CanAttack
$LN6@CanAttack:

; 1100 : 		return false;

  0002f	32 c0		 xor	 al, al
  00031	5e		 pop	 esi

; 1103 : }

  00032	c3		 ret	 0
?CanAttack@CInstanceBase@@QAE_NXZ ENDP			; CInstanceBase::CanAttack
_TEXT	ENDS
; Function compile flags: /Ogtp
; File D:\_m2work\Server Client TMP4\ClientVS22\source\UserInterface\InstanceBase.cpp
;	COMDAT ?CanFishing@CInstanceBase@@QAE_NXZ
_TEXT	SEGMENT
?CanFishing@CInstanceBase@@QAE_NXZ PROC			; CInstanceBase::CanFishing, COMDAT
; _this$ = ecx

; 1109 : 	return m_GraphicThingInstance.CanFishing();

  00000	81 c1 d4 01 00
	00		 add	 ecx, 468		; 000001d4H
  00006	e9 00 00 00 00	 jmp	 ?CanFishing@CActorInstance@@QAE_NXZ ; CActorInstance::CanFishing
?CanFishing@CInstanceBase@@QAE_NXZ ENDP			; CInstanceBase::CanFishing
_TEXT	ENDS
; Function compile flags: /Ogtp
; File D:\_m2work\Server Client TMP4\ClientVS22\source\UserInterface\InstanceBase.cpp
;	COMDAT ?IsBowMode@CInstanceBase@@QAEHXZ
_TEXT	SEGMENT
?IsBowMode@CInstanceBase@@QAEHXZ PROC			; CInstanceBase::IsBowMode, COMDAT
; _this$ = ecx

; 1115 : 	return m_GraphicThingInstance.IsBowMode();

  00000	81 c1 d4 01 00
	00		 add	 ecx, 468		; 000001d4H
  00006	e8 00 00 00 00	 call	 ?IsBowMode@CActorInstance@@QAE_NXZ ; CActorInstance::IsBowMode
  0000b	0f b6 c0	 movzx	 eax, al

; 1116 : }

  0000e	c3		 ret	 0
?IsBowMode@CInstanceBase@@QAEHXZ ENDP			; CInstanceBase::IsBowMode
_TEXT	ENDS
; Function compile flags: /Ogtp
; File D:\_m2work\Server Client TMP4\ClientVS22\source\UserInterface\InstanceBase.cpp
;	COMDAT ?IsHandMode@CInstanceBase@@QAEHXZ
_TEXT	SEGMENT
?IsHandMode@CInstanceBase@@QAEHXZ PROC			; CInstanceBase::IsHandMode, COMDAT
; _this$ = ecx

; 1120 : 	return m_GraphicThingInstance.IsHandMode();

  00000	81 c1 d4 01 00
	00		 add	 ecx, 468		; 000001d4H
  00006	e8 00 00 00 00	 call	 ?IsHandMode@CActorInstance@@QAE_NXZ ; CActorInstance::IsHandMode
  0000b	0f b6 c0	 movzx	 eax, al

; 1121 : }

  0000e	c3		 ret	 0
?IsHandMode@CInstanceBase@@QAEHXZ ENDP			; CInstanceBase::IsHandMode
_TEXT	ENDS
; Function compile flags: /Ogtp
; File D:\_m2work\Server Client TMP4\ClientVS22\source\UserInterface\InstanceBase.cpp
;	COMDAT ?IsFishingMode@CInstanceBase@@QAEHXZ
_TEXT	SEGMENT
?IsFishingMode@CInstanceBase@@QAEHXZ PROC		; CInstanceBase::IsFishingMode, COMDAT
; _this$ = ecx

; 1125 : 	if (CRaceMotionData::MODE_FISHING == m_GraphicThingInstance.GetMotionMode())

  00000	81 c1 d4 01 00
	00		 add	 ecx, 468		; 000001d4H
  00006	e8 00 00 00 00	 call	 ?GetMotionMode@CActorInstance@@QAEHXZ ; CActorInstance::GetMotionMode
  0000b	33 c9		 xor	 ecx, ecx
  0000d	83 f8 08	 cmp	 eax, 8
  00010	0f 94 c1	 sete	 cl

; 1126 : 		return true;

  00013	8b c1		 mov	 eax, ecx

; 1127 : 
; 1128 : 	return false;
; 1129 : }

  00015	c3		 ret	 0
?IsFishingMode@CInstanceBase@@QAEHXZ ENDP		; CInstanceBase::IsFishingMode
_TEXT	ENDS
; Function compile flags: /Ogtp
; File D:\_m2work\Server Client TMP4\ClientVS22\source\UserInterface\InstanceBase.cpp
;	COMDAT ?IsFishing@CInstanceBase@@QAEHXZ
_TEXT	SEGMENT
?IsFishing@CInstanceBase@@QAEHXZ PROC			; CInstanceBase::IsFishing, COMDAT
; _this$ = ecx

; 1133 : 	return m_GraphicThingInstance.IsFishing();

  00000	81 c1 d4 01 00
	00		 add	 ecx, 468		; 000001d4H
  00006	e9 00 00 00 00	 jmp	 ?IsFishing@CActorInstance@@QAEHXZ ; CActorInstance::IsFishing
?IsFishing@CInstanceBase@@QAEHXZ ENDP			; CInstanceBase::IsFishing
_TEXT	ENDS
; Function compile flags: /Ogtp
; File D:\_m2work\Server Client TMP4\ClientVS22\source\UserInterface\InstanceBase.cpp
;	COMDAT ?IsDead@CInstanceBase@@QAEHXZ
_TEXT	SEGMENT
?IsDead@CInstanceBase@@QAEHXZ PROC			; CInstanceBase::IsDead, COMDAT
; _this$ = ecx

; 1138 : 	return m_GraphicThingInstance.IsDead();

  00000	81 c1 d4 01 00
	00		 add	 ecx, 468		; 000001d4H
  00006	e9 00 00 00 00	 jmp	 ?IsDead@CActorInstance@@QAEHXZ ; CActorInstance::IsDead
?IsDead@CInstanceBase@@QAEHXZ ENDP			; CInstanceBase::IsDead
_TEXT	ENDS
; Function compile flags: /Ogtp
; File D:\_m2work\Server Client TMP4\ClientVS22\source\UserInterface\InstanceBase.cpp
;	COMDAT ?IsStun@CInstanceBase@@QAEHXZ
_TEXT	SEGMENT
?IsStun@CInstanceBase@@QAEHXZ PROC			; CInstanceBase::IsStun, COMDAT
; _this$ = ecx

; 1143 : 	return m_GraphicThingInstance.IsStun();

  00000	81 c1 d4 01 00
	00		 add	 ecx, 468		; 000001d4H
  00006	e9 00 00 00 00	 jmp	 ?IsStun@CActorInstance@@QAEHXZ ; CActorInstance::IsStun
?IsStun@CInstanceBase@@QAEHXZ ENDP			; CInstanceBase::IsStun
_TEXT	ENDS
; Function compile flags: /Ogtp
; File D:\_m2work\Server Client TMP4\ClientVS22\source\UserInterface\InstanceBase.cpp
;	COMDAT ?IsSleep@CInstanceBase@@QAEHXZ
_TEXT	SEGMENT
?IsSleep@CInstanceBase@@QAEHXZ PROC			; CInstanceBase::IsSleep, COMDAT
; _this$ = ecx

; 1148 : 	return m_GraphicThingInstance.IsSleep();

  00000	81 c1 d4 01 00
	00		 add	 ecx, 468		; 000001d4H
  00006	e9 00 00 00 00	 jmp	 ?IsSleep@CActorInstance@@QAEHXZ ; CActorInstance::IsSleep
?IsSleep@CInstanceBase@@QAEHXZ ENDP			; CInstanceBase::IsSleep
_TEXT	ENDS
; Function compile flags: /Ogtp
; File D:\_m2work\Server Client TMP4\ClientVS22\source\UserInterface\InstanceBase.cpp
;	COMDAT ?__IsSyncing@CInstanceBase@@QAEHXZ
_TEXT	SEGMENT
?__IsSyncing@CInstanceBase@@QAEHXZ PROC			; CInstanceBase::__IsSyncing, COMDAT
; _this$ = ecx

; 1154 : 	return m_GraphicThingInstance.__IsSyncing();

  00000	81 c1 d4 01 00
	00		 add	 ecx, 468		; 000001d4H
  00006	e8 00 00 00 00	 call	 ?__IsSyncing@CActorInstance@@QAE_NXZ ; CActorInstance::__IsSyncing
  0000b	0f b6 c0	 movzx	 eax, al

; 1155 : }

  0000e	c3		 ret	 0
?__IsSyncing@CInstanceBase@@QAEHXZ ENDP			; CInstanceBase::__IsSyncing
_TEXT	ENDS
; Function compile flags: /Ogtp
; File D:\_m2work\Server Client TMP4\ClientVS22\source\UserInterface\InstanceBase.cpp
;	COMDAT ?NEW_SetOwner@CInstanceBase@@QAEXK@Z
_TEXT	SEGMENT
_dwVIDOwner$ = 8					; size = 4
?NEW_SetOwner@CInstanceBase@@QAEXK@Z PROC		; CInstanceBase::NEW_SetOwner, COMDAT
; _this$ = ecx

; 1160 : {

  00000	55		 push	 ebp
  00001	8b ec		 mov	 ebp, esp

; 1161 : 	m_GraphicThingInstance.SetOwner(dwVIDOwner);

  00003	81 c1 d4 01 00
	00		 add	 ecx, 468		; 000001d4H

; 1162 : }

  00009	5d		 pop	 ebp

; 1161 : 	m_GraphicThingInstance.SetOwner(dwVIDOwner);

  0000a	e9 00 00 00 00	 jmp	 ?SetOwner@CActorInstance@@QAEXK@Z ; CActorInstance::SetOwner
?NEW_SetOwner@CInstanceBase@@QAEXK@Z ENDP		; CInstanceBase::NEW_SetOwner
_TEXT	ENDS
; Function compile flags: /Ogtp
; File D:\_m2work\Server Client TMP4\ClientVS22\source\UserInterface\InstanceBase.cpp
;	COMDAT ?PushTCPStateExpanded@CInstanceBase@@QAEXKABUD3DXVECTOR3@@MIII@Z
_TEXT	SEGMENT
_kCmdNew$ = -40						; size = 36
_dwCmdTime$ = 8						; size = 4
_c_rkPPosDst$ = 12					; size = 4
_eFunc$dead$ = 16					; size = 4
_uArg$ = 20						; size = 4
_uTargetVID$ = 24					; size = 4
?PushTCPStateExpanded@CInstanceBase@@QAEXKABUD3DXVECTOR3@@MIII@Z PROC ; CInstanceBase::PushTCPStateExpanded, COMDAT
; _this$ = ecx
; _fDstRot$ = xmm3s

; 1177 : {

  00000	55		 push	 ebp
  00001	8b ec		 mov	 ebp, esp
  00003	83 ec 2c	 sub	 esp, 44			; 0000002cH

; 1178 : 	SCommand kCmdNew;
; 1179 : 	kCmdNew.m_kPPosDst = c_rkPPosDst;

  00006	8b 45 0c	 mov	 eax, DWORD PTR _c_rkPPosDst$[ebp]

; 1180 : 	kCmdNew.m_dwChkTime = dwCmdTime+100;
; 1181 : 	kCmdNew.m_dwCmdTime = dwCmdTime;
; 1182 : 	kCmdNew.m_fDstRot = fDstRot;
; 1183 : 	kCmdNew.m_eFunc = eFunc;
; 1184 : 	kCmdNew.m_uArg = uArg;
; 1185 : 	kCmdNew.m_uTargetVID = uTargetVID;
; 1186 : 	m_kQue_kCmdNew.push_back(kCmdNew);

  00009	81 c1 90 06 00
	00		 add	 ecx, 1680		; 00000690H
  0000f	8b 55 08	 mov	 edx, DWORD PTR _dwCmdTime$[ebp]
  00012	89 55 dc	 mov	 DWORD PTR _kCmdNew$[ebp+4], edx
  00015	f3 0f 11 5d e0	 movss	 DWORD PTR _kCmdNew$[ebp+8], xmm3
  0001a	f3 0f 7e 00	 movq	 xmm0, QWORD PTR [eax]
  0001e	8b 40 08	 mov	 eax, DWORD PTR [eax+8]
  00021	89 45 f8	 mov	 DWORD PTR _kCmdNew$[ebp+32], eax
  00024	8d 42 64	 lea	 eax, DWORD PTR [edx+100]
  00027	89 45 d8	 mov	 DWORD PTR _kCmdNew$[ebp], eax
  0002a	8b 45 14	 mov	 eax, DWORD PTR _uArg$[ebp]
  0002d	89 45 e8	 mov	 DWORD PTR _kCmdNew$[ebp+16], eax
  00030	8b 45 18	 mov	 eax, DWORD PTR _uTargetVID$[ebp]
  00033	89 45 ec	 mov	 DWORD PTR _kCmdNew$[ebp+20], eax
  00036	8d 45 d8	 lea	 eax, DWORD PTR _kCmdNew$[ebp]
  00039	50		 push	 eax
  0003a	66 0f d6 45 f0	 movq	 QWORD PTR _kCmdNew$[ebp+24], xmm0
  0003f	c7 45 e4 05 00
	00 00		 mov	 DWORD PTR _kCmdNew$[ebp+12], 5
  00046	e8 00 00 00 00	 call	 ?push_back@?$list@USCommand@CInstanceBase@@V?$allocator@USCommand@CInstanceBase@@@std@@@std@@QAEXABUSCommand@CInstanceBase@@@Z ; std::list<CInstanceBase::SCommand,std::allocator<CInstanceBase::SCommand> >::push_back

; 1187 : }

  0004b	8b e5		 mov	 esp, ebp
  0004d	5d		 pop	 ebp
  0004e	c2 14 00	 ret	 20			; 00000014H
?PushTCPStateExpanded@CInstanceBase@@QAEXKABUD3DXVECTOR3@@MIII@Z ENDP ; CInstanceBase::PushTCPStateExpanded
_TEXT	ENDS
; Function compile flags: /Ogtp
;	COMDAT ??0SCommand@CInstanceBase@@QAE@XZ
_TEXT	SEGMENT
??0SCommand@CInstanceBase@@QAE@XZ PROC			; CInstanceBase::SCommand::SCommand, COMDAT
; _this$ = ecx
  00000	8b c1		 mov	 eax, ecx
  00002	c3		 ret	 0
??0SCommand@CInstanceBase@@QAE@XZ ENDP			; CInstanceBase::SCommand::SCommand
_TEXT	ENDS
; Function compile flags: /Ogtp
; File D:\_m2work\Server Client TMP4\ClientVS22\source\UserInterface\InstanceBase.cpp
;	COMDAT ?PushTCPState@CInstanceBase@@QAEXKABUD3DXVECTOR3@@MII@Z
_TEXT	SEGMENT
_kCmdNew$ = -40						; size = 36
_fDstRot$1$ = -4					; size = 4
_dwCmdTime$ = 8						; size = 4
_c_rkPPosDst$ = 12					; size = 4
_eFunc$ = 16						; size = 4
_uArg$ = 20						; size = 4
?PushTCPState@CInstanceBase@@QAEXKABUD3DXVECTOR3@@MII@Z PROC ; CInstanceBase::PushTCPState, COMDAT
; _this$ = ecx
; _fDstRot$ = xmm3s

; 1190 : {	

  00000	55		 push	 ebp
  00001	8b ec		 mov	 ebp, esp
  00003	83 ec 28	 sub	 esp, 40			; 00000028H
  00006	56		 push	 esi
  00007	57		 push	 edi
  00008	f3 0f 11 5d fc	 movss	 DWORD PTR _fDstRot$1$[ebp], xmm3
  0000d	8b f9		 mov	 edi, ecx

; 1191 : 	if (__IsMainInstance())

  0000f	e8 00 00 00 00	 call	 ?__IsMainInstance@CInstanceBase@@IAE_NXZ ; CInstanceBase::__IsMainInstance
  00014	84 c0		 test	 al, al
  00016	74 15		 je	 SHORT $LN2@PushTCPSta

; 1192 : 	{
; 1193 : 		//assert(!"CInstanceBase::PushTCPState     !");
; 1194 : 		TraceError("CInstanceBase::PushTCPState     !");

  00018	68 00 00 00 00	 push	 OFFSET ??_C@_0EG@IFLKAGDE@CInstanceBase?3?3PushTCPState?5?G?C?$LH@
  0001d	e8 00 00 00 00	 call	 ?TraceError@@YAXPBDZZ	; TraceError
  00022	83 c4 04	 add	 esp, 4

; 1222 : 
; 1223 : 	//int nApplyGap=kCmdNew.m_dwChkTime-ELTimer_GetServerFrameMSec();
; 1224 : 
; 1225 : 	//if (nApplyGap<-500 || nApplyGap>500)
; 1226 : 	//	Tracenf("VID[%d] NAME[%s]  [cur:%d ave:%d]  (%d)", GetVirtualID(), GetNameString(), nNetworkGap, m_nAverageNetworkGap, nApplyGap);
; 1227 : }

  00025	5f		 pop	 edi
  00026	5e		 pop	 esi
  00027	8b e5		 mov	 esp, ebp
  00029	5d		 pop	 ebp
  0002a	c2 10 00	 ret	 16			; 00000010H
$LN2@PushTCPSta:

; 1195 : 		return;
; 1196 : 	}
; 1197 : 
; 1198 : 	int nNetworkGap=ELTimer_GetServerFrameMSec()-dwCmdTime;

  0002d	e8 00 00 00 00	 call	 ?ELTimer_GetServerFrameMSec@@YAKXZ ; ELTimer_GetServerFrameMSec
  00032	8b 75 08	 mov	 esi, DWORD PTR _dwCmdTime$[ebp]
  00035	2b c6		 sub	 eax, esi

; 1199 : 	
; 1200 : 	m_nAverageNetworkGap=(m_nAverageNetworkGap*70+nNetworkGap*30)/100;

  00037	6b 97 80 01 00
	00 46		 imul	 edx, DWORD PTR [edi+384], 70
  0003e	8b c8		 mov	 ecx, eax
  00040	c1 e1 04	 shl	 ecx, 4
  00043	2b c8		 sub	 ecx, eax

; 1201 : 	
; 1202 : 	/*
; 1203 : 	if (m_dwBaseCmdTime == 0)
; 1204 : 	{
; 1205 : 		m_dwBaseChkTime = ELTimer_GetFrameMSec()-nNetworkGap;
; 1206 : 		m_dwBaseCmdTime = dwCmdTime;
; 1207 : 
; 1208 : 		Tracenf("VID[%d]  [%d]", GetVirtualID(), nNetworkGap);
; 1209 : 	}
; 1210 : 	*/
; 1211 : 
; 1212 : 	//m_dwBaseChkTime-m_dwBaseCmdTime+ELTimer_GetServerMSec();
; 1213 : 
; 1214 : 	SCommand kCmdNew;
; 1215 : 	kCmdNew.m_kPPosDst = c_rkPPosDst;
; 1216 : 	kCmdNew.m_dwChkTime = dwCmdTime+m_nAverageNetworkGap;//m_dwBaseChkTime + (dwCmdTime - m_dwBaseCmdTime);// + nNetworkGap;
; 1217 : 	kCmdNew.m_dwCmdTime = dwCmdTime;

  00045	89 75 dc	 mov	 DWORD PTR _kCmdNew$[ebp+4], esi
  00048	b8 1f 85 eb 51	 mov	 eax, 1374389535		; 51eb851fH
  0004d	8d 0c 4a	 lea	 ecx, DWORD PTR [edx+ecx*2]
  00050	f7 e9		 imul	 ecx
  00052	8b 45 0c	 mov	 eax, DWORD PTR _c_rkPPosDst$[ebp]
  00055	c1 fa 05	 sar	 edx, 5
  00058	8b ca		 mov	 ecx, edx
  0005a	c1 e9 1f	 shr	 ecx, 31			; 0000001fH
  0005d	03 ca		 add	 ecx, edx
  0005f	89 8f 80 01 00
	00		 mov	 DWORD PTR [edi+384], ecx
  00065	f3 0f 7e 00	 movq	 xmm0, QWORD PTR [eax]
  00069	8b 40 08	 mov	 eax, DWORD PTR [eax+8]
  0006c	89 45 f8	 mov	 DWORD PTR _kCmdNew$[ebp+32], eax
  0006f	8d 04 31	 lea	 eax, DWORD PTR [ecx+esi]
  00072	89 45 d8	 mov	 DWORD PTR _kCmdNew$[ebp], eax

; 1218 : 	kCmdNew.m_fDstRot = fDstRot;
; 1219 : 	kCmdNew.m_eFunc = eFunc;
; 1220 : 	kCmdNew.m_uArg = uArg;
; 1221 : 	m_kQue_kCmdNew.push_back(kCmdNew);

  00075	8d 8f 90 06 00
	00		 lea	 ecx, DWORD PTR [edi+1680]
  0007b	8b 45 10	 mov	 eax, DWORD PTR _eFunc$[ebp]
  0007e	89 45 e4	 mov	 DWORD PTR _kCmdNew$[ebp+12], eax
  00081	8b 45 14	 mov	 eax, DWORD PTR _uArg$[ebp]
  00084	89 45 e8	 mov	 DWORD PTR _kCmdNew$[ebp+16], eax
  00087	8d 45 d8	 lea	 eax, DWORD PTR _kCmdNew$[ebp]
  0008a	66 0f d6 45 f0	 movq	 QWORD PTR _kCmdNew$[ebp+24], xmm0
  0008f	f3 0f 10 45 fc	 movss	 xmm0, DWORD PTR _fDstRot$1$[ebp]
  00094	50		 push	 eax
  00095	f3 0f 11 45 e0	 movss	 DWORD PTR _kCmdNew$[ebp+8], xmm0
  0009a	e8 00 00 00 00	 call	 ?push_back@?$list@USCommand@CInstanceBase@@V?$allocator@USCommand@CInstanceBase@@@std@@@std@@QAEXABUSCommand@CInstanceBase@@@Z ; std::list<CInstanceBase::SCommand,std::allocator<CInstanceBase::SCommand> >::push_back

; 1222 : 
; 1223 : 	//int nApplyGap=kCmdNew.m_dwChkTime-ELTimer_GetServerFrameMSec();
; 1224 : 
; 1225 : 	//if (nApplyGap<-500 || nApplyGap>500)
; 1226 : 	//	Tracenf("VID[%d] NAME[%s]  [cur:%d ave:%d]  (%d)", GetVirtualID(), GetNameString(), nNetworkGap, m_nAverageNetworkGap, nApplyGap);
; 1227 : }

  0009f	5f		 pop	 edi
  000a0	5e		 pop	 esi
  000a1	8b e5		 mov	 esp, ebp
  000a3	5d		 pop	 ebp
  000a4	c2 10 00	 ret	 16			; 00000010H
?PushTCPState@CInstanceBase@@QAEXKABUD3DXVECTOR3@@MII@Z ENDP ; CInstanceBase::PushTCPState
_TEXT	ENDS
; Function compile flags: /Ogtp
; File D:\_m2work\Server Client TMP4\ClientVS22\source\UserInterface\InstanceBase.cpp
;	COMDAT ?__CanProcessNetworkStatePacket@CInstanceBase@@IAEHXZ
_TEXT	SEGMENT
?__CanProcessNetworkStatePacket@CInstanceBase@@IAEHXZ PROC ; CInstanceBase::__CanProcessNetworkStatePacket, COMDAT
; _this$ = ecx

; 1248 : {

  00000	56		 push	 esi

; 1249 : 	if (m_GraphicThingInstance.IsDead())

  00001	8d b1 d4 01 00
	00		 lea	 esi, DWORD PTR [ecx+468]
  00007	8b ce		 mov	 ecx, esi
  00009	e8 00 00 00 00	 call	 ?IsDead@CActorInstance@@QAEHXZ ; CActorInstance::IsDead
  0000e	85 c0		 test	 eax, eax
  00010	75 2c		 jne	 SHORT $LN7@CanProcess

; 1250 : 		return FALSE;
; 1251 : 	if (m_GraphicThingInstance.IsKnockDown())

  00012	8b ce		 mov	 ecx, esi
  00014	e8 00 00 00 00	 call	 ?IsKnockDown@CActorInstance@@QAEHXZ ; CActorInstance::IsKnockDown
  00019	85 c0		 test	 eax, eax
  0001b	75 21		 jne	 SHORT $LN7@CanProcess

; 1252 : 		return FALSE;
; 1253 : 	if (m_GraphicThingInstance.IsUsingSkill())

  0001d	8b ce		 mov	 ecx, esi
  0001f	e8 00 00 00 00	 call	 ?IsUsingSkill@CActorInstance@@QAEHXZ ; CActorInstance::IsUsingSkill
  00024	85 c0		 test	 eax, eax
  00026	74 0f		 je	 SHORT $LN5@CanProcess

; 1254 : 		if (!m_GraphicThingInstance.CanCancelSkill())

  00028	8b ce		 mov	 ecx, esi
  0002a	e8 00 00 00 00	 call	 ?CanCancelSkill@CActorInstance@@QAEHXZ ; CActorInstance::CanCancelSkill
  0002f	f7 d8		 neg	 eax
  00031	5e		 pop	 esi
  00032	1b c0		 sbb	 eax, eax
  00034	f7 d8		 neg	 eax

; 1258 : }

  00036	c3		 ret	 0
$LN5@CanProcess:

; 1256 : 
; 1257 : 	return TRUE;

  00037	b8 01 00 00 00	 mov	 eax, 1
  0003c	5e		 pop	 esi

; 1258 : }

  0003d	c3		 ret	 0
$LN7@CanProcess:

; 1255 : 			return FALSE;

  0003e	33 c0		 xor	 eax, eax
  00040	5e		 pop	 esi

; 1258 : }

  00041	c3		 ret	 0
?__CanProcessNetworkStatePacket@CInstanceBase@@IAEHXZ ENDP ; CInstanceBase::__CanProcessNetworkStatePacket
_TEXT	ENDS
; Function compile flags: /Ogtp
; File D:\_m2work\Server Client TMP4\ClientVS22\source\UserInterface\InstanceBase.cpp
;	COMDAT ?__IsEnableTCPProcess@CInstanceBase@@IAEHI@Z
_TEXT	SEGMENT
_eCurFunc$ = 8						; size = 4
?__IsEnableTCPProcess@CInstanceBase@@IAEHI@Z PROC	; CInstanceBase::__IsEnableTCPProcess, COMDAT
; _this$ = ecx

; 1261 : {

  00000	55		 push	 ebp
  00001	8b ec		 mov	 ebp, esp
  00003	56		 push	 esi
  00004	8b f1		 mov	 esi, ecx

; 1262 : 	if (m_GraphicThingInstance.IsActEmotion())

  00006	8d 8e d4 01 00
	00		 lea	 ecx, DWORD PTR [esi+468]
  0000c	e8 00 00 00 00	 call	 ?IsActEmotion@CActorInstance@@QAEHXZ ; CActorInstance::IsActEmotion
  00011	85 c0		 test	 eax, eax
  00013	75 1e		 jne	 SHORT $LN6@IsEnableTC

; 1263 : 	{
; 1264 : 		return FALSE;
; 1265 : 	}
; 1266 : 
; 1267 : 	if (!m_bEnableTCPState)

  00015	39 86 d0 01 00
	00		 cmp	 DWORD PTR [esi+464], eax
  0001b	75 0c		 jne	 SHORT $LN4@IsEnableTC

; 1268 : 	{
; 1269 : 		if (FUNC_EMOTION != eCurFunc)

  0001d	83 7d 08 05	 cmp	 DWORD PTR _eCurFunc$[ebp], 5
  00021	5e		 pop	 esi
  00022	0f 94 c0	 sete	 al

; 1276 : }

  00025	5d		 pop	 ebp
  00026	c2 04 00	 ret	 4
$LN4@IsEnableTC:

; 1272 : 		}
; 1273 : 	}
; 1274 : 
; 1275 : 	return TRUE;

  00029	b8 01 00 00 00	 mov	 eax, 1
  0002e	5e		 pop	 esi

; 1276 : }

  0002f	5d		 pop	 ebp
  00030	c2 04 00	 ret	 4
$LN6@IsEnableTC:

; 1270 : 		{
; 1271 : 			return FALSE;

  00033	33 c0		 xor	 eax, eax
  00035	5e		 pop	 esi

; 1276 : }

  00036	5d		 pop	 ebp
  00037	c2 04 00	 ret	 4
?__IsEnableTCPProcess@CInstanceBase@@IAEHI@Z ENDP	; CInstanceBase::__IsEnableTCPProcess
_TEXT	ENDS
; Function compile flags: /Ogtp
; File D:\_m2work\Server Client TMP4\ClientVS22\source\UserInterface\InstanceBase.cpp
; File C:\Program Files\Microsoft Visual Studio\2022\Community\VC\Tools\MSVC\14.44.35207\include\list
; File D:\_m2work\Server Client TMP4\ClientVS22\source\UserInterface\InstanceBase.cpp
; File C:\Program Files\Microsoft Visual Studio\2022\Community\VC\Tools\MSVC\14.44.35207\include\list
; File D:\_m2work\Server Client TMP4\ClientVS22\source\UserInterface\InstanceBase.cpp
; File C:\Program Files\Microsoft Visual Studio\2022\Community\VC\Tools\MSVC\14.44.35207\include\list
; File C:\Program Files\Microsoft Visual Studio\2022\Community\VC\Tools\MSVC\14.44.35207\include\xmemory
; File C:\Program Files\Microsoft Visual Studio\2022\Community\VC\Tools\MSVC\14.44.35207\include\list
; File C:\Program Files\Microsoft Visual Studio\2022\Community\VC\Tools\MSVC\14.44.35207\include\xmemory
; File D:\_m2work\Server Client TMP4\ClientVS22\source\UserInterface\InstanceBase.cpp
; File C:\Program Files\Microsoft Visual Studio\2022\Community\VC\Tools\MSVC\14.44.35207\include\list
; File D:\_m2work\Server Client TMP4\ClientVS22\source\UserInterface\InstanceBase.cpp
; File C:\Program Files\Microsoft Visual Studio\2022\Community\VC\Tools\MSVC\14.44.35207\include\list
; File D:\_m2work\Server Client TMP4\ClientVS22\source\UserInterface\InstanceBase.cpp
; File C:\Program Files\Microsoft Visual Studio\2022\Community\VC\Tools\MSVC\14.44.35207\include\list
; File C:\Program Files\Microsoft Visual Studio\2022\Community\VC\Tools\MSVC\14.44.35207\include\xmemory
; File D:\_m2work\Server Client TMP4\ClientVS22\source\UserInterface\InstanceBase.cpp
; File C:\Program Files\Microsoft Visual Studio\2022\Community\VC\Tools\MSVC\14.44.35207\include\xmemory
; File D:\_m2work\Server Client TMP4\ClientVS22\source\UserInterface\InstanceBase.cpp
; File D:\_m2work\Server Client TMP4\ClientVS22\extern\include\d3dx8math.inl
; File C:\Program Files\Microsoft Visual Studio\2022\Community\VC\Tools\MSVC\14.44.35207\include\cmath
; File D:\_m2work\Server Client TMP4\ClientVS22\extern\include\d3dx8math.inl
; File D:\_m2work\Server Client TMP4\ClientVS22\source\UserInterface\InstanceBase.cpp
; File C:\Program Files\Microsoft Visual Studio\2022\Community\VC\Tools\MSVC\14.44.35207\include\cmath
; File D:\_m2work\Server Client TMP4\ClientVS22\source\UserInterface\InstanceBase.cpp
; File C:\Program Files\Microsoft Visual Studio\2022\Community\VC\Tools\MSVC\14.44.35207\include\list
; File D:\_m2work\Server Client TMP4\ClientVS22\source\UserInterface\InstanceBase.cpp
; File C:\Program Files\Microsoft Visual Studio\2022\Community\VC\Tools\MSVC\14.44.35207\include\list
; File D:\_m2work\Server Client TMP4\ClientVS22\source\UserInterface\InstanceBase.cpp
;	COMDAT ?StateProcess@CInstanceBase@@IAEXXZ
_TEXT	SEGMENT
_kCmdTop$6$ = -88					; size = 16
_kCmdTop$1 = -68					; size = 36
_fDirLen$2 = -32					; size = 4
_kPPosCur$3 = -28					; size = 12
_kPPosDst$4 = -16					; size = 12
__$ArrayPad$ = -4					; size = 4
?StateProcess@CInstanceBase@@IAEXXZ PROC		; CInstanceBase::StateProcess, COMDAT
; _this$ = ecx

; 1279 : {	

  00000	55		 push	 ebp
  00001	8b ec		 mov	 ebp, esp
  00003	83 ec 5c	 sub	 esp, 92			; 0000005cH
  00006	a1 00 00 00 00	 mov	 eax, DWORD PTR ___security_cookie
  0000b	33 c5		 xor	 eax, ebp
  0000d	89 45 fc	 mov	 DWORD PTR __$ArrayPad$[ebp], eax
  00010	53		 push	 ebx
  00011	56		 push	 esi
  00012	57		 push	 edi
  00013	8b f9		 mov	 edi, ecx
; File C:\Program Files\Microsoft Visual Studio\2022\Community\VC\Tools\MSVC\14.44.35207\include\list

; 1213 :         return _Mypair._Myval2._Mysize == 0;

  00015	83 bf 94 06 00
	00 00		 cmp	 DWORD PTR [edi+1684], 0
; File D:\_m2work\Server Client TMP4\ClientVS22\source\UserInterface\InstanceBase.cpp

; 1282 : 		if (m_kQue_kCmdNew.empty())

  0001c	0f 84 81 05 00
	00		 je	 $LN113@StateProce
$LL2@StateProce:
; File C:\Program Files\Microsoft Visual Studio\2022\Community\VC\Tools\MSVC\14.44.35207\include\list

; 1225 :         return _Mypair._Myval2._Myhead->_Next->_Myval;

  00022	8b 87 90 06 00
	00		 mov	 eax, DWORD PTR [edi+1680]
; File D:\_m2work\Server Client TMP4\ClientVS22\source\UserInterface\InstanceBase.cpp

; 1285 : 		DWORD dwDstChkTime = m_kQue_kCmdNew.front().m_dwChkTime;

  00028	8b 00		 mov	 eax, DWORD PTR [eax]
  0002a	8b 70 08	 mov	 esi, DWORD PTR [eax+8]

; 1286 : 		DWORD dwCurChkTime = ELTimer_GetServerFrameMSec();	

  0002d	e8 00 00 00 00	 call	 ?ELTimer_GetServerFrameMSec@@YAKXZ ; ELTimer_GetServerFrameMSec

; 1287 : 
; 1288 : 		if (dwCurChkTime < dwDstChkTime)

  00032	3b c6		 cmp	 eax, esi
  00034	0f 82 69 05 00
	00		 jb	 $LN113@StateProce
; File C:\Program Files\Microsoft Visual Studio\2022\Community\VC\Tools\MSVC\14.44.35207\include\list

; 1225 :         return _Mypair._Myval2._Myhead->_Next->_Myval;

  0003a	8b 87 90 06 00
	00		 mov	 eax, DWORD PTR [edi+1680]
; File C:\Program Files\Microsoft Visual Studio\2022\Community\VC\Tools\MSVC\14.44.35207\include\xmemory

; 289  :         ::operator delete(_Ptr, _Bytes);

  00040	6a 2c		 push	 44			; 0000002cH
; File C:\Program Files\Microsoft Visual Studio\2022\Community\VC\Tools\MSVC\14.44.35207\include\list

; 1225 :         return _Mypair._Myval2._Myhead->_Next->_Myval;

  00042	8b 10		 mov	 edx, DWORD PTR [eax]
; File C:\Program Files\Microsoft Visual Studio\2022\Community\VC\Tools\MSVC\14.44.35207\include\xmemory

; 289  :         ::operator delete(_Ptr, _Bytes);

  00044	52		 push	 edx
; File D:\_m2work\Server Client TMP4\ClientVS22\source\UserInterface\InstanceBase.cpp

; 1291 : 		SCommand kCmdTop = m_kQue_kCmdNew.front();

  00045	0f 10 42 08	 movups	 xmm0, XMMWORD PTR [edx+8]
  00049	8b 72 28	 mov	 esi, DWORD PTR [edx+40]
; File C:\Program Files\Microsoft Visual Studio\2022\Community\VC\Tools\MSVC\14.44.35207\include\list

; 1438 :         const auto _Result = _Pnode->_Next;

  0004c	8b 0a		 mov	 ecx, DWORD PTR [edx]
; File D:\_m2work\Server Client TMP4\ClientVS22\source\UserInterface\InstanceBase.cpp

; 1291 : 		SCommand kCmdTop = m_kQue_kCmdNew.front();

  0004e	0f 11 45 bc	 movups	 XMMWORD PTR _kCmdTop$1[ebp], xmm0
  00052	0f 10 42 18	 movups	 xmm0, XMMWORD PTR [edx+24]
; File C:\Program Files\Microsoft Visual Studio\2022\Community\VC\Tools\MSVC\14.44.35207\include\list

; 1440 :         --_Mypair._Myval2._Mysize;

  00056	ff 8f 94 06 00
	00		 dec	 DWORD PTR [edi+1684]

; 1441 :         _Pnode->_Prev->_Next = _Result;

  0005c	8b 42 04	 mov	 eax, DWORD PTR [edx+4]
; File D:\_m2work\Server Client TMP4\ClientVS22\source\UserInterface\InstanceBase.cpp

; 1291 : 		SCommand kCmdTop = m_kQue_kCmdNew.front();

  0005f	0f 11 45 a8	 movups	 XMMWORD PTR _kCmdTop$6$[ebp], xmm0
  00063	0f 11 45 cc	 movups	 XMMWORD PTR _kCmdTop$1[ebp+16], xmm0
; File C:\Program Files\Microsoft Visual Studio\2022\Community\VC\Tools\MSVC\14.44.35207\include\list

; 1441 :         _Pnode->_Prev->_Next = _Result;

  00067	89 08		 mov	 DWORD PTR [eax], ecx

; 1442 :         _Result->_Prev       = _Pnode->_Prev;

  00069	8b 42 04	 mov	 eax, DWORD PTR [edx+4]
  0006c	89 41 04	 mov	 DWORD PTR [ecx+4], eax
; File C:\Program Files\Microsoft Visual Studio\2022\Community\VC\Tools\MSVC\14.44.35207\include\xmemory

; 289  :         ::operator delete(_Ptr, _Bytes);

  0006f	e8 00 00 00 00	 call	 ??3@YAXPAXI@Z		; operator delete
; File D:\_m2work\Server Client TMP4\ClientVS22\source\UserInterface\InstanceBase.cpp

; 1294 : 		TPixelPosition kPPosDst = kCmdTop.m_kPPosDst;

  00074	f2 0f 10 45 b0	 movsd	 xmm0, QWORD PTR _kCmdTop$6$[ebp+8]
; File C:\Program Files\Microsoft Visual Studio\2022\Community\VC\Tools\MSVC\14.44.35207\include\xmemory

; 289  :         ::operator delete(_Ptr, _Bytes);

  00079	83 c4 08	 add	 esp, 8
; File D:\_m2work\Server Client TMP4\ClientVS22\source\UserInterface\InstanceBase.cpp

; 1299 : 		UINT uVID = GetVirtualID();	

  0007c	8b cf		 mov	 ecx, edi
  0007e	66 0f d6 45 f0	 movq	 QWORD PTR _kPPosDst$4[ebp], xmm0
  00083	89 75 f8	 mov	 DWORD PTR _kPPosDst$4[ebp+8], esi
  00086	e8 00 00 00 00	 call	 ?GetVirtualID@CInstanceBase@@QAEKXZ ; CInstanceBase::GetVirtualID
  0008b	8b d8		 mov	 ebx, eax

; 1300 : 		UINT uTargetVID = kCmdTop.m_uTargetVID;
; 1301 : 
; 1302 : 		TPixelPosition kPPosCur;
; 1303 : 		NEW_GetPixelPosition(&kPPosCur);

  0008d	8b cf		 mov	 ecx, edi
  0008f	8d 45 e4	 lea	 eax, DWORD PTR _kPPosCur$3[ebp]
  00092	50		 push	 eax
  00093	e8 00 00 00 00	 call	 ?NEW_GetPixelPosition@CInstanceBase@@QAEXPAUD3DXVECTOR3@@@Z ; CInstanceBase::NEW_GetPixelPosition
; File D:\_m2work\Server Client TMP4\ClientVS22\extern\include\d3dx8math.inl

; 263  :     return D3DXVECTOR3(x - v.x, y - v.y, z - v.z);

  00098	f3 0f 10 4d f0	 movss	 xmm1, DWORD PTR _kPPosDst$4[ebp]
  0009d	f3 0f 10 45 f4	 movss	 xmm0, DWORD PTR _kPPosDst$4[ebp+4]
  000a2	f3 0f 5c 45 e8	 subss	 xmm0, DWORD PTR _kPPosCur$3[ebp+4]
  000a7	f3 0f 5c 4d e4	 subss	 xmm1, DWORD PTR _kPPosCur$3[ebp]
; File C:\Program Files\Microsoft Visual Studio\2022\Community\VC\Tools\MSVC\14.44.35207\include\cmath

; 265  :     return _CSTD sqrtf(_Xx);

  000ac	51		 push	 ecx
; File D:\_m2work\Server Client TMP4\ClientVS22\extern\include\d3dx8math.inl

; 181  :     y = fy;

  000ad	f3 0f 59 c0	 mulss	 xmm0, xmm0
; File D:\_m2work\Server Client TMP4\ClientVS22\source\UserInterface\InstanceBase.cpp

; 1315 : 		float fDirLen = (float)sqrt(kPPosDir.x * kPPosDir.x + kPPosDir.y * kPPosDir.y);

  000b1	f3 0f 59 c9	 mulss	 xmm1, xmm1
  000b5	f3 0f 58 c1	 addss	 xmm0, xmm1
; File C:\Program Files\Microsoft Visual Studio\2022\Community\VC\Tools\MSVC\14.44.35207\include\cmath

; 265  :     return _CSTD sqrtf(_Xx);

  000b9	f3 0f 11 04 24	 movss	 DWORD PTR [esp], xmm0
  000be	e8 00 00 00 00	 call	 _sqrtf
  000c3	83 c4 04	 add	 esp, 4
; File D:\_m2work\Server Client TMP4\ClientVS22\source\UserInterface\InstanceBase.cpp

; 1319 : 		if (!__CanProcessNetworkStatePacket())

  000c6	8b cf		 mov	 ecx, edi
  000c8	d9 5d e0	 fstp	 DWORD PTR _fDirLen$2[ebp]
  000cb	e8 00 00 00 00	 call	 ?__CanProcessNetworkStatePacket@CInstanceBase@@IAEHXZ ; CInstanceBase::__CanProcessNetworkStatePacket
  000d0	85 c0		 test	 eax, eax
  000d2	0f 84 a3 04 00
	00		 je	 $LN116@StateProce

; 1322 : 			return;
; 1323 : 		}
; 1324 : 
; 1325 : 		if (!__IsEnableTCPProcess(eFunc))

  000d8	8b 5d c8	 mov	 ebx, DWORD PTR _kCmdTop$1[ebp+12]
  000db	8b cf		 mov	 ecx, edi
  000dd	53		 push	 ebx
  000de	e8 00 00 00 00	 call	 ?__IsEnableTCPProcess@CInstanceBase@@IAEHI@Z ; CInstanceBase::__IsEnableTCPProcess
  000e3	85 c0		 test	 eax, eax
  000e5	0f 84 b8 04 00
	00		 je	 $LN113@StateProce

; 1326 : 		{
; 1327 : 			return;
; 1328 : 		}
; 1329 : 
; 1330 : 		switch (eFunc)

  000eb	83 fb 05	 cmp	 ebx, 5
  000ee	0f 87 99 03 00
	00		 ja	 $LN38@StateProce
  000f4	ff 24 9d 00 00
	00 00		 jmp	 DWORD PTR $LN128@StateProce[ebx*4]
$LN10@StateProce:

; 1331 : 		{
; 1332 : 			case FUNC_WAIT:
; 1333 : 			{
; 1334 : 				//Tracenf("%s (%f, %f) -> (%f, %f)  %f", GetNameString(), kPPosCur.x, kPPosCur.y, kPPosDst.x, kPPosDst.y, fDirLen);
; 1335 : 				if (fDirLen > 1.0f)

  000fb	f3 0f 10 45 e0	 movss	 xmm0, DWORD PTR _fDirLen$2[ebp]
  00100	8b cf		 mov	 ecx, edi
  00102	0f 2f 05 00 00
	00 00		 comiss	 xmm0, DWORD PTR __real@3f800000
  00109	76 3e		 jbe	 SHORT $LN11@StateProce

; 1336 : 				{
; 1337 : 					//NEW_GetSrcPixelPositionRef() = kPPosCur;
; 1338 : 					//NEW_GetDstPixelPositionRef() = kPPosDst;
; 1339 : 					NEW_SetSrcPixelPosition(kPPosCur);

  0010b	8d 45 e4	 lea	 eax, DWORD PTR _kPPosCur$3[ebp]
  0010e	50		 push	 eax
  0010f	e8 00 00 00 00	 call	 ?NEW_SetSrcPixelPosition@CInstanceBase@@IAEXABUD3DXVECTOR3@@@Z ; CInstanceBase::NEW_SetSrcPixelPosition

; 1340 : 					NEW_SetDstPixelPosition(kPPosDst);

  00114	8d 45 f0	 lea	 eax, DWORD PTR _kPPosDst$4[ebp]
  00117	8b cf		 mov	 ecx, edi
  00119	50		 push	 eax
  0011a	e8 00 00 00 00	 call	 ?NEW_SetDstPixelPosition@CInstanceBase@@IAEXABUD3DXVECTOR3@@@Z ; CInstanceBase::NEW_SetDstPixelPosition

; 1341 : 
; 1342 : 					__EnableSkipCollision();

  0011f	8b cf		 mov	 ecx, edi
  00121	e8 00 00 00 00	 call	 ?__EnableSkipCollision@CInstanceBase@@IAEXXZ ; CInstanceBase::__EnableSkipCollision

; 1343 : 
; 1344 : 					m_fDstRot = fRotDst;

  00126	f3 0f 10 45 c4	 movss	 xmm0, DWORD PTR _kCmdTop$1[ebp+8]
  0012b	f3 0f 11 87 c0
	01 00 00	 movss	 DWORD PTR [edi+448], xmm0

; 1345 : 					m_isGoing = TRUE;

  00133	c6 87 88 01 00
	00 01		 mov	 BYTE PTR [edi+392], 1

; 1346 : 
; 1347 : 					m_kMovAfterFunc.eFunc = FUNC_WAIT;

  0013a	c7 87 a8 01 00
	00 00 00 00 00	 mov	 DWORD PTR [edi+424], 0

; 1348 : 
; 1349 : 					if (!IsWalking())

  00144	e9 23 02 00 00	 jmp	 $LN130@StateProce
$LN11@StateProce:

; 1350 : 						StartWalking();
; 1351 : 
; 1352 : 					//Tracen("");
; 1353 : 				}
; 1354 : 				else
; 1355 : 				{
; 1356 : 					//Tracen(" ");
; 1357 : 
; 1358 : 					m_isGoing = FALSE;

  00149	c6 87 88 01 00
	00 00		 mov	 BYTE PTR [edi+392], 0

; 1359 : 
; 1360 : 					if (!IsWaiting())

  00150	e8 00 00 00 00	 call	 ?IsWaiting@CInstanceBase@@QAEHXZ ; CInstanceBase::IsWaiting
  00155	85 c0		 test	 eax, eax
  00157	75 0f		 jne	 SHORT $LN14@StateProce

; 1361 : 						EndWalking();

  00159	f3 0f 10 0d 00
	00 00 00	 movss	 xmm1, DWORD PTR __real@3e19999a
  00161	8b cf		 mov	 ecx, edi
  00163	e8 00 00 00 00	 call	 ?EndWalking@CInstanceBase@@QAEXM@Z ; CInstanceBase::EndWalking
$LN14@StateProce:

; 1362 : 
; 1363 : 					SCRIPT_SetPixelPosition(kPPosDst.x, kPPosDst.y);

  00168	f3 0f 10 55 f4	 movss	 xmm2, DWORD PTR _kPPosDst$4[ebp+4]
  0016d	8b cf		 mov	 ecx, edi
  0016f	f3 0f 10 4d f0	 movss	 xmm1, DWORD PTR _kPPosDst$4[ebp]
  00174	e8 00 00 00 00	 call	 ?SCRIPT_SetPixelPosition@CInstanceBase@@QAEXMM@Z ; CInstanceBase::SCRIPT_SetPixelPosition

; 1364 : 					SetAdvancingRotation(fRotDst);

  00179	f3 0f 10 4d c4	 movss	 xmm1, DWORD PTR _kCmdTop$1[ebp+8]
  0017e	8b cf		 mov	 ecx, edi
  00180	e8 00 00 00 00	 call	 ?SetAdvancingRotation@CInstanceBase@@QAEXM@Z ; CInstanceBase::SetAdvancingRotation

; 1365 : 					SetRotation(fRotDst);

  00185	f3 0f 10 4d c4	 movss	 xmm1, DWORD PTR _kCmdTop$1[ebp+8]
  0018a	8b cf		 mov	 ecx, edi
  0018c	e8 00 00 00 00	 call	 ?SetRotation@CInstanceBase@@QAEXM@Z ; CInstanceBase::SetRotation

; 1366 : 				}
; 1367 : 				break;

  00191	e9 c7 03 00 00	 jmp	 $LN41@StateProce
$LN15@StateProce:

; 1368 : 			}
; 1369 : 
; 1370 : 			case FUNC_MOVE:
; 1371 : 			{
; 1372 : 				//NEW_GetSrcPixelPositionRef() = kPPosCur;
; 1373 : 				//NEW_GetDstPixelPositionRef() = kPPosDst;
; 1374 : 				NEW_SetSrcPixelPosition(kPPosCur);

  00196	8d 45 e4	 lea	 eax, DWORD PTR _kPPosCur$3[ebp]
  00199	8b cf		 mov	 ecx, edi
  0019b	50		 push	 eax
  0019c	e8 00 00 00 00	 call	 ?NEW_SetSrcPixelPosition@CInstanceBase@@IAEXABUD3DXVECTOR3@@@Z ; CInstanceBase::NEW_SetSrcPixelPosition

; 1375 : 				NEW_SetDstPixelPosition(kPPosDst);

  001a1	8d 45 f0	 lea	 eax, DWORD PTR _kPPosDst$4[ebp]
  001a4	8b cf		 mov	 ecx, edi
  001a6	50		 push	 eax
  001a7	e8 00 00 00 00	 call	 ?NEW_SetDstPixelPosition@CInstanceBase@@IAEXABUD3DXVECTOR3@@@Z ; CInstanceBase::NEW_SetDstPixelPosition

; 1376 : 				m_fDstRot = fRotDst;

  001ac	f3 0f 10 45 c4	 movss	 xmm0, DWORD PTR _kCmdTop$1[ebp+8]

; 1377 : 				m_isGoing = TRUE;
; 1378 : 				__EnableSkipCollision();

  001b1	8b cf		 mov	 ecx, edi
  001b3	f3 0f 11 87 c0
	01 00 00	 movss	 DWORD PTR [edi+448], xmm0
  001bb	c6 87 88 01 00
	00 01		 mov	 BYTE PTR [edi+392], 1
  001c2	e8 00 00 00 00	 call	 ?__EnableSkipCollision@CInstanceBase@@IAEXXZ ; CInstanceBase::__EnableSkipCollision

; 1379 : 				//m_isSyncMov = TRUE;
; 1380 : 
; 1381 : 				m_kMovAfterFunc.eFunc = FUNC_MOVE;

  001c7	c7 87 a8 01 00
	00 01 00 00 00	 mov	 DWORD PTR [edi+424], 1

; 1382 : 
; 1383 : 				if (!IsWalking())

  001d1	e9 96 01 00 00	 jmp	 $LN130@StateProce
$LN18@StateProce:

; 1384 : 				{
; 1385 : 					//Tracen("    ");
; 1386 : 					StartWalking();
; 1387 : 				}
; 1388 : 				else
; 1389 : 				{
; 1390 : 					//Tracen("  ");
; 1391 : 				}
; 1392 : 				break;
; 1393 : 			}
; 1394 : 
; 1395 : 			case FUNC_COMBO:
; 1396 : 			{
; 1397 : 				if (fDirLen >= 50.0f)

  001d6	f3 0f 10 45 e0	 movss	 xmm0, DWORD PTR _fDirLen$2[ebp]
  001db	8b cf		 mov	 ecx, edi
  001dd	0f 2f 05 00 00
	00 00		 comiss	 xmm0, DWORD PTR __real@42480000
  001e4	72 3e		 jb	 SHORT $LN19@StateProce

; 1398 : 				{
; 1399 : 					NEW_SetSrcPixelPosition(kPPosCur);

  001e6	8d 45 e4	 lea	 eax, DWORD PTR _kPPosCur$3[ebp]
  001e9	50		 push	 eax
  001ea	e8 00 00 00 00	 call	 ?NEW_SetSrcPixelPosition@CInstanceBase@@IAEXABUD3DXVECTOR3@@@Z ; CInstanceBase::NEW_SetSrcPixelPosition

; 1400 : 					NEW_SetDstPixelPosition(kPPosDst);

  001ef	8d 45 f0	 lea	 eax, DWORD PTR _kPPosDst$4[ebp]
  001f2	8b cf		 mov	 ecx, edi
  001f4	50		 push	 eax
  001f5	e8 00 00 00 00	 call	 ?NEW_SetDstPixelPosition@CInstanceBase@@IAEXABUD3DXVECTOR3@@@Z ; CInstanceBase::NEW_SetDstPixelPosition

; 1401 : 					m_fDstRot=fRotDst;

  001fa	f3 0f 10 45 c4	 movss	 xmm0, DWORD PTR _kCmdTop$1[ebp+8]

; 1402 : 					m_isGoing = TRUE;
; 1403 : 					__EnableSkipCollision();

  001ff	8b cf		 mov	 ecx, edi
  00201	f3 0f 11 87 c0
	01 00 00	 movss	 DWORD PTR [edi+448], xmm0
  00209	c6 87 88 01 00
	00 01		 mov	 BYTE PTR [edi+392], 1
  00210	e8 00 00 00 00	 call	 ?__EnableSkipCollision@CInstanceBase@@IAEXXZ ; CInstanceBase::__EnableSkipCollision

; 1404 : 
; 1405 : 					m_kMovAfterFunc.eFunc = FUNC_COMBO;

  00215	c7 87 a8 01 00
	00 03 00 00 00	 mov	 DWORD PTR [edi+424], 3

; 1406 : 					m_kMovAfterFunc.uArg = uArg;
; 1407 : 
; 1408 : 					if (!IsWalking())

  0021f	e9 3f 01 00 00	 jmp	 $LN129@StateProce
$LN19@StateProce:

; 1409 : 						StartWalking();
; 1410 : 				}
; 1411 : 				else
; 1412 : 				{
; 1413 : 					//Tracen("  ");
; 1414 : 
; 1415 : 					m_isGoing = FALSE;

  00224	c6 87 88 01 00
	00 00		 mov	 BYTE PTR [edi+392], 0

; 1416 : 
; 1417 : 					if (IsWalking())

  0022b	e8 00 00 00 00	 call	 ?IsWalking@CInstanceBase@@QAEHXZ ; CInstanceBase::IsWalking
  00230	85 c0		 test	 eax, eax
  00232	74 0f		 je	 SHORT $LN22@StateProce

; 1418 : 						EndWalking();

  00234	f3 0f 10 0d 00
	00 00 00	 movss	 xmm1, DWORD PTR __real@3e19999a
  0023c	8b cf		 mov	 ecx, edi
  0023e	e8 00 00 00 00	 call	 ?EndWalking@CInstanceBase@@QAEXM@Z ; CInstanceBase::EndWalking
$LN22@StateProce:

; 1419 : 
; 1420 : 					SCRIPT_SetPixelPosition(kPPosDst.x, kPPosDst.y);

  00243	f3 0f 10 55 f4	 movss	 xmm2, DWORD PTR _kPPosDst$4[ebp+4]
  00248	8b cf		 mov	 ecx, edi
  0024a	f3 0f 10 4d f0	 movss	 xmm1, DWORD PTR _kPPosDst$4[ebp]
  0024f	e8 00 00 00 00	 call	 ?SCRIPT_SetPixelPosition@CInstanceBase@@QAEXMM@Z ; CInstanceBase::SCRIPT_SetPixelPosition

; 1421 : 					RunComboAttack(fRotDst, uArg);

  00254	ff 75 cc	 push	 DWORD PTR _kCmdTop$1[ebp+16]
  00257	f3 0f 10 4d c4	 movss	 xmm1, DWORD PTR _kCmdTop$1[ebp+8]
  0025c	8b cf		 mov	 ecx, edi
  0025e	e8 00 00 00 00	 call	 ?RunComboAttack@CInstanceBase@@QAEXMK@Z ; CInstanceBase::RunComboAttack

; 1422 : 				}
; 1423 : 				break;

  00263	e9 f5 02 00 00	 jmp	 $LN41@StateProce
$LN23@StateProce:

; 1424 : 			}
; 1425 : 
; 1426 : 			case FUNC_ATTACK:
; 1427 : 			{
; 1428 : 				if (fDirLen>=50.0f)

  00268	f3 0f 10 45 e0	 movss	 xmm0, DWORD PTR _fDirLen$2[ebp]
  0026d	8b cf		 mov	 ecx, edi
  0026f	0f 2f 05 00 00
	00 00		 comiss	 xmm0, DWORD PTR __real@42480000
  00276	72 4d		 jb	 SHORT $LN24@StateProce

; 1429 : 				{
; 1430 : 					//NEW_GetSrcPixelPositionRef() = kPPosCur;
; 1431 : 					//NEW_GetDstPixelPositionRef() = kPPosDst;
; 1432 : 					NEW_SetSrcPixelPosition(kPPosCur);

  00278	8d 45 e4	 lea	 eax, DWORD PTR _kPPosCur$3[ebp]
  0027b	50		 push	 eax
  0027c	e8 00 00 00 00	 call	 ?NEW_SetSrcPixelPosition@CInstanceBase@@IAEXABUD3DXVECTOR3@@@Z ; CInstanceBase::NEW_SetSrcPixelPosition

; 1433 : 					NEW_SetDstPixelPosition(kPPosDst);

  00281	8d 45 f0	 lea	 eax, DWORD PTR _kPPosDst$4[ebp]
  00284	8b cf		 mov	 ecx, edi
  00286	50		 push	 eax
  00287	e8 00 00 00 00	 call	 ?NEW_SetDstPixelPosition@CInstanceBase@@IAEXABUD3DXVECTOR3@@@Z ; CInstanceBase::NEW_SetDstPixelPosition

; 1434 : 					m_fDstRot = fRotDst;

  0028c	f3 0f 10 45 c4	 movss	 xmm0, DWORD PTR _kCmdTop$1[ebp+8]

; 1435 : 					m_isGoing = TRUE;
; 1436 : 					__EnableSkipCollision();

  00291	8b cf		 mov	 ecx, edi
  00293	f3 0f 11 87 c0
	01 00 00	 movss	 DWORD PTR [edi+448], xmm0
  0029b	c6 87 88 01 00
	00 01		 mov	 BYTE PTR [edi+392], 1
  002a2	e8 00 00 00 00	 call	 ?__EnableSkipCollision@CInstanceBase@@IAEXXZ ; CInstanceBase::__EnableSkipCollision

; 1437 : 					//m_isSyncMov = TRUE;
; 1438 : 
; 1439 : 					m_kMovAfterFunc.eFunc = FUNC_ATTACK;
; 1440 : 
; 1441 : 					if (!IsWalking())

  002a7	8b cf		 mov	 ecx, edi
  002a9	c7 87 a8 01 00
	00 02 00 00 00	 mov	 DWORD PTR [edi+424], 2
  002b3	e8 00 00 00 00	 call	 ?IsWalking@CInstanceBase@@QAEHXZ ; CInstanceBase::IsWalking
  002b8	85 c0		 test	 eax, eax
  002ba	0f 84 2e 02 00
	00		 je	 $LN121@StateProce
  002c0	e9 98 02 00 00	 jmp	 $LN41@StateProce
$LN24@StateProce:

; 1442 : 						StartWalking();
; 1443 : 
; 1444 : 					//Tracen("    ");
; 1445 : 				}
; 1446 : 				else
; 1447 : 				{
; 1448 : 					//Tracen("  ");
; 1449 : 
; 1450 : 					m_isGoing = FALSE;

  002c5	c6 87 88 01 00
	00 00		 mov	 BYTE PTR [edi+392], 0

; 1451 : 
; 1452 : 					if (IsWalking())

  002cc	e8 00 00 00 00	 call	 ?IsWalking@CInstanceBase@@QAEHXZ ; CInstanceBase::IsWalking
  002d1	85 c0		 test	 eax, eax
  002d3	74 0f		 je	 SHORT $LN27@StateProce

; 1453 : 						EndWalking();

  002d5	f3 0f 10 0d 00
	00 00 00	 movss	 xmm1, DWORD PTR __real@3e19999a
  002dd	8b cf		 mov	 ecx, edi
  002df	e8 00 00 00 00	 call	 ?EndWalking@CInstanceBase@@QAEXM@Z ; CInstanceBase::EndWalking
$LN27@StateProce:

; 1454 : 
; 1455 : 					SCRIPT_SetPixelPosition(kPPosDst.x, kPPosDst.y);

  002e4	f3 0f 10 55 f4	 movss	 xmm2, DWORD PTR _kPPosDst$4[ebp+4]
  002e9	8b cf		 mov	 ecx, edi
  002eb	f3 0f 10 4d f0	 movss	 xmm1, DWORD PTR _kPPosDst$4[ebp]
  002f0	e8 00 00 00 00	 call	 ?SCRIPT_SetPixelPosition@CInstanceBase@@QAEXMM@Z ; CInstanceBase::SCRIPT_SetPixelPosition

; 1456 : 					BlendRotation(fRotDst);

  002f5	f3 0f 10 15 00
	00 00 00	 movss	 xmm2, DWORD PTR __real@3dcccccd
  002fd	8b cf		 mov	 ecx, edi
  002ff	f3 0f 10 4d c4	 movss	 xmm1, DWORD PTR _kCmdTop$1[ebp+8]
  00304	e8 00 00 00 00	 call	 ?BlendRotation@CInstanceBase@@QAEXMM@Z ; CInstanceBase::BlendRotation

; 1457 : 
; 1458 : 					RunNormalAttack(fRotDst);

  00309	f3 0f 10 4d c4	 movss	 xmm1, DWORD PTR _kCmdTop$1[ebp+8]
  0030e	8b cf		 mov	 ecx, edi
  00310	e8 00 00 00 00	 call	 ?RunNormalAttack@CInstanceBase@@QAEXM@Z ; CInstanceBase::RunNormalAttack

; 1459 : 
; 1460 : 					//Tracen("   ");
; 1461 : 				}
; 1462 : 				break;

  00315	e9 43 02 00 00	 jmp	 $LN41@StateProce
$LN28@StateProce:

; 1463 : 			}
; 1464 : 
; 1465 : 			case FUNC_MOB_SKILL:
; 1466 : 			{
; 1467 : 				if (fDirLen >= 50.0f)

  0031a	f3 0f 10 45 e0	 movss	 xmm0, DWORD PTR _fDirLen$2[ebp]
  0031f	8b cf		 mov	 ecx, edi
  00321	0f 2f 05 00 00
	00 00		 comiss	 xmm0, DWORD PTR __real@42480000
  00328	72 56		 jb	 SHORT $LN29@StateProce

; 1468 : 				{
; 1469 : 					NEW_SetSrcPixelPosition(kPPosCur);

  0032a	8d 45 e4	 lea	 eax, DWORD PTR _kPPosCur$3[ebp]
  0032d	50		 push	 eax
  0032e	e8 00 00 00 00	 call	 ?NEW_SetSrcPixelPosition@CInstanceBase@@IAEXABUD3DXVECTOR3@@@Z ; CInstanceBase::NEW_SetSrcPixelPosition

; 1470 : 					NEW_SetDstPixelPosition(kPPosDst);

  00333	8d 45 f0	 lea	 eax, DWORD PTR _kPPosDst$4[ebp]
  00336	8b cf		 mov	 ecx, edi
  00338	50		 push	 eax
  00339	e8 00 00 00 00	 call	 ?NEW_SetDstPixelPosition@CInstanceBase@@IAEXABUD3DXVECTOR3@@@Z ; CInstanceBase::NEW_SetDstPixelPosition

; 1471 : 					m_fDstRot = fRotDst;

  0033e	f3 0f 10 45 c4	 movss	 xmm0, DWORD PTR _kCmdTop$1[ebp+8]

; 1472 : 					m_isGoing = TRUE;
; 1473 : 					__EnableSkipCollision();

  00343	8b cf		 mov	 ecx, edi
  00345	f3 0f 11 87 c0
	01 00 00	 movss	 DWORD PTR [edi+448], xmm0
  0034d	c6 87 88 01 00
	00 01		 mov	 BYTE PTR [edi+392], 1
  00354	e8 00 00 00 00	 call	 ?__EnableSkipCollision@CInstanceBase@@IAEXXZ ; CInstanceBase::__EnableSkipCollision

; 1474 : 
; 1475 : 					m_kMovAfterFunc.eFunc = FUNC_MOB_SKILL;

  00359	c7 87 a8 01 00
	00 04 00 00 00	 mov	 DWORD PTR [edi+424], 4
$LN129@StateProce:
; File C:\Program Files\Microsoft Visual Studio\2022\Community\VC\Tools\MSVC\14.44.35207\include\list

; 1213 :         return _Mypair._Myval2._Mysize == 0;

  00363	8b 45 cc	 mov	 eax, DWORD PTR _kCmdTop$1[ebp+16]
  00366	89 87 ac 01 00
	00		 mov	 DWORD PTR [edi+428], eax
$LN130@StateProce:
  0036c	8b cf		 mov	 ecx, edi
  0036e	e8 00 00 00 00	 call	 ?IsWalking@CInstanceBase@@QAEHXZ ; CInstanceBase::IsWalking
  00373	85 c0		 test	 eax, eax
  00375	0f 84 73 01 00
	00		 je	 $LN121@StateProce
  0037b	e9 dd 01 00 00	 jmp	 $LN41@StateProce
$LN29@StateProce:
; File D:\_m2work\Server Client TMP4\ClientVS22\source\UserInterface\InstanceBase.cpp

; 1483 : 					m_isGoing = FALSE;

  00380	c6 87 88 01 00
	00 00		 mov	 BYTE PTR [edi+392], 0

; 1484 : 
; 1485 : 					if (IsWalking())

  00387	e8 00 00 00 00	 call	 ?IsWalking@CInstanceBase@@QAEHXZ ; CInstanceBase::IsWalking
  0038c	85 c0		 test	 eax, eax
  0038e	74 0f		 je	 SHORT $LN32@StateProce

; 1486 : 						EndWalking();

  00390	f3 0f 10 0d 00
	00 00 00	 movss	 xmm1, DWORD PTR __real@3e19999a
  00398	8b cf		 mov	 ecx, edi
  0039a	e8 00 00 00 00	 call	 ?EndWalking@CInstanceBase@@QAEXM@Z ; CInstanceBase::EndWalking
$LN32@StateProce:

; 1487 : 
; 1488 : 					SCRIPT_SetPixelPosition(kPPosDst.x, kPPosDst.y);

  0039f	f3 0f 10 55 f4	 movss	 xmm2, DWORD PTR _kPPosDst$4[ebp+4]
  003a4	8b cf		 mov	 ecx, edi
  003a6	f3 0f 10 4d f0	 movss	 xmm1, DWORD PTR _kPPosDst$4[ebp]
  003ab	e8 00 00 00 00	 call	 ?SCRIPT_SetPixelPosition@CInstanceBase@@QAEXMM@Z ; CInstanceBase::SCRIPT_SetPixelPosition

; 1489 : 					BlendRotation(fRotDst);

  003b0	f3 0f 10 15 00
	00 00 00	 movss	 xmm2, DWORD PTR __real@3dcccccd
  003b8	8b cf		 mov	 ecx, edi
  003ba	f3 0f 10 4d c4	 movss	 xmm1, DWORD PTR _kCmdTop$1[ebp+8]
  003bf	e8 00 00 00 00	 call	 ?BlendRotation@CInstanceBase@@QAEXMM@Z ; CInstanceBase::BlendRotation

; 1490 : 
; 1491 : 					m_GraphicThingInstance.InterceptOnceMotion(CRaceMotionData::NAME_SPECIAL_1 + uArg);

  003c4	8b 45 cc	 mov	 eax, DWORD PTR _kCmdTop$1[ebp+16]
  003c7	51		 push	 ecx
  003c8	c7 04 24 00 00
	80 3f		 mov	 DWORD PTR [esp], 1065353216 ; 3f800000H
  003cf	83 c0 21	 add	 eax, 33			; 00000021H
  003d2	6a 00		 push	 0
  003d4	51		 push	 ecx
  003d5	c7 04 24 cd cc
	cc 3d		 mov	 DWORD PTR [esp], 1036831949 ; 3dcccccdH
  003dc	8d 8f d4 01 00
	00		 lea	 ecx, DWORD PTR [edi+468]
  003e2	50		 push	 eax
  003e3	e8 00 00 00 00	 call	 ?InterceptOnceMotion@CActorInstance@@QAE_NKMIM@Z ; CActorInstance::InterceptOnceMotion

; 1492 : 				}
; 1493 : 				break;

  003e8	e9 70 01 00 00	 jmp	 $LN41@StateProce
$LN33@StateProce:

; 1494 : 			}
; 1495 : 
; 1496 : 			case FUNC_EMOTION:
; 1497 : 			{
; 1498 : 				if (fDirLen>100.0f)

  003ed	f3 0f 10 45 e0	 movss	 xmm0, DWORD PTR _fDirLen$2[ebp]
  003f2	8b cf		 mov	 ecx, edi
  003f4	0f 2f 05 00 00
	00 00		 comiss	 xmm0, DWORD PTR __real@42c80000
  003fb	76 7c		 jbe	 SHORT $LN34@StateProce

; 1499 : 				{
; 1500 : 					NEW_SetSrcPixelPosition(kPPosCur);

  003fd	8d 45 e4	 lea	 eax, DWORD PTR _kPPosCur$3[ebp]
  00400	50		 push	 eax
  00401	e8 00 00 00 00	 call	 ?NEW_SetSrcPixelPosition@CInstanceBase@@IAEXABUD3DXVECTOR3@@@Z ; CInstanceBase::NEW_SetSrcPixelPosition

; 1501 : 					NEW_SetDstPixelPosition(kPPosDst);

  00406	8d 45 f0	 lea	 eax, DWORD PTR _kPPosDst$4[ebp]
  00409	8b cf		 mov	 ecx, edi
  0040b	50		 push	 eax
  0040c	e8 00 00 00 00	 call	 ?NEW_SetDstPixelPosition@CInstanceBase@@IAEXABUD3DXVECTOR3@@@Z ; CInstanceBase::NEW_SetDstPixelPosition

; 1502 : 					m_fDstRot = fRotDst;

  00411	f3 0f 10 45 c4	 movss	 xmm0, DWORD PTR _kCmdTop$1[ebp+8]

; 1503 : 					m_isGoing = TRUE;
; 1504 : 
; 1505 : 					if (__IsMainInstance())

  00416	8b cf		 mov	 ecx, edi
  00418	f3 0f 11 87 c0
	01 00 00	 movss	 DWORD PTR [edi+448], xmm0
  00420	c6 87 88 01 00
	00 01		 mov	 BYTE PTR [edi+392], 1
  00427	e8 00 00 00 00	 call	 ?__IsMainInstance@CInstanceBase@@IAE_NXZ ; CInstanceBase::__IsMainInstance
  0042c	84 c0		 test	 al, al
  0042e	74 07		 je	 SHORT $LN36@StateProce

; 1506 : 						__EnableSkipCollision();

  00430	8b cf		 mov	 ecx, edi
  00432	e8 00 00 00 00	 call	 ?__EnableSkipCollision@CInstanceBase@@IAEXXZ ; CInstanceBase::__EnableSkipCollision
$LN36@StateProce:

; 1507 : 
; 1508 : 					m_kMovAfterFunc.eFunc = FUNC_EMOTION;
; 1509 : 					m_kMovAfterFunc.uArg = uArg;

  00437	8b 45 cc	 mov	 eax, DWORD PTR _kCmdTop$1[ebp+16]

; 1510 : 					m_kMovAfterFunc.uArgExpanded = uTargetVID;
; 1511 : 					m_kMovAfterFunc.kPosDst = kPPosDst;
; 1512 : 
; 1513 : 					if (!IsWalking())

  0043a	8b cf		 mov	 ecx, edi
  0043c	f3 0f 7e 45 f0	 movq	 xmm0, QWORD PTR _kPPosDst$4[ebp]
  00441	89 87 ac 01 00
	00		 mov	 DWORD PTR [edi+428], eax
  00447	8b 45 d0	 mov	 eax, DWORD PTR _kCmdTop$1[ebp+20]
  0044a	89 87 b0 01 00
	00		 mov	 DWORD PTR [edi+432], eax
  00450	8b 45 f8	 mov	 eax, DWORD PTR _kPPosDst$4[ebp+8]
  00453	66 0f d6 87 b4
	01 00 00	 movq	 QWORD PTR [edi+436], xmm0
  0045b	c7 87 a8 01 00
	00 05 00 00 00	 mov	 DWORD PTR [edi+424], 5
  00465	89 87 bc 01 00
	00		 mov	 DWORD PTR [edi+444], eax
  0046b	e8 00 00 00 00	 call	 ?IsWalking@CInstanceBase@@QAEHXZ ; CInstanceBase::IsWalking
  00470	85 c0		 test	 eax, eax
  00472	74 7a		 je	 SHORT $LN121@StateProce
  00474	e9 e4 00 00 00	 jmp	 $LN41@StateProce
$LN34@StateProce:

; 1514 : 						StartWalking();
; 1515 : 				}
; 1516 : 				else
; 1517 : 				{
; 1518 : 					__ProcessFunctionEmotion(uArg, uTargetVID, kPPosDst);

  00479	8d 45 f0	 lea	 eax, DWORD PTR _kPPosDst$4[ebp]
  0047c	50		 push	 eax
  0047d	ff 75 d0	 push	 DWORD PTR _kCmdTop$1[ebp+20]
  00480	ff 75 cc	 push	 DWORD PTR _kCmdTop$1[ebp+16]
  00483	e8 00 00 00 00	 call	 ?__ProcessFunctionEmotion@CInstanceBase@@IAEXKKABUD3DXVECTOR3@@@Z ; CInstanceBase::__ProcessFunctionEmotion

; 1519 : 				}
; 1520 : 				break;

  00488	e9 d0 00 00 00	 jmp	 $LN41@StateProce
$LN38@StateProce:

; 1521 : 			}
; 1522 : 
; 1523 : 			default:
; 1524 : 			{
; 1525 : 				if (eFunc & FUNC_SKILL)

  0048d	84 db		 test	 bl, bl
  0048f	0f 89 c8 00 00
	00		 jns	 $LN41@StateProce

; 1526 : 				{
; 1527 : 					if (fDirLen >= 50.0f)

  00495	f3 0f 10 45 e0	 movss	 xmm0, DWORD PTR _fDirLen$2[ebp]
  0049a	8b cf		 mov	 ecx, edi
  0049c	0f 2f 05 00 00
	00 00		 comiss	 xmm0, DWORD PTR __real@42480000
  004a3	72 52		 jb	 SHORT $LN40@StateProce

; 1528 : 					{
; 1529 : 						//NEW_GetSrcPixelPositionRef() = kPPosCur;
; 1530 : 						//NEW_GetDstPixelPositionRef() = kPPosDst;
; 1531 : 						NEW_SetSrcPixelPosition(kPPosCur);

  004a5	8d 45 e4	 lea	 eax, DWORD PTR _kPPosCur$3[ebp]
  004a8	50		 push	 eax
  004a9	e8 00 00 00 00	 call	 ?NEW_SetSrcPixelPosition@CInstanceBase@@IAEXABUD3DXVECTOR3@@@Z ; CInstanceBase::NEW_SetSrcPixelPosition

; 1532 : 						NEW_SetDstPixelPosition(kPPosDst);

  004ae	8d 45 f0	 lea	 eax, DWORD PTR _kPPosDst$4[ebp]
  004b1	8b cf		 mov	 ecx, edi
  004b3	50		 push	 eax
  004b4	e8 00 00 00 00	 call	 ?NEW_SetDstPixelPosition@CInstanceBase@@IAEXABUD3DXVECTOR3@@@Z ; CInstanceBase::NEW_SetDstPixelPosition

; 1533 : 						m_fDstRot = fRotDst;

  004b9	f3 0f 10 45 c4	 movss	 xmm0, DWORD PTR _kCmdTop$1[ebp+8]

; 1534 : 						m_isGoing = TRUE;
; 1535 : 						//m_isSyncMov = TRUE;
; 1536 : 						__EnableSkipCollision();

  004be	8b cf		 mov	 ecx, edi
  004c0	f3 0f 11 87 c0
	01 00 00	 movss	 DWORD PTR [edi+448], xmm0
  004c8	c6 87 88 01 00
	00 01		 mov	 BYTE PTR [edi+392], 1
  004cf	e8 00 00 00 00	 call	 ?__EnableSkipCollision@CInstanceBase@@IAEXXZ ; CInstanceBase::__EnableSkipCollision

; 1537 : 
; 1538 : 						m_kMovAfterFunc.eFunc = eFunc;
; 1539 : 						m_kMovAfterFunc.uArg = uArg;

  004d4	8b 45 cc	 mov	 eax, DWORD PTR _kCmdTop$1[ebp+16]

; 1540 : 
; 1541 : 						if (!IsWalking())

  004d7	8b cf		 mov	 ecx, edi
  004d9	89 9f a8 01 00
	00		 mov	 DWORD PTR [edi+424], ebx
  004df	89 87 ac 01 00
	00		 mov	 DWORD PTR [edi+428], eax
  004e5	e8 00 00 00 00	 call	 ?IsWalking@CInstanceBase@@QAEHXZ ; CInstanceBase::IsWalking
  004ea	85 c0		 test	 eax, eax
  004ec	75 6f		 jne	 SHORT $LN41@StateProce
$LN121@StateProce:

; 1542 : 							StartWalking();

  004ee	8b cf		 mov	 ecx, edi
  004f0	e8 00 00 00 00	 call	 ?StartWalking@CInstanceBase@@IAEXXZ ; CInstanceBase::StartWalking

; 1543 : 
; 1544 : 						//Tracen("    ");
; 1545 : 					}

  004f5	eb 66		 jmp	 SHORT $LN41@StateProce
$LN40@StateProce:

; 1546 : 					else
; 1547 : 					{
; 1548 : 						//Tracen(" ");
; 1549 : 
; 1550 : 						m_isGoing = FALSE;

  004f7	c6 87 88 01 00
	00 00		 mov	 BYTE PTR [edi+392], 0

; 1551 : 
; 1552 : 						if (IsWalking())

  004fe	e8 00 00 00 00	 call	 ?IsWalking@CInstanceBase@@QAEHXZ ; CInstanceBase::IsWalking
  00503	85 c0		 test	 eax, eax
  00505	74 0f		 je	 SHORT $LN43@StateProce

; 1553 : 							EndWalking();

  00507	f3 0f 10 0d 00
	00 00 00	 movss	 xmm1, DWORD PTR __real@3e19999a
  0050f	8b cf		 mov	 ecx, edi
  00511	e8 00 00 00 00	 call	 ?EndWalking@CInstanceBase@@QAEXM@Z ; CInstanceBase::EndWalking
$LN43@StateProce:

; 1554 : 
; 1555 : 						SCRIPT_SetPixelPosition(kPPosDst.x, kPPosDst.y);

  00516	f3 0f 10 55 f4	 movss	 xmm2, DWORD PTR _kPPosDst$4[ebp+4]
  0051b	8b cf		 mov	 ecx, edi
  0051d	f3 0f 10 4d f0	 movss	 xmm1, DWORD PTR _kPPosDst$4[ebp]
  00522	e8 00 00 00 00	 call	 ?SCRIPT_SetPixelPosition@CInstanceBase@@QAEXMM@Z ; CInstanceBase::SCRIPT_SetPixelPosition

; 1556 : 						SetAdvancingRotation(fRotDst);

  00527	f3 0f 10 4d c4	 movss	 xmm1, DWORD PTR _kCmdTop$1[ebp+8]
  0052c	8b cf		 mov	 ecx, edi
  0052e	e8 00 00 00 00	 call	 ?SetAdvancingRotation@CInstanceBase@@QAEXM@Z ; CInstanceBase::SetAdvancingRotation

; 1557 : 						SetRotation(fRotDst);

  00533	f3 0f 10 4d c4	 movss	 xmm1, DWORD PTR _kCmdTop$1[ebp+8]
  00538	8b cf		 mov	 ecx, edi
  0053a	e8 00 00 00 00	 call	 ?SetRotation@CInstanceBase@@QAEXM@Z ; CInstanceBase::SetRotation

; 1558 : 
; 1559 : 						NEW_UseSkill(0, eFunc & 0x7f, uArg&0x0f, (uArg>>4) ? true : false);

  0053f	8b 4d cc	 mov	 ecx, DWORD PTR _kCmdTop$1[ebp+16]
  00542	83 f9 10	 cmp	 ecx, 16			; 00000010H
  00545	0f 93 c0	 setae	 al
  00548	83 e1 0f	 and	 ecx, 15			; 0000000fH
  0054b	0f b6 c0	 movzx	 eax, al
  0054e	83 e3 7f	 and	 ebx, 127		; 0000007fH
  00551	50		 push	 eax
  00552	51		 push	 ecx
  00553	53		 push	 ebx
  00554	6a 00		 push	 0
  00556	8b cf		 mov	 ecx, edi
  00558	e8 00 00 00 00	 call	 ?NEW_UseSkill@CInstanceBase@@QAE_NIII_N@Z ; CInstanceBase::NEW_UseSkill
$LN41@StateProce:
; File C:\Program Files\Microsoft Visual Studio\2022\Community\VC\Tools\MSVC\14.44.35207\include\list

; 1213 :         return _Mypair._Myval2._Mysize == 0;

  0055d	83 bf 94 06 00
	00 00		 cmp	 DWORD PTR [edi+1684], 0
; File D:\_m2work\Server Client TMP4\ClientVS22\source\UserInterface\InstanceBase.cpp

; 1282 : 		if (m_kQue_kCmdNew.empty())

  00564	0f 85 b8 fa ff
	ff		 jne	 $LL2@StateProce

; 1560 : 						//Tracen("   ");
; 1561 : 					}
; 1562 : 				}
; 1563 : 				break;
; 1564 : 			}
; 1565 : 		}
; 1566 : 	}
; 1567 : }

  0056a	5f		 pop	 edi
  0056b	5e		 pop	 esi
  0056c	5b		 pop	 ebx
  0056d	8b 4d fc	 mov	 ecx, DWORD PTR __$ArrayPad$[ebp]
  00570	33 cd		 xor	 ecx, ebp
  00572	e8 00 00 00 00	 call	 @__security_check_cookie@4
  00577	8b e5		 mov	 esp, ebp
  00579	5d		 pop	 ebp
  0057a	c3		 ret	 0
$LN116@StateProce:

; 1320 : 		{
; 1321 : 			Lognf(0, "vid=%d      IsDead=%d, IsKnockDown=%d", uVID, m_GraphicThingInstance.IsDead(), m_GraphicThingInstance.IsKnockDown());

  0057b	8d b7 d4 01 00
	00		 lea	 esi, DWORD PTR [edi+468]
  00581	8b ce		 mov	 ecx, esi
  00583	e8 00 00 00 00	 call	 ?IsKnockDown@CActorInstance@@QAEHXZ ; CActorInstance::IsKnockDown
  00588	8b ce		 mov	 ecx, esi
  0058a	8b f8		 mov	 edi, eax
  0058c	e8 00 00 00 00	 call	 ?IsDead@CActorInstance@@QAEHXZ ; CActorInstance::IsDead
  00591	57		 push	 edi
  00592	50		 push	 eax
  00593	53		 push	 ebx
  00594	68 00 00 00 00	 push	 OFFSET ??_C@_0DM@EIDAANLK@vid?$DN?$CFd?5?$LP?r?A?w?$MA?O?5?$LM?v?5?$LO?x?$LE?B?5?$LL?s?E?B?$LG?s?5?$LN?$LK@
  00599	6a 00		 push	 0
  0059b	e8 00 00 00 00	 call	 ?Lognf@@YAXIPBDZZ	; Lognf
  005a0	83 c4 14	 add	 esp, 20			; 00000014H
$LN113@StateProce:

; 1560 : 						//Tracen("   ");
; 1561 : 					}
; 1562 : 				}
; 1563 : 				break;
; 1564 : 			}
; 1565 : 		}
; 1566 : 	}
; 1567 : }

  005a3	8b 4d fc	 mov	 ecx, DWORD PTR __$ArrayPad$[ebp]
  005a6	5f		 pop	 edi
  005a7	5e		 pop	 esi
  005a8	33 cd		 xor	 ecx, ebp
  005aa	5b		 pop	 ebx
  005ab	e8 00 00 00 00	 call	 @__security_check_cookie@4
  005b0	8b e5		 mov	 esp, ebp
  005b2	5d		 pop	 ebp
  005b3	c3		 ret	 0
$LN128@StateProce:
  005b4	00 00 00 00	 DD	 $LN10@StateProce
  005b8	00 00 00 00	 DD	 $LN15@StateProce
  005bc	00 00 00 00	 DD	 $LN23@StateProce
  005c0	00 00 00 00	 DD	 $LN18@StateProce
  005c4	00 00 00 00	 DD	 $LN28@StateProce
  005c8	00 00 00 00	 DD	 $LN33@StateProce
?StateProcess@CInstanceBase@@IAEXXZ ENDP		; CInstanceBase::StateProcess
_TEXT	ENDS
; Function compile flags: /Ogtp
; File D:\_m2work\Server Client TMP4\ClientVS22\source\UserInterface\InstanceBase.cpp
; File D:\_m2work\Server Client TMP4\ClientVS22\extern\include\d3dx8math.inl
; File D:\_m2work\Server Client TMP4\ClientVS22\source\UserInterface\InstanceBase.cpp
; File D:\_m2work\Server Client TMP4\ClientVS22\extern\include\d3dx8math.inl
; File D:\_m2work\Server Client TMP4\ClientVS22\source\UserInterface\InstanceBase.cpp
; File D:\_m2work\Server Client TMP4\ClientVS22\extern\include\d3dx8math.inl
; File D:\_m2work\Server Client TMP4\ClientVS22\source\UserInterface\InstanceBase.cpp
; File D:\_m2work\Server Client TMP4\ClientVS22\extern\include\d3dx8math.inl
; File D:\_m2work\Server Client TMP4\ClientVS22\source\UserInterface\InstanceBase.cpp
; File D:\_m2work\Server Client TMP4\ClientVS22\extern\include\d3dx8math.inl
; File D:\_m2work\Server Client TMP4\ClientVS22\source\UserInterface\InstanceBase.cpp
; File D:\_m2work\Server Client TMP4\ClientVS22\extern\include\d3dx8math.inl
; File D:\_m2work\Server Client TMP4\ClientVS22\source\UserInterface\InstanceBase.cpp
; File C:\Program Files (x86)\Windows Kits\10\Include\10.0.26100.0\ucrt\corecrt_math.h
; File D:\_m2work\Server Client TMP4\ClientVS22\source\UserInterface\InstanceBase.cpp
; File C:\Program Files (x86)\Windows Kits\10\Include\10.0.26100.0\ucrt\corecrt_math.h
; File D:\_m2work\Server Client TMP4\ClientVS22\source\UserInterface\InstanceBase.cpp
; File C:\Program Files (x86)\Windows Kits\10\Include\10.0.26100.0\ucrt\corecrt_math.h
; File D:\_m2work\Server Client TMP4\ClientVS22\source\UserInterface\InstanceBase.cpp
; File C:\Program Files (x86)\Windows Kits\10\Include\10.0.26100.0\ucrt\corecrt_math.h
; File D:\_m2work\Server Client TMP4\ClientVS22\source\UserInterface\InstanceBase.cpp
; File C:\Program Files (x86)\Windows Kits\10\Include\10.0.26100.0\ucrt\corecrt_math.h
; File D:\_m2work\Server Client TMP4\ClientVS22\source\UserInterface\InstanceBase.cpp
; File C:\Program Files (x86)\Windows Kits\10\Include\10.0.26100.0\ucrt\corecrt_math.h
; File D:\_m2work\Server Client TMP4\ClientVS22\source\UserInterface\InstanceBase.cpp
; File C:\Program Files (x86)\Windows Kits\10\Include\10.0.26100.0\ucrt\corecrt_math.h
; File D:\_m2work\Server Client TMP4\ClientVS22\source\UserInterface\InstanceBase.cpp
; File C:\Program Files (x86)\Windows Kits\10\Include\10.0.26100.0\ucrt\corecrt_math.h
; File D:\_m2work\Server Client TMP4\ClientVS22\source\UserInterface\InstanceBase.cpp
; File C:\Program Files (x86)\Windows Kits\10\Include\10.0.26100.0\ucrt\corecrt_math.h
; File D:\_m2work\Server Client TMP4\ClientVS22\source\UserInterface\InstanceBase.cpp
; File C:\Program Files (x86)\Windows Kits\10\Include\10.0.26100.0\ucrt\corecrt_math.h
; File D:\_m2work\Server Client TMP4\ClientVS22\source\UserInterface\InstanceBase.cpp
;	COMDAT ?MovementProcess@CInstanceBase@@IAEXXZ
_TEXT	SEGMENT
_fRotation$1 = -48					; size = 4
tv929 = -48						; size = 4
_fAdvancingRotation$2 = -44				; size = 4
tv928 = -44						; size = 4
_fNextLen$1$ = -44					; size = 4
tv575 = -40						; size = 4
tv621 = -40						; size = 4
tv934 = -40						; size = 4
tv1020 = -40						; size = 4
tv1022 = -40						; size = 4
tv1024 = -40						; size = 4
tv1027 = -40						; size = 4
tv1081 = -40						; size = 8
tv1093 = -40						; size = 8
_fTotalLen$1$ = -40					; size = 4
tv922 = -28						; size = 4
_fRestLen$1$ = -28					; size = 4
_fRotation$1$ = -28					; size = 4
tv923 = -24						; size = 4
_fCurLen$1$ = -24					; size = 4
tv935 = -20						; size = 4
_kPPosCur$ = -16					; size = 12
__$ArrayPad$ = -4					; size = 4
?MovementProcess@CInstanceBase@@IAEXXZ PROC		; CInstanceBase::MovementProcess, COMDAT
; _this$ = ecx

; 1571 : {

  00000	55		 push	 ebp
  00001	8b ec		 mov	 ebp, esp
  00003	83 e4 f8	 and	 esp, -8			; fffffff8H
  00006	83 ec 34	 sub	 esp, 52			; 00000034H
  00009	a1 00 00 00 00	 mov	 eax, DWORD PTR ___security_cookie
  0000e	33 c4		 xor	 eax, esp
  00010	89 44 24 30	 mov	 DWORD PTR __$ArrayPad$[esp+52], eax
  00014	53		 push	 ebx
  00015	56		 push	 esi
  00016	57		 push	 edi

; 1572 : 	TPixelPosition kPPosCur;
; 1573 : 	NEW_GetPixelPosition(&kPPosCur);

  00017	8d 44 24 30	 lea	 eax, DWORD PTR _kPPosCur$[esp+64]
  0001b	8b f9		 mov	 edi, ecx
  0001d	50		 push	 eax
  0001e	e8 00 00 00 00	 call	 ?NEW_GetPixelPosition@CInstanceBase@@QAEXPAUD3DXVECTOR3@@@Z ; CInstanceBase::NEW_GetPixelPosition

; 1574 : 
; 1575 : 	//   y - .
; 1576 : 
; 1577 : 	TPixelPosition kPPosNext;
; 1578 : 	{
; 1579 : 		const D3DXVECTOR3 & c_rkV3Mov = m_GraphicThingInstance.GetMovementVectorRef();

  00023	8d 9f d4 01 00
	00		 lea	 ebx, DWORD PTR [edi+468]
  00029	8b cb		 mov	 ecx, ebx
  0002b	e8 00 00 00 00	 call	 ?GetMovementVectorRef@CActorInstance@@QAEABUD3DXVECTOR3@@XZ ; CActorInstance::GetMovementVectorRef

; 1580 : 
; 1581 : 		kPPosNext.x = kPPosCur.x + (+c_rkV3Mov.x);

  00030	f3 0f 10 44 24
	30		 movss	 xmm0, DWORD PTR _kPPosCur$[esp+64]

; 1582 : 		kPPosNext.y = kPPosCur.y + (-c_rkV3Mov.y);
; 1583 : 		kPPosNext.z = kPPosCur.z + (+c_rkV3Mov.z);
; 1584 : 	}
; 1585 : 
; 1586 : 	TPixelPosition kPPosDeltaSC = kPPosCur - NEW_GetSrcPixelPositionRef();

  00036	8b cf		 mov	 ecx, edi
  00038	f3 0f 58 00	 addss	 xmm0, DWORD PTR [eax]
  0003c	f3 0f 11 44 24
	10		 movss	 DWORD PTR tv929[esp+64], xmm0
  00042	f3 0f 10 44 24
	34		 movss	 xmm0, DWORD PTR _kPPosCur$[esp+68]
  00048	f3 0f 5c 40 04	 subss	 xmm0, DWORD PTR [eax+4]
  0004d	f3 0f 11 44 24
	14		 movss	 DWORD PTR tv928[esp+64], xmm0
  00053	e8 00 00 00 00	 call	 ?NEW_GetSrcPixelPositionRef@CInstanceBase@@IAEABUD3DXVECTOR3@@XZ ; CInstanceBase::NEW_GetSrcPixelPositionRef
; File D:\_m2work\Server Client TMP4\ClientVS22\extern\include\d3dx8math.inl

; 263  :     return D3DXVECTOR3(x - v.x, y - v.y, z - v.z);

  00058	f3 0f 10 44 24
	30		 movss	 xmm0, DWORD PTR _kPPosCur$[esp+64]
; File D:\_m2work\Server Client TMP4\ClientVS22\source\UserInterface\InstanceBase.cpp

; 1587 : 	TPixelPosition kPPosDeltaSN = kPPosNext - NEW_GetSrcPixelPositionRef();

  0005e	8b cf		 mov	 ecx, edi
; File D:\_m2work\Server Client TMP4\ClientVS22\extern\include\d3dx8math.inl

; 263  :     return D3DXVECTOR3(x - v.x, y - v.y, z - v.z);

  00060	f3 0f 5c 00	 subss	 xmm0, DWORD PTR [eax]
  00064	f3 0f 11 44 24
	24		 movss	 DWORD PTR tv922[esp+64], xmm0
  0006a	f3 0f 10 44 24
	34		 movss	 xmm0, DWORD PTR _kPPosCur$[esp+68]
  00070	f3 0f 5c 40 04	 subss	 xmm0, DWORD PTR [eax+4]
  00075	f3 0f 11 44 24
	28		 movss	 DWORD PTR tv923[esp+64], xmm0
; File D:\_m2work\Server Client TMP4\ClientVS22\source\UserInterface\InstanceBase.cpp

; 1587 : 	TPixelPosition kPPosDeltaSN = kPPosNext - NEW_GetSrcPixelPositionRef();

  0007b	e8 00 00 00 00	 call	 ?NEW_GetSrcPixelPositionRef@CInstanceBase@@IAEABUD3DXVECTOR3@@XZ ; CInstanceBase::NEW_GetSrcPixelPositionRef
; File D:\_m2work\Server Client TMP4\ClientVS22\extern\include\d3dx8math.inl

; 263  :     return D3DXVECTOR3(x - v.x, y - v.y, z - v.z);

  00080	f3 0f 10 44 24
	10		 movss	 xmm0, DWORD PTR tv929[esp+64]
; File D:\_m2work\Server Client TMP4\ClientVS22\source\UserInterface\InstanceBase.cpp

; 1588 : 	TPixelPosition kPPosDeltaSD = NEW_GetDstPixelPositionRef() - NEW_GetSrcPixelPositionRef();

  00086	8b cf		 mov	 ecx, edi
; File D:\_m2work\Server Client TMP4\ClientVS22\extern\include\d3dx8math.inl

; 263  :     return D3DXVECTOR3(x - v.x, y - v.y, z - v.z);

  00088	f3 0f 5c 00	 subss	 xmm0, DWORD PTR [eax]
  0008c	f3 0f 11 44 24
	10		 movss	 DWORD PTR tv929[esp+64], xmm0
  00092	f3 0f 10 44 24
	14		 movss	 xmm0, DWORD PTR tv928[esp+64]
  00098	f3 0f 5c 40 04	 subss	 xmm0, DWORD PTR [eax+4]
  0009d	f3 0f 11 44 24
	14		 movss	 DWORD PTR tv928[esp+64], xmm0
; File D:\_m2work\Server Client TMP4\ClientVS22\source\UserInterface\InstanceBase.cpp

; 1588 : 	TPixelPosition kPPosDeltaSD = NEW_GetDstPixelPositionRef() - NEW_GetSrcPixelPositionRef();

  000a3	e8 00 00 00 00	 call	 ?NEW_GetDstPixelPositionRef@CInstanceBase@@QAEABUD3DXVECTOR3@@XZ ; CInstanceBase::NEW_GetDstPixelPositionRef
  000a8	8b cf		 mov	 ecx, edi
  000aa	8b f0		 mov	 esi, eax
  000ac	e8 00 00 00 00	 call	 ?NEW_GetSrcPixelPositionRef@CInstanceBase@@IAEABUD3DXVECTOR3@@XZ ; CInstanceBase::NEW_GetSrcPixelPositionRef
; File D:\_m2work\Server Client TMP4\ClientVS22\extern\include\d3dx8math.inl

; 263  :     return D3DXVECTOR3(x - v.x, y - v.y, z - v.z);

  000b1	f3 0f 10 06	 movss	 xmm0, DWORD PTR [esi]
; File D:\_m2work\Server Client TMP4\ClientVS22\source\UserInterface\InstanceBase.cpp

; 1590 : 	float fCurLen = sqrtf(kPPosDeltaSC.x * kPPosDeltaSC.x + kPPosDeltaSC.y * kPPosDeltaSC.y);

  000b5	f3 0f 10 4c 24
	24		 movss	 xmm1, DWORD PTR tv922[esp+64]
  000bb	f3 0f 59 c9	 mulss	 xmm1, xmm1
; File D:\_m2work\Server Client TMP4\ClientVS22\extern\include\d3dx8math.inl

; 263  :     return D3DXVECTOR3(x - v.x, y - v.y, z - v.z);

  000bf	f3 0f 5c 00	 subss	 xmm0, DWORD PTR [eax]
  000c3	f3 0f 11 44 24
	18		 movss	 DWORD PTR tv934[esp+64], xmm0
  000c9	f3 0f 10 46 04	 movss	 xmm0, DWORD PTR [esi+4]
  000ce	f3 0f 5c 40 04	 subss	 xmm0, DWORD PTR [eax+4]
  000d3	f3 0f 11 44 24
	2c		 movss	 DWORD PTR tv935[esp+64], xmm0

; 181  :     y = fy;

  000d9	f3 0f 10 44 24
	28		 movss	 xmm0, DWORD PTR tv923[esp+64]
  000df	f3 0f 59 c0	 mulss	 xmm0, xmm0
; File D:\_m2work\Server Client TMP4\ClientVS22\source\UserInterface\InstanceBase.cpp

; 1590 : 	float fCurLen = sqrtf(kPPosDeltaSC.x * kPPosDeltaSC.x + kPPosDeltaSC.y * kPPosDeltaSC.y);

  000e3	f3 0f 58 c1	 addss	 xmm0, xmm1
  000e7	0f 57 c9	 xorps	 xmm1, xmm1
; File C:\Program Files (x86)\Windows Kits\10\Include\10.0.26100.0\ucrt\corecrt_math.h

; 799  :             return (float)sqrt(_X);

  000ea	0f 5a c0	 cvtps2pd xmm0, xmm0
  000ed	66 0f 2e c8	 ucomisd xmm1, xmm0
  000f1	77 06		 ja	 SHORT $LN70@MovementPr
  000f3	f2 0f 51 c0	 sqrtsd	 xmm0, xmm0
  000f7	eb 05		 jmp	 SHORT $LN71@MovementPr
$LN70@MovementPr:
  000f9	e8 00 00 00 00	 call	 __libm_sse2_sqrt_precise
$LN71@MovementPr:
; File D:\_m2work\Server Client TMP4\ClientVS22\source\UserInterface\InstanceBase.cpp

; 1591 : 	float fNextLen = sqrtf(kPPosDeltaSN.x * kPPosDeltaSN.x + kPPosDeltaSN.y * kPPosDeltaSN.y);

  000fe	f3 0f 10 4c 24
	10		 movss	 xmm1, DWORD PTR tv929[esp+64]
; File C:\Program Files (x86)\Windows Kits\10\Include\10.0.26100.0\ucrt\corecrt_math.h

; 799  :             return (float)sqrt(_X);

  00104	f2 0f 5a c0	 cvtsd2ss xmm0, xmm0
; File D:\_m2work\Server Client TMP4\ClientVS22\source\UserInterface\InstanceBase.cpp

; 1591 : 	float fNextLen = sqrtf(kPPosDeltaSN.x * kPPosDeltaSN.x + kPPosDeltaSN.y * kPPosDeltaSN.y);

  00108	f3 0f 59 c9	 mulss	 xmm1, xmm1
; File C:\Program Files (x86)\Windows Kits\10\Include\10.0.26100.0\ucrt\corecrt_math.h

; 799  :             return (float)sqrt(_X);

  0010c	f3 0f 11 44 24
	28		 movss	 DWORD PTR _fCurLen$1$[esp+64], xmm0
; File D:\_m2work\Server Client TMP4\ClientVS22\source\UserInterface\InstanceBase.cpp

; 1590 : 	float fCurLen = sqrtf(kPPosDeltaSC.x * kPPosDeltaSC.x + kPPosDeltaSC.y * kPPosDeltaSC.y);

  00112	f3 0f 10 44 24
	14		 movss	 xmm0, DWORD PTR tv928[esp+64]
  00118	f3 0f 59 c0	 mulss	 xmm0, xmm0

; 1591 : 	float fNextLen = sqrtf(kPPosDeltaSN.x * kPPosDeltaSN.x + kPPosDeltaSN.y * kPPosDeltaSN.y);

  0011c	f3 0f 58 c8	 addss	 xmm1, xmm0
; File C:\Program Files (x86)\Windows Kits\10\Include\10.0.26100.0\ucrt\corecrt_math.h

; 799  :             return (float)sqrt(_X);

  00120	0f 5a c1	 cvtps2pd xmm0, xmm1
  00123	0f 57 c9	 xorps	 xmm1, xmm1
  00126	66 0f 2e c8	 ucomisd xmm1, xmm0
  0012a	77 06		 ja	 SHORT $LN72@MovementPr
  0012c	f2 0f 51 c0	 sqrtsd	 xmm0, xmm0
  00130	eb 05		 jmp	 SHORT $LN73@MovementPr
$LN72@MovementPr:
  00132	e8 00 00 00 00	 call	 __libm_sse2_sqrt_precise
$LN73@MovementPr:
; File D:\_m2work\Server Client TMP4\ClientVS22\source\UserInterface\InstanceBase.cpp

; 1592 : 	float fTotalLen = sqrtf(kPPosDeltaSD.x * kPPosDeltaSD.x + kPPosDeltaSD.y * kPPosDeltaSD.y);

  00137	f3 0f 10 4c 24
	18		 movss	 xmm1, DWORD PTR tv934[esp+64]
; File C:\Program Files (x86)\Windows Kits\10\Include\10.0.26100.0\ucrt\corecrt_math.h

; 799  :             return (float)sqrt(_X);

  0013d	f2 0f 5a c0	 cvtsd2ss xmm0, xmm0
; File D:\_m2work\Server Client TMP4\ClientVS22\source\UserInterface\InstanceBase.cpp

; 1592 : 	float fTotalLen = sqrtf(kPPosDeltaSD.x * kPPosDeltaSD.x + kPPosDeltaSD.y * kPPosDeltaSD.y);

  00141	f3 0f 59 c9	 mulss	 xmm1, xmm1
; File C:\Program Files (x86)\Windows Kits\10\Include\10.0.26100.0\ucrt\corecrt_math.h

; 799  :             return (float)sqrt(_X);

  00145	f3 0f 11 44 24
	14		 movss	 DWORD PTR _fNextLen$1$[esp+64], xmm0
; File D:\_m2work\Server Client TMP4\ClientVS22\source\UserInterface\InstanceBase.cpp

; 1591 : 	float fNextLen = sqrtf(kPPosDeltaSN.x * kPPosDeltaSN.x + kPPosDeltaSN.y * kPPosDeltaSN.y);

  0014b	f3 0f 10 44 24
	2c		 movss	 xmm0, DWORD PTR tv935[esp+64]
  00151	f3 0f 59 c0	 mulss	 xmm0, xmm0

; 1592 : 	float fTotalLen = sqrtf(kPPosDeltaSD.x * kPPosDeltaSD.x + kPPosDeltaSD.y * kPPosDeltaSD.y);

  00155	f3 0f 58 c1	 addss	 xmm0, xmm1
  00159	0f 57 c9	 xorps	 xmm1, xmm1
; File C:\Program Files (x86)\Windows Kits\10\Include\10.0.26100.0\ucrt\corecrt_math.h

; 799  :             return (float)sqrt(_X);

  0015c	0f 5a c0	 cvtps2pd xmm0, xmm0
  0015f	66 0f 2e c8	 ucomisd xmm1, xmm0
  00163	77 06		 ja	 SHORT $LN74@MovementPr
  00165	f2 0f 51 c0	 sqrtsd	 xmm0, xmm0
  00169	eb 05		 jmp	 SHORT $LN75@MovementPr
$LN74@MovementPr:
  0016b	e8 00 00 00 00	 call	 __libm_sse2_sqrt_precise
$LN75@MovementPr:
  00170	f2 0f 5a c0	 cvtsd2ss xmm0, xmm0
; File D:\_m2work\Server Client TMP4\ClientVS22\source\UserInterface\InstanceBase.cpp

; 1595 : 	if (__IsMainInstance())

  00174	8b cf		 mov	 ecx, edi
; File C:\Program Files (x86)\Windows Kits\10\Include\10.0.26100.0\ucrt\corecrt_math.h

; 799  :             return (float)sqrt(_X);

  00176	f3 0f 11 44 24
	18		 movss	 DWORD PTR _fTotalLen$1$[esp+64], xmm0
; File D:\_m2work\Server Client TMP4\ClientVS22\source\UserInterface\InstanceBase.cpp

; 1593 : 	float fRestLen = fTotalLen - fCurLen;

  0017c	f3 0f 5c 44 24
	28		 subss	 xmm0, DWORD PTR _fCurLen$1$[esp+64]
  00182	f3 0f 11 44 24
	24		 movss	 DWORD PTR _fRestLen$1$[esp+64], xmm0

; 1595 : 	if (__IsMainInstance())

  00188	e8 00 00 00 00	 call	 ?__IsMainInstance@CInstanceBase@@IAE_NXZ ; CInstanceBase::__IsMainInstance

; 1596 : 	{
; 1597 : 		if (m_isGoing && IsWalking())

  0018d	80 bf 88 01 00
	00 00		 cmp	 BYTE PTR [edi+392], 0
  00194	0f 84 47 04 00
	00		 je	 $LN29@MovementPr

; 1595 : 	if (__IsMainInstance())

  0019a	8b cf		 mov	 ecx, edi
  0019c	84 c0		 test	 al, al
  0019e	0f 84 a7 00 00
	00		 je	 $LN4@MovementPr

; 1596 : 	{
; 1597 : 		if (m_isGoing && IsWalking())

  001a4	e8 00 00 00 00	 call	 ?IsWalking@CInstanceBase@@QAEHXZ ; CInstanceBase::IsWalking
  001a9	85 c0		 test	 eax, eax
  001ab	0f 84 30 04 00
	00		 je	 $LN29@MovementPr

; 1598 : 		{
; 1599 : 			float fDstRot = NEW_GetAdvancingRotationFromPixelPosition(NEW_GetSrcPixelPositionRef(), NEW_GetDstPixelPositionRef());

  001b1	8b cf		 mov	 ecx, edi
  001b3	e8 00 00 00 00	 call	 ?NEW_GetDstPixelPositionRef@CInstanceBase@@QAEABUD3DXVECTOR3@@XZ ; CInstanceBase::NEW_GetDstPixelPositionRef
  001b8	8b cf		 mov	 ecx, edi
  001ba	8b f0		 mov	 esi, eax
  001bc	e8 00 00 00 00	 call	 ?NEW_GetSrcPixelPositionRef@CInstanceBase@@IAEABUD3DXVECTOR3@@XZ ; CInstanceBase::NEW_GetSrcPixelPositionRef
  001c1	56		 push	 esi
  001c2	50		 push	 eax
  001c3	e8 00 00 00 00	 call	 ?NEW_GetAdvancingRotationFromPixelPosition@CInstanceBase@@QAEMABUD3DXVECTOR3@@0@Z ; CInstanceBase::NEW_GetAdvancingRotationFromPixelPosition

; 1600 : 
; 1601 : 			SetAdvancingRotation(fDstRot);

  001c8	0f 28 c8	 movaps	 xmm1, xmm0
  001cb	8b cf		 mov	 ecx, edi
  001cd	e8 00 00 00 00	 call	 ?SetAdvancingRotation@CInstanceBase@@QAEXM@Z ; CInstanceBase::SetAdvancingRotation
  001d2	0f 57 c0	 xorps	 xmm0, xmm0

; 1602 : 
; 1603 : 			if (fRestLen<=0.0)

  001d5	0f 2f 44 24 24	 comiss	 xmm0, DWORD PTR _fRestLen$1$[esp+64]
  001da	0f 82 01 04 00
	00		 jb	 $LN29@MovementPr

; 1604 : 			{
; 1605 : 				if (IsWalking())

  001e0	8b cf		 mov	 ecx, edi
  001e2	e8 00 00 00 00	 call	 ?IsWalking@CInstanceBase@@QAEHXZ ; CInstanceBase::IsWalking
  001e7	85 c0		 test	 eax, eax
  001e9	74 0f		 je	 SHORT $LN8@MovementPr

; 1606 : 					EndWalking();

  001eb	f3 0f 10 0d 00
	00 00 00	 movss	 xmm1, DWORD PTR __real@3e19999a
  001f3	8b cf		 mov	 ecx, edi
  001f5	e8 00 00 00 00	 call	 ?EndWalking@CInstanceBase@@QAEXM@Z ; CInstanceBase::EndWalking
$LN8@MovementPr:

; 1607 : 
; 1608 : 				//Tracen("  ");
; 1609 : 
; 1610 : 				m_isGoing = FALSE;
; 1611 : 
; 1612 : 				BlockMovement();

  001fa	8b cf		 mov	 ecx, edi
  001fc	c6 87 88 01 00
	00 00		 mov	 BYTE PTR [edi+392], 0
  00203	e8 00 00 00 00	 call	 ?BlockMovement@CInstanceBase@@QAEXXZ ; CInstanceBase::BlockMovement

; 1613 : 
; 1614 : 				if (FUNC_EMOTION == m_kMovAfterFunc.eFunc)

  00208	83 bf a8 01 00
	00 05		 cmp	 DWORD PTR [edi+424], 5
  0020f	0f 85 cc 03 00
	00		 jne	 $LN29@MovementPr

; 1615 : 				{
; 1616 : 					DWORD dwMotionNumber = m_kMovAfterFunc.uArg;
; 1617 : 					DWORD dwTargetVID = m_kMovAfterFunc.uArgExpanded;
; 1618 : 					__ProcessFunctionEmotion(dwMotionNumber, dwTargetVID, m_kMovAfterFunc.kPosDst);

  00215	8d 87 b4 01 00
	00		 lea	 eax, DWORD PTR [edi+436]
  0021b	8b cf		 mov	 ecx, edi
  0021d	50		 push	 eax
  0021e	ff b7 b0 01 00
	00		 push	 DWORD PTR [edi+432]
  00224	ff b7 ac 01 00
	00		 push	 DWORD PTR [edi+428]
  0022a	e8 00 00 00 00	 call	 ?__ProcessFunctionEmotion@CInstanceBase@@IAEXKKABUD3DXVECTOR3@@@Z ; CInstanceBase::__ProcessFunctionEmotion

; 1619 : 					m_kMovAfterFunc.eFunc = FUNC_WAIT;

  0022f	c7 87 a8 01 00
	00 00 00 00 00	 mov	 DWORD PTR [edi+424], 0

; 1810 : 				}
; 1811 : 			}
; 1812 : 		}
; 1813 : 	}
; 1814 : }

  00239	5f		 pop	 edi
  0023a	5e		 pop	 esi
  0023b	5b		 pop	 ebx
  0023c	8b 4c 24 30	 mov	 ecx, DWORD PTR __$ArrayPad$[esp+52]
  00240	33 cc		 xor	 ecx, esp
  00242	e8 00 00 00 00	 call	 @__security_check_cookie@4
  00247	8b e5		 mov	 esp, ebp
  00249	5d		 pop	 ebp
  0024a	c3		 ret	 0
$LN4@MovementPr:

; 1620 : 					return;
; 1621 : 				}
; 1622 : 			}
; 1623 : 		}
; 1624 : 	}
; 1625 : 	else
; 1626 : 	{
; 1627 : 		if (m_isGoing && IsWalking())

  0024b	e8 00 00 00 00	 call	 ?IsWalking@CInstanceBase@@QAEHXZ ; CInstanceBase::IsWalking
  00250	85 c0		 test	 eax, eax
  00252	0f 84 89 03 00
	00		 je	 $LN29@MovementPr

; 1628 : 		{
; 1629 : 			float fDstRot = NEW_GetAdvancingRotationFromPixelPosition(NEW_GetSrcPixelPositionRef(), NEW_GetDstPixelPositionRef());

  00258	8b cf		 mov	 ecx, edi
  0025a	e8 00 00 00 00	 call	 ?NEW_GetDstPixelPositionRef@CInstanceBase@@QAEABUD3DXVECTOR3@@XZ ; CInstanceBase::NEW_GetDstPixelPositionRef
  0025f	8b cf		 mov	 ecx, edi
  00261	8b f0		 mov	 esi, eax
  00263	e8 00 00 00 00	 call	 ?NEW_GetSrcPixelPositionRef@CInstanceBase@@IAEABUD3DXVECTOR3@@XZ ; CInstanceBase::NEW_GetSrcPixelPositionRef
  00268	56		 push	 esi
  00269	50		 push	 eax
  0026a	e8 00 00 00 00	 call	 ?NEW_GetAdvancingRotationFromPixelPosition@CInstanceBase@@QAEMABUD3DXVECTOR3@@0@Z ; CInstanceBase::NEW_GetAdvancingRotationFromPixelPosition

; 1630 : 
; 1631 : 			SetAdvancingRotation(fDstRot);

  0026f	0f 28 c8	 movaps	 xmm1, xmm0
  00272	8b cf		 mov	 ecx, edi
  00274	e8 00 00 00 00	 call	 ?SetAdvancingRotation@CInstanceBase@@QAEXM@Z ; CInstanceBase::SetAdvancingRotation

; 1632 : 
; 1633 : 			//      ..
; 1634 : 			if (fRestLen < -100.0f)

  00279	f3 0f 10 05 00
	00 00 00	 movss	 xmm0, DWORD PTR __real@c2c80000
  00281	0f 2f 44 24 24	 comiss	 xmm0, DWORD PTR _fRestLen$1$[esp+64]
  00286	76 44		 jbe	 SHORT $LN11@MovementPr

; 1635 : 			{
; 1636 : 				NEW_SetSrcPixelPosition(kPPosCur);

  00288	8d 44 24 30	 lea	 eax, DWORD PTR _kPPosCur$[esp+64]
  0028c	8b cf		 mov	 ecx, edi
  0028e	50		 push	 eax
  0028f	e8 00 00 00 00	 call	 ?NEW_SetSrcPixelPosition@CInstanceBase@@IAEXABUD3DXVECTOR3@@@Z ; CInstanceBase::NEW_SetSrcPixelPosition

; 1637 : 
; 1638 : 				float fDstRot = NEW_GetAdvancingRotationFromPixelPosition(kPPosCur, NEW_GetDstPixelPositionRef());

  00294	8b cf		 mov	 ecx, edi
  00296	e8 00 00 00 00	 call	 ?NEW_GetDstPixelPositionRef@CInstanceBase@@QAEABUD3DXVECTOR3@@XZ ; CInstanceBase::NEW_GetDstPixelPositionRef
  0029b	50		 push	 eax
  0029c	8d 44 24 34	 lea	 eax, DWORD PTR _kPPosCur$[esp+68]
  002a0	50		 push	 eax
  002a1	e8 00 00 00 00	 call	 ?NEW_GetAdvancingRotationFromPixelPosition@CInstanceBase@@QAEMABUD3DXVECTOR3@@0@Z ; CInstanceBase::NEW_GetAdvancingRotationFromPixelPosition

; 1639 : 				SetAdvancingRotation(fDstRot);

  002a6	0f 28 c8	 movaps	 xmm1, xmm0
  002a9	8b cf		 mov	 ecx, edi
  002ab	e8 00 00 00 00	 call	 ?SetAdvancingRotation@CInstanceBase@@QAEXM@Z ; CInstanceBase::SetAdvancingRotation

; 1640 : 				//Tracenf("VID %d   (%f, %f) %f rest %f", GetVirtualID(), kPPosCur.x, kPPosCur.y, fDstRot, fRestLen);			
; 1641 : 
; 1642 : 				//    
; 1643 : 				if (FUNC_MOVE == m_kMovAfterFunc.eFunc)

  002b0	83 bf a8 01 00
	00 01		 cmp	 DWORD PTR [edi+424], 1
  002b7	0f 85 24 03 00
	00		 jne	 $LN29@MovementPr

; 1644 : 				{
; 1645 : 					m_kMovAfterFunc.eFunc = FUNC_WAIT;

  002bd	c7 87 a8 01 00
	00 00 00 00 00	 mov	 DWORD PTR [edi+424], 0

; 1646 : 				}
; 1647 : 			}

  002c7	e9 15 03 00 00	 jmp	 $LN29@MovementPr
$LN11@MovementPr:

; 1648 : 			// ...
; 1649 : 			else if (fCurLen <= fTotalLen && fTotalLen <= fNextLen)

  002cc	f3 0f 10 44 24
	18		 movss	 xmm0, DWORD PTR _fTotalLen$1$[esp+64]
  002d2	0f 2f 44 24 28	 comiss	 xmm0, DWORD PTR _fCurLen$1$[esp+64]
  002d7	0f 82 04 03 00
	00		 jb	 $LN29@MovementPr
  002dd	f3 0f 10 4c 24
	14		 movss	 xmm1, DWORD PTR _fNextLen$1$[esp+64]
  002e3	0f 2f c8	 comiss	 xmm1, xmm0
  002e6	0f 82 f5 02 00
	00		 jb	 $LN29@MovementPr

; 1650 : 			{
; 1651 : 				if (m_GraphicThingInstance.IsDead() || m_GraphicThingInstance.IsKnockDown())

  002ec	8b cb		 mov	 ecx, ebx
  002ee	e8 00 00 00 00	 call	 ?IsDead@CActorInstance@@QAEHXZ ; CActorInstance::IsDead
  002f3	85 c0		 test	 eax, eax
  002f5	0f 85 d8 02 00
	00		 jne	 $LN17@MovementPr
  002fb	8b cb		 mov	 ecx, ebx
  002fd	e8 00 00 00 00	 call	 ?IsKnockDown@CActorInstance@@QAEHXZ ; CActorInstance::IsKnockDown
  00302	85 c0		 test	 eax, eax
  00304	0f 85 c9 02 00
	00		 jne	 $LN17@MovementPr

; 1658 : 
; 1659 : 					//Tracen("     ");
; 1660 : 				}
; 1661 : 				else
; 1662 : 				{
; 1663 : 					switch (m_kMovAfterFunc.eFunc)

  0030a	8b 8f a8 01 00
	00		 mov	 ecx, DWORD PTR [edi+424]
  00310	8d 41 ff	 lea	 eax, DWORD PTR [ecx-1]
  00313	83 f8 04	 cmp	 eax, 4
  00316	0f 87 e2 01 00
	00		 ja	 $LN26@MovementPr
  0031c	ff 24 85 00 00
	00 00		 jmp	 DWORD PTR $LN67@MovementPr[eax*4]
$LN18@MovementPr:

; 1664 : 					{
; 1665 : 						case FUNC_ATTACK:
; 1666 : 						{
; 1667 : 							if (IsWalking())

  00323	8b cf		 mov	 ecx, edi
  00325	e8 00 00 00 00	 call	 ?IsWalking@CInstanceBase@@QAEHXZ ; CInstanceBase::IsWalking
  0032a	85 c0		 test	 eax, eax
  0032c	74 0f		 je	 SHORT $LN19@MovementPr

; 1668 : 								EndWalking();

  0032e	f3 0f 10 0d 00
	00 00 00	 movss	 xmm1, DWORD PTR __real@3e19999a
  00336	8b cf		 mov	 ecx, edi
  00338	e8 00 00 00 00	 call	 ?EndWalking@CInstanceBase@@QAEXM@Z ; CInstanceBase::EndWalking
$LN19@MovementPr:

; 1669 : 
; 1670 : 							__DisableSkipCollision();

  0033d	8b cf		 mov	 ecx, edi
  0033f	e8 00 00 00 00	 call	 ?__DisableSkipCollision@CInstanceBase@@IAEXXZ ; CInstanceBase::__DisableSkipCollision

; 1671 : 							m_isGoing = FALSE;
; 1672 : 
; 1673 : 							BlockMovement();

  00344	8b cf		 mov	 ecx, edi
  00346	c6 87 88 01 00
	00 00		 mov	 BYTE PTR [edi+392], 0
  0034d	e8 00 00 00 00	 call	 ?BlockMovement@CInstanceBase@@QAEXXZ ; CInstanceBase::BlockMovement

; 1674 : 							SCRIPT_SetPixelPosition(NEW_GetDstPixelPositionRef().x, NEW_GetDstPixelPositionRef().y);

  00352	8b cf		 mov	 ecx, edi
  00354	e8 00 00 00 00	 call	 ?NEW_GetDstPixelPositionRef@CInstanceBase@@QAEABUD3DXVECTOR3@@XZ ; CInstanceBase::NEW_GetDstPixelPositionRef
  00359	8b cf		 mov	 ecx, edi
  0035b	f3 0f 10 40 04	 movss	 xmm0, DWORD PTR [eax+4]
  00360	f3 0f 11 44 24
	18		 movss	 DWORD PTR tv1020[esp+64], xmm0
  00366	e8 00 00 00 00	 call	 ?NEW_GetDstPixelPositionRef@CInstanceBase@@QAEABUD3DXVECTOR3@@XZ ; CInstanceBase::NEW_GetDstPixelPositionRef
  0036b	f3 0f 10 54 24
	18		 movss	 xmm2, DWORD PTR tv1020[esp+64]
  00371	8b cf		 mov	 ecx, edi
  00373	f3 0f 10 08	 movss	 xmm1, DWORD PTR [eax]
  00377	e8 00 00 00 00	 call	 ?SCRIPT_SetPixelPosition@CInstanceBase@@QAEXMM@Z ; CInstanceBase::SCRIPT_SetPixelPosition

; 1675 : 							SetAdvancingRotation(m_fDstRot);

  0037c	f3 0f 10 8f c0
	01 00 00	 movss	 xmm1, DWORD PTR [edi+448]
  00384	8b cf		 mov	 ecx, edi
  00386	e8 00 00 00 00	 call	 ?SetAdvancingRotation@CInstanceBase@@QAEXM@Z ; CInstanceBase::SetAdvancingRotation

; 1676 : 							SetRotation(m_fDstRot);

  0038b	f3 0f 10 8f c0
	01 00 00	 movss	 xmm1, DWORD PTR [edi+448]
  00393	8b cf		 mov	 ecx, edi
  00395	e8 00 00 00 00	 call	 ?SetRotation@CInstanceBase@@QAEXM@Z ; CInstanceBase::SetRotation

; 1677 : 
; 1678 : 							RunNormalAttack(m_fDstRot);

  0039a	f3 0f 10 8f c0
	01 00 00	 movss	 xmm1, DWORD PTR [edi+448]
  003a2	8b cf		 mov	 ecx, edi
  003a4	e8 00 00 00 00	 call	 ?RunNormalAttack@CInstanceBase@@QAEXM@Z ; CInstanceBase::RunNormalAttack

; 1679 : 							break;

  003a9	e9 33 02 00 00	 jmp	 $LN29@MovementPr
$LN20@MovementPr:

; 1680 : 						}
; 1681 : 
; 1682 : 						case FUNC_COMBO:
; 1683 : 						{
; 1684 : 							if (IsWalking())

  003ae	8b cf		 mov	 ecx, edi
  003b0	e8 00 00 00 00	 call	 ?IsWalking@CInstanceBase@@QAEHXZ ; CInstanceBase::IsWalking
  003b5	85 c0		 test	 eax, eax
  003b7	74 0f		 je	 SHORT $LN21@MovementPr

; 1685 : 								EndWalking();

  003b9	f3 0f 10 0d 00
	00 00 00	 movss	 xmm1, DWORD PTR __real@3e19999a
  003c1	8b cf		 mov	 ecx, edi
  003c3	e8 00 00 00 00	 call	 ?EndWalking@CInstanceBase@@QAEXM@Z ; CInstanceBase::EndWalking
$LN21@MovementPr:

; 1686 : 
; 1687 : 							__DisableSkipCollision();

  003c8	8b cf		 mov	 ecx, edi
  003ca	e8 00 00 00 00	 call	 ?__DisableSkipCollision@CInstanceBase@@IAEXXZ ; CInstanceBase::__DisableSkipCollision

; 1688 : 							m_isGoing = FALSE;
; 1689 : 
; 1690 : 							BlockMovement();

  003cf	8b cf		 mov	 ecx, edi
  003d1	c6 87 88 01 00
	00 00		 mov	 BYTE PTR [edi+392], 0
  003d8	e8 00 00 00 00	 call	 ?BlockMovement@CInstanceBase@@QAEXXZ ; CInstanceBase::BlockMovement

; 1691 : 							SCRIPT_SetPixelPosition(NEW_GetDstPixelPositionRef().x, NEW_GetDstPixelPositionRef().y);

  003dd	8b cf		 mov	 ecx, edi
  003df	e8 00 00 00 00	 call	 ?NEW_GetDstPixelPositionRef@CInstanceBase@@QAEABUD3DXVECTOR3@@XZ ; CInstanceBase::NEW_GetDstPixelPositionRef
  003e4	8b cf		 mov	 ecx, edi
  003e6	f3 0f 10 40 04	 movss	 xmm0, DWORD PTR [eax+4]
  003eb	f3 0f 11 44 24
	18		 movss	 DWORD PTR tv1022[esp+64], xmm0
  003f1	e8 00 00 00 00	 call	 ?NEW_GetDstPixelPositionRef@CInstanceBase@@QAEABUD3DXVECTOR3@@XZ ; CInstanceBase::NEW_GetDstPixelPositionRef
  003f6	f3 0f 10 54 24
	18		 movss	 xmm2, DWORD PTR tv1022[esp+64]
  003fc	8b cf		 mov	 ecx, edi
  003fe	f3 0f 10 08	 movss	 xmm1, DWORD PTR [eax]
  00402	e8 00 00 00 00	 call	 ?SCRIPT_SetPixelPosition@CInstanceBase@@QAEXMM@Z ; CInstanceBase::SCRIPT_SetPixelPosition

; 1692 : 							RunComboAttack(m_fDstRot, m_kMovAfterFunc.uArg);

  00407	ff b7 ac 01 00
	00		 push	 DWORD PTR [edi+428]
  0040d	f3 0f 10 8f c0
	01 00 00	 movss	 xmm1, DWORD PTR [edi+448]
  00415	8b cf		 mov	 ecx, edi
  00417	e8 00 00 00 00	 call	 ?RunComboAttack@CInstanceBase@@QAEXMK@Z ; CInstanceBase::RunComboAttack

; 1693 : 							break;

  0041c	e9 c0 01 00 00	 jmp	 $LN29@MovementPr
$LN22@MovementPr:

; 1694 : 						}
; 1695 : 
; 1696 : 						case FUNC_EMOTION:
; 1697 : 						{
; 1698 : 							m_isGoing = FALSE;
; 1699 : 							m_kMovAfterFunc.eFunc = FUNC_WAIT;
; 1700 : 							__DisableSkipCollision();

  00421	8b cf		 mov	 ecx, edi
  00423	c6 87 88 01 00
	00 00		 mov	 BYTE PTR [edi+392], 0
  0042a	c7 87 a8 01 00
	00 00 00 00 00	 mov	 DWORD PTR [edi+424], 0
  00434	e8 00 00 00 00	 call	 ?__DisableSkipCollision@CInstanceBase@@IAEXXZ ; CInstanceBase::__DisableSkipCollision

; 1701 : 							BlockMovement();

  00439	8b cf		 mov	 ecx, edi
  0043b	e8 00 00 00 00	 call	 ?BlockMovement@CInstanceBase@@QAEXXZ ; CInstanceBase::BlockMovement

; 1702 : 
; 1703 : 							DWORD dwMotionNumber = m_kMovAfterFunc.uArg;
; 1704 : 							DWORD dwTargetVID = m_kMovAfterFunc.uArgExpanded;
; 1705 : 							__ProcessFunctionEmotion(dwMotionNumber, dwTargetVID, m_kMovAfterFunc.kPosDst);

  00440	8d 87 b4 01 00
	00		 lea	 eax, DWORD PTR [edi+436]
  00446	8b cf		 mov	 ecx, edi
  00448	50		 push	 eax
  00449	ff b7 b0 01 00
	00		 push	 DWORD PTR [edi+432]
  0044f	ff b7 ac 01 00
	00		 push	 DWORD PTR [edi+428]
  00455	e8 00 00 00 00	 call	 ?__ProcessFunctionEmotion@CInstanceBase@@IAEXKKABUD3DXVECTOR3@@@Z ; CInstanceBase::__ProcessFunctionEmotion

; 1706 : 							break;

  0045a	e9 82 01 00 00	 jmp	 $LN29@MovementPr
$LN24@MovementPr:

; 1707 : 						}
; 1708 : 
; 1709 : 						case FUNC_MOVE:
; 1710 : 						{
; 1711 : 							break;
; 1712 : 						}
; 1713 : 
; 1714 : 						case FUNC_MOB_SKILL:
; 1715 : 						{
; 1716 : 							if (IsWalking())

  0045f	8b cf		 mov	 ecx, edi
  00461	e8 00 00 00 00	 call	 ?IsWalking@CInstanceBase@@QAEHXZ ; CInstanceBase::IsWalking
  00466	85 c0		 test	 eax, eax
  00468	74 0f		 je	 SHORT $LN25@MovementPr

; 1717 : 								EndWalking();

  0046a	f3 0f 10 0d 00
	00 00 00	 movss	 xmm1, DWORD PTR __real@3e19999a
  00472	8b cf		 mov	 ecx, edi
  00474	e8 00 00 00 00	 call	 ?EndWalking@CInstanceBase@@QAEXM@Z ; CInstanceBase::EndWalking
$LN25@MovementPr:

; 1718 : 
; 1719 : 							__DisableSkipCollision();

  00479	8b cf		 mov	 ecx, edi
  0047b	e8 00 00 00 00	 call	 ?__DisableSkipCollision@CInstanceBase@@IAEXXZ ; CInstanceBase::__DisableSkipCollision

; 1720 : 							m_isGoing = FALSE;
; 1721 : 
; 1722 : 							BlockMovement();

  00480	8b cf		 mov	 ecx, edi
  00482	c6 87 88 01 00
	00 00		 mov	 BYTE PTR [edi+392], 0
  00489	e8 00 00 00 00	 call	 ?BlockMovement@CInstanceBase@@QAEXXZ ; CInstanceBase::BlockMovement

; 1723 : 							SCRIPT_SetPixelPosition(NEW_GetDstPixelPositionRef().x, NEW_GetDstPixelPositionRef().y);

  0048e	8b cf		 mov	 ecx, edi
  00490	e8 00 00 00 00	 call	 ?NEW_GetDstPixelPositionRef@CInstanceBase@@QAEABUD3DXVECTOR3@@XZ ; CInstanceBase::NEW_GetDstPixelPositionRef
  00495	8b cf		 mov	 ecx, edi
  00497	f3 0f 10 40 04	 movss	 xmm0, DWORD PTR [eax+4]
  0049c	f3 0f 11 44 24
	18		 movss	 DWORD PTR tv1024[esp+64], xmm0
  004a2	e8 00 00 00 00	 call	 ?NEW_GetDstPixelPositionRef@CInstanceBase@@QAEABUD3DXVECTOR3@@XZ ; CInstanceBase::NEW_GetDstPixelPositionRef
  004a7	f3 0f 10 54 24
	18		 movss	 xmm2, DWORD PTR tv1024[esp+64]
  004ad	8b cf		 mov	 ecx, edi
  004af	f3 0f 10 08	 movss	 xmm1, DWORD PTR [eax]
  004b3	e8 00 00 00 00	 call	 ?SCRIPT_SetPixelPosition@CInstanceBase@@QAEXMM@Z ; CInstanceBase::SCRIPT_SetPixelPosition

; 1724 : 							SetAdvancingRotation(m_fDstRot);

  004b8	f3 0f 10 8f c0
	01 00 00	 movss	 xmm1, DWORD PTR [edi+448]
  004c0	8b cf		 mov	 ecx, edi
  004c2	e8 00 00 00 00	 call	 ?SetAdvancingRotation@CInstanceBase@@QAEXM@Z ; CInstanceBase::SetAdvancingRotation

; 1725 : 							SetRotation(m_fDstRot);

  004c7	f3 0f 10 8f c0
	01 00 00	 movss	 xmm1, DWORD PTR [edi+448]
  004cf	8b cf		 mov	 ecx, edi
  004d1	e8 00 00 00 00	 call	 ?SetRotation@CInstanceBase@@QAEXM@Z ; CInstanceBase::SetRotation

; 1726 : 
; 1727 : 							m_GraphicThingInstance.InterceptOnceMotion(CRaceMotionData::NAME_SPECIAL_1 + m_kMovAfterFunc.uArg);

  004d6	8b 87 ac 01 00
	00		 mov	 eax, DWORD PTR [edi+428]
  004dc	51		 push	 ecx
  004dd	c7 04 24 00 00
	80 3f		 mov	 DWORD PTR [esp], 1065353216 ; 3f800000H
  004e4	83 c0 21	 add	 eax, 33			; 00000021H
  004e7	6a 00		 push	 0
  004e9	51		 push	 ecx
  004ea	c7 04 24 cd cc
	cc 3d		 mov	 DWORD PTR [esp], 1036831949 ; 3dcccccdH
  004f1	8b cb		 mov	 ecx, ebx
  004f3	50		 push	 eax
  004f4	e8 00 00 00 00	 call	 ?InterceptOnceMotion@CActorInstance@@QAE_NKMIM@Z ; CActorInstance::InterceptOnceMotion

; 1728 : 							break;

  004f9	e9 e3 00 00 00	 jmp	 $LN29@MovementPr
$LN26@MovementPr:

; 1729 : 						}
; 1730 : 
; 1731 : 						default:
; 1732 : 						{
; 1733 : 							if (m_kMovAfterFunc.eFunc & FUNC_SKILL)

  004fe	84 c9		 test	 cl, cl
  00500	8b cf		 mov	 ecx, edi
  00502	79 50		 jns	 SHORT $LN27@MovementPr

; 1734 : 							{
; 1735 : 								SetAdvancingRotation(m_fDstRot);

  00504	f3 0f 10 8f c0
	01 00 00	 movss	 xmm1, DWORD PTR [edi+448]
  0050c	e8 00 00 00 00	 call	 ?SetAdvancingRotation@CInstanceBase@@QAEXM@Z ; CInstanceBase::SetAdvancingRotation

; 1736 : 								BlendRotation(m_fDstRot);

  00511	f3 0f 10 15 00
	00 00 00	 movss	 xmm2, DWORD PTR __real@3dcccccd
  00519	8b cf		 mov	 ecx, edi
  0051b	f3 0f 10 8f c0
	01 00 00	 movss	 xmm1, DWORD PTR [edi+448]
  00523	e8 00 00 00 00	 call	 ?BlendRotation@CInstanceBase@@QAEXMM@Z ; CInstanceBase::BlendRotation

; 1737 : 								NEW_UseSkill(0, m_kMovAfterFunc.eFunc & 0x7f, m_kMovAfterFunc.uArg&0x0f, (m_kMovAfterFunc.uArg>>4) ? true : false);

  00528	8b 8f ac 01 00
	00		 mov	 ecx, DWORD PTR [edi+428]
  0052e	83 f9 10	 cmp	 ecx, 16			; 00000010H
  00531	0f 93 c0	 setae	 al
  00534	83 e1 0f	 and	 ecx, 15			; 0000000fH
  00537	0f b6 c0	 movzx	 eax, al
  0053a	50		 push	 eax
  0053b	8b 87 a8 01 00
	00		 mov	 eax, DWORD PTR [edi+424]
  00541	51		 push	 ecx
  00542	83 e0 7f	 and	 eax, 127		; 0000007fH
  00545	8b cf		 mov	 ecx, edi
  00547	50		 push	 eax
  00548	6a 00		 push	 0
  0054a	e8 00 00 00 00	 call	 ?NEW_UseSkill@CInstanceBase@@QAE_NIII_N@Z ; CInstanceBase::NEW_UseSkill

; 1738 : 							}

  0054f	e9 8d 00 00 00	 jmp	 $LN29@MovementPr
$LN27@MovementPr:

; 1739 : 							else
; 1740 : 							{
; 1741 : 								//Tracenf("VID %d   (%f, %f) rot %f", GetVirtualID(), NEW_GetDstPixelPositionRef().x, NEW_GetDstPixelPositionRef().y, m_fDstRot);
; 1742 : 
; 1743 : 								__DisableSkipCollision();

  00554	e8 00 00 00 00	 call	 ?__DisableSkipCollision@CInstanceBase@@IAEXXZ ; CInstanceBase::__DisableSkipCollision

; 1744 : 								m_isGoing = FALSE;
; 1745 : 
; 1746 : 								BlockMovement();

  00559	8b cf		 mov	 ecx, edi
  0055b	c6 87 88 01 00
	00 00		 mov	 BYTE PTR [edi+392], 0
  00562	e8 00 00 00 00	 call	 ?BlockMovement@CInstanceBase@@QAEXXZ ; CInstanceBase::BlockMovement

; 1747 : 								SCRIPT_SetPixelPosition(NEW_GetDstPixelPositionRef().x, NEW_GetDstPixelPositionRef().y);

  00567	8b cf		 mov	 ecx, edi
  00569	e8 00 00 00 00	 call	 ?NEW_GetDstPixelPositionRef@CInstanceBase@@QAEABUD3DXVECTOR3@@XZ ; CInstanceBase::NEW_GetDstPixelPositionRef
  0056e	8b cf		 mov	 ecx, edi
  00570	f3 0f 10 40 04	 movss	 xmm0, DWORD PTR [eax+4]
  00575	f3 0f 11 44 24
	18		 movss	 DWORD PTR tv1027[esp+64], xmm0
  0057b	e8 00 00 00 00	 call	 ?NEW_GetDstPixelPositionRef@CInstanceBase@@QAEABUD3DXVECTOR3@@XZ ; CInstanceBase::NEW_GetDstPixelPositionRef
  00580	f3 0f 10 54 24
	18		 movss	 xmm2, DWORD PTR tv1027[esp+64]
  00586	8b cf		 mov	 ecx, edi
  00588	f3 0f 10 08	 movss	 xmm1, DWORD PTR [eax]
  0058c	e8 00 00 00 00	 call	 ?SCRIPT_SetPixelPosition@CInstanceBase@@QAEXMM@Z ; CInstanceBase::SCRIPT_SetPixelPosition

; 1748 : 								SetAdvancingRotation(m_fDstRot);

  00591	f3 0f 10 8f c0
	01 00 00	 movss	 xmm1, DWORD PTR [edi+448]
  00599	8b cf		 mov	 ecx, edi
  0059b	e8 00 00 00 00	 call	 ?SetAdvancingRotation@CInstanceBase@@QAEXM@Z ; CInstanceBase::SetAdvancingRotation

; 1749 : 								BlendRotation(m_fDstRot);

  005a0	f3 0f 10 15 00
	00 00 00	 movss	 xmm2, DWORD PTR __real@3dcccccd
  005a8	8b cf		 mov	 ecx, edi
  005aa	f3 0f 10 8f c0
	01 00 00	 movss	 xmm1, DWORD PTR [edi+448]
  005b2	e8 00 00 00 00	 call	 ?BlendRotation@CInstanceBase@@QAEXMM@Z ; CInstanceBase::BlendRotation

; 1750 : 								if (!IsWaiting())

  005b7	8b cf		 mov	 ecx, edi
  005b9	e8 00 00 00 00	 call	 ?IsWaiting@CInstanceBase@@QAEHXZ ; CInstanceBase::IsWaiting
  005be	85 c0		 test	 eax, eax
  005c0	75 1f		 jne	 SHORT $LN29@MovementPr

; 1751 : 								{
; 1752 : 									EndWalking();

  005c2	f3 0f 10 0d 00
	00 00 00	 movss	 xmm1, DWORD PTR __real@3e19999a
  005ca	8b cf		 mov	 ecx, edi
  005cc	e8 00 00 00 00	 call	 ?EndWalking@CInstanceBase@@QAEXM@Z ; CInstanceBase::EndWalking
  005d1	eb 0e		 jmp	 SHORT $LN29@MovementPr
$LN17@MovementPr:

; 1652 : 				{
; 1653 : 					__DisableSkipCollision();

  005d3	8b cf		 mov	 ecx, edi
  005d5	e8 00 00 00 00	 call	 ?__DisableSkipCollision@CInstanceBase@@IAEXXZ ; CInstanceBase::__DisableSkipCollision

; 1654 : 
; 1655 : 					//Tracen("   ");
; 1656 : 
; 1657 : 					m_isGoing = FALSE;

  005da	c6 87 88 01 00
	00 00		 mov	 BYTE PTR [edi+392], 0
$LN29@MovementPr:

; 1753 : 								}
; 1754 : 
; 1755 : 								//Tracenf("VID %d  (%f, %f) rot %f IsWalking %d", GetVirtualID(), NEW_GetDstPixelPositionRef().x, NEW_GetDstPixelPositionRef().y, m_fDstRot, IsWalking());
; 1756 : 							}
; 1757 : 							break;
; 1758 : 						}
; 1759 : 					}
; 1760 : 
; 1761 : 				}
; 1762 : 			}
; 1763 : 
; 1764 : 		}
; 1765 : 	}
; 1766 : 
; 1767 : 	if (IsWalking() || m_GraphicThingInstance.IsUsingMovingSkill())

  005e1	8b cf		 mov	 ecx, edi
  005e3	e8 00 00 00 00	 call	 ?IsWalking@CInstanceBase@@QAEHXZ ; CInstanceBase::IsWalking
  005e8	85 c0		 test	 eax, eax
  005ea	75 0f		 jne	 SHORT $LN31@MovementPr
  005ec	8b cb		 mov	 ecx, ebx
  005ee	e8 00 00 00 00	 call	 ?IsUsingMovingSkill@CActorInstance@@QAEHXZ ; CActorInstance::IsUsingMovingSkill
  005f3	85 c0		 test	 eax, eax
  005f5	0f 84 7f 01 00
	00		 je	 $LN41@MovementPr
$LN31@MovementPr:

; 1768 : 	{
; 1769 : 		float fRotation = m_GraphicThingInstance.GetRotation();

  005fb	8b cb		 mov	 ecx, ebx
  005fd	e8 00 00 00 00	 call	 ?GetRotation@CActorInstance@@QAEMXZ ; CActorInstance::GetRotation
  00602	d9 5c 24 10	 fstp	 DWORD PTR _fRotation$1[esp+64]

; 1770 : 		float fAdvancingRotation = m_GraphicThingInstance.GetAdvancingRotation();

  00606	8b cb		 mov	 ecx, ebx
  00608	e8 00 00 00 00	 call	 ?GetAdvancingRotation@CActorInstance@@QAEMXZ ; CActorInstance::GetAdvancingRotation

; 1771 : 		int iDirection = GetRotatingDirection(fRotation, fAdvancingRotation);

  0060d	83 ec 08	 sub	 esp, 8
  00610	d9 5c 24 1c	 fstp	 DWORD PTR _fAdvancingRotation$2[esp+72]
  00614	f3 0f 10 44 24
	1c		 movss	 xmm0, DWORD PTR _fAdvancingRotation$2[esp+72]
  0061a	f3 0f 11 44 24
	04		 movss	 DWORD PTR [esp+4], xmm0
  00620	f3 0f 10 44 24
	18		 movss	 xmm0, DWORD PTR _fRotation$1[esp+72]
  00626	f3 0f 11 44 24
	2c		 movss	 DWORD PTR _fRotation$1$[esp+72], xmm0
  0062c	f3 0f 11 04 24	 movss	 DWORD PTR [esp], xmm0
  00631	e8 00 00 00 00	 call	 ?GetRotatingDirection@@YAHMM@Z ; GetRotatingDirection
  00636	83 c4 08	 add	 esp, 8

; 1772 : 
; 1773 : 		if (DEGREE_DIRECTION_SAME != m_iRotatingDirection)

  00639	83 bf 74 01 00
	00 00		 cmp	 DWORD PTR [edi+372], 0
  00640	0f 84 de 00 00
	00		 je	 $LN32@MovementPr

; 1774 : 		{
; 1775 : 			if (DEGREE_DIRECTION_LEFT == iDirection)

  00646	83 f8 02	 cmp	 eax, 2
  00649	75 49		 jne	 SHORT $LN33@MovementPr

; 1776 : 			{
; 1777 : 				fRotation = fmodf(fRotation + m_fRotSpd*m_GraphicThingInstance.GetSecondElapsed(), 360.0f);

  0064b	8b cb		 mov	 ecx, ebx
  0064d	e8 00 00 00 00	 call	 ?GetSecondElapsed@CGraphicThingInstance@@QAEMXZ ; CGraphicThingInstance::GetSecondElapsed
  00652	d9 5c 24 18	 fstp	 DWORD PTR tv575[esp+64]
  00656	f3 0f 10 44 24
	18		 movss	 xmm0, DWORD PTR tv575[esp+64]
  0065c	f3 0f 59 87 c8
	01 00 00	 mulss	 xmm0, DWORD PTR [edi+456]
  00664	f3 0f 58 44 24
	10		 addss	 xmm0, DWORD PTR _fRotation$1[esp+64]
; File C:\Program Files (x86)\Windows Kits\10\Include\10.0.26100.0\ucrt\corecrt_math.h

; 730  :             return (float)fmod(_X, _Y);

  0066a	0f 5a c0	 cvtps2pd xmm0, xmm0
  0066d	f2 0f 11 44 24
	18		 movsd	 QWORD PTR tv1093[esp+64], xmm0
  00673	dd 44 24 18	 fld	 QWORD PTR tv1093[esp+64]
$LN76@MovementPr:
; File D:\_m2work\Server Client TMP4\ClientVS22\source\UserInterface\InstanceBase.cpp

; 1784 : 			if (m_iRotatingDirection != GetRotatingDirection(fRotation, fAdvancingRotation))

  00677	dd 05 00 00 00
	00		 fld	 QWORD PTR __real@4076800000000000
  0067d	e8 00 00 00 00	 call	 __CIfmod
  00682	d9 5c 24 10	 fstp	 DWORD PTR _fRotation$1[esp+64]
  00686	f3 0f 10 4c 24
	10		 movss	 xmm1, DWORD PTR _fRotation$1[esp+64]
  0068c	f3 0f 11 4c 24
	24		 movss	 DWORD PTR _fRotation$1$[esp+64], xmm1
  00692	eb 45		 jmp	 SHORT $LN35@MovementPr
$LN33@MovementPr:

; 1779 : 			else if (DEGREE_DIRECTION_RIGHT == iDirection)

  00694	83 f8 01	 cmp	 eax, 1
  00697	75 3a		 jne	 SHORT $LN68@MovementPr

; 1780 : 			{
; 1781 : 				fRotation = fmodf(fRotation - m_fRotSpd*m_GraphicThingInstance.GetSecondElapsed() + 360.0f, 360.0f);

  00699	8b cb		 mov	 ecx, ebx
  0069b	e8 00 00 00 00	 call	 ?GetSecondElapsed@CGraphicThingInstance@@QAEMXZ ; CGraphicThingInstance::GetSecondElapsed
  006a0	f3 0f 10 4c 24
	10		 movss	 xmm1, DWORD PTR _fRotation$1[esp+64]
  006a6	d9 5c 24 18	 fstp	 DWORD PTR tv621[esp+64]
  006aa	f3 0f 10 44 24
	18		 movss	 xmm0, DWORD PTR tv621[esp+64]
  006b0	f3 0f 59 87 c8
	01 00 00	 mulss	 xmm0, DWORD PTR [edi+456]
  006b8	f3 0f 5c c8	 subss	 xmm1, xmm0
  006bc	f3 0f 58 0d 00
	00 00 00	 addss	 xmm1, DWORD PTR __real@43b40000
; File C:\Program Files (x86)\Windows Kits\10\Include\10.0.26100.0\ucrt\corecrt_math.h

; 730  :             return (float)fmod(_X, _Y);

  006c4	0f 5a c1	 cvtps2pd xmm0, xmm1
  006c7	f2 0f 11 44 24
	18		 movsd	 QWORD PTR tv1081[esp+64], xmm0
  006cd	dd 44 24 18	 fld	 QWORD PTR tv1081[esp+64]
; File D:\_m2work\Server Client TMP4\ClientVS22\source\UserInterface\InstanceBase.cpp

; 1779 : 			else if (DEGREE_DIRECTION_RIGHT == iDirection)

  006d1	eb a4		 jmp	 SHORT $LN76@MovementPr
$LN68@MovementPr:
  006d3	f3 0f 10 4c 24
	10		 movss	 xmm1, DWORD PTR _fRotation$1[esp+64]
$LN35@MovementPr:

; 1784 : 			if (m_iRotatingDirection != GetRotatingDirection(fRotation, fAdvancingRotation))

  006d9	f3 0f 10 44 24
	14		 movss	 xmm0, DWORD PTR _fAdvancingRotation$2[esp+64]
  006df	83 ec 08	 sub	 esp, 8
  006e2	8b b7 74 01 00
	00		 mov	 esi, DWORD PTR [edi+372]
  006e8	f3 0f 11 44 24
	04		 movss	 DWORD PTR [esp+4], xmm0
  006ee	f3 0f 11 0c 24	 movss	 DWORD PTR [esp], xmm1
  006f3	e8 00 00 00 00	 call	 ?GetRotatingDirection@@YAHMM@Z ; GetRotatingDirection
  006f8	83 c4 08	 add	 esp, 8
  006fb	3b f0		 cmp	 esi, eax
  006fd	74 12		 je	 SHORT $LN69@MovementPr

; 1785 : 			{
; 1786 : 				m_iRotatingDirection = DEGREE_DIRECTION_SAME;
; 1787 : 				fRotation = fAdvancingRotation;

  006ff	f3 0f 10 44 24
	14		 movss	 xmm0, DWORD PTR _fAdvancingRotation$2[esp+64]
  00705	c7 87 74 01 00
	00 00 00 00 00	 mov	 DWORD PTR [edi+372], 0
  0070f	eb 06		 jmp	 SHORT $LN36@MovementPr
$LN69@MovementPr:

; 1784 : 			if (m_iRotatingDirection != GetRotatingDirection(fRotation, fAdvancingRotation))

  00711	f3 0f 10 44 24
	24		 movss	 xmm0, DWORD PTR _fRotation$1$[esp+64]
$LN36@MovementPr:

; 1788 : 			}
; 1789 : 
; 1790 : 			m_GraphicThingInstance.SetRotation(fRotation);

  00717	51		 push	 ecx
  00718	8b cb		 mov	 ecx, ebx
  0071a	f3 0f 11 04 24	 movss	 DWORD PTR [esp], xmm0
  0071f	e8 00 00 00 00	 call	 ?SetRotation@CActorInstance@@QAEXM@Z ; CActorInstance::SetRotation
$LN32@MovementPr:

; 1791 : 		}
; 1792 : 
; 1793 : 		if (__IsInDustRange())

  00724	8b cf		 mov	 ecx, edi
  00726	e8 00 00 00 00	 call	 ?__IsInDustRange@CInstanceBase@@IAE_NXZ ; CInstanceBase::__IsInDustRange
  0072b	84 c0		 test	 al, al
  0072d	74 4b		 je	 SHORT $LN41@MovementPr

; 1794 : 		{ 
; 1795 : 			float fDustDistance = NEW_GetDistanceFromDestPixelPosition(m_kPPosDust);

  0072f	8d b7 8c 01 00
	00		 lea	 esi, DWORD PTR [edi+396]
  00735	8b cf		 mov	 ecx, edi
  00737	56		 push	 esi
  00738	e8 00 00 00 00	 call	 ?NEW_GetDistanceFromDestPixelPosition@CInstanceBase@@QAEMABUD3DXVECTOR3@@@Z ; CInstanceBase::NEW_GetDistanceFromDestPixelPosition

; 1796 : 			if (IsMountingHorse())

  0073d	8b cf		 mov	 ecx, edi
  0073f	e8 00 00 00 00	 call	 ?IsMountingHorse@CInstanceBase@@QAEHXZ ; CInstanceBase::IsMountingHorse
  00744	85 c0		 test	 eax, eax
  00746	74 18		 je	 SHORT $LN38@MovementPr

; 1797 : 			{
; 1798 : 				if (fDustDistance > ms_fHorseDustGap)

  00748	0f 2f 05 00 00
	00 00		 comiss	 xmm0, DWORD PTR ?ms_fHorseDustGap@CInstanceBase@@1MA
  0074f	76 29		 jbe	 SHORT $LN41@MovementPr

; 1799 : 				{
; 1800 : 					NEW_GetPixelPosition(&m_kPPosDust);

  00751	56		 push	 esi
  00752	8b cf		 mov	 ecx, edi
  00754	e8 00 00 00 00	 call	 ?NEW_GetPixelPosition@CInstanceBase@@QAEXPAUD3DXVECTOR3@@@Z ; CInstanceBase::NEW_GetPixelPosition

; 1801 : 					__AttachEffect(EFFECT_HORSE_DUST);

  00759	68 e4 00 00 00	 push	 228			; 000000e4H

; 1802 : 				}
; 1803 : 			}

  0075e	eb 13		 jmp	 SHORT $LN77@MovementPr
$LN38@MovementPr:

; 1804 : 			else
; 1805 : 			{
; 1806 : 				if (fDustDistance > ms_fDustGap)

  00760	0f 2f 05 00 00
	00 00		 comiss	 xmm0, DWORD PTR ?ms_fDustGap@CInstanceBase@@1MA
  00767	76 11		 jbe	 SHORT $LN41@MovementPr

; 1807 : 				{
; 1808 : 					NEW_GetPixelPosition(&m_kPPosDust);

  00769	56		 push	 esi
  0076a	8b cf		 mov	 ecx, edi
  0076c	e8 00 00 00 00	 call	 ?NEW_GetPixelPosition@CInstanceBase@@QAEXPAUD3DXVECTOR3@@@Z ; CInstanceBase::NEW_GetPixelPosition

; 1809 : 					__AttachEffect(EFFECT_DUST);

  00771	6a 00		 push	 0
$LN77@MovementPr:

; 1810 : 				}
; 1811 : 			}
; 1812 : 		}
; 1813 : 	}
; 1814 : }

  00773	8b cf		 mov	 ecx, edi
  00775	e8 00 00 00 00	 call	 ?__AttachEffect@CInstanceBase@@IAEKI@Z ; CInstanceBase::__AttachEffect
$LN41@MovementPr:
  0077a	8b 4c 24 3c	 mov	 ecx, DWORD PTR __$ArrayPad$[esp+64]
  0077e	5f		 pop	 edi
  0077f	5e		 pop	 esi
  00780	5b		 pop	 ebx
  00781	33 cc		 xor	 ecx, esp
  00783	e8 00 00 00 00	 call	 @__security_check_cookie@4
  00788	8b e5		 mov	 esp, ebp
  0078a	5d		 pop	 ebp
  0078b	c3		 ret	 0
$LN67@MovementPr:
  0078c	00 00 00 00	 DD	 $LN29@MovementPr
  00790	00 00 00 00	 DD	 $LN18@MovementPr
  00794	00 00 00 00	 DD	 $LN20@MovementPr
  00798	00 00 00 00	 DD	 $LN24@MovementPr
  0079c	00 00 00 00	 DD	 $LN22@MovementPr
?MovementProcess@CInstanceBase@@IAEXXZ ENDP		; CInstanceBase::MovementProcess
_TEXT	ENDS
; Function compile flags: /Ogtp
; File D:\_m2work\Server Client TMP4\ClientVS22\source\UserInterface\InstanceBase.cpp
; File D:\_m2work\Server Client TMP4\ClientVS22\source\UserInterface\InstanceBase.h
; File D:\_m2work\Server Client TMP4\ClientVS22\source\UserInterface\InstanceBase.cpp
; File D:\_m2work\Server Client TMP4\ClientVS22\source\UserInterface\InstanceBase.h
; File D:\_m2work\Server Client TMP4\ClientVS22\source\UserInterface\InstanceBase.cpp
; File D:\_m2work\Server Client TMP4\ClientVS22\source\UserInterface\InstanceBase.h
; File D:\_m2work\Server Client TMP4\ClientVS22\source\UserInterface\InstanceBase.cpp
;	COMDAT ?__ProcessFunctionEmotion@CInstanceBase@@IAEXKKABUD3DXVECTOR3@@@Z
_TEXT	SEGMENT
_this$1$ = -4						; size = 4
_dwMotionNumber$ = 8					; size = 4
_dwTargetVID$ = 12					; size = 4
_src_job$1$ = 12					; size = 4
_c_rkPosDst$ = 16					; size = 4
_pTargetInstance$1$ = 16				; size = 4
?__ProcessFunctionEmotion@CInstanceBase@@IAEXKKABUD3DXVECTOR3@@@Z PROC ; CInstanceBase::__ProcessFunctionEmotion, COMDAT
; _this$ = ecx

; 1817 : {

  00000	55		 push	 ebp
  00001	8b ec		 mov	 ebp, esp
  00003	51		 push	 ecx
  00004	53		 push	 ebx
  00005	8b d9		 mov	 ebx, ecx
  00007	57		 push	 edi
  00008	89 5d fc	 mov	 DWORD PTR _this$1$[ebp], ebx

; 1818 : 	if (IsWalking())

  0000b	e8 00 00 00 00	 call	 ?IsWalking@CInstanceBase@@QAEHXZ ; CInstanceBase::IsWalking
  00010	85 c0		 test	 eax, eax
  00012	74 07		 je	 SHORT $LN2@ProcessFun

; 1819 : 		EndWalkingWithoutBlending();

  00014	8b cb		 mov	 ecx, ebx
  00016	e8 00 00 00 00	 call	 ?EndWalkingWithoutBlending@CInstanceBase@@QAEXXZ ; CInstanceBase::EndWalkingWithoutBlending
$LN2@ProcessFun:

; 1820 : 
; 1821 : 	__EnableChangingTCPState();

  0001b	8b cb		 mov	 ecx, ebx
  0001d	e8 00 00 00 00	 call	 ?__EnableChangingTCPState@CInstanceBase@@IAEXXZ ; CInstanceBase::__EnableChangingTCPState

; 1822 : 	SCRIPT_SetPixelPosition(c_rkPosDst.x, c_rkPosDst.y);

  00022	8b 45 10	 mov	 eax, DWORD PTR _c_rkPosDst$[ebp]
  00025	f3 0f 10 50 04	 movss	 xmm2, DWORD PTR [eax+4]
  0002a	f3 0f 10 08	 movss	 xmm1, DWORD PTR [eax]
  0002e	e8 00 00 00 00	 call	 ?SCRIPT_SetPixelPosition@CInstanceBase@@QAEXMM@Z ; CInstanceBase::SCRIPT_SetPixelPosition

; 1823 : 
; 1824 : 	CInstanceBase * pTargetInstance = CPythonCharacterManager::Instance().GetInstancePtr(dwTargetVID);

  00033	8b 0d 00 00 00
	00		 mov	 ecx, DWORD PTR ?ms_singleton@?$CSingleton@VCPythonCharacterManager@@@@0PAVCPythonCharacterManager@@A ; CSingleton<CPythonCharacterManager>::ms_singleton
  00039	ff 75 0c	 push	 DWORD PTR _dwTargetVID$[ebp]
  0003c	83 c1 04	 add	 ecx, 4
  0003f	8b 01		 mov	 eax, DWORD PTR [ecx]
  00041	ff 50 08	 call	 DWORD PTR [eax+8]
  00044	8b f8		 mov	 edi, eax
  00046	89 7d 10	 mov	 DWORD PTR _pTargetInstance$1$[ebp], edi

; 1825 : 	if (pTargetInstance)

  00049	85 ff		 test	 edi, edi
  0004b	0f 84 1c 01 00
	00		 je	 $LN5@ProcessFun

; 1826 : 	{
; 1827 : 		pTargetInstance->__EnableChangingTCPState();

  00051	8b cf		 mov	 ecx, edi
  00053	e8 00 00 00 00	 call	 ?__EnableChangingTCPState@CInstanceBase@@IAEXXZ ; CInstanceBase::__EnableChangingTCPState

; 1828 : 
; 1829 : 		if (pTargetInstance->IsWalking())

  00058	e8 00 00 00 00	 call	 ?IsWalking@CInstanceBase@@QAEHXZ ; CInstanceBase::IsWalking
  0005d	85 c0		 test	 eax, eax
  0005f	74 07		 je	 SHORT $LN4@ProcessFun

; 1830 : 			pTargetInstance->EndWalkingWithoutBlending();

  00061	8b cf		 mov	 ecx, edi
  00063	e8 00 00 00 00	 call	 ?EndWalkingWithoutBlending@CInstanceBase@@QAEXXZ ; CInstanceBase::EndWalkingWithoutBlending
$LN4@ProcessFun:

; 1831 : 
; 1832 : 		WORD wMotionNumber1 = HIWORD(dwMotionNumber);
; 1833 : 		WORD wMotionNumber2 = LOWORD(dwMotionNumber);
; 1834 : 
; 1835 : 		int src_job = RaceToJob(GetRace());

  00068	56		 push	 esi
  00069	8b cb		 mov	 ecx, ebx
  0006b	e8 00 00 00 00	 call	 ?GetRace@CInstanceBase@@QAEKXZ ; CInstanceBase::GetRace
; File D:\_m2work\Server Client TMP4\ClientVS22\source\UserInterface\InstanceBase.h

; 1112 : 	return race % JOB_NUM;

  00070	25 03 00 00 80	 and	 eax, -2147483645	; 80000003H
  00075	79 05		 jns	 SHORT $LN20@ProcessFun
  00077	48		 dec	 eax
  00078	83 c8 fc	 or	 eax, -4			; fffffffcH
  0007b	40		 inc	 eax
$LN20@ProcessFun:
; File D:\_m2work\Server Client TMP4\ClientVS22\source\UserInterface\InstanceBase.cpp

; 1836 : 		int dst_job = RaceToJob(pTargetInstance->GetRace());

  0007c	8b cf		 mov	 ecx, edi
; File D:\_m2work\Server Client TMP4\ClientVS22\source\UserInterface\InstanceBase.h

; 1112 : 	return race % JOB_NUM;

  0007e	89 45 0c	 mov	 DWORD PTR _src_job$1$[ebp], eax
; File D:\_m2work\Server Client TMP4\ClientVS22\source\UserInterface\InstanceBase.cpp

; 1836 : 		int dst_job = RaceToJob(pTargetInstance->GetRace());

  00081	e8 00 00 00 00	 call	 ?GetRace@CInstanceBase@@QAEKXZ ; CInstanceBase::GetRace
; File D:\_m2work\Server Client TMP4\ClientVS22\source\UserInterface\InstanceBase.h

; 1112 : 	return race % JOB_NUM;

  00086	8b f0		 mov	 esi, eax
  00088	81 e6 03 00 00
	80		 and	 esi, -2147483645	; 80000003H
  0008e	79 05		 jns	 SHORT $LN21@ProcessFun
  00090	4e		 dec	 esi
  00091	83 ce fc	 or	 esi, -4			; fffffffcH
  00094	46		 inc	 esi
$LN21@ProcessFun:
; File D:\_m2work\Server Client TMP4\ClientVS22\source\UserInterface\InstanceBase.cpp

; 1838 : 		NEW_LookAtDestInstance(*pTargetInstance);

  00095	57		 push	 edi
  00096	8b cb		 mov	 ecx, ebx
  00098	e8 00 00 00 00	 call	 ?NEW_LookAtDestInstance@CInstanceBase@@QAEXAAV1@@Z ; CInstanceBase::NEW_LookAtDestInstance

; 1839 : 		m_GraphicThingInstance.InterceptOnceMotion(wMotionNumber1 + dst_job);

  0009d	51		 push	 ecx
  0009e	c7 04 24 00 00
	80 3f		 mov	 DWORD PTR [esp], 1065353216 ; 3f800000H
  000a5	8d bb d4 01 00
	00		 lea	 edi, DWORD PTR [ebx+468]
  000ab	8b 5d 08	 mov	 ebx, DWORD PTR _dwMotionNumber$[ebp]
  000ae	8b c3		 mov	 eax, ebx
  000b0	6a 00		 push	 0
  000b2	51		 push	 ecx
  000b3	c1 e8 10	 shr	 eax, 16			; 00000010H
  000b6	8b cf		 mov	 ecx, edi
  000b8	03 c6		 add	 eax, esi
  000ba	c7 04 24 cd cc
	cc 3d		 mov	 DWORD PTR [esp], 1036831949 ; 3dcccccdH
  000c1	50		 push	 eax
  000c2	e8 00 00 00 00	 call	 ?InterceptOnceMotion@CActorInstance@@QAE_NKMIM@Z ; CActorInstance::InterceptOnceMotion

; 1840 : 		m_GraphicThingInstance.SetRotation(m_GraphicThingInstance.GetTargetRotation());

  000c7	8b cf		 mov	 ecx, edi
  000c9	e8 00 00 00 00	 call	 ?GetTargetRotation@CActorInstance@@QAEMXZ ; CActorInstance::GetTargetRotation
  000ce	51		 push	 ecx
  000cf	8b cf		 mov	 ecx, edi
  000d1	d9 1c 24	 fstp	 DWORD PTR [esp]
  000d4	e8 00 00 00 00	 call	 ?SetRotation@CActorInstance@@QAEXM@Z ; CActorInstance::SetRotation

; 1841 : 		m_GraphicThingInstance.SetAdvancingRotation(m_GraphicThingInstance.GetTargetRotation());

  000d9	8b cf		 mov	 ecx, edi
  000db	e8 00 00 00 00	 call	 ?GetTargetRotation@CActorInstance@@QAEMXZ ; CActorInstance::GetTargetRotation
  000e0	51		 push	 ecx
  000e1	8b cf		 mov	 ecx, edi
  000e3	d9 1c 24	 fstp	 DWORD PTR [esp]
  000e6	e8 00 00 00 00	 call	 ?SetAdvancingRotation@CActorInstance@@QAEXM@Z ; CActorInstance::SetAdvancingRotation

; 1842 : 
; 1843 : 		pTargetInstance->NEW_LookAtDestInstance(*this);

  000eb	ff 75 fc	 push	 DWORD PTR _this$1$[ebp]
  000ee	8b 7d 10	 mov	 edi, DWORD PTR _pTargetInstance$1$[ebp]
  000f1	8b cf		 mov	 ecx, edi
  000f3	e8 00 00 00 00	 call	 ?NEW_LookAtDestInstance@CInstanceBase@@QAEXAAV1@@Z ; CInstanceBase::NEW_LookAtDestInstance

; 1844 : 		pTargetInstance->m_GraphicThingInstance.InterceptOnceMotion(wMotionNumber2 + src_job);

  000f8	51		 push	 ecx
  000f9	c7 04 24 00 00
	80 3f		 mov	 DWORD PTR [esp], 1065353216 ; 3f800000H
  00100	6a 00		 push	 0
  00102	51		 push	 ecx
  00103	0f b7 c3	 movzx	 eax, bx
  00106	8d 8f d4 01 00
	00		 lea	 ecx, DWORD PTR [edi+468]
  0010c	03 45 0c	 add	 eax, DWORD PTR _src_job$1$[ebp]
  0010f	c7 04 24 cd cc
	cc 3d		 mov	 DWORD PTR [esp], 1036831949 ; 3dcccccdH
  00116	50		 push	 eax
  00117	e8 00 00 00 00	 call	 ?InterceptOnceMotion@CActorInstance@@QAE_NKMIM@Z ; CActorInstance::InterceptOnceMotion

; 1845 : 		pTargetInstance->m_GraphicThingInstance.SetRotation(pTargetInstance->m_GraphicThingInstance.GetTargetRotation());

  0011c	8d 8f d4 01 00
	00		 lea	 ecx, DWORD PTR [edi+468]
  00122	e8 00 00 00 00	 call	 ?GetTargetRotation@CActorInstance@@QAEMXZ ; CActorInstance::GetTargetRotation
  00127	51		 push	 ecx
  00128	8d 8f d4 01 00
	00		 lea	 ecx, DWORD PTR [edi+468]
  0012e	d9 1c 24	 fstp	 DWORD PTR [esp]
  00131	e8 00 00 00 00	 call	 ?SetRotation@CActorInstance@@QAEXM@Z ; CActorInstance::SetRotation

; 1846 : 		pTargetInstance->m_GraphicThingInstance.SetAdvancingRotation(pTargetInstance->m_GraphicThingInstance.GetTargetRotation());

  00136	8d 8f d4 01 00
	00		 lea	 ecx, DWORD PTR [edi+468]
  0013c	e8 00 00 00 00	 call	 ?GetTargetRotation@CActorInstance@@QAEMXZ ; CActorInstance::GetTargetRotation
  00141	51		 push	 ecx
  00142	8d 8f d4 01 00
	00		 lea	 ecx, DWORD PTR [edi+468]
  00148	d9 1c 24	 fstp	 DWORD PTR [esp]
  0014b	e8 00 00 00 00	 call	 ?SetAdvancingRotation@CActorInstance@@QAEXM@Z ; CActorInstance::SetAdvancingRotation

; 1847 : 
; 1848 : 		if (pTargetInstance->__IsMainInstance())

  00150	8b cf		 mov	 ecx, edi
  00152	e8 00 00 00 00	 call	 ?__IsMainInstance@CInstanceBase@@IAE_NXZ ; CInstanceBase::__IsMainInstance
  00157	5e		 pop	 esi
  00158	84 c0		 test	 al, al
  0015a	74 0e		 je	 SHORT $LN14@ProcessFun

; 1849 : 		{
; 1850 : 			IAbstractPlayer & rPlayer=IAbstractPlayer::GetSingleton();

  0015c	8b 0d 00 00 00
	00		 mov	 ecx, DWORD PTR ?ms_singleton@?$TAbstractSingleton@VIAbstractPlayer@@@@0PAVIAbstractPlayer@@A ; TAbstractSingleton<IAbstractPlayer>::ms_singleton

; 1851 : 			rPlayer.EndEmotionProcess();

  00162	8b 01		 mov	 eax, DWORD PTR [ecx]
  00164	ff 90 84 00 00
	00		 call	 DWORD PTR [eax+132]
$LN14@ProcessFun:

; 1852 : 		}
; 1853 : 	}
; 1854 : 
; 1855 : 	if (__IsMainInstance())

  0016a	8b 5d fc	 mov	 ebx, DWORD PTR _this$1$[ebp]
$LN5@ProcessFun:
  0016d	8b cb		 mov	 ecx, ebx
  0016f	e8 00 00 00 00	 call	 ?__IsMainInstance@CInstanceBase@@IAE_NXZ ; CInstanceBase::__IsMainInstance
  00174	5f		 pop	 edi
  00175	5b		 pop	 ebx
  00176	84 c0		 test	 al, al
  00178	74 0e		 je	 SHORT $LN6@ProcessFun

; 1856 : 	{
; 1857 : 		IAbstractPlayer & rPlayer=IAbstractPlayer::GetSingleton();

  0017a	8b 0d 00 00 00
	00		 mov	 ecx, DWORD PTR ?ms_singleton@?$TAbstractSingleton@VIAbstractPlayer@@@@0PAVIAbstractPlayer@@A ; TAbstractSingleton<IAbstractPlayer>::ms_singleton

; 1858 : 		rPlayer.EndEmotionProcess();

  00180	8b 01		 mov	 eax, DWORD PTR [ecx]
  00182	ff 90 84 00 00
	00		 call	 DWORD PTR [eax+132]
$LN6@ProcessFun:

; 1859 : 	}
; 1860 : }

  00188	8b e5		 mov	 esp, ebp
  0018a	5d		 pop	 ebp
  0018b	c2 0c 00	 ret	 12			; 0000000cH
?__ProcessFunctionEmotion@CInstanceBase@@IAEXKKABUD3DXVECTOR3@@@Z ENDP ; CInstanceBase::__ProcessFunctionEmotion
_TEXT	ENDS
; Function compile flags: /Ogtp
; File D:\_m2work\Server Client TMP4\ClientVS22\source\UserInterface\InstanceBase.cpp
;	COMDAT ?Update@CInstanceBase@@QAEXXZ
_TEXT	SEGMENT
_kPPosCur$1 = -16					; size = 12
__$ArrayPad$ = -4					; size = 4
?Update@CInstanceBase@@QAEXXZ PROC			; CInstanceBase::Update, COMDAT
; _this$ = ecx

; 1868 : {

  00000	55		 push	 ebp
  00001	8b ec		 mov	 ebp, esp
  00003	83 ec 10	 sub	 esp, 16			; 00000010H
  00006	a1 00 00 00 00	 mov	 eax, DWORD PTR ___security_cookie
  0000b	33 c5		 xor	 eax, ebp
  0000d	89 45 fc	 mov	 DWORD PTR __$ArrayPad$[ebp], eax

; 1869 : 	++ms_dwUpdateCounter;	

  00010	ff 05 00 00 00
	00		 inc	 DWORD PTR ?ms_dwUpdateCounter@CInstanceBase@@1KA ; CInstanceBase::ms_dwUpdateCounter
  00016	56		 push	 esi
  00017	57		 push	 edi
  00018	8b f1		 mov	 esi, ecx

; 1870 : 
; 1871 : 	StateProcess();

  0001a	e8 00 00 00 00	 call	 ?StateProcess@CInstanceBase@@IAEXXZ ; CInstanceBase::StateProcess

; 1872 : 	m_GraphicThingInstance.PhysicsProcess();

  0001f	8d be d4 01 00
	00		 lea	 edi, DWORD PTR [esi+468]
  00025	8b cf		 mov	 ecx, edi
  00027	e8 00 00 00 00	 call	 ?PhysicsProcess@CActorInstance@@QAEXXZ ; CActorInstance::PhysicsProcess

; 1873 : 	m_GraphicThingInstance.RotationProcess();

  0002c	8b cf		 mov	 ecx, edi
  0002e	e8 00 00 00 00	 call	 ?RotationProcess@CActorInstance@@QAEXXZ ; CActorInstance::RotationProcess

; 1874 : 	m_GraphicThingInstance.ComboProcess();

  00033	8b cf		 mov	 ecx, edi
  00035	e8 00 00 00 00	 call	 ?ComboProcess@CActorInstance@@QAEXXZ ; CActorInstance::ComboProcess

; 1875 : 	m_GraphicThingInstance.AccumulationMovement();

  0003a	8b cf		 mov	 ecx, edi
  0003c	e8 00 00 00 00	 call	 ?AccumulationMovement@CActorInstance@@QAEXXZ ; CActorInstance::AccumulationMovement

; 1876 : 
; 1877 : 	if (m_GraphicThingInstance.IsMovement())

  00041	8b cf		 mov	 ecx, edi
  00043	e8 00 00 00 00	 call	 ?IsMovement@CActorInstance@@QAEHXZ ; CActorInstance::IsMovement
  00048	85 c0		 test	 eax, eax
  0004a	74 4c		 je	 SHORT $LN2@Update

; 1878 : 	{
; 1879 : 		TPixelPosition kPPosCur;
; 1880 : 		NEW_GetPixelPosition(&kPPosCur);

  0004c	8d 45 f0	 lea	 eax, DWORD PTR _kPPosCur$1[ebp]
  0004f	8b ce		 mov	 ecx, esi
  00051	50		 push	 eax
  00052	e8 00 00 00 00	 call	 ?NEW_GetPixelPosition@CInstanceBase@@QAEXPAUD3DXVECTOR3@@@Z ; CInstanceBase::NEW_GetPixelPosition

; 1881 : 
; 1882 : 		DWORD dwCurTime=ELTimer_GetFrameMSec();

  00057	e8 00 00 00 00	 call	 ?ELTimer_GetFrameMSec@@YAKXZ ; ELTimer_GetFrameMSec

; 1883 : 		//if (m_dwNextUpdateHeightTime<dwCurTime)
; 1884 : 		{
; 1885 : 			m_dwNextUpdateHeightTime=dwCurTime;
; 1886 : 			kPPosCur.z = __GetBackgroundHeight(kPPosCur.x, kPPosCur.y);

  0005c	f3 0f 10 4d f4	 movss	 xmm1, DWORD PTR _kPPosCur$1[ebp+4]
  00061	f3 0f 10 45 f0	 movss	 xmm0, DWORD PTR _kPPosCur$1[ebp]
  00066	89 86 84 01 00
	00		 mov	 DWORD PTR [esi+388], eax
  0006c	e8 00 00 00 00	 call	 ?__GetBackgroundHeight@CInstanceBase@@KAMMM@Z ; CInstanceBase::__GetBackgroundHeight

; 1887 : 			NEW_SetPixelPosition(kPPosCur);

  00071	8d 45 f0	 lea	 eax, DWORD PTR _kPPosCur$1[ebp]
  00074	f3 0f 11 45 f8	 movss	 DWORD PTR _kPPosCur$1[ebp+8], xmm0
  00079	50		 push	 eax
  0007a	8b ce		 mov	 ecx, esi
  0007c	e8 00 00 00 00	 call	 ?NEW_SetPixelPosition@CInstanceBase@@QAEXABUD3DXVECTOR3@@@Z ; CInstanceBase::NEW_SetPixelPosition

; 1888 : 		}
; 1889 : 
; 1890 : 		// SetMaterialColor
; 1891 : 		{
; 1892 : 			DWORD dwMtrlColor=__GetShadowMapColor(kPPosCur.x, kPPosCur.y);

  00081	f3 0f 10 4d f4	 movss	 xmm1, DWORD PTR _kPPosCur$1[ebp+4]
  00086	f3 0f 10 45 f0	 movss	 xmm0, DWORD PTR _kPPosCur$1[ebp]
  0008b	e8 00 00 00 00	 call	 ?__GetShadowMapColor@CInstanceBase@@KAKMM@Z ; CInstanceBase::__GetShadowMapColor

; 1893 : 			m_GraphicThingInstance.SetMaterialColor(dwMtrlColor);

  00090	50		 push	 eax
  00091	8b cf		 mov	 ecx, edi
  00093	e8 00 00 00 00	 call	 ?SetMaterialColor@CActorInstance@@QAEXK@Z ; CActorInstance::SetMaterialColor
$LN2@Update:

; 1894 : 		}
; 1895 : 	}
; 1896 : 
; 1897 : 	m_GraphicThingInstance.UpdateAdvancingPointInstance();

  00098	8b cf		 mov	 ecx, edi
  0009a	e8 00 00 00 00	 call	 ?UpdateAdvancingPointInstance@CActorInstance@@QAEXXZ ; CActorInstance::UpdateAdvancingPointInstance

; 1898 : 
; 1899 : 	AttackProcess();

  0009f	8b ce		 mov	 ecx, esi
  000a1	e8 00 00 00 00	 call	 ?AttackProcess@CInstanceBase@@IAEXXZ ; CInstanceBase::AttackProcess

; 1900 : 	MovementProcess();

  000a6	8b ce		 mov	 ecx, esi
  000a8	e8 00 00 00 00	 call	 ?MovementProcess@CInstanceBase@@IAEXXZ ; CInstanceBase::MovementProcess

; 1901 : 
; 1902 : 	m_GraphicThingInstance.MotionProcess(IsPC());

  000ad	8b ce		 mov	 ecx, esi
  000af	e8 00 00 00 00	 call	 ?IsPC@CInstanceBase@@QAEHXZ ; CInstanceBase::IsPC
  000b4	50		 push	 eax
  000b5	8b cf		 mov	 ecx, edi
  000b7	e8 00 00 00 00	 call	 ?MotionProcess@CActorInstance@@QAEXH@Z ; CActorInstance::MotionProcess

; 1903 : 	if (IsMountingHorse())

  000bc	8b ce		 mov	 ecx, esi
  000be	e8 00 00 00 00	 call	 ?IsMountingHorse@CInstanceBase@@QAEHXZ ; CInstanceBase::IsMountingHorse
  000c3	85 c0		 test	 eax, eax
  000c5	74 0a		 je	 SHORT $LN3@Update

; 1904 : 	{
; 1905 : 		m_kHorse.m_pkActor->HORSE_MotionProcess(FALSE);

  000c7	8b 4e 08	 mov	 ecx, DWORD PTR [esi+8]
  000ca	6a 00		 push	 0
  000cc	e8 00 00 00 00	 call	 ?HORSE_MotionProcess@CActorInstance@@QAEXH@Z ; CActorInstance::HORSE_MotionProcess
$LN3@Update:

; 1906 : 	}
; 1907 : 
; 1908 : 	__ComboProcess();	
; 1909 : 	
; 1910 : 	ProcessDamage();

  000d1	8b ce		 mov	 ecx, esi
  000d3	e8 00 00 00 00	 call	 ?ProcessDamage@CInstanceBase@@IAEXXZ ; CInstanceBase::ProcessDamage

; 1911 : 
; 1912 : }

  000d8	8b 4d fc	 mov	 ecx, DWORD PTR __$ArrayPad$[ebp]
  000db	5f		 pop	 edi
  000dc	33 cd		 xor	 ecx, ebp
  000de	5e		 pop	 esi
  000df	e8 00 00 00 00	 call	 @__security_check_cookie@4
  000e4	8b e5		 mov	 esp, ebp
  000e6	5d		 pop	 ebp
  000e7	c3		 ret	 0
?Update@CInstanceBase@@QAEXXZ ENDP			; CInstanceBase::Update
_TEXT	ENDS
; Function compile flags: /Ogtp
; File D:\_m2work\Server Client TMP4\ClientVS22\source\UserInterface\InstanceBase.cpp
;	COMDAT ?Transform@CInstanceBase@@QAEXXZ
_TEXT	SEGMENT
?Transform@CInstanceBase@@QAEXXZ PROC			; CInstanceBase::Transform, COMDAT
; _this$ = ecx

; 1915 : {

  00000	56		 push	 esi
  00001	8b f1		 mov	 esi, ecx

; 1916 : 	if (__IsSyncing())

  00003	e8 00 00 00 00	 call	 ?__IsSyncing@CInstanceBase@@QAEHXZ ; CInstanceBase::__IsSyncing
  00008	85 c0		 test	 eax, eax
  0000a	75 5e		 jne	 SHORT $LN7@Transform

; 1917 : 	{
; 1918 : 		//OnSyncing();
; 1919 : 	}
; 1920 : 	else
; 1921 : 	{
; 1922 : 		if (IsWalking() || m_GraphicThingInstance.IsUsingMovingSkill())

  0000c	57		 push	 edi
  0000d	8b ce		 mov	 ecx, esi
  0000f	e8 00 00 00 00	 call	 ?IsWalking@CInstanceBase@@QAEHXZ ; CInstanceBase::IsWalking
  00014	85 c0		 test	 eax, eax
  00016	75 0f		 jne	 SHORT $LN9@Transform
  00018	8d 8e d4 01 00
	00		 lea	 ecx, DWORD PTR [esi+468]
  0001e	e8 00 00 00 00	 call	 ?IsUsingMovingSkill@CActorInstance@@QAEHXZ ; CActorInstance::IsUsingMovingSkill
  00023	85 c0		 test	 eax, eax
  00025	74 42		 je	 SHORT $LN13@Transform
$LN9@Transform:

; 1923 : 		{
; 1924 : 			const D3DXVECTOR3& c_rv3Movment=m_GraphicThingInstance.GetMovementVectorRef();

  00027	8d 8e d4 01 00
	00		 lea	 ecx, DWORD PTR [esi+468]
  0002d	e8 00 00 00 00	 call	 ?GetMovementVectorRef@CActorInstance@@QAEABUD3DXVECTOR3@@XZ ; CActorInstance::GetMovementVectorRef

; 1925 : 
; 1926 : 			float len=(c_rv3Movment.x*c_rv3Movment.x)+(c_rv3Movment.y*c_rv3Movment.y);
; 1927 : 			if (len>1.0f)

  00032	8b ce		 mov	 ecx, esi
  00034	f3 0f 10 48 04	 movss	 xmm1, DWORD PTR [eax+4]
  00039	f3 0f 10 00	 movss	 xmm0, DWORD PTR [eax]
  0003d	f3 0f 59 c0	 mulss	 xmm0, xmm0
  00041	f3 0f 59 c9	 mulss	 xmm1, xmm1
  00045	f3 0f 58 c1	 addss	 xmm0, xmm1
  00049	0f 2f 05 00 00
	00 00		 comiss	 xmm0, DWORD PTR __real@3f800000
  00050	76 12		 jbe	 SHORT $LN6@Transform

; 1928 : 				OnMoving();

  00052	e8 00 00 00 00	 call	 ?OnMoving@CInstanceBase@@IAEXXZ ; CInstanceBase::OnMoving
  00057	5f		 pop	 edi

; 1931 : 		}	
; 1932 : 	}
; 1933 : 
; 1934 : 	m_GraphicThingInstance.INSTANCEBASE_Transform();

  00058	8d 8e d4 01 00
	00		 lea	 ecx, DWORD PTR [esi+468]
  0005e	5e		 pop	 esi
  0005f	e9 00 00 00 00	 jmp	 ?INSTANCEBASE_Transform@CActorInstance@@QAEXXZ ; CActorInstance::INSTANCEBASE_Transform
$LN6@Transform:

; 1929 : 			else
; 1930 : 				OnWaiting();	

  00064	e8 00 00 00 00	 call	 ?OnWaiting@CInstanceBase@@IAEXXZ ; CInstanceBase::OnWaiting
$LN13@Transform:
  00069	5f		 pop	 edi
$LN7@Transform:

; 1931 : 		}	
; 1932 : 	}
; 1933 : 
; 1934 : 	m_GraphicThingInstance.INSTANCEBASE_Transform();

  0006a	8d 8e d4 01 00
	00		 lea	 ecx, DWORD PTR [esi+468]
  00070	5e		 pop	 esi
  00071	e9 00 00 00 00	 jmp	 ?INSTANCEBASE_Transform@CActorInstance@@QAEXXZ ; CActorInstance::INSTANCEBASE_Transform
?Transform@CInstanceBase@@QAEXXZ ENDP			; CInstanceBase::Transform
_TEXT	ENDS
; Function compile flags: /Ogtp
; File D:\_m2work\Server Client TMP4\ClientVS22\source\UserInterface\InstanceBase.cpp
;	COMDAT ?Deform@CInstanceBase@@QAEXXZ
_TEXT	SEGMENT
?Deform@CInstanceBase@@QAEXXZ PROC			; CInstanceBase::Deform, COMDAT
; _this$ = ecx

; 1939 : {

  00000	56		 push	 esi
  00001	8b f1		 mov	 esi, ecx

; 1940 : 	// 2004.07.17.levites.isShow ViewFrustumCheck 
; 1941 : 	if (!__CanRender())

  00003	e8 00 00 00 00	 call	 ?__CanRender@CInstanceBase@@IAE_NXZ ; CInstanceBase::__CanRender
  00008	84 c0		 test	 al, al
  0000a	74 1a		 je	 SHORT $LN1@Deform

; 1942 : 		return;
; 1943 : 
; 1944 : 	++ms_dwDeformCounter;

  0000c	ff 05 00 00 00
	00		 inc	 DWORD PTR ?ms_dwDeformCounter@CInstanceBase@@1KA ; CInstanceBase::ms_dwDeformCounter

; 1945 : 
; 1946 : 	m_GraphicThingInstance.INSTANCEBASE_Deform();

  00012	8d 8e d4 01 00
	00		 lea	 ecx, DWORD PTR [esi+468]
  00018	e8 00 00 00 00	 call	 ?INSTANCEBASE_Deform@CActorInstance@@QAEXXZ ; CActorInstance::INSTANCEBASE_Deform

; 1947 : 
; 1948 : 	m_kHorse.Deform();

  0001d	8d 4e 04	 lea	 ecx, DWORD PTR [esi+4]
  00020	5e		 pop	 esi
  00021	e9 00 00 00 00	 jmp	 ?Deform@SHORSE@CInstanceBase@@QAEXXZ ; CInstanceBase::SHORSE::Deform
$LN1@Deform:
  00026	5e		 pop	 esi

; 1949 : }

  00027	c3		 ret	 0
?Deform@CInstanceBase@@QAEXXZ ENDP			; CInstanceBase::Deform
_TEXT	ENDS
; Function compile flags: /Ogtp
; File D:\_m2work\Server Client TMP4\ClientVS22\source\UserInterface\InstanceBase.cpp
;	COMDAT ?RenderTrace@CInstanceBase@@QAEXXZ
_TEXT	SEGMENT
?RenderTrace@CInstanceBase@@QAEXXZ PROC			; CInstanceBase::RenderTrace, COMDAT
; _this$ = ecx

; 1952 : {

  00000	56		 push	 esi
  00001	8b f1		 mov	 esi, ecx

; 1953 : 	if (!__CanRender())

  00003	e8 00 00 00 00	 call	 ?__CanRender@CInstanceBase@@IAE_NXZ ; CInstanceBase::__CanRender
  00008	84 c0		 test	 al, al
  0000a	74 0c		 je	 SHORT $LN1@RenderTrac

; 1954 : 		return;
; 1955 : 
; 1956 : 	m_GraphicThingInstance.RenderTrace();

  0000c	8d 8e d4 01 00
	00		 lea	 ecx, DWORD PTR [esi+468]
  00012	5e		 pop	 esi
  00013	e9 00 00 00 00	 jmp	 ?RenderTrace@CActorInstance@@QAEXXZ ; CActorInstance::RenderTrace
$LN1@RenderTrac:
  00018	5e		 pop	 esi

; 1957 : }

  00019	c3		 ret	 0
?RenderTrace@CInstanceBase@@QAEXXZ ENDP			; CInstanceBase::RenderTrace
_TEXT	ENDS
; Function compile flags: /Ogtp
; File D:\_m2work\Server Client TMP4\ClientVS22\source\UserInterface\InstanceBase.cpp
; File D:\_m2work\Server Client TMP4\ClientVS22\extern\include\d3dx8math.inl
; File D:\_m2work\Server Client TMP4\ClientVS22\source\UserInterface\InstanceBase.cpp
; File D:\_m2work\Server Client TMP4\ClientVS22\extern\include\d3dx8math.inl
; File D:\_m2work\Server Client TMP4\ClientVS22\source\UserInterface\InstanceBase.cpp
; File D:\_m2work\Server Client TMP4\ClientVS22\extern\include\d3dx8math.inl
; File D:\_m2work\Server Client TMP4\ClientVS22\source\UserInterface\InstanceBase.cpp
; File D:\_m2work\Server Client TMP4\ClientVS22\extern\include\d3dx8math.inl
; File D:\_m2work\Server Client TMP4\ClientVS22\source\UserInterface\InstanceBase.cpp
;	COMDAT ?Render@CInstanceBase@@QAEXXZ
_TEXT	SEGMENT
_kD3DVt3Cur$1$sroa$305$1$ = -44				; size = 4
_kD3DVt3Cur$1$sroa$306$1$ = -40				; size = 4
_kD3DVt3Dest$2$sroa$307$1$ = -36			; size = 4
$T4 = -32						; size = 4
_px$5 = -28						; size = 12
__$ArrayPad$ = -16					; size = 4
__$EHRec$ = -12						; size = 12
?Render@CInstanceBase@@QAEXXZ PROC			; CInstanceBase::Render, COMDAT
; _this$ = ecx

; 1963 : {

  00000	55		 push	 ebp
  00001	8b ec		 mov	 ebp, esp
  00003	6a ff		 push	 -1
  00005	68 00 00 00 00	 push	 __ehhandler$?Render@CInstanceBase@@QAEXXZ
  0000a	64 a1 00 00 00
	00		 mov	 eax, DWORD PTR fs:0
  00010	50		 push	 eax
  00011	83 ec 20	 sub	 esp, 32			; 00000020H
  00014	a1 00 00 00 00	 mov	 eax, DWORD PTR ___security_cookie
  00019	33 c5		 xor	 eax, ebp
  0001b	89 45 f0	 mov	 DWORD PTR __$ArrayPad$[ebp], eax
  0001e	56		 push	 esi
  0001f	57		 push	 edi
  00020	50		 push	 eax
  00021	8d 45 f4	 lea	 eax, DWORD PTR __$EHRec$[ebp]
  00024	64 a3 00 00 00
	00		 mov	 DWORD PTR fs:0, eax
  0002a	8b f1		 mov	 esi, ecx

; 1964 : 	// 2004.07.17.levites.isShow ViewFrustumCheck 
; 1965 : 	if (!__CanRender())

  0002c	e8 00 00 00 00	 call	 ?__CanRender@CInstanceBase@@IAE_NXZ ; CInstanceBase::__CanRender
  00031	84 c0		 test	 al, al
  00033	0f 84 b2 01 00
	00		 je	 $LN5@Render

; 1966 : 		return;
; 1967 : 
; 1968 : 	++ms_dwRenderCounter;

  00039	ff 05 00 00 00
	00		 inc	 DWORD PTR ?ms_dwRenderCounter@CInstanceBase@@1KA ; CInstanceBase::ms_dwRenderCounter

; 1969 : 
; 1970 : 	m_kHorse.Render();

  0003f	8d 4e 04	 lea	 ecx, DWORD PTR [esi+4]
  00042	e8 00 00 00 00	 call	 ?Render@SHORSE@CInstanceBase@@QAEXXZ ; CInstanceBase::SHORSE::Render

; 1971 : 	m_GraphicThingInstance.Render();	

  00047	8d 8e d4 01 00
	00		 lea	 ecx, DWORD PTR [esi+468]
  0004d	e8 00 00 00 00	 call	 ?Render@CGraphicObjectInstance@@QAE_NXZ ; CGraphicObjectInstance::Render

; 1972 : 	
; 1973 : 	if (CActorInstance::IsDirLine())

  00052	e8 00 00 00 00	 call	 ?IsDirLine@CActorInstance@@SA_NXZ ; CActorInstance::IsDirLine
  00057	84 c0		 test	 al, al
  00059	0f 84 8c 01 00
	00		 je	 $LN5@Render

; 1974 : 	{	
; 1975 : 		if (NEW_GetDstPixelPositionRef().x != 0.0f)

  0005f	8b ce		 mov	 ecx, esi
  00061	e8 00 00 00 00	 call	 ?NEW_GetDstPixelPositionRef@CInstanceBase@@QAEABUD3DXVECTOR3@@XZ ; CInstanceBase::NEW_GetDstPixelPositionRef
  00066	0f 57 c0	 xorps	 xmm0, xmm0
  00069	f3 0f 10 08	 movss	 xmm1, DWORD PTR [eax]
  0006d	0f 2e c8	 ucomiss xmm1, xmm0
  00070	9f		 lahf
  00071	f6 c4 44	 test	 ah, 68			; 00000044H
  00074	0f 8b 71 01 00
	00		 jnp	 $LN5@Render

; 1976 : 		{
; 1977 : 			static CScreen s_kScreen;

  0007a	64 a1 00 00 00
	00		 mov	 eax, DWORD PTR fs:__tls_array
  00080	8b 08		 mov	 ecx, DWORD PTR [eax]
  00082	a1 00 00 00 00	 mov	 eax, DWORD PTR ?$TSS0@?9??Render@CInstanceBase@@QAEXXZ@4HA
  00087	3b 81 00 00 00
	00		 cmp	 eax, DWORD PTR __Init_thread_epoch[ecx]
  0008d	0f 8f 73 01 00
	00		 jg	 $LN32@Render
$LN2@Render:

; 1978 : 
; 1979 : 			STATEMANAGER.SetTextureStageState(0, D3DTSS_COLORARG1,	D3DTA_DIFFUSE);

  00093	8b 0d 00 00 00
	00		 mov	 ecx, DWORD PTR ?ms_singleton@?$CSingleton@VCStateManager@@@@0PAVCStateManager@@A ; CSingleton<CStateManager>::ms_singleton
  00099	6a 00		 push	 0
  0009b	6a 02		 push	 2
  0009d	6a 00		 push	 0
  0009f	e8 00 00 00 00	 call	 ?SetTextureStageState@CStateManager@@QAEXKW4_D3DTEXTURESTAGESTATETYPE@@K@Z ; CStateManager::SetTextureStageState

; 1980 : 			STATEMANAGER.SetTextureStageState(0, D3DTSS_COLOROP,	D3DTOP_SELECTARG1);

  000a4	8b 0d 00 00 00
	00		 mov	 ecx, DWORD PTR ?ms_singleton@?$CSingleton@VCStateManager@@@@0PAVCStateManager@@A ; CSingleton<CStateManager>::ms_singleton
  000aa	6a 02		 push	 2
  000ac	6a 01		 push	 1
  000ae	6a 00		 push	 0
  000b0	e8 00 00 00 00	 call	 ?SetTextureStageState@CStateManager@@QAEXKW4_D3DTEXTURESTAGESTATETYPE@@K@Z ; CStateManager::SetTextureStageState

; 1981 : 			STATEMANAGER.SetTextureStageState(0, D3DTSS_ALPHAOP,	D3DTOP_DISABLE);	

  000b5	8b 0d 00 00 00
	00		 mov	 ecx, DWORD PTR ?ms_singleton@?$CSingleton@VCStateManager@@@@0PAVCStateManager@@A ; CSingleton<CStateManager>::ms_singleton
  000bb	6a 01		 push	 1
  000bd	6a 04		 push	 4
  000bf	6a 00		 push	 0
  000c1	e8 00 00 00 00	 call	 ?SetTextureStageState@CStateManager@@QAEXKW4_D3DTEXTURESTAGESTATETYPE@@K@Z ; CStateManager::SetTextureStageState

; 1982 : 			STATEMANAGER.SaveRenderState(D3DRS_ZENABLE, FALSE);

  000c6	8b 0d 00 00 00
	00		 mov	 ecx, DWORD PTR ?ms_singleton@?$CSingleton@VCStateManager@@@@0PAVCStateManager@@A ; CSingleton<CStateManager>::ms_singleton
  000cc	6a 00		 push	 0
  000ce	6a 07		 push	 7
  000d0	e8 00 00 00 00	 call	 ?SaveRenderState@CStateManager@@QAEXW4_D3DRENDERSTATETYPE@@K@Z ; CStateManager::SaveRenderState

; 1983 : 			STATEMANAGER.SetRenderState(D3DRS_FOGENABLE, FALSE);

  000d5	8b 0d 00 00 00
	00		 mov	 ecx, DWORD PTR ?ms_singleton@?$CSingleton@VCStateManager@@@@0PAVCStateManager@@A ; CSingleton<CStateManager>::ms_singleton
  000db	6a 00		 push	 0
  000dd	6a 1c		 push	 28			; 0000001cH
  000df	e8 00 00 00 00	 call	 ?SetRenderState@CStateManager@@QAEXW4_D3DRENDERSTATETYPE@@K@Z ; CStateManager::SetRenderState

; 1984 : 			STATEMANAGER.SetRenderState(D3DRS_LIGHTING, FALSE);

  000e4	8b 0d 00 00 00
	00		 mov	 ecx, DWORD PTR ?ms_singleton@?$CSingleton@VCStateManager@@@@0PAVCStateManager@@A ; CSingleton<CStateManager>::ms_singleton
  000ea	6a 00		 push	 0
  000ec	68 89 00 00 00	 push	 137			; 00000089H
  000f1	e8 00 00 00 00	 call	 ?SetRenderState@CStateManager@@QAEXW4_D3DRENDERSTATETYPE@@K@Z ; CStateManager::SetRenderState

; 1985 : 			
; 1986 : 			TPixelPosition px;
; 1987 : 			m_GraphicThingInstance.GetPixelPosition(&px);

  000f6	8d 45 e4	 lea	 eax, DWORD PTR _px$5[ebp]
  000f9	50		 push	 eax
  000fa	8d 8e d4 01 00
	00		 lea	 ecx, DWORD PTR [esi+468]
  00100	e8 00 00 00 00	 call	 ?GetPixelPosition@CActorInstance@@QAEXPAUD3DXVECTOR3@@@Z ; CActorInstance::GetPixelPosition
; File D:\_m2work\Server Client TMP4\ClientVS22\extern\include\d3dx8math.inl

; 180  :     x = fx;

  00105	f3 0f 10 45 e4	 movss	 xmm0, DWORD PTR _px$5[ebp]
; File D:\_m2work\Server Client TMP4\ClientVS22\source\UserInterface\InstanceBase.cpp

; 1990 : 			D3DXVECTOR3 kD3DVt3Dest(NEW_GetDstPixelPositionRef().x, -NEW_GetDstPixelPositionRef().y, NEW_GetDstPixelPositionRef().z);

  0010a	8b ce		 mov	 ecx, esi
; File D:\_m2work\Server Client TMP4\ClientVS22\extern\include\d3dx8math.inl

; 180  :     x = fx;

  0010c	f3 0f 11 45 d4	 movss	 DWORD PTR _kD3DVt3Cur$1$sroa$305$1$[ebp], xmm0

; 181  :     y = fy;

  00111	f3 0f 10 45 e8	 movss	 xmm0, DWORD PTR _px$5[ebp+4]
  00116	f3 0f 11 45 d8	 movss	 DWORD PTR _kD3DVt3Cur$1$sroa$306$1$[ebp], xmm0
; File D:\_m2work\Server Client TMP4\ClientVS22\source\UserInterface\InstanceBase.cpp

; 1990 : 			D3DXVECTOR3 kD3DVt3Dest(NEW_GetDstPixelPositionRef().x, -NEW_GetDstPixelPositionRef().y, NEW_GetDstPixelPositionRef().z);

  0011b	e8 00 00 00 00	 call	 ?NEW_GetDstPixelPositionRef@CInstanceBase@@QAEABUD3DXVECTOR3@@XZ ; CInstanceBase::NEW_GetDstPixelPositionRef
  00120	8b ce		 mov	 ecx, esi
  00122	e8 00 00 00 00	 call	 ?NEW_GetDstPixelPositionRef@CInstanceBase@@QAEABUD3DXVECTOR3@@XZ ; CInstanceBase::NEW_GetDstPixelPositionRef
  00127	8b ce		 mov	 ecx, esi
  00129	f3 0f 10 40 04	 movss	 xmm0, DWORD PTR [eax+4]
  0012e	0f 57 05 00 00
	00 00		 xorps	 xmm0, DWORD PTR __xmm@80000000800000008000000080000000
  00135	f3 0f 11 45 e0	 movss	 DWORD PTR $T4[ebp], xmm0
  0013a	e8 00 00 00 00	 call	 ?NEW_GetDstPixelPositionRef@CInstanceBase@@QAEABUD3DXVECTOR3@@XZ ; CInstanceBase::NEW_GetDstPixelPositionRef

; 1996 : 			s_kScreen.SetDiffuseColor(0.0f, 0.0f, 1.0f);

  0013f	83 ec 10	 sub	 esp, 16			; 00000010H
  00142	b9 00 00 00 00	 mov	 ecx, OFFSET ?s_kScreen@?9??Render@CInstanceBase@@QAEXXZ@4VCScreen@@A
; File D:\_m2work\Server Client TMP4\ClientVS22\extern\include\d3dx8math.inl

; 180  :     x = fx;

  00147	f3 0f 10 00	 movss	 xmm0, DWORD PTR [eax]
; File D:\_m2work\Server Client TMP4\ClientVS22\source\UserInterface\InstanceBase.cpp

; 1996 : 			s_kScreen.SetDiffuseColor(0.0f, 0.0f, 1.0f);

  0014b	c7 44 24 0c 00
	00 80 3f	 mov	 DWORD PTR [esp+12], 1065353216 ; 3f800000H
  00153	c7 44 24 08 00
	00 80 3f	 mov	 DWORD PTR [esp+8], 1065353216 ; 3f800000H
  0015b	c7 44 24 04 00
	00 00 00	 mov	 DWORD PTR [esp+4], 0
; File D:\_m2work\Server Client TMP4\ClientVS22\extern\include\d3dx8math.inl

; 180  :     x = fx;

  00163	f3 0f 11 45 dc	 movss	 DWORD PTR _kD3DVt3Dest$2$sroa$307$1$[ebp], xmm0
; File D:\_m2work\Server Client TMP4\ClientVS22\source\UserInterface\InstanceBase.cpp

; 1996 : 			s_kScreen.SetDiffuseColor(0.0f, 0.0f, 1.0f);

  00168	c7 04 24 00 00
	00 00		 mov	 DWORD PTR [esp], 0
  0016f	e8 00 00 00 00	 call	 ?SetDiffuseColor@CScreen@@QAEXMMMM@Z ; CScreen::SetDiffuseColor

; 1997 : 			s_kScreen.RenderLine3d(kD3DVt3Cur.x, kD3DVt3Cur.y, px.z, kD3DVt3Dest.x, kD3DVt3Dest.y, px.z);

  00174	f3 0f 10 45 ec	 movss	 xmm0, DWORD PTR _px$5[ebp+8]
  00179	83 ec 18	 sub	 esp, 24			; 00000018H
  0017c	f3 0f 10 4d e0	 movss	 xmm1, DWORD PTR $T4[ebp]
  00181	b9 00 00 00 00	 mov	 ecx, OFFSET ?s_kScreen@?9??Render@CInstanceBase@@QAEXXZ@4VCScreen@@A
  00186	f3 0f 11 44 24
	14		 movss	 DWORD PTR [esp+20], xmm0
  0018c	f3 0f 11 4c 24
	10		 movss	 DWORD PTR [esp+16], xmm1
  00192	f3 0f 10 4d dc	 movss	 xmm1, DWORD PTR _kD3DVt3Dest$2$sroa$307$1$[ebp]
  00197	f3 0f 11 4c 24
	0c		 movss	 DWORD PTR [esp+12], xmm1
  0019d	f3 0f 11 44 24
	08		 movss	 DWORD PTR [esp+8], xmm0
  001a3	f3 0f 10 45 d8	 movss	 xmm0, DWORD PTR _kD3DVt3Cur$1$sroa$306$1$[ebp]
  001a8	f3 0f 11 44 24
	04		 movss	 DWORD PTR [esp+4], xmm0
  001ae	f3 0f 10 45 d4	 movss	 xmm0, DWORD PTR _kD3DVt3Cur$1$sroa$305$1$[ebp]
  001b3	f3 0f 11 04 24	 movss	 DWORD PTR [esp], xmm0
  001b8	e8 00 00 00 00	 call	 ?RenderLine3d@CScreen@@QAEXMMMMMM@Z ; CScreen::RenderLine3d

; 1998 : 			STATEMANAGER.RestoreRenderState(D3DRS_ZENABLE);

  001bd	8b 0d 00 00 00
	00		 mov	 ecx, DWORD PTR ?ms_singleton@?$CSingleton@VCStateManager@@@@0PAVCStateManager@@A ; CSingleton<CStateManager>::ms_singleton
  001c3	6a 07		 push	 7
  001c5	e8 00 00 00 00	 call	 ?RestoreRenderState@CStateManager@@QAEXW4_D3DRENDERSTATETYPE@@@Z ; CStateManager::RestoreRenderState

; 1999 : 			STATEMANAGER.SetRenderState(D3DRS_FOGENABLE, TRUE);

  001ca	8b 0d 00 00 00
	00		 mov	 ecx, DWORD PTR ?ms_singleton@?$CSingleton@VCStateManager@@@@0PAVCStateManager@@A ; CSingleton<CStateManager>::ms_singleton
  001d0	6a 01		 push	 1
  001d2	6a 1c		 push	 28			; 0000001cH
  001d4	e8 00 00 00 00	 call	 ?SetRenderState@CStateManager@@QAEXW4_D3DRENDERSTATETYPE@@K@Z ; CStateManager::SetRenderState

; 2000 : 			STATEMANAGER.SetRenderState(D3DRS_LIGHTING, TRUE);

  001d9	8b 0d 00 00 00
	00		 mov	 ecx, DWORD PTR ?ms_singleton@?$CSingleton@VCStateManager@@@@0PAVCStateManager@@A ; CSingleton<CStateManager>::ms_singleton
  001df	6a 01		 push	 1
  001e1	68 89 00 00 00	 push	 137			; 00000089H
  001e6	e8 00 00 00 00	 call	 ?SetRenderState@CStateManager@@QAEXW4_D3DRENDERSTATETYPE@@K@Z ; CStateManager::SetRenderState
$LN5@Render:

; 2001 : 		}
; 2002 : 	}	
; 2003 : }

  001eb	8b 4d f4	 mov	 ecx, DWORD PTR __$EHRec$[ebp]
  001ee	64 89 0d 00 00
	00 00		 mov	 DWORD PTR fs:0, ecx
  001f5	59		 pop	 ecx
  001f6	5f		 pop	 edi
  001f7	5e		 pop	 esi
  001f8	8b 4d f0	 mov	 ecx, DWORD PTR __$ArrayPad$[ebp]
  001fb	33 cd		 xor	 ecx, ebp
  001fd	e8 00 00 00 00	 call	 @__security_check_cookie@4
  00202	8b e5		 mov	 esp, ebp
  00204	5d		 pop	 ebp
  00205	c3		 ret	 0
$LN32@Render:

; 1976 : 		{
; 1977 : 			static CScreen s_kScreen;

  00206	68 00 00 00 00	 push	 OFFSET ?$TSS0@?9??Render@CInstanceBase@@QAEXXZ@4HA
  0020b	e8 00 00 00 00	 call	 __Init_thread_header
  00210	83 c4 04	 add	 esp, 4
  00213	83 3d 00 00 00
	00 ff		 cmp	 DWORD PTR ?$TSS0@?9??Render@CInstanceBase@@QAEXXZ@4HA, -1
  0021a	0f 85 73 fe ff
	ff		 jne	 $LN2@Render
  00220	b9 00 00 00 00	 mov	 ecx, OFFSET ?s_kScreen@?9??Render@CInstanceBase@@QAEXXZ@4VCScreen@@A
  00225	c7 45 fc 00 00
	00 00		 mov	 DWORD PTR __$EHRec$[ebp+8], 0
  0022c	e8 00 00 00 00	 call	 ??0CScreen@@QAE@XZ	; CScreen::CScreen
  00231	68 00 00 00 00	 push	 OFFSET ??__Fs_kScreen@?9??Render@CInstanceBase@@QAEXXZ@YAXXZ ; `CInstanceBase::Render'::`10'::`dynamic atexit destructor for 's_kScreen''
  00236	e8 00 00 00 00	 call	 _atexit
  0023b	68 00 00 00 00	 push	 OFFSET ?$TSS0@?9??Render@CInstanceBase@@QAEXXZ@4HA
  00240	c7 45 fc ff ff
	ff ff		 mov	 DWORD PTR __$EHRec$[ebp+8], -1
  00247	e8 00 00 00 00	 call	 __Init_thread_footer
  0024c	83 c4 08	 add	 esp, 8
  0024f	e9 3f fe ff ff	 jmp	 $LN2@Render
_TEXT	ENDS
;	COMDAT text$x
text$x	SEGMENT
__unwindfunclet$?Render@CInstanceBase@@QAEXXZ$0:
  00000	68 00 00 00 00	 push	 OFFSET ?$TSS0@?9??Render@CInstanceBase@@QAEXXZ@4HA
  00005	e8 00 00 00 00	 call	 __Init_thread_abort
  0000a	59		 pop	 ecx
  0000b	c3		 ret	 0
  0000c	cc		 int	 3
  0000d	cc		 int	 3
  0000e	cc		 int	 3
  0000f	cc		 int	 3
  00010	cc		 int	 3
__ehhandler$?Render@CInstanceBase@@QAEXXZ:
  00011	90		 npad	 1
  00012	90		 npad	 1
  00013	8b 54 24 08	 mov	 edx, DWORD PTR [esp+8]
  00017	8d 42 0c	 lea	 eax, DWORD PTR [edx+12]
  0001a	8b 4a d4	 mov	 ecx, DWORD PTR [edx-44]
  0001d	33 c8		 xor	 ecx, eax
  0001f	e8 00 00 00 00	 call	 @__security_check_cookie@4
  00024	8b 4a fc	 mov	 ecx, DWORD PTR [edx-4]
  00027	33 c8		 xor	 ecx, eax
  00029	e8 00 00 00 00	 call	 @__security_check_cookie@4
  0002e	b8 00 00 00 00	 mov	 eax, OFFSET __ehfuncinfo$?Render@CInstanceBase@@QAEXXZ
  00033	e9 00 00 00 00	 jmp	 ___CxxFrameHandler3
text$x	ENDS
?Render@CInstanceBase@@QAEXXZ ENDP			; CInstanceBase::Render
; Function compile flags: /Ogtp
;	COMDAT ??__Fs_kScreen@?9??Render@CInstanceBase@@QAEXXZ@YAXXZ
text$yd	SEGMENT
??__Fs_kScreen@?9??Render@CInstanceBase@@QAEXXZ@YAXXZ PROC ; `CInstanceBase::Render'::`10'::`dynamic atexit destructor for 's_kScreen'', COMDAT
  00000	b9 00 00 00 00	 mov	 ecx, OFFSET ?s_kScreen@?9??Render@CInstanceBase@@QAEXXZ@4VCScreen@@A
  00005	e9 00 00 00 00	 jmp	 ??1CScreen@@UAE@XZ	; CScreen::~CScreen
??__Fs_kScreen@?9??Render@CInstanceBase@@QAEXXZ@YAXXZ ENDP ; `CInstanceBase::Render'::`10'::`dynamic atexit destructor for 's_kScreen''
text$yd	ENDS
; Function compile flags: /Ogtp
; File D:\_m2work\Server Client TMP4\ClientVS22\source\UserInterface\InstanceBase.cpp
;	COMDAT ?RenderToShadowMap@CInstanceBase@@QAEXXZ
_TEXT	SEGMENT
?RenderToShadowMap@CInstanceBase@@QAEXXZ PROC		; CInstanceBase::RenderToShadowMap, COMDAT
; _this$ = ecx

; 2006 : {

  00000	56		 push	 esi
  00001	8b f1		 mov	 esi, ecx

; 2007 : 	if (IsDoor())

  00003	e8 00 00 00 00	 call	 ?IsDoor@CInstanceBase@@QAEHXZ ; CInstanceBase::IsDoor
  00008	85 c0		 test	 eax, eax
  0000a	75 41		 jne	 SHORT $LN1@RenderToSh

; 2008 : 		return;
; 2009 : 
; 2010 : 	if (IsBuilding())

  0000c	8b ce		 mov	 ecx, esi
  0000e	e8 00 00 00 00	 call	 ?IsBuilding@CInstanceBase@@QAEHXZ ; CInstanceBase::IsBuilding
  00013	85 c0		 test	 eax, eax
  00015	75 36		 jne	 SHORT $LN1@RenderToSh

; 2011 : 		return;
; 2012 : 
; 2013 : 	if (!__CanRender())

  00017	8b ce		 mov	 ecx, esi
  00019	e8 00 00 00 00	 call	 ?__CanRender@CInstanceBase@@IAE_NXZ ; CInstanceBase::__CanRender
  0001e	84 c0		 test	 al, al
  00020	74 2b		 je	 SHORT $LN1@RenderToSh

; 2014 : 		return;
; 2015 : 
; 2016 : 	if (!__IsExistMainInstance())

  00022	e8 00 00 00 00	 call	 ?__IsExistMainInstance@CInstanceBase@@IAE_NXZ ; CInstanceBase::__IsExistMainInstance
  00027	84 c0		 test	 al, al
  00029	74 22		 je	 SHORT $LN1@RenderToSh

; 2017 : 		return;
; 2018 : 
; 2019 : 	CInstanceBase* pkInstMain=__GetMainInstancePtr();

  0002b	e8 00 00 00 00	 call	 ?__GetMainInstancePtr@CInstanceBase@@IAEPAV1@XZ ; CInstanceBase::__GetMainInstancePtr

; 2020 : 
; 2021 : 	const float SHADOW_APPLY_DISTANCE = 2500.0f;
; 2022 : 
; 2023 : 	float fDistance=NEW_GetDistanceFromDestInstance(*pkInstMain);

  00030	50		 push	 eax
  00031	8b ce		 mov	 ecx, esi
  00033	e8 00 00 00 00	 call	 ?NEW_GetDistanceFromDestInstance@CInstanceBase@@QAEMAAV1@@Z ; CInstanceBase::NEW_GetDistanceFromDestInstance

; 2024 : 	if (fDistance>=SHADOW_APPLY_DISTANCE)

  00038	0f 2f 05 00 00
	00 00		 comiss	 xmm0, DWORD PTR __real@451c4000
  0003f	73 0c		 jae	 SHORT $LN1@RenderToSh

; 2025 : 		return;
; 2026 : 
; 2027 : 	m_GraphicThingInstance.RenderToShadowMap();	

  00041	8d 8e d4 01 00
	00		 lea	 ecx, DWORD PTR [esi+468]
  00047	5e		 pop	 esi
  00048	e9 00 00 00 00	 jmp	 ?RenderToShadowMap@CActorInstance@@QAEXXZ ; CActorInstance::RenderToShadowMap
$LN1@RenderToSh:
  0004d	5e		 pop	 esi

; 2028 : }

  0004e	c3		 ret	 0
?RenderToShadowMap@CInstanceBase@@QAEXXZ ENDP		; CInstanceBase::RenderToShadowMap
_TEXT	ENDS
; Function compile flags: /Ogtp
; File D:\_m2work\Server Client TMP4\ClientVS22\source\UserInterface\InstanceBase.cpp
;	COMDAT ?RenderCollision@CInstanceBase@@QAEXXZ
_TEXT	SEGMENT
?RenderCollision@CInstanceBase@@QAEXXZ PROC		; CInstanceBase::RenderCollision, COMDAT
; _this$ = ecx

; 2032 : 	m_GraphicThingInstance.RenderCollisionData();

  00000	81 c1 d4 01 00
	00		 add	 ecx, 468		; 000001d4H
  00006	e9 00 00 00 00	 jmp	 ?RenderCollisionData@CActorInstance@@QAEXXZ ; CActorInstance::RenderCollisionData
?RenderCollision@CInstanceBase@@QAEXXZ ENDP		; CInstanceBase::RenderCollision
_TEXT	ENDS
; Function compile flags: /Ogtp
; File D:\_m2work\Server Client TMP4\ClientVS22\source\UserInterface\InstanceBase.cpp
;	COMDAT ?SetVirtualID@CInstanceBase@@QAEXK@Z
_TEXT	SEGMENT
_dwVirtualID$ = 8					; size = 4
?SetVirtualID@CInstanceBase@@QAEXK@Z PROC		; CInstanceBase::SetVirtualID, COMDAT
; _this$ = ecx

; 2039 : {

  00000	55		 push	 ebp
  00001	8b ec		 mov	 ebp, esp

; 2040 : 	m_GraphicThingInstance.SetVirtualID(dwVirtualID);		

  00003	81 c1 d4 01 00
	00		 add	 ecx, 468		; 000001d4H

; 2041 : }

  00009	5d		 pop	 ebp

; 2040 : 	m_GraphicThingInstance.SetVirtualID(dwVirtualID);		

  0000a	e9 00 00 00 00	 jmp	 ?SetVirtualID@CActorInstance@@QAEXK@Z ; CActorInstance::SetVirtualID
?SetVirtualID@CInstanceBase@@QAEXK@Z ENDP		; CInstanceBase::SetVirtualID
_TEXT	ENDS
; Function compile flags: /Ogtp
; File D:\_m2work\Server Client TMP4\ClientVS22\source\UserInterface\InstanceBase.cpp
;	COMDAT ?SetVirtualNumber@CInstanceBase@@QAEXK@Z
_TEXT	SEGMENT
_dwVirtualNumber$ = 8					; size = 4
?SetVirtualNumber@CInstanceBase@@QAEXK@Z PROC		; CInstanceBase::SetVirtualNumber, COMDAT
; _this$ = ecx

; 2044 : {

  00000	55		 push	 ebp
  00001	8b ec		 mov	 ebp, esp

; 2045 : 	m_dwVirtualNumber = dwVirtualNumber;

  00003	8b 45 08	 mov	 eax, DWORD PTR _dwVirtualNumber$[ebp]
  00006	89 81 68 01 00
	00		 mov	 DWORD PTR [ecx+360], eax

; 2046 : }

  0000c	5d		 pop	 ebp
  0000d	c2 04 00	 ret	 4
?SetVirtualNumber@CInstanceBase@@QAEXK@Z ENDP		; CInstanceBase::SetVirtualNumber
_TEXT	ENDS
; Function compile flags: /Ogtp
; File D:\_m2work\Server Client TMP4\ClientVS22\source\UserInterface\InstanceBase.cpp
;	COMDAT ?SetInstanceType@CInstanceBase@@QAEXH@Z
_TEXT	SEGMENT
_iInstanceType$ = 8					; size = 4
?SetInstanceType@CInstanceBase@@QAEXH@Z PROC		; CInstanceBase::SetInstanceType, COMDAT
; _this$ = ecx

; 2049 : {

  00000	55		 push	 ebp
  00001	8b ec		 mov	 ebp, esp

; 2050 : 	m_GraphicThingInstance.SetActorType(iInstanceType);

  00003	81 c1 d4 01 00
	00		 add	 ecx, 468		; 000001d4H

; 2051 : }

  00009	5d		 pop	 ebp

; 2050 : 	m_GraphicThingInstance.SetActorType(iInstanceType);

  0000a	e9 00 00 00 00	 jmp	 ?SetActorType@CActorInstance@@QAEXI@Z ; CActorInstance::SetActorType
?SetInstanceType@CInstanceBase@@QAEXH@Z ENDP		; CInstanceBase::SetInstanceType
_TEXT	ENDS
; Function compile flags: /Ogtp
; File D:\_m2work\Server Client TMP4\ClientVS22\source\UserInterface\InstanceBase.cpp
;	COMDAT ?SetAlignment@CInstanceBase@@QAEXF@Z
_TEXT	SEGMENT
_sAlignment$ = 8					; size = 2
?SetAlignment@CInstanceBase@@QAEXF@Z PROC		; CInstanceBase::SetAlignment, COMDAT
; _this$ = ecx

; 2054 : {

  00000	55		 push	 ebp
  00001	8b ec		 mov	 ebp, esp

; 2055 : 	m_sAlignment = sAlignment;

  00003	66 8b 45 08	 mov	 ax, WORD PTR _sAlignment$[ebp]
  00007	66 89 81 6c 01
	00 00		 mov	 WORD PTR [ecx+364], ax

; 2056 : 	RefreshTextTailTitle();

  0000e	e8 00 00 00 00	 call	 ?RefreshTextTailTitle@CInstanceBase@@QAEXXZ ; CInstanceBase::RefreshTextTailTitle

; 2057 : }

  00013	5d		 pop	 ebp
  00014	c2 04 00	 ret	 4
?SetAlignment@CInstanceBase@@QAEXF@Z ENDP		; CInstanceBase::SetAlignment
_TEXT	ENDS
; Function compile flags: /Ogtp
; File D:\_m2work\Server Client TMP4\ClientVS22\source\UserInterface\InstanceBase.cpp
;	COMDAT ?SetPKMode@CInstanceBase@@QAEXE@Z
_TEXT	SEGMENT
_byPKMode$ = 8						; size = 1
?SetPKMode@CInstanceBase@@QAEXE@Z PROC			; CInstanceBase::SetPKMode, COMDAT
; _this$ = ecx

; 2060 : {

  00000	55		 push	 ebp
  00001	8b ec		 mov	 ebp, esp

; 2061 : 	if (m_byPKMode == byPKMode)

  00003	8a 45 08	 mov	 al, BYTE PTR _byPKMode$[ebp]
  00006	38 81 6e 01 00
	00		 cmp	 BYTE PTR [ecx+366], al
  0000c	74 1a		 je	 SHORT $LN3@SetPKMode

; 2062 : 		return;
; 2063 : 
; 2064 : 	m_byPKMode = byPKMode;

  0000e	88 81 6e 01 00
	00		 mov	 BYTE PTR [ecx+366], al

; 2065 : 
; 2066 : 	if (__IsMainInstance())

  00014	e8 00 00 00 00	 call	 ?__IsMainInstance@CInstanceBase@@IAE_NXZ ; CInstanceBase::__IsMainInstance
  00019	84 c0		 test	 al, al
  0001b	74 0b		 je	 SHORT $LN3@SetPKMode

; 2067 : 	{
; 2068 : 		IAbstractPlayer& rPlayer=IAbstractPlayer::GetSingleton();

  0001d	8b 0d 00 00 00
	00		 mov	 ecx, DWORD PTR ?ms_singleton@?$TAbstractSingleton@VIAbstractPlayer@@@@0PAVIAbstractPlayer@@A ; TAbstractSingleton<IAbstractPlayer>::ms_singleton

; 2069 : 		rPlayer.NotifyChangePKMode();

  00023	8b 01		 mov	 eax, DWORD PTR [ecx]
  00025	ff 50 70	 call	 DWORD PTR [eax+112]
$LN3@SetPKMode:

; 2070 : 	}	
; 2071 : }

  00028	5d		 pop	 ebp
  00029	c2 04 00	 ret	 4
?SetPKMode@CInstanceBase@@QAEXE@Z ENDP			; CInstanceBase::SetPKMode
_TEXT	ENDS
; Function compile flags: /Ogtp
; File D:\_m2work\Server Client TMP4\ClientVS22\source\UserInterface\InstanceBase.cpp
;	COMDAT ?SetKiller@CInstanceBase@@QAEX_N@Z
_TEXT	SEGMENT
_bFlag$ = 8						; size = 1
?SetKiller@CInstanceBase@@QAEX_N@Z PROC			; CInstanceBase::SetKiller, COMDAT
; _this$ = ecx

; 2074 : {

  00000	55		 push	 ebp
  00001	8b ec		 mov	 ebp, esp

; 2075 : 	if (m_isKiller == bFlag)

  00003	8a 45 08	 mov	 al, BYTE PTR _bFlag$[ebp]
  00006	38 81 6f 01 00
	00		 cmp	 BYTE PTR [ecx+367], al
  0000c	74 0b		 je	 SHORT $LN1@SetKiller

; 2076 : 		return;
; 2077 : 
; 2078 : 	m_isKiller = bFlag;

  0000e	88 81 6f 01 00
	00		 mov	 BYTE PTR [ecx+367], al

; 2079 : 	RefreshTextTail();

  00014	e8 00 00 00 00	 call	 ?RefreshTextTail@CInstanceBase@@QAEXXZ ; CInstanceBase::RefreshTextTail
$LN1@SetKiller:

; 2080 : }

  00019	5d		 pop	 ebp
  0001a	c2 04 00	 ret	 4
?SetKiller@CInstanceBase@@QAEX_N@Z ENDP			; CInstanceBase::SetKiller
_TEXT	ENDS
; Function compile flags: /Ogtp
; File D:\_m2work\Server Client TMP4\ClientVS22\source\UserInterface\InstanceBase.cpp
;	COMDAT ?SetPartyMemberFlag@CInstanceBase@@QAEX_N@Z
_TEXT	SEGMENT
_bFlag$ = 8						; size = 1
?SetPartyMemberFlag@CInstanceBase@@QAEX_N@Z PROC	; CInstanceBase::SetPartyMemberFlag, COMDAT
; _this$ = ecx

; 2083 : {

  00000	55		 push	 ebp
  00001	8b ec		 mov	 ebp, esp

; 2084 : 	m_isPartyMember = bFlag;

  00003	8a 45 08	 mov	 al, BYTE PTR _bFlag$[ebp]
  00006	88 81 70 01 00
	00		 mov	 BYTE PTR [ecx+368], al

; 2085 : }

  0000c	5d		 pop	 ebp
  0000d	c2 04 00	 ret	 4
?SetPartyMemberFlag@CInstanceBase@@QAEX_N@Z ENDP	; CInstanceBase::SetPartyMemberFlag
_TEXT	ENDS
; Function compile flags: /Ogtp
; File D:\_m2work\Server Client TMP4\ClientVS22\source\UserInterface\InstanceBase.cpp
;	COMDAT ?SetStateFlags@CInstanceBase@@QAEXK@Z
_TEXT	SEGMENT
_dwStateFlags$ = 8					; size = 4
?SetStateFlags@CInstanceBase@@QAEXK@Z PROC		; CInstanceBase::SetStateFlags, COMDAT
; _this$ = ecx

; 2088 : {

  00000	55		 push	 ebp
  00001	8b ec		 mov	 ebp, esp
  00003	53		 push	 ebx

; 2089 : 	if (dwStateFlags & ADD_CHARACTER_STATE_KILLER)

  00004	8b 5d 08	 mov	 ebx, DWORD PTR _dwStateFlags$[ebp]
  00007	8b c3		 mov	 eax, ebx
  00009	c1 e8 03	 shr	 eax, 3
  0000c	24 01		 and	 al, 1
  0000e	56		 push	 esi

; 2090 : 		SetKiller(TRUE);
; 2091 : 	else
; 2092 : 		SetKiller(FALSE);
; 2093 : 
; 2094 : 	if (dwStateFlags & ADD_CHARACTER_STATE_PARTY)

  0000f	0f b6 c0	 movzx	 eax, al
  00012	8b f1		 mov	 esi, ecx
  00014	50		 push	 eax
  00015	e8 00 00 00 00	 call	 ?SetKiller@CInstanceBase@@QAEX_N@Z ; CInstanceBase::SetKiller
  0001a	c1 eb 04	 shr	 ebx, 4

; 2095 : 		SetPartyMemberFlag(TRUE);
; 2096 : 	else
; 2097 : 		SetPartyMemberFlag(FALSE);
; 2098 : }

  0001d	8b ce		 mov	 ecx, esi
  0001f	80 e3 01	 and	 bl, 1
  00022	0f b6 c3	 movzx	 eax, bl
  00025	50		 push	 eax
  00026	e8 00 00 00 00	 call	 ?SetPartyMemberFlag@CInstanceBase@@QAEX_N@Z ; CInstanceBase::SetPartyMemberFlag
  0002b	5e		 pop	 esi
  0002c	5b		 pop	 ebx
  0002d	5d		 pop	 ebp
  0002e	c2 04 00	 ret	 4
?SetStateFlags@CInstanceBase@@QAEXK@Z ENDP		; CInstanceBase::SetStateFlags
_TEXT	ENDS
; Function compile flags: /Ogtp
; File D:\_m2work\Server Client TMP4\ClientVS22\source\UserInterface\InstanceBase.cpp
;	COMDAT ?SetComboType@CInstanceBase@@QAEXI@Z
_TEXT	SEGMENT
_uComboType$ = 8					; size = 4
?SetComboType@CInstanceBase@@QAEXI@Z PROC		; CInstanceBase::SetComboType, COMDAT
; _this$ = ecx

; 2101 : {

  00000	55		 push	 ebp
  00001	8b ec		 mov	 ebp, esp

; 2102 : 	m_GraphicThingInstance.SetComboType(uComboType);

  00003	81 c1 d4 01 00
	00		 add	 ecx, 468		; 000001d4H

; 2103 : }

  00009	5d		 pop	 ebp

; 2102 : 	m_GraphicThingInstance.SetComboType(uComboType);

  0000a	e9 00 00 00 00	 jmp	 ?SetComboType@CActorInstance@@QAEXG@Z ; CActorInstance::SetComboType
?SetComboType@CInstanceBase@@QAEXI@Z ENDP		; CInstanceBase::SetComboType
_TEXT	ENDS
; Function compile flags: /Ogtp
; File D:\_m2work\Server Client TMP4\ClientVS22\source\UserInterface\InstanceBase.cpp
; File C:\Program Files\Microsoft Visual Studio\2022\Community\VC\Tools\MSVC\14.44.35207\include\xstring
; File D:\_m2work\Server Client TMP4\ClientVS22\source\UserInterface\InstanceBase.cpp
;	COMDAT ?GetNameString@CInstanceBase@@QAEPBDXZ
_TEXT	SEGMENT
?GetNameString@CInstanceBase@@QAEPBDXZ PROC		; CInstanceBase::GetNameString, COMDAT
; _this$ = ecx
; File C:\Program Files\Microsoft Visual Studio\2022\Community\VC\Tools\MSVC\14.44.35207\include\xstring

; 453  :         return _Myres > _Small_string_capacity;

  00000	83 79 24 0f	 cmp	 DWORD PTR [ecx+36], 15	; 0000000fH

; 2356 :         return _Mypair._Myval2._Myptr();

  00004	8d 41 10	 lea	 eax, DWORD PTR [ecx+16]

; 445  :         if (_Large_mode_engaged()) {

  00007	76 02		 jbe	 SHORT $LN7@GetNameStr
; File D:\_m2work\Server Client TMP4\ClientVS22\source\UserInterface\InstanceBase.cpp

; 2107 : 	return m_stName.c_str();

  00009	8b 00		 mov	 eax, DWORD PTR [eax]
$LN7@GetNameStr:

; 2108 : }

  0000b	c3		 ret	 0
?GetNameString@CInstanceBase@@QAEPBDXZ ENDP		; CInstanceBase::GetNameString
_TEXT	ENDS
; Function compile flags: /Ogtp
; File D:\_m2work\Server Client TMP4\ClientVS22\source\UserInterface\InstanceBase.cpp
;	COMDAT ?GetRace@CInstanceBase@@QAEKXZ
_TEXT	SEGMENT
?GetRace@CInstanceBase@@QAEKXZ PROC			; CInstanceBase::GetRace, COMDAT
; _this$ = ecx

; 2112 : 	return m_dwRace;

  00000	8b 81 64 01 00
	00		 mov	 eax, DWORD PTR [ecx+356]

; 2113 : }

  00006	c3		 ret	 0
?GetRace@CInstanceBase@@QAEKXZ ENDP			; CInstanceBase::GetRace
_TEXT	ENDS
; Function compile flags: /Ogtp
; File D:\_m2work\Server Client TMP4\ClientVS22\source\UserInterface\InstanceBase.cpp
;	COMDAT ?IsConflictAlignmentInstance@CInstanceBase@@QAE_NAAV1@@Z
_TEXT	SEGMENT
_rkInstVictim$ = 8					; size = 4
?IsConflictAlignmentInstance@CInstanceBase@@QAE_NAAV1@@Z PROC ; CInstanceBase::IsConflictAlignmentInstance, COMDAT
; _this$ = ecx

; 2117 : {

  00000	55		 push	 ebp
  00001	8b ec		 mov	 ebp, esp
  00003	56		 push	 esi

; 2118 : 	if (PK_MODE_PROTECT == rkInstVictim.GetPKMode())

  00004	8b 75 08	 mov	 esi, DWORD PTR _rkInstVictim$[ebp]
  00007	57		 push	 edi
  00008	8b f9		 mov	 edi, ecx
  0000a	8b ce		 mov	 ecx, esi
  0000c	e8 00 00 00 00	 call	 ?GetPKMode@CInstanceBase@@QAEEXZ ; CInstanceBase::GetPKMode
  00011	3c 03		 cmp	 al, 3
  00013	74 45		 je	 SHORT $LN7@IsConflict

; 2119 : 		return false;
; 2120 : 
; 2121 : 	switch (GetAlignmentType())

  00015	8b cf		 mov	 ecx, edi
  00017	e8 00 00 00 00	 call	 ?GetAlignmentType@CInstanceBase@@QAEHXZ ; CInstanceBase::GetAlignmentType
  0001c	83 e8 00	 sub	 eax, 0
  0001f	74 26		 je	 SHORT $LN5@IsConflict
  00021	83 e8 01	 sub	 eax, 1
  00024	74 21		 je	 SHORT $LN5@IsConflict
  00026	83 e8 01	 sub	 eax, 1
  00029	75 2f		 jne	 SHORT $LN7@IsConflict

; 2127 : 			break;
; 2128 : 		case ALIGNMENT_TYPE_DARK:
; 2129 : 			if (GetAlignmentType() != rkInstVictim.GetAlignmentType())

  0002b	8b ce		 mov	 ecx, esi
  0002d	e8 00 00 00 00	 call	 ?GetAlignmentType@CInstanceBase@@QAEHXZ ; CInstanceBase::GetAlignmentType
  00032	8b cf		 mov	 ecx, edi
  00034	8b f0		 mov	 esi, eax
  00036	e8 00 00 00 00	 call	 ?GetAlignmentType@CInstanceBase@@QAEHXZ ; CInstanceBase::GetAlignmentType
  0003b	3b c6		 cmp	 eax, esi
  0003d	74 1b		 je	 SHORT $LN7@IsConflict

; 2126 : 				return true;

  0003f	5f		 pop	 edi
  00040	b0 01		 mov	 al, 1

; 2135 : }

  00042	5e		 pop	 esi
  00043	5d		 pop	 ebp
  00044	c2 04 00	 ret	 4
$LN5@IsConflict:

; 2122 : 	{
; 2123 : 		case ALIGNMENT_TYPE_NORMAL:
; 2124 : 		case ALIGNMENT_TYPE_WHITE:
; 2125 : 			if (ALIGNMENT_TYPE_DARK == rkInstVictim.GetAlignmentType())

  00047	8b ce		 mov	 ecx, esi
  00049	e8 00 00 00 00	 call	 ?GetAlignmentType@CInstanceBase@@QAEHXZ ; CInstanceBase::GetAlignmentType
  0004e	83 f8 02	 cmp	 eax, 2
  00051	5f		 pop	 edi
  00052	0f 94 c0	 sete	 al

; 2135 : }

  00055	5e		 pop	 esi
  00056	5d		 pop	 ebp
  00057	c2 04 00	 ret	 4
$LN7@IsConflict:
  0005a	5f		 pop	 edi

; 2130 : 				return true;
; 2131 : 			break;
; 2132 : 	}
; 2133 : 
; 2134 : 	return false;

  0005b	32 c0		 xor	 al, al

; 2135 : }

  0005d	5e		 pop	 esi
  0005e	5d		 pop	 ebp
  0005f	c2 04 00	 ret	 4
?IsConflictAlignmentInstance@CInstanceBase@@QAE_NAAV1@@Z ENDP ; CInstanceBase::IsConflictAlignmentInstance
_TEXT	ENDS
; Function compile flags: /Ogtp
; File D:\_m2work\Server Client TMP4\ClientVS22\source\UserInterface\InstanceBase.cpp
;	COMDAT ?SetDuelMode@CInstanceBase@@QAEXK@Z
_TEXT	SEGMENT
_type$ = 8						; size = 4
?SetDuelMode@CInstanceBase@@QAEXK@Z PROC		; CInstanceBase::SetDuelMode, COMDAT
; _this$ = ecx

; 2138 : {

  00000	55		 push	 ebp
  00001	8b ec		 mov	 ebp, esp

; 2139 : 	m_dwDuelMode = type;

  00003	8b 45 08	 mov	 eax, DWORD PTR _type$[ebp]
  00006	89 81 a8 06 00
	00		 mov	 DWORD PTR [ecx+1704], eax

; 2140 : }

  0000c	5d		 pop	 ebp
  0000d	c2 04 00	 ret	 4
?SetDuelMode@CInstanceBase@@QAEXK@Z ENDP		; CInstanceBase::SetDuelMode
_TEXT	ENDS
; Function compile flags: /Ogtp
; File D:\_m2work\Server Client TMP4\ClientVS22\source\UserInterface\InstanceBase.cpp
;	COMDAT ?GetDuelMode@CInstanceBase@@QAEKXZ
_TEXT	SEGMENT
?GetDuelMode@CInstanceBase@@QAEKXZ PROC			; CInstanceBase::GetDuelMode, COMDAT
; _this$ = ecx

; 2144 : 	return m_dwDuelMode;

  00000	8b 81 a8 06 00
	00		 mov	 eax, DWORD PTR [ecx+1704]

; 2145 : }

  00006	c3		 ret	 0
?GetDuelMode@CInstanceBase@@QAEKXZ ENDP			; CInstanceBase::GetDuelMode
_TEXT	ENDS
; Function compile flags: /Ogtp
; File D:\_m2work\Server Client TMP4\ClientVS22\source\UserInterface\InstanceBase.cpp
;	COMDAT ?IsAttackableInstance@CInstanceBase@@QAE_NAAV1@@Z
_TEXT	SEGMENT
_this$1$ = -4						; size = 4
_rkInstVictim$ = 8					; size = 4
?IsAttackableInstance@CInstanceBase@@QAE_NAAV1@@Z PROC	; CInstanceBase::IsAttackableInstance, COMDAT
; _this$ = ecx

; 2148 : {	

  00000	55		 push	 ebp
  00001	8b ec		 mov	 ebp, esp
  00003	51		 push	 ecx
  00004	53		 push	 ebx
  00005	56		 push	 esi
  00006	57		 push	 edi
  00007	8b f9		 mov	 edi, ecx
  00009	89 7d fc	 mov	 DWORD PTR _this$1$[ebp], edi

; 2149 : 	if (__IsMainInstance())

  0000c	e8 00 00 00 00	 call	 ?__IsMainInstance@CInstanceBase@@IAE_NXZ ; CInstanceBase::__IsMainInstance
  00011	84 c0		 test	 al, al
  00013	74 0f		 je	 SHORT $LN5@IsAttackab

; 2150 : 	{		
; 2151 : 		CPythonPlayer& rkPlayer=CPythonPlayer::Instance();
; 2152 : 		if(rkPlayer.IsObserverMode())

  00015	8b 0d 00 00 00
	00		 mov	 ecx, DWORD PTR ?ms_singleton@?$CSingleton@VCPythonPlayer@@@@0PAVCPythonPlayer@@A ; CSingleton<CPythonPlayer>::ms_singleton
  0001b	e8 00 00 00 00	 call	 ?IsObserverMode@CPythonPlayer@@QAE_NXZ ; CPythonPlayer::IsObserverMode
  00020	84 c0		 test	 al, al
  00022	75 31		 jne	 SHORT $LN45@IsAttackab
$LN5@IsAttackab:

; 2153 : 			return false;
; 2154 : 	}
; 2155 : 
; 2156 : 	if (GetVirtualID() == rkInstVictim.GetVirtualID())

  00024	8b 5d 08	 mov	 ebx, DWORD PTR _rkInstVictim$[ebp]
  00027	8b cb		 mov	 ecx, ebx
  00029	e8 00 00 00 00	 call	 ?GetVirtualID@CInstanceBase@@QAEKXZ ; CInstanceBase::GetVirtualID
  0002e	8b cf		 mov	 ecx, edi
  00030	8b f0		 mov	 esi, eax
  00032	e8 00 00 00 00	 call	 ?GetVirtualID@CInstanceBase@@QAEKXZ ; CInstanceBase::GetVirtualID
  00037	3b c6		 cmp	 eax, esi
  00039	74 1a		 je	 SHORT $LN45@IsAttackab

; 2157 : 		return false;
; 2158 : 
; 2159 : 	if (IsStone())

  0003b	8b cf		 mov	 ecx, edi
  0003d	e8 00 00 00 00	 call	 ?IsStone@CInstanceBase@@QAEHXZ ; CInstanceBase::IsStone
  00042	85 c0		 test	 eax, eax
  00044	74 1a		 je	 SHORT $LN7@IsAttackab

; 2160 : 	{
; 2161 : 		if (rkInstVictim.IsPC())

  00046	8b cb		 mov	 ecx, ebx
  00048	e8 00 00 00 00	 call	 ?IsPC@CInstanceBase@@QAEHXZ ; CInstanceBase::IsPC
$LN95@IsAttackab:

; 2246 : 			return true;
; 2247 : 	}
; 2248 : 	return false;

  0004d	85 c0		 test	 eax, eax
$LN96@IsAttackab:
  0004f	0f 85 6f 01 00
	00		 jne	 $LN47@IsAttackab
$LN45@IsAttackab:
  00055	5f		 pop	 edi

; 2249 : }

  00056	5e		 pop	 esi
  00057	32 c0		 xor	 al, al
  00059	5b		 pop	 ebx
  0005a	8b e5		 mov	 esp, ebp
  0005c	5d		 pop	 ebp
  0005d	c2 04 00	 ret	 4
$LN7@IsAttackab:

; 2162 : 			return true;
; 2163 : 	}
; 2164 : 	else if (IsPC())

  00060	8b cf		 mov	 ecx, edi
  00062	e8 00 00 00 00	 call	 ?IsPC@CInstanceBase@@QAEHXZ ; CInstanceBase::IsPC
  00067	85 c0		 test	 eax, eax
  00069	0f 84 d4 01 00
	00		 je	 $LN10@IsAttackab

; 2165 : 	{
; 2166 : 		if (rkInstVictim.IsStone())

  0006f	8b cb		 mov	 ecx, ebx
  00071	e8 00 00 00 00	 call	 ?IsStone@CInstanceBase@@QAEHXZ ; CInstanceBase::IsStone
  00076	85 c0		 test	 eax, eax
  00078	0f 85 46 01 00
	00		 jne	 $LN47@IsAttackab

; 2167 : 			return true;
; 2168 : 
; 2169 : 		if (rkInstVictim.IsPC())

  0007e	8b cb		 mov	 ecx, ebx
  00080	e8 00 00 00 00	 call	 ?IsPC@CInstanceBase@@QAEHXZ ; CInstanceBase::IsPC
  00085	85 c0		 test	 eax, eax
  00087	0f 84 9f 01 00
	00		 je	 $LN32@IsAttackab

; 2170 : 		{
; 2171 : 			if (GetDuelMode())

  0008d	8b cf		 mov	 ecx, edi
  0008f	e8 00 00 00 00	 call	 ?GetDuelMode@CInstanceBase@@QAEKXZ ; CInstanceBase::GetDuelMode
  00094	85 c0		 test	 eax, eax
  00096	74 2c		 je	 SHORT $LN18@IsAttackab

; 2172 : 			{
; 2173 : 				switch(GetDuelMode())

  00098	e8 00 00 00 00	 call	 ?GetDuelMode@CInstanceBase@@QAEKXZ ; CInstanceBase::GetDuelMode
  0009d	83 e8 01	 sub	 eax, 1
  000a0	74 b3		 je	 SHORT $LN45@IsAttackab
  000a2	83 e8 01	 sub	 eax, 1
  000a5	75 1d		 jne	 SHORT $LN18@IsAttackab

; 2174 : 				{
; 2175 : 				case DUEL_CANNOTATTACK:
; 2176 : 					return false;
; 2177 : 				case DUEL_START:
; 2178 : 					if(__FindDUELKey(GetVirtualID(),rkInstVictim.GetVirtualID()))

  000a7	8b cb		 mov	 ecx, ebx
  000a9	e8 00 00 00 00	 call	 ?GetVirtualID@CInstanceBase@@QAEKXZ ; CInstanceBase::GetVirtualID
  000ae	8b cf		 mov	 ecx, edi
  000b0	8b f0		 mov	 esi, eax
  000b2	e8 00 00 00 00	 call	 ?GetVirtualID@CInstanceBase@@QAEKXZ ; CInstanceBase::GetVirtualID
  000b7	8b d6		 mov	 edx, esi
  000b9	8b c8		 mov	 ecx, eax
  000bb	e8 00 00 00 00	 call	 ?__FindDUELKey@CInstanceBase@@KA_NKK@Z ; CInstanceBase::__FindDUELKey
  000c0	84 c0		 test	 al, al
  000c2	eb 8b		 jmp	 SHORT $LN96@IsAttackab
$LN18@IsAttackab:

; 2179 : 						return true;
; 2180 : 					else
; 2181 : 						return false;
; 2182 : 				}
; 2183 : 			}
; 2184 : 			if (PK_MODE_GUILD == GetPKMode())

  000c4	8b cf		 mov	 ecx, edi
  000c6	e8 00 00 00 00	 call	 ?GetPKMode@CInstanceBase@@QAEEXZ ; CInstanceBase::GetPKMode
  000cb	3c 04		 cmp	 al, 4
  000cd	75 18		 jne	 SHORT $LN20@IsAttackab

; 2185 : 				if (GetGuildID() == rkInstVictim.GetGuildID())

  000cf	8b cb		 mov	 ecx, ebx
  000d1	e8 00 00 00 00	 call	 ?GetGuildID@CInstanceBase@@QAEKXZ ; CInstanceBase::GetGuildID
  000d6	8b cf		 mov	 ecx, edi
  000d8	8b d0		 mov	 edx, eax
  000da	e8 00 00 00 00	 call	 ?GetGuildID@CInstanceBase@@QAEKXZ ; CInstanceBase::GetGuildID
  000df	3b c2		 cmp	 eax, edx
  000e1	0f 84 6e ff ff
	ff		 je	 $LN45@IsAttackab
$LN20@IsAttackab:

; 2186 : 					return false;
; 2187 : 
; 2188 : 			if (rkInstVictim.IsKiller())

  000e7	8b cb		 mov	 ecx, ebx
  000e9	e8 00 00 00 00	 call	 ?IsKiller@CInstanceBase@@QAE_NXZ ; CInstanceBase::IsKiller
  000ee	84 c0		 test	 al, al
  000f0	74 2e		 je	 SHORT $LN22@IsAttackab

; 2189 : 				if (!IAbstractPlayer::GetSingleton().IsSamePartyMember(GetVirtualID(), rkInstVictim.GetVirtualID()))

  000f2	8b 1d 00 00 00
	00		 mov	 ebx, DWORD PTR ?ms_singleton@?$TAbstractSingleton@VIAbstractPlayer@@@@0PAVIAbstractPlayer@@A ; TAbstractSingleton<IAbstractPlayer>::ms_singleton
  000f8	8b 03		 mov	 eax, DWORD PTR [ebx]
  000fa	8b 78 2c	 mov	 edi, DWORD PTR [eax+44]
  000fd	e8 00 00 00 00	 call	 ?GetVirtualID@CInstanceBase@@QAEKXZ ; CInstanceBase::GetVirtualID
  00102	8b 4d fc	 mov	 ecx, DWORD PTR _this$1$[ebp]
  00105	8b f0		 mov	 esi, eax
  00107	e8 00 00 00 00	 call	 ?GetVirtualID@CInstanceBase@@QAEKXZ ; CInstanceBase::GetVirtualID
  0010c	56		 push	 esi
  0010d	50		 push	 eax
  0010e	8b cb		 mov	 ecx, ebx
  00110	ff d7		 call	 edi
  00112	84 c0		 test	 al, al
  00114	0f 84 aa 00 00
	00		 je	 $LN47@IsAttackab
  0011a	8b 5d 08	 mov	 ebx, DWORD PTR _rkInstVictim$[ebp]
  0011d	8b 7d fc	 mov	 edi, DWORD PTR _this$1$[ebp]
$LN22@IsAttackab:

; 2190 : 					return true;
; 2191 : 
; 2192 : 			if (PK_MODE_PROTECT != GetPKMode())

  00120	8b cf		 mov	 ecx, edi
  00122	e8 00 00 00 00	 call	 ?GetPKMode@CInstanceBase@@QAEEXZ ; CInstanceBase::GetPKMode
  00127	3c 03		 cmp	 al, 3
  00129	0f 84 a3 00 00
	00		 je	 $LN30@IsAttackab

; 2193 : 			{
; 2194 : 				if (PK_MODE_FREE == GetPKMode())

  0012f	e8 00 00 00 00	 call	 ?GetPKMode@CInstanceBase@@QAEEXZ ; CInstanceBase::GetPKMode
  00134	3c 02		 cmp	 al, 2
  00136	75 35		 jne	 SHORT $LN26@IsAttackab

; 2195 : 				{
; 2196 : 					if (PK_MODE_PROTECT != rkInstVictim.GetPKMode())

  00138	8b cb		 mov	 ecx, ebx
  0013a	e8 00 00 00 00	 call	 ?GetPKMode@CInstanceBase@@QAEEXZ ; CInstanceBase::GetPKMode
  0013f	3c 03		 cmp	 al, 3
  00141	74 2a		 je	 SHORT $LN26@IsAttackab

; 2197 : 						if (!IAbstractPlayer::GetSingleton().IsSamePartyMember(GetVirtualID(), rkInstVictim.GetVirtualID()))

  00143	8b 1d 00 00 00
	00		 mov	 ebx, DWORD PTR ?ms_singleton@?$TAbstractSingleton@VIAbstractPlayer@@@@0PAVIAbstractPlayer@@A ; TAbstractSingleton<IAbstractPlayer>::ms_singleton
  00149	8b 4d 08	 mov	 ecx, DWORD PTR _rkInstVictim$[ebp]
  0014c	8b 03		 mov	 eax, DWORD PTR [ebx]
  0014e	8b 78 2c	 mov	 edi, DWORD PTR [eax+44]
  00151	e8 00 00 00 00	 call	 ?GetVirtualID@CInstanceBase@@QAEKXZ ; CInstanceBase::GetVirtualID
  00156	8b 4d fc	 mov	 ecx, DWORD PTR _this$1$[ebp]
  00159	8b f0		 mov	 esi, eax
  0015b	e8 00 00 00 00	 call	 ?GetVirtualID@CInstanceBase@@QAEKXZ ; CInstanceBase::GetVirtualID
  00160	56		 push	 esi
  00161	50		 push	 eax
  00162	8b cb		 mov	 ecx, ebx
  00164	ff d7		 call	 edi
  00166	84 c0		 test	 al, al
  00168	74 5a		 je	 SHORT $LN47@IsAttackab
  0016a	8b 7d fc	 mov	 edi, DWORD PTR _this$1$[ebp]
$LN26@IsAttackab:

; 2198 : 							return true;
; 2199 : 				}
; 2200 : 				if (PK_MODE_GUILD == GetPKMode())

  0016d	8b cf		 mov	 ecx, edi
  0016f	e8 00 00 00 00	 call	 ?GetPKMode@CInstanceBase@@QAEEXZ ; CInstanceBase::GetPKMode
  00174	8b 5d 08	 mov	 ebx, DWORD PTR _rkInstVictim$[ebp]
  00177	3c 04		 cmp	 al, 4
  00179	75 57		 jne	 SHORT $LN30@IsAttackab

; 2201 : 				{
; 2202 : 					if (PK_MODE_PROTECT != rkInstVictim.GetPKMode())

  0017b	8b cb		 mov	 ecx, ebx
  0017d	e8 00 00 00 00	 call	 ?GetPKMode@CInstanceBase@@QAEEXZ ; CInstanceBase::GetPKMode
  00182	3c 03		 cmp	 al, 3
  00184	74 4c		 je	 SHORT $LN30@IsAttackab

; 2203 : 						if (!IAbstractPlayer::GetSingleton().IsSamePartyMember(GetVirtualID(), rkInstVictim.GetVirtualID()))

  00186	8b 1d 00 00 00
	00		 mov	 ebx, DWORD PTR ?ms_singleton@?$TAbstractSingleton@VIAbstractPlayer@@@@0PAVIAbstractPlayer@@A ; TAbstractSingleton<IAbstractPlayer>::ms_singleton
  0018c	8b 03		 mov	 eax, DWORD PTR [ebx]
  0018e	8b 78 2c	 mov	 edi, DWORD PTR [eax+44]
  00191	e8 00 00 00 00	 call	 ?GetVirtualID@CInstanceBase@@QAEKXZ ; CInstanceBase::GetVirtualID
  00196	8b 4d fc	 mov	 ecx, DWORD PTR _this$1$[ebp]
  00199	8b f0		 mov	 esi, eax
  0019b	e8 00 00 00 00	 call	 ?GetVirtualID@CInstanceBase@@QAEKXZ ; CInstanceBase::GetVirtualID
  001a0	56		 push	 esi
  001a1	50		 push	 eax
  001a2	8b cb		 mov	 ecx, ebx
  001a4	ff d7		 call	 edi
  001a6	8b 5d 08	 mov	 ebx, DWORD PTR _rkInstVictim$[ebp]
  001a9	84 c0		 test	 al, al
  001ab	75 22		 jne	 SHORT $LN66@IsAttackab

; 2204 : 							if (GetGuildID() != rkInstVictim.GetGuildID())

  001ad	8b cb		 mov	 ecx, ebx
  001af	e8 00 00 00 00	 call	 ?GetGuildID@CInstanceBase@@QAEKXZ ; CInstanceBase::GetGuildID
  001b4	8b 7d fc	 mov	 edi, DWORD PTR _this$1$[ebp]
  001b7	8b d0		 mov	 edx, eax
  001b9	8b cf		 mov	 ecx, edi
  001bb	e8 00 00 00 00	 call	 ?GetGuildID@CInstanceBase@@QAEKXZ ; CInstanceBase::GetGuildID
  001c0	3b c2		 cmp	 eax, edx
  001c2	74 0e		 je	 SHORT $LN30@IsAttackab
$LN47@IsAttackab:
  001c4	5f		 pop	 edi

; 2249 : }

  001c5	5e		 pop	 esi
  001c6	b0 01		 mov	 al, 1
  001c8	5b		 pop	 ebx
  001c9	8b e5		 mov	 esp, ebp
  001cb	5d		 pop	 ebp
  001cc	c2 04 00	 ret	 4
$LN66@IsAttackab:

; 2203 : 						if (!IAbstractPlayer::GetSingleton().IsSamePartyMember(GetVirtualID(), rkInstVictim.GetVirtualID()))

  001cf	8b 7d fc	 mov	 edi, DWORD PTR _this$1$[ebp]
$LN30@IsAttackab:

; 2205 : 								return true;
; 2206 : 				}
; 2207 : 			}
; 2208 : 
; 2209 : 			if (IsSameEmpire(rkInstVictim))

  001d2	53		 push	 ebx
  001d3	8b cf		 mov	 ecx, edi
  001d5	e8 00 00 00 00	 call	 ?IsSameEmpire@CInstanceBase@@QAEHAAV1@@Z ; CInstanceBase::IsSameEmpire
  001da	85 c0		 test	 eax, eax
  001dc	74 e6		 je	 SHORT $LN47@IsAttackab

; 2210 : 			{
; 2211 : 				if (IsPVPInstance(rkInstVictim))

  001de	53		 push	 ebx
  001df	8b cf		 mov	 ecx, edi
  001e1	e8 00 00 00 00	 call	 ?IsPVPInstance@CInstanceBase@@QAE_NAAV1@@Z ; CInstanceBase::IsPVPInstance
  001e6	84 c0		 test	 al, al
  001e8	75 da		 jne	 SHORT $LN47@IsAttackab

; 2212 : 					return true;
; 2213 : 
; 2214 : 				if (PK_MODE_REVENGE == GetPKMode())

  001ea	8b cf		 mov	 ecx, edi
  001ec	e8 00 00 00 00	 call	 ?GetPKMode@CInstanceBase@@QAEEXZ ; CInstanceBase::GetPKMode
  001f1	3c 01		 cmp	 al, 1
  001f3	75 37		 jne	 SHORT $LN32@IsAttackab

; 2215 : 					if (!IAbstractPlayer::GetSingleton().IsSamePartyMember(GetVirtualID(), rkInstVictim.GetVirtualID()))

  001f5	8b 1d 00 00 00
	00		 mov	 ebx, DWORD PTR ?ms_singleton@?$TAbstractSingleton@VIAbstractPlayer@@@@0PAVIAbstractPlayer@@A ; TAbstractSingleton<IAbstractPlayer>::ms_singleton
  001fb	8b 4d 08	 mov	 ecx, DWORD PTR _rkInstVictim$[ebp]
  001fe	8b 03		 mov	 eax, DWORD PTR [ebx]
  00200	8b 78 2c	 mov	 edi, DWORD PTR [eax+44]
  00203	e8 00 00 00 00	 call	 ?GetVirtualID@CInstanceBase@@QAEKXZ ; CInstanceBase::GetVirtualID
  00208	8b 4d fc	 mov	 ecx, DWORD PTR _this$1$[ebp]
  0020b	8b f0		 mov	 esi, eax
  0020d	e8 00 00 00 00	 call	 ?GetVirtualID@CInstanceBase@@QAEKXZ ; CInstanceBase::GetVirtualID
  00212	56		 push	 esi
  00213	50		 push	 eax
  00214	8b cb		 mov	 ecx, ebx
  00216	ff d7		 call	 edi
  00218	8b 5d 08	 mov	 ebx, DWORD PTR _rkInstVictim$[ebp]
  0021b	84 c0		 test	 al, al
  0021d	75 0d		 jne	 SHORT $LN32@IsAttackab

; 2216 : 						if (IsConflictAlignmentInstance(rkInstVictim))

  0021f	8b 4d fc	 mov	 ecx, DWORD PTR _this$1$[ebp]
  00222	53		 push	 ebx
  00223	e8 00 00 00 00	 call	 ?IsConflictAlignmentInstance@CInstanceBase@@QAE_NAAV1@@Z ; CInstanceBase::IsConflictAlignmentInstance
  00228	84 c0		 test	 al, al
  0022a	75 98		 jne	 SHORT $LN47@IsAttackab
$LN32@IsAttackab:

; 2217 : 							return true;
; 2218 : 			}
; 2219 : 			else
; 2220 : 			{
; 2221 : 				return true;
; 2222 : 			}
; 2223 : 		}
; 2224 : 
; 2225 : 		if (rkInstVictim.IsEnemy())

  0022c	8b cb		 mov	 ecx, ebx
  0022e	e8 00 00 00 00	 call	 ?IsEnemy@CInstanceBase@@QAEHXZ ; CInstanceBase::IsEnemy
  00233	85 c0		 test	 eax, eax
  00235	75 8d		 jne	 SHORT $LN47@IsAttackab

; 2226 : 			return true;
; 2227 : 
; 2228 : 		if (rkInstVictim.IsWoodenDoor())

  00237	8b cb		 mov	 ecx, ebx
  00239	e8 00 00 00 00	 call	 ?IsWoodenDoor@CInstanceBase@@QAEHXZ ; CInstanceBase::IsWoodenDoor
  0023e	e9 0a fe ff ff	 jmp	 $LN95@IsAttackab
$LN10@IsAttackab:

; 2229 : 			return true;
; 2230 : 	}
; 2231 : 	else if (IsEnemy())

  00243	8b cf		 mov	 ecx, edi
  00245	e8 00 00 00 00	 call	 ?IsEnemy@CInstanceBase@@QAEHXZ ; CInstanceBase::IsEnemy
  0024a	85 c0		 test	 eax, eax
  0024c	74 1b		 je	 SHORT $LN39@IsAttackab

; 2232 : 	{
; 2233 : 		if (rkInstVictim.IsPC())

  0024e	8b cb		 mov	 ecx, ebx
  00250	e8 00 00 00 00	 call	 ?IsPC@CInstanceBase@@QAEHXZ ; CInstanceBase::IsPC
  00255	85 c0		 test	 eax, eax
  00257	0f 85 67 ff ff
	ff		 jne	 $LN47@IsAttackab

; 2234 : 			return true;
; 2235 : 
; 2236 : 		if (rkInstVictim.IsBuilding())

  0025d	8b cb		 mov	 ecx, ebx
  0025f	e8 00 00 00 00	 call	 ?IsBuilding@CInstanceBase@@QAEHXZ ; CInstanceBase::IsBuilding
  00264	e9 e4 fd ff ff	 jmp	 $LN95@IsAttackab
$LN39@IsAttackab:

; 2237 : 			return true;
; 2238 : 		
; 2239 : 	}
; 2240 : 	else if (IsPoly())

  00269	8b cf		 mov	 ecx, edi
  0026b	e8 00 00 00 00	 call	 ?IsPoly@CInstanceBase@@QAEHXZ ; CInstanceBase::IsPoly
  00270	85 c0		 test	 eax, eax
  00272	0f 84 dd fd ff
	ff		 je	 $LN45@IsAttackab

; 2241 : 	{
; 2242 : 		if (rkInstVictim.IsPC())

  00278	8b cb		 mov	 ecx, ebx
  0027a	e8 00 00 00 00	 call	 ?IsPC@CInstanceBase@@QAEHXZ ; CInstanceBase::IsPC
  0027f	85 c0		 test	 eax, eax
  00281	0f 85 3d ff ff
	ff		 jne	 $LN47@IsAttackab

; 2243 : 			return true;
; 2244 : 
; 2245 : 		if (rkInstVictim.IsEnemy())

  00287	8b cb		 mov	 ecx, ebx
  00289	e8 00 00 00 00	 call	 ?IsEnemy@CInstanceBase@@QAEHXZ ; CInstanceBase::IsEnemy
  0028e	5f		 pop	 edi
  0028f	85 c0		 test	 eax, eax

; 2249 : }

  00291	5e		 pop	 esi
  00292	0f 95 c0	 setne	 al
  00295	5b		 pop	 ebx
  00296	8b e5		 mov	 esp, ebp
  00298	5d		 pop	 ebp
  00299	c2 04 00	 ret	 4
?IsAttackableInstance@CInstanceBase@@QAE_NAAV1@@Z ENDP	; CInstanceBase::IsAttackableInstance
_TEXT	ENDS
; Function compile flags: /Ogtp
; File D:\_m2work\Server Client TMP4\ClientVS22\source\UserInterface\InstanceBase.cpp
;	COMDAT ?IsTargetableInstance@CInstanceBase@@QAE_NAAV1@@Z
_TEXT	SEGMENT
_rkInstVictim$ = 8					; size = 4
?IsTargetableInstance@CInstanceBase@@QAE_NAAV1@@Z PROC	; CInstanceBase::IsTargetableInstance, COMDAT
; _this$dead$ = ecx

; 2252 : {

  00000	55		 push	 ebp
  00001	8b ec		 mov	 ebp, esp

; 2253 : 	return rkInstVictim.CanPickInstance();

  00003	8b 4d 08	 mov	 ecx, DWORD PTR _rkInstVictim$[ebp]
  00006	e8 00 00 00 00	 call	 ?CanPickInstance@CInstanceBase@@QAE_NXZ ; CInstanceBase::CanPickInstance

; 2254 : }

  0000b	5d		 pop	 ebp
  0000c	c2 04 00	 ret	 4
?IsTargetableInstance@CInstanceBase@@QAE_NAAV1@@Z ENDP	; CInstanceBase::IsTargetableInstance
_TEXT	ENDS
; Function compile flags: /Ogtp
; File D:\_m2work\Server Client TMP4\ClientVS22\source\UserInterface\InstanceBase.cpp
;	COMDAT ?CanChangeTarget@CInstanceBase@@QAE_NXZ
_TEXT	SEGMENT
?CanChangeTarget@CInstanceBase@@QAE_NXZ PROC		; CInstanceBase::CanChangeTarget, COMDAT
; _this$ = ecx

; 2259 : 	return m_GraphicThingInstance.CanChangeTarget();

  00000	81 c1 d4 01 00
	00		 add	 ecx, 468		; 000001d4H
  00006	e9 00 00 00 00	 jmp	 ?CanChangeTarget@CActorInstance@@QAE_NXZ ; CActorInstance::CanChangeTarget
?CanChangeTarget@CInstanceBase@@QAE_NXZ ENDP		; CInstanceBase::CanChangeTarget
_TEXT	ENDS
; Function compile flags: /Ogtp
; File D:\_m2work\Server Client TMP4\ClientVS22\source\UserInterface\InstanceBase.cpp
;	COMDAT ?CanPickInstance@CInstanceBase@@QAE_NXZ
_TEXT	SEGMENT
?CanPickInstance@CInstanceBase@@QAE_NXZ PROC		; CInstanceBase::CanPickInstance, COMDAT
; _this$ = ecx

; 2264 : {

  00000	56		 push	 esi
  00001	8b f1		 mov	 esi, ecx

; 2265 : 	if (!__IsInViewFrustum())

  00003	e8 00 00 00 00	 call	 ?__IsInViewFrustum@CInstanceBase@@IAE_NXZ ; CInstanceBase::__IsInViewFrustum
  00008	84 c0		 test	 al, al
  0000a	74 5f		 je	 SHORT $LN12@CanPickIns

; 2266 : 		return false;
; 2267 : 
; 2268 : 	if (IsDoor())

  0000c	8b ce		 mov	 ecx, esi
  0000e	e8 00 00 00 00	 call	 ?IsDoor@CInstanceBase@@QAEHXZ ; CInstanceBase::IsDoor
  00013	85 c0		 test	 eax, eax
  00015	74 0b		 je	 SHORT $LN4@CanPickIns

; 2269 : 	{
; 2270 : 		if (IsDead())

  00017	8b ce		 mov	 ecx, esi
  00019	e8 00 00 00 00	 call	 ?IsDead@CInstanceBase@@QAEHXZ ; CInstanceBase::IsDead
  0001e	85 c0		 test	 eax, eax
  00020	75 49		 jne	 SHORT $LN12@CanPickIns
$LN4@CanPickIns:

; 2271 : 			return false;
; 2272 : 	}
; 2273 : 
; 2274 : 	if (IsPC())

  00022	8b ce		 mov	 ecx, esi
  00024	e8 00 00 00 00	 call	 ?IsPC@CInstanceBase@@QAEHXZ ; CInstanceBase::IsPC
  00029	85 c0		 test	 eax, eax
  0002b	74 30		 je	 SHORT $LN9@CanPickIns

; 2275 : 	{
; 2276 : 		if (IsAffect(AFFECT_EUNHYEONG))

  0002d	6a 12		 push	 18			; 00000012H
  0002f	8b ce		 mov	 ecx, esi
  00031	e8 00 00 00 00	 call	 ?IsAffect@CInstanceBase@@QAE_NI@Z ; CInstanceBase::IsAffect
  00036	84 c0		 test	 al, al
  00038	74 09		 je	 SHORT $LN7@CanPickIns

; 2277 : 		{
; 2278 : 			if (!__MainCanSeeHiddenThing())

  0003a	e8 00 00 00 00	 call	 ?__MainCanSeeHiddenThing@CInstanceBase@@IAE_NXZ ; CInstanceBase::__MainCanSeeHiddenThing
  0003f	84 c0		 test	 al, al
  00041	74 28		 je	 SHORT $LN12@CanPickIns
$LN7@CanPickIns:

; 2279 : 				return false;
; 2280 : 		}
; 2281 : 		if (IsAffect(AFFECT_REVIVE_INVISIBILITY))

  00043	6a 1b		 push	 27			; 0000001bH
  00045	8b ce		 mov	 ecx, esi
  00047	e8 00 00 00 00	 call	 ?IsAffect@CInstanceBase@@QAE_NI@Z ; CInstanceBase::IsAffect
  0004c	84 c0		 test	 al, al
  0004e	75 1b		 jne	 SHORT $LN12@CanPickIns

; 2282 : 			return false;
; 2283 : 		if (IsAffect(AFFECT_INVISIBILITY))

  00050	6a 01		 push	 1
  00052	8b ce		 mov	 ecx, esi
  00054	e8 00 00 00 00	 call	 ?IsAffect@CInstanceBase@@QAE_NI@Z ; CInstanceBase::IsAffect
  00059	84 c0		 test	 al, al
  0005b	75 0e		 jne	 SHORT $LN12@CanPickIns
$LN9@CanPickIns:

; 2284 : 			return false;
; 2285 : 	}
; 2286 : 
; 2287 : 	if (IsDead())

  0005d	8b ce		 mov	 ecx, esi
  0005f	e8 00 00 00 00	 call	 ?IsDead@CInstanceBase@@QAEHXZ ; CInstanceBase::IsDead
  00064	85 c0		 test	 eax, eax
  00066	5e		 pop	 esi
  00067	0f 94 c0	 sete	 al

; 2289 : 
; 2290 : 	return true;
; 2291 : }

  0006a	c3		 ret	 0
$LN12@CanPickIns:

; 2288 : 		return false;

  0006b	32 c0		 xor	 al, al
  0006d	5e		 pop	 esi

; 2289 : 
; 2290 : 	return true;
; 2291 : }

  0006e	c3		 ret	 0
?CanPickInstance@CInstanceBase@@QAE_NXZ ENDP		; CInstanceBase::CanPickInstance
_TEXT	ENDS
; Function compile flags: /Ogtp
; File D:\_m2work\Server Client TMP4\ClientVS22\source\UserInterface\InstanceBase.cpp
;	COMDAT ?CanViewTargetHP@CInstanceBase@@QAE_NAAV1@@Z
_TEXT	SEGMENT
_rkInstVictim$ = 8					; size = 4
?CanViewTargetHP@CInstanceBase@@QAE_NAAV1@@Z PROC	; CInstanceBase::CanViewTargetHP, COMDAT
; _this$dead$ = ecx

; 2294 : {

  00000	55		 push	 ebp
  00001	8b ec		 mov	 ebp, esp
  00003	56		 push	 esi

; 2295 : 	if (rkInstVictim.IsStone())

  00004	8b 75 08	 mov	 esi, DWORD PTR _rkInstVictim$[ebp]
  00007	8b ce		 mov	 ecx, esi
  00009	e8 00 00 00 00	 call	 ?IsStone@CInstanceBase@@QAEHXZ ; CInstanceBase::IsStone
  0000e	85 c0		 test	 eax, eax
  00010	75 1c		 jne	 SHORT $LN6@CanViewTar

; 2296 : 		return true;
; 2297 : 	if (rkInstVictim.IsWoodenDoor())

  00012	8b ce		 mov	 ecx, esi
  00014	e8 00 00 00 00	 call	 ?IsWoodenDoor@CInstanceBase@@QAEHXZ ; CInstanceBase::IsWoodenDoor
  00019	85 c0		 test	 eax, eax
  0001b	75 11		 jne	 SHORT $LN6@CanViewTar

; 2298 : 		return true;
; 2299 : 	if (rkInstVictim.IsEnemy())

  0001d	8b ce		 mov	 ecx, esi
  0001f	e8 00 00 00 00	 call	 ?IsEnemy@CInstanceBase@@QAEHXZ ; CInstanceBase::IsEnemy
  00024	85 c0		 test	 eax, eax
  00026	5e		 pop	 esi
  00027	0f 95 c0	 setne	 al

; 2301 : 
; 2302 : 	return false;
; 2303 : }

  0002a	5d		 pop	 ebp
  0002b	c2 04 00	 ret	 4
$LN6@CanViewTar:

; 2300 : 		return true;

  0002e	b0 01		 mov	 al, 1
  00030	5e		 pop	 esi

; 2301 : 
; 2302 : 	return false;
; 2303 : }

  00031	5d		 pop	 ebp
  00032	c2 04 00	 ret	 4
?CanViewTargetHP@CInstanceBase@@QAE_NAAV1@@Z ENDP	; CInstanceBase::CanViewTargetHP
_TEXT	ENDS
; Function compile flags: /Ogtp
; File D:\_m2work\Server Client TMP4\ClientVS22\source\UserInterface\InstanceBase.cpp
;	COMDAT ?IsPoly@CInstanceBase@@QAEHXZ
_TEXT	SEGMENT
?IsPoly@CInstanceBase@@QAEHXZ PROC			; CInstanceBase::IsPoly, COMDAT
; _this$ = ecx

; 2307 : 	return m_GraphicThingInstance.IsPoly();

  00000	81 c1 d4 01 00
	00		 add	 ecx, 468		; 000001d4H
  00006	e8 00 00 00 00	 call	 ?IsPoly@CActorInstance@@QAE_NXZ ; CActorInstance::IsPoly
  0000b	0f b6 c0	 movzx	 eax, al

; 2308 : }

  0000e	c3		 ret	 0
?IsPoly@CInstanceBase@@QAEHXZ ENDP			; CInstanceBase::IsPoly
_TEXT	ENDS
; Function compile flags: /Ogtp
; File D:\_m2work\Server Client TMP4\ClientVS22\source\UserInterface\InstanceBase.cpp
;	COMDAT ?IsPC@CInstanceBase@@QAEHXZ
_TEXT	SEGMENT
?IsPC@CInstanceBase@@QAEHXZ PROC			; CInstanceBase::IsPC, COMDAT
; _this$ = ecx

; 2312 : 	return m_GraphicThingInstance.IsPC();

  00000	81 c1 d4 01 00
	00		 add	 ecx, 468		; 000001d4H
  00006	e8 00 00 00 00	 call	 ?IsPC@CActorInstance@@QAE_NXZ ; CActorInstance::IsPC
  0000b	0f b6 c0	 movzx	 eax, al

; 2313 : }

  0000e	c3		 ret	 0
?IsPC@CInstanceBase@@QAEHXZ ENDP			; CInstanceBase::IsPC
_TEXT	ENDS
; Function compile flags: /Ogtp
; File D:\_m2work\Server Client TMP4\ClientVS22\source\UserInterface\InstanceBase.cpp
;	COMDAT ?IsNPC@CInstanceBase@@QAEHXZ
_TEXT	SEGMENT
?IsNPC@CInstanceBase@@QAEHXZ PROC			; CInstanceBase::IsNPC, COMDAT
; _this$ = ecx

; 2317 : 	return m_GraphicThingInstance.IsNPC();

  00000	81 c1 d4 01 00
	00		 add	 ecx, 468		; 000001d4H
  00006	e8 00 00 00 00	 call	 ?IsNPC@CActorInstance@@QAE_NXZ ; CActorInstance::IsNPC
  0000b	0f b6 c0	 movzx	 eax, al

; 2318 : }

  0000e	c3		 ret	 0
?IsNPC@CInstanceBase@@QAEHXZ ENDP			; CInstanceBase::IsNPC
_TEXT	ENDS
; Function compile flags: /Ogtp
; File D:\_m2work\Server Client TMP4\ClientVS22\source\UserInterface\InstanceBase.cpp
;	COMDAT ?IsEnemy@CInstanceBase@@QAEHXZ
_TEXT	SEGMENT
?IsEnemy@CInstanceBase@@QAEHXZ PROC			; CInstanceBase::IsEnemy, COMDAT
; _this$ = ecx

; 2322 : 	return m_GraphicThingInstance.IsEnemy();

  00000	81 c1 d4 01 00
	00		 add	 ecx, 468		; 000001d4H
  00006	e8 00 00 00 00	 call	 ?IsEnemy@CActorInstance@@QAE_NXZ ; CActorInstance::IsEnemy
  0000b	0f b6 c0	 movzx	 eax, al

; 2323 : }

  0000e	c3		 ret	 0
?IsEnemy@CInstanceBase@@QAEHXZ ENDP			; CInstanceBase::IsEnemy
_TEXT	ENDS
; Function compile flags: /Ogtp
; File D:\_m2work\Server Client TMP4\ClientVS22\source\UserInterface\InstanceBase.cpp
;	COMDAT ?IsStone@CInstanceBase@@QAEHXZ
_TEXT	SEGMENT
?IsStone@CInstanceBase@@QAEHXZ PROC			; CInstanceBase::IsStone, COMDAT
; _this$ = ecx

; 2327 : 	return m_GraphicThingInstance.IsStone();

  00000	81 c1 d4 01 00
	00		 add	 ecx, 468		; 000001d4H
  00006	e8 00 00 00 00	 call	 ?IsStone@CActorInstance@@QAE_NXZ ; CActorInstance::IsStone
  0000b	0f b6 c0	 movzx	 eax, al

; 2328 : }

  0000e	c3		 ret	 0
?IsStone@CInstanceBase@@QAEHXZ ENDP			; CInstanceBase::IsStone
_TEXT	ENDS
; Function compile flags: /Ogtp
; File D:\_m2work\Server Client TMP4\ClientVS22\source\UserInterface\InstanceBase.cpp
;	COMDAT ?IsGuildWall@CInstanceBase@@QAEHXZ
_TEXT	SEGMENT
?IsGuildWall@CInstanceBase@@QAEHXZ PROC			; CInstanceBase::IsGuildWall, COMDAT
; _this$ = ecx

; 2333 : 	return IsWall(m_dwRace);		

  00000	8b 89 64 01 00
	00		 mov	 ecx, DWORD PTR [ecx+356]
  00006	e8 00 00 00 00	 call	 ?IsWall@@YA_NI@Z	; IsWall
  0000b	0f b6 c0	 movzx	 eax, al

; 2334 : }

  0000e	c3		 ret	 0
?IsGuildWall@CInstanceBase@@QAEHXZ ENDP			; CInstanceBase::IsGuildWall
_TEXT	ENDS
; Function compile flags: /Ogtp
; File D:\_m2work\Server Client TMP4\ClientVS22\source\UserInterface\InstanceBase.cpp
;	COMDAT ?IsResource@CInstanceBase@@QAEHXZ
_TEXT	SEGMENT
?IsResource@CInstanceBase@@QAEHXZ PROC			; CInstanceBase::IsResource, COMDAT
; _this$ = ecx

; 2339 : 	switch (m_dwVirtualNumber)

  00000	8b 81 68 01 00
	00		 mov	 eax, DWORD PTR [ecx+360]
  00006	3d 5d 76 00 00	 cmp	 eax, 30301		; 0000765dH
  0000b	77 1a		 ja	 SHORT $LN23@IsResource
  0000d	74 29		 je	 SHORT $LN4@IsResource
  0000f	2d 4f 4e 00 00	 sub	 eax, 20047		; 00004e4fH
  00014	83 f8 0c	 cmp	 eax, 12			; 0000000cH
  00017	77 25		 ja	 SHORT $LN2@IsResource
  00019	0f b6 80 00 00
	00 00		 movzx	 eax, BYTE PTR $LN24@IsResource[eax]
  00020	ff 24 85 00 00
	00 00		 jmp	 DWORD PTR $LN25@IsResource[eax*4]
$LN23@IsResource:
  00027	2d 5e 76 00 00	 sub	 eax, 30302		; 0000765eH
  0002c	83 f8 03	 cmp	 eax, 3
  0002f	77 0d		 ja	 SHORT $LN2@IsResource
  00031	ff 24 85 00 00
	00 00		 jmp	 DWORD PTR $LN26@IsResource[eax*4]
$LN4@IsResource:

; 2340 : 	{
; 2341 : 		case 20047:
; 2342 : 		case 20048:
; 2343 : 		case 20049:
; 2344 : 		case 20050:
; 2345 : 		case 20051:
; 2346 : 		case 20052:
; 2347 : 		case 20053:
; 2348 : 		case 20054:
; 2349 : 		case 20055:
; 2350 : 		case 20056:
; 2351 : 		case 20057:
; 2352 : 		case 20058:
; 2353 : 		case 20059:
; 2354 : 		case 30301:
; 2355 : 		case 30302:
; 2356 : 		case 30303:
; 2357 : 		case 30304:
; 2358 : 		case 30305:
; 2359 : 			return TRUE;

  00038	b8 01 00 00 00	 mov	 eax, 1

; 2363 : }

  0003d	c3		 ret	 0
$LN2@IsResource:

; 2360 : 	}
; 2361 : 
; 2362 : 	return FALSE;

  0003e	33 c0		 xor	 eax, eax

; 2363 : }

  00040	c3		 ret	 0
  00041	0f 1f 00	 npad	 3
$LN25@IsResource:
  00044	00 00 00 00	 DD	 $LN4@IsResource
$LN24@IsResource:
  00048	00		 DB	 0
  00049	00		 DB	 0
  0004a	00		 DB	 0
  0004b	00		 DB	 0
  0004c	00		 DB	 0
  0004d	00		 DB	 0
  0004e	00		 DB	 0
  0004f	00		 DB	 0
  00050	00		 DB	 0
  00051	00		 DB	 0
  00052	00		 DB	 0
  00053	00		 DB	 0
  00054	00		 DB	 0
  00055	0f 1f 00	 npad	 3
$LN26@IsResource:
  00058	00 00 00 00	 DD	 $LN4@IsResource
  0005c	00 00 00 00	 DD	 $LN4@IsResource
  00060	00 00 00 00	 DD	 $LN4@IsResource
  00064	00 00 00 00	 DD	 $LN4@IsResource
?IsResource@CInstanceBase@@QAEHXZ ENDP			; CInstanceBase::IsResource
_TEXT	ENDS
; Function compile flags: /Ogtp
; File D:\_m2work\Server Client TMP4\ClientVS22\source\UserInterface\InstanceBase.cpp
;	COMDAT ?IsWarp@CInstanceBase@@QAEHXZ
_TEXT	SEGMENT
?IsWarp@CInstanceBase@@QAEHXZ PROC			; CInstanceBase::IsWarp, COMDAT
; _this$ = ecx

; 2367 : 	return m_GraphicThingInstance.IsWarp();

  00000	81 c1 d4 01 00
	00		 add	 ecx, 468		; 000001d4H
  00006	e8 00 00 00 00	 call	 ?IsWarp@CActorInstance@@QAE_NXZ ; CActorInstance::IsWarp
  0000b	0f b6 c0	 movzx	 eax, al

; 2368 : }

  0000e	c3		 ret	 0
?IsWarp@CInstanceBase@@QAEHXZ ENDP			; CInstanceBase::IsWarp
_TEXT	ENDS
; Function compile flags: /Ogtp
; File D:\_m2work\Server Client TMP4\ClientVS22\source\UserInterface\InstanceBase.cpp
;	COMDAT ?IsGoto@CInstanceBase@@QAEHXZ
_TEXT	SEGMENT
?IsGoto@CInstanceBase@@QAEHXZ PROC			; CInstanceBase::IsGoto, COMDAT
; _this$ = ecx

; 2372 : 	return m_GraphicThingInstance.IsGoto();

  00000	81 c1 d4 01 00
	00		 add	 ecx, 468		; 000001d4H
  00006	e8 00 00 00 00	 call	 ?IsGoto@CActorInstance@@QAE_NXZ ; CActorInstance::IsGoto
  0000b	0f b6 c0	 movzx	 eax, al

; 2373 : }

  0000e	c3		 ret	 0
?IsGoto@CInstanceBase@@QAEHXZ ENDP			; CInstanceBase::IsGoto
_TEXT	ENDS
; Function compile flags: /Ogtp
; File D:\_m2work\Server Client TMP4\ClientVS22\source\UserInterface\InstanceBase.cpp
;	COMDAT ?IsObject@CInstanceBase@@QAEHXZ
_TEXT	SEGMENT
?IsObject@CInstanceBase@@QAEHXZ PROC			; CInstanceBase::IsObject, COMDAT
; _this$ = ecx

; 2377 : 	return m_GraphicThingInstance.IsObject();

  00000	81 c1 d4 01 00
	00		 add	 ecx, 468		; 000001d4H
  00006	e8 00 00 00 00	 call	 ?IsObject@CActorInstance@@QAE_NXZ ; CActorInstance::IsObject
  0000b	0f b6 c0	 movzx	 eax, al

; 2378 : }

  0000e	c3		 ret	 0
?IsObject@CInstanceBase@@QAEHXZ ENDP			; CInstanceBase::IsObject
_TEXT	ENDS
; Function compile flags: /Ogtp
; File D:\_m2work\Server Client TMP4\ClientVS22\source\UserInterface\InstanceBase.cpp
;	COMDAT ?IsBuilding@CInstanceBase@@QAEHXZ
_TEXT	SEGMENT
?IsBuilding@CInstanceBase@@QAEHXZ PROC			; CInstanceBase::IsBuilding, COMDAT
; _this$ = ecx

; 2382 : 	return m_GraphicThingInstance.IsBuilding();

  00000	81 c1 d4 01 00
	00		 add	 ecx, 468		; 000001d4H
  00006	e8 00 00 00 00	 call	 ?IsBuilding@CActorInstance@@QAE_NXZ ; CActorInstance::IsBuilding
  0000b	0f b6 c0	 movzx	 eax, al

; 2383 : }

  0000e	c3		 ret	 0
?IsBuilding@CInstanceBase@@QAEHXZ ENDP			; CInstanceBase::IsBuilding
_TEXT	ENDS
; Function compile flags: /Ogtp
; File D:\_m2work\Server Client TMP4\ClientVS22\source\UserInterface\InstanceBase.cpp
;	COMDAT ?IsDoor@CInstanceBase@@QAEHXZ
_TEXT	SEGMENT
?IsDoor@CInstanceBase@@QAEHXZ PROC			; CInstanceBase::IsDoor, COMDAT
; _this$ = ecx

; 2387 : 	return m_GraphicThingInstance.IsDoor();

  00000	81 c1 d4 01 00
	00		 add	 ecx, 468		; 000001d4H
  00006	e8 00 00 00 00	 call	 ?IsDoor@CActorInstance@@QAE_NXZ ; CActorInstance::IsDoor
  0000b	0f b6 c0	 movzx	 eax, al

; 2388 : }

  0000e	c3		 ret	 0
?IsDoor@CInstanceBase@@QAEHXZ ENDP			; CInstanceBase::IsDoor
_TEXT	ENDS
; Function compile flags: /Ogtp
; File D:\_m2work\Server Client TMP4\ClientVS22\source\UserInterface\InstanceBase.cpp
;	COMDAT ?IsWoodenDoor@CInstanceBase@@QAEHXZ
_TEXT	SEGMENT
?IsWoodenDoor@CInstanceBase@@QAEHXZ PROC		; CInstanceBase::IsWoodenDoor, COMDAT
; _this$ = ecx

; 2391 : {

  00000	56		 push	 esi
  00001	8b f1		 mov	 esi, ecx

; 2392 : 	if (m_GraphicThingInstance.IsDoor())

  00003	8d 8e d4 01 00
	00		 lea	 ecx, DWORD PTR [esi+468]
  00009	e8 00 00 00 00	 call	 ?IsDoor@CActorInstance@@QAE_NXZ ; CActorInstance::IsDoor
  0000e	84 c0		 test	 al, al
  00010	74 1f		 je	 SHORT $LN2@IsWoodenDo

; 2393 : 	{
; 2394 : 		int vnum = GetVirtualNumber();

  00012	8b ce		 mov	 ecx, esi
  00014	e8 00 00 00 00	 call	 ?GetVirtualNumber@CInstanceBase@@QAEKXZ ; CInstanceBase::GetVirtualNumber

; 2395 : 		if (vnum == 13000) // 

  00019	3d c8 32 00 00	 cmp	 eax, 13000		; 000032c8H
  0001e	74 0a		 je	 SHORT $LN9@IsWoodenDo

; 2396 : 			return true;
; 2397 : 		else if (vnum >= 30111 && vnum <= 30119) // 

  00020	05 61 8a ff ff	 add	 eax, -30111		; ffff8a61H
  00025	83 f8 08	 cmp	 eax, 8
  00028	77 07		 ja	 SHORT $LN2@IsWoodenDo
$LN9@IsWoodenDo:

; 2398 : 			return true;

  0002a	b8 01 00 00 00	 mov	 eax, 1
  0002f	5e		 pop	 esi

; 2405 : 	}
; 2406 : }

  00030	c3		 ret	 0
$LN2@IsWoodenDo:

; 2399 : 		else
; 2400 : 			return false;
; 2401 : 	}
; 2402 : 	else
; 2403 : 	{
; 2404 : 		return false;

  00031	33 c0		 xor	 eax, eax
  00033	5e		 pop	 esi

; 2405 : 	}
; 2406 : }

  00034	c3		 ret	 0
?IsWoodenDoor@CInstanceBase@@QAEHXZ ENDP		; CInstanceBase::IsWoodenDoor
_TEXT	ENDS
; Function compile flags: /Ogtp
; File D:\_m2work\Server Client TMP4\ClientVS22\source\UserInterface\InstanceBase.cpp
;	COMDAT ?IsStoneDoor@CInstanceBase@@QAEHXZ
_TEXT	SEGMENT
?IsStoneDoor@CInstanceBase@@QAEHXZ PROC			; CInstanceBase::IsStoneDoor, COMDAT
; _this$ = ecx

; 2409 : {

  00000	56		 push	 esi
  00001	8b f1		 mov	 esi, ecx

; 2410 : 	return m_GraphicThingInstance.IsDoor() && 13001 == GetVirtualNumber();

  00003	8d 8e d4 01 00
	00		 lea	 ecx, DWORD PTR [esi+468]
  00009	e8 00 00 00 00	 call	 ?IsDoor@CActorInstance@@QAE_NXZ ; CActorInstance::IsDoor
  0000e	84 c0		 test	 al, al
  00010	74 15		 je	 SHORT $LN3@IsStoneDoo
  00012	8b ce		 mov	 ecx, esi
  00014	e8 00 00 00 00	 call	 ?GetVirtualNumber@CInstanceBase@@QAEKXZ ; CInstanceBase::GetVirtualNumber
  00019	3d c9 32 00 00	 cmp	 eax, 13001		; 000032c9H
  0001e	75 07		 jne	 SHORT $LN3@IsStoneDoo
  00020	b8 01 00 00 00	 mov	 eax, 1
  00025	5e		 pop	 esi

; 2411 : }

  00026	c3		 ret	 0
$LN3@IsStoneDoo:

; 2410 : 	return m_GraphicThingInstance.IsDoor() && 13001 == GetVirtualNumber();

  00027	33 c0		 xor	 eax, eax
  00029	5e		 pop	 esi

; 2411 : }

  0002a	c3		 ret	 0
?IsStoneDoor@CInstanceBase@@QAEHXZ ENDP			; CInstanceBase::IsStoneDoor
_TEXT	ENDS
; Function compile flags: /Ogtp
; File D:\_m2work\Server Client TMP4\ClientVS22\source\UserInterface\InstanceBase.cpp
;	COMDAT ?IsFlag@CInstanceBase@@QAEHXZ
_TEXT	SEGMENT
?IsFlag@CInstanceBase@@QAEHXZ PROC			; CInstanceBase::IsFlag, COMDAT
; _this$ = ecx

; 2415 : 	if (GetRace() == 20035)

  00000	e8 00 00 00 00	 call	 ?GetRace@CInstanceBase@@QAEKXZ ; CInstanceBase::GetRace
  00005	3d 43 4e 00 00	 cmp	 eax, 20035		; 00004e43H
  0000a	74 1e		 je	 SHORT $LN6@IsFlag

; 2416 : 		return TRUE;
; 2417 : 	if (GetRace() == 20036)

  0000c	e8 00 00 00 00	 call	 ?GetRace@CInstanceBase@@QAEKXZ ; CInstanceBase::GetRace
  00011	3d 44 4e 00 00	 cmp	 eax, 20036		; 00004e44H
  00016	74 12		 je	 SHORT $LN6@IsFlag

; 2418 : 		return TRUE;
; 2419 : 	if (GetRace() == 20037)

  00018	e8 00 00 00 00	 call	 ?GetRace@CInstanceBase@@QAEKXZ ; CInstanceBase::GetRace
  0001d	33 c9		 xor	 ecx, ecx
  0001f	3d 45 4e 00 00	 cmp	 eax, 20037		; 00004e45H
  00024	0f 94 c1	 sete	 cl
  00027	8b c1		 mov	 eax, ecx

; 2421 : 
; 2422 : 	return FALSE;
; 2423 : }

  00029	c3		 ret	 0
$LN6@IsFlag:

; 2420 : 		return TRUE;

  0002a	b8 01 00 00 00	 mov	 eax, 1

; 2421 : 
; 2422 : 	return FALSE;
; 2423 : }

  0002f	c3		 ret	 0
?IsFlag@CInstanceBase@@QAEHXZ ENDP			; CInstanceBase::IsFlag
_TEXT	ENDS
; Function compile flags: /Ogtp
; File D:\_m2work\Server Client TMP4\ClientVS22\source\UserInterface\InstanceBase.cpp
;	COMDAT ?IsForceVisible@CInstanceBase@@QAEHXZ
_TEXT	SEGMENT
?IsForceVisible@CInstanceBase@@QAEHXZ PROC		; CInstanceBase::IsForceVisible, COMDAT
; _this$ = ecx

; 2426 : {

  00000	56		 push	 esi

; 2427 : 	if (IsAffect(AFFECT_SHOW_ALWAYS))

  00001	6a 07		 push	 7
  00003	8b f1		 mov	 esi, ecx
  00005	e8 00 00 00 00	 call	 ?IsAffect@CInstanceBase@@QAE_NI@Z ; CInstanceBase::IsAffect
  0000a	84 c0		 test	 al, al
  0000c	75 25		 jne	 SHORT $LN4@IsForceVis

; 2428 : 		return TRUE;
; 2429 : 
; 2430 : 	if (IsObject() || IsBuilding() || IsDoor() )

  0000e	8b ce		 mov	 ecx, esi
  00010	e8 00 00 00 00	 call	 ?IsObject@CInstanceBase@@QAEHXZ ; CInstanceBase::IsObject
  00015	85 c0		 test	 eax, eax
  00017	75 1a		 jne	 SHORT $LN4@IsForceVis
  00019	8b ce		 mov	 ecx, esi
  0001b	e8 00 00 00 00	 call	 ?IsBuilding@CInstanceBase@@QAEHXZ ; CInstanceBase::IsBuilding
  00020	85 c0		 test	 eax, eax
  00022	75 0f		 jne	 SHORT $LN4@IsForceVis
  00024	8b ce		 mov	 ecx, esi
  00026	e8 00 00 00 00	 call	 ?IsDoor@CInstanceBase@@QAEHXZ ; CInstanceBase::IsDoor
  0002b	f7 d8		 neg	 eax
  0002d	5e		 pop	 esi
  0002e	1b c0		 sbb	 eax, eax
  00030	f7 d8		 neg	 eax

; 2432 : 
; 2433 : 	return FALSE;
; 2434 : }

  00032	c3		 ret	 0
$LN4@IsForceVis:

; 2431 : 		return TRUE;

  00033	b8 01 00 00 00	 mov	 eax, 1
  00038	5e		 pop	 esi

; 2432 : 
; 2433 : 	return FALSE;
; 2434 : }

  00039	c3		 ret	 0
?IsForceVisible@CInstanceBase@@QAEHXZ ENDP		; CInstanceBase::IsForceVisible
_TEXT	ENDS
; Function compile flags: /Ogtp
; File D:\_m2work\Server Client TMP4\ClientVS22\source\UserInterface\InstanceBase.cpp
;	COMDAT ?GetInstanceType@CInstanceBase@@QAEHXZ
_TEXT	SEGMENT
?GetInstanceType@CInstanceBase@@QAEHXZ PROC		; CInstanceBase::GetInstanceType, COMDAT
; _this$ = ecx

; 2438 : 	return m_GraphicThingInstance.GetActorType();

  00000	81 c1 d4 01 00
	00		 add	 ecx, 468		; 000001d4H
  00006	e9 00 00 00 00	 jmp	 ?GetActorType@CActorInstance@@QBEIXZ ; CActorInstance::GetActorType
?GetInstanceType@CInstanceBase@@QAEHXZ ENDP		; CInstanceBase::GetInstanceType
_TEXT	ENDS
; Function compile flags: /Ogtp
; File D:\_m2work\Server Client TMP4\ClientVS22\source\UserInterface\InstanceBase.cpp
;	COMDAT ?GetVirtualID@CInstanceBase@@QAEKXZ
_TEXT	SEGMENT
?GetVirtualID@CInstanceBase@@QAEKXZ PROC		; CInstanceBase::GetVirtualID, COMDAT
; _this$ = ecx

; 2443 : 	return m_GraphicThingInstance.GetVirtualID();

  00000	8b 81 d4 01 00
	00		 mov	 eax, DWORD PTR [ecx+468]
  00006	81 c1 d4 01 00
	00		 add	 ecx, 468		; 000001d4H
  0000c	ff 60 48	 jmp	 DWORD PTR [eax+72]
?GetVirtualID@CInstanceBase@@QAEKXZ ENDP		; CInstanceBase::GetVirtualID
_TEXT	ENDS
; Function compile flags: /Ogtp
; File D:\_m2work\Server Client TMP4\ClientVS22\source\UserInterface\InstanceBase.cpp
;	COMDAT ?GetVirtualNumber@CInstanceBase@@QAEKXZ
_TEXT	SEGMENT
?GetVirtualNumber@CInstanceBase@@QAEKXZ PROC		; CInstanceBase::GetVirtualNumber, COMDAT
; _this$ = ecx

; 2448 : 	return m_dwVirtualNumber;

  00000	8b 81 68 01 00
	00		 mov	 eax, DWORD PTR [ecx+360]

; 2449 : }

  00006	c3		 ret	 0
?GetVirtualNumber@CInstanceBase@@QAEKXZ ENDP		; CInstanceBase::GetVirtualNumber
_TEXT	ENDS
; Function compile flags: /Ogtp
; File D:\_m2work\Server Client TMP4\ClientVS22\source\UserInterface\InstanceBase.cpp
;	COMDAT ?__IsInViewFrustum@CInstanceBase@@IAE_NXZ
_TEXT	SEGMENT
?__IsInViewFrustum@CInstanceBase@@IAE_NXZ PROC		; CInstanceBase::__IsInViewFrustum, COMDAT
; _this$ = ecx

; 2454 : 	return m_GraphicThingInstance.isShow();

  00000	81 c1 d4 01 00
	00		 add	 ecx, 468		; 000001d4H
  00006	e9 00 00 00 00	 jmp	 ?isShow@CGraphicObjectInstance@@QAE_NXZ ; CGraphicObjectInstance::isShow
?__IsInViewFrustum@CInstanceBase@@IAE_NXZ ENDP		; CInstanceBase::__IsInViewFrustum
_TEXT	ENDS
; Function compile flags: /Ogtp
; File D:\_m2work\Server Client TMP4\ClientVS22\source\UserInterface\InstanceBase.cpp
;	COMDAT ?__CanRender@CInstanceBase@@IAE_NXZ
_TEXT	SEGMENT
?__CanRender@CInstanceBase@@IAE_NXZ PROC		; CInstanceBase::__CanRender, COMDAT
; _this$ = ecx

; 2458 : {

  00000	56		 push	 esi
  00001	8b f1		 mov	 esi, ecx

; 2459 : 	if (!__IsInViewFrustum())

  00003	e8 00 00 00 00	 call	 ?__IsInViewFrustum@CInstanceBase@@IAE_NXZ ; CInstanceBase::__IsInViewFrustum
  00008	84 c0		 test	 al, al
  0000a	74 10		 je	 SHORT $LN5@CanRender

; 2460 : 		return false;
; 2461 : 	if (IsAffect(AFFECT_INVISIBILITY))

  0000c	6a 01		 push	 1
  0000e	8b ce		 mov	 ecx, esi
  00010	e8 00 00 00 00	 call	 ?IsAffect@CInstanceBase@@QAE_NI@Z ; CInstanceBase::IsAffect
  00015	84 c0		 test	 al, al
  00017	5e		 pop	 esi
  00018	0f 94 c0	 sete	 al

; 2463 : 
; 2464 : 	return true;
; 2465 : }

  0001b	c3		 ret	 0
$LN5@CanRender:

; 2462 : 		return false;

  0001c	32 c0		 xor	 al, al
  0001e	5e		 pop	 esi

; 2463 : 
; 2464 : 	return true;
; 2465 : }

  0001f	c3		 ret	 0
?__CanRender@CInstanceBase@@IAE_NXZ ENDP		; CInstanceBase::__CanRender
_TEXT	ENDS
; Function compile flags: /Ogtp
; File D:\_m2work\Server Client TMP4\ClientVS22\source\UserInterface\InstanceBase.cpp
;	COMDAT ?IntersectBoundingBox@CInstanceBase@@QAE_NXZ
_TEXT	SEGMENT
_u$ = -12						; size = 4
_v$ = -8						; size = 4
_t$ = -4						; size = 4
?IntersectBoundingBox@CInstanceBase@@QAE_NXZ PROC	; CInstanceBase::IntersectBoundingBox, COMDAT
; _this$ = ecx

; 2472 : {

  00000	55		 push	 ebp
  00001	8b ec		 mov	 ebp, esp
  00003	83 ec 0c	 sub	 esp, 12			; 0000000cH

; 2473 : 	float u, v, t;
; 2474 : 	return m_GraphicThingInstance.Intersect(&u, &v, &t);

  00006	8d 45 fc	 lea	 eax, DWORD PTR _t$[ebp]
  00009	81 c1 d4 01 00
	00		 add	 ecx, 468		; 000001d4H
  0000f	50		 push	 eax
  00010	8d 45 f8	 lea	 eax, DWORD PTR _v$[ebp]
  00013	50		 push	 eax
  00014	8d 45 f4	 lea	 eax, DWORD PTR _u$[ebp]
  00017	50		 push	 eax
  00018	e8 00 00 00 00	 call	 ?Intersect@CGraphicThingInstance@@QAE_NPAM00@Z ; CGraphicThingInstance::Intersect

; 2475 : }

  0001d	8b e5		 mov	 esp, ebp
  0001f	5d		 pop	 ebp
  00020	c3		 ret	 0
?IntersectBoundingBox@CInstanceBase@@QAE_NXZ ENDP	; CInstanceBase::IntersectBoundingBox
_TEXT	ENDS
; Function compile flags: /Ogtp
; File D:\_m2work\Server Client TMP4\ClientVS22\source\UserInterface\InstanceBase.cpp
;	COMDAT ?IntersectDefendingSphere@CInstanceBase@@QAE_NXZ
_TEXT	SEGMENT
?IntersectDefendingSphere@CInstanceBase@@QAE_NXZ PROC	; CInstanceBase::IntersectDefendingSphere, COMDAT
; _this$ = ecx

; 2479 : 	return m_GraphicThingInstance.IntersectDefendingSphere();

  00000	81 c1 d4 01 00
	00		 add	 ecx, 468		; 000001d4H
  00006	e9 00 00 00 00	 jmp	 ?IntersectDefendingSphere@CActorInstance@@QAE_NXZ ; CActorInstance::IntersectDefendingSphere
?IntersectDefendingSphere@CInstanceBase@@QAE_NXZ ENDP	; CInstanceBase::IntersectDefendingSphere
_TEXT	ENDS
; Function compile flags: /Ogtp
; File D:\_m2work\Server Client TMP4\ClientVS22\source\UserInterface\InstanceBase.cpp
;	COMDAT ?GetDistance@CInstanceBase@@QAEMPAV1@@Z
_TEXT	SEGMENT
_TargetPixelPosition$ = -16				; size = 12
__$ArrayPad$ = -4					; size = 4
_pkTargetInst$ = 8					; size = 4
?GetDistance@CInstanceBase@@QAEMPAV1@@Z PROC		; CInstanceBase::GetDistance, COMDAT
; _this$ = ecx

; 2483 : {

  00000	55		 push	 ebp
  00001	8b ec		 mov	 ebp, esp
  00003	83 ec 10	 sub	 esp, 16			; 00000010H
  00006	a1 00 00 00 00	 mov	 eax, DWORD PTR ___security_cookie
  0000b	33 c5		 xor	 eax, ebp
  0000d	89 45 fc	 mov	 DWORD PTR __$ArrayPad$[ebp], eax
  00010	56		 push	 esi
  00011	8b f1		 mov	 esi, ecx

; 2484 : 	TPixelPosition TargetPixelPosition;
; 2485 : 	pkTargetInst->m_GraphicThingInstance.GetPixelPosition(&TargetPixelPosition);

  00013	8d 45 f0	 lea	 eax, DWORD PTR _TargetPixelPosition$[ebp]
  00016	8b 4d 08	 mov	 ecx, DWORD PTR _pkTargetInst$[ebp]
  00019	50		 push	 eax
  0001a	81 c1 d4 01 00
	00		 add	 ecx, 468		; 000001d4H
  00020	e8 00 00 00 00	 call	 ?GetPixelPosition@CActorInstance@@QAEXPAUD3DXVECTOR3@@@Z ; CActorInstance::GetPixelPosition

; 2486 : 	return GetDistance(TargetPixelPosition);

  00025	8d 45 f0	 lea	 eax, DWORD PTR _TargetPixelPosition$[ebp]
  00028	8b ce		 mov	 ecx, esi
  0002a	50		 push	 eax
  0002b	e8 00 00 00 00	 call	 ?GetDistance@CInstanceBase@@QAEMABUD3DXVECTOR3@@@Z ; CInstanceBase::GetDistance

; 2487 : }

  00030	8b 4d fc	 mov	 ecx, DWORD PTR __$ArrayPad$[ebp]
  00033	33 cd		 xor	 ecx, ebp
  00035	5e		 pop	 esi
  00036	e8 00 00 00 00	 call	 @__security_check_cookie@4
  0003b	8b e5		 mov	 esp, ebp
  0003d	5d		 pop	 ebp
  0003e	c2 04 00	 ret	 4
?GetDistance@CInstanceBase@@QAEMPAV1@@Z ENDP		; CInstanceBase::GetDistance
_TEXT	ENDS
; Function compile flags: /Ogtp
; File D:\_m2work\Server Client TMP4\ClientVS22\source\UserInterface\InstanceBase.cpp
;	COMDAT ?GetDistance@CInstanceBase@@QAEMABUD3DXVECTOR3@@@Z
_TEXT	SEGMENT
tv166 = -20						; size = 4
_PixelPosition$ = -16					; size = 12
__$ArrayPad$ = -4					; size = 4
_c_rPixelPosition$ = 8					; size = 4
?GetDistance@CInstanceBase@@QAEMABUD3DXVECTOR3@@@Z PROC	; CInstanceBase::GetDistance, COMDAT
; _this$ = ecx

; 2490 : {

  00000	55		 push	 ebp
  00001	8b ec		 mov	 ebp, esp
  00003	83 ec 14	 sub	 esp, 20			; 00000014H
  00006	a1 00 00 00 00	 mov	 eax, DWORD PTR ___security_cookie
  0000b	33 c5		 xor	 eax, ebp
  0000d	89 45 fc	 mov	 DWORD PTR __$ArrayPad$[ebp], eax

; 2491 : 	TPixelPosition PixelPosition;
; 2492 : 	m_GraphicThingInstance.GetPixelPosition(&PixelPosition);

  00010	8d 45 f0	 lea	 eax, DWORD PTR _PixelPosition$[ebp]
  00013	81 c1 d4 01 00
	00		 add	 ecx, 468		; 000001d4H
  00019	50		 push	 eax
  0001a	e8 00 00 00 00	 call	 ?GetPixelPosition@CActorInstance@@QAEXPAUD3DXVECTOR3@@@Z ; CActorInstance::GetPixelPosition

; 2493 : 
; 2494 : 	float fdx = PixelPosition.x - c_rPixelPosition.x;

  0001f	8b 45 08	 mov	 eax, DWORD PTR _c_rPixelPosition$[ebp]
  00022	f3 0f 10 4d f0	 movss	 xmm1, DWORD PTR _PixelPosition$[ebp]

; 2495 : 	float fdy = PixelPosition.y - c_rPixelPosition.y;

  00027	f3 0f 10 45 f4	 movss	 xmm0, DWORD PTR _PixelPosition$[ebp+4]

; 2496 : 
; 2497 : 	return sqrtf((fdx*fdx) + (fdy*fdy));

  0002c	51		 push	 ecx
  0002d	f3 0f 5c 40 04	 subss	 xmm0, DWORD PTR [eax+4]
  00032	f3 0f 5c 08	 subss	 xmm1, DWORD PTR [eax]
  00036	f3 0f 59 c0	 mulss	 xmm0, xmm0
  0003a	f3 0f 59 c9	 mulss	 xmm1, xmm1
  0003e	f3 0f 58 c1	 addss	 xmm0, xmm1
  00042	f3 0f 11 04 24	 movss	 DWORD PTR [esp], xmm0
  00047	e8 00 00 00 00	 call	 _sqrtf

; 2498 : }

  0004c	8b 4d fc	 mov	 ecx, DWORD PTR __$ArrayPad$[ebp]
  0004f	83 c4 04	 add	 esp, 4
  00052	d9 5d ec	 fstp	 DWORD PTR tv166[ebp]
  00055	f3 0f 10 45 ec	 movss	 xmm0, DWORD PTR tv166[ebp]
  0005a	33 cd		 xor	 ecx, ebp
  0005c	e8 00 00 00 00	 call	 @__security_check_cookie@4
  00061	8b e5		 mov	 esp, ebp
  00063	5d		 pop	 ebp
  00064	c2 04 00	 ret	 4
?GetDistance@CInstanceBase@@QAEMABUD3DXVECTOR3@@@Z ENDP	; CInstanceBase::GetDistance
_TEXT	ENDS
; Function compile flags: /Ogtp
; File D:\_m2work\Server Client TMP4\ClientVS22\source\UserInterface\InstanceBase.cpp
;	COMDAT ?GetGraphicThingInstanceRef@CInstanceBase@@QAEAAVCActorInstance@@XZ
_TEXT	SEGMENT
?GetGraphicThingInstanceRef@CInstanceBase@@QAEAAVCActorInstance@@XZ PROC ; CInstanceBase::GetGraphicThingInstanceRef, COMDAT
; _this$ = ecx

; 2502 : 	return m_GraphicThingInstance;

  00000	8d 81 d4 01 00
	00		 lea	 eax, DWORD PTR [ecx+468]

; 2503 : }

  00006	c3		 ret	 0
?GetGraphicThingInstanceRef@CInstanceBase@@QAEAAVCActorInstance@@XZ ENDP ; CInstanceBase::GetGraphicThingInstanceRef
_TEXT	ENDS
; Function compile flags: /Ogtp
; File D:\_m2work\Server Client TMP4\ClientVS22\source\UserInterface\InstanceBase.cpp
;	COMDAT ?GetGraphicThingInstancePtr@CInstanceBase@@QAEPAVCActorInstance@@XZ
_TEXT	SEGMENT
?GetGraphicThingInstancePtr@CInstanceBase@@QAEPAVCActorInstance@@XZ PROC ; CInstanceBase::GetGraphicThingInstancePtr, COMDAT
; _this$ = ecx

; 2507 : 	return &m_GraphicThingInstance;

  00000	8d 81 d4 01 00
	00		 lea	 eax, DWORD PTR [ecx+468]

; 2508 : }

  00006	c3		 ret	 0
?GetGraphicThingInstancePtr@CInstanceBase@@QAEPAVCActorInstance@@XZ ENDP ; CInstanceBase::GetGraphicThingInstancePtr
_TEXT	ENDS
; Function compile flags: /Ogtp
; File D:\_m2work\Server Client TMP4\ClientVS22\source\UserInterface\InstanceBase.cpp
;	COMDAT ?RefreshActorInstance@CInstanceBase@@IAEXXZ
_TEXT	SEGMENT
?RefreshActorInstance@CInstanceBase@@IAEXXZ PROC	; CInstanceBase::RefreshActorInstance, COMDAT
; _this$ = ecx

; 2512 : 	m_GraphicThingInstance.RefreshActorInstance();

  00000	81 c1 d4 01 00
	00		 add	 ecx, 468		; 000001d4H
  00006	e9 00 00 00 00	 jmp	 ?RefreshActorInstance@CActorInstance@@QAEXXZ ; CActorInstance::RefreshActorInstance
?RefreshActorInstance@CInstanceBase@@IAEXXZ ENDP	; CInstanceBase::RefreshActorInstance
_TEXT	ENDS
; Function compile flags: /Ogtp
; File D:\_m2work\Server Client TMP4\ClientVS22\source\UserInterface\InstanceBase.cpp
;	COMDAT ?Refresh@CInstanceBase@@QAEXK_N@Z
_TEXT	SEGMENT
_dwMotIndex$ = 8					; size = 4
_isLoop$ = 12						; size = 1
?Refresh@CInstanceBase@@QAEXK_N@Z PROC			; CInstanceBase::Refresh, COMDAT
; _this$ = ecx

; 2516 : {

  00000	55		 push	 ebp
  00001	8b ec		 mov	 ebp, esp

; 2518 : }

  00003	5d		 pop	 ebp

; 2517 : 	RefreshState(dwMotIndex, isLoop);

  00004	e9 00 00 00 00	 jmp	 ?RefreshState@CInstanceBase@@IAEXK_N@Z ; CInstanceBase::RefreshState
?Refresh@CInstanceBase@@QAEXK_N@Z ENDP			; CInstanceBase::Refresh
_TEXT	ENDS
; Function compile flags: /Ogtp
; File D:\_m2work\Server Client TMP4\ClientVS22\source\UserInterface\InstanceBase.cpp
;	COMDAT ?RestoreRenderMode@CInstanceBase@@QAEXXZ
_TEXT	SEGMENT
?RestoreRenderMode@CInstanceBase@@QAEXXZ PROC		; CInstanceBase::RestoreRenderMode, COMDAT
; _this$ = ecx

; 2522 : 	m_GraphicThingInstance.RestoreRenderMode();

  00000	81 c1 d4 01 00
	00		 add	 ecx, 468		; 000001d4H
  00006	e9 00 00 00 00	 jmp	 ?RestoreRenderMode@CActorInstance@@QAEXXZ ; CActorInstance::RestoreRenderMode
?RestoreRenderMode@CInstanceBase@@QAEXXZ ENDP		; CInstanceBase::RestoreRenderMode
_TEXT	ENDS
; Function compile flags: /Ogtp
; File D:\_m2work\Server Client TMP4\ClientVS22\source\UserInterface\InstanceBase.cpp
;	COMDAT ?SetAddRenderMode@CInstanceBase@@QAEXXZ
_TEXT	SEGMENT
?SetAddRenderMode@CInstanceBase@@QAEXXZ PROC		; CInstanceBase::SetAddRenderMode, COMDAT
; _this$ = ecx

; 2527 : 	m_GraphicThingInstance.SetAddRenderMode();

  00000	81 c1 d4 01 00
	00		 add	 ecx, 468		; 000001d4H
  00006	e9 00 00 00 00	 jmp	 ?SetAddRenderMode@CActorInstance@@QAEXXZ ; CActorInstance::SetAddRenderMode
?SetAddRenderMode@CInstanceBase@@QAEXXZ ENDP		; CInstanceBase::SetAddRenderMode
_TEXT	ENDS
; Function compile flags: /Ogtp
; File D:\_m2work\Server Client TMP4\ClientVS22\source\UserInterface\InstanceBase.cpp
;	COMDAT ?SetModulateRenderMode@CInstanceBase@@QAEXXZ
_TEXT	SEGMENT
?SetModulateRenderMode@CInstanceBase@@QAEXXZ PROC	; CInstanceBase::SetModulateRenderMode, COMDAT
; _this$ = ecx

; 2532 : 	m_GraphicThingInstance.SetModulateRenderMode();

  00000	81 c1 d4 01 00
	00		 add	 ecx, 468		; 000001d4H
  00006	e9 00 00 00 00	 jmp	 ?SetModulateRenderMode@CActorInstance@@QAEXXZ ; CActorInstance::SetModulateRenderMode
?SetModulateRenderMode@CInstanceBase@@QAEXXZ ENDP	; CInstanceBase::SetModulateRenderMode
_TEXT	ENDS
; Function compile flags: /Ogtp
; File D:\_m2work\Server Client TMP4\ClientVS22\source\UserInterface\InstanceBase.cpp
;	COMDAT ?SetAddColor@CInstanceBase@@QAEXABUD3DXCOLOR@@@Z
_TEXT	SEGMENT
_c_rColor$ = 8						; size = 4
?SetAddColor@CInstanceBase@@QAEXABUD3DXCOLOR@@@Z PROC	; CInstanceBase::SetAddColor, COMDAT
; _this$ = ecx

; 2541 : {

  00000	55		 push	 ebp
  00001	8b ec		 mov	 ebp, esp

; 2542 : 	m_GraphicThingInstance.SetAddColor(c_rColor);

  00003	81 c1 d4 01 00
	00		 add	 ecx, 468		; 000001d4H

; 2543 : }

  00009	5d		 pop	 ebp

; 2542 : 	m_GraphicThingInstance.SetAddColor(c_rColor);

  0000a	e9 00 00 00 00	 jmp	 ?SetAddColor@CActorInstance@@QAEXABUD3DXCOLOR@@@Z ; CActorInstance::SetAddColor
?SetAddColor@CInstanceBase@@QAEXABUD3DXCOLOR@@@Z ENDP	; CInstanceBase::SetAddColor
_TEXT	ENDS
; Function compile flags: /Ogtp
; File D:\_m2work\Server Client TMP4\ClientVS22\source\UserInterface\InstanceBase.cpp
;	COMDAT ?__SetBlendRenderingMode@CInstanceBase@@IAEXXZ
_TEXT	SEGMENT
?__SetBlendRenderingMode@CInstanceBase@@IAEXXZ PROC	; CInstanceBase::__SetBlendRenderingMode, COMDAT
; _this$ = ecx

; 2547 : 	m_GraphicThingInstance.SetBlendRenderMode();

  00000	81 c1 d4 01 00
	00		 add	 ecx, 468		; 000001d4H
  00006	e9 00 00 00 00	 jmp	 ?SetBlendRenderMode@CActorInstance@@QAEXXZ ; CActorInstance::SetBlendRenderMode
?__SetBlendRenderingMode@CInstanceBase@@IAEXXZ ENDP	; CInstanceBase::__SetBlendRenderingMode
_TEXT	ENDS
; Function compile flags: /Ogtp
; File D:\_m2work\Server Client TMP4\ClientVS22\source\UserInterface\InstanceBase.cpp
;	COMDAT ?__SetAlphaValue@CInstanceBase@@IAEXM@Z
_TEXT	SEGMENT
?__SetAlphaValue@CInstanceBase@@IAEXM@Z PROC		; CInstanceBase::__SetAlphaValue, COMDAT
; _this$ = ecx
; _fAlpha$ = xmm1s

; 2552 : 	m_GraphicThingInstance.SetAlphaValue(fAlpha);

  00000	51		 push	 ecx
  00001	81 c1 d4 01 00
	00		 add	 ecx, 468		; 000001d4H
  00007	f3 0f 11 0c 24	 movss	 DWORD PTR [esp], xmm1
  0000c	e8 00 00 00 00	 call	 ?SetAlphaValue@CActorInstance@@QAEXM@Z ; CActorInstance::SetAlphaValue

; 2553 : }

  00011	c3		 ret	 0
?__SetAlphaValue@CInstanceBase@@IAEXM@Z ENDP		; CInstanceBase::__SetAlphaValue
_TEXT	ENDS
; Function compile flags: /Ogtp
; File D:\_m2work\Server Client TMP4\ClientVS22\source\UserInterface\InstanceBase.cpp
;	COMDAT ?__GetAlphaValue@CInstanceBase@@IAEMXZ
_TEXT	SEGMENT
tv69 = -4						; size = 4
?__GetAlphaValue@CInstanceBase@@IAEMXZ PROC		; CInstanceBase::__GetAlphaValue, COMDAT
; _this$ = ecx

; 2556 : {

  00000	55		 push	 ebp
  00001	8b ec		 mov	 ebp, esp
  00003	51		 push	 ecx

; 2557 : 	return m_GraphicThingInstance.GetAlphaValue();

  00004	81 c1 d4 01 00
	00		 add	 ecx, 468		; 000001d4H
  0000a	e8 00 00 00 00	 call	 ?GetAlphaValue@CActorInstance@@QAEMXZ ; CActorInstance::GetAlphaValue
  0000f	d9 5d fc	 fstp	 DWORD PTR tv69[ebp]
  00012	f3 0f 10 45 fc	 movss	 xmm0, DWORD PTR tv69[ebp]

; 2558 : }

  00017	8b e5		 mov	 esp, ebp
  00019	5d		 pop	 ebp
  0001a	c3		 ret	 0
?__GetAlphaValue@CInstanceBase@@IAEMXZ ENDP		; CInstanceBase::__GetAlphaValue
_TEXT	ENDS
; Function compile flags: /Ogtp
; File D:\_m2work\Server Client TMP4\ClientVS22\source\UserInterface\InstanceBase.cpp
;	COMDAT ?SetHair@CInstanceBase@@QAEXK@Z
_TEXT	SEGMENT
_eHair$ = 8						; size = 4
?SetHair@CInstanceBase@@QAEXK@Z PROC			; CInstanceBase::SetHair, COMDAT
; _this$ = ecx

; 2564 : {

  00000	55		 push	 ebp
  00001	8b ec		 mov	 ebp, esp

; 2565 : 	if (!HAIR_COLOR_ENABLE)

  00003	83 3d 00 00 00
	00 00		 cmp	 DWORD PTR ?HAIR_COLOR_ENABLE@@3HA, 0 ; HAIR_COLOR_ENABLE
  0000a	56		 push	 esi
  0000b	8b f1		 mov	 esi, ecx
  0000d	74 1b		 je	 SHORT $LN1@SetHair

; 2566 : 		return;
; 2567 : 
; 2568 : 	if (IsPC()==false)

  0000f	e8 00 00 00 00	 call	 ?IsPC@CInstanceBase@@QAEHXZ ; CInstanceBase::IsPC
  00014	85 c0		 test	 eax, eax
  00016	74 12		 je	 SHORT $LN1@SetHair

; 2569 : 		return;
; 2570 : 	m_awPart[CRaceData::PART_HAIR] = eHair;

  00018	8b 45 08	 mov	 eax, DWORD PTR _eHair$[ebp]

; 2571 : 	m_GraphicThingInstance.SetHair(eHair);

  0001b	8d 8e d4 01 00
	00		 lea	 ecx, DWORD PTR [esi+468]
  00021	50		 push	 eax
  00022	89 46 38	 mov	 DWORD PTR [esi+56], eax
  00025	e8 00 00 00 00	 call	 ?SetHair@CActorInstance@@QAEXK@Z ; CActorInstance::SetHair
$LN1@SetHair:
  0002a	5e		 pop	 esi

; 2572 : }

  0002b	5d		 pop	 ebp
  0002c	c2 04 00	 ret	 4
?SetHair@CInstanceBase@@QAEXK@Z ENDP			; CInstanceBase::SetHair
_TEXT	ENDS
; Function compile flags: /Ogtp
; File D:\_m2work\Server Client TMP4\ClientVS22\source\UserInterface\InstanceBase.cpp
;	COMDAT ?ChangeHair@CInstanceBase@@QAEXK@Z
_TEXT	SEGMENT
_eHair$ = 8						; size = 4
?ChangeHair@CInstanceBase@@QAEXK@Z PROC			; CInstanceBase::ChangeHair, COMDAT
; _this$ = ecx

; 2575 : {

  00000	55		 push	 ebp
  00001	8b ec		 mov	 ebp, esp

; 2576 : 	if (!HAIR_COLOR_ENABLE)

  00003	83 3d 00 00 00
	00 00		 cmp	 DWORD PTR ?HAIR_COLOR_ENABLE@@3HA, 0 ; HAIR_COLOR_ENABLE
  0000a	56		 push	 esi
  0000b	8b f1		 mov	 esi, ecx
  0000d	74 2c		 je	 SHORT $LN1@ChangeHair

; 2577 : 		return;
; 2578 : 
; 2579 : 	if (IsPC()==false)

  0000f	e8 00 00 00 00	 call	 ?IsPC@CInstanceBase@@QAEHXZ ; CInstanceBase::IsPC
  00014	85 c0		 test	 eax, eax
  00016	74 23		 je	 SHORT $LN1@ChangeHair

; 2580 : 		return;
; 2581 : 
; 2582 : 	if (GetPart(CRaceData::PART_HAIR)==eHair)

  00018	6a 04		 push	 4
  0001a	8b ce		 mov	 ecx, esi
  0001c	e8 00 00 00 00	 call	 ?GetPart@CInstanceBase@@QAEKW4EParts@CRaceData@@@Z ; CInstanceBase::GetPart
  00021	8b 4d 08	 mov	 ecx, DWORD PTR _eHair$[ebp]
  00024	3b c1		 cmp	 eax, ecx
  00026	74 13		 je	 SHORT $LN1@ChangeHair

; 2583 : 		return;
; 2584 : 
; 2585 : 	SetHair(eHair);

  00028	51		 push	 ecx
  00029	8b ce		 mov	 ecx, esi
  0002b	e8 00 00 00 00	 call	 ?SetHair@CInstanceBase@@QAEXK@Z ; CInstanceBase::SetHair

; 2586 : 
; 2587 : 	//int type = m_GraphicThingInstance.GetMotionMode();
; 2588 : 
; 2589 : 	RefreshState(CRaceMotionData::NAME_WAIT, true);

  00030	6a 01		 push	 1
  00032	6a 01		 push	 1
  00034	8b ce		 mov	 ecx, esi
  00036	e8 00 00 00 00	 call	 ?RefreshState@CInstanceBase@@IAEXK_N@Z ; CInstanceBase::RefreshState
$LN1@ChangeHair:
  0003b	5e		 pop	 esi

; 2590 : 	//RefreshState(type, true);
; 2591 : }

  0003c	5d		 pop	 ebp
  0003d	c2 04 00	 ret	 4
?ChangeHair@CInstanceBase@@QAEXK@Z ENDP			; CInstanceBase::ChangeHair
_TEXT	ENDS
; Function compile flags: /Ogtp
; File D:\_m2work\Server Client TMP4\ClientVS22\source\UserInterface\InstanceBase.cpp
;	COMDAT ?SetArmor@CInstanceBase@@QAEXK@Z
_TEXT	SEGMENT
_fSpecularPower$1 = -8					; size = 4
_dwShape$ = -4						; size = 4
_dwArmor$ = 8						; size = 4
_pItemData$2 = 8					; size = 4
?SetArmor@CInstanceBase@@QAEXK@Z PROC			; CInstanceBase::SetArmor, COMDAT
; _this$ = ecx

; 2594 : {

  00000	55		 push	 ebp
  00001	8b ec		 mov	 ebp, esp
  00003	83 ec 08	 sub	 esp, 8

; 2595 : 	DWORD dwShape;
; 2596 : 	if (__ArmorVnumToShape(dwArmor, &dwShape))

  00006	8d 55 fc	 lea	 edx, DWORD PTR _dwShape$[ebp]
  00009	56		 push	 esi
  0000a	57		 push	 edi
  0000b	8b 7d 08	 mov	 edi, DWORD PTR _dwArmor$[ebp]
  0000e	8b f1		 mov	 esi, ecx
  00010	8b cf		 mov	 ecx, edi
  00012	e8 00 00 00 00	 call	 ?__ArmorVnumToShape@@YA_NHPAK@Z ; __ArmorVnumToShape
  00017	84 c0		 test	 al, al
  00019	74 47		 je	 SHORT $LN4@SetArmor

; 2597 : 	{
; 2598 : 		CItemData * pItemData;
; 2599 : 		if (CItemManager::Instance().GetItemDataPointer(dwArmor, &pItemData))

  0001b	8b 0d 00 00 00
	00		 mov	 ecx, DWORD PTR ?ms_singleton@?$CSingleton@VCItemManager@@@@0PAVCItemManager@@A ; CSingleton<CItemManager>::ms_singleton
  00021	8d 45 08	 lea	 eax, DWORD PTR _pItemData$2[ebp]
  00024	50		 push	 eax
  00025	57		 push	 edi
  00026	e8 00 00 00 00	 call	 ?GetItemDataPointer@CItemManager@@QAEHKPAPAVCItemData@@@Z ; CItemManager::GetItemDataPointer
  0002b	85 c0		 test	 eax, eax
  0002d	74 2c		 je	 SHORT $LN3@SetArmor

; 2600 : 		{
; 2601 : 			float fSpecularPower=pItemData->GetSpecularPowerf();

  0002f	8b 4d 08	 mov	 ecx, DWORD PTR _pItemData$2[ebp]
  00032	e8 00 00 00 00	 call	 ?GetSpecularPowerf@CItemData@@QBEMXZ ; CItemData::GetSpecularPowerf

; 2602 : 			SetShape(dwShape, fSpecularPower);

  00037	ff 75 fc	 push	 DWORD PTR _dwShape$[ebp]
  0003a	d9 5d f8	 fstp	 DWORD PTR _fSpecularPower$1[ebp]
  0003d	f3 0f 10 55 f8	 movss	 xmm2, DWORD PTR _fSpecularPower$1[ebp]
  00042	8b ce		 mov	 ecx, esi
  00044	e8 00 00 00 00	 call	 ?SetShape@CInstanceBase@@QAEXKM@Z ; CInstanceBase::SetShape

; 2603 : 			__GetRefinedEffect(pItemData);

  00049	ff 75 08	 push	 DWORD PTR _pItemData$2[ebp]
  0004c	8b ce		 mov	 ecx, esi
  0004e	e8 00 00 00 00	 call	 ?__GetRefinedEffect@CInstanceBase@@IAEIPAVCItemData@@@Z ; CInstanceBase::__GetRefinedEffect
  00053	5f		 pop	 edi

; 2611 : }

  00054	5e		 pop	 esi
  00055	8b e5		 mov	 esp, ebp
  00057	5d		 pop	 ebp
  00058	c2 04 00	 ret	 4
$LN3@SetArmor:

; 2604 : 			return;
; 2605 : 		}
; 2606 : 		else
; 2607 : 			__ClearArmorRefineEffect();

  0005b	8b ce		 mov	 ecx, esi
  0005d	e8 00 00 00 00	 call	 ?__ClearArmorRefineEffect@CInstanceBase@@IAEXXZ ; CInstanceBase::__ClearArmorRefineEffect
$LN4@SetArmor:

; 2608 : 	}
; 2609 : 
; 2610 : 	SetShape(dwArmor);

  00062	57		 push	 edi
  00063	0f 57 d2	 xorps	 xmm2, xmm2
  00066	8b ce		 mov	 ecx, esi
  00068	e8 00 00 00 00	 call	 ?SetShape@CInstanceBase@@QAEXKM@Z ; CInstanceBase::SetShape
  0006d	5f		 pop	 edi

; 2611 : }

  0006e	5e		 pop	 esi
  0006f	8b e5		 mov	 esp, ebp
  00071	5d		 pop	 ebp
  00072	c2 04 00	 ret	 4
?SetArmor@CInstanceBase@@QAEXK@Z ENDP			; CInstanceBase::SetArmor
_TEXT	ENDS
; Function compile flags: /Ogtp
; File D:\_m2work\Server Client TMP4\ClientVS22\source\UserInterface\InstanceBase.cpp
;	COMDAT ?SetShape@CInstanceBase@@QAEXKM@Z
_TEXT	SEGMENT
$T1 = -4						; size = 4
_eShape$ = 8						; size = 4
?SetShape@CInstanceBase@@QAEXKM@Z PROC			; CInstanceBase::SetShape, COMDAT
; _this$ = ecx
; _fSpecular$ = xmm2s

; 2614 : {

  00000	55		 push	 ebp
  00001	8b ec		 mov	 ebp, esp
  00003	51		 push	 ecx
  00004	56		 push	 esi
  00005	57		 push	 edi
  00006	f3 0f 11 55 fc	 movss	 DWORD PTR $T1[ebp], xmm2
  0000b	8b f9		 mov	 edi, ecx

; 2615 : 	if (IsPoly())

  0000d	e8 00 00 00 00	 call	 ?IsPoly@CInstanceBase@@QAEHXZ ; CInstanceBase::IsPoly
  00012	8b c8		 mov	 ecx, eax
  00014	85 c9		 test	 ecx, ecx
  00016	74 05		 je	 SHORT $LN2@SetShape

; 2616 : 	{
; 2617 : 		m_GraphicThingInstance.SetShape(0);	
; 2618 : 	}

  00018	0f 57 c0	 xorps	 xmm0, xmm0
  0001b	eb 05		 jmp	 SHORT $LN3@SetShape
$LN2@SetShape:
  0001d	f3 0f 10 45 fc	 movss	 xmm0, DWORD PTR $T1[ebp]
$LN3@SetShape:

; 2619 : 	else
; 2620 : 	{
; 2621 : 		m_GraphicThingInstance.SetShape(eShape, fSpecular);		
; 2622 : 	}
; 2623 : 
; 2624 : 	m_eShape = eShape;

  00022	8b 75 08	 mov	 esi, DWORD PTR _eShape$[ebp]
  00025	33 c0		 xor	 eax, eax
  00027	85 c9		 test	 ecx, ecx
  00029	51		 push	 ecx
  0002a	0f 44 c6	 cmove	 eax, esi
  0002d	f3 0f 11 04 24	 movss	 DWORD PTR [esp], xmm0
  00032	50		 push	 eax
  00033	8d 8f d4 01 00
	00		 lea	 ecx, DWORD PTR [edi+468]
  00039	e8 00 00 00 00	 call	 ?SetShape@CActorInstance@@QAEXKM@Z ; CActorInstance::SetShape
  0003e	89 b7 60 01 00
	00		 mov	 DWORD PTR [edi+352], esi
  00044	5f		 pop	 edi
  00045	5e		 pop	 esi

; 2625 : }

  00046	8b e5		 mov	 esp, ebp
  00048	5d		 pop	 ebp
  00049	c2 04 00	 ret	 4
?SetShape@CInstanceBase@@QAEXKM@Z ENDP			; CInstanceBase::SetShape
_TEXT	ENDS
; Function compile flags: /Ogtp
; File D:\_m2work\Server Client TMP4\ClientVS22\source\UserInterface\InstanceBase.cpp
;	COMDAT ?GetWeaponType@CInstanceBase@@QAEKXZ
_TEXT	SEGMENT
_pItemData$ = -4					; size = 4
?GetWeaponType@CInstanceBase@@QAEKXZ PROC		; CInstanceBase::GetWeaponType, COMDAT
; _this$ = ecx

; 2630 : {

  00000	55		 push	 ebp
  00001	8b ec		 mov	 ebp, esp
  00003	51		 push	 ecx

; 2631 : 	DWORD dwWeapon = GetPart(CRaceData::PART_WEAPON);

  00004	6a 01		 push	 1
  00006	e8 00 00 00 00	 call	 ?GetPart@CInstanceBase@@QAEKW4EParts@CRaceData@@@Z ; CInstanceBase::GetPart

; 2632 : 	CItemData * pItemData;
; 2633 : 	if (!CItemManager::Instance().GetItemDataPointer(dwWeapon, &pItemData))

  0000b	8d 4d fc	 lea	 ecx, DWORD PTR _pItemData$[ebp]
  0000e	51		 push	 ecx
  0000f	8b 0d 00 00 00
	00		 mov	 ecx, DWORD PTR ?ms_singleton@?$CSingleton@VCItemManager@@@@0PAVCItemManager@@A ; CSingleton<CItemManager>::ms_singleton
  00015	50		 push	 eax
  00016	e8 00 00 00 00	 call	 ?GetItemDataPointer@CItemManager@@QAEHKPAPAVCItemData@@@Z ; CItemManager::GetItemDataPointer
  0001b	85 c0		 test	 eax, eax
  0001d	75 09		 jne	 SHORT $LN2@GetWeaponT

; 2634 : 		return CItemData::WEAPON_NONE;

  0001f	b8 08 00 00 00	 mov	 eax, 8

; 2637 : }

  00024	8b e5		 mov	 esp, ebp
  00026	5d		 pop	 ebp
  00027	c3		 ret	 0
$LN2@GetWeaponT:

; 2635 : 
; 2636 : 	return pItemData->GetWeaponType();

  00028	8b 4d fc	 mov	 ecx, DWORD PTR _pItemData$[ebp]
  0002b	e8 00 00 00 00	 call	 ?GetWeaponType@CItemData@@QBEKXZ ; CItemData::GetWeaponType

; 2637 : }

  00030	8b e5		 mov	 esp, ebp
  00032	5d		 pop	 ebp
  00033	c3		 ret	 0
?GetWeaponType@CInstanceBase@@QAEKXZ ENDP		; CInstanceBase::GetWeaponType
_TEXT	ENDS
; Function compile flags: /Ogtp
; File D:\_m2work\Server Client TMP4\ClientVS22\source\UserInterface\InstanceBase.cpp
;	COMDAT ?__ClearWeaponRefineEffect@CInstanceBase@@IAEXXZ
_TEXT	SEGMENT
?__ClearWeaponRefineEffect@CInstanceBase@@IAEXXZ PROC	; CInstanceBase::__ClearWeaponRefineEffect, COMDAT
; _this$ = ecx

; 2664 : {

  00000	56		 push	 esi
  00001	8b f1		 mov	 esi, ecx

; 2665 : 	if (m_swordRefineEffectRight)

  00003	8b 86 9c 01 00
	00		 mov	 eax, DWORD PTR [esi+412]
  00009	85 c0		 test	 eax, eax
  0000b	74 10		 je	 SHORT $LN2@ClearWeapo

; 2666 : 	{
; 2667 : 		__DetachEffect(m_swordRefineEffectRight);

  0000d	50		 push	 eax
  0000e	e8 00 00 00 00	 call	 ?__DetachEffect@CInstanceBase@@IAEXK@Z ; CInstanceBase::__DetachEffect

; 2668 : 		m_swordRefineEffectRight = 0;

  00013	c7 86 9c 01 00
	00 00 00 00 00	 mov	 DWORD PTR [esi+412], 0
$LN2@ClearWeapo:

; 2669 : 	}
; 2670 : 	if (m_swordRefineEffectLeft)

  0001d	8b 86 a0 01 00
	00		 mov	 eax, DWORD PTR [esi+416]
  00023	85 c0		 test	 eax, eax
  00025	74 12		 je	 SHORT $LN3@ClearWeapo

; 2671 : 	{
; 2672 : 		__DetachEffect(m_swordRefineEffectLeft);

  00027	50		 push	 eax
  00028	8b ce		 mov	 ecx, esi
  0002a	e8 00 00 00 00	 call	 ?__DetachEffect@CInstanceBase@@IAEXK@Z ; CInstanceBase::__DetachEffect

; 2673 : 		m_swordRefineEffectLeft = 0;

  0002f	c7 86 a0 01 00
	00 00 00 00 00	 mov	 DWORD PTR [esi+416], 0
$LN3@ClearWeapo:

; 2674 : 	}
; 2675 : }

  00039	5e		 pop	 esi
  0003a	c3		 ret	 0
?__ClearWeaponRefineEffect@CInstanceBase@@IAEXXZ ENDP	; CInstanceBase::__ClearWeaponRefineEffect
_TEXT	ENDS
; Function compile flags: /Ogtp
; File D:\_m2work\Server Client TMP4\ClientVS22\source\UserInterface\InstanceBase.cpp
;	COMDAT ?__ClearArmorRefineEffect@CInstanceBase@@IAEXXZ
_TEXT	SEGMENT
?__ClearArmorRefineEffect@CInstanceBase@@IAEXXZ PROC	; CInstanceBase::__ClearArmorRefineEffect, COMDAT
; _this$ = ecx

; 2678 : {

  00000	56		 push	 esi
  00001	8b f1		 mov	 esi, ecx

; 2679 : 	if (m_armorRefineEffect)

  00003	8b 86 a4 01 00
	00		 mov	 eax, DWORD PTR [esi+420]
  00009	85 c0		 test	 eax, eax
  0000b	74 10		 je	 SHORT $LN2@ClearArmor

; 2680 : 	{
; 2681 : 		__DetachEffect(m_armorRefineEffect);

  0000d	50		 push	 eax
  0000e	e8 00 00 00 00	 call	 ?__DetachEffect@CInstanceBase@@IAEXK@Z ; CInstanceBase::__DetachEffect

; 2682 : 		m_armorRefineEffect = 0;

  00013	c7 86 a4 01 00
	00 00 00 00 00	 mov	 DWORD PTR [esi+420], 0
$LN2@ClearArmor:

; 2683 : 	}
; 2684 : }

  0001d	5e		 pop	 esi
  0001e	c3		 ret	 0
?__ClearArmorRefineEffect@CInstanceBase@@IAEXXZ ENDP	; CInstanceBase::__ClearArmorRefineEffect
_TEXT	ENDS
; Function compile flags: /Ogtp
; File D:\_m2work\Server Client TMP4\ClientVS22\source\UserInterface\InstanceBase.cpp
;	COMDAT ?__GetRefinedEffect@CInstanceBase@@IAEIPAVCItemData@@@Z
_TEXT	SEGMENT
_pItem$ = 8						; size = 4
?__GetRefinedEffect@CInstanceBase@@IAEIPAVCItemData@@@Z PROC ; CInstanceBase::__GetRefinedEffect, COMDAT
; _this$ = ecx

; 2687 : {

  00000	55		 push	 ebp
  00001	8b ec		 mov	 ebp, esp
  00003	53		 push	 ebx

; 2688 : 	DWORD refine = max(pItem->GetRefine() + pItem->GetSocketCount(),CItemData::ITEM_SOCKET_MAX_NUM) - CItemData::ITEM_SOCKET_MAX_NUM;

  00004	8b 5d 08	 mov	 ebx, DWORD PTR _pItem$[ebp]
  00007	56		 push	 esi
  00008	57		 push	 edi
  00009	8b f9		 mov	 edi, ecx
  0000b	8b cb		 mov	 ecx, ebx
  0000d	e8 00 00 00 00	 call	 ?GetRefine@CItemData@@QBEIXZ ; CItemData::GetRefine
  00012	8b cb		 mov	 ecx, ebx
  00014	8b f0		 mov	 esi, eax
  00016	e8 00 00 00 00	 call	 ?GetSocketCount@CItemData@@QBEHXZ ; CItemData::GetSocketCount
  0001b	03 f0		 add	 esi, eax
  0001d	83 fe 03	 cmp	 esi, 3
  00020	76 14		 jbe	 SHORT $LN22@GetRefined
  00022	8b cb		 mov	 ecx, ebx
  00024	e8 00 00 00 00	 call	 ?GetRefine@CItemData@@QBEIXZ ; CItemData::GetRefine
  00029	8b cb		 mov	 ecx, ebx
  0002b	8b f0		 mov	 esi, eax
  0002d	e8 00 00 00 00	 call	 ?GetSocketCount@CItemData@@QBEHXZ ; CItemData::GetSocketCount
  00032	03 f0		 add	 esi, eax
  00034	eb 05		 jmp	 SHORT $LN23@GetRefined
$LN22@GetRefined:
  00036	be 03 00 00 00	 mov	 esi, 3
$LN23@GetRefined:

; 2689 : 	switch (pItem->GetType())

  0003b	8b cb		 mov	 ecx, ebx
  0003d	83 c6 fd	 add	 esi, -3			; fffffffdH
  00040	e8 00 00 00 00	 call	 ?GetType@CItemData@@QBEEXZ ; CItemData::GetType
  00045	0f b6 c0	 movzx	 eax, al
  00048	83 e8 01	 sub	 eax, 1
  0004b	74 79		 je	 SHORT $LN6@GetRefined
  0004d	83 e8 01	 sub	 eax, 1
  00050	0f 85 e9 00 00
	00		 jne	 $LN30@GetRefined

; 2718 : 		break;
; 2719 : 	case CItemData::ITEM_TYPE_ARMOR:
; 2720 : 		__ClearArmorRefineEffect();

  00056	8b cf		 mov	 ecx, edi
  00058	e8 00 00 00 00	 call	 ?__ClearArmorRefineEffect@CInstanceBase@@IAEXXZ ; CInstanceBase::__ClearArmorRefineEffect

; 2721 : 
; 2722 : 		//   
; 2723 : 		if (pItem->GetSubType() == CItemData::ARMOR_BODY)

  0005d	8b cb		 mov	 ecx, ebx
  0005f	e8 00 00 00 00	 call	 ?GetSubType@CItemData@@QBEEXZ ; CItemData::GetSubType
  00064	84 c0		 test	 al, al
  00066	75 29		 jne	 SHORT $LN18@GetRefined

; 2724 : 		{
; 2725 : 			DWORD vnum = pItem->GetIndex();

  00068	8b cb		 mov	 ecx, ebx
  0006a	e8 00 00 00 00	 call	 ?GetIndex@CItemData@@QBEKXZ ; CItemData::GetIndex

; 2726 : 
; 2727 : 			if (12010 <= vnum && vnum <= 12049)

  0006f	05 16 d1 ff ff	 add	 eax, -12010		; ffffd116H
  00074	83 f8 27	 cmp	 eax, 39			; 00000027H
  00077	77 18		 ja	 SHORT $LN18@GetRefined

; 2728 : 			{
; 2729 : 				__AttachEffect(EFFECT_REFINED+EFFECT_BODYARMOR_SPECIAL);

  00079	68 f8 00 00 00	 push	 248			; 000000f8H
  0007e	8b cf		 mov	 ecx, edi
  00080	e8 00 00 00 00	 call	 ?__AttachEffect@CInstanceBase@@IAEKI@Z ; CInstanceBase::__AttachEffect

; 2730 : 				__AttachEffect(EFFECT_REFINED+EFFECT_BODYARMOR_SPECIAL2);

  00085	68 f9 00 00 00	 push	 249			; 000000f9H
  0008a	8b cf		 mov	 ecx, edi
  0008c	e8 00 00 00 00	 call	 ?__AttachEffect@CInstanceBase@@IAEKI@Z ; CInstanceBase::__AttachEffect
$LN18@GetRefined:

; 2731 : 			}
; 2732 : 		}
; 2733 : 
; 2734 : 		if (refine < 7)	//  7   .

  00091	83 fe 07	 cmp	 esi, 7
  00094	0f 82 a5 00 00
	00		 jb	 $LN30@GetRefined

; 2735 : 			return 0;
; 2736 : 
; 2737 : 		if (pItem->GetSubType() == CItemData::ARMOR_BODY)

  0009a	8b cb		 mov	 ecx, ebx
  0009c	e8 00 00 00 00	 call	 ?GetSubType@CItemData@@QBEEXZ ; CItemData::GetSubType
  000a1	84 c0		 test	 al, al
  000a3	0f 85 96 00 00
	00		 jne	 $LN30@GetRefined

; 2738 : 		{
; 2739 : 			m_armorRefineEffect = EFFECT_REFINED+EFFECT_BODYARMOR_REFINED7+refine-7;

  000a9	8d 86 ee 00 00
	00		 lea	 eax, DWORD PTR [esi+238]

; 2740 : 			__AttachEffect(m_armorRefineEffect);

  000af	8b cf		 mov	 ecx, edi
  000b1	50		 push	 eax
  000b2	89 87 a4 01 00
	00		 mov	 DWORD PTR [edi+420], eax
  000b8	e8 00 00 00 00	 call	 ?__AttachEffect@CInstanceBase@@IAEKI@Z ; CInstanceBase::__AttachEffect
  000bd	5f		 pop	 edi

; 2741 : 		}
; 2742 : 		break;
; 2743 : 	}
; 2744 : 	return 0;
; 2745 : }

  000be	5e		 pop	 esi
  000bf	33 c0		 xor	 eax, eax
  000c1	5b		 pop	 ebx
  000c2	5d		 pop	 ebp
  000c3	c2 04 00	 ret	 4
$LN6@GetRefined:

; 2690 : 	{
; 2691 : 	case CItemData::ITEM_TYPE_WEAPON:
; 2692 : 		__ClearWeaponRefineEffect();		

  000c6	8b cf		 mov	 ecx, edi
  000c8	e8 00 00 00 00	 call	 ?__ClearWeaponRefineEffect@CInstanceBase@@IAEXXZ ; CInstanceBase::__ClearWeaponRefineEffect

; 2693 : 		if (refine < 7)	//  7   .

  000cd	83 fe 07	 cmp	 esi, 7
  000d0	72 6d		 jb	 SHORT $LN30@GetRefined

; 2694 : 			return 0;
; 2695 : 		switch(pItem->GetSubType())

  000d2	8b cb		 mov	 ecx, ebx
  000d4	e8 00 00 00 00	 call	 ?GetSubType@CItemData@@QBEEXZ ; CItemData::GetSubType
  000d9	0f b6 c0	 movzx	 eax, al
  000dc	48		 dec	 eax
  000dd	83 f8 05	 cmp	 eax, 5
  000e0	77 28		 ja	 SHORT $LN13@GetRefined
  000e2	ff 24 85 00 00
	00 00		 jmp	 DWORD PTR $LN26@GetRefined[eax*4]
$LN8@GetRefined:

; 2696 : 		{
; 2697 : 		case CItemData::WEAPON_DAGGER:
; 2698 : 			m_swordRefineEffectRight = EFFECT_REFINED+EFFECT_SMALLSWORD_REFINED7+refine-7;
; 2699 : 			m_swordRefineEffectLeft = EFFECT_REFINED+EFFECT_SMALLSWORD_REFINED7_LEFT+refine-7;

  000e9	8d 86 eb 00 00
	00		 lea	 eax, DWORD PTR [esi+235]
  000ef	89 87 a0 01 00
	00		 mov	 DWORD PTR [edi+416], eax
$LN10@GetRefined:

; 2713 : 		}
; 2714 : 		if (m_swordRefineEffectRight)

  000f5	b8 e8 00 00 00	 mov	 eax, 232		; 000000e8H
  000fa	eb 13		 jmp	 SHORT $LN4@GetRefined
$LN9@GetRefined:

; 2700 : 			break;
; 2701 : 		case CItemData::WEAPON_FAN:
; 2702 : 			m_swordRefineEffectRight = EFFECT_REFINED+EFFECT_FANBELL_REFINED7+refine-7;

  000fc	b8 e5 00 00 00	 mov	 eax, 229		; 000000e5H

; 2703 : 			break;

  00101	eb 0c		 jmp	 SHORT $LN4@GetRefined
$LN12@GetRefined:

; 2704 : 		case CItemData::WEAPON_ARROW:
; 2705 : 		case CItemData::WEAPON_BELL:
; 2706 : 			m_swordRefineEffectRight = EFFECT_REFINED+EFFECT_SMALLSWORD_REFINED7+refine-7;
; 2707 : 			break;
; 2708 : 		case CItemData::WEAPON_BOW:
; 2709 : 			m_swordRefineEffectRight = EFFECT_REFINED+EFFECT_BOW_REFINED7+refine-7;

  00103	b8 e2 00 00 00	 mov	 eax, 226		; 000000e2H

; 2710 : 			break;

  00108	eb 05		 jmp	 SHORT $LN4@GetRefined
$LN13@GetRefined:

; 2711 : 		default:
; 2712 : 			m_swordRefineEffectRight = EFFECT_REFINED+EFFECT_SWORD_REFINED7+refine-7;

  0010a	b8 df 00 00 00	 mov	 eax, 223		; 000000dfH
$LN4@GetRefined:

; 2713 : 		}
; 2714 : 		if (m_swordRefineEffectRight)

  0010f	03 c6		 add	 eax, esi
  00111	89 87 9c 01 00
	00		 mov	 DWORD PTR [edi+412], eax
  00117	74 0e		 je	 SHORT $LN14@GetRefined

; 2715 : 			m_swordRefineEffectRight = __AttachEffect(m_swordRefineEffectRight);

  00119	50		 push	 eax
  0011a	8b cf		 mov	 ecx, edi
  0011c	e8 00 00 00 00	 call	 ?__AttachEffect@CInstanceBase@@IAEKI@Z ; CInstanceBase::__AttachEffect
  00121	89 87 9c 01 00
	00		 mov	 DWORD PTR [edi+412], eax
$LN14@GetRefined:

; 2716 : 		if (m_swordRefineEffectLeft)

  00127	8b 87 a0 01 00
	00		 mov	 eax, DWORD PTR [edi+416]
  0012d	85 c0		 test	 eax, eax
  0012f	74 0e		 je	 SHORT $LN30@GetRefined

; 2717 : 			m_swordRefineEffectLeft = __AttachEffect(m_swordRefineEffectLeft);

  00131	50		 push	 eax
  00132	8b cf		 mov	 ecx, edi
  00134	e8 00 00 00 00	 call	 ?__AttachEffect@CInstanceBase@@IAEKI@Z ; CInstanceBase::__AttachEffect
  00139	89 87 a0 01 00
	00		 mov	 DWORD PTR [edi+416], eax
$LN30@GetRefined:

; 2741 : 		}
; 2742 : 		break;
; 2743 : 	}
; 2744 : 	return 0;
; 2745 : }

  0013f	5f		 pop	 edi
  00140	5e		 pop	 esi
  00141	33 c0		 xor	 eax, eax
  00143	5b		 pop	 ebx
  00144	5d		 pop	 ebp
  00145	c2 04 00	 ret	 4
$LN26@GetRefined:
  00148	00 00 00 00	 DD	 $LN8@GetRefined
  0014c	00 00 00 00	 DD	 $LN12@GetRefined
  00150	00 00 00 00	 DD	 $LN13@GetRefined
  00154	00 00 00 00	 DD	 $LN10@GetRefined
  00158	00 00 00 00	 DD	 $LN9@GetRefined
  0015c	00 00 00 00	 DD	 $LN10@GetRefined
?__GetRefinedEffect@CInstanceBase@@IAEIPAVCItemData@@@Z ENDP ; CInstanceBase::__GetRefinedEffect
_TEXT	ENDS
; Function compile flags: /Ogtp
; File D:\_m2work\Server Client TMP4\ClientVS22\source\UserInterface\InstanceBase.cpp
;	COMDAT ?SetWeapon@CInstanceBase@@QAE_NK@Z
_TEXT	SEGMENT
_pItemData$ = -4					; size = 4
_eWeapon$ = 8						; size = 4
?SetWeapon@CInstanceBase@@QAE_NK@Z PROC			; CInstanceBase::SetWeapon, COMDAT
; _this$ = ecx

; 2748 : {

  00000	55		 push	 ebp
  00001	8b ec		 mov	 ebp, esp
  00003	51		 push	 ecx
  00004	53		 push	 ebx
  00005	8b d9		 mov	 ebx, ecx

; 2749 : 	if (IsPoly())

  00007	e8 00 00 00 00	 call	 ?IsPoly@CInstanceBase@@QAEHXZ ; CInstanceBase::IsPoly
  0000c	85 c0		 test	 eax, eax
  0000e	75 64		 jne	 SHORT $LN8@SetWeapon

; 2750 : 		return false;
; 2751 : 	
; 2752 : 	if (__IsShapeAnimalWear())

  00010	8b cb		 mov	 ecx, ebx
  00012	e8 00 00 00 00	 call	 ?__IsShapeAnimalWear@CInstanceBase@@IAE_NXZ ; CInstanceBase::__IsShapeAnimalWear
  00017	84 c0		 test	 al, al
  00019	75 59		 jne	 SHORT $LN8@SetWeapon

; 2754 : 	
; 2755 : 	if (__IsChangableWeapon(eWeapon) == false)

  0001b	57		 push	 edi
  0001c	ff 75 08	 push	 DWORD PTR _eWeapon$[ebp]
  0001f	e8 00 00 00 00	 call	 ?__IsChangableWeapon@CInstanceBase@@IAEHH@Z ; CInstanceBase::__IsChangableWeapon

; 2756 : 		eWeapon = 0;
; 2757 : 
; 2758 : 	m_GraphicThingInstance.AttachWeapon(eWeapon);

  00024	f7 d8		 neg	 eax
  00026	8d 8b d4 01 00
	00		 lea	 ecx, DWORD PTR [ebx+468]
  0002c	6a 01		 push	 1
  0002e	1b ff		 sbb	 edi, edi
  00030	23 7d 08	 and	 edi, DWORD PTR _eWeapon$[ebp]
  00033	6a 00		 push	 0
  00035	57		 push	 edi
  00036	e8 00 00 00 00	 call	 ?AttachWeapon@CActorInstance@@QAEXKKK@Z ; CActorInstance::AttachWeapon

; 2759 : 	m_awPart[CRaceData::PART_WEAPON] = eWeapon;
; 2760 : 	
; 2761 : 	//Weapon Effect
; 2762 : 	CItemData * pItemData;
; 2763 : 	if (CItemManager::Instance().GetItemDataPointer(eWeapon, &pItemData))

  0003b	8d 45 fc	 lea	 eax, DWORD PTR _pItemData$[ebp]
  0003e	89 7b 2c	 mov	 DWORD PTR [ebx+44], edi
  00041	8b 0d 00 00 00
	00		 mov	 ecx, DWORD PTR ?ms_singleton@?$CSingleton@VCItemManager@@@@0PAVCItemManager@@A ; CSingleton<CItemManager>::ms_singleton
  00047	50		 push	 eax
  00048	57		 push	 edi
  00049	e8 00 00 00 00	 call	 ?GetItemDataPointer@CItemManager@@QAEHKPAPAVCItemData@@@Z ; CItemManager::GetItemDataPointer
  0004e	8b cb		 mov	 ecx, ebx
  00050	5f		 pop	 edi
  00051	85 c0		 test	 eax, eax
  00053	74 11		 je	 SHORT $LN5@SetWeapon

; 2764 : 		__GetRefinedEffect(pItemData);

  00055	ff 75 fc	 push	 DWORD PTR _pItemData$[ebp]
  00058	e8 00 00 00 00	 call	 ?__GetRefinedEffect@CInstanceBase@@IAEIPAVCItemData@@@Z ; CInstanceBase::__GetRefinedEffect

; 2767 : 
; 2768 : 	return true;

  0005d	b0 01		 mov	 al, 1
  0005f	5b		 pop	 ebx

; 2769 : }

  00060	8b e5		 mov	 esp, ebp
  00062	5d		 pop	 ebp
  00063	c2 04 00	 ret	 4
$LN5@SetWeapon:

; 2765 : 	else
; 2766 : 		__ClearWeaponRefineEffect();

  00066	e8 00 00 00 00	 call	 ?__ClearWeaponRefineEffect@CInstanceBase@@IAEXXZ ; CInstanceBase::__ClearWeaponRefineEffect

; 2767 : 
; 2768 : 	return true;

  0006b	b0 01		 mov	 al, 1
  0006d	5b		 pop	 ebx

; 2769 : }

  0006e	8b e5		 mov	 esp, ebp
  00070	5d		 pop	 ebp
  00071	c2 04 00	 ret	 4
$LN8@SetWeapon:

; 2753 : 		return false;

  00074	32 c0		 xor	 al, al
  00076	5b		 pop	 ebx

; 2769 : }

  00077	8b e5		 mov	 esp, ebp
  00079	5d		 pop	 ebp
  0007a	c2 04 00	 ret	 4
?SetWeapon@CInstanceBase@@QAE_NK@Z ENDP			; CInstanceBase::SetWeapon
_TEXT	ENDS
; Function compile flags: /Ogtp
; File D:\_m2work\Server Client TMP4\ClientVS22\source\UserInterface\InstanceBase.cpp
;	COMDAT ?ChangeWeapon@CInstanceBase@@QAEXK@Z
_TEXT	SEGMENT
_eWeapon$ = 8						; size = 4
?ChangeWeapon@CInstanceBase@@QAEXK@Z PROC		; CInstanceBase::ChangeWeapon, COMDAT
; _this$ = ecx

; 2772 : {

  00000	55		 push	 ebp
  00001	8b ec		 mov	 ebp, esp
  00003	56		 push	 esi
  00004	8b f1		 mov	 esi, ecx

; 2773 : 	if (eWeapon == m_GraphicThingInstance.GetPartItemID(CRaceData::PART_WEAPON))

  00006	6a 01		 push	 1
  00008	8d 8e d4 01 00
	00		 lea	 ecx, DWORD PTR [esi+468]
  0000e	e8 00 00 00 00	 call	 ?GetPartItemID@CActorInstance@@QAEKK@Z ; CActorInstance::GetPartItemID
  00013	8b 4d 08	 mov	 ecx, DWORD PTR _eWeapon$[ebp]
  00016	3b c8		 cmp	 ecx, eax
  00018	74 17		 je	 SHORT $LN3@ChangeWeap

; 2774 : 		return;
; 2775 : 
; 2776 : 	if (SetWeapon(eWeapon))

  0001a	51		 push	 ecx
  0001b	8b ce		 mov	 ecx, esi
  0001d	e8 00 00 00 00	 call	 ?SetWeapon@CInstanceBase@@QAE_NK@Z ; CInstanceBase::SetWeapon
  00022	84 c0		 test	 al, al
  00024	74 0b		 je	 SHORT $LN3@ChangeWeap

; 2777 : 		RefreshState(CRaceMotionData::NAME_WAIT, true);

  00026	6a 01		 push	 1
  00028	6a 01		 push	 1
  0002a	8b ce		 mov	 ecx, esi
  0002c	e8 00 00 00 00	 call	 ?RefreshState@CInstanceBase@@IAEXK_N@Z ; CInstanceBase::RefreshState
$LN3@ChangeWeap:
  00031	5e		 pop	 esi

; 2778 : }

  00032	5d		 pop	 ebp
  00033	c2 04 00	 ret	 4
?ChangeWeapon@CInstanceBase@@QAEXK@Z ENDP		; CInstanceBase::ChangeWeapon
_TEXT	ENDS
; Function compile flags: /Ogtp
; File D:\_m2work\Server Client TMP4\ClientVS22\source\UserInterface\InstanceBase.cpp
;	COMDAT ?ChangeArmor@CInstanceBase@@QAE_NK@Z
_TEXT	SEGMENT
_fAdvRot$1$ = -36					; size = 4
_fRot$1$ = -32						; size = 4
_eWeapon$1$ = -28					; size = 4
_eHair$1$ = -24						; size = 4
_eShape$ = -20						; size = 4
_dwVID$1$ = -20						; size = 4
_kAffectFlagContainer$ = -16				; size = 8
__$ArrayPad$ = -8					; size = 4
_dwArmor$ = 8						; size = 4
?ChangeArmor@CInstanceBase@@QAE_NK@Z PROC		; CInstanceBase::ChangeArmor, COMDAT
; _this$ = ecx

; 2781 : {

  00000	55		 push	 ebp
  00001	8b ec		 mov	 ebp, esp
  00003	83 ec 24	 sub	 esp, 36			; 00000024H
  00006	a1 00 00 00 00	 mov	 eax, DWORD PTR ___security_cookie
  0000b	33 c5		 xor	 eax, ebp
  0000d	89 45 f8	 mov	 DWORD PTR __$ArrayPad$[ebp], eax
  00010	56		 push	 esi
  00011	8b f1		 mov	 esi, ecx

; 2782 : 	DWORD eShape;
; 2783 : 	__ArmorVnumToShape(dwArmor, &eShape);

  00013	8d 55 ec	 lea	 edx, DWORD PTR _eShape$[ebp]
  00016	8b 4d 08	 mov	 ecx, DWORD PTR _dwArmor$[ebp]
  00019	57		 push	 edi
  0001a	e8 00 00 00 00	 call	 ?__ArmorVnumToShape@@YA_NHPAK@Z ; __ArmorVnumToShape

; 2784 : 
; 2785 : 	if (GetShape()==eShape)

  0001f	8b ce		 mov	 ecx, esi
  00021	e8 00 00 00 00	 call	 ?GetShape@CInstanceBase@@QAEKXZ ; CInstanceBase::GetShape
  00026	3b 45 ec	 cmp	 eax, DWORD PTR _eShape$[ebp]
  00029	0f 84 8c 00 00
	00		 je	 $LN7@ChangeArmo

; 2786 : 		return false;
; 2787 : 
; 2788 : 	CAffectFlagContainer kAffectFlagContainer;

  0002f	8d 4d f0	 lea	 ecx, DWORD PTR _kAffectFlagContainer$[ebp]
  00032	e8 00 00 00 00	 call	 ??0CAffectFlagContainer@@QAE@XZ ; CAffectFlagContainer::CAffectFlagContainer

; 2789 : 	kAffectFlagContainer.CopyInstance(m_kAffectFlagContainer);

  00037	8d 46 48	 lea	 eax, DWORD PTR [esi+72]
  0003a	50		 push	 eax
  0003b	e8 00 00 00 00	 call	 ?CopyInstance@CAffectFlagContainer@@QAEXABV1@@Z ; CAffectFlagContainer::CopyInstance

; 2790 : 
; 2791 : 	DWORD dwVID = GetVirtualID();

  00040	8b ce		 mov	 ecx, esi
  00042	e8 00 00 00 00	 call	 ?GetVirtualID@CInstanceBase@@QAEKXZ ; CInstanceBase::GetVirtualID

; 2792 : 	DWORD dwRace = GetRace();

  00047	8b ce		 mov	 ecx, esi
  00049	89 45 ec	 mov	 DWORD PTR _dwVID$1$[ebp], eax
  0004c	e8 00 00 00 00	 call	 ?GetRace@CInstanceBase@@QAEKXZ ; CInstanceBase::GetRace

; 2793 : 	DWORD eHair = GetPart(CRaceData::PART_HAIR);

  00051	6a 04		 push	 4
  00053	8b f8		 mov	 edi, eax
  00055	e8 00 00 00 00	 call	 ?GetPart@CInstanceBase@@QAEKW4EParts@CRaceData@@@Z ; CInstanceBase::GetPart

; 2794 : 	DWORD eWeapon = GetPart(CRaceData::PART_WEAPON);

  0005a	6a 01		 push	 1
  0005c	89 45 e8	 mov	 DWORD PTR _eHair$1$[ebp], eax
  0005f	e8 00 00 00 00	 call	 ?GetPart@CInstanceBase@@QAEKW4EParts@CRaceData@@@Z ; CInstanceBase::GetPart
  00064	89 45 e4	 mov	 DWORD PTR _eWeapon$1$[ebp], eax

; 2795 : 	float fRot = GetRotation();

  00067	e8 00 00 00 00	 call	 ?GetRotation@CInstanceBase@@QAEMXZ ; CInstanceBase::GetRotation

; 2796 : 	float fAdvRot = GetAdvancingRotation();

  0006c	8b ce		 mov	 ecx, esi
  0006e	f3 0f 11 45 e0	 movss	 DWORD PTR _fRot$1$[ebp], xmm0
  00073	e8 00 00 00 00	 call	 ?GetAdvancingRotation@CInstanceBase@@QAEMXZ ; CInstanceBase::GetAdvancingRotation

; 2797 : 
; 2798 : 	if (IsWalking())

  00078	8b ce		 mov	 ecx, esi
  0007a	f3 0f 11 45 dc	 movss	 DWORD PTR _fAdvRot$1$[ebp], xmm0
  0007f	e8 00 00 00 00	 call	 ?IsWalking@CInstanceBase@@QAEHXZ ; CInstanceBase::IsWalking
  00084	85 c0		 test	 eax, eax
  00086	74 0f		 je	 SHORT $LN3@ChangeArmo

; 2799 : 		EndWalking();

  00088	f3 0f 10 0d 00
	00 00 00	 movss	 xmm1, DWORD PTR __real@3e19999a
  00090	8b ce		 mov	 ecx, esi
  00092	e8 00 00 00 00	 call	 ?EndWalking@CInstanceBase@@QAEXM@Z ; CInstanceBase::EndWalking
$LN3@ChangeArmo:

; 2800 : 
; 2801 : 	// 2004.07.25.myevan.   
; 2802 : 	//////////////////////////////////////////////////////
; 2803 : 	__ClearAffects();

  00097	8b ce		 mov	 ecx, esi
  00099	e8 00 00 00 00	 call	 ?__ClearAffects@CInstanceBase@@QAEXXZ ; CInstanceBase::__ClearAffects

; 2804 : 	//////////////////////////////////////////////////////
; 2805 : 
; 2806 : 	if (!SetRace(dwRace))

  0009e	57		 push	 edi
  0009f	8b ce		 mov	 ecx, esi
  000a1	e8 00 00 00 00	 call	 ?SetRace@CInstanceBase@@QAE_NK@Z ; CInstanceBase::SetRace
  000a6	84 c0		 test	 al, al
  000a8	75 25		 jne	 SHORT $LN4@ChangeArmo

; 2807 : 	{
; 2808 : 		TraceError("CPythonCharacterManager::ChangeArmor - SetRace VID[%d] Race[%d] ERROR", dwVID, dwRace);

  000aa	57		 push	 edi
  000ab	ff 75 ec	 push	 DWORD PTR _dwVID$1$[ebp]
  000ae	68 00 00 00 00	 push	 OFFSET ??_C@_0EG@MNIPPABI@CPythonCharacterManager?3?3Change@
  000b3	e8 00 00 00 00	 call	 ?TraceError@@YAXPBDZZ	; TraceError
  000b8	83 c4 0c	 add	 esp, 12			; 0000000cH
$LN7@ChangeArmo:

; 2830 : 
; 2831 : 	return true;
; 2832 : }

  000bb	32 c0		 xor	 al, al
  000bd	5f		 pop	 edi
  000be	5e		 pop	 esi
  000bf	8b 4d f8	 mov	 ecx, DWORD PTR __$ArrayPad$[ebp]
  000c2	33 cd		 xor	 ecx, ebp
  000c4	e8 00 00 00 00	 call	 @__security_check_cookie@4
  000c9	8b e5		 mov	 esp, ebp
  000cb	5d		 pop	 ebp
  000cc	c2 04 00	 ret	 4
$LN4@ChangeArmo:

; 2809 : 		return false;
; 2810 : 	}
; 2811 : 
; 2812 : 	SetArmor(dwArmor);

  000cf	ff 75 08	 push	 DWORD PTR _dwArmor$[ebp]
  000d2	8b ce		 mov	 ecx, esi
  000d4	e8 00 00 00 00	 call	 ?SetArmor@CInstanceBase@@QAEXK@Z ; CInstanceBase::SetArmor

; 2813 : 	SetHair(eHair);

  000d9	ff 75 e8	 push	 DWORD PTR _eHair$1$[ebp]
  000dc	8b ce		 mov	 ecx, esi
  000de	e8 00 00 00 00	 call	 ?SetHair@CInstanceBase@@QAEXK@Z ; CInstanceBase::SetHair

; 2814 : 	SetWeapon(eWeapon);

  000e3	ff 75 e4	 push	 DWORD PTR _eWeapon$1$[ebp]
  000e6	8b ce		 mov	 ecx, esi
  000e8	e8 00 00 00 00	 call	 ?SetWeapon@CInstanceBase@@QAE_NK@Z ; CInstanceBase::SetWeapon

; 2815 : 
; 2816 : 	SetRotation(fRot);

  000ed	f3 0f 10 4d e0	 movss	 xmm1, DWORD PTR _fRot$1$[ebp]
  000f2	8b ce		 mov	 ecx, esi
  000f4	e8 00 00 00 00	 call	 ?SetRotation@CInstanceBase@@QAEXM@Z ; CInstanceBase::SetRotation

; 2817 : 	SetAdvancingRotation(fAdvRot);

  000f9	f3 0f 10 4d dc	 movss	 xmm1, DWORD PTR _fAdvRot$1$[ebp]
  000fe	8b ce		 mov	 ecx, esi
  00100	e8 00 00 00 00	 call	 ?SetAdvancingRotation@CInstanceBase@@QAEXM@Z ; CInstanceBase::SetAdvancingRotation

; 2818 : 
; 2819 : 	__AttachHorseSaddle();

  00105	8b ce		 mov	 ecx, esi
  00107	e8 00 00 00 00	 call	 ?__AttachHorseSaddle@CInstanceBase@@IAEXXZ ; CInstanceBase::__AttachHorseSaddle

; 2820 : 
; 2821 : 	RefreshState(CRaceMotionData::NAME_WAIT, TRUE);

  0010c	6a 01		 push	 1
  0010e	6a 01		 push	 1
  00110	8b ce		 mov	 ecx, esi
  00112	e8 00 00 00 00	 call	 ?RefreshState@CInstanceBase@@IAEXK_N@Z ; CInstanceBase::RefreshState

; 2822 : 
; 2823 : 	// 2004.07.25.myevan.   
; 2824 : 	/////////////////////////////////////////////////
; 2825 : 	SetAffectFlagContainer(kAffectFlagContainer);

  00117	8d 45 f0	 lea	 eax, DWORD PTR _kAffectFlagContainer$[ebp]
  0011a	8b ce		 mov	 ecx, esi
  0011c	50		 push	 eax
  0011d	e8 00 00 00 00	 call	 ?SetAffectFlagContainer@CInstanceBase@@QAEXABVCAffectFlagContainer@@@Z ; CInstanceBase::SetAffectFlagContainer

; 2826 : 	/////////////////////////////////////////////////
; 2827 : 
; 2828 : 	CActorInstance::IEventHandler& rkEventHandler=GetEventHandlerRef();

  00122	8b ce		 mov	 ecx, esi
  00124	e8 00 00 00 00	 call	 ?GetEventHandlerRef@CInstanceBase@@IAEAAVIEventHandler@CActorInstance@@XZ ; CInstanceBase::GetEventHandlerRef

; 2829 : 	rkEventHandler.OnChangeShape();

  00129	8b c8		 mov	 ecx, eax
  0012b	8b 10		 mov	 edx, DWORD PTR [eax]
  0012d	ff 52 34	 call	 DWORD PTR [edx+52]

; 2830 : 
; 2831 : 	return true;
; 2832 : }

  00130	8b 4d f8	 mov	 ecx, DWORD PTR __$ArrayPad$[ebp]
  00133	b0 01		 mov	 al, 1
  00135	5f		 pop	 edi
  00136	33 cd		 xor	 ecx, ebp
  00138	5e		 pop	 esi
  00139	e8 00 00 00 00	 call	 @__security_check_cookie@4
  0013e	8b e5		 mov	 esp, ebp
  00140	5d		 pop	 ebp
  00141	c2 04 00	 ret	 4
?ChangeArmor@CInstanceBase@@QAE_NK@Z ENDP		; CInstanceBase::ChangeArmor
_TEXT	ENDS
; Function compile flags: /Ogtp
; File D:\_m2work\Server Client TMP4\ClientVS22\source\UserInterface\InstanceBase.cpp
;	COMDAT ?__IsShapeAnimalWear@CInstanceBase@@IAE_NXZ
_TEXT	SEGMENT
?__IsShapeAnimalWear@CInstanceBase@@IAE_NXZ PROC	; CInstanceBase::__IsShapeAnimalWear, COMDAT
; _this$ = ecx

; 2836 : 	if (100 == GetShape() ||
; 2837 : 		101 == GetShape() ||
; 2838 : 		102 == GetShape() ||

  00000	e8 00 00 00 00	 call	 ?GetShape@CInstanceBase@@QAEKXZ ; CInstanceBase::GetShape
  00005	83 f8 64	 cmp	 eax, 100		; 00000064H
  00008	74 20		 je	 SHORT $LN3@IsShapeAni
  0000a	e8 00 00 00 00	 call	 ?GetShape@CInstanceBase@@QAEKXZ ; CInstanceBase::GetShape
  0000f	83 f8 65	 cmp	 eax, 101		; 00000065H
  00012	74 16		 je	 SHORT $LN3@IsShapeAni
  00014	e8 00 00 00 00	 call	 ?GetShape@CInstanceBase@@QAEKXZ ; CInstanceBase::GetShape
  00019	83 f8 66	 cmp	 eax, 102		; 00000066H
  0001c	74 0c		 je	 SHORT $LN3@IsShapeAni
  0001e	e8 00 00 00 00	 call	 ?GetShape@CInstanceBase@@QAEKXZ ; CInstanceBase::GetShape
  00023	83 f8 67	 cmp	 eax, 103		; 00000067H
  00026	0f 94 c0	 sete	 al

; 2841 : 
; 2842 : 	return false;
; 2843 : }

  00029	c3		 ret	 0
$LN3@IsShapeAni:

; 2839 : 		103 == GetShape())
; 2840 : 		return true;

  0002a	b0 01		 mov	 al, 1

; 2841 : 
; 2842 : 	return false;
; 2843 : }

  0002c	c3		 ret	 0
?__IsShapeAnimalWear@CInstanceBase@@IAE_NXZ ENDP	; CInstanceBase::__IsShapeAnimalWear
_TEXT	ENDS
; Function compile flags: /Ogtp
; File D:\_m2work\Server Client TMP4\ClientVS22\source\UserInterface\InstanceBase.cpp
;	COMDAT ?RefreshState@CInstanceBase@@IAEXK_N@Z
_TEXT	SEGMENT
_pItemData$ = -4					; size = 4
_dwMotIndex$ = 8					; size = 4
_isLoop$ = 12						; size = 1
?RefreshState@CInstanceBase@@IAEXK_N@Z PROC		; CInstanceBase::RefreshState, COMDAT
; _this$ = ecx

; 2852 : {

  00000	55		 push	 ebp
  00001	8b ec		 mov	 ebp, esp
  00003	51		 push	 ecx
  00004	53		 push	 ebx
  00005	56		 push	 esi
  00006	8b f1		 mov	 esi, ecx
  00008	57		 push	 edi

; 2853 : 	DWORD dwPartItemID = m_GraphicThingInstance.GetPartItemID(CRaceData::PART_WEAPON);

  00009	6a 01		 push	 1
  0000b	8d be d4 01 00
	00		 lea	 edi, DWORD PTR [esi+468]
  00011	8b cf		 mov	 ecx, edi
  00013	e8 00 00 00 00	 call	 ?GetPartItemID@CActorInstance@@QAEKK@Z ; CActorInstance::GetPartItemID

; 2854 : 
; 2855 : 	BYTE byItemType = 0xff;
; 2856 : 	BYTE bySubType = 0xff;
; 2857 : 
; 2858 : 	CItemManager & rkItemMgr = CItemManager::Instance();
; 2859 : 	CItemData * pItemData;
; 2860 : 	
; 2861 : 	if (rkItemMgr.GetItemDataPointer(dwPartItemID, &pItemData))

  00018	8d 4d fc	 lea	 ecx, DWORD PTR _pItemData$[ebp]
  0001b	80 cb ff	 or	 bl, 255			; 000000ffH
  0001e	51		 push	 ecx
  0001f	8b 0d 00 00 00
	00		 mov	 ecx, DWORD PTR ?ms_singleton@?$CSingleton@VCItemManager@@@@0PAVCItemManager@@A ; CSingleton<CItemManager>::ms_singleton
  00025	80 cf ff	 or	 bh, 255			; 000000ffH
  00028	50		 push	 eax
  00029	e8 00 00 00 00	 call	 ?GetItemDataPointer@CItemManager@@QAEHKPAPAVCItemData@@@Z ; CItemManager::GetItemDataPointer
  0002e	85 c0		 test	 eax, eax
  00030	74 14		 je	 SHORT $LN6@RefreshSta

; 2862 : 	{
; 2863 : 		byItemType = pItemData->GetType();

  00032	8b 4d fc	 mov	 ecx, DWORD PTR _pItemData$[ebp]
  00035	e8 00 00 00 00	 call	 ?GetType@CItemData@@QBEEXZ ; CItemData::GetType

; 2864 : 		bySubType = pItemData->GetWeaponType();

  0003a	8b 4d fc	 mov	 ecx, DWORD PTR _pItemData$[ebp]
  0003d	8a d8		 mov	 bl, al
  0003f	e8 00 00 00 00	 call	 ?GetWeaponType@CItemData@@QBEKXZ ; CItemData::GetWeaponType
  00044	8a f8		 mov	 bh, al
$LN6@RefreshSta:

; 2865 : 	}
; 2866 : 
; 2867 : 	if (IsPoly())

  00046	8b ce		 mov	 ecx, esi
  00048	e8 00 00 00 00	 call	 ?IsPoly@CInstanceBase@@QAEHXZ ; CInstanceBase::IsPoly
  0004d	85 c0		 test	 eax, eax
  0004f	0f 85 35 01 00
	00		 jne	 $LN50@RefreshSta

; 2868 : 	{
; 2869 : 		SetMotionMode(CRaceMotionData::MODE_GENERAL);
; 2870 : 	}
; 2871 : 	else if (IsWearingDress())

  00055	8b ce		 mov	 ecx, esi
  00057	e8 00 00 00 00	 call	 ?IsWearingDress@CInstanceBase@@QAEHXZ ; CInstanceBase::IsWearingDress
  0005c	85 c0		 test	 eax, eax
  0005e	74 0a		 je	 SHORT $LN9@RefreshSta

; 2872 : 	{
; 2873 : 		SetMotionMode(CRaceMotionData::MODE_WEDDING_DRESS);

  00060	b8 10 00 00 00	 mov	 eax, 16			; 00000010H

; 2874 : 	}

  00065	e9 25 01 00 00	 jmp	 $LN4@RefreshSta
$LN9@RefreshSta:

; 2875 : 	else if (IsHoldingPickAxe())

  0006a	e8 00 00 00 00	 call	 ?IsHoldingPickAxe@CInstanceBase@@QAEHXZ ; CInstanceBase::IsHoldingPickAxe
  0006f	8d 4e 04	 lea	 ecx, DWORD PTR [esi+4]
  00072	85 c0		 test	 eax, eax
  00074	74 1a		 je	 SHORT $LN11@RefreshSta

; 2876 : 	{
; 2877 : 		if (m_kHorse.IsMounting())

  00076	e8 00 00 00 00	 call	 ?IsMounting@SHORSE@CInstanceBase@@QAE_NXZ ; CInstanceBase::SHORSE::IsMounting

; 2878 : 		{
; 2879 : 			SetMotionMode(CRaceMotionData::MODE_HORSE);
; 2880 : 		}
; 2881 : 		else
; 2882 : 		{
; 2883 : 			SetMotionMode(CRaceMotionData::MODE_GENERAL);
; 2884 : 		}
; 2885 : 	}

  0007b	0f b6 c0	 movzx	 eax, al
  0007e	8d be d4 01 00
	00		 lea	 edi, DWORD PTR [esi+468]
  00084	8d 04 c5 01 00
	00 00		 lea	 eax, DWORD PTR [eax*8+1]
  0008b	e9 ff 00 00 00	 jmp	 $LN4@RefreshSta
$LN11@RefreshSta:

; 2886 : 	else if (CItemData::ITEM_TYPE_ROD == byItemType)

  00090	80 fb 0d	 cmp	 bl, 13			; 0000000dH
  00093	75 16		 jne	 SHORT $LN15@RefreshSta

; 2887 : 	{
; 2888 : 		if (m_kHorse.IsMounting())

  00095	e8 00 00 00 00	 call	 ?IsMounting@SHORSE@CInstanceBase@@QAE_NXZ ; CInstanceBase::SHORSE::IsMounting

; 2889 : 		{
; 2890 : 			SetMotionMode(CRaceMotionData::MODE_HORSE);
; 2891 : 		}
; 2892 : 		else
; 2893 : 		{
; 2894 : 			SetMotionMode(CRaceMotionData::MODE_FISHING);
; 2895 : 		}
; 2896 : 	}

  0009a	0f b6 c0	 movzx	 eax, al
  0009d	8d be d4 01 00
	00		 lea	 edi, DWORD PTR [esi+468]
  000a3	83 c0 08	 add	 eax, 8
  000a6	e9 e4 00 00 00	 jmp	 $LN4@RefreshSta
$LN15@RefreshSta:

; 2897 : 	else if (m_kHorse.IsMounting())

  000ab	0f b6 d7	 movzx	 edx, bh
  000ae	e8 00 00 00 00	 call	 ?IsMounting@SHORSE@CInstanceBase@@QAE_NXZ ; CInstanceBase::SHORSE::IsMounting
  000b3	84 c0		 test	 al, al
  000b5	74 73		 je	 SHORT $LN19@RefreshSta

; 2898 : 	{
; 2899 : 		switch (bySubType)

  000b7	83 fa 05	 cmp	 edx, 5
  000ba	77 61		 ja	 SHORT $LN27@RefreshSta
  000bc	ff 24 95 00 00
	00 00		 jmp	 DWORD PTR $LN39@RefreshSta[edx*4]
$LN21@RefreshSta:

; 2900 : 		{
; 2901 : 			case CItemData::WEAPON_SWORD:
; 2902 : 				SetMotionMode(CRaceMotionData::MODE_HORSE_ONEHAND_SWORD);

  000c3	b8 0a 00 00 00	 mov	 eax, 10			; 0000000aH

; 2927 : 				break;
; 2928 : 		}
; 2929 : 	}

  000c8	8d be d4 01 00
	00		 lea	 edi, DWORD PTR [esi+468]
  000ce	e9 bc 00 00 00	 jmp	 $LN4@RefreshSta
$LN22@RefreshSta:

; 2903 : 				break;
; 2904 : 
; 2905 : 			case CItemData::WEAPON_TWO_HANDED:
; 2906 : 				SetMotionMode(CRaceMotionData::MODE_HORSE_TWOHAND_SWORD); // Only Warrior

  000d3	b8 0b 00 00 00	 mov	 eax, 11			; 0000000bH

; 2927 : 				break;
; 2928 : 		}
; 2929 : 	}

  000d8	8d be d4 01 00
	00		 lea	 edi, DWORD PTR [esi+468]
  000de	e9 ac 00 00 00	 jmp	 $LN4@RefreshSta
$LN23@RefreshSta:

; 2907 : 				break;
; 2908 : 
; 2909 : 			case CItemData::WEAPON_DAGGER:
; 2910 : 				SetMotionMode(CRaceMotionData::MODE_HORSE_DUALHAND_SWORD); // Only Assassin

  000e3	b8 0c 00 00 00	 mov	 eax, 12			; 0000000cH

; 2927 : 				break;
; 2928 : 		}
; 2929 : 	}

  000e8	8d be d4 01 00
	00		 lea	 edi, DWORD PTR [esi+468]
  000ee	e9 9c 00 00 00	 jmp	 $LN4@RefreshSta
$LN24@RefreshSta:

; 2911 : 				break;
; 2912 : 
; 2913 : 			case CItemData::WEAPON_FAN:
; 2914 : 				SetMotionMode(CRaceMotionData::MODE_HORSE_FAN); // Only Shaman

  000f3	b8 0e 00 00 00	 mov	 eax, 14			; 0000000eH

; 2927 : 				break;
; 2928 : 		}
; 2929 : 	}

  000f8	8d be d4 01 00
	00		 lea	 edi, DWORD PTR [esi+468]
  000fe	e9 8c 00 00 00	 jmp	 $LN4@RefreshSta
$LN25@RefreshSta:

; 2915 : 				break;
; 2916 : 
; 2917 : 			case CItemData::WEAPON_BELL:
; 2918 : 				SetMotionMode(CRaceMotionData::MODE_HORSE_BELL); // Only Shaman

  00103	b8 0f 00 00 00	 mov	 eax, 15			; 0000000fH

; 2927 : 				break;
; 2928 : 		}
; 2929 : 	}

  00108	8d be d4 01 00
	00		 lea	 edi, DWORD PTR [esi+468]
  0010e	eb 7f		 jmp	 SHORT $LN4@RefreshSta
$LN26@RefreshSta:

; 2919 : 				break;
; 2920 : 
; 2921 : 			case CItemData::WEAPON_BOW:
; 2922 : 				SetMotionMode(CRaceMotionData::MODE_HORSE_BOW); // Only Shaman

  00110	b8 0d 00 00 00	 mov	 eax, 13			; 0000000dH

; 2927 : 				break;
; 2928 : 		}
; 2929 : 	}

  00115	8d be d4 01 00
	00		 lea	 edi, DWORD PTR [esi+468]
  0011b	eb 72		 jmp	 SHORT $LN4@RefreshSta
$LN27@RefreshSta:

; 2923 : 				break;
; 2924 : 
; 2925 : 			default:
; 2926 : 				SetMotionMode(CRaceMotionData::MODE_HORSE);

  0011d	b8 09 00 00 00	 mov	 eax, 9

; 2927 : 				break;
; 2928 : 		}
; 2929 : 	}

  00122	8d be d4 01 00
	00		 lea	 edi, DWORD PTR [esi+468]
  00128	eb 65		 jmp	 SHORT $LN4@RefreshSta
$LN19@RefreshSta:

; 2930 : 	else
; 2931 : 	{
; 2932 : 		switch (bySubType)

  0012a	83 fa 06	 cmp	 edx, 6
  0012d	77 55		 ja	 SHORT $LN34@RefreshSta
  0012f	ff 24 95 00 00
	00 00		 jmp	 DWORD PTR $LN40@RefreshSta[edx*4]
$LN28@RefreshSta:

; 2933 : 		{
; 2934 : 			case CItemData::WEAPON_SWORD:
; 2935 : 				SetMotionMode(CRaceMotionData::MODE_ONEHAND_SWORD);

  00136	b8 02 00 00 00	 mov	 eax, 2

; 2936 : 				break;

  0013b	8d be d4 01 00
	00		 lea	 edi, DWORD PTR [esi+468]
  00141	eb 4c		 jmp	 SHORT $LN4@RefreshSta
$LN29@RefreshSta:

; 2937 : 
; 2938 : 			case CItemData::WEAPON_TWO_HANDED:
; 2939 : 				SetMotionMode(CRaceMotionData::MODE_TWOHAND_SWORD); // Only Warrior

  00143	b8 03 00 00 00	 mov	 eax, 3

; 2940 : 				break;

  00148	8d be d4 01 00
	00		 lea	 edi, DWORD PTR [esi+468]
  0014e	eb 3f		 jmp	 SHORT $LN4@RefreshSta
$LN30@RefreshSta:

; 2941 : 
; 2942 : 			case CItemData::WEAPON_DAGGER:
; 2943 : 				SetMotionMode(CRaceMotionData::MODE_DUALHAND_SWORD); // Only Assassin

  00150	b8 04 00 00 00	 mov	 eax, 4

; 2944 : 				break;

  00155	8d be d4 01 00
	00		 lea	 edi, DWORD PTR [esi+468]
  0015b	eb 32		 jmp	 SHORT $LN4@RefreshSta
$LN31@RefreshSta:

; 2945 : 
; 2946 : 			case CItemData::WEAPON_BOW:
; 2947 : 				SetMotionMode(CRaceMotionData::MODE_BOW); // Only Assassin

  0015d	b8 05 00 00 00	 mov	 eax, 5

; 2948 : 				break;

  00162	8d be d4 01 00
	00		 lea	 edi, DWORD PTR [esi+468]
  00168	eb 25		 jmp	 SHORT $LN4@RefreshSta
$LN32@RefreshSta:

; 2949 : 
; 2950 : 			case CItemData::WEAPON_FAN:
; 2951 : 				SetMotionMode(CRaceMotionData::MODE_FAN); // Only Shaman

  0016a	b8 06 00 00 00	 mov	 eax, 6

; 2952 : 				break;

  0016f	8d be d4 01 00
	00		 lea	 edi, DWORD PTR [esi+468]
  00175	eb 18		 jmp	 SHORT $LN4@RefreshSta
$LN33@RefreshSta:

; 2953 : 
; 2954 : 			case CItemData::WEAPON_BELL:
; 2955 : 				SetMotionMode(CRaceMotionData::MODE_BELL); // Only Shaman

  00177	b8 07 00 00 00	 mov	 eax, 7

; 2956 : 				break;

  0017c	8d be d4 01 00
	00		 lea	 edi, DWORD PTR [esi+468]
  00182	eb 0b		 jmp	 SHORT $LN4@RefreshSta
$LN34@RefreshSta:

; 2957 : 
; 2958 : 			case CItemData::WEAPON_ARROW:
; 2959 : 			default:
; 2960 : 				SetMotionMode(CRaceMotionData::MODE_GENERAL);

  00184	8d be d4 01 00
	00		 lea	 edi, DWORD PTR [esi+468]
$LN50@RefreshSta:

; 2961 : 				break;
; 2962 : 		}
; 2963 : 	}
; 2964 : 
; 2965 : 	if (isLoop)

  0018a	b8 01 00 00 00	 mov	 eax, 1
$LN4@RefreshSta:
  0018f	50		 push	 eax
  00190	8b ce		 mov	 ecx, esi
  00192	e8 00 00 00 00	 call	 ?SetMotionMode@CInstanceBase@@QAEXH@Z ; CInstanceBase::SetMotionMode
  00197	80 7d 0c 00	 cmp	 BYTE PTR _isLoop$[ebp], 0
  0019b	51		 push	 ecx
  0019c	74 21		 je	 SHORT $LN36@RefreshSta

; 2966 : 		m_GraphicThingInstance.InterceptLoopMotion(dwMotIndex);

  0019e	c7 04 24 cd cc
	cc 3d		 mov	 DWORD PTR [esp], 1036831949 ; 3dcccccdH
  001a5	8b cf		 mov	 ecx, edi
  001a7	ff 75 08	 push	 DWORD PTR _dwMotIndex$[ebp]
  001aa	e8 00 00 00 00	 call	 ?InterceptLoopMotion@CActorInstance@@QAE_NKM@Z ; CActorInstance::InterceptLoopMotion

; 2969 : 
; 2970 : 	RefreshActorInstance();

  001af	8b ce		 mov	 ecx, esi
  001b1	e8 00 00 00 00	 call	 ?RefreshActorInstance@CInstanceBase@@IAEXXZ ; CInstanceBase::RefreshActorInstance
  001b6	5f		 pop	 edi
  001b7	5e		 pop	 esi
  001b8	5b		 pop	 ebx

; 2971 : }

  001b9	8b e5		 mov	 esp, ebp
  001bb	5d		 pop	 ebp
  001bc	c2 08 00	 ret	 8
$LN36@RefreshSta:

; 2967 : 	else
; 2968 : 		m_GraphicThingInstance.InterceptOnceMotion(dwMotIndex);

  001bf	c7 04 24 00 00
	80 3f		 mov	 DWORD PTR [esp], 1065353216 ; 3f800000H
  001c6	6a 00		 push	 0
  001c8	51		 push	 ecx
  001c9	c7 04 24 cd cc
	cc 3d		 mov	 DWORD PTR [esp], 1036831949 ; 3dcccccdH
  001d0	8b cf		 mov	 ecx, edi
  001d2	ff 75 08	 push	 DWORD PTR _dwMotIndex$[ebp]
  001d5	e8 00 00 00 00	 call	 ?InterceptOnceMotion@CActorInstance@@QAE_NKMIM@Z ; CActorInstance::InterceptOnceMotion

; 2969 : 
; 2970 : 	RefreshActorInstance();

  001da	8b ce		 mov	 ecx, esi
  001dc	e8 00 00 00 00	 call	 ?RefreshActorInstance@CInstanceBase@@IAEXXZ ; CInstanceBase::RefreshActorInstance
  001e1	5f		 pop	 edi
  001e2	5e		 pop	 esi
  001e3	5b		 pop	 ebx

; 2971 : }

  001e4	8b e5		 mov	 esp, ebp
  001e6	5d		 pop	 ebp
  001e7	c2 08 00	 ret	 8
  001ea	66 90		 npad	 2
$LN39@RefreshSta:
  001ec	00 00 00 00	 DD	 $LN21@RefreshSta
  001f0	00 00 00 00	 DD	 $LN23@RefreshSta
  001f4	00 00 00 00	 DD	 $LN26@RefreshSta
  001f8	00 00 00 00	 DD	 $LN22@RefreshSta
  001fc	00 00 00 00	 DD	 $LN25@RefreshSta
  00200	00 00 00 00	 DD	 $LN24@RefreshSta
$LN40@RefreshSta:
  00204	00 00 00 00	 DD	 $LN28@RefreshSta
  00208	00 00 00 00	 DD	 $LN30@RefreshSta
  0020c	00 00 00 00	 DD	 $LN31@RefreshSta
  00210	00 00 00 00	 DD	 $LN29@RefreshSta
  00214	00 00 00 00	 DD	 $LN33@RefreshSta
  00218	00 00 00 00	 DD	 $LN32@RefreshSta
  0021c	00 00 00 00	 DD	 $LN34@RefreshSta
?RefreshState@CInstanceBase@@IAEXK_N@Z ENDP		; CInstanceBase::RefreshState
_TEXT	ENDS
; Function compile flags: /Ogtp
; File D:\_m2work\Server Client TMP4\ClientVS22\source\UserInterface\InstanceBase.cpp
;	COMDAT ?RegisterBoundingSphere@CInstanceBase@@QAEXXZ
_TEXT	SEGMENT
?RegisterBoundingSphere@CInstanceBase@@QAEXXZ PROC	; CInstanceBase::RegisterBoundingSphere, COMDAT
; _this$ = ecx

; 2977 : {

  00000	56		 push	 esi

; 2978 : 	// Stone   DeforomNoSkin  
; 2979 : 	//     
; 2980 : 	//        .
; 2981 : 	if (!IsStone())

  00001	8d b1 d4 01 00
	00		 lea	 esi, DWORD PTR [ecx+468]
  00007	e8 00 00 00 00	 call	 ?IsStone@CInstanceBase@@QAEHXZ ; CInstanceBase::IsStone
  0000c	85 c0		 test	 eax, eax
  0000e	75 07		 jne	 SHORT $LN4@RegisterBo

; 2982 : 	{
; 2983 : 		m_GraphicThingInstance.DeformNoSkin();

  00010	8b ce		 mov	 ecx, esi
  00012	e8 00 00 00 00	 call	 ?DeformNoSkin@CGraphicThingInstance@@QAEXXZ ; CGraphicThingInstance::DeformNoSkin
$LN4@RegisterBo:

; 2984 : 	}
; 2985 : 
; 2986 : 	m_GraphicThingInstance.RegisterBoundingSphere();

  00017	8b ce		 mov	 ecx, esi
  00019	5e		 pop	 esi
  0001a	e9 00 00 00 00	 jmp	 ?RegisterBoundingSphere@CGraphicObjectInstance@@QAEXXZ ; CGraphicObjectInstance::RegisterBoundingSphere
?RegisterBoundingSphere@CInstanceBase@@QAEXXZ ENDP	; CInstanceBase::RegisterBoundingSphere
_TEXT	ENDS
; Function compile flags: /Ogtp
; File D:\_m2work\Server Client TMP4\ClientVS22\source\UserInterface\InstanceBase.cpp
; File C:\Program Files\Microsoft Visual Studio\2022\Community\VC\Tools\MSVC\14.44.35207\include\list
; File C:\Program Files\Microsoft Visual Studio\2022\Community\VC\Tools\MSVC\14.44.35207\include\xmemory
; File C:\Program Files\Microsoft Visual Studio\2022\Community\VC\Tools\MSVC\14.44.35207\include\list
; File D:\_m2work\Server Client TMP4\ClientVS22\source\UserInterface\InstanceBase.cpp
; File C:\Program Files\Microsoft Visual Studio\2022\Community\VC\Tools\MSVC\14.44.35207\include\list
; File D:\_m2work\Server Client TMP4\ClientVS22\source\UserInterface\InstanceBase.cpp
;	COMDAT ?Destroy@CInstanceBase@@QAEXXZ
_TEXT	SEGMENT
?Destroy@CInstanceBase@@QAEXXZ PROC			; CInstanceBase::Destroy, COMDAT
; _this$ = ecx

; 3000 : {	

  00000	57		 push	 edi
  00001	8b f9		 mov	 edi, ecx

; 3001 : 	DetachTextTail();

  00003	e8 00 00 00 00	 call	 ?DetachTextTail@CInstanceBase@@QAEXXZ ; CInstanceBase::DetachTextTail

; 3002 : 	
; 3003 : 	DismountHorse();

  00008	8b cf		 mov	 ecx, edi
  0000a	e8 00 00 00 00	 call	 ?DismountHorse@CInstanceBase@@QAEXXZ ; CInstanceBase::DismountHorse
; File C:\Program Files\Microsoft Visual Studio\2022\Community\VC\Tools\MSVC\14.44.35207\include\list

; 1507 :         _Node::_Free_non_head(_Getal(), _My_data._Myhead);

  0000f	8b 97 90 06 00
	00		 mov	 edx, DWORD PTR [edi+1680]

; 324  :         _Head->_Prev->_Next = nullptr;

  00015	8b 42 04	 mov	 eax, DWORD PTR [edx+4]
  00018	c7 00 00 00 00
	00		 mov	 DWORD PTR [eax], 0

; 325  : 
; 326  :         auto _Pnode = _Head->_Next;

  0001e	8b 02		 mov	 eax, DWORD PTR [edx]

; 327  :         for (_Nodeptr _Pnext; _Pnode; _Pnode = _Pnext) {

  00020	85 c0		 test	 eax, eax
  00022	74 15		 je	 SHORT $LN58@Destroy
  00024	56		 push	 esi
$LL10@Destroy:

; 328  :             _Pnext = _Pnode->_Next;

  00025	8b 30		 mov	 esi, DWORD PTR [eax]
; File C:\Program Files\Microsoft Visual Studio\2022\Community\VC\Tools\MSVC\14.44.35207\include\xmemory

; 289  :         ::operator delete(_Ptr, _Bytes);

  00027	6a 2c		 push	 44			; 0000002cH
  00029	50		 push	 eax
  0002a	e8 00 00 00 00	 call	 ??3@YAXPAXI@Z		; operator delete
  0002f	83 c4 08	 add	 esp, 8
; File C:\Program Files\Microsoft Visual Studio\2022\Community\VC\Tools\MSVC\14.44.35207\include\list

; 327  :         for (_Nodeptr _Pnext; _Pnode; _Pnode = _Pnext) {

  00032	8b c6		 mov	 eax, esi
  00034	85 f6		 test	 esi, esi
  00036	75 ed		 jne	 SHORT $LL10@Destroy
  00038	5e		 pop	 esi
$LN58@Destroy:

; 1508 :         _My_data._Myhead->_Next = _My_data._Myhead;

  00039	8b 87 90 06 00
	00		 mov	 eax, DWORD PTR [edi+1680]
; File D:\_m2work\Server Client TMP4\ClientVS22\source\UserInterface\InstanceBase.cpp

; 3007 : 	__EffectContainer_Destroy();

  0003f	8b cf		 mov	 ecx, edi
; File C:\Program Files\Microsoft Visual Studio\2022\Community\VC\Tools\MSVC\14.44.35207\include\list

; 1508 :         _My_data._Myhead->_Next = _My_data._Myhead;

  00041	89 00		 mov	 DWORD PTR [eax], eax

; 1509 :         _My_data._Myhead->_Prev = _My_data._Myhead;

  00043	8b 87 90 06 00
	00		 mov	 eax, DWORD PTR [edi+1680]
  00049	89 40 04	 mov	 DWORD PTR [eax+4], eax

; 1510 :         _My_data._Mysize        = 0;

  0004c	c7 87 94 06 00
	00 00 00 00 00	 mov	 DWORD PTR [edi+1684], 0
; File D:\_m2work\Server Client TMP4\ClientVS22\source\UserInterface\InstanceBase.cpp

; 3007 : 	__EffectContainer_Destroy();

  00056	e8 00 00 00 00	 call	 ?__EffectContainer_Destroy@CInstanceBase@@IAEXXZ ; CInstanceBase::__EffectContainer_Destroy

; 3008 : 	__StoneSmoke_Destroy();

  0005b	8b cf		 mov	 ecx, edi
  0005d	e8 00 00 00 00	 call	 ?__StoneSmoke_Destroy@CInstanceBase@@IAEXXZ ; CInstanceBase::__StoneSmoke_Destroy

; 3009 : 
; 3010 : 	if (__IsMainInstance())

  00062	8b cf		 mov	 ecx, edi
  00064	e8 00 00 00 00	 call	 ?__IsMainInstance@CInstanceBase@@IAE_NXZ ; CInstanceBase::__IsMainInstance
  00069	84 c0		 test	 al, al
  0006b	74 05		 je	 SHORT $LN2@Destroy

; 3011 : 		__ClearMainInstance();	

  0006d	e8 00 00 00 00	 call	 ?__ClearMainInstance@CInstanceBase@@IAEXXZ ; CInstanceBase::__ClearMainInstance
$LN2@Destroy:

; 3012 : 	
; 3013 : 	m_GraphicThingInstance.Destroy();

  00072	8d 8f d4 01 00
	00		 lea	 ecx, DWORD PTR [edi+468]
  00078	e8 00 00 00 00	 call	 ?Destroy@CActorInstance@@QAEXXZ ; CActorInstance::Destroy

; 3014 : 	
; 3015 : 	__Initialize();

  0007d	8b cf		 mov	 ecx, edi
  0007f	5f		 pop	 edi
  00080	e9 00 00 00 00	 jmp	 ?__Initialize@CInstanceBase@@IAEXXZ ; CInstanceBase::__Initialize
?Destroy@CInstanceBase@@QAEXXZ ENDP			; CInstanceBase::Destroy
_TEXT	ENDS
; Function compile flags: /Ogtp
; File D:\_m2work\Server Client TMP4\ClientVS22\source\UserInterface\InstanceBase.cpp
;	COMDAT ?__InitializeRotationSpeed@CInstanceBase@@IAEXXZ
_TEXT	SEGMENT
?__InitializeRotationSpeed@CInstanceBase@@IAEXXZ PROC	; CInstanceBase::__InitializeRotationSpeed, COMDAT
; _this$ = ecx

; 3020 : 	SetRotationSpeed(c_fDefaultRotationSpeed);

  00000	f3 0f 10 0d 00
	00 00 00	 movss	 xmm1, DWORD PTR __real@44960000
  00008	e9 00 00 00 00	 jmp	 ?SetRotationSpeed@CInstanceBase@@QAEXM@Z ; CInstanceBase::SetRotationSpeed
?__InitializeRotationSpeed@CInstanceBase@@IAEXXZ ENDP	; CInstanceBase::__InitializeRotationSpeed
_TEXT	ENDS
; Function compile flags: /Ogtp
; File D:\_m2work\Server Client TMP4\ClientVS22\source\UserInterface\InstanceBase.cpp
;	COMDAT ?__Warrior_Initialize@CInstanceBase@@IAEXXZ
_TEXT	SEGMENT
?__Warrior_Initialize@CInstanceBase@@IAEXXZ PROC	; CInstanceBase::__Warrior_Initialize, COMDAT
; _this$ = ecx

; 3025 : 	m_kWarrior.m_dwGeomgyeongEffect=0;

  00000	c7 81 a4 06 00
	00 00 00 00 00	 mov	 DWORD PTR [ecx+1700], 0

; 3026 : }

  0000a	c3		 ret	 0
?__Warrior_Initialize@CInstanceBase@@IAEXXZ ENDP	; CInstanceBase::__Warrior_Initialize
_TEXT	ENDS
; Function compile flags: /Ogtp
; File D:\_m2work\Server Client TMP4\ClientVS22\source\UserInterface\InstanceBase.cpp
; File D:\_m2work\Server Client TMP4\ClientVS22\extern\include\d3dx8math.inl
; File D:\_m2work\Server Client TMP4\ClientVS22\source\UserInterface\InstanceBase.cpp
; File D:\_m2work\Server Client TMP4\ClientVS22\extern\include\d3dx8math.inl
; File D:\_m2work\Server Client TMP4\ClientVS22\source\UserInterface\InstanceBase.cpp
; File D:\_m2work\Server Client TMP4\ClientVS22\extern\include\d3dx8math.inl
; File D:\_m2work\Server Client TMP4\ClientVS22\source\UserInterface\InstanceBase.cpp
; File C:\Program Files\Microsoft Visual Studio\2022\Community\VC\Tools\MSVC\14.44.35207\include\list
; File C:\Program Files\Microsoft Visual Studio\2022\Community\VC\Tools\MSVC\14.44.35207\include\xmemory
; File C:\Program Files\Microsoft Visual Studio\2022\Community\VC\Tools\MSVC\14.44.35207\include\list
; File D:\_m2work\Server Client TMP4\ClientVS22\source\UserInterface\InstanceBase.cpp
; File C:\Program Files\Microsoft Visual Studio\2022\Community\VC\Tools\MSVC\14.44.35207\include\list
; File D:\_m2work\Server Client TMP4\ClientVS22\source\UserInterface\InstanceBase.cpp
; File C:\Program Files\Microsoft Visual Studio\2022\Community\VC\Tools\MSVC\14.44.35207\include\list
; File C:\Program Files\Microsoft Visual Studio\2022\Community\VC\Tools\MSVC\14.44.35207\include\xstring
; File D:\_m2work\Server Client TMP4\ClientVS22\source\UserInterface\InstanceBase.cpp
; File C:\Program Files\Microsoft Visual Studio\2022\Community\VC\Tools\MSVC\14.44.35207\include\xstring
; File D:\_m2work\Server Client TMP4\ClientVS22\source\UserInterface\InstanceBase.cpp
;	COMDAT ?__Initialize@CInstanceBase@@IAEXXZ
_TEXT	SEGMENT
$T1 = -16						; size = 12
$T2 = -16						; size = 12
__$ArrayPad$ = -4					; size = 4
?__Initialize@CInstanceBase@@IAEXXZ PROC		; CInstanceBase::__Initialize, COMDAT
; _this$ = ecx

; 3029 : {

  00000	55		 push	 ebp
  00001	8b ec		 mov	 ebp, esp
  00003	83 ec 10	 sub	 esp, 16			; 00000010H
  00006	a1 00 00 00 00	 mov	 eax, DWORD PTR ___security_cookie
  0000b	33 c5		 xor	 eax, ebp
  0000d	89 45 fc	 mov	 DWORD PTR __$ArrayPad$[ebp], eax
  00010	57		 push	 edi
  00011	8b f9		 mov	 edi, ecx

; 3030 : 	__Warrior_Initialize();

  00013	e8 00 00 00 00	 call	 ?__Warrior_Initialize@CInstanceBase@@IAEXXZ ; CInstanceBase::__Warrior_Initialize

; 3031 : 	__StoneSmoke_Inialize();

  00018	e8 00 00 00 00	 call	 ?__StoneSmoke_Inialize@CInstanceBase@@IAEXXZ ; CInstanceBase::__StoneSmoke_Inialize

; 3032 : 	__EffectContainer_Initialize();

  0001d	e8 00 00 00 00	 call	 ?__EffectContainer_Initialize@CInstanceBase@@IAEXXZ ; CInstanceBase::__EffectContainer_Initialize

; 3033 : 	__InitializeRotationSpeed();

  00022	8b cf		 mov	 ecx, edi
  00024	e8 00 00 00 00	 call	 ?__InitializeRotationSpeed@CInstanceBase@@IAEXXZ ; CInstanceBase::__InitializeRotationSpeed

; 3034 : 
; 3035 : 	SetEventHandler(CActorInstance::IEventHandler::GetEmptyPtr());

  00029	e8 00 00 00 00	 call	 ?GetEmptyPtr@IEventHandler@CActorInstance@@SAPAV12@XZ ; CActorInstance::IEventHandler::GetEmptyPtr
  0002e	50		 push	 eax
  0002f	8b cf		 mov	 ecx, edi
  00031	e8 00 00 00 00	 call	 ?SetEventHandler@CInstanceBase@@QAEXPAVIEventHandler@CActorInstance@@@Z ; CInstanceBase::SetEventHandler

; 3036 : 
; 3037 : 	m_kAffectFlagContainer.Clear();

  00036	8d 4f 48	 lea	 ecx, DWORD PTR [edi+72]
  00039	e8 00 00 00 00	 call	 ?Clear@CAffectFlagContainer@@QAEXXZ ; CAffectFlagContainer::Clear

; 3038 : 
; 3039 : 	m_dwLevel = 0;
; 3040 : 	m_dwGuildID = 0;
; 3041 : 	m_dwEmpireID = 0;
; 3042 : 
; 3043 : 	m_eType = 0;
; 3044 : 	m_eRaceType = 0;
; 3045 : 	m_eShape = 0;
; 3046 : 	m_dwRace = 0;
; 3047 : 	m_dwVirtualNumber = 0;
; 3048 : 
; 3049 : 	m_dwBaseCmdTime=0;
; 3050 : 	m_dwBaseChkTime=0;
; 3051 : 	m_dwSkipTime=0;
; 3052 : 
; 3053 : 	m_GraphicThingInstance.Initialize();

  0003e	8d 8f d4 01 00
	00		 lea	 ecx, DWORD PTR [edi+468]
  00044	c7 47 3c 00 00
	00 00		 mov	 DWORD PTR [edi+60], 0
  0004b	c7 47 44 00 00
	00 00		 mov	 DWORD PTR [edi+68], 0
  00052	c7 47 40 00 00
	00 00		 mov	 DWORD PTR [edi+64], 0
  00059	66 c7 87 5c 01
	00 00 00 00	 mov	 WORD PTR [edi+348], 0
  00062	c7 87 60 01 00
	00 00 00 00 00	 mov	 DWORD PTR [edi+352], 0
  0006c	c7 87 64 01 00
	00 00 00 00 00	 mov	 DWORD PTR [edi+356], 0
  00076	c7 87 68 01 00
	00 00 00 00 00	 mov	 DWORD PTR [edi+360], 0
  00080	c7 87 88 06 00
	00 00 00 00 00	 mov	 DWORD PTR [edi+1672], 0
  0008a	c7 87 84 06 00
	00 00 00 00 00	 mov	 DWORD PTR [edi+1668], 0
  00094	c7 87 8c 06 00
	00 00 00 00 00	 mov	 DWORD PTR [edi+1676], 0
  0009e	e8 00 00 00 00	 call	 ?Initialize@CGraphicObjectInstance@@QAEXXZ ; CGraphicObjectInstance::Initialize

; 3067 : 	NEW_SetSrcPixelPosition(TPixelPosition(0, 0, 0));

  000a3	8d 45 f0	 lea	 eax, DWORD PTR $T1[ebp]
  000a6	c7 87 78 01 00
	00 00 00 00 00	 mov	 DWORD PTR [edi+376], 0
  000b0	50		 push	 eax
  000b1	8b cf		 mov	 ecx, edi
  000b3	c7 87 7c 01 00
	00 00 00 00 00	 mov	 DWORD PTR [edi+380], 0
  000bd	c7 87 80 01 00
	00 00 00 00 00	 mov	 DWORD PTR [edi+384], 0
  000c7	c7 87 84 01 00
	00 00 00 00 00	 mov	 DWORD PTR [edi+388], 0
  000d1	c7 87 74 01 00
	00 00 00 00 00	 mov	 DWORD PTR [edi+372], 0
  000db	c7 47 0c 00 00
	00 00		 mov	 DWORD PTR [edi+12], 0
  000e2	c6 87 88 01 00
	00 00		 mov	 BYTE PTR [edi+392], 0
; File D:\_m2work\Server Client TMP4\ClientVS22\extern\include\d3dx8math.inl

; 180  :     x = fx;

  000e9	c7 45 f0 00 00
	00 00		 mov	 DWORD PTR $T1[ebp], 0

; 181  :     y = fy;

  000f0	c7 45 f4 00 00
	00 00		 mov	 DWORD PTR $T1[ebp+4], 0

; 182  :     z = fz;

  000f7	c7 45 f8 00 00
	00 00		 mov	 DWORD PTR $T1[ebp+8], 0
; File D:\_m2work\Server Client TMP4\ClientVS22\source\UserInterface\InstanceBase.cpp

; 3067 : 	NEW_SetSrcPixelPosition(TPixelPosition(0, 0, 0));

  000fe	e8 00 00 00 00	 call	 ?NEW_SetSrcPixelPosition@CInstanceBase@@IAEXABUD3DXVECTOR3@@@Z ; CInstanceBase::NEW_SetSrcPixelPosition

; 3068 : 	NEW_SetDstPixelPosition(TPixelPosition(0, 0, 0));

  00103	8d 45 f0	 lea	 eax, DWORD PTR $T2[ebp]
; File D:\_m2work\Server Client TMP4\ClientVS22\extern\include\d3dx8math.inl

; 180  :     x = fx;

  00106	c7 45 f0 00 00
	00 00		 mov	 DWORD PTR $T2[ebp], 0
; File D:\_m2work\Server Client TMP4\ClientVS22\source\UserInterface\InstanceBase.cpp

; 3068 : 	NEW_SetDstPixelPosition(TPixelPosition(0, 0, 0));

  0010d	50		 push	 eax
  0010e	8b cf		 mov	 ecx, edi
; File D:\_m2work\Server Client TMP4\ClientVS22\extern\include\d3dx8math.inl

; 181  :     y = fy;

  00110	c7 45 f4 00 00
	00 00		 mov	 DWORD PTR $T2[ebp+4], 0

; 182  :     z = fz;

  00117	c7 45 f8 00 00
	00 00		 mov	 DWORD PTR $T2[ebp+8], 0
; File D:\_m2work\Server Client TMP4\ClientVS22\source\UserInterface\InstanceBase.cpp

; 3068 : 	NEW_SetDstPixelPosition(TPixelPosition(0, 0, 0));

  0011e	e8 00 00 00 00	 call	 ?NEW_SetDstPixelPosition@CInstanceBase@@IAEXABUD3DXVECTOR3@@@Z ; CInstanceBase::NEW_SetDstPixelPosition

; 3069 : 
; 3070 : 	m_kPPosDust = TPixelPosition(0, 0, 0);

  00123	c7 87 8c 01 00
	00 00 00 00 00	 mov	 DWORD PTR [edi+396], 0
  0012d	c7 87 90 01 00
	00 00 00 00 00	 mov	 DWORD PTR [edi+400], 0
  00137	c7 87 94 01 00
	00 00 00 00 00	 mov	 DWORD PTR [edi+404], 0
; File C:\Program Files\Microsoft Visual Studio\2022\Community\VC\Tools\MSVC\14.44.35207\include\list

; 1507 :         _Node::_Free_non_head(_Getal(), _My_data._Myhead);

  00141	8b 8f 90 06 00
	00		 mov	 ecx, DWORD PTR [edi+1680]

; 324  :         _Head->_Prev->_Next = nullptr;

  00147	8b 41 04	 mov	 eax, DWORD PTR [ecx+4]
  0014a	c7 00 00 00 00
	00		 mov	 DWORD PTR [eax], 0

; 325  : 
; 326  :         auto _Pnode = _Head->_Next;

  00150	8b 01		 mov	 eax, DWORD PTR [ecx]

; 327  :         for (_Nodeptr _Pnext; _Pnode; _Pnode = _Pnext) {

  00152	85 c0		 test	 eax, eax
  00154	74 15		 je	 SHORT $LN70@Initialize
  00156	56		 push	 esi
$LL15@Initialize:

; 328  :             _Pnext = _Pnode->_Next;

  00157	8b 30		 mov	 esi, DWORD PTR [eax]
; File C:\Program Files\Microsoft Visual Studio\2022\Community\VC\Tools\MSVC\14.44.35207\include\xmemory

; 289  :         ::operator delete(_Ptr, _Bytes);

  00159	6a 2c		 push	 44			; 0000002cH
  0015b	50		 push	 eax
  0015c	e8 00 00 00 00	 call	 ??3@YAXPAXI@Z		; operator delete
  00161	83 c4 08	 add	 esp, 8
; File C:\Program Files\Microsoft Visual Studio\2022\Community\VC\Tools\MSVC\14.44.35207\include\list

; 327  :         for (_Nodeptr _Pnext; _Pnode; _Pnode = _Pnext) {

  00164	8b c6		 mov	 eax, esi
  00166	85 f6		 test	 esi, esi
  00168	75 ed		 jne	 SHORT $LL15@Initialize
  0016a	5e		 pop	 esi
$LN70@Initialize:

; 1508 :         _My_data._Myhead->_Next = _My_data._Myhead;

  0016b	8b 87 90 06 00
	00		 mov	 eax, DWORD PTR [edi+1680]
; File D:\_m2work\Server Client TMP4\ClientVS22\source\UserInterface\InstanceBase.cpp

; 3088 : 	m_stName = "";

  00171	8d 4f 10	 lea	 ecx, DWORD PTR [edi+16]
; File C:\Program Files\Microsoft Visual Studio\2022\Community\VC\Tools\MSVC\14.44.35207\include\list

; 1508 :         _My_data._Myhead->_Next = _My_data._Myhead;

  00174	89 00		 mov	 DWORD PTR [eax], eax

; 1509 :         _My_data._Myhead->_Prev = _My_data._Myhead;

  00176	8b 87 90 06 00
	00		 mov	 eax, DWORD PTR [edi+1680]
  0017c	89 40 04	 mov	 DWORD PTR [eax+4], eax
; File D:\_m2work\Server Client TMP4\ClientVS22\source\UserInterface\InstanceBase.cpp

; 3081 : 	m_sAlignment = 0;

  0017f	33 c0		 xor	 eax, eax
; File C:\Program Files\Microsoft Visual Studio\2022\Community\VC\Tools\MSVC\14.44.35207\include\list

; 1510 :         _My_data._Mysize        = 0;

  00181	c7 87 94 06 00
	00 00 00 00 00	 mov	 DWORD PTR [edi+1684], 0
; File C:\Program Files\Microsoft Visual Studio\2022\Community\VC\Tools\MSVC\14.44.35207\include\xstring

; 1638 :         return assign(_Ptr, _Convert_size<size_type>(_Traits::length(_Ptr)));

  0018b	50		 push	 eax
  0018c	68 00 00 00 00	 push	 OFFSET ??_C@_00CNPNBAHC@@
; File D:\_m2work\Server Client TMP4\ClientVS22\source\UserInterface\InstanceBase.cpp

; 3075 : 	m_dwLastComboIndex = 0;

  00191	c7 87 98 01 00
	00 00 00 00 00	 mov	 DWORD PTR [edi+408], 0

; 3076 : 
; 3077 : 	m_swordRefineEffectRight = 0;

  0019b	c7 87 9c 01 00
	00 00 00 00 00	 mov	 DWORD PTR [edi+412], 0

; 3078 : 	m_swordRefineEffectLeft = 0;

  001a5	c7 87 a0 01 00
	00 00 00 00 00	 mov	 DWORD PTR [edi+416], 0

; 3079 : 	m_armorRefineEffect = 0;

  001af	c7 87 a4 01 00
	00 00 00 00 00	 mov	 DWORD PTR [edi+420], 0

; 3081 : 	m_sAlignment = 0;

  001b9	89 87 6c 01 00
	00		 mov	 DWORD PTR [edi+364], eax

; 3082 : 	m_byPKMode = 0;
; 3083 : 	m_isKiller = false;
; 3084 : 	m_isPartyMember = false;

  001bf	88 87 70 01 00
	00		 mov	 BYTE PTR [edi+368], al

; 3085 : 
; 3086 : 	m_bEnableTCPState = TRUE;

  001c5	c7 87 d0 01 00
	00 01 00 00 00	 mov	 DWORD PTR [edi+464], 1
; File C:\Program Files\Microsoft Visual Studio\2022\Community\VC\Tools\MSVC\14.44.35207\include\xstring

; 1638 :         return assign(_Ptr, _Convert_size<size_type>(_Traits::length(_Ptr)));

  001cf	e8 00 00 00 00	 call	 ?assign@?$basic_string@DU?$char_traits@D@std@@V?$allocator@D@2@@std@@QAEAAV12@QBDI@Z ; std::basic_string<char,std::char_traits<char>,std::allocator<char> >::assign
; File D:\_m2work\Server Client TMP4\ClientVS22\source\UserInterface\InstanceBase.cpp

; 3091 : 	memset(m_adwCRCAffectEffect, 0, sizeof(m_adwCRCAffectEffect));

  001d4	68 00 01 00 00	 push	 256			; 00000100H
  001d9	0f 57 c0	 xorps	 xmm0, xmm0
  001dc	8d 47 50	 lea	 eax, DWORD PTR [edi+80]
  001df	6a 00		 push	 0
  001e1	0f 11 47 28	 movups	 XMMWORD PTR [edi+40], xmm0
  001e5	50		 push	 eax
  001e6	c7 47 38 00 00
	00 00		 mov	 DWORD PTR [edi+56], 0
  001ed	e8 00 00 00 00	 call	 _memset

; 3092 : 	//memset(m_adwCRCEmoticonEffect, 0, sizeof(m_adwCRCEmoticonEffect));
; 3093 : 	memset(&m_kMovAfterFunc, 0, sizeof(m_kMovAfterFunc));
; 3094 : 
; 3095 : 	m_bDamageEffectType = false;
; 3096 : 	m_dwDuelMode = DUEL_NONE;
; 3097 : 	m_dwEmoticonTime = 0;
; 3098 : }

  001f2	8b 4d fc	 mov	 ecx, DWORD PTR __$ArrayPad$[ebp]
  001f5	83 c4 0c	 add	 esp, 12			; 0000000cH
  001f8	0f 57 c0	 xorps	 xmm0, xmm0
  001fb	33 cd		 xor	 ecx, ebp
  001fd	0f 11 87 a8 01
	00 00		 movups	 XMMWORD PTR [edi+424], xmm0
  00204	66 0f d6 87 b8
	01 00 00	 movq	 QWORD PTR [edi+440], xmm0
  0020c	c7 87 98 06 00
	00 00 00 00 00	 mov	 DWORD PTR [edi+1688], 0
  00216	c7 87 a8 06 00
	00 00 00 00 00	 mov	 DWORD PTR [edi+1704], 0
  00220	c7 87 ac 06 00
	00 00 00 00 00	 mov	 DWORD PTR [edi+1708], 0
  0022a	5f		 pop	 edi
  0022b	e8 00 00 00 00	 call	 @__security_check_cookie@4
  00230	8b e5		 mov	 esp, ebp
  00232	5d		 pop	 ebp
  00233	c3		 ret	 0
?__Initialize@CInstanceBase@@IAEXXZ ENDP		; CInstanceBase::__Initialize
_TEXT	ENDS
; Function compile flags: /Ogtp
; File D:\_m2work\Server Client TMP4\ClientVS22\source\UserInterface\InstanceBase.cpp
; File C:\Program Files\Microsoft Visual Studio\2022\Community\VC\Tools\MSVC\14.44.35207\include\xstring
; File D:\_m2work\Server Client TMP4\ClientVS22\source\UserInterface\InstanceBase.cpp
; File C:\Program Files\Microsoft Visual Studio\2022\Community\VC\Tools\MSVC\14.44.35207\include\xtree
; File C:\Program Files\Microsoft Visual Studio\2022\Community\VC\Tools\MSVC\14.44.35207\include\xmemory
; File D:\_m2work\Server Client TMP4\ClientVS22\source\UserInterface\InstanceBase.cpp
; File C:\Program Files\Microsoft Visual Studio\2022\Community\VC\Tools\MSVC\14.44.35207\include\xtree
; File C:\Program Files\Microsoft Visual Studio\2022\Community\VC\Tools\MSVC\14.44.35207\include\xmemory
; File C:\Program Files\Microsoft Visual Studio\2022\Community\VC\Tools\MSVC\14.44.35207\include\xtree
; File D:\_m2work\Server Client TMP4\ClientVS22\source\UserInterface\InstanceBase.cpp
; File C:\Program Files\Microsoft Visual Studio\2022\Community\VC\Tools\MSVC\14.44.35207\include\list
; File D:\_m2work\Server Client TMP4\ClientVS22\source\UserInterface\InstanceBase.cpp
; File C:\Program Files\Microsoft Visual Studio\2022\Community\VC\Tools\MSVC\14.44.35207\include\xmemory
; File C:\Program Files\Microsoft Visual Studio\2022\Community\VC\Tools\MSVC\14.44.35207\include\list
; File C:\Program Files\Microsoft Visual Studio\2022\Community\VC\Tools\MSVC\14.44.35207\include\xmemory
; File C:\Program Files\Microsoft Visual Studio\2022\Community\VC\Tools\MSVC\14.44.35207\include\list
; File D:\_m2work\Server Client TMP4\ClientVS22\source\UserInterface\InstanceBase.cpp
;	COMDAT ??0CInstanceBase@@QAE@XZ
_TEXT	SEGMENT
_this$ = -20						; size = 4
_this$ = -16						; size = 4
__$EHRec$ = -12						; size = 12
??0CInstanceBase@@QAE@XZ PROC				; CInstanceBase::CInstanceBase, COMDAT
; _this$ = ecx

; 3101 : {

  00000	55		 push	 ebp
  00001	8b ec		 mov	 ebp, esp
  00003	6a ff		 push	 -1
  00005	68 00 00 00 00	 push	 __ehhandler$??0CInstanceBase@@QAE@XZ
  0000a	64 a1 00 00 00
	00		 mov	 eax, DWORD PTR fs:0
  00010	50		 push	 eax
  00011	83 ec 08	 sub	 esp, 8
  00014	56		 push	 esi
  00015	57		 push	 edi
  00016	a1 00 00 00 00	 mov	 eax, DWORD PTR ___security_cookie
  0001b	33 c5		 xor	 eax, ebp
  0001d	50		 push	 eax
  0001e	8d 45 f4	 lea	 eax, DWORD PTR __$EHRec$[ebp]
  00021	64 a3 00 00 00
	00		 mov	 DWORD PTR fs:0, eax
  00027	8b f9		 mov	 edi, ecx
  00029	89 7d f0	 mov	 DWORD PTR _this$[ebp], edi
  0002c	8d 4f 04	 lea	 ecx, DWORD PTR [edi+4]
  0002f	c7 07 00 00 00
	00		 mov	 DWORD PTR [edi], OFFSET ??_7CInstanceBase@@6B@
  00035	e8 00 00 00 00	 call	 ??0SHORSE@CInstanceBase@@QAE@XZ ; CInstanceBase::SHORSE::SHORSE
  0003a	0f 57 c0	 xorps	 xmm0, xmm0
; File C:\Program Files\Microsoft Visual Studio\2022\Community\VC\Tools\MSVC\14.44.35207\include\xstring

; 493  :         _CONSTEXPR20 _Bxty() noexcept : _Buf() {} // user-provided, for fancy pointers

  0003d	0f 11 47 10	 movups	 XMMWORD PTR [edi+16], xmm0

; 860  :         _My_data._Mysize = 0;

  00041	c7 47 20 00 00
	00 00		 mov	 DWORD PTR [edi+32], 0

; 861  :         _My_data._Myres  = _Small_string_capacity;

  00048	c7 47 24 0f 00
	00 00		 mov	 DWORD PTR [edi+36], 15	; 0000000fH

; 862  :         _My_data._Activate_SSO_buffer();
; 863  : 
; 864  :         // the _Traits::assign is last so the codegen doesn't think the char write can alias this
; 865  :         _Traits::assign(_My_data._Bx._Buf[0], _Elem());

  0004f	c6 47 10 00	 mov	 BYTE PTR [edi+16], 0
; File D:\_m2work\Server Client TMP4\ClientVS22\source\UserInterface\InstanceBase.cpp

; 3101 : {

  00053	8d 4f 48	 lea	 ecx, DWORD PTR [edi+72]
  00056	c7 45 fc 00 00
	00 00		 mov	 DWORD PTR __$EHRec$[ebp+8], 0
  0005d	e8 00 00 00 00	 call	 ??0CAffectFlagContainer@@QAE@XZ ; CAffectFlagContainer::CAffectFlagContainer
  00062	8d b7 50 01 00
	00		 lea	 esi, DWORD PTR [edi+336]
; File C:\Program Files\Microsoft Visual Studio\2022\Community\VC\Tools\MSVC\14.44.35207\include\xtree

; 450  :     _Tree_val() noexcept : _Myhead(), _Mysize(0) {}

  00068	c7 06 00 00 00
	00		 mov	 DWORD PTR [esi], 0
; File C:\Program Files\Microsoft Visual Studio\2022\Community\VC\Tools\MSVC\14.44.35207\include\xmemory

; 136  :         return ::operator new(_Bytes);

  0006e	6a 18		 push	 24			; 00000018H
; File D:\_m2work\Server Client TMP4\ClientVS22\source\UserInterface\InstanceBase.cpp

; 3101 : {

  00070	89 75 ec	 mov	 DWORD PTR _this$[ebp], esi
; File C:\Program Files\Microsoft Visual Studio\2022\Community\VC\Tools\MSVC\14.44.35207\include\xtree

; 450  :     _Tree_val() noexcept : _Myhead(), _Mysize(0) {}

  00073	c7 46 04 00 00
	00 00		 mov	 DWORD PTR [esi+4], 0
; File C:\Program Files\Microsoft Visual Studio\2022\Community\VC\Tools\MSVC\14.44.35207\include\xmemory

; 136  :         return ::operator new(_Bytes);

  0007a	e8 00 00 00 00	 call	 ??2@YAPAXI@Z		; operator new
  0007f	83 c4 04	 add	 esp, 4
; File C:\Program Files\Microsoft Visual Studio\2022\Community\VC\Tools\MSVC\14.44.35207\include\xtree

; 346  :         _Construct_in_place(_Pnode->_Left, _Pnode);

  00082	89 00		 mov	 DWORD PTR [eax], eax

; 347  :         _Construct_in_place(_Pnode->_Parent, _Pnode);

  00084	89 40 04	 mov	 DWORD PTR [eax+4], eax

; 348  :         _Construct_in_place(_Pnode->_Right, _Pnode);

  00087	89 40 08	 mov	 DWORD PTR [eax+8], eax

; 349  :         _Pnode->_Color = _Black;

  0008a	66 c7 40 0c 01
	01		 mov	 WORD PTR [eax+12], 257	; 00000101H

; 1957 :         _Scary->_Myhead = _Node::_Buyheadnode(_Getal());

  00090	89 06		 mov	 DWORD PTR [esi], eax
; File D:\_m2work\Server Client TMP4\ClientVS22\source\UserInterface\InstanceBase.cpp

; 3101 : {

  00092	8d 8f d4 01 00
	00		 lea	 ecx, DWORD PTR [edi+468]
  00098	c6 45 fc 01	 mov	 BYTE PTR __$EHRec$[ebp+8], 1
  0009c	e8 00 00 00 00	 call	 ??0CActorInstance@@QAE@XZ ; CActorInstance::CActorInstance
  000a1	c6 45 fc 02	 mov	 BYTE PTR __$EHRec$[ebp+8], 2
; File C:\Program Files\Microsoft Visual Studio\2022\Community\VC\Tools\MSVC\14.44.35207\include\list

; 1851 :         auto _Newhead = _Al.allocate(1);

  000a5	6a 2c		 push	 44			; 0000002cH

; 353  :     _List_val() noexcept : _Myhead(), _Mysize(0) {} // initialize data

  000a7	c7 87 90 06 00
	00 00 00 00 00	 mov	 DWORD PTR [edi+1680], 0
  000b1	c7 87 94 06 00
	00 00 00 00 00	 mov	 DWORD PTR [edi+1684], 0

; 1851 :         auto _Newhead = _Al.allocate(1);

  000bb	e8 00 00 00 00	 call	 ??2@YAPAXI@Z		; operator new

; 1852 :         _Construct_in_place(_Newhead->_Next, _Newhead);

  000c0	89 00		 mov	 DWORD PTR [eax], eax

; 1853 :         _Construct_in_place(_Newhead->_Prev, _Newhead);

  000c2	89 40 04	 mov	 DWORD PTR [eax+4], eax

; 1854 :         _Mypair._Myval2._Myhead = _Newhead;

  000c5	89 87 90 06 00
	00		 mov	 DWORD PTR [edi+1680], eax
; File D:\_m2work\Server Client TMP4\ClientVS22\source\UserInterface\InstanceBase.cpp

; 3101 : {

  000cb	c6 45 fc 03	 mov	 BYTE PTR __$EHRec$[ebp+8], 3
; File C:\Program Files\Microsoft Visual Studio\2022\Community\VC\Tools\MSVC\14.44.35207\include\xmemory

; 136  :         return ::operator new(_Bytes);

  000cf	6a 18		 push	 24			; 00000018H
; File C:\Program Files\Microsoft Visual Studio\2022\Community\VC\Tools\MSVC\14.44.35207\include\list

; 353  :     _List_val() noexcept : _Myhead(), _Mysize(0) {} // initialize data

  000d1	c7 87 9c 06 00
	00 00 00 00 00	 mov	 DWORD PTR [edi+1692], 0
  000db	c7 87 a0 06 00
	00 00 00 00 00	 mov	 DWORD PTR [edi+1696], 0
; File C:\Program Files\Microsoft Visual Studio\2022\Community\VC\Tools\MSVC\14.44.35207\include\xmemory

; 136  :         return ::operator new(_Bytes);

  000e5	e8 00 00 00 00	 call	 ??2@YAPAXI@Z		; operator new
  000ea	83 c4 08	 add	 esp, 8
; File C:\Program Files\Microsoft Visual Studio\2022\Community\VC\Tools\MSVC\14.44.35207\include\list

; 1852 :         _Construct_in_place(_Newhead->_Next, _Newhead);

  000ed	89 00		 mov	 DWORD PTR [eax], eax

; 1853 :         _Construct_in_place(_Newhead->_Prev, _Newhead);

  000ef	89 40 04	 mov	 DWORD PTR [eax+4], eax

; 1854 :         _Mypair._Myval2._Myhead = _Newhead;

  000f2	89 87 9c 06 00
	00		 mov	 DWORD PTR [edi+1692], eax
; File D:\_m2work\Server Client TMP4\ClientVS22\source\UserInterface\InstanceBase.cpp

; 3102 : 	__Initialize();

  000f8	8b cf		 mov	 ecx, edi
  000fa	c6 45 fc 04	 mov	 BYTE PTR __$EHRec$[ebp+8], 4
  000fe	e8 00 00 00 00	 call	 ?__Initialize@CInstanceBase@@IAEXXZ ; CInstanceBase::__Initialize

; 3103 : }

  00103	8b c7		 mov	 eax, edi
  00105	8b 4d f4	 mov	 ecx, DWORD PTR __$EHRec$[ebp]
  00108	64 89 0d 00 00
	00 00		 mov	 DWORD PTR fs:0, ecx
  0010f	59		 pop	 ecx
  00110	5f		 pop	 edi
  00111	5e		 pop	 esi
  00112	8b e5		 mov	 esp, ebp
  00114	5d		 pop	 ebp
  00115	c3		 ret	 0
_TEXT	ENDS
;	COMDAT text$x
text$x	SEGMENT
__unwindfunclet$??0CInstanceBase@@QAE@XZ$0:
  00000	8b 4d f0	 mov	 ecx, DWORD PTR _this$[ebp]
  00003	83 c1 10	 add	 ecx, 16			; 00000010H
  00006	e9 00 00 00 00	 jmp	 ??1?$basic_string@DU?$char_traits@D@std@@V?$allocator@D@2@@std@@QAE@XZ ; std::basic_string<char,std::char_traits<char>,std::allocator<char> >::~basic_string<char,std::char_traits<char>,std::allocator<char> >
__unwindfunclet$??0CInstanceBase@@QAE@XZ$1:
  0000b	8b 4d f0	 mov	 ecx, DWORD PTR _this$[ebp]
  0000e	81 c1 50 01 00
	00		 add	 ecx, 336		; 00000150H
  00014	e9 00 00 00 00	 jmp	 ??1SEffectContainer@CInstanceBase@@QAE@XZ
__unwindfunclet$??0CInstanceBase@@QAE@XZ$2:
  00019	8b 4d f0	 mov	 ecx, DWORD PTR _this$[ebp]
  0001c	81 c1 d4 01 00
	00		 add	 ecx, 468		; 000001d4H
  00022	e9 00 00 00 00	 jmp	 ??1CActorInstance@@UAE@XZ ; CActorInstance::~CActorInstance
__unwindfunclet$??0CInstanceBase@@QAE@XZ$3:
  00027	8b 4d f0	 mov	 ecx, DWORD PTR _this$[ebp]
  0002a	81 c1 90 06 00
	00		 add	 ecx, 1680		; 00000690H
  00030	e9 00 00 00 00	 jmp	 ??1?$list@USCommand@CInstanceBase@@V?$allocator@USCommand@CInstanceBase@@@std@@@std@@QAE@XZ ; std::list<CInstanceBase::SCommand,std::allocator<CInstanceBase::SCommand> >::~list<CInstanceBase::SCommand,std::allocator<CInstanceBase::SCommand> >
__unwindfunclet$??0CInstanceBase@@QAE@XZ$4:
  00035	8b 4d f0	 mov	 ecx, DWORD PTR _this$[ebp]
  00038	81 c1 9c 06 00
	00		 add	 ecx, 1692		; 0000069cH
  0003e	e9 00 00 00 00	 jmp	 ??1?$list@USEffectDamage@CInstanceBase@@V?$allocator@USEffectDamage@CInstanceBase@@@std@@@std@@QAE@XZ ; std::list<CInstanceBase::SEffectDamage,std::allocator<CInstanceBase::SEffectDamage> >::~list<CInstanceBase::SEffectDamage,std::allocator<CInstanceBase::SEffectDamage> >
  00043	cc		 int	 3
  00044	cc		 int	 3
  00045	cc		 int	 3
  00046	cc		 int	 3
  00047	cc		 int	 3
__ehhandler$??0CInstanceBase@@QAE@XZ:
  00048	90		 npad	 1
  00049	90		 npad	 1
  0004a	8b 54 24 08	 mov	 edx, DWORD PTR [esp+8]
  0004e	8d 42 0c	 lea	 eax, DWORD PTR [edx+12]
  00051	8b 4a ec	 mov	 ecx, DWORD PTR [edx-20]
  00054	33 c8		 xor	 ecx, eax
  00056	e8 00 00 00 00	 call	 @__security_check_cookie@4
  0005b	b8 00 00 00 00	 mov	 eax, OFFSET __ehfuncinfo$??0CInstanceBase@@QAE@XZ
  00060	e9 00 00 00 00	 jmp	 ___CxxFrameHandler3
text$x	ENDS
??0CInstanceBase@@QAE@XZ ENDP				; CInstanceBase::CInstanceBase
; Function compile flags: /Ogtp
;	COMDAT ??_GCInstanceBase@@UAEPAXI@Z
_TEXT	SEGMENT
___flags$ = 8						; size = 4
??_GCInstanceBase@@UAEPAXI@Z PROC			; CInstanceBase::`scalar deleting destructor', COMDAT
; _this$ = ecx
  00000	55		 push	 ebp
  00001	8b ec		 mov	 ebp, esp
  00003	56		 push	 esi
  00004	8b f1		 mov	 esi, ecx
  00006	e8 00 00 00 00	 call	 ??1CInstanceBase@@UAE@XZ ; CInstanceBase::~CInstanceBase
  0000b	f6 45 08 01	 test	 BYTE PTR ___flags$[ebp], 1
  0000f	74 0e		 je	 SHORT $LN5@scalar
  00011	68 b0 06 00 00	 push	 1712			; 000006b0H
  00016	56		 push	 esi
  00017	e8 00 00 00 00	 call	 ??3@YAXPAXI@Z		; operator delete
  0001c	83 c4 08	 add	 esp, 8
$LN5@scalar:
  0001f	8b c6		 mov	 eax, esi
  00021	5e		 pop	 esi
  00022	5d		 pop	 ebp
  00023	c2 04 00	 ret	 4
??_GCInstanceBase@@UAEPAXI@Z ENDP			; CInstanceBase::`scalar deleting destructor'
_TEXT	ENDS
; Function compile flags: /Ogtp
; File C:\Program Files\Microsoft Visual Studio\2022\Community\VC\Tools\MSVC\14.44.35207\include\xtree
; File C:\Program Files\Microsoft Visual Studio\2022\Community\VC\Tools\MSVC\14.44.35207\include\xmemory
; File C:\Program Files\Microsoft Visual Studio\2022\Community\VC\Tools\MSVC\14.44.35207\include\xtree
; File C:\Program Files\Microsoft Visual Studio\2022\Community\VC\Tools\MSVC\14.44.35207\include\xmemory
; File C:\Program Files\Microsoft Visual Studio\2022\Community\VC\Tools\MSVC\14.44.35207\include\xtree
;	COMDAT ??0SEffectContainer@CInstanceBase@@QAE@XZ
_TEXT	SEGMENT
_this$ = -4						; size = 4
??0SEffectContainer@CInstanceBase@@QAE@XZ PROC		; CInstanceBase::SEffectContainer::SEffectContainer, COMDAT
; _this$ = ecx
  00000	55		 push	 ebp
  00001	8b ec		 mov	 ebp, esp
  00003	51		 push	 ecx

; 450  :     _Tree_val() noexcept : _Myhead(), _Mysize(0) {}

  00004	56		 push	 esi
  00005	8b f1		 mov	 esi, ecx
; File C:\Program Files\Microsoft Visual Studio\2022\Community\VC\Tools\MSVC\14.44.35207\include\xmemory

; 136  :         return ::operator new(_Bytes);

  00007	6a 18		 push	 24			; 00000018H
  00009	89 75 fc	 mov	 DWORD PTR _this$[ebp], esi
; File C:\Program Files\Microsoft Visual Studio\2022\Community\VC\Tools\MSVC\14.44.35207\include\xtree

; 450  :     _Tree_val() noexcept : _Myhead(), _Mysize(0) {}

  0000c	c7 06 00 00 00
	00		 mov	 DWORD PTR [esi], 0
  00012	c7 46 04 00 00
	00 00		 mov	 DWORD PTR [esi+4], 0
; File C:\Program Files\Microsoft Visual Studio\2022\Community\VC\Tools\MSVC\14.44.35207\include\xmemory

; 136  :         return ::operator new(_Bytes);

  00019	e8 00 00 00 00	 call	 ??2@YAPAXI@Z		; operator new
  0001e	83 c4 04	 add	 esp, 4
; File C:\Program Files\Microsoft Visual Studio\2022\Community\VC\Tools\MSVC\14.44.35207\include\xtree

; 346  :         _Construct_in_place(_Pnode->_Left, _Pnode);

  00021	89 00		 mov	 DWORD PTR [eax], eax

; 347  :         _Construct_in_place(_Pnode->_Parent, _Pnode);

  00023	89 40 04	 mov	 DWORD PTR [eax+4], eax

; 348  :         _Construct_in_place(_Pnode->_Right, _Pnode);

  00026	89 40 08	 mov	 DWORD PTR [eax+8], eax

; 349  :         _Pnode->_Color = _Black;

  00029	66 c7 40 0c 01
	01		 mov	 WORD PTR [eax+12], 257	; 00000101H

; 1957 :         _Scary->_Myhead = _Node::_Buyheadnode(_Getal());

  0002f	89 06		 mov	 DWORD PTR [esi], eax
  00031	8b c6		 mov	 eax, esi
  00033	5e		 pop	 esi
  00034	8b e5		 mov	 esp, ebp
  00036	5d		 pop	 ebp
  00037	c3		 ret	 0
??0SEffectContainer@CInstanceBase@@QAE@XZ ENDP		; CInstanceBase::SEffectContainer::SEffectContainer
_TEXT	ENDS
; Function compile flags: /Ogtp
; File C:\Program Files\Microsoft Visual Studio\2022\Community\VC\Tools\MSVC\14.44.35207\include\xtree
; File C:\Program Files\Microsoft Visual Studio\2022\Community\VC\Tools\MSVC\14.44.35207\include\xmemory
;	COMDAT ??1SEffectContainer@CInstanceBase@@QAE@XZ
_TEXT	SEGMENT
??1SEffectContainer@CInstanceBase@@QAE@XZ PROC		; CInstanceBase::SEffectContainer::~SEffectContainer, COMDAT
; _this$ = ecx
; File C:\Program Files\Microsoft Visual Studio\2022\Community\VC\Tools\MSVC\14.44.35207\include\xtree

; 777  :         _Erase_tree(_Al, _Myhead->_Parent);

  00000	56		 push	 esi
  00001	8b f1		 mov	 esi, ecx
  00003	8b 06		 mov	 eax, DWORD PTR [esi]
  00005	ff 70 04	 push	 DWORD PTR [eax+4]
  00008	56		 push	 esi
  00009	e8 00 00 00 00	 call	 ??$_Erase_tree@V?$allocator@U?$_Tree_node@U?$pair@$$CBKK@std@@PAX@std@@@std@@@?$_Tree_val@U?$_Tree_simple_types@U?$pair@$$CBKK@std@@@std@@@std@@QAEXAAV?$allocator@U?$_Tree_node@U?$pair@$$CBKK@std@@PAX@std@@@1@PAU?$_Tree_node@U?$pair@$$CBKK@std@@PAX@1@@Z ; std::_Tree_val<std::_Tree_simple_types<std::pair<unsigned long const ,unsigned long> > >::_Erase_tree<std::allocator<std::_Tree_node<std::pair<unsigned long const ,unsigned long>,void *> > >
; File C:\Program Files\Microsoft Visual Studio\2022\Community\VC\Tools\MSVC\14.44.35207\include\xmemory

; 289  :         ::operator delete(_Ptr, _Bytes);

  0000e	6a 18		 push	 24			; 00000018H
  00010	ff 36		 push	 DWORD PTR [esi]
  00012	e8 00 00 00 00	 call	 ??3@YAXPAXI@Z		; operator delete
  00017	83 c4 08	 add	 esp, 8
  0001a	5e		 pop	 esi
  0001b	c3		 ret	 0
??1SEffectContainer@CInstanceBase@@QAE@XZ ENDP		; CInstanceBase::SEffectContainer::~SEffectContainer
_TEXT	ENDS
; Function compile flags: /Ogtp
; File C:\Program Files\Microsoft Visual Studio\2022\Community\VC\Tools\MSVC\14.44.35207\include\xtree
; File C:\Program Files\Microsoft Visual Studio\2022\Community\VC\Tools\MSVC\14.44.35207\include\xmemory
;	COMDAT ??1?$map@KKU?$less@K@std@@V?$allocator@U?$pair@$$CBKK@std@@@2@@std@@QAE@XZ
_TEXT	SEGMENT
??1?$map@KKU?$less@K@std@@V?$allocator@U?$pair@$$CBKK@std@@@2@@std@@QAE@XZ PROC ; std::map<unsigned long,unsigned long,std::less<unsigned long>,std::allocator<std::pair<unsigned long const ,unsigned long> > >::~map<unsigned long,unsigned long,std::less<unsigned long>,std::allocator<std::pair<unsigned long const ,unsigned long> > >, COMDAT
; _this$ = ecx
; File C:\Program Files\Microsoft Visual Studio\2022\Community\VC\Tools\MSVC\14.44.35207\include\xtree

; 777  :         _Erase_tree(_Al, _Myhead->_Parent);

  00000	56		 push	 esi
  00001	8b f1		 mov	 esi, ecx
  00003	8b 06		 mov	 eax, DWORD PTR [esi]
  00005	ff 70 04	 push	 DWORD PTR [eax+4]
  00008	56		 push	 esi
  00009	e8 00 00 00 00	 call	 ??$_Erase_tree@V?$allocator@U?$_Tree_node@U?$pair@$$CBKK@std@@PAX@std@@@std@@@?$_Tree_val@U?$_Tree_simple_types@U?$pair@$$CBKK@std@@@std@@@std@@QAEXAAV?$allocator@U?$_Tree_node@U?$pair@$$CBKK@std@@PAX@std@@@1@PAU?$_Tree_node@U?$pair@$$CBKK@std@@PAX@1@@Z ; std::_Tree_val<std::_Tree_simple_types<std::pair<unsigned long const ,unsigned long> > >::_Erase_tree<std::allocator<std::_Tree_node<std::pair<unsigned long const ,unsigned long>,void *> > >
; File C:\Program Files\Microsoft Visual Studio\2022\Community\VC\Tools\MSVC\14.44.35207\include\xmemory

; 289  :         ::operator delete(_Ptr, _Bytes);

  0000e	6a 18		 push	 24			; 00000018H
  00010	ff 36		 push	 DWORD PTR [esi]
  00012	e8 00 00 00 00	 call	 ??3@YAXPAXI@Z		; operator delete
  00017	83 c4 08	 add	 esp, 8
  0001a	5e		 pop	 esi
  0001b	c3		 ret	 0
??1?$map@KKU?$less@K@std@@V?$allocator@U?$pair@$$CBKK@std@@@2@@std@@QAE@XZ ENDP ; std::map<unsigned long,unsigned long,std::less<unsigned long>,std::allocator<std::pair<unsigned long const ,unsigned long> > >::~map<unsigned long,unsigned long,std::less<unsigned long>,std::allocator<std::pair<unsigned long const ,unsigned long> > >
_TEXT	ENDS
; Function compile flags: /Ogtp
;	COMDAT ??0SMoveAfterFunc@CInstanceBase@@QAE@XZ
_TEXT	SEGMENT
??0SMoveAfterFunc@CInstanceBase@@QAE@XZ PROC		; CInstanceBase::SMoveAfterFunc::SMoveAfterFunc, COMDAT
; _this$ = ecx
  00000	8b c1		 mov	 eax, ecx
  00002	c3		 ret	 0
??0SMoveAfterFunc@CInstanceBase@@QAE@XZ ENDP		; CInstanceBase::SMoveAfterFunc::SMoveAfterFunc
_TEXT	ENDS
; Function compile flags: /Ogtp
; File D:\_m2work\Server Client TMP4\ClientVS22\source\UserInterface\InstanceBase.cpp
; File C:\Program Files\Microsoft Visual Studio\2022\Community\VC\Tools\MSVC\14.44.35207\include\list
; File C:\Program Files\Microsoft Visual Studio\2022\Community\VC\Tools\MSVC\14.44.35207\include\xmemory
; File C:\Program Files\Microsoft Visual Studio\2022\Community\VC\Tools\MSVC\14.44.35207\include\list
; File C:\Program Files\Microsoft Visual Studio\2022\Community\VC\Tools\MSVC\14.44.35207\include\xmemory
; File C:\Program Files\Microsoft Visual Studio\2022\Community\VC\Tools\MSVC\14.44.35207\include\list
; File C:\Program Files\Microsoft Visual Studio\2022\Community\VC\Tools\MSVC\14.44.35207\include\xmemory
; File C:\Program Files\Microsoft Visual Studio\2022\Community\VC\Tools\MSVC\14.44.35207\include\list
; File C:\Program Files\Microsoft Visual Studio\2022\Community\VC\Tools\MSVC\14.44.35207\include\xmemory
; File C:\Program Files\Microsoft Visual Studio\2022\Community\VC\Tools\MSVC\14.44.35207\include\list
; File C:\Program Files\Microsoft Visual Studio\2022\Community\VC\Tools\MSVC\14.44.35207\include\xmemory
; File D:\_m2work\Server Client TMP4\ClientVS22\source\UserInterface\InstanceBase.cpp
; File C:\Program Files\Microsoft Visual Studio\2022\Community\VC\Tools\MSVC\14.44.35207\include\xtree
; File C:\Program Files\Microsoft Visual Studio\2022\Community\VC\Tools\MSVC\14.44.35207\include\xmemory
; File D:\_m2work\Server Client TMP4\ClientVS22\source\UserInterface\InstanceBase.cpp
; File C:\Program Files\Microsoft Visual Studio\2022\Community\VC\Tools\MSVC\14.44.35207\include\xstring
; File D:\_m2work\Server Client TMP4\ClientVS22\source\UserInterface\InstanceBase.cpp
;	COMDAT ??1CInstanceBase@@UAE@XZ
_TEXT	SEGMENT
__$EHRec$ = -12						; size = 12
??1CInstanceBase@@UAE@XZ PROC				; CInstanceBase::~CInstanceBase, COMDAT
; _this$ = ecx

; 3106 : {

  00000	55		 push	 ebp
  00001	8b ec		 mov	 ebp, esp
  00003	6a ff		 push	 -1
  00005	68 00 00 00 00	 push	 __ehhandler$??1CInstanceBase@@UAE@XZ
  0000a	64 a1 00 00 00
	00		 mov	 eax, DWORD PTR fs:0
  00010	50		 push	 eax
  00011	56		 push	 esi
  00012	57		 push	 edi
  00013	a1 00 00 00 00	 mov	 eax, DWORD PTR ___security_cookie
  00018	33 c5		 xor	 eax, ebp
  0001a	50		 push	 eax
  0001b	8d 45 f4	 lea	 eax, DWORD PTR __$EHRec$[ebp]
  0001e	64 a3 00 00 00
	00		 mov	 DWORD PTR fs:0, eax
  00024	8b f9		 mov	 edi, ecx
  00026	c7 07 00 00 00
	00		 mov	 DWORD PTR [edi], OFFSET ??_7CInstanceBase@@6B@

; 3107 : 	Destroy();

  0002c	e8 00 00 00 00	 call	 ?Destroy@CInstanceBase@@QAEXXZ ; CInstanceBase::Destroy
; File C:\Program Files\Microsoft Visual Studio\2022\Community\VC\Tools\MSVC\14.44.35207\include\list

; 1518 :         _Node::_Free_non_head(_Al, _My_data._Myhead);

  00031	8b 97 9c 06 00
	00		 mov	 edx, DWORD PTR [edi+1692]

; 324  :         _Head->_Prev->_Next = nullptr;

  00037	8b 42 04	 mov	 eax, DWORD PTR [edx+4]
  0003a	c7 00 00 00 00
	00		 mov	 DWORD PTR [eax], 0

; 325  : 
; 326  :         auto _Pnode = _Head->_Next;

  00040	8b 02		 mov	 eax, DWORD PTR [edx]

; 327  :         for (_Nodeptr _Pnext; _Pnode; _Pnode = _Pnext) {

  00042	85 c0		 test	 eax, eax
  00044	74 13		 je	 SHORT $LN246@CInstanceB
$LL13@CInstanceB:

; 328  :             _Pnext = _Pnode->_Next;

  00046	8b 30		 mov	 esi, DWORD PTR [eax]
; File C:\Program Files\Microsoft Visual Studio\2022\Community\VC\Tools\MSVC\14.44.35207\include\xmemory

; 289  :         ::operator delete(_Ptr, _Bytes);

  00048	6a 18		 push	 24			; 00000018H
  0004a	50		 push	 eax
  0004b	e8 00 00 00 00	 call	 ??3@YAXPAXI@Z		; operator delete
  00050	83 c4 08	 add	 esp, 8
; File C:\Program Files\Microsoft Visual Studio\2022\Community\VC\Tools\MSVC\14.44.35207\include\list

; 327  :         for (_Nodeptr _Pnext; _Pnode; _Pnode = _Pnext) {

  00053	8b c6		 mov	 eax, esi
  00055	85 f6		 test	 esi, esi
  00057	75 ed		 jne	 SHORT $LL13@CInstanceB
$LN246@CInstanceB:
; File C:\Program Files\Microsoft Visual Studio\2022\Community\VC\Tools\MSVC\14.44.35207\include\xmemory

; 289  :         ::operator delete(_Ptr, _Bytes);

  00059	6a 18		 push	 24			; 00000018H
  0005b	ff b7 9c 06 00
	00		 push	 DWORD PTR [edi+1692]
  00061	e8 00 00 00 00	 call	 ??3@YAXPAXI@Z		; operator delete
; File C:\Program Files\Microsoft Visual Studio\2022\Community\VC\Tools\MSVC\14.44.35207\include\list

; 1518 :         _Node::_Free_non_head(_Al, _My_data._Myhead);

  00066	8b 8f 90 06 00
	00		 mov	 ecx, DWORD PTR [edi+1680]
; File C:\Program Files\Microsoft Visual Studio\2022\Community\VC\Tools\MSVC\14.44.35207\include\xmemory

; 289  :         ::operator delete(_Ptr, _Bytes);

  0006c	83 c4 08	 add	 esp, 8
; File C:\Program Files\Microsoft Visual Studio\2022\Community\VC\Tools\MSVC\14.44.35207\include\list

; 324  :         _Head->_Prev->_Next = nullptr;

  0006f	8b 41 04	 mov	 eax, DWORD PTR [ecx+4]
  00072	c7 00 00 00 00
	00		 mov	 DWORD PTR [eax], 0

; 325  : 
; 326  :         auto _Pnode = _Head->_Next;

  00078	8b 01		 mov	 eax, DWORD PTR [ecx]

; 327  :         for (_Nodeptr _Pnext; _Pnode; _Pnode = _Pnext) {

  0007a	85 c0		 test	 eax, eax
  0007c	74 15		 je	 SHORT $LN247@CInstanceB
  0007e	66 90		 npad	 2
$LL101@CInstanceB:

; 328  :             _Pnext = _Pnode->_Next;

  00080	8b 30		 mov	 esi, DWORD PTR [eax]
; File C:\Program Files\Microsoft Visual Studio\2022\Community\VC\Tools\MSVC\14.44.35207\include\xmemory

; 289  :         ::operator delete(_Ptr, _Bytes);

  00082	6a 2c		 push	 44			; 0000002cH
  00084	50		 push	 eax
  00085	e8 00 00 00 00	 call	 ??3@YAXPAXI@Z		; operator delete
  0008a	83 c4 08	 add	 esp, 8
; File C:\Program Files\Microsoft Visual Studio\2022\Community\VC\Tools\MSVC\14.44.35207\include\list

; 327  :         for (_Nodeptr _Pnext; _Pnode; _Pnode = _Pnext) {

  0008d	8b c6		 mov	 eax, esi
  0008f	85 f6		 test	 esi, esi
  00091	75 ed		 jne	 SHORT $LL101@CInstanceB
$LN247@CInstanceB:
; File C:\Program Files\Microsoft Visual Studio\2022\Community\VC\Tools\MSVC\14.44.35207\include\xmemory

; 289  :         ::operator delete(_Ptr, _Bytes);

  00093	6a 2c		 push	 44			; 0000002cH
  00095	ff b7 90 06 00
	00		 push	 DWORD PTR [edi+1680]
  0009b	e8 00 00 00 00	 call	 ??3@YAXPAXI@Z		; operator delete
  000a0	83 c4 08	 add	 esp, 8
; File D:\_m2work\Server Client TMP4\ClientVS22\source\UserInterface\InstanceBase.cpp

; 3108 : }

  000a3	8d 8f d4 01 00
	00		 lea	 ecx, DWORD PTR [edi+468]
  000a9	e8 00 00 00 00	 call	 ??1CActorInstance@@UAE@XZ ; CActorInstance::~CActorInstance
; File C:\Program Files\Microsoft Visual Studio\2022\Community\VC\Tools\MSVC\14.44.35207\include\xtree

; 777  :         _Erase_tree(_Al, _Myhead->_Parent);

  000ae	8b 87 50 01 00
	00		 mov	 eax, DWORD PTR [edi+336]
  000b4	8d b7 50 01 00
	00		 lea	 esi, DWORD PTR [edi+336]
  000ba	8b ce		 mov	 ecx, esi
  000bc	ff 70 04	 push	 DWORD PTR [eax+4]
  000bf	56		 push	 esi
  000c0	e8 00 00 00 00	 call	 ??$_Erase_tree@V?$allocator@U?$_Tree_node@U?$pair@$$CBKK@std@@PAX@std@@@std@@@?$_Tree_val@U?$_Tree_simple_types@U?$pair@$$CBKK@std@@@std@@@std@@QAEXAAV?$allocator@U?$_Tree_node@U?$pair@$$CBKK@std@@PAX@std@@@1@PAU?$_Tree_node@U?$pair@$$CBKK@std@@PAX@1@@Z ; std::_Tree_val<std::_Tree_simple_types<std::pair<unsigned long const ,unsigned long> > >::_Erase_tree<std::allocator<std::_Tree_node<std::pair<unsigned long const ,unsigned long>,void *> > >
; File C:\Program Files\Microsoft Visual Studio\2022\Community\VC\Tools\MSVC\14.44.35207\include\xmemory

; 289  :         ::operator delete(_Ptr, _Bytes);

  000c5	6a 18		 push	 24			; 00000018H
  000c7	ff 36		 push	 DWORD PTR [esi]
  000c9	e8 00 00 00 00	 call	 ??3@YAXPAXI@Z		; operator delete
  000ce	83 c4 08	 add	 esp, 8
; File D:\_m2work\Server Client TMP4\ClientVS22\source\UserInterface\InstanceBase.cpp

; 3108 : }

  000d1	8d 4f 10	 lea	 ecx, DWORD PTR [edi+16]
; File C:\Program Files\Microsoft Visual Studio\2022\Community\VC\Tools\MSVC\14.44.35207\include\xstring

; 1383 :         _Tidy_deallocate();

  000d4	e8 00 00 00 00	 call	 ?_Tidy_deallocate@?$basic_string@DU?$char_traits@D@std@@V?$allocator@D@2@@std@@AAEXXZ ; std::basic_string<char,std::char_traits<char>,std::allocator<char> >::_Tidy_deallocate
; File D:\_m2work\Server Client TMP4\ClientVS22\source\UserInterface\InstanceBase.cpp

; 3108 : }

  000d9	8b 4d f4	 mov	 ecx, DWORD PTR __$EHRec$[ebp]
  000dc	64 89 0d 00 00
	00 00		 mov	 DWORD PTR fs:0, ecx
  000e3	59		 pop	 ecx
  000e4	5f		 pop	 edi
  000e5	5e		 pop	 esi
  000e6	8b e5		 mov	 esp, ebp
  000e8	5d		 pop	 ebp
  000e9	c3		 ret	 0
  000ea	cc		 int	 3
  000eb	cc		 int	 3
  000ec	cc		 int	 3
  000ed	cc		 int	 3
  000ee	cc		 int	 3
_TEXT	ENDS
;	COMDAT text$x
text$x	SEGMENT
__ehhandler$??1CInstanceBase@@UAE@XZ:
  00000	90		 npad	 1
  00001	90		 npad	 1
  00002	8b 54 24 08	 mov	 edx, DWORD PTR [esp+8]
  00006	8d 42 0c	 lea	 eax, DWORD PTR [edx+12]
  00009	8b 4a f4	 mov	 ecx, DWORD PTR [edx-12]
  0000c	33 c8		 xor	 ecx, eax
  0000e	e8 00 00 00 00	 call	 @__security_check_cookie@4
  00013	b8 00 00 00 00	 mov	 eax, OFFSET __ehfuncinfo$??1CInstanceBase@@UAE@XZ
  00018	e9 00 00 00 00	 jmp	 ___CxxFrameHandler3
text$x	ENDS
??1CInstanceBase@@UAE@XZ ENDP				; CInstanceBase::~CInstanceBase
; Function compile flags: /Ogtp
; File D:\_m2work\Server Client TMP4\ClientVS22\source\UserInterface\InstanceBase.cpp
;	COMDAT ?GetBoundBox@CInstanceBase@@QAEXPAUD3DXVECTOR3@@0@Z
_TEXT	SEGMENT
_vtMin$ = 8						; size = 4
_vtMax$ = 12						; size = 4
?GetBoundBox@CInstanceBase@@QAEXPAUD3DXVECTOR3@@0@Z PROC ; CInstanceBase::GetBoundBox, COMDAT
; _this$ = ecx

; 3112 : {

  00000	55		 push	 ebp
  00001	8b ec		 mov	 ebp, esp

; 3113 : 	m_GraphicThingInstance.GetBoundBox(vtMin, vtMax);

  00003	81 c1 d4 01 00
	00		 add	 ecx, 468		; 000001d4H

; 3114 : }

  00009	5d		 pop	 ebp

; 3113 : 	m_GraphicThingInstance.GetBoundBox(vtMin, vtMax);

  0000a	e9 00 00 00 00	 jmp	 ?GetBoundBox@CGraphicThingInstance@@QAEXPAUD3DXVECTOR3@@0@Z ; CGraphicThingInstance::GetBoundBox
?GetBoundBox@CInstanceBase@@QAEXPAUD3DXVECTOR3@@0@Z ENDP ; CInstanceBase::GetBoundBox
_TEXT	ENDS
; Function compile flags: /Ogtp
; File D:\_m2work\Server Client TMP4\ClientVS22\source\UserInterface\InstanceBase.cpp
;	COMDAT ?SetLevel@CInstanceBase@@QAEXK@Z
_TEXT	SEGMENT
_dwLvl$ = 8						; size = 4
?SetLevel@CInstanceBase@@QAEXK@Z PROC			; CInstanceBase::SetLevel, COMDAT
; _this$ = ecx

; 3117 : {

  00000	55		 push	 ebp
  00001	8b ec		 mov	 ebp, esp

; 3118 : 	m_dwLevel = dwLvl;

  00003	8b 45 08	 mov	 eax, DWORD PTR _dwLvl$[ebp]
  00006	89 41 3c	 mov	 DWORD PTR [ecx+60], eax

; 3119 : }

  00009	5d		 pop	 ebp
  0000a	c2 04 00	 ret	 4
?SetLevel@CInstanceBase@@QAEXK@Z ENDP			; CInstanceBase::SetLevel
_TEXT	ENDS
; Function compile flags: /Ogtp
; File D:\_m2work\Server Client TMP4\ClientVS22\source\eterBase\Singleton.h
;	COMDAT ?Instance@?$CSingleton@VCItemManager@@@@SAAAVCItemManager@@XZ
_TEXT	SEGMENT
?Instance@?$CSingleton@VCItemManager@@@@SAAAVCItemManager@@XZ PROC ; CSingleton<CItemManager>::Instance, COMDAT

; 26   : 		assert(ms_singleton);
; 27   : 		return (*ms_singleton);

  00000	a1 00 00 00 00	 mov	 eax, DWORD PTR ?ms_singleton@?$CSingleton@VCItemManager@@@@0PAVCItemManager@@A ; CSingleton<CItemManager>::ms_singleton

; 28   : 	}

  00005	c3		 ret	 0
?Instance@?$CSingleton@VCItemManager@@@@SAAAVCItemManager@@XZ ENDP ; CSingleton<CItemManager>::Instance
_TEXT	ENDS
; Function compile flags: /Ogtp
; File D:\_m2work\Server Client TMP4\ClientVS22\source\UserInterface\AbstractSingleton.h
;	COMDAT ?GetSingleton@?$TAbstractSingleton@VIAbstractApplication@@@@SAAAVIAbstractApplication@@XZ
_TEXT	SEGMENT
?GetSingleton@?$TAbstractSingleton@VIAbstractApplication@@@@SAAAVIAbstractApplication@@XZ PROC ; TAbstractSingleton<IAbstractApplication>::GetSingleton, COMDAT

; 24   : 		assert(ms_singleton!=NULL);
; 25   : 		return (*ms_singleton);

  00000	a1 00 00 00 00	 mov	 eax, DWORD PTR ?ms_singleton@?$TAbstractSingleton@VIAbstractApplication@@@@0PAVIAbstractApplication@@A ; TAbstractSingleton<IAbstractApplication>::ms_singleton

; 26   : 	}	

  00005	c3		 ret	 0
?GetSingleton@?$TAbstractSingleton@VIAbstractApplication@@@@SAAAVIAbstractApplication@@XZ ENDP ; TAbstractSingleton<IAbstractApplication>::GetSingleton
_TEXT	ENDS
; Function compile flags: /Ogtp
; File D:\_m2work\Server Client TMP4\ClientVS22\source\eterBase\Singleton.h
;	COMDAT ?Instance@?$CSingleton@VCPythonCharacterManager@@@@SAAAVCPythonCharacterManager@@XZ
_TEXT	SEGMENT
?Instance@?$CSingleton@VCPythonCharacterManager@@@@SAAAVCPythonCharacterManager@@XZ PROC ; CSingleton<CPythonCharacterManager>::Instance, COMDAT

; 26   : 		assert(ms_singleton);
; 27   : 		return (*ms_singleton);

  00000	a1 00 00 00 00	 mov	 eax, DWORD PTR ?ms_singleton@?$CSingleton@VCPythonCharacterManager@@@@0PAVCPythonCharacterManager@@A ; CSingleton<CPythonCharacterManager>::ms_singleton

; 28   : 	}

  00005	c3		 ret	 0
?Instance@?$CSingleton@VCPythonCharacterManager@@@@SAAAVCPythonCharacterManager@@XZ ENDP ; CSingleton<CPythonCharacterManager>::Instance
_TEXT	ENDS
; Function compile flags: /Ogtp
; File D:\_m2work\Server Client TMP4\ClientVS22\source\eterBase\Singleton.h
;	COMDAT ?Instance@?$CSingleton@VCPythonPlayer@@@@SAAAVCPythonPlayer@@XZ
_TEXT	SEGMENT
?Instance@?$CSingleton@VCPythonPlayer@@@@SAAAVCPythonPlayer@@XZ PROC ; CSingleton<CPythonPlayer>::Instance, COMDAT

; 26   : 		assert(ms_singleton);
; 27   : 		return (*ms_singleton);

  00000	a1 00 00 00 00	 mov	 eax, DWORD PTR ?ms_singleton@?$CSingleton@VCPythonPlayer@@@@0PAVCPythonPlayer@@A ; CSingleton<CPythonPlayer>::ms_singleton

; 28   : 	}

  00005	c3		 ret	 0
?Instance@?$CSingleton@VCPythonPlayer@@@@SAAAVCPythonPlayer@@XZ ENDP ; CSingleton<CPythonPlayer>::Instance
_TEXT	ENDS
; Function compile flags: /Ogtp
; File D:\_m2work\Server Client TMP4\ClientVS22\source\UserInterface\AbstractSingleton.h
;	COMDAT ?GetSingleton@?$TAbstractSingleton@VIAbstractPlayer@@@@SAAAVIAbstractPlayer@@XZ
_TEXT	SEGMENT
?GetSingleton@?$TAbstractSingleton@VIAbstractPlayer@@@@SAAAVIAbstractPlayer@@XZ PROC ; TAbstractSingleton<IAbstractPlayer>::GetSingleton, COMDAT

; 24   : 		assert(ms_singleton!=NULL);
; 25   : 		return (*ms_singleton);

  00000	a1 00 00 00 00	 mov	 eax, DWORD PTR ?ms_singleton@?$TAbstractSingleton@VIAbstractPlayer@@@@0PAVIAbstractPlayer@@A ; TAbstractSingleton<IAbstractPlayer>::ms_singleton

; 26   : 	}	

  00005	c3		 ret	 0
?GetSingleton@?$TAbstractSingleton@VIAbstractPlayer@@@@SAAAVIAbstractPlayer@@XZ ENDP ; TAbstractSingleton<IAbstractPlayer>::GetSingleton
_TEXT	ENDS
; Function compile flags: /Ogtp
; File D:\_m2work\Server Client TMP4\ClientVS22\source\eterBase\Singleton.h
;	COMDAT ?Instance@?$CSingleton@VCPythonNonPlayer@@@@SAAAVCPythonNonPlayer@@XZ
_TEXT	SEGMENT
?Instance@?$CSingleton@VCPythonNonPlayer@@@@SAAAVCPythonNonPlayer@@XZ PROC ; CSingleton<CPythonNonPlayer>::Instance, COMDAT

; 26   : 		assert(ms_singleton);
; 27   : 		return (*ms_singleton);

  00000	a1 00 00 00 00	 mov	 eax, DWORD PTR ?ms_singleton@?$CSingleton@VCPythonNonPlayer@@@@0PAVCPythonNonPlayer@@A ; CSingleton<CPythonNonPlayer>::ms_singleton

; 28   : 	}

  00005	c3		 ret	 0
?Instance@?$CSingleton@VCPythonNonPlayer@@@@SAAAVCPythonNonPlayer@@XZ ENDP ; CSingleton<CPythonNonPlayer>::Instance
_TEXT	ENDS
; Function compile flags: /Ogtp
; File D:\_m2work\Server Client TMP4\ClientVS22\source\eterLib\Pool.h
; File C:\Program Files\Microsoft Visual Studio\2022\Community\VC\Tools\MSVC\14.44.35207\include\vector
; File D:\_m2work\Server Client TMP4\ClientVS22\source\eterLib\Pool.h
;	COMDAT ?GetCapacity@?$CDynamicPool@VCInstanceBase@@@@QAEKXZ
_TEXT	SEGMENT
?GetCapacity@?$CDynamicPool@VCInstanceBase@@@@QAEKXZ PROC ; CDynamicPool<CInstanceBase>::GetCapacity, COMDAT
; _this$dead$ = ecx
; File C:\Program Files\Microsoft Visual Studio\2022\Community\VC\Tools\MSVC\14.44.35207\include\vector

; 1915 :         return static_cast<size_type>(_My_data._Mylast - _My_data._Myfirst);

  00000	a1 08 00 00 00	 mov	 eax, DWORD PTR ?ms_kPool@CInstanceBase@@2V?$CDynamicPool@VCInstanceBase@@@@A+8
  00005	2b 05 04 00 00
	00		 sub	 eax, DWORD PTR ?ms_kPool@CInstanceBase@@2V?$CDynamicPool@VCInstanceBase@@@@A+4
  0000b	c1 f8 02	 sar	 eax, 2
; File D:\_m2work\Server Client TMP4\ClientVS22\source\eterLib\Pool.h

; 92   : 		}

  0000e	c3		 ret	 0
?GetCapacity@?$CDynamicPool@VCInstanceBase@@@@QAEKXZ ENDP ; CDynamicPool<CInstanceBase>::GetCapacity
_TEXT	ENDS
; Function compile flags: /Ogtp
; File D:\_m2work\Server Client TMP4\ClientVS22\source\eterLib\Pool.h
; File C:\Program Files\Microsoft Visual Studio\2022\Community\VC\Tools\MSVC\14.44.35207\include\vector
; File D:\_m2work\Server Client TMP4\ClientVS22\source\eterLib\Pool.h
;	COMDAT ?Free@?$CDynamicPool@VCInstanceBase@@@@QAEXPAVCInstanceBase@@@Z
_TEXT	SEGMENT
_pkData$ = 8						; size = 4
?Free@?$CDynamicPool@VCInstanceBase@@@@QAEXPAVCInstanceBase@@@Z PROC ; CDynamicPool<CInstanceBase>::Free, COMDAT
; _this$dead$ = ecx

; 77   : 		{

  00000	55		 push	 ebp
  00001	8b ec		 mov	 ebp, esp
; File C:\Program Files\Microsoft Visual Studio\2022\Community\VC\Tools\MSVC\14.44.35207\include\vector

; 933  :         _Emplace_one_at_back(_Val);

  00003	8d 45 08	 lea	 eax, DWORD PTR _pkData$[ebp]
  00006	b9 10 00 00 00	 mov	 ecx, OFFSET ?ms_kPool@CInstanceBase@@2V?$CDynamicPool@VCInstanceBase@@@@A+16
  0000b	50		 push	 eax
  0000c	e8 00 00 00 00	 call	 ??$_Emplace_one_at_back@ABQAVCInstanceBase@@@?$vector@PAVCInstanceBase@@V?$allocator@PAVCInstanceBase@@@std@@@std@@AAEAAPAVCInstanceBase@@ABQAV2@@Z ; std::vector<CInstanceBase *,std::allocator<CInstanceBase *> >::_Emplace_one_at_back<CInstanceBase * const &>
; File D:\_m2work\Server Client TMP4\ClientVS22\source\eterLib\Pool.h

; 83   : 		}

  00011	5d		 pop	 ebp
  00012	c2 04 00	 ret	 4
?Free@?$CDynamicPool@VCInstanceBase@@@@QAEXPAVCInstanceBase@@@Z ENDP ; CDynamicPool<CInstanceBase>::Free
_TEXT	ENDS
; Function compile flags: /Ogtp
; File D:\_m2work\Server Client TMP4\ClientVS22\source\eterLib\Pool.h
; File C:\Program Files\Microsoft Visual Studio\2022\Community\VC\Tools\MSVC\14.44.35207\include\vector
; File D:\_m2work\Server Client TMP4\ClientVS22\source\eterLib\Pool.h
; File C:\Program Files\Microsoft Visual Studio\2022\Community\VC\Tools\MSVC\14.44.35207\include\vector
; File D:\_m2work\Server Client TMP4\ClientVS22\source\eterLib\Pool.h
; File C:\Program Files\Microsoft Visual Studio\2022\Community\VC\Tools\MSVC\14.44.35207\include\vector
; File D:\_m2work\Server Client TMP4\ClientVS22\source\eterLib\Pool.h
; File C:\Program Files\Microsoft Visual Studio\2022\Community\VC\Tools\MSVC\14.44.35207\include\vector
; File D:\_m2work\Server Client TMP4\ClientVS22\source\eterLib\Pool.h
;	COMDAT ?Alloc@?$CDynamicPool@VCInstanceBase@@@@QAEPAVCInstanceBase@@XZ
_TEXT	SEGMENT
_pkNewData$2 = -16					; size = 4
$T3 = -16						; size = 4
__$EHRec$ = -12						; size = 12
?Alloc@?$CDynamicPool@VCInstanceBase@@@@QAEPAVCInstanceBase@@XZ PROC ; CDynamicPool<CInstanceBase>::Alloc, COMDAT
; _this$dead$ = ecx

; 63   : 		{

  00000	55		 push	 ebp
  00001	8b ec		 mov	 ebp, esp
  00003	6a ff		 push	 -1
  00005	68 00 00 00 00	 push	 __ehhandler$?Alloc@?$CDynamicPool@VCInstanceBase@@@@QAEPAVCInstanceBase@@XZ
  0000a	64 a1 00 00 00
	00		 mov	 eax, DWORD PTR fs:0
  00010	50		 push	 eax
  00011	51		 push	 ecx
  00012	56		 push	 esi
  00013	a1 00 00 00 00	 mov	 eax, DWORD PTR ___security_cookie
  00018	33 c5		 xor	 eax, ebp
  0001a	50		 push	 eax
  0001b	8d 45 f4	 lea	 eax, DWORD PTR __$EHRec$[ebp]
  0001e	64 a3 00 00 00
	00		 mov	 DWORD PTR fs:0, eax
; File C:\Program Files\Microsoft Visual Studio\2022\Community\VC\Tools\MSVC\14.44.35207\include\vector

; 1910 :         return _My_data._Myfirst == _My_data._Mylast;

  00024	8b 0d 14 00 00
	00		 mov	 ecx, DWORD PTR ?ms_kPool@CInstanceBase@@2V?$CDynamicPool@VCInstanceBase@@@@A+20
  0002a	39 0d 10 00 00
	00		 cmp	 DWORD PTR ?ms_kPool@CInstanceBase@@2V?$CDynamicPool@VCInstanceBase@@@@A+16, ecx
; File D:\_m2work\Server Client TMP4\ClientVS22\source\eterLib\Pool.h

; 64   : 			if (m_kVct_pkFree.empty())

  00030	75 50		 jne	 SHORT $LN2@Alloc

; 66   : 				T* pkNewData=new T;

  00032	68 b0 06 00 00	 push	 1712			; 000006b0H
  00037	e8 00 00 00 00	 call	 ??2@YAPAXI@Z		; operator new
  0003c	83 c4 04	 add	 esp, 4
  0003f	89 45 f0	 mov	 DWORD PTR $T3[ebp], eax
  00042	8b c8		 mov	 ecx, eax
  00044	c7 45 fc 00 00
	00 00		 mov	 DWORD PTR __$EHRec$[ebp+8], 0
  0004b	e8 00 00 00 00	 call	 ??0CInstanceBase@@QAE@XZ ; CInstanceBase::CInstanceBase
  00050	8b f0		 mov	 esi, eax
  00052	c7 45 fc ff ff
	ff ff		 mov	 DWORD PTR __$EHRec$[ebp+8], -1
; File C:\Program Files\Microsoft Visual Studio\2022\Community\VC\Tools\MSVC\14.44.35207\include\vector

; 933  :         _Emplace_one_at_back(_Val);

  00059	8d 45 f0	 lea	 eax, DWORD PTR _pkNewData$2[ebp]
; File D:\_m2work\Server Client TMP4\ClientVS22\source\eterLib\Pool.h

; 66   : 				T* pkNewData=new T;

  0005c	89 75 f0	 mov	 DWORD PTR _pkNewData$2[ebp], esi
; File C:\Program Files\Microsoft Visual Studio\2022\Community\VC\Tools\MSVC\14.44.35207\include\vector

; 933  :         _Emplace_one_at_back(_Val);

  0005f	50		 push	 eax
  00060	b9 04 00 00 00	 mov	 ecx, OFFSET ?ms_kPool@CInstanceBase@@2V?$CDynamicPool@VCInstanceBase@@@@A+4
  00065	e8 00 00 00 00	 call	 ??$_Emplace_one_at_back@ABQAVCInstanceBase@@@?$vector@PAVCInstanceBase@@V?$allocator@PAVCInstanceBase@@@std@@@std@@AAEAAPAVCInstanceBase@@ABQAV2@@Z ; std::vector<CInstanceBase *,std::allocator<CInstanceBase *> >::_Emplace_one_at_back<CInstanceBase * const &>
; File D:\_m2work\Server Client TMP4\ClientVS22\source\eterLib\Pool.h

; 68   : 				++m_uUsedCapacity;

  0006a	ff 05 20 00 00
	00		 inc	 DWORD PTR ?ms_kPool@CInstanceBase@@2V?$CDynamicPool@VCInstanceBase@@@@A+32

; 69   : 				return pkNewData;

  00070	8b c6		 mov	 eax, esi

; 75   : 		}

  00072	8b 4d f4	 mov	 ecx, DWORD PTR __$EHRec$[ebp]
  00075	64 89 0d 00 00
	00 00		 mov	 DWORD PTR fs:0, ecx
  0007c	59		 pop	 ecx
  0007d	5e		 pop	 esi
  0007e	8b e5		 mov	 esp, ebp
  00080	5d		 pop	 ebp
  00081	c3		 ret	 0
$LN2@Alloc:

; 70   : 			}
; 71   : 
; 72   : 			T* pkFreeData=m_kVct_pkFree.back();

  00082	8b 41 fc	 mov	 eax, DWORD PTR [ecx-4]
; File C:\Program Files\Microsoft Visual Studio\2022\Community\VC\Tools\MSVC\14.44.35207\include\vector

; 1989 :         return _My_data._Mylast[-1];

  00085	83 c1 fc	 add	 ecx, -4			; fffffffcH

; 1759 :         --_Mylast;

  00088	89 0d 14 00 00
	00		 mov	 DWORD PTR ?ms_kPool@CInstanceBase@@2V?$CDynamicPool@VCInstanceBase@@@@A+20, ecx
; File D:\_m2work\Server Client TMP4\ClientVS22\source\eterLib\Pool.h

; 75   : 		}

  0008e	8b 4d f4	 mov	 ecx, DWORD PTR __$EHRec$[ebp]
  00091	64 89 0d 00 00
	00 00		 mov	 DWORD PTR fs:0, ecx
  00098	59		 pop	 ecx
  00099	5e		 pop	 esi
  0009a	8b e5		 mov	 esp, ebp
  0009c	5d		 pop	 ebp
  0009d	c3		 ret	 0
_TEXT	ENDS
;	COMDAT text$x
text$x	SEGMENT
__unwindfunclet$?Alloc@?$CDynamicPool@VCInstanceBase@@@@QAEPAVCInstanceBase@@XZ$0:
  00000	68 b0 06 00 00	 push	 1712			; 000006b0H
  00005	8b 45 f0	 mov	 eax, DWORD PTR $T3[ebp]
  00008	50		 push	 eax
  00009	e8 00 00 00 00	 call	 ??3@YAXPAXI@Z		; operator delete
  0000e	83 c4 08	 add	 esp, 8
  00011	c3		 ret	 0
  00012	cc		 int	 3
  00013	cc		 int	 3
  00014	cc		 int	 3
  00015	cc		 int	 3
  00016	cc		 int	 3
__ehhandler$?Alloc@?$CDynamicPool@VCInstanceBase@@@@QAEPAVCInstanceBase@@XZ:
  00017	90		 npad	 1
  00018	90		 npad	 1
  00019	8b 54 24 08	 mov	 edx, DWORD PTR [esp+8]
  0001d	8d 42 0c	 lea	 eax, DWORD PTR [edx+12]
  00020	8b 4a f4	 mov	 ecx, DWORD PTR [edx-12]
  00023	33 c8		 xor	 ecx, eax
  00025	e8 00 00 00 00	 call	 @__security_check_cookie@4
  0002a	b8 00 00 00 00	 mov	 eax, OFFSET __ehfuncinfo$?Alloc@?$CDynamicPool@VCInstanceBase@@@@QAEPAVCInstanceBase@@XZ
  0002f	e9 00 00 00 00	 jmp	 ___CxxFrameHandler3
text$x	ENDS
?Alloc@?$CDynamicPool@VCInstanceBase@@@@QAEPAVCInstanceBase@@XZ ENDP ; CDynamicPool<CInstanceBase>::Alloc
; Function compile flags: /Ogtp
; File D:\_m2work\Server Client TMP4\ClientVS22\source\eterLib\Pool.h
; File C:\Program Files\Microsoft Visual Studio\2022\Community\VC\Tools\MSVC\14.44.35207\include\vector
; File D:\_m2work\Server Client TMP4\ClientVS22\source\eterLib\Pool.h
;	COMDAT ?Clear@?$CDynamicPool@VCInstanceBase@@@@QAEXXZ
_TEXT	SEGMENT
?Clear@?$CDynamicPool@VCInstanceBase@@@@QAEXXZ PROC	; CDynamicPool<CInstanceBase>::Clear, COMDAT
; _this$dead$ = ecx

; 33   : 		{			

  00000	56		 push	 esi

; 50   : 			for (auto v : m_kVct_pkData)

  00001	8b 35 04 00 00
	00		 mov	 esi, DWORD PTR ?ms_kPool@CInstanceBase@@2V?$CDynamicPool@VCInstanceBase@@@@A+4

; 33   : 		{			

  00007	57		 push	 edi

; 50   : 			for (auto v : m_kVct_pkData)

  00008	8b 3d 08 00 00
	00		 mov	 edi, DWORD PTR ?ms_kPool@CInstanceBase@@2V?$CDynamicPool@VCInstanceBase@@@@A+8
  0000e	3b f7		 cmp	 esi, edi
  00010	74 29		 je	 SHORT $LN12@Clear
$LL6@Clear:

; 111  : 			delete pkData;

  00012	8b 0e		 mov	 ecx, DWORD PTR [esi]
  00014	85 c9		 test	 ecx, ecx
  00016	74 06		 je	 SHORT $LN4@Clear
  00018	8b 01		 mov	 eax, DWORD PTR [ecx]
  0001a	6a 01		 push	 1
  0001c	ff 10		 call	 DWORD PTR [eax]
$LN4@Clear:

; 50   : 			for (auto v : m_kVct_pkData)

  0001e	83 c6 04	 add	 esi, 4
  00021	3b f7		 cmp	 esi, edi
  00023	75 ed		 jne	 SHORT $LL6@Clear
  00025	8b 3d 08 00 00
	00		 mov	 edi, DWORD PTR ?ms_kPool@CInstanceBase@@2V?$CDynamicPool@VCInstanceBase@@@@A+8
  0002b	8b 35 04 00 00
	00		 mov	 esi, DWORD PTR ?ms_kPool@CInstanceBase@@2V?$CDynamicPool@VCInstanceBase@@@@A+4
; File C:\Program Files\Microsoft Visual Studio\2022\Community\VC\Tools\MSVC\14.44.35207\include\vector

; 1812 :         if (_Myfirst == _Mylast) { // already empty, nothing to do

  00031	3b f7		 cmp	 esi, edi
  00033	74 06		 je	 SHORT $LN12@Clear

; 1813 :             // This is an optimization for debug mode: we can avoid taking the debug lock to invalidate iterators.
; 1814 :             // Note that when clearing an empty vector, this will preserve past-the-end iterators, which is allowed by
; 1815 :             // N4950 [sequence.reqmts]/54 "a.clear() [...] may invalidate the past-the-end iterator".
; 1816 :             return;
; 1817 :         }
; 1818 : 
; 1819 :         _My_data._Orphan_all();
; 1820 :         _Destroy_range(_Myfirst, _Mylast, _Getal());
; 1821 :         _ASAN_VECTOR_MODIFY(static_cast<difference_type>(_Myfirst - _Mylast)); // negative when destroying elements
; 1822 :         _Mylast = _Myfirst;

  00035	89 35 08 00 00
	00		 mov	 DWORD PTR ?ms_kPool@CInstanceBase@@2V?$CDynamicPool@VCInstanceBase@@@@A+8, esi
$LN12@Clear:

; 1812 :         if (_Myfirst == _Mylast) { // already empty, nothing to do

  0003b	a1 10 00 00 00	 mov	 eax, DWORD PTR ?ms_kPool@CInstanceBase@@2V?$CDynamicPool@VCInstanceBase@@@@A+16
  00040	5f		 pop	 edi
  00041	5e		 pop	 esi
  00042	3b 05 14 00 00
	00		 cmp	 eax, DWORD PTR ?ms_kPool@CInstanceBase@@2V?$CDynamicPool@VCInstanceBase@@@@A+20
  00048	74 05		 je	 SHORT $LN16@Clear

; 1813 :             // This is an optimization for debug mode: we can avoid taking the debug lock to invalidate iterators.
; 1814 :             // Note that when clearing an empty vector, this will preserve past-the-end iterators, which is allowed by
; 1815 :             // N4950 [sequence.reqmts]/54 "a.clear() [...] may invalidate the past-the-end iterator".
; 1816 :             return;
; 1817 :         }
; 1818 : 
; 1819 :         _My_data._Orphan_all();
; 1820 :         _Destroy_range(_Myfirst, _Mylast, _Getal());
; 1821 :         _ASAN_VECTOR_MODIFY(static_cast<difference_type>(_Myfirst - _Mylast)); // negative when destroying elements
; 1822 :         _Mylast = _Myfirst;

  0004a	a3 14 00 00 00	 mov	 DWORD PTR ?ms_kPool@CInstanceBase@@2V?$CDynamicPool@VCInstanceBase@@@@A+20, eax
$LN16@Clear:
; File D:\_m2work\Server Client TMP4\ClientVS22\source\eterLib\Pool.h

; 35   : 		}

  0004f	c3		 ret	 0
?Clear@?$CDynamicPool@VCInstanceBase@@@@QAEXXZ ENDP	; CDynamicPool<CInstanceBase>::Clear
_TEXT	ENDS
; Function compile flags: /Ogtp
; File D:\_m2work\Server Client TMP4\ClientVS22\source\eterLib\Pool.h
;	COMDAT ??1?$CDynamicPool@VCInstanceBase@@@@UAE@XZ
_TEXT	SEGMENT
??1?$CDynamicPool@VCInstanceBase@@@@UAE@XZ PROC		; CDynamicPool<CInstanceBase>::~CDynamicPool<CInstanceBase>, COMDAT
; _this$ = ecx

; 18   : 		{

  00000	56		 push	 esi
  00001	8b f1		 mov	 esi, ecx

; 19   : 			assert(m_kVct_pkData.empty());
; 20   : //#ifdef _DEBUG
; 21   : //			char szText[256];
; 22   : //			sprintf(szText, "--------------------------------------------------------------------- %s Pool Capacity %d\n", typeid(T).name(), m_uUsedCapacity);
; 23   : //			OutputDebugString(szText);
; 24   : //			printf(szText);			
; 25   : //#endif
; 26   : 		}

  00003	8d 4e 10	 lea	 ecx, DWORD PTR [esi+16]
  00006	c7 06 00 00 00
	00		 mov	 DWORD PTR [esi], OFFSET ??_7?$CDynamicPool@VCInstanceBase@@@@6B@
  0000c	e8 00 00 00 00	 call	 ??1?$vector@PAVCInstanceBase@@V?$allocator@PAVCInstanceBase@@@std@@@std@@QAE@XZ ; std::vector<CInstanceBase *,std::allocator<CInstanceBase *> >::~vector<CInstanceBase *,std::allocator<CInstanceBase *> >
  00011	8d 4e 04	 lea	 ecx, DWORD PTR [esi+4]
  00014	5e		 pop	 esi
  00015	e9 00 00 00 00	 jmp	 ??1?$vector@PAVCInstanceBase@@V?$allocator@PAVCInstanceBase@@@std@@@std@@QAE@XZ ; std::vector<CInstanceBase *,std::allocator<CInstanceBase *> >::~vector<CInstanceBase *,std::allocator<CInstanceBase *> >
??1?$CDynamicPool@VCInstanceBase@@@@UAE@XZ ENDP		; CDynamicPool<CInstanceBase>::~CDynamicPool<CInstanceBase>
_TEXT	ENDS
; Function compile flags: /Ogtp
; File D:\_m2work\Server Client TMP4\ClientVS22\source\eterLib\Pool.h
; File C:\Program Files\Microsoft Visual Studio\2022\Community\VC\Tools\MSVC\14.44.35207\include\vector
; File D:\_m2work\Server Client TMP4\ClientVS22\source\eterLib\Pool.h
; File C:\Program Files\Microsoft Visual Studio\2022\Community\VC\Tools\MSVC\14.44.35207\include\vector
; File D:\_m2work\Server Client TMP4\ClientVS22\source\eterLib\Pool.h
;	COMDAT ??0?$CDynamicPool@VCInstanceBase@@@@QAE@XZ
_TEXT	SEGMENT
??0?$CDynamicPool@VCInstanceBase@@@@QAE@XZ PROC		; CDynamicPool<CInstanceBase>::CDynamicPool<CInstanceBase>, COMDAT
; _this$dead$ = ecx

; 11   : 		CDynamicPool()

  00000	0f 57 c0	 xorps	 xmm0, xmm0

; 12   : 		{

  00003	c7 05 00 00 00
	00 00 00 00 00	 mov	 DWORD PTR ?ms_kPool@CInstanceBase@@2V?$CDynamicPool@VCInstanceBase@@@@A, OFFSET ??_7?$CDynamicPool@VCInstanceBase@@@@6B@
; File C:\Program Files\Microsoft Visual Studio\2022\Community\VC\Tools\MSVC\14.44.35207\include\vector

; 400  :     _CONSTEXPR20 _Vector_val() noexcept : _Myfirst(), _Mylast(), _Myend() {}

  0000d	0f 11 05 04 00
	00 00		 movups	 XMMWORD PTR ?ms_kPool@CInstanceBase@@2V?$CDynamicPool@VCInstanceBase@@@@A+4, xmm0
  00014	c7 05 14 00 00
	00 00 00 00 00	 mov	 DWORD PTR ?ms_kPool@CInstanceBase@@2V?$CDynamicPool@VCInstanceBase@@@@A+20, 0
; File D:\_m2work\Server Client TMP4\ClientVS22\source\eterLib\Pool.h

; 16   : 		}

  0001e	b8 00 00 00 00	 mov	 eax, OFFSET ?ms_kPool@CInstanceBase@@2V?$CDynamicPool@VCInstanceBase@@@@A ; CInstanceBase::ms_kPool
; File C:\Program Files\Microsoft Visual Studio\2022\Community\VC\Tools\MSVC\14.44.35207\include\vector

; 400  :     _CONSTEXPR20 _Vector_val() noexcept : _Myfirst(), _Mylast(), _Myend() {}

  00023	c7 05 18 00 00
	00 00 00 00 00	 mov	 DWORD PTR ?ms_kPool@CInstanceBase@@2V?$CDynamicPool@VCInstanceBase@@@@A+24, 0
; File D:\_m2work\Server Client TMP4\ClientVS22\source\eterLib\Pool.h

; 14   : 			m_uInitCapacity=0;

  0002d	c7 05 1c 00 00
	00 00 00 00 00	 mov	 DWORD PTR ?ms_kPool@CInstanceBase@@2V?$CDynamicPool@VCInstanceBase@@@@A+28, 0

; 15   : 			m_uUsedCapacity=0;

  00037	c7 05 20 00 00
	00 00 00 00 00	 mov	 DWORD PTR ?ms_kPool@CInstanceBase@@2V?$CDynamicPool@VCInstanceBase@@@@A+32, 0

; 16   : 		}

  00041	c3		 ret	 0
??0?$CDynamicPool@VCInstanceBase@@@@QAE@XZ ENDP		; CDynamicPool<CInstanceBase>::CDynamicPool<CInstanceBase>
_TEXT	ENDS
; Function compile flags: /Ogtp
; File C:\Program Files\Microsoft Visual Studio\2022\Community\VC\Tools\MSVC\14.44.35207\include\list
; File C:\Program Files\Microsoft Visual Studio\2022\Community\VC\Tools\MSVC\14.44.35207\include\xmemory
; File C:\Program Files\Microsoft Visual Studio\2022\Community\VC\Tools\MSVC\14.44.35207\include\list
; File C:\Program Files\Microsoft Visual Studio\2022\Community\VC\Tools\MSVC\14.44.35207\include\xmemory
; File C:\Program Files\Microsoft Visual Studio\2022\Community\VC\Tools\MSVC\14.44.35207\include\list
;	COMDAT ??1?$list@USEffectDamage@CInstanceBase@@V?$allocator@USEffectDamage@CInstanceBase@@@std@@@std@@QAE@XZ
_TEXT	SEGMENT
??1?$list@USEffectDamage@CInstanceBase@@V?$allocator@USEffectDamage@CInstanceBase@@@std@@@std@@QAE@XZ PROC ; std::list<CInstanceBase::SEffectDamage,std::allocator<CInstanceBase::SEffectDamage> >::~list<CInstanceBase::SEffectDamage,std::allocator<CInstanceBase::SEffectDamage> >, COMDAT
; _this$ = ecx

; 1060 :     ~list() noexcept {

  00000	57		 push	 edi
  00001	8b f9		 mov	 edi, ecx

; 1518 :         _Node::_Free_non_head(_Al, _My_data._Myhead);

  00003	8b 17		 mov	 edx, DWORD PTR [edi]

; 324  :         _Head->_Prev->_Next = nullptr;

  00005	8b 42 04	 mov	 eax, DWORD PTR [edx+4]
  00008	c7 00 00 00 00
	00		 mov	 DWORD PTR [eax], 0

; 325  : 
; 326  :         auto _Pnode = _Head->_Next;

  0000e	8b 02		 mov	 eax, DWORD PTR [edx]

; 327  :         for (_Nodeptr _Pnext; _Pnode; _Pnode = _Pnext) {

  00010	85 c0		 test	 eax, eax
  00012	74 15		 je	 SHORT $LN92@list
  00014	56		 push	 esi
$LL10@list:

; 328  :             _Pnext = _Pnode->_Next;

  00015	8b 30		 mov	 esi, DWORD PTR [eax]
; File C:\Program Files\Microsoft Visual Studio\2022\Community\VC\Tools\MSVC\14.44.35207\include\xmemory

; 289  :         ::operator delete(_Ptr, _Bytes);

  00017	6a 18		 push	 24			; 00000018H
  00019	50		 push	 eax
  0001a	e8 00 00 00 00	 call	 ??3@YAXPAXI@Z		; operator delete
  0001f	83 c4 08	 add	 esp, 8
; File C:\Program Files\Microsoft Visual Studio\2022\Community\VC\Tools\MSVC\14.44.35207\include\list

; 327  :         for (_Nodeptr _Pnext; _Pnode; _Pnode = _Pnext) {

  00022	8b c6		 mov	 eax, esi
  00024	85 f6		 test	 esi, esi
  00026	75 ed		 jne	 SHORT $LL10@list
  00028	5e		 pop	 esi
$LN92@list:
; File C:\Program Files\Microsoft Visual Studio\2022\Community\VC\Tools\MSVC\14.44.35207\include\xmemory

; 289  :         ::operator delete(_Ptr, _Bytes);

  00029	6a 18		 push	 24			; 00000018H
  0002b	ff 37		 push	 DWORD PTR [edi]
  0002d	e8 00 00 00 00	 call	 ??3@YAXPAXI@Z		; operator delete
  00032	83 c4 08	 add	 esp, 8
  00035	5f		 pop	 edi
; File C:\Program Files\Microsoft Visual Studio\2022\Community\VC\Tools\MSVC\14.44.35207\include\list

; 1066 :     }

  00036	c3		 ret	 0
??1?$list@USEffectDamage@CInstanceBase@@V?$allocator@USEffectDamage@CInstanceBase@@@std@@@std@@QAE@XZ ENDP ; std::list<CInstanceBase::SEffectDamage,std::allocator<CInstanceBase::SEffectDamage> >::~list<CInstanceBase::SEffectDamage,std::allocator<CInstanceBase::SEffectDamage> >
_TEXT	ENDS
; Function compile flags: /Ogtp
; File C:\Program Files\Microsoft Visual Studio\2022\Community\VC\Tools\MSVC\14.44.35207\include\list
; File C:\Program Files\Microsoft Visual Studio\2022\Community\VC\Tools\MSVC\14.44.35207\include\xmemory
; File C:\Program Files\Microsoft Visual Studio\2022\Community\VC\Tools\MSVC\14.44.35207\include\list
; File C:\Program Files\Microsoft Visual Studio\2022\Community\VC\Tools\MSVC\14.44.35207\include\xmemory
; File C:\Program Files\Microsoft Visual Studio\2022\Community\VC\Tools\MSVC\14.44.35207\include\list
;	COMDAT ??0?$list@USEffectDamage@CInstanceBase@@V?$allocator@USEffectDamage@CInstanceBase@@@std@@@std@@QAE@XZ
_TEXT	SEGMENT
??0?$list@USEffectDamage@CInstanceBase@@V?$allocator@USEffectDamage@CInstanceBase@@@std@@@std@@QAE@XZ PROC ; std::list<CInstanceBase::SEffectDamage,std::allocator<CInstanceBase::SEffectDamage> >::list<CInstanceBase::SEffectDamage,std::allocator<CInstanceBase::SEffectDamage> >, COMDAT
; _this$ = ecx

; 812  :     list() : _Mypair(_Zero_then_variadic_args_t{}) {

  00000	56		 push	 esi
  00001	8b f1		 mov	 esi, ecx
; File C:\Program Files\Microsoft Visual Studio\2022\Community\VC\Tools\MSVC\14.44.35207\include\xmemory

; 136  :         return ::operator new(_Bytes);

  00003	6a 18		 push	 24			; 00000018H
; File C:\Program Files\Microsoft Visual Studio\2022\Community\VC\Tools\MSVC\14.44.35207\include\list

; 353  :     _List_val() noexcept : _Myhead(), _Mysize(0) {} // initialize data

  00005	c7 06 00 00 00
	00		 mov	 DWORD PTR [esi], 0
  0000b	c7 46 04 00 00
	00 00		 mov	 DWORD PTR [esi+4], 0
; File C:\Program Files\Microsoft Visual Studio\2022\Community\VC\Tools\MSVC\14.44.35207\include\xmemory

; 136  :         return ::operator new(_Bytes);

  00012	e8 00 00 00 00	 call	 ??2@YAPAXI@Z		; operator new
  00017	83 c4 04	 add	 esp, 4
; File C:\Program Files\Microsoft Visual Studio\2022\Community\VC\Tools\MSVC\14.44.35207\include\list

; 1852 :         _Construct_in_place(_Newhead->_Next, _Newhead);

  0001a	89 00		 mov	 DWORD PTR [eax], eax

; 1853 :         _Construct_in_place(_Newhead->_Prev, _Newhead);

  0001c	89 40 04	 mov	 DWORD PTR [eax+4], eax

; 1854 :         _Mypair._Myval2._Myhead = _Newhead;

  0001f	89 06		 mov	 DWORD PTR [esi], eax

; 813  :         _Alloc_sentinel_and_proxy();
; 814  :     }

  00021	8b c6		 mov	 eax, esi
  00023	5e		 pop	 esi
  00024	c3		 ret	 0
??0?$list@USEffectDamage@CInstanceBase@@V?$allocator@USEffectDamage@CInstanceBase@@@std@@@std@@QAE@XZ ENDP ; std::list<CInstanceBase::SEffectDamage,std::allocator<CInstanceBase::SEffectDamage> >::list<CInstanceBase::SEffectDamage,std::allocator<CInstanceBase::SEffectDamage> >
_TEXT	ENDS
; Function compile flags: /Ogtp
; File C:\Program Files\Microsoft Visual Studio\2022\Community\VC\Tools\MSVC\14.44.35207\include\list
; File C:\Program Files\Microsoft Visual Studio\2022\Community\VC\Tools\MSVC\14.44.35207\include\xmemory
; File C:\Program Files\Microsoft Visual Studio\2022\Community\VC\Tools\MSVC\14.44.35207\include\list
;	COMDAT ?clear@?$list@USCommand@CInstanceBase@@V?$allocator@USCommand@CInstanceBase@@@std@@@std@@QAEXXZ
_TEXT	SEGMENT
?clear@?$list@USCommand@CInstanceBase@@V?$allocator@USCommand@CInstanceBase@@@std@@@std@@QAEXXZ PROC ; std::list<CInstanceBase::SCommand,std::allocator<CInstanceBase::SCommand> >::clear, COMDAT
; _this$ = ecx

; 1504 :     void clear() noexcept { // erase all

  00000	57		 push	 edi
  00001	8b f9		 mov	 edi, ecx

; 1505 :         auto& _My_data = _Mypair._Myval2;
; 1506 :         _My_data._Orphan_non_end();
; 1507 :         _Node::_Free_non_head(_Getal(), _My_data._Myhead);

  00003	8b 17		 mov	 edx, DWORD PTR [edi]

; 324  :         _Head->_Prev->_Next = nullptr;

  00005	8b 42 04	 mov	 eax, DWORD PTR [edx+4]
  00008	c7 00 00 00 00
	00		 mov	 DWORD PTR [eax], 0

; 325  : 
; 326  :         auto _Pnode = _Head->_Next;

  0000e	8b 02		 mov	 eax, DWORD PTR [edx]

; 327  :         for (_Nodeptr _Pnext; _Pnode; _Pnode = _Pnext) {

  00010	85 c0		 test	 eax, eax
  00012	74 15		 je	 SHORT $LN54@clear
  00014	56		 push	 esi
$LL7@clear:

; 328  :             _Pnext = _Pnode->_Next;

  00015	8b 30		 mov	 esi, DWORD PTR [eax]
; File C:\Program Files\Microsoft Visual Studio\2022\Community\VC\Tools\MSVC\14.44.35207\include\xmemory

; 289  :         ::operator delete(_Ptr, _Bytes);

  00017	6a 2c		 push	 44			; 0000002cH
  00019	50		 push	 eax
  0001a	e8 00 00 00 00	 call	 ??3@YAXPAXI@Z		; operator delete
  0001f	83 c4 08	 add	 esp, 8
; File C:\Program Files\Microsoft Visual Studio\2022\Community\VC\Tools\MSVC\14.44.35207\include\list

; 327  :         for (_Nodeptr _Pnext; _Pnode; _Pnode = _Pnext) {

  00022	8b c6		 mov	 eax, esi
  00024	85 f6		 test	 esi, esi
  00026	75 ed		 jne	 SHORT $LL7@clear
  00028	5e		 pop	 esi
$LN54@clear:

; 1508 :         _My_data._Myhead->_Next = _My_data._Myhead;

  00029	8b 07		 mov	 eax, DWORD PTR [edi]
  0002b	89 00		 mov	 DWORD PTR [eax], eax

; 1509 :         _My_data._Myhead->_Prev = _My_data._Myhead;

  0002d	8b 07		 mov	 eax, DWORD PTR [edi]
  0002f	89 40 04	 mov	 DWORD PTR [eax+4], eax

; 1510 :         _My_data._Mysize        = 0;

  00032	c7 47 04 00 00
	00 00		 mov	 DWORD PTR [edi+4], 0
  00039	5f		 pop	 edi

; 1511 :     }

  0003a	c3		 ret	 0
?clear@?$list@USCommand@CInstanceBase@@V?$allocator@USCommand@CInstanceBase@@@std@@@std@@QAEXXZ ENDP ; std::list<CInstanceBase::SCommand,std::allocator<CInstanceBase::SCommand> >::clear
_TEXT	ENDS
; Function compile flags: /Ogtp
; File C:\Program Files\Microsoft Visual Studio\2022\Community\VC\Tools\MSVC\14.44.35207\include\list
; File C:\Program Files\Microsoft Visual Studio\2022\Community\VC\Tools\MSVC\14.44.35207\include\xmemory
; File C:\Program Files\Microsoft Visual Studio\2022\Community\VC\Tools\MSVC\14.44.35207\include\list
; File C:\Program Files\Microsoft Visual Studio\2022\Community\VC\Tools\MSVC\14.44.35207\include\xmemory
; File C:\Program Files\Microsoft Visual Studio\2022\Community\VC\Tools\MSVC\14.44.35207\include\xutility
; File C:\Program Files\Microsoft Visual Studio\2022\Community\VC\Tools\MSVC\14.44.35207\include\list
;	COMDAT ?push_back@?$list@USCommand@CInstanceBase@@V?$allocator@USCommand@CInstanceBase@@@std@@@std@@QAEXABUSCommand@CInstanceBase@@@Z
_TEXT	SEGMENT
__Op$2 = -24						; size = 8
__$EHRec$ = -12						; size = 12
__Val$ = 8						; size = 4
?push_back@?$list@USCommand@CInstanceBase@@V?$allocator@USCommand@CInstanceBase@@@std@@@std@@QAEXABUSCommand@CInstanceBase@@@Z PROC ; std::list<CInstanceBase::SCommand,std::allocator<CInstanceBase::SCommand> >::push_back, COMDAT
; _this$ = ecx

; 1273 :     void push_back(const _Ty& _Val) {

  00000	53		 push	 ebx
  00001	8b dc		 mov	 ebx, esp
  00003	83 ec 08	 sub	 esp, 8
  00006	83 e4 f8	 and	 esp, -8			; fffffff8H
  00009	83 c4 04	 add	 esp, 4
  0000c	55		 push	 ebp
  0000d	8b 6b 04	 mov	 ebp, DWORD PTR [ebx+4]
  00010	89 6c 24 04	 mov	 DWORD PTR [esp+4], ebp
  00014	8b ec		 mov	 ebp, esp
  00016	6a ff		 push	 -1
  00018	68 00 00 00 00	 push	 __ehhandler$?push_back@?$list@USCommand@CInstanceBase@@V?$allocator@USCommand@CInstanceBase@@@std@@@std@@QAEXABUSCommand@CInstanceBase@@@Z
  0001d	64 a1 00 00 00
	00		 mov	 eax, DWORD PTR fs:0
  00023	50		 push	 eax
  00024	53		 push	 ebx
  00025	83 ec 08	 sub	 esp, 8
  00028	56		 push	 esi
  00029	57		 push	 edi
  0002a	a1 00 00 00 00	 mov	 eax, DWORD PTR ___security_cookie
  0002f	33 c5		 xor	 eax, ebp
  00031	50		 push	 eax
  00032	8d 45 f4	 lea	 eax, DWORD PTR __$EHRec$[ebp]
  00035	64 a3 00 00 00
	00		 mov	 DWORD PTR fs:0, eax
  0003b	8b f1		 mov	 esi, ecx

; 1030 :         if (_Mysize == max_size()) {

  0003d	81 7e 04 5d 74
	d1 05		 cmp	 DWORD PTR [esi+4], 97612893 ; 05d1745dH

; 1274 :         _Emplace(_Mypair._Myval2._Myhead, _Val);

  00044	8b 3e		 mov	 edi, DWORD PTR [esi]

; 1030 :         if (_Mysize == max_size()) {

  00046	74 5b		 je	 SHORT $LN64@push_back
; File C:\Program Files\Microsoft Visual Studio\2022\Community\VC\Tools\MSVC\14.44.35207\include\xmemory

; 1160 :     _CONSTEXPR20 explicit _Alloc_construct_ptr(_Alloc& _Al_) : _Al(_Al_), _Ptr(nullptr) {}

  00048	89 75 e8	 mov	 DWORD PTR __Op$2[ebp], esi
; File C:\Program Files\Microsoft Visual Studio\2022\Community\VC\Tools\MSVC\14.44.35207\include\list

; 593  :     explicit _List_node_emplace_op2(_Alnode& _Al_, _Valtys&&... _Vals) : _Alloc_construct_ptr<_Alnode>(_Al_) {

  0004b	c7 45 fc 00 00
	00 00		 mov	 DWORD PTR __$EHRec$[ebp+8], 0
; File C:\Program Files\Microsoft Visual Studio\2022\Community\VC\Tools\MSVC\14.44.35207\include\xmemory

; 1168 :         _Ptr = _Al.allocate(1);

  00052	6a 2c		 push	 44			; 0000002cH
  00054	c7 45 ec 00 00
	00 00		 mov	 DWORD PTR __Op$2[ebp+4], 0
  0005b	e8 00 00 00 00	 call	 ??2@YAPAXI@Z		; operator new
  00060	8b c8		 mov	 ecx, eax
  00062	83 c4 04	 add	 esp, 4
; File C:\Program Files\Microsoft Visual Studio\2022\Community\VC\Tools\MSVC\14.44.35207\include\xutility

; 463  :     _MSVC_CONSTEXPR return ::new (static_cast<void*>(_Location)) _Ty(_STD forward<_Types>(_Args)...);

  00065	8b 43 08	 mov	 eax, DWORD PTR __Val$[ebx]
  00068	0f 10 00	 movups	 xmm0, XMMWORD PTR [eax]
  0006b	0f 11 41 08	 movups	 XMMWORD PTR [ecx+8], xmm0
  0006f	0f 10 40 10	 movups	 xmm0, XMMWORD PTR [eax+16]
  00073	0f 11 41 18	 movups	 XMMWORD PTR [ecx+24], xmm0
  00077	8b 40 20	 mov	 eax, DWORD PTR [eax+32]
  0007a	89 41 28	 mov	 DWORD PTR [ecx+40], eax
; File C:\Program Files\Microsoft Visual Studio\2022\Community\VC\Tools\MSVC\14.44.35207\include\list

; 1035 :         ++_Mysize;

  0007d	ff 46 04	 inc	 DWORD PTR [esi+4]

; 608  :         const pointer _Insert_after = _Insert_before->_Prev;

  00080	8b 47 04	 mov	 eax, DWORD PTR [edi+4]

; 609  :         _Construct_in_place(this->_Ptr->_Next, _Insert_before);

  00083	89 39		 mov	 DWORD PTR [ecx], edi

; 610  :         _Construct_in_place(this->_Ptr->_Prev, _Insert_after);

  00085	89 41 04	 mov	 DWORD PTR [ecx+4], eax

; 611  :         const auto _Result    = this->_Ptr;
; 612  :         this->_Ptr            = pointer{};
; 613  :         _Insert_before->_Prev = _Result;

  00088	89 4f 04	 mov	 DWORD PTR [edi+4], ecx

; 614  :         _Insert_after->_Next  = _Result;

  0008b	89 08		 mov	 DWORD PTR [eax], ecx

; 1275 :     }

  0008d	8b 4d f4	 mov	 ecx, DWORD PTR __$EHRec$[ebp]
  00090	64 89 0d 00 00
	00 00		 mov	 DWORD PTR fs:0, ecx
  00097	59		 pop	 ecx
  00098	5f		 pop	 edi
  00099	5e		 pop	 esi
  0009a	8b e5		 mov	 esp, ebp
  0009c	5d		 pop	 ebp
  0009d	8b e3		 mov	 esp, ebx
  0009f	5b		 pop	 ebx
  000a0	c2 04 00	 ret	 4
$LN64@push_back:

; 1031 :             _Xlength_error("list too long");

  000a3	68 00 00 00 00	 push	 OFFSET ??_C@_0O@NKNMEGII@list?5too?5long@
  000a8	e8 00 00 00 00	 call	 ?_Xlength_error@std@@YAXPBD@Z ; std::_Xlength_error
$LN62@push_back:
  000ad	cc		 int	 3
_TEXT	ENDS
;	COMDAT text$x
text$x	SEGMENT
__unwindfunclet$?push_back@?$list@USCommand@CInstanceBase@@V?$allocator@USCommand@CInstanceBase@@@std@@@std@@QAEXABUSCommand@CInstanceBase@@@Z$1:
  00000	8d 4d e8	 lea	 ecx, DWORD PTR __Op$2[ebp]
  00003	e9 00 00 00 00	 jmp	 ??1?$_Alloc_construct_ptr@V?$allocator@U?$_List_node@USCommand@CInstanceBase@@PAX@std@@@std@@@std@@QAE@XZ ; std::_Alloc_construct_ptr<std::allocator<std::_List_node<CInstanceBase::SCommand,void *> > >::~_Alloc_construct_ptr<std::allocator<std::_List_node<CInstanceBase::SCommand,void *> > >
  00008	cc		 int	 3
  00009	cc		 int	 3
  0000a	cc		 int	 3
  0000b	cc		 int	 3
  0000c	cc		 int	 3
__ehhandler$?push_back@?$list@USCommand@CInstanceBase@@V?$allocator@USCommand@CInstanceBase@@@std@@@std@@QAEXABUSCommand@CInstanceBase@@@Z:
  0000d	90		 npad	 1
  0000e	90		 npad	 1
  0000f	8b 54 24 08	 mov	 edx, DWORD PTR [esp+8]
  00013	8d 42 0c	 lea	 eax, DWORD PTR [edx+12]
  00016	8b 4a e8	 mov	 ecx, DWORD PTR [edx-24]
  00019	33 c8		 xor	 ecx, eax
  0001b	e8 00 00 00 00	 call	 @__security_check_cookie@4
  00020	b8 00 00 00 00	 mov	 eax, OFFSET __ehfuncinfo$?push_back@?$list@USCommand@CInstanceBase@@V?$allocator@USCommand@CInstanceBase@@@std@@@std@@QAEXABUSCommand@CInstanceBase@@@Z
  00025	e9 00 00 00 00	 jmp	 ___CxxFrameHandler3
text$x	ENDS
?push_back@?$list@USCommand@CInstanceBase@@V?$allocator@USCommand@CInstanceBase@@@std@@@std@@QAEXABUSCommand@CInstanceBase@@@Z ENDP ; std::list<CInstanceBase::SCommand,std::allocator<CInstanceBase::SCommand> >::push_back
; Function compile flags: /Ogtp
; File C:\Program Files\Microsoft Visual Studio\2022\Community\VC\Tools\MSVC\14.44.35207\include\list
; File C:\Program Files\Microsoft Visual Studio\2022\Community\VC\Tools\MSVC\14.44.35207\include\xmemory
; File C:\Program Files\Microsoft Visual Studio\2022\Community\VC\Tools\MSVC\14.44.35207\include\list
; File C:\Program Files\Microsoft Visual Studio\2022\Community\VC\Tools\MSVC\14.44.35207\include\xmemory
; File C:\Program Files\Microsoft Visual Studio\2022\Community\VC\Tools\MSVC\14.44.35207\include\list
; File C:\Program Files\Microsoft Visual Studio\2022\Community\VC\Tools\MSVC\14.44.35207\include\xmemory
; File C:\Program Files\Microsoft Visual Studio\2022\Community\VC\Tools\MSVC\14.44.35207\include\list
;	COMDAT ?pop_front@?$list@USCommand@CInstanceBase@@V?$allocator@USCommand@CInstanceBase@@@std@@@std@@QAEXXZ
_TEXT	SEGMENT
?pop_front@?$list@USCommand@CInstanceBase@@V?$allocator@USCommand@CInstanceBase@@@std@@@std@@QAEXXZ PROC ; std::list<CInstanceBase::SCommand,std::allocator<CInstanceBase::SCommand> >::pop_front, COMDAT
; _this$ = ecx

; 1270 :         _Unchecked_erase(_Mypair._Myval2._Myhead->_Next);

  00000	8b 01		 mov	 eax, DWORD PTR [ecx]
  00002	56		 push	 esi
; File C:\Program Files\Microsoft Visual Studio\2022\Community\VC\Tools\MSVC\14.44.35207\include\xmemory

; 289  :         ::operator delete(_Ptr, _Bytes);

  00003	6a 2c		 push	 44			; 0000002cH
; File C:\Program Files\Microsoft Visual Studio\2022\Community\VC\Tools\MSVC\14.44.35207\include\list

; 1270 :         _Unchecked_erase(_Mypair._Myval2._Myhead->_Next);

  00005	8b 30		 mov	 esi, DWORD PTR [eax]
; File C:\Program Files\Microsoft Visual Studio\2022\Community\VC\Tools\MSVC\14.44.35207\include\xmemory

; 289  :         ::operator delete(_Ptr, _Bytes);

  00007	56		 push	 esi
; File C:\Program Files\Microsoft Visual Studio\2022\Community\VC\Tools\MSVC\14.44.35207\include\list

; 1438 :         const auto _Result = _Pnode->_Next;

  00008	8b 16		 mov	 edx, DWORD PTR [esi]

; 1439 :         _Mypair._Myval2._Orphan_ptr2(_Pnode);
; 1440 :         --_Mypair._Myval2._Mysize;

  0000a	ff 49 04	 dec	 DWORD PTR [ecx+4]

; 1441 :         _Pnode->_Prev->_Next = _Result;

  0000d	8b 46 04	 mov	 eax, DWORD PTR [esi+4]
  00010	89 10		 mov	 DWORD PTR [eax], edx

; 1442 :         _Result->_Prev       = _Pnode->_Prev;

  00012	8b 46 04	 mov	 eax, DWORD PTR [esi+4]
  00015	89 42 04	 mov	 DWORD PTR [edx+4], eax
; File C:\Program Files\Microsoft Visual Studio\2022\Community\VC\Tools\MSVC\14.44.35207\include\xmemory

; 289  :         ::operator delete(_Ptr, _Bytes);

  00018	e8 00 00 00 00	 call	 ??3@YAXPAXI@Z		; operator delete
  0001d	83 c4 08	 add	 esp, 8
  00020	5e		 pop	 esi
; File C:\Program Files\Microsoft Visual Studio\2022\Community\VC\Tools\MSVC\14.44.35207\include\list

; 1271 :     }

  00021	c3		 ret	 0
?pop_front@?$list@USCommand@CInstanceBase@@V?$allocator@USCommand@CInstanceBase@@@std@@@std@@QAEXXZ ENDP ; std::list<CInstanceBase::SCommand,std::allocator<CInstanceBase::SCommand> >::pop_front
_TEXT	ENDS
; Function compile flags: /Ogtp
; File C:\Program Files\Microsoft Visual Studio\2022\Community\VC\Tools\MSVC\14.44.35207\include\list
;	COMDAT ?front@?$list@USCommand@CInstanceBase@@V?$allocator@USCommand@CInstanceBase@@@std@@@std@@QAEAAUSCommand@CInstanceBase@@XZ
_TEXT	SEGMENT
?front@?$list@USCommand@CInstanceBase@@V?$allocator@USCommand@CInstanceBase@@@std@@@std@@QAEAAUSCommand@CInstanceBase@@XZ PROC ; std::list<CInstanceBase::SCommand,std::allocator<CInstanceBase::SCommand> >::front, COMDAT
; _this$ = ecx

; 1221 : #if _MSVC_STL_HARDENING_LIST || _ITERATOR_DEBUG_LEVEL != 0
; 1222 :         _STL_VERIFY(_Mypair._Myval2._Mysize != 0, "front() called on empty list");
; 1223 : #endif
; 1224 : 
; 1225 :         return _Mypair._Myval2._Myhead->_Next->_Myval;

  00000	8b 01		 mov	 eax, DWORD PTR [ecx]
  00002	8b 00		 mov	 eax, DWORD PTR [eax]
  00004	83 c0 08	 add	 eax, 8

; 1226 :     }

  00007	c3		 ret	 0
?front@?$list@USCommand@CInstanceBase@@V?$allocator@USCommand@CInstanceBase@@@std@@@std@@QAEAAUSCommand@CInstanceBase@@XZ ENDP ; std::list<CInstanceBase::SCommand,std::allocator<CInstanceBase::SCommand> >::front
_TEXT	ENDS
; Function compile flags: /Ogtp
; File C:\Program Files\Microsoft Visual Studio\2022\Community\VC\Tools\MSVC\14.44.35207\include\list
;	COMDAT ?empty@?$list@USCommand@CInstanceBase@@V?$allocator@USCommand@CInstanceBase@@@std@@@std@@QBE_NXZ
_TEXT	SEGMENT
?empty@?$list@USCommand@CInstanceBase@@V?$allocator@USCommand@CInstanceBase@@@std@@@std@@QBE_NXZ PROC ; std::list<CInstanceBase::SCommand,std::allocator<CInstanceBase::SCommand> >::empty, COMDAT
; _this$ = ecx

; 1213 :         return _Mypair._Myval2._Mysize == 0;

  00000	83 79 04 00	 cmp	 DWORD PTR [ecx+4], 0
  00004	0f 94 c0	 sete	 al

; 1214 :     }

  00007	c3		 ret	 0
?empty@?$list@USCommand@CInstanceBase@@V?$allocator@USCommand@CInstanceBase@@@std@@@std@@QBE_NXZ ENDP ; std::list<CInstanceBase::SCommand,std::allocator<CInstanceBase::SCommand> >::empty
_TEXT	ENDS
; Function compile flags: /Ogtp
; File C:\Program Files\Microsoft Visual Studio\2022\Community\VC\Tools\MSVC\14.44.35207\include\list
; File C:\Program Files\Microsoft Visual Studio\2022\Community\VC\Tools\MSVC\14.44.35207\include\xmemory
; File C:\Program Files\Microsoft Visual Studio\2022\Community\VC\Tools\MSVC\14.44.35207\include\list
; File C:\Program Files\Microsoft Visual Studio\2022\Community\VC\Tools\MSVC\14.44.35207\include\xmemory
; File C:\Program Files\Microsoft Visual Studio\2022\Community\VC\Tools\MSVC\14.44.35207\include\list
;	COMDAT ??1?$list@USCommand@CInstanceBase@@V?$allocator@USCommand@CInstanceBase@@@std@@@std@@QAE@XZ
_TEXT	SEGMENT
??1?$list@USCommand@CInstanceBase@@V?$allocator@USCommand@CInstanceBase@@@std@@@std@@QAE@XZ PROC ; std::list<CInstanceBase::SCommand,std::allocator<CInstanceBase::SCommand> >::~list<CInstanceBase::SCommand,std::allocator<CInstanceBase::SCommand> >, COMDAT
; _this$ = ecx

; 1060 :     ~list() noexcept {

  00000	57		 push	 edi
  00001	8b f9		 mov	 edi, ecx

; 1518 :         _Node::_Free_non_head(_Al, _My_data._Myhead);

  00003	8b 17		 mov	 edx, DWORD PTR [edi]

; 324  :         _Head->_Prev->_Next = nullptr;

  00005	8b 42 04	 mov	 eax, DWORD PTR [edx+4]
  00008	c7 00 00 00 00
	00		 mov	 DWORD PTR [eax], 0

; 325  : 
; 326  :         auto _Pnode = _Head->_Next;

  0000e	8b 02		 mov	 eax, DWORD PTR [edx]

; 327  :         for (_Nodeptr _Pnext; _Pnode; _Pnode = _Pnext) {

  00010	85 c0		 test	 eax, eax
  00012	74 15		 je	 SHORT $LN92@list
  00014	56		 push	 esi
$LL10@list:

; 328  :             _Pnext = _Pnode->_Next;

  00015	8b 30		 mov	 esi, DWORD PTR [eax]
; File C:\Program Files\Microsoft Visual Studio\2022\Community\VC\Tools\MSVC\14.44.35207\include\xmemory

; 289  :         ::operator delete(_Ptr, _Bytes);

  00017	6a 2c		 push	 44			; 0000002cH
  00019	50		 push	 eax
  0001a	e8 00 00 00 00	 call	 ??3@YAXPAXI@Z		; operator delete
  0001f	83 c4 08	 add	 esp, 8
; File C:\Program Files\Microsoft Visual Studio\2022\Community\VC\Tools\MSVC\14.44.35207\include\list

; 327  :         for (_Nodeptr _Pnext; _Pnode; _Pnode = _Pnext) {

  00022	8b c6		 mov	 eax, esi
  00024	85 f6		 test	 esi, esi
  00026	75 ed		 jne	 SHORT $LL10@list
  00028	5e		 pop	 esi
$LN92@list:
; File C:\Program Files\Microsoft Visual Studio\2022\Community\VC\Tools\MSVC\14.44.35207\include\xmemory

; 289  :         ::operator delete(_Ptr, _Bytes);

  00029	6a 2c		 push	 44			; 0000002cH
  0002b	ff 37		 push	 DWORD PTR [edi]
  0002d	e8 00 00 00 00	 call	 ??3@YAXPAXI@Z		; operator delete
  00032	83 c4 08	 add	 esp, 8
  00035	5f		 pop	 edi
; File C:\Program Files\Microsoft Visual Studio\2022\Community\VC\Tools\MSVC\14.44.35207\include\list

; 1066 :     }

  00036	c3		 ret	 0
??1?$list@USCommand@CInstanceBase@@V?$allocator@USCommand@CInstanceBase@@@std@@@std@@QAE@XZ ENDP ; std::list<CInstanceBase::SCommand,std::allocator<CInstanceBase::SCommand> >::~list<CInstanceBase::SCommand,std::allocator<CInstanceBase::SCommand> >
_TEXT	ENDS
; Function compile flags: /Ogtp
; File C:\Program Files\Microsoft Visual Studio\2022\Community\VC\Tools\MSVC\14.44.35207\include\list
;	COMDAT ??0?$list@USCommand@CInstanceBase@@V?$allocator@USCommand@CInstanceBase@@@std@@@std@@QAE@XZ
_TEXT	SEGMENT
??0?$list@USCommand@CInstanceBase@@V?$allocator@USCommand@CInstanceBase@@@std@@@std@@QAE@XZ PROC ; std::list<CInstanceBase::SCommand,std::allocator<CInstanceBase::SCommand> >::list<CInstanceBase::SCommand,std::allocator<CInstanceBase::SCommand> >, COMDAT
; _this$ = ecx

; 812  :     list() : _Mypair(_Zero_then_variadic_args_t{}) {

  00000	56		 push	 esi
  00001	8b f1		 mov	 esi, ecx

; 1851 :         auto _Newhead = _Al.allocate(1);

  00003	6a 2c		 push	 44			; 0000002cH

; 353  :     _List_val() noexcept : _Myhead(), _Mysize(0) {} // initialize data

  00005	c7 06 00 00 00
	00		 mov	 DWORD PTR [esi], 0
  0000b	c7 46 04 00 00
	00 00		 mov	 DWORD PTR [esi+4], 0

; 1851 :         auto _Newhead = _Al.allocate(1);

  00012	e8 00 00 00 00	 call	 ??2@YAPAXI@Z		; operator new
  00017	83 c4 04	 add	 esp, 4

; 1852 :         _Construct_in_place(_Newhead->_Next, _Newhead);

  0001a	89 00		 mov	 DWORD PTR [eax], eax

; 1853 :         _Construct_in_place(_Newhead->_Prev, _Newhead);

  0001c	89 40 04	 mov	 DWORD PTR [eax+4], eax

; 1854 :         _Mypair._Myval2._Myhead = _Newhead;

  0001f	89 06		 mov	 DWORD PTR [esi], eax

; 813  :         _Alloc_sentinel_and_proxy();
; 814  :     }

  00021	8b c6		 mov	 eax, esi
  00023	5e		 pop	 esi
  00024	c3		 ret	 0
??0?$list@USCommand@CInstanceBase@@V?$allocator@USCommand@CInstanceBase@@@std@@@std@@QAE@XZ ENDP ; std::list<CInstanceBase::SCommand,std::allocator<CInstanceBase::SCommand> >::list<CInstanceBase::SCommand,std::allocator<CInstanceBase::SCommand> >
_TEXT	ENDS
; Function compile flags: /Ogtp
; File D:\_m2work\Server Client TMP4\ClientVS22\source\eterBase\Singleton.h
;	COMDAT ?Instance@?$CSingleton@VCStateManager@@@@SAAAVCStateManager@@XZ
_TEXT	SEGMENT
?Instance@?$CSingleton@VCStateManager@@@@SAAAVCStateManager@@XZ PROC ; CSingleton<CStateManager>::Instance, COMDAT

; 26   : 		assert(ms_singleton);
; 27   : 		return (*ms_singleton);

  00000	a1 00 00 00 00	 mov	 eax, DWORD PTR ?ms_singleton@?$CSingleton@VCStateManager@@@@0PAVCStateManager@@A ; CSingleton<CStateManager>::ms_singleton

; 28   : 	}

  00005	c3		 ret	 0
?Instance@?$CSingleton@VCStateManager@@@@SAAAVCStateManager@@XZ ENDP ; CSingleton<CStateManager>::Instance
_TEXT	ENDS
; Function compile flags: /Ogtp
; File C:\Program Files\Microsoft Visual Studio\2022\Community\VC\Tools\MSVC\14.44.35207\include\xtree
; File C:\Program Files\Microsoft Visual Studio\2022\Community\VC\Tools\MSVC\14.44.35207\include\xmemory
; File C:\Program Files\Microsoft Visual Studio\2022\Community\VC\Tools\MSVC\14.44.35207\include\xtree
;	COMDAT ??1?$_Tree@V?$_Tmap_traits@KKU?$less@K@std@@V?$allocator@U?$pair@$$CBKK@std@@@2@$0A@@std@@@std@@QAE@XZ
_TEXT	SEGMENT
??1?$_Tree@V?$_Tmap_traits@KKU?$less@K@std@@V?$allocator@U?$pair@$$CBKK@std@@@2@$0A@@std@@@std@@QAE@XZ PROC ; std::_Tree<std::_Tmap_traits<unsigned long,unsigned long,std::less<unsigned long>,std::allocator<std::pair<unsigned long const ,unsigned long> >,0> >::~_Tree<std::_Tmap_traits<unsigned long,unsigned long,std::less<unsigned long>,std::allocator<std::pair<unsigned long const ,unsigned long> >,0> >, COMDAT
; _this$ = ecx

; 1095 :     ~_Tree() noexcept {

  00000	56		 push	 esi
  00001	8b f1		 mov	 esi, ecx

; 777  :         _Erase_tree(_Al, _Myhead->_Parent);

  00003	8b 06		 mov	 eax, DWORD PTR [esi]
  00005	ff 70 04	 push	 DWORD PTR [eax+4]
  00008	56		 push	 esi
  00009	e8 00 00 00 00	 call	 ??$_Erase_tree@V?$allocator@U?$_Tree_node@U?$pair@$$CBKK@std@@PAX@std@@@std@@@?$_Tree_val@U?$_Tree_simple_types@U?$pair@$$CBKK@std@@@std@@@std@@QAEXAAV?$allocator@U?$_Tree_node@U?$pair@$$CBKK@std@@PAX@std@@@1@PAU?$_Tree_node@U?$pair@$$CBKK@std@@PAX@1@@Z ; std::_Tree_val<std::_Tree_simple_types<std::pair<unsigned long const ,unsigned long> > >::_Erase_tree<std::allocator<std::_Tree_node<std::pair<unsigned long const ,unsigned long>,void *> > >
; File C:\Program Files\Microsoft Visual Studio\2022\Community\VC\Tools\MSVC\14.44.35207\include\xmemory

; 289  :         ::operator delete(_Ptr, _Bytes);

  0000e	6a 18		 push	 24			; 00000018H
  00010	ff 36		 push	 DWORD PTR [esi]
  00012	e8 00 00 00 00	 call	 ??3@YAXPAXI@Z		; operator delete
  00017	83 c4 08	 add	 esp, 8
  0001a	5e		 pop	 esi
; File C:\Program Files\Microsoft Visual Studio\2022\Community\VC\Tools\MSVC\14.44.35207\include\xtree

; 1102 :     }

  0001b	c3		 ret	 0
??1?$_Tree@V?$_Tmap_traits@KKU?$less@K@std@@V?$allocator@U?$pair@$$CBKK@std@@@2@$0A@@std@@@std@@QAE@XZ ENDP ; std::_Tree<std::_Tmap_traits<unsigned long,unsigned long,std::less<unsigned long>,std::allocator<std::pair<unsigned long const ,unsigned long> >,0> >::~_Tree<std::_Tmap_traits<unsigned long,unsigned long,std::less<unsigned long>,std::allocator<std::pair<unsigned long const ,unsigned long> >,0> >
_TEXT	ENDS
; Function compile flags: /Ogtp
; File C:\Program Files\Microsoft Visual Studio\2022\Community\VC\Tools\MSVC\14.44.35207\include\map
; File C:\Program Files\Microsoft Visual Studio\2022\Community\VC\Tools\MSVC\14.44.35207\include\xmemory
; File C:\Program Files\Microsoft Visual Studio\2022\Community\VC\Tools\MSVC\14.44.35207\include\map
; File C:\Program Files\Microsoft Visual Studio\2022\Community\VC\Tools\MSVC\14.44.35207\include\xtree
; File C:\Program Files\Microsoft Visual Studio\2022\Community\VC\Tools\MSVC\14.44.35207\include\xmemory
; File C:\Program Files\Microsoft Visual Studio\2022\Community\VC\Tools\MSVC\14.44.35207\include\xtree
; File C:\Program Files\Microsoft Visual Studio\2022\Community\VC\Tools\MSVC\14.44.35207\include\map
;	COMDAT ??0?$map@KKU?$less@K@std@@V?$allocator@U?$pair@$$CBKK@std@@@2@@std@@QAE@XZ
_TEXT	SEGMENT
_this$ = -4						; size = 4
??0?$map@KKU?$less@K@std@@V?$allocator@U?$pair@$$CBKK@std@@@2@@std@@QAE@XZ PROC ; std::map<unsigned long,unsigned long,std::less<unsigned long>,std::allocator<std::pair<unsigned long const ,unsigned long> > >::map<unsigned long,unsigned long,std::less<unsigned long>,std::allocator<std::pair<unsigned long const ,unsigned long> > >, COMDAT
; _this$ = ecx

; 106  :     map() : _Mybase(key_compare()) {}

  00000	55		 push	 ebp
  00001	8b ec		 mov	 ebp, esp
  00003	51		 push	 ecx
  00004	56		 push	 esi
  00005	8b f1		 mov	 esi, ecx
; File C:\Program Files\Microsoft Visual Studio\2022\Community\VC\Tools\MSVC\14.44.35207\include\xmemory

; 136  :         return ::operator new(_Bytes);

  00007	6a 18		 push	 24			; 00000018H
; File C:\Program Files\Microsoft Visual Studio\2022\Community\VC\Tools\MSVC\14.44.35207\include\map

; 106  :     map() : _Mybase(key_compare()) {}

  00009	89 75 fc	 mov	 DWORD PTR _this$[ebp], esi
; File C:\Program Files\Microsoft Visual Studio\2022\Community\VC\Tools\MSVC\14.44.35207\include\xtree

; 450  :     _Tree_val() noexcept : _Myhead(), _Mysize(0) {}

  0000c	c7 06 00 00 00
	00		 mov	 DWORD PTR [esi], 0
  00012	c7 46 04 00 00
	00 00		 mov	 DWORD PTR [esi+4], 0
; File C:\Program Files\Microsoft Visual Studio\2022\Community\VC\Tools\MSVC\14.44.35207\include\xmemory

; 136  :         return ::operator new(_Bytes);

  00019	e8 00 00 00 00	 call	 ??2@YAPAXI@Z		; operator new
  0001e	83 c4 04	 add	 esp, 4
; File C:\Program Files\Microsoft Visual Studio\2022\Community\VC\Tools\MSVC\14.44.35207\include\xtree

; 346  :         _Construct_in_place(_Pnode->_Left, _Pnode);

  00021	89 00		 mov	 DWORD PTR [eax], eax

; 347  :         _Construct_in_place(_Pnode->_Parent, _Pnode);

  00023	89 40 04	 mov	 DWORD PTR [eax+4], eax

; 348  :         _Construct_in_place(_Pnode->_Right, _Pnode);

  00026	89 40 08	 mov	 DWORD PTR [eax+8], eax

; 349  :         _Pnode->_Color = _Black;

  00029	66 c7 40 0c 01
	01		 mov	 WORD PTR [eax+12], 257	; 00000101H

; 1957 :         _Scary->_Myhead = _Node::_Buyheadnode(_Getal());

  0002f	89 06		 mov	 DWORD PTR [esi], eax
; File C:\Program Files\Microsoft Visual Studio\2022\Community\VC\Tools\MSVC\14.44.35207\include\map

; 106  :     map() : _Mybase(key_compare()) {}

  00031	8b c6		 mov	 eax, esi
  00033	5e		 pop	 esi
  00034	8b e5		 mov	 esp, ebp
  00036	5d		 pop	 ebp
  00037	c3		 ret	 0
??0?$map@KKU?$less@K@std@@V?$allocator@U?$pair@$$CBKK@std@@@2@@std@@QAE@XZ ENDP ; std::map<unsigned long,unsigned long,std::less<unsigned long>,std::allocator<std::pair<unsigned long const ,unsigned long> > >::map<unsigned long,unsigned long,std::less<unsigned long>,std::allocator<std::pair<unsigned long const ,unsigned long> > >
_TEXT	ENDS
; Function compile flags: /Ogtp
; File C:\Program Files\Microsoft Visual Studio\2022\Community\VC\Tools\MSVC\14.44.35207\include\xstring
; File C:\Program Files\Microsoft Visual Studio\2022\Community\VC\Tools\MSVC\14.44.35207\include\__msvc_string_view.hpp
; File C:\Program Files\Microsoft Visual Studio\2022\Community\VC\Tools\MSVC\14.44.35207\include\xstring
; File C:\Program Files\Microsoft Visual Studio\2022\Community\VC\Tools\MSVC\14.44.35207\include\__msvc_string_view.hpp
; File C:\Program Files\Microsoft Visual Studio\2022\Community\VC\Tools\MSVC\14.44.35207\include\xstring
;	COMDAT ?find_first_of@?$basic_string@DU?$char_traits@D@std@@V?$allocator@D@2@@std@@QBEIQBDI@Z
_TEXT	SEGMENT
__Ptr$ = 8						; size = 4
__Off$ = 12						; size = 4
?find_first_of@?$basic_string@DU?$char_traits@D@std@@V?$allocator@D@2@@std@@QBEIQBDI@Z PROC ; std::basic_string<char,std::char_traits<char>,std::allocator<char> >::find_first_of, COMDAT
; _this$ = ecx

; 2695 :     /* strengthened */ {

  00000	55		 push	 ebp
  00001	8b ec		 mov	 ebp, esp
; File C:\Program Files\Microsoft Visual Studio\2022\Community\VC\Tools\MSVC\14.44.35207\include\__msvc_string_view.hpp

; 456  :             return __builtin_strlen(_First);

  00003	8b 45 08	 mov	 eax, DWORD PTR __Ptr$[ebp]
; File C:\Program Files\Microsoft Visual Studio\2022\Community\VC\Tools\MSVC\14.44.35207\include\xstring

; 2695 :     /* strengthened */ {

  00006	56		 push	 esi
  00007	8b f1		 mov	 esi, ecx
; File C:\Program Files\Microsoft Visual Studio\2022\Community\VC\Tools\MSVC\14.44.35207\include\__msvc_string_view.hpp

; 456  :             return __builtin_strlen(_First);

  00009	8d 50 01	 lea	 edx, DWORD PTR [eax+1]
  0000c	0f 1f 40 00	 npad	 4
$LL46@find_first:
  00010	8a 08		 mov	 cl, BYTE PTR [eax]
  00012	40		 inc	 eax
  00013	84 c9		 test	 cl, cl
  00015	75 f9		 jne	 SHORT $LL46@find_first
  00017	2b c2		 sub	 eax, edx
; File C:\Program Files\Microsoft Visual Studio\2022\Community\VC\Tools\MSVC\14.44.35207\include\xstring

; 453  :         return _Myres > _Small_string_capacity;

  00019	83 7e 14 0f	 cmp	 DWORD PTR [esi+20], 15	; 0000000fH

; 2696 :         // look for one of [_Ptr, <null>) at or after _Off
; 2697 :         return static_cast<size_type>(_Traits_find_first_of<_Traits>(

  0001d	8b 56 10	 mov	 edx, DWORD PTR [esi+16]

; 445  :         if (_Large_mode_engaged()) {

  00020	76 02		 jbe	 SHORT $LN8@find_first

; 446  :             _Result = _Unfancy(_Bx._Ptr);

  00022	8b 36		 mov	 esi, DWORD PTR [esi]
$LN8@find_first:

; 2696 :         // look for one of [_Ptr, <null>) at or after _Off
; 2697 :         return static_cast<size_type>(_Traits_find_first_of<_Traits>(

  00024	50		 push	 eax
  00025	ff 75 08	 push	 DWORD PTR __Ptr$[ebp]
  00028	8b ce		 mov	 ecx, esi
  0002a	ff 75 0c	 push	 DWORD PTR __Off$[ebp]
  0002d	e8 00 00 00 00	 call	 ??$_Traits_find_first_of@U?$char_traits@D@std@@@std@@YAIQBDII0I@Z ; std::_Traits_find_first_of<std::char_traits<char> >
  00032	83 c4 0c	 add	 esp, 12			; 0000000cH

; 2698 :             _Mypair._Myval2._Myptr(), _Mypair._Myval2._Mysize, _Off, _Ptr, _Traits::length(_Ptr)));
; 2699 :     }

  00035	5e		 pop	 esi
  00036	5d		 pop	 ebp
  00037	c2 08 00	 ret	 8
?find_first_of@?$basic_string@DU?$char_traits@D@std@@V?$allocator@D@2@@std@@QBEIQBDI@Z ENDP ; std::basic_string<char,std::char_traits<char>,std::allocator<char> >::find_first_of
_TEXT	ENDS
; Function compile flags: /Ogtp
; File D:\_m2work\Server Client TMP4\ClientVS22\source\eterLib\Pool.h
;	COMDAT ??_G?$CDynamicPool@VCInstanceBase@@@@UAEPAXI@Z
_TEXT	SEGMENT
___flags$ = 8						; size = 4
??_G?$CDynamicPool@VCInstanceBase@@@@UAEPAXI@Z PROC	; CDynamicPool<CInstanceBase>::`scalar deleting destructor', COMDAT
; _this$ = ecx
  00000	55		 push	 ebp
  00001	8b ec		 mov	 ebp, esp

; 18   : 		{

  00003	56		 push	 esi
  00004	8b f1		 mov	 esi, ecx

; 19   : 			assert(m_kVct_pkData.empty());
; 20   : //#ifdef _DEBUG
; 21   : //			char szText[256];
; 22   : //			sprintf(szText, "--------------------------------------------------------------------- %s Pool Capacity %d\n", typeid(T).name(), m_uUsedCapacity);
; 23   : //			OutputDebugString(szText);
; 24   : //			printf(szText);			
; 25   : //#endif
; 26   : 		}

  00006	8d 4e 10	 lea	 ecx, DWORD PTR [esi+16]
  00009	c7 06 00 00 00
	00		 mov	 DWORD PTR [esi], OFFSET ??_7?$CDynamicPool@VCInstanceBase@@@@6B@
  0000f	e8 00 00 00 00	 call	 ??1?$vector@PAVCInstanceBase@@V?$allocator@PAVCInstanceBase@@@std@@@std@@QAE@XZ ; std::vector<CInstanceBase *,std::allocator<CInstanceBase *> >::~vector<CInstanceBase *,std::allocator<CInstanceBase *> >
  00014	8d 4e 04	 lea	 ecx, DWORD PTR [esi+4]
  00017	e8 00 00 00 00	 call	 ??1?$vector@PAVCInstanceBase@@V?$allocator@PAVCInstanceBase@@@std@@@std@@QAE@XZ ; std::vector<CInstanceBase *,std::allocator<CInstanceBase *> >::~vector<CInstanceBase *,std::allocator<CInstanceBase *> >
  0001c	f6 45 08 01	 test	 BYTE PTR ___flags$[ebp], 1
  00020	74 0b		 je	 SHORT $LN10@scalar
  00022	6a 24		 push	 36			; 00000024H
  00024	56		 push	 esi
  00025	e8 00 00 00 00	 call	 ??3@YAXPAXI@Z		; operator delete
  0002a	83 c4 08	 add	 esp, 8
$LN10@scalar:
  0002d	8b c6		 mov	 eax, esi
  0002f	5e		 pop	 esi
  00030	5d		 pop	 ebp
  00031	c2 04 00	 ret	 4
??_G?$CDynamicPool@VCInstanceBase@@@@UAEPAXI@Z ENDP	; CDynamicPool<CInstanceBase>::`scalar deleting destructor'
_TEXT	ENDS
; Function compile flags: /Ogtp
; File C:\Program Files\Microsoft Visual Studio\2022\Community\VC\Tools\MSVC\14.44.35207\include\xmemory
; File C:\Program Files\Microsoft Visual Studio\2022\Community\VC\Tools\MSVC\14.44.35207\include\list
; File C:\Program Files\Microsoft Visual Studio\2022\Community\VC\Tools\MSVC\14.44.35207\include\xmemory
; File C:\Program Files\Microsoft Visual Studio\2022\Community\VC\Tools\MSVC\14.44.35207\include\list
; File C:\Program Files\Microsoft Visual Studio\2022\Community\VC\Tools\MSVC\14.44.35207\include\xmemory
;	COMDAT ??$?0$$V@?$_Compressed_pair@V?$allocator@U?$_List_node@USEffectDamage@CInstanceBase@@PAX@std@@@std@@V?$_List_val@U?$_List_simple_types@USEffectDamage@CInstanceBase@@@std@@@2@$00@std@@QAE@U_Zero_then_variadic_args_t@1@@Z
_TEXT	SEGMENT
___formal$ = 8						; size = 1
??$?0$$V@?$_Compressed_pair@V?$allocator@U?$_List_node@USEffectDamage@CInstanceBase@@PAX@std@@@std@@V?$_List_val@U?$_List_simple_types@USEffectDamage@CInstanceBase@@@std@@@2@$00@std@@QAE@U_Zero_then_variadic_args_t@1@@Z PROC ; std::_Compressed_pair<std::allocator<std::_List_node<CInstanceBase::SEffectDamage,void *> >,std::_List_val<std::_List_simple_types<CInstanceBase::SEffectDamage> >,1>::_Compressed_pair<std::allocator<std::_List_node<CInstanceBase::SEffectDamage,void *> >,std::_List_val<std::_List_simple_types<CInstanceBase::SEffectDamage> >,1><>, COMDAT
; _this$ = ecx
; File C:\Program Files\Microsoft Visual Studio\2022\Community\VC\Tools\MSVC\14.44.35207\include\list

; 353  :     _List_val() noexcept : _Myhead(), _Mysize(0) {} // initialize data

  00000	c7 01 00 00 00
	00		 mov	 DWORD PTR [ecx], 0
; File C:\Program Files\Microsoft Visual Studio\2022\Community\VC\Tools\MSVC\14.44.35207\include\xmemory

; 1531 :         : _Ty1(), _Myval2(_STD forward<_Other2>(_Val2)...) {}

  00006	8b c1		 mov	 eax, ecx
; File C:\Program Files\Microsoft Visual Studio\2022\Community\VC\Tools\MSVC\14.44.35207\include\list

; 353  :     _List_val() noexcept : _Myhead(), _Mysize(0) {} // initialize data

  00008	c7 41 04 00 00
	00 00		 mov	 DWORD PTR [ecx+4], 0
; File C:\Program Files\Microsoft Visual Studio\2022\Community\VC\Tools\MSVC\14.44.35207\include\xmemory

; 1531 :         : _Ty1(), _Myval2(_STD forward<_Other2>(_Val2)...) {}

  0000f	c2 04 00	 ret	 4
??$?0$$V@?$_Compressed_pair@V?$allocator@U?$_List_node@USEffectDamage@CInstanceBase@@PAX@std@@@std@@V?$_List_val@U?$_List_simple_types@USEffectDamage@CInstanceBase@@@std@@@2@$00@std@@QAE@U_Zero_then_variadic_args_t@1@@Z ENDP ; std::_Compressed_pair<std::allocator<std::_List_node<CInstanceBase::SEffectDamage,void *> >,std::_List_val<std::_List_simple_types<CInstanceBase::SEffectDamage> >,1>::_Compressed_pair<std::allocator<std::_List_node<CInstanceBase::SEffectDamage,void *> >,std::_List_val<std::_List_simple_types<CInstanceBase::SEffectDamage> >,1><>
_TEXT	ENDS
; Function compile flags: /Ogtp
; File C:\Program Files\Microsoft Visual Studio\2022\Community\VC\Tools\MSVC\14.44.35207\include\list
; File C:\Program Files\Microsoft Visual Studio\2022\Community\VC\Tools\MSVC\14.44.35207\include\xmemory
; File C:\Program Files\Microsoft Visual Studio\2022\Community\VC\Tools\MSVC\14.44.35207\include\list
;	COMDAT ??$_Free_non_head@V?$allocator@U?$_List_node@USCommand@CInstanceBase@@PAX@std@@@std@@@?$_List_node@USCommand@CInstanceBase@@PAX@std@@SAXAAV?$allocator@U?$_List_node@USCommand@CInstanceBase@@PAX@std@@@1@PAU01@@Z
_TEXT	SEGMENT
??$_Free_non_head@V?$allocator@U?$_List_node@USCommand@CInstanceBase@@PAX@std@@@std@@@?$_List_node@USCommand@CInstanceBase@@PAX@std@@SAXAAV?$allocator@U?$_List_node@USCommand@CInstanceBase@@PAX@std@@@1@PAU01@@Z PROC ; std::_List_node<CInstanceBase::SCommand,void *>::_Free_non_head<std::allocator<std::_List_node<CInstanceBase::SCommand,void *> > >, COMDAT
; __Al$dead$ = ecx
; __Head$ = edx

; 324  :         _Head->_Prev->_Next = nullptr;

  00000	8b 42 04	 mov	 eax, DWORD PTR [edx+4]
  00003	c7 00 00 00 00
	00		 mov	 DWORD PTR [eax], 0

; 325  : 
; 326  :         auto _Pnode = _Head->_Next;

  00009	8b 02		 mov	 eax, DWORD PTR [edx]

; 327  :         for (_Nodeptr _Pnext; _Pnode; _Pnode = _Pnext) {

  0000b	85 c0		 test	 eax, eax
  0000d	74 15		 je	 SHORT $LN50@Free_non_h
  0000f	56		 push	 esi
$LL4@Free_non_h:

; 328  :             _Pnext = _Pnode->_Next;

  00010	8b 30		 mov	 esi, DWORD PTR [eax]
; File C:\Program Files\Microsoft Visual Studio\2022\Community\VC\Tools\MSVC\14.44.35207\include\xmemory

; 289  :         ::operator delete(_Ptr, _Bytes);

  00012	6a 2c		 push	 44			; 0000002cH
  00014	50		 push	 eax
  00015	e8 00 00 00 00	 call	 ??3@YAXPAXI@Z		; operator delete
  0001a	83 c4 08	 add	 esp, 8
; File C:\Program Files\Microsoft Visual Studio\2022\Community\VC\Tools\MSVC\14.44.35207\include\list

; 327  :         for (_Nodeptr _Pnext; _Pnode; _Pnode = _Pnext) {

  0001d	8b c6		 mov	 eax, esi
  0001f	85 f6		 test	 esi, esi
  00021	75 ed		 jne	 SHORT $LL4@Free_non_h
  00023	5e		 pop	 esi
$LN50@Free_non_h:

; 329  :             _Freenode(_Al, _Pnode);
; 330  :         }
; 331  :     }

  00024	c3		 ret	 0
??$_Free_non_head@V?$allocator@U?$_List_node@USCommand@CInstanceBase@@PAX@std@@@std@@@?$_List_node@USCommand@CInstanceBase@@PAX@std@@SAXAAV?$allocator@U?$_List_node@USCommand@CInstanceBase@@PAX@std@@@1@PAU01@@Z ENDP ; std::_List_node<CInstanceBase::SCommand,void *>::_Free_non_head<std::allocator<std::_List_node<CInstanceBase::SCommand,void *> > >
_TEXT	ENDS
; Function compile flags: /Ogtp
; File C:\Program Files\Microsoft Visual Studio\2022\Community\VC\Tools\MSVC\14.44.35207\include\list
; File C:\Program Files\Microsoft Visual Studio\2022\Community\VC\Tools\MSVC\14.44.35207\include\xmemory
; File C:\Program Files\Microsoft Visual Studio\2022\Community\VC\Tools\MSVC\14.44.35207\include\list
; File C:\Program Files\Microsoft Visual Studio\2022\Community\VC\Tools\MSVC\14.44.35207\include\xmemory
; File C:\Program Files\Microsoft Visual Studio\2022\Community\VC\Tools\MSVC\14.44.35207\include\list
; File C:\Program Files\Microsoft Visual Studio\2022\Community\VC\Tools\MSVC\14.44.35207\include\xmemory
; File C:\Program Files\Microsoft Visual Studio\2022\Community\VC\Tools\MSVC\14.44.35207\include\xutility
; File C:\Program Files\Microsoft Visual Studio\2022\Community\VC\Tools\MSVC\14.44.35207\include\xmemory
; File C:\Program Files\Microsoft Visual Studio\2022\Community\VC\Tools\MSVC\14.44.35207\include\xutility
; File C:\Program Files\Microsoft Visual Studio\2022\Community\VC\Tools\MSVC\14.44.35207\include\list
;	COMDAT ??$_Emplace@ABUSCommand@CInstanceBase@@@?$list@USCommand@CInstanceBase@@V?$allocator@USCommand@CInstanceBase@@@std@@@std@@QAEPAU?$_List_node@USCommand@CInstanceBase@@PAX@1@QAU21@ABUSCommand@CInstanceBase@@@Z
_TEXT	SEGMENT
__Op$ = -24						; size = 8
__$EHRec$ = -12						; size = 12
__Where$ = 8						; size = 4
_<_Val_0>$ = 12						; size = 4
??$_Emplace@ABUSCommand@CInstanceBase@@@?$list@USCommand@CInstanceBase@@V?$allocator@USCommand@CInstanceBase@@@std@@@std@@QAEPAU?$_List_node@USCommand@CInstanceBase@@PAX@1@QAU21@ABUSCommand@CInstanceBase@@@Z PROC ; std::list<CInstanceBase::SCommand,std::allocator<CInstanceBase::SCommand> >::_Emplace<CInstanceBase::SCommand const &>, COMDAT
; _this$ = ecx

; 1028 :     _Nodeptr _Emplace(const _Nodeptr _Where, _Valty&&... _Val) { // insert element at _Where

  00000	53		 push	 ebx
  00001	8b dc		 mov	 ebx, esp
  00003	83 ec 08	 sub	 esp, 8
  00006	83 e4 f8	 and	 esp, -8			; fffffff8H
  00009	83 c4 04	 add	 esp, 4
  0000c	55		 push	 ebp
  0000d	8b 6b 04	 mov	 ebp, DWORD PTR [ebx+4]
  00010	89 6c 24 04	 mov	 DWORD PTR [esp+4], ebp
  00014	8b ec		 mov	 ebp, esp
  00016	6a ff		 push	 -1
  00018	68 00 00 00 00	 push	 __ehhandler$??$_Emplace@ABUSCommand@CInstanceBase@@@?$list@USCommand@CInstanceBase@@V?$allocator@USCommand@CInstanceBase@@@std@@@std@@QAEPAU?$_List_node@USCommand@CInstanceBase@@PAX@1@QAU21@ABUSCommand@CInstanceBase@@@Z
  0001d	64 a1 00 00 00
	00		 mov	 eax, DWORD PTR fs:0
  00023	50		 push	 eax
  00024	53		 push	 ebx
  00025	83 ec 0c	 sub	 esp, 12			; 0000000cH
  00028	56		 push	 esi
  00029	a1 00 00 00 00	 mov	 eax, DWORD PTR ___security_cookie
  0002e	33 c5		 xor	 eax, ebp
  00030	50		 push	 eax
  00031	8d 45 f4	 lea	 eax, DWORD PTR __$EHRec$[ebp]
  00034	64 a3 00 00 00
	00		 mov	 DWORD PTR fs:0, eax
  0003a	8b f1		 mov	 esi, ecx

; 1029 :         size_type& _Mysize = _Mypair._Myval2._Mysize;
; 1030 :         if (_Mysize == max_size()) {

  0003c	81 7e 04 5d 74
	d1 05		 cmp	 DWORD PTR [esi+4], 97612893 ; 05d1745dH
  00043	74 5f		 je	 SHORT $LN61@Emplace
; File C:\Program Files\Microsoft Visual Studio\2022\Community\VC\Tools\MSVC\14.44.35207\include\xmemory

; 1160 :     _CONSTEXPR20 explicit _Alloc_construct_ptr(_Alloc& _Al_) : _Al(_Al_), _Ptr(nullptr) {}

  00045	89 75 e8	 mov	 DWORD PTR __Op$[ebp], esi
; File C:\Program Files\Microsoft Visual Studio\2022\Community\VC\Tools\MSVC\14.44.35207\include\list

; 593  :     explicit _List_node_emplace_op2(_Alnode& _Al_, _Valtys&&... _Vals) : _Alloc_construct_ptr<_Alnode>(_Al_) {

  00048	c7 45 fc 00 00
	00 00		 mov	 DWORD PTR __$EHRec$[ebp+8], 0
; File C:\Program Files\Microsoft Visual Studio\2022\Community\VC\Tools\MSVC\14.44.35207\include\xmemory

; 1168 :         _Ptr = _Al.allocate(1);

  0004f	6a 2c		 push	 44			; 0000002cH
  00051	c7 45 ec 00 00
	00 00		 mov	 DWORD PTR __Op$[ebp+4], 0
  00058	e8 00 00 00 00	 call	 ??2@YAPAXI@Z		; operator new
; File C:\Program Files\Microsoft Visual Studio\2022\Community\VC\Tools\MSVC\14.44.35207\include\list

; 608  :         const pointer _Insert_after = _Insert_before->_Prev;

  0005d	8b 4b 08	 mov	 ecx, DWORD PTR __Where$[ebx]
; File C:\Program Files\Microsoft Visual Studio\2022\Community\VC\Tools\MSVC\14.44.35207\include\xmemory

; 1168 :         _Ptr = _Al.allocate(1);

  00060	8b d0		 mov	 edx, eax
; File C:\Program Files\Microsoft Visual Studio\2022\Community\VC\Tools\MSVC\14.44.35207\include\xutility

; 463  :     _MSVC_CONSTEXPR return ::new (static_cast<void*>(_Location)) _Ty(_STD forward<_Types>(_Args)...);

  00062	8b 43 0c	 mov	 eax, DWORD PTR _<_Val_0>$[ebx]
; File C:\Program Files\Microsoft Visual Studio\2022\Community\VC\Tools\MSVC\14.44.35207\include\xmemory

; 1168 :         _Ptr = _Al.allocate(1);

  00065	83 c4 04	 add	 esp, 4
; File C:\Program Files\Microsoft Visual Studio\2022\Community\VC\Tools\MSVC\14.44.35207\include\xutility

; 463  :     _MSVC_CONSTEXPR return ::new (static_cast<void*>(_Location)) _Ty(_STD forward<_Types>(_Args)...);

  00068	0f 10 00	 movups	 xmm0, XMMWORD PTR [eax]
  0006b	0f 11 42 08	 movups	 XMMWORD PTR [edx+8], xmm0
  0006f	0f 10 40 10	 movups	 xmm0, XMMWORD PTR [eax+16]
  00073	0f 11 42 18	 movups	 XMMWORD PTR [edx+24], xmm0
  00077	8b 40 20	 mov	 eax, DWORD PTR [eax+32]
  0007a	89 42 28	 mov	 DWORD PTR [edx+40], eax
; File C:\Program Files\Microsoft Visual Studio\2022\Community\VC\Tools\MSVC\14.44.35207\include\list

; 1035 :         ++_Mysize;

  0007d	ff 46 04	 inc	 DWORD PTR [esi+4]

; 608  :         const pointer _Insert_after = _Insert_before->_Prev;

  00080	8b 41 04	 mov	 eax, DWORD PTR [ecx+4]

; 609  :         _Construct_in_place(this->_Ptr->_Next, _Insert_before);

  00083	89 0a		 mov	 DWORD PTR [edx], ecx

; 610  :         _Construct_in_place(this->_Ptr->_Prev, _Insert_after);

  00085	89 42 04	 mov	 DWORD PTR [edx+4], eax

; 611  :         const auto _Result    = this->_Ptr;
; 612  :         this->_Ptr            = pointer{};
; 613  :         _Insert_before->_Prev = _Result;

  00088	89 51 04	 mov	 DWORD PTR [ecx+4], edx

; 614  :         _Insert_after->_Next  = _Result;

  0008b	89 10		 mov	 DWORD PTR [eax], edx

; 1036 :         return _Op._Transfer_before(_Where);

  0008d	8b c2		 mov	 eax, edx

; 1037 :     }

  0008f	8b 4d f4	 mov	 ecx, DWORD PTR __$EHRec$[ebp]
  00092	64 89 0d 00 00
	00 00		 mov	 DWORD PTR fs:0, ecx
  00099	59		 pop	 ecx
  0009a	5e		 pop	 esi
  0009b	8b e5		 mov	 esp, ebp
  0009d	5d		 pop	 ebp
  0009e	8b e3		 mov	 esp, ebx
  000a0	5b		 pop	 ebx
  000a1	c2 08 00	 ret	 8
$LN61@Emplace:

; 1031 :             _Xlength_error("list too long");

  000a4	68 00 00 00 00	 push	 OFFSET ??_C@_0O@NKNMEGII@list?5too?5long@
  000a9	e8 00 00 00 00	 call	 ?_Xlength_error@std@@YAXPBD@Z ; std::_Xlength_error
$LN59@Emplace:
  000ae	cc		 int	 3
_TEXT	ENDS
;	COMDAT text$x
text$x	SEGMENT
__unwindfunclet$??$_Emplace@ABUSCommand@CInstanceBase@@@?$list@USCommand@CInstanceBase@@V?$allocator@USCommand@CInstanceBase@@@std@@@std@@QAEPAU?$_List_node@USCommand@CInstanceBase@@PAX@1@QAU21@ABUSCommand@CInstanceBase@@@Z$1:
  00000	8d 4d e8	 lea	 ecx, DWORD PTR __Op$[ebp]
  00003	e9 00 00 00 00	 jmp	 ??1?$_Alloc_construct_ptr@V?$allocator@U?$_List_node@USCommand@CInstanceBase@@PAX@std@@@std@@@std@@QAE@XZ ; std::_Alloc_construct_ptr<std::allocator<std::_List_node<CInstanceBase::SCommand,void *> > >::~_Alloc_construct_ptr<std::allocator<std::_List_node<CInstanceBase::SCommand,void *> > >
  00008	cc		 int	 3
  00009	cc		 int	 3
  0000a	cc		 int	 3
  0000b	cc		 int	 3
  0000c	cc		 int	 3
__ehhandler$??$_Emplace@ABUSCommand@CInstanceBase@@@?$list@USCommand@CInstanceBase@@V?$allocator@USCommand@CInstanceBase@@@std@@@std@@QAEPAU?$_List_node@USCommand@CInstanceBase@@PAX@1@QAU21@ABUSCommand@CInstanceBase@@@Z:
  0000d	90		 npad	 1
  0000e	90		 npad	 1
  0000f	8b 54 24 08	 mov	 edx, DWORD PTR [esp+8]
  00013	8d 42 0c	 lea	 eax, DWORD PTR [edx+12]
  00016	8b 4a e8	 mov	 ecx, DWORD PTR [edx-24]
  00019	33 c8		 xor	 ecx, eax
  0001b	e8 00 00 00 00	 call	 @__security_check_cookie@4
  00020	b8 00 00 00 00	 mov	 eax, OFFSET __ehfuncinfo$??$_Emplace@ABUSCommand@CInstanceBase@@@?$list@USCommand@CInstanceBase@@V?$allocator@USCommand@CInstanceBase@@@std@@@std@@QAEPAU?$_List_node@USCommand@CInstanceBase@@PAX@1@QAU21@ABUSCommand@CInstanceBase@@@Z
  00025	e9 00 00 00 00	 jmp	 ___CxxFrameHandler3
text$x	ENDS
??$_Emplace@ABUSCommand@CInstanceBase@@@?$list@USCommand@CInstanceBase@@V?$allocator@USCommand@CInstanceBase@@@std@@@std@@QAEPAU?$_List_node@USCommand@CInstanceBase@@PAX@1@QAU21@ABUSCommand@CInstanceBase@@@Z ENDP ; std::list<CInstanceBase::SCommand,std::allocator<CInstanceBase::SCommand> >::_Emplace<CInstanceBase::SCommand const &>
; Function compile flags: /Ogtp
; File C:\Program Files\Microsoft Visual Studio\2022\Community\VC\Tools\MSVC\14.44.35207\include\xmemory
; File C:\Program Files\Microsoft Visual Studio\2022\Community\VC\Tools\MSVC\14.44.35207\include\list
; File C:\Program Files\Microsoft Visual Studio\2022\Community\VC\Tools\MSVC\14.44.35207\include\xmemory
; File C:\Program Files\Microsoft Visual Studio\2022\Community\VC\Tools\MSVC\14.44.35207\include\list
; File C:\Program Files\Microsoft Visual Studio\2022\Community\VC\Tools\MSVC\14.44.35207\include\xmemory
;	COMDAT ??$?0$$V@?$_Compressed_pair@V?$allocator@U?$_List_node@USCommand@CInstanceBase@@PAX@std@@@std@@V?$_List_val@U?$_List_simple_types@USCommand@CInstanceBase@@@std@@@2@$00@std@@QAE@U_Zero_then_variadic_args_t@1@@Z
_TEXT	SEGMENT
___formal$ = 8						; size = 1
??$?0$$V@?$_Compressed_pair@V?$allocator@U?$_List_node@USCommand@CInstanceBase@@PAX@std@@@std@@V?$_List_val@U?$_List_simple_types@USCommand@CInstanceBase@@@std@@@2@$00@std@@QAE@U_Zero_then_variadic_args_t@1@@Z PROC ; std::_Compressed_pair<std::allocator<std::_List_node<CInstanceBase::SCommand,void *> >,std::_List_val<std::_List_simple_types<CInstanceBase::SCommand> >,1>::_Compressed_pair<std::allocator<std::_List_node<CInstanceBase::SCommand,void *> >,std::_List_val<std::_List_simple_types<CInstanceBase::SCommand> >,1><>, COMDAT
; _this$ = ecx
; File C:\Program Files\Microsoft Visual Studio\2022\Community\VC\Tools\MSVC\14.44.35207\include\list

; 353  :     _List_val() noexcept : _Myhead(), _Mysize(0) {} // initialize data

  00000	c7 01 00 00 00
	00		 mov	 DWORD PTR [ecx], 0
; File C:\Program Files\Microsoft Visual Studio\2022\Community\VC\Tools\MSVC\14.44.35207\include\xmemory

; 1531 :         : _Ty1(), _Myval2(_STD forward<_Other2>(_Val2)...) {}

  00006	8b c1		 mov	 eax, ecx
; File C:\Program Files\Microsoft Visual Studio\2022\Community\VC\Tools\MSVC\14.44.35207\include\list

; 353  :     _List_val() noexcept : _Myhead(), _Mysize(0) {} // initialize data

  00008	c7 41 04 00 00
	00 00		 mov	 DWORD PTR [ecx+4], 0
; File C:\Program Files\Microsoft Visual Studio\2022\Community\VC\Tools\MSVC\14.44.35207\include\xmemory

; 1531 :         : _Ty1(), _Myval2(_STD forward<_Other2>(_Val2)...) {}

  0000f	c2 04 00	 ret	 4
??$?0$$V@?$_Compressed_pair@V?$allocator@U?$_List_node@USCommand@CInstanceBase@@PAX@std@@@std@@V?$_List_val@U?$_List_simple_types@USCommand@CInstanceBase@@@std@@@2@$00@std@@QAE@U_Zero_then_variadic_args_t@1@@Z ENDP ; std::_Compressed_pair<std::allocator<std::_List_node<CInstanceBase::SCommand,void *> >,std::_List_val<std::_List_simple_types<CInstanceBase::SCommand> >,1>::_Compressed_pair<std::allocator<std::_List_node<CInstanceBase::SCommand,void *> >,std::_List_val<std::_List_simple_types<CInstanceBase::SCommand> >,1><>
_TEXT	ENDS
; Function compile flags: /Ogtp
; File C:\Program Files\Microsoft Visual Studio\2022\Community\VC\Tools\MSVC\14.44.35207\include\xtree
; File C:\Program Files\Microsoft Visual Studio\2022\Community\VC\Tools\MSVC\14.44.35207\include\xmemory
; File C:\Program Files\Microsoft Visual Studio\2022\Community\VC\Tools\MSVC\14.44.35207\include\xtree
;	COMDAT ??$_Erase_head@V?$allocator@U?$_Tree_node@U?$pair@$$CBKK@std@@PAX@std@@@std@@@?$_Tree_val@U?$_Tree_simple_types@U?$pair@$$CBKK@std@@@std@@@std@@QAEXAAV?$allocator@U?$_Tree_node@U?$pair@$$CBKK@std@@PAX@std@@@1@@Z
_TEXT	SEGMENT
__Al$ = 8						; size = 4
??$_Erase_head@V?$allocator@U?$_Tree_node@U?$pair@$$CBKK@std@@PAX@std@@@std@@@?$_Tree_val@U?$_Tree_simple_types@U?$pair@$$CBKK@std@@@std@@@std@@QAEXAAV?$allocator@U?$_Tree_node@U?$pair@$$CBKK@std@@PAX@std@@@1@@Z PROC ; std::_Tree_val<std::_Tree_simple_types<std::pair<unsigned long const ,unsigned long> > >::_Erase_head<std::allocator<std::_Tree_node<std::pair<unsigned long const ,unsigned long>,void *> > >, COMDAT
; _this$ = ecx

; 775  :     void _Erase_head(_Alnode& _Al) noexcept {

  00000	55		 push	 ebp
  00001	8b ec		 mov	 ebp, esp
  00003	56		 push	 esi
  00004	8b f1		 mov	 esi, ecx

; 776  :         this->_Orphan_all();
; 777  :         _Erase_tree(_Al, _Myhead->_Parent);

  00006	8b 06		 mov	 eax, DWORD PTR [esi]
  00008	ff 70 04	 push	 DWORD PTR [eax+4]
  0000b	ff 75 08	 push	 DWORD PTR __Al$[ebp]
  0000e	e8 00 00 00 00	 call	 ??$_Erase_tree@V?$allocator@U?$_Tree_node@U?$pair@$$CBKK@std@@PAX@std@@@std@@@?$_Tree_val@U?$_Tree_simple_types@U?$pair@$$CBKK@std@@@std@@@std@@QAEXAAV?$allocator@U?$_Tree_node@U?$pair@$$CBKK@std@@PAX@std@@@1@PAU?$_Tree_node@U?$pair@$$CBKK@std@@PAX@1@@Z ; std::_Tree_val<std::_Tree_simple_types<std::pair<unsigned long const ,unsigned long> > >::_Erase_tree<std::allocator<std::_Tree_node<std::pair<unsigned long const ,unsigned long>,void *> > >
; File C:\Program Files\Microsoft Visual Studio\2022\Community\VC\Tools\MSVC\14.44.35207\include\xmemory

; 289  :         ::operator delete(_Ptr, _Bytes);

  00013	6a 18		 push	 24			; 00000018H
  00015	ff 36		 push	 DWORD PTR [esi]
  00017	e8 00 00 00 00	 call	 ??3@YAXPAXI@Z		; operator delete
  0001c	83 c4 08	 add	 esp, 8
  0001f	5e		 pop	 esi
; File C:\Program Files\Microsoft Visual Studio\2022\Community\VC\Tools\MSVC\14.44.35207\include\xtree

; 779  :     }

  00020	5d		 pop	 ebp
  00021	c2 04 00	 ret	 4
??$_Erase_head@V?$allocator@U?$_Tree_node@U?$pair@$$CBKK@std@@PAX@std@@@std@@@?$_Tree_val@U?$_Tree_simple_types@U?$pair@$$CBKK@std@@@std@@@std@@QAEXAAV?$allocator@U?$_Tree_node@U?$pair@$$CBKK@std@@PAX@std@@@1@@Z ENDP ; std::_Tree_val<std::_Tree_simple_types<std::pair<unsigned long const ,unsigned long> > >::_Erase_head<std::allocator<std::_Tree_node<std::pair<unsigned long const ,unsigned long>,void *> > >
_TEXT	ENDS
; Function compile flags: /Ogtp
; File C:\Program Files\Microsoft Visual Studio\2022\Community\VC\Tools\MSVC\14.44.35207\include\__msvc_string_view.hpp
;	COMDAT ??$_Traits_find_first_of@U?$char_traits@D@std@@@std@@YAIQBDII0I@Z
_TEXT	SEGMENT
__Start_at$GSCopy$1$ = -264				; size = 4
__Haystack$GSCopy$1$ = -260				; size = 4
__Matches$1 = -256					; size = 256
__Start_at$ = 8						; size = 4
__Needle$ = 12						; size = 4
__Needle_size$ = 16					; size = 4
??$_Traits_find_first_of@U?$char_traits@D@std@@@std@@YAIQBDII0I@Z PROC ; std::_Traits_find_first_of<std::char_traits<char> >, COMDAT
; __Haystack$ = ecx
; __Hay_size$ = edx

; 853  :     const size_t _Needle_size) noexcept {

  00000	55		 push	 ebp
  00001	8b ec		 mov	 ebp, esp
  00003	83 e4 f8	 and	 esp, -8			; fffffff8H
  00006	81 ec 0c 01 00
	00		 sub	 esp, 268		; 0000010cH
  0000c	8b 45 08	 mov	 eax, DWORD PTR __Start_at$[ebp]
  0000f	53		 push	 ebx
  00010	8b d9		 mov	 ebx, ecx
  00012	89 44 24 08	 mov	 DWORD PTR __Start_at$GSCopy$1$[esp+272], eax

; 854  :     // in [_Haystack, _Haystack + _Hay_size), look for one of [_Needle, _Needle + _Needle_size), at/after _Start_at
; 855  :     if (_Needle_size == 0 || _Start_at >= _Hay_size) { // no match possible

  00016	8b 4d 10	 mov	 ecx, DWORD PTR __Needle_size$[ebp]
  00019	89 5c 24 0c	 mov	 DWORD PTR __Haystack$GSCopy$1$[esp+272], ebx
  0001d	56		 push	 esi
  0001e	57		 push	 edi
  0001f	8b 7d 0c	 mov	 edi, DWORD PTR __Needle$[ebp]
  00022	85 c9		 test	 ecx, ecx
  00024	74 79		 je	 SHORT $LN9@Traits_fin
  00026	3b c2		 cmp	 eax, edx
  00028	73 75		 jae	 SHORT $LN9@Traits_fin

; 857  :     }
; 858  : 
; 859  :     const auto _Hay_start = _Haystack + _Start_at;

  0002a	8d 34 18	 lea	 esi, DWORD PTR [eax+ebx]

; 860  :     const auto _Hay_end   = _Haystack + _Hay_size;

  0002d	03 da		 add	 ebx, edx

; 861  : 
; 862  :     if constexpr (_Is_implementation_handled_char_traits<_Traits>) {
; 863  : #if _USE_STD_VECTOR_ALGORITHMS
; 864  :         if (!_STD _Is_constant_evaluated()) {
; 865  :             const size_t _Remaining_size = _Hay_size - _Start_at;

  0002f	2b d0		 sub	 edx, eax

; 866  :             if (_Remaining_size + _Needle_size >= _Threshold_find_first_of) {

  00031	8d 04 0a	 lea	 eax, DWORD PTR [edx+ecx]
  00034	83 f8 10	 cmp	 eax, 16			; 00000010H
  00037	72 21		 jb	 SHORT $LN11@Traits_fin

; 867  :                 size_t _Pos = _Find_first_of_pos_vectorized(_Hay_start, _Remaining_size, _Needle, _Needle_size);

  00039	51		 push	 ecx
  0003a	57		 push	 edi
  0003b	52		 push	 edx
  0003c	56		 push	 esi
  0003d	e8 00 00 00 00	 call	 ??$_Find_first_of_pos_vectorized@DD@std@@YAIQBDI0I@Z ; std::_Find_first_of_pos_vectorized<char,char>

; 868  :                 if (_Pos != static_cast<size_t>(-1)) {
; 869  :                     _Pos += _Start_at;
; 870  :                 }
; 871  :                 return _Pos;

  00042	8b 4c 24 20	 mov	 ecx, DWORD PTR __Start_at$GSCopy$1$[esp+296]
  00046	83 c4 10	 add	 esp, 16			; 00000010H
  00049	03 c8		 add	 ecx, eax
  0004b	83 f8 ff	 cmp	 eax, -1
  0004e	0f 44 c8	 cmove	 ecx, eax
  00051	8b c1		 mov	 eax, ecx

; 882  :                 }
; 883  :             }
; 884  :             return static_cast<size_t>(-1); // no match
; 885  :         }
; 886  : 
; 887  :         // couldn't put one of the characters into the bitmap, fall back to serial algorithm
; 888  :     }
; 889  : 
; 890  :     for (auto _Match_try = _Hay_start; _Match_try < _Hay_end; ++_Match_try) {
; 891  :         if (_Traits::find(_Needle, _Needle_size, *_Match_try)) {
; 892  :             return static_cast<size_t>(_Match_try - _Haystack); // found a match
; 893  :         }
; 894  :     }
; 895  : 
; 896  :     return static_cast<size_t>(-1); // no match
; 897  : }

  00053	5f		 pop	 edi
  00054	5e		 pop	 esi
  00055	5b		 pop	 ebx
  00056	8b e5		 mov	 esp, ebp
  00058	5d		 pop	 ebp
  00059	c3		 ret	 0
$LN11@Traits_fin:
  0005a	68 00 01 00 00	 push	 256			; 00000100H
  0005f	8d 44 24 1c	 lea	 eax, DWORD PTR __Matches$1[esp+284]
  00063	6a 00		 push	 0
  00065	50		 push	 eax
  00066	e8 00 00 00 00	 call	 _memset

; 872  :             }
; 873  :         }
; 874  : #endif // _USE_STD_VECTOR_ALGORITHMS
; 875  : 
; 876  :         _String_bitmap<typename _Traits::char_type> _Matches;
; 877  : 
; 878  :         if (_Matches._Mark(_Needle, _Needle + _Needle_size)) {

  0006b	8b 4d 10	 mov	 ecx, DWORD PTR __Needle_size$[ebp]
  0006e	83 c4 0c	 add	 esp, 12			; 0000000cH
  00071	03 cf		 add	 ecx, edi

; 804  :         for (; _First != _Last; ++_First) {

  00073	3b f9		 cmp	 edi, ecx
  00075	74 0d		 je	 SHORT $LN23@Traits_fin
$LL24@Traits_fin:

; 805  :             _Matches[static_cast<unsigned char>(*_First)] = true;

  00077	0f b6 07	 movzx	 eax, BYTE PTR [edi]
  0007a	47		 inc	 edi
  0007b	c6 44 04 18 01	 mov	 BYTE PTR __Matches$1[esp+eax+280], 1
  00080	3b f9		 cmp	 edi, ecx
  00082	75 f3		 jne	 SHORT $LL24@Traits_fin
$LN23@Traits_fin:

; 879  :             for (auto _Match_try = _Hay_start; _Match_try < _Hay_end; ++_Match_try) {

  00084	3b f3		 cmp	 esi, ebx
  00086	73 17		 jae	 SHORT $LN9@Traits_fin
  00088	0f 1f 84 00 00
	00 00 00	 npad	 8
$LL4@Traits_fin:

; 813  :         return _Matches[static_cast<unsigned char>(_Ch)];

  00090	0f b6 06	 movzx	 eax, BYTE PTR [esi]

; 880  :                 if (_Matches._Match(*_Match_try)) {

  00093	80 7c 04 18 00	 cmp	 BYTE PTR __Matches$1[esp+eax+280], 0
  00098	75 0f		 jne	 SHORT $LN36@Traits_fin

; 879  :             for (auto _Match_try = _Hay_start; _Match_try < _Hay_end; ++_Match_try) {

  0009a	46		 inc	 esi
  0009b	3b f3		 cmp	 esi, ebx
  0009d	72 f1		 jb	 SHORT $LL4@Traits_fin
$LN9@Traits_fin:

; 856  :         return static_cast<size_t>(-1);

  0009f	83 c8 ff	 or	 eax, -1

; 882  :                 }
; 883  :             }
; 884  :             return static_cast<size_t>(-1); // no match
; 885  :         }
; 886  : 
; 887  :         // couldn't put one of the characters into the bitmap, fall back to serial algorithm
; 888  :     }
; 889  : 
; 890  :     for (auto _Match_try = _Hay_start; _Match_try < _Hay_end; ++_Match_try) {
; 891  :         if (_Traits::find(_Needle, _Needle_size, *_Match_try)) {
; 892  :             return static_cast<size_t>(_Match_try - _Haystack); // found a match
; 893  :         }
; 894  :     }
; 895  : 
; 896  :     return static_cast<size_t>(-1); // no match
; 897  : }

  000a2	5f		 pop	 edi
  000a3	5e		 pop	 esi
  000a4	5b		 pop	 ebx
  000a5	8b e5		 mov	 esp, ebp
  000a7	5d		 pop	 ebp
  000a8	c3		 ret	 0
$LN36@Traits_fin:

; 881  :                     return static_cast<size_t>(_Match_try - _Haystack); // found a match

  000a9	2b 74 24 14	 sub	 esi, DWORD PTR __Haystack$GSCopy$1$[esp+280]

; 882  :                 }
; 883  :             }
; 884  :             return static_cast<size_t>(-1); // no match
; 885  :         }
; 886  : 
; 887  :         // couldn't put one of the characters into the bitmap, fall back to serial algorithm
; 888  :     }
; 889  : 
; 890  :     for (auto _Match_try = _Hay_start; _Match_try < _Hay_end; ++_Match_try) {
; 891  :         if (_Traits::find(_Needle, _Needle_size, *_Match_try)) {
; 892  :             return static_cast<size_t>(_Match_try - _Haystack); // found a match
; 893  :         }
; 894  :     }
; 895  : 
; 896  :     return static_cast<size_t>(-1); // no match
; 897  : }

  000ad	5f		 pop	 edi
  000ae	8b c6		 mov	 eax, esi
  000b0	5e		 pop	 esi
  000b1	5b		 pop	 ebx
  000b2	8b e5		 mov	 esp, ebp
  000b4	5d		 pop	 ebp
  000b5	c3		 ret	 0
??$_Traits_find_first_of@U?$char_traits@D@std@@@std@@YAIQBDII0I@Z ENDP ; std::_Traits_find_first_of<std::char_traits<char> >
_TEXT	ENDS
; Function compile flags: /Ogtp
;	COMDAT ??0?$_String_bitmap@D$00@std@@QAE@XZ
_TEXT	SEGMENT
??0?$_String_bitmap@D$00@std@@QAE@XZ PROC		; std::_String_bitmap<char,1>::_String_bitmap<char,1>, COMDAT
; _this$ = ecx
  00000	56		 push	 esi
  00001	68 00 01 00 00	 push	 256			; 00000100H
  00006	8b f1		 mov	 esi, ecx
  00008	6a 00		 push	 0
  0000a	56		 push	 esi
  0000b	e8 00 00 00 00	 call	 _memset
  00010	83 c4 0c	 add	 esp, 12			; 0000000cH
  00013	8b c6		 mov	 eax, esi
  00015	5e		 pop	 esi
  00016	c3		 ret	 0
??0?$_String_bitmap@D$00@std@@QAE@XZ ENDP		; std::_String_bitmap<char,1>::_String_bitmap<char,1>
_TEXT	ENDS
; Function compile flags: /Ogtp
; File D:\_m2work\Server Client TMP4\ClientVS22\source\eterLib\Pool.h
; File C:\Program Files\Microsoft Visual Studio\2022\Community\VC\Tools\MSVC\14.44.35207\include\vector
; File D:\_m2work\Server Client TMP4\ClientVS22\source\eterLib\Pool.h
;	COMDAT ?Destroy@?$CDynamicPool@VCInstanceBase@@@@QAEXXZ
_TEXT	SEGMENT
?Destroy@?$CDynamicPool@VCInstanceBase@@@@QAEXXZ PROC	; CDynamicPool<CInstanceBase>::Destroy, COMDAT
; _this$dead$ = ecx

; 38   : 		{

  00000	56		 push	 esi

; 39   : /*
; 40   : #ifdef _DEBUG
; 41   : 			if (!m_kVct_pkData.empty())
; 42   : 			{
; 43   : 				char szText[256];
; 44   : 				sprintf(szText, "--------------------------------------------------------------------- %s Pool Destroy\n", typeid(T).name());
; 45   : 				OutputDebugString(szText);
; 46   : 				printf(szText);
; 47   : 			}
; 48   : #endif			
; 49   : */
; 50   : 			for (auto v : m_kVct_pkData)

  00001	8b 35 04 00 00
	00		 mov	 esi, DWORD PTR ?ms_kPool@CInstanceBase@@2V?$CDynamicPool@VCInstanceBase@@@@A+4
  00007	57		 push	 edi
  00008	8b 3d 08 00 00
	00		 mov	 edi, DWORD PTR ?ms_kPool@CInstanceBase@@2V?$CDynamicPool@VCInstanceBase@@@@A+8
  0000e	3b f7		 cmp	 esi, edi
  00010	74 29		 je	 SHORT $LN10@Destroy
$LL4@Destroy:

; 111  : 			delete pkData;

  00012	8b 0e		 mov	 ecx, DWORD PTR [esi]
  00014	85 c9		 test	 ecx, ecx
  00016	74 06		 je	 SHORT $LN2@Destroy
  00018	8b 01		 mov	 eax, DWORD PTR [ecx]
  0001a	6a 01		 push	 1
  0001c	ff 10		 call	 DWORD PTR [eax]
$LN2@Destroy:

; 39   : /*
; 40   : #ifdef _DEBUG
; 41   : 			if (!m_kVct_pkData.empty())
; 42   : 			{
; 43   : 				char szText[256];
; 44   : 				sprintf(szText, "--------------------------------------------------------------------- %s Pool Destroy\n", typeid(T).name());
; 45   : 				OutputDebugString(szText);
; 46   : 				printf(szText);
; 47   : 			}
; 48   : #endif			
; 49   : */
; 50   : 			for (auto v : m_kVct_pkData)

  0001e	83 c6 04	 add	 esi, 4
  00021	3b f7		 cmp	 esi, edi
  00023	75 ed		 jne	 SHORT $LL4@Destroy
  00025	8b 3d 08 00 00
	00		 mov	 edi, DWORD PTR ?ms_kPool@CInstanceBase@@2V?$CDynamicPool@VCInstanceBase@@@@A+8
  0002b	8b 35 04 00 00
	00		 mov	 esi, DWORD PTR ?ms_kPool@CInstanceBase@@2V?$CDynamicPool@VCInstanceBase@@@@A+4
; File C:\Program Files\Microsoft Visual Studio\2022\Community\VC\Tools\MSVC\14.44.35207\include\vector

; 1812 :         if (_Myfirst == _Mylast) { // already empty, nothing to do

  00031	3b f7		 cmp	 esi, edi
  00033	74 06		 je	 SHORT $LN10@Destroy

; 1813 :             // This is an optimization for debug mode: we can avoid taking the debug lock to invalidate iterators.
; 1814 :             // Note that when clearing an empty vector, this will preserve past-the-end iterators, which is allowed by
; 1815 :             // N4950 [sequence.reqmts]/54 "a.clear() [...] may invalidate the past-the-end iterator".
; 1816 :             return;
; 1817 :         }
; 1818 : 
; 1819 :         _My_data._Orphan_all();
; 1820 :         _Destroy_range(_Myfirst, _Mylast, _Getal());
; 1821 :         _ASAN_VECTOR_MODIFY(static_cast<difference_type>(_Myfirst - _Mylast)); // negative when destroying elements
; 1822 :         _Mylast = _Myfirst;

  00035	89 35 08 00 00
	00		 mov	 DWORD PTR ?ms_kPool@CInstanceBase@@2V?$CDynamicPool@VCInstanceBase@@@@A+8, esi
$LN10@Destroy:

; 1812 :         if (_Myfirst == _Mylast) { // already empty, nothing to do

  0003b	a1 10 00 00 00	 mov	 eax, DWORD PTR ?ms_kPool@CInstanceBase@@2V?$CDynamicPool@VCInstanceBase@@@@A+16
  00040	5f		 pop	 edi
  00041	5e		 pop	 esi
  00042	3b 05 14 00 00
	00		 cmp	 eax, DWORD PTR ?ms_kPool@CInstanceBase@@2V?$CDynamicPool@VCInstanceBase@@@@A+20
  00048	74 05		 je	 SHORT $LN14@Destroy

; 1813 :             // This is an optimization for debug mode: we can avoid taking the debug lock to invalidate iterators.
; 1814 :             // Note that when clearing an empty vector, this will preserve past-the-end iterators, which is allowed by
; 1815 :             // N4950 [sequence.reqmts]/54 "a.clear() [...] may invalidate the past-the-end iterator".
; 1816 :             return;
; 1817 :         }
; 1818 : 
; 1819 :         _My_data._Orphan_all();
; 1820 :         _Destroy_range(_Myfirst, _Mylast, _Getal());
; 1821 :         _ASAN_VECTOR_MODIFY(static_cast<difference_type>(_Myfirst - _Mylast)); // negative when destroying elements
; 1822 :         _Mylast = _Myfirst;

  0004a	a3 14 00 00 00	 mov	 DWORD PTR ?ms_kPool@CInstanceBase@@2V?$CDynamicPool@VCInstanceBase@@@@A+20, eax
$LN14@Destroy:
; File D:\_m2work\Server Client TMP4\ClientVS22\source\eterLib\Pool.h

; 54   : 		}

  0004f	c3		 ret	 0
?Destroy@?$CDynamicPool@VCInstanceBase@@@@QAEXXZ ENDP	; CDynamicPool<CInstanceBase>::Destroy
_TEXT	ENDS
; Function compile flags: /Ogtp
; File C:\Program Files\Microsoft Visual Studio\2022\Community\VC\Tools\MSVC\14.44.35207\include\list
; File C:\Program Files\Microsoft Visual Studio\2022\Community\VC\Tools\MSVC\14.44.35207\include\xmemory
; File C:\Program Files\Microsoft Visual Studio\2022\Community\VC\Tools\MSVC\14.44.35207\include\list
; File C:\Program Files\Microsoft Visual Studio\2022\Community\VC\Tools\MSVC\14.44.35207\include\xmemory
; File C:\Program Files\Microsoft Visual Studio\2022\Community\VC\Tools\MSVC\14.44.35207\include\list
;	COMDAT ?_Alloc_sentinel_and_proxy@?$list@USEffectDamage@CInstanceBase@@V?$allocator@USEffectDamage@CInstanceBase@@@std@@@std@@AAEXXZ
_TEXT	SEGMENT
?_Alloc_sentinel_and_proxy@?$list@USEffectDamage@CInstanceBase@@V?$allocator@USEffectDamage@CInstanceBase@@@std@@@std@@AAEXXZ PROC ; std::list<CInstanceBase::SEffectDamage,std::allocator<CInstanceBase::SEffectDamage> >::_Alloc_sentinel_and_proxy, COMDAT
; _this$ = ecx

; 1847 :     void _Alloc_sentinel_and_proxy() {

  00000	56		 push	 esi
; File C:\Program Files\Microsoft Visual Studio\2022\Community\VC\Tools\MSVC\14.44.35207\include\xmemory

; 136  :         return ::operator new(_Bytes);

  00001	6a 18		 push	 24			; 00000018H
; File C:\Program Files\Microsoft Visual Studio\2022\Community\VC\Tools\MSVC\14.44.35207\include\list

; 1847 :     void _Alloc_sentinel_and_proxy() {

  00003	8b f1		 mov	 esi, ecx
; File C:\Program Files\Microsoft Visual Studio\2022\Community\VC\Tools\MSVC\14.44.35207\include\xmemory

; 136  :         return ::operator new(_Bytes);

  00005	e8 00 00 00 00	 call	 ??2@YAPAXI@Z		; operator new
  0000a	83 c4 04	 add	 esp, 4
; File C:\Program Files\Microsoft Visual Studio\2022\Community\VC\Tools\MSVC\14.44.35207\include\list

; 1852 :         _Construct_in_place(_Newhead->_Next, _Newhead);

  0000d	89 00		 mov	 DWORD PTR [eax], eax

; 1853 :         _Construct_in_place(_Newhead->_Prev, _Newhead);

  0000f	89 40 04	 mov	 DWORD PTR [eax+4], eax

; 1854 :         _Mypair._Myval2._Myhead = _Newhead;

  00012	89 06		 mov	 DWORD PTR [esi], eax
  00014	5e		 pop	 esi

; 1855 :         _Proxy._Release();
; 1856 :     }

  00015	c3		 ret	 0
?_Alloc_sentinel_and_proxy@?$list@USEffectDamage@CInstanceBase@@V?$allocator@USEffectDamage@CInstanceBase@@@std@@@std@@AAEXXZ ENDP ; std::list<CInstanceBase::SEffectDamage,std::allocator<CInstanceBase::SEffectDamage> >::_Alloc_sentinel_and_proxy
_TEXT	ENDS
; Function compile flags: /Ogtp
; File C:\Program Files\Microsoft Visual Studio\2022\Community\VC\Tools\MSVC\14.44.35207\include\list
; File C:\Program Files\Microsoft Visual Studio\2022\Community\VC\Tools\MSVC\14.44.35207\include\xmemory
; File C:\Program Files\Microsoft Visual Studio\2022\Community\VC\Tools\MSVC\14.44.35207\include\list
; File C:\Program Files\Microsoft Visual Studio\2022\Community\VC\Tools\MSVC\14.44.35207\include\xmemory
; File C:\Program Files\Microsoft Visual Studio\2022\Community\VC\Tools\MSVC\14.44.35207\include\list
;	COMDAT ?_Tidy@?$list@USEffectDamage@CInstanceBase@@V?$allocator@USEffectDamage@CInstanceBase@@@std@@@std@@AAEXXZ
_TEXT	SEGMENT
?_Tidy@?$list@USEffectDamage@CInstanceBase@@V?$allocator@USEffectDamage@CInstanceBase@@@std@@@std@@AAEXXZ PROC ; std::list<CInstanceBase::SEffectDamage,std::allocator<CInstanceBase::SEffectDamage> >::_Tidy, COMDAT
; _this$ = ecx

; 1514 :     void _Tidy() noexcept {

  00000	57		 push	 edi
  00001	8b f9		 mov	 edi, ecx

; 1515 :         auto& _Al      = _Getal();
; 1516 :         auto& _My_data = _Mypair._Myval2;
; 1517 :         _My_data._Orphan_all();
; 1518 :         _Node::_Free_non_head(_Al, _My_data._Myhead);

  00003	8b 17		 mov	 edx, DWORD PTR [edi]

; 324  :         _Head->_Prev->_Next = nullptr;

  00005	8b 42 04	 mov	 eax, DWORD PTR [edx+4]
  00008	c7 00 00 00 00
	00		 mov	 DWORD PTR [eax], 0

; 325  : 
; 326  :         auto _Pnode = _Head->_Next;

  0000e	8b 02		 mov	 eax, DWORD PTR [edx]

; 327  :         for (_Nodeptr _Pnext; _Pnode; _Pnode = _Pnext) {

  00010	85 c0		 test	 eax, eax
  00012	74 15		 je	 SHORT $LN88@Tidy
  00014	56		 push	 esi
$LL7@Tidy:

; 328  :             _Pnext = _Pnode->_Next;

  00015	8b 30		 mov	 esi, DWORD PTR [eax]
; File C:\Program Files\Microsoft Visual Studio\2022\Community\VC\Tools\MSVC\14.44.35207\include\xmemory

; 289  :         ::operator delete(_Ptr, _Bytes);

  00017	6a 18		 push	 24			; 00000018H
  00019	50		 push	 eax
  0001a	e8 00 00 00 00	 call	 ??3@YAXPAXI@Z		; operator delete
  0001f	83 c4 08	 add	 esp, 8
; File C:\Program Files\Microsoft Visual Studio\2022\Community\VC\Tools\MSVC\14.44.35207\include\list

; 327  :         for (_Nodeptr _Pnext; _Pnode; _Pnode = _Pnext) {

  00022	8b c6		 mov	 eax, esi
  00024	85 f6		 test	 esi, esi
  00026	75 ed		 jne	 SHORT $LL7@Tidy
  00028	5e		 pop	 esi
$LN88@Tidy:
; File C:\Program Files\Microsoft Visual Studio\2022\Community\VC\Tools\MSVC\14.44.35207\include\xmemory

; 289  :         ::operator delete(_Ptr, _Bytes);

  00029	6a 18		 push	 24			; 00000018H
  0002b	ff 37		 push	 DWORD PTR [edi]
  0002d	e8 00 00 00 00	 call	 ??3@YAXPAXI@Z		; operator delete
  00032	83 c4 08	 add	 esp, 8
  00035	5f		 pop	 edi
; File C:\Program Files\Microsoft Visual Studio\2022\Community\VC\Tools\MSVC\14.44.35207\include\list

; 1520 :     }

  00036	c3		 ret	 0
?_Tidy@?$list@USEffectDamage@CInstanceBase@@V?$allocator@USEffectDamage@CInstanceBase@@@std@@@std@@AAEXXZ ENDP ; std::list<CInstanceBase::SEffectDamage,std::allocator<CInstanceBase::SEffectDamage> >::_Tidy
_TEXT	ENDS
; Function compile flags: /Ogtp
; File C:\Program Files\Microsoft Visual Studio\2022\Community\VC\Tools\MSVC\14.44.35207\include\list
;	COMDAT ?_Orphan_non_end@?$_List_val@U?$_List_simple_types@USCommand@CInstanceBase@@@std@@@std@@QAEXXZ
_TEXT	SEGMENT
?_Orphan_non_end@?$_List_val@U?$_List_simple_types@USCommand@CInstanceBase@@@std@@@std@@QAEXXZ PROC ; std::_List_val<std::_List_simple_types<CInstanceBase::SCommand> >::_Orphan_non_end, COMDAT
; _this$dead$ = ecx

; 387  : #if _ITERATOR_DEBUG_LEVEL == 2
; 388  :         _Lockit _Lock(_LOCK_DEBUG);
; 389  :         _Iterator_base12** _Pnext = &this->_Myproxy->_Myfirstiter;
; 390  :         const auto _Head          = _Myhead;
; 391  :         while (*_Pnext) {
; 392  :             _Iterator_base12** _Pnextnext = &(*_Pnext)->_Mynextiter;
; 393  :             if (static_cast<_List_const_iterator<_List_val>&>(**_Pnext)._Ptr == _Head) { // iterator is end(), move on
; 394  :                 _Pnext = _Pnextnext;
; 395  :             } else { // orphan the iterator
; 396  :                 (*_Pnext)->_Myproxy = nullptr;
; 397  :                 *_Pnext             = *_Pnextnext;
; 398  :             }
; 399  :         }
; 400  : #endif // _ITERATOR_DEBUG_LEVEL == 2
; 401  :     }

  00000	c2 00 00	 ret	 0
?_Orphan_non_end@?$_List_val@U?$_List_simple_types@USCommand@CInstanceBase@@@std@@@std@@QAEXXZ ENDP ; std::_List_val<std::_List_simple_types<CInstanceBase::SCommand> >::_Orphan_non_end
_TEXT	ENDS
; Function compile flags: /Ogtp
; File C:\Program Files\Microsoft Visual Studio\2022\Community\VC\Tools\MSVC\14.44.35207\include\list
;	COMDAT ?_Getal@?$list@USCommand@CInstanceBase@@V?$allocator@USCommand@CInstanceBase@@@std@@@std@@AAEAAV?$allocator@U?$_List_node@USCommand@CInstanceBase@@PAX@std@@@2@XZ
_TEXT	SEGMENT
?_Getal@?$list@USCommand@CInstanceBase@@V?$allocator@USCommand@CInstanceBase@@@std@@@std@@AAEAAV?$allocator@U?$_List_node@USCommand@CInstanceBase@@PAX@std@@@2@XZ PROC ; std::list<CInstanceBase::SCommand,std::allocator<CInstanceBase::SCommand> >::_Getal, COMDAT
; _this$ = ecx

; 1863 :         return _Mypair._Get_first();

  00000	8b c1		 mov	 eax, ecx

; 1864 :     }

  00002	c3		 ret	 0
?_Getal@?$list@USCommand@CInstanceBase@@V?$allocator@USCommand@CInstanceBase@@@std@@@std@@AAEAAV?$allocator@U?$_List_node@USCommand@CInstanceBase@@PAX@std@@@2@XZ ENDP ; std::list<CInstanceBase::SCommand,std::allocator<CInstanceBase::SCommand> >::_Getal
_TEXT	ENDS
; Function compile flags: /Ogtp
; File C:\Program Files\Microsoft Visual Studio\2022\Community\VC\Tools\MSVC\14.44.35207\include\list
;	COMDAT ?_Alloc_sentinel_and_proxy@?$list@USCommand@CInstanceBase@@V?$allocator@USCommand@CInstanceBase@@@std@@@std@@AAEXXZ
_TEXT	SEGMENT
?_Alloc_sentinel_and_proxy@?$list@USCommand@CInstanceBase@@V?$allocator@USCommand@CInstanceBase@@@std@@@std@@AAEXXZ PROC ; std::list<CInstanceBase::SCommand,std::allocator<CInstanceBase::SCommand> >::_Alloc_sentinel_and_proxy, COMDAT
; _this$ = ecx

; 1847 :     void _Alloc_sentinel_and_proxy() {

  00000	56		 push	 esi

; 1848 :         auto&& _Alproxy = _GET_PROXY_ALLOCATOR(_Alnode, _Getal());
; 1849 :         _Container_proxy_ptr<_Alty> _Proxy(_Alproxy, _Mypair._Myval2);
; 1850 :         auto& _Al     = _Getal();
; 1851 :         auto _Newhead = _Al.allocate(1);

  00001	6a 2c		 push	 44			; 0000002cH
  00003	8b f1		 mov	 esi, ecx
  00005	e8 00 00 00 00	 call	 ??2@YAPAXI@Z		; operator new
  0000a	83 c4 04	 add	 esp, 4

; 1852 :         _Construct_in_place(_Newhead->_Next, _Newhead);

  0000d	89 00		 mov	 DWORD PTR [eax], eax

; 1853 :         _Construct_in_place(_Newhead->_Prev, _Newhead);

  0000f	89 40 04	 mov	 DWORD PTR [eax+4], eax

; 1854 :         _Mypair._Myval2._Myhead = _Newhead;

  00012	89 06		 mov	 DWORD PTR [esi], eax
  00014	5e		 pop	 esi

; 1855 :         _Proxy._Release();
; 1856 :     }

  00015	c3		 ret	 0
?_Alloc_sentinel_and_proxy@?$list@USCommand@CInstanceBase@@V?$allocator@USCommand@CInstanceBase@@@std@@@std@@AAEXXZ ENDP ; std::list<CInstanceBase::SCommand,std::allocator<CInstanceBase::SCommand> >::_Alloc_sentinel_and_proxy
_TEXT	ENDS
; Function compile flags: /Ogtp
; File C:\Program Files\Microsoft Visual Studio\2022\Community\VC\Tools\MSVC\14.44.35207\include\list
; File C:\Program Files\Microsoft Visual Studio\2022\Community\VC\Tools\MSVC\14.44.35207\include\xmemory
; File C:\Program Files\Microsoft Visual Studio\2022\Community\VC\Tools\MSVC\14.44.35207\include\list
; File C:\Program Files\Microsoft Visual Studio\2022\Community\VC\Tools\MSVC\14.44.35207\include\xmemory
; File C:\Program Files\Microsoft Visual Studio\2022\Community\VC\Tools\MSVC\14.44.35207\include\list
;	COMDAT ?_Tidy@?$list@USCommand@CInstanceBase@@V?$allocator@USCommand@CInstanceBase@@@std@@@std@@AAEXXZ
_TEXT	SEGMENT
?_Tidy@?$list@USCommand@CInstanceBase@@V?$allocator@USCommand@CInstanceBase@@@std@@@std@@AAEXXZ PROC ; std::list<CInstanceBase::SCommand,std::allocator<CInstanceBase::SCommand> >::_Tidy, COMDAT
; _this$ = ecx

; 1514 :     void _Tidy() noexcept {

  00000	57		 push	 edi
  00001	8b f9		 mov	 edi, ecx

; 1515 :         auto& _Al      = _Getal();
; 1516 :         auto& _My_data = _Mypair._Myval2;
; 1517 :         _My_data._Orphan_all();
; 1518 :         _Node::_Free_non_head(_Al, _My_data._Myhead);

  00003	8b 17		 mov	 edx, DWORD PTR [edi]

; 324  :         _Head->_Prev->_Next = nullptr;

  00005	8b 42 04	 mov	 eax, DWORD PTR [edx+4]
  00008	c7 00 00 00 00
	00		 mov	 DWORD PTR [eax], 0

; 325  : 
; 326  :         auto _Pnode = _Head->_Next;

  0000e	8b 02		 mov	 eax, DWORD PTR [edx]

; 327  :         for (_Nodeptr _Pnext; _Pnode; _Pnode = _Pnext) {

  00010	85 c0		 test	 eax, eax
  00012	74 15		 je	 SHORT $LN88@Tidy
  00014	56		 push	 esi
$LL7@Tidy:

; 328  :             _Pnext = _Pnode->_Next;

  00015	8b 30		 mov	 esi, DWORD PTR [eax]
; File C:\Program Files\Microsoft Visual Studio\2022\Community\VC\Tools\MSVC\14.44.35207\include\xmemory

; 289  :         ::operator delete(_Ptr, _Bytes);

  00017	6a 2c		 push	 44			; 0000002cH
  00019	50		 push	 eax
  0001a	e8 00 00 00 00	 call	 ??3@YAXPAXI@Z		; operator delete
  0001f	83 c4 08	 add	 esp, 8
; File C:\Program Files\Microsoft Visual Studio\2022\Community\VC\Tools\MSVC\14.44.35207\include\list

; 327  :         for (_Nodeptr _Pnext; _Pnode; _Pnode = _Pnext) {

  00022	8b c6		 mov	 eax, esi
  00024	85 f6		 test	 esi, esi
  00026	75 ed		 jne	 SHORT $LL7@Tidy
  00028	5e		 pop	 esi
$LN88@Tidy:
; File C:\Program Files\Microsoft Visual Studio\2022\Community\VC\Tools\MSVC\14.44.35207\include\xmemory

; 289  :         ::operator delete(_Ptr, _Bytes);

  00029	6a 2c		 push	 44			; 0000002cH
  0002b	ff 37		 push	 DWORD PTR [edi]
  0002d	e8 00 00 00 00	 call	 ??3@YAXPAXI@Z		; operator delete
  00032	83 c4 08	 add	 esp, 8
  00035	5f		 pop	 edi
; File C:\Program Files\Microsoft Visual Studio\2022\Community\VC\Tools\MSVC\14.44.35207\include\list

; 1520 :     }

  00036	c3		 ret	 0
?_Tidy@?$list@USCommand@CInstanceBase@@V?$allocator@USCommand@CInstanceBase@@@std@@@std@@AAEXXZ ENDP ; std::list<CInstanceBase::SCommand,std::allocator<CInstanceBase::SCommand> >::_Tidy
_TEXT	ENDS
; Function compile flags: /Ogtp
; File C:\Program Files\Microsoft Visual Studio\2022\Community\VC\Tools\MSVC\14.44.35207\include\list
; File C:\Program Files\Microsoft Visual Studio\2022\Community\VC\Tools\MSVC\14.44.35207\include\xmemory
; File C:\Program Files\Microsoft Visual Studio\2022\Community\VC\Tools\MSVC\14.44.35207\include\list
; File C:\Program Files\Microsoft Visual Studio\2022\Community\VC\Tools\MSVC\14.44.35207\include\xmemory
; File C:\Program Files\Microsoft Visual Studio\2022\Community\VC\Tools\MSVC\14.44.35207\include\list
;	COMDAT ?_Unchecked_erase@?$list@USCommand@CInstanceBase@@V?$allocator@USCommand@CInstanceBase@@@std@@@std@@AAEPAU?$_List_node@USCommand@CInstanceBase@@PAX@2@QAU32@@Z
_TEXT	SEGMENT
__Pnode$ = 8						; size = 4
?_Unchecked_erase@?$list@USCommand@CInstanceBase@@V?$allocator@USCommand@CInstanceBase@@@std@@@std@@AAEPAU?$_List_node@USCommand@CInstanceBase@@PAX@2@QAU32@@Z PROC ; std::list<CInstanceBase::SCommand,std::allocator<CInstanceBase::SCommand> >::_Unchecked_erase, COMDAT
; _this$ = ecx

; 1437 :     _Nodeptr _Unchecked_erase(const _Nodeptr _Pnode) noexcept { // erase element at _Pnode

  00000	55		 push	 ebp
  00001	8b ec		 mov	 ebp, esp

; 1438 :         const auto _Result = _Pnode->_Next;

  00003	8b 55 08	 mov	 edx, DWORD PTR __Pnode$[ebp]
  00006	56		 push	 esi
; File C:\Program Files\Microsoft Visual Studio\2022\Community\VC\Tools\MSVC\14.44.35207\include\xmemory

; 289  :         ::operator delete(_Ptr, _Bytes);

  00007	6a 2c		 push	 44			; 0000002cH
  00009	52		 push	 edx
; File C:\Program Files\Microsoft Visual Studio\2022\Community\VC\Tools\MSVC\14.44.35207\include\list

; 1438 :         const auto _Result = _Pnode->_Next;

  0000a	8b 32		 mov	 esi, DWORD PTR [edx]

; 1439 :         _Mypair._Myval2._Orphan_ptr2(_Pnode);
; 1440 :         --_Mypair._Myval2._Mysize;

  0000c	ff 49 04	 dec	 DWORD PTR [ecx+4]

; 1441 :         _Pnode->_Prev->_Next = _Result;

  0000f	8b 4a 04	 mov	 ecx, DWORD PTR [edx+4]
  00012	89 31		 mov	 DWORD PTR [ecx], esi

; 1442 :         _Result->_Prev       = _Pnode->_Prev;

  00014	8b 4a 04	 mov	 ecx, DWORD PTR [edx+4]
  00017	89 4e 04	 mov	 DWORD PTR [esi+4], ecx
; File C:\Program Files\Microsoft Visual Studio\2022\Community\VC\Tools\MSVC\14.44.35207\include\xmemory

; 289  :         ::operator delete(_Ptr, _Bytes);

  0001a	e8 00 00 00 00	 call	 ??3@YAXPAXI@Z		; operator delete
  0001f	83 c4 08	 add	 esp, 8
; File C:\Program Files\Microsoft Visual Studio\2022\Community\VC\Tools\MSVC\14.44.35207\include\list

; 1444 :         return _Result;

  00022	8b c6		 mov	 eax, esi
  00024	5e		 pop	 esi

; 1445 :     }

  00025	5d		 pop	 ebp
  00026	c2 04 00	 ret	 4
?_Unchecked_erase@?$list@USCommand@CInstanceBase@@V?$allocator@USCommand@CInstanceBase@@@std@@@std@@AAEPAU?$_List_node@USCommand@CInstanceBase@@PAX@2@QAU32@@Z ENDP ; std::list<CInstanceBase::SCommand,std::allocator<CInstanceBase::SCommand> >::_Unchecked_erase
_TEXT	ENDS
; Function compile flags: /Ogtp
; File C:\Program Files\Microsoft Visual Studio\2022\Community\VC\Tools\MSVC\14.44.35207\include\vector
;	COMDAT ?back@?$vector@PAVCInstanceBase@@V?$allocator@PAVCInstanceBase@@@std@@@std@@QAEAAPAVCInstanceBase@@XZ
_TEXT	SEGMENT
?back@?$vector@PAVCInstanceBase@@V?$allocator@PAVCInstanceBase@@@std@@@std@@QAEAAPAVCInstanceBase@@XZ PROC ; std::vector<CInstanceBase *,std::allocator<CInstanceBase *> >::back, COMDAT
; _this$ = ecx

; 1984 :         auto& _My_data = _Mypair._Myval2;
; 1985 : #if _MSVC_STL_HARDENING_VECTOR || _ITERATOR_DEBUG_LEVEL != 0
; 1986 :         _STL_VERIFY(_My_data._Myfirst != _My_data._Mylast, "back() called on empty vector");
; 1987 : #endif
; 1988 : 
; 1989 :         return _My_data._Mylast[-1];

  00000	8b 41 04	 mov	 eax, DWORD PTR [ecx+4]
  00003	83 e8 04	 sub	 eax, 4

; 1990 :     }

  00006	c3		 ret	 0
?back@?$vector@PAVCInstanceBase@@V?$allocator@PAVCInstanceBase@@@std@@@std@@QAEAAPAVCInstanceBase@@XZ ENDP ; std::vector<CInstanceBase *,std::allocator<CInstanceBase *> >::back
_TEXT	ENDS
; Function compile flags: /Ogtp
; File C:\Program Files\Microsoft Visual Studio\2022\Community\VC\Tools\MSVC\14.44.35207\include\vector
;	COMDAT ?size@?$vector@PAVCInstanceBase@@V?$allocator@PAVCInstanceBase@@@std@@@std@@QBEIXZ
_TEXT	SEGMENT
?size@?$vector@PAVCInstanceBase@@V?$allocator@PAVCInstanceBase@@@std@@@std@@QBEIXZ PROC ; std::vector<CInstanceBase *,std::allocator<CInstanceBase *> >::size, COMDAT
; _this$ = ecx

; 1914 :         auto& _My_data = _Mypair._Myval2;
; 1915 :         return static_cast<size_type>(_My_data._Mylast - _My_data._Myfirst);

  00000	8b 41 04	 mov	 eax, DWORD PTR [ecx+4]
  00003	2b 01		 sub	 eax, DWORD PTR [ecx]
  00005	c1 f8 02	 sar	 eax, 2

; 1916 :     }

  00008	c3		 ret	 0
?size@?$vector@PAVCInstanceBase@@V?$allocator@PAVCInstanceBase@@@std@@@std@@QBEIXZ ENDP ; std::vector<CInstanceBase *,std::allocator<CInstanceBase *> >::size
_TEXT	ENDS
; Function compile flags: /Ogtp
; File C:\Program Files\Microsoft Visual Studio\2022\Community\VC\Tools\MSVC\14.44.35207\include\vector
;	COMDAT ?empty@?$vector@PAVCInstanceBase@@V?$allocator@PAVCInstanceBase@@@std@@@std@@QBE_NXZ
_TEXT	SEGMENT
?empty@?$vector@PAVCInstanceBase@@V?$allocator@PAVCInstanceBase@@@std@@@std@@QBE_NXZ PROC ; std::vector<CInstanceBase *,std::allocator<CInstanceBase *> >::empty, COMDAT
; _this$ = ecx

; 1909 :         auto& _My_data = _Mypair._Myval2;
; 1910 :         return _My_data._Myfirst == _My_data._Mylast;

  00000	8b 01		 mov	 eax, DWORD PTR [ecx]
  00002	3b 41 04	 cmp	 eax, DWORD PTR [ecx+4]
  00005	0f 94 c0	 sete	 al

; 1911 :     }

  00008	c3		 ret	 0
?empty@?$vector@PAVCInstanceBase@@V?$allocator@PAVCInstanceBase@@@std@@@std@@QBE_NXZ ENDP ; std::vector<CInstanceBase *,std::allocator<CInstanceBase *> >::empty
_TEXT	ENDS
; Function compile flags: /Ogtp
; File C:\Program Files\Microsoft Visual Studio\2022\Community\VC\Tools\MSVC\14.44.35207\include\vector
;	COMDAT ?pop_back@?$vector@PAVCInstanceBase@@V?$allocator@PAVCInstanceBase@@@std@@@std@@QAEXXZ
_TEXT	SEGMENT
?pop_back@?$vector@PAVCInstanceBase@@V?$allocator@PAVCInstanceBase@@@std@@@std@@QAEXXZ PROC ; std::vector<CInstanceBase *,std::allocator<CInstanceBase *> >::pop_back, COMDAT
; _this$ = ecx

; 1749 :         auto& _My_data   = _Mypair._Myval2;
; 1750 :         pointer& _Mylast = _My_data._Mylast;
; 1751 : 
; 1752 : #if _MSVC_STL_HARDENING_VECTOR || _ITERATOR_DEBUG_LEVEL != 0
; 1753 :         _STL_VERIFY(_My_data._Myfirst != _Mylast, "pop_back() called on empty vector");
; 1754 : #endif
; 1755 : 
; 1756 :         _Orphan_range(_Mylast - 1, _Mylast);
; 1757 :         _Alty_traits::destroy(_Getal(), _Unfancy(_Mylast - 1));
; 1758 :         _ASAN_VECTOR_MODIFY(-1);
; 1759 :         --_Mylast;

  00000	83 41 04 fc	 add	 DWORD PTR [ecx+4], -4	; fffffffcH

; 1760 :     }

  00004	c3		 ret	 0
?pop_back@?$vector@PAVCInstanceBase@@V?$allocator@PAVCInstanceBase@@@std@@@std@@QAEXXZ ENDP ; std::vector<CInstanceBase *,std::allocator<CInstanceBase *> >::pop_back
_TEXT	ENDS
; Function compile flags: /Ogtp
; File C:\Program Files\Microsoft Visual Studio\2022\Community\VC\Tools\MSVC\14.44.35207\include\vector
;	COMDAT ?push_back@?$vector@PAVCInstanceBase@@V?$allocator@PAVCInstanceBase@@@std@@@std@@QAEXABQAVCInstanceBase@@@Z
_TEXT	SEGMENT
__Val$ = 8						; size = 4
?push_back@?$vector@PAVCInstanceBase@@V?$allocator@PAVCInstanceBase@@@std@@@std@@QAEXABQAVCInstanceBase@@@Z PROC ; std::vector<CInstanceBase *,std::allocator<CInstanceBase *> >::push_back, COMDAT
; _this$ = ecx

; 932  :     _CONSTEXPR20 void push_back(const _Ty& _Val) { // insert element at end, provide strong guarantee

  00000	55		 push	 ebp
  00001	8b ec		 mov	 ebp, esp

; 934  :     }

  00003	5d		 pop	 ebp

; 933  :         _Emplace_one_at_back(_Val);

  00004	e9 00 00 00 00	 jmp	 ??$_Emplace_one_at_back@ABQAVCInstanceBase@@@?$vector@PAVCInstanceBase@@V?$allocator@PAVCInstanceBase@@@std@@@std@@AAEAAPAVCInstanceBase@@ABQAV2@@Z ; std::vector<CInstanceBase *,std::allocator<CInstanceBase *> >::_Emplace_one_at_back<CInstanceBase * const &>
?push_back@?$vector@PAVCInstanceBase@@V?$allocator@PAVCInstanceBase@@@std@@@std@@QAEXABQAVCInstanceBase@@@Z ENDP ; std::vector<CInstanceBase *,std::allocator<CInstanceBase *> >::push_back
_TEXT	ENDS
; Function compile flags: /Ogtp
; File C:\Program Files\Microsoft Visual Studio\2022\Community\VC\Tools\MSVC\14.44.35207\include\vector
; File C:\Program Files\Microsoft Visual Studio\2022\Community\VC\Tools\MSVC\14.44.35207\include\xmemory
; File C:\Program Files\Microsoft Visual Studio\2022\Community\VC\Tools\MSVC\14.44.35207\include\vector
; File C:\Program Files\Microsoft Visual Studio\2022\Community\VC\Tools\MSVC\14.44.35207\include\xmemory
; File C:\Program Files\Microsoft Visual Studio\2022\Community\VC\Tools\MSVC\14.44.35207\include\vector
; File C:\Program Files\Microsoft Visual Studio\2022\Community\VC\Tools\MSVC\14.44.35207\include\xmemory
; File C:\Program Files\Microsoft Visual Studio\2022\Community\VC\Tools\MSVC\14.44.35207\include\vector
;	COMDAT ??1?$vector@PAVCInstanceBase@@V?$allocator@PAVCInstanceBase@@@std@@@std@@QAE@XZ
_TEXT	SEGMENT
??1?$vector@PAVCInstanceBase@@V?$allocator@PAVCInstanceBase@@@std@@@std@@QAE@XZ PROC ; std::vector<CInstanceBase *,std::allocator<CInstanceBase *> >::~vector<CInstanceBase *,std::allocator<CInstanceBase *> >, COMDAT
; _this$ = ecx

; 829  :     _CONSTEXPR20 ~vector() noexcept {

  00000	56		 push	 esi
  00001	8b f1		 mov	 esi, ecx

; 2090 :         if (_Myfirst) { // destroy and deallocate old array

  00003	8b 06		 mov	 eax, DWORD PTR [esi]
  00005	85 c0		 test	 eax, eax
  00007	74 40		 je	 SHORT $LN5@vector

; 2091 :             _STD _Destroy_range(_Myfirst, _Mylast, _Al);
; 2092 :             _ASAN_VECTOR_REMOVE;
; 2093 :             _Al.deallocate(_Myfirst, static_cast<size_type>(_Myend - _Myfirst));

  00009	8b 4e 08	 mov	 ecx, DWORD PTR [esi+8]
  0000c	2b c8		 sub	 ecx, eax
; File C:\Program Files\Microsoft Visual Studio\2022\Community\VC\Tools\MSVC\14.44.35207\include\xmemory

; 985  :         _STD _Deallocate<_New_alignof<_Ty>>(_Ptr, sizeof(_Ty) * _Count);

  0000e	83 e1 fc	 and	 ecx, -4			; fffffffcH

; 284  :         if (_Bytes >= _Big_allocation_threshold) {

  00011	81 f9 00 10 00
	00		 cmp	 ecx, 4096		; 00001000H
  00017	72 12		 jb	 SHORT $LN19@vector

; 205  :     const uintptr_t _Ptr_container   = _Ptr_user[-1];

  00019	8b 50 fc	 mov	 edx, DWORD PTR [eax-4]
  0001c	83 c1 23	 add	 ecx, 35			; 00000023H

; 206  : 
; 207  :     // If the following asserts, it likely means that we are performing
; 208  :     // an aligned delete on memory coming from an unaligned allocation.
; 209  :     _STL_ASSERT(_Ptr_user[-2] == _Big_allocation_sentinel, "invalid argument");
; 210  : 
; 211  :     // Extra paranoia on aligned allocation/deallocation; ensure _Ptr_container is
; 212  :     // in range [_Min_back_shift, _Non_user_size]
; 213  : #ifdef _DEBUG
; 214  :     constexpr uintptr_t _Min_back_shift = 2 * sizeof(void*);
; 215  : #else // ^^^ defined(_DEBUG) / !defined(_DEBUG) vvv
; 216  :     constexpr uintptr_t _Min_back_shift = sizeof(void*);
; 217  : #endif // ^^^ !defined(_DEBUG) ^^^
; 218  :     const uintptr_t _Back_shift = reinterpret_cast<uintptr_t>(_Ptr) - _Ptr_container;

  0001f	2b c2		 sub	 eax, edx

; 219  :     _STL_VERIFY(_Back_shift >= _Min_back_shift && _Back_shift <= _Non_user_size, "invalid argument");

  00021	83 c0 fc	 add	 eax, -4			; fffffffcH
  00024	83 f8 1f	 cmp	 eax, 31			; 0000001fH
  00027	77 22		 ja	 SHORT $LN18@vector

; 220  :     _Ptr = reinterpret_cast<void*>(_Ptr_container);

  00029	8b c2		 mov	 eax, edx
$LN19@vector:

; 289  :         ::operator delete(_Ptr, _Bytes);

  0002b	51		 push	 ecx
  0002c	50		 push	 eax
  0002d	e8 00 00 00 00	 call	 ??3@YAXPAXI@Z		; operator delete
; File C:\Program Files\Microsoft Visual Studio\2022\Community\VC\Tools\MSVC\14.44.35207\include\vector

; 2095 :             _Myfirst = nullptr;

  00032	c7 06 00 00 00
	00		 mov	 DWORD PTR [esi], 0
; File C:\Program Files\Microsoft Visual Studio\2022\Community\VC\Tools\MSVC\14.44.35207\include\xmemory

; 289  :         ::operator delete(_Ptr, _Bytes);

  00038	83 c4 08	 add	 esp, 8
; File C:\Program Files\Microsoft Visual Studio\2022\Community\VC\Tools\MSVC\14.44.35207\include\vector

; 2096 :             _Mylast  = nullptr;

  0003b	c7 46 04 00 00
	00 00		 mov	 DWORD PTR [esi+4], 0

; 2097 :             _Myend   = nullptr;

  00042	c7 46 08 00 00
	00 00		 mov	 DWORD PTR [esi+8], 0
$LN5@vector:
  00049	5e		 pop	 esi

; 835  :     }

  0004a	c3		 ret	 0
$LN18@vector:
; File C:\Program Files\Microsoft Visual Studio\2022\Community\VC\Tools\MSVC\14.44.35207\include\xmemory

; 219  :     _STL_VERIFY(_Back_shift >= _Min_back_shift && _Back_shift <= _Non_user_size, "invalid argument");

  0004b	6a 00		 push	 0
  0004d	6a 00		 push	 0
  0004f	6a 00		 push	 0
  00051	6a 00		 push	 0
  00053	6a 00		 push	 0
  00055	e8 00 00 00 00	 call	 __invoke_watson
$LN27@vector:
  0005a	cc		 int	 3
??1?$vector@PAVCInstanceBase@@V?$allocator@PAVCInstanceBase@@@std@@@std@@QAE@XZ ENDP ; std::vector<CInstanceBase *,std::allocator<CInstanceBase *> >::~vector<CInstanceBase *,std::allocator<CInstanceBase *> >
_TEXT	ENDS
; Function compile flags: /Ogtp
; File C:\Program Files\Microsoft Visual Studio\2022\Community\VC\Tools\MSVC\14.44.35207\include\vector
;	COMDAT ??0?$vector@PAVCInstanceBase@@V?$allocator@PAVCInstanceBase@@@std@@@std@@QAE@XZ
_TEXT	SEGMENT
??0?$vector@PAVCInstanceBase@@V?$allocator@PAVCInstanceBase@@@std@@@std@@QAE@XZ PROC ; std::vector<CInstanceBase *,std::allocator<CInstanceBase *> >::vector<CInstanceBase *,std::allocator<CInstanceBase *> >, COMDAT
; _this$ = ecx

; 400  :     _CONSTEXPR20 _Vector_val() noexcept : _Myfirst(), _Mylast(), _Myend() {}

  00000	c7 01 00 00 00
	00		 mov	 DWORD PTR [ecx], 0

; 671  :         _Mypair._Myval2._Alloc_proxy(_GET_PROXY_ALLOCATOR(_Alty, _Getal()));
; 672  :     }

  00006	8b c1		 mov	 eax, ecx

; 400  :     _CONSTEXPR20 _Vector_val() noexcept : _Myfirst(), _Mylast(), _Myend() {}

  00008	c7 41 04 00 00
	00 00		 mov	 DWORD PTR [ecx+4], 0
  0000f	c7 41 08 00 00
	00 00		 mov	 DWORD PTR [ecx+8], 0

; 671  :         _Mypair._Myval2._Alloc_proxy(_GET_PROXY_ALLOCATOR(_Alty, _Getal()));
; 672  :     }

  00016	c3		 ret	 0
??0?$vector@PAVCInstanceBase@@V?$allocator@PAVCInstanceBase@@@std@@@std@@QAE@XZ ENDP ; std::vector<CInstanceBase *,std::allocator<CInstanceBase *> >::vector<CInstanceBase *,std::allocator<CInstanceBase *> >
_TEXT	ENDS
; Function compile flags: /Ogtp
; File C:\Program Files\Microsoft Visual Studio\2022\Community\VC\Tools\MSVC\14.44.35207\include\xtree
;	COMDAT ?_Get_scary@?$_Tree@V?$_Tmap_traits@KKU?$less@K@std@@V?$allocator@U?$pair@$$CBKK@std@@@2@$0A@@std@@@std@@IAEPAV?$_Tree_val@U?$_Tree_simple_types@U?$pair@$$CBKK@std@@@std@@@2@XZ
_TEXT	SEGMENT
?_Get_scary@?$_Tree@V?$_Tmap_traits@KKU?$less@K@std@@V?$allocator@U?$pair@$$CBKK@std@@@2@$0A@@std@@@std@@IAEPAV?$_Tree_val@U?$_Tree_simple_types@U?$pair@$$CBKK@std@@@std@@@2@XZ PROC ; std::_Tree<std::_Tmap_traits<unsigned long,unsigned long,std::less<unsigned long>,std::allocator<std::pair<unsigned long const ,unsigned long> >,0> >::_Get_scary, COMDAT
; _this$ = ecx

; 1983 :         return _STD addressof(_Mypair._Myval2._Myval2);

  00000	8b c1		 mov	 eax, ecx

; 1984 :     }

  00002	c3		 ret	 0
?_Get_scary@?$_Tree@V?$_Tmap_traits@KKU?$less@K@std@@V?$allocator@U?$pair@$$CBKK@std@@@2@$0A@@std@@@std@@IAEPAV?$_Tree_val@U?$_Tree_simple_types@U?$pair@$$CBKK@std@@@std@@@2@XZ ENDP ; std::_Tree<std::_Tmap_traits<unsigned long,unsigned long,std::less<unsigned long>,std::allocator<std::pair<unsigned long const ,unsigned long> >,0> >::_Get_scary
_TEXT	ENDS
; Function compile flags: /Ogtp
; File C:\Program Files\Microsoft Visual Studio\2022\Community\VC\Tools\MSVC\14.44.35207\include\xtree
;	COMDAT ?_Getal@?$_Tree@V?$_Tmap_traits@KKU?$less@K@std@@V?$allocator@U?$pair@$$CBKK@std@@@2@$0A@@std@@@std@@IAEAAV?$allocator@U?$_Tree_node@U?$pair@$$CBKK@std@@PAX@std@@@2@XZ
_TEXT	SEGMENT
?_Getal@?$_Tree@V?$_Tmap_traits@KKU?$less@K@std@@V?$allocator@U?$pair@$$CBKK@std@@@2@$0A@@std@@@std@@IAEAAV?$allocator@U?$_Tree_node@U?$pair@$$CBKK@std@@PAX@std@@@2@XZ PROC ; std::_Tree<std::_Tmap_traits<unsigned long,unsigned long,std::less<unsigned long>,std::allocator<std::pair<unsigned long const ,unsigned long> >,0> >::_Getal, COMDAT
; _this$ = ecx

; 1975 :         return _Mypair._Myval2._Get_first();

  00000	8b c1		 mov	 eax, ecx

; 1976 :     }

  00002	c3		 ret	 0
?_Getal@?$_Tree@V?$_Tmap_traits@KKU?$less@K@std@@V?$allocator@U?$pair@$$CBKK@std@@@2@$0A@@std@@@std@@IAEAAV?$allocator@U?$_Tree_node@U?$pair@$$CBKK@std@@PAX@std@@@2@XZ ENDP ; std::_Tree<std::_Tmap_traits<unsigned long,unsigned long,std::less<unsigned long>,std::allocator<std::pair<unsigned long const ,unsigned long> >,0> >::_Getal
_TEXT	ENDS
; Function compile flags: /Ogtp
; File C:\Program Files\Microsoft Visual Studio\2022\Community\VC\Tools\MSVC\14.44.35207\include\xtree
; File C:\Program Files\Microsoft Visual Studio\2022\Community\VC\Tools\MSVC\14.44.35207\include\xmemory
; File C:\Program Files\Microsoft Visual Studio\2022\Community\VC\Tools\MSVC\14.44.35207\include\xtree
; File C:\Program Files\Microsoft Visual Studio\2022\Community\VC\Tools\MSVC\14.44.35207\include\xmemory
; File C:\Program Files\Microsoft Visual Studio\2022\Community\VC\Tools\MSVC\14.44.35207\include\xtree
;	COMDAT ??0?$_Tree@V?$_Tmap_traits@KKU?$less@K@std@@V?$allocator@U?$pair@$$CBKK@std@@@2@$0A@@std@@@std@@QAE@ABU?$less@K@1@@Z
_TEXT	SEGMENT
__Parg$dead$ = 8					; size = 4
??0?$_Tree@V?$_Tmap_traits@KKU?$less@K@std@@V?$allocator@U?$pair@$$CBKK@std@@@2@$0A@@std@@@std@@QAE@ABU?$less@K@1@@Z PROC ; std::_Tree<std::_Tmap_traits<unsigned long,unsigned long,std::less<unsigned long>,std::allocator<std::pair<unsigned long const ,unsigned long> >,0> >::_Tree<std::_Tmap_traits<unsigned long,unsigned long,std::less<unsigned long>,std::allocator<std::pair<unsigned long const ,unsigned long> >,0> >, COMDAT
; _this$ = ecx

; 904  :     _Tree(const key_compare& _Parg) : _Mypair(_One_then_variadic_args_t{}, _Parg, _Zero_then_variadic_args_t{}) {

  00000	56		 push	 esi
  00001	8b f1		 mov	 esi, ecx
; File C:\Program Files\Microsoft Visual Studio\2022\Community\VC\Tools\MSVC\14.44.35207\include\xmemory

; 136  :         return ::operator new(_Bytes);

  00003	6a 18		 push	 24			; 00000018H
; File C:\Program Files\Microsoft Visual Studio\2022\Community\VC\Tools\MSVC\14.44.35207\include\xtree

; 450  :     _Tree_val() noexcept : _Myhead(), _Mysize(0) {}

  00005	c7 06 00 00 00
	00		 mov	 DWORD PTR [esi], 0
  0000b	c7 46 04 00 00
	00 00		 mov	 DWORD PTR [esi+4], 0
; File C:\Program Files\Microsoft Visual Studio\2022\Community\VC\Tools\MSVC\14.44.35207\include\xmemory

; 136  :         return ::operator new(_Bytes);

  00012	e8 00 00 00 00	 call	 ??2@YAPAXI@Z		; operator new
  00017	83 c4 04	 add	 esp, 4
; File C:\Program Files\Microsoft Visual Studio\2022\Community\VC\Tools\MSVC\14.44.35207\include\xtree

; 346  :         _Construct_in_place(_Pnode->_Left, _Pnode);

  0001a	89 00		 mov	 DWORD PTR [eax], eax

; 347  :         _Construct_in_place(_Pnode->_Parent, _Pnode);

  0001c	89 40 04	 mov	 DWORD PTR [eax+4], eax

; 348  :         _Construct_in_place(_Pnode->_Right, _Pnode);

  0001f	89 40 08	 mov	 DWORD PTR [eax+8], eax

; 349  :         _Pnode->_Color = _Black;

  00022	66 c7 40 0c 01
	01		 mov	 WORD PTR [eax+12], 257	; 00000101H

; 1957 :         _Scary->_Myhead = _Node::_Buyheadnode(_Getal());

  00028	89 06		 mov	 DWORD PTR [esi], eax

; 905  :         _Alloc_sentinel_and_proxy();
; 906  :     }

  0002a	8b c6		 mov	 eax, esi
  0002c	5e		 pop	 esi
  0002d	c2 04 00	 ret	 4
??0?$_Tree@V?$_Tmap_traits@KKU?$less@K@std@@V?$allocator@U?$pair@$$CBKK@std@@@2@$0A@@std@@@std@@QAE@ABU?$less@K@1@@Z ENDP ; std::_Tree<std::_Tmap_traits<unsigned long,unsigned long,std::less<unsigned long>,std::allocator<std::pair<unsigned long const ,unsigned long> >,0> >::_Tree<std::_Tmap_traits<unsigned long,unsigned long,std::less<unsigned long>,std::allocator<std::pair<unsigned long const ,unsigned long> >,0> >
_TEXT	ENDS
; Function compile flags: /Ogtp
; File C:\Program Files\Microsoft Visual Studio\2022\Community\VC\Tools\MSVC\14.44.35207\include\list
; File C:\Program Files\Microsoft Visual Studio\2022\Community\VC\Tools\MSVC\14.44.35207\include\xmemory
; File C:\Program Files\Microsoft Visual Studio\2022\Community\VC\Tools\MSVC\14.44.35207\include\list
;	COMDAT ??$_Freenode@V?$allocator@U?$_List_node@USCommand@CInstanceBase@@PAX@std@@@std@@@?$_List_node@USCommand@CInstanceBase@@PAX@std@@SAXAAV?$allocator@U?$_List_node@USCommand@CInstanceBase@@PAX@std@@@1@PAU01@@Z
_TEXT	SEGMENT
??$_Freenode@V?$allocator@U?$_List_node@USCommand@CInstanceBase@@PAX@std@@@std@@@?$_List_node@USCommand@CInstanceBase@@PAX@std@@SAXAAV?$allocator@U?$_List_node@USCommand@CInstanceBase@@PAX@std@@@1@PAU01@@Z PROC ; std::_List_node<CInstanceBase::SCommand,void *>::_Freenode<std::allocator<std::_List_node<CInstanceBase::SCommand,void *> > >, COMDAT
; __Al$dead$ = ecx
; __Ptr$ = edx
; File C:\Program Files\Microsoft Visual Studio\2022\Community\VC\Tools\MSVC\14.44.35207\include\xmemory

; 289  :         ::operator delete(_Ptr, _Bytes);

  00000	6a 2c		 push	 44			; 0000002cH
  00002	52		 push	 edx
  00003	e8 00 00 00 00	 call	 ??3@YAXPAXI@Z		; operator delete
  00008	83 c4 08	 add	 esp, 8
; File C:\Program Files\Microsoft Visual Studio\2022\Community\VC\Tools\MSVC\14.44.35207\include\list

; 319  :     }

  0000b	c3		 ret	 0
??$_Freenode@V?$allocator@U?$_List_node@USCommand@CInstanceBase@@PAX@std@@@std@@@?$_List_node@USCommand@CInstanceBase@@PAX@std@@SAXAAV?$allocator@U?$_List_node@USCommand@CInstanceBase@@PAX@std@@@1@PAU01@@Z ENDP ; std::_List_node<CInstanceBase::SCommand,void *>::_Freenode<std::allocator<std::_List_node<CInstanceBase::SCommand,void *> > >
_TEXT	ENDS
; Function compile flags: /Ogtp
; File C:\Program Files\Microsoft Visual Studio\2022\Community\VC\Tools\MSVC\14.44.35207\include\type_traits
;	COMDAT ??$forward@ABUSCommand@CInstanceBase@@@std@@YAABUSCommand@CInstanceBase@@ABU12@@Z
_TEXT	SEGMENT
??$forward@ABUSCommand@CInstanceBase@@@std@@YAABUSCommand@CInstanceBase@@ABU12@@Z PROC ; std::forward<CInstanceBase::SCommand const &>, COMDAT
; __Arg$ = ecx

; 1502 :     return static_cast<_Ty&&>(_Arg);

  00000	8b c1		 mov	 eax, ecx

; 1503 : }

  00002	c3		 ret	 0
??$forward@ABUSCommand@CInstanceBase@@@std@@YAABUSCommand@CInstanceBase@@ABU12@@Z ENDP ; std::forward<CInstanceBase::SCommand const &>
_TEXT	ENDS
; Function compile flags: /Ogtp
; File C:\Program Files\Microsoft Visual Studio\2022\Community\VC\Tools\MSVC\14.44.35207\include\list
; File C:\Program Files\Microsoft Visual Studio\2022\Community\VC\Tools\MSVC\14.44.35207\include\xmemory
; File C:\Program Files\Microsoft Visual Studio\2022\Community\VC\Tools\MSVC\14.44.35207\include\list
; File C:\Program Files\Microsoft Visual Studio\2022\Community\VC\Tools\MSVC\14.44.35207\include\xmemory
; File C:\Program Files\Microsoft Visual Studio\2022\Community\VC\Tools\MSVC\14.44.35207\include\xutility
; File C:\Program Files\Microsoft Visual Studio\2022\Community\VC\Tools\MSVC\14.44.35207\include\xmemory
; File C:\Program Files\Microsoft Visual Studio\2022\Community\VC\Tools\MSVC\14.44.35207\include\xutility
; File C:\Program Files\Microsoft Visual Studio\2022\Community\VC\Tools\MSVC\14.44.35207\include\list
;	COMDAT ??$?0ABUSCommand@CInstanceBase@@@?$_List_node_emplace_op2@V?$allocator@U?$_List_node@USCommand@CInstanceBase@@PAX@std@@@std@@@std@@QAE@AAV?$allocator@U?$_List_node@USCommand@CInstanceBase@@PAX@std@@@1@ABUSCommand@CInstanceBase@@@Z
_TEXT	SEGMENT
_this$ = -16						; size = 4
__$EHRec$ = -12						; size = 12
__Al_$ = 8						; size = 4
_<_Vals_0>$ = 12					; size = 4
??$?0ABUSCommand@CInstanceBase@@@?$_List_node_emplace_op2@V?$allocator@U?$_List_node@USCommand@CInstanceBase@@PAX@std@@@std@@@std@@QAE@AAV?$allocator@U?$_List_node@USCommand@CInstanceBase@@PAX@std@@@1@ABUSCommand@CInstanceBase@@@Z PROC ; std::_List_node_emplace_op2<std::allocator<std::_List_node<CInstanceBase::SCommand,void *> > >::_List_node_emplace_op2<std::allocator<std::_List_node<CInstanceBase::SCommand,void *> > ><CInstanceBase::SCommand const &>, COMDAT
; _this$ = ecx

; 593  :     explicit _List_node_emplace_op2(_Alnode& _Al_, _Valtys&&... _Vals) : _Alloc_construct_ptr<_Alnode>(_Al_) {

  00000	55		 push	 ebp
  00001	8b ec		 mov	 ebp, esp
  00003	6a ff		 push	 -1
  00005	68 00 00 00 00	 push	 __ehhandler$??$?0ABUSCommand@CInstanceBase@@@?$_List_node_emplace_op2@V?$allocator@U?$_List_node@USCommand@CInstanceBase@@PAX@std@@@std@@@std@@QAE@AAV?$allocator@U?$_List_node@USCommand@CInstanceBase@@PAX@std@@@1@ABUSCommand@CInstanceBase@@@Z
  0000a	64 a1 00 00 00
	00		 mov	 eax, DWORD PTR fs:0
  00010	50		 push	 eax
  00011	51		 push	 ecx
  00012	56		 push	 esi
  00013	a1 00 00 00 00	 mov	 eax, DWORD PTR ___security_cookie
  00018	33 c5		 xor	 eax, ebp
  0001a	50		 push	 eax
  0001b	8d 45 f4	 lea	 eax, DWORD PTR __$EHRec$[ebp]
  0001e	64 a3 00 00 00
	00		 mov	 DWORD PTR fs:0, eax
  00024	8b f1		 mov	 esi, ecx
  00026	89 75 f0	 mov	 DWORD PTR _this$[ebp], esi
; File C:\Program Files\Microsoft Visual Studio\2022\Community\VC\Tools\MSVC\14.44.35207\include\xmemory

; 1160 :     _CONSTEXPR20 explicit _Alloc_construct_ptr(_Alloc& _Al_) : _Al(_Al_), _Ptr(nullptr) {}

  00029	8b 45 08	 mov	 eax, DWORD PTR __Al_$[ebp]
  0002c	89 06		 mov	 DWORD PTR [esi], eax
; File C:\Program Files\Microsoft Visual Studio\2022\Community\VC\Tools\MSVC\14.44.35207\include\list

; 593  :     explicit _List_node_emplace_op2(_Alnode& _Al_, _Valtys&&... _Vals) : _Alloc_construct_ptr<_Alnode>(_Al_) {

  0002e	c7 45 fc 00 00
	00 00		 mov	 DWORD PTR __$EHRec$[ebp+8], 0
; File C:\Program Files\Microsoft Visual Studio\2022\Community\VC\Tools\MSVC\14.44.35207\include\xmemory

; 1168 :         _Ptr = _Al.allocate(1);

  00035	6a 2c		 push	 44			; 0000002cH
  00037	c7 46 04 00 00
	00 00		 mov	 DWORD PTR [esi+4], 0
  0003e	e8 00 00 00 00	 call	 ??2@YAPAXI@Z		; operator new
; File C:\Program Files\Microsoft Visual Studio\2022\Community\VC\Tools\MSVC\14.44.35207\include\xutility

; 463  :     _MSVC_CONSTEXPR return ::new (static_cast<void*>(_Location)) _Ty(_STD forward<_Types>(_Args)...);

  00043	8b 4d 0c	 mov	 ecx, DWORD PTR _<_Vals_0>$[ebp]
; File C:\Program Files\Microsoft Visual Studio\2022\Community\VC\Tools\MSVC\14.44.35207\include\xmemory

; 1168 :         _Ptr = _Al.allocate(1);

  00046	83 c4 04	 add	 esp, 4
  00049	89 46 04	 mov	 DWORD PTR [esi+4], eax
; File C:\Program Files\Microsoft Visual Studio\2022\Community\VC\Tools\MSVC\14.44.35207\include\xutility

; 463  :     _MSVC_CONSTEXPR return ::new (static_cast<void*>(_Location)) _Ty(_STD forward<_Types>(_Args)...);

  0004c	0f 10 01	 movups	 xmm0, XMMWORD PTR [ecx]
  0004f	0f 11 40 08	 movups	 XMMWORD PTR [eax+8], xmm0
  00053	0f 10 41 10	 movups	 xmm0, XMMWORD PTR [ecx+16]
  00057	0f 11 40 18	 movups	 XMMWORD PTR [eax+24], xmm0
  0005b	8b 49 20	 mov	 ecx, DWORD PTR [ecx+32]
  0005e	89 48 28	 mov	 DWORD PTR [eax+40], ecx
; File C:\Program Files\Microsoft Visual Studio\2022\Community\VC\Tools\MSVC\14.44.35207\include\list

; 596  :     }

  00061	8b c6		 mov	 eax, esi
  00063	8b 4d f4	 mov	 ecx, DWORD PTR __$EHRec$[ebp]
  00066	64 89 0d 00 00
	00 00		 mov	 DWORD PTR fs:0, ecx
  0006d	59		 pop	 ecx
  0006e	5e		 pop	 esi
  0006f	8b e5		 mov	 esp, ebp
  00071	5d		 pop	 ebp
  00072	c2 08 00	 ret	 8
_TEXT	ENDS
;	COMDAT text$x
text$x	SEGMENT
__unwindfunclet$??$?0ABUSCommand@CInstanceBase@@@?$_List_node_emplace_op2@V?$allocator@U?$_List_node@USCommand@CInstanceBase@@PAX@std@@@std@@@std@@QAE@AAV?$allocator@U?$_List_node@USCommand@CInstanceBase@@PAX@std@@@1@ABUSCommand@CInstanceBase@@@Z$0:
  00000	8b 4d f0	 mov	 ecx, DWORD PTR _this$[ebp]
  00003	e9 00 00 00 00	 jmp	 ??1?$_Alloc_construct_ptr@V?$allocator@U?$_List_node@USCommand@CInstanceBase@@PAX@std@@@std@@@std@@QAE@XZ ; std::_Alloc_construct_ptr<std::allocator<std::_List_node<CInstanceBase::SCommand,void *> > >::~_Alloc_construct_ptr<std::allocator<std::_List_node<CInstanceBase::SCommand,void *> > >
  00008	cc		 int	 3
  00009	cc		 int	 3
  0000a	cc		 int	 3
  0000b	cc		 int	 3
  0000c	cc		 int	 3
__ehhandler$??$?0ABUSCommand@CInstanceBase@@@?$_List_node_emplace_op2@V?$allocator@U?$_List_node@USCommand@CInstanceBase@@PAX@std@@@std@@@std@@QAE@AAV?$allocator@U?$_List_node@USCommand@CInstanceBase@@PAX@std@@@1@ABUSCommand@CInstanceBase@@@Z:
  0000d	90		 npad	 1
  0000e	90		 npad	 1
  0000f	8b 54 24 08	 mov	 edx, DWORD PTR [esp+8]
  00013	8d 42 0c	 lea	 eax, DWORD PTR [edx+12]
  00016	8b 4a f4	 mov	 ecx, DWORD PTR [edx-12]
  00019	33 c8		 xor	 ecx, eax
  0001b	e8 00 00 00 00	 call	 @__security_check_cookie@4
  00020	b8 00 00 00 00	 mov	 eax, OFFSET __ehfuncinfo$??$?0ABUSCommand@CInstanceBase@@@?$_List_node_emplace_op2@V?$allocator@U?$_List_node@USCommand@CInstanceBase@@PAX@std@@@std@@@std@@QAE@AAV?$allocator@U?$_List_node@USCommand@CInstanceBase@@PAX@std@@@1@ABUSCommand@CInstanceBase@@@Z
  00025	e9 00 00 00 00	 jmp	 ___CxxFrameHandler3
text$x	ENDS
??$?0ABUSCommand@CInstanceBase@@@?$_List_node_emplace_op2@V?$allocator@U?$_List_node@USCommand@CInstanceBase@@PAX@std@@@std@@@std@@QAE@AAV?$allocator@U?$_List_node@USCommand@CInstanceBase@@PAX@std@@@1@ABUSCommand@CInstanceBase@@@Z ENDP ; std::_List_node_emplace_op2<std::allocator<std::_List_node<CInstanceBase::SCommand,void *> > >::_List_node_emplace_op2<std::allocator<std::_List_node<CInstanceBase::SCommand,void *> > ><CInstanceBase::SCommand const &>
; Function compile flags: /Ogtp
; File C:\Program Files\Microsoft Visual Studio\2022\Community\VC\Tools\MSVC\14.44.35207\include\xtree
; File C:\Program Files\Microsoft Visual Studio\2022\Community\VC\Tools\MSVC\14.44.35207\include\utility
; File C:\Program Files\Microsoft Visual Studio\2022\Community\VC\Tools\MSVC\14.44.35207\include\xmemory
; File C:\Program Files\Microsoft Visual Studio\2022\Community\VC\Tools\MSVC\14.44.35207\include\xtree
;	COMDAT ??$_Erase_tree@V?$allocator@U?$_Tree_node@U?$pair@$$CBKK@std@@PAX@std@@@std@@@?$_Tree_val@U?$_Tree_simple_types@U?$pair@$$CBKK@std@@@std@@@std@@QAEXAAV?$allocator@U?$_Tree_node@U?$pair@$$CBKK@std@@PAX@std@@@1@PAU?$_Tree_node@U?$pair@$$CBKK@std@@PAX@1@@Z
_TEXT	SEGMENT
__Al$ = 8						; size = 4
__Rootnode$ = 12					; size = 4
??$_Erase_tree@V?$allocator@U?$_Tree_node@U?$pair@$$CBKK@std@@PAX@std@@@std@@@?$_Tree_val@U?$_Tree_simple_types@U?$pair@$$CBKK@std@@@std@@@std@@QAEXAAV?$allocator@U?$_Tree_node@U?$pair@$$CBKK@std@@PAX@std@@@1@PAU?$_Tree_node@U?$pair@$$CBKK@std@@PAX@1@@Z PROC ; std::_Tree_val<std::_Tree_simple_types<std::pair<unsigned long const ,unsigned long> > >::_Erase_tree<std::allocator<std::_Tree_node<std::pair<unsigned long const ,unsigned long>,void *> > >, COMDAT
; _this$ = ecx

; 767  :     void _Erase_tree(_Alnode& _Al, _Nodeptr _Rootnode) noexcept {

  00000	55		 push	 ebp
  00001	8b ec		 mov	 ebp, esp
  00003	53		 push	 ebx
  00004	56		 push	 esi

; 768  :         while (!_Rootnode->_Isnil) { // free subtrees, then node

  00005	8b 75 0c	 mov	 esi, DWORD PTR __Rootnode$[ebp]
  00008	8b d9		 mov	 ebx, ecx
  0000a	80 7e 0d 00	 cmp	 BYTE PTR [esi+13], 0
  0000e	75 25		 jne	 SHORT $LN51@Erase_tree
  00010	57		 push	 edi
  00011	8b 7d 08	 mov	 edi, DWORD PTR __Al$[ebp]
$LL2@Erase_tree:

; 769  :             _Erase_tree(_Al, _Rootnode->_Right);

  00014	ff 76 08	 push	 DWORD PTR [esi+8]
  00017	8b cb		 mov	 ecx, ebx
  00019	57		 push	 edi
  0001a	e8 00 00 00 00	 call	 ??$_Erase_tree@V?$allocator@U?$_Tree_node@U?$pair@$$CBKK@std@@PAX@std@@@std@@@?$_Tree_val@U?$_Tree_simple_types@U?$pair@$$CBKK@std@@@std@@@std@@QAEXAAV?$allocator@U?$_Tree_node@U?$pair@$$CBKK@std@@PAX@std@@@1@PAU?$_Tree_node@U?$pair@$$CBKK@std@@PAX@1@@Z ; std::_Tree_val<std::_Tree_simple_types<std::pair<unsigned long const ,unsigned long> > >::_Erase_tree<std::allocator<std::_Tree_node<std::pair<unsigned long const ,unsigned long>,void *> > >
; File C:\Program Files\Microsoft Visual Studio\2022\Community\VC\Tools\MSVC\14.44.35207\include\utility

; 773  :     _Ty _Old_val = static_cast<_Ty&&>(_Val);

  0001f	8b c6		 mov	 eax, esi

; 774  :     _Val         = static_cast<_Other&&>(_New_val);

  00021	8b 36		 mov	 esi, DWORD PTR [esi]
; File C:\Program Files\Microsoft Visual Studio\2022\Community\VC\Tools\MSVC\14.44.35207\include\xmemory

; 289  :         ::operator delete(_Ptr, _Bytes);

  00023	6a 18		 push	 24			; 00000018H
  00025	50		 push	 eax
  00026	e8 00 00 00 00	 call	 ??3@YAXPAXI@Z		; operator delete
  0002b	83 c4 08	 add	 esp, 8
; File C:\Program Files\Microsoft Visual Studio\2022\Community\VC\Tools\MSVC\14.44.35207\include\xtree

; 768  :         while (!_Rootnode->_Isnil) { // free subtrees, then node

  0002e	80 7e 0d 00	 cmp	 BYTE PTR [esi+13], 0
  00032	74 e0		 je	 SHORT $LL2@Erase_tree
  00034	5f		 pop	 edi
$LN51@Erase_tree:
  00035	5e		 pop	 esi

; 770  :             _Alnode::value_type::_Freenode(_Al, _STD exchange(_Rootnode, _Rootnode->_Left));
; 771  :         }
; 772  :     }

  00036	5b		 pop	 ebx
  00037	5d		 pop	 ebp
  00038	c2 08 00	 ret	 8
??$_Erase_tree@V?$allocator@U?$_Tree_node@U?$pair@$$CBKK@std@@PAX@std@@@std@@@?$_Tree_val@U?$_Tree_simple_types@U?$pair@$$CBKK@std@@@std@@@std@@QAEXAAV?$allocator@U?$_Tree_node@U?$pair@$$CBKK@std@@PAX@std@@@1@PAU?$_Tree_node@U?$pair@$$CBKK@std@@PAX@1@@Z ENDP ; std::_Tree_val<std::_Tree_simple_types<std::pair<unsigned long const ,unsigned long> > >::_Erase_tree<std::allocator<std::_Tree_node<std::pair<unsigned long const ,unsigned long>,void *> > >
_TEXT	ENDS
; Function compile flags: /Ogtp
; File C:\Program Files\Microsoft Visual Studio\2022\Community\VC\Tools\MSVC\14.44.35207\include\xtree
; File C:\Program Files\Microsoft Visual Studio\2022\Community\VC\Tools\MSVC\14.44.35207\include\xmemory
; File C:\Program Files\Microsoft Visual Studio\2022\Community\VC\Tools\MSVC\14.44.35207\include\xtree
;	COMDAT ??$_Freenode0@V?$allocator@U?$_Tree_node@U?$pair@$$CBKK@std@@PAX@std@@@std@@@?$_Tree_node@U?$pair@$$CBKK@std@@PAX@std@@SAXAAV?$allocator@U?$_Tree_node@U?$pair@$$CBKK@std@@PAX@std@@@1@PAU01@@Z
_TEXT	SEGMENT
??$_Freenode0@V?$allocator@U?$_Tree_node@U?$pair@$$CBKK@std@@PAX@std@@@std@@@?$_Tree_node@U?$pair@$$CBKK@std@@PAX@std@@SAXAAV?$allocator@U?$_Tree_node@U?$pair@$$CBKK@std@@PAX@std@@@1@PAU01@@Z PROC ; std::_Tree_node<std::pair<unsigned long const ,unsigned long>,void *>::_Freenode0<std::allocator<std::_Tree_node<std::pair<unsigned long const ,unsigned long>,void *> > >, COMDAT
; __Al$dead$ = ecx
; __Ptr$ = edx
; File C:\Program Files\Microsoft Visual Studio\2022\Community\VC\Tools\MSVC\14.44.35207\include\xmemory

; 289  :         ::operator delete(_Ptr, _Bytes);

  00000	6a 18		 push	 24			; 00000018H
  00002	52		 push	 edx
  00003	e8 00 00 00 00	 call	 ??3@YAXPAXI@Z		; operator delete
  00008	83 c4 08	 add	 esp, 8
; File C:\Program Files\Microsoft Visual Studio\2022\Community\VC\Tools\MSVC\14.44.35207\include\xtree

; 376  :     }

  0000b	c3		 ret	 0
??$_Freenode0@V?$allocator@U?$_Tree_node@U?$pair@$$CBKK@std@@PAX@std@@@std@@@?$_Tree_node@U?$pair@$$CBKK@std@@PAX@std@@SAXAAV?$allocator@U?$_Tree_node@U?$pair@$$CBKK@std@@PAX@std@@@1@PAU01@@Z ENDP ; std::_Tree_node<std::pair<unsigned long const ,unsigned long>,void *>::_Freenode0<std::allocator<std::_Tree_node<std::pair<unsigned long const ,unsigned long>,void *> > >
_TEXT	ENDS
; Function compile flags: /Ogtp
; File C:\Program Files\Microsoft Visual Studio\2022\Community\VC\Tools\MSVC\14.44.35207\include\__msvc_string_view.hpp
;	COMDAT ??$_Find_first_of_pos_vectorized@DD@std@@YAIQBDI0I@Z
_TEXT	SEGMENT
__Haystack$ = 8						; size = 4
__Haystack_length$ = 12					; size = 4
__Needle$ = 16						; size = 4
__Needle_length$ = 20					; size = 4
??$_Find_first_of_pos_vectorized@DD@std@@YAIQBDI0I@Z PROC ; std::_Find_first_of_pos_vectorized<char,char>, COMDAT

; 52   :     const _Ty2* const _Needle, const size_t _Needle_length) noexcept {

  00000	55		 push	 ebp
  00001	8b ec		 mov	 ebp, esp

; 53   :     _STL_INTERNAL_STATIC_ASSERT(sizeof(_Ty1) == sizeof(_Ty2));
; 54   :     if constexpr (sizeof(_Ty1) == 1) {
; 55   :         return ::__std_find_first_of_trivial_pos_1(_Haystack, _Haystack_length, _Needle, _Needle_length);

  00003	ff 75 14	 push	 DWORD PTR __Needle_length$[ebp]
  00006	ff 75 10	 push	 DWORD PTR __Needle$[ebp]
  00009	ff 75 0c	 push	 DWORD PTR __Haystack_length$[ebp]
  0000c	ff 75 08	 push	 DWORD PTR __Haystack$[ebp]
  0000f	e8 00 00 00 00	 call	 ___std_find_first_of_trivial_pos_1@16

; 56   :     } else if constexpr (sizeof(_Ty1) == 2) {
; 57   :         return ::__std_find_first_of_trivial_pos_2(_Haystack, _Haystack_length, _Needle, _Needle_length);
; 58   :     } else if constexpr (sizeof(_Ty1) == 4) {
; 59   :         return ::__std_find_first_of_trivial_pos_4(_Haystack, _Haystack_length, _Needle, _Needle_length);
; 60   :     } else if constexpr (sizeof(_Ty1) == 8) {
; 61   :         return ::__std_find_first_of_trivial_pos_8(_Haystack, _Haystack_length, _Needle, _Needle_length);
; 62   :     } else {
; 63   :         _STL_INTERNAL_STATIC_ASSERT(false); // unexpected size
; 64   :     }
; 65   : }

  00014	5d		 pop	 ebp
  00015	c3		 ret	 0
??$_Find_first_of_pos_vectorized@DD@std@@YAIQBDI0I@Z ENDP ; std::_Find_first_of_pos_vectorized<char,char>
_TEXT	ENDS
; Function compile flags: /Ogtp
; File C:\Program Files\Microsoft Visual Studio\2022\Community\VC\Tools\MSVC\14.44.35207\include\xutility
;	COMDAT ??$_Construct_in_place@PAU?$_List_node@USEffectDamage@CInstanceBase@@PAX@std@@AAPAU12@@std@@YAXAAPAU?$_List_node@USEffectDamage@CInstanceBase@@PAX@0@0@Z
_TEXT	SEGMENT
??$_Construct_in_place@PAU?$_List_node@USEffectDamage@CInstanceBase@@PAX@std@@AAPAU12@@std@@YAXAAPAU?$_List_node@USEffectDamage@CInstanceBase@@PAX@0@0@Z PROC ; std::_Construct_in_place<std::_List_node<CInstanceBase::SEffectDamage,void *> *,std::_List_node<CInstanceBase::SEffectDamage,void *> * &>, COMDAT
; __Obj$ = ecx
; _<_Args_0>$ = edx

; 470  : #if _HAS_CXX20
; 471  :     if (_STD is_constant_evaluated()) {
; 472  :         _STD construct_at(_STD addressof(_Obj), _STD forward<_Types>(_Args)...);
; 473  :     } else
; 474  : #endif // _HAS_CXX20
; 475  :     {
; 476  :         ::new (static_cast<void*>(_STD addressof(_Obj))) _Ty(_STD forward<_Types>(_Args)...);
; 477  :     }
; 478  : }

  00000	8b 02		 mov	 eax, DWORD PTR [edx]
  00002	89 01		 mov	 DWORD PTR [ecx], eax
  00004	c3		 ret	 0
??$_Construct_in_place@PAU?$_List_node@USEffectDamage@CInstanceBase@@PAX@std@@AAPAU12@@std@@YAXAAPAU?$_List_node@USEffectDamage@CInstanceBase@@PAX@0@0@Z ENDP ; std::_Construct_in_place<std::_List_node<CInstanceBase::SEffectDamage,void *> *,std::_List_node<CInstanceBase::SEffectDamage,void *> * &>
_TEXT	ENDS
; Function compile flags: /Ogtp
; File C:\Program Files\Microsoft Visual Studio\2022\Community\VC\Tools\MSVC\14.44.35207\include\list
; File C:\Program Files\Microsoft Visual Studio\2022\Community\VC\Tools\MSVC\14.44.35207\include\xmemory
; File C:\Program Files\Microsoft Visual Studio\2022\Community\VC\Tools\MSVC\14.44.35207\include\list
;	COMDAT ??$_Free_non_head@V?$allocator@U?$_List_node@USEffectDamage@CInstanceBase@@PAX@std@@@std@@@?$_List_node@USEffectDamage@CInstanceBase@@PAX@std@@SAXAAV?$allocator@U?$_List_node@USEffectDamage@CInstanceBase@@PAX@std@@@1@PAU01@@Z
_TEXT	SEGMENT
??$_Free_non_head@V?$allocator@U?$_List_node@USEffectDamage@CInstanceBase@@PAX@std@@@std@@@?$_List_node@USEffectDamage@CInstanceBase@@PAX@std@@SAXAAV?$allocator@U?$_List_node@USEffectDamage@CInstanceBase@@PAX@std@@@1@PAU01@@Z PROC ; std::_List_node<CInstanceBase::SEffectDamage,void *>::_Free_non_head<std::allocator<std::_List_node<CInstanceBase::SEffectDamage,void *> > >, COMDAT
; __Al$dead$ = ecx
; __Head$ = edx

; 324  :         _Head->_Prev->_Next = nullptr;

  00000	8b 42 04	 mov	 eax, DWORD PTR [edx+4]
  00003	c7 00 00 00 00
	00		 mov	 DWORD PTR [eax], 0

; 325  : 
; 326  :         auto _Pnode = _Head->_Next;

  00009	8b 02		 mov	 eax, DWORD PTR [edx]

; 327  :         for (_Nodeptr _Pnext; _Pnode; _Pnode = _Pnext) {

  0000b	85 c0		 test	 eax, eax
  0000d	74 15		 je	 SHORT $LN50@Free_non_h
  0000f	56		 push	 esi
$LL4@Free_non_h:

; 328  :             _Pnext = _Pnode->_Next;

  00010	8b 30		 mov	 esi, DWORD PTR [eax]
; File C:\Program Files\Microsoft Visual Studio\2022\Community\VC\Tools\MSVC\14.44.35207\include\xmemory

; 289  :         ::operator delete(_Ptr, _Bytes);

  00012	6a 18		 push	 24			; 00000018H
  00014	50		 push	 eax
  00015	e8 00 00 00 00	 call	 ??3@YAXPAXI@Z		; operator delete
  0001a	83 c4 08	 add	 esp, 8
; File C:\Program Files\Microsoft Visual Studio\2022\Community\VC\Tools\MSVC\14.44.35207\include\list

; 327  :         for (_Nodeptr _Pnext; _Pnode; _Pnode = _Pnext) {

  0001d	8b c6		 mov	 eax, esi
  0001f	85 f6		 test	 esi, esi
  00021	75 ed		 jne	 SHORT $LL4@Free_non_h
  00023	5e		 pop	 esi
$LN50@Free_non_h:

; 329  :             _Freenode(_Al, _Pnode);
; 330  :         }
; 331  :     }

  00024	c3		 ret	 0
??$_Free_non_head@V?$allocator@U?$_List_node@USEffectDamage@CInstanceBase@@PAX@std@@@std@@@?$_List_node@USEffectDamage@CInstanceBase@@PAX@std@@SAXAAV?$allocator@U?$_List_node@USEffectDamage@CInstanceBase@@PAX@std@@@1@PAU01@@Z ENDP ; std::_List_node<CInstanceBase::SEffectDamage,void *>::_Free_non_head<std::allocator<std::_List_node<CInstanceBase::SEffectDamage,void *> > >
_TEXT	ENDS
; Function compile flags: /Ogtp
; File C:\Program Files\Microsoft Visual Studio\2022\Community\VC\Tools\MSVC\14.44.35207\include\list
; File C:\Program Files\Microsoft Visual Studio\2022\Community\VC\Tools\MSVC\14.44.35207\include\xmemory
; File C:\Program Files\Microsoft Visual Studio\2022\Community\VC\Tools\MSVC\14.44.35207\include\list
;	COMDAT ??$_Freenode0@V?$allocator@U?$_List_node@USEffectDamage@CInstanceBase@@PAX@std@@@std@@@?$_List_node@USEffectDamage@CInstanceBase@@PAX@std@@SAXAAV?$allocator@U?$_List_node@USEffectDamage@CInstanceBase@@PAX@std@@@1@PAU01@@Z
_TEXT	SEGMENT
??$_Freenode0@V?$allocator@U?$_List_node@USEffectDamage@CInstanceBase@@PAX@std@@@std@@@?$_List_node@USEffectDamage@CInstanceBase@@PAX@std@@SAXAAV?$allocator@U?$_List_node@USEffectDamage@CInstanceBase@@PAX@std@@@1@PAU01@@Z PROC ; std::_List_node<CInstanceBase::SEffectDamage,void *>::_Freenode0<std::allocator<std::_List_node<CInstanceBase::SEffectDamage,void *> > >, COMDAT
; __Al$dead$ = ecx
; __Ptr$ = edx
; File C:\Program Files\Microsoft Visual Studio\2022\Community\VC\Tools\MSVC\14.44.35207\include\xmemory

; 289  :         ::operator delete(_Ptr, _Bytes);

  00000	6a 18		 push	 24			; 00000018H
  00002	52		 push	 edx
  00003	e8 00 00 00 00	 call	 ??3@YAXPAXI@Z		; operator delete
  00008	83 c4 08	 add	 esp, 8
; File C:\Program Files\Microsoft Visual Studio\2022\Community\VC\Tools\MSVC\14.44.35207\include\list

; 313  :     }

  0000b	c3		 ret	 0
??$_Freenode0@V?$allocator@U?$_List_node@USEffectDamage@CInstanceBase@@PAX@std@@@std@@@?$_List_node@USEffectDamage@CInstanceBase@@PAX@std@@SAXAAV?$allocator@U?$_List_node@USEffectDamage@CInstanceBase@@PAX@std@@@1@PAU01@@Z ENDP ; std::_List_node<CInstanceBase::SEffectDamage,void *>::_Freenode0<std::allocator<std::_List_node<CInstanceBase::SEffectDamage,void *> > >
_TEXT	ENDS
; Function compile flags: /Ogtp
; File C:\Program Files\Microsoft Visual Studio\2022\Community\VC\Tools\MSVC\14.44.35207\include\xutility
;	COMDAT ??$_Construct_in_place@PAU?$_List_node@USCommand@CInstanceBase@@PAX@std@@AAPAU12@@std@@YAXAAPAU?$_List_node@USCommand@CInstanceBase@@PAX@0@0@Z
_TEXT	SEGMENT
??$_Construct_in_place@PAU?$_List_node@USCommand@CInstanceBase@@PAX@std@@AAPAU12@@std@@YAXAAPAU?$_List_node@USCommand@CInstanceBase@@PAX@0@0@Z PROC ; std::_Construct_in_place<std::_List_node<CInstanceBase::SCommand,void *> *,std::_List_node<CInstanceBase::SCommand,void *> * &>, COMDAT
; __Obj$ = ecx
; _<_Args_0>$ = edx

; 470  : #if _HAS_CXX20
; 471  :     if (_STD is_constant_evaluated()) {
; 472  :         _STD construct_at(_STD addressof(_Obj), _STD forward<_Types>(_Args)...);
; 473  :     } else
; 474  : #endif // _HAS_CXX20
; 475  :     {
; 476  :         ::new (static_cast<void*>(_STD addressof(_Obj))) _Ty(_STD forward<_Types>(_Args)...);
; 477  :     }
; 478  : }

  00000	8b 02		 mov	 eax, DWORD PTR [edx]
  00002	89 01		 mov	 DWORD PTR [ecx], eax
  00004	c3		 ret	 0
??$_Construct_in_place@PAU?$_List_node@USCommand@CInstanceBase@@PAX@std@@AAPAU12@@std@@YAXAAPAU?$_List_node@USCommand@CInstanceBase@@PAX@0@0@Z ENDP ; std::_Construct_in_place<std::_List_node<CInstanceBase::SCommand,void *> *,std::_List_node<CInstanceBase::SCommand,void *> * &>
_TEXT	ENDS
; Function compile flags: /Ogtp
; File C:\Program Files\Microsoft Visual Studio\2022\Community\VC\Tools\MSVC\14.44.35207\include\list
; File C:\Program Files\Microsoft Visual Studio\2022\Community\VC\Tools\MSVC\14.44.35207\include\xmemory
; File C:\Program Files\Microsoft Visual Studio\2022\Community\VC\Tools\MSVC\14.44.35207\include\list
;	COMDAT ??$_Freenode0@V?$allocator@U?$_List_node@USCommand@CInstanceBase@@PAX@std@@@std@@@?$_List_node@USCommand@CInstanceBase@@PAX@std@@SAXAAV?$allocator@U?$_List_node@USCommand@CInstanceBase@@PAX@std@@@1@PAU01@@Z
_TEXT	SEGMENT
??$_Freenode0@V?$allocator@U?$_List_node@USCommand@CInstanceBase@@PAX@std@@@std@@@?$_List_node@USCommand@CInstanceBase@@PAX@std@@SAXAAV?$allocator@U?$_List_node@USCommand@CInstanceBase@@PAX@std@@@1@PAU01@@Z PROC ; std::_List_node<CInstanceBase::SCommand,void *>::_Freenode0<std::allocator<std::_List_node<CInstanceBase::SCommand,void *> > >, COMDAT
; __Al$dead$ = ecx
; __Ptr$ = edx
; File C:\Program Files\Microsoft Visual Studio\2022\Community\VC\Tools\MSVC\14.44.35207\include\xmemory

; 289  :         ::operator delete(_Ptr, _Bytes);

  00000	6a 2c		 push	 44			; 0000002cH
  00002	52		 push	 edx
  00003	e8 00 00 00 00	 call	 ??3@YAXPAXI@Z		; operator delete
  00008	83 c4 08	 add	 esp, 8
; File C:\Program Files\Microsoft Visual Studio\2022\Community\VC\Tools\MSVC\14.44.35207\include\list

; 313  :     }

  0000b	c3		 ret	 0
??$_Freenode0@V?$allocator@U?$_List_node@USCommand@CInstanceBase@@PAX@std@@@std@@@?$_List_node@USCommand@CInstanceBase@@PAX@std@@SAXAAV?$allocator@U?$_List_node@USCommand@CInstanceBase@@PAX@std@@@1@PAU01@@Z ENDP ; std::_List_node<CInstanceBase::SCommand,void *>::_Freenode0<std::allocator<std::_List_node<CInstanceBase::SCommand,void *> > >
_TEXT	ENDS
; Function compile flags: /Ogtp
; File C:\Program Files\Microsoft Visual Studio\2022\Community\VC\Tools\MSVC\14.44.35207\include\xmemory
;	COMDAT ??$_Unfancy@PAVCInstanceBase@@@std@@YAPAPAVCInstanceBase@@PAPAV1@@Z
_TEXT	SEGMENT
??$_Unfancy@PAVCInstanceBase@@@std@@YAPAPAVCInstanceBase@@PAPAV1@@Z PROC ; std::_Unfancy<CInstanceBase *>, COMDAT
; __Ptr$ = ecx

; 69   :     return _Ptr;

  00000	8b c1		 mov	 eax, ecx

; 70   : }

  00002	c3		 ret	 0
??$_Unfancy@PAVCInstanceBase@@@std@@YAPAPAVCInstanceBase@@PAPAV1@@Z ENDP ; std::_Unfancy<CInstanceBase *>
_TEXT	ENDS
; Function compile flags: /Ogtp
; File C:\Program Files\Microsoft Visual Studio\2022\Community\VC\Tools\MSVC\14.44.35207\include\xmemory
;	COMDAT ??$destroy@PAVCInstanceBase@@@?$_Default_allocator_traits@V?$allocator@PAVCInstanceBase@@@std@@@std@@SAXAAV?$allocator@PAVCInstanceBase@@@1@QAPAVCInstanceBase@@@Z
_TEXT	SEGMENT
??$destroy@PAVCInstanceBase@@@?$_Default_allocator_traits@V?$allocator@PAVCInstanceBase@@@std@@@std@@SAXAAV?$allocator@PAVCInstanceBase@@@1@QAPAVCInstanceBase@@@Z PROC ; std::_Default_allocator_traits<std::allocator<CInstanceBase *> >::destroy<CInstanceBase *>, COMDAT
; ___formal$dead$ = ecx
; __Ptr$dead$ = edx

; 738  : #if _HAS_CXX20
; 739  :         _STD destroy_at(_Ptr);
; 740  : #else // ^^^ _HAS_CXX20 / !_HAS_CXX20 vvv
; 741  :         _Ptr->~_Uty();
; 742  : #endif // ^^^ !_HAS_CXX20 ^^^
; 743  :     }

  00000	c2 00 00	 ret	 0
??$destroy@PAVCInstanceBase@@@?$_Default_allocator_traits@V?$allocator@PAVCInstanceBase@@@std@@@std@@SAXAAV?$allocator@PAVCInstanceBase@@@1@QAPAVCInstanceBase@@@Z ENDP ; std::_Default_allocator_traits<std::allocator<CInstanceBase *> >::destroy<CInstanceBase *>
_TEXT	ENDS
; Function compile flags: /Ogtp
; File C:\Program Files\Microsoft Visual Studio\2022\Community\VC\Tools\MSVC\14.44.35207\include\vector
; File C:\Program Files\Microsoft Visual Studio\2022\Community\VC\Tools\MSVC\14.44.35207\include\xmemory
; File C:\Program Files\Microsoft Visual Studio\2022\Community\VC\Tools\MSVC\14.44.35207\include\vector
; File C:\Program Files\Microsoft Visual Studio\2022\Community\VC\Tools\MSVC\14.44.35207\include\xmemory
; File C:\Program Files\Microsoft Visual Studio\2022\Community\VC\Tools\MSVC\14.44.35207\include\vector
; File C:\Program Files\Microsoft Visual Studio\2022\Community\VC\Tools\MSVC\14.44.35207\include\xmemory
; File C:\Program Files\Microsoft Visual Studio\2022\Community\VC\Tools\MSVC\14.44.35207\include\vector
; File C:\Program Files\Microsoft Visual Studio\2022\Community\VC\Tools\MSVC\14.44.35207\include\xmemory
; File C:\Program Files\Microsoft Visual Studio\2022\Community\VC\Tools\MSVC\14.44.35207\include\vector
; File C:\Program Files\Microsoft Visual Studio\2022\Community\VC\Tools\MSVC\14.44.35207\include\xmemory
; File C:\Program Files\Microsoft Visual Studio\2022\Community\VC\Tools\MSVC\14.44.35207\include\vector
; File C:\Program Files\Microsoft Visual Studio\2022\Community\VC\Tools\MSVC\14.44.35207\include\xmemory
; File C:\Program Files\Microsoft Visual Studio\2022\Community\VC\Tools\MSVC\14.44.35207\include\vector
; File C:\Program Files\Microsoft Visual Studio\2022\Community\VC\Tools\MSVC\14.44.35207\include\xmemory
; File C:\Program Files\Microsoft Visual Studio\2022\Community\VC\Tools\MSVC\14.44.35207\include\vector
;	COMDAT ??$_Emplace_one_at_back@ABQAVCInstanceBase@@@?$vector@PAVCInstanceBase@@V?$allocator@PAVCInstanceBase@@@std@@@std@@AAEAAPAVCInstanceBase@@ABQAV2@@Z
_TEXT	SEGMENT
__Newsize$1$ = -12					; size = 4
__Oldsize$1$ = -8					; size = 4
tv658 = -8						; size = 4
__Whereptr$1$ = -4					; size = 4
_<_Val_0>$ = 8						; size = 4
$T5 = 8							; size = 4
??$_Emplace_one_at_back@ABQAVCInstanceBase@@@?$vector@PAVCInstanceBase@@V?$allocator@PAVCInstanceBase@@@std@@@std@@AAEAAPAVCInstanceBase@@ABQAV2@@Z PROC ; std::vector<CInstanceBase *,std::allocator<CInstanceBase *> >::_Emplace_one_at_back<CInstanceBase * const &>, COMDAT
; _this$ = ecx

; 839  :     _CONSTEXPR20 _Ty& _Emplace_one_at_back(_Valty&&... _Val) {

  00000	55		 push	 ebp
  00001	8b ec		 mov	 ebp, esp
  00003	83 ec 0c	 sub	 esp, 12			; 0000000cH
  00006	53		 push	 ebx
  00007	56		 push	 esi
  00008	8b f1		 mov	 esi, ecx
  0000a	57		 push	 edi

; 840  :         // insert by perfectly forwarding into element at end, provide strong guarantee
; 841  :         auto& _My_data   = _Mypair._Myval2;
; 842  :         pointer& _Mylast = _My_data._Mylast;
; 843  : 
; 844  :         if (_Mylast != _My_data._Myend) {

  0000b	8b 56 04	 mov	 edx, DWORD PTR [esi+4]
  0000e	8b 4e 08	 mov	 ecx, DWORD PTR [esi+8]
  00011	89 55 fc	 mov	 DWORD PTR __Whereptr$1$[ebp], edx
  00014	3b d1		 cmp	 edx, ecx
  00016	74 19		 je	 SHORT $LN2@Emplace_on

; 860  :             _STD _Construct_in_place(*_Mylast, _STD forward<_Valty>(_Val)...);

  00018	8b 45 08	 mov	 eax, DWORD PTR _<_Val_0>$[ebp]
  0001b	8b 00		 mov	 eax, DWORD PTR [eax]
  0001d	89 02		 mov	 DWORD PTR [edx], eax

; 861  :         } else {
; 862  :             _ASAN_VECTOR_EXTEND_GUARD(static_cast<size_type>(_Mylast - _My_data._Myfirst) + 1);
; 863  :             _Alty_traits::construct(_Getal(), _Unfancy(_Mylast), _STD forward<_Valty>(_Val)...);
; 864  :             _ASAN_VECTOR_RELEASE_GUARD;
; 865  :         }
; 866  : 
; 867  :         _Orphan_range(_Mylast, _Mylast);
; 868  :         _Ty& _Result = *_Mylast;

  0001f	8b 46 04	 mov	 eax, DWORD PTR [esi+4]

; 869  :         ++_Mylast;

  00022	8d 48 04	 lea	 ecx, DWORD PTR [eax+4]
  00025	89 4e 04	 mov	 DWORD PTR [esi+4], ecx

; 849  :     }

  00028	5f		 pop	 edi
  00029	5e		 pop	 esi
  0002a	5b		 pop	 ebx
  0002b	8b e5		 mov	 esp, ebp
  0002d	5d		 pop	 ebp
  0002e	c2 04 00	 ret	 4
$LN2@Emplace_on:

; 884  :         const auto _Whereoff = static_cast<size_type>(_Whereptr - _Myfirst);

  00031	8b 3e		 mov	 edi, DWORD PTR [esi]
  00033	8b c2		 mov	 eax, edx
  00035	2b c7		 sub	 eax, edi
  00037	c1 f8 02	 sar	 eax, 2
  0003a	89 45 f8	 mov	 DWORD PTR __Oldsize$1$[ebp], eax

; 885  :         const auto _Oldsize  = static_cast<size_type>(_Mylast - _Myfirst);
; 886  : 
; 887  :         if (_Oldsize == max_size()) {

  0003d	3d ff ff ff 3f	 cmp	 eax, 1073741823		; 3fffffffH
  00042	0f 84 cc 00 00
	00		 je	 $LN116@Emplace_on

; 1924 :         return static_cast<size_type>(_My_data._Myend - _My_data._Myfirst);

  00048	2b cf		 sub	 ecx, edi

; 891  :         const size_type _Newsize = _Oldsize + 1;

  0004a	8d 58 01	 lea	 ebx, DWORD PTR [eax+1]

; 1924 :         return static_cast<size_type>(_My_data._Myend - _My_data._Myfirst);

  0004d	c1 f9 02	 sar	 ecx, 2

; 2011 :         if (_Oldcapacity > _Max - _Oldcapacity / 2) {

  00050	b8 ff ff ff 3f	 mov	 eax, 1073741823		; 3fffffffH
  00055	8b f9		 mov	 edi, ecx

; 891  :         const size_type _Newsize = _Oldsize + 1;

  00057	89 5d f4	 mov	 DWORD PTR __Newsize$1$[ebp], ebx

; 2011 :         if (_Oldcapacity > _Max - _Oldcapacity / 2) {

  0005a	d1 ef		 shr	 edi, 1
  0005c	2b c7		 sub	 eax, edi
  0005e	3b c8		 cmp	 ecx, eax
  00060	76 12		 jbe	 SHORT $LN13@Emplace_on

; 2012 :             return _Max; // geometric growth would overflow

  00062	b8 fc ff ff ff	 mov	 eax, -4			; fffffffcH
  00067	bf ff ff ff 3f	 mov	 edi, 1073741823		; 3fffffffH
; File C:\Program Files\Microsoft Visual Studio\2022\Community\VC\Tools\MSVC\14.44.35207\include\xmemory

; 253  :             return _Allocate_manually_vector_aligned<_Traits>(_Bytes);

  0006c	50		 push	 eax
  0006d	e8 00 00 00 00	 call	 ??$_Allocate_manually_vector_aligned@U_Default_allocate_traits@std@@@std@@YAPAXI@Z ; std::_Allocate_manually_vector_aligned<std::_Default_allocate_traits>
  00072	eb 3a		 jmp	 SHORT $LN114@Emplace_on
$LN13@Emplace_on:
; File C:\Program Files\Microsoft Visual Studio\2022\Community\VC\Tools\MSVC\14.44.35207\include\vector

; 2015 :         const size_type _Geometric = _Oldcapacity + _Oldcapacity / 2;

  00074	8d 04 0f	 lea	 eax, DWORD PTR [edi+ecx]
; File C:\Program Files\Microsoft Visual Studio\2022\Community\VC\Tools\MSVC\14.44.35207\include\xmemory

; 117  :         if (_Count > _Max_possible) {

  00077	8b fb		 mov	 edi, ebx
  00079	3b c3		 cmp	 eax, ebx
  0007b	0f 43 f8	 cmovae	 edi, eax
  0007e	81 ff ff ff ff
	3f		 cmp	 edi, 1073741823		; 3fffffffH
  00084	0f 87 8f 00 00
	00		 ja	 $LN117@Emplace_on

; 119  :         }
; 120  :     }
; 121  : 
; 122  :     return _Count * _Ty_size;

  0008a	8d 04 bd 00 00
	00 00		 lea	 eax, DWORD PTR [edi*4]

; 227  :     if (_Bytes == 0) {

  00091	85 c0		 test	 eax, eax
  00093	75 04		 jne	 SHORT $LN28@Emplace_on

; 228  :         return nullptr;

  00095	33 db		 xor	 ebx, ebx
  00097	eb 1d		 jmp	 SHORT $LN27@Emplace_on
$LN28@Emplace_on:

; 229  :     }
; 230  : 
; 231  : #if _HAS_CXX20 // TRANSITION, GH-1532
; 232  :     if (_STD is_constant_evaluated()) {
; 233  :         return _Traits::_Allocate(_Bytes);
; 234  :     }
; 235  : #endif // _HAS_CXX20
; 236  : 
; 237  : #ifdef __cpp_aligned_new
; 238  :     if constexpr (_Align > __STDCPP_DEFAULT_NEW_ALIGNMENT__) {
; 239  :         size_t _Passed_align = _Align;
; 240  : #if defined(_M_IX86) || defined(_M_X64)
; 241  :         if (_Bytes >= _Big_allocation_threshold) {
; 242  :             // boost the alignment of big allocations to help autovectorization
; 243  :             _Passed_align = (_STD max)(_Align, _Big_allocation_alignment);
; 244  :         }
; 245  : #endif // defined(_M_IX86) || defined(_M_X64)
; 246  :         return _Traits::_Allocate_aligned(_Bytes, _Passed_align);
; 247  :     } else
; 248  : #endif // defined(__cpp_aligned_new)
; 249  :     {
; 250  : #if defined(_M_IX86) || defined(_M_X64)
; 251  :         if (_Bytes >= _Big_allocation_threshold) {

  00099	3d 00 10 00 00	 cmp	 eax, 4096		; 00001000H
  0009e	72 08		 jb	 SHORT $LN30@Emplace_on

; 253  :             return _Allocate_manually_vector_aligned<_Traits>(_Bytes);

  000a0	50		 push	 eax
  000a1	e8 00 00 00 00	 call	 ??$_Allocate_manually_vector_aligned@U_Default_allocate_traits@std@@@std@@YAPAXI@Z ; std::_Allocate_manually_vector_aligned<std::_Default_allocate_traits>
  000a6	eb 06		 jmp	 SHORT $LN114@Emplace_on
$LN30@Emplace_on:

; 136  :         return ::operator new(_Bytes);

  000a8	50		 push	 eax
  000a9	e8 00 00 00 00	 call	 ??2@YAPAXI@Z		; operator new
$LN114@Emplace_on:
; File C:\Program Files\Microsoft Visual Studio\2022\Community\VC\Tools\MSVC\14.44.35207\include\vector

; 900  :         _Alty_traits::construct(_Al, _STD _Unfancy(_Newvec + _Whereoff), _STD forward<_Valty>(_Val)...);

  000ae	8b 55 fc	 mov	 edx, DWORD PTR __Whereptr$1$[ebp]
  000b1	8b d8		 mov	 ebx, eax
  000b3	83 c4 04	 add	 esp, 4
$LN27@Emplace_on:
  000b6	8b 45 f8	 mov	 eax, DWORD PTR __Oldsize$1$[ebp]
  000b9	8d 0c 83	 lea	 ecx, DWORD PTR [ebx+eax*4]
  000bc	8b 45 08	 mov	 eax, DWORD PTR _<_Val_0>$[ebp]
  000bf	89 4d f8	 mov	 DWORD PTR tv658[ebp], ecx
  000c2	8b 00		 mov	 eax, DWORD PTR [eax]
  000c4	89 01		 mov	 DWORD PTR [ecx], eax

; 901  :         _Constructed_first = _Newvec + _Whereoff;
; 902  : 
; 903  :         if (_Whereptr == _Mylast) { // at back, provide strong guarantee

  000c6	8b 46 04	 mov	 eax, DWORD PTR [esi+4]
  000c9	8b 0e		 mov	 ecx, DWORD PTR [esi]
  000cb	89 4d 08	 mov	 DWORD PTR $T5[ebp], ecx
  000ce	3b d0		 cmp	 edx, eax
  000d0	75 04		 jne	 SHORT $LN8@Emplace_on
; File C:\Program Files\Microsoft Visual Studio\2022\Community\VC\Tools\MSVC\14.44.35207\include\xmemory

; 1992 :             _STD _Copy_memmove(_UFirst, _ULast, _STD _Unfancy(_Dest));

  000d2	8b cb		 mov	 ecx, ebx
; File C:\Program Files\Microsoft Visual Studio\2022\Community\VC\Tools\MSVC\14.44.35207\include\vector

; 909  :         } else { // provide basic guarantee

  000d4	eb 18		 jmp	 SHORT $LN64@Emplace_on
$LN8@Emplace_on:
; File C:\Program Files\Microsoft Visual Studio\2022\Community\VC\Tools\MSVC\14.44.35207\include\xmemory

; 1992 :             _STD _Copy_memmove(_UFirst, _ULast, _STD _Unfancy(_Dest));

  000d6	53		 push	 ebx
  000d7	e8 00 00 00 00	 call	 ??$_Copy_memmove@PAPAVCInstanceBase@@PAPAV1@@std@@YAPAPAVCInstanceBase@@PAPAV1@00@Z ; std::_Copy_memmove<CInstanceBase * *,CInstanceBase * *>
; File C:\Program Files\Microsoft Visual Studio\2022\Community\VC\Tools\MSVC\14.44.35207\include\vector

; 912  :             _STD _Uninitialized_move(_Whereptr, _Mylast, _Newvec + _Whereoff + 1, _Al);

  000dc	8b 4d f8	 mov	 ecx, DWORD PTR tv658[ebp]
; File C:\Program Files\Microsoft Visual Studio\2022\Community\VC\Tools\MSVC\14.44.35207\include\xmemory

; 1992 :             _STD _Copy_memmove(_UFirst, _ULast, _STD _Unfancy(_Dest));

  000df	83 c4 04	 add	 esp, 4
  000e2	8b 55 fc	 mov	 edx, DWORD PTR __Whereptr$1$[ebp]
; File C:\Program Files\Microsoft Visual Studio\2022\Community\VC\Tools\MSVC\14.44.35207\include\vector

; 912  :             _STD _Uninitialized_move(_Whereptr, _Mylast, _Newvec + _Whereoff + 1, _Al);

  000e5	83 c1 04	 add	 ecx, 4
; File C:\Program Files\Microsoft Visual Studio\2022\Community\VC\Tools\MSVC\14.44.35207\include\xmemory

; 1985 :     const auto _ULast = _STD _Get_unwrapped(_Last);

  000e8	8b 46 04	 mov	 eax, DWORD PTR [esi+4]

; 1992 :             _STD _Copy_memmove(_UFirst, _ULast, _STD _Unfancy(_Dest));

  000eb	89 55 08	 mov	 DWORD PTR $T5[ebp], edx
$LN64@Emplace_on:
; File C:\Program Files\Microsoft Visual Studio\2022\Community\VC\Tools\MSVC\14.44.35207\include\vector

; 916  :         _Change_array(_Newvec, _Newsize, _Newcapacity);

  000ee	51		 push	 ecx
  000ef	8b 4d 08	 mov	 ecx, DWORD PTR $T5[ebp]
  000f2	8b d0		 mov	 edx, eax
  000f4	e8 00 00 00 00	 call	 ??$_Copy_memmove@PAPAVCInstanceBase@@PAPAV1@@std@@YAPAPAVCInstanceBase@@PAPAV1@00@Z ; std::_Copy_memmove<CInstanceBase * *,CInstanceBase * *>
  000f9	83 c4 04	 add	 esp, 4
  000fc	8b ce		 mov	 ecx, esi
  000fe	57		 push	 edi
  000ff	ff 75 f4	 push	 DWORD PTR __Newsize$1$[ebp]
  00102	53		 push	 ebx
  00103	e8 00 00 00 00	 call	 ?_Change_array@?$vector@PAVCInstanceBase@@V?$allocator@PAVCInstanceBase@@@std@@@std@@AAEXQAPAVCInstanceBase@@II@Z ; std::vector<CInstanceBase *,std::allocator<CInstanceBase *> >::_Change_array

; 845  :             return _Emplace_back_with_unused_capacity(_STD forward<_Valty>(_Val)...);
; 846  :         }
; 847  : 
; 848  :         return *_Emplace_reallocate(_Mylast, _STD forward<_Valty>(_Val)...);

  00108	8b 45 f8	 mov	 eax, DWORD PTR tv658[ebp]

; 849  :     }

  0010b	5f		 pop	 edi
  0010c	5e		 pop	 esi
  0010d	5b		 pop	 ebx
  0010e	8b e5		 mov	 esp, ebp
  00110	5d		 pop	 ebp
  00111	c2 04 00	 ret	 4
$LN116@Emplace_on:

; 888  :             _Xlength();

  00114	e8 00 00 00 00	 call	 ?_Xlength@?$vector@PAVCInstanceBase@@V?$allocator@PAVCInstanceBase@@@std@@@std@@CAXXZ ; std::vector<CInstanceBase *,std::allocator<CInstanceBase *> >::_Xlength
$LN117@Emplace_on:
; File C:\Program Files\Microsoft Visual Studio\2022\Community\VC\Tools\MSVC\14.44.35207\include\xmemory

; 118  :             _Throw_bad_array_new_length(); // multiply overflow

  00119	e8 00 00 00 00	 call	 ?_Throw_bad_array_new_length@std@@YAXXZ ; std::_Throw_bad_array_new_length
$LN113@Emplace_on:
  0011e	cc		 int	 3
??$_Emplace_one_at_back@ABQAVCInstanceBase@@@?$vector@PAVCInstanceBase@@V?$allocator@PAVCInstanceBase@@@std@@@std@@AAEAAPAVCInstanceBase@@ABQAV2@@Z ENDP ; std::vector<CInstanceBase *,std::allocator<CInstanceBase *> >::_Emplace_one_at_back<CInstanceBase * const &>
_TEXT	ENDS
; Function compile flags: /Ogtp
; File C:\Program Files\Microsoft Visual Studio\2022\Community\VC\Tools\MSVC\14.44.35207\include\xmemory
; File C:\Program Files\Microsoft Visual Studio\2022\Community\VC\Tools\MSVC\14.44.35207\include\vector
; File C:\Program Files\Microsoft Visual Studio\2022\Community\VC\Tools\MSVC\14.44.35207\include\xmemory
; File C:\Program Files\Microsoft Visual Studio\2022\Community\VC\Tools\MSVC\14.44.35207\include\vector
; File C:\Program Files\Microsoft Visual Studio\2022\Community\VC\Tools\MSVC\14.44.35207\include\xmemory
;	COMDAT ??$?0$$V@?$_Compressed_pair@V?$allocator@PAVCInstanceBase@@@std@@V?$_Vector_val@U?$_Simple_types@PAVCInstanceBase@@@std@@@2@$00@std@@QAE@U_Zero_then_variadic_args_t@1@@Z
_TEXT	SEGMENT
___formal$ = 8						; size = 1
??$?0$$V@?$_Compressed_pair@V?$allocator@PAVCInstanceBase@@@std@@V?$_Vector_val@U?$_Simple_types@PAVCInstanceBase@@@std@@@2@$00@std@@QAE@U_Zero_then_variadic_args_t@1@@Z PROC ; std::_Compressed_pair<std::allocator<CInstanceBase *>,std::_Vector_val<std::_Simple_types<CInstanceBase *> >,1>::_Compressed_pair<std::allocator<CInstanceBase *>,std::_Vector_val<std::_Simple_types<CInstanceBase *> >,1><>, COMDAT
; _this$ = ecx
; File C:\Program Files\Microsoft Visual Studio\2022\Community\VC\Tools\MSVC\14.44.35207\include\vector

; 400  :     _CONSTEXPR20 _Vector_val() noexcept : _Myfirst(), _Mylast(), _Myend() {}

  00000	c7 01 00 00 00
	00		 mov	 DWORD PTR [ecx], 0
; File C:\Program Files\Microsoft Visual Studio\2022\Community\VC\Tools\MSVC\14.44.35207\include\xmemory

; 1531 :         : _Ty1(), _Myval2(_STD forward<_Other2>(_Val2)...) {}

  00006	8b c1		 mov	 eax, ecx
; File C:\Program Files\Microsoft Visual Studio\2022\Community\VC\Tools\MSVC\14.44.35207\include\vector

; 400  :     _CONSTEXPR20 _Vector_val() noexcept : _Myfirst(), _Mylast(), _Myend() {}

  00008	c7 41 04 00 00
	00 00		 mov	 DWORD PTR [ecx+4], 0
  0000f	c7 41 08 00 00
	00 00		 mov	 DWORD PTR [ecx+8], 0
; File C:\Program Files\Microsoft Visual Studio\2022\Community\VC\Tools\MSVC\14.44.35207\include\xmemory

; 1531 :         : _Ty1(), _Myval2(_STD forward<_Other2>(_Val2)...) {}

  00016	c2 04 00	 ret	 4
??$?0$$V@?$_Compressed_pair@V?$allocator@PAVCInstanceBase@@@std@@V?$_Vector_val@U?$_Simple_types@PAVCInstanceBase@@@std@@@2@$00@std@@QAE@U_Zero_then_variadic_args_t@1@@Z ENDP ; std::_Compressed_pair<std::allocator<CInstanceBase *>,std::_Vector_val<std::_Simple_types<CInstanceBase *> >,1>::_Compressed_pair<std::allocator<CInstanceBase *>,std::_Vector_val<std::_Simple_types<CInstanceBase *> >,1><>
_TEXT	ENDS
; Function compile flags: /Ogtp
; File C:\Program Files\Microsoft Visual Studio\2022\Community\VC\Tools\MSVC\14.44.35207\include\type_traits
;	COMDAT ??$addressof@V?$_Tree_val@U?$_Tree_simple_types@U?$pair@$$CBKK@std@@@std@@@std@@@std@@YAPAV?$_Tree_val@U?$_Tree_simple_types@U?$pair@$$CBKK@std@@@std@@@0@AAV10@@Z
_TEXT	SEGMENT
??$addressof@V?$_Tree_val@U?$_Tree_simple_types@U?$pair@$$CBKK@std@@@std@@@std@@@std@@YAPAV?$_Tree_val@U?$_Tree_simple_types@U?$pair@$$CBKK@std@@@std@@@0@AAV10@@Z PROC ; std::addressof<std::_Tree_val<std::_Tree_simple_types<std::pair<unsigned long const ,unsigned long> > > >, COMDAT
; __Val$ = ecx

; 1525 :     return __builtin_addressof(_Val);

  00000	8b c1		 mov	 eax, ecx

; 1526 : }

  00002	c3		 ret	 0
??$addressof@V?$_Tree_val@U?$_Tree_simple_types@U?$pair@$$CBKK@std@@@std@@@std@@@std@@YAPAV?$_Tree_val@U?$_Tree_simple_types@U?$pair@$$CBKK@std@@@std@@@0@AAV10@@Z ENDP ; std::addressof<std::_Tree_val<std::_Tree_simple_types<std::pair<unsigned long const ,unsigned long> > > >
_TEXT	ENDS
; Function compile flags: /Ogtp
; File C:\Program Files\Microsoft Visual Studio\2022\Community\VC\Tools\MSVC\14.44.35207\include\xmemory
; File C:\Program Files\Microsoft Visual Studio\2022\Community\VC\Tools\MSVC\14.44.35207\include\xtree
; File C:\Program Files\Microsoft Visual Studio\2022\Community\VC\Tools\MSVC\14.44.35207\include\xmemory
; File C:\Program Files\Microsoft Visual Studio\2022\Community\VC\Tools\MSVC\14.44.35207\include\xtree
; File C:\Program Files\Microsoft Visual Studio\2022\Community\VC\Tools\MSVC\14.44.35207\include\xmemory
;	COMDAT ??$?0ABU?$less@K@std@@U_Zero_then_variadic_args_t@1@@?$_Compressed_pair@U?$less@K@std@@V?$_Compressed_pair@V?$allocator@U?$_Tree_node@U?$pair@$$CBKK@std@@PAX@std@@@std@@V?$_Tree_val@U?$_Tree_simple_types@U?$pair@$$CBKK@std@@@std@@@2@$00@2@$00@std@@QAE@U_One_then_variadic_args_t@1@ABU?$less@K@1@$$QAU_Zero_then_variadic_args_t@1@@Z
_TEXT	SEGMENT
___formal$ = 8						; size = 1
__Val1$dead$ = 12					; size = 4
_<_Val2_0>$dead$ = 16					; size = 4
??$?0ABU?$less@K@std@@U_Zero_then_variadic_args_t@1@@?$_Compressed_pair@U?$less@K@std@@V?$_Compressed_pair@V?$allocator@U?$_Tree_node@U?$pair@$$CBKK@std@@PAX@std@@@std@@V?$_Tree_val@U?$_Tree_simple_types@U?$pair@$$CBKK@std@@@std@@@2@$00@2@$00@std@@QAE@U_One_then_variadic_args_t@1@ABU?$less@K@1@$$QAU_Zero_then_variadic_args_t@1@@Z PROC ; std::_Compressed_pair<std::less<unsigned long>,std::_Compressed_pair<std::allocator<std::_Tree_node<std::pair<unsigned long const ,unsigned long>,void *> >,std::_Tree_val<std::_Tree_simple_types<std::pair<unsigned long const ,unsigned long> > >,1>,1>::_Compressed_pair<std::less<unsigned long>,std::_Compressed_pair<std::allocator<std::_Tree_node<std::pair<unsigned long const ,unsigned long>,void *> >,std::_Tree_val<std::_Tree_simple_types<std::pair<unsigned long const ,unsigned long> > >,1>,1><std::less<unsigned long> const &,std::_Zero_then_variadic_args_t>, COMDAT
; _this$ = ecx
; File C:\Program Files\Microsoft Visual Studio\2022\Community\VC\Tools\MSVC\14.44.35207\include\xtree

; 450  :     _Tree_val() noexcept : _Myhead(), _Mysize(0) {}

  00000	c7 01 00 00 00
	00		 mov	 DWORD PTR [ecx], 0
; File C:\Program Files\Microsoft Visual Studio\2022\Community\VC\Tools\MSVC\14.44.35207\include\xmemory

; 1536 :         : _Ty1(_STD forward<_Other1>(_Val1)), _Myval2(_STD forward<_Other2>(_Val2)...) {}

  00006	8b c1		 mov	 eax, ecx
; File C:\Program Files\Microsoft Visual Studio\2022\Community\VC\Tools\MSVC\14.44.35207\include\xtree

; 450  :     _Tree_val() noexcept : _Myhead(), _Mysize(0) {}

  00008	c7 41 04 00 00
	00 00		 mov	 DWORD PTR [ecx+4], 0
; File C:\Program Files\Microsoft Visual Studio\2022\Community\VC\Tools\MSVC\14.44.35207\include\xmemory

; 1536 :         : _Ty1(_STD forward<_Other1>(_Val1)), _Myval2(_STD forward<_Other2>(_Val2)...) {}

  0000f	c2 0c 00	 ret	 12			; 0000000cH
??$?0ABU?$less@K@std@@U_Zero_then_variadic_args_t@1@@?$_Compressed_pair@U?$less@K@std@@V?$_Compressed_pair@V?$allocator@U?$_Tree_node@U?$pair@$$CBKK@std@@PAX@std@@@std@@V?$_Tree_val@U?$_Tree_simple_types@U?$pair@$$CBKK@std@@@std@@@2@$00@2@$00@std@@QAE@U_One_then_variadic_args_t@1@ABU?$less@K@1@$$QAU_Zero_then_variadic_args_t@1@@Z ENDP ; std::_Compressed_pair<std::less<unsigned long>,std::_Compressed_pair<std::allocator<std::_Tree_node<std::pair<unsigned long const ,unsigned long>,void *> >,std::_Tree_val<std::_Tree_simple_types<std::pair<unsigned long const ,unsigned long> > >,1>,1>::_Compressed_pair<std::less<unsigned long>,std::_Compressed_pair<std::allocator<std::_Tree_node<std::pair<unsigned long const ,unsigned long>,void *> >,std::_Tree_val<std::_Tree_simple_types<std::pair<unsigned long const ,unsigned long> > >,1>,1><std::less<unsigned long> const &,std::_Zero_then_variadic_args_t>
_TEXT	ENDS
; Function compile flags: /Ogtp
; File C:\Program Files\Microsoft Visual Studio\2022\Community\VC\Tools\MSVC\14.44.35207\include\__msvc_string_view.hpp
;	COMDAT ?_Match@?$_String_bitmap@D$00@std@@QBE_ND@Z
_TEXT	SEGMENT
__Ch$ = 8						; size = 1
?_Match@?$_String_bitmap@D$00@std@@QBE_ND@Z PROC	; std::_String_bitmap<char,1>::_Match, COMDAT
; _this$ = ecx

; 811  :     constexpr bool _Match(const _Elem _Ch) const noexcept { // test if _Ch is in the bitmap

  00000	55		 push	 ebp
  00001	8b ec		 mov	 ebp, esp

; 812  :         // CodeQL [SM01954] This index is valid: we cast to unsigned char and the array has 256 elements.
; 813  :         return _Matches[static_cast<unsigned char>(_Ch)];

  00003	0f b6 45 08	 movzx	 eax, BYTE PTR __Ch$[ebp]
  00007	8a 04 08	 mov	 al, BYTE PTR [eax+ecx]

; 814  :     }

  0000a	5d		 pop	 ebp
  0000b	c2 04 00	 ret	 4
?_Match@?$_String_bitmap@D$00@std@@QBE_ND@Z ENDP	; std::_String_bitmap<char,1>::_Match
_TEXT	ENDS
; Function compile flags: /Ogtp
; File C:\Program Files\Microsoft Visual Studio\2022\Community\VC\Tools\MSVC\14.44.35207\include\__msvc_string_view.hpp
;	COMDAT ?_Mark@?$_String_bitmap@D$00@std@@QAE_NPBDQBD@Z
_TEXT	SEGMENT
__First$ = 8						; size = 4
__Last$ = 12						; size = 4
?_Mark@?$_String_bitmap@D$00@std@@QAE_NPBDQBD@Z PROC	; std::_String_bitmap<char,1>::_Mark, COMDAT
; _this$ = ecx

; 801  :     constexpr bool _Mark(const _Elem* _First, const _Elem* const _Last) noexcept {

  00000	55		 push	 ebp
  00001	8b ec		 mov	 ebp, esp

; 802  :         // mark this bitmap such that the characters in [_First, _Last) are intended to match
; 803  :         // returns whether all inputs can be placed in the bitmap
; 804  :         for (; _First != _Last; ++_First) {

  00003	8b 45 08	 mov	 eax, DWORD PTR __First$[ebp]
  00006	56		 push	 esi
  00007	8b 75 0c	 mov	 esi, DWORD PTR __Last$[ebp]
  0000a	3b c6		 cmp	 eax, esi
  0000c	74 0e		 je	 SHORT $LN11@Mark
  0000e	66 90		 npad	 2
$LL4@Mark:

; 805  :             _Matches[static_cast<unsigned char>(*_First)] = true;

  00010	0f b6 10	 movzx	 edx, BYTE PTR [eax]
  00013	40		 inc	 eax
  00014	c6 04 0a 01	 mov	 BYTE PTR [edx+ecx], 1
  00018	3b c6		 cmp	 eax, esi
  0001a	75 f4		 jne	 SHORT $LL4@Mark
$LN11@Mark:

; 806  :         }
; 807  : 
; 808  :         return true;
; 809  :     }

  0001c	b0 01		 mov	 al, 1
  0001e	5e		 pop	 esi
  0001f	5d		 pop	 ebp
  00020	c2 08 00	 ret	 8
?_Mark@?$_String_bitmap@D$00@std@@QAE_NPBDQBD@Z ENDP	; std::_String_bitmap<char,1>::_Mark
_TEXT	ENDS
; Function compile flags: /Ogtp
; File C:\Program Files\Microsoft Visual Studio\2022\Community\VC\Tools\MSVC\14.44.35207\include\list
;	COMDAT ?_Transfer_before@?$_List_node_emplace_op2@V?$allocator@U?$_List_node@USCommand@CInstanceBase@@PAX@std@@@std@@@std@@QAEPAU?$_List_node@USCommand@CInstanceBase@@PAX@2@QAU32@@Z
_TEXT	SEGMENT
__Insert_before$ = 8					; size = 4
?_Transfer_before@?$_List_node_emplace_op2@V?$allocator@U?$_List_node@USCommand@CInstanceBase@@PAX@std@@@std@@@std@@QAEPAU?$_List_node@USCommand@CInstanceBase@@PAX@2@QAU32@@Z PROC ; std::_List_node_emplace_op2<std::allocator<std::_List_node<CInstanceBase::SCommand,void *> > >::_Transfer_before, COMDAT
; _this$ = ecx

; 607  :     pointer _Transfer_before(const pointer _Insert_before) noexcept {

  00000	55		 push	 ebp
  00001	8b ec		 mov	 ebp, esp

; 608  :         const pointer _Insert_after = _Insert_before->_Prev;
; 609  :         _Construct_in_place(this->_Ptr->_Next, _Insert_before);

  00003	8b 41 04	 mov	 eax, DWORD PTR [ecx+4]
  00006	56		 push	 esi
  00007	8b 75 08	 mov	 esi, DWORD PTR __Insert_before$[ebp]
  0000a	8b 56 04	 mov	 edx, DWORD PTR [esi+4]
  0000d	89 30		 mov	 DWORD PTR [eax], esi

; 610  :         _Construct_in_place(this->_Ptr->_Prev, _Insert_after);

  0000f	8b 41 04	 mov	 eax, DWORD PTR [ecx+4]
  00012	89 50 04	 mov	 DWORD PTR [eax+4], edx

; 611  :         const auto _Result    = this->_Ptr;

  00015	8b 41 04	 mov	 eax, DWORD PTR [ecx+4]

; 612  :         this->_Ptr            = pointer{};

  00018	c7 41 04 00 00
	00 00		 mov	 DWORD PTR [ecx+4], 0

; 613  :         _Insert_before->_Prev = _Result;

  0001f	89 46 04	 mov	 DWORD PTR [esi+4], eax

; 614  :         _Insert_after->_Next  = _Result;

  00022	89 02		 mov	 DWORD PTR [edx], eax

; 615  :         return _Result;

  00024	5e		 pop	 esi

; 616  :     }

  00025	5d		 pop	 ebp
  00026	c2 04 00	 ret	 4
?_Transfer_before@?$_List_node_emplace_op2@V?$allocator@U?$_List_node@USCommand@CInstanceBase@@PAX@std@@@std@@@std@@QAEPAU?$_List_node@USCommand@CInstanceBase@@PAX@2@QAU32@@Z ENDP ; std::_List_node_emplace_op2<std::allocator<std::_List_node<CInstanceBase::SCommand,void *> > >::_Transfer_before
_TEXT	ENDS
; Function compile flags: /Ogtp
; File C:\Program Files\Microsoft Visual Studio\2022\Community\VC\Tools\MSVC\14.44.35207\include\list
; File C:\Program Files\Microsoft Visual Studio\2022\Community\VC\Tools\MSVC\14.44.35207\include\xmemory
; File C:\Program Files\Microsoft Visual Studio\2022\Community\VC\Tools\MSVC\14.44.35207\include\list
;	COMDAT ??1?$_List_node_emplace_op2@V?$allocator@U?$_List_node@USCommand@CInstanceBase@@PAX@std@@@std@@@std@@QAE@XZ
_TEXT	SEGMENT
??1?$_List_node_emplace_op2@V?$allocator@U?$_List_node@USCommand@CInstanceBase@@PAX@std@@@std@@@std@@QAE@XZ PROC ; std::_List_node_emplace_op2<std::allocator<std::_List_node<CInstanceBase::SCommand,void *> > >::~_List_node_emplace_op2<std::allocator<std::_List_node<CInstanceBase::SCommand,void *> > >, COMDAT
; _this$ = ecx
; File C:\Program Files\Microsoft Visual Studio\2022\Community\VC\Tools\MSVC\14.44.35207\include\xmemory

; 1172 :         if (_Ptr) {

  00000	8b 41 04	 mov	 eax, DWORD PTR [ecx+4]
  00003	85 c0		 test	 eax, eax
  00005	74 0b		 je	 SHORT $LN12@List_node_

; 289  :         ::operator delete(_Ptr, _Bytes);

  00007	6a 2c		 push	 44			; 0000002cH
  00009	50		 push	 eax
  0000a	e8 00 00 00 00	 call	 ??3@YAXPAXI@Z		; operator delete
  0000f	83 c4 08	 add	 esp, 8
$LN12@List_node_:
; File C:\Program Files\Microsoft Visual Studio\2022\Community\VC\Tools\MSVC\14.44.35207\include\list

; 602  :     }

  00012	c3		 ret	 0
??1?$_List_node_emplace_op2@V?$allocator@U?$_List_node@USCommand@CInstanceBase@@PAX@std@@@std@@@std@@QAE@XZ ENDP ; std::_List_node_emplace_op2<std::allocator<std::_List_node<CInstanceBase::SCommand,void *> > >::~_List_node_emplace_op2<std::allocator<std::_List_node<CInstanceBase::SCommand,void *> > >
_TEXT	ENDS
; Function compile flags: /Ogtp
; File D:\_m2work\Server Client TMP4\ClientVS22\source\eterLib\Pool.h
;	COMDAT ?Delete@?$CDynamicPool@VCInstanceBase@@@@KAXPAVCInstanceBase@@@Z
_TEXT	SEGMENT
?Delete@?$CDynamicPool@VCInstanceBase@@@@KAXPAVCInstanceBase@@@Z PROC ; CDynamicPool<CInstanceBase>::Delete, COMDAT
; _pkData$ = ecx

; 111  : 			delete pkData;

  00000	85 c9		 test	 ecx, ecx
  00002	74 06		 je	 SHORT $LN3@Delete
  00004	8b 01		 mov	 eax, DWORD PTR [ecx]
  00006	6a 01		 push	 1
  00008	ff 10		 call	 DWORD PTR [eax]
$LN3@Delete:

; 112  : 		}

  0000a	c3		 ret	 0
?Delete@?$CDynamicPool@VCInstanceBase@@@@KAXPAVCInstanceBase@@@Z ENDP ; CDynamicPool<CInstanceBase>::Delete
_TEXT	ENDS
; Function compile flags: /Ogtp
; File C:\Program Files\Microsoft Visual Studio\2022\Community\VC\Tools\MSVC\14.44.35207\include\list
;	COMDAT ??0?$_List_val@U?$_List_simple_types@USEffectDamage@CInstanceBase@@@std@@@std@@QAE@XZ
_TEXT	SEGMENT
??0?$_List_val@U?$_List_simple_types@USEffectDamage@CInstanceBase@@@std@@@std@@QAE@XZ PROC ; std::_List_val<std::_List_simple_types<CInstanceBase::SEffectDamage> >::_List_val<std::_List_simple_types<CInstanceBase::SEffectDamage> >, COMDAT
; _this$ = ecx

; 353  :     _List_val() noexcept : _Myhead(), _Mysize(0) {} // initialize data

  00000	c7 01 00 00 00
	00		 mov	 DWORD PTR [ecx], 0
  00006	8b c1		 mov	 eax, ecx
  00008	c7 41 04 00 00
	00 00		 mov	 DWORD PTR [ecx+4], 0
  0000f	c3		 ret	 0
??0?$_List_val@U?$_List_simple_types@USEffectDamage@CInstanceBase@@@std@@@std@@QAE@XZ ENDP ; std::_List_val<std::_List_simple_types<CInstanceBase::SEffectDamage> >::_List_val<std::_List_simple_types<CInstanceBase::SEffectDamage> >
_TEXT	ENDS
; Function compile flags: /Ogtp
; File C:\Program Files\Microsoft Visual Studio\2022\Community\VC\Tools\MSVC\14.44.35207\include\xmemory
;	COMDAT ?allocate@?$allocator@U?$_List_node@USEffectDamage@CInstanceBase@@PAX@std@@@std@@QAEPAU?$_List_node@USEffectDamage@CInstanceBase@@PAX@2@I@Z
_TEXT	SEGMENT
__Count$dead$ = 8					; size = 4
?allocate@?$allocator@U?$_List_node@USEffectDamage@CInstanceBase@@PAX@std@@@std@@QAEPAU?$_List_node@USEffectDamage@CInstanceBase@@PAX@2@I@Z PROC ; std::allocator<std::_List_node<CInstanceBase::SEffectDamage,void *> >::allocate, COMDAT
; _this$dead$ = ecx

; 136  :         return ::operator new(_Bytes);

  00000	6a 18		 push	 24			; 00000018H
  00002	e8 00 00 00 00	 call	 ??2@YAPAXI@Z		; operator new
  00007	83 c4 04	 add	 esp, 4

; 989  :         static_assert(sizeof(value_type) > 0, "value_type must be complete before calling allocate.");
; 990  :         return static_cast<_Ty*>(_STD _Allocate<_New_alignof<_Ty>>(_Get_size_of_n<sizeof(_Ty)>(_Count)));
; 991  :     }

  0000a	c2 04 00	 ret	 4
?allocate@?$allocator@U?$_List_node@USEffectDamage@CInstanceBase@@PAX@std@@@std@@QAEPAU?$_List_node@USEffectDamage@CInstanceBase@@PAX@2@I@Z ENDP ; std::allocator<std::_List_node<CInstanceBase::SEffectDamage,void *> >::allocate
_TEXT	ENDS
; Function compile flags: /Ogtp
; File C:\Program Files\Microsoft Visual Studio\2022\Community\VC\Tools\MSVC\14.44.35207\include\xmemory
;	COMDAT ??0?$allocator@U?$_List_node@USEffectDamage@CInstanceBase@@PAX@std@@@std@@QAE@XZ
_TEXT	SEGMENT
??0?$allocator@U?$_List_node@USEffectDamage@CInstanceBase@@PAX@std@@@std@@QAE@XZ PROC ; std::allocator<std::_List_node<CInstanceBase::SEffectDamage,void *> >::allocator<std::_List_node<CInstanceBase::SEffectDamage,void *> >, COMDAT
; _this$ = ecx

; 974  :     constexpr allocator() noexcept {}

  00000	8b c1		 mov	 eax, ecx
  00002	c3		 ret	 0
??0?$allocator@U?$_List_node@USEffectDamage@CInstanceBase@@PAX@std@@@std@@QAE@XZ ENDP ; std::allocator<std::_List_node<CInstanceBase::SEffectDamage,void *> >::allocator<std::_List_node<CInstanceBase::SEffectDamage,void *> >
_TEXT	ENDS
; Function compile flags: /Ogtp
; File C:\Program Files\Microsoft Visual Studio\2022\Community\VC\Tools\MSVC\14.44.35207\include\list
;	COMDAT ?_Getal@?$list@USEffectDamage@CInstanceBase@@V?$allocator@USEffectDamage@CInstanceBase@@@std@@@std@@AAEAAV?$allocator@U?$_List_node@USEffectDamage@CInstanceBase@@PAX@std@@@2@XZ
_TEXT	SEGMENT
?_Getal@?$list@USEffectDamage@CInstanceBase@@V?$allocator@USEffectDamage@CInstanceBase@@@std@@@std@@AAEAAV?$allocator@U?$_List_node@USEffectDamage@CInstanceBase@@PAX@std@@@2@XZ PROC ; std::list<CInstanceBase::SEffectDamage,std::allocator<CInstanceBase::SEffectDamage> >::_Getal, COMDAT
; _this$ = ecx

; 1863 :         return _Mypair._Get_first();

  00000	8b c1		 mov	 eax, ecx

; 1864 :     }

  00002	c3		 ret	 0
?_Getal@?$list@USEffectDamage@CInstanceBase@@V?$allocator@USEffectDamage@CInstanceBase@@@std@@@std@@AAEAAV?$allocator@U?$_List_node@USEffectDamage@CInstanceBase@@PAX@std@@@2@XZ ENDP ; std::list<CInstanceBase::SEffectDamage,std::allocator<CInstanceBase::SEffectDamage> >::_Getal
_TEXT	ENDS
; Function compile flags: /Ogtp
; File C:\Program Files\Microsoft Visual Studio\2022\Community\VC\Tools\MSVC\14.44.35207\include\xmemory
;	COMDAT ?_Get_first@?$_Compressed_pair@V?$allocator@U?$_List_node@USCommand@CInstanceBase@@PAX@std@@@std@@V?$_List_val@U?$_List_simple_types@USCommand@CInstanceBase@@@std@@@2@$00@std@@QAEAAV?$allocator@U?$_List_node@USCommand@CInstanceBase@@PAX@std@@@2@XZ
_TEXT	SEGMENT
?_Get_first@?$_Compressed_pair@V?$allocator@U?$_List_node@USCommand@CInstanceBase@@PAX@std@@@std@@V?$_List_val@U?$_List_simple_types@USCommand@CInstanceBase@@@std@@@2@$00@std@@QAEAAV?$allocator@U?$_List_node@USCommand@CInstanceBase@@PAX@std@@@2@XZ PROC ; std::_Compressed_pair<std::allocator<std::_List_node<CInstanceBase::SCommand,void *> >,std::_List_val<std::_List_simple_types<CInstanceBase::SCommand> >,1>::_Get_first, COMDAT
; _this$ = ecx

; 1539 :         return *this;

  00000	8b c1		 mov	 eax, ecx

; 1540 :     }

  00002	c3		 ret	 0
?_Get_first@?$_Compressed_pair@V?$allocator@U?$_List_node@USCommand@CInstanceBase@@PAX@std@@@std@@V?$_List_val@U?$_List_simple_types@USCommand@CInstanceBase@@@std@@@2@$00@std@@QAEAAV?$allocator@U?$_List_node@USCommand@CInstanceBase@@PAX@std@@@2@XZ ENDP ; std::_Compressed_pair<std::allocator<std::_List_node<CInstanceBase::SCommand,void *> >,std::_List_val<std::_List_simple_types<CInstanceBase::SCommand> >,1>::_Get_first
_TEXT	ENDS
; Function compile flags: /Ogtp
; File C:\Program Files\Microsoft Visual Studio\2022\Community\VC\Tools\MSVC\14.44.35207\include\list
;	COMDAT ?_Orphan_ptr2@?$_List_val@U?$_List_simple_types@USCommand@CInstanceBase@@@std@@@std@@QAEXPAU?$_List_node@USCommand@CInstanceBase@@PAX@2@@Z
_TEXT	SEGMENT
__Ptr$dead$ = 8						; size = 4
?_Orphan_ptr2@?$_List_val@U?$_List_simple_types@USCommand@CInstanceBase@@@std@@@std@@QAEXPAU?$_List_node@USCommand@CInstanceBase@@PAX@2@@Z PROC ; std::_List_val<std::_List_simple_types<CInstanceBase::SCommand> >::_Orphan_ptr2, COMDAT
; _this$dead$ = ecx

; 366  : #if _ITERATOR_DEBUG_LEVEL == 2
; 367  :         _Lockit _Lock(_LOCK_DEBUG);
; 368  :         _Iterator_base12** _Pnext = &this->_Myproxy->_Myfirstiter;
; 369  :         const auto _Head          = _Myhead;
; 370  :         while (*_Pnext) {
; 371  :             _Iterator_base12** _Pnextnext = &(*_Pnext)->_Mynextiter;
; 372  :             const auto _Pnextptr          = static_cast<_List_const_iterator<_List_val>&>(**_Pnext)._Ptr;
; 373  :             if (_Pnextptr == _Head || _Pnextptr != _Ptr) {
; 374  :                 // iterator is end() or doesn't point at the one we are orphaning, move on
; 375  :                 _Pnext = _Pnextnext;
; 376  :             } else { // orphan the iterator
; 377  :                 (*_Pnext)->_Myproxy = nullptr;
; 378  :                 *_Pnext             = *_Pnextnext;
; 379  :             }
; 380  :         }
; 381  : #else // ^^^ _ITERATOR_DEBUG_LEVEL == 2 / _ITERATOR_DEBUG_LEVEL != 2 vvv
; 382  :         (void) _Ptr;
; 383  : #endif // ^^^ _ITERATOR_DEBUG_LEVEL != 2 ^^^
; 384  :     }

  00000	c2 04 00	 ret	 4
?_Orphan_ptr2@?$_List_val@U?$_List_simple_types@USCommand@CInstanceBase@@@std@@@std@@QAEXPAU?$_List_node@USCommand@CInstanceBase@@PAX@2@@Z ENDP ; std::_List_val<std::_List_simple_types<CInstanceBase::SCommand> >::_Orphan_ptr2
_TEXT	ENDS
; Function compile flags: /Ogtp
; File C:\Program Files\Microsoft Visual Studio\2022\Community\VC\Tools\MSVC\14.44.35207\include\list
;	COMDAT ??0?$_List_val@U?$_List_simple_types@USCommand@CInstanceBase@@@std@@@std@@QAE@XZ
_TEXT	SEGMENT
??0?$_List_val@U?$_List_simple_types@USCommand@CInstanceBase@@@std@@@std@@QAE@XZ PROC ; std::_List_val<std::_List_simple_types<CInstanceBase::SCommand> >::_List_val<std::_List_simple_types<CInstanceBase::SCommand> >, COMDAT
; _this$ = ecx

; 353  :     _List_val() noexcept : _Myhead(), _Mysize(0) {} // initialize data

  00000	c7 01 00 00 00
	00		 mov	 DWORD PTR [ecx], 0
  00006	8b c1		 mov	 eax, ecx
  00008	c7 41 04 00 00
	00 00		 mov	 DWORD PTR [ecx+4], 0
  0000f	c3		 ret	 0
??0?$_List_val@U?$_List_simple_types@USCommand@CInstanceBase@@@std@@@std@@QAE@XZ ENDP ; std::_List_val<std::_List_simple_types<CInstanceBase::SCommand> >::_List_val<std::_List_simple_types<CInstanceBase::SCommand> >
_TEXT	ENDS
; Function compile flags: /Ogtp
; File C:\Program Files\Microsoft Visual Studio\2022\Community\VC\Tools\MSVC\14.44.35207\include\xmemory
;	COMDAT ?allocate@?$allocator@U?$_List_node@USCommand@CInstanceBase@@PAX@std@@@std@@QAEPAU?$_List_node@USCommand@CInstanceBase@@PAX@2@I@Z
_TEXT	SEGMENT
__Count$dead$ = 8					; size = 4
?allocate@?$allocator@U?$_List_node@USCommand@CInstanceBase@@PAX@std@@@std@@QAEPAU?$_List_node@USCommand@CInstanceBase@@PAX@2@I@Z PROC ; std::allocator<std::_List_node<CInstanceBase::SCommand,void *> >::allocate, COMDAT
; _this$dead$ = ecx

; 989  :         static_assert(sizeof(value_type) > 0, "value_type must be complete before calling allocate.");
; 990  :         return static_cast<_Ty*>(_STD _Allocate<_New_alignof<_Ty>>(_Get_size_of_n<sizeof(_Ty)>(_Count)));

  00000	6a 2c		 push	 44			; 0000002cH
  00002	e8 00 00 00 00	 call	 ??2@YAPAXI@Z		; operator new
  00007	83 c4 04	 add	 esp, 4

; 991  :     }

  0000a	c2 04 00	 ret	 4
?allocate@?$allocator@U?$_List_node@USCommand@CInstanceBase@@PAX@std@@@std@@QAEPAU?$_List_node@USCommand@CInstanceBase@@PAX@2@I@Z ENDP ; std::allocator<std::_List_node<CInstanceBase::SCommand,void *> >::allocate
_TEXT	ENDS
; Function compile flags: /Ogtp
; File C:\Program Files\Microsoft Visual Studio\2022\Community\VC\Tools\MSVC\14.44.35207\include\xmemory
;	COMDAT ??0?$allocator@U?$_List_node@USCommand@CInstanceBase@@PAX@std@@@std@@QAE@XZ
_TEXT	SEGMENT
??0?$allocator@U?$_List_node@USCommand@CInstanceBase@@PAX@std@@@std@@QAE@XZ PROC ; std::allocator<std::_List_node<CInstanceBase::SCommand,void *> >::allocator<std::_List_node<CInstanceBase::SCommand,void *> >, COMDAT
; _this$ = ecx

; 974  :     constexpr allocator() noexcept {}

  00000	8b c1		 mov	 eax, ecx
  00002	c3		 ret	 0
??0?$allocator@U?$_List_node@USCommand@CInstanceBase@@PAX@std@@@std@@QAE@XZ ENDP ; std::allocator<std::_List_node<CInstanceBase::SCommand,void *> >::allocator<std::_List_node<CInstanceBase::SCommand,void *> >
_TEXT	ENDS
; Function compile flags: /Ogtp
; File C:\Program Files\Microsoft Visual Studio\2022\Community\VC\Tools\MSVC\14.44.35207\include\list
;	COMDAT ?max_size@?$list@USCommand@CInstanceBase@@V?$allocator@USCommand@CInstanceBase@@@std@@@std@@QBEIXZ
_TEXT	SEGMENT
?max_size@?$list@USCommand@CInstanceBase@@V?$allocator@USCommand@CInstanceBase@@@std@@@std@@QBEIXZ PROC ; std::list<CInstanceBase::SCommand,std::allocator<CInstanceBase::SCommand> >::max_size, COMDAT
; _this$dead$ = ecx

; 1208 :         return (_STD min)(

  00000	b8 5d 74 d1 05	 mov	 eax, 97612893		; 05d1745dH

; 1209 :             static_cast<size_type>(_STD _Max_limit<difference_type>()), _Alnode_traits::max_size(_Getal()));
; 1210 :     }

  00005	c3		 ret	 0
?max_size@?$list@USCommand@CInstanceBase@@V?$allocator@USCommand@CInstanceBase@@@std@@@std@@QBEIXZ ENDP ; std::list<CInstanceBase::SCommand,std::allocator<CInstanceBase::SCommand> >::max_size
_TEXT	ENDS
; Function compile flags: /Ogtp
; File C:\Program Files\Microsoft Visual Studio\2022\Community\VC\Tools\MSVC\14.44.35207\include\vector
;	COMDAT ?_Getal@?$vector@PAVCInstanceBase@@V?$allocator@PAVCInstanceBase@@@std@@@std@@AAEAAV?$allocator@PAVCInstanceBase@@@2@XZ
_TEXT	SEGMENT
?_Getal@?$vector@PAVCInstanceBase@@V?$allocator@PAVCInstanceBase@@@std@@@std@@AAEAAV?$allocator@PAVCInstanceBase@@@2@XZ PROC ; std::vector<CInstanceBase *,std::allocator<CInstanceBase *> >::_Getal, COMDAT
; _this$ = ecx

; 2227 :         return _Mypair._Get_first();

  00000	8b c1		 mov	 eax, ecx

; 2228 :     }

  00002	c3		 ret	 0
?_Getal@?$vector@PAVCInstanceBase@@V?$allocator@PAVCInstanceBase@@@std@@@std@@AAEAAV?$allocator@PAVCInstanceBase@@@2@XZ ENDP ; std::vector<CInstanceBase *,std::allocator<CInstanceBase *> >::_Getal
_TEXT	ENDS
; Function compile flags: /Ogtp
; File C:\Program Files\Microsoft Visual Studio\2022\Community\VC\Tools\MSVC\14.44.35207\include\vector
;	COMDAT ?_Orphan_range@?$vector@PAVCInstanceBase@@V?$allocator@PAVCInstanceBase@@@std@@@std@@ABEXPAPAVCInstanceBase@@0@Z
_TEXT	SEGMENT
___formal$dead$ = 8					; size = 4
___formal$dead$ = 12					; size = 4
?_Orphan_range@?$vector@PAVCInstanceBase@@V?$allocator@PAVCInstanceBase@@@std@@@std@@ABEXPAPAVCInstanceBase@@0@Z PROC ; std::vector<CInstanceBase *,std::allocator<CInstanceBase *> >::_Orphan_range, COMDAT
; _this$dead$ = ecx

; 2223 :     _CONSTEXPR20 void _Orphan_range(pointer, pointer) const {}

  00000	c2 08 00	 ret	 8
?_Orphan_range@?$vector@PAVCInstanceBase@@V?$allocator@PAVCInstanceBase@@@std@@@std@@ABEXPAPAVCInstanceBase@@0@Z ENDP ; std::vector<CInstanceBase *,std::allocator<CInstanceBase *> >::_Orphan_range
_TEXT	ENDS
; Function compile flags: /Ogtp
; File C:\Program Files\Microsoft Visual Studio\2022\Community\VC\Tools\MSVC\14.44.35207\include\vector
;	COMDAT ?_Xlength@?$vector@PAVCInstanceBase@@V?$allocator@PAVCInstanceBase@@@std@@@std@@CAXXZ
_TEXT	SEGMENT
?_Xlength@?$vector@PAVCInstanceBase@@V?$allocator@PAVCInstanceBase@@@std@@@std@@CAXXZ PROC ; std::vector<CInstanceBase *,std::allocator<CInstanceBase *> >::_Xlength, COMDAT

; 2184 :         _Xlength_error("vector too long");

  00000	68 00 00 00 00	 push	 OFFSET ??_C@_0BA@FOIKENOD@vector?5too?5long@
  00005	e8 00 00 00 00	 call	 ?_Xlength_error@std@@YAXPBD@Z ; std::_Xlength_error
$LN3@Xlength:
  0000a	cc		 int	 3
?_Xlength@?$vector@PAVCInstanceBase@@V?$allocator@PAVCInstanceBase@@@std@@@std@@CAXXZ ENDP ; std::vector<CInstanceBase *,std::allocator<CInstanceBase *> >::_Xlength
_TEXT	ENDS
; Function compile flags: /Ogtp
; File C:\Program Files\Microsoft Visual Studio\2022\Community\VC\Tools\MSVC\14.44.35207\include\vector
; File C:\Program Files\Microsoft Visual Studio\2022\Community\VC\Tools\MSVC\14.44.35207\include\xmemory
; File C:\Program Files\Microsoft Visual Studio\2022\Community\VC\Tools\MSVC\14.44.35207\include\vector
; File C:\Program Files\Microsoft Visual Studio\2022\Community\VC\Tools\MSVC\14.44.35207\include\xmemory
; File C:\Program Files\Microsoft Visual Studio\2022\Community\VC\Tools\MSVC\14.44.35207\include\vector
; File C:\Program Files\Microsoft Visual Studio\2022\Community\VC\Tools\MSVC\14.44.35207\include\xmemory
; File C:\Program Files\Microsoft Visual Studio\2022\Community\VC\Tools\MSVC\14.44.35207\include\vector
;	COMDAT ?_Tidy@?$vector@PAVCInstanceBase@@V?$allocator@PAVCInstanceBase@@@std@@@std@@AAEXXZ
_TEXT	SEGMENT
?_Tidy@?$vector@PAVCInstanceBase@@V?$allocator@PAVCInstanceBase@@@std@@@std@@AAEXXZ PROC ; std::vector<CInstanceBase *,std::allocator<CInstanceBase *> >::_Tidy, COMDAT
; _this$ = ecx

; 2081 :     _CONSTEXPR20 void _Tidy() noexcept { // free all storage

  00000	56		 push	 esi
  00001	8b f1		 mov	 esi, ecx

; 2082 :         auto& _Al         = _Getal();
; 2083 :         auto& _My_data    = _Mypair._Myval2;
; 2084 :         pointer& _Myfirst = _My_data._Myfirst;
; 2085 :         pointer& _Mylast  = _My_data._Mylast;
; 2086 :         pointer& _Myend   = _My_data._Myend;
; 2087 : 
; 2088 :         _My_data._Orphan_all();
; 2089 : 
; 2090 :         if (_Myfirst) { // destroy and deallocate old array

  00003	8b 06		 mov	 eax, DWORD PTR [esi]
  00005	85 c0		 test	 eax, eax
  00007	74 40		 je	 SHORT $LN2@Tidy

; 2091 :             _STD _Destroy_range(_Myfirst, _Mylast, _Al);
; 2092 :             _ASAN_VECTOR_REMOVE;
; 2093 :             _Al.deallocate(_Myfirst, static_cast<size_type>(_Myend - _Myfirst));

  00009	8b 4e 08	 mov	 ecx, DWORD PTR [esi+8]
  0000c	2b c8		 sub	 ecx, eax
; File C:\Program Files\Microsoft Visual Studio\2022\Community\VC\Tools\MSVC\14.44.35207\include\xmemory

; 985  :         _STD _Deallocate<_New_alignof<_Ty>>(_Ptr, sizeof(_Ty) * _Count);

  0000e	83 e1 fc	 and	 ecx, -4			; fffffffcH

; 284  :         if (_Bytes >= _Big_allocation_threshold) {

  00011	81 f9 00 10 00
	00		 cmp	 ecx, 4096		; 00001000H
  00017	72 12		 jb	 SHORT $LN16@Tidy

; 205  :     const uintptr_t _Ptr_container   = _Ptr_user[-1];

  00019	8b 50 fc	 mov	 edx, DWORD PTR [eax-4]
  0001c	83 c1 23	 add	 ecx, 35			; 00000023H

; 206  : 
; 207  :     // If the following asserts, it likely means that we are performing
; 208  :     // an aligned delete on memory coming from an unaligned allocation.
; 209  :     _STL_ASSERT(_Ptr_user[-2] == _Big_allocation_sentinel, "invalid argument");
; 210  : 
; 211  :     // Extra paranoia on aligned allocation/deallocation; ensure _Ptr_container is
; 212  :     // in range [_Min_back_shift, _Non_user_size]
; 213  : #ifdef _DEBUG
; 214  :     constexpr uintptr_t _Min_back_shift = 2 * sizeof(void*);
; 215  : #else // ^^^ defined(_DEBUG) / !defined(_DEBUG) vvv
; 216  :     constexpr uintptr_t _Min_back_shift = sizeof(void*);
; 217  : #endif // ^^^ !defined(_DEBUG) ^^^
; 218  :     const uintptr_t _Back_shift = reinterpret_cast<uintptr_t>(_Ptr) - _Ptr_container;

  0001f	2b c2		 sub	 eax, edx

; 219  :     _STL_VERIFY(_Back_shift >= _Min_back_shift && _Back_shift <= _Non_user_size, "invalid argument");

  00021	83 c0 fc	 add	 eax, -4			; fffffffcH
  00024	83 f8 1f	 cmp	 eax, 31			; 0000001fH
  00027	77 22		 ja	 SHORT $LN15@Tidy

; 220  :     _Ptr = reinterpret_cast<void*>(_Ptr_container);

  00029	8b c2		 mov	 eax, edx
$LN16@Tidy:

; 289  :         ::operator delete(_Ptr, _Bytes);

  0002b	51		 push	 ecx
  0002c	50		 push	 eax
  0002d	e8 00 00 00 00	 call	 ??3@YAXPAXI@Z		; operator delete
; File C:\Program Files\Microsoft Visual Studio\2022\Community\VC\Tools\MSVC\14.44.35207\include\vector

; 2095 :             _Myfirst = nullptr;

  00032	c7 06 00 00 00
	00		 mov	 DWORD PTR [esi], 0
; File C:\Program Files\Microsoft Visual Studio\2022\Community\VC\Tools\MSVC\14.44.35207\include\xmemory

; 289  :         ::operator delete(_Ptr, _Bytes);

  00038	83 c4 08	 add	 esp, 8
; File C:\Program Files\Microsoft Visual Studio\2022\Community\VC\Tools\MSVC\14.44.35207\include\vector

; 2096 :             _Mylast  = nullptr;

  0003b	c7 46 04 00 00
	00 00		 mov	 DWORD PTR [esi+4], 0

; 2097 :             _Myend   = nullptr;

  00042	c7 46 08 00 00
	00 00		 mov	 DWORD PTR [esi+8], 0
$LN2@Tidy:

; 2099 :     }

  00049	5e		 pop	 esi
  0004a	c3		 ret	 0
$LN15@Tidy:
; File C:\Program Files\Microsoft Visual Studio\2022\Community\VC\Tools\MSVC\14.44.35207\include\xmemory

; 219  :     _STL_VERIFY(_Back_shift >= _Min_back_shift && _Back_shift <= _Non_user_size, "invalid argument");

  0004b	6a 00		 push	 0
  0004d	6a 00		 push	 0
  0004f	6a 00		 push	 0
  00051	6a 00		 push	 0
  00053	6a 00		 push	 0
  00055	e8 00 00 00 00	 call	 __invoke_watson
$LN23@Tidy:
  0005a	cc		 int	 3
?_Tidy@?$vector@PAVCInstanceBase@@V?$allocator@PAVCInstanceBase@@@std@@@std@@AAEXXZ ENDP ; std::vector<CInstanceBase *,std::allocator<CInstanceBase *> >::_Tidy
_TEXT	ENDS
; Function compile flags: /Ogtp
; File C:\Program Files\Microsoft Visual Studio\2022\Community\VC\Tools\MSVC\14.44.35207\include\vector
;	COMDAT ?capacity@?$vector@PAVCInstanceBase@@V?$allocator@PAVCInstanceBase@@@std@@@std@@QBEIXZ
_TEXT	SEGMENT
?capacity@?$vector@PAVCInstanceBase@@V?$allocator@PAVCInstanceBase@@@std@@@std@@QBEIXZ PROC ; std::vector<CInstanceBase *,std::allocator<CInstanceBase *> >::capacity, COMDAT
; _this$ = ecx

; 1923 :         auto& _My_data = _Mypair._Myval2;
; 1924 :         return static_cast<size_type>(_My_data._Myend - _My_data._Myfirst);

  00000	8b 41 08	 mov	 eax, DWORD PTR [ecx+8]
  00003	2b 01		 sub	 eax, DWORD PTR [ecx]
  00005	c1 f8 02	 sar	 eax, 2

; 1925 :     }

  00008	c3		 ret	 0
?capacity@?$vector@PAVCInstanceBase@@V?$allocator@PAVCInstanceBase@@@std@@@std@@QBEIXZ ENDP ; std::vector<CInstanceBase *,std::allocator<CInstanceBase *> >::capacity
_TEXT	ENDS
; Function compile flags: /Ogtp
; File C:\Program Files\Microsoft Visual Studio\2022\Community\VC\Tools\MSVC\14.44.35207\include\vector
;	COMDAT ?max_size@?$vector@PAVCInstanceBase@@V?$allocator@PAVCInstanceBase@@@std@@@std@@QBEIXZ
_TEXT	SEGMENT
?max_size@?$vector@PAVCInstanceBase@@V?$allocator@PAVCInstanceBase@@@std@@@std@@QBEIXZ PROC ; std::vector<CInstanceBase *,std::allocator<CInstanceBase *> >::max_size, COMDAT
; _this$dead$ = ecx

; 1919 :         return (_STD min)(static_cast<size_type>(_STD _Max_limit<difference_type>()), _Alty_traits::max_size(_Getal()));

  00000	b8 ff ff ff 3f	 mov	 eax, 1073741823		; 3fffffffH

; 1920 :     }

  00005	c3		 ret	 0
?max_size@?$vector@PAVCInstanceBase@@V?$allocator@PAVCInstanceBase@@@std@@@std@@QBEIXZ ENDP ; std::vector<CInstanceBase *,std::allocator<CInstanceBase *> >::max_size
_TEXT	ENDS
; Function compile flags: /Ogtp
; File C:\Program Files\Microsoft Visual Studio\2022\Community\VC\Tools\MSVC\14.44.35207\include\vector
;	COMDAT ?_Unchecked_end@?$vector@PAVCInstanceBase@@V?$allocator@PAVCInstanceBase@@@std@@@std@@QAEPAPAVCInstanceBase@@XZ
_TEXT	SEGMENT
?_Unchecked_end@?$vector@PAVCInstanceBase@@V?$allocator@PAVCInstanceBase@@@std@@@std@@QAEPAPAVCInstanceBase@@XZ PROC ; std::vector<CInstanceBase *,std::allocator<CInstanceBase *> >::_Unchecked_end, COMDAT
; _this$ = ecx

; 1901 :         return _Unfancy_maybe_null(_Mypair._Myval2._Mylast);

  00000	8b 41 04	 mov	 eax, DWORD PTR [ecx+4]

; 1902 :     }

  00003	c3		 ret	 0
?_Unchecked_end@?$vector@PAVCInstanceBase@@V?$allocator@PAVCInstanceBase@@@std@@@std@@QAEPAPAVCInstanceBase@@XZ ENDP ; std::vector<CInstanceBase *,std::allocator<CInstanceBase *> >::_Unchecked_end
_TEXT	ENDS
; Function compile flags: /Ogtp
; File C:\Program Files\Microsoft Visual Studio\2022\Community\VC\Tools\MSVC\14.44.35207\include\vector
;	COMDAT ?_Unchecked_begin@?$vector@PAVCInstanceBase@@V?$allocator@PAVCInstanceBase@@@std@@@std@@QAEPAPAVCInstanceBase@@XZ
_TEXT	SEGMENT
?_Unchecked_begin@?$vector@PAVCInstanceBase@@V?$allocator@PAVCInstanceBase@@@std@@@std@@QAEPAPAVCInstanceBase@@XZ PROC ; std::vector<CInstanceBase *,std::allocator<CInstanceBase *> >::_Unchecked_begin, COMDAT
; _this$ = ecx

; 1893 :         return _Unfancy_maybe_null(_Mypair._Myval2._Myfirst);

  00000	8b 01		 mov	 eax, DWORD PTR [ecx]

; 1894 :     }

  00002	c3		 ret	 0
?_Unchecked_begin@?$vector@PAVCInstanceBase@@V?$allocator@PAVCInstanceBase@@@std@@@std@@QAEPAPAVCInstanceBase@@XZ ENDP ; std::vector<CInstanceBase *,std::allocator<CInstanceBase *> >::_Unchecked_begin
_TEXT	ENDS
; Function compile flags: /Ogtp
; File C:\Program Files\Microsoft Visual Studio\2022\Community\VC\Tools\MSVC\14.44.35207\include\vector
;	COMDAT ?clear@?$vector@PAVCInstanceBase@@V?$allocator@PAVCInstanceBase@@@std@@@std@@QAEXXZ
_TEXT	SEGMENT
?clear@?$vector@PAVCInstanceBase@@V?$allocator@PAVCInstanceBase@@@std@@@std@@QAEXXZ PROC ; std::vector<CInstanceBase *,std::allocator<CInstanceBase *> >::clear, COMDAT
; _this$ = ecx

; 1808 :         auto& _My_data    = _Mypair._Myval2;
; 1809 :         pointer& _Myfirst = _My_data._Myfirst;
; 1810 :         pointer& _Mylast  = _My_data._Mylast;
; 1811 : 
; 1812 :         if (_Myfirst == _Mylast) { // already empty, nothing to do

  00000	8b 01		 mov	 eax, DWORD PTR [ecx]
  00002	3b 41 04	 cmp	 eax, DWORD PTR [ecx+4]
  00005	74 03		 je	 SHORT $LN1@clear

; 1813 :             // This is an optimization for debug mode: we can avoid taking the debug lock to invalidate iterators.
; 1814 :             // Note that when clearing an empty vector, this will preserve past-the-end iterators, which is allowed by
; 1815 :             // N4950 [sequence.reqmts]/54 "a.clear() [...] may invalidate the past-the-end iterator".
; 1816 :             return;
; 1817 :         }
; 1818 : 
; 1819 :         _My_data._Orphan_all();
; 1820 :         _Destroy_range(_Myfirst, _Mylast, _Getal());
; 1821 :         _ASAN_VECTOR_MODIFY(static_cast<difference_type>(_Myfirst - _Mylast)); // negative when destroying elements
; 1822 :         _Mylast = _Myfirst;

  00007	89 41 04	 mov	 DWORD PTR [ecx+4], eax
$LN1@clear:

; 1823 :     }

  0000a	c3		 ret	 0
?clear@?$vector@PAVCInstanceBase@@V?$allocator@PAVCInstanceBase@@@std@@@std@@QAEXXZ ENDP ; std::vector<CInstanceBase *,std::allocator<CInstanceBase *> >::clear
_TEXT	ENDS
; Function compile flags: /Ogtp
; File C:\Program Files\Microsoft Visual Studio\2022\Community\VC\Tools\MSVC\14.44.35207\include\xmemory
;	COMDAT ?_Get_first@?$_Compressed_pair@V?$allocator@U?$_Tree_node@U?$pair@$$CBKK@std@@PAX@std@@@std@@V?$_Tree_val@U?$_Tree_simple_types@U?$pair@$$CBKK@std@@@std@@@2@$00@std@@QAEAAV?$allocator@U?$_Tree_node@U?$pair@$$CBKK@std@@PAX@std@@@2@XZ
_TEXT	SEGMENT
?_Get_first@?$_Compressed_pair@V?$allocator@U?$_Tree_node@U?$pair@$$CBKK@std@@PAX@std@@@std@@V?$_Tree_val@U?$_Tree_simple_types@U?$pair@$$CBKK@std@@@std@@@2@$00@std@@QAEAAV?$allocator@U?$_Tree_node@U?$pair@$$CBKK@std@@PAX@std@@@2@XZ PROC ; std::_Compressed_pair<std::allocator<std::_Tree_node<std::pair<unsigned long const ,unsigned long>,void *> >,std::_Tree_val<std::_Tree_simple_types<std::pair<unsigned long const ,unsigned long> > >,1>::_Get_first, COMDAT
; _this$ = ecx

; 1539 :         return *this;

  00000	8b c1		 mov	 eax, ecx

; 1540 :     }

  00002	c3		 ret	 0
?_Get_first@?$_Compressed_pair@V?$allocator@U?$_Tree_node@U?$pair@$$CBKK@std@@PAX@std@@@std@@V?$_Tree_val@U?$_Tree_simple_types@U?$pair@$$CBKK@std@@@std@@@2@$00@std@@QAEAAV?$allocator@U?$_Tree_node@U?$pair@$$CBKK@std@@PAX@std@@@2@XZ ENDP ; std::_Compressed_pair<std::allocator<std::_Tree_node<std::pair<unsigned long const ,unsigned long>,void *> >,std::_Tree_val<std::_Tree_simple_types<std::pair<unsigned long const ,unsigned long> > >,1>::_Get_first
_TEXT	ENDS
; Function compile flags: /Ogtp
; File C:\Program Files\Microsoft Visual Studio\2022\Community\VC\Tools\MSVC\14.44.35207\include\xtree
; File C:\Program Files\Microsoft Visual Studio\2022\Community\VC\Tools\MSVC\14.44.35207\include\xmemory
; File C:\Program Files\Microsoft Visual Studio\2022\Community\VC\Tools\MSVC\14.44.35207\include\xtree
; File C:\Program Files\Microsoft Visual Studio\2022\Community\VC\Tools\MSVC\14.44.35207\include\xmemory
; File C:\Program Files\Microsoft Visual Studio\2022\Community\VC\Tools\MSVC\14.44.35207\include\xtree
;	COMDAT ?_Alloc_sentinel_and_proxy@?$_Tree@V?$_Tmap_traits@KKU?$less@K@std@@V?$allocator@U?$pair@$$CBKK@std@@@2@$0A@@std@@@std@@IAEXXZ
_TEXT	SEGMENT
?_Alloc_sentinel_and_proxy@?$_Tree@V?$_Tmap_traits@KKU?$less@K@std@@V?$allocator@U?$pair@$$CBKK@std@@@2@$0A@@std@@@std@@IAEXXZ PROC ; std::_Tree<std::_Tmap_traits<unsigned long,unsigned long,std::less<unsigned long>,std::allocator<std::pair<unsigned long const ,unsigned long> >,0> >::_Alloc_sentinel_and_proxy, COMDAT
; _this$ = ecx

; 1953 :     void _Alloc_sentinel_and_proxy() {

  00000	56		 push	 esi
; File C:\Program Files\Microsoft Visual Studio\2022\Community\VC\Tools\MSVC\14.44.35207\include\xmemory

; 136  :         return ::operator new(_Bytes);

  00001	6a 18		 push	 24			; 00000018H
; File C:\Program Files\Microsoft Visual Studio\2022\Community\VC\Tools\MSVC\14.44.35207\include\xtree

; 1953 :     void _Alloc_sentinel_and_proxy() {

  00003	8b f1		 mov	 esi, ecx
; File C:\Program Files\Microsoft Visual Studio\2022\Community\VC\Tools\MSVC\14.44.35207\include\xmemory

; 136  :         return ::operator new(_Bytes);

  00005	e8 00 00 00 00	 call	 ??2@YAPAXI@Z		; operator new
  0000a	83 c4 04	 add	 esp, 4
; File C:\Program Files\Microsoft Visual Studio\2022\Community\VC\Tools\MSVC\14.44.35207\include\xtree

; 346  :         _Construct_in_place(_Pnode->_Left, _Pnode);

  0000d	89 00		 mov	 DWORD PTR [eax], eax

; 347  :         _Construct_in_place(_Pnode->_Parent, _Pnode);

  0000f	89 40 04	 mov	 DWORD PTR [eax+4], eax

; 348  :         _Construct_in_place(_Pnode->_Right, _Pnode);

  00012	89 40 08	 mov	 DWORD PTR [eax+8], eax

; 349  :         _Pnode->_Color = _Black;

  00015	66 c7 40 0c 01
	01		 mov	 WORD PTR [eax+12], 257	; 00000101H

; 1954 :         const auto _Scary = _Get_scary();
; 1955 :         auto&& _Alproxy   = _GET_PROXY_ALLOCATOR(_Alnode, _Getal());
; 1956 :         _Container_proxy_ptr<_Alnode> _Proxy(_Alproxy, *_Scary);
; 1957 :         _Scary->_Myhead = _Node::_Buyheadnode(_Getal());

  0001b	89 06		 mov	 DWORD PTR [esi], eax
  0001d	5e		 pop	 esi

; 1958 :         _Proxy._Release();
; 1959 :     }

  0001e	c3		 ret	 0
?_Alloc_sentinel_and_proxy@?$_Tree@V?$_Tmap_traits@KKU?$less@K@std@@V?$allocator@U?$pair@$$CBKK@std@@@2@$0A@@std@@@std@@IAEXXZ ENDP ; std::_Tree<std::_Tmap_traits<unsigned long,unsigned long,std::less<unsigned long>,std::allocator<std::pair<unsigned long const ,unsigned long> >,0> >::_Alloc_sentinel_and_proxy
_TEXT	ENDS
; Function compile flags: /Ogtp
; File C:\Program Files\Microsoft Visual Studio\2022\Community\VC\Tools\MSVC\14.44.35207\include\__msvc_string_view.hpp
;	COMDAT ?find@?$_Narrow_char_traits@DH@std@@SAPBDQBDIABD@Z
_TEXT	SEGMENT
__Ch$ = 8						; size = 4
?find@?$_Narrow_char_traits@DH@std@@SAPBDQBDIABD@Z PROC	; std::_Narrow_char_traits<char,int>::find, COMDAT
; __First$ = ecx
; __Count$ = edx

; 464  :         const _Elem& _Ch) noexcept /* strengthened */ {

  00000	55		 push	 ebp
  00001	8b ec		 mov	 ebp, esp

; 465  :         // look for _Ch in [_First, _First + _Count)
; 466  : #if _HAS_CXX17
; 467  : #ifdef __cpp_char8_t
; 468  :         if constexpr (is_same_v<_Elem, char8_t>) {
; 469  : #if _HAS_U8_INTRINSICS
; 470  :             return __builtin_u8memchr(_First, _Ch, _Count);
; 471  : #else // ^^^ use u8 intrinsics / no u8 intrinsics vvv
; 472  :             return _Primary_char_traits::find(_First, _Count, _Ch);
; 473  : #endif // ^^^ no u8 intrinsics ^^^
; 474  :         } else
; 475  : #endif // defined(__cpp_char8_t)
; 476  :         {
; 477  :             return __builtin_char_memchr(_First, _Ch, _Count);

  00003	8b 45 08	 mov	 eax, DWORD PTR __Ch$[ebp]
  00006	52		 push	 edx
  00007	0f be 00	 movsx	 eax, BYTE PTR [eax]
  0000a	50		 push	 eax
  0000b	51		 push	 ecx
  0000c	e8 00 00 00 00	 call	 _memchr
  00011	83 c4 0c	 add	 esp, 12			; 0000000cH

; 478  :         }
; 479  : #else // ^^^ _HAS_CXX17 / !_HAS_CXX17 vvv
; 480  :         return static_cast<const _Elem*>(_CSTD memchr(_First, _Ch, _Count));
; 481  : #endif // ^^^ !_HAS_CXX17 ^^^
; 482  :     }

  00014	5d		 pop	 ebp
  00015	c3		 ret	 0
?find@?$_Narrow_char_traits@DH@std@@SAPBDQBDIABD@Z ENDP	; std::_Narrow_char_traits<char,int>::find
_TEXT	ENDS
; Function compile flags: /Ogtp
; File C:\Program Files\Microsoft Visual Studio\2022\Community\VC\Tools\MSVC\14.44.35207\include\xmemory
; File C:\Program Files\Microsoft Visual Studio\2022\Community\VC\Tools\MSVC\14.44.35207\include\xtree
; File C:\Program Files\Microsoft Visual Studio\2022\Community\VC\Tools\MSVC\14.44.35207\include\xmemory
; File C:\Program Files\Microsoft Visual Studio\2022\Community\VC\Tools\MSVC\14.44.35207\include\xtree
; File C:\Program Files\Microsoft Visual Studio\2022\Community\VC\Tools\MSVC\14.44.35207\include\xmemory
;	COMDAT ??$?0$$V@?$_Compressed_pair@V?$allocator@U?$_Tree_node@U?$pair@$$CBKK@std@@PAX@std@@@std@@V?$_Tree_val@U?$_Tree_simple_types@U?$pair@$$CBKK@std@@@std@@@2@$00@std@@QAE@U_Zero_then_variadic_args_t@1@@Z
_TEXT	SEGMENT
___formal$ = 8						; size = 1
??$?0$$V@?$_Compressed_pair@V?$allocator@U?$_Tree_node@U?$pair@$$CBKK@std@@PAX@std@@@std@@V?$_Tree_val@U?$_Tree_simple_types@U?$pair@$$CBKK@std@@@std@@@2@$00@std@@QAE@U_Zero_then_variadic_args_t@1@@Z PROC ; std::_Compressed_pair<std::allocator<std::_Tree_node<std::pair<unsigned long const ,unsigned long>,void *> >,std::_Tree_val<std::_Tree_simple_types<std::pair<unsigned long const ,unsigned long> > >,1>::_Compressed_pair<std::allocator<std::_Tree_node<std::pair<unsigned long const ,unsigned long>,void *> >,std::_Tree_val<std::_Tree_simple_types<std::pair<unsigned long const ,unsigned long> > >,1><>, COMDAT
; _this$ = ecx
; File C:\Program Files\Microsoft Visual Studio\2022\Community\VC\Tools\MSVC\14.44.35207\include\xtree

; 450  :     _Tree_val() noexcept : _Myhead(), _Mysize(0) {}

  00000	c7 01 00 00 00
	00		 mov	 DWORD PTR [ecx], 0
; File C:\Program Files\Microsoft Visual Studio\2022\Community\VC\Tools\MSVC\14.44.35207\include\xmemory

; 1531 :         : _Ty1(), _Myval2(_STD forward<_Other2>(_Val2)...) {}

  00006	8b c1		 mov	 eax, ecx
; File C:\Program Files\Microsoft Visual Studio\2022\Community\VC\Tools\MSVC\14.44.35207\include\xtree

; 450  :     _Tree_val() noexcept : _Myhead(), _Mysize(0) {}

  00008	c7 41 04 00 00
	00 00		 mov	 DWORD PTR [ecx+4], 0
; File C:\Program Files\Microsoft Visual Studio\2022\Community\VC\Tools\MSVC\14.44.35207\include\xmemory

; 1531 :         : _Ty1(), _Myval2(_STD forward<_Other2>(_Val2)...) {}

  0000f	c2 04 00	 ret	 4
??$?0$$V@?$_Compressed_pair@V?$allocator@U?$_Tree_node@U?$pair@$$CBKK@std@@PAX@std@@@std@@V?$_Tree_val@U?$_Tree_simple_types@U?$pair@$$CBKK@std@@@std@@@2@$00@std@@QAE@U_Zero_then_variadic_args_t@1@@Z ENDP ; std::_Compressed_pair<std::allocator<std::_Tree_node<std::pair<unsigned long const ,unsigned long>,void *> >,std::_Tree_val<std::_Tree_simple_types<std::pair<unsigned long const ,unsigned long> > >,1>::_Compressed_pair<std::allocator<std::_Tree_node<std::pair<unsigned long const ,unsigned long>,void *> >,std::_Tree_val<std::_Tree_simple_types<std::pair<unsigned long const ,unsigned long> > >,1><>
_TEXT	ENDS
; Function compile flags: /Ogtp
; File C:\Program Files\Microsoft Visual Studio\2022\Community\VC\Tools\MSVC\14.44.35207\include\type_traits
;	COMDAT ??$addressof@USCommand@CInstanceBase@@@std@@YAPAUSCommand@CInstanceBase@@AAU12@@Z
_TEXT	SEGMENT
??$addressof@USCommand@CInstanceBase@@@std@@YAPAUSCommand@CInstanceBase@@AAU12@@Z PROC ; std::addressof<CInstanceBase::SCommand>, COMDAT
; __Val$ = ecx

; 1525 :     return __builtin_addressof(_Val);

  00000	8b c1		 mov	 eax, ecx

; 1526 : }

  00002	c3		 ret	 0
??$addressof@USCommand@CInstanceBase@@@std@@YAPAUSCommand@CInstanceBase@@AAU12@@Z ENDP ; std::addressof<CInstanceBase::SCommand>
_TEXT	ENDS
; Function compile flags: /Ogtp
; File C:\Program Files\Microsoft Visual Studio\2022\Community\VC\Tools\MSVC\14.44.35207\include\xmemory
;	COMDAT ??$destroy@USCommand@CInstanceBase@@@?$_Default_allocator_traits@V?$allocator@U?$_List_node@USCommand@CInstanceBase@@PAX@std@@@std@@@std@@SAXAAV?$allocator@U?$_List_node@USCommand@CInstanceBase@@PAX@std@@@1@QAUSCommand@CInstanceBase@@@Z
_TEXT	SEGMENT
??$destroy@USCommand@CInstanceBase@@@?$_Default_allocator_traits@V?$allocator@U?$_List_node@USCommand@CInstanceBase@@PAX@std@@@std@@@std@@SAXAAV?$allocator@U?$_List_node@USCommand@CInstanceBase@@PAX@std@@@1@QAUSCommand@CInstanceBase@@@Z PROC ; std::_Default_allocator_traits<std::allocator<std::_List_node<CInstanceBase::SCommand,void *> > >::destroy<CInstanceBase::SCommand>, COMDAT
; ___formal$dead$ = ecx
; __Ptr$dead$ = edx

; 738  : #if _HAS_CXX20
; 739  :         _STD destroy_at(_Ptr);
; 740  : #else // ^^^ _HAS_CXX20 / !_HAS_CXX20 vvv
; 741  :         _Ptr->~_Uty();
; 742  : #endif // ^^^ !_HAS_CXX20 ^^^
; 743  :     }

  00000	c2 00 00	 ret	 0
??$destroy@USCommand@CInstanceBase@@@?$_Default_allocator_traits@V?$allocator@U?$_List_node@USCommand@CInstanceBase@@PAX@std@@@std@@@std@@SAXAAV?$allocator@U?$_List_node@USCommand@CInstanceBase@@PAX@std@@@1@QAUSCommand@CInstanceBase@@@Z ENDP ; std::_Default_allocator_traits<std::allocator<std::_List_node<CInstanceBase::SCommand,void *> > >::destroy<CInstanceBase::SCommand>
_TEXT	ENDS
; Function compile flags: /Ogtp
; File C:\Program Files\Microsoft Visual Studio\2022\Community\VC\Tools\MSVC\14.44.35207\include\xmemory
; File C:\Program Files\Microsoft Visual Studio\2022\Community\VC\Tools\MSVC\14.44.35207\include\xutility
; File C:\Program Files\Microsoft Visual Studio\2022\Community\VC\Tools\MSVC\14.44.35207\include\xmemory
;	COMDAT ??$construct@USCommand@CInstanceBase@@ABU12@@?$_Default_allocator_traits@V?$allocator@U?$_List_node@USCommand@CInstanceBase@@PAX@std@@@std@@@std@@SAXAAV?$allocator@U?$_List_node@USCommand@CInstanceBase@@PAX@std@@@1@QAUSCommand@CInstanceBase@@ABU34@@Z
_TEXT	SEGMENT
_<_Args_0>$ = 8						; size = 4
??$construct@USCommand@CInstanceBase@@ABU12@@?$_Default_allocator_traits@V?$allocator@U?$_List_node@USCommand@CInstanceBase@@PAX@std@@@std@@@std@@SAXAAV?$allocator@U?$_List_node@USCommand@CInstanceBase@@PAX@std@@@1@QAUSCommand@CInstanceBase@@ABU34@@Z PROC ; std::_Default_allocator_traits<std::allocator<std::_List_node<CInstanceBase::SCommand,void *> > >::construct<CInstanceBase::SCommand,CInstanceBase::SCommand const &>, COMDAT
; ___formal$dead$ = ecx
; __Ptr$ = edx

; 728  :     static _CONSTEXPR20 void construct(_Alloc&, _Objty* const _Ptr, _Types&&... _Args) {

  00000	55		 push	 ebp
  00001	8b ec		 mov	 ebp, esp
; File C:\Program Files\Microsoft Visual Studio\2022\Community\VC\Tools\MSVC\14.44.35207\include\xutility

; 463  :     _MSVC_CONSTEXPR return ::new (static_cast<void*>(_Location)) _Ty(_STD forward<_Types>(_Args)...);

  00003	8b 45 08	 mov	 eax, DWORD PTR _<_Args_0>$[ebp]
  00006	0f 10 00	 movups	 xmm0, XMMWORD PTR [eax]
  00009	0f 11 02	 movups	 XMMWORD PTR [edx], xmm0
  0000c	0f 10 40 10	 movups	 xmm0, XMMWORD PTR [eax+16]
  00010	0f 11 42 10	 movups	 XMMWORD PTR [edx+16], xmm0
  00014	8b 40 20	 mov	 eax, DWORD PTR [eax+32]
  00017	89 42 20	 mov	 DWORD PTR [edx+32], eax
; File C:\Program Files\Microsoft Visual Studio\2022\Community\VC\Tools\MSVC\14.44.35207\include\xmemory

; 734  :     }

  0001a	5d		 pop	 ebp
  0001b	c3		 ret	 0
??$construct@USCommand@CInstanceBase@@ABU12@@?$_Default_allocator_traits@V?$allocator@U?$_List_node@USCommand@CInstanceBase@@PAX@std@@@std@@@std@@SAXAAV?$allocator@U?$_List_node@USCommand@CInstanceBase@@PAX@std@@@1@QAUSCommand@CInstanceBase@@ABU34@@Z ENDP ; std::_Default_allocator_traits<std::allocator<std::_List_node<CInstanceBase::SCommand,void *> > >::construct<CInstanceBase::SCommand,CInstanceBase::SCommand const &>
_TEXT	ENDS
; Function compile flags: /Ogtp
; File C:\Program Files\Microsoft Visual Studio\2022\Community\VC\Tools\MSVC\14.44.35207\include\utility
;	COMDAT ??$exchange@PAU?$_Tree_node@U?$pair@$$CBKK@std@@PAX@std@@AAPAU12@@std@@YAPAU?$_Tree_node@U?$pair@$$CBKK@std@@PAX@0@AAPAU10@0@Z
_TEXT	SEGMENT
??$exchange@PAU?$_Tree_node@U?$pair@$$CBKK@std@@PAX@std@@AAPAU12@@std@@YAPAU?$_Tree_node@U?$pair@$$CBKK@std@@PAX@0@AAPAU10@0@Z PROC ; std::exchange<std::_Tree_node<std::pair<unsigned long const ,unsigned long>,void *> *,std::_Tree_node<std::pair<unsigned long const ,unsigned long>,void *> * &>, COMDAT
; __Val$ = ecx
; __New_val$ = edx

; 772  :     // assign _New_val to _Val, return previous _Val
; 773  :     _Ty _Old_val = static_cast<_Ty&&>(_Val);

  00000	8b 01		 mov	 eax, DWORD PTR [ecx]

; 774  :     _Val         = static_cast<_Other&&>(_New_val);

  00002	8b 12		 mov	 edx, DWORD PTR [edx]
  00004	89 11		 mov	 DWORD PTR [ecx], edx

; 775  :     return _Old_val;
; 776  : }

  00006	c3		 ret	 0
??$exchange@PAU?$_Tree_node@U?$pair@$$CBKK@std@@PAX@std@@AAPAU12@@std@@YAPAU?$_Tree_node@U?$pair@$$CBKK@std@@PAX@0@AAPAU10@0@Z ENDP ; std::exchange<std::_Tree_node<std::pair<unsigned long const ,unsigned long>,void *> *,std::_Tree_node<std::pair<unsigned long const ,unsigned long>,void *> * &>
_TEXT	ENDS
; Function compile flags: /Ogtp
; File C:\Program Files\Microsoft Visual Studio\2022\Community\VC\Tools\MSVC\14.44.35207\include\xtree
; File C:\Program Files\Microsoft Visual Studio\2022\Community\VC\Tools\MSVC\14.44.35207\include\xmemory
; File C:\Program Files\Microsoft Visual Studio\2022\Community\VC\Tools\MSVC\14.44.35207\include\xtree
;	COMDAT ??$_Freenode@V?$allocator@U?$_Tree_node@U?$pair@$$CBKK@std@@PAX@std@@@std@@@?$_Tree_node@U?$pair@$$CBKK@std@@PAX@std@@SAXAAV?$allocator@U?$_Tree_node@U?$pair@$$CBKK@std@@PAX@std@@@1@PAU01@@Z
_TEXT	SEGMENT
??$_Freenode@V?$allocator@U?$_Tree_node@U?$pair@$$CBKK@std@@PAX@std@@@std@@@?$_Tree_node@U?$pair@$$CBKK@std@@PAX@std@@SAXAAV?$allocator@U?$_Tree_node@U?$pair@$$CBKK@std@@PAX@std@@@1@PAU01@@Z PROC ; std::_Tree_node<std::pair<unsigned long const ,unsigned long>,void *>::_Freenode<std::allocator<std::_Tree_node<std::pair<unsigned long const ,unsigned long>,void *> > >, COMDAT
; __Al$dead$ = ecx
; __Ptr$ = edx
; File C:\Program Files\Microsoft Visual Studio\2022\Community\VC\Tools\MSVC\14.44.35207\include\xmemory

; 289  :         ::operator delete(_Ptr, _Bytes);

  00000	6a 18		 push	 24			; 00000018H
  00002	52		 push	 edx
  00003	e8 00 00 00 00	 call	 ??3@YAXPAXI@Z		; operator delete
  00008	83 c4 08	 add	 esp, 8
; File C:\Program Files\Microsoft Visual Studio\2022\Community\VC\Tools\MSVC\14.44.35207\include\xtree

; 383  :     }

  0000b	c3		 ret	 0
??$_Freenode@V?$allocator@U?$_Tree_node@U?$pair@$$CBKK@std@@PAX@std@@@std@@@?$_Tree_node@U?$pair@$$CBKK@std@@PAX@std@@SAXAAV?$allocator@U?$_Tree_node@U?$pair@$$CBKK@std@@PAX@std@@@1@PAU01@@Z ENDP ; std::_Tree_node<std::pair<unsigned long const ,unsigned long>,void *>::_Freenode<std::allocator<std::_Tree_node<std::pair<unsigned long const ,unsigned long>,void *> > >
_TEXT	ENDS
; Function compile flags: /Ogtp
; File C:\Program Files\Microsoft Visual Studio\2022\Community\VC\Tools\MSVC\14.44.35207\include\xmemory
;	COMDAT ??$_Destroy_in_place@PAU?$_Tree_node@U?$pair@$$CBKK@std@@PAX@std@@@std@@YAXAAPAU?$_Tree_node@U?$pair@$$CBKK@std@@PAX@0@@Z
_TEXT	SEGMENT
??$_Destroy_in_place@PAU?$_Tree_node@U?$pair@$$CBKK@std@@PAX@std@@@std@@YAXAAPAU?$_Tree_node@U?$pair@$$CBKK@std@@PAX@0@@Z PROC ; std::_Destroy_in_place<std::_Tree_node<std::pair<unsigned long const ,unsigned long>,void *> *>, COMDAT
; __Obj$dead$ = ecx

; 321  :     if constexpr (is_array_v<_Ty>) {
; 322  :         _STD _Destroy_range(_Obj, _Obj + extent_v<_Ty>);
; 323  :     } else {
; 324  :         _Obj.~_Ty();
; 325  :     }
; 326  : }

  00000	c2 00 00	 ret	 0
??$_Destroy_in_place@PAU?$_Tree_node@U?$pair@$$CBKK@std@@PAX@std@@@std@@YAXAAPAU?$_Tree_node@U?$pair@$$CBKK@std@@PAX@0@@Z ENDP ; std::_Destroy_in_place<std::_Tree_node<std::pair<unsigned long const ,unsigned long>,void *> *>
_TEXT	ENDS
; Function compile flags: /Ogtp
; File C:\Program Files\Microsoft Visual Studio\2022\Community\VC\Tools\MSVC\14.44.35207\include\type_traits
;	COMDAT ??$addressof@PAU?$_List_node@USEffectDamage@CInstanceBase@@PAX@std@@@std@@YAPAPAU?$_List_node@USEffectDamage@CInstanceBase@@PAX@0@AAPAU10@@Z
_TEXT	SEGMENT
??$addressof@PAU?$_List_node@USEffectDamage@CInstanceBase@@PAX@std@@@std@@YAPAPAU?$_List_node@USEffectDamage@CInstanceBase@@PAX@0@AAPAU10@@Z PROC ; std::addressof<std::_List_node<CInstanceBase::SEffectDamage,void *> *>, COMDAT
; __Val$ = ecx

; 1525 :     return __builtin_addressof(_Val);

  00000	8b c1		 mov	 eax, ecx

; 1526 : }

  00002	c3		 ret	 0
??$addressof@PAU?$_List_node@USEffectDamage@CInstanceBase@@PAX@std@@@std@@YAPAPAU?$_List_node@USEffectDamage@CInstanceBase@@PAX@0@AAPAU10@@Z ENDP ; std::addressof<std::_List_node<CInstanceBase::SEffectDamage,void *> *>
_TEXT	ENDS
; Function compile flags: /Ogtp
; File C:\Program Files\Microsoft Visual Studio\2022\Community\VC\Tools\MSVC\14.44.35207\include\type_traits
;	COMDAT ??$forward@AAPAU?$_List_node@USEffectDamage@CInstanceBase@@PAX@std@@@std@@YAAAPAU?$_List_node@USEffectDamage@CInstanceBase@@PAX@0@AAPAU10@@Z
_TEXT	SEGMENT
??$forward@AAPAU?$_List_node@USEffectDamage@CInstanceBase@@PAX@std@@@std@@YAAAPAU?$_List_node@USEffectDamage@CInstanceBase@@PAX@0@AAPAU10@@Z PROC ; std::forward<std::_List_node<CInstanceBase::SEffectDamage,void *> * &>, COMDAT
; __Arg$ = ecx

; 1502 :     return static_cast<_Ty&&>(_Arg);

  00000	8b c1		 mov	 eax, ecx

; 1503 : }

  00002	c3		 ret	 0
??$forward@AAPAU?$_List_node@USEffectDamage@CInstanceBase@@PAX@std@@@std@@YAAAPAU?$_List_node@USEffectDamage@CInstanceBase@@PAX@0@AAPAU10@@Z ENDP ; std::forward<std::_List_node<CInstanceBase::SEffectDamage,void *> * &>
_TEXT	ENDS
; Function compile flags: /Ogtp
; File C:\Program Files\Microsoft Visual Studio\2022\Community\VC\Tools\MSVC\14.44.35207\include\xutility
;	COMDAT ??$construct_at@PAU?$_List_node@USEffectDamage@CInstanceBase@@PAX@std@@AAPAU12@@std@@YAPAPAU?$_List_node@USEffectDamage@CInstanceBase@@PAX@0@QAPAU10@AAPAU10@@Z
_TEXT	SEGMENT
??$construct_at@PAU?$_List_node@USEffectDamage@CInstanceBase@@PAX@std@@AAPAU12@@std@@YAPAPAU?$_List_node@USEffectDamage@CInstanceBase@@PAX@0@QAPAU10@AAPAU10@@Z PROC ; std::construct_at<std::_List_node<CInstanceBase::SEffectDamage,void *> *,std::_List_node<CInstanceBase::SEffectDamage,void *> * &>, COMDAT
; __Location$ = ecx
; _<_Args_0>$ = edx

; 463  :     _MSVC_CONSTEXPR return ::new (static_cast<void*>(_Location)) _Ty(_STD forward<_Types>(_Args)...);

  00000	8b 02		 mov	 eax, DWORD PTR [edx]
  00002	89 01		 mov	 DWORD PTR [ecx], eax
  00004	8b c1		 mov	 eax, ecx

; 464  : }

  00006	c3		 ret	 0
??$construct_at@PAU?$_List_node@USEffectDamage@CInstanceBase@@PAX@std@@AAPAU12@@std@@YAPAPAU?$_List_node@USEffectDamage@CInstanceBase@@PAX@0@QAPAU10@AAPAU10@@Z ENDP ; std::construct_at<std::_List_node<CInstanceBase::SEffectDamage,void *> *,std::_List_node<CInstanceBase::SEffectDamage,void *> * &>
_TEXT	ENDS
; Function compile flags: /Ogtp
; File C:\Program Files\Microsoft Visual Studio\2022\Community\VC\Tools\MSVC\14.44.35207\include\list
; File C:\Program Files\Microsoft Visual Studio\2022\Community\VC\Tools\MSVC\14.44.35207\include\xmemory
; File C:\Program Files\Microsoft Visual Studio\2022\Community\VC\Tools\MSVC\14.44.35207\include\list
;	COMDAT ??$_Freenode@V?$allocator@U?$_List_node@USEffectDamage@CInstanceBase@@PAX@std@@@std@@@?$_List_node@USEffectDamage@CInstanceBase@@PAX@std@@SAXAAV?$allocator@U?$_List_node@USEffectDamage@CInstanceBase@@PAX@std@@@1@PAU01@@Z
_TEXT	SEGMENT
??$_Freenode@V?$allocator@U?$_List_node@USEffectDamage@CInstanceBase@@PAX@std@@@std@@@?$_List_node@USEffectDamage@CInstanceBase@@PAX@std@@SAXAAV?$allocator@U?$_List_node@USEffectDamage@CInstanceBase@@PAX@std@@@1@PAU01@@Z PROC ; std::_List_node<CInstanceBase::SEffectDamage,void *>::_Freenode<std::allocator<std::_List_node<CInstanceBase::SEffectDamage,void *> > >, COMDAT
; __Al$dead$ = ecx
; __Ptr$ = edx
; File C:\Program Files\Microsoft Visual Studio\2022\Community\VC\Tools\MSVC\14.44.35207\include\xmemory

; 289  :         ::operator delete(_Ptr, _Bytes);

  00000	6a 18		 push	 24			; 00000018H
  00002	52		 push	 edx
  00003	e8 00 00 00 00	 call	 ??3@YAXPAXI@Z		; operator delete
  00008	83 c4 08	 add	 esp, 8
; File C:\Program Files\Microsoft Visual Studio\2022\Community\VC\Tools\MSVC\14.44.35207\include\list

; 319  :     }

  0000b	c3		 ret	 0
??$_Freenode@V?$allocator@U?$_List_node@USEffectDamage@CInstanceBase@@PAX@std@@@std@@@?$_List_node@USEffectDamage@CInstanceBase@@PAX@std@@SAXAAV?$allocator@U?$_List_node@USEffectDamage@CInstanceBase@@PAX@std@@@1@PAU01@@Z ENDP ; std::_List_node<CInstanceBase::SEffectDamage,void *>::_Freenode<std::allocator<std::_List_node<CInstanceBase::SEffectDamage,void *> > >
_TEXT	ENDS
; Function compile flags: /Ogtp
; File C:\Program Files\Microsoft Visual Studio\2022\Community\VC\Tools\MSVC\14.44.35207\include\xmemory
;	COMDAT ??$_Destroy_in_place@PAU?$_List_node@USEffectDamage@CInstanceBase@@PAX@std@@@std@@YAXAAPAU?$_List_node@USEffectDamage@CInstanceBase@@PAX@0@@Z
_TEXT	SEGMENT
??$_Destroy_in_place@PAU?$_List_node@USEffectDamage@CInstanceBase@@PAX@std@@@std@@YAXAAPAU?$_List_node@USEffectDamage@CInstanceBase@@PAX@0@@Z PROC ; std::_Destroy_in_place<std::_List_node<CInstanceBase::SEffectDamage,void *> *>, COMDAT
; __Obj$dead$ = ecx

; 321  :     if constexpr (is_array_v<_Ty>) {
; 322  :         _STD _Destroy_range(_Obj, _Obj + extent_v<_Ty>);
; 323  :     } else {
; 324  :         _Obj.~_Ty();
; 325  :     }
; 326  : }

  00000	c2 00 00	 ret	 0
??$_Destroy_in_place@PAU?$_List_node@USEffectDamage@CInstanceBase@@PAX@std@@@std@@YAXAAPAU?$_List_node@USEffectDamage@CInstanceBase@@PAX@0@@Z ENDP ; std::_Destroy_in_place<std::_List_node<CInstanceBase::SEffectDamage,void *> *>
_TEXT	ENDS
; Function compile flags: /Ogtp
; File C:\Program Files\Microsoft Visual Studio\2022\Community\VC\Tools\MSVC\14.44.35207\include\type_traits
;	COMDAT ??$addressof@PAU?$_List_node@USCommand@CInstanceBase@@PAX@std@@@std@@YAPAPAU?$_List_node@USCommand@CInstanceBase@@PAX@0@AAPAU10@@Z
_TEXT	SEGMENT
??$addressof@PAU?$_List_node@USCommand@CInstanceBase@@PAX@std@@@std@@YAPAPAU?$_List_node@USCommand@CInstanceBase@@PAX@0@AAPAU10@@Z PROC ; std::addressof<std::_List_node<CInstanceBase::SCommand,void *> *>, COMDAT
; __Val$ = ecx

; 1525 :     return __builtin_addressof(_Val);

  00000	8b c1		 mov	 eax, ecx

; 1526 : }

  00002	c3		 ret	 0
??$addressof@PAU?$_List_node@USCommand@CInstanceBase@@PAX@std@@@std@@YAPAPAU?$_List_node@USCommand@CInstanceBase@@PAX@0@AAPAU10@@Z ENDP ; std::addressof<std::_List_node<CInstanceBase::SCommand,void *> *>
_TEXT	ENDS
; Function compile flags: /Ogtp
; File C:\Program Files\Microsoft Visual Studio\2022\Community\VC\Tools\MSVC\14.44.35207\include\type_traits
;	COMDAT ??$forward@AAPAU?$_List_node@USCommand@CInstanceBase@@PAX@std@@@std@@YAAAPAU?$_List_node@USCommand@CInstanceBase@@PAX@0@AAPAU10@@Z
_TEXT	SEGMENT
??$forward@AAPAU?$_List_node@USCommand@CInstanceBase@@PAX@std@@@std@@YAAAPAU?$_List_node@USCommand@CInstanceBase@@PAX@0@AAPAU10@@Z PROC ; std::forward<std::_List_node<CInstanceBase::SCommand,void *> * &>, COMDAT
; __Arg$ = ecx

; 1502 :     return static_cast<_Ty&&>(_Arg);

  00000	8b c1		 mov	 eax, ecx

; 1503 : }

  00002	c3		 ret	 0
??$forward@AAPAU?$_List_node@USCommand@CInstanceBase@@PAX@std@@@std@@YAAAPAU?$_List_node@USCommand@CInstanceBase@@PAX@0@AAPAU10@@Z ENDP ; std::forward<std::_List_node<CInstanceBase::SCommand,void *> * &>
_TEXT	ENDS
; Function compile flags: /Ogtp
; File C:\Program Files\Microsoft Visual Studio\2022\Community\VC\Tools\MSVC\14.44.35207\include\xutility
;	COMDAT ??$construct_at@PAU?$_List_node@USCommand@CInstanceBase@@PAX@std@@AAPAU12@@std@@YAPAPAU?$_List_node@USCommand@CInstanceBase@@PAX@0@QAPAU10@AAPAU10@@Z
_TEXT	SEGMENT
??$construct_at@PAU?$_List_node@USCommand@CInstanceBase@@PAX@std@@AAPAU12@@std@@YAPAPAU?$_List_node@USCommand@CInstanceBase@@PAX@0@QAPAU10@AAPAU10@@Z PROC ; std::construct_at<std::_List_node<CInstanceBase::SCommand,void *> *,std::_List_node<CInstanceBase::SCommand,void *> * &>, COMDAT
; __Location$ = ecx
; _<_Args_0>$ = edx

; 463  :     _MSVC_CONSTEXPR return ::new (static_cast<void*>(_Location)) _Ty(_STD forward<_Types>(_Args)...);

  00000	8b 02		 mov	 eax, DWORD PTR [edx]
  00002	89 01		 mov	 DWORD PTR [ecx], eax
  00004	8b c1		 mov	 eax, ecx

; 464  : }

  00006	c3		 ret	 0
??$construct_at@PAU?$_List_node@USCommand@CInstanceBase@@PAX@std@@AAPAU12@@std@@YAPAPAU?$_List_node@USCommand@CInstanceBase@@PAX@0@QAPAU10@AAPAU10@@Z ENDP ; std::construct_at<std::_List_node<CInstanceBase::SCommand,void *> *,std::_List_node<CInstanceBase::SCommand,void *> * &>
_TEXT	ENDS
; Function compile flags: /Ogtp
; File C:\Program Files\Microsoft Visual Studio\2022\Community\VC\Tools\MSVC\14.44.35207\include\xmemory
;	COMDAT ??$_Destroy_in_place@PAU?$_List_node@USCommand@CInstanceBase@@PAX@std@@@std@@YAXAAPAU?$_List_node@USCommand@CInstanceBase@@PAX@0@@Z
_TEXT	SEGMENT
??$_Destroy_in_place@PAU?$_List_node@USCommand@CInstanceBase@@PAX@std@@@std@@YAXAAPAU?$_List_node@USCommand@CInstanceBase@@PAX@0@@Z PROC ; std::_Destroy_in_place<std::_List_node<CInstanceBase::SCommand,void *> *>, COMDAT
; __Obj$dead$ = ecx

; 321  :     if constexpr (is_array_v<_Ty>) {
; 322  :         _STD _Destroy_range(_Obj, _Obj + extent_v<_Ty>);
; 323  :     } else {
; 324  :         _Obj.~_Ty();
; 325  :     }
; 326  : }

  00000	c2 00 00	 ret	 0
??$_Destroy_in_place@PAU?$_List_node@USCommand@CInstanceBase@@PAX@std@@@std@@YAXAAPAU?$_List_node@USCommand@CInstanceBase@@PAX@0@@Z ENDP ; std::_Destroy_in_place<std::_List_node<CInstanceBase::SCommand,void *> *>
_TEXT	ENDS
; Function compile flags: /Ogtp
; File C:\Program Files\Microsoft Visual Studio\2022\Community\VC\Tools\MSVC\14.44.35207\include\xmemory
;	COMDAT ??$destroy_at@PAVCInstanceBase@@@std@@YAXQAPAVCInstanceBase@@@Z
_TEXT	SEGMENT
??$destroy_at@PAVCInstanceBase@@@std@@YAXQAPAVCInstanceBase@@@Z PROC ; std::destroy_at<CInstanceBase *>, COMDAT
; __Location$dead$ = ecx

; 331  : #if _HAS_CXX20
; 332  :     if constexpr (is_array_v<_Ty>) {
; 333  :         _STD _Destroy_range(_STD begin(*_Location), _STD end(*_Location));
; 334  :     } else
; 335  : #endif // _HAS_CXX20
; 336  :     {
; 337  :         _Location->~_Ty();
; 338  :     }
; 339  : }

  00000	c2 00 00	 ret	 0
??$destroy_at@PAVCInstanceBase@@@std@@YAXQAPAVCInstanceBase@@@Z ENDP ; std::destroy_at<CInstanceBase *>
_TEXT	ENDS
; Function compile flags: /Ogtp
; File C:\Program Files\Microsoft Visual Studio\2022\Community\VC\Tools\MSVC\14.44.35207\include\xmemory
;	COMDAT ??$_Allocate_at_least_helper@V?$allocator@PAVCInstanceBase@@@std@@@std@@YAPAPAVCInstanceBase@@AAV?$allocator@PAVCInstanceBase@@@0@AAI@Z
_TEXT	SEGMENT
??$_Allocate_at_least_helper@V?$allocator@PAVCInstanceBase@@@std@@@std@@YAPAPAVCInstanceBase@@AAV?$allocator@PAVCInstanceBase@@@0@AAI@Z PROC ; std::_Allocate_at_least_helper<std::allocator<CInstanceBase *> >, COMDAT
; __Al$dead$ = ecx
; __Count$ = edx

; 2295 : #if _HAS_CXX23
; 2296 :     if constexpr (_Should_allocate_at_least<_Alloc>) {
; 2297 :         auto [_Ptr, _Allocated] = _Al.allocate_at_least(_Count);
; 2298 :         _Count                  = _Allocated;
; 2299 :         return _Ptr;
; 2300 :     } else
; 2301 : #endif // _HAS_CXX23
; 2302 :     {
; 2303 :         return _Al.allocate(_Count);

  00000	8b 02		 mov	 eax, DWORD PTR [edx]

; 117  :         if (_Count > _Max_possible) {

  00002	3d ff ff ff 3f	 cmp	 eax, 1073741823		; 3fffffffH
  00007	0f 87 00 00 00
	00		 ja	 ?_Throw_bad_array_new_length@std@@YAXXZ ; std::_Throw_bad_array_new_length

; 118  :             _Throw_bad_array_new_length(); // multiply overflow
; 119  :         }
; 120  :     }
; 121  : 
; 122  :     return _Count * _Ty_size;

  0000d	c1 e0 02	 shl	 eax, 2

; 227  :     if (_Bytes == 0) {

  00010	85 c0		 test	 eax, eax
  00012	75 01		 jne	 SHORT $LN10@Allocate_a

; 2304 :     }
; 2305 : }

  00014	c3		 ret	 0
$LN10@Allocate_a:

; 251  :         if (_Bytes >= _Big_allocation_threshold) {

  00015	50		 push	 eax
  00016	3d 00 10 00 00	 cmp	 eax, 4096		; 00001000H
  0001b	72 09		 jb	 SHORT $LN12@Allocate_a

; 252  :             // boost the alignment of big allocations to help autovectorization
; 253  :             return _Allocate_manually_vector_aligned<_Traits>(_Bytes);

  0001d	e8 00 00 00 00	 call	 ??$_Allocate_manually_vector_aligned@U_Default_allocate_traits@std@@@std@@YAPAXI@Z ; std::_Allocate_manually_vector_aligned<std::_Default_allocate_traits>

; 2304 :     }
; 2305 : }

  00022	83 c4 04	 add	 esp, 4
  00025	c3		 ret	 0
$LN12@Allocate_a:

; 136  :         return ::operator new(_Bytes);

  00026	e8 00 00 00 00	 call	 ??2@YAPAXI@Z		; operator new

; 2304 :     }
; 2305 : }

  0002b	83 c4 04	 add	 esp, 4
  0002e	c3		 ret	 0
??$_Allocate_at_least_helper@V?$allocator@PAVCInstanceBase@@@std@@@std@@YAPAPAVCInstanceBase@@AAV?$allocator@PAVCInstanceBase@@@0@AAI@Z ENDP ; std::_Allocate_at_least_helper<std::allocator<CInstanceBase *> >
_TEXT	ENDS
; Function compile flags: /Ogtp
; File C:\Program Files\Microsoft Visual Studio\2022\Community\VC\Tools\MSVC\14.44.35207\include\xutility
;	COMDAT ??$_Get_unwrapped@ABQAPAVCInstanceBase@@@std@@YA?A_TABQAPAVCInstanceBase@@@Z
_TEXT	SEGMENT
??$_Get_unwrapped@ABQAPAVCInstanceBase@@@std@@YA?A_TABQAPAVCInstanceBase@@@Z PROC ; std::_Get_unwrapped<CInstanceBase * * const &>, COMDAT
; __It$ = ecx

; 1380 :     // unwrap an iterator previously subjected to _Adl_verify_range or otherwise validated
; 1381 :     if constexpr (is_pointer_v<decay_t<_Iter>>) { // special-case pointers and arrays
; 1382 :         return _It + 0;

  00000	8b 01		 mov	 eax, DWORD PTR [ecx]

; 1383 :     } else if constexpr (_Unwrappable_v<_Iter>) {
; 1384 :         return static_cast<_Iter&&>(_It)._Unwrapped();
; 1385 :     } else {
; 1386 :         return static_cast<_Iter&&>(_It);
; 1387 :     }
; 1388 : }

  00002	c3		 ret	 0
??$_Get_unwrapped@ABQAPAVCInstanceBase@@@std@@YA?A_TABQAPAVCInstanceBase@@@Z ENDP ; std::_Get_unwrapped<CInstanceBase * * const &>
_TEXT	ENDS
; Function compile flags: /Ogtp
; File C:\Program Files\Microsoft Visual Studio\2022\Community\VC\Tools\MSVC\14.44.35207\include\xmemory
;	COMDAT ??$_Uninitialized_move@PAPAVCInstanceBase@@V?$allocator@PAVCInstanceBase@@@std@@@std@@YAPAPAVCInstanceBase@@QAPAV1@0PAPAV1@AAV?$allocator@PAVCInstanceBase@@@0@@Z
_TEXT	SEGMENT
__Dest$ = 8						; size = 4
__Al$dead$ = 12						; size = 4
??$_Uninitialized_move@PAPAVCInstanceBase@@V?$allocator@PAVCInstanceBase@@@std@@@std@@YAPAPAVCInstanceBase@@QAPAV1@0PAPAV1@AAV?$allocator@PAVCInstanceBase@@@0@@Z PROC ; std::_Uninitialized_move<CInstanceBase * *,std::allocator<CInstanceBase *> >, COMDAT
; __First$ = ecx
; __Last$ = edx

; 1977 :     const _InIt _First, const _InIt _Last, _Alloc_ptr_t<_Alloc> _Dest, _Alloc& _Al) {

  00000	55		 push	 ebp
  00001	8b ec		 mov	 ebp, esp
  00003	53		 push	 ebx
  00004	56		 push	 esi
  00005	57		 push	 edi

; 1978 :     // move [_First, _Last) to raw _Dest, using _Al
; 1979 :     // note: only called internally from elsewhere in the STL
; 1980 : #ifdef _ENABLE_STL_INTERNAL_CHECK
; 1981 :     _STD _Adl_verify_range(_First, _Last);
; 1982 : #endif // ^^^ defined(_ENABLE_STL_INTERNAL_CHECK) ^^^
; 1983 :     using _Ptrval     = typename _Alloc::value_type*;
; 1984 :     auto _UFirst      = _STD _Get_unwrapped(_First);
; 1985 :     const auto _ULast = _STD _Get_unwrapped(_Last);
; 1986 :     if constexpr (conjunction_v<bool_constant<_Iter_move_cat<decltype(_UFirst), _Ptrval>::_Bitcopy_constructible>,
; 1987 :                       _Uses_default_construct<_Alloc, _Ptrval, decltype(_STD move(*_UFirst))>>) {
; 1988 : #if _HAS_CXX20
; 1989 :         if (!_STD is_constant_evaluated())
; 1990 : #endif // _HAS_CXX20
; 1991 :         {
; 1992 :             _STD _Copy_memmove(_UFirst, _ULast, _STD _Unfancy(_Dest));

  00006	8b 7d 08	 mov	 edi, DWORD PTR __Dest$[ebp]
  00009	8b da		 mov	 ebx, edx
  0000b	57		 push	 edi
  0000c	8b f1		 mov	 esi, ecx
  0000e	e8 00 00 00 00	 call	 ??$_Copy_memmove@PAPAVCInstanceBase@@PAPAV1@@std@@YAPAPAVCInstanceBase@@PAPAV1@00@Z ; std::_Copy_memmove<CInstanceBase * *,CInstanceBase * *>
  00013	83 c4 04	 add	 esp, 4

; 1993 :             return _Dest + (_ULast - _UFirst);

  00016	2b de		 sub	 ebx, esi
  00018	c1 fb 02	 sar	 ebx, 2
  0001b	8d 04 9f	 lea	 eax, DWORD PTR [edi+ebx*4]
  0001e	5f		 pop	 edi
  0001f	5e		 pop	 esi
  00020	5b		 pop	 ebx

; 1994 :         }
; 1995 :     }
; 1996 : 
; 1997 :     _Uninitialized_backout_al<_Alloc> _Backout{_Dest, _Al};
; 1998 :     for (; _UFirst != _ULast; ++_UFirst) {
; 1999 :         _Backout._Emplace_back(_STD move(*_UFirst));
; 2000 :     }
; 2001 : 
; 2002 :     return _Backout._Release();
; 2003 : }

  00021	5d		 pop	 ebp
  00022	c3		 ret	 0
??$_Uninitialized_move@PAPAVCInstanceBase@@V?$allocator@PAVCInstanceBase@@@std@@@std@@YAPAPAVCInstanceBase@@QAPAV1@0PAPAV1@AAV?$allocator@PAVCInstanceBase@@@0@@Z ENDP ; std::_Uninitialized_move<CInstanceBase * *,std::allocator<CInstanceBase *> >
_TEXT	ENDS
; Function compile flags: /Ogtp
; File C:\Program Files\Microsoft Visual Studio\2022\Community\VC\Tools\MSVC\14.44.35207\include\type_traits
;	COMDAT ??$forward@ABQAVCInstanceBase@@@std@@YAABQAVCInstanceBase@@ABQAV1@@Z
_TEXT	SEGMENT
??$forward@ABQAVCInstanceBase@@@std@@YAABQAVCInstanceBase@@ABQAV1@@Z PROC ; std::forward<CInstanceBase * const &>, COMDAT
; __Arg$ = ecx

; 1502 :     return static_cast<_Ty&&>(_Arg);

  00000	8b c1		 mov	 eax, ecx

; 1503 : }

  00002	c3		 ret	 0
??$forward@ABQAVCInstanceBase@@@std@@YAABQAVCInstanceBase@@ABQAV1@@Z ENDP ; std::forward<CInstanceBase * const &>
_TEXT	ENDS
; Function compile flags: /Ogtp
; File C:\Program Files\Microsoft Visual Studio\2022\Community\VC\Tools\MSVC\14.44.35207\include\vector
;	COMDAT ??$_Emplace_back_with_unused_capacity@ABQAVCInstanceBase@@@?$vector@PAVCInstanceBase@@V?$allocator@PAVCInstanceBase@@@std@@@std@@AAEAAPAVCInstanceBase@@ABQAV2@@Z
_TEXT	SEGMENT
_<_Val_0>$ = 8						; size = 4
??$_Emplace_back_with_unused_capacity@ABQAVCInstanceBase@@@?$vector@PAVCInstanceBase@@V?$allocator@PAVCInstanceBase@@@std@@@std@@AAEAAPAVCInstanceBase@@ABQAV2@@Z PROC ; std::vector<CInstanceBase *,std::allocator<CInstanceBase *> >::_Emplace_back_with_unused_capacity<CInstanceBase * const &>, COMDAT
; _this$ = ecx

; 852  :     _CONSTEXPR20 _Ty& _Emplace_back_with_unused_capacity(_Valty&&... _Val) {

  00000	55		 push	 ebp
  00001	8b ec		 mov	 ebp, esp

; 853  :         // insert by perfectly forwarding into element at end, provide strong guarantee
; 854  :         auto& _My_data   = _Mypair._Myval2;
; 855  :         pointer& _Mylast = _My_data._Mylast;
; 856  :         _STL_INTERNAL_CHECK(_Mylast != _My_data._Myend); // check that we have unused capacity
; 857  :         if constexpr (conjunction_v<is_nothrow_constructible<_Ty, _Valty...>,
; 858  :                           _Uses_default_construct<_Alloc, _Ty*, _Valty...>>) {
; 859  :             _ASAN_VECTOR_MODIFY(1);
; 860  :             _STD _Construct_in_place(*_Mylast, _STD forward<_Valty>(_Val)...);

  00003	8b 51 04	 mov	 edx, DWORD PTR [ecx+4]
  00006	8b 45 08	 mov	 eax, DWORD PTR _<_Val_0>$[ebp]
  00009	8b 00		 mov	 eax, DWORD PTR [eax]
  0000b	89 02		 mov	 DWORD PTR [edx], eax

; 861  :         } else {
; 862  :             _ASAN_VECTOR_EXTEND_GUARD(static_cast<size_type>(_Mylast - _My_data._Myfirst) + 1);
; 863  :             _Alty_traits::construct(_Getal(), _Unfancy(_Mylast), _STD forward<_Valty>(_Val)...);
; 864  :             _ASAN_VECTOR_RELEASE_GUARD;
; 865  :         }
; 866  : 
; 867  :         _Orphan_range(_Mylast, _Mylast);
; 868  :         _Ty& _Result = *_Mylast;

  0000d	8b 41 04	 mov	 eax, DWORD PTR [ecx+4]

; 869  :         ++_Mylast;

  00010	8d 50 04	 lea	 edx, DWORD PTR [eax+4]
  00013	89 51 04	 mov	 DWORD PTR [ecx+4], edx

; 870  : 
; 871  :         return _Result;
; 872  :     }

  00016	5d		 pop	 ebp
  00017	c2 04 00	 ret	 4
??$_Emplace_back_with_unused_capacity@ABQAVCInstanceBase@@@?$vector@PAVCInstanceBase@@V?$allocator@PAVCInstanceBase@@@std@@@std@@AAEAAPAVCInstanceBase@@ABQAV2@@Z ENDP ; std::vector<CInstanceBase *,std::allocator<CInstanceBase *> >::_Emplace_back_with_unused_capacity<CInstanceBase * const &>
_TEXT	ENDS
; Function compile flags: /Ogtp
; File C:\Program Files\Microsoft Visual Studio\2022\Community\VC\Tools\MSVC\14.44.35207\include\vector
; File C:\Program Files\Microsoft Visual Studio\2022\Community\VC\Tools\MSVC\14.44.35207\include\xmemory
; File C:\Program Files\Microsoft Visual Studio\2022\Community\VC\Tools\MSVC\14.44.35207\include\vector
; File C:\Program Files\Microsoft Visual Studio\2022\Community\VC\Tools\MSVC\14.44.35207\include\xmemory
; File C:\Program Files\Microsoft Visual Studio\2022\Community\VC\Tools\MSVC\14.44.35207\include\vector
; File C:\Program Files\Microsoft Visual Studio\2022\Community\VC\Tools\MSVC\14.44.35207\include\xmemory
; File C:\Program Files\Microsoft Visual Studio\2022\Community\VC\Tools\MSVC\14.44.35207\include\vector
; File C:\Program Files\Microsoft Visual Studio\2022\Community\VC\Tools\MSVC\14.44.35207\include\xmemory
; File C:\Program Files\Microsoft Visual Studio\2022\Community\VC\Tools\MSVC\14.44.35207\include\vector
; File C:\Program Files\Microsoft Visual Studio\2022\Community\VC\Tools\MSVC\14.44.35207\include\xmemory
; File C:\Program Files\Microsoft Visual Studio\2022\Community\VC\Tools\MSVC\14.44.35207\include\vector
; File C:\Program Files\Microsoft Visual Studio\2022\Community\VC\Tools\MSVC\14.44.35207\include\xmemory
; File C:\Program Files\Microsoft Visual Studio\2022\Community\VC\Tools\MSVC\14.44.35207\include\vector
; File C:\Program Files\Microsoft Visual Studio\2022\Community\VC\Tools\MSVC\14.44.35207\include\xmemory
; File C:\Program Files\Microsoft Visual Studio\2022\Community\VC\Tools\MSVC\14.44.35207\include\vector
;	COMDAT ??$_Emplace_reallocate@ABQAVCInstanceBase@@@?$vector@PAVCInstanceBase@@V?$allocator@PAVCInstanceBase@@@std@@@std@@AAEPAPAVCInstanceBase@@QAPAV2@ABQAV2@@Z
_TEXT	SEGMENT
__Newsize$1$ = -8					; size = 4
__Whereoff$1$ = -4					; size = 4
tv589 = -4						; size = 4
__Whereptr$ = 8						; size = 4
_<_Val_0>$ = 12						; size = 4
??$_Emplace_reallocate@ABQAVCInstanceBase@@@?$vector@PAVCInstanceBase@@V?$allocator@PAVCInstanceBase@@@std@@@std@@AAEPAPAVCInstanceBase@@QAPAV2@ABQAV2@@Z PROC ; std::vector<CInstanceBase *,std::allocator<CInstanceBase *> >::_Emplace_reallocate<CInstanceBase * const &>, COMDAT
; _this$ = ecx

; 875  :     _CONSTEXPR20 pointer _Emplace_reallocate(const pointer _Whereptr, _Valty&&... _Val) {

  00000	55		 push	 ebp
  00001	8b ec		 mov	 ebp, esp
  00003	83 ec 08	 sub	 esp, 8

; 876  :         // reallocate and insert by perfectly forwarding _Val at _Whereptr
; 877  :         _Alty& _Al        = _Getal();
; 878  :         auto& _My_data    = _Mypair._Myval2;
; 879  :         pointer& _Myfirst = _My_data._Myfirst;
; 880  :         pointer& _Mylast  = _My_data._Mylast;
; 881  : 
; 882  :         _STL_INTERNAL_CHECK(_Mylast == _My_data._Myend); // check that we have no unused capacity
; 883  : 
; 884  :         const auto _Whereoff = static_cast<size_type>(_Whereptr - _Myfirst);

  00006	8b 45 08	 mov	 eax, DWORD PTR __Whereptr$[ebp]
  00009	53		 push	 ebx
  0000a	8b d9		 mov	 ebx, ecx
  0000c	56		 push	 esi
  0000d	57		 push	 edi
  0000e	8b 13		 mov	 edx, DWORD PTR [ebx]
  00010	2b c2		 sub	 eax, edx
  00012	c1 f8 02	 sar	 eax, 2
  00015	89 45 fc	 mov	 DWORD PTR __Whereoff$1$[ebp], eax

; 885  :         const auto _Oldsize  = static_cast<size_type>(_Mylast - _Myfirst);

  00018	8b 43 04	 mov	 eax, DWORD PTR [ebx+4]
  0001b	2b c2		 sub	 eax, edx
  0001d	c1 f8 02	 sar	 eax, 2

; 886  : 
; 887  :         if (_Oldsize == max_size()) {

  00020	3d ff ff ff 3f	 cmp	 eax, 1073741823		; 3fffffffH
  00025	0f 84 c6 00 00
	00		 je	 $LN109@Emplace_re

; 1924 :         return static_cast<size_type>(_My_data._Myend - _My_data._Myfirst);

  0002b	8b 4b 08	 mov	 ecx, DWORD PTR [ebx+8]

; 889  :         }
; 890  : 
; 891  :         const size_type _Newsize = _Oldsize + 1;

  0002e	8d 78 01	 lea	 edi, DWORD PTR [eax+1]

; 1924 :         return static_cast<size_type>(_My_data._Myend - _My_data._Myfirst);

  00031	2b ca		 sub	 ecx, edx

; 889  :         }
; 890  : 
; 891  :         const size_type _Newsize = _Oldsize + 1;

  00033	89 7d f8	 mov	 DWORD PTR __Newsize$1$[ebp], edi

; 1924 :         return static_cast<size_type>(_My_data._Myend - _My_data._Myfirst);

  00036	c1 f9 02	 sar	 ecx, 2

; 2011 :         if (_Oldcapacity > _Max - _Oldcapacity / 2) {

  00039	b8 ff ff ff 3f	 mov	 eax, 1073741823		; 3fffffffH
  0003e	8b d1		 mov	 edx, ecx
  00040	d1 ea		 shr	 edx, 1
  00042	2b c2		 sub	 eax, edx
  00044	3b c8		 cmp	 ecx, eax
  00046	76 12		 jbe	 SHORT $LN8@Emplace_re

; 2012 :             return _Max; // geometric growth would overflow

  00048	b8 fc ff ff ff	 mov	 eax, -4			; fffffffcH
  0004d	be ff ff ff 3f	 mov	 esi, 1073741823		; 3fffffffH
; File C:\Program Files\Microsoft Visual Studio\2022\Community\VC\Tools\MSVC\14.44.35207\include\xmemory

; 253  :             return _Allocate_manually_vector_aligned<_Traits>(_Bytes);

  00052	50		 push	 eax
  00053	e8 00 00 00 00	 call	 ??$_Allocate_manually_vector_aligned@U_Default_allocate_traits@std@@@std@@YAPAXI@Z ; std::_Allocate_manually_vector_aligned<std::_Default_allocate_traits>
  00058	eb 3a		 jmp	 SHORT $LN107@Emplace_re
$LN8@Emplace_re:
; File C:\Program Files\Microsoft Visual Studio\2022\Community\VC\Tools\MSVC\14.44.35207\include\vector

; 2015 :         const size_type _Geometric = _Oldcapacity + _Oldcapacity / 2;

  0005a	8d 04 0a	 lea	 eax, DWORD PTR [edx+ecx]
; File C:\Program Files\Microsoft Visual Studio\2022\Community\VC\Tools\MSVC\14.44.35207\include\xmemory

; 117  :         if (_Count > _Max_possible) {

  0005d	8b f7		 mov	 esi, edi
  0005f	3b c7		 cmp	 eax, edi
  00061	0f 43 f0	 cmovae	 esi, eax
  00064	81 fe ff ff ff
	3f		 cmp	 esi, 1073741823		; 3fffffffH
  0006a	0f 87 86 00 00
	00		 ja	 $LN110@Emplace_re

; 119  :         }
; 120  :     }
; 121  : 
; 122  :     return _Count * _Ty_size;

  00070	8d 04 b5 00 00
	00 00		 lea	 eax, DWORD PTR [esi*4]

; 227  :     if (_Bytes == 0) {

  00077	85 c0		 test	 eax, eax
  00079	75 04		 jne	 SHORT $LN23@Emplace_re

; 228  :         return nullptr;

  0007b	33 ff		 xor	 edi, edi
  0007d	eb 1a		 jmp	 SHORT $LN22@Emplace_re
$LN23@Emplace_re:

; 229  :     }
; 230  : 
; 231  : #if _HAS_CXX20 // TRANSITION, GH-1532
; 232  :     if (_STD is_constant_evaluated()) {
; 233  :         return _Traits::_Allocate(_Bytes);
; 234  :     }
; 235  : #endif // _HAS_CXX20
; 236  : 
; 237  : #ifdef __cpp_aligned_new
; 238  :     if constexpr (_Align > __STDCPP_DEFAULT_NEW_ALIGNMENT__) {
; 239  :         size_t _Passed_align = _Align;
; 240  : #if defined(_M_IX86) || defined(_M_X64)
; 241  :         if (_Bytes >= _Big_allocation_threshold) {
; 242  :             // boost the alignment of big allocations to help autovectorization
; 243  :             _Passed_align = (_STD max)(_Align, _Big_allocation_alignment);
; 244  :         }
; 245  : #endif // defined(_M_IX86) || defined(_M_X64)
; 246  :         return _Traits::_Allocate_aligned(_Bytes, _Passed_align);
; 247  :     } else
; 248  : #endif // defined(__cpp_aligned_new)
; 249  :     {
; 250  : #if defined(_M_IX86) || defined(_M_X64)
; 251  :         if (_Bytes >= _Big_allocation_threshold) {

  0007f	3d 00 10 00 00	 cmp	 eax, 4096		; 00001000H
  00084	72 08		 jb	 SHORT $LN25@Emplace_re

; 253  :             return _Allocate_manually_vector_aligned<_Traits>(_Bytes);

  00086	50		 push	 eax
  00087	e8 00 00 00 00	 call	 ??$_Allocate_manually_vector_aligned@U_Default_allocate_traits@std@@@std@@YAPAXI@Z ; std::_Allocate_manually_vector_aligned<std::_Default_allocate_traits>
  0008c	eb 06		 jmp	 SHORT $LN107@Emplace_re
$LN25@Emplace_re:

; 136  :         return ::operator new(_Bytes);

  0008e	50		 push	 eax
  0008f	e8 00 00 00 00	 call	 ??2@YAPAXI@Z		; operator new
$LN107@Emplace_re:
; File C:\Program Files\Microsoft Visual Studio\2022\Community\VC\Tools\MSVC\14.44.35207\include\vector

; 900  :         _Alty_traits::construct(_Al, _STD _Unfancy(_Newvec + _Whereoff), _STD forward<_Valty>(_Val)...);

  00094	8b f8		 mov	 edi, eax
  00096	83 c4 04	 add	 esp, 4
$LN22@Emplace_re:
  00099	8b 45 fc	 mov	 eax, DWORD PTR __Whereoff$1$[ebp]
  0009c	8d 0c 87	 lea	 ecx, DWORD PTR [edi+eax*4]
  0009f	8b 45 0c	 mov	 eax, DWORD PTR _<_Val_0>$[ebp]
  000a2	89 4d fc	 mov	 DWORD PTR tv589[ebp], ecx
  000a5	8b 00		 mov	 eax, DWORD PTR [eax]
  000a7	89 01		 mov	 DWORD PTR [ecx], eax

; 901  :         _Constructed_first = _Newvec + _Whereoff;
; 902  : 
; 903  :         if (_Whereptr == _Mylast) { // at back, provide strong guarantee

  000a9	8b 53 04	 mov	 edx, DWORD PTR [ebx+4]
  000ac	8b 45 08	 mov	 eax, DWORD PTR __Whereptr$[ebp]
  000af	8b 0b		 mov	 ecx, DWORD PTR [ebx]
  000b1	3b c2		 cmp	 eax, edx
  000b3	75 04		 jne	 SHORT $LN3@Emplace_re
; File C:\Program Files\Microsoft Visual Studio\2022\Community\VC\Tools\MSVC\14.44.35207\include\xmemory

; 1992 :             _STD _Copy_memmove(_UFirst, _ULast, _STD _Unfancy(_Dest));

  000b5	8b c7		 mov	 eax, edi
; File C:\Program Files\Microsoft Visual Studio\2022\Community\VC\Tools\MSVC\14.44.35207\include\vector

; 909  :         } else { // provide basic guarantee

  000b7	eb 17		 jmp	 SHORT $LN59@Emplace_re
$LN3@Emplace_re:
; File C:\Program Files\Microsoft Visual Studio\2022\Community\VC\Tools\MSVC\14.44.35207\include\xmemory

; 1992 :             _STD _Copy_memmove(_UFirst, _ULast, _STD _Unfancy(_Dest));

  000b9	57		 push	 edi
  000ba	8b d0		 mov	 edx, eax
  000bc	e8 00 00 00 00	 call	 ??$_Copy_memmove@PAPAVCInstanceBase@@PAPAV1@@std@@YAPAPAVCInstanceBase@@PAPAV1@00@Z ; std::_Copy_memmove<CInstanceBase * *,CInstanceBase * *>
; File C:\Program Files\Microsoft Visual Studio\2022\Community\VC\Tools\MSVC\14.44.35207\include\vector

; 912  :             _STD _Uninitialized_move(_Whereptr, _Mylast, _Newvec + _Whereoff + 1, _Al);

  000c1	8b 45 fc	 mov	 eax, DWORD PTR tv589[ebp]
; File C:\Program Files\Microsoft Visual Studio\2022\Community\VC\Tools\MSVC\14.44.35207\include\xmemory

; 1992 :             _STD _Copy_memmove(_UFirst, _ULast, _STD _Unfancy(_Dest));

  000c4	83 c4 04	 add	 esp, 4

; 1985 :     const auto _ULast = _STD _Get_unwrapped(_Last);

  000c7	8b 53 04	 mov	 edx, DWORD PTR [ebx+4]
; File C:\Program Files\Microsoft Visual Studio\2022\Community\VC\Tools\MSVC\14.44.35207\include\vector

; 912  :             _STD _Uninitialized_move(_Whereptr, _Mylast, _Newvec + _Whereoff + 1, _Al);

  000ca	83 c0 04	 add	 eax, 4
; File C:\Program Files\Microsoft Visual Studio\2022\Community\VC\Tools\MSVC\14.44.35207\include\xmemory

; 1992 :             _STD _Copy_memmove(_UFirst, _ULast, _STD _Unfancy(_Dest));

  000cd	8b 4d 08	 mov	 ecx, DWORD PTR __Whereptr$[ebp]
$LN59@Emplace_re:
; File C:\Program Files\Microsoft Visual Studio\2022\Community\VC\Tools\MSVC\14.44.35207\include\vector

; 916  :         _Change_array(_Newvec, _Newsize, _Newcapacity);

  000d0	50		 push	 eax
  000d1	e8 00 00 00 00	 call	 ??$_Copy_memmove@PAPAVCInstanceBase@@PAPAV1@@std@@YAPAPAVCInstanceBase@@PAPAV1@00@Z ; std::_Copy_memmove<CInstanceBase * *,CInstanceBase * *>
  000d6	83 c4 04	 add	 esp, 4
  000d9	8b cb		 mov	 ecx, ebx
  000db	56		 push	 esi
  000dc	ff 75 f8	 push	 DWORD PTR __Newsize$1$[ebp]
  000df	57		 push	 edi
  000e0	e8 00 00 00 00	 call	 ?_Change_array@?$vector@PAVCInstanceBase@@V?$allocator@PAVCInstanceBase@@@std@@@std@@AAEXQAPAVCInstanceBase@@II@Z ; std::vector<CInstanceBase *,std::allocator<CInstanceBase *> >::_Change_array

; 917  :         return _Newvec + _Whereoff;

  000e5	8b 45 fc	 mov	 eax, DWORD PTR tv589[ebp]

; 918  :     }

  000e8	5f		 pop	 edi
  000e9	5e		 pop	 esi
  000ea	5b		 pop	 ebx
  000eb	8b e5		 mov	 esp, ebp
  000ed	5d		 pop	 ebp
  000ee	c2 08 00	 ret	 8
$LN109@Emplace_re:

; 888  :             _Xlength();

  000f1	e8 00 00 00 00	 call	 ?_Xlength@?$vector@PAVCInstanceBase@@V?$allocator@PAVCInstanceBase@@@std@@@std@@CAXXZ ; std::vector<CInstanceBase *,std::allocator<CInstanceBase *> >::_Xlength
$LN110@Emplace_re:
; File C:\Program Files\Microsoft Visual Studio\2022\Community\VC\Tools\MSVC\14.44.35207\include\xmemory

; 118  :             _Throw_bad_array_new_length(); // multiply overflow

  000f6	e8 00 00 00 00	 call	 ?_Throw_bad_array_new_length@std@@YAXXZ ; std::_Throw_bad_array_new_length
$LN106@Emplace_re:
  000fb	cc		 int	 3
??$_Emplace_reallocate@ABQAVCInstanceBase@@@?$vector@PAVCInstanceBase@@V?$allocator@PAVCInstanceBase@@@std@@@std@@AAEPAPAVCInstanceBase@@QAPAV2@ABQAV2@@Z ENDP ; std::vector<CInstanceBase *,std::allocator<CInstanceBase *> >::_Emplace_reallocate<CInstanceBase * const &>
_TEXT	ENDS
; Function compile flags: /Ogtp
; File C:\Program Files\Microsoft Visual Studio\2022\Community\VC\Tools\MSVC\14.44.35207\include\type_traits
;	COMDAT ??$forward@U_Zero_then_variadic_args_t@std@@@std@@YA$$QAU_Zero_then_variadic_args_t@0@AAU10@@Z
_TEXT	SEGMENT
??$forward@U_Zero_then_variadic_args_t@std@@@std@@YA$$QAU_Zero_then_variadic_args_t@0@AAU10@@Z PROC ; std::forward<std::_Zero_then_variadic_args_t>, COMDAT
; __Arg$ = ecx

; 1502 :     return static_cast<_Ty&&>(_Arg);

  00000	8b c1		 mov	 eax, ecx

; 1503 : }

  00002	c3		 ret	 0
??$forward@U_Zero_then_variadic_args_t@std@@@std@@YA$$QAU_Zero_then_variadic_args_t@0@AAU10@@Z ENDP ; std::forward<std::_Zero_then_variadic_args_t>
_TEXT	ENDS
; Function compile flags: /Ogtp
; File C:\Program Files\Microsoft Visual Studio\2022\Community\VC\Tools\MSVC\14.44.35207\include\type_traits
;	COMDAT ??$forward@ABU?$less@K@std@@@std@@YAABU?$less@K@0@ABU10@@Z
_TEXT	SEGMENT
??$forward@ABU?$less@K@std@@@std@@YAABU?$less@K@0@ABU10@@Z PROC ; std::forward<std::less<unsigned long> const &>, COMDAT
; __Arg$ = ecx

; 1502 :     return static_cast<_Ty&&>(_Arg);

  00000	8b c1		 mov	 eax, ecx

; 1503 : }

  00002	c3		 ret	 0
??$forward@ABU?$less@K@std@@@std@@YAABU?$less@K@0@ABU10@@Z ENDP ; std::forward<std::less<unsigned long> const &>
_TEXT	ENDS
; Function compile flags: /Ogtp
; File C:\Program Files\Microsoft Visual Studio\2022\Community\VC\Tools\MSVC\14.44.35207\include\xutility
;	COMDAT ??$_Construct_in_place@PAU?$_List_node@USCommand@CInstanceBase@@PAX@std@@ABQAU12@@std@@YAXAAPAU?$_List_node@USCommand@CInstanceBase@@PAX@0@ABQAU10@@Z
_TEXT	SEGMENT
??$_Construct_in_place@PAU?$_List_node@USCommand@CInstanceBase@@PAX@std@@ABQAU12@@std@@YAXAAPAU?$_List_node@USCommand@CInstanceBase@@PAX@0@ABQAU10@@Z PROC ; std::_Construct_in_place<std::_List_node<CInstanceBase::SCommand,void *> *,std::_List_node<CInstanceBase::SCommand,void *> * const &>, COMDAT
; __Obj$ = ecx
; _<_Args_0>$ = edx

; 470  : #if _HAS_CXX20
; 471  :     if (_STD is_constant_evaluated()) {
; 472  :         _STD construct_at(_STD addressof(_Obj), _STD forward<_Types>(_Args)...);
; 473  :     } else
; 474  : #endif // _HAS_CXX20
; 475  :     {
; 476  :         ::new (static_cast<void*>(_STD addressof(_Obj))) _Ty(_STD forward<_Types>(_Args)...);
; 477  :     }
; 478  : }

  00000	8b 02		 mov	 eax, DWORD PTR [edx]
  00002	89 01		 mov	 DWORD PTR [ecx], eax
  00004	c3		 ret	 0
??$_Construct_in_place@PAU?$_List_node@USCommand@CInstanceBase@@PAX@std@@ABQAU12@@std@@YAXAAPAU?$_List_node@USCommand@CInstanceBase@@PAX@0@ABQAU10@@Z ENDP ; std::_Construct_in_place<std::_List_node<CInstanceBase::SCommand,void *> *,std::_List_node<CInstanceBase::SCommand,void *> * const &>
_TEXT	ENDS
; Function compile flags: /Ogtp
; File C:\Program Files\Microsoft Visual Studio\2022\Community\VC\Tools\MSVC\14.44.35207\include\xmemory
;	COMDAT ??$_Get_size_of_n@$0BI@@std@@YAII@Z
_TEXT	SEGMENT
??$_Get_size_of_n@$0BI@@std@@YAII@Z PROC		; std::_Get_size_of_n<24>, COMDAT
; __Count$ = ecx

; 113  :     constexpr bool _Overflow_is_possible = _Ty_size > 1;
; 114  : 
; 115  :     if constexpr (_Overflow_is_possible) {
; 116  :         constexpr size_t _Max_possible = static_cast<size_t>(-1) / _Ty_size;
; 117  :         if (_Count > _Max_possible) {

  00000	81 f9 aa aa aa
	0a		 cmp	 ecx, 178956970		; 0aaaaaaaH
  00006	0f 87 00 00 00
	00		 ja	 ?_Throw_bad_array_new_length@std@@YAXXZ ; std::_Throw_bad_array_new_length

; 118  :             _Throw_bad_array_new_length(); // multiply overflow
; 119  :         }
; 120  :     }
; 121  : 
; 122  :     return _Count * _Ty_size;

  0000c	8d 04 49	 lea	 eax, DWORD PTR [ecx+ecx*2]
  0000f	c1 e0 03	 shl	 eax, 3

; 123  : }

  00012	c3		 ret	 0
??$_Get_size_of_n@$0BI@@std@@YAII@Z ENDP		; std::_Get_size_of_n<24>
_TEXT	ENDS
; Function compile flags: /Ogtp
; File C:\Program Files\Microsoft Visual Studio\2022\Community\VC\Tools\MSVC\14.44.35207\include\xmemory
;	COMDAT ??$_Get_size_of_n@$0CM@@std@@YAII@Z
_TEXT	SEGMENT
??$_Get_size_of_n@$0CM@@std@@YAII@Z PROC		; std::_Get_size_of_n<44>, COMDAT
; __Count$dead$ = ecx

; 113  :     constexpr bool _Overflow_is_possible = _Ty_size > 1;
; 114  : 
; 115  :     if constexpr (_Overflow_is_possible) {
; 116  :         constexpr size_t _Max_possible = static_cast<size_t>(-1) / _Ty_size;
; 117  :         if (_Count > _Max_possible) {
; 118  :             _Throw_bad_array_new_length(); // multiply overflow
; 119  :         }
; 120  :     }
; 121  : 
; 122  :     return _Count * _Ty_size;

  00000	b8 2c 00 00 00	 mov	 eax, 44			; 0000002cH

; 123  : }

  00005	c3		 ret	 0
??$_Get_size_of_n@$0CM@@std@@YAII@Z ENDP		; std::_Get_size_of_n<44>
_TEXT	ENDS
; Function compile flags: /Ogtp
; File C:\Program Files\Microsoft Visual Studio\2022\Community\VC\Tools\MSVC\14.44.35207\include\xmemory
;	COMDAT ??$_Destroy_range@V?$allocator@PAVCInstanceBase@@@std@@@std@@YAXPAPAVCInstanceBase@@QAPAV1@AAV?$allocator@PAVCInstanceBase@@@0@@Z
_TEXT	SEGMENT
__Al$dead$ = 8						; size = 4
??$_Destroy_range@V?$allocator@PAVCInstanceBase@@@std@@@std@@YAXPAPAVCInstanceBase@@QAPAV1@AAV?$allocator@PAVCInstanceBase@@@0@@Z PROC ; std::_Destroy_range<std::allocator<CInstanceBase *> >, COMDAT
; __First$dead$ = ecx
; __Last$dead$ = edx

; 1099 :     // note that this is an optimization for debug mode codegen; in release mode the BE removes all of this
; 1100 :     using _Ty = typename _Alloc::value_type;
; 1101 :     if constexpr (!conjunction_v<is_trivially_destructible<_Ty>, _Uses_default_destroy<_Alloc, _Ty*>>) {
; 1102 :         for (; _First != _Last; ++_First) {
; 1103 :             allocator_traits<_Alloc>::destroy(_Al, _STD _Unfancy(_First));
; 1104 :         }
; 1105 :     }
; 1106 : }

  00000	c2 00 00	 ret	 0
??$_Destroy_range@V?$allocator@PAVCInstanceBase@@@std@@@std@@YAXPAPAVCInstanceBase@@QAPAV1@AAV?$allocator@PAVCInstanceBase@@@0@@Z ENDP ; std::_Destroy_range<std::allocator<CInstanceBase *> >
_TEXT	ENDS
; Function compile flags: /Ogtp
; File C:\Program Files\Microsoft Visual Studio\2022\Community\VC\Tools\MSVC\14.44.35207\include\xmemory
;	COMDAT ??$_Unfancy_maybe_null@PAVCInstanceBase@@@std@@YAPAPAVCInstanceBase@@PAPAV1@@Z
_TEXT	SEGMENT
??$_Unfancy_maybe_null@PAVCInstanceBase@@@std@@YAPAPAVCInstanceBase@@PAPAV1@@Z PROC ; std::_Unfancy_maybe_null<CInstanceBase *>, COMDAT
; __Ptr$ = ecx

; 80   :     return _Ptr;

  00000	8b c1		 mov	 eax, ecx

; 81   : }

  00002	c3		 ret	 0
??$_Unfancy_maybe_null@PAVCInstanceBase@@@std@@YAPAPAVCInstanceBase@@PAPAV1@@Z ENDP ; std::_Unfancy_maybe_null<CInstanceBase *>
_TEXT	ENDS
; Function compile flags: /Ogtp
; File C:\Program Files\Microsoft Visual Studio\2022\Community\VC\Tools\MSVC\14.44.35207\include\xtree
; File C:\Program Files\Microsoft Visual Studio\2022\Community\VC\Tools\MSVC\14.44.35207\include\xmemory
; File C:\Program Files\Microsoft Visual Studio\2022\Community\VC\Tools\MSVC\14.44.35207\include\xtree
;	COMDAT ??$_Buyheadnode@V?$allocator@U?$_Tree_node@U?$pair@$$CBKK@std@@PAX@std@@@std@@@?$_Tree_node@U?$pair@$$CBKK@std@@PAX@std@@SAPAU01@AAV?$allocator@U?$_Tree_node@U?$pair@$$CBKK@std@@PAX@std@@@1@@Z
_TEXT	SEGMENT
??$_Buyheadnode@V?$allocator@U?$_Tree_node@U?$pair@$$CBKK@std@@PAX@std@@@std@@@?$_Tree_node@U?$pair@$$CBKK@std@@PAX@std@@SAPAU01@AAV?$allocator@U?$_Tree_node@U?$pair@$$CBKK@std@@PAX@std@@@1@@Z PROC ; std::_Tree_node<std::pair<unsigned long const ,unsigned long>,void *>::_Buyheadnode<std::allocator<std::_Tree_node<std::pair<unsigned long const ,unsigned long>,void *> > >, COMDAT
; __Al$dead$ = ecx
; File C:\Program Files\Microsoft Visual Studio\2022\Community\VC\Tools\MSVC\14.44.35207\include\xmemory

; 136  :         return ::operator new(_Bytes);

  00000	6a 18		 push	 24			; 00000018H
  00002	e8 00 00 00 00	 call	 ??2@YAPAXI@Z		; operator new
  00007	83 c4 04	 add	 esp, 4
; File C:\Program Files\Microsoft Visual Studio\2022\Community\VC\Tools\MSVC\14.44.35207\include\xtree

; 346  :         _Construct_in_place(_Pnode->_Left, _Pnode);

  0000a	89 00		 mov	 DWORD PTR [eax], eax

; 347  :         _Construct_in_place(_Pnode->_Parent, _Pnode);

  0000c	89 40 04	 mov	 DWORD PTR [eax+4], eax

; 348  :         _Construct_in_place(_Pnode->_Right, _Pnode);

  0000f	89 40 08	 mov	 DWORD PTR [eax+8], eax

; 349  :         _Pnode->_Color = _Black;

  00012	66 c7 40 0c 01
	01		 mov	 WORD PTR [eax+12], 257	; 00000101H

; 350  :         _Pnode->_Isnil = true;
; 351  :         return _Pnode;
; 352  :     }

  00018	c3		 ret	 0
??$_Buyheadnode@V?$allocator@U?$_Tree_node@U?$pair@$$CBKK@std@@PAX@std@@@std@@@?$_Tree_node@U?$pair@$$CBKK@std@@PAX@std@@SAPAU01@AAV?$allocator@U?$_Tree_node@U?$pair@$$CBKK@std@@PAX@std@@@1@@Z ENDP ; std::_Tree_node<std::pair<unsigned long const ,unsigned long>,void *>::_Buyheadnode<std::allocator<std::_Tree_node<std::pair<unsigned long const ,unsigned long>,void *> > >
_TEXT	ENDS
; Function compile flags: /Ogtp
; File C:\Program Files\Microsoft Visual Studio\2022\Community\VC\Tools\MSVC\14.44.35207\include\xmemory
;	COMDAT ??1?$_Alloc_construct_ptr@V?$allocator@U?$_List_node@USCommand@CInstanceBase@@PAX@std@@@std@@@std@@QAE@XZ
_TEXT	SEGMENT
??1?$_Alloc_construct_ptr@V?$allocator@U?$_List_node@USCommand@CInstanceBase@@PAX@std@@@std@@@std@@QAE@XZ PROC ; std::_Alloc_construct_ptr<std::allocator<std::_List_node<CInstanceBase::SCommand,void *> > >::~_Alloc_construct_ptr<std::allocator<std::_List_node<CInstanceBase::SCommand,void *> > >, COMDAT
; _this$ = ecx

; 1172 :         if (_Ptr) {

  00000	8b 41 04	 mov	 eax, DWORD PTR [ecx+4]
  00003	85 c0		 test	 eax, eax
  00005	74 0b		 je	 SHORT $LN8@Alloc_cons

; 289  :         ::operator delete(_Ptr, _Bytes);

  00007	6a 2c		 push	 44			; 0000002cH
  00009	50		 push	 eax
  0000a	e8 00 00 00 00	 call	 ??3@YAXPAXI@Z		; operator delete
  0000f	83 c4 08	 add	 esp, 8
$LN8@Alloc_cons:

; 1173 :             _Al.deallocate(_Ptr, 1);
; 1174 :         }
; 1175 :     }

  00012	c3		 ret	 0
??1?$_Alloc_construct_ptr@V?$allocator@U?$_List_node@USCommand@CInstanceBase@@PAX@std@@@std@@@std@@QAE@XZ ENDP ; std::_Alloc_construct_ptr<std::allocator<std::_List_node<CInstanceBase::SCommand,void *> > >::~_Alloc_construct_ptr<std::allocator<std::_List_node<CInstanceBase::SCommand,void *> > >
_TEXT	ENDS
; Function compile flags: /Ogtp
; File C:\Program Files\Microsoft Visual Studio\2022\Community\VC\Tools\MSVC\14.44.35207\include\xmemory
;	COMDAT ?_Allocate@?$_Alloc_construct_ptr@V?$allocator@U?$_List_node@USCommand@CInstanceBase@@PAX@std@@@std@@@std@@QAEXXZ
_TEXT	SEGMENT
?_Allocate@?$_Alloc_construct_ptr@V?$allocator@U?$_List_node@USCommand@CInstanceBase@@PAX@std@@@std@@@std@@QAEXXZ PROC ; std::_Alloc_construct_ptr<std::allocator<std::_List_node<CInstanceBase::SCommand,void *> > >::_Allocate, COMDAT
; _this$ = ecx

; 1166 :     _CONSTEXPR20 void _Allocate() { // disengage *this, then allocate a new memory block

  00000	56		 push	 esi
  00001	8b f1		 mov	 esi, ecx

; 1167 :         _Ptr = nullptr; // if allocate throws, prevents double-free
; 1168 :         _Ptr = _Al.allocate(1);

  00003	6a 2c		 push	 44			; 0000002cH
  00005	c7 46 04 00 00
	00 00		 mov	 DWORD PTR [esi+4], 0
  0000c	e8 00 00 00 00	 call	 ??2@YAPAXI@Z		; operator new
  00011	83 c4 04	 add	 esp, 4
  00014	89 46 04	 mov	 DWORD PTR [esi+4], eax
  00017	5e		 pop	 esi

; 1169 :     }

  00018	c3		 ret	 0
?_Allocate@?$_Alloc_construct_ptr@V?$allocator@U?$_List_node@USCommand@CInstanceBase@@PAX@std@@@std@@@std@@QAEXXZ ENDP ; std::_Alloc_construct_ptr<std::allocator<std::_List_node<CInstanceBase::SCommand,void *> > >::_Allocate
_TEXT	ENDS
; Function compile flags: /Ogtp
; File C:\Program Files\Microsoft Visual Studio\2022\Community\VC\Tools\MSVC\14.44.35207\include\xmemory
;	COMDAT ??0?$_Alloc_construct_ptr@V?$allocator@U?$_List_node@USCommand@CInstanceBase@@PAX@std@@@std@@@std@@QAE@AAV?$allocator@U?$_List_node@USCommand@CInstanceBase@@PAX@std@@@1@@Z
_TEXT	SEGMENT
__Al_$ = 8						; size = 4
??0?$_Alloc_construct_ptr@V?$allocator@U?$_List_node@USCommand@CInstanceBase@@PAX@std@@@std@@@std@@QAE@AAV?$allocator@U?$_List_node@USCommand@CInstanceBase@@PAX@std@@@1@@Z PROC ; std::_Alloc_construct_ptr<std::allocator<std::_List_node<CInstanceBase::SCommand,void *> > >::_Alloc_construct_ptr<std::allocator<std::_List_node<CInstanceBase::SCommand,void *> > >, COMDAT
; _this$ = ecx

; 1160 :     _CONSTEXPR20 explicit _Alloc_construct_ptr(_Alloc& _Al_) : _Al(_Al_), _Ptr(nullptr) {}

  00000	55		 push	 ebp
  00001	8b ec		 mov	 ebp, esp
  00003	8b 45 08	 mov	 eax, DWORD PTR __Al_$[ebp]
  00006	89 01		 mov	 DWORD PTR [ecx], eax
  00008	8b c1		 mov	 eax, ecx
  0000a	c7 41 04 00 00
	00 00		 mov	 DWORD PTR [ecx+4], 0
  00011	5d		 pop	 ebp
  00012	c2 04 00	 ret	 4
??0?$_Alloc_construct_ptr@V?$allocator@U?$_List_node@USCommand@CInstanceBase@@PAX@std@@@std@@@std@@QAE@AAV?$allocator@U?$_List_node@USCommand@CInstanceBase@@PAX@std@@@1@@Z ENDP ; std::_Alloc_construct_ptr<std::allocator<std::_List_node<CInstanceBase::SCommand,void *> > >::_Alloc_construct_ptr<std::allocator<std::_List_node<CInstanceBase::SCommand,void *> > >
_TEXT	ENDS
; Function compile flags: /Ogtp
; File C:\Program Files\Microsoft Visual Studio\2022\Community\VC\Tools\MSVC\14.44.35207\include\xmemory
;	COMDAT ?_Get_first@?$_Compressed_pair@V?$allocator@PAVCInstanceBase@@@std@@V?$_Vector_val@U?$_Simple_types@PAVCInstanceBase@@@std@@@2@$00@std@@QAEAAV?$allocator@PAVCInstanceBase@@@2@XZ
_TEXT	SEGMENT
?_Get_first@?$_Compressed_pair@V?$allocator@PAVCInstanceBase@@@std@@V?$_Vector_val@U?$_Simple_types@PAVCInstanceBase@@@std@@@2@$00@std@@QAEAAV?$allocator@PAVCInstanceBase@@@2@XZ PROC ; std::_Compressed_pair<std::allocator<CInstanceBase *>,std::_Vector_val<std::_Simple_types<CInstanceBase *> >,1>::_Get_first, COMDAT
; _this$ = ecx

; 1539 :         return *this;

  00000	8b c1		 mov	 eax, ecx

; 1540 :     }

  00002	c3		 ret	 0
?_Get_first@?$_Compressed_pair@V?$allocator@PAVCInstanceBase@@@std@@V?$_Vector_val@U?$_Simple_types@PAVCInstanceBase@@@std@@@2@$00@std@@QAEAAV?$allocator@PAVCInstanceBase@@@2@XZ ENDP ; std::_Compressed_pair<std::allocator<CInstanceBase *>,std::_Vector_val<std::_Simple_types<CInstanceBase *> >,1>::_Get_first
_TEXT	ENDS
; Function compile flags: /Ogtp
; File C:\Program Files\Microsoft Visual Studio\2022\Community\VC\Tools\MSVC\14.44.35207\include\vector
;	COMDAT ??0?$_Vector_val@U?$_Simple_types@PAVCInstanceBase@@@std@@@std@@QAE@XZ
_TEXT	SEGMENT
??0?$_Vector_val@U?$_Simple_types@PAVCInstanceBase@@@std@@@std@@QAE@XZ PROC ; std::_Vector_val<std::_Simple_types<CInstanceBase *> >::_Vector_val<std::_Simple_types<CInstanceBase *> >, COMDAT
; _this$ = ecx

; 400  :     _CONSTEXPR20 _Vector_val() noexcept : _Myfirst(), _Mylast(), _Myend() {}

  00000	c7 01 00 00 00
	00		 mov	 DWORD PTR [ecx], 0
  00006	8b c1		 mov	 eax, ecx
  00008	c7 41 04 00 00
	00 00		 mov	 DWORD PTR [ecx+4], 0
  0000f	c7 41 08 00 00
	00 00		 mov	 DWORD PTR [ecx+8], 0
  00016	c3		 ret	 0
??0?$_Vector_val@U?$_Simple_types@PAVCInstanceBase@@@std@@@std@@QAE@XZ ENDP ; std::_Vector_val<std::_Simple_types<CInstanceBase *> >::_Vector_val<std::_Simple_types<CInstanceBase *> >
_TEXT	ENDS
; Function compile flags: /Ogtp
; File C:\Program Files\Microsoft Visual Studio\2022\Community\VC\Tools\MSVC\14.44.35207\include\xmemory
;	COMDAT ?max_size@?$_Default_allocator_traits@V?$allocator@PAVCInstanceBase@@@std@@@std@@SAIABV?$allocator@PAVCInstanceBase@@@2@@Z
_TEXT	SEGMENT
?max_size@?$_Default_allocator_traits@V?$allocator@PAVCInstanceBase@@@std@@@std@@SAIABV?$allocator@PAVCInstanceBase@@@2@@Z PROC ; std::_Default_allocator_traits<std::allocator<CInstanceBase *> >::max_size, COMDAT
; ___formal$dead$ = ecx

; 746  :         return static_cast<size_t>(-1) / sizeof(value_type);

  00000	b8 ff ff ff 3f	 mov	 eax, 1073741823		; 3fffffffH

; 747  :     }

  00005	c3		 ret	 0
?max_size@?$_Default_allocator_traits@V?$allocator@PAVCInstanceBase@@@std@@@std@@SAIABV?$allocator@PAVCInstanceBase@@@2@@Z ENDP ; std::_Default_allocator_traits<std::allocator<CInstanceBase *> >::max_size
_TEXT	ENDS
; Function compile flags: /Ogtp
; File C:\Program Files\Microsoft Visual Studio\2022\Community\VC\Tools\MSVC\14.44.35207\include\xmemory
;	COMDAT ?_Get_first@?$_Compressed_pair@V?$allocator@U?$_List_node@USEffectDamage@CInstanceBase@@PAX@std@@@std@@V?$_List_val@U?$_List_simple_types@USEffectDamage@CInstanceBase@@@std@@@2@$00@std@@QAEAAV?$allocator@U?$_List_node@USEffectDamage@CInstanceBase@@PAX@std@@@2@XZ
_TEXT	SEGMENT
?_Get_first@?$_Compressed_pair@V?$allocator@U?$_List_node@USEffectDamage@CInstanceBase@@PAX@std@@@std@@V?$_List_val@U?$_List_simple_types@USEffectDamage@CInstanceBase@@@std@@@2@$00@std@@QAEAAV?$allocator@U?$_List_node@USEffectDamage@CInstanceBase@@PAX@std@@@2@XZ PROC ; std::_Compressed_pair<std::allocator<std::_List_node<CInstanceBase::SEffectDamage,void *> >,std::_List_val<std::_List_simple_types<CInstanceBase::SEffectDamage> >,1>::_Get_first, COMDAT
; _this$ = ecx

; 1539 :         return *this;

  00000	8b c1		 mov	 eax, ecx

; 1540 :     }

  00002	c3		 ret	 0
?_Get_first@?$_Compressed_pair@V?$allocator@U?$_List_node@USEffectDamage@CInstanceBase@@PAX@std@@@std@@V?$_List_val@U?$_List_simple_types@USEffectDamage@CInstanceBase@@@std@@@2@$00@std@@QAEAAV?$allocator@U?$_List_node@USEffectDamage@CInstanceBase@@PAX@std@@@2@XZ ENDP ; std::_Compressed_pair<std::allocator<std::_List_node<CInstanceBase::SEffectDamage,void *> >,std::_List_val<std::_List_simple_types<CInstanceBase::SEffectDamage> >,1>::_Get_first
_TEXT	ENDS
; Function compile flags: /Ogtp
; File C:\Program Files\Microsoft Visual Studio\2022\Community\VC\Tools\MSVC\14.44.35207\include\xmemory
;	COMDAT ?deallocate@?$_Default_allocator_traits@V?$allocator@U?$_List_node@USEffectDamage@CInstanceBase@@PAX@std@@@std@@@std@@SAXAAV?$allocator@U?$_List_node@USEffectDamage@CInstanceBase@@PAX@std@@@2@QAU?$_List_node@USEffectDamage@CInstanceBase@@PAX@2@I@Z
_TEXT	SEGMENT
__Count$dead$ = 8					; size = 4
?deallocate@?$_Default_allocator_traits@V?$allocator@U?$_List_node@USEffectDamage@CInstanceBase@@PAX@std@@@std@@@std@@SAXAAV?$allocator@U?$_List_node@USEffectDamage@CInstanceBase@@PAX@std@@@2@QAU?$_List_node@USEffectDamage@CInstanceBase@@PAX@2@I@Z PROC ; std::_Default_allocator_traits<std::allocator<std::_List_node<CInstanceBase::SEffectDamage,void *> > >::deallocate, COMDAT
; __Al$dead$ = ecx
; __Ptr$ = edx

; 289  :         ::operator delete(_Ptr, _Bytes);

  00000	6a 18		 push	 24			; 00000018H
  00002	52		 push	 edx
  00003	e8 00 00 00 00	 call	 ??3@YAXPAXI@Z		; operator delete
  00008	83 c4 08	 add	 esp, 8

; 715  :         // no overflow check on the following multiply; we assume _Allocate did that check
; 716  : #if _HAS_CXX20 // TRANSITION, GH-1532
; 717  :         if (_STD is_constant_evaluated()) {
; 718  :             _Al.deallocate(_Ptr, _Count);
; 719  :         } else
; 720  : #endif // _HAS_CXX20
; 721  :         {
; 722  :             (void) _Al;
; 723  :             _STD _Deallocate<_New_alignof<value_type>>(_Ptr, sizeof(value_type) * _Count);
; 724  :         }
; 725  :     }

  0000b	c3		 ret	 0
?deallocate@?$_Default_allocator_traits@V?$allocator@U?$_List_node@USEffectDamage@CInstanceBase@@PAX@std@@@std@@@std@@SAXAAV?$allocator@U?$_List_node@USEffectDamage@CInstanceBase@@PAX@std@@@2@QAU?$_List_node@USEffectDamage@CInstanceBase@@PAX@2@I@Z ENDP ; std::_Default_allocator_traits<std::allocator<std::_List_node<CInstanceBase::SEffectDamage,void *> > >::deallocate
_TEXT	ENDS
; Function compile flags: /Ogtp
; File C:\Program Files\Microsoft Visual Studio\2022\Community\VC\Tools\MSVC\14.44.35207\include\xmemory
;	COMDAT ?max_size@?$_Default_allocator_traits@V?$allocator@U?$_List_node@USCommand@CInstanceBase@@PAX@std@@@std@@@std@@SAIABV?$allocator@U?$_List_node@USCommand@CInstanceBase@@PAX@std@@@2@@Z
_TEXT	SEGMENT
?max_size@?$_Default_allocator_traits@V?$allocator@U?$_List_node@USCommand@CInstanceBase@@PAX@std@@@std@@@std@@SAIABV?$allocator@U?$_List_node@USCommand@CInstanceBase@@PAX@std@@@2@@Z PROC ; std::_Default_allocator_traits<std::allocator<std::_List_node<CInstanceBase::SCommand,void *> > >::max_size, COMDAT
; ___formal$dead$ = ecx

; 746  :         return static_cast<size_t>(-1) / sizeof(value_type);

  00000	b8 5d 74 d1 05	 mov	 eax, 97612893		; 05d1745dH

; 747  :     }

  00005	c3		 ret	 0
?max_size@?$_Default_allocator_traits@V?$allocator@U?$_List_node@USCommand@CInstanceBase@@PAX@std@@@std@@@std@@SAIABV?$allocator@U?$_List_node@USCommand@CInstanceBase@@PAX@std@@@2@@Z ENDP ; std::_Default_allocator_traits<std::allocator<std::_List_node<CInstanceBase::SCommand,void *> > >::max_size
_TEXT	ENDS
; Function compile flags: /Ogtp
; File C:\Program Files\Microsoft Visual Studio\2022\Community\VC\Tools\MSVC\14.44.35207\include\xmemory
;	COMDAT ?deallocate@?$_Default_allocator_traits@V?$allocator@U?$_List_node@USCommand@CInstanceBase@@PAX@std@@@std@@@std@@SAXAAV?$allocator@U?$_List_node@USCommand@CInstanceBase@@PAX@std@@@2@QAU?$_List_node@USCommand@CInstanceBase@@PAX@2@I@Z
_TEXT	SEGMENT
__Count$dead$ = 8					; size = 4
?deallocate@?$_Default_allocator_traits@V?$allocator@U?$_List_node@USCommand@CInstanceBase@@PAX@std@@@std@@@std@@SAXAAV?$allocator@U?$_List_node@USCommand@CInstanceBase@@PAX@std@@@2@QAU?$_List_node@USCommand@CInstanceBase@@PAX@2@I@Z PROC ; std::_Default_allocator_traits<std::allocator<std::_List_node<CInstanceBase::SCommand,void *> > >::deallocate, COMDAT
; __Al$dead$ = ecx
; __Ptr$ = edx

; 289  :         ::operator delete(_Ptr, _Bytes);

  00000	6a 2c		 push	 44			; 0000002cH
  00002	52		 push	 edx
  00003	e8 00 00 00 00	 call	 ??3@YAXPAXI@Z		; operator delete
  00008	83 c4 08	 add	 esp, 8

; 715  :         // no overflow check on the following multiply; we assume _Allocate did that check
; 716  : #if _HAS_CXX20 // TRANSITION, GH-1532
; 717  :         if (_STD is_constant_evaluated()) {
; 718  :             _Al.deallocate(_Ptr, _Count);
; 719  :         } else
; 720  : #endif // _HAS_CXX20
; 721  :         {
; 722  :             (void) _Al;
; 723  :             _STD _Deallocate<_New_alignof<value_type>>(_Ptr, sizeof(value_type) * _Count);
; 724  :         }
; 725  :     }

  0000b	c3		 ret	 0
?deallocate@?$_Default_allocator_traits@V?$allocator@U?$_List_node@USCommand@CInstanceBase@@PAX@std@@@std@@@std@@SAXAAV?$allocator@U?$_List_node@USCommand@CInstanceBase@@PAX@std@@@2@QAU?$_List_node@USCommand@CInstanceBase@@PAX@2@I@Z ENDP ; std::_Default_allocator_traits<std::allocator<std::_List_node<CInstanceBase::SCommand,void *> > >::deallocate
_TEXT	ENDS
; Function compile flags: /Ogtp
; File C:\Program Files\Microsoft Visual Studio\2022\Community\VC\Tools\MSVC\14.44.35207\include\list
;	COMDAT ?_Getal@?$list@USCommand@CInstanceBase@@V?$allocator@USCommand@CInstanceBase@@@std@@@std@@ABEABV?$allocator@U?$_List_node@USCommand@CInstanceBase@@PAX@std@@@2@XZ
_TEXT	SEGMENT
?_Getal@?$list@USCommand@CInstanceBase@@V?$allocator@USCommand@CInstanceBase@@@std@@@std@@ABEABV?$allocator@U?$_List_node@USCommand@CInstanceBase@@PAX@std@@@2@XZ PROC ; std::list<CInstanceBase::SCommand,std::allocator<CInstanceBase::SCommand> >::_Getal, COMDAT
; _this$ = ecx

; 1867 :         return _Mypair._Get_first();

  00000	8b c1		 mov	 eax, ecx

; 1868 :     }

  00002	c3		 ret	 0
?_Getal@?$list@USCommand@CInstanceBase@@V?$allocator@USCommand@CInstanceBase@@@std@@@std@@ABEABV?$allocator@U?$_List_node@USCommand@CInstanceBase@@PAX@std@@@2@XZ ENDP ; std::list<CInstanceBase::SCommand,std::allocator<CInstanceBase::SCommand> >::_Getal
_TEXT	ENDS
; Function compile flags: /Ogtp
; File C:\Program Files\Microsoft Visual Studio\2022\Community\VC\Tools\MSVC\14.44.35207\include\vector
;	COMDAT ?_Getal@?$vector@PAVCInstanceBase@@V?$allocator@PAVCInstanceBase@@@std@@@std@@ABEABV?$allocator@PAVCInstanceBase@@@2@XZ
_TEXT	SEGMENT
?_Getal@?$vector@PAVCInstanceBase@@V?$allocator@PAVCInstanceBase@@@std@@@std@@ABEABV?$allocator@PAVCInstanceBase@@@2@XZ PROC ; std::vector<CInstanceBase *,std::allocator<CInstanceBase *> >::_Getal, COMDAT
; _this$ = ecx

; 2231 :         return _Mypair._Get_first();

  00000	8b c1		 mov	 eax, ecx

; 2232 :     }

  00002	c3		 ret	 0
?_Getal@?$vector@PAVCInstanceBase@@V?$allocator@PAVCInstanceBase@@@std@@@std@@ABEABV?$allocator@PAVCInstanceBase@@@2@XZ ENDP ; std::vector<CInstanceBase *,std::allocator<CInstanceBase *> >::_Getal
_TEXT	ENDS
; Function compile flags: /Ogtp
; File C:\Program Files\Microsoft Visual Studio\2022\Community\VC\Tools\MSVC\14.44.35207\include\vector
; File C:\Program Files\Microsoft Visual Studio\2022\Community\VC\Tools\MSVC\14.44.35207\include\xmemory
; File C:\Program Files\Microsoft Visual Studio\2022\Community\VC\Tools\MSVC\14.44.35207\include\vector
; File C:\Program Files\Microsoft Visual Studio\2022\Community\VC\Tools\MSVC\14.44.35207\include\xmemory
; File C:\Program Files\Microsoft Visual Studio\2022\Community\VC\Tools\MSVC\14.44.35207\include\vector
;	COMDAT ?_Change_array@?$vector@PAVCInstanceBase@@V?$allocator@PAVCInstanceBase@@@std@@@std@@AAEXQAPAVCInstanceBase@@II@Z
_TEXT	SEGMENT
__Newvec$ = 8						; size = 4
__Newsize$ = 12						; size = 4
__Newcapacity$ = 16					; size = 4
?_Change_array@?$vector@PAVCInstanceBase@@V?$allocator@PAVCInstanceBase@@@std@@@std@@AAEXQAPAVCInstanceBase@@II@Z PROC ; std::vector<CInstanceBase *,std::allocator<CInstanceBase *> >::_Change_array, COMDAT
; _this$ = ecx

; 2059 :         const pointer _Newvec, const size_type _Newsize, const size_type _Newcapacity) noexcept {

  00000	55		 push	 ebp
  00001	8b ec		 mov	 ebp, esp
  00003	56		 push	 esi
  00004	8b f1		 mov	 esi, ecx

; 2060 :         // orphan all iterators, discard old array, acquire new array
; 2061 :         auto& _Al         = _Getal();
; 2062 :         auto& _My_data    = _Mypair._Myval2;
; 2063 :         pointer& _Myfirst = _My_data._Myfirst;
; 2064 :         pointer& _Mylast  = _My_data._Mylast;
; 2065 :         pointer& _Myend   = _My_data._Myend;
; 2066 : 
; 2067 :         _My_data._Orphan_all();
; 2068 : 
; 2069 :         if (_Myfirst) { // destroy and deallocate old array

  00006	8b 06		 mov	 eax, DWORD PTR [esi]
  00008	85 c0		 test	 eax, eax
  0000a	74 2c		 je	 SHORT $LN8@Change_arr

; 2070 :             _STD _Destroy_range(_Myfirst, _Mylast, _Al);
; 2071 :             _ASAN_VECTOR_REMOVE;
; 2072 :             _Al.deallocate(_Myfirst, static_cast<size_type>(_Myend - _Myfirst));

  0000c	8b 4e 08	 mov	 ecx, DWORD PTR [esi+8]
  0000f	2b c8		 sub	 ecx, eax
; File C:\Program Files\Microsoft Visual Studio\2022\Community\VC\Tools\MSVC\14.44.35207\include\xmemory

; 985  :         _STD _Deallocate<_New_alignof<_Ty>>(_Ptr, sizeof(_Ty) * _Count);

  00011	83 e1 fc	 and	 ecx, -4			; fffffffcH

; 284  :         if (_Bytes >= _Big_allocation_threshold) {

  00014	81 f9 00 10 00
	00		 cmp	 ecx, 4096		; 00001000H
  0001a	72 12		 jb	 SHORT $LN16@Change_arr

; 205  :     const uintptr_t _Ptr_container   = _Ptr_user[-1];

  0001c	8b 50 fc	 mov	 edx, DWORD PTR [eax-4]
  0001f	83 c1 23	 add	 ecx, 35			; 00000023H

; 206  : 
; 207  :     // If the following asserts, it likely means that we are performing
; 208  :     // an aligned delete on memory coming from an unaligned allocation.
; 209  :     _STL_ASSERT(_Ptr_user[-2] == _Big_allocation_sentinel, "invalid argument");
; 210  : 
; 211  :     // Extra paranoia on aligned allocation/deallocation; ensure _Ptr_container is
; 212  :     // in range [_Min_back_shift, _Non_user_size]
; 213  : #ifdef _DEBUG
; 214  :     constexpr uintptr_t _Min_back_shift = 2 * sizeof(void*);
; 215  : #else // ^^^ defined(_DEBUG) / !defined(_DEBUG) vvv
; 216  :     constexpr uintptr_t _Min_back_shift = sizeof(void*);
; 217  : #endif // ^^^ !defined(_DEBUG) ^^^
; 218  :     const uintptr_t _Back_shift = reinterpret_cast<uintptr_t>(_Ptr) - _Ptr_container;

  00022	2b c2		 sub	 eax, edx

; 219  :     _STL_VERIFY(_Back_shift >= _Min_back_shift && _Back_shift <= _Non_user_size, "invalid argument");

  00024	83 c0 fc	 add	 eax, -4			; fffffffcH
  00027	83 f8 1f	 cmp	 eax, 31			; 0000001fH
  0002a	77 28		 ja	 SHORT $LN15@Change_arr

; 220  :     _Ptr = reinterpret_cast<void*>(_Ptr_container);

  0002c	8b c2		 mov	 eax, edx
$LN16@Change_arr:

; 289  :         ::operator delete(_Ptr, _Bytes);

  0002e	51		 push	 ecx
  0002f	50		 push	 eax
  00030	e8 00 00 00 00	 call	 ??3@YAXPAXI@Z		; operator delete
  00035	83 c4 08	 add	 esp, 8
$LN8@Change_arr:
; File C:\Program Files\Microsoft Visual Studio\2022\Community\VC\Tools\MSVC\14.44.35207\include\vector

; 2075 :         _Myfirst = _Newvec;

  00038	8b 4d 08	 mov	 ecx, DWORD PTR __Newvec$[ebp]

; 2076 :         _Mylast  = _Newvec + _Newsize;

  0003b	8b 45 0c	 mov	 eax, DWORD PTR __Newsize$[ebp]
  0003e	89 0e		 mov	 DWORD PTR [esi], ecx
  00040	8d 04 81	 lea	 eax, DWORD PTR [ecx+eax*4]
  00043	89 46 04	 mov	 DWORD PTR [esi+4], eax

; 2077 :         _Myend   = _Newvec + _Newcapacity;

  00046	8b 45 10	 mov	 eax, DWORD PTR __Newcapacity$[ebp]
  00049	8d 04 81	 lea	 eax, DWORD PTR [ecx+eax*4]
  0004c	89 46 08	 mov	 DWORD PTR [esi+8], eax
  0004f	5e		 pop	 esi

; 2079 :     }

  00050	5d		 pop	 ebp
  00051	c2 0c 00	 ret	 12			; 0000000cH
$LN15@Change_arr:
; File C:\Program Files\Microsoft Visual Studio\2022\Community\VC\Tools\MSVC\14.44.35207\include\xmemory

; 219  :     _STL_VERIFY(_Back_shift >= _Min_back_shift && _Back_shift <= _Non_user_size, "invalid argument");

  00054	6a 00		 push	 0
  00056	6a 00		 push	 0
  00058	6a 00		 push	 0
  0005a	6a 00		 push	 0
  0005c	6a 00		 push	 0
  0005e	e8 00 00 00 00	 call	 __invoke_watson
$LN23@Change_arr:
  00063	cc		 int	 3
?_Change_array@?$vector@PAVCInstanceBase@@V?$allocator@PAVCInstanceBase@@@std@@@std@@AAEXQAPAVCInstanceBase@@II@Z ENDP ; std::vector<CInstanceBase *,std::allocator<CInstanceBase *> >::_Change_array
_TEXT	ENDS
; Function compile flags: /Ogtp
; File C:\Program Files\Microsoft Visual Studio\2022\Community\VC\Tools\MSVC\14.44.35207\include\xmemory
;	COMDAT ?deallocate@?$allocator@PAVCInstanceBase@@@std@@QAEXQAPAVCInstanceBase@@I@Z
_TEXT	SEGMENT
__Ptr$ = 8						; size = 4
__Count$ = 12						; size = 4
?deallocate@?$allocator@PAVCInstanceBase@@@std@@QAEXQAPAVCInstanceBase@@I@Z PROC ; std::allocator<CInstanceBase *>::deallocate, COMDAT
; _this$dead$ = ecx

; 982  :     _CONSTEXPR20 void deallocate(_Ty* const _Ptr, const size_t _Count) noexcept /* strengthened */ {

  00000	55		 push	 ebp
  00001	8b ec		 mov	 ebp, esp

; 983  :         _STL_ASSERT(_Ptr != nullptr || _Count == 0, "null pointer cannot point to a block of non-zero size");
; 984  :         // no overflow check on the following multiply; we assume _Allocate did that check
; 985  :         _STD _Deallocate<_New_alignof<_Ty>>(_Ptr, sizeof(_Ty) * _Count);

  00003	8b 45 0c	 mov	 eax, DWORD PTR __Count$[ebp]
  00006	8d 0c 85 00 00
	00 00		 lea	 ecx, DWORD PTR [eax*4]
  0000d	8b 45 08	 mov	 eax, DWORD PTR __Ptr$[ebp]

; 284  :         if (_Bytes >= _Big_allocation_threshold) {

  00010	81 f9 00 10 00
	00		 cmp	 ecx, 4096		; 00001000H
  00016	72 12		 jb	 SHORT $LN12@deallocate

; 205  :     const uintptr_t _Ptr_container   = _Ptr_user[-1];

  00018	8b 50 fc	 mov	 edx, DWORD PTR [eax-4]
  0001b	83 c1 23	 add	 ecx, 35			; 00000023H

; 206  : 
; 207  :     // If the following asserts, it likely means that we are performing
; 208  :     // an aligned delete on memory coming from an unaligned allocation.
; 209  :     _STL_ASSERT(_Ptr_user[-2] == _Big_allocation_sentinel, "invalid argument");
; 210  : 
; 211  :     // Extra paranoia on aligned allocation/deallocation; ensure _Ptr_container is
; 212  :     // in range [_Min_back_shift, _Non_user_size]
; 213  : #ifdef _DEBUG
; 214  :     constexpr uintptr_t _Min_back_shift = 2 * sizeof(void*);
; 215  : #else // ^^^ defined(_DEBUG) / !defined(_DEBUG) vvv
; 216  :     constexpr uintptr_t _Min_back_shift = sizeof(void*);
; 217  : #endif // ^^^ !defined(_DEBUG) ^^^
; 218  :     const uintptr_t _Back_shift = reinterpret_cast<uintptr_t>(_Ptr) - _Ptr_container;

  0001e	2b c2		 sub	 eax, edx

; 219  :     _STL_VERIFY(_Back_shift >= _Min_back_shift && _Back_shift <= _Non_user_size, "invalid argument");

  00020	83 c0 fc	 add	 eax, -4			; fffffffcH
  00023	83 f8 1f	 cmp	 eax, 31			; 0000001fH
  00026	77 10		 ja	 SHORT $LN11@deallocate

; 220  :     _Ptr = reinterpret_cast<void*>(_Ptr_container);

  00028	8b c2		 mov	 eax, edx
$LN12@deallocate:

; 289  :         ::operator delete(_Ptr, _Bytes);

  0002a	51		 push	 ecx
  0002b	50		 push	 eax
  0002c	e8 00 00 00 00	 call	 ??3@YAXPAXI@Z		; operator delete
  00031	83 c4 08	 add	 esp, 8

; 986  :     }

  00034	5d		 pop	 ebp
  00035	c2 08 00	 ret	 8
$LN11@deallocate:

; 219  :     _STL_VERIFY(_Back_shift >= _Min_back_shift && _Back_shift <= _Non_user_size, "invalid argument");

  00038	6a 00		 push	 0
  0003a	6a 00		 push	 0
  0003c	6a 00		 push	 0
  0003e	6a 00		 push	 0
  00040	6a 00		 push	 0
  00042	e8 00 00 00 00	 call	 __invoke_watson
$LN15@deallocate:
  00047	cc		 int	 3
?deallocate@?$allocator@PAVCInstanceBase@@@std@@QAEXQAPAVCInstanceBase@@I@Z ENDP ; std::allocator<CInstanceBase *>::deallocate
_TEXT	ENDS
; Function compile flags: /Ogtp
; File C:\Program Files\Microsoft Visual Studio\2022\Community\VC\Tools\MSVC\14.44.35207\include\xmemory
;	COMDAT ??0?$allocator@PAVCInstanceBase@@@std@@QAE@XZ
_TEXT	SEGMENT
??0?$allocator@PAVCInstanceBase@@@std@@QAE@XZ PROC	; std::allocator<CInstanceBase *>::allocator<CInstanceBase *>, COMDAT
; _this$ = ecx

; 974  :     constexpr allocator() noexcept {}

  00000	8b c1		 mov	 eax, ecx
  00002	c3		 ret	 0
??0?$allocator@PAVCInstanceBase@@@std@@QAE@XZ ENDP	; std::allocator<CInstanceBase *>::allocator<CInstanceBase *>
_TEXT	ENDS
; Function compile flags: /Ogtp
; File C:\Program Files\Microsoft Visual Studio\2022\Community\VC\Tools\MSVC\14.44.35207\include\xmemory
;	COMDAT ?deallocate@?$_Default_allocator_traits@V?$allocator@U?$_Tree_node@U?$pair@$$CBKK@std@@PAX@std@@@std@@@std@@SAXAAV?$allocator@U?$_Tree_node@U?$pair@$$CBKK@std@@PAX@std@@@2@QAU?$_Tree_node@U?$pair@$$CBKK@std@@PAX@2@I@Z
_TEXT	SEGMENT
__Count$dead$ = 8					; size = 4
?deallocate@?$_Default_allocator_traits@V?$allocator@U?$_Tree_node@U?$pair@$$CBKK@std@@PAX@std@@@std@@@std@@SAXAAV?$allocator@U?$_Tree_node@U?$pair@$$CBKK@std@@PAX@std@@@2@QAU?$_Tree_node@U?$pair@$$CBKK@std@@PAX@2@I@Z PROC ; std::_Default_allocator_traits<std::allocator<std::_Tree_node<std::pair<unsigned long const ,unsigned long>,void *> > >::deallocate, COMDAT
; __Al$dead$ = ecx
; __Ptr$ = edx

; 289  :         ::operator delete(_Ptr, _Bytes);

  00000	6a 18		 push	 24			; 00000018H
  00002	52		 push	 edx
  00003	e8 00 00 00 00	 call	 ??3@YAXPAXI@Z		; operator delete
  00008	83 c4 08	 add	 esp, 8

; 715  :         // no overflow check on the following multiply; we assume _Allocate did that check
; 716  : #if _HAS_CXX20 // TRANSITION, GH-1532
; 717  :         if (_STD is_constant_evaluated()) {
; 718  :             _Al.deallocate(_Ptr, _Count);
; 719  :         } else
; 720  : #endif // _HAS_CXX20
; 721  :         {
; 722  :             (void) _Al;
; 723  :             _STD _Deallocate<_New_alignof<value_type>>(_Ptr, sizeof(value_type) * _Count);
; 724  :         }
; 725  :     }

  0000b	c3		 ret	 0
?deallocate@?$_Default_allocator_traits@V?$allocator@U?$_Tree_node@U?$pair@$$CBKK@std@@PAX@std@@@std@@@std@@SAXAAV?$allocator@U?$_Tree_node@U?$pair@$$CBKK@std@@PAX@std@@@2@QAU?$_Tree_node@U?$pair@$$CBKK@std@@PAX@2@I@Z ENDP ; std::_Default_allocator_traits<std::allocator<std::_Tree_node<std::pair<unsigned long const ,unsigned long>,void *> > >::deallocate
_TEXT	ENDS
; Function compile flags: /Ogtp
; File C:\Program Files\Microsoft Visual Studio\2022\Community\VC\Tools\MSVC\14.44.35207\include\xmemory
;	COMDAT ??$destroy_at@USCommand@CInstanceBase@@@std@@YAXQAUSCommand@CInstanceBase@@@Z
_TEXT	SEGMENT
??$destroy_at@USCommand@CInstanceBase@@@std@@YAXQAUSCommand@CInstanceBase@@@Z PROC ; std::destroy_at<CInstanceBase::SCommand>, COMDAT
; __Location$dead$ = ecx

; 331  : #if _HAS_CXX20
; 332  :     if constexpr (is_array_v<_Ty>) {
; 333  :         _STD _Destroy_range(_STD begin(*_Location), _STD end(*_Location));
; 334  :     } else
; 335  : #endif // _HAS_CXX20
; 336  :     {
; 337  :         _Location->~_Ty();
; 338  :     }
; 339  : }

  00000	c2 00 00	 ret	 0
??$destroy_at@USCommand@CInstanceBase@@@std@@YAXQAUSCommand@CInstanceBase@@@Z ENDP ; std::destroy_at<CInstanceBase::SCommand>
_TEXT	ENDS
; Function compile flags: /Ogtp
; File C:\Program Files\Microsoft Visual Studio\2022\Community\VC\Tools\MSVC\14.44.35207\include\xutility
;	COMDAT ??$construct_at@USCommand@CInstanceBase@@ABU12@@std@@YAPAUSCommand@CInstanceBase@@QAU12@ABU12@@Z
_TEXT	SEGMENT
??$construct_at@USCommand@CInstanceBase@@ABU12@@std@@YAPAUSCommand@CInstanceBase@@QAU12@ABU12@@Z PROC ; std::construct_at<CInstanceBase::SCommand,CInstanceBase::SCommand const &>, COMDAT
; __Location$ = ecx
; _<_Args_0>$ = edx

; 463  :     _MSVC_CONSTEXPR return ::new (static_cast<void*>(_Location)) _Ty(_STD forward<_Types>(_Args)...);

  00000	0f 10 02	 movups	 xmm0, XMMWORD PTR [edx]
  00003	0f 11 01	 movups	 XMMWORD PTR [ecx], xmm0
  00006	0f 10 42 10	 movups	 xmm0, XMMWORD PTR [edx+16]
  0000a	0f 11 41 10	 movups	 XMMWORD PTR [ecx+16], xmm0
  0000e	8b 42 20	 mov	 eax, DWORD PTR [edx+32]
  00011	89 41 20	 mov	 DWORD PTR [ecx+32], eax
  00014	8b c1		 mov	 eax, ecx

; 464  : }

  00016	c3		 ret	 0
??$construct_at@USCommand@CInstanceBase@@ABU12@@std@@YAPAUSCommand@CInstanceBase@@QAU12@ABU12@@Z ENDP ; std::construct_at<CInstanceBase::SCommand,CInstanceBase::SCommand const &>
_TEXT	ENDS
; Function compile flags: /Ogtp
; File C:\Program Files\Microsoft Visual Studio\2022\Community\VC\Tools\MSVC\14.44.35207\include\type_traits
;	COMDAT ??$addressof@U?$pair@$$CBKK@std@@@std@@YAPAU?$pair@$$CBKK@0@AAU10@@Z
_TEXT	SEGMENT
??$addressof@U?$pair@$$CBKK@std@@@std@@YAPAU?$pair@$$CBKK@0@AAU10@@Z PROC ; std::addressof<std::pair<unsigned long const ,unsigned long> >, COMDAT
; __Val$ = ecx

; 1525 :     return __builtin_addressof(_Val);

  00000	8b c1		 mov	 eax, ecx

; 1526 : }

  00002	c3		 ret	 0
??$addressof@U?$pair@$$CBKK@std@@@std@@YAPAU?$pair@$$CBKK@0@AAU10@@Z ENDP ; std::addressof<std::pair<unsigned long const ,unsigned long> >
_TEXT	ENDS
; Function compile flags: /Ogtp
; File C:\Program Files\Microsoft Visual Studio\2022\Community\VC\Tools\MSVC\14.44.35207\include\xmemory
;	COMDAT ??$destroy@U?$pair@$$CBKK@std@@@?$_Default_allocator_traits@V?$allocator@U?$_Tree_node@U?$pair@$$CBKK@std@@PAX@std@@@std@@@std@@SAXAAV?$allocator@U?$_Tree_node@U?$pair@$$CBKK@std@@PAX@std@@@1@QAU?$pair@$$CBKK@1@@Z
_TEXT	SEGMENT
??$destroy@U?$pair@$$CBKK@std@@@?$_Default_allocator_traits@V?$allocator@U?$_Tree_node@U?$pair@$$CBKK@std@@PAX@std@@@std@@@std@@SAXAAV?$allocator@U?$_Tree_node@U?$pair@$$CBKK@std@@PAX@std@@@1@QAU?$pair@$$CBKK@1@@Z PROC ; std::_Default_allocator_traits<std::allocator<std::_Tree_node<std::pair<unsigned long const ,unsigned long>,void *> > >::destroy<std::pair<unsigned long const ,unsigned long> >, COMDAT
; ___formal$dead$ = ecx
; __Ptr$dead$ = edx

; 738  : #if _HAS_CXX20
; 739  :         _STD destroy_at(_Ptr);
; 740  : #else // ^^^ _HAS_CXX20 / !_HAS_CXX20 vvv
; 741  :         _Ptr->~_Uty();
; 742  : #endif // ^^^ !_HAS_CXX20 ^^^
; 743  :     }

  00000	c2 00 00	 ret	 0
??$destroy@U?$pair@$$CBKK@std@@@?$_Default_allocator_traits@V?$allocator@U?$_Tree_node@U?$pair@$$CBKK@std@@PAX@std@@@std@@@std@@SAXAAV?$allocator@U?$_Tree_node@U?$pair@$$CBKK@std@@PAX@std@@@1@QAU?$pair@$$CBKK@1@@Z ENDP ; std::_Default_allocator_traits<std::allocator<std::_Tree_node<std::pair<unsigned long const ,unsigned long>,void *> > >::destroy<std::pair<unsigned long const ,unsigned long> >
_TEXT	ENDS
; Function compile flags: /Ogtp
; File C:\Program Files\Microsoft Visual Studio\2022\Community\VC\Tools\MSVC\14.44.35207\include\type_traits
;	COMDAT ??$addressof@USEffectDamage@CInstanceBase@@@std@@YAPAUSEffectDamage@CInstanceBase@@AAU12@@Z
_TEXT	SEGMENT
??$addressof@USEffectDamage@CInstanceBase@@@std@@YAPAUSEffectDamage@CInstanceBase@@AAU12@@Z PROC ; std::addressof<CInstanceBase::SEffectDamage>, COMDAT
; __Val$ = ecx

; 1525 :     return __builtin_addressof(_Val);

  00000	8b c1		 mov	 eax, ecx

; 1526 : }

  00002	c3		 ret	 0
??$addressof@USEffectDamage@CInstanceBase@@@std@@YAPAUSEffectDamage@CInstanceBase@@AAU12@@Z ENDP ; std::addressof<CInstanceBase::SEffectDamage>
_TEXT	ENDS
; Function compile flags: /Ogtp
; File C:\Program Files\Microsoft Visual Studio\2022\Community\VC\Tools\MSVC\14.44.35207\include\xmemory
;	COMDAT ??$destroy@USEffectDamage@CInstanceBase@@@?$_Default_allocator_traits@V?$allocator@U?$_List_node@USEffectDamage@CInstanceBase@@PAX@std@@@std@@@std@@SAXAAV?$allocator@U?$_List_node@USEffectDamage@CInstanceBase@@PAX@std@@@1@QAUSEffectDamage@CInstanceBase@@@Z
_TEXT	SEGMENT
??$destroy@USEffectDamage@CInstanceBase@@@?$_Default_allocator_traits@V?$allocator@U?$_List_node@USEffectDamage@CInstanceBase@@PAX@std@@@std@@@std@@SAXAAV?$allocator@U?$_List_node@USEffectDamage@CInstanceBase@@PAX@std@@@1@QAUSEffectDamage@CInstanceBase@@@Z PROC ; std::_Default_allocator_traits<std::allocator<std::_List_node<CInstanceBase::SEffectDamage,void *> > >::destroy<CInstanceBase::SEffectDamage>, COMDAT
; ___formal$dead$ = ecx
; __Ptr$dead$ = edx

; 738  : #if _HAS_CXX20
; 739  :         _STD destroy_at(_Ptr);
; 740  : #else // ^^^ _HAS_CXX20 / !_HAS_CXX20 vvv
; 741  :         _Ptr->~_Uty();
; 742  : #endif // ^^^ !_HAS_CXX20 ^^^
; 743  :     }

  00000	c2 00 00	 ret	 0
??$destroy@USEffectDamage@CInstanceBase@@@?$_Default_allocator_traits@V?$allocator@U?$_List_node@USEffectDamage@CInstanceBase@@PAX@std@@@std@@@std@@SAXAAV?$allocator@U?$_List_node@USEffectDamage@CInstanceBase@@PAX@std@@@1@QAUSEffectDamage@CInstanceBase@@@Z ENDP ; std::_Default_allocator_traits<std::allocator<std::_List_node<CInstanceBase::SEffectDamage,void *> > >::destroy<CInstanceBase::SEffectDamage>
_TEXT	ENDS
; Function compile flags: /Ogtp
; File C:\Program Files\Microsoft Visual Studio\2022\Community\VC\Tools\MSVC\14.44.35207\include\type_traits
;	COMDAT ??$move@AAPAVCInstanceBase@@@std@@YA$$QAPAVCInstanceBase@@AAPAV1@@Z
_TEXT	SEGMENT
??$move@AAPAVCInstanceBase@@@std@@YA$$QAPAVCInstanceBase@@AAPAV1@@Z PROC ; std::move<CInstanceBase * &>, COMDAT
; __Arg$ = ecx

; 1513 :     return static_cast<remove_reference_t<_Ty>&&>(_Arg);

  00000	8b c1		 mov	 eax, ecx

; 1514 : }

  00002	c3		 ret	 0
??$move@AAPAVCInstanceBase@@@std@@YA$$QAPAVCInstanceBase@@AAPAV1@@Z ENDP ; std::move<CInstanceBase * &>
_TEXT	ENDS
; Function compile flags: /Ogtp
; File C:\Program Files\Microsoft Visual Studio\2022\Community\VC\Tools\MSVC\14.44.35207\include\xutility
;	COMDAT ??$_Copy_memmove@PAPAVCInstanceBase@@PAPAV1@@std@@YAPAPAVCInstanceBase@@PAPAV1@00@Z
_TEXT	SEGMENT
__Dest$ = 8						; size = 4
??$_Copy_memmove@PAPAVCInstanceBase@@PAPAV1@@std@@YAPAPAVCInstanceBase@@PAPAV1@00@Z PROC ; std::_Copy_memmove<CInstanceBase * *,CInstanceBase * *>, COMDAT
; __First$ = ecx
; __Last$ = edx

; 4762 : _OutCtgIt _Copy_memmove(_CtgIt _First, _CtgIt _Last, _OutCtgIt _Dest) {

  00000	55		 push	 ebp
  00001	8b ec		 mov	 ebp, esp

; 4763 :     _STL_INTERNAL_CHECK(_First <= _Last);
; 4764 :     const auto _First_ptr    = _STD _To_address(_First);
; 4765 :     const auto _Last_ptr     = _STD _To_address(_Last);
; 4766 :     const auto _Object_count = static_cast<size_t>(_Last_ptr - _First_ptr);
; 4767 :     const auto _First_ch     = const_cast<const char*>(reinterpret_cast<const volatile char*>(_First_ptr));
; 4768 :     const auto _Last_ch      = const_cast<const char*>(reinterpret_cast<const volatile char*>(_Last_ptr));
; 4769 :     const auto _Byte_count   = static_cast<size_t>(_Last_ch - _First_ch);

  00003	2b d1		 sub	 edx, ecx

; 4770 :     return _STD _Copy_memmove_tail(_First_ch, _STD move(_Dest), _Byte_count, _Object_count);

  00005	51		 push	 ecx
  00006	52		 push	 edx
  00007	8b 55 08	 mov	 edx, DWORD PTR __Dest$[ebp]
  0000a	e8 00 00 00 00	 call	 ??$_Copy_memmove_tail@PAPAVCInstanceBase@@@std@@YAPAPAVCInstanceBase@@QBDQAPAV1@II@Z ; std::_Copy_memmove_tail<CInstanceBase * *>
  0000f	83 c4 08	 add	 esp, 8

; 4771 : }

  00012	5d		 pop	 ebp
  00013	c3		 ret	 0
??$_Copy_memmove@PAPAVCInstanceBase@@PAPAV1@@std@@YAPAPAVCInstanceBase@@PAPAV1@00@Z ENDP ; std::_Copy_memmove<CInstanceBase * *,CInstanceBase * *>
_TEXT	ENDS
; Function compile flags: /Ogtp
; File C:\Program Files\Microsoft Visual Studio\2022\Community\VC\Tools\MSVC\14.44.35207\include\xutility
;	COMDAT ??$_To_address@PAPAVCInstanceBase@@@std@@YA?A_PABQAPAVCInstanceBase@@@Z
_TEXT	SEGMENT
??$_To_address@PAPAVCInstanceBase@@@std@@YA?A_PABQAPAVCInstanceBase@@@Z PROC ; std::_To_address<CInstanceBase * *>, COMDAT
; __Val$ = ecx

; 4616 :     _STL_INTERNAL_STATIC_ASSERT(contiguous_iterator<_Iter>);
; 4617 :     return _STD to_address(_Val);

  00000	8b 01		 mov	 eax, DWORD PTR [ecx]

; 4618 : }

  00002	c3		 ret	 0
??$_To_address@PAPAVCInstanceBase@@@std@@YA?A_PABQAPAVCInstanceBase@@@Z ENDP ; std::_To_address<CInstanceBase * *>
_TEXT	ENDS
; Function compile flags: /Ogtp
; File C:\Program Files\Microsoft Visual Studio\2022\Community\VC\Tools\MSVC\14.44.35207\include\xmemory
;	COMDAT ??$_Emplace_back@PAVCInstanceBase@@@?$_Uninitialized_backout_al@V?$allocator@PAVCInstanceBase@@@std@@@std@@QAEX$$QAPAVCInstanceBase@@@Z
_TEXT	SEGMENT
_<_Vals_0>$ = 8						; size = 4
??$_Emplace_back@PAVCInstanceBase@@@?$_Uninitialized_backout_al@V?$allocator@PAVCInstanceBase@@@std@@@std@@QAEX$$QAPAVCInstanceBase@@@Z PROC ; std::_Uninitialized_backout_al<std::allocator<CInstanceBase *> >::_Emplace_back<CInstanceBase *>, COMDAT
; _this$ = ecx

; 1843 :     _CONSTEXPR20 void _Emplace_back(_Types&&... _Vals) { // construct a new element at *_Last and increment

  00000	55		 push	 ebp
  00001	8b ec		 mov	 ebp, esp

; 1844 :         allocator_traits<_Alloc>::construct(_Al, _STD _Unfancy(_Last), _STD forward<_Types>(_Vals)...);

  00003	8b 51 04	 mov	 edx, DWORD PTR [ecx+4]
  00006	8b 45 08	 mov	 eax, DWORD PTR _<_Vals_0>$[ebp]
  00009	8b 00		 mov	 eax, DWORD PTR [eax]
  0000b	89 02		 mov	 DWORD PTR [edx], eax

; 1845 :         ++_Last;

  0000d	83 41 04 04	 add	 DWORD PTR [ecx+4], 4

; 1846 :     }

  00011	5d		 pop	 ebp
  00012	c2 04 00	 ret	 4
??$_Emplace_back@PAVCInstanceBase@@@?$_Uninitialized_backout_al@V?$allocator@PAVCInstanceBase@@@std@@@std@@QAEX$$QAPAVCInstanceBase@@@Z ENDP ; std::_Uninitialized_backout_al<std::allocator<CInstanceBase *> >::_Emplace_back<CInstanceBase *>
_TEXT	ENDS
; Function compile flags: /Ogtp
; File C:\Program Files\Microsoft Visual Studio\2022\Community\VC\Tools\MSVC\14.44.35207\include\xutility
;	COMDAT ??$_Construct_in_place@PAVCInstanceBase@@ABQAV1@@std@@YAXAAPAVCInstanceBase@@ABQAV1@@Z
_TEXT	SEGMENT
??$_Construct_in_place@PAVCInstanceBase@@ABQAV1@@std@@YAXAAPAVCInstanceBase@@ABQAV1@@Z PROC ; std::_Construct_in_place<CInstanceBase *,CInstanceBase * const &>, COMDAT
; __Obj$ = ecx
; _<_Args_0>$ = edx

; 470  : #if _HAS_CXX20
; 471  :     if (_STD is_constant_evaluated()) {
; 472  :         _STD construct_at(_STD addressof(_Obj), _STD forward<_Types>(_Args)...);
; 473  :     } else
; 474  : #endif // _HAS_CXX20
; 475  :     {
; 476  :         ::new (static_cast<void*>(_STD addressof(_Obj))) _Ty(_STD forward<_Types>(_Args)...);
; 477  :     }
; 478  : }

  00000	8b 02		 mov	 eax, DWORD PTR [edx]
  00002	89 01		 mov	 DWORD PTR [ecx], eax
  00004	c3		 ret	 0
??$_Construct_in_place@PAVCInstanceBase@@ABQAV1@@std@@YAXAAPAVCInstanceBase@@ABQAV1@@Z ENDP ; std::_Construct_in_place<CInstanceBase *,CInstanceBase * const &>
_TEXT	ENDS
; Function compile flags: /Ogtp
; File C:\Program Files\Microsoft Visual Studio\2022\Community\VC\Tools\MSVC\14.44.35207\include\xmemory
; File C:\Program Files\Microsoft Visual Studio\2022\Community\VC\Tools\MSVC\14.44.35207\include\xutility
; File C:\Program Files\Microsoft Visual Studio\2022\Community\VC\Tools\MSVC\14.44.35207\include\xmemory
;	COMDAT ??$construct@PAVCInstanceBase@@ABQAV1@@?$_Default_allocator_traits@V?$allocator@PAVCInstanceBase@@@std@@@std@@SAXAAV?$allocator@PAVCInstanceBase@@@1@QAPAVCInstanceBase@@ABQAV3@@Z
_TEXT	SEGMENT
_<_Args_0>$ = 8						; size = 4
??$construct@PAVCInstanceBase@@ABQAV1@@?$_Default_allocator_traits@V?$allocator@PAVCInstanceBase@@@std@@@std@@SAXAAV?$allocator@PAVCInstanceBase@@@1@QAPAVCInstanceBase@@ABQAV3@@Z PROC ; std::_Default_allocator_traits<std::allocator<CInstanceBase *> >::construct<CInstanceBase *,CInstanceBase * const &>, COMDAT
; ___formal$dead$ = ecx
; __Ptr$ = edx

; 728  :     static _CONSTEXPR20 void construct(_Alloc&, _Objty* const _Ptr, _Types&&... _Args) {

  00000	55		 push	 ebp
  00001	8b ec		 mov	 ebp, esp
; File C:\Program Files\Microsoft Visual Studio\2022\Community\VC\Tools\MSVC\14.44.35207\include\xutility

; 463  :     _MSVC_CONSTEXPR return ::new (static_cast<void*>(_Location)) _Ty(_STD forward<_Types>(_Args)...);

  00003	8b 45 08	 mov	 eax, DWORD PTR _<_Args_0>$[ebp]
  00006	8b 00		 mov	 eax, DWORD PTR [eax]
  00008	89 02		 mov	 DWORD PTR [edx], eax
; File C:\Program Files\Microsoft Visual Studio\2022\Community\VC\Tools\MSVC\14.44.35207\include\xmemory

; 734  :     }

  0000a	5d		 pop	 ebp
  0000b	c3		 ret	 0
??$construct@PAVCInstanceBase@@ABQAV1@@?$_Default_allocator_traits@V?$allocator@PAVCInstanceBase@@@std@@@std@@SAXAAV?$allocator@PAVCInstanceBase@@@1@QAPAVCInstanceBase@@ABQAV3@@Z ENDP ; std::_Default_allocator_traits<std::allocator<CInstanceBase *> >::construct<CInstanceBase *,CInstanceBase * const &>
_TEXT	ENDS
; Function compile flags: /Ogtp
; File C:\Program Files\Microsoft Visual Studio\2022\Community\VC\Tools\MSVC\14.44.35207\include\type_traits
;	COMDAT ??$forward@ABQAU?$_List_node@USCommand@CInstanceBase@@PAX@std@@@std@@YAABQAU?$_List_node@USCommand@CInstanceBase@@PAX@0@ABQAU10@@Z
_TEXT	SEGMENT
??$forward@ABQAU?$_List_node@USCommand@CInstanceBase@@PAX@std@@@std@@YAABQAU?$_List_node@USCommand@CInstanceBase@@PAX@0@ABQAU10@@Z PROC ; std::forward<std::_List_node<CInstanceBase::SCommand,void *> * const &>, COMDAT
; __Arg$ = ecx

; 1502 :     return static_cast<_Ty&&>(_Arg);

  00000	8b c1		 mov	 eax, ecx

; 1503 : }

  00002	c3		 ret	 0
??$forward@ABQAU?$_List_node@USCommand@CInstanceBase@@PAX@std@@@std@@YAABQAU?$_List_node@USCommand@CInstanceBase@@PAX@0@ABQAU10@@Z ENDP ; std::forward<std::_List_node<CInstanceBase::SCommand,void *> * const &>
_TEXT	ENDS
; Function compile flags: /Ogtp
; File C:\Program Files\Microsoft Visual Studio\2022\Community\VC\Tools\MSVC\14.44.35207\include\xutility
;	COMDAT ??$construct_at@PAU?$_List_node@USCommand@CInstanceBase@@PAX@std@@ABQAU12@@std@@YAPAPAU?$_List_node@USCommand@CInstanceBase@@PAX@0@QAPAU10@ABQAU10@@Z
_TEXT	SEGMENT
??$construct_at@PAU?$_List_node@USCommand@CInstanceBase@@PAX@std@@ABQAU12@@std@@YAPAPAU?$_List_node@USCommand@CInstanceBase@@PAX@0@QAPAU10@ABQAU10@@Z PROC ; std::construct_at<std::_List_node<CInstanceBase::SCommand,void *> *,std::_List_node<CInstanceBase::SCommand,void *> * const &>, COMDAT
; __Location$ = ecx
; _<_Args_0>$ = edx

; 463  :     _MSVC_CONSTEXPR return ::new (static_cast<void*>(_Location)) _Ty(_STD forward<_Types>(_Args)...);

  00000	8b 02		 mov	 eax, DWORD PTR [edx]
  00002	89 01		 mov	 DWORD PTR [ecx], eax
  00004	8b c1		 mov	 eax, ecx

; 464  : }

  00006	c3		 ret	 0
??$construct_at@PAU?$_List_node@USCommand@CInstanceBase@@PAX@std@@ABQAU12@@std@@YAPAPAU?$_List_node@USCommand@CInstanceBase@@PAX@0@QAPAU10@ABQAU10@@Z ENDP ; std::construct_at<std::_List_node<CInstanceBase::SCommand,void *> *,std::_List_node<CInstanceBase::SCommand,void *> * const &>
_TEXT	ENDS
; Function compile flags: /Ogtp
; File C:\Program Files\Microsoft Visual Studio\2022\Community\VC\Tools\MSVC\14.44.35207\include\xutility
;	COMDAT ??$_Construct_in_place@PAU?$_Tree_node@U?$pair@$$CBKK@std@@PAX@std@@ABQAU12@@std@@YAXAAPAU?$_Tree_node@U?$pair@$$CBKK@std@@PAX@0@ABQAU10@@Z
_TEXT	SEGMENT
??$_Construct_in_place@PAU?$_Tree_node@U?$pair@$$CBKK@std@@PAX@std@@ABQAU12@@std@@YAXAAPAU?$_Tree_node@U?$pair@$$CBKK@std@@PAX@0@ABQAU10@@Z PROC ; std::_Construct_in_place<std::_Tree_node<std::pair<unsigned long const ,unsigned long>,void *> *,std::_Tree_node<std::pair<unsigned long const ,unsigned long>,void *> * const &>, COMDAT
; __Obj$ = ecx
; _<_Args_0>$ = edx

; 470  : #if _HAS_CXX20
; 471  :     if (_STD is_constant_evaluated()) {
; 472  :         _STD construct_at(_STD addressof(_Obj), _STD forward<_Types>(_Args)...);
; 473  :     } else
; 474  : #endif // _HAS_CXX20
; 475  :     {
; 476  :         ::new (static_cast<void*>(_STD addressof(_Obj))) _Ty(_STD forward<_Types>(_Args)...);
; 477  :     }
; 478  : }

  00000	8b 02		 mov	 eax, DWORD PTR [edx]
  00002	89 01		 mov	 DWORD PTR [ecx], eax
  00004	c3		 ret	 0
??$_Construct_in_place@PAU?$_Tree_node@U?$pair@$$CBKK@std@@PAX@std@@ABQAU12@@std@@YAXAAPAU?$_Tree_node@U?$pair@$$CBKK@std@@PAX@0@ABQAU10@@Z ENDP ; std::_Construct_in_place<std::_Tree_node<std::pair<unsigned long const ,unsigned long>,void *> *,std::_Tree_node<std::pair<unsigned long const ,unsigned long>,void *> * const &>
_TEXT	ENDS
; Function compile flags: /Ogtp
; File C:\Program Files\Microsoft Visual Studio\2022\Community\VC\Tools\MSVC\14.44.35207\include\xmemory
;	COMDAT ?_Release@?$_Uninitialized_backout_al@V?$allocator@PAVCInstanceBase@@@std@@@std@@QAEPAPAVCInstanceBase@@XZ
_TEXT	SEGMENT
?_Release@?$_Uninitialized_backout_al@V?$allocator@PAVCInstanceBase@@@std@@@std@@QAEPAPAVCInstanceBase@@XZ PROC ; std::_Uninitialized_backout_al<std::allocator<CInstanceBase *> >::_Release, COMDAT
; _this$ = ecx

; 1849 :         _First = _Last;

  00000	8b 41 04	 mov	 eax, DWORD PTR [ecx+4]
  00003	89 01		 mov	 DWORD PTR [ecx], eax

; 1850 :         return _Last;
; 1851 :     }

  00005	c3		 ret	 0
?_Release@?$_Uninitialized_backout_al@V?$allocator@PAVCInstanceBase@@@std@@@std@@QAEPAPAVCInstanceBase@@XZ ENDP ; std::_Uninitialized_backout_al<std::allocator<CInstanceBase *> >::_Release
_TEXT	ENDS
; Function compile flags: /Ogtp
; File C:\Program Files\Microsoft Visual Studio\2022\Community\VC\Tools\MSVC\14.44.35207\include\xmemory
;	COMDAT ??1?$_Uninitialized_backout_al@V?$allocator@PAVCInstanceBase@@@std@@@std@@QAE@XZ
_TEXT	SEGMENT
??1?$_Uninitialized_backout_al@V?$allocator@PAVCInstanceBase@@@std@@@std@@QAE@XZ PROC ; std::_Uninitialized_backout_al<std::allocator<CInstanceBase *> >::~_Uninitialized_backout_al<std::allocator<CInstanceBase *> >, COMDAT
; _this$ = ecx

; 1839 :         _STD _Destroy_range(_First, _Last, _Al);
; 1840 :     }

  00000	c2 00 00	 ret	 0
??1?$_Uninitialized_backout_al@V?$allocator@PAVCInstanceBase@@@std@@@std@@QAE@XZ ENDP ; std::_Uninitialized_backout_al<std::allocator<CInstanceBase *> >::~_Uninitialized_backout_al<std::allocator<CInstanceBase *> >
_TEXT	ENDS
; Function compile flags: /Ogtp
; File C:\Program Files\Microsoft Visual Studio\2022\Community\VC\Tools\MSVC\14.44.35207\include\xmemory
;	COMDAT ??0?$_Uninitialized_backout_al@V?$allocator@PAVCInstanceBase@@@std@@@std@@QAE@PAPAVCInstanceBase@@AAV?$allocator@PAVCInstanceBase@@@1@@Z
_TEXT	SEGMENT
__Dest$ = 8						; size = 4
__Al_$ = 12						; size = 4
??0?$_Uninitialized_backout_al@V?$allocator@PAVCInstanceBase@@@std@@@std@@QAE@PAPAVCInstanceBase@@AAV?$allocator@PAVCInstanceBase@@@1@@Z PROC ; std::_Uninitialized_backout_al<std::allocator<CInstanceBase *> >::_Uninitialized_backout_al<std::allocator<CInstanceBase *> >, COMDAT
; _this$ = ecx

; 1833 :     _CONSTEXPR20 _Uninitialized_backout_al(pointer _Dest, _Alloc& _Al_) : _First(_Dest), _Last(_Dest), _Al(_Al_) {}

  00000	55		 push	 ebp
  00001	8b ec		 mov	 ebp, esp
  00003	8b 45 08	 mov	 eax, DWORD PTR __Dest$[ebp]
  00006	89 01		 mov	 DWORD PTR [ecx], eax
  00008	89 41 04	 mov	 DWORD PTR [ecx+4], eax
  0000b	8b 45 0c	 mov	 eax, DWORD PTR __Al_$[ebp]
  0000e	89 41 08	 mov	 DWORD PTR [ecx+8], eax
  00011	8b c1		 mov	 eax, ecx
  00013	5d		 pop	 ebp
  00014	c2 08 00	 ret	 8
??0?$_Uninitialized_backout_al@V?$allocator@PAVCInstanceBase@@@std@@@std@@QAE@PAPAVCInstanceBase@@AAV?$allocator@PAVCInstanceBase@@@1@@Z ENDP ; std::_Uninitialized_backout_al<std::allocator<CInstanceBase *> >::_Uninitialized_backout_al<std::allocator<CInstanceBase *> >
_TEXT	ENDS
; Function compile flags: /Ogtp
; File C:\Program Files\Microsoft Visual Studio\2022\Community\VC\Tools\MSVC\14.44.35207\include\xmemory
;	COMDAT ?_Get_first@?$_Compressed_pair@V?$allocator@PAVCInstanceBase@@@std@@V?$_Vector_val@U?$_Simple_types@PAVCInstanceBase@@@std@@@2@$00@std@@QBEABV?$allocator@PAVCInstanceBase@@@2@XZ
_TEXT	SEGMENT
?_Get_first@?$_Compressed_pair@V?$allocator@PAVCInstanceBase@@@std@@V?$_Vector_val@U?$_Simple_types@PAVCInstanceBase@@@std@@@2@$00@std@@QBEABV?$allocator@PAVCInstanceBase@@@2@XZ PROC ; std::_Compressed_pair<std::allocator<CInstanceBase *>,std::_Vector_val<std::_Simple_types<CInstanceBase *> >,1>::_Get_first, COMDAT
; _this$ = ecx

; 1543 :         return *this;

  00000	8b c1		 mov	 eax, ecx

; 1544 :     }

  00002	c3		 ret	 0
?_Get_first@?$_Compressed_pair@V?$allocator@PAVCInstanceBase@@@std@@V?$_Vector_val@U?$_Simple_types@PAVCInstanceBase@@@std@@@2@$00@std@@QBEABV?$allocator@PAVCInstanceBase@@@2@XZ ENDP ; std::_Compressed_pair<std::allocator<CInstanceBase *>,std::_Vector_val<std::_Simple_types<CInstanceBase *> >,1>::_Get_first
_TEXT	ENDS
; Function compile flags: /Ogtp
; File C:\Program Files\Microsoft Visual Studio\2022\Community\VC\Tools\MSVC\14.44.35207\include\vector
; File C:\Program Files\Microsoft Visual Studio\2022\Community\VC\Tools\MSVC\14.44.35207\include\xmemory
; File C:\Program Files\Microsoft Visual Studio\2022\Community\VC\Tools\MSVC\14.44.35207\include\vector
; File C:\Program Files\Microsoft Visual Studio\2022\Community\VC\Tools\MSVC\14.44.35207\include\xmemory
; File C:\Program Files\Microsoft Visual Studio\2022\Community\VC\Tools\MSVC\14.44.35207\include\vector
;	COMDAT ??1_Reallocation_guard@?$vector@PAVCInstanceBase@@V?$allocator@PAVCInstanceBase@@@std@@@std@@QAE@XZ
_TEXT	SEGMENT
??1_Reallocation_guard@?$vector@PAVCInstanceBase@@V?$allocator@PAVCInstanceBase@@@std@@@std@@QAE@XZ PROC ; std::vector<CInstanceBase *,std::allocator<CInstanceBase *> >::_Reallocation_guard::~_Reallocation_guard, COMDAT
; _this$ = ecx

; 621  :             if (_New_begin != nullptr) {

  00000	8b 41 04	 mov	 eax, DWORD PTR [ecx+4]
  00003	85 c0		 test	 eax, eax
  00005	74 2a		 je	 SHORT $LN8@Reallocati
; File C:\Program Files\Microsoft Visual Studio\2022\Community\VC\Tools\MSVC\14.44.35207\include\xmemory

; 985  :         _STD _Deallocate<_New_alignof<_Ty>>(_Ptr, sizeof(_Ty) * _Count);

  00007	8b 49 08	 mov	 ecx, DWORD PTR [ecx+8]
  0000a	c1 e1 02	 shl	 ecx, 2

; 284  :         if (_Bytes >= _Big_allocation_threshold) {

  0000d	81 f9 00 10 00
	00		 cmp	 ecx, 4096		; 00001000H
  00013	72 12		 jb	 SHORT $LN16@Reallocati

; 205  :     const uintptr_t _Ptr_container   = _Ptr_user[-1];

  00015	8b 50 fc	 mov	 edx, DWORD PTR [eax-4]
  00018	83 c1 23	 add	 ecx, 35			; 00000023H

; 206  : 
; 207  :     // If the following asserts, it likely means that we are performing
; 208  :     // an aligned delete on memory coming from an unaligned allocation.
; 209  :     _STL_ASSERT(_Ptr_user[-2] == _Big_allocation_sentinel, "invalid argument");
; 210  : 
; 211  :     // Extra paranoia on aligned allocation/deallocation; ensure _Ptr_container is
; 212  :     // in range [_Min_back_shift, _Non_user_size]
; 213  : #ifdef _DEBUG
; 214  :     constexpr uintptr_t _Min_back_shift = 2 * sizeof(void*);
; 215  : #else // ^^^ defined(_DEBUG) / !defined(_DEBUG) vvv
; 216  :     constexpr uintptr_t _Min_back_shift = sizeof(void*);
; 217  : #endif // ^^^ !defined(_DEBUG) ^^^
; 218  :     const uintptr_t _Back_shift = reinterpret_cast<uintptr_t>(_Ptr) - _Ptr_container;

  0001b	2b c2		 sub	 eax, edx

; 219  :     _STL_VERIFY(_Back_shift >= _Min_back_shift && _Back_shift <= _Non_user_size, "invalid argument");

  0001d	83 c0 fc	 add	 eax, -4			; fffffffcH
  00020	83 f8 1f	 cmp	 eax, 31			; 0000001fH
  00023	77 0d		 ja	 SHORT $LN15@Reallocati

; 220  :     _Ptr = reinterpret_cast<void*>(_Ptr_container);

  00025	8b c2		 mov	 eax, edx
$LN16@Reallocati:

; 289  :         ::operator delete(_Ptr, _Bytes);

  00027	51		 push	 ecx
  00028	50		 push	 eax
  00029	e8 00 00 00 00	 call	 ??3@YAXPAXI@Z		; operator delete
  0002e	83 c4 08	 add	 esp, 8
$LN8@Reallocati:
; File C:\Program Files\Microsoft Visual Studio\2022\Community\VC\Tools\MSVC\14.44.35207\include\vector

; 625  :         }

  00031	c3		 ret	 0
$LN15@Reallocati:
; File C:\Program Files\Microsoft Visual Studio\2022\Community\VC\Tools\MSVC\14.44.35207\include\xmemory

; 219  :     _STL_VERIFY(_Back_shift >= _Min_back_shift && _Back_shift <= _Non_user_size, "invalid argument");

  00032	6a 00		 push	 0
  00034	6a 00		 push	 0
  00036	6a 00		 push	 0
  00038	6a 00		 push	 0
  0003a	6a 00		 push	 0
  0003c	e8 00 00 00 00	 call	 __invoke_watson
$LN20@Reallocati:
  00041	cc		 int	 3
??1_Reallocation_guard@?$vector@PAVCInstanceBase@@V?$allocator@PAVCInstanceBase@@@std@@@std@@QAE@XZ ENDP ; std::vector<CInstanceBase *,std::allocator<CInstanceBase *> >::_Reallocation_guard::~_Reallocation_guard
_TEXT	ENDS
; Function compile flags: /Ogtp
; File C:\Program Files\Microsoft Visual Studio\2022\Community\VC\Tools\MSVC\14.44.35207\include\xmemory
;	COMDAT ?deallocate@?$allocator@U?$_List_node@USEffectDamage@CInstanceBase@@PAX@std@@@std@@QAEXQAU?$_List_node@USEffectDamage@CInstanceBase@@PAX@2@I@Z
_TEXT	SEGMENT
__Ptr$ = 8						; size = 4
__Count$dead$ = 12					; size = 4
?deallocate@?$allocator@U?$_List_node@USEffectDamage@CInstanceBase@@PAX@std@@@std@@QAEXQAU?$_List_node@USEffectDamage@CInstanceBase@@PAX@2@I@Z PROC ; std::allocator<std::_List_node<CInstanceBase::SEffectDamage,void *> >::deallocate, COMDAT
; _this$dead$ = ecx

; 982  :     _CONSTEXPR20 void deallocate(_Ty* const _Ptr, const size_t _Count) noexcept /* strengthened */ {

  00000	55		 push	 ebp
  00001	8b ec		 mov	 ebp, esp

; 289  :         ::operator delete(_Ptr, _Bytes);

  00003	6a 18		 push	 24			; 00000018H
  00005	ff 75 08	 push	 DWORD PTR __Ptr$[ebp]
  00008	e8 00 00 00 00	 call	 ??3@YAXPAXI@Z		; operator delete
  0000d	83 c4 08	 add	 esp, 8

; 983  :         _STL_ASSERT(_Ptr != nullptr || _Count == 0, "null pointer cannot point to a block of non-zero size");
; 984  :         // no overflow check on the following multiply; we assume _Allocate did that check
; 985  :         _STD _Deallocate<_New_alignof<_Ty>>(_Ptr, sizeof(_Ty) * _Count);
; 986  :     }

  00010	5d		 pop	 ebp
  00011	c2 08 00	 ret	 8
?deallocate@?$allocator@U?$_List_node@USEffectDamage@CInstanceBase@@PAX@std@@@std@@QAEXQAU?$_List_node@USEffectDamage@CInstanceBase@@PAX@2@I@Z ENDP ; std::allocator<std::_List_node<CInstanceBase::SEffectDamage,void *> >::deallocate
_TEXT	ENDS
; Function compile flags: /Ogtp
; File C:\Program Files\Microsoft Visual Studio\2022\Community\VC\Tools\MSVC\14.44.35207\include\xmemory
;	COMDAT ?_Get_first@?$_Compressed_pair@V?$allocator@U?$_List_node@USCommand@CInstanceBase@@PAX@std@@@std@@V?$_List_val@U?$_List_simple_types@USCommand@CInstanceBase@@@std@@@2@$00@std@@QBEABV?$allocator@U?$_List_node@USCommand@CInstanceBase@@PAX@std@@@2@XZ
_TEXT	SEGMENT
?_Get_first@?$_Compressed_pair@V?$allocator@U?$_List_node@USCommand@CInstanceBase@@PAX@std@@@std@@V?$_List_val@U?$_List_simple_types@USCommand@CInstanceBase@@@std@@@2@$00@std@@QBEABV?$allocator@U?$_List_node@USCommand@CInstanceBase@@PAX@std@@@2@XZ PROC ; std::_Compressed_pair<std::allocator<std::_List_node<CInstanceBase::SCommand,void *> >,std::_List_val<std::_List_simple_types<CInstanceBase::SCommand> >,1>::_Get_first, COMDAT
; _this$ = ecx

; 1543 :         return *this;

  00000	8b c1		 mov	 eax, ecx

; 1544 :     }

  00002	c3		 ret	 0
?_Get_first@?$_Compressed_pair@V?$allocator@U?$_List_node@USCommand@CInstanceBase@@PAX@std@@@std@@V?$_List_val@U?$_List_simple_types@USCommand@CInstanceBase@@@std@@@2@$00@std@@QBEABV?$allocator@U?$_List_node@USCommand@CInstanceBase@@PAX@std@@@2@XZ ENDP ; std::_Compressed_pair<std::allocator<std::_List_node<CInstanceBase::SCommand,void *> >,std::_List_val<std::_List_simple_types<CInstanceBase::SCommand> >,1>::_Get_first
_TEXT	ENDS
; Function compile flags: /Ogtp
; File C:\Program Files\Microsoft Visual Studio\2022\Community\VC\Tools\MSVC\14.44.35207\include\xmemory
;	COMDAT ?deallocate@?$allocator@U?$_List_node@USCommand@CInstanceBase@@PAX@std@@@std@@QAEXQAU?$_List_node@USCommand@CInstanceBase@@PAX@2@I@Z
_TEXT	SEGMENT
__Ptr$ = 8						; size = 4
__Count$dead$ = 12					; size = 4
?deallocate@?$allocator@U?$_List_node@USCommand@CInstanceBase@@PAX@std@@@std@@QAEXQAU?$_List_node@USCommand@CInstanceBase@@PAX@2@I@Z PROC ; std::allocator<std::_List_node<CInstanceBase::SCommand,void *> >::deallocate, COMDAT
; _this$dead$ = ecx

; 982  :     _CONSTEXPR20 void deallocate(_Ty* const _Ptr, const size_t _Count) noexcept /* strengthened */ {

  00000	55		 push	 ebp
  00001	8b ec		 mov	 ebp, esp

; 289  :         ::operator delete(_Ptr, _Bytes);

  00003	6a 2c		 push	 44			; 0000002cH
  00005	ff 75 08	 push	 DWORD PTR __Ptr$[ebp]
  00008	e8 00 00 00 00	 call	 ??3@YAXPAXI@Z		; operator delete
  0000d	83 c4 08	 add	 esp, 8

; 983  :         _STL_ASSERT(_Ptr != nullptr || _Count == 0, "null pointer cannot point to a block of non-zero size");
; 984  :         // no overflow check on the following multiply; we assume _Allocate did that check
; 985  :         _STD _Deallocate<_New_alignof<_Ty>>(_Ptr, sizeof(_Ty) * _Count);
; 986  :     }

  00010	5d		 pop	 ebp
  00011	c2 08 00	 ret	 8
?deallocate@?$allocator@U?$_List_node@USCommand@CInstanceBase@@PAX@std@@@std@@QAEXQAU?$_List_node@USCommand@CInstanceBase@@PAX@2@I@Z ENDP ; std::allocator<std::_List_node<CInstanceBase::SCommand,void *> >::deallocate
_TEXT	ENDS
; Function compile flags: /Ogtp
; File C:\Program Files\Microsoft Visual Studio\2022\Community\VC\Tools\MSVC\14.44.35207\include\vector
;	COMDAT ?_Calculate_growth@?$vector@PAVCInstanceBase@@V?$allocator@PAVCInstanceBase@@@std@@@std@@ABEII@Z
_TEXT	SEGMENT
__Newsize$ = 8						; size = 4
?_Calculate_growth@?$vector@PAVCInstanceBase@@V?$allocator@PAVCInstanceBase@@@std@@@std@@ABEII@Z PROC ; std::vector<CInstanceBase *,std::allocator<CInstanceBase *> >::_Calculate_growth, COMDAT
; _this$ = ecx

; 2006 :     _CONSTEXPR20 size_type _Calculate_growth(const size_type _Newsize) const {

  00000	55		 push	 ebp
  00001	8b ec		 mov	 ebp, esp

; 1924 :         return static_cast<size_type>(_My_data._Myend - _My_data._Myfirst);

  00003	8b 51 08	 mov	 edx, DWORD PTR [ecx+8]
  00006	2b 11		 sub	 edx, DWORD PTR [ecx]

; 2007 :         // given _Oldcapacity and _Newsize, calculate geometric growth
; 2008 :         const size_type _Oldcapacity = capacity();
; 2009 :         const auto _Max              = max_size();
; 2010 : 
; 2011 :         if (_Oldcapacity > _Max - _Oldcapacity / 2) {

  00008	b9 ff ff ff 3f	 mov	 ecx, 1073741823		; 3fffffffH

; 1924 :         return static_cast<size_type>(_My_data._Myend - _My_data._Myfirst);

  0000d	c1 fa 02	 sar	 edx, 2

; 2006 :     _CONSTEXPR20 size_type _Calculate_growth(const size_type _Newsize) const {

  00010	56		 push	 esi

; 2007 :         // given _Oldcapacity and _Newsize, calculate geometric growth
; 2008 :         const size_type _Oldcapacity = capacity();
; 2009 :         const auto _Max              = max_size();
; 2010 : 
; 2011 :         if (_Oldcapacity > _Max - _Oldcapacity / 2) {

  00011	8b f2		 mov	 esi, edx
  00013	d1 ee		 shr	 esi, 1
  00015	2b ce		 sub	 ecx, esi
  00017	3b d1		 cmp	 edx, ecx
  00019	76 0a		 jbe	 SHORT $LN2@Calculate_

; 2012 :             return _Max; // geometric growth would overflow

  0001b	b8 ff ff ff 3f	 mov	 eax, 1073741823		; 3fffffffH
  00020	5e		 pop	 esi

; 2018 :             return _Newsize; // geometric growth would be insufficient
; 2019 :         }
; 2020 : 
; 2021 :         return _Geometric; // geometric growth is sufficient
; 2022 :     }

  00021	5d		 pop	 ebp
  00022	c2 04 00	 ret	 4
$LN2@Calculate_:

; 2013 :         }
; 2014 : 
; 2015 :         const size_type _Geometric = _Oldcapacity + _Oldcapacity / 2;

  00025	8d 04 16	 lea	 eax, DWORD PTR [esi+edx]

; 2016 : 
; 2017 :         if (_Geometric < _Newsize) {

  00028	3b 45 08	 cmp	 eax, DWORD PTR __Newsize$[ebp]
  0002b	5e		 pop	 esi
  0002c	0f 42 45 08	 cmovb	 eax, DWORD PTR __Newsize$[ebp]

; 2018 :             return _Newsize; // geometric growth would be insufficient
; 2019 :         }
; 2020 : 
; 2021 :         return _Geometric; // geometric growth is sufficient
; 2022 :     }

  00030	5d		 pop	 ebp
  00031	c2 04 00	 ret	 4
?_Calculate_growth@?$vector@PAVCInstanceBase@@V?$allocator@PAVCInstanceBase@@@std@@@std@@ABEII@Z ENDP ; std::vector<CInstanceBase *,std::allocator<CInstanceBase *> >::_Calculate_growth
_TEXT	ENDS
; Function compile flags: /Ogtp
; File C:\Program Files\Microsoft Visual Studio\2022\Community\VC\Tools\MSVC\14.44.35207\include\xmemory
;	COMDAT ?allocate@?$allocator@PAVCInstanceBase@@@std@@QAEPAPAVCInstanceBase@@I@Z
_TEXT	SEGMENT
__Count$ = 8						; size = 4
?allocate@?$allocator@PAVCInstanceBase@@@std@@QAEPAPAVCInstanceBase@@I@Z PROC ; std::allocator<CInstanceBase *>::allocate, COMDAT
; _this$dead$ = ecx

; 988  :     _NODISCARD_RAW_PTR_ALLOC _CONSTEXPR20 __declspec(allocator) _Ty* allocate(_CRT_GUARDOVERFLOW const size_t _Count) {

  00000	55		 push	 ebp
  00001	8b ec		 mov	 ebp, esp

; 117  :         if (_Count > _Max_possible) {

  00003	8b 45 08	 mov	 eax, DWORD PTR __Count$[ebp]
  00006	3d ff ff ff 3f	 cmp	 eax, 1073741823		; 3fffffffH
  0000b	77 2b		 ja	 SHORT $LN19@allocate

; 119  :         }
; 120  :     }
; 121  : 
; 122  :     return _Count * _Ty_size;

  0000d	c1 e0 02	 shl	 eax, 2

; 227  :     if (_Bytes == 0) {

  00010	85 c0		 test	 eax, eax
  00012	75 04		 jne	 SHORT $LN8@allocate

; 989  :         static_assert(sizeof(value_type) > 0, "value_type must be complete before calling allocate.");
; 990  :         return static_cast<_Ty*>(_STD _Allocate<_New_alignof<_Ty>>(_Get_size_of_n<sizeof(_Ty)>(_Count)));
; 991  :     }

  00014	5d		 pop	 ebp
  00015	c2 04 00	 ret	 4
$LN8@allocate:

; 251  :         if (_Bytes >= _Big_allocation_threshold) {

  00018	50		 push	 eax
  00019	3d 00 10 00 00	 cmp	 eax, 4096		; 00001000H
  0001e	72 0c		 jb	 SHORT $LN10@allocate

; 252  :             // boost the alignment of big allocations to help autovectorization
; 253  :             return _Allocate_manually_vector_aligned<_Traits>(_Bytes);

  00020	e8 00 00 00 00	 call	 ??$_Allocate_manually_vector_aligned@U_Default_allocate_traits@std@@@std@@YAPAXI@Z ; std::_Allocate_manually_vector_aligned<std::_Default_allocate_traits>

; 989  :         static_assert(sizeof(value_type) > 0, "value_type must be complete before calling allocate.");
; 990  :         return static_cast<_Ty*>(_STD _Allocate<_New_alignof<_Ty>>(_Get_size_of_n<sizeof(_Ty)>(_Count)));
; 991  :     }

  00025	83 c4 04	 add	 esp, 4
  00028	5d		 pop	 ebp
  00029	c2 04 00	 ret	 4
$LN10@allocate:

; 136  :         return ::operator new(_Bytes);

  0002c	e8 00 00 00 00	 call	 ??2@YAPAXI@Z		; operator new

; 989  :         static_assert(sizeof(value_type) > 0, "value_type must be complete before calling allocate.");
; 990  :         return static_cast<_Ty*>(_STD _Allocate<_New_alignof<_Ty>>(_Get_size_of_n<sizeof(_Ty)>(_Count)));
; 991  :     }

  00031	83 c4 04	 add	 esp, 4
  00034	5d		 pop	 ebp
  00035	c2 04 00	 ret	 4
$LN19@allocate:

; 118  :             _Throw_bad_array_new_length(); // multiply overflow

  00038	e8 00 00 00 00	 call	 ?_Throw_bad_array_new_length@std@@YAXXZ ; std::_Throw_bad_array_new_length
$LN16@allocate:
  0003d	cc		 int	 3
?allocate@?$allocator@PAVCInstanceBase@@@std@@QAEPAPAVCInstanceBase@@I@Z ENDP ; std::allocator<CInstanceBase *>::allocate
_TEXT	ENDS
; Function compile flags: /Ogtp
; File C:\Program Files\Microsoft Visual Studio\2022\Community\VC\Tools\MSVC\14.44.35207\include\xtree
;	COMDAT ??0?$_Tree_val@U?$_Tree_simple_types@U?$pair@$$CBKK@std@@@std@@@std@@QAE@XZ
_TEXT	SEGMENT
??0?$_Tree_val@U?$_Tree_simple_types@U?$pair@$$CBKK@std@@@std@@@std@@QAE@XZ PROC ; std::_Tree_val<std::_Tree_simple_types<std::pair<unsigned long const ,unsigned long> > >::_Tree_val<std::_Tree_simple_types<std::pair<unsigned long const ,unsigned long> > >, COMDAT
; _this$ = ecx

; 450  :     _Tree_val() noexcept : _Myhead(), _Mysize(0) {}

  00000	c7 01 00 00 00
	00		 mov	 DWORD PTR [ecx], 0
  00006	8b c1		 mov	 eax, ecx
  00008	c7 41 04 00 00
	00 00		 mov	 DWORD PTR [ecx+4], 0
  0000f	c3		 ret	 0
??0?$_Tree_val@U?$_Tree_simple_types@U?$pair@$$CBKK@std@@@std@@@std@@QAE@XZ ENDP ; std::_Tree_val<std::_Tree_simple_types<std::pair<unsigned long const ,unsigned long> > >::_Tree_val<std::_Tree_simple_types<std::pair<unsigned long const ,unsigned long> > >
_TEXT	ENDS
; Function compile flags: /Ogtp
; File C:\Program Files\Microsoft Visual Studio\2022\Community\VC\Tools\MSVC\14.44.35207\include\xmemory
;	COMDAT ?allocate@?$allocator@U?$_Tree_node@U?$pair@$$CBKK@std@@PAX@std@@@std@@QAEPAU?$_Tree_node@U?$pair@$$CBKK@std@@PAX@2@I@Z
_TEXT	SEGMENT
__Count$dead$ = 8					; size = 4
?allocate@?$allocator@U?$_Tree_node@U?$pair@$$CBKK@std@@PAX@std@@@std@@QAEPAU?$_Tree_node@U?$pair@$$CBKK@std@@PAX@2@I@Z PROC ; std::allocator<std::_Tree_node<std::pair<unsigned long const ,unsigned long>,void *> >::allocate, COMDAT
; _this$dead$ = ecx

; 136  :         return ::operator new(_Bytes);

  00000	6a 18		 push	 24			; 00000018H
  00002	e8 00 00 00 00	 call	 ??2@YAPAXI@Z		; operator new
  00007	83 c4 04	 add	 esp, 4

; 989  :         static_assert(sizeof(value_type) > 0, "value_type must be complete before calling allocate.");
; 990  :         return static_cast<_Ty*>(_STD _Allocate<_New_alignof<_Ty>>(_Get_size_of_n<sizeof(_Ty)>(_Count)));
; 991  :     }

  0000a	c2 04 00	 ret	 4
?allocate@?$allocator@U?$_Tree_node@U?$pair@$$CBKK@std@@PAX@std@@@std@@QAEPAU?$_Tree_node@U?$pair@$$CBKK@std@@PAX@2@I@Z ENDP ; std::allocator<std::_Tree_node<std::pair<unsigned long const ,unsigned long>,void *> >::allocate
_TEXT	ENDS
; Function compile flags: /Ogtp
; File C:\Program Files\Microsoft Visual Studio\2022\Community\VC\Tools\MSVC\14.44.35207\include\xmemory
;	COMDAT ?deallocate@?$allocator@U?$_Tree_node@U?$pair@$$CBKK@std@@PAX@std@@@std@@QAEXQAU?$_Tree_node@U?$pair@$$CBKK@std@@PAX@2@I@Z
_TEXT	SEGMENT
__Ptr$ = 8						; size = 4
__Count$dead$ = 12					; size = 4
?deallocate@?$allocator@U?$_Tree_node@U?$pair@$$CBKK@std@@PAX@std@@@std@@QAEXQAU?$_Tree_node@U?$pair@$$CBKK@std@@PAX@2@I@Z PROC ; std::allocator<std::_Tree_node<std::pair<unsigned long const ,unsigned long>,void *> >::deallocate, COMDAT
; _this$dead$ = ecx

; 982  :     _CONSTEXPR20 void deallocate(_Ty* const _Ptr, const size_t _Count) noexcept /* strengthened */ {

  00000	55		 push	 ebp
  00001	8b ec		 mov	 ebp, esp

; 289  :         ::operator delete(_Ptr, _Bytes);

  00003	6a 18		 push	 24			; 00000018H
  00005	ff 75 08	 push	 DWORD PTR __Ptr$[ebp]
  00008	e8 00 00 00 00	 call	 ??3@YAXPAXI@Z		; operator delete
  0000d	83 c4 08	 add	 esp, 8

; 983  :         _STL_ASSERT(_Ptr != nullptr || _Count == 0, "null pointer cannot point to a block of non-zero size");
; 984  :         // no overflow check on the following multiply; we assume _Allocate did that check
; 985  :         _STD _Deallocate<_New_alignof<_Ty>>(_Ptr, sizeof(_Ty) * _Count);
; 986  :     }

  00010	5d		 pop	 ebp
  00011	c2 08 00	 ret	 8
?deallocate@?$allocator@U?$_Tree_node@U?$pair@$$CBKK@std@@PAX@std@@@std@@QAEXQAU?$_Tree_node@U?$pair@$$CBKK@std@@PAX@2@I@Z ENDP ; std::allocator<std::_Tree_node<std::pair<unsigned long const ,unsigned long>,void *> >::deallocate
_TEXT	ENDS
; Function compile flags: /Ogtp
; File C:\Program Files\Microsoft Visual Studio\2022\Community\VC\Tools\MSVC\14.44.35207\include\xmemory
;	COMDAT ??0?$allocator@U?$_Tree_node@U?$pair@$$CBKK@std@@PAX@std@@@std@@QAE@XZ
_TEXT	SEGMENT
??0?$allocator@U?$_Tree_node@U?$pair@$$CBKK@std@@PAX@std@@@std@@QAE@XZ PROC ; std::allocator<std::_Tree_node<std::pair<unsigned long const ,unsigned long>,void *> >::allocator<std::_Tree_node<std::pair<unsigned long const ,unsigned long>,void *> >, COMDAT
; _this$ = ecx

; 974  :     constexpr allocator() noexcept {}

  00000	8b c1		 mov	 eax, ecx
  00002	c3		 ret	 0
??0?$allocator@U?$_Tree_node@U?$pair@$$CBKK@std@@PAX@std@@@std@@QAE@XZ ENDP ; std::allocator<std::_Tree_node<std::pair<unsigned long const ,unsigned long>,void *> >::allocator<std::_Tree_node<std::pair<unsigned long const ,unsigned long>,void *> >
_TEXT	ENDS
; Function compile flags: /Ogtp
; File C:\Program Files\Microsoft Visual Studio\2022\Community\VC\Tools\MSVC\14.44.35207\include\xmemory
;	COMDAT ??$destroy_at@U?$pair@$$CBKK@std@@@std@@YAXQAU?$pair@$$CBKK@0@@Z
_TEXT	SEGMENT
??$destroy_at@U?$pair@$$CBKK@std@@@std@@YAXQAU?$pair@$$CBKK@0@@Z PROC ; std::destroy_at<std::pair<unsigned long const ,unsigned long> >, COMDAT
; __Location$dead$ = ecx

; 331  : #if _HAS_CXX20
; 332  :     if constexpr (is_array_v<_Ty>) {
; 333  :         _STD _Destroy_range(_STD begin(*_Location), _STD end(*_Location));
; 334  :     } else
; 335  : #endif // _HAS_CXX20
; 336  :     {
; 337  :         _Location->~_Ty();
; 338  :     }
; 339  : }

  00000	c2 00 00	 ret	 0
??$destroy_at@U?$pair@$$CBKK@std@@@std@@YAXQAU?$pair@$$CBKK@0@@Z ENDP ; std::destroy_at<std::pair<unsigned long const ,unsigned long> >
_TEXT	ENDS
; Function compile flags: /Ogtp
; File C:\Program Files\Microsoft Visual Studio\2022\Community\VC\Tools\MSVC\14.44.35207\include\xmemory
;	COMDAT ??$destroy_at@USEffectDamage@CInstanceBase@@@std@@YAXQAUSEffectDamage@CInstanceBase@@@Z
_TEXT	SEGMENT
??$destroy_at@USEffectDamage@CInstanceBase@@@std@@YAXQAUSEffectDamage@CInstanceBase@@@Z PROC ; std::destroy_at<CInstanceBase::SEffectDamage>, COMDAT
; __Location$dead$ = ecx

; 331  : #if _HAS_CXX20
; 332  :     if constexpr (is_array_v<_Ty>) {
; 333  :         _STD _Destroy_range(_STD begin(*_Location), _STD end(*_Location));
; 334  :     } else
; 335  : #endif // _HAS_CXX20
; 336  :     {
; 337  :         _Location->~_Ty();
; 338  :     }
; 339  : }

  00000	c2 00 00	 ret	 0
??$destroy_at@USEffectDamage@CInstanceBase@@@std@@YAXQAUSEffectDamage@CInstanceBase@@@Z ENDP ; std::destroy_at<CInstanceBase::SEffectDamage>
_TEXT	ENDS
; Function compile flags: /Ogtp
; File C:\Program Files\Microsoft Visual Studio\2022\Community\VC\Tools\MSVC\14.44.35207\include\xutility
;	COMDAT ??$to_address@PAVCInstanceBase@@@std@@YAPAPAVCInstanceBase@@QAPAV1@@Z
_TEXT	SEGMENT
??$to_address@PAVCInstanceBase@@@std@@YAPAPAVCInstanceBase@@QAPAV1@@Z PROC ; std::to_address<CInstanceBase *>, COMDAT
; __Val$ = ecx

; 541  :     static_assert(!is_function_v<_Ty>, "N4950 [pointer.conversion]/1: Mandates: T is not a function type.");
; 542  :     return _Val;

  00000	8b c1		 mov	 eax, ecx

; 543  : }

  00002	c3		 ret	 0
??$to_address@PAVCInstanceBase@@@std@@YAPAPAVCInstanceBase@@QAPAV1@@Z ENDP ; std::to_address<CInstanceBase *>
_TEXT	ENDS
; Function compile flags: /Ogtp
; File C:\Program Files\Microsoft Visual Studio\2022\Community\VC\Tools\MSVC\14.44.35207\include\type_traits
;	COMDAT ??$move@AAPAPAVCInstanceBase@@@std@@YA$$QAPAPAVCInstanceBase@@AAPAPAV1@@Z
_TEXT	SEGMENT
??$move@AAPAPAVCInstanceBase@@@std@@YA$$QAPAPAVCInstanceBase@@AAPAPAV1@@Z PROC ; std::move<CInstanceBase * * &>, COMDAT
; __Arg$ = ecx

; 1513 :     return static_cast<remove_reference_t<_Ty>&&>(_Arg);

  00000	8b c1		 mov	 eax, ecx

; 1514 : }

  00002	c3		 ret	 0
??$move@AAPAPAVCInstanceBase@@@std@@YA$$QAPAPAVCInstanceBase@@AAPAPAV1@@Z ENDP ; std::move<CInstanceBase * * &>
_TEXT	ENDS
; Function compile flags: /Ogtp
; File C:\Program Files\Microsoft Visual Studio\2022\Community\VC\Tools\MSVC\14.44.35207\include\xutility
;	COMDAT ??$_Copy_memmove_tail@PAPAVCInstanceBase@@@std@@YAPAPAVCInstanceBase@@QBDQAPAV1@II@Z
_TEXT	SEGMENT
__Byte_count$ = 8					; size = 4
__Object_count$dead$ = 12				; size = 4
??$_Copy_memmove_tail@PAPAVCInstanceBase@@@std@@YAPAPAVCInstanceBase@@QBDQAPAV1@II@Z PROC ; std::_Copy_memmove_tail<CInstanceBase * *>, COMDAT
; __First_ch$ = ecx
; __Dest$ = edx

; 4747 :     const char* const _First_ch, const _OutCtgIt _Dest, const size_t _Byte_count, const size_t _Object_count) {

  00000	55		 push	 ebp
  00001	8b ec		 mov	 ebp, esp
  00003	56		 push	 esi

; 4748 :     _STL_INTERNAL_CHECK(_Byte_count == _Object_count * sizeof(*_Dest));
; 4749 :     const auto _Dest_ptr = _STD _To_address(_Dest);
; 4750 :     const auto _Dest_ch  = const_cast<char*>(reinterpret_cast<const volatile char*>(_Dest_ptr));
; 4751 :     _CSTD memmove(_Dest_ch, _First_ch, _Byte_count);

  00004	8b 75 08	 mov	 esi, DWORD PTR __Byte_count$[ebp]
  00007	57		 push	 edi
  00008	56		 push	 esi
  00009	8b fa		 mov	 edi, edx
  0000b	51		 push	 ecx
  0000c	57		 push	 edi
  0000d	e8 00 00 00 00	 call	 _memmove
  00012	83 c4 0c	 add	 esp, 12			; 0000000cH

; 4752 :     if constexpr (is_pointer_v<_OutCtgIt>) {
; 4753 :         (void) _Object_count;
; 4754 :         // CodeQL [SM02986] This cast is correct: we're bypassing pointer arithmetic for performance.
; 4755 :         return reinterpret_cast<_OutCtgIt>(_Dest_ch + _Byte_count);

  00015	8d 04 37	 lea	 eax, DWORD PTR [edi+esi]
  00018	5f		 pop	 edi
  00019	5e		 pop	 esi

; 4756 :     } else {
; 4757 :         return _Dest + static_cast<_Iter_diff_t<_OutCtgIt>>(_Object_count);
; 4758 :     }
; 4759 : }

  0001a	5d		 pop	 ebp
  0001b	c3		 ret	 0
??$_Copy_memmove_tail@PAPAVCInstanceBase@@@std@@YAPAPAVCInstanceBase@@QBDQAPAV1@II@Z ENDP ; std::_Copy_memmove_tail<CInstanceBase * *>
_TEXT	ENDS
; Function compile flags: /Ogtp
; File C:\Program Files\Microsoft Visual Studio\2022\Community\VC\Tools\MSVC\14.44.35207\include\type_traits
;	COMDAT ??$forward@PAVCInstanceBase@@@std@@YA$$QAPAVCInstanceBase@@AAPAV1@@Z
_TEXT	SEGMENT
??$forward@PAVCInstanceBase@@@std@@YA$$QAPAVCInstanceBase@@AAPAV1@@Z PROC ; std::forward<CInstanceBase *>, COMDAT
; __Arg$ = ecx

; 1502 :     return static_cast<_Ty&&>(_Arg);

  00000	8b c1		 mov	 eax, ecx

; 1503 : }

  00002	c3		 ret	 0
??$forward@PAVCInstanceBase@@@std@@YA$$QAPAVCInstanceBase@@AAPAV1@@Z ENDP ; std::forward<CInstanceBase *>
_TEXT	ENDS
; Function compile flags: /Ogtp
; File C:\Program Files\Microsoft Visual Studio\2022\Community\VC\Tools\MSVC\14.44.35207\include\xmemory
; File C:\Program Files\Microsoft Visual Studio\2022\Community\VC\Tools\MSVC\14.44.35207\include\xutility
; File C:\Program Files\Microsoft Visual Studio\2022\Community\VC\Tools\MSVC\14.44.35207\include\xmemory
;	COMDAT ??$construct@PAVCInstanceBase@@PAV1@@?$_Default_allocator_traits@V?$allocator@PAVCInstanceBase@@@std@@@std@@SAXAAV?$allocator@PAVCInstanceBase@@@1@QAPAVCInstanceBase@@$$QAPAV3@@Z
_TEXT	SEGMENT
_<_Args_0>$ = 8						; size = 4
??$construct@PAVCInstanceBase@@PAV1@@?$_Default_allocator_traits@V?$allocator@PAVCInstanceBase@@@std@@@std@@SAXAAV?$allocator@PAVCInstanceBase@@@1@QAPAVCInstanceBase@@$$QAPAV3@@Z PROC ; std::_Default_allocator_traits<std::allocator<CInstanceBase *> >::construct<CInstanceBase *,CInstanceBase *>, COMDAT
; ___formal$dead$ = ecx
; __Ptr$ = edx

; 728  :     static _CONSTEXPR20 void construct(_Alloc&, _Objty* const _Ptr, _Types&&... _Args) {

  00000	55		 push	 ebp
  00001	8b ec		 mov	 ebp, esp
; File C:\Program Files\Microsoft Visual Studio\2022\Community\VC\Tools\MSVC\14.44.35207\include\xutility

; 463  :     _MSVC_CONSTEXPR return ::new (static_cast<void*>(_Location)) _Ty(_STD forward<_Types>(_Args)...);

  00003	8b 45 08	 mov	 eax, DWORD PTR _<_Args_0>$[ebp]
  00006	8b 00		 mov	 eax, DWORD PTR [eax]
  00008	89 02		 mov	 DWORD PTR [edx], eax
; File C:\Program Files\Microsoft Visual Studio\2022\Community\VC\Tools\MSVC\14.44.35207\include\xmemory

; 734  :     }

  0000a	5d		 pop	 ebp
  0000b	c3		 ret	 0
??$construct@PAVCInstanceBase@@PAV1@@?$_Default_allocator_traits@V?$allocator@PAVCInstanceBase@@@std@@@std@@SAXAAV?$allocator@PAVCInstanceBase@@@1@QAPAVCInstanceBase@@$$QAPAV3@@Z ENDP ; std::_Default_allocator_traits<std::allocator<CInstanceBase *> >::construct<CInstanceBase *,CInstanceBase *>
_TEXT	ENDS
; Function compile flags: /Ogtp
; File C:\Program Files\Microsoft Visual Studio\2022\Community\VC\Tools\MSVC\14.44.35207\include\type_traits
;	COMDAT ??$addressof@PAVCInstanceBase@@@std@@YAPAPAVCInstanceBase@@AAPAV1@@Z
_TEXT	SEGMENT
??$addressof@PAVCInstanceBase@@@std@@YAPAPAVCInstanceBase@@AAPAV1@@Z PROC ; std::addressof<CInstanceBase *>, COMDAT
; __Val$ = ecx

; 1525 :     return __builtin_addressof(_Val);

  00000	8b c1		 mov	 eax, ecx

; 1526 : }

  00002	c3		 ret	 0
??$addressof@PAVCInstanceBase@@@std@@YAPAPAVCInstanceBase@@AAPAV1@@Z ENDP ; std::addressof<CInstanceBase *>
_TEXT	ENDS
; Function compile flags: /Ogtp
; File C:\Program Files\Microsoft Visual Studio\2022\Community\VC\Tools\MSVC\14.44.35207\include\xutility
;	COMDAT ??$construct_at@PAVCInstanceBase@@ABQAV1@@std@@YAPAPAVCInstanceBase@@QAPAV1@ABQAV1@@Z
_TEXT	SEGMENT
??$construct_at@PAVCInstanceBase@@ABQAV1@@std@@YAPAPAVCInstanceBase@@QAPAV1@ABQAV1@@Z PROC ; std::construct_at<CInstanceBase *,CInstanceBase * const &>, COMDAT
; __Location$ = ecx
; _<_Args_0>$ = edx

; 463  :     _MSVC_CONSTEXPR return ::new (static_cast<void*>(_Location)) _Ty(_STD forward<_Types>(_Args)...);

  00000	8b 02		 mov	 eax, DWORD PTR [edx]
  00002	89 01		 mov	 DWORD PTR [ecx], eax
  00004	8b c1		 mov	 eax, ecx

; 464  : }

  00006	c3		 ret	 0
??$construct_at@PAVCInstanceBase@@ABQAV1@@std@@YAPAPAVCInstanceBase@@QAPAV1@ABQAV1@@Z ENDP ; std::construct_at<CInstanceBase *,CInstanceBase * const &>
_TEXT	ENDS
; Function compile flags: /Ogtp
; File C:\Program Files\Microsoft Visual Studio\2022\Community\VC\Tools\MSVC\14.44.35207\include\type_traits
;	COMDAT ??$addressof@PAU?$_Tree_node@U?$pair@$$CBKK@std@@PAX@std@@@std@@YAPAPAU?$_Tree_node@U?$pair@$$CBKK@std@@PAX@0@AAPAU10@@Z
_TEXT	SEGMENT
??$addressof@PAU?$_Tree_node@U?$pair@$$CBKK@std@@PAX@std@@@std@@YAPAPAU?$_Tree_node@U?$pair@$$CBKK@std@@PAX@0@AAPAU10@@Z PROC ; std::addressof<std::_Tree_node<std::pair<unsigned long const ,unsigned long>,void *> *>, COMDAT
; __Val$ = ecx

; 1525 :     return __builtin_addressof(_Val);

  00000	8b c1		 mov	 eax, ecx

; 1526 : }

  00002	c3		 ret	 0
??$addressof@PAU?$_Tree_node@U?$pair@$$CBKK@std@@PAX@std@@@std@@YAPAPAU?$_Tree_node@U?$pair@$$CBKK@std@@PAX@0@AAPAU10@@Z ENDP ; std::addressof<std::_Tree_node<std::pair<unsigned long const ,unsigned long>,void *> *>
_TEXT	ENDS
; Function compile flags: /Ogtp
; File C:\Program Files\Microsoft Visual Studio\2022\Community\VC\Tools\MSVC\14.44.35207\include\type_traits
;	COMDAT ??$forward@ABQAU?$_Tree_node@U?$pair@$$CBKK@std@@PAX@std@@@std@@YAABQAU?$_Tree_node@U?$pair@$$CBKK@std@@PAX@0@ABQAU10@@Z
_TEXT	SEGMENT
??$forward@ABQAU?$_Tree_node@U?$pair@$$CBKK@std@@PAX@std@@@std@@YAABQAU?$_Tree_node@U?$pair@$$CBKK@std@@PAX@0@ABQAU10@@Z PROC ; std::forward<std::_Tree_node<std::pair<unsigned long const ,unsigned long>,void *> * const &>, COMDAT
; __Arg$ = ecx

; 1502 :     return static_cast<_Ty&&>(_Arg);

  00000	8b c1		 mov	 eax, ecx

; 1503 : }

  00002	c3		 ret	 0
??$forward@ABQAU?$_Tree_node@U?$pair@$$CBKK@std@@PAX@std@@@std@@YAABQAU?$_Tree_node@U?$pair@$$CBKK@std@@PAX@0@ABQAU10@@Z ENDP ; std::forward<std::_Tree_node<std::pair<unsigned long const ,unsigned long>,void *> * const &>
_TEXT	ENDS
; Function compile flags: /Ogtp
; File C:\Program Files\Microsoft Visual Studio\2022\Community\VC\Tools\MSVC\14.44.35207\include\xutility
;	COMDAT ??$construct_at@PAU?$_Tree_node@U?$pair@$$CBKK@std@@PAX@std@@ABQAU12@@std@@YAPAPAU?$_Tree_node@U?$pair@$$CBKK@std@@PAX@0@QAPAU10@ABQAU10@@Z
_TEXT	SEGMENT
??$construct_at@PAU?$_Tree_node@U?$pair@$$CBKK@std@@PAX@std@@ABQAU12@@std@@YAPAPAU?$_Tree_node@U?$pair@$$CBKK@std@@PAX@0@QAPAU10@ABQAU10@@Z PROC ; std::construct_at<std::_Tree_node<std::pair<unsigned long const ,unsigned long>,void *> *,std::_Tree_node<std::pair<unsigned long const ,unsigned long>,void *> * const &>, COMDAT
; __Location$ = ecx
; _<_Args_0>$ = edx

; 463  :     _MSVC_CONSTEXPR return ::new (static_cast<void*>(_Location)) _Ty(_STD forward<_Types>(_Args)...);

  00000	8b 02		 mov	 eax, DWORD PTR [edx]
  00002	89 01		 mov	 DWORD PTR [ecx], eax
  00004	8b c1		 mov	 eax, ecx

; 464  : }

  00006	c3		 ret	 0
??$construct_at@PAU?$_Tree_node@U?$pair@$$CBKK@std@@PAX@std@@ABQAU12@@std@@YAPAPAU?$_Tree_node@U?$pair@$$CBKK@std@@PAX@0@QAPAU10@ABQAU10@@Z ENDP ; std::construct_at<std::_Tree_node<std::pair<unsigned long const ,unsigned long>,void *> *,std::_Tree_node<std::pair<unsigned long const ,unsigned long>,void *> * const &>
_TEXT	ENDS
; Function compile flags: /Ogtp
; File C:\Program Files\Microsoft Visual Studio\2022\Community\VC\Tools\MSVC\14.44.35207\include\xutility
;	COMDAT ??$construct_at@PAVCInstanceBase@@PAV1@@std@@YAPAPAVCInstanceBase@@QAPAV1@$$QAPAV1@@Z
_TEXT	SEGMENT
??$construct_at@PAVCInstanceBase@@PAV1@@std@@YAPAPAVCInstanceBase@@QAPAV1@$$QAPAV1@@Z PROC ; std::construct_at<CInstanceBase *,CInstanceBase *>, COMDAT
; __Location$ = ecx
; _<_Args_0>$ = edx

; 463  :     _MSVC_CONSTEXPR return ::new (static_cast<void*>(_Location)) _Ty(_STD forward<_Types>(_Args)...);

  00000	8b 02		 mov	 eax, DWORD PTR [edx]
  00002	89 01		 mov	 DWORD PTR [ecx], eax
  00004	8b c1		 mov	 eax, ecx

; 464  : }

  00006	c3		 ret	 0
??$construct_at@PAVCInstanceBase@@PAV1@@std@@YAPAPAVCInstanceBase@@QAPAV1@$$QAPAV1@@Z ENDP ; std::construct_at<CInstanceBase *,CInstanceBase *>
_TEXT	ENDS
; Function compile flags: /Ogtp
; File C:\Program Files\Microsoft Visual Studio\2022\Community\VC\Tools\MSVC\14.44.35207\include\xtr1common
;	COMDAT ?_Is_constant_evaluated@std@@YA_NXZ
_TEXT	SEGMENT
?_Is_constant_evaluated@std@@YA_NXZ PROC		; std::_Is_constant_evaluated, COMDAT

; 178  :     return __builtin_is_constant_evaluated();

  00000	32 c0		 xor	 al, al

; 179  : }

  00002	c3		 ret	 0
?_Is_constant_evaluated@std@@YA_NXZ ENDP		; std::_Is_constant_evaluated
_TEXT	ENDS
; Function compile flags: /Ogtp
; File C:\Program Files (x86)\Windows Kits\10\Include\10.0.26100.0\ucrt\corecrt_math.h
;	COMDAT _fmodf
_TEXT	SEGMENT
tv72 = -8						; size = 8
tv76 = -8						; size = 8
tv82 = -8						; size = 8
_fmodf	PROC						; COMDAT
; __X$ = xmm0s
; __Y$ = xmm1s

; 729  :         {

  00000	55		 push	 ebp
  00001	8b ec		 mov	 ebp, esp
  00003	83 e4 f8	 and	 esp, -8			; fffffff8H
  00006	83 ec 08	 sub	 esp, 8

; 730  :             return (float)fmod(_X, _Y);

  00009	f3 0f 5a c0	 cvtss2sd xmm0, xmm0
  0000d	f2 0f 11 04 24	 movsd	 QWORD PTR tv72[esp+8], xmm0
  00012	0f 57 c0	 xorps	 xmm0, xmm0
  00015	dd 04 24	 fld	 QWORD PTR tv72[esp+8]
  00018	f3 0f 5a c1	 cvtss2sd xmm0, xmm1
  0001c	f2 0f 11 04 24	 movsd	 QWORD PTR tv76[esp+8], xmm0
  00021	dd 04 24	 fld	 QWORD PTR tv76[esp+8]
  00024	e8 00 00 00 00	 call	 __CIfmod
  00029	dd 1c 24	 fstp	 QWORD PTR tv82[esp+8]
  0002c	f2 0f 10 04 24	 movsd	 xmm0, QWORD PTR tv82[esp+8]
  00031	66 0f 5a c0	 cvtpd2ps xmm0, xmm0

; 731  :         }

  00035	8b e5		 mov	 esp, ebp
  00037	5d		 pop	 ebp
  00038	c3		 ret	 0
_fmodf	ENDP
_TEXT	ENDS
; Function compile flags: /Ogtp
; File C:\Program Files\Microsoft Visual Studio\2022\Community\VC\Tools\MSVC\14.44.35207\include\cmath
;	COMDAT ?sqrt@@YAMM@Z
_TEXT	SEGMENT
tv70 = -4						; size = 4
?sqrt@@YAMM@Z PROC					; sqrt, COMDAT
; __Xx$ = xmm0s

; 264  : _NODISCARD _Check_return_ inline float sqrt(_In_ float _Xx) noexcept /* strengthened */ {

  00000	55		 push	 ebp
  00001	8b ec		 mov	 ebp, esp
  00003	83 ec 08	 sub	 esp, 8

; 265  :     return _CSTD sqrtf(_Xx);

  00006	51		 push	 ecx
  00007	f3 0f 11 04 24	 movss	 DWORD PTR [esp], xmm0
  0000c	e8 00 00 00 00	 call	 _sqrtf
  00011	d9 5d fc	 fstp	 DWORD PTR tv70[ebp]
  00014	f3 0f 10 45 fc	 movss	 xmm0, DWORD PTR tv70[ebp]
  00019	83 c4 04	 add	 esp, 4

; 266  : }

  0001c	8b e5		 mov	 esp, ebp
  0001e	5d		 pop	 ebp
  0001f	c3		 ret	 0
?sqrt@@YAMM@Z ENDP					; sqrt
_TEXT	ENDS
; Function compile flags: /Ogtp
; File C:\Program Files (x86)\Windows Kits\10\Include\10.0.26100.0\ucrt\corecrt_stdio_config.h
;	COMDAT ___local_stdio_printf_options
_TEXT	SEGMENT
___local_stdio_printf_options PROC			; COMDAT

; 91   :         static unsigned __int64 _OptionsStorage;
; 92   :         return &_OptionsStorage;

  00000	b8 00 00 00 00	 mov	 eax, OFFSET ?_OptionsStorage@?1??__local_stdio_printf_options@@9@4_KA ; `__local_stdio_printf_options'::`2'::_OptionsStorage

; 93   :     }

  00005	c3		 ret	 0
___local_stdio_printf_options ENDP
_TEXT	ENDS
; Function compile flags: /Ogtp
; File C:\Program Files (x86)\Windows Kits\10\Include\10.0.26100.0\ucrt\stdio.h
;	COMDAT __vsnprintf_l
_TEXT	SEGMENT
__Format$ = 8						; size = 4
__Locale$dead$ = 12					; size = 4
__ArgList$ = 16						; size = 4
__vsnprintf_l PROC					; COMDAT
; __Buffer$ = ecx
; __BufferCount$ = edx

; 1391 :     {

  00000	55		 push	 ebp
  00001	8b ec		 mov	 ebp, esp
  00003	83 e4 f8	 and	 esp, -8			; fffffff8H

; 1392 :         int const _Result = __stdio_common_vsprintf(

  00006	ff 75 10	 push	 DWORD PTR __ArgList$[ebp]
  00009	6a 00		 push	 0
  0000b	ff 75 08	 push	 DWORD PTR __Format$[ebp]
  0000e	52		 push	 edx
  0000f	51		 push	 ecx
  00010	e8 00 00 00 00	 call	 ___local_stdio_printf_options
  00015	8b 08		 mov	 ecx, DWORD PTR [eax]
  00017	ff 70 04	 push	 DWORD PTR [eax+4]
  0001a	83 c9 01	 or	 ecx, 1
  0001d	51		 push	 ecx
  0001e	e8 00 00 00 00	 call	 ___stdio_common_vsprintf

; 1393 :             _CRT_INTERNAL_LOCAL_PRINTF_OPTIONS | _CRT_INTERNAL_PRINTF_LEGACY_VSPRINTF_NULL_TERMINATION,
; 1394 :             _Buffer, _BufferCount, _Format, _Locale, _ArgList);
; 1395 : 
; 1396 :         return _Result < 0 ? -1 : _Result;

  00023	83 c9 ff	 or	 ecx, -1
  00026	83 c4 1c	 add	 esp, 28			; 0000001cH
  00029	85 c0		 test	 eax, eax
  0002b	0f 48 c1	 cmovs	 eax, ecx

; 1397 :     }

  0002e	8b e5		 mov	 esp, ebp
  00030	5d		 pop	 ebp
  00031	c3		 ret	 0
__vsnprintf_l ENDP
_TEXT	ENDS
; Function compile flags: /Ogtp
; File C:\Program Files (x86)\Windows Kits\10\Include\10.0.26100.0\ucrt\stdio.h
;	COMDAT __vsprintf_l
_TEXT	SEGMENT
__Locale$dead$ = 8					; size = 4
__ArgList$ = 12						; size = 4
__vsprintf_l PROC					; COMDAT
; __Buffer$ = ecx
; __Format$ = edx

; 1458 :     {

  00000	55		 push	 ebp
  00001	8b ec		 mov	 ebp, esp

; 1459 :         return _vsnprintf_l(_Buffer, (size_t)-1, _Format, _Locale, _ArgList);

  00003	ff 75 0c	 push	 DWORD PTR __ArgList$[ebp]
  00006	51		 push	 ecx
  00007	52		 push	 edx
  00008	83 ca ff	 or	 edx, -1
  0000b	e8 00 00 00 00	 call	 __vsnprintf_l
  00010	83 c4 0c	 add	 esp, 12			; 0000000cH

; 1460 :     }

  00013	5d		 pop	 ebp
  00014	c3		 ret	 0
__vsprintf_l ENDP
_TEXT	ENDS
; Function compile flags: /Ogtp
; File C:\Program Files (x86)\Windows Kits\10\Include\10.0.26100.0\ucrt\stdio.h
;	COMDAT _sprintf
_TEXT	SEGMENT
__Buffer$ = 8						; size = 4
__Format$ = 12						; size = 4
_sprintf PROC						; COMDAT

; 1771 :     {

  00000	55		 push	 ebp
  00001	8b ec		 mov	 ebp, esp

; 1459 :         return _vsnprintf_l(_Buffer, (size_t)-1, _Format, _Locale, _ArgList);

  00003	8d 45 10	 lea	 eax, DWORD PTR __Format$[ebp+4]
  00006	83 ca ff	 or	 edx, -1
  00009	50		 push	 eax
  0000a	51		 push	 ecx
  0000b	ff 75 0c	 push	 DWORD PTR __Format$[ebp]
  0000e	8b 4d 08	 mov	 ecx, DWORD PTR __Buffer$[ebp]
  00011	e8 00 00 00 00	 call	 __vsnprintf_l
  00016	83 c4 0c	 add	 esp, 12			; 0000000cH

; 1772 :         int _Result;
; 1773 :         va_list _ArgList;
; 1774 :         __crt_va_start(_ArgList, _Format);
; 1775 : 
; 1776 :         _Result = _vsprintf_l(_Buffer, _Format, NULL, _ArgList);
; 1777 : 
; 1778 :         __crt_va_end(_ArgList);
; 1779 :         return _Result;
; 1780 :     }

  00019	5d		 pop	 ebp
  0001a	c3		 ret	 0
_sprintf ENDP
_TEXT	ENDS
; Function compile flags: /Ogtp
; File C:\Program Files\Microsoft Visual Studio\2022\Community\VC\Tools\MSVC\14.44.35207\include\xstring
;	COMDAT ?size@?$basic_string@DU?$char_traits@D@std@@V?$allocator@D@2@@std@@QBEIXZ
_TEXT	SEGMENT
?size@?$basic_string@DU?$char_traits@D@std@@V?$allocator@D@2@@std@@QBEIXZ PROC ; std::basic_string<char,std::char_traits<char>,std::allocator<char> >::size, COMDAT
; _this$ = ecx

; 2374 :         return _Mypair._Myval2._Mysize;

  00000	8b 41 10	 mov	 eax, DWORD PTR [ecx+16]

; 2375 :     }

  00003	c3		 ret	 0
?size@?$basic_string@DU?$char_traits@D@std@@V?$allocator@D@2@@std@@QBEIXZ ENDP ; std::basic_string<char,std::char_traits<char>,std::allocator<char> >::size
_TEXT	ENDS
; Function compile flags: /Ogtp
; File C:\Program Files\Microsoft Visual Studio\2022\Community\VC\Tools\MSVC\14.44.35207\include\xstring
;	COMDAT ?_Eos@?$basic_string@DU?$char_traits@D@std@@V?$allocator@D@2@@std@@AAEXI@Z
_TEXT	SEGMENT
__New_size$ = 8						; size = 4
?_Eos@?$basic_string@DU?$char_traits@D@std@@V?$allocator@D@2@@std@@AAEXI@Z PROC ; std::basic_string<char,std::char_traits<char>,std::allocator<char> >::_Eos, COMDAT
; _this$ = ecx

; 3074 :     _CONSTEXPR20 void _Eos(const size_type _New_size) noexcept { // set new length and null terminator

  00000	55		 push	 ebp
  00001	8b ec		 mov	 ebp, esp

; 3075 :         _ASAN_STRING_MODIFY(*this, _Mypair._Myval2._Mysize, _New_size);
; 3076 :         _Mypair._Myval2._Mysize = _New_size;

  00003	8b 55 08	 mov	 edx, DWORD PTR __New_size$[ebp]
  00006	89 51 10	 mov	 DWORD PTR [ecx+16], edx

; 453  :         return _Myres > _Small_string_capacity;

  00009	83 79 14 0f	 cmp	 DWORD PTR [ecx+20], 15	; 0000000fH

; 436  :         if (_Large_mode_engaged()) {

  0000d	76 0a		 jbe	 SHORT $LN11@Eos

; 437  :             _Result = _Unfancy(_Bx._Ptr);

  0000f	8b 01		 mov	 eax, DWORD PTR [ecx]

; 3077 :         _Traits::assign(_Mypair._Myval2._Myptr()[_New_size], _Elem());

  00011	c6 04 10 00	 mov	 BYTE PTR [eax+edx], 0

; 3078 :     }

  00015	5d		 pop	 ebp
  00016	c2 04 00	 ret	 4
$LN11@Eos:

; 3077 :         _Traits::assign(_Mypair._Myval2._Myptr()[_New_size], _Elem());

  00019	c6 04 11 00	 mov	 BYTE PTR [ecx+edx], 0

; 3078 :     }

  0001d	5d		 pop	 ebp
  0001e	c2 04 00	 ret	 4
?_Eos@?$basic_string@DU?$char_traits@D@std@@V?$allocator@D@2@@std@@AAEXI@Z ENDP ; std::basic_string<char,std::char_traits<char>,std::allocator<char> >::_Eos
_TEXT	ENDS
; Function compile flags: /Ogtp
; File C:\Program Files\Microsoft Visual Studio\2022\Community\VC\Tools\MSVC\14.44.35207\include\__msvc_string_view.hpp
;	COMDAT ?assign@?$_Char_traits@DH@std@@SAPADQADID@Z
_TEXT	SEGMENT
__First$ = 8						; size = 4
__Count$ = 12						; size = 4
__Ch$ = 16						; size = 1
?assign@?$_Char_traits@DH@std@@SAPADQADID@Z PROC	; std::_Char_traits<char,int>::assign, COMDAT

; 219  :         _Out_writes_all_(_Count) _Elem* const _First, size_t _Count, const _Elem _Ch) noexcept /* strengthened */ {

  00000	55		 push	 ebp
  00001	8b ec		 mov	 ebp, esp
  00003	8b 45 0c	 mov	 eax, DWORD PTR __Count$[ebp]

; 220  :         // assign _Count * _Ch to [_First, ...)
; 221  :         for (_Elem* _Next = _First; _Count > 0; --_Count, ++_Next) {

  00006	85 c0		 test	 eax, eax
  00008	74 0f		 je	 SHORT $LN11@assign
  0000a	50		 push	 eax
  0000b	ff 75 10	 push	 DWORD PTR __Ch$[ebp]
  0000e	ff 75 08	 push	 DWORD PTR __First$[ebp]
  00011	e8 00 00 00 00	 call	 _memset
  00016	83 c4 0c	 add	 esp, 12			; 0000000cH
$LN11@assign:

; 222  :             *_Next = _Ch;
; 223  :         }
; 224  : 
; 225  :         return _First;
; 226  :     }

  00019	8b 45 08	 mov	 eax, DWORD PTR __First$[ebp]
  0001c	5d		 pop	 ebp
  0001d	c3		 ret	 0
?assign@?$_Char_traits@DH@std@@SAPADQADID@Z ENDP	; std::_Char_traits<char,int>::assign
_TEXT	ENDS
; Function compile flags: /Ogtp
; File C:\Program Files\Microsoft Visual Studio\2022\Community\VC\Tools\MSVC\14.44.35207\include\__msvc_string_view.hpp
;	COMDAT ?assign@?$_Narrow_char_traits@DH@std@@SAPADQADID@Z
_TEXT	SEGMENT
__First$ = 8						; size = 4
__Count$ = 12						; size = 4
__Ch$ = 16						; size = 1
?assign@?$_Narrow_char_traits@DH@std@@SAPADQADID@Z PROC	; std::_Narrow_char_traits<char,int>::assign, COMDAT

; 485  :         _Out_writes_all_(_Count) _Elem* const _First, size_t _Count, const _Elem _Ch) noexcept /* strengthened */ {

  00000	55		 push	 ebp
  00001	8b ec		 mov	 ebp, esp

; 486  :         // assign _Count * _Ch to [_First, ...)
; 487  : #if _HAS_CXX20
; 488  :         if (_STD is_constant_evaluated()) {
; 489  :             return _Primary_char_traits::assign(_First, _Count, _Ch);
; 490  :         }
; 491  : #endif // _HAS_CXX20
; 492  : 
; 493  :         return static_cast<_Elem*>(_CSTD memset(_First, _Ch, _Count));

  00003	ff 75 0c	 push	 DWORD PTR __Count$[ebp]
  00006	0f be 45 10	 movsx	 eax, BYTE PTR __Ch$[ebp]
  0000a	50		 push	 eax
  0000b	ff 75 08	 push	 DWORD PTR __First$[ebp]
  0000e	e8 00 00 00 00	 call	 _memset
  00013	83 c4 0c	 add	 esp, 12			; 0000000cH

; 494  :     }

  00016	5d		 pop	 ebp
  00017	c3		 ret	 0
?assign@?$_Narrow_char_traits@DH@std@@SAPADQADID@Z ENDP	; std::_Narrow_char_traits<char,int>::assign
_TEXT	ENDS
; Function compile flags: /Ogtp
; File C:\Program Files\Microsoft Visual Studio\2022\Community\VC\Tools\MSVC\14.44.35207\include\xstring
; File C:\Program Files\Microsoft Visual Studio\2022\Community\VC\Tools\MSVC\14.44.35207\include\__msvc_string_view.hpp
; File C:\Program Files\Microsoft Visual Studio\2022\Community\VC\Tools\MSVC\14.44.35207\include\xstring
; File C:\Program Files\Microsoft Visual Studio\2022\Community\VC\Tools\MSVC\14.44.35207\include\__msvc_string_view.hpp
; File C:\Program Files\Microsoft Visual Studio\2022\Community\VC\Tools\MSVC\14.44.35207\include\xstring
; File C:\Program Files\Microsoft Visual Studio\2022\Community\VC\Tools\MSVC\14.44.35207\include\__msvc_string_view.hpp
; File C:\Program Files\Microsoft Visual Studio\2022\Community\VC\Tools\MSVC\14.44.35207\include\xstring
;	COMDAT ??R<lambda_1>@?1??append@?$basic_string@DU?$char_traits@D@std@@V?$allocator@D@2@@std@@QAEAAV23@ID@Z@QBE@QADQBDIID@Z
_TEXT	SEGMENT
__New_ptr$ = 8						; size = 4
__Old_ptr$ = 12						; size = 4
__Old_size$ = 16					; size = 4
__Count$ = 20						; size = 4
__Ch$ = 24						; size = 1
??R<lambda_1>@?1??append@?$basic_string@DU?$char_traits@D@std@@V?$allocator@D@2@@std@@QAEAAV23@ID@Z@QBE@QADQBDIID@Z PROC ; `std::basic_string<char,std::char_traits<char>,std::allocator<char> >::append'::`2'::<lambda_1>::operator(), COMDAT
; _this$ = ecx

; 1552 :                 const _Elem _Ch) _STATIC_LAMBDA {

  00000	55		 push	 ebp
  00001	8b ec		 mov	 ebp, esp
  00003	56		 push	 esi
; File C:\Program Files\Microsoft Visual Studio\2022\Community\VC\Tools\MSVC\14.44.35207\include\__msvc_string_view.hpp

; 121  :         _CSTD memcpy(_First1, _First2, _Count * sizeof(_Elem));

  00004	8b 75 08	 mov	 esi, DWORD PTR __New_ptr$[ebp]
; File C:\Program Files\Microsoft Visual Studio\2022\Community\VC\Tools\MSVC\14.44.35207\include\xstring

; 1552 :                 const _Elem _Ch) _STATIC_LAMBDA {

  00007	57		 push	 edi
; File C:\Program Files\Microsoft Visual Studio\2022\Community\VC\Tools\MSVC\14.44.35207\include\__msvc_string_view.hpp

; 121  :         _CSTD memcpy(_First1, _First2, _Count * sizeof(_Elem));

  00008	8b 7d 10	 mov	 edi, DWORD PTR __Old_size$[ebp]
  0000b	57		 push	 edi
  0000c	ff 75 0c	 push	 DWORD PTR __Old_ptr$[ebp]
  0000f	56		 push	 esi
  00010	e8 00 00 00 00	 call	 _memcpy

; 493  :         return static_cast<_Elem*>(_CSTD memset(_First, _Ch, _Count));

  00015	0f be 45 18	 movsx	 eax, BYTE PTR __Ch$[ebp]
; File C:\Program Files\Microsoft Visual Studio\2022\Community\VC\Tools\MSVC\14.44.35207\include\xstring

; 1554 :                 _Traits::assign(_New_ptr + _Old_size, _Count, _Ch);

  00019	03 fe		 add	 edi, esi
; File C:\Program Files\Microsoft Visual Studio\2022\Community\VC\Tools\MSVC\14.44.35207\include\__msvc_string_view.hpp

; 493  :         return static_cast<_Elem*>(_CSTD memset(_First, _Ch, _Count));

  0001b	8b 75 14	 mov	 esi, DWORD PTR __Count$[ebp]
  0001e	56		 push	 esi
  0001f	50		 push	 eax
  00020	57		 push	 edi
  00021	e8 00 00 00 00	 call	 _memset
  00026	83 c4 18	 add	 esp, 24			; 00000018H
; File C:\Program Files\Microsoft Visual Studio\2022\Community\VC\Tools\MSVC\14.44.35207\include\xstring

; 1555 :                 _Traits::assign(_New_ptr[_Old_size + _Count], _Elem());

  00029	c6 04 37 00	 mov	 BYTE PTR [edi+esi], 0
  0002d	5f		 pop	 edi
  0002e	5e		 pop	 esi

; 1556 :             },

  0002f	5d		 pop	 ebp
  00030	c2 14 00	 ret	 20			; 00000014H
??R<lambda_1>@?1??append@?$basic_string@DU?$char_traits@D@std@@V?$allocator@D@2@@std@@QAEAAV23@ID@Z@QBE@QADQBDIID@Z ENDP ; `std::basic_string<char,std::char_traits<char>,std::allocator<char> >::append'::`2'::<lambda_1>::operator()
_TEXT	ENDS
; Function compile flags: /Ogtp
; File C:\Program Files\Microsoft Visual Studio\2022\Community\VC\Tools\MSVC\14.44.35207\include\xstring
; File C:\Program Files\Microsoft Visual Studio\2022\Community\VC\Tools\MSVC\14.44.35207\include\xmemory
; File C:\Program Files\Microsoft Visual Studio\2022\Community\VC\Tools\MSVC\14.44.35207\include\xstring
; File C:\Program Files\Microsoft Visual Studio\2022\Community\VC\Tools\MSVC\14.44.35207\include\xmemory
; File C:\Program Files\Microsoft Visual Studio\2022\Community\VC\Tools\MSVC\14.44.35207\include\xstring
; File C:\Program Files\Microsoft Visual Studio\2022\Community\VC\Tools\MSVC\14.44.35207\include\xmemory
; File C:\Program Files\Microsoft Visual Studio\2022\Community\VC\Tools\MSVC\14.44.35207\include\xstring
; File C:\Program Files\Microsoft Visual Studio\2022\Community\VC\Tools\MSVC\14.44.35207\include\__msvc_string_view.hpp
; File C:\Program Files\Microsoft Visual Studio\2022\Community\VC\Tools\MSVC\14.44.35207\include\xstring
; File C:\Program Files\Microsoft Visual Studio\2022\Community\VC\Tools\MSVC\14.44.35207\include\__msvc_string_view.hpp
; File C:\Program Files\Microsoft Visual Studio\2022\Community\VC\Tools\MSVC\14.44.35207\include\xstring
; File C:\Program Files\Microsoft Visual Studio\2022\Community\VC\Tools\MSVC\14.44.35207\include\__msvc_string_view.hpp
; File C:\Program Files\Microsoft Visual Studio\2022\Community\VC\Tools\MSVC\14.44.35207\include\xstring
;	COMDAT ??$_Reallocate_grow_by@V<lambda_1>@?1??append@?$basic_string@DU?$char_traits@D@std@@V?$allocator@D@2@@std@@QAEAAV34@ID@Z@ID@?$basic_string@DU?$char_traits@D@std@@V?$allocator@D@2@@std@@AAEAAV01@IV<lambda_1>@?1??append@01@QAEAAV01@ID@Z@ID@Z
_TEXT	SEGMENT
__New_size$1$ = -8					; size = 4
__First$1$ = -8						; size = 4
__Old_size$1$ = -4					; size = 4
tv628 = -4						; size = 4
__Size_increase$ = 8					; size = 4
$T1 = 8							; size = 4
__Fn$ = 12						; size = 1
_<_Args_0>$ = 16					; size = 4
_<_Args_1>$ = 20					; size = 1
tv630 = 20						; size = 4
??$_Reallocate_grow_by@V<lambda_1>@?1??append@?$basic_string@DU?$char_traits@D@std@@V?$allocator@D@2@@std@@QAEAAV34@ID@Z@ID@?$basic_string@DU?$char_traits@D@std@@V?$allocator@D@2@@std@@AAEAAV01@IV<lambda_1>@?1??append@01@QAEAAV01@ID@Z@ID@Z PROC ; std::basic_string<char,std::char_traits<char>,std::allocator<char> >::_Reallocate_grow_by<`std::basic_string<char,std::char_traits<char>,std::allocator<char> >::append'::`2'::<lambda_1>,unsigned int,char>, COMDAT
; _this$ = ecx

; 3024 :     _CONSTEXPR20 basic_string& _Reallocate_grow_by(const size_type _Size_increase, _Fty _Fn, _ArgTys... _Args) {

  00000	55		 push	 ebp
  00001	8b ec		 mov	 ebp, esp
  00003	83 ec 08	 sub	 esp, 8
  00006	53		 push	 ebx
  00007	56		 push	 esi

; 3025 :         // reallocate to increase size by _Size_increase elements, new buffer prepared by
; 3026 :         // _Fn(_New_ptr, _Old_ptr, _Old_size, _Args...)
; 3027 :         auto& _My_data            = _Mypair._Myval2;
; 3028 :         const size_type _Old_size = _My_data._Mysize;
; 3029 :         if (max_size() - _Old_size < _Size_increase) {

  00008	8b 75 08	 mov	 esi, DWORD PTR __Size_increase$[ebp]
  0000b	ba ff ff ff 7f	 mov	 edx, 2147483647		; 7fffffffH
  00010	57		 push	 edi
  00011	8b f9		 mov	 edi, ecx
  00013	8b c2		 mov	 eax, edx
  00015	8b 4f 10	 mov	 ecx, DWORD PTR [edi+16]
  00018	2b c1		 sub	 eax, ecx
  0001a	89 4d fc	 mov	 DWORD PTR __Old_size$1$[ebp], ecx
  0001d	3b c6		 cmp	 eax, esi
  0001f	0f 82 f4 00 00
	00		 jb	 $LN116@Reallocate

; 3034 :         const size_type _Old_capacity = _My_data._Myres;

  00025	8b 5f 14	 mov	 ebx, DWORD PTR [edi+20]
  00028	8d 04 31	 lea	 eax, DWORD PTR [ecx+esi]

; 2978 :         const size_type _Masked = _Requested | _Alloc_mask;

  0002b	8b f0		 mov	 esi, eax

; 3031 :         }
; 3032 : 
; 3033 :         const size_type _New_size     = _Old_size + _Size_increase;

  0002d	89 45 f8	 mov	 DWORD PTR __New_size$1$[ebp], eax

; 2978 :         const size_type _Masked = _Requested | _Alloc_mask;

  00030	83 ce 0f	 or	 esi, 15			; 0000000fH

; 3034 :         const size_type _Old_capacity = _My_data._Myres;

  00033	89 5d 08	 mov	 DWORD PTR $T1[ebp], ebx

; 2978 :         const size_type _Masked = _Requested | _Alloc_mask;

  00036	3b f2		 cmp	 esi, edx

; 2979 :         if (_Masked > _Max) { // the mask overflows, settle for max_size()

  00038	76 0f		 jbe	 SHORT $LN10@Reallocate

; 2980 :             return _Max;

  0003a	b8 00 00 00 80	 mov	 eax, -2147483648	; 80000000H
  0003f	8b f2		 mov	 esi, edx
; File C:\Program Files\Microsoft Visual Studio\2022\Community\VC\Tools\MSVC\14.44.35207\include\xmemory

; 253  :             return _Allocate_manually_vector_aligned<_Traits>(_Bytes);

  00041	50		 push	 eax
  00042	e8 00 00 00 00	 call	 ??$_Allocate_manually_vector_aligned@U_Default_allocate_traits@std@@@std@@YAPAXI@Z ; std::_Allocate_manually_vector_aligned<std::_Default_allocate_traits>
  00047	eb 43		 jmp	 SHORT $LN114@Reallocate
$LN10@Reallocate:
; File C:\Program Files\Microsoft Visual Studio\2022\Community\VC\Tools\MSVC\14.44.35207\include\xstring

; 2983 :         if (_Old > _Max - _Old / 2) { // similarly, geometric overflows

  00049	8b c3		 mov	 eax, ebx
  0004b	d1 e8		 shr	 eax, 1
  0004d	2b d0		 sub	 edx, eax
  0004f	3b da		 cmp	 ebx, edx
  00051	76 12		 jbe	 SHORT $LN11@Reallocate

; 2984 :             return _Max;

  00053	b8 00 00 00 80	 mov	 eax, -2147483648	; 80000000H
  00058	be ff ff ff 7f	 mov	 esi, 2147483647		; 7fffffffH
; File C:\Program Files\Microsoft Visual Studio\2022\Community\VC\Tools\MSVC\14.44.35207\include\xmemory

; 253  :             return _Allocate_manually_vector_aligned<_Traits>(_Bytes);

  0005d	50		 push	 eax
  0005e	e8 00 00 00 00	 call	 ??$_Allocate_manually_vector_aligned@U_Default_allocate_traits@std@@@std@@YAPAXI@Z ; std::_Allocate_manually_vector_aligned<std::_Default_allocate_traits>
  00063	eb 27		 jmp	 SHORT $LN114@Reallocate
$LN11@Reallocate:
; File C:\Program Files\Microsoft Visual Studio\2022\Community\VC\Tools\MSVC\14.44.35207\include\xstring

; 2987 :         return (_STD max)(_Masked, _Old + _Old / 2);

  00065	03 c3		 add	 eax, ebx
  00067	3b f0		 cmp	 esi, eax
  00069	0f 42 f0	 cmovb	 esi, eax

; 825  :         ++_Capacity; // Take null terminator into consideration

  0006c	8d 46 01	 lea	 eax, DWORD PTR [esi+1]
; File C:\Program Files\Microsoft Visual Studio\2022\Community\VC\Tools\MSVC\14.44.35207\include\xmemory

; 227  :     if (_Bytes == 0) {

  0006f	85 c0		 test	 eax, eax
  00071	75 04		 jne	 SHORT $LN28@Reallocate

; 228  :         return nullptr;

  00073	33 db		 xor	 ebx, ebx
  00075	eb 1d		 jmp	 SHORT $LN27@Reallocate
$LN28@Reallocate:

; 229  :     }
; 230  : 
; 231  : #if _HAS_CXX20 // TRANSITION, GH-1532
; 232  :     if (_STD is_constant_evaluated()) {
; 233  :         return _Traits::_Allocate(_Bytes);
; 234  :     }
; 235  : #endif // _HAS_CXX20
; 236  : 
; 237  : #ifdef __cpp_aligned_new
; 238  :     if constexpr (_Align > __STDCPP_DEFAULT_NEW_ALIGNMENT__) {
; 239  :         size_t _Passed_align = _Align;
; 240  : #if defined(_M_IX86) || defined(_M_X64)
; 241  :         if (_Bytes >= _Big_allocation_threshold) {
; 242  :             // boost the alignment of big allocations to help autovectorization
; 243  :             _Passed_align = (_STD max)(_Align, _Big_allocation_alignment);
; 244  :         }
; 245  : #endif // defined(_M_IX86) || defined(_M_X64)
; 246  :         return _Traits::_Allocate_aligned(_Bytes, _Passed_align);
; 247  :     } else
; 248  : #endif // defined(__cpp_aligned_new)
; 249  :     {
; 250  : #if defined(_M_IX86) || defined(_M_X64)
; 251  :         if (_Bytes >= _Big_allocation_threshold) {

  00077	3d 00 10 00 00	 cmp	 eax, 4096		; 00001000H
  0007c	72 08		 jb	 SHORT $LN30@Reallocate

; 253  :             return _Allocate_manually_vector_aligned<_Traits>(_Bytes);

  0007e	50		 push	 eax
  0007f	e8 00 00 00 00	 call	 ??$_Allocate_manually_vector_aligned@U_Default_allocate_traits@std@@@std@@YAPAXI@Z ; std::_Allocate_manually_vector_aligned<std::_Default_allocate_traits>
  00084	eb 06		 jmp	 SHORT $LN114@Reallocate
$LN30@Reallocate:

; 136  :         return ::operator new(_Bytes);

  00086	50		 push	 eax
  00087	e8 00 00 00 00	 call	 ??2@YAPAXI@Z		; operator new
$LN114@Reallocate:
; File C:\Program Files\Microsoft Visual Studio\2022\Community\VC\Tools\MSVC\14.44.35207\include\xstring

; 3041 :         _My_data._Mysize      = _New_size;

  0008c	8b 4d fc	 mov	 ecx, DWORD PTR __Old_size$1$[ebp]
  0008f	8b d8		 mov	 ebx, eax
  00091	83 c4 04	 add	 esp, 4
$LN27@Reallocate:
  00094	8b 45 f8	 mov	 eax, DWORD PTR __New_size$1$[ebp]
  00097	89 47 10	 mov	 DWORD PTR [edi+16], eax

; 3042 :         _My_data._Myres       = _New_capacity;

  0009a	0f be 45 14	 movsx	 eax, BYTE PTR _<_Args_1>$[ebp]
  0009e	89 45 14	 mov	 DWORD PTR tv630[ebp], eax
  000a1	8b 45 10	 mov	 eax, DWORD PTR _<_Args_0>$[ebp]
  000a4	89 77 14	 mov	 DWORD PTR [edi+20], esi
  000a7	8d 34 19	 lea	 esi, DWORD PTR [ecx+ebx]
  000aa	03 c6		 add	 eax, esi
  000ac	89 75 f8	 mov	 DWORD PTR __First$1$[ebp], esi

; 3043 :         _Elem* const _Raw_new = _Unfancy(_New_ptr);
; 3044 :         if (_Old_capacity > _Small_string_capacity) {

  000af	83 7d 08 0f	 cmp	 DWORD PTR $T1[ebp], 15	; 0000000fH
  000b3	89 45 fc	 mov	 DWORD PTR tv628[ebp], eax
  000b6	51		 push	 ecx
  000b7	76 37		 jbe	 SHORT $LN3@Reallocate

; 3045 :             const pointer _Old_ptr = _My_data._Bx._Ptr;

  000b9	8b 37		 mov	 esi, DWORD PTR [edi]
; File C:\Program Files\Microsoft Visual Studio\2022\Community\VC\Tools\MSVC\14.44.35207\include\__msvc_string_view.hpp

; 121  :         _CSTD memcpy(_First1, _First2, _Count * sizeof(_Elem));

  000bb	56		 push	 esi
  000bc	53		 push	 ebx
  000bd	e8 00 00 00 00	 call	 _memcpy

; 493  :         return static_cast<_Elem*>(_CSTD memset(_First, _Ch, _Count));

  000c2	ff 75 10	 push	 DWORD PTR _<_Args_0>$[ebp]
  000c5	ff 75 14	 push	 DWORD PTR tv630[ebp]
  000c8	ff 75 f8	 push	 DWORD PTR __First$1$[ebp]
  000cb	e8 00 00 00 00	 call	 _memset
; File C:\Program Files\Microsoft Visual Studio\2022\Community\VC\Tools\MSVC\14.44.35207\include\xstring

; 3047 :             _Deallocate_for_capacity(_Al, _Old_ptr, _Old_capacity);

  000d0	ff 75 08	 push	 DWORD PTR $T1[ebp]

; 1555 :                 _Traits::assign(_New_ptr[_Old_size + _Count], _Elem());

  000d3	8b 45 fc	 mov	 eax, DWORD PTR tv628[ebp]

; 3047 :             _Deallocate_for_capacity(_Al, _Old_ptr, _Old_capacity);

  000d6	56		 push	 esi
  000d7	57		 push	 edi

; 1555 :                 _Traits::assign(_New_ptr[_Old_size + _Count], _Elem());

  000d8	c6 00 00	 mov	 BYTE PTR [eax], 0

; 3047 :             _Deallocate_for_capacity(_Al, _Old_ptr, _Old_capacity);

  000db	e8 00 00 00 00	 call	 ?_Deallocate_for_capacity@?$basic_string@DU?$char_traits@D@std@@V?$allocator@D@2@@std@@CAXAAV?$allocator@D@2@QADI@Z ; std::basic_string<char,std::char_traits<char>,std::allocator<char> >::_Deallocate_for_capacity
  000e0	83 c4 24	 add	 esp, 36			; 00000024H

; 3048 :             _My_data._Bx._Ptr = _New_ptr;
; 3049 :         } else {
; 3050 :             _Fn(_Raw_new, _My_data._Bx._Buf, _Old_size, _Args...);
; 3051 :             _Construct_in_place(_My_data._Bx._Ptr, _New_ptr);
; 3052 :         }
; 3053 : 
; 3054 :         _ASAN_STRING_CREATE(*this);
; 3055 :         return *this;

  000e3	89 1f		 mov	 DWORD PTR [edi], ebx
  000e5	8b c7		 mov	 eax, edi

; 3056 :     }

  000e7	5f		 pop	 edi
  000e8	5e		 pop	 esi
  000e9	5b		 pop	 ebx
  000ea	8b e5		 mov	 esp, ebp
  000ec	5d		 pop	 ebp
  000ed	c2 10 00	 ret	 16			; 00000010H
$LN3@Reallocate:
; File C:\Program Files\Microsoft Visual Studio\2022\Community\VC\Tools\MSVC\14.44.35207\include\__msvc_string_view.hpp

; 121  :         _CSTD memcpy(_First1, _First2, _Count * sizeof(_Elem));

  000f0	57		 push	 edi
  000f1	53		 push	 ebx
  000f2	e8 00 00 00 00	 call	 _memcpy

; 493  :         return static_cast<_Elem*>(_CSTD memset(_First, _Ch, _Count));

  000f7	ff 75 10	 push	 DWORD PTR _<_Args_0>$[ebp]
  000fa	ff 75 14	 push	 DWORD PTR tv630[ebp]
  000fd	56		 push	 esi
  000fe	e8 00 00 00 00	 call	 _memset
; File C:\Program Files\Microsoft Visual Studio\2022\Community\VC\Tools\MSVC\14.44.35207\include\xstring

; 1555 :                 _Traits::assign(_New_ptr[_Old_size + _Count], _Elem());

  00103	8b 45 fc	 mov	 eax, DWORD PTR tv628[ebp]
; File C:\Program Files\Microsoft Visual Studio\2022\Community\VC\Tools\MSVC\14.44.35207\include\__msvc_string_view.hpp

; 493  :         return static_cast<_Elem*>(_CSTD memset(_First, _Ch, _Count));

  00106	83 c4 18	 add	 esp, 24			; 00000018H
; File C:\Program Files\Microsoft Visual Studio\2022\Community\VC\Tools\MSVC\14.44.35207\include\xstring

; 1555 :                 _Traits::assign(_New_ptr[_Old_size + _Count], _Elem());

  00109	c6 00 00	 mov	 BYTE PTR [eax], 0

; 3048 :             _My_data._Bx._Ptr = _New_ptr;
; 3049 :         } else {
; 3050 :             _Fn(_Raw_new, _My_data._Bx._Buf, _Old_size, _Args...);
; 3051 :             _Construct_in_place(_My_data._Bx._Ptr, _New_ptr);
; 3052 :         }
; 3053 : 
; 3054 :         _ASAN_STRING_CREATE(*this);
; 3055 :         return *this;

  0010c	8b c7		 mov	 eax, edi
  0010e	89 1f		 mov	 DWORD PTR [edi], ebx

; 3056 :     }

  00110	5f		 pop	 edi
  00111	5e		 pop	 esi
  00112	5b		 pop	 ebx
  00113	8b e5		 mov	 esp, ebp
  00115	5d		 pop	 ebp
  00116	c2 10 00	 ret	 16			; 00000010H
$LN116@Reallocate:

; 3030 :             _Xlen_string(); // result too long

  00119	e8 00 00 00 00	 call	 ?_Xlen_string@std@@YAXXZ ; std::_Xlen_string
$LN113@Reallocate:
  0011e	cc		 int	 3
??$_Reallocate_grow_by@V<lambda_1>@?1??append@?$basic_string@DU?$char_traits@D@std@@V?$allocator@D@2@@std@@QAEAAV34@ID@Z@ID@?$basic_string@DU?$char_traits@D@std@@V?$allocator@D@2@@std@@AAEAAV01@IV<lambda_1>@?1??append@01@QAEAAV01@ID@Z@ID@Z ENDP ; std::basic_string<char,std::char_traits<char>,std::allocator<char> >::_Reallocate_grow_by<`std::basic_string<char,std::char_traits<char>,std::allocator<char> >::append'::`2'::<lambda_1>,unsigned int,char>
_TEXT	ENDS
; Function compile flags: /Ogtp
; File C:\Program Files\Microsoft Visual Studio\2022\Community\VC\Tools\MSVC\14.44.35207\include\xstring
; File C:\Program Files\Microsoft Visual Studio\2022\Community\VC\Tools\MSVC\14.44.35207\include\__msvc_string_view.hpp
; File C:\Program Files\Microsoft Visual Studio\2022\Community\VC\Tools\MSVC\14.44.35207\include\xstring
; File C:\Program Files\Microsoft Visual Studio\2022\Community\VC\Tools\MSVC\14.44.35207\include\xmemory
; File C:\Program Files\Microsoft Visual Studio\2022\Community\VC\Tools\MSVC\14.44.35207\include\xstring
; File C:\Program Files\Microsoft Visual Studio\2022\Community\VC\Tools\MSVC\14.44.35207\include\xmemory
; File C:\Program Files\Microsoft Visual Studio\2022\Community\VC\Tools\MSVC\14.44.35207\include\xstring
; File C:\Program Files\Microsoft Visual Studio\2022\Community\VC\Tools\MSVC\14.44.35207\include\xmemory
; File C:\Program Files\Microsoft Visual Studio\2022\Community\VC\Tools\MSVC\14.44.35207\include\xstring
; File C:\Program Files\Microsoft Visual Studio\2022\Community\VC\Tools\MSVC\14.44.35207\include\__msvc_string_view.hpp
; File C:\Program Files\Microsoft Visual Studio\2022\Community\VC\Tools\MSVC\14.44.35207\include\xstring
; File C:\Program Files\Microsoft Visual Studio\2022\Community\VC\Tools\MSVC\14.44.35207\include\__msvc_string_view.hpp
; File C:\Program Files\Microsoft Visual Studio\2022\Community\VC\Tools\MSVC\14.44.35207\include\xstring
; File C:\Program Files\Microsoft Visual Studio\2022\Community\VC\Tools\MSVC\14.44.35207\include\__msvc_string_view.hpp
; File C:\Program Files\Microsoft Visual Studio\2022\Community\VC\Tools\MSVC\14.44.35207\include\xstring
;	COMDAT ?append@?$basic_string@DU?$char_traits@D@std@@V?$allocator@D@2@@std@@QAEAAV12@ID@Z
_TEXT	SEGMENT
__New_size$1$ = -16					; size = 4
__First$1$ = -16					; size = 4
__Old_size$1$ = -12					; size = 4
$T1 = -8						; size = 4
$T2 = -4						; size = 4
tv732 = -4						; size = 4
__Count$ = 8						; size = 4
tv744 = 8						; size = 4
__Ch$ = 12						; size = 1
tv746 = 12						; size = 4
?append@?$basic_string@DU?$char_traits@D@std@@V?$allocator@D@2@@std@@QAEAAV12@ID@Z PROC ; std::basic_string<char,std::char_traits<char>,std::allocator<char> >::append, COMDAT
; _this$ = ecx

; 1537 :     _CONSTEXPR20 basic_string& append(_CRT_GUARDOVERFLOW const size_type _Count, const _Elem _Ch) {

  00000	55		 push	 ebp
  00001	8b ec		 mov	 ebp, esp
  00003	83 ec 10	 sub	 esp, 16			; 00000010H
  00006	53		 push	 ebx
  00007	8b 5d 08	 mov	 ebx, DWORD PTR __Count$[ebp]
  0000a	56		 push	 esi
  0000b	57		 push	 edi
  0000c	8b f9		 mov	 edi, ecx

; 1538 :         // append _Count * _Ch
; 1539 :         const size_type _Old_size = _Mypair._Myval2._Mysize;
; 1540 :         if (_Count <= _Mypair._Myval2._Myres - _Old_size) {

  0000e	8b 57 14	 mov	 edx, DWORD PTR [edi+20]
  00011	8b c2		 mov	 eax, edx
  00013	8b 4f 10	 mov	 ecx, DWORD PTR [edi+16]
  00016	2b c1		 sub	 eax, ecx
  00018	89 4d f4	 mov	 DWORD PTR __Old_size$1$[ebp], ecx
  0001b	89 55 f8	 mov	 DWORD PTR $T1[ebp], edx
  0001e	3b d8		 cmp	 ebx, eax
  00020	77 30		 ja	 SHORT $LN2@append

; 1541 :             _ASAN_STRING_MODIFY(*this, _Old_size, _Old_size + _Count);
; 1542 :             _Mypair._Myval2._Mysize = _Old_size + _Count;

  00022	8d 04 19	 lea	 eax, DWORD PTR [ecx+ebx]
  00025	89 47 10	 mov	 DWORD PTR [edi+16], eax

; 435  :         value_type* _Result = _Bx._Buf;

  00028	8b c7		 mov	 eax, edi

; 453  :         return _Myres > _Small_string_capacity;

  0002a	83 fa 0f	 cmp	 edx, 15			; 0000000fH

; 436  :         if (_Large_mode_engaged()) {

  0002d	76 02		 jbe	 SHORT $LN5@append

; 437  :             _Result = _Unfancy(_Bx._Ptr);

  0002f	8b 07		 mov	 eax, DWORD PTR [edi]
$LN5@append:

; 1543 :             _Elem* const _Old_ptr   = _Mypair._Myval2._Myptr();
; 1544 :             _Traits::assign(_Old_ptr + _Old_size, _Count, _Ch);

  00031	8d 34 08	 lea	 esi, DWORD PTR [eax+ecx]
; File C:\Program Files\Microsoft Visual Studio\2022\Community\VC\Tools\MSVC\14.44.35207\include\__msvc_string_view.hpp

; 493  :         return static_cast<_Elem*>(_CSTD memset(_First, _Ch, _Count));

  00034	0f be 45 0c	 movsx	 eax, BYTE PTR __Ch$[ebp]
  00038	53		 push	 ebx
  00039	50		 push	 eax
  0003a	56		 push	 esi
  0003b	e8 00 00 00 00	 call	 _memset
  00040	83 c4 0c	 add	 esp, 12			; 0000000cH
; File C:\Program Files\Microsoft Visual Studio\2022\Community\VC\Tools\MSVC\14.44.35207\include\xstring

; 1545 :             _Traits::assign(_Old_ptr[_Old_size + _Count], _Elem());

  00043	c6 04 1e 00	 mov	 BYTE PTR [esi+ebx], 0

; 1556 :             },
; 1557 :             _Count, _Ch);
; 1558 :     }

  00047	8b c7		 mov	 eax, edi
  00049	5f		 pop	 edi
  0004a	5e		 pop	 esi
  0004b	5b		 pop	 ebx
  0004c	8b e5		 mov	 esp, ebp
  0004e	5d		 pop	 ebp
  0004f	c2 08 00	 ret	 8
$LN2@append:

; 3029 :         if (max_size() - _Old_size < _Size_increase) {

  00052	b8 ff ff ff 7f	 mov	 eax, 2147483647		; 7fffffffH
  00057	2b c1		 sub	 eax, ecx
  00059	3b c3		 cmp	 eax, ebx
  0005b	0f 82 06 01 00
	00		 jb	 $LN145@append

; 3031 :         }
; 3032 : 
; 3033 :         const size_type _New_size     = _Old_size + _Size_increase;

  00061	8d 04 19	 lea	 eax, DWORD PTR [ecx+ebx]

; 2978 :         const size_type _Masked = _Requested | _Alloc_mask;

  00064	8b f0		 mov	 esi, eax

; 3033 :         const size_type _New_size     = _Old_size + _Size_increase;

  00066	89 45 f0	 mov	 DWORD PTR __New_size$1$[ebp], eax

; 2978 :         const size_type _Masked = _Requested | _Alloc_mask;

  00069	83 ce 0f	 or	 esi, 15			; 0000000fH
  0006c	81 fe ff ff ff
	7f		 cmp	 esi, 2147483647		; 7fffffffH

; 2979 :         if (_Masked > _Max) { // the mask overflows, settle for max_size()

  00072	76 12		 jbe	 SHORT $LN30@append

; 2980 :             return _Max;

  00074	b8 00 00 00 80	 mov	 eax, -2147483648	; 80000000H
  00079	be ff ff ff 7f	 mov	 esi, 2147483647		; 7fffffffH
; File C:\Program Files\Microsoft Visual Studio\2022\Community\VC\Tools\MSVC\14.44.35207\include\xmemory

; 253  :             return _Allocate_manually_vector_aligned<_Traits>(_Bytes);

  0007e	50		 push	 eax
  0007f	e8 00 00 00 00	 call	 ??$_Allocate_manually_vector_aligned@U_Default_allocate_traits@std@@@std@@YAPAXI@Z ; std::_Allocate_manually_vector_aligned<std::_Default_allocate_traits>
  00084	eb 4b		 jmp	 SHORT $LN143@append
$LN30@append:
; File C:\Program Files\Microsoft Visual Studio\2022\Community\VC\Tools\MSVC\14.44.35207\include\xstring

; 2983 :         if (_Old > _Max - _Old / 2) { // similarly, geometric overflows

  00086	8b c2		 mov	 eax, edx
  00088	d1 e8		 shr	 eax, 1
  0008a	89 45 fc	 mov	 DWORD PTR tv732[ebp], eax
  0008d	b8 ff ff ff 7f	 mov	 eax, 2147483647		; 7fffffffH
  00092	2b 45 fc	 sub	 eax, DWORD PTR tv732[ebp]
  00095	3b d0		 cmp	 edx, eax
  00097	76 12		 jbe	 SHORT $LN31@append

; 2984 :             return _Max;

  00099	b8 00 00 00 80	 mov	 eax, -2147483648	; 80000000H
  0009e	be ff ff ff 7f	 mov	 esi, 2147483647		; 7fffffffH
; File C:\Program Files\Microsoft Visual Studio\2022\Community\VC\Tools\MSVC\14.44.35207\include\xmemory

; 253  :             return _Allocate_manually_vector_aligned<_Traits>(_Bytes);

  000a3	50		 push	 eax
  000a4	e8 00 00 00 00	 call	 ??$_Allocate_manually_vector_aligned@U_Default_allocate_traits@std@@@std@@YAPAXI@Z ; std::_Allocate_manually_vector_aligned<std::_Default_allocate_traits>
  000a9	eb 26		 jmp	 SHORT $LN143@append
$LN31@append:
; File C:\Program Files\Microsoft Visual Studio\2022\Community\VC\Tools\MSVC\14.44.35207\include\xstring

; 2987 :         return (_STD max)(_Masked, _Old + _Old / 2);

  000ab	8b 45 fc	 mov	 eax, DWORD PTR tv732[ebp]
  000ae	03 c2		 add	 eax, edx
  000b0	3b f0		 cmp	 esi, eax
  000b2	0f 42 f0	 cmovb	 esi, eax

; 825  :         ++_Capacity; // Take null terminator into consideration

  000b5	8d 46 01	 lea	 eax, DWORD PTR [esi+1]
; File C:\Program Files\Microsoft Visual Studio\2022\Community\VC\Tools\MSVC\14.44.35207\include\xmemory

; 227  :     if (_Bytes == 0) {

  000b8	85 c0		 test	 eax, eax
  000ba	74 1e		 je	 SHORT $LN142@append
$LN48@append:

; 228  :         return nullptr;
; 229  :     }
; 230  : 
; 231  : #if _HAS_CXX20 // TRANSITION, GH-1532
; 232  :     if (_STD is_constant_evaluated()) {
; 233  :         return _Traits::_Allocate(_Bytes);
; 234  :     }
; 235  : #endif // _HAS_CXX20
; 236  : 
; 237  : #ifdef __cpp_aligned_new
; 238  :     if constexpr (_Align > __STDCPP_DEFAULT_NEW_ALIGNMENT__) {
; 239  :         size_t _Passed_align = _Align;
; 240  : #if defined(_M_IX86) || defined(_M_X64)
; 241  :         if (_Bytes >= _Big_allocation_threshold) {
; 242  :             // boost the alignment of big allocations to help autovectorization
; 243  :             _Passed_align = (_STD max)(_Align, _Big_allocation_alignment);
; 244  :         }
; 245  : #endif // defined(_M_IX86) || defined(_M_X64)
; 246  :         return _Traits::_Allocate_aligned(_Bytes, _Passed_align);
; 247  :     } else
; 248  : #endif // defined(__cpp_aligned_new)
; 249  :     {
; 250  : #if defined(_M_IX86) || defined(_M_X64)
; 251  :         if (_Bytes >= _Big_allocation_threshold) {

  000bc	3d 00 10 00 00	 cmp	 eax, 4096		; 00001000H
  000c1	72 08		 jb	 SHORT $LN50@append

; 253  :             return _Allocate_manually_vector_aligned<_Traits>(_Bytes);

  000c3	50		 push	 eax
  000c4	e8 00 00 00 00	 call	 ??$_Allocate_manually_vector_aligned@U_Default_allocate_traits@std@@@std@@YAPAXI@Z ; std::_Allocate_manually_vector_aligned<std::_Default_allocate_traits>
  000c9	eb 06		 jmp	 SHORT $LN143@append
$LN50@append:

; 136  :         return ::operator new(_Bytes);

  000cb	50		 push	 eax
  000cc	e8 00 00 00 00	 call	 ??2@YAPAXI@Z		; operator new
$LN143@append:
; File C:\Program Files\Microsoft Visual Studio\2022\Community\VC\Tools\MSVC\14.44.35207\include\xstring

; 3041 :         _My_data._Mysize      = _New_size;

  000d1	8b 55 f8	 mov	 edx, DWORD PTR $T1[ebp]
  000d4	83 c4 04	 add	 esp, 4
  000d7	8b 4d f4	 mov	 ecx, DWORD PTR __Old_size$1$[ebp]
$LN142@append:
  000da	8b 5d f0	 mov	 ebx, DWORD PTR __New_size$1$[ebp]
  000dd	89 5f 10	 mov	 DWORD PTR [edi+16], ebx

; 3042 :         _My_data._Myres       = _New_capacity;

  000e0	0f be 5d 0c	 movsx	 ebx, BYTE PTR __Ch$[ebp]
  000e4	89 5d 0c	 mov	 DWORD PTR tv746[ebp], ebx
  000e7	8b 5d 08	 mov	 ebx, DWORD PTR __Count$[ebp]
  000ea	89 77 14	 mov	 DWORD PTR [edi+20], esi
  000ed	8d 34 01	 lea	 esi, DWORD PTR [ecx+eax]
  000f0	89 45 fc	 mov	 DWORD PTR $T2[ebp], eax
  000f3	89 75 f0	 mov	 DWORD PTR __First$1$[ebp], esi
  000f6	8d 04 33	 lea	 eax, DWORD PTR [ebx+esi]
  000f9	89 45 08	 mov	 DWORD PTR tv744[ebp], eax

; 3043 :         _Elem* const _Raw_new = _Unfancy(_New_ptr);
; 3044 :         if (_Old_capacity > _Small_string_capacity) {

  000fc	8b 45 fc	 mov	 eax, DWORD PTR $T2[ebp]
  000ff	51		 push	 ecx
  00100	83 fa 0f	 cmp	 edx, 15			; 0000000fH
  00103	76 38		 jbe	 SHORT $LN23@append

; 3045 :             const pointer _Old_ptr = _My_data._Bx._Ptr;

  00105	8b 37		 mov	 esi, DWORD PTR [edi]
; File C:\Program Files\Microsoft Visual Studio\2022\Community\VC\Tools\MSVC\14.44.35207\include\__msvc_string_view.hpp

; 121  :         _CSTD memcpy(_First1, _First2, _Count * sizeof(_Elem));

  00107	56		 push	 esi
  00108	50		 push	 eax
  00109	e8 00 00 00 00	 call	 _memcpy

; 493  :         return static_cast<_Elem*>(_CSTD memset(_First, _Ch, _Count));

  0010e	53		 push	 ebx
  0010f	ff 75 0c	 push	 DWORD PTR tv746[ebp]
  00112	ff 75 f0	 push	 DWORD PTR __First$1$[ebp]
  00115	e8 00 00 00 00	 call	 _memset
; File C:\Program Files\Microsoft Visual Studio\2022\Community\VC\Tools\MSVC\14.44.35207\include\xstring

; 3047 :             _Deallocate_for_capacity(_Al, _Old_ptr, _Old_capacity);

  0011a	ff 75 f8	 push	 DWORD PTR $T1[ebp]

; 1555 :                 _Traits::assign(_New_ptr[_Old_size + _Count], _Elem());

  0011d	8b 45 08	 mov	 eax, DWORD PTR tv744[ebp]

; 3047 :             _Deallocate_for_capacity(_Al, _Old_ptr, _Old_capacity);

  00120	56		 push	 esi
  00121	57		 push	 edi

; 1555 :                 _Traits::assign(_New_ptr[_Old_size + _Count], _Elem());

  00122	c6 00 00	 mov	 BYTE PTR [eax], 0

; 3047 :             _Deallocate_for_capacity(_Al, _Old_ptr, _Old_capacity);

  00125	e8 00 00 00 00	 call	 ?_Deallocate_for_capacity@?$basic_string@DU?$char_traits@D@std@@V?$allocator@D@2@@std@@CAXAAV?$allocator@D@2@QADI@Z ; std::basic_string<char,std::char_traits<char>,std::allocator<char> >::_Deallocate_for_capacity

; 1546 :             return *this;
; 1547 :         }
; 1548 : 
; 1549 :         return _Reallocate_grow_by(

  0012a	8b 45 fc	 mov	 eax, DWORD PTR $T2[ebp]

; 3047 :             _Deallocate_for_capacity(_Al, _Old_ptr, _Old_capacity);

  0012d	83 c4 24	 add	 esp, 36			; 00000024H

; 1546 :             return *this;
; 1547 :         }
; 1548 : 
; 1549 :         return _Reallocate_grow_by(

  00130	89 07		 mov	 DWORD PTR [edi], eax

; 1556 :             },
; 1557 :             _Count, _Ch);
; 1558 :     }

  00132	8b c7		 mov	 eax, edi
  00134	5f		 pop	 edi
  00135	5e		 pop	 esi
  00136	5b		 pop	 ebx
  00137	8b e5		 mov	 esp, ebp
  00139	5d		 pop	 ebp
  0013a	c2 08 00	 ret	 8
$LN23@append:
; File C:\Program Files\Microsoft Visual Studio\2022\Community\VC\Tools\MSVC\14.44.35207\include\__msvc_string_view.hpp

; 121  :         _CSTD memcpy(_First1, _First2, _Count * sizeof(_Elem));

  0013d	57		 push	 edi
  0013e	50		 push	 eax
  0013f	e8 00 00 00 00	 call	 _memcpy

; 493  :         return static_cast<_Elem*>(_CSTD memset(_First, _Ch, _Count));

  00144	53		 push	 ebx
  00145	ff 75 0c	 push	 DWORD PTR tv746[ebp]
  00148	56		 push	 esi
  00149	e8 00 00 00 00	 call	 _memset
; File C:\Program Files\Microsoft Visual Studio\2022\Community\VC\Tools\MSVC\14.44.35207\include\xstring

; 1555 :                 _Traits::assign(_New_ptr[_Old_size + _Count], _Elem());

  0014e	8d 04 33	 lea	 eax, DWORD PTR [ebx+esi]
; File C:\Program Files\Microsoft Visual Studio\2022\Community\VC\Tools\MSVC\14.44.35207\include\__msvc_string_view.hpp

; 493  :         return static_cast<_Elem*>(_CSTD memset(_First, _Ch, _Count));

  00151	83 c4 18	 add	 esp, 24			; 00000018H
; File C:\Program Files\Microsoft Visual Studio\2022\Community\VC\Tools\MSVC\14.44.35207\include\xstring

; 1555 :                 _Traits::assign(_New_ptr[_Old_size + _Count], _Elem());

  00154	c6 00 00	 mov	 BYTE PTR [eax], 0

; 1546 :             return *this;
; 1547 :         }
; 1548 : 
; 1549 :         return _Reallocate_grow_by(

  00157	8b 45 fc	 mov	 eax, DWORD PTR $T2[ebp]
  0015a	89 07		 mov	 DWORD PTR [edi], eax

; 1556 :             },
; 1557 :             _Count, _Ch);
; 1558 :     }

  0015c	8b c7		 mov	 eax, edi
  0015e	5f		 pop	 edi
  0015f	5e		 pop	 esi
  00160	5b		 pop	 ebx
  00161	8b e5		 mov	 esp, ebp
  00163	5d		 pop	 ebp
  00164	c2 08 00	 ret	 8
$LN145@append:

; 3030 :             _Xlen_string(); // result too long

  00167	e8 00 00 00 00	 call	 ?_Xlen_string@std@@YAXXZ ; std::_Xlen_string
$LN140@append:
  0016c	cc		 int	 3
?append@?$basic_string@DU?$char_traits@D@std@@V?$allocator@D@2@@std@@QAEAAV12@ID@Z ENDP ; std::basic_string<char,std::char_traits<char>,std::allocator<char> >::append
_TEXT	ENDS
; Function compile flags: /Ogtp
; File C:\Program Files\Microsoft Visual Studio\2022\Community\VC\Tools\MSVC\14.44.35207\include\xstring
;	COMDAT ?resize@?$basic_string@DU?$char_traits@D@std@@V?$allocator@D@2@@std@@QAEXID@Z
_TEXT	SEGMENT
__New_size$ = 8						; size = 4
__Ch$ = 12						; size = 1
?resize@?$basic_string@DU?$char_traits@D@std@@V?$allocator@D@2@@std@@QAEXID@Z PROC ; std::basic_string<char,std::char_traits<char>,std::allocator<char> >::resize, COMDAT
; _this$ = ecx

; 2386 :     _CONSTEXPR20 void resize(_CRT_GUARDOVERFLOW const size_type _New_size, const _Elem _Ch = _Elem()) {

  00000	55		 push	 ebp
  00001	8b ec		 mov	 ebp, esp

; 2387 :         // determine new length, padding with _Ch elements as needed
; 2388 :         const size_type _Old_size = size();

  00003	8b 51 10	 mov	 edx, DWORD PTR [ecx+16]

; 2389 :         if (_New_size <= _Old_size) {

  00006	8b 45 08	 mov	 eax, DWORD PTR __New_size$[ebp]
  00009	3b c2		 cmp	 eax, edx
  0000b	77 13		 ja	 SHORT $LN2@resize

; 3076 :         _Mypair._Myval2._Mysize = _New_size;

  0000d	89 41 10	 mov	 DWORD PTR [ecx+16], eax

; 453  :         return _Myres > _Small_string_capacity;

  00010	83 79 14 0f	 cmp	 DWORD PTR [ecx+20], 15	; 0000000fH

; 436  :         if (_Large_mode_engaged()) {

  00014	76 02		 jbe	 SHORT $LN9@resize

; 437  :             _Result = _Unfancy(_Bx._Ptr);

  00016	8b 09		 mov	 ecx, DWORD PTR [ecx]
$LN9@resize:

; 3077 :         _Traits::assign(_Mypair._Myval2._Myptr()[_New_size], _Elem());

  00018	c6 04 01 00	 mov	 BYTE PTR [ecx+eax], 0

; 2393 :         }
; 2394 :     }

  0001c	5d		 pop	 ebp
  0001d	c2 08 00	 ret	 8
$LN2@resize:

; 2390 :             _Eos(_New_size);
; 2391 :         } else {
; 2392 :             append(_New_size - _Old_size, _Ch);

  00020	2b c2		 sub	 eax, edx
  00022	89 45 08	 mov	 DWORD PTR __New_size$[ebp], eax

; 2393 :         }
; 2394 :     }

  00025	5d		 pop	 ebp

; 2390 :             _Eos(_New_size);
; 2391 :         } else {
; 2392 :             append(_New_size - _Old_size, _Ch);

  00026	e9 00 00 00 00	 jmp	 ?append@?$basic_string@DU?$char_traits@D@std@@V?$allocator@D@2@@std@@QAEAAV12@ID@Z ; std::basic_string<char,std::char_traits<char>,std::allocator<char> >::append
?resize@?$basic_string@DU?$char_traits@D@std@@V?$allocator@D@2@@std@@QAEXID@Z ENDP ; std::basic_string<char,std::char_traits<char>,std::allocator<char> >::resize
_TEXT	ENDS
; Function compile flags: /Ogtp
; File D:\_m2work\Server Client TMP4\ClientVS22\extern\include\d3dx8math.inl
;	COMDAT ??0D3DXCOLOR@@QAE@K@Z
_TEXT	SEGMENT
_dw$ = 8						; size = 4
??0D3DXCOLOR@@QAE@K@Z PROC				; D3DXCOLOR::D3DXCOLOR, COMDAT
; _this$ = ecx

; 886  : {

  00000	55		 push	 ebp
  00001	8b ec		 mov	 ebp, esp

; 887  :     CONST FLOAT f = 1.0f / 255.0f;
; 888  :     r = f * (FLOAT) (unsigned char) (dw >> 16);

  00003	8b 55 08	 mov	 edx, DWORD PTR _dw$[ebp]
  00006	8b c2		 mov	 eax, edx
  00008	f3 0f 10 0d 00
	00 00 00	 movss	 xmm1, DWORD PTR __real@3b808081
  00010	c1 e8 10	 shr	 eax, 16			; 00000010H
  00013	0f b6 c0	 movzx	 eax, al
  00016	66 0f 6e c0	 movd	 xmm0, eax

; 889  :     g = f * (FLOAT) (unsigned char) (dw >>  8);

  0001a	8b c2		 mov	 eax, edx
  0001c	0f 5b c0	 cvtdq2ps xmm0, xmm0
  0001f	c1 e8 08	 shr	 eax, 8
  00022	0f b6 c0	 movzx	 eax, al
  00025	f3 0f 59 c1	 mulss	 xmm0, xmm1
  00029	f3 0f 11 01	 movss	 DWORD PTR [ecx], xmm0
  0002d	66 0f 6e c0	 movd	 xmm0, eax
  00031	0f 5b c0	 cvtdq2ps xmm0, xmm0

; 890  :     b = f * (FLOAT) (unsigned char) (dw >>  0);

  00034	0f b6 c2	 movzx	 eax, dl

; 891  :     a = f * (FLOAT) (unsigned char) (dw >> 24);

  00037	c1 ea 18	 shr	 edx, 24			; 00000018H
  0003a	f3 0f 59 c1	 mulss	 xmm0, xmm1
  0003e	f3 0f 11 41 04	 movss	 DWORD PTR [ecx+4], xmm0
  00043	66 0f 6e c0	 movd	 xmm0, eax

; 892  : }

  00047	8b c1		 mov	 eax, ecx
  00049	0f 5b c0	 cvtdq2ps xmm0, xmm0
  0004c	f3 0f 59 c1	 mulss	 xmm0, xmm1
  00050	f3 0f 11 41 08	 movss	 DWORD PTR [ecx+8], xmm0
  00055	66 0f 6e c2	 movd	 xmm0, edx
  00059	0f 5b c0	 cvtdq2ps xmm0, xmm0
  0005c	f3 0f 59 c1	 mulss	 xmm0, xmm1
  00060	f3 0f 11 41 0c	 movss	 DWORD PTR [ecx+12], xmm0
  00065	5d		 pop	 ebp
  00066	c2 04 00	 ret	 4
??0D3DXCOLOR@@QAE@K@Z ENDP				; D3DXCOLOR::D3DXCOLOR
_TEXT	ENDS
; Function compile flags: /Ogtp
; File D:\_m2work\Server Client TMP4\ClientVS22\source\eterGrnLib\LODController.h
;	COMDAT ?GetLODLevel@CGrannyLODController@@QAEEXZ
_TEXT	SEGMENT
?GetLODLevel@CGrannyLODController@@QAEEXZ PROC		; CGrannyLODController::GetLODLevel, COMDAT
; _this$ = ecx

; 237  : 		BYTE	GetLODLevel() { return m_bLODLevel; }

  00000	8a 41 1c	 mov	 al, BYTE PTR [ecx+28]
  00003	c3		 ret	 0
?GetLODLevel@CGrannyLODController@@QAEEXZ ENDP		; CGrannyLODController::GetLODLevel
_TEXT	ENDS
; Function compile flags: /Ogtp
; File D:\_m2work\Server Client TMP4\ClientVS22\source\gameLib\Interface.h
; File D:\_m2work\Server Client TMP4\ClientVS22\source\eterBase\Singleton.h
; File D:\_m2work\Server Client TMP4\ClientVS22\source\gameLib\Interface.h
;	COMDAT ??1IBackground@@UAE@XZ
_TEXT	SEGMENT
??1IBackground@@UAE@XZ PROC				; IBackground::~IBackground, COMDAT
; _this$ = ecx
; File D:\_m2work\Server Client TMP4\ClientVS22\source\eterBase\Singleton.h

; 19   : 	{ 

  00000	c7 01 00 00 00
	00		 mov	 DWORD PTR [ecx], OFFSET ??_7?$CSingleton@VIBackground@@@@6B@

; 20   : 		assert(ms_singleton);
; 21   : 		ms_singleton = 0; 

  00006	c7 05 00 00 00
	00 00 00 00 00	 mov	 DWORD PTR ?ms_singleton@?$CSingleton@VIBackground@@@@0PAVIBackground@@A, 0 ; CSingleton<IBackground>::ms_singleton
; File D:\_m2work\Server Client TMP4\ClientVS22\source\gameLib\Interface.h

; 8    : 		virtual ~IBackground() {}

  00010	c3		 ret	 0
??1IBackground@@UAE@XZ ENDP				; IBackground::~IBackground
_TEXT	ENDS
; Function compile flags: /Ogtp
; File D:\_m2work\Server Client TMP4\ClientVS22\source\eterBase\Singleton.h
;	COMDAT ??0?$CSingleton@VIBackground@@@@QAE@XZ
_TEXT	SEGMENT
??0?$CSingleton@VIBackground@@@@QAE@XZ PROC		; CSingleton<IBackground>::CSingleton<IBackground>, COMDAT
; _this$dead$ = ecx

; 12   : 	{ 

  00000	c7 05 00 00 00
	00 00 00 00 00	 mov	 DWORD PTR ?gs_kActorInstBG@@3VCActorInstanceBackground@@A, OFFSET ??_7?$CSingleton@VIBackground@@@@6B@

; 13   : 		assert(!ms_singleton);
; 14   : 		int offset = (int) (T*) 1 - (int) (CSingleton <T>*) (T*) 1; 
; 15   : 		ms_singleton = (T*) ((int) this + offset);
; 16   : 	} 

  0000a	b8 00 00 00 00	 mov	 eax, OFFSET ?gs_kActorInstBG@@3VCActorInstanceBackground@@A
  0000f	c7 05 00 00 00
	00 00 00 00 00	 mov	 DWORD PTR ?ms_singleton@?$CSingleton@VIBackground@@@@0PAVIBackground@@A, OFFSET ?gs_kActorInstBG@@3VCActorInstanceBackground@@A ; CSingleton<IBackground>::ms_singleton
  00019	c3		 ret	 0
??0?$CSingleton@VIBackground@@@@QAE@XZ ENDP		; CSingleton<IBackground>::CSingleton<IBackground>
_TEXT	ENDS
; Function compile flags: /Ogtp
; File D:\_m2work\Server Client TMP4\ClientVS22\source\eterBase\Singleton.h
;	COMDAT ??_G?$CSingleton@VIBackground@@@@UAEPAXI@Z
_TEXT	SEGMENT
___flags$ = 8						; size = 4
??_G?$CSingleton@VIBackground@@@@UAEPAXI@Z PROC		; CSingleton<IBackground>::`scalar deleting destructor', COMDAT
; _this$ = ecx
  00000	55		 push	 ebp
  00001	8b ec		 mov	 ebp, esp
  00003	f6 45 08 01	 test	 BYTE PTR ___flags$[ebp], 1

; 19   : 	{ 

  00007	56		 push	 esi
  00008	8b f1		 mov	 esi, ecx
  0000a	c7 06 00 00 00
	00		 mov	 DWORD PTR [esi], OFFSET ??_7?$CSingleton@VIBackground@@@@6B@

; 20   : 		assert(ms_singleton);
; 21   : 		ms_singleton = 0; 

  00010	c7 05 00 00 00
	00 00 00 00 00	 mov	 DWORD PTR ?ms_singleton@?$CSingleton@VIBackground@@@@0PAVIBackground@@A, 0 ; CSingleton<IBackground>::ms_singleton
  0001a	74 0b		 je	 SHORT $LN8@scalar
  0001c	6a 04		 push	 4
  0001e	56		 push	 esi
  0001f	e8 00 00 00 00	 call	 ??3@YAXPAXI@Z		; operator delete
  00024	83 c4 08	 add	 esp, 8
$LN8@scalar:
  00027	8b c6		 mov	 eax, esi
  00029	5e		 pop	 esi
  0002a	5d		 pop	 ebp
  0002b	c2 04 00	 ret	 4
??_G?$CSingleton@VIBackground@@@@UAEPAXI@Z ENDP		; CSingleton<IBackground>::`scalar deleting destructor'
_TEXT	ENDS
; Function compile flags: /Ogtp
; File D:\_m2work\Server Client TMP4\ClientVS22\source\eterBase\Singleton.h
;	COMDAT ??1?$CSingleton@VIBackground@@@@UAE@XZ
_TEXT	SEGMENT
??1?$CSingleton@VIBackground@@@@UAE@XZ PROC		; CSingleton<IBackground>::~CSingleton<IBackground>, COMDAT
; _this$ = ecx

; 19   : 	{ 

  00000	c7 01 00 00 00
	00		 mov	 DWORD PTR [ecx], OFFSET ??_7?$CSingleton@VIBackground@@@@6B@

; 20   : 		assert(ms_singleton);
; 21   : 		ms_singleton = 0; 

  00006	c7 05 00 00 00
	00 00 00 00 00	 mov	 DWORD PTR ?ms_singleton@?$CSingleton@VIBackground@@@@0PAVIBackground@@A, 0 ; CSingleton<IBackground>::ms_singleton

; 22   : 	}

  00010	c3		 ret	 0
??1?$CSingleton@VIBackground@@@@UAE@XZ ENDP		; CSingleton<IBackground>::~CSingleton<IBackground>
_TEXT	ENDS
; Function compile flags: /Ogtp
; File D:\_m2work\Server Client TMP4\ClientVS22\source\eterBase\Singleton.h
;	COMDAT ??_GIBackground@@UAEPAXI@Z
_TEXT	SEGMENT
___flags$ = 8						; size = 4
??_GIBackground@@UAEPAXI@Z PROC				; IBackground::`scalar deleting destructor', COMDAT
; _this$ = ecx
  00000	55		 push	 ebp
  00001	8b ec		 mov	 ebp, esp
  00003	f6 45 08 01	 test	 BYTE PTR ___flags$[ebp], 1

; 19   : 	{ 

  00007	56		 push	 esi
  00008	8b f1		 mov	 esi, ecx
  0000a	c7 06 00 00 00
	00		 mov	 DWORD PTR [esi], OFFSET ??_7?$CSingleton@VIBackground@@@@6B@

; 20   : 		assert(ms_singleton);
; 21   : 		ms_singleton = 0; 

  00010	c7 05 00 00 00
	00 00 00 00 00	 mov	 DWORD PTR ?ms_singleton@?$CSingleton@VIBackground@@@@0PAVIBackground@@A, 0 ; CSingleton<IBackground>::ms_singleton
  0001a	74 0b		 je	 SHORT $LN13@scalar
  0001c	6a 04		 push	 4
  0001e	56		 push	 esi
  0001f	e8 00 00 00 00	 call	 ??3@YAXPAXI@Z		; operator delete
  00024	83 c4 08	 add	 esp, 8
$LN13@scalar:
  00027	8b c6		 mov	 eax, esi
  00029	5e		 pop	 esi
  0002a	5d		 pop	 ebp
  0002b	c2 04 00	 ret	 4
??_GIBackground@@UAEPAXI@Z ENDP				; IBackground::`scalar deleting destructor'
_TEXT	ENDS
; Function compile flags: /Ogtp
; File D:\_m2work\Server Client TMP4\ClientVS22\source\gameLib\Interface.h
; File D:\_m2work\Server Client TMP4\ClientVS22\source\eterBase\Singleton.h
; File D:\_m2work\Server Client TMP4\ClientVS22\source\gameLib\Interface.h
;	COMDAT ??0IBackground@@QAE@XZ
_TEXT	SEGMENT
??0IBackground@@QAE@XZ PROC				; IBackground::IBackground, COMDAT
; _this$dead$ = ecx
; File D:\_m2work\Server Client TMP4\ClientVS22\source\eterBase\Singleton.h

; 15   : 		ms_singleton = (T*) ((int) this + offset);

  00000	c7 05 00 00 00
	00 00 00 00 00	 mov	 DWORD PTR ?ms_singleton@?$CSingleton@VIBackground@@@@0PAVIBackground@@A, OFFSET ?gs_kActorInstBG@@3VCActorInstanceBackground@@A ; CSingleton<IBackground>::ms_singleton
; File D:\_m2work\Server Client TMP4\ClientVS22\source\gameLib\Interface.h

; 7    : 		IBackground() {}

  0000a	b8 00 00 00 00	 mov	 eax, OFFSET ?gs_kActorInstBG@@3VCActorInstanceBackground@@A
  0000f	c7 05 00 00 00
	00 00 00 00 00	 mov	 DWORD PTR ?gs_kActorInstBG@@3VCActorInstanceBackground@@A, OFFSET ??_7IBackground@@6B@
  00019	c3		 ret	 0
??0IBackground@@QAE@XZ ENDP				; IBackground::IBackground
_TEXT	ENDS
; Function compile flags: /Ogtp
; File C:\Program Files\Microsoft Visual Studio\2022\Community\VC\Tools\MSVC\14.44.35207\include\xstring
;	COMDAT ?length@?$basic_string@DU?$char_traits@D@std@@V?$allocator@D@2@@std@@QBEIXZ
_TEXT	SEGMENT
?length@?$basic_string@DU?$char_traits@D@std@@V?$allocator@D@2@@std@@QBEIXZ PROC ; std::basic_string<char,std::char_traits<char>,std::allocator<char> >::length, COMDAT
; _this$ = ecx

; 2370 :         return _Mypair._Myval2._Mysize;

  00000	8b 41 10	 mov	 eax, DWORD PTR [ecx+16]

; 2371 :     }

  00003	c3		 ret	 0
?length@?$basic_string@DU?$char_traits@D@std@@V?$allocator@D@2@@std@@QBEIXZ ENDP ; std::basic_string<char,std::char_traits<char>,std::allocator<char> >::length
_TEXT	ENDS
END
