; Listing generated by Microsoft (R) Optimizing Compiler Version 19.44.35217.0 

	TITLE	d:\_m2work\server client tmp4\clientvs22\vs_files\userinterface\distribute\instancebasebattle.obj
	.686P
	.XMM
	include listing.inc
	.model	flat

INCLUDELIB OLDNAMES

PUBLIC	??_C@_0BB@GCADKGJO@map?1set?5too?5long@		; `string'
EXTRN	?Die@CActorInstance@@QAEXXZ:PROC		; CActorInstance::Die
EXTRN	?Stun@CActorInstance@@QAEXXZ:PROC		; CActorInstance::Stun
EXTRN	?Revive@CActorInstance@@QAEXXZ:PROC		; CActorInstance::Revive
EXTRN	?SetBlendingPosition@CActorInstance@@QAEXABUD3DXVECTOR3@@M@Z:PROC ; CActorInstance::SetBlendingPosition
EXTRN	?GetBlendingPosition@CActorInstance@@QAEXPAUD3DXVECTOR3@@@Z:PROC ; CActorInstance::GetBlendingPosition
EXTRN	?GetAttackingElapsedTime@CActorInstance@@QAEMXZ:PROC ; CActorInstance::GetAttackingElapsedTime
EXTRN	?GetComboIndex@CActorInstance@@QAEKXZ:PROC	; CActorInstance::GetComboIndex
EXTRN	?GetNormalAttackIndex@CActorInstance@@QAEKXZ:PROC ; CActorInstance::GetNormalAttackIndex
EXTRN	?isComboAttacking@CActorInstance@@QAEHXZ:PROC	; CActorInstance::isComboAttacking
EXTRN	?isNormalAttacking@CActorInstance@@QAEHXZ:PROC	; CActorInstance::isNormalAttacking
EXTRN	?AttackingProcess@CActorInstance@@QAEHAAV1@@Z:PROC ; CActorInstance::AttackingProcess
EXTRN	?AdjustDynamicCollisionMovement@CActorInstance@@QAEXPBV1@@Z:PROC ; CActorInstance::AdjustDynamicCollisionMovement
EXTRN	?CanSkipCollision@CActorInstance@@QAE_NXZ:PROC	; CActorInstance::CanSkipCollision
EXTRN	?TestActorCollision@CActorInstance@@QAEHAAV1@@Z:PROC ; CActorInstance::TestActorCollision
EXTRN	?ComboAttack@CActorInstance@@QAEHKMM@Z:PROC	; CActorInstance::ComboAttack
EXTRN	?NormalAttack@CActorInstance@@QAEHMM@Z:PROC	; CActorInstance::NormalAttack
EXTRN	?InputComboAttackCommand@CActorInstance@@QAE_NM@Z:PROC ; CActorInstance::InputComboAttackCommand
EXTRN	?InputNormalAttackCommand@CActorInstance@@QAEXM@Z:PROC ; CActorInstance::InputNormalAttackCommand
EXTRN	?CanCheckAttacking@CActorInstance@@QAEHXZ:PROC	; CActorInstance::CanCheckAttacking
EXTRN	?SetMotionLoopCount@CActorInstance@@QAEXH@Z:PROC ; CActorInstance::SetMotionLoopCount
EXTRN	?__OnUseSkill@CActorInstance@@QAEXII_N@Z:PROC	; CActorInstance::__OnUseSkill
EXTRN	?IsClickableDistanceDestInstance@CActorInstance@@QAEHAAV1@M@Z:PROC ; CActorInstance::IsClickableDistanceDestInstance
EXTRN	_D3DXVec3TransformCoord@12:PROC
EXTRN	_D3DXMatrixRotationZ@8:PROC
EXTRN	?frandom@@YAMMM@Z:PROC				; frandom
EXTRN	??0CFlyTarget@@QAE@ABUD3DXVECTOR3@@@Z:PROC	; CFlyTarget::CFlyTarget
EXTRN	?AddFlyTarget@CActorInstance@@QAEXABVCFlyTarget@@@Z:PROC ; CActorInstance::AddFlyTarget
EXTRN	??1CFlyTarget@@UAE@XZ:PROC			; CFlyTarget::~CFlyTarget
EXTRN	??0CFlyTarget@@QAE@PAVIFlyTargetableObject@@@Z:PROC ; CFlyTarget::CFlyTarget
EXTRN	?SetFlyTarget@CActorInstance@@QAEXABVCFlyTarget@@@Z:PROC ; CActorInstance::SetFlyTarget
EXTRN	?ClearFlyTarget@CActorInstance@@QAEXXZ:PROC	; CActorInstance::ClearFlyTarget
EXTRN	?GetFlyTargetDistance@CActorInstance@@QAEMXZ:PROC ; CActorInstance::GetFlyTargetDistance
EXTRN	?IsFlyTargetObject@CActorInstance@@QAE_NXZ:PROC	; CActorInstance::IsFlyTargetObject
EXTRN	_D3DXVec3Normalize@8:PROC
;	COMDAT ??_C@_0BB@GCADKGJO@map?1set?5too?5long@
CONST	SEGMENT
??_C@_0BB@GCADKGJO@map?1set?5too?5long@ DB 'map/set too long', 00H ; `string'
PUBLIC	??0D3DXMATRIX@@QAE@XZ				; D3DXMATRIX::D3DXMATRIX
PUBLIC	_acosf
PUBLIC	??KD3DXVECTOR3@@QBE?AU0@M@Z			; D3DXVECTOR3::operator/
PUBLIC	??YD3DXVECTOR3@@QAEAAU0@ABU0@@Z			; D3DXVECTOR3::operator+=
PUBLIC	?_Adopt@_Iterator_base0@std@@QAEXPBX@Z		; std::_Iterator_base0::_Adopt
PUBLIC	?_Throw_tree_length_error@std@@YAXXZ		; std::_Throw_tree_length_error
PUBLIC	??$forward@M@std@@YA$$QAMAAM@Z			; std::forward<float>
PUBLIC	??$?0MPAVCInstanceBase@@$0A@@?$pair@$$CBMPAVCInstanceBase@@@std@@QAE@$$QAU?$pair@MPAVCInstanceBase@@@1@@Z ; std::pair<float const ,CInstanceBase *>::pair<float const ,CInstanceBase *><float,CInstanceBase *,0>
PUBLIC	??$construct_at@U?$pair@$$CBMPAVCInstanceBase@@@std@@U?$pair@MPAVCInstanceBase@@@2@@std@@YAPAU?$pair@$$CBMPAVCInstanceBase@@@0@QAU10@$$QAU?$pair@MPAVCInstanceBase@@@0@@Z ; std::construct_at<std::pair<float const ,CInstanceBase *>,std::pair<float,CInstanceBase *> >
PUBLIC	?_Get_first@?$_Compressed_pair@V?$allocator@U?$_Tree_node@U?$pair@$$CBMPAVCInstanceBase@@@std@@PAX@std@@@std@@V?$_Tree_val@U?$_Tree_simple_types@U?$pair@$$CBMPAVCInstanceBase@@@std@@@std@@@2@$00@std@@QBEABV?$allocator@U?$_Tree_node@U?$pair@$$CBMPAVCInstanceBase@@@std@@PAX@std@@@2@XZ ; std::_Compressed_pair<std::allocator<std::_Tree_node<std::pair<float const ,CInstanceBase *>,void *> >,std::_Tree_val<std::_Tree_simple_types<std::pair<float const ,CInstanceBase *> > >,1>::_Get_first
PUBLIC	??$construct_at@PAU?$_Tree_node@U?$pair@$$CBMPAVCInstanceBase@@@std@@PAX@std@@ABQAU12@@std@@YAPAPAU?$_Tree_node@U?$pair@$$CBMPAVCInstanceBase@@@std@@PAX@0@QAPAU10@ABQAU10@@Z ; std::construct_at<std::_Tree_node<std::pair<float const ,CInstanceBase *>,void *> *,std::_Tree_node<std::pair<float const ,CInstanceBase *>,void *> * const &>
PUBLIC	??$forward@ABQAU?$_Tree_node@U?$pair@$$CBMPAVCInstanceBase@@@std@@PAX@std@@@std@@YAABQAU?$_Tree_node@U?$pair@$$CBMPAVCInstanceBase@@@std@@PAX@0@ABQAU10@@Z ; std::forward<std::_Tree_node<std::pair<float const ,CInstanceBase *>,void *> * const &>
PUBLIC	??$construct@U?$pair@$$CBMPAVCInstanceBase@@@std@@U?$pair@MPAVCInstanceBase@@@2@@?$_Default_allocator_traits@V?$allocator@U?$_Tree_node@U?$pair@$$CBMPAVCInstanceBase@@@std@@PAX@std@@@std@@@std@@SAXAAV?$allocator@U?$_Tree_node@U?$pair@$$CBMPAVCInstanceBase@@@std@@PAX@std@@@1@QAU?$pair@$$CBMPAVCInstanceBase@@@1@$$QAU?$pair@MPAVCInstanceBase@@@1@@Z ; std::_Default_allocator_traits<std::allocator<std::_Tree_node<std::pair<float const ,CInstanceBase *>,void *> > >::construct<std::pair<float const ,CInstanceBase *>,std::pair<float,CInstanceBase *> >
PUBLIC	?_Getal@?$_Tree@V?$_Tmap_traits@MPAVCInstanceBase@@U?$less@M@std@@V?$allocator@U?$pair@$$CBMPAVCInstanceBase@@@std@@@3@$00@std@@@std@@IBEABV?$allocator@U?$_Tree_node@U?$pair@$$CBMPAVCInstanceBase@@@std@@PAX@std@@@2@XZ ; std::_Tree<std::_Tmap_traits<float,CInstanceBase *,std::less<float>,std::allocator<std::pair<float const ,CInstanceBase *> >,1> >::_Getal
PUBLIC	??0?$allocator@U?$_Tree_node@U?$pair@$$CBMPAVCInstanceBase@@@std@@PAX@std@@@std@@QAE@XZ ; std::allocator<std::_Tree_node<std::pair<float const ,CInstanceBase *>,void *> >::allocator<std::_Tree_node<std::pair<float const ,CInstanceBase *>,void *> >
PUBLIC	?deallocate@?$allocator@U?$_Tree_node@U?$pair@$$CBMPAVCInstanceBase@@@std@@PAX@std@@@std@@QAEXQAU?$_Tree_node@U?$pair@$$CBMPAVCInstanceBase@@@std@@PAX@2@I@Z ; std::allocator<std::_Tree_node<std::pair<float const ,CInstanceBase *>,void *> >::deallocate
PUBLIC	?allocate@?$allocator@U?$_Tree_node@U?$pair@$$CBMPAVCInstanceBase@@@std@@PAX@std@@@std@@QAEPAU?$_Tree_node@U?$pair@$$CBMPAVCInstanceBase@@@std@@PAX@2@I@Z ; std::allocator<std::_Tree_node<std::pair<float const ,CInstanceBase *>,void *> >::allocate
PUBLIC	?max_size@?$_Default_allocator_traits@V?$allocator@U?$_Tree_node@U?$pair@$$CBMPAVCInstanceBase@@@std@@PAX@std@@@std@@@std@@SAIABV?$allocator@U?$_Tree_node@U?$pair@$$CBMPAVCInstanceBase@@@std@@PAX@std@@@2@@Z ; std::_Default_allocator_traits<std::allocator<std::_Tree_node<std::pair<float const ,CInstanceBase *>,void *> > >::max_size
PUBLIC	??0?$_Tree_val@U?$_Tree_simple_types@U?$pair@$$CBMPAVCInstanceBase@@@std@@@std@@@std@@QAE@XZ ; std::_Tree_val<std::_Tree_simple_types<std::pair<float const ,CInstanceBase *> > >::_Tree_val<std::_Tree_simple_types<std::pair<float const ,CInstanceBase *> > >
PUBLIC	?_Get_first@?$_Compressed_pair@U?$less@M@std@@V?$_Compressed_pair@V?$allocator@U?$_Tree_node@U?$pair@$$CBMPAVCInstanceBase@@@std@@PAX@std@@@std@@V?$_Tree_val@U?$_Tree_simple_types@U?$pair@$$CBMPAVCInstanceBase@@@std@@@std@@@2@$00@2@$00@std@@QBEABU?$less@M@2@XZ ; std::_Compressed_pair<std::less<float>,std::_Compressed_pair<std::allocator<std::_Tree_node<std::pair<float const ,CInstanceBase *>,void *> >,std::_Tree_val<std::_Tree_simple_types<std::pair<float const ,CInstanceBase *> > >,1>,1>::_Get_first
PUBLIC	??0?$_Alloc_construct_ptr@V?$allocator@U?$_Tree_node@U?$pair@$$CBMPAVCInstanceBase@@@std@@PAX@std@@@std@@@std@@QAE@AAV?$allocator@U?$_Tree_node@U?$pair@$$CBMPAVCInstanceBase@@@std@@PAX@std@@@1@@Z ; std::_Alloc_construct_ptr<std::allocator<std::_Tree_node<std::pair<float const ,CInstanceBase *>,void *> > >::_Alloc_construct_ptr<std::allocator<std::_Tree_node<std::pair<float const ,CInstanceBase *>,void *> > >
PUBLIC	?_Allocate@?$_Alloc_construct_ptr@V?$allocator@U?$_Tree_node@U?$pair@$$CBMPAVCInstanceBase@@@std@@PAX@std@@@std@@@std@@QAEXXZ ; std::_Alloc_construct_ptr<std::allocator<std::_Tree_node<std::pair<float const ,CInstanceBase *>,void *> > >::_Allocate
PUBLIC	??$_Construct_in_place@PAU?$_Tree_node@U?$pair@$$CBMPAVCInstanceBase@@@std@@PAX@std@@ABQAU12@@std@@YAXAAPAU?$_Tree_node@U?$pair@$$CBMPAVCInstanceBase@@@std@@PAX@0@ABQAU10@@Z ; std::_Construct_in_place<std::_Tree_node<std::pair<float const ,CInstanceBase *>,void *> *,std::_Tree_node<std::pair<float const ,CInstanceBase *>,void *> * const &>
PUBLIC	??$destroy_at@U?$pair@$$CBMPAVCInstanceBase@@@std@@@std@@YAXQAU?$pair@$$CBMPAVCInstanceBase@@@0@@Z ; std::destroy_at<std::pair<float const ,CInstanceBase *> >
PUBLIC	??$forward@V?$_Tree_iterator@V?$_Tree_val@U?$_Tree_simple_types@U?$pair@$$CBMPAVCInstanceBase@@@std@@@std@@@std@@@std@@@std@@YA$$QAV?$_Tree_iterator@V?$_Tree_val@U?$_Tree_simple_types@U?$pair@$$CBMPAVCInstanceBase@@@std@@@std@@@std@@@0@AAV10@@Z ; std::forward<std::_Tree_iterator<std::_Tree_val<std::_Tree_simple_types<std::pair<float const ,CInstanceBase *> > > > >
PUBLIC	??$?0U?$pair@MPAVCInstanceBase@@@std@@@?$_Tree_temp_node@V?$allocator@U?$_Tree_node@U?$pair@$$CBMPAVCInstanceBase@@@std@@PAX@std@@@std@@@std@@QAE@AAV?$allocator@U?$_Tree_node@U?$pair@$$CBMPAVCInstanceBase@@@std@@PAX@std@@@1@PAU?$_Tree_node@U?$pair@$$CBMPAVCInstanceBase@@@std@@PAX@1@$$QAU?$pair@MPAVCInstanceBase@@@1@@Z ; std::_Tree_temp_node<std::allocator<std::_Tree_node<std::pair<float const ,CInstanceBase *>,void *> > >::_Tree_temp_node<std::allocator<std::_Tree_node<std::pair<float const ,CInstanceBase *>,void *> > ><std::pair<float,CInstanceBase *> >
PUBLIC	??$construct_at@PAU?$_Tree_node@U?$pair@$$CBMPAVCInstanceBase@@@std@@PAX@std@@AAPAU12@@std@@YAPAPAU?$_Tree_node@U?$pair@$$CBMPAVCInstanceBase@@@std@@PAX@0@QAPAU10@AAPAU10@@Z ; std::construct_at<std::_Tree_node<std::pair<float const ,CInstanceBase *>,void *> *,std::_Tree_node<std::pair<float const ,CInstanceBase *>,void *> * &>
PUBLIC	??$forward@AAPAU?$_Tree_node@U?$pair@$$CBMPAVCInstanceBase@@@std@@PAX@std@@@std@@YAAAPAU?$_Tree_node@U?$pair@$$CBMPAVCInstanceBase@@@std@@PAX@0@AAPAU10@@Z ; std::forward<std::_Tree_node<std::pair<float const ,CInstanceBase *>,void *> * &>
PUBLIC	??$addressof@PAU?$_Tree_node@U?$pair@$$CBMPAVCInstanceBase@@@std@@PAX@std@@@std@@YAPAPAU?$_Tree_node@U?$pair@$$CBMPAVCInstanceBase@@@std@@PAX@0@AAPAU10@@Z ; std::addressof<std::_Tree_node<std::pair<float const ,CInstanceBase *>,void *> *>
PUBLIC	??$construct_at@U?$pair@$$CBMPAVCInstanceBase@@@std@@U12@@std@@YAPAU?$pair@$$CBMPAVCInstanceBase@@@0@QAU10@$$QAU10@@Z ; std::construct_at<std::pair<float const ,CInstanceBase *>,std::pair<float const ,CInstanceBase *> >
PUBLIC	??R?$less@M@std@@QBE_NABM0@Z			; std::less<float>::operator()
PUBLIC	?_Min@?$_Tree_val@U?$_Tree_simple_types@U?$pair@$$CBKPAVCInstanceBase@@@std@@@std@@@std@@SAPAU?$_Tree_node@U?$pair@$$CBKPAVCInstanceBase@@@std@@PAX@2@PAU32@@Z ; std::_Tree_val<std::_Tree_simple_types<std::pair<unsigned long const ,CInstanceBase *> > >::_Min
PUBLIC	?max_size@?$_Tree@V?$_Tmap_traits@MPAVCInstanceBase@@U?$less@M@std@@V?$allocator@U?$pair@$$CBMPAVCInstanceBase@@@std@@@3@$00@std@@@std@@QBEIXZ ; std::_Tree<std::_Tmap_traits<float,CInstanceBase *,std::less<float>,std::allocator<std::pair<float const ,CInstanceBase *> >,1> >::max_size
PUBLIC	?_Getcomp@?$_Tree@V?$_Tmap_traits@MPAVCInstanceBase@@U?$less@M@std@@V?$allocator@U?$pair@$$CBMPAVCInstanceBase@@@std@@@3@$00@std@@@std@@IBEABU?$less@M@2@XZ ; std::_Tree<std::_Tmap_traits<float,CInstanceBase *,std::less<float>,std::allocator<std::pair<float const ,CInstanceBase *> >,1> >::_Getcomp
PUBLIC	?deallocate@?$_Default_allocator_traits@V?$allocator@U?$_Tree_node@U?$pair@$$CBMPAVCInstanceBase@@@std@@PAX@std@@@std@@@std@@SAXAAV?$allocator@U?$_Tree_node@U?$pair@$$CBMPAVCInstanceBase@@@std@@PAX@std@@@2@QAU?$_Tree_node@U?$pair@$$CBMPAVCInstanceBase@@@std@@PAX@2@I@Z ; std::_Default_allocator_traits<std::allocator<std::_Tree_node<std::pair<float const ,CInstanceBase *>,void *> > >::deallocate
PUBLIC	?_Min@?$_Tree_val@U?$_Tree_simple_types@U?$pair@$$CBMPAVCInstanceBase@@@std@@@std@@@std@@SAPAU?$_Tree_node@U?$pair@$$CBMPAVCInstanceBase@@@std@@PAX@2@PAU32@@Z ; std::_Tree_val<std::_Tree_simple_types<std::pair<float const ,CInstanceBase *> > >::_Min
PUBLIC	?_Lrotate@?$_Tree_val@U?$_Tree_simple_types@U?$pair@$$CBMPAVCInstanceBase@@@std@@@std@@@std@@QAEXPAU?$_Tree_node@U?$pair@$$CBMPAVCInstanceBase@@@std@@PAX@2@@Z ; std::_Tree_val<std::_Tree_simple_types<std::pair<float const ,CInstanceBase *> > >::_Lrotate
PUBLIC	?_Rrotate@?$_Tree_val@U?$_Tree_simple_types@U?$pair@$$CBMPAVCInstanceBase@@@std@@@std@@@std@@QAEXPAU?$_Tree_node@U?$pair@$$CBMPAVCInstanceBase@@@std@@PAX@2@@Z ; std::_Tree_val<std::_Tree_simple_types<std::pair<float const ,CInstanceBase *> > >::_Rrotate
PUBLIC	??0?$_Tree_temp_node_alloc@V?$allocator@U?$_Tree_node@U?$pair@$$CBMPAVCInstanceBase@@@std@@PAX@std@@@std@@@std@@QAE@AAV?$allocator@U?$_Tree_node@U?$pair@$$CBMPAVCInstanceBase@@@std@@PAX@std@@@1@@Z ; std::_Tree_temp_node_alloc<std::allocator<std::_Tree_node<std::pair<float const ,CInstanceBase *>,void *> > >::_Tree_temp_node_alloc<std::allocator<std::_Tree_node<std::pair<float const ,CInstanceBase *>,void *> > >
PUBLIC	??1?$_Alloc_construct_ptr@V?$allocator@U?$_Tree_node@U?$pair@$$CBMPAVCInstanceBase@@@std@@PAX@std@@@std@@@std@@QAE@XZ ; std::_Alloc_construct_ptr<std::allocator<std::_Tree_node<std::pair<float const ,CInstanceBase *>,void *> > >::~_Alloc_construct_ptr<std::allocator<std::_Tree_node<std::pair<float const ,CInstanceBase *>,void *> > >
PUBLIC	??$_Buyheadnode@V?$allocator@U?$_Tree_node@U?$pair@$$CBMPAVCInstanceBase@@@std@@PAX@std@@@std@@@?$_Tree_node@U?$pair@$$CBMPAVCInstanceBase@@@std@@PAX@std@@SAPAU01@AAV?$allocator@U?$_Tree_node@U?$pair@$$CBMPAVCInstanceBase@@@std@@PAX@std@@@1@@Z ; std::_Tree_node<std::pair<float const ,CInstanceBase *>,void *>::_Buyheadnode<std::allocator<std::_Tree_node<std::pair<float const ,CInstanceBase *>,void *> > >
PUBLIC	??$destroy@U?$pair@$$CBMPAVCInstanceBase@@@std@@@?$_Default_allocator_traits@V?$allocator@U?$_Tree_node@U?$pair@$$CBMPAVCInstanceBase@@@std@@PAX@std@@@std@@@std@@SAXAAV?$allocator@U?$_Tree_node@U?$pair@$$CBMPAVCInstanceBase@@@std@@PAX@std@@@1@QAU?$pair@$$CBMPAVCInstanceBase@@@1@@Z ; std::_Default_allocator_traits<std::allocator<std::_Tree_node<std::pair<float const ,CInstanceBase *>,void *> > >::destroy<std::pair<float const ,CInstanceBase *> >
PUBLIC	??$exchange@PAU?$_Tree_node@U?$pair@$$CBMPAVCInstanceBase@@@std@@PAX@std@@$$T@std@@YAPAU?$_Tree_node@U?$pair@$$CBMPAVCInstanceBase@@@std@@PAX@0@AAPAU10@$$QA$$T@Z ; std::exchange<std::_Tree_node<std::pair<float const ,CInstanceBase *>,void *> *,std::nullptr_t>
PUBLIC	??$forward@ABU?$less@M@std@@@std@@YAABU?$less@M@0@ABU10@@Z ; std::forward<std::less<float> const &>
PUBLIC	??$_Destroy_in_place@PAU?$_Tree_node@U?$pair@$$CBMPAVCInstanceBase@@@std@@PAX@std@@@std@@YAXAAPAU?$_Tree_node@U?$pair@$$CBMPAVCInstanceBase@@@std@@PAX@0@@Z ; std::_Destroy_in_place<std::_Tree_node<std::pair<float const ,CInstanceBase *>,void *> *>
PUBLIC	??$_Freenode@V?$allocator@U?$_Tree_node@U?$pair@$$CBMPAVCInstanceBase@@@std@@PAX@std@@@std@@@?$_Tree_node@U?$pair@$$CBMPAVCInstanceBase@@@std@@PAX@std@@SAXAAV?$allocator@U?$_Tree_node@U?$pair@$$CBMPAVCInstanceBase@@@std@@PAX@std@@@1@PAU01@@Z ; std::_Tree_node<std::pair<float const ,CInstanceBase *>,void *>::_Freenode<std::allocator<std::_Tree_node<std::pair<float const ,CInstanceBase *>,void *> > >
PUBLIC	??$exchange@PAU?$_Tree_node@U?$pair@$$CBMPAVCInstanceBase@@@std@@PAX@std@@AAPAU12@@std@@YAPAU?$_Tree_node@U?$pair@$$CBMPAVCInstanceBase@@@std@@PAX@0@AAPAU10@0@Z ; std::exchange<std::_Tree_node<std::pair<float const ,CInstanceBase *>,void *> *,std::_Tree_node<std::pair<float const ,CInstanceBase *>,void *> * &>
PUBLIC	??$?0V?$_Tree_iterator@V?$_Tree_val@U?$_Tree_simple_types@U?$pair@$$CBMPAVCInstanceBase@@@std@@@std@@@std@@@std@@AB_N$0A@@?$pair@V?$_Tree_iterator@V?$_Tree_val@U?$_Tree_simple_types@U?$pair@$$CBMPAVCInstanceBase@@@std@@@std@@@std@@@std@@_N@std@@QAE@$$QAV?$_Tree_iterator@V?$_Tree_val@U?$_Tree_simple_types@U?$pair@$$CBMPAVCInstanceBase@@@std@@@std@@@std@@@1@AB_N@Z ; std::pair<std::_Tree_iterator<std::_Tree_val<std::_Tree_simple_types<std::pair<float const ,CInstanceBase *> > > >,bool>::pair<std::_Tree_iterator<std::_Tree_val<std::_Tree_simple_types<std::pair<float const ,CInstanceBase *> > > >,bool><std::_Tree_iterator<std::_Tree_val<std::_Tree_simple_types<std::pair<float const ,CInstanceBase *> > > >,bool const &,0>
PUBLIC	??$_Emplace@U?$pair@MPAVCInstanceBase@@@std@@@?$_Tree@V?$_Tmap_traits@MPAVCInstanceBase@@U?$less@M@std@@V?$allocator@U?$pair@$$CBMPAVCInstanceBase@@@std@@@3@$00@std@@@std@@IAE?AU?$pair@PAU?$_Tree_node@U?$pair@$$CBMPAVCInstanceBase@@@std@@PAX@std@@_N@1@$$QAU?$pair@MPAVCInstanceBase@@@1@@Z ; std::_Tree<std::_Tmap_traits<float,CInstanceBase *,std::less<float>,std::allocator<std::pair<float const ,CInstanceBase *> >,1> >::_Emplace<std::pair<float,CInstanceBase *> >
PUBLIC	??$forward@PAU?$_Tree_node@U?$pair@$$CBMPAVCInstanceBase@@@std@@PAX@std@@@std@@YA$$QAPAU?$_Tree_node@U?$pair@$$CBMPAVCInstanceBase@@@std@@PAX@0@AAPAU10@@Z ; std::forward<std::_Tree_node<std::pair<float const ,CInstanceBase *>,void *> *>
PUBLIC	??$_Construct_in_place@PAU?$_Tree_node@U?$pair@$$CBMPAVCInstanceBase@@@std@@PAX@std@@AAPAU12@@std@@YAXAAPAU?$_Tree_node@U?$pair@$$CBMPAVCInstanceBase@@@std@@PAX@0@0@Z ; std::_Construct_in_place<std::_Tree_node<std::pair<float const ,CInstanceBase *>,void *> *,std::_Tree_node<std::pair<float const ,CInstanceBase *>,void *> * &>
PUBLIC	??$construct@U?$pair@$$CBMPAVCInstanceBase@@@std@@U12@@?$_Default_allocator_traits@V?$allocator@U?$_Tree_node@U?$pair@$$CBMPAVCInstanceBase@@@std@@PAX@std@@@std@@@std@@SAXAAV?$allocator@U?$_Tree_node@U?$pair@$$CBMPAVCInstanceBase@@@std@@PAX@std@@@1@QAU?$pair@$$CBMPAVCInstanceBase@@@1@$$QAU31@@Z ; std::_Default_allocator_traits<std::allocator<std::_Tree_node<std::pair<float const ,CInstanceBase *>,void *> > >::construct<std::pair<float const ,CInstanceBase *>,std::pair<float const ,CInstanceBase *> >
PUBLIC	??$forward@_N@std@@YA$$QA_NAA_N@Z		; std::forward<bool>
PUBLIC	??$?0$$V@?$_Compressed_pair@V?$allocator@U?$_Tree_node@U?$pair@$$CBMPAVCInstanceBase@@@std@@PAX@std@@@std@@V?$_Tree_val@U?$_Tree_simple_types@U?$pair@$$CBMPAVCInstanceBase@@@std@@@std@@@2@$00@std@@QAE@U_Zero_then_variadic_args_t@1@@Z ; std::_Compressed_pair<std::allocator<std::_Tree_node<std::pair<float const ,CInstanceBase *>,void *> >,std::_Tree_val<std::_Tree_simple_types<std::pair<float const ,CInstanceBase *> > >,1>::_Compressed_pair<std::allocator<std::_Tree_node<std::pair<float const ,CInstanceBase *>,void *> >,std::_Tree_val<std::_Tree_simple_types<std::pair<float const ,CInstanceBase *> > >,1><>
PUBLIC	??1?$_Tree_temp_node_alloc@V?$allocator@U?$_Tree_node@U?$pair@$$CBMPAVCInstanceBase@@@std@@PAX@std@@@std@@@std@@QAE@XZ ; std::_Tree_temp_node_alloc<std::allocator<std::_Tree_node<std::pair<float const ,CInstanceBase *>,void *> > >::~_Tree_temp_node_alloc<std::allocator<std::_Tree_node<std::pair<float const ,CInstanceBase *>,void *> > >
PUBLIC	??D?$_Tree_const_iterator@V?$_Tree_val@U?$_Tree_simple_types@U?$pair@$$CBKPAVCInstanceBase@@@std@@@std@@@std@@@std@@QBEABU?$pair@$$CBKPAVCInstanceBase@@@1@XZ ; std::_Tree_const_iterator<std::_Tree_val<std::_Tree_simple_types<std::pair<unsigned long const ,CInstanceBase *> > > >::operator*
PUBLIC	??E?$_Tree_unchecked_const_iterator@V?$_Tree_val@U?$_Tree_simple_types@U?$pair@$$CBKPAVCInstanceBase@@@std@@@std@@@std@@U_Iterator_base0@2@@std@@QAEAAV01@XZ ; std::_Tree_unchecked_const_iterator<std::_Tree_val<std::_Tree_simple_types<std::pair<unsigned long const ,CInstanceBase *> > >,std::_Iterator_base0>::operator++
PUBLIC	?_Check_grow_by_1@?$_Tree@V?$_Tmap_traits@MPAVCInstanceBase@@U?$less@M@std@@V?$allocator@U?$pair@$$CBMPAVCInstanceBase@@@std@@@3@$00@std@@@std@@IAEXXZ ; std::_Tree<std::_Tmap_traits<float,CInstanceBase *,std::less<float>,std::allocator<std::pair<float const ,CInstanceBase *> >,1> >::_Check_grow_by_1
PUBLIC	?_Alloc_sentinel_and_proxy@?$_Tree@V?$_Tmap_traits@MPAVCInstanceBase@@U?$less@M@std@@V?$allocator@U?$pair@$$CBMPAVCInstanceBase@@@std@@@3@$00@std@@@std@@IAEXXZ ; std::_Tree<std::_Tmap_traits<float,CInstanceBase *,std::less<float>,std::allocator<std::pair<float const ,CInstanceBase *> >,1> >::_Alloc_sentinel_and_proxy
PUBLIC	?_Insert_node@?$_Tree_val@U?$_Tree_simple_types@U?$pair@$$CBMPAVCInstanceBase@@@std@@@std@@@std@@QAEPAU?$_Tree_node@U?$pair@$$CBMPAVCInstanceBase@@@std@@PAX@2@U?$_Tree_id@PAU?$_Tree_node@U?$pair@$$CBMPAVCInstanceBase@@@std@@PAX@std@@@2@QAU32@@Z ; std::_Tree_val<std::_Tree_simple_types<std::pair<float const ,CInstanceBase *> > >::_Insert_node
PUBLIC	??D?$_Tree_const_iterator@V?$_Tree_val@U?$_Tree_simple_types@U?$pair@$$CBMPAVCInstanceBase@@@std@@@std@@@std@@@std@@QBEABU?$pair@$$CBMPAVCInstanceBase@@@1@XZ ; std::_Tree_const_iterator<std::_Tree_val<std::_Tree_simple_types<std::pair<float const ,CInstanceBase *> > > >::operator*
PUBLIC	??E?$_Tree_unchecked_const_iterator@V?$_Tree_val@U?$_Tree_simple_types@U?$pair@$$CBMPAVCInstanceBase@@@std@@@std@@@std@@U_Iterator_base0@2@@std@@QAEAAV01@XZ ; std::_Tree_unchecked_const_iterator<std::_Tree_val<std::_Tree_simple_types<std::pair<float const ,CInstanceBase *> > >,std::_Iterator_base0>::operator++
PUBLIC	?_Get_first@?$_Compressed_pair@V?$allocator@U?$_Tree_node@U?$pair@$$CBMPAVCInstanceBase@@@std@@PAX@std@@@std@@V?$_Tree_val@U?$_Tree_simple_types@U?$pair@$$CBMPAVCInstanceBase@@@std@@@std@@@2@$00@std@@QAEAAV?$allocator@U?$_Tree_node@U?$pair@$$CBMPAVCInstanceBase@@@std@@PAX@std@@@2@XZ ; std::_Compressed_pair<std::allocator<std::_Tree_node<std::pair<float const ,CInstanceBase *>,void *> >,std::_Tree_val<std::_Tree_simple_types<std::pair<float const ,CInstanceBase *> > >,1>::_Get_first
PUBLIC	??1?$_Tree_temp_node@V?$allocator@U?$_Tree_node@U?$pair@$$CBMPAVCInstanceBase@@@std@@PAX@std@@@std@@@std@@QAE@XZ ; std::_Tree_temp_node<std::allocator<std::_Tree_node<std::pair<float const ,CInstanceBase *>,void *> > >::~_Tree_temp_node<std::allocator<std::_Tree_node<std::pair<float const ,CInstanceBase *>,void *> > >
PUBLIC	?_Release@?$_Alloc_construct_ptr@V?$allocator@U?$_Tree_node@U?$pair@$$CBMPAVCInstanceBase@@@std@@PAX@std@@@std@@@std@@QAEPAU?$_Tree_node@U?$pair@$$CBMPAVCInstanceBase@@@std@@PAX@2@XZ ; std::_Alloc_construct_ptr<std::allocator<std::_Tree_node<std::pair<float const ,CInstanceBase *>,void *> > >::_Release
PUBLIC	??$addressof@V?$_Tree_val@U?$_Tree_simple_types@U?$pair@$$CBKPAVCInstanceBase@@@std@@@std@@@std@@@std@@YAPAV?$_Tree_val@U?$_Tree_simple_types@U?$pair@$$CBKPAVCInstanceBase@@@std@@@std@@@0@AAV10@@Z ; std::addressof<std::_Tree_val<std::_Tree_simple_types<std::pair<unsigned long const ,CInstanceBase *> > > >
PUBLIC	??$?0ABU?$less@M@std@@U_Zero_then_variadic_args_t@1@@?$_Compressed_pair@U?$less@M@std@@V?$_Compressed_pair@V?$allocator@U?$_Tree_node@U?$pair@$$CBMPAVCInstanceBase@@@std@@PAX@std@@@std@@V?$_Tree_val@U?$_Tree_simple_types@U?$pair@$$CBMPAVCInstanceBase@@@std@@@std@@@2@$00@2@$00@std@@QAE@U_One_then_variadic_args_t@1@ABU?$less@M@1@$$QAU_Zero_then_variadic_args_t@1@@Z ; std::_Compressed_pair<std::less<float>,std::_Compressed_pair<std::allocator<std::_Tree_node<std::pair<float const ,CInstanceBase *>,void *> >,std::_Tree_val<std::_Tree_simple_types<std::pair<float const ,CInstanceBase *> > >,1>,1>::_Compressed_pair<std::less<float>,std::_Compressed_pair<std::allocator<std::_Tree_node<std::pair<float const ,CInstanceBase *>,void *> >,std::_Tree_val<std::_Tree_simple_types<std::pair<float const ,CInstanceBase *> > >,1>,1><std::less<float> const &,std::_Zero_then_variadic_args_t>
PUBLIC	??$addressof@V?$_Tree_val@U?$_Tree_simple_types@U?$pair@$$CBMPAVCInstanceBase@@@std@@@std@@@std@@@std@@YAPAV?$_Tree_val@U?$_Tree_simple_types@U?$pair@$$CBMPAVCInstanceBase@@@std@@@std@@@0@AAV10@@Z ; std::addressof<std::_Tree_val<std::_Tree_simple_types<std::pair<float const ,CInstanceBase *> > > >
PUBLIC	??$addressof@$$CBV?$_Tree_val@U?$_Tree_simple_types@U?$pair@$$CBMPAVCInstanceBase@@@std@@@std@@@std@@@std@@YAPBV?$_Tree_val@U?$_Tree_simple_types@U?$pair@$$CBMPAVCInstanceBase@@@std@@@std@@@0@ABV10@@Z ; std::addressof<std::_Tree_val<std::_Tree_simple_types<std::pair<float const ,CInstanceBase *> > > const >
PUBLIC	??$addressof@U?$pair@$$CBMPAVCInstanceBase@@@std@@@std@@YAPAU?$pair@$$CBMPAVCInstanceBase@@@0@AAU10@@Z ; std::addressof<std::pair<float const ,CInstanceBase *> >
PUBLIC	??$addressof@U?$pair@$$CBKPAVCInstanceBase@@@std@@@std@@YAPAU?$pair@$$CBKPAVCInstanceBase@@@0@AAU10@@Z ; std::addressof<std::pair<unsigned long const ,CInstanceBase *> >
PUBLIC	??$_Freenode0@V?$allocator@U?$_Tree_node@U?$pair@$$CBMPAVCInstanceBase@@@std@@PAX@std@@@std@@@?$_Tree_node@U?$pair@$$CBMPAVCInstanceBase@@@std@@PAX@std@@SAXAAV?$allocator@U?$_Tree_node@U?$pair@$$CBMPAVCInstanceBase@@@std@@PAX@std@@@1@PAU01@@Z ; std::_Tree_node<std::pair<float const ,CInstanceBase *>,void *>::_Freenode0<std::allocator<std::_Tree_node<std::pair<float const ,CInstanceBase *>,void *> > >
PUBLIC	??$_Erase_tree@V?$allocator@U?$_Tree_node@U?$pair@$$CBMPAVCInstanceBase@@@std@@PAX@std@@@std@@@?$_Tree_val@U?$_Tree_simple_types@U?$pair@$$CBMPAVCInstanceBase@@@std@@@std@@@std@@QAEXAAV?$allocator@U?$_Tree_node@U?$pair@$$CBMPAVCInstanceBase@@@std@@PAX@std@@@1@PAU?$_Tree_node@U?$pair@$$CBMPAVCInstanceBase@@@std@@PAX@1@@Z ; std::_Tree_val<std::_Tree_simple_types<std::pair<float const ,CInstanceBase *> > >::_Erase_tree<std::allocator<std::_Tree_node<std::pair<float const ,CInstanceBase *>,void *> > >
PUBLIC	??$emplace@U?$pair@MPAVCInstanceBase@@@std@@@?$_Tree@V?$_Tmap_traits@MPAVCInstanceBase@@U?$less@M@std@@V?$allocator@U?$pair@$$CBMPAVCInstanceBase@@@std@@@3@$00@std@@@std@@QAE?AU?$pair@V?$_Tree_iterator@V?$_Tree_val@U?$_Tree_simple_types@U?$pair@$$CBMPAVCInstanceBase@@@std@@@std@@@std@@@std@@_N@1@$$QAU?$pair@MPAVCInstanceBase@@@1@@Z ; std::_Tree<std::_Tmap_traits<float,CInstanceBase *,std::less<float>,std::allocator<std::pair<float const ,CInstanceBase *> >,1> >::emplace<std::pair<float,CInstanceBase *> >
PUBLIC	??$?0PAU?$_Tree_node@U?$pair@$$CBMPAVCInstanceBase@@@std@@PAX@std@@_N$0A@@?$pair@PAU?$_Tree_node@U?$pair@$$CBMPAVCInstanceBase@@@std@@PAX@std@@_N@std@@QAE@$$QAPAU?$_Tree_node@U?$pair@$$CBMPAVCInstanceBase@@@std@@PAX@1@$$QA_N@Z ; std::pair<std::_Tree_node<std::pair<float const ,CInstanceBase *>,void *> *,bool>::pair<std::_Tree_node<std::pair<float const ,CInstanceBase *>,void *> *,bool><std::_Tree_node<std::pair<float const ,CInstanceBase *>,void *> *,bool,0>
PUBLIC	??$_Find_upper_bound@M@?$_Tree@V?$_Tmap_traits@MPAVCInstanceBase@@U?$less@M@std@@V?$allocator@U?$pair@$$CBMPAVCInstanceBase@@@std@@@3@$00@std@@@std@@IBE?AU?$_Tree_find_result@PAU?$_Tree_node@U?$pair@$$CBMPAVCInstanceBase@@@std@@PAX@std@@@1@ABM@Z ; std::_Tree<std::_Tmap_traits<float,CInstanceBase *,std::less<float>,std::allocator<std::pair<float const ,CInstanceBase *> >,1> >::_Find_upper_bound<float>
PUBLIC	??$_Kfn@$$CBMPAVCInstanceBase@@@?$_Tmap_traits@MPAVCInstanceBase@@U?$less@M@std@@V?$allocator@U?$pair@$$CBMPAVCInstanceBase@@@std@@@3@$00@std@@SAABMABU?$pair@$$CBMPAVCInstanceBase@@@1@@Z ; std::_Tmap_traits<float,CInstanceBase *,std::less<float>,std::allocator<std::pair<float const ,CInstanceBase *> >,1>::_Kfn<float const ,CInstanceBase *>
PUBLIC	??$?0U?$pair@$$CBMPAVCInstanceBase@@@std@@@?$_Tree_temp_node@V?$allocator@U?$_Tree_node@U?$pair@$$CBMPAVCInstanceBase@@@std@@PAX@std@@@std@@@std@@QAE@AAV?$allocator@U?$_Tree_node@U?$pair@$$CBMPAVCInstanceBase@@@std@@PAX@std@@@1@PAU?$_Tree_node@U?$pair@$$CBMPAVCInstanceBase@@@std@@PAX@1@$$QAU?$pair@$$CBMPAVCInstanceBase@@@1@@Z ; std::_Tree_temp_node<std::allocator<std::_Tree_node<std::pair<float const ,CInstanceBase *>,void *> > >::_Tree_temp_node<std::allocator<std::_Tree_node<std::pair<float const ,CInstanceBase *>,void *> > ><std::pair<float const ,CInstanceBase *> >
PUBLIC	??$forward@U?$pair@$$CBMPAVCInstanceBase@@@std@@@std@@YA$$QAU?$pair@$$CBMPAVCInstanceBase@@@0@AAU10@@Z ; std::forward<std::pair<float const ,CInstanceBase *> >
PUBLIC	??$forward@AB_N@std@@YAAB_NAB_N@Z		; std::forward<bool const &>
PUBLIC	?_Get_scary@?$_Tree@V?$_Tmap_traits@KPAVCInstanceBase@@U?$less@K@std@@V?$allocator@U?$pair@$$CBKPAVCInstanceBase@@@std@@@3@$0A@@std@@@std@@IAEPAV?$_Tree_val@U?$_Tree_simple_types@U?$pair@$$CBKPAVCInstanceBase@@@std@@@std@@@2@XZ ; std::_Tree<std::_Tmap_traits<unsigned long,CInstanceBase *,std::less<unsigned long>,std::allocator<std::pair<unsigned long const ,CInstanceBase *> >,0> >::_Get_scary
PUBLIC	??E?$_Tree_const_iterator@V?$_Tree_val@U?$_Tree_simple_types@U?$pair@$$CBKPAVCInstanceBase@@@std@@@std@@@std@@@std@@QAEAAV01@XZ ; std::_Tree_const_iterator<std::_Tree_val<std::_Tree_simple_types<std::pair<unsigned long const ,CInstanceBase *> > > >::operator++
PUBLIC	??D?$_Tree_iterator@V?$_Tree_val@U?$_Tree_simple_types@U?$pair@$$CBKPAVCInstanceBase@@@std@@@std@@@std@@@std@@QBEAAU?$pair@$$CBKPAVCInstanceBase@@@1@XZ ; std::_Tree_iterator<std::_Tree_val<std::_Tree_simple_types<std::pair<unsigned long const ,CInstanceBase *> > > >::operator*
PUBLIC	??0?$_Tree_unchecked_const_iterator@V?$_Tree_val@U?$_Tree_simple_types@U?$pair@$$CBKPAVCInstanceBase@@@std@@@std@@@std@@U_Iterator_base0@2@@std@@QAE@PAU?$_Tree_node@U?$pair@$$CBKPAVCInstanceBase@@@std@@PAX@1@PBV?$_Tree_val@U?$_Tree_simple_types@U?$pair@$$CBKPAVCInstanceBase@@@std@@@std@@@1@@Z ; std::_Tree_unchecked_const_iterator<std::_Tree_val<std::_Tree_simple_types<std::pair<unsigned long const ,CInstanceBase *> > >,std::_Iterator_base0>::_Tree_unchecked_const_iterator<std::_Tree_val<std::_Tree_simple_types<std::pair<unsigned long const ,CInstanceBase *> > >,std::_Iterator_base0>
PUBLIC	??0?$_Tree@V?$_Tmap_traits@MPAVCInstanceBase@@U?$less@M@std@@V?$allocator@U?$pair@$$CBMPAVCInstanceBase@@@std@@@3@$00@std@@@std@@QAE@ABU?$less@M@1@@Z ; std::_Tree<std::_Tmap_traits<float,CInstanceBase *,std::less<float>,std::allocator<std::pair<float const ,CInstanceBase *> >,1> >::_Tree<std::_Tmap_traits<float,CInstanceBase *,std::less<float>,std::allocator<std::pair<float const ,CInstanceBase *> >,1> >
PUBLIC	?_Getal@?$_Tree@V?$_Tmap_traits@MPAVCInstanceBase@@U?$less@M@std@@V?$allocator@U?$pair@$$CBMPAVCInstanceBase@@@std@@@3@$00@std@@@std@@IAEAAV?$allocator@U?$_Tree_node@U?$pair@$$CBMPAVCInstanceBase@@@std@@PAX@std@@@2@XZ ; std::_Tree<std::_Tmap_traits<float,CInstanceBase *,std::less<float>,std::allocator<std::pair<float const ,CInstanceBase *> >,1> >::_Getal
PUBLIC	?_Get_scary@?$_Tree@V?$_Tmap_traits@MPAVCInstanceBase@@U?$less@M@std@@V?$allocator@U?$pair@$$CBMPAVCInstanceBase@@@std@@@3@$00@std@@@std@@IAEPAV?$_Tree_val@U?$_Tree_simple_types@U?$pair@$$CBMPAVCInstanceBase@@@std@@@std@@@2@XZ ; std::_Tree<std::_Tmap_traits<float,CInstanceBase *,std::less<float>,std::allocator<std::pair<float const ,CInstanceBase *> >,1> >::_Get_scary
PUBLIC	?_Get_scary@?$_Tree@V?$_Tmap_traits@MPAVCInstanceBase@@U?$less@M@std@@V?$allocator@U?$pair@$$CBMPAVCInstanceBase@@@std@@@3@$00@std@@@std@@IBEPBV?$_Tree_val@U?$_Tree_simple_types@U?$pair@$$CBMPAVCInstanceBase@@@std@@@std@@@2@XZ ; std::_Tree<std::_Tmap_traits<float,CInstanceBase *,std::less<float>,std::allocator<std::pair<float const ,CInstanceBase *> >,1> >::_Get_scary
PUBLIC	??E?$_Tree_const_iterator@V?$_Tree_val@U?$_Tree_simple_types@U?$pair@$$CBMPAVCInstanceBase@@@std@@@std@@@std@@@std@@QAEAAV01@XZ ; std::_Tree_const_iterator<std::_Tree_val<std::_Tree_simple_types<std::pair<float const ,CInstanceBase *> > > >::operator++
PUBLIC	??D?$_Tree_iterator@V?$_Tree_val@U?$_Tree_simple_types@U?$pair@$$CBMPAVCInstanceBase@@@std@@@std@@@std@@@std@@QBEAAU?$pair@$$CBMPAVCInstanceBase@@@1@XZ ; std::_Tree_iterator<std::_Tree_val<std::_Tree_simple_types<std::pair<float const ,CInstanceBase *> > > >::operator*
PUBLIC	??0?$_Tree_unchecked_const_iterator@V?$_Tree_val@U?$_Tree_simple_types@U?$pair@$$CBMPAVCInstanceBase@@@std@@@std@@@std@@U_Iterator_base0@2@@std@@QAE@PAU?$_Tree_node@U?$pair@$$CBMPAVCInstanceBase@@@std@@PAX@1@PBV?$_Tree_val@U?$_Tree_simple_types@U?$pair@$$CBMPAVCInstanceBase@@@std@@@std@@@1@@Z ; std::_Tree_unchecked_const_iterator<std::_Tree_val<std::_Tree_simple_types<std::pair<float const ,CInstanceBase *> > >,std::_Iterator_base0>::_Tree_unchecked_const_iterator<std::_Tree_val<std::_Tree_simple_types<std::pair<float const ,CInstanceBase *> > >,std::_Iterator_base0>
PUBLIC	?pointer_to@?$pointer_traits@PAU?$pair@$$CBMPAVCInstanceBase@@@std@@@std@@SAPAU?$pair@$$CBMPAVCInstanceBase@@@2@AAU32@@Z ; std::pointer_traits<std::pair<float const ,CInstanceBase *> *>::pointer_to
PUBLIC	?pointer_to@?$pointer_traits@PAU?$pair@$$CBKPAVCInstanceBase@@@std@@@std@@SAPAU?$pair@$$CBKPAVCInstanceBase@@@2@AAU32@@Z ; std::pointer_traits<std::pair<unsigned long const ,CInstanceBase *> *>::pointer_to
PUBLIC	??$_Erase_head@V?$allocator@U?$_Tree_node@U?$pair@$$CBMPAVCInstanceBase@@@std@@PAX@std@@@std@@@?$_Tree_val@U?$_Tree_simple_types@U?$pair@$$CBMPAVCInstanceBase@@@std@@@std@@@std@@QAEXAAV?$allocator@U?$_Tree_node@U?$pair@$$CBMPAVCInstanceBase@@@std@@PAX@std@@@1@@Z ; std::_Tree_val<std::_Tree_simple_types<std::pair<float const ,CInstanceBase *> > >::_Erase_head<std::allocator<std::_Tree_node<std::pair<float const ,CInstanceBase *>,void *> > >
PUBLIC	??$emplace@U?$pair@MPAVCInstanceBase@@@std@@@?$multimap@MPAVCInstanceBase@@U?$less@M@std@@V?$allocator@U?$pair@$$CBMPAVCInstanceBase@@@std@@@3@@std@@QAE?AV?$_Tree_iterator@V?$_Tree_val@U?$_Tree_simple_types@U?$pair@$$CBMPAVCInstanceBase@@@std@@@std@@@std@@@1@$$QAU?$pair@MPAVCInstanceBase@@@1@@Z ; std::multimap<float,CInstanceBase *,std::less<float>,std::allocator<std::pair<float const ,CInstanceBase *> > >::emplace<std::pair<float,CInstanceBase *> >
PUBLIC	??$forward@U?$pair@MPAVCInstanceBase@@@std@@@std@@YA$$QAU?$pair@MPAVCInstanceBase@@@0@AAU10@@Z ; std::forward<std::pair<float,CInstanceBase *> >
PUBLIC	??$?0AAMAAPAVCInstanceBase@@$0A@@?$pair@MPAVCInstanceBase@@@std@@QAE@AAMAAPAVCInstanceBase@@@Z ; std::pair<float,CInstanceBase *>::pair<float,CInstanceBase *><float &,CInstanceBase * &,0>
PUBLIC	??$_Emplace@U?$pair@$$CBMPAVCInstanceBase@@@std@@@?$_Tree@V?$_Tmap_traits@MPAVCInstanceBase@@U?$less@M@std@@V?$allocator@U?$pair@$$CBMPAVCInstanceBase@@@std@@@3@$00@std@@@std@@IAE?AU?$pair@PAU?$_Tree_node@U?$pair@$$CBMPAVCInstanceBase@@@std@@PAX@std@@_N@1@$$QAU?$pair@$$CBMPAVCInstanceBase@@@1@@Z ; std::_Tree<std::_Tmap_traits<float,CInstanceBase *,std::less<float>,std::allocator<std::pair<float const ,CInstanceBase *> >,1> >::_Emplace<std::pair<float const ,CInstanceBase *> >
PUBLIC	??$move@AAU?$pair@$$CBMPAVCInstanceBase@@@std@@@std@@YA$$QAU?$pair@$$CBMPAVCInstanceBase@@@0@AAU10@@Z ; std::move<std::pair<float const ,CInstanceBase *> &>
PUBLIC	??$forward@AAPAVCInstanceBase@@@std@@YAAAPAVCInstanceBase@@AAPAV1@@Z ; std::forward<CInstanceBase * &>
PUBLIC	??$forward@AAM@std@@YAAAMAAM@Z			; std::forward<float &>
PUBLIC	??0?$_Tree_const_iterator@V?$_Tree_val@U?$_Tree_simple_types@U?$pair@$$CBKPAVCInstanceBase@@@std@@@std@@@std@@@std@@QAE@PAU?$_Tree_node@U?$pair@$$CBKPAVCInstanceBase@@@std@@PAX@1@PBV?$_Tree_val@U?$_Tree_simple_types@U?$pair@$$CBKPAVCInstanceBase@@@std@@@std@@@1@@Z ; std::_Tree_const_iterator<std::_Tree_val<std::_Tree_simple_types<std::pair<unsigned long const ,CInstanceBase *> > > >::_Tree_const_iterator<std::_Tree_val<std::_Tree_simple_types<std::pair<unsigned long const ,CInstanceBase *> > > >
PUBLIC	??0?$_Tree_const_iterator@V?$_Tree_val@U?$_Tree_simple_types@U?$pair@$$CBMPAVCInstanceBase@@@std@@@std@@@std@@@std@@QAE@PAU?$_Tree_node@U?$pair@$$CBMPAVCInstanceBase@@@std@@PAX@1@PBV?$_Tree_val@U?$_Tree_simple_types@U?$pair@$$CBMPAVCInstanceBase@@@std@@@std@@@1@@Z ; std::_Tree_const_iterator<std::_Tree_val<std::_Tree_simple_types<std::pair<float const ,CInstanceBase *> > > >::_Tree_const_iterator<std::_Tree_val<std::_Tree_simple_types<std::pair<float const ,CInstanceBase *> > > >
PUBLIC	??0?$_Tree_iterator@V?$_Tree_val@U?$_Tree_simple_types@U?$pair@$$CBKPAVCInstanceBase@@@std@@@std@@@std@@@std@@QAE@PAU?$_Tree_node@U?$pair@$$CBKPAVCInstanceBase@@@std@@PAX@1@PBV?$_Tree_val@U?$_Tree_simple_types@U?$pair@$$CBKPAVCInstanceBase@@@std@@@std@@@1@@Z ; std::_Tree_iterator<std::_Tree_val<std::_Tree_simple_types<std::pair<unsigned long const ,CInstanceBase *> > > >::_Tree_iterator<std::_Tree_val<std::_Tree_simple_types<std::pair<unsigned long const ,CInstanceBase *> > > >
PUBLIC	??0?$_Tree_iterator@V?$_Tree_val@U?$_Tree_simple_types@U?$pair@$$CBMPAVCInstanceBase@@@std@@@std@@@std@@@std@@QAE@PAU?$_Tree_node@U?$pair@$$CBMPAVCInstanceBase@@@std@@PAX@1@PBV?$_Tree_val@U?$_Tree_simple_types@U?$pair@$$CBMPAVCInstanceBase@@@std@@@std@@@1@@Z ; std::_Tree_iterator<std::_Tree_val<std::_Tree_simple_types<std::pair<float const ,CInstanceBase *> > > >::_Tree_iterator<std::_Tree_val<std::_Tree_simple_types<std::pair<float const ,CInstanceBase *> > > >
PUBLIC	?begin@?$_Tree@V?$_Tmap_traits@KPAVCInstanceBase@@U?$less@K@std@@V?$allocator@U?$pair@$$CBKPAVCInstanceBase@@@std@@@3@$0A@@std@@@std@@QAE?AV?$_Tree_iterator@V?$_Tree_val@U?$_Tree_simple_types@U?$pair@$$CBKPAVCInstanceBase@@@std@@@std@@@std@@@2@XZ ; std::_Tree<std::_Tmap_traits<unsigned long,CInstanceBase *,std::less<unsigned long>,std::allocator<std::pair<unsigned long const ,CInstanceBase *> >,0> >::begin
PUBLIC	?end@?$_Tree@V?$_Tmap_traits@KPAVCInstanceBase@@U?$less@K@std@@V?$allocator@U?$pair@$$CBKPAVCInstanceBase@@@std@@@3@$0A@@std@@@std@@QAE?AV?$_Tree_iterator@V?$_Tree_val@U?$_Tree_simple_types@U?$pair@$$CBKPAVCInstanceBase@@@std@@@std@@@std@@@2@XZ ; std::_Tree<std::_Tmap_traits<unsigned long,CInstanceBase *,std::less<unsigned long>,std::allocator<std::pair<unsigned long const ,CInstanceBase *> >,0> >::end
PUBLIC	??8?$_Tree_const_iterator@V?$_Tree_val@U?$_Tree_simple_types@U?$pair@$$CBKPAVCInstanceBase@@@std@@@std@@@std@@@std@@QBE_NABV01@@Z ; std::_Tree_const_iterator<std::_Tree_val<std::_Tree_simple_types<std::pair<unsigned long const ,CInstanceBase *> > > >::operator==
PUBLIC	??C?$_Tree_iterator@V?$_Tree_val@U?$_Tree_simple_types@U?$pair@$$CBKPAVCInstanceBase@@@std@@@std@@@std@@@std@@QBEPAU?$pair@$$CBKPAVCInstanceBase@@@1@XZ ; std::_Tree_iterator<std::_Tree_val<std::_Tree_simple_types<std::pair<unsigned long const ,CInstanceBase *> > > >::operator->
PUBLIC	??E?$_Tree_iterator@V?$_Tree_val@U?$_Tree_simple_types@U?$pair@$$CBKPAVCInstanceBase@@@std@@@std@@@std@@@std@@QAEAAV01@XZ ; std::_Tree_iterator<std::_Tree_val<std::_Tree_simple_types<std::pair<unsigned long const ,CInstanceBase *> > > >::operator++
PUBLIC	??0?$_Tree_unchecked_const_iterator@V?$_Tree_val@U?$_Tree_simple_types@U?$pair@$$CBKPAVCInstanceBase@@@std@@@std@@@std@@U_Iterator_base0@2@@std@@QAE@XZ ; std::_Tree_unchecked_const_iterator<std::_Tree_val<std::_Tree_simple_types<std::pair<unsigned long const ,CInstanceBase *> > >,std::_Iterator_base0>::_Tree_unchecked_const_iterator<std::_Tree_val<std::_Tree_simple_types<std::pair<unsigned long const ,CInstanceBase *> > >,std::_Iterator_base0>
PUBLIC	??0?$multimap@MPAVCInstanceBase@@U?$less@M@std@@V?$allocator@U?$pair@$$CBMPAVCInstanceBase@@@std@@@3@@std@@QAE@XZ ; std::multimap<float,CInstanceBase *,std::less<float>,std::allocator<std::pair<float const ,CInstanceBase *> > >::multimap<float,CInstanceBase *,std::less<float>,std::allocator<std::pair<float const ,CInstanceBase *> > >
PUBLIC	??1?$_Tree@V?$_Tmap_traits@MPAVCInstanceBase@@U?$less@M@std@@V?$allocator@U?$pair@$$CBMPAVCInstanceBase@@@std@@@3@$00@std@@@std@@QAE@XZ ; std::_Tree<std::_Tmap_traits<float,CInstanceBase *,std::less<float>,std::allocator<std::pair<float const ,CInstanceBase *> >,1> >::~_Tree<std::_Tmap_traits<float,CInstanceBase *,std::less<float>,std::allocator<std::pair<float const ,CInstanceBase *> >,1> >
PUBLIC	?begin@?$_Tree@V?$_Tmap_traits@MPAVCInstanceBase@@U?$less@M@std@@V?$allocator@U?$pair@$$CBMPAVCInstanceBase@@@std@@@3@$00@std@@@std@@QAE?AV?$_Tree_iterator@V?$_Tree_val@U?$_Tree_simple_types@U?$pair@$$CBMPAVCInstanceBase@@@std@@@std@@@std@@@2@XZ ; std::_Tree<std::_Tmap_traits<float,CInstanceBase *,std::less<float>,std::allocator<std::pair<float const ,CInstanceBase *> >,1> >::begin
PUBLIC	?end@?$_Tree@V?$_Tmap_traits@MPAVCInstanceBase@@U?$less@M@std@@V?$allocator@U?$pair@$$CBMPAVCInstanceBase@@@std@@@3@$00@std@@@std@@QAE?AV?$_Tree_iterator@V?$_Tree_val@U?$_Tree_simple_types@U?$pair@$$CBMPAVCInstanceBase@@@std@@@std@@@std@@@2@XZ ; std::_Tree<std::_Tmap_traits<float,CInstanceBase *,std::less<float>,std::allocator<std::pair<float const ,CInstanceBase *> >,1> >::end
PUBLIC	?empty@?$_Tree@V?$_Tmap_traits@MPAVCInstanceBase@@U?$less@M@std@@V?$allocator@U?$pair@$$CBMPAVCInstanceBase@@@std@@@3@$00@std@@@std@@QBE_NXZ ; std::_Tree<std::_Tmap_traits<float,CInstanceBase *,std::less<float>,std::allocator<std::pair<float const ,CInstanceBase *> >,1> >::empty
PUBLIC	??8?$_Tree_const_iterator@V?$_Tree_val@U?$_Tree_simple_types@U?$pair@$$CBMPAVCInstanceBase@@@std@@@std@@@std@@@std@@QBE_NABV01@@Z ; std::_Tree_const_iterator<std::_Tree_val<std::_Tree_simple_types<std::pair<float const ,CInstanceBase *> > > >::operator==
PUBLIC	??C?$_Tree_iterator@V?$_Tree_val@U?$_Tree_simple_types@U?$pair@$$CBMPAVCInstanceBase@@@std@@@std@@@std@@@std@@QBEPAU?$pair@$$CBMPAVCInstanceBase@@@1@XZ ; std::_Tree_iterator<std::_Tree_val<std::_Tree_simple_types<std::pair<float const ,CInstanceBase *> > > >::operator->
PUBLIC	??E?$_Tree_iterator@V?$_Tree_val@U?$_Tree_simple_types@U?$pair@$$CBMPAVCInstanceBase@@@std@@@std@@@std@@@std@@QAEAAV01@XZ ; std::_Tree_iterator<std::_Tree_val<std::_Tree_simple_types<std::pair<float const ,CInstanceBase *> > > >::operator++
PUBLIC	??$insert@U?$pair@MPAVCInstanceBase@@@std@@$0A@@?$multimap@MPAVCInstanceBase@@U?$less@M@std@@V?$allocator@U?$pair@$$CBMPAVCInstanceBase@@@std@@@3@@std@@QAE?AV?$_Tree_iterator@V?$_Tree_val@U?$_Tree_simple_types@U?$pair@$$CBMPAVCInstanceBase@@@std@@@std@@@std@@@1@$$QAU?$pair@MPAVCInstanceBase@@@1@@Z ; std::multimap<float,CInstanceBase *,std::less<float>,std::allocator<std::pair<float const ,CInstanceBase *> > >::insert<std::pair<float,CInstanceBase *>,0>
PUBLIC	??$make_pair@AAMAAPAVCInstanceBase@@@std@@YA?AU?$pair@MPAVCInstanceBase@@@0@AAMAAPAVCInstanceBase@@@Z ; std::make_pair<float &,CInstanceBase * &>
PUBLIC	??$insert@$00$0A@@?$_Tree@V?$_Tmap_traits@MPAVCInstanceBase@@U?$less@M@std@@V?$allocator@U?$pair@$$CBMPAVCInstanceBase@@@std@@@3@$00@std@@@std@@QAE?AV?$_Tree_iterator@V?$_Tree_val@U?$_Tree_simple_types@U?$pair@$$CBMPAVCInstanceBase@@@std@@@std@@@std@@@1@$$QAU?$pair@$$CBMPAVCInstanceBase@@@1@@Z ; std::_Tree<std::_Tmap_traits<float,CInstanceBase *,std::less<float>,std::allocator<std::pair<float const ,CInstanceBase *> >,1> >::insert<1,0>
PUBLIC	??$?0AAMAAPAVCInstanceBase@@$0A@@?$pair@$$CBMPAVCInstanceBase@@@std@@QAE@AAMAAPAVCInstanceBase@@@Z ; std::pair<float const ,CInstanceBase *>::pair<float const ,CInstanceBase *><float &,CInstanceBase * &,0>
PUBLIC	?Show@CInstanceBase@@QAEXXZ			; CInstanceBase::Show
PUBLIC	?Hide@CInstanceBase@@QAEXXZ			; CInstanceBase::Hide
PUBLIC	?Die@CInstanceBase@@QAEXXZ			; CInstanceBase::Die
PUBLIC	?Stun@CInstanceBase@@QAEXXZ			; CInstanceBase::Stun
PUBLIC	?Revive@CInstanceBase@@QAEXXZ			; CInstanceBase::Revive
PUBLIC	?GetComboIndex@CInstanceBase@@QAEKXZ		; CInstanceBase::GetComboIndex
PUBLIC	?CanAttackHorseLevel@CInstanceBase@@QAEHXZ	; CInstanceBase::CanAttackHorseLevel
PUBLIC	?IsUsingMovingSkill@CInstanceBase@@QAEHXZ	; CInstanceBase::IsUsingMovingSkill
PUBLIC	?IsUsingSkill@CInstanceBase@@QAEHXZ		; CInstanceBase::IsUsingSkill
PUBLIC	?CheckAttacking@CInstanceBase@@QAEHAAV1@@Z	; CInstanceBase::CheckAttacking
PUBLIC	?CheckAdvancing@CInstanceBase@@QAEHXZ		; CInstanceBase::CheckAdvancing
PUBLIC	?InputComboAttack@CInstanceBase@@QAEXM@Z	; CInstanceBase::InputComboAttack
PUBLIC	?InputNormalAttack@CInstanceBase@@QAEXM@Z	; CInstanceBase::InputNormalAttack
PUBLIC	?NEW_AttackToDestInstanceDirection@CInstanceBase@@QAE_NAAV1@@Z ; CInstanceBase::NEW_AttackToDestInstanceDirection
PUBLIC	?NEW_AttackToDestInstanceDirection@CInstanceBase@@QAE_NAAV1@PAVIFlyEventHandler@@@Z ; CInstanceBase::NEW_AttackToDestInstanceDirection
PUBLIC	?NEW_AttackToDestPixelPositionDirection@CInstanceBase@@QAEXABUD3DXVECTOR3@@@Z ; CInstanceBase::NEW_AttackToDestPixelPositionDirection
PUBLIC	?NEW_Attack@CInstanceBase@@QAEXM@Z		; CInstanceBase::NEW_Attack
PUBLIC	?NEW_Attack@CInstanceBase@@QAEXXZ		; CInstanceBase::NEW_Attack
PUBLIC	?NEW_IsClickableDistanceDestInstance@CInstanceBase@@QAEHAAV1@@Z ; CInstanceBase::NEW_IsClickableDistanceDestInstance
PUBLIC	?NEW_IsClickableDistanceDestPixelPosition@CInstanceBase@@QAEHABUD3DXVECTOR3@@@Z ; CInstanceBase::NEW_IsClickableDistanceDestPixelPosition
PUBLIC	?NEW_GetInstanceVectorInCircleRange@CInstanceBase@@QAE_NMPAV?$vector@PAVCInstanceBase@@V?$allocator@PAVCInstanceBase@@@std@@@std@@@Z ; CInstanceBase::NEW_GetInstanceVectorInCircleRange
PUBLIC	?NEW_GetInstanceVectorInFanRange@CInstanceBase@@QAE_NMAAV1@PAV?$vector@PAVCInstanceBase@@V?$allocator@PAVCInstanceBase@@@std@@@std@@@Z ; CInstanceBase::NEW_GetInstanceVectorInFanRange
PUBLIC	??1?$multimap@MPAVCInstanceBase@@U?$less@M@std@@V?$allocator@U?$pair@$$CBMPAVCInstanceBase@@@std@@@3@@std@@QAE@XZ ; std::multimap<float,CInstanceBase *,std::less<float>,std::allocator<std::pair<float const ,CInstanceBase *> > >::~multimap<float,CInstanceBase *,std::less<float>,std::allocator<std::pair<float const ,CInstanceBase *> > >
PUBLIC	?NEW_GetFrontInstance@CInstanceBase@@QAE_NPAPAV1@M@Z ; CInstanceBase::NEW_GetFrontInstance
PUBLIC	?NEW_GetRandomPositionInFanRange@CInstanceBase@@QAEXAAV1@PAUD3DXVECTOR3@@@Z ; CInstanceBase::NEW_GetRandomPositionInFanRange
PUBLIC	?NEW_GetRotationFromDestInstance@CInstanceBase@@QAEMAAV1@@Z ; CInstanceBase::NEW_GetRotationFromDestInstance
PUBLIC	?NEW_GetRotationFromDestPixelPosition@CInstanceBase@@QAEMABUD3DXVECTOR3@@@Z ; CInstanceBase::NEW_GetRotationFromDestPixelPosition
PUBLIC	?NEW_GetRotationFromDirPixelPosition@CInstanceBase@@QAEMABUD3DXVECTOR3@@@Z ; CInstanceBase::NEW_GetRotationFromDirPixelPosition
PUBLIC	?NEW_GetRotation@CInstanceBase@@QAEMXZ		; CInstanceBase::NEW_GetRotation
PUBLIC	?NEW_GetDistanceFromDirPixelPosition@CInstanceBase@@QAEMABUD3DXVECTOR3@@@Z ; CInstanceBase::NEW_GetDistanceFromDirPixelPosition
PUBLIC	?AddFlyTargetInstance@CInstanceBase@@QAEXAAV1@@Z ; CInstanceBase::AddFlyTargetInstance
PUBLIC	?AddFlyTargetPosition@CInstanceBase@@QAEXABUD3DXVECTOR3@@@Z ; CInstanceBase::AddFlyTargetPosition
PUBLIC	?SetFlyTargetInstance@CInstanceBase@@QAEXAAV1@@Z ; CInstanceBase::SetFlyTargetInstance
PUBLIC	?ClearFlyTargetInstance@CInstanceBase@@QAEXXZ	; CInstanceBase::ClearFlyTargetInstance
PUBLIC	?IsFlyTargetObject@CInstanceBase@@QAE_NXZ	; CInstanceBase::IsFlyTargetObject
PUBLIC	?NEW_GetSignedDegreeFromDirPixelPosition@@YAMABUD3DXVECTOR3@@@Z ; NEW_GetSignedDegreeFromDirPixelPosition
PUBLIC	?NEW_UnsignedDegreeToSignedDegree@@YAMM@Z	; NEW_UnsignedDegreeToSignedDegree
PUBLIC	??0?$_Tree_const_iterator@V?$_Tree_val@U?$_Tree_simple_types@U?$pair@$$CBKPAVCInstanceBase@@@std@@@std@@@std@@@std@@QAE@XZ ; std::_Tree_const_iterator<std::_Tree_val<std::_Tree_simple_types<std::pair<unsigned long const ,CInstanceBase *> > > >::_Tree_const_iterator<std::_Tree_val<std::_Tree_simple_types<std::pair<unsigned long const ,CInstanceBase *> > > >
PUBLIC	??0?$_Tree_iterator@V?$_Tree_val@U?$_Tree_simple_types@U?$pair@$$CBKPAVCInstanceBase@@@std@@@std@@@std@@@std@@QAE@XZ ; std::_Tree_iterator<std::_Tree_val<std::_Tree_simple_types<std::pair<unsigned long const ,CInstanceBase *> > > >::_Tree_iterator<std::_Tree_val<std::_Tree_simple_types<std::pair<unsigned long const ,CInstanceBase *> > > >
PUBLIC	??9CharacterIterator@CPythonCharacterManager@@QBE_NABV01@@Z ; CPythonCharacterManager::CharacterIterator::operator!=
PUBLIC	??4CharacterIterator@CPythonCharacterManager@@QAEAAV01@ABV01@@Z ; CPythonCharacterManager::CharacterIterator::operator=
PUBLIC	??ECharacterIterator@CPythonCharacterManager@@QAEAAV01@XZ ; CPythonCharacterManager::CharacterIterator::operator++
PUBLIC	??DCharacterIterator@CPythonCharacterManager@@QAEPAVCInstanceBase@@XZ ; CPythonCharacterManager::CharacterIterator::operator*
PUBLIC	??0CharacterIterator@CPythonCharacterManager@@QAE@ABV?$_Tree_iterator@V?$_Tree_val@U?$_Tree_simple_types@U?$pair@$$CBKPAVCInstanceBase@@@std@@@std@@@std@@@std@@@Z ; CPythonCharacterManager::CharacterIterator::CharacterIterator
PUBLIC	??0CharacterIterator@CPythonCharacterManager@@QAE@XZ ; CPythonCharacterManager::CharacterIterator::CharacterIterator
PUBLIC	?CharacterInstanceEnd@CPythonCharacterManager@@QAE?AVCharacterIterator@1@XZ ; CPythonCharacterManager::CharacterInstanceEnd
PUBLIC	?CharacterInstanceBegin@CPythonCharacterManager@@QAE?AVCharacterIterator@1@XZ ; CPythonCharacterManager::CharacterInstanceBegin
PUBLIC	?NEW_GetDistanceFromDestInstance@CInstanceBase@@QAEMAAV1@@Z ; CInstanceBase::NEW_GetDistanceFromDestInstance
PUBLIC	?IsAffect@CInstanceBase@@QAE_NI@Z		; CInstanceBase::IsAffect
PUBLIC	?RunComboAttack@CInstanceBase@@QAEXMK@Z		; CInstanceBase::RunComboAttack
PUBLIC	?RunNormalAttack@CInstanceBase@@QAEXM@Z		; CInstanceBase::RunNormalAttack
PUBLIC	?NEW_UseSkill@CInstanceBase@@QAE_NIII_N@Z	; CInstanceBase::NEW_UseSkill
PUBLIC	?NEW_GetDistanceFromDestPixelPosition@CInstanceBase@@QAEMABUD3DXVECTOR3@@@Z ; CInstanceBase::NEW_GetDistanceFromDestPixelPosition
PUBLIC	?AttackProcess@CInstanceBase@@IAEXXZ		; CInstanceBase::AttackProcess
;	COMDAT xdata$x
xdata$x	SEGMENT
__ehfuncinfo$?SetFlyTargetInstance@CInstanceBase@@QAEXAAV1@@Z DD 019930522H
	DD	01H
	DD	FLAT:__unwindtable$?SetFlyTargetInstance@CInstanceBase@@QAEXAAV1@@Z
	DD	2 DUP(00H)
	DD	2 DUP(00H)
	DD	00H
	DD	01H
__unwindtable$?SetFlyTargetInstance@CInstanceBase@@QAEXAAV1@@Z DD 0ffffffffH
	DD	FLAT:__unwindfunclet$?SetFlyTargetInstance@CInstanceBase@@QAEXAAV1@@Z$0
xdata$x	ENDS
;	COMDAT xdata$x
xdata$x	SEGMENT
__ehfuncinfo$?AddFlyTargetPosition@CInstanceBase@@QAEXABUD3DXVECTOR3@@@Z DD 019930522H
	DD	01H
	DD	FLAT:__unwindtable$?AddFlyTargetPosition@CInstanceBase@@QAEXABUD3DXVECTOR3@@@Z
	DD	2 DUP(00H)
	DD	2 DUP(00H)
	DD	00H
	DD	01H
__unwindtable$?AddFlyTargetPosition@CInstanceBase@@QAEXABUD3DXVECTOR3@@@Z DD 0ffffffffH
	DD	FLAT:__unwindfunclet$?AddFlyTargetPosition@CInstanceBase@@QAEXABUD3DXVECTOR3@@@Z$0
xdata$x	ENDS
;	COMDAT xdata$x
xdata$x	SEGMENT
__ehfuncinfo$?AddFlyTargetInstance@CInstanceBase@@QAEXAAV1@@Z DD 019930522H
	DD	01H
	DD	FLAT:__unwindtable$?AddFlyTargetInstance@CInstanceBase@@QAEXAAV1@@Z
	DD	2 DUP(00H)
	DD	2 DUP(00H)
	DD	00H
	DD	01H
__unwindtable$?AddFlyTargetInstance@CInstanceBase@@QAEXAAV1@@Z DD 0ffffffffH
	DD	FLAT:__unwindfunclet$?AddFlyTargetInstance@CInstanceBase@@QAEXAAV1@@Z$0
xdata$x	ENDS
;	COMDAT xdata$x
xdata$x	SEGMENT
__ehfuncinfo$?NEW_GetFrontInstance@CInstanceBase@@QAE_NPAPAV1@M@Z DD 019930522H
	DD	01H
	DD	FLAT:__unwindtable$?NEW_GetFrontInstance@CInstanceBase@@QAE_NPAPAV1@M@Z
	DD	2 DUP(00H)
	DD	2 DUP(00H)
	DD	00H
	DD	01H
__unwindtable$?NEW_GetFrontInstance@CInstanceBase@@QAE_NPAPAV1@M@Z DD 0ffffffffH
	DD	FLAT:__unwindfunclet$?NEW_GetFrontInstance@CInstanceBase@@QAE_NPAPAV1@M@Z$0
xdata$x	ENDS
;	COMDAT xdata$x
xdata$x	SEGMENT
__ehfuncinfo$?NEW_GetInstanceVectorInFanRange@CInstanceBase@@QAE_NMAAV1@PAV?$vector@PAVCInstanceBase@@V?$allocator@PAVCInstanceBase@@@std@@@std@@@Z DD 019930522H
	DD	01H
	DD	FLAT:__unwindtable$?NEW_GetInstanceVectorInFanRange@CInstanceBase@@QAE_NMAAV1@PAV?$vector@PAVCInstanceBase@@V?$allocator@PAVCInstanceBase@@@std@@@std@@@Z
	DD	2 DUP(00H)
	DD	2 DUP(00H)
	DD	00H
	DD	01H
__unwindtable$?NEW_GetInstanceVectorInFanRange@CInstanceBase@@QAE_NMAAV1@PAV?$vector@PAVCInstanceBase@@V?$allocator@PAVCInstanceBase@@@std@@@std@@@Z DD 0ffffffffH
	DD	FLAT:__unwindfunclet$?NEW_GetInstanceVectorInFanRange@CInstanceBase@@QAE_NMAAV1@PAV?$vector@PAVCInstanceBase@@V?$allocator@PAVCInstanceBase@@@std@@@std@@@Z$0
xdata$x	ENDS
;	COMDAT xdata$x
xdata$x	SEGMENT
__ehfuncinfo$?NEW_GetInstanceVectorInCircleRange@CInstanceBase@@QAE_NMPAV?$vector@PAVCInstanceBase@@V?$allocator@PAVCInstanceBase@@@std@@@std@@@Z DD 019930522H
	DD	01H
	DD	FLAT:__unwindtable$?NEW_GetInstanceVectorInCircleRange@CInstanceBase@@QAE_NMPAV?$vector@PAVCInstanceBase@@V?$allocator@PAVCInstanceBase@@@std@@@std@@@Z
	DD	2 DUP(00H)
	DD	2 DUP(00H)
	DD	00H
	DD	01H
__unwindtable$?NEW_GetInstanceVectorInCircleRange@CInstanceBase@@QAE_NMPAV?$vector@PAVCInstanceBase@@V?$allocator@PAVCInstanceBase@@@std@@@std@@@Z DD 0ffffffffH
	DD	FLAT:__unwindfunclet$?NEW_GetInstanceVectorInCircleRange@CInstanceBase@@QAE_NMPAV?$vector@PAVCInstanceBase@@V?$allocator@PAVCInstanceBase@@@std@@@std@@@Z$0
xdata$x	ENDS
;	COMDAT xdata$x
xdata$x	SEGMENT
__ehfuncinfo$??$insert@$00$0A@@?$_Tree@V?$_Tmap_traits@MPAVCInstanceBase@@U?$less@M@std@@V?$allocator@U?$pair@$$CBMPAVCInstanceBase@@@std@@@3@$00@std@@@std@@QAE?AV?$_Tree_iterator@V?$_Tree_val@U?$_Tree_simple_types@U?$pair@$$CBMPAVCInstanceBase@@@std@@@std@@@std@@@1@$$QAU?$pair@$$CBMPAVCInstanceBase@@@1@@Z DD 019930522H
	DD	02H
	DD	FLAT:__unwindtable$??$insert@$00$0A@@?$_Tree@V?$_Tmap_traits@MPAVCInstanceBase@@U?$less@M@std@@V?$allocator@U?$pair@$$CBMPAVCInstanceBase@@@std@@@3@$00@std@@@std@@QAE?AV?$_Tree_iterator@V?$_Tree_val@U?$_Tree_simple_types@U?$pair@$$CBMPAVCInstanceBase@@@std@@@std@@@std@@@1@$$QAU?$pair@$$CBMPAVCInstanceBase@@@1@@Z
	DD	2 DUP(00H)
	DD	2 DUP(00H)
	DD	00H
	DD	01H
__unwindtable$??$insert@$00$0A@@?$_Tree@V?$_Tmap_traits@MPAVCInstanceBase@@U?$less@M@std@@V?$allocator@U?$pair@$$CBMPAVCInstanceBase@@@std@@@3@$00@std@@@std@@QAE?AV?$_Tree_iterator@V?$_Tree_val@U?$_Tree_simple_types@U?$pair@$$CBMPAVCInstanceBase@@@std@@@std@@@std@@@1@$$QAU?$pair@$$CBMPAVCInstanceBase@@@1@@Z DD 0ffffffffH
	DD	FLAT:__unwindfunclet$??$insert@$00$0A@@?$_Tree@V?$_Tmap_traits@MPAVCInstanceBase@@U?$less@M@std@@V?$allocator@U?$pair@$$CBMPAVCInstanceBase@@@std@@@3@$00@std@@@std@@QAE?AV?$_Tree_iterator@V?$_Tree_val@U?$_Tree_simple_types@U?$pair@$$CBMPAVCInstanceBase@@@std@@@std@@@std@@@1@$$QAU?$pair@$$CBMPAVCInstanceBase@@@1@@Z$2
	DD	0ffffffffH
	DD	FLAT:__unwindfunclet$??$insert@$00$0A@@?$_Tree@V?$_Tmap_traits@MPAVCInstanceBase@@U?$less@M@std@@V?$allocator@U?$pair@$$CBMPAVCInstanceBase@@@std@@@3@$00@std@@@std@@QAE?AV?$_Tree_iterator@V?$_Tree_val@U?$_Tree_simple_types@U?$pair@$$CBMPAVCInstanceBase@@@std@@@std@@@std@@@1@$$QAU?$pair@$$CBMPAVCInstanceBase@@@1@@Z$0
xdata$x	ENDS
;	COMDAT xdata$x
xdata$x	SEGMENT
__ehfuncinfo$??$_Emplace@U?$pair@$$CBMPAVCInstanceBase@@@std@@@?$_Tree@V?$_Tmap_traits@MPAVCInstanceBase@@U?$less@M@std@@V?$allocator@U?$pair@$$CBMPAVCInstanceBase@@@std@@@3@$00@std@@@std@@IAE?AU?$pair@PAU?$_Tree_node@U?$pair@$$CBMPAVCInstanceBase@@@std@@PAX@std@@_N@1@$$QAU?$pair@$$CBMPAVCInstanceBase@@@1@@Z DD 019930522H
	DD	02H
	DD	FLAT:__unwindtable$??$_Emplace@U?$pair@$$CBMPAVCInstanceBase@@@std@@@?$_Tree@V?$_Tmap_traits@MPAVCInstanceBase@@U?$less@M@std@@V?$allocator@U?$pair@$$CBMPAVCInstanceBase@@@std@@@3@$00@std@@@std@@IAE?AU?$pair@PAU?$_Tree_node@U?$pair@$$CBMPAVCInstanceBase@@@std@@PAX@std@@_N@1@$$QAU?$pair@$$CBMPAVCInstanceBase@@@1@@Z
	DD	2 DUP(00H)
	DD	2 DUP(00H)
	DD	00H
	DD	01H
__unwindtable$??$_Emplace@U?$pair@$$CBMPAVCInstanceBase@@@std@@@?$_Tree@V?$_Tmap_traits@MPAVCInstanceBase@@U?$less@M@std@@V?$allocator@U?$pair@$$CBMPAVCInstanceBase@@@std@@@3@$00@std@@@std@@IAE?AU?$pair@PAU?$_Tree_node@U?$pair@$$CBMPAVCInstanceBase@@@std@@PAX@std@@_N@1@$$QAU?$pair@$$CBMPAVCInstanceBase@@@1@@Z DD 0ffffffffH
	DD	FLAT:__unwindfunclet$??$_Emplace@U?$pair@$$CBMPAVCInstanceBase@@@std@@@?$_Tree@V?$_Tmap_traits@MPAVCInstanceBase@@U?$less@M@std@@V?$allocator@U?$pair@$$CBMPAVCInstanceBase@@@std@@@3@$00@std@@@std@@IAE?AU?$pair@PAU?$_Tree_node@U?$pair@$$CBMPAVCInstanceBase@@@std@@PAX@std@@_N@1@$$QAU?$pair@$$CBMPAVCInstanceBase@@@1@@Z$2
	DD	0ffffffffH
	DD	FLAT:__unwindfunclet$??$_Emplace@U?$pair@$$CBMPAVCInstanceBase@@@std@@@?$_Tree@V?$_Tmap_traits@MPAVCInstanceBase@@U?$less@M@std@@V?$allocator@U?$pair@$$CBMPAVCInstanceBase@@@std@@@3@$00@std@@@std@@IAE?AU?$pair@PAU?$_Tree_node@U?$pair@$$CBMPAVCInstanceBase@@@std@@PAX@std@@_N@1@$$QAU?$pair@$$CBMPAVCInstanceBase@@@1@@Z$0
xdata$x	ENDS
;	COMDAT xdata$x
xdata$x	SEGMENT
__ehfuncinfo$??$emplace@U?$pair@MPAVCInstanceBase@@@std@@@?$multimap@MPAVCInstanceBase@@U?$less@M@std@@V?$allocator@U?$pair@$$CBMPAVCInstanceBase@@@std@@@3@@std@@QAE?AV?$_Tree_iterator@V?$_Tree_val@U?$_Tree_simple_types@U?$pair@$$CBMPAVCInstanceBase@@@std@@@std@@@std@@@1@$$QAU?$pair@MPAVCInstanceBase@@@1@@Z DD 019930522H
	DD	02H
	DD	FLAT:__unwindtable$??$emplace@U?$pair@MPAVCInstanceBase@@@std@@@?$multimap@MPAVCInstanceBase@@U?$less@M@std@@V?$allocator@U?$pair@$$CBMPAVCInstanceBase@@@std@@@3@@std@@QAE?AV?$_Tree_iterator@V?$_Tree_val@U?$_Tree_simple_types@U?$pair@$$CBMPAVCInstanceBase@@@std@@@std@@@std@@@1@$$QAU?$pair@MPAVCInstanceBase@@@1@@Z
	DD	2 DUP(00H)
	DD	2 DUP(00H)
	DD	00H
	DD	01H
__unwindtable$??$emplace@U?$pair@MPAVCInstanceBase@@@std@@@?$multimap@MPAVCInstanceBase@@U?$less@M@std@@V?$allocator@U?$pair@$$CBMPAVCInstanceBase@@@std@@@3@@std@@QAE?AV?$_Tree_iterator@V?$_Tree_val@U?$_Tree_simple_types@U?$pair@$$CBMPAVCInstanceBase@@@std@@@std@@@std@@@1@$$QAU?$pair@MPAVCInstanceBase@@@1@@Z DD 0ffffffffH
	DD	FLAT:__unwindfunclet$??$emplace@U?$pair@MPAVCInstanceBase@@@std@@@?$multimap@MPAVCInstanceBase@@U?$less@M@std@@V?$allocator@U?$pair@$$CBMPAVCInstanceBase@@@std@@@3@@std@@QAE?AV?$_Tree_iterator@V?$_Tree_val@U?$_Tree_simple_types@U?$pair@$$CBMPAVCInstanceBase@@@std@@@std@@@std@@@1@$$QAU?$pair@MPAVCInstanceBase@@@1@@Z$2
	DD	0ffffffffH
	DD	FLAT:__unwindfunclet$??$emplace@U?$pair@MPAVCInstanceBase@@@std@@@?$multimap@MPAVCInstanceBase@@U?$less@M@std@@V?$allocator@U?$pair@$$CBMPAVCInstanceBase@@@std@@@3@@std@@QAE?AV?$_Tree_iterator@V?$_Tree_val@U?$_Tree_simple_types@U?$pair@$$CBMPAVCInstanceBase@@@std@@@std@@@std@@@1@$$QAU?$pair@MPAVCInstanceBase@@@1@@Z$0
xdata$x	ENDS
;	COMDAT xdata$x
xdata$x	SEGMENT
__ehfuncinfo$??$?0U?$pair@$$CBMPAVCInstanceBase@@@std@@@?$_Tree_temp_node@V?$allocator@U?$_Tree_node@U?$pair@$$CBMPAVCInstanceBase@@@std@@PAX@std@@@std@@@std@@QAE@AAV?$allocator@U?$_Tree_node@U?$pair@$$CBMPAVCInstanceBase@@@std@@PAX@std@@@1@PAU?$_Tree_node@U?$pair@$$CBMPAVCInstanceBase@@@std@@PAX@1@$$QAU?$pair@$$CBMPAVCInstanceBase@@@1@@Z DD 019930522H
	DD	01H
	DD	FLAT:__unwindtable$??$?0U?$pair@$$CBMPAVCInstanceBase@@@std@@@?$_Tree_temp_node@V?$allocator@U?$_Tree_node@U?$pair@$$CBMPAVCInstanceBase@@@std@@PAX@std@@@std@@@std@@QAE@AAV?$allocator@U?$_Tree_node@U?$pair@$$CBMPAVCInstanceBase@@@std@@PAX@std@@@1@PAU?$_Tree_node@U?$pair@$$CBMPAVCInstanceBase@@@std@@PAX@1@$$QAU?$pair@$$CBMPAVCInstanceBase@@@1@@Z
	DD	2 DUP(00H)
	DD	2 DUP(00H)
	DD	00H
	DD	01H
__unwindtable$??$?0U?$pair@$$CBMPAVCInstanceBase@@@std@@@?$_Tree_temp_node@V?$allocator@U?$_Tree_node@U?$pair@$$CBMPAVCInstanceBase@@@std@@PAX@std@@@std@@@std@@QAE@AAV?$allocator@U?$_Tree_node@U?$pair@$$CBMPAVCInstanceBase@@@std@@PAX@std@@@1@PAU?$_Tree_node@U?$pair@$$CBMPAVCInstanceBase@@@std@@PAX@1@$$QAU?$pair@$$CBMPAVCInstanceBase@@@1@@Z DD 0ffffffffH
	DD	FLAT:__unwindfunclet$??$?0U?$pair@$$CBMPAVCInstanceBase@@@std@@@?$_Tree_temp_node@V?$allocator@U?$_Tree_node@U?$pair@$$CBMPAVCInstanceBase@@@std@@PAX@std@@@std@@@std@@QAE@AAV?$allocator@U?$_Tree_node@U?$pair@$$CBMPAVCInstanceBase@@@std@@PAX@std@@@1@PAU?$_Tree_node@U?$pair@$$CBMPAVCInstanceBase@@@std@@PAX@1@$$QAU?$pair@$$CBMPAVCInstanceBase@@@1@@Z$1
xdata$x	ENDS
;	COMDAT xdata$x
xdata$x	SEGMENT
__ehfuncinfo$??$emplace@U?$pair@MPAVCInstanceBase@@@std@@@?$_Tree@V?$_Tmap_traits@MPAVCInstanceBase@@U?$less@M@std@@V?$allocator@U?$pair@$$CBMPAVCInstanceBase@@@std@@@3@$00@std@@@std@@QAE?AU?$pair@V?$_Tree_iterator@V?$_Tree_val@U?$_Tree_simple_types@U?$pair@$$CBMPAVCInstanceBase@@@std@@@std@@@std@@@std@@_N@1@$$QAU?$pair@MPAVCInstanceBase@@@1@@Z DD 019930522H
	DD	02H
	DD	FLAT:__unwindtable$??$emplace@U?$pair@MPAVCInstanceBase@@@std@@@?$_Tree@V?$_Tmap_traits@MPAVCInstanceBase@@U?$less@M@std@@V?$allocator@U?$pair@$$CBMPAVCInstanceBase@@@std@@@3@$00@std@@@std@@QAE?AU?$pair@V?$_Tree_iterator@V?$_Tree_val@U?$_Tree_simple_types@U?$pair@$$CBMPAVCInstanceBase@@@std@@@std@@@std@@@std@@_N@1@$$QAU?$pair@MPAVCInstanceBase@@@1@@Z
	DD	2 DUP(00H)
	DD	2 DUP(00H)
	DD	00H
	DD	01H
__unwindtable$??$emplace@U?$pair@MPAVCInstanceBase@@@std@@@?$_Tree@V?$_Tmap_traits@MPAVCInstanceBase@@U?$less@M@std@@V?$allocator@U?$pair@$$CBMPAVCInstanceBase@@@std@@@3@$00@std@@@std@@QAE?AU?$pair@V?$_Tree_iterator@V?$_Tree_val@U?$_Tree_simple_types@U?$pair@$$CBMPAVCInstanceBase@@@std@@@std@@@std@@@std@@_N@1@$$QAU?$pair@MPAVCInstanceBase@@@1@@Z DD 0ffffffffH
	DD	FLAT:__unwindfunclet$??$emplace@U?$pair@MPAVCInstanceBase@@@std@@@?$_Tree@V?$_Tmap_traits@MPAVCInstanceBase@@U?$less@M@std@@V?$allocator@U?$pair@$$CBMPAVCInstanceBase@@@std@@@3@$00@std@@@std@@QAE?AU?$pair@V?$_Tree_iterator@V?$_Tree_val@U?$_Tree_simple_types@U?$pair@$$CBMPAVCInstanceBase@@@std@@@std@@@std@@@std@@_N@1@$$QAU?$pair@MPAVCInstanceBase@@@1@@Z$2
	DD	0ffffffffH
	DD	FLAT:__unwindfunclet$??$emplace@U?$pair@MPAVCInstanceBase@@@std@@@?$_Tree@V?$_Tmap_traits@MPAVCInstanceBase@@U?$less@M@std@@V?$allocator@U?$pair@$$CBMPAVCInstanceBase@@@std@@@3@$00@std@@@std@@QAE?AU?$pair@V?$_Tree_iterator@V?$_Tree_val@U?$_Tree_simple_types@U?$pair@$$CBMPAVCInstanceBase@@@std@@@std@@@std@@@std@@_N@1@$$QAU?$pair@MPAVCInstanceBase@@@1@@Z$0
xdata$x	ENDS
;	COMDAT xdata$x
xdata$x	SEGMENT
__ehfuncinfo$??$_Emplace@U?$pair@MPAVCInstanceBase@@@std@@@?$_Tree@V?$_Tmap_traits@MPAVCInstanceBase@@U?$less@M@std@@V?$allocator@U?$pair@$$CBMPAVCInstanceBase@@@std@@@3@$00@std@@@std@@IAE?AU?$pair@PAU?$_Tree_node@U?$pair@$$CBMPAVCInstanceBase@@@std@@PAX@std@@_N@1@$$QAU?$pair@MPAVCInstanceBase@@@1@@Z DD 019930522H
	DD	02H
	DD	FLAT:__unwindtable$??$_Emplace@U?$pair@MPAVCInstanceBase@@@std@@@?$_Tree@V?$_Tmap_traits@MPAVCInstanceBase@@U?$less@M@std@@V?$allocator@U?$pair@$$CBMPAVCInstanceBase@@@std@@@3@$00@std@@@std@@IAE?AU?$pair@PAU?$_Tree_node@U?$pair@$$CBMPAVCInstanceBase@@@std@@PAX@std@@_N@1@$$QAU?$pair@MPAVCInstanceBase@@@1@@Z
	DD	2 DUP(00H)
	DD	2 DUP(00H)
	DD	00H
	DD	01H
__unwindtable$??$_Emplace@U?$pair@MPAVCInstanceBase@@@std@@@?$_Tree@V?$_Tmap_traits@MPAVCInstanceBase@@U?$less@M@std@@V?$allocator@U?$pair@$$CBMPAVCInstanceBase@@@std@@@3@$00@std@@@std@@IAE?AU?$pair@PAU?$_Tree_node@U?$pair@$$CBMPAVCInstanceBase@@@std@@PAX@std@@_N@1@$$QAU?$pair@MPAVCInstanceBase@@@1@@Z DD 0ffffffffH
	DD	FLAT:__unwindfunclet$??$_Emplace@U?$pair@MPAVCInstanceBase@@@std@@@?$_Tree@V?$_Tmap_traits@MPAVCInstanceBase@@U?$less@M@std@@V?$allocator@U?$pair@$$CBMPAVCInstanceBase@@@std@@@3@$00@std@@@std@@IAE?AU?$pair@PAU?$_Tree_node@U?$pair@$$CBMPAVCInstanceBase@@@std@@PAX@std@@_N@1@$$QAU?$pair@MPAVCInstanceBase@@@1@@Z$2
	DD	0ffffffffH
	DD	FLAT:__unwindfunclet$??$_Emplace@U?$pair@MPAVCInstanceBase@@@std@@@?$_Tree@V?$_Tmap_traits@MPAVCInstanceBase@@U?$less@M@std@@V?$allocator@U?$pair@$$CBMPAVCInstanceBase@@@std@@@3@$00@std@@@std@@IAE?AU?$pair@PAU?$_Tree_node@U?$pair@$$CBMPAVCInstanceBase@@@std@@PAX@std@@_N@1@$$QAU?$pair@MPAVCInstanceBase@@@1@@Z$0
xdata$x	ENDS
;	COMDAT xdata$x
xdata$x	SEGMENT
__ehfuncinfo$??0?$_Tree_temp_node_alloc@V?$allocator@U?$_Tree_node@U?$pair@$$CBMPAVCInstanceBase@@@std@@PAX@std@@@std@@@std@@QAE@AAV?$allocator@U?$_Tree_node@U?$pair@$$CBMPAVCInstanceBase@@@std@@PAX@std@@@1@@Z DD 019930522H
	DD	01H
	DD	FLAT:__unwindtable$??0?$_Tree_temp_node_alloc@V?$allocator@U?$_Tree_node@U?$pair@$$CBMPAVCInstanceBase@@@std@@PAX@std@@@std@@@std@@QAE@AAV?$allocator@U?$_Tree_node@U?$pair@$$CBMPAVCInstanceBase@@@std@@PAX@std@@@1@@Z
	DD	2 DUP(00H)
	DD	2 DUP(00H)
	DD	00H
	DD	01H
__unwindtable$??0?$_Tree_temp_node_alloc@V?$allocator@U?$_Tree_node@U?$pair@$$CBMPAVCInstanceBase@@@std@@PAX@std@@@std@@@std@@QAE@AAV?$allocator@U?$_Tree_node@U?$pair@$$CBMPAVCInstanceBase@@@std@@PAX@std@@@1@@Z DD 0ffffffffH
	DD	FLAT:__unwindfunclet$??0?$_Tree_temp_node_alloc@V?$allocator@U?$_Tree_node@U?$pair@$$CBMPAVCInstanceBase@@@std@@PAX@std@@@std@@@std@@QAE@AAV?$allocator@U?$_Tree_node@U?$pair@$$CBMPAVCInstanceBase@@@std@@PAX@std@@@1@@Z$0
xdata$x	ENDS
;	COMDAT xdata$x
xdata$x	SEGMENT
__ehfuncinfo$??$?0U?$pair@MPAVCInstanceBase@@@std@@@?$_Tree_temp_node@V?$allocator@U?$_Tree_node@U?$pair@$$CBMPAVCInstanceBase@@@std@@PAX@std@@@std@@@std@@QAE@AAV?$allocator@U?$_Tree_node@U?$pair@$$CBMPAVCInstanceBase@@@std@@PAX@std@@@1@PAU?$_Tree_node@U?$pair@$$CBMPAVCInstanceBase@@@std@@PAX@1@$$QAU?$pair@MPAVCInstanceBase@@@1@@Z DD 019930522H
	DD	01H
	DD	FLAT:__unwindtable$??$?0U?$pair@MPAVCInstanceBase@@@std@@@?$_Tree_temp_node@V?$allocator@U?$_Tree_node@U?$pair@$$CBMPAVCInstanceBase@@@std@@PAX@std@@@std@@@std@@QAE@AAV?$allocator@U?$_Tree_node@U?$pair@$$CBMPAVCInstanceBase@@@std@@PAX@std@@@1@PAU?$_Tree_node@U?$pair@$$CBMPAVCInstanceBase@@@std@@PAX@1@$$QAU?$pair@MPAVCInstanceBase@@@1@@Z
	DD	2 DUP(00H)
	DD	2 DUP(00H)
	DD	00H
	DD	01H
__unwindtable$??$?0U?$pair@MPAVCInstanceBase@@@std@@@?$_Tree_temp_node@V?$allocator@U?$_Tree_node@U?$pair@$$CBMPAVCInstanceBase@@@std@@PAX@std@@@std@@@std@@QAE@AAV?$allocator@U?$_Tree_node@U?$pair@$$CBMPAVCInstanceBase@@@std@@PAX@std@@@1@PAU?$_Tree_node@U?$pair@$$CBMPAVCInstanceBase@@@std@@PAX@1@$$QAU?$pair@MPAVCInstanceBase@@@1@@Z DD 0ffffffffH
	DD	FLAT:__unwindfunclet$??$?0U?$pair@MPAVCInstanceBase@@@std@@@?$_Tree_temp_node@V?$allocator@U?$_Tree_node@U?$pair@$$CBMPAVCInstanceBase@@@std@@PAX@std@@@std@@@std@@QAE@AAV?$allocator@U?$_Tree_node@U?$pair@$$CBMPAVCInstanceBase@@@std@@PAX@std@@@1@PAU?$_Tree_node@U?$pair@$$CBMPAVCInstanceBase@@@std@@PAX@1@$$QAU?$pair@MPAVCInstanceBase@@@1@@Z$1
; Function compile flags: /Ogtp
; File D:\_m2work\Server Client TMP4\ClientVS22\source\UserInterface\InstanceBaseBattle.cpp
; File C:\Program Files\Microsoft Visual Studio\2022\Community\VC\Tools\MSVC\14.44.35207\include\xtree
; File D:\_m2work\Server Client TMP4\ClientVS22\source\UserInterface\PythonCharacterManager.h
; File D:\_m2work\Server Client TMP4\ClientVS22\source\UserInterface\InstanceBaseBattle.cpp
; File C:\Program Files\Microsoft Visual Studio\2022\Community\VC\Tools\MSVC\14.44.35207\include\xtree
; File D:\_m2work\Server Client TMP4\ClientVS22\source\UserInterface\InstanceBaseBattle.cpp
; File D:\_m2work\Server Client TMP4\ClientVS22\source\UserInterface\PythonCharacterManager.h
; File D:\_m2work\Server Client TMP4\ClientVS22\source\UserInterface\InstanceBaseBattle.cpp
;	COMDAT ?AttackProcess@CInstanceBase@@IAEXXZ
_TEXT	SEGMENT
_rkChrMgr$1$ = -8					; size = 4
_i$ = -4						; size = 4
?AttackProcess@CInstanceBase@@IAEXXZ PROC		; CInstanceBase::AttackProcess, COMDAT
; _this$ = ecx

; 414  : {

  00000	55		 push	 ebp
  00001	8b ec		 mov	 ebp, esp
  00003	83 ec 08	 sub	 esp, 8
  00006	57		 push	 edi
  00007	8b f9		 mov	 edi, ecx

; 415  : 	if (!m_GraphicThingInstance.CanCheckAttacking())

  00009	8d 8f d4 01 00
	00		 lea	 ecx, DWORD PTR [edi+468]
  0000f	e8 00 00 00 00	 call	 ?CanCheckAttacking@CActorInstance@@QAEHXZ ; CActorInstance::CanCheckAttacking
  00014	85 c0		 test	 eax, eax
  00016	74 5e		 je	 SHORT $LN8@AttackProc

; 416  : 		return;
; 417  :    
; 418  : 	CInstanceBase * pkInstLast = NULL;
; 419  : 	CPythonCharacterManager& rkChrMgr = CPythonCharacterManager::Instance();

  00018	a1 00 00 00 00	 mov	 eax, DWORD PTR ?ms_singleton@?$CSingleton@VCPythonCharacterManager@@@@0PAVCPythonCharacterManager@@A ; CSingleton<CPythonCharacterManager>::ms_singleton
  0001d	89 45 f8	 mov	 DWORD PTR _rkChrMgr$1$[ebp], eax
  00020	53		 push	 ebx
  00021	33 db		 xor	 ebx, ebx
; File C:\Program Files\Microsoft Visual Studio\2022\Community\VC\Tools\MSVC\14.44.35207\include\xtree

; 1142 :         return iterator(_Scary->_Myhead->_Left, _Scary);

  00023	8b 40 20	 mov	 eax, DWORD PTR [eax+32]

; 37   :     _Tree_unchecked_const_iterator(_Nodeptr _Pnode, const _Mytree* _Plist) noexcept : _Ptr(_Pnode) {

  00026	8b 08		 mov	 ecx, DWORD PTR [eax]
; File D:\_m2work\Server Client TMP4\ClientVS22\source\UserInterface\PythonCharacterManager.h

; 132  : 			CharacterIterator(const TCharacterInstanceMap::iterator & it) : m_it(it) {}

  00028	89 4d fc	 mov	 DWORD PTR _i$[ebp], ecx

; 162  : 				return m_it != rhs.m_it;

  0002b	3b c1		 cmp	 eax, ecx
; File D:\_m2work\Server Client TMP4\ClientVS22\source\UserInterface\InstanceBaseBattle.cpp

; 421  : 	while (rkChrMgr.CharacterInstanceEnd()!=i)

  0002d	74 46		 je	 SHORT $LN76@AttackProc
  0002f	56		 push	 esi
$LL2@AttackProc:

; 422  : 	{
; 423  : 		CInstanceBase* pkInstEach=*i;

  00030	8b 71 14	 mov	 esi, DWORD PTR [ecx+20]
; File C:\Program Files\Microsoft Visual Studio\2022\Community\VC\Tools\MSVC\14.44.35207\include\xtree

; 198  :         _Mybase::operator++();

  00033	8d 4d fc	 lea	 ecx, DWORD PTR _i$[ebp]
  00036	e8 00 00 00 00	 call	 ??E?$_Tree_unchecked_const_iterator@V?$_Tree_val@U?$_Tree_simple_types@U?$pair@$$CBKPAVCInstanceBase@@@std@@@std@@@std@@U_Iterator_base0@2@@std@@QAEAAV01@XZ ; std::_Tree_unchecked_const_iterator<std::_Tree_val<std::_Tree_simple_types<std::pair<unsigned long const ,CInstanceBase *> > >,std::_Iterator_base0>::operator++
; File D:\_m2work\Server Client TMP4\ClientVS22\source\UserInterface\InstanceBaseBattle.cpp

; 427  : 		if (!IsAttackableInstance(*pkInstEach))

  0003b	56		 push	 esi
  0003c	8b cf		 mov	 ecx, edi
  0003e	e8 00 00 00 00	 call	 ?IsAttackableInstance@CInstanceBase@@QAE_NAAV1@@Z ; CInstanceBase::IsAttackableInstance
  00043	84 c0		 test	 al, al
  00045	74 11		 je	 SHORT $LN7@AttackProc

; 428  : 			continue;
; 429  : 
; 430  : 		if (pkInstEach!=this)

  00047	3b f7		 cmp	 esi, edi
  00049	74 0d		 je	 SHORT $LN7@AttackProc

; 431  : 		{
; 432  : 			if (CheckAttacking(*pkInstEach))

  0004b	56		 push	 esi
  0004c	8b cf		 mov	 ecx, edi
  0004e	e8 00 00 00 00	 call	 ?CheckAttacking@CInstanceBase@@QAEHAAV1@@Z ; CInstanceBase::CheckAttacking
  00053	85 c0		 test	 eax, eax
  00055	0f 45 de	 cmovne	 ebx, esi
$LN7@AttackProc:
; File D:\_m2work\Server Client TMP4\ClientVS22\source\UserInterface\PythonCharacterManager.h

; 162  : 				return m_it != rhs.m_it;

  00058	8b 45 f8	 mov	 eax, DWORD PTR _rkChrMgr$1$[ebp]
  0005b	8b 4d fc	 mov	 ecx, DWORD PTR _i$[ebp]
  0005e	39 48 20	 cmp	 DWORD PTR [eax+32], ecx
; File D:\_m2work\Server Client TMP4\ClientVS22\source\UserInterface\InstanceBaseBattle.cpp

; 421  : 	while (rkChrMgr.CharacterInstanceEnd()!=i)

  00061	75 cd		 jne	 SHORT $LL2@AttackProc
  00063	5e		 pop	 esi

; 433  : 			{
; 434  : 				pkInstLast=pkInstEach;
; 435  : 			}
; 436  : 		}
; 437  : 	}
; 438  : 
; 439  : 	if (pkInstLast)

  00064	85 db		 test	 ebx, ebx
  00066	74 0d		 je	 SHORT $LN76@AttackProc

; 440  : 	{
; 441  : 		m_dwLastDmgActorVID=pkInstLast->GetVirtualID();

  00068	8b cb		 mov	 ecx, ebx
  0006a	e8 00 00 00 00	 call	 ?GetVirtualID@CInstanceBase@@QAEKXZ ; CInstanceBase::GetVirtualID
  0006f	89 87 7c 01 00
	00		 mov	 DWORD PTR [edi+380], eax
$LN76@AttackProc:
  00075	5b		 pop	 ebx
$LN8@AttackProc:
  00076	5f		 pop	 edi

; 442  : 	}
; 443  : }

  00077	8b e5		 mov	 esp, ebp
  00079	5d		 pop	 ebp
  0007a	c3		 ret	 0
?AttackProcess@CInstanceBase@@IAEXXZ ENDP		; CInstanceBase::AttackProcess
_TEXT	ENDS
; Function compile flags: /Ogtp
; File D:\_m2work\Server Client TMP4\ClientVS22\source\UserInterface\InstanceBaseBattle.cpp
; File D:\_m2work\Server Client TMP4\ClientVS22\extern\include\d3dx8math.inl
; File D:\_m2work\Server Client TMP4\ClientVS22\source\UserInterface\InstanceBaseBattle.cpp
; File D:\_m2work\Server Client TMP4\ClientVS22\extern\include\d3dx8math.inl
; File D:\_m2work\Server Client TMP4\ClientVS22\source\UserInterface\InstanceBaseBattle.cpp
; File D:\_m2work\Server Client TMP4\ClientVS22\extern\include\d3dx8math.inl
; File D:\_m2work\Server Client TMP4\ClientVS22\source\UserInterface\InstanceBaseBattle.cpp
; File D:\_m2work\Server Client TMP4\ClientVS22\extern\include\d3dx8math.inl
; File D:\_m2work\Server Client TMP4\ClientVS22\source\UserInterface\InstanceBaseBattle.cpp
;	COMDAT ?NEW_GetDistanceFromDestPixelPosition@CInstanceBase@@QAEMABUD3DXVECTOR3@@@Z
_TEXT	SEGMENT
_kPPosDir$ = -24					; size = 12
_kPPosCur$ = -12					; size = 12
_c_rkPPosDst$ = 8					; size = 4
?NEW_GetDistanceFromDestPixelPosition@CInstanceBase@@QAEMABUD3DXVECTOR3@@@Z PROC ; CInstanceBase::NEW_GetDistanceFromDestPixelPosition, COMDAT
; _this$ = ecx

; 79   : {

  00000	55		 push	 ebp
  00001	8b ec		 mov	 ebp, esp
  00003	83 ec 1c	 sub	 esp, 28			; 0000001cH

; 80   : 	TPixelPosition kPPosCur;
; 81   : 	NEW_GetPixelPosition(&kPPosCur);

  00006	8d 45 f4	 lea	 eax, DWORD PTR _kPPosCur$[ebp]
  00009	50		 push	 eax
  0000a	e8 00 00 00 00	 call	 ?NEW_GetPixelPosition@CInstanceBase@@QAEXPAUD3DXVECTOR3@@@Z ; CInstanceBase::NEW_GetPixelPosition
; File D:\_m2work\Server Client TMP4\ClientVS22\extern\include\d3dx8math.inl

; 263  :     return D3DXVECTOR3(x - v.x, y - v.y, z - v.z);

  0000f	8b 45 08	 mov	 eax, DWORD PTR _c_rkPPosDst$[ebp]
  00012	f3 0f 10 00	 movss	 xmm0, DWORD PTR [eax]
  00016	f3 0f 5c 45 f4	 subss	 xmm0, DWORD PTR _kPPosCur$[ebp]
; File D:\_m2work\Server Client TMP4\ClientVS22\source\UserInterface\InstanceBaseBattle.cpp

; 84   : 	kPPosDir=c_rkPPosDst-kPPosCur;

  0001b	f3 0f 11 45 e8	 movss	 DWORD PTR _kPPosDir$[ebp], xmm0
; File D:\_m2work\Server Client TMP4\ClientVS22\extern\include\d3dx8math.inl

; 263  :     return D3DXVECTOR3(x - v.x, y - v.y, z - v.z);

  00020	f3 0f 10 40 04	 movss	 xmm0, DWORD PTR [eax+4]
  00025	f3 0f 5c 45 f8	 subss	 xmm0, DWORD PTR _kPPosCur$[ebp+4]
; File D:\_m2work\Server Client TMP4\ClientVS22\source\UserInterface\InstanceBaseBattle.cpp

; 84   : 	kPPosDir=c_rkPPosDst-kPPosCur;

  0002a	f3 0f 11 45 ec	 movss	 DWORD PTR _kPPosDir$[ebp+4], xmm0
; File D:\_m2work\Server Client TMP4\ClientVS22\extern\include\d3dx8math.inl

; 263  :     return D3DXVECTOR3(x - v.x, y - v.y, z - v.z);

  0002f	f3 0f 10 40 08	 movss	 xmm0, DWORD PTR [eax+8]
; File D:\_m2work\Server Client TMP4\ClientVS22\source\UserInterface\InstanceBaseBattle.cpp

; 86   : 	return NEW_GetDistanceFromDirPixelPosition(kPPosDir);

  00034	8d 45 e8	 lea	 eax, DWORD PTR _kPPosDir$[ebp]
; File D:\_m2work\Server Client TMP4\ClientVS22\extern\include\d3dx8math.inl

; 263  :     return D3DXVECTOR3(x - v.x, y - v.y, z - v.z);

  00037	f3 0f 5c 45 fc	 subss	 xmm0, DWORD PTR _kPPosCur$[ebp+8]
; File D:\_m2work\Server Client TMP4\ClientVS22\source\UserInterface\InstanceBaseBattle.cpp

; 86   : 	return NEW_GetDistanceFromDirPixelPosition(kPPosDir);

  0003c	50		 push	 eax
  0003d	f3 0f 11 45 f0	 movss	 DWORD PTR _kPPosDir$[ebp+8], xmm0
  00042	e8 00 00 00 00	 call	 ?NEW_GetDistanceFromDirPixelPosition@CInstanceBase@@QAEMABUD3DXVECTOR3@@@Z ; CInstanceBase::NEW_GetDistanceFromDirPixelPosition

; 87   : }

  00047	8b e5		 mov	 esp, ebp
  00049	5d		 pop	 ebp
  0004a	c2 04 00	 ret	 4
?NEW_GetDistanceFromDestPixelPosition@CInstanceBase@@QAEMABUD3DXVECTOR3@@@Z ENDP ; CInstanceBase::NEW_GetDistanceFromDestPixelPosition
_TEXT	ENDS
; Function compile flags: /Ogtp
; File D:\_m2work\Server Client TMP4\ClientVS22\source\UserInterface\InstanceBaseBattle.cpp
;	COMDAT ?NEW_UseSkill@CInstanceBase@@QAE_NIII_N@Z
_TEXT	SEGMENT
_uSkill$ = 8						; size = 4
_uMot$ = 12						; size = 4
_uMotLoopCount$ = 16					; size = 4
_fCurRot$ = 20						; size = 4
_isMovingSkill$ = 20					; size = 1
?NEW_UseSkill@CInstanceBase@@QAE_NIII_N@Z PROC		; CInstanceBase::NEW_UseSkill, COMDAT
; _this$ = ecx

; 311  : {

  00000	55		 push	 ebp
  00001	8b ec		 mov	 ebp, esp
  00003	53		 push	 ebx
  00004	56		 push	 esi
  00005	57		 push	 edi
  00006	8b f1		 mov	 esi, ecx

; 312  : 	if (IsDead())

  00008	e8 00 00 00 00	 call	 ?IsDead@CInstanceBase@@QAEHXZ ; CInstanceBase::IsDead
  0000d	85 c0		 test	 eax, eax
  0000f	0f 85 b5 00 00
	00		 jne	 $LN11@NEW_UseSki

; 313  : 		return false;
; 314  : 
; 315  : 	if (IsStun())

  00015	8b ce		 mov	 ecx, esi
  00017	e8 00 00 00 00	 call	 ?IsStun@CInstanceBase@@QAEHXZ ; CInstanceBase::IsStun
  0001c	85 c0		 test	 eax, eax
  0001e	0f 85 a6 00 00
	00		 jne	 $LN11@NEW_UseSki

; 316  : 		return false;
; 317  : 
; 318  : 	if (IsKnockDown())

  00024	8b ce		 mov	 ecx, esi
  00026	e8 00 00 00 00	 call	 ?IsKnockDown@CInstanceBase@@QAEHXZ ; CInstanceBase::IsKnockDown
  0002b	85 c0		 test	 eax, eax
  0002d	0f 85 97 00 00
	00		 jne	 $LN11@NEW_UseSki

; 319  : 		return false;
; 320  : 
; 321  : 	if (isMovingSkill)

  00033	8b 5d 14	 mov	 ebx, DWORD PTR _isMovingSkill$[ebp]
  00036	8b ce		 mov	 ecx, esi
  00038	e8 00 00 00 00	 call	 ?IsWalking@CInstanceBase@@QAEHXZ ; CInstanceBase::IsWalking
  0003d	84 db		 test	 bl, bl
  0003f	74 0f		 je	 SHORT $LN5@NEW_UseSki

; 322  : 	{
; 323  : 		if (!IsWalking())

  00041	85 c0		 test	 eax, eax
  00043	75 07		 jne	 SHORT $LN7@NEW_UseSki

; 324  : 			StartWalking();

  00045	8b ce		 mov	 ecx, esi
  00047	e8 00 00 00 00	 call	 ?StartWalking@CInstanceBase@@IAEXXZ ; CInstanceBase::StartWalking
$LN7@NEW_UseSki:

; 325  : 
; 326  : 		m_isGoing = TRUE;

  0004c	b0 01		 mov	 al, 1

; 327  : 	}

  0004e	eb 15		 jmp	 SHORT $LN6@NEW_UseSki
$LN5@NEW_UseSki:

; 328  : 	else
; 329  : 	{
; 330  : 		if (IsWalking())

  00050	85 c0		 test	 eax, eax
  00052	74 0f		 je	 SHORT $LN8@NEW_UseSki

; 331  : 			EndWalking();

  00054	f3 0f 10 0d 00
	00 00 00	 movss	 xmm1, DWORD PTR __real@3e19999a
  0005c	8b ce		 mov	 ecx, esi
  0005e	e8 00 00 00 00	 call	 ?EndWalking@CInstanceBase@@QAEXM@Z ; CInstanceBase::EndWalking
$LN8@NEW_UseSki:

; 332  : 
; 333  : 		m_isGoing = FALSE;

  00063	32 c0		 xor	 al, al
$LN6@NEW_UseSki:

; 334  : 	}
; 335  : 
; 336  : 	float fCurRot=m_GraphicThingInstance.GetTargetRotation();

  00065	8d be d4 01 00
	00		 lea	 edi, DWORD PTR [esi+468]
  0006b	88 86 88 01 00
	00		 mov	 BYTE PTR [esi+392], al
  00071	8b cf		 mov	 ecx, edi
  00073	e8 00 00 00 00	 call	 ?GetTargetRotation@CActorInstance@@QAEMXZ ; CActorInstance::GetTargetRotation
  00078	d9 5d 14	 fstp	 DWORD PTR _fCurRot$[ebp]

; 337  : 	SetAdvancingRotation(fCurRot);

  0007b	f3 0f 10 4d 14	 movss	 xmm1, DWORD PTR _fCurRot$[ebp]
  00080	8b ce		 mov	 ecx, esi
  00082	e8 00 00 00 00	 call	 ?SetAdvancingRotation@CInstanceBase@@QAEXM@Z ; CInstanceBase::SetAdvancingRotation

; 338  : 
; 339  : 	m_GraphicThingInstance.InterceptOnceMotion(CRaceMotionData::NAME_SKILL + uMot, 0.1f, uSkill, 1.0f);

  00087	8b 75 0c	 mov	 esi, DWORD PTR _uMot$[ebp]
  0008a	51		 push	 ecx
  0008b	c7 04 24 00 00
	80 3f		 mov	 DWORD PTR [esp], 1065353216 ; 3f800000H
  00092	ff 75 08	 push	 DWORD PTR _uSkill$[ebp]
  00095	8d 46 32	 lea	 eax, DWORD PTR [esi+50]
  00098	51		 push	 ecx
  00099	c7 04 24 cd cc
	cc 3d		 mov	 DWORD PTR [esp], 1036831949 ; 3dcccccdH
  000a0	8b cf		 mov	 ecx, edi
  000a2	50		 push	 eax
  000a3	e8 00 00 00 00	 call	 ?InterceptOnceMotion@CActorInstance@@QAE_NKMIM@Z ; CActorInstance::InterceptOnceMotion

; 340  : 
; 341  : 	m_GraphicThingInstance.__OnUseSkill(uMot, uMotLoopCount, isMovingSkill);

  000a8	53		 push	 ebx
  000a9	8b 5d 10	 mov	 ebx, DWORD PTR _uMotLoopCount$[ebp]
  000ac	8b cf		 mov	 ecx, edi
  000ae	53		 push	 ebx
  000af	56		 push	 esi
  000b0	e8 00 00 00 00	 call	 ?__OnUseSkill@CActorInstance@@QAEXII_N@Z ; CActorInstance::__OnUseSkill

; 342  : 
; 343  : 	if (uMotLoopCount > 0)

  000b5	85 db		 test	 ebx, ebx
  000b7	74 08		 je	 SHORT $LN9@NEW_UseSki

; 344  : 		m_GraphicThingInstance.SetMotionLoopCount(uMotLoopCount);

  000b9	53		 push	 ebx
  000ba	8b cf		 mov	 ecx, edi
  000bc	e8 00 00 00 00	 call	 ?SetMotionLoopCount@CActorInstance@@QAEXH@Z ; CActorInstance::SetMotionLoopCount
$LN9@NEW_UseSki:

; 345  : 
; 346  : 	return true;

  000c1	b0 01		 mov	 al, 1

; 347  : }

  000c3	5f		 pop	 edi
  000c4	5e		 pop	 esi
  000c5	5b		 pop	 ebx
  000c6	5d		 pop	 ebp
  000c7	c2 10 00	 ret	 16			; 00000010H
$LN11@NEW_UseSki:
  000ca	5f		 pop	 edi
  000cb	5e		 pop	 esi
  000cc	32 c0		 xor	 al, al
  000ce	5b		 pop	 ebx
  000cf	5d		 pop	 ebp
  000d0	c2 10 00	 ret	 16			; 00000010H
?NEW_UseSkill@CInstanceBase@@QAE_NIII_N@Z ENDP		; CInstanceBase::NEW_UseSkill
_TEXT	ENDS
; Function compile flags: /Ogtp
; File D:\_m2work\Server Client TMP4\ClientVS22\source\UserInterface\InstanceBaseBattle.cpp
;	COMDAT ?RunNormalAttack@CInstanceBase@@QAEXM@Z
_TEXT	SEGMENT
_fAtkDirRot$1$ = -4					; size = 4
?RunNormalAttack@CInstanceBase@@QAEXM@Z PROC		; CInstanceBase::RunNormalAttack, COMDAT
; _this$ = ecx
; _fAtkDirRot$ = xmm1s

; 457  : {

  00000	55		 push	 ebp
  00001	8b ec		 mov	 ebp, esp
  00003	51		 push	 ecx
  00004	56		 push	 esi
  00005	f3 0f 11 4d fc	 movss	 DWORD PTR _fAtkDirRot$1$[ebp], xmm1
  0000a	8b f1		 mov	 esi, ecx

; 458  : 	EndGoing();

  0000c	e8 00 00 00 00	 call	 ?EndGoing@CInstanceBase@@QAEXXZ ; CInstanceBase::EndGoing

; 459  : 	m_GraphicThingInstance.NormalAttack(fAtkDirRot);

  00011	f3 0f 10 45 fc	 movss	 xmm0, DWORD PTR _fAtkDirRot$1$[ebp]
  00016	8d 8e d4 01 00
	00		 lea	 ecx, DWORD PTR [esi+468]
  0001c	83 ec 08	 sub	 esp, 8
  0001f	c7 44 24 04 cd
	cc cc 3d	 mov	 DWORD PTR [esp+4], 1036831949 ; 3dcccccdH
  00027	f3 0f 11 04 24	 movss	 DWORD PTR [esp], xmm0
  0002c	e8 00 00 00 00	 call	 ?NormalAttack@CActorInstance@@QAEHMM@Z ; CActorInstance::NormalAttack
  00031	5e		 pop	 esi

; 460  : }

  00032	8b e5		 mov	 esp, ebp
  00034	5d		 pop	 ebp
  00035	c3		 ret	 0
?RunNormalAttack@CInstanceBase@@QAEXM@Z ENDP		; CInstanceBase::RunNormalAttack
_TEXT	ENDS
; Function compile flags: /Ogtp
; File D:\_m2work\Server Client TMP4\ClientVS22\source\UserInterface\InstanceBaseBattle.cpp
;	COMDAT ?RunComboAttack@CInstanceBase@@QAEXMK@Z
_TEXT	SEGMENT
_fAtkDirRot$1$ = -4					; size = 4
_wMotionIndex$ = 8					; size = 4
?RunComboAttack@CInstanceBase@@QAEXMK@Z PROC		; CInstanceBase::RunComboAttack, COMDAT
; _this$ = ecx
; _fAtkDirRot$ = xmm1s

; 463  : {

  00000	55		 push	 ebp
  00001	8b ec		 mov	 ebp, esp
  00003	51		 push	 ecx
  00004	56		 push	 esi
  00005	f3 0f 11 4d fc	 movss	 DWORD PTR _fAtkDirRot$1$[ebp], xmm1
  0000a	8b f1		 mov	 esi, ecx

; 464  : 	EndGoing();

  0000c	e8 00 00 00 00	 call	 ?EndGoing@CInstanceBase@@QAEXXZ ; CInstanceBase::EndGoing

; 465  : 	m_GraphicThingInstance.ComboAttack(wMotionIndex, fAtkDirRot);

  00011	f3 0f 10 45 fc	 movss	 xmm0, DWORD PTR _fAtkDirRot$1$[ebp]
  00016	8d 8e d4 01 00
	00		 lea	 ecx, DWORD PTR [esi+468]
  0001c	83 ec 08	 sub	 esp, 8
  0001f	c7 44 24 04 cd
	cc cc 3d	 mov	 DWORD PTR [esp+4], 1036831949 ; 3dcccccdH
  00027	f3 0f 11 04 24	 movss	 DWORD PTR [esp], xmm0
  0002c	ff 75 08	 push	 DWORD PTR _wMotionIndex$[ebp]
  0002f	e8 00 00 00 00	 call	 ?ComboAttack@CActorInstance@@QAEHKMM@Z ; CActorInstance::ComboAttack
  00034	5e		 pop	 esi

; 466  : }

  00035	8b e5		 mov	 esp, ebp
  00037	5d		 pop	 ebp
  00038	c2 04 00	 ret	 4
?RunComboAttack@CInstanceBase@@QAEXMK@Z ENDP		; CInstanceBase::RunComboAttack
_TEXT	ENDS
; Function compile flags: /Ogtp
; File D:\_m2work\Server Client TMP4\ClientVS22\source\UserInterface\InstanceBaseBattle.cpp
;	COMDAT ?IsAffect@CInstanceBase@@QAE_NI@Z
_TEXT	SEGMENT
_uAffect$ = 8						; size = 4
?IsAffect@CInstanceBase@@QAE_NI@Z PROC			; CInstanceBase::IsAffect, COMDAT
; _this$ = ecx

; 632  : {

  00000	55		 push	 ebp
  00001	8b ec		 mov	 ebp, esp

; 633  : 	return m_kAffectFlagContainer.IsSet(uAffect);

  00003	83 c1 48	 add	 ecx, 72			; 00000048H

; 634  : }

  00006	5d		 pop	 ebp

; 633  : 	return m_kAffectFlagContainer.IsSet(uAffect);

  00007	e9 00 00 00 00	 jmp	 ?IsSet@CAffectFlagContainer@@QBE_NI@Z ; CAffectFlagContainer::IsSet
?IsAffect@CInstanceBase@@QAE_NI@Z ENDP			; CInstanceBase::IsAffect
_TEXT	ENDS
; Function compile flags: /Ogtp
; File D:\_m2work\Server Client TMP4\ClientVS22\source\UserInterface\InstanceBaseBattle.cpp
;	COMDAT ?NEW_GetDistanceFromDestInstance@CInstanceBase@@QAEMAAV1@@Z
_TEXT	SEGMENT
_kPPosDst$ = -12					; size = 12
_rkInstDst$ = 8						; size = 4
?NEW_GetDistanceFromDestInstance@CInstanceBase@@QAEMAAV1@@Z PROC ; CInstanceBase::NEW_GetDistanceFromDestInstance, COMDAT
; _this$ = ecx

; 71   : {

  00000	55		 push	 ebp
  00001	8b ec		 mov	 ebp, esp
  00003	83 ec 0c	 sub	 esp, 12			; 0000000cH

; 72   : 	TPixelPosition kPPosDst;
; 73   : 	rkInstDst.NEW_GetPixelPosition(&kPPosDst);

  00006	8d 45 f4	 lea	 eax, DWORD PTR _kPPosDst$[ebp]
  00009	56		 push	 esi
  0000a	8b f1		 mov	 esi, ecx
  0000c	8b 4d 08	 mov	 ecx, DWORD PTR _rkInstDst$[ebp]
  0000f	50		 push	 eax
  00010	e8 00 00 00 00	 call	 ?NEW_GetPixelPosition@CInstanceBase@@QAEXPAUD3DXVECTOR3@@@Z ; CInstanceBase::NEW_GetPixelPosition

; 74   : 
; 75   : 	return NEW_GetDistanceFromDestPixelPosition(kPPosDst);

  00015	8d 45 f4	 lea	 eax, DWORD PTR _kPPosDst$[ebp]
  00018	8b ce		 mov	 ecx, esi
  0001a	50		 push	 eax
  0001b	e8 00 00 00 00	 call	 ?NEW_GetDistanceFromDestPixelPosition@CInstanceBase@@QAEMABUD3DXVECTOR3@@@Z ; CInstanceBase::NEW_GetDistanceFromDestPixelPosition
  00020	5e		 pop	 esi

; 76   : }

  00021	8b e5		 mov	 esp, ebp
  00023	5d		 pop	 ebp
  00024	c2 04 00	 ret	 4
?NEW_GetDistanceFromDestInstance@CInstanceBase@@QAEMAAV1@@Z ENDP ; CInstanceBase::NEW_GetDistanceFromDestInstance
_TEXT	ENDS
; Function compile flags: /Ogtp
; File D:\_m2work\Server Client TMP4\ClientVS22\source\UserInterface\PythonCharacterManager.h
; File C:\Program Files\Microsoft Visual Studio\2022\Community\VC\Tools\MSVC\14.44.35207\include\xtree
; File D:\_m2work\Server Client TMP4\ClientVS22\source\UserInterface\PythonCharacterManager.h
;	COMDAT ?CharacterInstanceBegin@CPythonCharacterManager@@QAE?AVCharacterIterator@1@XZ
_TEXT	SEGMENT
___$ReturnUdt$ = 8					; size = 4
?CharacterInstanceBegin@CPythonCharacterManager@@QAE?AVCharacterIterator@1@XZ PROC ; CPythonCharacterManager::CharacterInstanceBegin, COMDAT
; _this$ = ecx

; 77   : 		inline CharacterIterator			CharacterInstanceBegin() { return CharacterIterator(m_kAliveInstMap.begin());}

  00000	55		 push	 ebp
  00001	8b ec		 mov	 ebp, esp
; File C:\Program Files\Microsoft Visual Studio\2022\Community\VC\Tools\MSVC\14.44.35207\include\xtree

; 1142 :         return iterator(_Scary->_Myhead->_Left, _Scary);

  00003	8b 41 20	 mov	 eax, DWORD PTR [ecx+32]
; File D:\_m2work\Server Client TMP4\ClientVS22\source\UserInterface\PythonCharacterManager.h

; 132  : 			CharacterIterator(const TCharacterInstanceMap::iterator & it) : m_it(it) {}

  00006	8b 08		 mov	 ecx, DWORD PTR [eax]
  00008	8b 45 08	 mov	 eax, DWORD PTR ___$ReturnUdt$[ebp]
  0000b	89 08		 mov	 DWORD PTR [eax], ecx

; 77   : 		inline CharacterIterator			CharacterInstanceBegin() { return CharacterIterator(m_kAliveInstMap.begin());}

  0000d	5d		 pop	 ebp
  0000e	c2 04 00	 ret	 4
?CharacterInstanceBegin@CPythonCharacterManager@@QAE?AVCharacterIterator@1@XZ ENDP ; CPythonCharacterManager::CharacterInstanceBegin
_TEXT	ENDS
; Function compile flags: /Ogtp
; File D:\_m2work\Server Client TMP4\ClientVS22\source\UserInterface\PythonCharacterManager.h
;	COMDAT ?CharacterInstanceEnd@CPythonCharacterManager@@QAE?AVCharacterIterator@1@XZ
_TEXT	SEGMENT
___$ReturnUdt$ = 8					; size = 4
?CharacterInstanceEnd@CPythonCharacterManager@@QAE?AVCharacterIterator@1@XZ PROC ; CPythonCharacterManager::CharacterInstanceEnd, COMDAT
; _this$ = ecx

; 78   : 		inline CharacterIterator			CharacterInstanceEnd() { return CharacterIterator(m_kAliveInstMap.end());}

  00000	55		 push	 ebp
  00001	8b ec		 mov	 ebp, esp

; 132  : 			CharacterIterator(const TCharacterInstanceMap::iterator & it) : m_it(it) {}

  00003	8b 45 08	 mov	 eax, DWORD PTR ___$ReturnUdt$[ebp]
  00006	8b 49 20	 mov	 ecx, DWORD PTR [ecx+32]
  00009	89 08		 mov	 DWORD PTR [eax], ecx

; 78   : 		inline CharacterIterator			CharacterInstanceEnd() { return CharacterIterator(m_kAliveInstMap.end());}

  0000b	5d		 pop	 ebp
  0000c	c2 04 00	 ret	 4
?CharacterInstanceEnd@CPythonCharacterManager@@QAE?AVCharacterIterator@1@XZ ENDP ; CPythonCharacterManager::CharacterInstanceEnd
_TEXT	ENDS
; Function compile flags: /Ogtp
; File D:\_m2work\Server Client TMP4\ClientVS22\source\UserInterface\PythonCharacterManager.h
; File C:\Program Files\Microsoft Visual Studio\2022\Community\VC\Tools\MSVC\14.44.35207\include\xtree
; File D:\_m2work\Server Client TMP4\ClientVS22\source\UserInterface\PythonCharacterManager.h
;	COMDAT ??0CharacterIterator@CPythonCharacterManager@@QAE@XZ
_TEXT	SEGMENT
??0CharacterIterator@CPythonCharacterManager@@QAE@XZ PROC ; CPythonCharacterManager::CharacterIterator::CharacterIterator, COMDAT
; _this$ = ecx
; File C:\Program Files\Microsoft Visual Studio\2022\Community\VC\Tools\MSVC\14.44.35207\include\xtree

; 35   :     _Tree_unchecked_const_iterator() noexcept : _Ptr() {}

  00000	c7 01 00 00 00
	00		 mov	 DWORD PTR [ecx], 0
; File D:\_m2work\Server Client TMP4\ClientVS22\source\UserInterface\PythonCharacterManager.h

; 131  : 			CharacterIterator(){}

  00006	8b c1		 mov	 eax, ecx
  00008	c3		 ret	 0
??0CharacterIterator@CPythonCharacterManager@@QAE@XZ ENDP ; CPythonCharacterManager::CharacterIterator::CharacterIterator
_TEXT	ENDS
; Function compile flags: /Ogtp
; File D:\_m2work\Server Client TMP4\ClientVS22\source\UserInterface\PythonCharacterManager.h
;	COMDAT ??0CharacterIterator@CPythonCharacterManager@@QAE@ABV?$_Tree_iterator@V?$_Tree_val@U?$_Tree_simple_types@U?$pair@$$CBKPAVCInstanceBase@@@std@@@std@@@std@@@std@@@Z
_TEXT	SEGMENT
_it$ = 8						; size = 4
??0CharacterIterator@CPythonCharacterManager@@QAE@ABV?$_Tree_iterator@V?$_Tree_val@U?$_Tree_simple_types@U?$pair@$$CBKPAVCInstanceBase@@@std@@@std@@@std@@@std@@@Z PROC ; CPythonCharacterManager::CharacterIterator::CharacterIterator, COMDAT
; _this$ = ecx

; 132  : 			CharacterIterator(const TCharacterInstanceMap::iterator & it) : m_it(it) {}

  00000	55		 push	 ebp
  00001	8b ec		 mov	 ebp, esp
  00003	8b 45 08	 mov	 eax, DWORD PTR _it$[ebp]
  00006	8b 00		 mov	 eax, DWORD PTR [eax]
  00008	89 01		 mov	 DWORD PTR [ecx], eax
  0000a	8b c1		 mov	 eax, ecx
  0000c	5d		 pop	 ebp
  0000d	c2 04 00	 ret	 4
??0CharacterIterator@CPythonCharacterManager@@QAE@ABV?$_Tree_iterator@V?$_Tree_val@U?$_Tree_simple_types@U?$pair@$$CBKPAVCInstanceBase@@@std@@@std@@@std@@@std@@@Z ENDP ; CPythonCharacterManager::CharacterIterator::CharacterIterator
_TEXT	ENDS
; Function compile flags: /Ogtp
; File D:\_m2work\Server Client TMP4\ClientVS22\source\UserInterface\PythonCharacterManager.h
;	COMDAT ??DCharacterIterator@CPythonCharacterManager@@QAEPAVCInstanceBase@@XZ
_TEXT	SEGMENT
??DCharacterIterator@CPythonCharacterManager@@QAEPAVCInstanceBase@@XZ PROC ; CPythonCharacterManager::CharacterIterator::operator*, COMDAT
; _this$ = ecx

; 134  : 			inline CInstanceBase * operator * () {	return m_it->second; }

  00000	8b 01		 mov	 eax, DWORD PTR [ecx]
  00002	8b 40 14	 mov	 eax, DWORD PTR [eax+20]
  00005	c3		 ret	 0
??DCharacterIterator@CPythonCharacterManager@@QAEPAVCInstanceBase@@XZ ENDP ; CPythonCharacterManager::CharacterIterator::operator*
_TEXT	ENDS
; Function compile flags: /Ogtp
; File D:\_m2work\Server Client TMP4\ClientVS22\source\UserInterface\PythonCharacterManager.h
; File C:\Program Files\Microsoft Visual Studio\2022\Community\VC\Tools\MSVC\14.44.35207\include\xtree
; File D:\_m2work\Server Client TMP4\ClientVS22\source\UserInterface\PythonCharacterManager.h
;	COMDAT ??ECharacterIterator@CPythonCharacterManager@@QAEAAV01@XZ
_TEXT	SEGMENT
??ECharacterIterator@CPythonCharacterManager@@QAEAAV01@XZ PROC ; CPythonCharacterManager::CharacterIterator::operator++, COMDAT
; _this$ = ecx

; 137  : 			{

  00000	56		 push	 esi
  00001	8b f1		 mov	 esi, ecx
; File C:\Program Files\Microsoft Visual Studio\2022\Community\VC\Tools\MSVC\14.44.35207\include\xtree

; 198  :         _Mybase::operator++();

  00003	e8 00 00 00 00	 call	 ??E?$_Tree_unchecked_const_iterator@V?$_Tree_val@U?$_Tree_simple_types@U?$pair@$$CBKPAVCInstanceBase@@@std@@@std@@@std@@U_Iterator_base0@2@@std@@QAEAAV01@XZ ; std::_Tree_unchecked_const_iterator<std::_Tree_val<std::_Tree_simple_types<std::pair<unsigned long const ,CInstanceBase *> > >,std::_Iterator_base0>::operator++
; File D:\_m2work\Server Client TMP4\ClientVS22\source\UserInterface\PythonCharacterManager.h

; 139  : 				return *this;

  00008	8b c6		 mov	 eax, esi
  0000a	5e		 pop	 esi

; 140  : 			}

  0000b	c3		 ret	 0
??ECharacterIterator@CPythonCharacterManager@@QAEAAV01@XZ ENDP ; CPythonCharacterManager::CharacterIterator::operator++
_TEXT	ENDS
; Function compile flags: /Ogtp
; File D:\_m2work\Server Client TMP4\ClientVS22\source\UserInterface\PythonCharacterManager.h
;	COMDAT ??4CharacterIterator@CPythonCharacterManager@@QAEAAV01@ABV01@@Z
_TEXT	SEGMENT
_rhs$ = 8						; size = 4
??4CharacterIterator@CPythonCharacterManager@@QAEAAV01@ABV01@@Z PROC ; CPythonCharacterManager::CharacterIterator::operator=, COMDAT
; _this$ = ecx

; 150  : 			{

  00000	55		 push	 ebp
  00001	8b ec		 mov	 ebp, esp

; 151  : 				m_it = rhs.m_it;

  00003	8b 45 08	 mov	 eax, DWORD PTR _rhs$[ebp]
  00006	8b 00		 mov	 eax, DWORD PTR [eax]
  00008	89 01		 mov	 DWORD PTR [ecx], eax

; 152  : 				return (*this);

  0000a	8b c1		 mov	 eax, ecx

; 153  : 			}

  0000c	5d		 pop	 ebp
  0000d	c2 04 00	 ret	 4
??4CharacterIterator@CPythonCharacterManager@@QAEAAV01@ABV01@@Z ENDP ; CPythonCharacterManager::CharacterIterator::operator=
_TEXT	ENDS
; Function compile flags: /Ogtp
; File D:\_m2work\Server Client TMP4\ClientVS22\source\UserInterface\PythonCharacterManager.h
; File C:\Program Files\Microsoft Visual Studio\2022\Community\VC\Tools\MSVC\14.44.35207\include\xtree
; File D:\_m2work\Server Client TMP4\ClientVS22\source\UserInterface\PythonCharacterManager.h
;	COMDAT ??9CharacterIterator@CPythonCharacterManager@@QBE_NABV01@@Z
_TEXT	SEGMENT
_rhs$ = 8						; size = 4
??9CharacterIterator@CPythonCharacterManager@@QBE_NABV01@@Z PROC ; CPythonCharacterManager::CharacterIterator::operator!=, COMDAT
; _this$ = ecx

; 161  : 			{

  00000	55		 push	 ebp
  00001	8b ec		 mov	 ebp, esp
; File C:\Program Files\Microsoft Visual Studio\2022\Community\VC\Tools\MSVC\14.44.35207\include\xtree

; 232  :         return this->_Ptr == _Right._Ptr;

  00003	8b 45 08	 mov	 eax, DWORD PTR _rhs$[ebp]
  00006	8b 09		 mov	 ecx, DWORD PTR [ecx]
  00008	3b 08		 cmp	 ecx, DWORD PTR [eax]
; File D:\_m2work\Server Client TMP4\ClientVS22\source\UserInterface\PythonCharacterManager.h

; 162  : 				return m_it != rhs.m_it;

  0000a	0f 95 c0	 setne	 al

; 163  : 			}

  0000d	5d		 pop	 ebp
  0000e	c2 04 00	 ret	 4
??9CharacterIterator@CPythonCharacterManager@@QBE_NABV01@@Z ENDP ; CPythonCharacterManager::CharacterIterator::operator!=
_TEXT	ENDS
; Function compile flags: /Ogtp
; File C:\Program Files\Microsoft Visual Studio\2022\Community\VC\Tools\MSVC\14.44.35207\include\xtree
;	COMDAT ??0?$_Tree_iterator@V?$_Tree_val@U?$_Tree_simple_types@U?$pair@$$CBKPAVCInstanceBase@@@std@@@std@@@std@@@std@@QAE@XZ
_TEXT	SEGMENT
??0?$_Tree_iterator@V?$_Tree_val@U?$_Tree_simple_types@U?$pair@$$CBKPAVCInstanceBase@@@std@@@std@@@std@@@std@@QAE@XZ PROC ; std::_Tree_iterator<std::_Tree_val<std::_Tree_simple_types<std::pair<unsigned long const ,CInstanceBase *> > > >::_Tree_iterator<std::_Tree_val<std::_Tree_simple_types<std::pair<unsigned long const ,CInstanceBase *> > > >, COMDAT
; _this$ = ecx

; 35   :     _Tree_unchecked_const_iterator() noexcept : _Ptr() {}

  00000	c7 01 00 00 00
	00		 mov	 DWORD PTR [ecx], 0
  00006	8b c1		 mov	 eax, ecx
  00008	c3		 ret	 0
??0?$_Tree_iterator@V?$_Tree_val@U?$_Tree_simple_types@U?$pair@$$CBKPAVCInstanceBase@@@std@@@std@@@std@@@std@@QAE@XZ ENDP ; std::_Tree_iterator<std::_Tree_val<std::_Tree_simple_types<std::pair<unsigned long const ,CInstanceBase *> > > >::_Tree_iterator<std::_Tree_val<std::_Tree_simple_types<std::pair<unsigned long const ,CInstanceBase *> > > >
_TEXT	ENDS
; Function compile flags: /Ogtp
; File C:\Program Files\Microsoft Visual Studio\2022\Community\VC\Tools\MSVC\14.44.35207\include\xtree
;	COMDAT ??0?$_Tree_const_iterator@V?$_Tree_val@U?$_Tree_simple_types@U?$pair@$$CBKPAVCInstanceBase@@@std@@@std@@@std@@@std@@QAE@XZ
_TEXT	SEGMENT
??0?$_Tree_const_iterator@V?$_Tree_val@U?$_Tree_simple_types@U?$pair@$$CBKPAVCInstanceBase@@@std@@@std@@@std@@@std@@QAE@XZ PROC ; std::_Tree_const_iterator<std::_Tree_val<std::_Tree_simple_types<std::pair<unsigned long const ,CInstanceBase *> > > >::_Tree_const_iterator<std::_Tree_val<std::_Tree_simple_types<std::pair<unsigned long const ,CInstanceBase *> > > >, COMDAT
; _this$ = ecx

; 35   :     _Tree_unchecked_const_iterator() noexcept : _Ptr() {}

  00000	c7 01 00 00 00
	00		 mov	 DWORD PTR [ecx], 0
  00006	8b c1		 mov	 eax, ecx
  00008	c3		 ret	 0
??0?$_Tree_const_iterator@V?$_Tree_val@U?$_Tree_simple_types@U?$pair@$$CBKPAVCInstanceBase@@@std@@@std@@@std@@@std@@QAE@XZ ENDP ; std::_Tree_const_iterator<std::_Tree_val<std::_Tree_simple_types<std::pair<unsigned long const ,CInstanceBase *> > > >::_Tree_const_iterator<std::_Tree_val<std::_Tree_simple_types<std::pair<unsigned long const ,CInstanceBase *> > > >
_TEXT	ENDS
; Function compile flags: /Ogtp
; File D:\_m2work\Server Client TMP4\ClientVS22\source\UserInterface\InstanceBaseBattle.cpp
;	COMDAT ?NEW_UnsignedDegreeToSignedDegree@@YAMM@Z
_TEXT	SEGMENT
?NEW_UnsignedDegreeToSignedDegree@@YAMM@Z PROC		; NEW_UnsignedDegreeToSignedDegree, COMDAT
; _fUD$ = xmm0s

; 8    : {

  00000	0f 28 c8	 movaps	 xmm1, xmm0

; 9    : 	float fSD;
; 10   : 	if (fUD>180.0f)

  00003	0f 2f 0d 00 00
	00 00		 comiss	 xmm1, DWORD PTR __real@43340000
  0000a	76 14		 jbe	 SHORT $LN2@NEW_Unsign

; 11   : 		fSD=-(360.0f-fUD);

  0000c	f3 0f 10 05 00
	00 00 00	 movss	 xmm0, DWORD PTR __real@43b40000
  00014	f3 0f 5c c1	 subss	 xmm0, xmm1
  00018	0f 57 05 00 00
	00 00		 xorps	 xmm0, DWORD PTR __xmm@80000000800000008000000080000000

; 14   : 	else
; 15   : 		fSD=fUD;
; 16   : 
; 17   : 	return fSD;
; 18   : }

  0001f	c3		 ret	 0
$LN2@NEW_Unsign:

; 12   : 	else if (fUD<-180.0f)

  00020	f3 0f 10 05 00
	00 00 00	 movss	 xmm0, DWORD PTR __real@c3340000
  00028	0f 2f c1	 comiss	 xmm0, xmm1
  0002b	76 08		 jbe	 SHORT $LN4@NEW_Unsign

; 13   : 		fSD=+(360.0f+fUD);

  0002d	f3 0f 58 0d 00
	00 00 00	 addss	 xmm1, DWORD PTR __real@43b40000
$LN4@NEW_Unsign:

; 14   : 	else
; 15   : 		fSD=fUD;
; 16   : 
; 17   : 	return fSD;
; 18   : }

  00035	0f 28 c1	 movaps	 xmm0, xmm1
  00038	c3		 ret	 0
?NEW_UnsignedDegreeToSignedDegree@@YAMM@Z ENDP		; NEW_UnsignedDegreeToSignedDegree
_TEXT	ENDS
; Function compile flags: /Ogtp
; File D:\_m2work\Server Client TMP4\ClientVS22\source\UserInterface\InstanceBaseBattle.cpp
; File D:\_m2work\Server Client TMP4\ClientVS22\extern\include\d3dx8math.inl
; File D:\_m2work\Server Client TMP4\ClientVS22\source\UserInterface\InstanceBaseBattle.cpp
; File D:\_m2work\Server Client TMP4\ClientVS22\extern\include\d3dx8math.inl
; File D:\_m2work\Server Client TMP4\ClientVS22\source\UserInterface\InstanceBaseBattle.cpp
; File D:\_m2work\Server Client TMP4\ClientVS22\extern\include\d3dx8math.inl
; File D:\_m2work\Server Client TMP4\ClientVS22\source\UserInterface\InstanceBaseBattle.cpp
; File D:\_m2work\Server Client TMP4\ClientVS22\extern\include\d3dx8math.inl
; File D:\_m2work\Server Client TMP4\ClientVS22\source\UserInterface\InstanceBaseBattle.cpp
; File D:\_m2work\Server Client TMP4\ClientVS22\extern\include\d3dx8math.inl
; File D:\_m2work\Server Client TMP4\ClientVS22\source\UserInterface\InstanceBaseBattle.cpp
; File D:\_m2work\Server Client TMP4\ClientVS22\extern\include\d3dx8math.inl
; File D:\_m2work\Server Client TMP4\ClientVS22\source\UserInterface\InstanceBaseBattle.cpp
; File D:\_m2work\Server Client TMP4\ClientVS22\extern\include\d3dx8math.inl
; File D:\_m2work\Server Client TMP4\ClientVS22\source\UserInterface\InstanceBaseBattle.cpp
;	COMDAT ?NEW_GetSignedDegreeFromDirPixelPosition@@YAMABUD3DXVECTOR3@@@Z
_TEXT	SEGMENT
_fDirRot$ = -32						; size = 4
_vtDir$ = -28						; size = 12
_vtDirNormal$ = -16					; size = 12
__$ArrayPad$ = -4					; size = 4
?NEW_GetSignedDegreeFromDirPixelPosition@@YAMABUD3DXVECTOR3@@@Z PROC ; NEW_GetSignedDegreeFromDirPixelPosition, COMDAT
; _kPPosDir$ = ecx

; 21   : {

  00000	55		 push	 ebp
  00001	8b ec		 mov	 ebp, esp
  00003	83 ec 20	 sub	 esp, 32			; 00000020H
  00006	a1 00 00 00 00	 mov	 eax, DWORD PTR ___security_cookie
  0000b	33 c5		 xor	 eax, ebp
  0000d	89 45 fc	 mov	 DWORD PTR __$ArrayPad$[ebp], eax
; File D:\_m2work\Server Client TMP4\ClientVS22\extern\include\d3dx8math.inl

; 180  :     x = fx;

  00010	f3 0f 10 01	 movss	 xmm0, DWORD PTR [ecx]
; File D:\_m2work\Server Client TMP4\ClientVS22\source\UserInterface\InstanceBaseBattle.cpp

; 24   : 	D3DXVec3Normalize(&vtDirNormal, &vtDir);

  00014	8d 45 e4	 lea	 eax, DWORD PTR _vtDir$[ebp]
; File D:\_m2work\Server Client TMP4\ClientVS22\extern\include\d3dx8math.inl

; 180  :     x = fx;

  00017	f3 0f 11 45 e4	 movss	 DWORD PTR _vtDir$[ebp], xmm0
; File D:\_m2work\Server Client TMP4\ClientVS22\source\UserInterface\InstanceBaseBattle.cpp

; 22   : 	D3DXVECTOR3 vtDir(kPPosDir.x, -kPPosDir.y, kPPosDir.z);

  0001c	f3 0f 10 41 04	 movss	 xmm0, DWORD PTR [ecx+4]
  00021	0f 57 05 00 00
	00 00		 xorps	 xmm0, DWORD PTR __xmm@80000000800000008000000080000000

; 24   : 	D3DXVec3Normalize(&vtDirNormal, &vtDir);

  00028	50		 push	 eax
; File D:\_m2work\Server Client TMP4\ClientVS22\extern\include\d3dx8math.inl

; 181  :     y = fy;

  00029	f3 0f 11 45 e8	 movss	 DWORD PTR _vtDir$[ebp+4], xmm0
; File D:\_m2work\Server Client TMP4\ClientVS22\source\UserInterface\InstanceBaseBattle.cpp

; 24   : 	D3DXVec3Normalize(&vtDirNormal, &vtDir);

  0002e	8d 45 f0	 lea	 eax, DWORD PTR _vtDirNormal$[ebp]
; File D:\_m2work\Server Client TMP4\ClientVS22\extern\include\d3dx8math.inl

; 182  :     z = fz;

  00031	f3 0f 10 41 08	 movss	 xmm0, DWORD PTR [ecx+8]
; File D:\_m2work\Server Client TMP4\ClientVS22\source\UserInterface\InstanceBaseBattle.cpp

; 24   : 	D3DXVec3Normalize(&vtDirNormal, &vtDir);

  00036	50		 push	 eax
; File D:\_m2work\Server Client TMP4\ClientVS22\extern\include\d3dx8math.inl

; 182  :     z = fz;

  00037	f3 0f 11 45 ec	 movss	 DWORD PTR _vtDir$[ebp+8], xmm0
; File D:\_m2work\Server Client TMP4\ClientVS22\source\UserInterface\InstanceBaseBattle.cpp

; 24   : 	D3DXVec3Normalize(&vtDirNormal, &vtDir);

  0003c	e8 00 00 00 00	 call	 _D3DXVec3Normalize@8
; File D:\_m2work\Server Client TMP4\ClientVS22\extern\include\d3dx8math.inl

; 182  :     z = fz;

  00041	f3 0f 10 45 f4	 movss	 xmm0, DWORD PTR _vtDirNormal$[ebp+4]
  00046	0f 57 d2	 xorps	 xmm2, xmm2

; 1264 :     return pV1->x * pV2->x + pV1->y * pV2->y + pV1->z * pV2->z;

  00049	f3 0f 10 4d f0	 movss	 xmm1, DWORD PTR _vtDirNormal$[ebp]

; 182  :     z = fz;

  0004e	f3 0f 59 05 00
	00 00 00	 mulss	 xmm0, DWORD PTR __real@3f800000
; File D:\_m2work\Server Client TMP4\ClientVS22\source\UserInterface\InstanceBaseBattle.cpp

; 27   : 	float fDirRot = D3DXToDegree(acosf(D3DXVec3Dot(&vtDirNormal, &vtDirNormalStan)));

  00056	51		 push	 ecx
; File D:\_m2work\Server Client TMP4\ClientVS22\extern\include\d3dx8math.inl

; 1264 :     return pV1->x * pV2->x + pV1->y * pV2->y + pV1->z * pV2->z;

  00057	f3 0f 59 ca	 mulss	 xmm1, xmm2
  0005b	f3 0f 5c c8	 subss	 xmm1, xmm0
  0005f	f3 0f 10 45 f8	 movss	 xmm0, DWORD PTR _vtDirNormal$[ebp+8]
  00064	f3 0f 59 c2	 mulss	 xmm0, xmm2
  00068	f3 0f 58 c8	 addss	 xmm1, xmm0
; File D:\_m2work\Server Client TMP4\ClientVS22\source\UserInterface\InstanceBaseBattle.cpp

; 27   : 	float fDirRot = D3DXToDegree(acosf(D3DXVec3Dot(&vtDirNormal, &vtDirNormalStan)));

  0006c	f3 0f 11 0c 24	 movss	 DWORD PTR [esp], xmm1
  00071	e8 00 00 00 00	 call	 _acosf
  00076	d8 0d 00 00 00
	00		 fmul	 DWORD PTR __real@42652ee0
  0007c	0f 57 c0	 xorps	 xmm0, xmm0
  0007f	83 c4 04	 add	 esp, 4

; 28   : 
; 29   : 	if (vtDirNormal.x<0.0f)

  00082	0f 2f 45 f0	 comiss	 xmm0, DWORD PTR _vtDirNormal$[ebp]
  00086	d9 5d e0	 fstp	 DWORD PTR _fDirRot$[ebp]
  00089	f3 0f 10 45 e0	 movss	 xmm0, DWORD PTR _fDirRot$[ebp]
  0008e	76 07		 jbe	 SHORT $LN2@NEW_GetSig

; 30   : 		fDirRot=-fDirRot;

  00090	0f 57 05 00 00
	00 00		 xorps	 xmm0, DWORD PTR __xmm@80000000800000008000000080000000
$LN2@NEW_GetSig:

; 31   : 
; 32   : 	return fDirRot;
; 33   : }

  00097	8b 4d fc	 mov	 ecx, DWORD PTR __$ArrayPad$[ebp]
  0009a	33 cd		 xor	 ecx, ebp
  0009c	e8 00 00 00 00	 call	 @__security_check_cookie@4
  000a1	8b e5		 mov	 esp, ebp
  000a3	5d		 pop	 ebp
  000a4	c3		 ret	 0
?NEW_GetSignedDegreeFromDirPixelPosition@@YAMABUD3DXVECTOR3@@@Z ENDP ; NEW_GetSignedDegreeFromDirPixelPosition
_TEXT	ENDS
; Function compile flags: /Ogtp
; File D:\_m2work\Server Client TMP4\ClientVS22\source\UserInterface\InstanceBaseBattle.cpp
;	COMDAT ?IsFlyTargetObject@CInstanceBase@@QAE_NXZ
_TEXT	SEGMENT
?IsFlyTargetObject@CInstanceBase@@QAE_NXZ PROC		; CInstanceBase::IsFlyTargetObject, COMDAT
; _this$ = ecx

; 37   : 	return m_GraphicThingInstance.IsFlyTargetObject();

  00000	81 c1 d4 01 00
	00		 add	 ecx, 468		; 000001d4H
  00006	e9 00 00 00 00	 jmp	 ?IsFlyTargetObject@CActorInstance@@QAE_NXZ ; CActorInstance::IsFlyTargetObject
?IsFlyTargetObject@CInstanceBase@@QAE_NXZ ENDP		; CInstanceBase::IsFlyTargetObject
_TEXT	ENDS
; Function compile flags: /Ogtp
; File D:\_m2work\Server Client TMP4\ClientVS22\source\UserInterface\InstanceBaseBattle.cpp
;	COMDAT ?ClearFlyTargetInstance@CInstanceBase@@QAEXXZ
_TEXT	SEGMENT
?ClearFlyTargetInstance@CInstanceBase@@QAEXXZ PROC	; CInstanceBase::ClearFlyTargetInstance, COMDAT
; _this$ = ecx

; 47   : 	m_GraphicThingInstance.ClearFlyTarget();

  00000	81 c1 d4 01 00
	00		 add	 ecx, 468		; 000001d4H
  00006	e9 00 00 00 00	 jmp	 ?ClearFlyTarget@CActorInstance@@QAEXXZ ; CActorInstance::ClearFlyTarget
?ClearFlyTargetInstance@CInstanceBase@@QAEXXZ ENDP	; CInstanceBase::ClearFlyTargetInstance
_TEXT	ENDS
; Function compile flags: /Ogtp
; File D:\_m2work\Server Client TMP4\ClientVS22\source\UserInterface\InstanceBaseBattle.cpp
;	COMDAT ?SetFlyTargetInstance@CInstanceBase@@QAEXAAV1@@Z
_TEXT	SEGMENT
$T2 = -40						; size = 24
__$ArrayPad$ = -16					; size = 4
__$EHRec$ = -12						; size = 12
_rkInstDst$ = 8						; size = 4
?SetFlyTargetInstance@CInstanceBase@@QAEXAAV1@@Z PROC	; CInstanceBase::SetFlyTargetInstance, COMDAT
; _this$ = ecx

; 51   : {

  00000	55		 push	 ebp
  00001	8b ec		 mov	 ebp, esp
  00003	6a ff		 push	 -1
  00005	68 00 00 00 00	 push	 __ehhandler$?SetFlyTargetInstance@CInstanceBase@@QAEXAAV1@@Z
  0000a	64 a1 00 00 00
	00		 mov	 eax, DWORD PTR fs:0
  00010	50		 push	 eax
  00011	83 ec 1c	 sub	 esp, 28			; 0000001cH
  00014	a1 00 00 00 00	 mov	 eax, DWORD PTR ___security_cookie
  00019	33 c5		 xor	 eax, ebp
  0001b	89 45 f0	 mov	 DWORD PTR __$ArrayPad$[ebp], eax
  0001e	56		 push	 esi
  0001f	50		 push	 eax
  00020	8d 45 f4	 lea	 eax, DWORD PTR __$EHRec$[ebp]
  00023	64 a3 00 00 00
	00		 mov	 DWORD PTR fs:0, eax
  00029	8b f1		 mov	 esi, ecx
  0002b	8b 4d 08	 mov	 ecx, DWORD PTR _rkInstDst$[ebp]

; 52   : // NOTE : NEW_Attack  Target     - [levites]
; 53   : //	if (isLock())
; 54   : //		return;
; 55   : 
; 56   : 	m_GraphicThingInstance.SetFlyTarget(rkInstDst.GetGraphicThingInstancePtr());

  0002e	e8 00 00 00 00	 call	 ?GetGraphicThingInstancePtr@CInstanceBase@@QAEPAVCActorInstance@@XZ ; CInstanceBase::GetGraphicThingInstancePtr
  00033	8d 4d d8	 lea	 ecx, DWORD PTR $T2[ebp]
  00036	8d 90 dc 01 00
	00		 lea	 edx, DWORD PTR [eax+476]
  0003c	f7 d8		 neg	 eax
  0003e	1b c0		 sbb	 eax, eax
  00040	23 c2		 and	 eax, edx
  00042	50		 push	 eax
  00043	e8 00 00 00 00	 call	 ??0CFlyTarget@@QAE@PAVIFlyTargetableObject@@@Z ; CFlyTarget::CFlyTarget
  00048	8d 45 d8	 lea	 eax, DWORD PTR $T2[ebp]
  0004b	c7 45 fc 00 00
	00 00		 mov	 DWORD PTR __$EHRec$[ebp+8], 0
  00052	50		 push	 eax
  00053	8d 8e d4 01 00
	00		 lea	 ecx, DWORD PTR [esi+468]
  00059	e8 00 00 00 00	 call	 ?SetFlyTarget@CActorInstance@@QAEXABVCFlyTarget@@@Z ; CActorInstance::SetFlyTarget
  0005e	8d 4d d8	 lea	 ecx, DWORD PTR $T2[ebp]
  00061	e8 00 00 00 00	 call	 ??1CFlyTarget@@UAE@XZ	; CFlyTarget::~CFlyTarget

; 57   : }

  00066	8b 4d f4	 mov	 ecx, DWORD PTR __$EHRec$[ebp]
  00069	64 89 0d 00 00
	00 00		 mov	 DWORD PTR fs:0, ecx
  00070	59		 pop	 ecx
  00071	5e		 pop	 esi
  00072	8b 4d f0	 mov	 ecx, DWORD PTR __$ArrayPad$[ebp]
  00075	33 cd		 xor	 ecx, ebp
  00077	e8 00 00 00 00	 call	 @__security_check_cookie@4
  0007c	8b e5		 mov	 esp, ebp
  0007e	5d		 pop	 ebp
  0007f	c2 04 00	 ret	 4
_TEXT	ENDS
;	COMDAT text$x
text$x	SEGMENT
__unwindfunclet$?SetFlyTargetInstance@CInstanceBase@@QAEXAAV1@@Z$0:
  00000	8d 4d d8	 lea	 ecx, DWORD PTR $T2[ebp]
  00003	e9 00 00 00 00	 jmp	 ??1CFlyTarget@@UAE@XZ	; CFlyTarget::~CFlyTarget
  00008	cc		 int	 3
  00009	cc		 int	 3
  0000a	cc		 int	 3
  0000b	cc		 int	 3
  0000c	cc		 int	 3
__ehhandler$?SetFlyTargetInstance@CInstanceBase@@QAEXAAV1@@Z:
  0000d	90		 npad	 1
  0000e	90		 npad	 1
  0000f	8b 54 24 08	 mov	 edx, DWORD PTR [esp+8]
  00013	8d 42 0c	 lea	 eax, DWORD PTR [edx+12]
  00016	8b 4a dc	 mov	 ecx, DWORD PTR [edx-36]
  00019	33 c8		 xor	 ecx, eax
  0001b	e8 00 00 00 00	 call	 @__security_check_cookie@4
  00020	8b 4a fc	 mov	 ecx, DWORD PTR [edx-4]
  00023	33 c8		 xor	 ecx, eax
  00025	e8 00 00 00 00	 call	 @__security_check_cookie@4
  0002a	b8 00 00 00 00	 mov	 eax, OFFSET __ehfuncinfo$?SetFlyTargetInstance@CInstanceBase@@QAEXAAV1@@Z
  0002f	e9 00 00 00 00	 jmp	 ___CxxFrameHandler3
text$x	ENDS
?SetFlyTargetInstance@CInstanceBase@@QAEXAAV1@@Z ENDP	; CInstanceBase::SetFlyTargetInstance
; Function compile flags: /Ogtp
; File D:\_m2work\Server Client TMP4\ClientVS22\source\UserInterface\InstanceBaseBattle.cpp
;	COMDAT ?AddFlyTargetPosition@CInstanceBase@@QAEXABUD3DXVECTOR3@@@Z
_TEXT	SEGMENT
$T2 = -40						; size = 24
__$ArrayPad$ = -16					; size = 4
__$EHRec$ = -12						; size = 12
_c_rkPPosDst$ = 8					; size = 4
?AddFlyTargetPosition@CInstanceBase@@QAEXABUD3DXVECTOR3@@@Z PROC ; CInstanceBase::AddFlyTargetPosition, COMDAT
; _this$ = ecx

; 60   : {

  00000	55		 push	 ebp
  00001	8b ec		 mov	 ebp, esp
  00003	6a ff		 push	 -1
  00005	68 00 00 00 00	 push	 __ehhandler$?AddFlyTargetPosition@CInstanceBase@@QAEXABUD3DXVECTOR3@@@Z
  0000a	64 a1 00 00 00
	00		 mov	 eax, DWORD PTR fs:0
  00010	50		 push	 eax
  00011	83 ec 1c	 sub	 esp, 28			; 0000001cH
  00014	a1 00 00 00 00	 mov	 eax, DWORD PTR ___security_cookie
  00019	33 c5		 xor	 eax, ebp
  0001b	89 45 f0	 mov	 DWORD PTR __$ArrayPad$[ebp], eax
  0001e	56		 push	 esi
  0001f	50		 push	 eax
  00020	8d 45 f4	 lea	 eax, DWORD PTR __$EHRec$[ebp]
  00023	64 a3 00 00 00
	00		 mov	 DWORD PTR fs:0, eax
  00029	8b 45 08	 mov	 eax, DWORD PTR _c_rkPPosDst$[ebp]

; 61   : 	m_GraphicThingInstance.AddFlyTarget(c_rkPPosDst);

  0002c	8d b1 d4 01 00
	00		 lea	 esi, DWORD PTR [ecx+468]
  00032	50		 push	 eax
  00033	8d 4d d8	 lea	 ecx, DWORD PTR $T2[ebp]
  00036	e8 00 00 00 00	 call	 ??0CFlyTarget@@QAE@ABUD3DXVECTOR3@@@Z ; CFlyTarget::CFlyTarget
  0003b	8d 45 d8	 lea	 eax, DWORD PTR $T2[ebp]
  0003e	c7 45 fc 00 00
	00 00		 mov	 DWORD PTR __$EHRec$[ebp+8], 0
  00045	50		 push	 eax
  00046	8b ce		 mov	 ecx, esi
  00048	e8 00 00 00 00	 call	 ?AddFlyTarget@CActorInstance@@QAEXABVCFlyTarget@@@Z ; CActorInstance::AddFlyTarget
  0004d	8d 4d d8	 lea	 ecx, DWORD PTR $T2[ebp]
  00050	e8 00 00 00 00	 call	 ??1CFlyTarget@@UAE@XZ	; CFlyTarget::~CFlyTarget

; 62   : }

  00055	8b 4d f4	 mov	 ecx, DWORD PTR __$EHRec$[ebp]
  00058	64 89 0d 00 00
	00 00		 mov	 DWORD PTR fs:0, ecx
  0005f	59		 pop	 ecx
  00060	5e		 pop	 esi
  00061	8b 4d f0	 mov	 ecx, DWORD PTR __$ArrayPad$[ebp]
  00064	33 cd		 xor	 ecx, ebp
  00066	e8 00 00 00 00	 call	 @__security_check_cookie@4
  0006b	8b e5		 mov	 esp, ebp
  0006d	5d		 pop	 ebp
  0006e	c2 04 00	 ret	 4
_TEXT	ENDS
;	COMDAT text$x
text$x	SEGMENT
__unwindfunclet$?AddFlyTargetPosition@CInstanceBase@@QAEXABUD3DXVECTOR3@@@Z$0:
  00000	8d 4d d8	 lea	 ecx, DWORD PTR $T2[ebp]
  00003	e9 00 00 00 00	 jmp	 ??1CFlyTarget@@UAE@XZ	; CFlyTarget::~CFlyTarget
  00008	cc		 int	 3
  00009	cc		 int	 3
  0000a	cc		 int	 3
  0000b	cc		 int	 3
  0000c	cc		 int	 3
__ehhandler$?AddFlyTargetPosition@CInstanceBase@@QAEXABUD3DXVECTOR3@@@Z:
  0000d	90		 npad	 1
  0000e	90		 npad	 1
  0000f	8b 54 24 08	 mov	 edx, DWORD PTR [esp+8]
  00013	8d 42 0c	 lea	 eax, DWORD PTR [edx+12]
  00016	8b 4a dc	 mov	 ecx, DWORD PTR [edx-36]
  00019	33 c8		 xor	 ecx, eax
  0001b	e8 00 00 00 00	 call	 @__security_check_cookie@4
  00020	8b 4a fc	 mov	 ecx, DWORD PTR [edx-4]
  00023	33 c8		 xor	 ecx, eax
  00025	e8 00 00 00 00	 call	 @__security_check_cookie@4
  0002a	b8 00 00 00 00	 mov	 eax, OFFSET __ehfuncinfo$?AddFlyTargetPosition@CInstanceBase@@QAEXABUD3DXVECTOR3@@@Z
  0002f	e9 00 00 00 00	 jmp	 ___CxxFrameHandler3
text$x	ENDS
?AddFlyTargetPosition@CInstanceBase@@QAEXABUD3DXVECTOR3@@@Z ENDP ; CInstanceBase::AddFlyTargetPosition
; Function compile flags: /Ogtp
; File D:\_m2work\Server Client TMP4\ClientVS22\source\UserInterface\InstanceBaseBattle.cpp
;	COMDAT ?AddFlyTargetInstance@CInstanceBase@@QAEXAAV1@@Z
_TEXT	SEGMENT
$T2 = -40						; size = 24
__$ArrayPad$ = -16					; size = 4
__$EHRec$ = -12						; size = 12
_rkInstDst$ = 8						; size = 4
?AddFlyTargetInstance@CInstanceBase@@QAEXAAV1@@Z PROC	; CInstanceBase::AddFlyTargetInstance, COMDAT
; _this$ = ecx

; 65   : {

  00000	55		 push	 ebp
  00001	8b ec		 mov	 ebp, esp
  00003	6a ff		 push	 -1
  00005	68 00 00 00 00	 push	 __ehhandler$?AddFlyTargetInstance@CInstanceBase@@QAEXAAV1@@Z
  0000a	64 a1 00 00 00
	00		 mov	 eax, DWORD PTR fs:0
  00010	50		 push	 eax
  00011	83 ec 1c	 sub	 esp, 28			; 0000001cH
  00014	a1 00 00 00 00	 mov	 eax, DWORD PTR ___security_cookie
  00019	33 c5		 xor	 eax, ebp
  0001b	89 45 f0	 mov	 DWORD PTR __$ArrayPad$[ebp], eax
  0001e	56		 push	 esi
  0001f	50		 push	 eax
  00020	8d 45 f4	 lea	 eax, DWORD PTR __$EHRec$[ebp]
  00023	64 a3 00 00 00
	00		 mov	 DWORD PTR fs:0, eax
  00029	8b f1		 mov	 esi, ecx
  0002b	8b 4d 08	 mov	 ecx, DWORD PTR _rkInstDst$[ebp]

; 66   : 	m_GraphicThingInstance.AddFlyTarget(rkInstDst.GetGraphicThingInstancePtr());

  0002e	e8 00 00 00 00	 call	 ?GetGraphicThingInstancePtr@CInstanceBase@@QAEPAVCActorInstance@@XZ ; CInstanceBase::GetGraphicThingInstancePtr
  00033	8d 4d d8	 lea	 ecx, DWORD PTR $T2[ebp]
  00036	8d 90 dc 01 00
	00		 lea	 edx, DWORD PTR [eax+476]
  0003c	f7 d8		 neg	 eax
  0003e	1b c0		 sbb	 eax, eax
  00040	23 c2		 and	 eax, edx
  00042	50		 push	 eax
  00043	e8 00 00 00 00	 call	 ??0CFlyTarget@@QAE@PAVIFlyTargetableObject@@@Z ; CFlyTarget::CFlyTarget
  00048	8d 45 d8	 lea	 eax, DWORD PTR $T2[ebp]
  0004b	c7 45 fc 00 00
	00 00		 mov	 DWORD PTR __$EHRec$[ebp+8], 0
  00052	50		 push	 eax
  00053	8d 8e d4 01 00
	00		 lea	 ecx, DWORD PTR [esi+468]
  00059	e8 00 00 00 00	 call	 ?AddFlyTarget@CActorInstance@@QAEXABVCFlyTarget@@@Z ; CActorInstance::AddFlyTarget
  0005e	8d 4d d8	 lea	 ecx, DWORD PTR $T2[ebp]
  00061	e8 00 00 00 00	 call	 ??1CFlyTarget@@UAE@XZ	; CFlyTarget::~CFlyTarget

; 67   : }

  00066	8b 4d f4	 mov	 ecx, DWORD PTR __$EHRec$[ebp]
  00069	64 89 0d 00 00
	00 00		 mov	 DWORD PTR fs:0, ecx
  00070	59		 pop	 ecx
  00071	5e		 pop	 esi
  00072	8b 4d f0	 mov	 ecx, DWORD PTR __$ArrayPad$[ebp]
  00075	33 cd		 xor	 ecx, ebp
  00077	e8 00 00 00 00	 call	 @__security_check_cookie@4
  0007c	8b e5		 mov	 esp, ebp
  0007e	5d		 pop	 ebp
  0007f	c2 04 00	 ret	 4
_TEXT	ENDS
;	COMDAT text$x
text$x	SEGMENT
__unwindfunclet$?AddFlyTargetInstance@CInstanceBase@@QAEXAAV1@@Z$0:
  00000	8d 4d d8	 lea	 ecx, DWORD PTR $T2[ebp]
  00003	e9 00 00 00 00	 jmp	 ??1CFlyTarget@@UAE@XZ	; CFlyTarget::~CFlyTarget
  00008	cc		 int	 3
  00009	cc		 int	 3
  0000a	cc		 int	 3
  0000b	cc		 int	 3
  0000c	cc		 int	 3
__ehhandler$?AddFlyTargetInstance@CInstanceBase@@QAEXAAV1@@Z:
  0000d	90		 npad	 1
  0000e	90		 npad	 1
  0000f	8b 54 24 08	 mov	 edx, DWORD PTR [esp+8]
  00013	8d 42 0c	 lea	 eax, DWORD PTR [edx+12]
  00016	8b 4a dc	 mov	 ecx, DWORD PTR [edx-36]
  00019	33 c8		 xor	 ecx, eax
  0001b	e8 00 00 00 00	 call	 @__security_check_cookie@4
  00020	8b 4a fc	 mov	 ecx, DWORD PTR [edx-4]
  00023	33 c8		 xor	 ecx, eax
  00025	e8 00 00 00 00	 call	 @__security_check_cookie@4
  0002a	b8 00 00 00 00	 mov	 eax, OFFSET __ehfuncinfo$?AddFlyTargetInstance@CInstanceBase@@QAEXAAV1@@Z
  0002f	e9 00 00 00 00	 jmp	 ___CxxFrameHandler3
text$x	ENDS
?AddFlyTargetInstance@CInstanceBase@@QAEXAAV1@@Z ENDP	; CInstanceBase::AddFlyTargetInstance
; Function compile flags: /Ogtp
; File D:\_m2work\Server Client TMP4\ClientVS22\source\UserInterface\InstanceBaseBattle.cpp
;	COMDAT ?NEW_GetDistanceFromDirPixelPosition@CInstanceBase@@QAEMABUD3DXVECTOR3@@@Z
_TEXT	SEGMENT
_c_rkPPosDir$ = 8					; size = 4
tv137 = 8						; size = 4
?NEW_GetDistanceFromDirPixelPosition@CInstanceBase@@QAEMABUD3DXVECTOR3@@@Z PROC ; CInstanceBase::NEW_GetDistanceFromDirPixelPosition, COMDAT
; _this$dead$ = ecx

; 90   : {

  00000	55		 push	 ebp
  00001	8b ec		 mov	 ebp, esp
  00003	51		 push	 ecx

; 91   : 	return sqrtf(c_rkPPosDir.x*c_rkPPosDir.x+c_rkPPosDir.y*c_rkPPosDir.y);

  00004	8b 45 08	 mov	 eax, DWORD PTR _c_rkPPosDir$[ebp]
  00007	51		 push	 ecx
  00008	f3 0f 10 48 04	 movss	 xmm1, DWORD PTR [eax+4]
  0000d	f3 0f 10 00	 movss	 xmm0, DWORD PTR [eax]
  00011	f3 0f 59 c0	 mulss	 xmm0, xmm0
  00015	f3 0f 59 c9	 mulss	 xmm1, xmm1
  00019	f3 0f 58 c1	 addss	 xmm0, xmm1
  0001d	f3 0f 11 04 24	 movss	 DWORD PTR [esp], xmm0
  00022	e8 00 00 00 00	 call	 _sqrtf
  00027	d9 5d 08	 fstp	 DWORD PTR tv137[ebp]
  0002a	f3 0f 10 45 08	 movss	 xmm0, DWORD PTR tv137[ebp]
  0002f	83 c4 04	 add	 esp, 4

; 92   : }

  00032	59		 pop	 ecx
  00033	5d		 pop	 ebp
  00034	c2 04 00	 ret	 4
?NEW_GetDistanceFromDirPixelPosition@CInstanceBase@@QAEMABUD3DXVECTOR3@@@Z ENDP ; CInstanceBase::NEW_GetDistanceFromDirPixelPosition
_TEXT	ENDS
; Function compile flags: /Ogtp
; File D:\_m2work\Server Client TMP4\ClientVS22\source\UserInterface\InstanceBaseBattle.cpp
;	COMDAT ?NEW_GetRotation@CInstanceBase@@QAEMXZ
_TEXT	SEGMENT
?NEW_GetRotation@CInstanceBase@@QAEMXZ PROC		; CInstanceBase::NEW_GetRotation, COMDAT
; _this$ = ecx

; 96   : 	float fCurRot=GetRotation();

  00000	e8 00 00 00 00	 call	 ?GetRotation@CInstanceBase@@QAEMXZ ; CInstanceBase::GetRotation

; 97   : 	return NEW_UnsignedDegreeToSignedDegree(fCurRot);

  00005	e9 00 00 00 00	 jmp	 ?NEW_UnsignedDegreeToSignedDegree@@YAMM@Z ; NEW_UnsignedDegreeToSignedDegree
?NEW_GetRotation@CInstanceBase@@QAEMXZ ENDP		; CInstanceBase::NEW_GetRotation
_TEXT	ENDS
; Function compile flags: /Ogtp
; File D:\_m2work\Server Client TMP4\ClientVS22\source\UserInterface\InstanceBaseBattle.cpp
;	COMDAT ?NEW_GetRotationFromDirPixelPosition@CInstanceBase@@QAEMABUD3DXVECTOR3@@@Z
_TEXT	SEGMENT
_c_rkPPosDir$ = 8					; size = 4
?NEW_GetRotationFromDirPixelPosition@CInstanceBase@@QAEMABUD3DXVECTOR3@@@Z PROC ; CInstanceBase::NEW_GetRotationFromDirPixelPosition, COMDAT
; _this$dead$ = ecx

; 101  : {

  00000	55		 push	 ebp
  00001	8b ec		 mov	 ebp, esp

; 102  : 	return NEW_GetSignedDegreeFromDirPixelPosition(c_rkPPosDir);

  00003	8b 4d 08	 mov	 ecx, DWORD PTR _c_rkPPosDir$[ebp]
  00006	e8 00 00 00 00	 call	 ?NEW_GetSignedDegreeFromDirPixelPosition@@YAMABUD3DXVECTOR3@@@Z ; NEW_GetSignedDegreeFromDirPixelPosition

; 103  : }

  0000b	5d		 pop	 ebp
  0000c	c2 04 00	 ret	 4
?NEW_GetRotationFromDirPixelPosition@CInstanceBase@@QAEMABUD3DXVECTOR3@@@Z ENDP ; CInstanceBase::NEW_GetRotationFromDirPixelPosition
_TEXT	ENDS
; Function compile flags: /Ogtp
; File D:\_m2work\Server Client TMP4\ClientVS22\source\UserInterface\InstanceBaseBattle.cpp
; File D:\_m2work\Server Client TMP4\ClientVS22\extern\include\d3dx8math.inl
; File D:\_m2work\Server Client TMP4\ClientVS22\source\UserInterface\InstanceBaseBattle.cpp
; File D:\_m2work\Server Client TMP4\ClientVS22\extern\include\d3dx8math.inl
; File D:\_m2work\Server Client TMP4\ClientVS22\source\UserInterface\InstanceBaseBattle.cpp
; File D:\_m2work\Server Client TMP4\ClientVS22\extern\include\d3dx8math.inl
; File D:\_m2work\Server Client TMP4\ClientVS22\source\UserInterface\InstanceBaseBattle.cpp
; File D:\_m2work\Server Client TMP4\ClientVS22\extern\include\d3dx8math.inl
; File D:\_m2work\Server Client TMP4\ClientVS22\source\UserInterface\InstanceBaseBattle.cpp
;	COMDAT ?NEW_GetRotationFromDestPixelPosition@CInstanceBase@@QAEMABUD3DXVECTOR3@@@Z
_TEXT	SEGMENT
_kPPosDir$ = -24					; size = 12
_kPPosCur$ = -12					; size = 12
_c_rkPPosDst$ = 8					; size = 4
?NEW_GetRotationFromDestPixelPosition@CInstanceBase@@QAEMABUD3DXVECTOR3@@@Z PROC ; CInstanceBase::NEW_GetRotationFromDestPixelPosition, COMDAT
; _this$ = ecx

; 106  : {

  00000	55		 push	 ebp
  00001	8b ec		 mov	 ebp, esp
  00003	83 ec 18	 sub	 esp, 24			; 00000018H

; 107  : 	TPixelPosition kPPosCur;
; 108  : 	NEW_GetPixelPosition(&kPPosCur);

  00006	8d 45 f4	 lea	 eax, DWORD PTR _kPPosCur$[ebp]
  00009	50		 push	 eax
  0000a	e8 00 00 00 00	 call	 ?NEW_GetPixelPosition@CInstanceBase@@QAEXPAUD3DXVECTOR3@@@Z ; CInstanceBase::NEW_GetPixelPosition
; File D:\_m2work\Server Client TMP4\ClientVS22\extern\include\d3dx8math.inl

; 263  :     return D3DXVECTOR3(x - v.x, y - v.y, z - v.z);

  0000f	8b 45 08	 mov	 eax, DWORD PTR _c_rkPPosDst$[ebp]
  00012	f3 0f 10 00	 movss	 xmm0, DWORD PTR [eax]
  00016	f3 0f 5c 45 f4	 subss	 xmm0, DWORD PTR _kPPosCur$[ebp]
; File D:\_m2work\Server Client TMP4\ClientVS22\source\UserInterface\InstanceBaseBattle.cpp

; 111  : 	kPPosDir=c_rkPPosDst-kPPosCur;

  0001b	f3 0f 11 45 e8	 movss	 DWORD PTR _kPPosDir$[ebp], xmm0
; File D:\_m2work\Server Client TMP4\ClientVS22\extern\include\d3dx8math.inl

; 263  :     return D3DXVECTOR3(x - v.x, y - v.y, z - v.z);

  00020	f3 0f 10 40 04	 movss	 xmm0, DWORD PTR [eax+4]
  00025	f3 0f 5c 45 f8	 subss	 xmm0, DWORD PTR _kPPosCur$[ebp+4]
; File D:\_m2work\Server Client TMP4\ClientVS22\source\UserInterface\InstanceBaseBattle.cpp

; 111  : 	kPPosDir=c_rkPPosDst-kPPosCur;

  0002a	f3 0f 11 45 ec	 movss	 DWORD PTR _kPPosDir$[ebp+4], xmm0
; File D:\_m2work\Server Client TMP4\ClientVS22\extern\include\d3dx8math.inl

; 263  :     return D3DXVECTOR3(x - v.x, y - v.y, z - v.z);

  0002f	f3 0f 10 40 08	 movss	 xmm0, DWORD PTR [eax+8]
; File D:\_m2work\Server Client TMP4\ClientVS22\source\UserInterface\InstanceBaseBattle.cpp

; 113  : 	return NEW_GetRotationFromDirPixelPosition(kPPosDir);

  00034	8d 45 e8	 lea	 eax, DWORD PTR _kPPosDir$[ebp]
; File D:\_m2work\Server Client TMP4\ClientVS22\extern\include\d3dx8math.inl

; 263  :     return D3DXVECTOR3(x - v.x, y - v.y, z - v.z);

  00037	f3 0f 5c 45 fc	 subss	 xmm0, DWORD PTR _kPPosCur$[ebp+8]
; File D:\_m2work\Server Client TMP4\ClientVS22\source\UserInterface\InstanceBaseBattle.cpp

; 113  : 	return NEW_GetRotationFromDirPixelPosition(kPPosDir);

  0003c	50		 push	 eax
  0003d	f3 0f 11 45 f0	 movss	 DWORD PTR _kPPosDir$[ebp+8], xmm0
  00042	e8 00 00 00 00	 call	 ?NEW_GetRotationFromDirPixelPosition@CInstanceBase@@QAEMABUD3DXVECTOR3@@@Z ; CInstanceBase::NEW_GetRotationFromDirPixelPosition

; 114  : }

  00047	8b e5		 mov	 esp, ebp
  00049	5d		 pop	 ebp
  0004a	c2 04 00	 ret	 4
?NEW_GetRotationFromDestPixelPosition@CInstanceBase@@QAEMABUD3DXVECTOR3@@@Z ENDP ; CInstanceBase::NEW_GetRotationFromDestPixelPosition
_TEXT	ENDS
; Function compile flags: /Ogtp
; File D:\_m2work\Server Client TMP4\ClientVS22\source\UserInterface\InstanceBaseBattle.cpp
;	COMDAT ?NEW_GetRotationFromDestInstance@CInstanceBase@@QAEMAAV1@@Z
_TEXT	SEGMENT
_kPPosDst$ = -12					; size = 12
_rkInstDst$ = 8						; size = 4
?NEW_GetRotationFromDestInstance@CInstanceBase@@QAEMAAV1@@Z PROC ; CInstanceBase::NEW_GetRotationFromDestInstance, COMDAT
; _this$ = ecx

; 117  : {

  00000	55		 push	 ebp
  00001	8b ec		 mov	 ebp, esp
  00003	83 ec 0c	 sub	 esp, 12			; 0000000cH

; 118  : 	TPixelPosition kPPosDst;
; 119  : 	rkInstDst.NEW_GetPixelPosition(&kPPosDst);

  00006	8d 45 f4	 lea	 eax, DWORD PTR _kPPosDst$[ebp]
  00009	56		 push	 esi
  0000a	8b f1		 mov	 esi, ecx
  0000c	8b 4d 08	 mov	 ecx, DWORD PTR _rkInstDst$[ebp]
  0000f	50		 push	 eax
  00010	e8 00 00 00 00	 call	 ?NEW_GetPixelPosition@CInstanceBase@@QAEXPAUD3DXVECTOR3@@@Z ; CInstanceBase::NEW_GetPixelPosition

; 120  : 
; 121  : 	return NEW_GetRotationFromDestPixelPosition(kPPosDst);

  00015	8d 45 f4	 lea	 eax, DWORD PTR _kPPosDst$[ebp]
  00018	8b ce		 mov	 ecx, esi
  0001a	50		 push	 eax
  0001b	e8 00 00 00 00	 call	 ?NEW_GetRotationFromDestPixelPosition@CInstanceBase@@QAEMABUD3DXVECTOR3@@@Z ; CInstanceBase::NEW_GetRotationFromDestPixelPosition
  00020	5e		 pop	 esi

; 122  : }

  00021	8b e5		 mov	 esp, ebp
  00023	5d		 pop	 ebp
  00024	c2 04 00	 ret	 4
?NEW_GetRotationFromDestInstance@CInstanceBase@@QAEMAAV1@@Z ENDP ; CInstanceBase::NEW_GetRotationFromDestInstance
_TEXT	ENDS
; Function compile flags: /Ogtp
; File D:\_m2work\Server Client TMP4\ClientVS22\source\UserInterface\InstanceBaseBattle.cpp
; File D:\_m2work\Server Client TMP4\ClientVS22\extern\include\d3dx8math.inl
; File D:\_m2work\Server Client TMP4\ClientVS22\source\UserInterface\InstanceBaseBattle.cpp
; File D:\_m2work\Server Client TMP4\ClientVS22\extern\include\d3dx8math.inl
; File D:\_m2work\Server Client TMP4\ClientVS22\source\UserInterface\InstanceBaseBattle.cpp
; File D:\_m2work\Server Client TMP4\ClientVS22\extern\include\d3dx8math.inl
; File D:\_m2work\Server Client TMP4\ClientVS22\source\UserInterface\InstanceBaseBattle.cpp
;	COMDAT ?NEW_GetRandomPositionInFanRange@CInstanceBase@@QAEXAAV1@PAUD3DXVECTOR3@@@Z
_TEXT	SEGMENT
_fRot$ = -100						; size = 4
_v3Src$ = -96						; size = 12
_v3Pos$ = -84						; size = 12
_kMatRot$ = -72						; size = 64
__$ArrayPad$ = -4					; size = 4
_rkInstTarget$ = 8					; size = 4
_pkPPosDst$ = 12					; size = 4
?NEW_GetRandomPositionInFanRange@CInstanceBase@@QAEXAAV1@PAUD3DXVECTOR3@@@Z PROC ; CInstanceBase::NEW_GetRandomPositionInFanRange, COMDAT
; _this$ = ecx

; 125  : {

  00000	55		 push	 ebp
  00001	8b ec		 mov	 ebp, esp
  00003	83 e4 f8	 and	 esp, -8			; fffffff8H
  00006	83 ec 68	 sub	 esp, 104		; 00000068H
  00009	a1 00 00 00 00	 mov	 eax, DWORD PTR ___security_cookie
  0000e	33 c4		 xor	 eax, esp
  00010	89 44 24 64	 mov	 DWORD PTR __$ArrayPad$[esp+104], eax
  00014	8b 45 08	 mov	 eax, DWORD PTR _rkInstTarget$[ebp]
  00017	56		 push	 esi
  00018	57		 push	 edi
  00019	8b 7d 0c	 mov	 edi, DWORD PTR _pkPPosDst$[ebp]
  0001c	8b f1		 mov	 esi, ecx

; 126  : 	float fDstDirRot=NEW_GetRotationFromDestInstance(rkInstTarget);	

  0001e	50		 push	 eax
  0001f	e8 00 00 00 00	 call	 ?NEW_GetRotationFromDestInstance@CInstanceBase@@QAEMAAV1@@Z ; CInstanceBase::NEW_GetRotationFromDestInstance

; 127  : 
; 128  : 	float fRot=frandom(fDstDirRot-10.0f, fDstDirRot+10.0f);

  00024	0f 28 c8	 movaps	 xmm1, xmm0
  00027	83 ec 08	 sub	 esp, 8
  0002a	f3 0f 58 0d 00
	00 00 00	 addss	 xmm1, DWORD PTR __real@41200000
  00032	f3 0f 5c 05 00
	00 00 00	 subss	 xmm0, DWORD PTR __real@41200000
  0003a	f3 0f 11 4c 24
	04		 movss	 DWORD PTR [esp+4], xmm1
  00040	f3 0f 11 04 24	 movss	 DWORD PTR [esp], xmm0
  00045	e8 00 00 00 00	 call	 ?frandom@@YAMMM@Z	; frandom
  0004a	d9 5c 24 14	 fstp	 DWORD PTR _fRot$[esp+120]

; 129  : 
; 130  : 	D3DXMATRIX kMatRot;
; 131  : 	D3DXMatrixRotationZ(&kMatRot, D3DXToRadian(-fRot));

  0004e	f3 0f 10 44 24
	14		 movss	 xmm0, DWORD PTR _fRot$[esp+120]
  00054	8d 44 24 30	 lea	 eax, DWORD PTR _kMatRot$[esp+120]
  00058	0f 57 05 00 00
	00 00		 xorps	 xmm0, DWORD PTR __xmm@80000000800000008000000080000000
  0005f	83 c4 04	 add	 esp, 4
  00062	f3 0f 59 05 00
	00 00 00	 mulss	 xmm0, DWORD PTR __real@3c8efa35
  0006a	f3 0f 11 04 24	 movss	 DWORD PTR [esp], xmm0
  0006f	50		 push	 eax
  00070	e8 00 00 00 00	 call	 _D3DXMatrixRotationZ@8

; 135  : 	D3DXVec3TransformCoord(&v3Pos, &v3Src, &kMatRot);

  00075	8d 44 24 28	 lea	 eax, DWORD PTR _kMatRot$[esp+112]
; File D:\_m2work\Server Client TMP4\ClientVS22\extern\include\d3dx8math.inl

; 180  :     x = fx;

  00079	c7 44 24 10 00
	00 00 00	 mov	 DWORD PTR _v3Src$[esp+112], 0
; File D:\_m2work\Server Client TMP4\ClientVS22\source\UserInterface\InstanceBaseBattle.cpp

; 135  : 	D3DXVec3TransformCoord(&v3Pos, &v3Src, &kMatRot);

  00081	50		 push	 eax
  00082	8d 44 24 14	 lea	 eax, DWORD PTR _v3Src$[esp+116]
; File D:\_m2work\Server Client TMP4\ClientVS22\extern\include\d3dx8math.inl

; 181  :     y = fy;

  00086	c7 44 24 18 00
	00 fa 45	 mov	 DWORD PTR _v3Src$[esp+120], 1174011904 ; 45fa0000H
; File D:\_m2work\Server Client TMP4\ClientVS22\source\UserInterface\InstanceBaseBattle.cpp

; 135  : 	D3DXVec3TransformCoord(&v3Pos, &v3Src, &kMatRot);

  0008e	50		 push	 eax
  0008f	8d 44 24 24	 lea	 eax, DWORD PTR _v3Pos$[esp+120]
; File D:\_m2work\Server Client TMP4\ClientVS22\extern\include\d3dx8math.inl

; 182  :     z = fz;

  00093	c7 44 24 20 00
	00 00 00	 mov	 DWORD PTR _v3Src$[esp+128], 0
; File D:\_m2work\Server Client TMP4\ClientVS22\source\UserInterface\InstanceBaseBattle.cpp

; 135  : 	D3DXVec3TransformCoord(&v3Pos, &v3Src, &kMatRot);

  0009b	50		 push	 eax
  0009c	e8 00 00 00 00	 call	 _D3DXVec3TransformCoord@12

; 136  : 
; 137  : 	const TPixelPosition& c_rkPPosCur=NEW_GetCurPixelPositionRef();

  000a1	8b ce		 mov	 ecx, esi
  000a3	e8 00 00 00 00	 call	 ?NEW_GetCurPixelPositionRef@CInstanceBase@@IAEABUD3DXVECTOR3@@XZ ; CInstanceBase::NEW_GetCurPixelPositionRef

; 138  : 	//const TPixelPosition& c_rkPPosFront=rkInstTarget.NEW_GetCurPixelPositionRef();
; 139  : 
; 140  : 	pkPPosDst->x=c_rkPPosCur.x+v3Pos.x;

  000a8	f3 0f 10 44 24
	1c		 movss	 xmm0, DWORD PTR _v3Pos$[esp+112]
  000ae	f3 0f 58 00	 addss	 xmm0, DWORD PTR [eax]
  000b2	f3 0f 11 07	 movss	 DWORD PTR [edi], xmm0

; 141  : 	pkPPosDst->y=c_rkPPosCur.y+v3Pos.y;

  000b6	f3 0f 10 44 24
	20		 movss	 xmm0, DWORD PTR _v3Pos$[esp+116]
  000bc	f3 0f 58 40 04	 addss	 xmm0, DWORD PTR [eax+4]
  000c1	f3 0f 11 47 04	 movss	 DWORD PTR [edi+4], xmm0

; 142  : 	pkPPosDst->z=__GetBackgroundHeight(c_rkPPosCur.x, c_rkPPosCur.y);

  000c6	f3 0f 10 48 04	 movss	 xmm1, DWORD PTR [eax+4]
  000cb	f3 0f 10 00	 movss	 xmm0, DWORD PTR [eax]
  000cf	e8 00 00 00 00	 call	 ?__GetBackgroundHeight@CInstanceBase@@KAMMM@Z ; CInstanceBase::__GetBackgroundHeight

; 143  : }

  000d4	8b 4c 24 6c	 mov	 ecx, DWORD PTR __$ArrayPad$[esp+112]
  000d8	f3 0f 11 47 08	 movss	 DWORD PTR [edi+8], xmm0
  000dd	5f		 pop	 edi
  000de	5e		 pop	 esi
  000df	33 cc		 xor	 ecx, esp
  000e1	e8 00 00 00 00	 call	 @__security_check_cookie@4
  000e6	8b e5		 mov	 esp, ebp
  000e8	5d		 pop	 ebp
  000e9	c2 08 00	 ret	 8
?NEW_GetRandomPositionInFanRange@CInstanceBase@@QAEXAAV1@PAUD3DXVECTOR3@@@Z ENDP ; CInstanceBase::NEW_GetRandomPositionInFanRange
_TEXT	ENDS
; Function compile flags: /Ogtp
; File D:\_m2work\Server Client TMP4\ClientVS22\source\UserInterface\InstanceBaseBattle.cpp
; File C:\Program Files\Microsoft Visual Studio\2022\Community\VC\Tools\MSVC\14.44.35207\include\xmemory
; File D:\_m2work\Server Client TMP4\ClientVS22\source\UserInterface\InstanceBaseBattle.cpp
; File C:\Program Files\Microsoft Visual Studio\2022\Community\VC\Tools\MSVC\14.44.35207\include\xtree
; File C:\Program Files\Microsoft Visual Studio\2022\Community\VC\Tools\MSVC\14.44.35207\include\xmemory
; File C:\Program Files\Microsoft Visual Studio\2022\Community\VC\Tools\MSVC\14.44.35207\include\xtree
; File D:\_m2work\Server Client TMP4\ClientVS22\source\UserInterface\InstanceBaseBattle.cpp
; File C:\Program Files\Microsoft Visual Studio\2022\Community\VC\Tools\MSVC\14.44.35207\include\xtree
; File D:\_m2work\Server Client TMP4\ClientVS22\source\UserInterface\PythonCharacterManager.h
; File D:\_m2work\Server Client TMP4\ClientVS22\source\UserInterface\InstanceBaseBattle.cpp
; File C:\Program Files\Microsoft Visual Studio\2022\Community\VC\Tools\MSVC\14.44.35207\include\utility
; File D:\_m2work\Server Client TMP4\ClientVS22\source\UserInterface\InstanceBaseBattle.cpp
; File C:\Program Files\Microsoft Visual Studio\2022\Community\VC\Tools\MSVC\14.44.35207\include\utility
; File D:\_m2work\Server Client TMP4\ClientVS22\source\UserInterface\InstanceBaseBattle.cpp
; File C:\Program Files\Microsoft Visual Studio\2022\Community\VC\Tools\MSVC\14.44.35207\include\xtree
; File D:\_m2work\Server Client TMP4\ClientVS22\source\UserInterface\PythonCharacterManager.h
; File D:\_m2work\Server Client TMP4\ClientVS22\source\UserInterface\InstanceBaseBattle.cpp
; File C:\Program Files\Microsoft Visual Studio\2022\Community\VC\Tools\MSVC\14.44.35207\include\xtree
; File D:\_m2work\Server Client TMP4\ClientVS22\source\UserInterface\InstanceBaseBattle.cpp
; File C:\Program Files\Microsoft Visual Studio\2022\Community\VC\Tools\MSVC\14.44.35207\include\xtree
; File D:\_m2work\Server Client TMP4\ClientVS22\source\UserInterface\InstanceBaseBattle.cpp
; File C:\Program Files\Microsoft Visual Studio\2022\Community\VC\Tools\MSVC\14.44.35207\include\xtree
; File C:\Program Files\Microsoft Visual Studio\2022\Community\VC\Tools\MSVC\14.44.35207\include\utility
; File C:\Program Files\Microsoft Visual Studio\2022\Community\VC\Tools\MSVC\14.44.35207\include\xmemory
; File C:\Program Files\Microsoft Visual Studio\2022\Community\VC\Tools\MSVC\14.44.35207\include\xtree
; File C:\Program Files\Microsoft Visual Studio\2022\Community\VC\Tools\MSVC\14.44.35207\include\xmemory
; File D:\_m2work\Server Client TMP4\ClientVS22\source\UserInterface\InstanceBaseBattle.cpp
;	COMDAT ?NEW_GetFrontInstance@CInstanceBase@@QAE_NPAPAV1@M@Z
_TEXT	SEGMENT
$T2 = -48						; size = 8
_kMap_pkInstNear$ = -40					; size = 8
$T3 = -32						; size = 4
_fDstRot$1$ = -28					; size = 4
_fDistance$1$ = -24					; size = 4
_i$4 = -20						; size = 4
_fEachInstDistance$1$ = -16				; size = 4
__$EHRec$ = -12						; size = 12
_ppoutTargetInstance$ = 8				; size = 4
?NEW_GetFrontInstance@CInstanceBase@@QAE_NPAPAV1@M@Z PROC ; CInstanceBase::NEW_GetFrontInstance, COMDAT
; _this$ = ecx
; _fDistance$ = xmm2s

; 146  : {

  00000	55		 push	 ebp
  00001	8b ec		 mov	 ebp, esp
  00003	6a ff		 push	 -1
  00005	68 00 00 00 00	 push	 __ehhandler$?NEW_GetFrontInstance@CInstanceBase@@QAE_NPAPAV1@M@Z
  0000a	64 a1 00 00 00
	00		 mov	 eax, DWORD PTR fs:0
  00010	50		 push	 eax
  00011	83 ec 24	 sub	 esp, 36			; 00000024H
  00014	53		 push	 ebx
  00015	56		 push	 esi
  00016	57		 push	 edi
  00017	a1 00 00 00 00	 mov	 eax, DWORD PTR ___security_cookie
  0001c	33 c5		 xor	 eax, ebp
  0001e	50		 push	 eax
  0001f	8d 45 f4	 lea	 eax, DWORD PTR __$EHRec$[ebp]
  00022	64 a3 00 00 00
	00		 mov	 DWORD PTR fs:0, eax
  00028	f3 0f 11 55 e8	 movss	 DWORD PTR _fDistance$1$[ebp], xmm2
  0002d	8b f9		 mov	 edi, ecx

; 152  : 	float fDstRot=NEW_GetRotation();

  0002f	e8 00 00 00 00	 call	 ?NEW_GetRotation@CInstanceBase@@QAEMXZ ; CInstanceBase::NEW_GetRotation
; File C:\Program Files\Microsoft Visual Studio\2022\Community\VC\Tools\MSVC\14.44.35207\include\xmemory

; 136  :         return ::operator new(_Bytes);

  00034	6a 18		 push	 24			; 00000018H
; File D:\_m2work\Server Client TMP4\ClientVS22\source\UserInterface\InstanceBaseBattle.cpp

; 152  : 	float fDstRot=NEW_GetRotation();

  00036	f3 0f 11 45 e4	 movss	 DWORD PTR _fDstRot$1$[ebp], xmm0
; File C:\Program Files\Microsoft Visual Studio\2022\Community\VC\Tools\MSVC\14.44.35207\include\xtree

; 450  :     _Tree_val() noexcept : _Myhead(), _Mysize(0) {}

  0003b	c7 45 d8 00 00
	00 00		 mov	 DWORD PTR _kMap_pkInstNear$[ebp], 0
  00042	c7 45 dc 00 00
	00 00		 mov	 DWORD PTR _kMap_pkInstNear$[ebp+4], 0
; File C:\Program Files\Microsoft Visual Studio\2022\Community\VC\Tools\MSVC\14.44.35207\include\xmemory

; 136  :         return ::operator new(_Bytes);

  00049	e8 00 00 00 00	 call	 ??2@YAPAXI@Z		; operator new

; 256  :         return _Traits::_Allocate(_Bytes);

  0004e	8b d0		 mov	 edx, eax

; 136  :         return ::operator new(_Bytes);

  00050	83 c4 04	 add	 esp, 4
; File C:\Program Files\Microsoft Visual Studio\2022\Community\VC\Tools\MSVC\14.44.35207\include\xtree

; 346  :         _Construct_in_place(_Pnode->_Left, _Pnode);

  00053	89 12		 mov	 DWORD PTR [edx], edx

; 347  :         _Construct_in_place(_Pnode->_Parent, _Pnode);

  00055	89 52 04	 mov	 DWORD PTR [edx+4], edx

; 348  :         _Construct_in_place(_Pnode->_Right, _Pnode);

  00058	89 52 08	 mov	 DWORD PTR [edx+8], edx

; 349  :         _Pnode->_Color = _Black;

  0005b	66 c7 42 0c 01
	01		 mov	 WORD PTR [edx+12], 257	; 00000101H

; 1957 :         _Scary->_Myhead = _Node::_Buyheadnode(_Getal());

  00061	89 55 d8	 mov	 DWORD PTR _kMap_pkInstNear$[ebp], edx
; File D:\_m2work\Server Client TMP4\ClientVS22\source\UserInterface\InstanceBaseBattle.cpp

; 154  : 	std::multimap<float, CInstanceBase*> kMap_pkInstNear;

  00064	c7 45 fc 00 00
	00 00		 mov	 DWORD PTR __$EHRec$[ebp+8], 0

; 155  : 	{
; 156  : 		CPythonCharacterManager& rkChrMgr=CPythonCharacterManager::Instance();

  0006b	8b 1d 00 00 00
	00		 mov	 ebx, DWORD PTR ?ms_singleton@?$CSingleton@VCPythonCharacterManager@@@@0PAVCPythonCharacterManager@@A ; CSingleton<CPythonCharacterManager>::ms_singleton
; File C:\Program Files\Microsoft Visual Studio\2022\Community\VC\Tools\MSVC\14.44.35207\include\xtree

; 1142 :         return iterator(_Scary->_Myhead->_Left, _Scary);

  00071	8b 4b 20	 mov	 ecx, DWORD PTR [ebx+32]

; 37   :     _Tree_unchecked_const_iterator(_Nodeptr _Pnode, const _Mytree* _Plist) noexcept : _Ptr(_Pnode) {

  00074	8b 01		 mov	 eax, DWORD PTR [ecx]
; File D:\_m2work\Server Client TMP4\ClientVS22\source\UserInterface\PythonCharacterManager.h

; 151  : 				m_it = rhs.m_it;

  00076	89 45 ec	 mov	 DWORD PTR _i$4[ebp], eax

; 162  : 				return m_it != rhs.m_it;

  00079	3b c1		 cmp	 eax, ecx
; File D:\_m2work\Server Client TMP4\ClientVS22\source\UserInterface\InstanceBaseBattle.cpp

; 158  : 		for(i = rkChrMgr.CharacterInstanceBegin(); i!=rkChrMgr.CharacterInstanceEnd(); ++i)

  0007b	0f 84 ce 00 00
	00		 je	 $LN3@NEW_GetFro
$LL4@NEW_GetFro:

; 159  : 		{
; 160  : 			CInstanceBase* pkInstEach=*i;

  00081	8b 70 14	 mov	 esi, DWORD PTR [eax+20]

; 161  : 			if (pkInstEach==this)

  00084	3b f7		 cmp	 esi, edi
  00086	0f 84 ac 00 00
	00		 je	 $LN2@NEW_GetFro

; 162  : 				continue;
; 163  : 
; 164  : 			if (!IsAttackableInstance(*pkInstEach))

  0008c	56		 push	 esi
  0008d	8b cf		 mov	 ecx, edi
  0008f	e8 00 00 00 00	 call	 ?IsAttackableInstance@CInstanceBase@@QAE_NAAV1@@Z ; CInstanceBase::IsAttackableInstance
  00094	84 c0		 test	 al, al
  00096	0f 84 9c 00 00
	00		 je	 $LN2@NEW_GetFro

; 165  : 				continue;
; 166  : 
; 167  : 			if (NEW_GetDistanceFromDestInstance(*pkInstEach) > fDistance)

  0009c	56		 push	 esi
  0009d	8b cf		 mov	 ecx, edi
  0009f	e8 00 00 00 00	 call	 ?NEW_GetDistanceFromDestInstance@CInstanceBase@@QAEMAAV1@@Z ; CInstanceBase::NEW_GetDistanceFromDestInstance
  000a4	0f 2f 45 e8	 comiss	 xmm0, DWORD PTR _fDistance$1$[ebp]
  000a8	0f 87 8a 00 00
	00		 ja	 $LN2@NEW_GetFro

; 168  : 				continue;
; 169  : 
; 170  : 			float fEachInstDistance=min(NEW_GetDistanceFromDestInstance(*pkInstEach), HALF_FAN_ROT_MIN_DISTANCE);

  000ae	56		 push	 esi
  000af	8b cf		 mov	 ecx, edi
  000b1	e8 00 00 00 00	 call	 ?NEW_GetDistanceFromDestInstance@CInstanceBase@@QAEMAAV1@@Z ; CInstanceBase::NEW_GetDistanceFromDestInstance
  000b6	f3 0f 10 0d 00
	00 00 00	 movss	 xmm1, DWORD PTR __real@447a0000
  000be	0f 2f c8	 comiss	 xmm1, xmm0
  000c1	76 0f		 jbe	 SHORT $LN11@NEW_GetFro
  000c3	56		 push	 esi
  000c4	8b cf		 mov	 ecx, edi
  000c6	e8 00 00 00 00	 call	 ?NEW_GetDistanceFromDestInstance@CInstanceBase@@QAEMAAV1@@Z ; CInstanceBase::NEW_GetDistanceFromDestInstance
  000cb	f3 0f 11 45 f0	 movss	 DWORD PTR _fEachInstDistance$1$[ebp], xmm0
  000d0	eb 05		 jmp	 SHORT $LN12@NEW_GetFro
$LN11@NEW_GetFro:
  000d2	f3 0f 11 4d f0	 movss	 DWORD PTR _fEachInstDistance$1$[ebp], xmm1
$LN12@NEW_GetFro:

; 171  : 			float fEachInstDirRot=NEW_GetRotationFromDestInstance(*pkInstEach);

  000d7	56		 push	 esi
  000d8	8b cf		 mov	 ecx, edi
  000da	e8 00 00 00 00	 call	 ?NEW_GetRotationFromDestInstance@CInstanceBase@@QAEMAAV1@@Z ; CInstanceBase::NEW_GetRotationFromDestInstance

; 172  : 
; 173  : 			float fHalfFanRot=(HALF_FAN_ROT_MAX-HALF_FAN_ROT_MIN)-RPM*fEachInstDistance+HALF_FAN_ROT_MIN;

  000df	f3 0f 10 15 00
	00 00 00	 movss	 xmm2, DWORD PTR __real@42200000
  000e7	0f 28 d8	 movaps	 xmm3, xmm0
  000ea	f3 0f 10 45 f0	 movss	 xmm0, DWORD PTR _fEachInstDistance$1$[ebp]

; 174  : 
; 175  : 			float fMinDstDirRot=fDstRot-fHalfFanRot;

  000ef	f3 0f 10 65 e4	 movss	 xmm4, DWORD PTR _fDstRot$1$[ebp]
  000f4	0f 28 c8	 movaps	 xmm1, xmm0
  000f7	f3 0f 59 0d 00
	00 00 00	 mulss	 xmm1, DWORD PTR __real@3d23d70a
  000ff	f3 0f 5c d1	 subss	 xmm2, xmm1
  00103	0f 28 cc	 movaps	 xmm1, xmm4
  00106	f3 0f 58 15 00
	00 00 00	 addss	 xmm2, DWORD PTR __real@41200000
  0010e	f3 0f 5c ca	 subss	 xmm1, xmm2

; 176  : 			float fMaxDstDirRot=fDstRot+fHalfFanRot;
; 177  : 
; 178  : 			if (fEachInstDirRot>=fMinDstDirRot && fEachInstDirRot<=fMaxDstDirRot)

  00112	0f 2f d9	 comiss	 xmm3, xmm1
  00115	72 21		 jb	 SHORT $LN2@NEW_GetFro
  00117	f3 0f 58 d4	 addss	 xmm2, xmm4
  0011b	0f 2f d3	 comiss	 xmm2, xmm3
  0011e	72 18		 jb	 SHORT $LN2@NEW_GetFro

; 179  : 				kMap_pkInstNear.insert(std::multimap<float, CInstanceBase*>::value_type(fEachInstDistance, pkInstEach));

  00120	8d 45 d0	 lea	 eax, DWORD PTR $T2[ebp]
; File C:\Program Files\Microsoft Visual Studio\2022\Community\VC\Tools\MSVC\14.44.35207\include\utility

; 274  :         : first(_STD forward<_Other1>(_Val1)), second(_STD forward<_Other2>(_Val2)) {

  00123	f3 0f 11 45 d0	 movss	 DWORD PTR $T2[ebp], xmm0
; File D:\_m2work\Server Client TMP4\ClientVS22\source\UserInterface\InstanceBaseBattle.cpp

; 179  : 				kMap_pkInstNear.insert(std::multimap<float, CInstanceBase*>::value_type(fEachInstDistance, pkInstEach));

  00128	50		 push	 eax
  00129	8d 45 e0	 lea	 eax, DWORD PTR $T3[ebp]
; File C:\Program Files\Microsoft Visual Studio\2022\Community\VC\Tools\MSVC\14.44.35207\include\utility

; 274  :         : first(_STD forward<_Other1>(_Val1)), second(_STD forward<_Other2>(_Val2)) {

  0012c	89 75 d4	 mov	 DWORD PTR $T2[ebp+4], esi
; File D:\_m2work\Server Client TMP4\ClientVS22\source\UserInterface\InstanceBaseBattle.cpp

; 179  : 				kMap_pkInstNear.insert(std::multimap<float, CInstanceBase*>::value_type(fEachInstDistance, pkInstEach));

  0012f	50		 push	 eax
  00130	8d 4d d8	 lea	 ecx, DWORD PTR _kMap_pkInstNear$[ebp]
  00133	e8 00 00 00 00	 call	 ??$insert@$00$0A@@?$_Tree@V?$_Tmap_traits@MPAVCInstanceBase@@U?$less@M@std@@V?$allocator@U?$pair@$$CBMPAVCInstanceBase@@@std@@@3@$00@std@@@std@@QAE?AV?$_Tree_iterator@V?$_Tree_val@U?$_Tree_simple_types@U?$pair@$$CBMPAVCInstanceBase@@@std@@@std@@@std@@@1@$$QAU?$pair@$$CBMPAVCInstanceBase@@@1@@Z ; std::_Tree<std::_Tmap_traits<float,CInstanceBase *,std::less<float>,std::allocator<std::pair<float const ,CInstanceBase *> >,1> >::insert<1,0>
$LN2@NEW_GetFro:
; File C:\Program Files\Microsoft Visual Studio\2022\Community\VC\Tools\MSVC\14.44.35207\include\xtree

; 198  :         _Mybase::operator++();

  00138	8d 4d ec	 lea	 ecx, DWORD PTR _i$4[ebp]
  0013b	e8 00 00 00 00	 call	 ??E?$_Tree_unchecked_const_iterator@V?$_Tree_val@U?$_Tree_simple_types@U?$pair@$$CBKPAVCInstanceBase@@@std@@@std@@@std@@U_Iterator_base0@2@@std@@QAEAAV01@XZ ; std::_Tree_unchecked_const_iterator<std::_Tree_val<std::_Tree_simple_types<std::pair<unsigned long const ,CInstanceBase *> > >,std::_Iterator_base0>::operator++
; File D:\_m2work\Server Client TMP4\ClientVS22\source\UserInterface\PythonCharacterManager.h

; 162  : 				return m_it != rhs.m_it;

  00140	8b 45 ec	 mov	 eax, DWORD PTR _i$4[ebp]
  00143	3b 43 20	 cmp	 eax, DWORD PTR [ebx+32]
; File D:\_m2work\Server Client TMP4\ClientVS22\source\UserInterface\InstanceBaseBattle.cpp

; 158  : 		for(i = rkChrMgr.CharacterInstanceBegin(); i!=rkChrMgr.CharacterInstanceEnd(); ++i)

  00146	0f 85 35 ff ff
	ff		 jne	 $LL4@NEW_GetFro
  0014c	8b 55 d8	 mov	 edx, DWORD PTR _kMap_pkInstNear$[ebp]
$LN3@NEW_GetFro:
; File C:\Program Files\Microsoft Visual Studio\2022\Community\VC\Tools\MSVC\14.44.35207\include\xtree

; 1218 :         return _Get_scary()->_Mysize == 0;

  0014f	83 7d dc 00	 cmp	 DWORD PTR _kMap_pkInstNear$[ebp+4], 0
; File D:\_m2work\Server Client TMP4\ClientVS22\source\UserInterface\InstanceBaseBattle.cpp

; 183  : 	if (kMap_pkInstNear.empty())

  00153	75 04		 jne	 SHORT $LN9@NEW_GetFro
  00155	32 db		 xor	 bl, bl
  00157	eb 0c		 jmp	 SHORT $LN14@NEW_GetFro
$LN9@NEW_GetFro:
; File C:\Program Files\Microsoft Visual Studio\2022\Community\VC\Tools\MSVC\14.44.35207\include\xtree

; 37   :     _Tree_unchecked_const_iterator(_Nodeptr _Pnode, const _Mytree* _Plist) noexcept : _Ptr(_Pnode) {

  00159	8b 02		 mov	 eax, DWORD PTR [edx]
; File D:\_m2work\Server Client TMP4\ClientVS22\source\UserInterface\InstanceBaseBattle.cpp

; 188  : 	return true;

  0015b	b3 01		 mov	 bl, 1
  0015d	8b 48 14	 mov	 ecx, DWORD PTR [eax+20]
  00160	8b 45 08	 mov	 eax, DWORD PTR _ppoutTargetInstance$[ebp]
  00163	89 08		 mov	 DWORD PTR [eax], ecx
$LN14@NEW_GetFro:
; File C:\Program Files\Microsoft Visual Studio\2022\Community\VC\Tools\MSVC\14.44.35207\include\xtree

; 777  :         _Erase_tree(_Al, _Myhead->_Parent);

  00165	8b 72 04	 mov	 esi, DWORD PTR [edx+4]

; 768  :         while (!_Rootnode->_Isnil) { // free subtrees, then node

  00168	80 7e 0d 00	 cmp	 BYTE PTR [esi+13], 0
  0016c	75 28		 jne	 SHORT $LN337@NEW_GetFro
  0016e	66 90		 npad	 2
$LL70@NEW_GetFro:

; 769  :             _Erase_tree(_Al, _Rootnode->_Right);

  00170	ff 76 08	 push	 DWORD PTR [esi+8]
  00173	8d 45 d8	 lea	 eax, DWORD PTR _kMap_pkInstNear$[ebp]
  00176	50		 push	 eax
  00177	8b c8		 mov	 ecx, eax
  00179	e8 00 00 00 00	 call	 ??$_Erase_tree@V?$allocator@U?$_Tree_node@U?$pair@$$CBMPAVCInstanceBase@@@std@@PAX@std@@@std@@@?$_Tree_val@U?$_Tree_simple_types@U?$pair@$$CBMPAVCInstanceBase@@@std@@@std@@@std@@QAEXAAV?$allocator@U?$_Tree_node@U?$pair@$$CBMPAVCInstanceBase@@@std@@PAX@std@@@1@PAU?$_Tree_node@U?$pair@$$CBMPAVCInstanceBase@@@std@@PAX@1@@Z ; std::_Tree_val<std::_Tree_simple_types<std::pair<float const ,CInstanceBase *> > >::_Erase_tree<std::allocator<std::_Tree_node<std::pair<float const ,CInstanceBase *>,void *> > >
; File C:\Program Files\Microsoft Visual Studio\2022\Community\VC\Tools\MSVC\14.44.35207\include\utility

; 773  :     _Ty _Old_val = static_cast<_Ty&&>(_Val);

  0017e	8b c6		 mov	 eax, esi

; 774  :     _Val         = static_cast<_Other&&>(_New_val);

  00180	8b 36		 mov	 esi, DWORD PTR [esi]
; File C:\Program Files\Microsoft Visual Studio\2022\Community\VC\Tools\MSVC\14.44.35207\include\xmemory

; 289  :         ::operator delete(_Ptr, _Bytes);

  00182	6a 18		 push	 24			; 00000018H
  00184	50		 push	 eax
  00185	e8 00 00 00 00	 call	 ??3@YAXPAXI@Z		; operator delete
  0018a	83 c4 08	 add	 esp, 8
; File C:\Program Files\Microsoft Visual Studio\2022\Community\VC\Tools\MSVC\14.44.35207\include\xtree

; 768  :         while (!_Rootnode->_Isnil) { // free subtrees, then node

  0018d	80 7e 0d 00	 cmp	 BYTE PTR [esi+13], 0
  00191	74 dd		 je	 SHORT $LL70@NEW_GetFro
  00193	8b 55 d8	 mov	 edx, DWORD PTR _kMap_pkInstNear$[ebp]
$LN337@NEW_GetFro:
; File C:\Program Files\Microsoft Visual Studio\2022\Community\VC\Tools\MSVC\14.44.35207\include\xmemory

; 289  :         ::operator delete(_Ptr, _Bytes);

  00196	6a 18		 push	 24			; 00000018H
  00198	52		 push	 edx
  00199	e8 00 00 00 00	 call	 ??3@YAXPAXI@Z		; operator delete
  0019e	83 c4 08	 add	 esp, 8
; File D:\_m2work\Server Client TMP4\ClientVS22\source\UserInterface\InstanceBaseBattle.cpp

; 188  : 	return true;

  001a1	8a c3		 mov	 al, bl

; 189  : }

  001a3	8b 4d f4	 mov	 ecx, DWORD PTR __$EHRec$[ebp]
  001a6	64 89 0d 00 00
	00 00		 mov	 DWORD PTR fs:0, ecx
  001ad	59		 pop	 ecx
  001ae	5f		 pop	 edi
  001af	5e		 pop	 esi
  001b0	5b		 pop	 ebx
  001b1	8b e5		 mov	 esp, ebp
  001b3	5d		 pop	 ebp
  001b4	c2 04 00	 ret	 4
_TEXT	ENDS
;	COMDAT text$x
text$x	SEGMENT
__unwindfunclet$?NEW_GetFrontInstance@CInstanceBase@@QAE_NPAPAV1@M@Z$0:
  00000	8d 4d d8	 lea	 ecx, DWORD PTR _kMap_pkInstNear$[ebp]
  00003	e9 00 00 00 00	 jmp	 ??1?$multimap@MPAVCInstanceBase@@U?$less@M@std@@V?$allocator@U?$pair@$$CBMPAVCInstanceBase@@@std@@@3@@std@@QAE@XZ
  00008	cc		 int	 3
  00009	cc		 int	 3
  0000a	cc		 int	 3
  0000b	cc		 int	 3
  0000c	cc		 int	 3
__ehhandler$?NEW_GetFrontInstance@CInstanceBase@@QAE_NPAPAV1@M@Z:
  0000d	90		 npad	 1
  0000e	90		 npad	 1
  0000f	8b 54 24 08	 mov	 edx, DWORD PTR [esp+8]
  00013	8d 42 0c	 lea	 eax, DWORD PTR [edx+12]
  00016	8b 4a cc	 mov	 ecx, DWORD PTR [edx-52]
  00019	33 c8		 xor	 ecx, eax
  0001b	e8 00 00 00 00	 call	 @__security_check_cookie@4
  00020	b8 00 00 00 00	 mov	 eax, OFFSET __ehfuncinfo$?NEW_GetFrontInstance@CInstanceBase@@QAE_NPAPAV1@M@Z
  00025	e9 00 00 00 00	 jmp	 ___CxxFrameHandler3
text$x	ENDS
?NEW_GetFrontInstance@CInstanceBase@@QAE_NPAPAV1@M@Z ENDP ; CInstanceBase::NEW_GetFrontInstance
; Function compile flags: /Ogtp
; File C:\Program Files\Microsoft Visual Studio\2022\Community\VC\Tools\MSVC\14.44.35207\include\xtree
; File C:\Program Files\Microsoft Visual Studio\2022\Community\VC\Tools\MSVC\14.44.35207\include\xmemory
;	COMDAT ??1?$multimap@MPAVCInstanceBase@@U?$less@M@std@@V?$allocator@U?$pair@$$CBMPAVCInstanceBase@@@std@@@3@@std@@QAE@XZ
_TEXT	SEGMENT
??1?$multimap@MPAVCInstanceBase@@U?$less@M@std@@V?$allocator@U?$pair@$$CBMPAVCInstanceBase@@@std@@@3@@std@@QAE@XZ PROC ; std::multimap<float,CInstanceBase *,std::less<float>,std::allocator<std::pair<float const ,CInstanceBase *> > >::~multimap<float,CInstanceBase *,std::less<float>,std::allocator<std::pair<float const ,CInstanceBase *> > >, COMDAT
; _this$ = ecx
; File C:\Program Files\Microsoft Visual Studio\2022\Community\VC\Tools\MSVC\14.44.35207\include\xtree

; 777  :         _Erase_tree(_Al, _Myhead->_Parent);

  00000	56		 push	 esi
  00001	8b f1		 mov	 esi, ecx
  00003	8b 06		 mov	 eax, DWORD PTR [esi]
  00005	ff 70 04	 push	 DWORD PTR [eax+4]
  00008	56		 push	 esi
  00009	e8 00 00 00 00	 call	 ??$_Erase_tree@V?$allocator@U?$_Tree_node@U?$pair@$$CBMPAVCInstanceBase@@@std@@PAX@std@@@std@@@?$_Tree_val@U?$_Tree_simple_types@U?$pair@$$CBMPAVCInstanceBase@@@std@@@std@@@std@@QAEXAAV?$allocator@U?$_Tree_node@U?$pair@$$CBMPAVCInstanceBase@@@std@@PAX@std@@@1@PAU?$_Tree_node@U?$pair@$$CBMPAVCInstanceBase@@@std@@PAX@1@@Z ; std::_Tree_val<std::_Tree_simple_types<std::pair<float const ,CInstanceBase *> > >::_Erase_tree<std::allocator<std::_Tree_node<std::pair<float const ,CInstanceBase *>,void *> > >
; File C:\Program Files\Microsoft Visual Studio\2022\Community\VC\Tools\MSVC\14.44.35207\include\xmemory

; 289  :         ::operator delete(_Ptr, _Bytes);

  0000e	6a 18		 push	 24			; 00000018H
  00010	ff 36		 push	 DWORD PTR [esi]
  00012	e8 00 00 00 00	 call	 ??3@YAXPAXI@Z		; operator delete
  00017	83 c4 08	 add	 esp, 8
  0001a	5e		 pop	 esi
  0001b	c3		 ret	 0
??1?$multimap@MPAVCInstanceBase@@U?$less@M@std@@V?$allocator@U?$pair@$$CBMPAVCInstanceBase@@@std@@@3@@std@@QAE@XZ ENDP ; std::multimap<float,CInstanceBase *,std::less<float>,std::allocator<std::pair<float const ,CInstanceBase *> > >::~multimap<float,CInstanceBase *,std::less<float>,std::allocator<std::pair<float const ,CInstanceBase *> > >
_TEXT	ENDS
; Function compile flags: /Ogtp
; File D:\_m2work\Server Client TMP4\ClientVS22\source\UserInterface\InstanceBaseBattle.cpp
; File C:\Program Files\Microsoft Visual Studio\2022\Community\VC\Tools\MSVC\14.44.35207\include\xmemory
; File D:\_m2work\Server Client TMP4\ClientVS22\source\UserInterface\InstanceBaseBattle.cpp
; File C:\Program Files\Microsoft Visual Studio\2022\Community\VC\Tools\MSVC\14.44.35207\include\xtree
; File C:\Program Files\Microsoft Visual Studio\2022\Community\VC\Tools\MSVC\14.44.35207\include\xmemory
; File C:\Program Files\Microsoft Visual Studio\2022\Community\VC\Tools\MSVC\14.44.35207\include\xtree
; File D:\_m2work\Server Client TMP4\ClientVS22\source\UserInterface\InstanceBaseBattle.cpp
; File C:\Program Files\Microsoft Visual Studio\2022\Community\VC\Tools\MSVC\14.44.35207\include\xtree
; File D:\_m2work\Server Client TMP4\ClientVS22\source\UserInterface\PythonCharacterManager.h
; File D:\_m2work\Server Client TMP4\ClientVS22\source\UserInterface\InstanceBaseBattle.cpp
; File C:\Program Files\Microsoft Visual Studio\2022\Community\VC\Tools\MSVC\14.44.35207\include\utility
; File D:\_m2work\Server Client TMP4\ClientVS22\source\UserInterface\InstanceBaseBattle.cpp
; File C:\Program Files\Microsoft Visual Studio\2022\Community\VC\Tools\MSVC\14.44.35207\include\utility
; File D:\_m2work\Server Client TMP4\ClientVS22\source\UserInterface\InstanceBaseBattle.cpp
; File C:\Program Files\Microsoft Visual Studio\2022\Community\VC\Tools\MSVC\14.44.35207\include\xtree
; File D:\_m2work\Server Client TMP4\ClientVS22\source\UserInterface\PythonCharacterManager.h
; File D:\_m2work\Server Client TMP4\ClientVS22\source\UserInterface\InstanceBaseBattle.cpp
; File C:\Program Files\Microsoft Visual Studio\2022\Community\VC\Tools\MSVC\14.44.35207\include\xtree
; File D:\_m2work\Server Client TMP4\ClientVS22\source\UserInterface\InstanceBaseBattle.cpp
; File C:\Program Files\Microsoft Visual Studio\2022\Community\VC\Tools\MSVC\14.44.35207\include\xtree
; File D:\_m2work\Server Client TMP4\ClientVS22\source\UserInterface\InstanceBaseBattle.cpp
; File C:\Program Files\Microsoft Visual Studio\2022\Community\VC\Tools\MSVC\14.44.35207\include\vector
; File C:\Program Files\Microsoft Visual Studio\2022\Community\VC\Tools\MSVC\14.44.35207\include\xtree
; File D:\_m2work\Server Client TMP4\ClientVS22\source\UserInterface\InstanceBaseBattle.cpp
; File C:\Program Files\Microsoft Visual Studio\2022\Community\VC\Tools\MSVC\14.44.35207\include\xtree
; File C:\Program Files\Microsoft Visual Studio\2022\Community\VC\Tools\MSVC\14.44.35207\include\utility
; File C:\Program Files\Microsoft Visual Studio\2022\Community\VC\Tools\MSVC\14.44.35207\include\xmemory
; File C:\Program Files\Microsoft Visual Studio\2022\Community\VC\Tools\MSVC\14.44.35207\include\xtree
; File C:\Program Files\Microsoft Visual Studio\2022\Community\VC\Tools\MSVC\14.44.35207\include\xmemory
; File D:\_m2work\Server Client TMP4\ClientVS22\source\UserInterface\InstanceBaseBattle.cpp
;	COMDAT ?NEW_GetInstanceVectorInFanRange@CInstanceBase@@QAE_NMAAV1@PAV?$vector@PAVCInstanceBase@@V?$allocator@PAVCInstanceBase@@@std@@@std@@@Z
_TEXT	SEGMENT
$T2 = -44						; size = 8
_kMap_pkInstNear$ = -36					; size = 8
$T3 = -28						; size = 4
_fDstDirRot$1$ = -24					; size = 4
_fSkillDistance$1$ = -20				; size = 4
_i$4 = -16						; size = 4
__$EHRec$ = -12						; size = 12
_rkInstTarget$ = 8					; size = 4
_fEachInstDistance$1$ = 8				; size = 4
_pkVct_pkInst$ = 12					; size = 4
?NEW_GetInstanceVectorInFanRange@CInstanceBase@@QAE_NMAAV1@PAV?$vector@PAVCInstanceBase@@V?$allocator@PAVCInstanceBase@@@std@@@std@@@Z PROC ; CInstanceBase::NEW_GetInstanceVectorInFanRange, COMDAT
; _this$ = ecx
; _fSkillDistance$ = xmm1s

; 193  : {

  00000	55		 push	 ebp
  00001	8b ec		 mov	 ebp, esp
  00003	6a ff		 push	 -1
  00005	68 00 00 00 00	 push	 __ehhandler$?NEW_GetInstanceVectorInFanRange@CInstanceBase@@QAE_NMAAV1@PAV?$vector@PAVCInstanceBase@@V?$allocator@PAVCInstanceBase@@@std@@@std@@@Z
  0000a	64 a1 00 00 00
	00		 mov	 eax, DWORD PTR fs:0
  00010	50		 push	 eax
  00011	83 ec 20	 sub	 esp, 32			; 00000020H
  00014	53		 push	 ebx
  00015	56		 push	 esi
  00016	57		 push	 edi
  00017	a1 00 00 00 00	 mov	 eax, DWORD PTR ___security_cookie
  0001c	33 c5		 xor	 eax, ebp
  0001e	50		 push	 eax
  0001f	8d 45 f4	 lea	 eax, DWORD PTR __$EHRec$[ebp]
  00022	64 a3 00 00 00
	00		 mov	 DWORD PTR fs:0, eax
  00028	f3 0f 11 4d ec	 movss	 DWORD PTR _fSkillDistance$1$[ebp], xmm1
  0002d	8b f9		 mov	 edi, ecx

; 199  : 	float fDstDirRot=NEW_GetRotationFromDestInstance(rkInstTarget);

  0002f	ff 75 08	 push	 DWORD PTR _rkInstTarget$[ebp]
  00032	e8 00 00 00 00	 call	 ?NEW_GetRotationFromDestInstance@CInstanceBase@@QAEMAAV1@@Z ; CInstanceBase::NEW_GetRotationFromDestInstance
; File C:\Program Files\Microsoft Visual Studio\2022\Community\VC\Tools\MSVC\14.44.35207\include\xmemory

; 136  :         return ::operator new(_Bytes);

  00037	6a 18		 push	 24			; 00000018H
; File D:\_m2work\Server Client TMP4\ClientVS22\source\UserInterface\InstanceBaseBattle.cpp

; 199  : 	float fDstDirRot=NEW_GetRotationFromDestInstance(rkInstTarget);

  00039	f3 0f 11 45 e8	 movss	 DWORD PTR _fDstDirRot$1$[ebp], xmm0
; File C:\Program Files\Microsoft Visual Studio\2022\Community\VC\Tools\MSVC\14.44.35207\include\xtree

; 450  :     _Tree_val() noexcept : _Myhead(), _Mysize(0) {}

  0003e	c7 45 dc 00 00
	00 00		 mov	 DWORD PTR _kMap_pkInstNear$[ebp], 0
  00045	c7 45 e0 00 00
	00 00		 mov	 DWORD PTR _kMap_pkInstNear$[ebp+4], 0
; File C:\Program Files\Microsoft Visual Studio\2022\Community\VC\Tools\MSVC\14.44.35207\include\xmemory

; 136  :         return ::operator new(_Bytes);

  0004c	e8 00 00 00 00	 call	 ??2@YAPAXI@Z		; operator new

; 256  :         return _Traits::_Allocate(_Bytes);

  00051	8b d0		 mov	 edx, eax

; 136  :         return ::operator new(_Bytes);

  00053	83 c4 04	 add	 esp, 4
; File C:\Program Files\Microsoft Visual Studio\2022\Community\VC\Tools\MSVC\14.44.35207\include\xtree

; 346  :         _Construct_in_place(_Pnode->_Left, _Pnode);

  00056	89 12		 mov	 DWORD PTR [edx], edx

; 347  :         _Construct_in_place(_Pnode->_Parent, _Pnode);

  00058	89 52 04	 mov	 DWORD PTR [edx+4], edx

; 348  :         _Construct_in_place(_Pnode->_Right, _Pnode);

  0005b	89 52 08	 mov	 DWORD PTR [edx+8], edx

; 349  :         _Pnode->_Color = _Black;

  0005e	66 c7 42 0c 01
	01		 mov	 WORD PTR [edx+12], 257	; 00000101H

; 1957 :         _Scary->_Myhead = _Node::_Buyheadnode(_Getal());

  00064	89 55 dc	 mov	 DWORD PTR _kMap_pkInstNear$[ebp], edx
; File D:\_m2work\Server Client TMP4\ClientVS22\source\UserInterface\InstanceBaseBattle.cpp

; 202  : 	std::multimap<float, CInstanceBase*> kMap_pkInstNear;

  00067	c7 45 fc 00 00
	00 00		 mov	 DWORD PTR __$EHRec$[ebp+8], 0

; 203  : 	{
; 204  : 		CPythonCharacterManager& rkChrMgr=CPythonCharacterManager::Instance();

  0006e	8b 1d 00 00 00
	00		 mov	 ebx, DWORD PTR ?ms_singleton@?$CSingleton@VCPythonCharacterManager@@@@0PAVCPythonCharacterManager@@A ; CSingleton<CPythonCharacterManager>::ms_singleton
; File C:\Program Files\Microsoft Visual Studio\2022\Community\VC\Tools\MSVC\14.44.35207\include\xtree

; 1142 :         return iterator(_Scary->_Myhead->_Left, _Scary);

  00074	8b 4b 20	 mov	 ecx, DWORD PTR [ebx+32]

; 37   :     _Tree_unchecked_const_iterator(_Nodeptr _Pnode, const _Mytree* _Plist) noexcept : _Ptr(_Pnode) {

  00077	8b 01		 mov	 eax, DWORD PTR [ecx]
; File D:\_m2work\Server Client TMP4\ClientVS22\source\UserInterface\PythonCharacterManager.h

; 151  : 				m_it = rhs.m_it;

  00079	89 45 f0	 mov	 DWORD PTR _i$4[ebp], eax

; 162  : 				return m_it != rhs.m_it;

  0007c	3b c1		 cmp	 eax, ecx
; File D:\_m2work\Server Client TMP4\ClientVS22\source\UserInterface\InstanceBaseBattle.cpp

; 206  : 		for(i = rkChrMgr.CharacterInstanceBegin(); i!=rkChrMgr.CharacterInstanceEnd(); ++i)

  0007e	0f 84 e1 00 00
	00		 je	 $LN3@NEW_GetIns
$LL4@NEW_GetIns:

; 207  : 		{
; 208  : 			CInstanceBase* pkInstEach=*i;

  00084	8b 70 14	 mov	 esi, DWORD PTR [eax+20]

; 209  : 			if (pkInstEach==this)

  00087	3b f7		 cmp	 esi, edi
  00089	0f 84 bf 00 00
	00		 je	 $LN2@NEW_GetIns

; 210  : 				continue;
; 211  : 
; 212  : 			// 2004.07.25.myevan -   
; 213  : 			if (!IsAttackableInstance(*pkInstEach))

  0008f	56		 push	 esi
  00090	8b cf		 mov	 ecx, edi
  00092	e8 00 00 00 00	 call	 ?IsAttackableInstance@CInstanceBase@@QAE_NAAV1@@Z ; CInstanceBase::IsAttackableInstance
  00097	84 c0		 test	 al, al
  00099	0f 84 af 00 00
	00		 je	 $LN2@NEW_GetIns

; 214  : 				continue;
; 215  : 
; 216  : 			// 2004.07.21.levites -    
; 217  : 			if (m_GraphicThingInstance.IsClickableDistanceDestInstance(pkInstEach->m_GraphicThingInstance, fSkillDistance))

  0009f	f3 0f 10 45 ec	 movss	 xmm0, DWORD PTR _fSkillDistance$1$[ebp]
  000a4	8d 86 d4 01 00
	00		 lea	 eax, DWORD PTR [esi+468]
  000aa	51		 push	 ecx
  000ab	f3 0f 11 04 24	 movss	 DWORD PTR [esp], xmm0
  000b0	8d 8f d4 01 00
	00		 lea	 ecx, DWORD PTR [edi+468]
  000b6	50		 push	 eax
  000b7	e8 00 00 00 00	 call	 ?IsClickableDistanceDestInstance@CActorInstance@@QAEHAAV1@M@Z ; CActorInstance::IsClickableDistanceDestInstance
  000bc	85 c0		 test	 eax, eax
  000be	0f 84 8a 00 00
	00		 je	 $LN2@NEW_GetIns

; 218  : 			{
; 219  : 				float fEachInstDistance=min(NEW_GetDistanceFromDestInstance(*pkInstEach), HALF_FAN_ROT_MIN_DISTANCE);

  000c4	56		 push	 esi
  000c5	8b cf		 mov	 ecx, edi
  000c7	e8 00 00 00 00	 call	 ?NEW_GetDistanceFromDestInstance@CInstanceBase@@QAEMAAV1@@Z ; CInstanceBase::NEW_GetDistanceFromDestInstance
  000cc	f3 0f 10 0d 00
	00 00 00	 movss	 xmm1, DWORD PTR __real@447a0000
  000d4	0f 2f c8	 comiss	 xmm1, xmm0
  000d7	76 0f		 jbe	 SHORT $LN14@NEW_GetIns
  000d9	56		 push	 esi
  000da	8b cf		 mov	 ecx, edi
  000dc	e8 00 00 00 00	 call	 ?NEW_GetDistanceFromDestInstance@CInstanceBase@@QAEMAAV1@@Z ; CInstanceBase::NEW_GetDistanceFromDestInstance
  000e1	f3 0f 11 45 08	 movss	 DWORD PTR _fEachInstDistance$1$[ebp], xmm0
  000e6	eb 05		 jmp	 SHORT $LN15@NEW_GetIns
$LN14@NEW_GetIns:
  000e8	f3 0f 11 4d 08	 movss	 DWORD PTR _fEachInstDistance$1$[ebp], xmm1
$LN15@NEW_GetIns:

; 220  : 				float fEachInstDirRot=NEW_GetRotationFromDestInstance(*pkInstEach);

  000ed	56		 push	 esi
  000ee	8b cf		 mov	 ecx, edi
  000f0	e8 00 00 00 00	 call	 ?NEW_GetRotationFromDestInstance@CInstanceBase@@QAEMAAV1@@Z ; CInstanceBase::NEW_GetRotationFromDestInstance

; 221  : 
; 222  : 				float fHalfFanRot=(HALF_FAN_ROT_MAX-HALF_FAN_ROT_MIN)-RPM*fEachInstDistance+HALF_FAN_ROT_MIN;

  000f5	f3 0f 10 15 00
	00 00 00	 movss	 xmm2, DWORD PTR __real@41a00000
  000fd	0f 28 d8	 movaps	 xmm3, xmm0
  00100	f3 0f 10 45 08	 movss	 xmm0, DWORD PTR _fEachInstDistance$1$[ebp]

; 223  : 
; 224  : 				float fMinDstDirRot=fDstDirRot-fHalfFanRot;

  00105	f3 0f 10 65 e8	 movss	 xmm4, DWORD PTR _fDstDirRot$1$[ebp]
  0010a	0f 28 c8	 movaps	 xmm1, xmm0
  0010d	f3 0f 59 0d 00
	00 00 00	 mulss	 xmm1, DWORD PTR __real@3ca3d70a
  00115	f3 0f 5c d1	 subss	 xmm2, xmm1
  00119	0f 28 cc	 movaps	 xmm1, xmm4
  0011c	f3 0f 58 15 00
	00 00 00	 addss	 xmm2, DWORD PTR __real@41a00000
  00124	f3 0f 5c ca	 subss	 xmm1, xmm2

; 225  : 				float fMaxDstDirRot=fDstDirRot+fHalfFanRot;
; 226  : 
; 227  : 				if (fEachInstDirRot>=fMinDstDirRot && fEachInstDirRot<=fMaxDstDirRot)

  00128	0f 2f d9	 comiss	 xmm3, xmm1
  0012b	72 21		 jb	 SHORT $LN2@NEW_GetIns
  0012d	f3 0f 58 d4	 addss	 xmm2, xmm4
  00131	0f 2f d3	 comiss	 xmm2, xmm3
  00134	72 18		 jb	 SHORT $LN2@NEW_GetIns

; 228  : 					kMap_pkInstNear.insert(std::multimap<float, CInstanceBase*>::value_type(fEachInstDistance, pkInstEach));

  00136	8d 45 d4	 lea	 eax, DWORD PTR $T2[ebp]
; File C:\Program Files\Microsoft Visual Studio\2022\Community\VC\Tools\MSVC\14.44.35207\include\utility

; 274  :         : first(_STD forward<_Other1>(_Val1)), second(_STD forward<_Other2>(_Val2)) {

  00139	f3 0f 11 45 d4	 movss	 DWORD PTR $T2[ebp], xmm0
; File D:\_m2work\Server Client TMP4\ClientVS22\source\UserInterface\InstanceBaseBattle.cpp

; 228  : 					kMap_pkInstNear.insert(std::multimap<float, CInstanceBase*>::value_type(fEachInstDistance, pkInstEach));

  0013e	50		 push	 eax
  0013f	8d 45 e4	 lea	 eax, DWORD PTR $T3[ebp]
; File C:\Program Files\Microsoft Visual Studio\2022\Community\VC\Tools\MSVC\14.44.35207\include\utility

; 274  :         : first(_STD forward<_Other1>(_Val1)), second(_STD forward<_Other2>(_Val2)) {

  00142	89 75 d8	 mov	 DWORD PTR $T2[ebp+4], esi
; File D:\_m2work\Server Client TMP4\ClientVS22\source\UserInterface\InstanceBaseBattle.cpp

; 228  : 					kMap_pkInstNear.insert(std::multimap<float, CInstanceBase*>::value_type(fEachInstDistance, pkInstEach));

  00145	50		 push	 eax
  00146	8d 4d dc	 lea	 ecx, DWORD PTR _kMap_pkInstNear$[ebp]
  00149	e8 00 00 00 00	 call	 ??$insert@$00$0A@@?$_Tree@V?$_Tmap_traits@MPAVCInstanceBase@@U?$less@M@std@@V?$allocator@U?$pair@$$CBMPAVCInstanceBase@@@std@@@3@$00@std@@@std@@QAE?AV?$_Tree_iterator@V?$_Tree_val@U?$_Tree_simple_types@U?$pair@$$CBMPAVCInstanceBase@@@std@@@std@@@std@@@1@$$QAU?$pair@$$CBMPAVCInstanceBase@@@1@@Z ; std::_Tree<std::_Tmap_traits<float,CInstanceBase *,std::less<float>,std::allocator<std::pair<float const ,CInstanceBase *> >,1> >::insert<1,0>
$LN2@NEW_GetIns:
; File C:\Program Files\Microsoft Visual Studio\2022\Community\VC\Tools\MSVC\14.44.35207\include\xtree

; 198  :         _Mybase::operator++();

  0014e	8d 4d f0	 lea	 ecx, DWORD PTR _i$4[ebp]
  00151	e8 00 00 00 00	 call	 ??E?$_Tree_unchecked_const_iterator@V?$_Tree_val@U?$_Tree_simple_types@U?$pair@$$CBKPAVCInstanceBase@@@std@@@std@@@std@@U_Iterator_base0@2@@std@@QAEAAV01@XZ ; std::_Tree_unchecked_const_iterator<std::_Tree_val<std::_Tree_simple_types<std::pair<unsigned long const ,CInstanceBase *> > >,std::_Iterator_base0>::operator++
; File D:\_m2work\Server Client TMP4\ClientVS22\source\UserInterface\PythonCharacterManager.h

; 162  : 				return m_it != rhs.m_it;

  00156	8b 45 f0	 mov	 eax, DWORD PTR _i$4[ebp]
  00159	3b 43 20	 cmp	 eax, DWORD PTR [ebx+32]
; File D:\_m2work\Server Client TMP4\ClientVS22\source\UserInterface\InstanceBaseBattle.cpp

; 206  : 		for(i = rkChrMgr.CharacterInstanceBegin(); i!=rkChrMgr.CharacterInstanceEnd(); ++i)

  0015c	0f 85 22 ff ff
	ff		 jne	 $LL4@NEW_GetIns
  00162	8b 55 dc	 mov	 edx, DWORD PTR _kMap_pkInstNear$[ebp]
$LN3@NEW_GetIns:
; File C:\Program Files\Microsoft Visual Studio\2022\Community\VC\Tools\MSVC\14.44.35207\include\xtree

; 37   :     _Tree_unchecked_const_iterator(_Nodeptr _Pnode, const _Mytree* _Plist) noexcept : _Ptr(_Pnode) {

  00165	8b 32		 mov	 esi, DWORD PTR [edx]
; File D:\_m2work\Server Client TMP4\ClientVS22\source\UserInterface\InstanceBaseBattle.cpp

; 235  : 		for (i=kMap_pkInstNear.begin(); i!=kMap_pkInstNear.end(); ++i)

  00167	8b 7d 0c	 mov	 edi, DWORD PTR _pkVct_pkInst$[ebp]
; File C:\Program Files\Microsoft Visual Studio\2022\Community\VC\Tools\MSVC\14.44.35207\include\xtree

; 37   :     _Tree_unchecked_const_iterator(_Nodeptr _Pnode, const _Mytree* _Plist) noexcept : _Ptr(_Pnode) {

  0016a	3b f2		 cmp	 esi, edx
; File D:\_m2work\Server Client TMP4\ClientVS22\source\UserInterface\InstanceBaseBattle.cpp

; 235  : 		for (i=kMap_pkInstNear.begin(); i!=kMap_pkInstNear.end(); ++i)

  0016c	74 55		 je	 SHORT $LN6@NEW_GetIns
  0016e	66 90		 npad	 2
$LL7@NEW_GetIns:

; 236  : 			pkVct_pkInst->push_back(i->second);

  00170	8d 46 14	 lea	 eax, DWORD PTR [esi+20]
; File C:\Program Files\Microsoft Visual Studio\2022\Community\VC\Tools\MSVC\14.44.35207\include\vector

; 933  :         _Emplace_one_at_back(_Val);

  00173	8b cf		 mov	 ecx, edi
  00175	50		 push	 eax
  00176	e8 00 00 00 00	 call	 ??$_Emplace_one_at_back@ABQAVCInstanceBase@@@?$vector@PAVCInstanceBase@@V?$allocator@PAVCInstanceBase@@@std@@@std@@AAEAAPAVCInstanceBase@@ABQAV2@@Z ; std::vector<CInstanceBase *,std::allocator<CInstanceBase *> >::_Emplace_one_at_back<CInstanceBase * const &>
; File C:\Program Files\Microsoft Visual Studio\2022\Community\VC\Tools\MSVC\14.44.35207\include\xtree

; 50   :         if (_Ptr->_Right->_Isnil) { // climb looking for right subtree

  0017b	8b 46 08	 mov	 eax, DWORD PTR [esi+8]
  0017e	80 78 0d 00	 cmp	 BYTE PTR [eax+13], 0
  00182	74 20		 je	 SHORT $LN42@NEW_GetIns

; 51   :             _Nodeptr _Pnode;
; 52   :             while (!(_Pnode = _Ptr->_Parent)->_Isnil && _Ptr == _Pnode->_Right) {

  00184	8b 46 04	 mov	 eax, DWORD PTR [esi+4]
  00187	80 78 0d 00	 cmp	 BYTE PTR [eax+13], 0
  0018b	75 13		 jne	 SHORT $LN404@NEW_GetIns
  0018d	0f 1f 00	 npad	 3
$LL40@NEW_GetIns:
  00190	3b 70 08	 cmp	 esi, DWORD PTR [eax+8]
  00193	75 0b		 jne	 SHORT $LN404@NEW_GetIns

; 53   :                 _Ptr = _Pnode; // ==> parent while right subtree

  00195	8b f0		 mov	 esi, eax
  00197	8b 40 04	 mov	 eax, DWORD PTR [eax+4]
  0019a	80 78 0d 00	 cmp	 BYTE PTR [eax+13], 0
  0019e	74 f0		 je	 SHORT $LL40@NEW_GetIns
$LN404@NEW_GetIns:

; 54   :             }
; 55   : 
; 56   :             _Ptr = _Pnode; // ==> parent (head if end())

  001a0	8b f0		 mov	 esi, eax

; 57   :         } else {

  001a2	eb 18		 jmp	 SHORT $LN48@NEW_GetIns
$LN42@NEW_GetIns:

; 58   :             _Ptr = _Mytree::_Min(_Ptr->_Right); // ==> smallest of right subtree

  001a4	8b f0		 mov	 esi, eax

; 476  :         while (!_Pnode->_Left->_Isnil) {

  001a6	8b 0e		 mov	 ecx, DWORD PTR [esi]
  001a8	80 79 0d 00	 cmp	 BYTE PTR [ecx+13], 0
  001ac	75 0e		 jne	 SHORT $LN48@NEW_GetIns
  001ae	66 90		 npad	 2
$LL47@NEW_GetIns:
  001b0	8b 01		 mov	 eax, DWORD PTR [ecx]

; 477  :             _Pnode = _Pnode->_Left;

  001b2	8b f1		 mov	 esi, ecx
  001b4	8b c8		 mov	 ecx, eax
  001b6	80 78 0d 00	 cmp	 BYTE PTR [eax+13], 0
  001ba	74 f4		 je	 SHORT $LL47@NEW_GetIns
$LN48@NEW_GetIns:

; 232  :         return this->_Ptr == _Right._Ptr;

  001bc	8b 55 dc	 mov	 edx, DWORD PTR _kMap_pkInstNear$[ebp]
  001bf	3b f2		 cmp	 esi, edx
; File D:\_m2work\Server Client TMP4\ClientVS22\source\UserInterface\InstanceBaseBattle.cpp

; 235  : 		for (i=kMap_pkInstNear.begin(); i!=kMap_pkInstNear.end(); ++i)

  001c1	75 ad		 jne	 SHORT $LL7@NEW_GetIns
$LN6@NEW_GetIns:
; File C:\Program Files\Microsoft Visual Studio\2022\Community\VC\Tools\MSVC\14.44.35207\include\xtree

; 777  :         _Erase_tree(_Al, _Myhead->_Parent);

  001c3	8b 07		 mov	 eax, DWORD PTR [edi]
  001c5	3b 47 04	 cmp	 eax, DWORD PTR [edi+4]
  001c8	8b 72 04	 mov	 esi, DWORD PTR [edx+4]
  001cb	0f 95 c3	 setne	 bl

; 768  :         while (!_Rootnode->_Isnil) { // free subtrees, then node

  001ce	80 7e 0d 00	 cmp	 BYTE PTR [esi+13], 0
  001d2	75 26		 jne	 SHORT $LN393@NEW_GetIns
$LL77@NEW_GetIns:

; 769  :             _Erase_tree(_Al, _Rootnode->_Right);

  001d4	ff 76 08	 push	 DWORD PTR [esi+8]
  001d7	8d 45 dc	 lea	 eax, DWORD PTR _kMap_pkInstNear$[ebp]
  001da	50		 push	 eax
  001db	8b c8		 mov	 ecx, eax
  001dd	e8 00 00 00 00	 call	 ??$_Erase_tree@V?$allocator@U?$_Tree_node@U?$pair@$$CBMPAVCInstanceBase@@@std@@PAX@std@@@std@@@?$_Tree_val@U?$_Tree_simple_types@U?$pair@$$CBMPAVCInstanceBase@@@std@@@std@@@std@@QAEXAAV?$allocator@U?$_Tree_node@U?$pair@$$CBMPAVCInstanceBase@@@std@@PAX@std@@@1@PAU?$_Tree_node@U?$pair@$$CBMPAVCInstanceBase@@@std@@PAX@1@@Z ; std::_Tree_val<std::_Tree_simple_types<std::pair<float const ,CInstanceBase *> > >::_Erase_tree<std::allocator<std::_Tree_node<std::pair<float const ,CInstanceBase *>,void *> > >
; File C:\Program Files\Microsoft Visual Studio\2022\Community\VC\Tools\MSVC\14.44.35207\include\utility

; 773  :     _Ty _Old_val = static_cast<_Ty&&>(_Val);

  001e2	8b c6		 mov	 eax, esi

; 774  :     _Val         = static_cast<_Other&&>(_New_val);

  001e4	8b 36		 mov	 esi, DWORD PTR [esi]
; File C:\Program Files\Microsoft Visual Studio\2022\Community\VC\Tools\MSVC\14.44.35207\include\xmemory

; 289  :         ::operator delete(_Ptr, _Bytes);

  001e6	6a 18		 push	 24			; 00000018H
  001e8	50		 push	 eax
  001e9	e8 00 00 00 00	 call	 ??3@YAXPAXI@Z		; operator delete
  001ee	83 c4 08	 add	 esp, 8
; File C:\Program Files\Microsoft Visual Studio\2022\Community\VC\Tools\MSVC\14.44.35207\include\xtree

; 768  :         while (!_Rootnode->_Isnil) { // free subtrees, then node

  001f1	80 7e 0d 00	 cmp	 BYTE PTR [esi+13], 0
  001f5	74 dd		 je	 SHORT $LL77@NEW_GetIns
  001f7	8b 55 dc	 mov	 edx, DWORD PTR _kMap_pkInstNear$[ebp]
$LN393@NEW_GetIns:
; File C:\Program Files\Microsoft Visual Studio\2022\Community\VC\Tools\MSVC\14.44.35207\include\xmemory

; 289  :         ::operator delete(_Ptr, _Bytes);

  001fa	6a 18		 push	 24			; 00000018H
  001fc	52		 push	 edx
  001fd	e8 00 00 00 00	 call	 ??3@YAXPAXI@Z		; operator delete
  00202	83 c4 08	 add	 esp, 8
; File D:\_m2work\Server Client TMP4\ClientVS22\source\UserInterface\InstanceBaseBattle.cpp

; 242  : 	return true;

  00205	8a c3		 mov	 al, bl

; 243  : }

  00207	8b 4d f4	 mov	 ecx, DWORD PTR __$EHRec$[ebp]
  0020a	64 89 0d 00 00
	00 00		 mov	 DWORD PTR fs:0, ecx
  00211	59		 pop	 ecx
  00212	5f		 pop	 edi
  00213	5e		 pop	 esi
  00214	5b		 pop	 ebx
  00215	8b e5		 mov	 esp, ebp
  00217	5d		 pop	 ebp
  00218	c2 08 00	 ret	 8
_TEXT	ENDS
;	COMDAT text$x
text$x	SEGMENT
__unwindfunclet$?NEW_GetInstanceVectorInFanRange@CInstanceBase@@QAE_NMAAV1@PAV?$vector@PAVCInstanceBase@@V?$allocator@PAVCInstanceBase@@@std@@@std@@@Z$0:
  00000	8d 4d dc	 lea	 ecx, DWORD PTR _kMap_pkInstNear$[ebp]
  00003	e9 00 00 00 00	 jmp	 ??1?$multimap@MPAVCInstanceBase@@U?$less@M@std@@V?$allocator@U?$pair@$$CBMPAVCInstanceBase@@@std@@@3@@std@@QAE@XZ
  00008	cc		 int	 3
  00009	cc		 int	 3
  0000a	cc		 int	 3
  0000b	cc		 int	 3
  0000c	cc		 int	 3
__ehhandler$?NEW_GetInstanceVectorInFanRange@CInstanceBase@@QAE_NMAAV1@PAV?$vector@PAVCInstanceBase@@V?$allocator@PAVCInstanceBase@@@std@@@std@@@Z:
  0000d	90		 npad	 1
  0000e	90		 npad	 1
  0000f	8b 54 24 08	 mov	 edx, DWORD PTR [esp+8]
  00013	8d 42 0c	 lea	 eax, DWORD PTR [edx+12]
  00016	8b 4a d0	 mov	 ecx, DWORD PTR [edx-48]
  00019	33 c8		 xor	 ecx, eax
  0001b	e8 00 00 00 00	 call	 @__security_check_cookie@4
  00020	b8 00 00 00 00	 mov	 eax, OFFSET __ehfuncinfo$?NEW_GetInstanceVectorInFanRange@CInstanceBase@@QAE_NMAAV1@PAV?$vector@PAVCInstanceBase@@V?$allocator@PAVCInstanceBase@@@std@@@std@@@Z
  00025	e9 00 00 00 00	 jmp	 ___CxxFrameHandler3
text$x	ENDS
?NEW_GetInstanceVectorInFanRange@CInstanceBase@@QAE_NMAAV1@PAV?$vector@PAVCInstanceBase@@V?$allocator@PAVCInstanceBase@@@std@@@std@@@Z ENDP ; CInstanceBase::NEW_GetInstanceVectorInFanRange
; Function compile flags: /Ogtp
; File D:\_m2work\Server Client TMP4\ClientVS22\source\UserInterface\InstanceBaseBattle.cpp
; File C:\Program Files\Microsoft Visual Studio\2022\Community\VC\Tools\MSVC\14.44.35207\include\xmemory
; File C:\Program Files\Microsoft Visual Studio\2022\Community\VC\Tools\MSVC\14.44.35207\include\xtree
; File C:\Program Files\Microsoft Visual Studio\2022\Community\VC\Tools\MSVC\14.44.35207\include\xmemory
; File C:\Program Files\Microsoft Visual Studio\2022\Community\VC\Tools\MSVC\14.44.35207\include\xtree
; File D:\_m2work\Server Client TMP4\ClientVS22\source\UserInterface\InstanceBaseBattle.cpp
; File C:\Program Files\Microsoft Visual Studio\2022\Community\VC\Tools\MSVC\14.44.35207\include\xtree
; File D:\_m2work\Server Client TMP4\ClientVS22\source\UserInterface\PythonCharacterManager.h
; File D:\_m2work\Server Client TMP4\ClientVS22\source\UserInterface\InstanceBaseBattle.cpp
; File C:\Program Files\Microsoft Visual Studio\2022\Community\VC\Tools\MSVC\14.44.35207\include\map
; File D:\_m2work\Server Client TMP4\ClientVS22\source\UserInterface\InstanceBaseBattle.cpp
; File C:\Program Files\Microsoft Visual Studio\2022\Community\VC\Tools\MSVC\14.44.35207\include\map
; File C:\Program Files\Microsoft Visual Studio\2022\Community\VC\Tools\MSVC\14.44.35207\include\utility
; File C:\Program Files\Microsoft Visual Studio\2022\Community\VC\Tools\MSVC\14.44.35207\include\map
; File C:\Program Files\Microsoft Visual Studio\2022\Community\VC\Tools\MSVC\14.44.35207\include\xtree
; File D:\_m2work\Server Client TMP4\ClientVS22\source\UserInterface\PythonCharacterManager.h
; File D:\_m2work\Server Client TMP4\ClientVS22\source\UserInterface\InstanceBaseBattle.cpp
; File C:\Program Files\Microsoft Visual Studio\2022\Community\VC\Tools\MSVC\14.44.35207\include\xtree
; File D:\_m2work\Server Client TMP4\ClientVS22\source\UserInterface\InstanceBaseBattle.cpp
; File C:\Program Files\Microsoft Visual Studio\2022\Community\VC\Tools\MSVC\14.44.35207\include\xtree
; File D:\_m2work\Server Client TMP4\ClientVS22\source\UserInterface\InstanceBaseBattle.cpp
; File C:\Program Files\Microsoft Visual Studio\2022\Community\VC\Tools\MSVC\14.44.35207\include\vector
; File C:\Program Files\Microsoft Visual Studio\2022\Community\VC\Tools\MSVC\14.44.35207\include\xtree
; File D:\_m2work\Server Client TMP4\ClientVS22\source\UserInterface\InstanceBaseBattle.cpp
; File C:\Program Files\Microsoft Visual Studio\2022\Community\VC\Tools\MSVC\14.44.35207\include\xtree
; File C:\Program Files\Microsoft Visual Studio\2022\Community\VC\Tools\MSVC\14.44.35207\include\utility
; File C:\Program Files\Microsoft Visual Studio\2022\Community\VC\Tools\MSVC\14.44.35207\include\xmemory
; File C:\Program Files\Microsoft Visual Studio\2022\Community\VC\Tools\MSVC\14.44.35207\include\xtree
; File C:\Program Files\Microsoft Visual Studio\2022\Community\VC\Tools\MSVC\14.44.35207\include\xmemory
; File D:\_m2work\Server Client TMP4\ClientVS22\source\UserInterface\InstanceBaseBattle.cpp
;	COMDAT ?NEW_GetInstanceVectorInCircleRange@CInstanceBase@@QAE_NMPAV?$vector@PAVCInstanceBase@@V?$allocator@PAVCInstanceBase@@@std@@@std@@@Z
_TEXT	SEGMENT
$T2 = -40						; size = 8
_kMap_pkInstNear$ = -32					; size = 8
$T3 = -24						; size = 4
_fSkillDistance$1$ = -20				; size = 4
_i$4 = -16						; size = 4
__$EHRec$ = -12						; size = 12
_pkVct_pkInst$ = 8					; size = 4
?NEW_GetInstanceVectorInCircleRange@CInstanceBase@@QAE_NMPAV?$vector@PAVCInstanceBase@@V?$allocator@PAVCInstanceBase@@@std@@@std@@@Z PROC ; CInstanceBase::NEW_GetInstanceVectorInCircleRange, COMDAT
; _this$ = ecx
; _fSkillDistance$ = xmm1s

; 246  : {

  00000	55		 push	 ebp
  00001	8b ec		 mov	 ebp, esp
  00003	6a ff		 push	 -1
  00005	68 00 00 00 00	 push	 __ehhandler$?NEW_GetInstanceVectorInCircleRange@CInstanceBase@@QAE_NMPAV?$vector@PAVCInstanceBase@@V?$allocator@PAVCInstanceBase@@@std@@@std@@@Z
  0000a	64 a1 00 00 00
	00		 mov	 eax, DWORD PTR fs:0
  00010	50		 push	 eax
  00011	83 ec 1c	 sub	 esp, 28			; 0000001cH
  00014	53		 push	 ebx
  00015	56		 push	 esi
  00016	57		 push	 edi
  00017	a1 00 00 00 00	 mov	 eax, DWORD PTR ___security_cookie
  0001c	33 c5		 xor	 eax, ebp
  0001e	50		 push	 eax
  0001f	8d 45 f4	 lea	 eax, DWORD PTR __$EHRec$[ebp]
  00022	64 a3 00 00 00
	00		 mov	 DWORD PTR fs:0, eax
  00028	f3 0f 11 4d ec	 movss	 DWORD PTR _fSkillDistance$1$[ebp], xmm1
  0002d	8b f9		 mov	 edi, ecx
; File C:\Program Files\Microsoft Visual Studio\2022\Community\VC\Tools\MSVC\14.44.35207\include\xmemory

; 136  :         return ::operator new(_Bytes);

  0002f	6a 18		 push	 24			; 00000018H
; File C:\Program Files\Microsoft Visual Studio\2022\Community\VC\Tools\MSVC\14.44.35207\include\xtree

; 450  :     _Tree_val() noexcept : _Myhead(), _Mysize(0) {}

  00031	c7 45 e0 00 00
	00 00		 mov	 DWORD PTR _kMap_pkInstNear$[ebp], 0
  00038	c7 45 e4 00 00
	00 00		 mov	 DWORD PTR _kMap_pkInstNear$[ebp+4], 0
; File C:\Program Files\Microsoft Visual Studio\2022\Community\VC\Tools\MSVC\14.44.35207\include\xmemory

; 136  :         return ::operator new(_Bytes);

  0003f	e8 00 00 00 00	 call	 ??2@YAPAXI@Z		; operator new

; 256  :         return _Traits::_Allocate(_Bytes);

  00044	8b d0		 mov	 edx, eax

; 136  :         return ::operator new(_Bytes);

  00046	83 c4 04	 add	 esp, 4
; File C:\Program Files\Microsoft Visual Studio\2022\Community\VC\Tools\MSVC\14.44.35207\include\xtree

; 346  :         _Construct_in_place(_Pnode->_Left, _Pnode);

  00049	89 12		 mov	 DWORD PTR [edx], edx

; 347  :         _Construct_in_place(_Pnode->_Parent, _Pnode);

  0004b	89 52 04	 mov	 DWORD PTR [edx+4], edx

; 348  :         _Construct_in_place(_Pnode->_Right, _Pnode);

  0004e	89 52 08	 mov	 DWORD PTR [edx+8], edx

; 349  :         _Pnode->_Color = _Black;

  00051	66 c7 42 0c 01
	01		 mov	 WORD PTR [edx+12], 257	; 00000101H

; 1957 :         _Scary->_Myhead = _Node::_Buyheadnode(_Getal());

  00057	89 55 e0	 mov	 DWORD PTR _kMap_pkInstNear$[ebp], edx
; File D:\_m2work\Server Client TMP4\ClientVS22\source\UserInterface\InstanceBaseBattle.cpp

; 247  : 	std::multimap<float, CInstanceBase*> kMap_pkInstNear;

  0005a	c7 45 fc 00 00
	00 00		 mov	 DWORD PTR __$EHRec$[ebp+8], 0

; 248  : 
; 249  : 	{
; 250  : 		CPythonCharacterManager& rkChrMgr=CPythonCharacterManager::Instance();

  00061	8b 1d 00 00 00
	00		 mov	 ebx, DWORD PTR ?ms_singleton@?$CSingleton@VCPythonCharacterManager@@@@0PAVCPythonCharacterManager@@A ; CSingleton<CPythonCharacterManager>::ms_singleton
; File C:\Program Files\Microsoft Visual Studio\2022\Community\VC\Tools\MSVC\14.44.35207\include\xtree

; 1142 :         return iterator(_Scary->_Myhead->_Left, _Scary);

  00067	8b 4b 20	 mov	 ecx, DWORD PTR [ebx+32]

; 37   :     _Tree_unchecked_const_iterator(_Nodeptr _Pnode, const _Mytree* _Plist) noexcept : _Ptr(_Pnode) {

  0006a	8b 01		 mov	 eax, DWORD PTR [ecx]
; File D:\_m2work\Server Client TMP4\ClientVS22\source\UserInterface\PythonCharacterManager.h

; 151  : 				m_it = rhs.m_it;

  0006c	89 45 f0	 mov	 DWORD PTR _i$4[ebp], eax

; 162  : 				return m_it != rhs.m_it;

  0006f	3b c1		 cmp	 eax, ecx
; File D:\_m2work\Server Client TMP4\ClientVS22\source\UserInterface\InstanceBaseBattle.cpp

; 252  : 		for(i = rkChrMgr.CharacterInstanceBegin(); i!=rkChrMgr.CharacterInstanceEnd(); ++i)

  00071	74 67		 je	 SHORT $LN3@NEW_GetIns
$LL4@NEW_GetIns:

; 253  : 		{
; 254  : 			CInstanceBase* pkInstEach=*i;

  00073	8b 70 14	 mov	 esi, DWORD PTR [eax+20]

; 255  : 
; 256  : 			//    
; 257  : 			if (pkInstEach==this)

  00076	3b f7		 cmp	 esi, edi
  00078	74 4d		 je	 SHORT $LN2@NEW_GetIns

; 258  : 				continue;
; 259  : 
; 260  : 			//   
; 261  : 			if (!IsAttackableInstance(*pkInstEach))

  0007a	56		 push	 esi
  0007b	8b cf		 mov	 ecx, edi
  0007d	e8 00 00 00 00	 call	 ?IsAttackableInstance@CInstanceBase@@QAE_NAAV1@@Z ; CInstanceBase::IsAttackableInstance
  00082	84 c0		 test	 al, al
  00084	74 41		 je	 SHORT $LN2@NEW_GetIns

; 262  : 				continue;
; 263  : 
; 264  : 			if (m_GraphicThingInstance.IsClickableDistanceDestInstance(pkInstEach->m_GraphicThingInstance, fSkillDistance))

  00086	f3 0f 10 45 ec	 movss	 xmm0, DWORD PTR _fSkillDistance$1$[ebp]
  0008b	8d 86 d4 01 00
	00		 lea	 eax, DWORD PTR [esi+468]
  00091	51		 push	 ecx
  00092	f3 0f 11 04 24	 movss	 DWORD PTR [esp], xmm0
  00097	8d 8f d4 01 00
	00		 lea	 ecx, DWORD PTR [edi+468]
  0009d	50		 push	 eax
  0009e	e8 00 00 00 00	 call	 ?IsClickableDistanceDestInstance@CActorInstance@@QAEHAAV1@M@Z ; CActorInstance::IsClickableDistanceDestInstance
  000a3	85 c0		 test	 eax, eax
  000a5	74 20		 je	 SHORT $LN2@NEW_GetIns

; 266  : 				float fEachInstDistance=NEW_GetDistanceFromDestInstance(*pkInstEach);

  000a7	56		 push	 esi
  000a8	8b cf		 mov	 ecx, edi
  000aa	e8 00 00 00 00	 call	 ?NEW_GetDistanceFromDestInstance@CInstanceBase@@QAEMAAV1@@Z ; CInstanceBase::NEW_GetDistanceFromDestInstance
; File C:\Program Files\Microsoft Visual Studio\2022\Community\VC\Tools\MSVC\14.44.35207\include\map

; 566  :         return this->emplace(_STD forward<_Valty>(_Val));

  000af	8d 45 d8	 lea	 eax, DWORD PTR $T2[ebp]
; File D:\_m2work\Server Client TMP4\ClientVS22\source\UserInterface\InstanceBaseBattle.cpp

; 266  : 				float fEachInstDistance=NEW_GetDistanceFromDestInstance(*pkInstEach);

  000b2	f3 0f 11 45 d8	 movss	 DWORD PTR $T2[ebp], xmm0
; File C:\Program Files\Microsoft Visual Studio\2022\Community\VC\Tools\MSVC\14.44.35207\include\map

; 566  :         return this->emplace(_STD forward<_Valty>(_Val));

  000b7	50		 push	 eax
  000b8	8d 45 e8	 lea	 eax, DWORD PTR $T3[ebp]
; File C:\Program Files\Microsoft Visual Studio\2022\Community\VC\Tools\MSVC\14.44.35207\include\utility

; 274  :         : first(_STD forward<_Other1>(_Val1)), second(_STD forward<_Other2>(_Val2)) {

  000bb	89 75 dc	 mov	 DWORD PTR $T2[ebp+4], esi
; File C:\Program Files\Microsoft Visual Studio\2022\Community\VC\Tools\MSVC\14.44.35207\include\map

; 566  :         return this->emplace(_STD forward<_Valty>(_Val));

  000be	50		 push	 eax
  000bf	8d 4d e0	 lea	 ecx, DWORD PTR _kMap_pkInstNear$[ebp]
  000c2	e8 00 00 00 00	 call	 ??$emplace@U?$pair@MPAVCInstanceBase@@@std@@@?$multimap@MPAVCInstanceBase@@U?$less@M@std@@V?$allocator@U?$pair@$$CBMPAVCInstanceBase@@@std@@@3@@std@@QAE?AV?$_Tree_iterator@V?$_Tree_val@U?$_Tree_simple_types@U?$pair@$$CBMPAVCInstanceBase@@@std@@@std@@@std@@@1@$$QAU?$pair@MPAVCInstanceBase@@@1@@Z ; std::multimap<float,CInstanceBase *,std::less<float>,std::allocator<std::pair<float const ,CInstanceBase *> > >::emplace<std::pair<float,CInstanceBase *> >
$LN2@NEW_GetIns:
; File C:\Program Files\Microsoft Visual Studio\2022\Community\VC\Tools\MSVC\14.44.35207\include\xtree

; 198  :         _Mybase::operator++();

  000c7	8d 4d f0	 lea	 ecx, DWORD PTR _i$4[ebp]
  000ca	e8 00 00 00 00	 call	 ??E?$_Tree_unchecked_const_iterator@V?$_Tree_val@U?$_Tree_simple_types@U?$pair@$$CBKPAVCInstanceBase@@@std@@@std@@@std@@U_Iterator_base0@2@@std@@QAEAAV01@XZ ; std::_Tree_unchecked_const_iterator<std::_Tree_val<std::_Tree_simple_types<std::pair<unsigned long const ,CInstanceBase *> > >,std::_Iterator_base0>::operator++
; File D:\_m2work\Server Client TMP4\ClientVS22\source\UserInterface\PythonCharacterManager.h

; 162  : 				return m_it != rhs.m_it;

  000cf	8b 45 f0	 mov	 eax, DWORD PTR _i$4[ebp]
  000d2	3b 43 20	 cmp	 eax, DWORD PTR [ebx+32]
; File D:\_m2work\Server Client TMP4\ClientVS22\source\UserInterface\InstanceBaseBattle.cpp

; 252  : 		for(i = rkChrMgr.CharacterInstanceBegin(); i!=rkChrMgr.CharacterInstanceEnd(); ++i)

  000d5	75 9c		 jne	 SHORT $LL4@NEW_GetIns
  000d7	8b 55 e0	 mov	 edx, DWORD PTR _kMap_pkInstNear$[ebp]
$LN3@NEW_GetIns:
; File C:\Program Files\Microsoft Visual Studio\2022\Community\VC\Tools\MSVC\14.44.35207\include\xtree

; 37   :     _Tree_unchecked_const_iterator(_Nodeptr _Pnode, const _Mytree* _Plist) noexcept : _Ptr(_Pnode) {

  000da	8b 32		 mov	 esi, DWORD PTR [edx]
; File D:\_m2work\Server Client TMP4\ClientVS22\source\UserInterface\InstanceBaseBattle.cpp

; 274  : 		for (i=kMap_pkInstNear.begin(); i!=kMap_pkInstNear.end(); ++i)

  000dc	8b 7d 08	 mov	 edi, DWORD PTR _pkVct_pkInst$[ebp]
; File C:\Program Files\Microsoft Visual Studio\2022\Community\VC\Tools\MSVC\14.44.35207\include\xtree

; 37   :     _Tree_unchecked_const_iterator(_Nodeptr _Pnode, const _Mytree* _Plist) noexcept : _Ptr(_Pnode) {

  000df	3b f2		 cmp	 esi, edx
; File D:\_m2work\Server Client TMP4\ClientVS22\source\UserInterface\InstanceBaseBattle.cpp

; 274  : 		for (i=kMap_pkInstNear.begin(); i!=kMap_pkInstNear.end(); ++i)

  000e1	74 50		 je	 SHORT $LN6@NEW_GetIns
$LL7@NEW_GetIns:

; 275  : 			pkVct_pkInst->push_back(i->second);

  000e3	8d 46 14	 lea	 eax, DWORD PTR [esi+20]
; File C:\Program Files\Microsoft Visual Studio\2022\Community\VC\Tools\MSVC\14.44.35207\include\vector

; 933  :         _Emplace_one_at_back(_Val);

  000e6	8b cf		 mov	 ecx, edi
  000e8	50		 push	 eax
  000e9	e8 00 00 00 00	 call	 ??$_Emplace_one_at_back@ABQAVCInstanceBase@@@?$vector@PAVCInstanceBase@@V?$allocator@PAVCInstanceBase@@@std@@@std@@AAEAAPAVCInstanceBase@@ABQAV2@@Z ; std::vector<CInstanceBase *,std::allocator<CInstanceBase *> >::_Emplace_one_at_back<CInstanceBase * const &>
; File C:\Program Files\Microsoft Visual Studio\2022\Community\VC\Tools\MSVC\14.44.35207\include\xtree

; 50   :         if (_Ptr->_Right->_Isnil) { // climb looking for right subtree

  000ee	8b 46 08	 mov	 eax, DWORD PTR [esi+8]
  000f1	80 78 0d 00	 cmp	 BYTE PTR [eax+13], 0
  000f5	74 1d		 je	 SHORT $LN39@NEW_GetIns

; 51   :             _Nodeptr _Pnode;
; 52   :             while (!(_Pnode = _Ptr->_Parent)->_Isnil && _Ptr == _Pnode->_Right) {

  000f7	8b 46 04	 mov	 eax, DWORD PTR [esi+4]
  000fa	80 78 0d 00	 cmp	 BYTE PTR [eax+13], 0
  000fe	75 10		 jne	 SHORT $LN420@NEW_GetIns
$LL37@NEW_GetIns:
  00100	3b 70 08	 cmp	 esi, DWORD PTR [eax+8]
  00103	75 0b		 jne	 SHORT $LN420@NEW_GetIns

; 53   :                 _Ptr = _Pnode; // ==> parent while right subtree

  00105	8b f0		 mov	 esi, eax
  00107	8b 40 04	 mov	 eax, DWORD PTR [eax+4]
  0010a	80 78 0d 00	 cmp	 BYTE PTR [eax+13], 0
  0010e	74 f0		 je	 SHORT $LL37@NEW_GetIns
$LN420@NEW_GetIns:

; 54   :             }
; 55   : 
; 56   :             _Ptr = _Pnode; // ==> parent (head if end())

  00110	8b f0		 mov	 esi, eax

; 57   :         } else {

  00112	eb 18		 jmp	 SHORT $LN45@NEW_GetIns
$LN39@NEW_GetIns:

; 58   :             _Ptr = _Mytree::_Min(_Ptr->_Right); // ==> smallest of right subtree

  00114	8b f0		 mov	 esi, eax

; 476  :         while (!_Pnode->_Left->_Isnil) {

  00116	8b 0e		 mov	 ecx, DWORD PTR [esi]
  00118	80 79 0d 00	 cmp	 BYTE PTR [ecx+13], 0
  0011c	75 0e		 jne	 SHORT $LN45@NEW_GetIns
  0011e	66 90		 npad	 2
$LL44@NEW_GetIns:
  00120	8b 01		 mov	 eax, DWORD PTR [ecx]

; 477  :             _Pnode = _Pnode->_Left;

  00122	8b f1		 mov	 esi, ecx
  00124	8b c8		 mov	 ecx, eax
  00126	80 78 0d 00	 cmp	 BYTE PTR [eax+13], 0
  0012a	74 f4		 je	 SHORT $LL44@NEW_GetIns
$LN45@NEW_GetIns:

; 232  :         return this->_Ptr == _Right._Ptr;

  0012c	8b 55 e0	 mov	 edx, DWORD PTR _kMap_pkInstNear$[ebp]
  0012f	3b f2		 cmp	 esi, edx
; File D:\_m2work\Server Client TMP4\ClientVS22\source\UserInterface\InstanceBaseBattle.cpp

; 274  : 		for (i=kMap_pkInstNear.begin(); i!=kMap_pkInstNear.end(); ++i)

  00131	75 b0		 jne	 SHORT $LL7@NEW_GetIns
$LN6@NEW_GetIns:
; File C:\Program Files\Microsoft Visual Studio\2022\Community\VC\Tools\MSVC\14.44.35207\include\xtree

; 777  :         _Erase_tree(_Al, _Myhead->_Parent);

  00133	8b 07		 mov	 eax, DWORD PTR [edi]
  00135	3b 47 04	 cmp	 eax, DWORD PTR [edi+4]
  00138	8b 72 04	 mov	 esi, DWORD PTR [edx+4]
  0013b	0f 95 c3	 setne	 bl

; 768  :         while (!_Rootnode->_Isnil) { // free subtrees, then node

  0013e	80 7e 0d 00	 cmp	 BYTE PTR [esi+13], 0
  00142	75 26		 jne	 SHORT $LN409@NEW_GetIns
$LL74@NEW_GetIns:

; 769  :             _Erase_tree(_Al, _Rootnode->_Right);

  00144	ff 76 08	 push	 DWORD PTR [esi+8]
  00147	8d 45 e0	 lea	 eax, DWORD PTR _kMap_pkInstNear$[ebp]
  0014a	50		 push	 eax
  0014b	8b c8		 mov	 ecx, eax
  0014d	e8 00 00 00 00	 call	 ??$_Erase_tree@V?$allocator@U?$_Tree_node@U?$pair@$$CBMPAVCInstanceBase@@@std@@PAX@std@@@std@@@?$_Tree_val@U?$_Tree_simple_types@U?$pair@$$CBMPAVCInstanceBase@@@std@@@std@@@std@@QAEXAAV?$allocator@U?$_Tree_node@U?$pair@$$CBMPAVCInstanceBase@@@std@@PAX@std@@@1@PAU?$_Tree_node@U?$pair@$$CBMPAVCInstanceBase@@@std@@PAX@1@@Z ; std::_Tree_val<std::_Tree_simple_types<std::pair<float const ,CInstanceBase *> > >::_Erase_tree<std::allocator<std::_Tree_node<std::pair<float const ,CInstanceBase *>,void *> > >
; File C:\Program Files\Microsoft Visual Studio\2022\Community\VC\Tools\MSVC\14.44.35207\include\utility

; 773  :     _Ty _Old_val = static_cast<_Ty&&>(_Val);

  00152	8b c6		 mov	 eax, esi

; 774  :     _Val         = static_cast<_Other&&>(_New_val);

  00154	8b 36		 mov	 esi, DWORD PTR [esi]
; File C:\Program Files\Microsoft Visual Studio\2022\Community\VC\Tools\MSVC\14.44.35207\include\xmemory

; 289  :         ::operator delete(_Ptr, _Bytes);

  00156	6a 18		 push	 24			; 00000018H
  00158	50		 push	 eax
  00159	e8 00 00 00 00	 call	 ??3@YAXPAXI@Z		; operator delete
  0015e	83 c4 08	 add	 esp, 8
; File C:\Program Files\Microsoft Visual Studio\2022\Community\VC\Tools\MSVC\14.44.35207\include\xtree

; 768  :         while (!_Rootnode->_Isnil) { // free subtrees, then node

  00161	80 7e 0d 00	 cmp	 BYTE PTR [esi+13], 0
  00165	74 dd		 je	 SHORT $LL74@NEW_GetIns
  00167	8b 55 e0	 mov	 edx, DWORD PTR _kMap_pkInstNear$[ebp]
$LN409@NEW_GetIns:
; File C:\Program Files\Microsoft Visual Studio\2022\Community\VC\Tools\MSVC\14.44.35207\include\xmemory

; 289  :         ::operator delete(_Ptr, _Bytes);

  0016a	6a 18		 push	 24			; 00000018H
  0016c	52		 push	 edx
  0016d	e8 00 00 00 00	 call	 ??3@YAXPAXI@Z		; operator delete
  00172	83 c4 08	 add	 esp, 8
; File D:\_m2work\Server Client TMP4\ClientVS22\source\UserInterface\InstanceBaseBattle.cpp

; 281  : 	return true;

  00175	8a c3		 mov	 al, bl

; 282  : }

  00177	8b 4d f4	 mov	 ecx, DWORD PTR __$EHRec$[ebp]
  0017a	64 89 0d 00 00
	00 00		 mov	 DWORD PTR fs:0, ecx
  00181	59		 pop	 ecx
  00182	5f		 pop	 edi
  00183	5e		 pop	 esi
  00184	5b		 pop	 ebx
  00185	8b e5		 mov	 esp, ebp
  00187	5d		 pop	 ebp
  00188	c2 04 00	 ret	 4
_TEXT	ENDS
;	COMDAT text$x
text$x	SEGMENT
__unwindfunclet$?NEW_GetInstanceVectorInCircleRange@CInstanceBase@@QAE_NMPAV?$vector@PAVCInstanceBase@@V?$allocator@PAVCInstanceBase@@@std@@@std@@@Z$0:
  00000	8d 4d e0	 lea	 ecx, DWORD PTR _kMap_pkInstNear$[ebp]
  00003	e9 00 00 00 00	 jmp	 ??1?$multimap@MPAVCInstanceBase@@U?$less@M@std@@V?$allocator@U?$pair@$$CBMPAVCInstanceBase@@@std@@@3@@std@@QAE@XZ
  00008	cc		 int	 3
  00009	cc		 int	 3
  0000a	cc		 int	 3
  0000b	cc		 int	 3
  0000c	cc		 int	 3
__ehhandler$?NEW_GetInstanceVectorInCircleRange@CInstanceBase@@QAE_NMPAV?$vector@PAVCInstanceBase@@V?$allocator@PAVCInstanceBase@@@std@@@std@@@Z:
  0000d	90		 npad	 1
  0000e	90		 npad	 1
  0000f	8b 54 24 08	 mov	 edx, DWORD PTR [esp+8]
  00013	8d 42 0c	 lea	 eax, DWORD PTR [edx+12]
  00016	8b 4a d4	 mov	 ecx, DWORD PTR [edx-44]
  00019	33 c8		 xor	 ecx, eax
  0001b	e8 00 00 00 00	 call	 @__security_check_cookie@4
  00020	b8 00 00 00 00	 mov	 eax, OFFSET __ehfuncinfo$?NEW_GetInstanceVectorInCircleRange@CInstanceBase@@QAE_NMPAV?$vector@PAVCInstanceBase@@V?$allocator@PAVCInstanceBase@@@std@@@std@@@Z
  00025	e9 00 00 00 00	 jmp	 ___CxxFrameHandler3
text$x	ENDS
?NEW_GetInstanceVectorInCircleRange@CInstanceBase@@QAE_NMPAV?$vector@PAVCInstanceBase@@V?$allocator@PAVCInstanceBase@@@std@@@std@@@Z ENDP ; CInstanceBase::NEW_GetInstanceVectorInCircleRange
; Function compile flags: /Ogtp
; File D:\_m2work\Server Client TMP4\ClientVS22\source\UserInterface\InstanceBaseBattle.cpp
;	COMDAT ?NEW_IsClickableDistanceDestPixelPosition@CInstanceBase@@QAEHABUD3DXVECTOR3@@@Z
_TEXT	SEGMENT
_c_rkPPosDst$ = 8					; size = 4
?NEW_IsClickableDistanceDestPixelPosition@CInstanceBase@@QAEHABUD3DXVECTOR3@@@Z PROC ; CInstanceBase::NEW_IsClickableDistanceDestPixelPosition, COMDAT
; _this$ = ecx

; 285  : {

  00000	55		 push	 ebp
  00001	8b ec		 mov	 ebp, esp

; 286  : 	float fDistance=NEW_GetDistanceFromDestPixelPosition(c_rkPPosDst);

  00003	ff 75 08	 push	 DWORD PTR _c_rkPPosDst$[ebp]
  00006	e8 00 00 00 00	 call	 ?NEW_GetDistanceFromDestPixelPosition@CInstanceBase@@QAEMABUD3DXVECTOR3@@@Z ; CInstanceBase::NEW_GetDistanceFromDestPixelPosition

; 287  : 
; 288  : 	if (fDistance>150.0f)

  0000b	33 c0		 xor	 eax, eax
  0000d	0f 2f 05 00 00
	00 00		 comiss	 xmm0, DWORD PTR __real@43160000
  00014	0f 96 c0	 setbe	 al

; 289  : 		return FALSE;
; 290  : 
; 291  : 	return TRUE;
; 292  : }

  00017	5d		 pop	 ebp
  00018	c2 04 00	 ret	 4
?NEW_IsClickableDistanceDestPixelPosition@CInstanceBase@@QAEHABUD3DXVECTOR3@@@Z ENDP ; CInstanceBase::NEW_IsClickableDistanceDestPixelPosition
_TEXT	ENDS
; Function compile flags: /Ogtp
; File D:\_m2work\Server Client TMP4\ClientVS22\source\UserInterface\InstanceBaseBattle.cpp
;	COMDAT ?NEW_IsClickableDistanceDestInstance@CInstanceBase@@QAEHAAV1@@Z
_TEXT	SEGMENT
_fDistance$1$ = -4					; size = 4
_rkInstDst$ = 8						; size = 4
?NEW_IsClickableDistanceDestInstance@CInstanceBase@@QAEHAAV1@@Z PROC ; CInstanceBase::NEW_IsClickableDistanceDestInstance, COMDAT
; _this$ = ecx

; 295  : {

  00000	55		 push	 ebp
  00001	8b ec		 mov	 ebp, esp
  00003	51		 push	 ecx

; 296  : 	float fDistance = 150.0f;

  00004	f3 0f 10 05 00
	00 00 00	 movss	 xmm0, DWORD PTR __real@43160000
  0000c	56		 push	 esi
  0000d	57		 push	 edi
  0000e	8b f9		 mov	 edi, ecx
  00010	f3 0f 11 45 fc	 movss	 DWORD PTR _fDistance$1$[ebp], xmm0

; 297  : 
; 298  : 	if (IsBowMode())

  00015	e8 00 00 00 00	 call	 ?IsBowMode@CInstanceBase@@QAEHXZ ; CInstanceBase::IsBowMode
  0001a	85 c0		 test	 eax, eax
  0001c	74 0c		 je	 SHORT $LN2@NEW_IsClic

; 299  : 		fDistance = __GetBowRange();

  0001e	8b cf		 mov	 ecx, edi
  00020	e8 00 00 00 00	 call	 ?__GetBowRange@CInstanceBase@@IAEMXZ ; CInstanceBase::__GetBowRange
  00025	f3 0f 11 45 fc	 movss	 DWORD PTR _fDistance$1$[ebp], xmm0
$LN2@NEW_IsClic:

; 300  : 
; 301  : 	if (rkInstDst.IsNPC())

  0002a	8b 75 08	 mov	 esi, DWORD PTR _rkInstDst$[ebp]
  0002d	8b ce		 mov	 ecx, esi
  0002f	e8 00 00 00 00	 call	 ?IsNPC@CInstanceBase@@QAEHXZ ; CInstanceBase::IsNPC
  00034	85 c0		 test	 eax, eax
  00036	74 0a		 je	 SHORT $LN6@NEW_IsClic

; 302  : 		fDistance = 500.0f;

  00038	f3 0f 10 05 00
	00 00 00	 movss	 xmm0, DWORD PTR __real@43fa0000
  00040	eb 05		 jmp	 SHORT $LN3@NEW_IsClic
$LN6@NEW_IsClic:

; 300  : 
; 301  : 	if (rkInstDst.IsNPC())

  00042	f3 0f 10 45 fc	 movss	 xmm0, DWORD PTR _fDistance$1$[ebp]
$LN3@NEW_IsClic:

; 303  : 
; 304  : 	if (rkInstDst.IsResource())

  00047	8b ce		 mov	 ecx, esi
  00049	e8 00 00 00 00	 call	 ?IsResource@CInstanceBase@@QAEHXZ ; CInstanceBase::IsResource
  0004e	85 c0		 test	 eax, eax
  00050	74 08		 je	 SHORT $LN4@NEW_IsClic

; 305  : 		fDistance = 100.0f;

  00052	f3 0f 10 05 00
	00 00 00	 movss	 xmm0, DWORD PTR __real@42c80000
$LN4@NEW_IsClic:

; 306  : 
; 307  : 	return m_GraphicThingInstance.IsClickableDistanceDestInstance(rkInstDst.m_GraphicThingInstance, fDistance);

  0005a	51		 push	 ecx
  0005b	8d 86 d4 01 00
	00		 lea	 eax, DWORD PTR [esi+468]
  00061	f3 0f 11 04 24	 movss	 DWORD PTR [esp], xmm0
  00066	50		 push	 eax
  00067	8d 8f d4 01 00
	00		 lea	 ecx, DWORD PTR [edi+468]
  0006d	e8 00 00 00 00	 call	 ?IsClickableDistanceDestInstance@CActorInstance@@QAEHAAV1@M@Z ; CActorInstance::IsClickableDistanceDestInstance
  00072	5f		 pop	 edi
  00073	5e		 pop	 esi

; 308  : }

  00074	8b e5		 mov	 esp, ebp
  00076	5d		 pop	 ebp
  00077	c2 04 00	 ret	 4
?NEW_IsClickableDistanceDestInstance@CInstanceBase@@QAEHAAV1@@Z ENDP ; CInstanceBase::NEW_IsClickableDistanceDestInstance
_TEXT	ENDS
; Function compile flags: /Ogtp
; File D:\_m2work\Server Client TMP4\ClientVS22\source\UserInterface\InstanceBaseBattle.cpp
;	COMDAT ?NEW_Attack@CInstanceBase@@QAEXXZ
_TEXT	SEGMENT
?NEW_Attack@CInstanceBase@@QAEXXZ PROC			; CInstanceBase::NEW_Attack, COMDAT
; _this$ = ecx

; 350  : {

  00000	56		 push	 esi
  00001	8b f1		 mov	 esi, ecx

; 351  : 	float fDirRot=GetRotation();

  00003	e8 00 00 00 00	 call	 ?GetRotation@CInstanceBase@@QAEMXZ ; CInstanceBase::GetRotation

; 352  : 	NEW_Attack(fDirRot);

  00008	8b ce		 mov	 ecx, esi
  0000a	0f 28 c8	 movaps	 xmm1, xmm0
  0000d	5e		 pop	 esi
  0000e	e9 00 00 00 00	 jmp	 ?NEW_Attack@CInstanceBase@@QAEXM@Z ; CInstanceBase::NEW_Attack
?NEW_Attack@CInstanceBase@@QAEXXZ ENDP			; CInstanceBase::NEW_Attack
_TEXT	ENDS
; Function compile flags: /Ogtp
; File D:\_m2work\Server Client TMP4\ClientVS22\source\UserInterface\InstanceBaseBattle.cpp
;	COMDAT ?NEW_Attack@CInstanceBase@@QAEXM@Z
_TEXT	SEGMENT
_fDirRot$1$ = -8					; size = 4
tv89 = -1						; size = 1
?NEW_Attack@CInstanceBase@@QAEXM@Z PROC			; CInstanceBase::NEW_Attack, COMDAT
; _this$ = ecx
; _fDirRot$ = xmm1s

; 356  : {

  00000	55		 push	 ebp
  00001	8b ec		 mov	 ebp, esp
  00003	83 ec 08	 sub	 esp, 8
  00006	56		 push	 esi
  00007	f3 0f 11 4d f8	 movss	 DWORD PTR _fDirRot$1$[ebp], xmm1
  0000c	8b f1		 mov	 esi, ecx

; 357  : 	if (IsDead())

  0000e	e8 00 00 00 00	 call	 ?IsDead@CInstanceBase@@QAEHXZ ; CInstanceBase::IsDead
  00013	85 c0		 test	 eax, eax
  00015	75 72		 jne	 SHORT $LN10@NEW_Attack

; 358  : 		return;
; 359  : 
; 360  : 	if (IsStun())

  00017	8b ce		 mov	 ecx, esi
  00019	e8 00 00 00 00	 call	 ?IsStun@CInstanceBase@@QAEHXZ ; CInstanceBase::IsStun
  0001e	85 c0		 test	 eax, eax
  00020	75 67		 jne	 SHORT $LN10@NEW_Attack

; 361  : 		return;
; 362  : 
; 363  : 	if (IsKnockDown())

  00022	8b ce		 mov	 ecx, esi
  00024	e8 00 00 00 00	 call	 ?IsKnockDown@CInstanceBase@@QAEHXZ ; CInstanceBase::IsKnockDown
  00029	85 c0		 test	 eax, eax
  0002b	75 5c		 jne	 SHORT $LN10@NEW_Attack

; 364  : 		return;
; 365  : 
; 366  : 	if (IsUsingSkill())

  0002d	8b ce		 mov	 ecx, esi
  0002f	e8 00 00 00 00	 call	 ?IsUsingSkill@CInstanceBase@@QAEHXZ ; CInstanceBase::IsUsingSkill
  00034	85 c0		 test	 eax, eax
  00036	75 51		 jne	 SHORT $LN10@NEW_Attack

; 367  : 		return;
; 368  : 	
; 369  : 	if (IsWalking())

  00038	8b ce		 mov	 ecx, esi
  0003a	e8 00 00 00 00	 call	 ?IsWalking@CInstanceBase@@QAEHXZ ; CInstanceBase::IsWalking
  0003f	85 c0		 test	 eax, eax
  00041	74 0f		 je	 SHORT $LN6@NEW_Attack

; 370  : 		EndWalking();

  00043	f3 0f 10 0d 00
	00 00 00	 movss	 xmm1, DWORD PTR __real@3e19999a
  0004b	8b ce		 mov	 ecx, esi
  0004d	e8 00 00 00 00	 call	 ?EndWalking@CInstanceBase@@QAEXM@Z ; CInstanceBase::EndWalking
$LN6@NEW_Attack:

; 371  : 
; 372  : 	m_isGoing = FALSE;
; 373  : 
; 374  : 	if (IsPoly())

  00052	8b ce		 mov	 ecx, esi
  00054	c6 86 88 01 00
	00 00		 mov	 BYTE PTR [esi+392], 0
  0005b	e8 00 00 00 00	 call	 ?IsPoly@CInstanceBase@@QAEHXZ ; CInstanceBase::IsPoly
  00060	85 c0		 test	 eax, eax
  00062	74 11		 je	 SHORT $LN7@NEW_Attack

; 375  : 	{
; 376  : 		InputNormalAttack(fDirRot);

  00064	f3 0f 10 4d f8	 movss	 xmm1, DWORD PTR _fDirRot$1$[ebp]
  00069	8b ce		 mov	 ecx, esi
  0006b	e8 00 00 00 00	 call	 ?InputNormalAttack@CInstanceBase@@QAEXM@Z ; CInstanceBase::InputNormalAttack
  00070	5e		 pop	 esi

; 387  : 		}
; 388  : 	}
; 389  : }

  00071	8b e5		 mov	 esp, ebp
  00073	5d		 pop	 ebp
  00074	c3		 ret	 0
$LN7@NEW_Attack:

; 377  : 	}
; 378  : 	else
; 379  : 	{
; 380  : 		if (m_kHorse.IsMounting())

  00075	8d 4e 04	 lea	 ecx, DWORD PTR [esi+4]
  00078	e8 00 00 00 00	 call	 ?IsMounting@SHORSE@CInstanceBase@@QAE_NXZ ; CInstanceBase::SHORSE::IsMounting

; 381  : 		{
; 382  : 			InputComboAttack(fDirRot);
; 383  : 		}
; 384  : 		else
; 385  : 		{
; 386  : 			InputComboAttack(fDirRot);

  0007d	f3 0f 10 4d f8	 movss	 xmm1, DWORD PTR _fDirRot$1$[ebp]
  00082	8b ce		 mov	 ecx, esi
  00084	e8 00 00 00 00	 call	 ?InputComboAttack@CInstanceBase@@QAEXM@Z ; CInstanceBase::InputComboAttack
$LN10@NEW_Attack:
  00089	5e		 pop	 esi

; 387  : 		}
; 388  : 	}
; 389  : }

  0008a	8b e5		 mov	 esp, ebp
  0008c	5d		 pop	 ebp
  0008d	c3		 ret	 0
?NEW_Attack@CInstanceBase@@QAEXM@Z ENDP			; CInstanceBase::NEW_Attack
_TEXT	ENDS
; Function compile flags: /Ogtp
; File D:\_m2work\Server Client TMP4\ClientVS22\source\UserInterface\InstanceBaseBattle.cpp
;	COMDAT ?NEW_AttackToDestPixelPositionDirection@CInstanceBase@@QAEXABUD3DXVECTOR3@@@Z
_TEXT	SEGMENT
_c_rkPPosDst$ = 8					; size = 4
?NEW_AttackToDestPixelPositionDirection@CInstanceBase@@QAEXABUD3DXVECTOR3@@@Z PROC ; CInstanceBase::NEW_AttackToDestPixelPositionDirection, COMDAT
; _this$ = ecx

; 393  : {

  00000	55		 push	 ebp
  00001	8b ec		 mov	 ebp, esp
  00003	56		 push	 esi

; 394  : 	float fDirRot=NEW_GetRotationFromDestPixelPosition(c_rkPPosDst);

  00004	ff 75 08	 push	 DWORD PTR _c_rkPPosDst$[ebp]
  00007	8b f1		 mov	 esi, ecx
  00009	e8 00 00 00 00	 call	 ?NEW_GetRotationFromDestPixelPosition@CInstanceBase@@QAEMABUD3DXVECTOR3@@@Z ; CInstanceBase::NEW_GetRotationFromDestPixelPosition

; 395  : 	
; 396  : 	NEW_Attack(fDirRot);

  0000e	0f 28 c8	 movaps	 xmm1, xmm0
  00011	8b ce		 mov	 ecx, esi
  00013	e8 00 00 00 00	 call	 ?NEW_Attack@CInstanceBase@@QAEXM@Z ; CInstanceBase::NEW_Attack
  00018	5e		 pop	 esi

; 397  : }

  00019	5d		 pop	 ebp
  0001a	c2 04 00	 ret	 4
?NEW_AttackToDestPixelPositionDirection@CInstanceBase@@QAEXABUD3DXVECTOR3@@@Z ENDP ; CInstanceBase::NEW_AttackToDestPixelPositionDirection
_TEXT	ENDS
; Function compile flags: /Ogtp
; File D:\_m2work\Server Client TMP4\ClientVS22\source\UserInterface\InstanceBaseBattle.cpp
;	COMDAT ?NEW_AttackToDestInstanceDirection@CInstanceBase@@QAE_NAAV1@PAVIFlyEventHandler@@@Z
_TEXT	SEGMENT
_rkInstDst$ = 8						; size = 4
_pkFlyHandler$dead$ = 12				; size = 4
?NEW_AttackToDestInstanceDirection@CInstanceBase@@QAE_NAAV1@PAVIFlyEventHandler@@@Z PROC ; CInstanceBase::NEW_AttackToDestInstanceDirection, COMDAT
; _this$ = ecx

; 400  : {

  00000	55		 push	 ebp
  00001	8b ec		 mov	 ebp, esp

; 401  : 	return NEW_AttackToDestInstanceDirection(rkInstDst);

  00003	ff 75 08	 push	 DWORD PTR _rkInstDst$[ebp]
  00006	e8 00 00 00 00	 call	 ?NEW_AttackToDestInstanceDirection@CInstanceBase@@QAE_NAAV1@@Z ; CInstanceBase::NEW_AttackToDestInstanceDirection

; 402  : }

  0000b	5d		 pop	 ebp
  0000c	c2 08 00	 ret	 8
?NEW_AttackToDestInstanceDirection@CInstanceBase@@QAE_NAAV1@PAVIFlyEventHandler@@@Z ENDP ; CInstanceBase::NEW_AttackToDestInstanceDirection
_TEXT	ENDS
; Function compile flags: /Ogtp
; File D:\_m2work\Server Client TMP4\ClientVS22\source\UserInterface\InstanceBaseBattle.cpp
;	COMDAT ?NEW_AttackToDestInstanceDirection@CInstanceBase@@QAE_NAAV1@@Z
_TEXT	SEGMENT
_kPPosDst$ = -12					; size = 12
_rkInstDst$ = 8						; size = 4
?NEW_AttackToDestInstanceDirection@CInstanceBase@@QAE_NAAV1@@Z PROC ; CInstanceBase::NEW_AttackToDestInstanceDirection, COMDAT
; _this$ = ecx

; 405  : {

  00000	55		 push	 ebp
  00001	8b ec		 mov	 ebp, esp
  00003	83 ec 0c	 sub	 esp, 12			; 0000000cH

; 406  : 	TPixelPosition kPPosDst;
; 407  : 	rkInstDst.NEW_GetPixelPosition(&kPPosDst);

  00006	8d 45 f4	 lea	 eax, DWORD PTR _kPPosDst$[ebp]
  00009	56		 push	 esi
  0000a	8b f1		 mov	 esi, ecx
  0000c	8b 4d 08	 mov	 ecx, DWORD PTR _rkInstDst$[ebp]
  0000f	50		 push	 eax
  00010	e8 00 00 00 00	 call	 ?NEW_GetPixelPosition@CInstanceBase@@QAEXPAUD3DXVECTOR3@@@Z ; CInstanceBase::NEW_GetPixelPosition

; 408  : 	NEW_AttackToDestPixelPositionDirection(kPPosDst);

  00015	8d 45 f4	 lea	 eax, DWORD PTR _kPPosDst$[ebp]
  00018	8b ce		 mov	 ecx, esi
  0001a	50		 push	 eax
  0001b	e8 00 00 00 00	 call	 ?NEW_AttackToDestPixelPositionDirection@CInstanceBase@@QAEXABUD3DXVECTOR3@@@Z ; CInstanceBase::NEW_AttackToDestPixelPositionDirection

; 409  : 
; 410  : 	return true;

  00020	b0 01		 mov	 al, 1
  00022	5e		 pop	 esi

; 411  : }

  00023	8b e5		 mov	 esp, ebp
  00025	5d		 pop	 ebp
  00026	c2 04 00	 ret	 4
?NEW_AttackToDestInstanceDirection@CInstanceBase@@QAE_NAAV1@@Z ENDP ; CInstanceBase::NEW_AttackToDestInstanceDirection
_TEXT	ENDS
; Function compile flags: /Ogtp
; File D:\_m2work\Server Client TMP4\ClientVS22\source\UserInterface\InstanceBaseBattle.cpp
;	COMDAT ?InputNormalAttack@CInstanceBase@@QAEXM@Z
_TEXT	SEGMENT
?InputNormalAttack@CInstanceBase@@QAEXM@Z PROC		; CInstanceBase::InputNormalAttack, COMDAT
; _this$ = ecx
; _fAtkDirRot$ = xmm1s

; 447  : 	m_GraphicThingInstance.InputNormalAttackCommand(fAtkDirRot);

  00000	51		 push	 ecx
  00001	81 c1 d4 01 00
	00		 add	 ecx, 468		; 000001d4H
  00007	f3 0f 11 0c 24	 movss	 DWORD PTR [esp], xmm1
  0000c	e8 00 00 00 00	 call	 ?InputNormalAttackCommand@CActorInstance@@QAEXM@Z ; CActorInstance::InputNormalAttackCommand

; 448  : }

  00011	c3		 ret	 0
?InputNormalAttack@CInstanceBase@@QAEXM@Z ENDP		; CInstanceBase::InputNormalAttack
_TEXT	ENDS
; Function compile flags: /Ogtp
; File D:\_m2work\Server Client TMP4\ClientVS22\source\UserInterface\InstanceBaseBattle.cpp
;	COMDAT ?InputComboAttack@CInstanceBase@@QAEXM@Z
_TEXT	SEGMENT
?InputComboAttack@CInstanceBase@@QAEXM@Z PROC		; CInstanceBase::InputComboAttack, COMDAT
; _this$ = ecx
; _fAtkDirRot$ = xmm1s

; 452  : 	m_GraphicThingInstance.InputComboAttackCommand(fAtkDirRot);

  00000	51		 push	 ecx
  00001	81 c1 d4 01 00
	00		 add	 ecx, 468		; 000001d4H
  00007	f3 0f 11 0c 24	 movss	 DWORD PTR [esp], xmm1
  0000c	e8 00 00 00 00	 call	 ?InputComboAttackCommand@CActorInstance@@QAE_NM@Z ; CActorInstance::InputComboAttackCommand

; 453  : 	__ComboProcess();
; 454  : }

  00011	c3		 ret	 0
?InputComboAttack@CInstanceBase@@QAEXM@Z ENDP		; CInstanceBase::InputComboAttack
_TEXT	ENDS
; Function compile flags: /Ogtp
; File D:\_m2work\Server Client TMP4\ClientVS22\source\UserInterface\InstanceBaseBattle.cpp
; File C:\Program Files\Microsoft Visual Studio\2022\Community\VC\Tools\MSVC\14.44.35207\include\xtree
; File D:\_m2work\Server Client TMP4\ClientVS22\source\UserInterface\PythonCharacterManager.h
; File D:\_m2work\Server Client TMP4\ClientVS22\source\UserInterface\InstanceBaseBattle.cpp
; File C:\Program Files\Microsoft Visual Studio\2022\Community\VC\Tools\MSVC\14.44.35207\include\xtree
; File D:\_m2work\Server Client TMP4\ClientVS22\source\UserInterface\PythonCharacterManager.h
; File D:\_m2work\Server Client TMP4\ClientVS22\source\UserInterface\InstanceBaseBattle.cpp
; File C:\Program Files\Microsoft Visual Studio\2022\Community\VC\Tools\MSVC\14.44.35207\include\xtree
; File D:\_m2work\Server Client TMP4\ClientVS22\source\UserInterface\PythonCharacterManager.h
; File D:\_m2work\Server Client TMP4\ClientVS22\source\UserInterface\InstanceBaseBattle.cpp
; File C:\Program Files\Microsoft Visual Studio\2022\Community\VC\Tools\MSVC\14.44.35207\include\xtree
; File D:\_m2work\Server Client TMP4\ClientVS22\source\UserInterface\PythonCharacterManager.h
; File D:\_m2work\Server Client TMP4\ClientVS22\source\UserInterface\InstanceBaseBattle.cpp
; File D:\_m2work\Server Client TMP4\ClientVS22\extern\include\d3dx8math.inl
; File C:\Program Files (x86)\Windows Kits\10\Include\10.0.26100.0\ucrt\corecrt_math.h
; File D:\_m2work\Server Client TMP4\ClientVS22\source\UserInterface\InstanceBaseBattle.cpp
; File C:\Program Files (x86)\Windows Kits\10\Include\10.0.26100.0\ucrt\corecrt_math.h
; File D:\_m2work\Server Client TMP4\ClientVS22\source\UserInterface\InstanceBaseBattle.cpp
; File D:\_m2work\Server Client TMP4\ClientVS22\extern\include\d3dx8math.inl
; File D:\_m2work\Server Client TMP4\ClientVS22\source\UserInterface\InstanceBaseBattle.cpp
; File D:\_m2work\Server Client TMP4\ClientVS22\extern\include\d3dx8math.inl
; File D:\_m2work\Server Client TMP4\ClientVS22\source\UserInterface\InstanceBaseBattle.cpp
; File D:\_m2work\Server Client TMP4\ClientVS22\extern\include\d3dx8math.inl
; File D:\_m2work\Server Client TMP4\ClientVS22\source\UserInterface\InstanceBaseBattle.cpp
; File D:\_m2work\Server Client TMP4\ClientVS22\extern\include\d3dx8math.inl
; File D:\_m2work\Server Client TMP4\ClientVS22\source\UserInterface\InstanceBaseBattle.cpp
; File D:\_m2work\Server Client TMP4\ClientVS22\extern\include\d3dx8math.inl
; File D:\_m2work\Server Client TMP4\ClientVS22\source\UserInterface\InstanceBaseBattle.cpp
; File D:\_m2work\Server Client TMP4\ClientVS22\extern\include\d3dx8math.inl
; File D:\_m2work\Server Client TMP4\ClientVS22\source\UserInterface\InstanceBaseBattle.cpp
; File D:\_m2work\Server Client TMP4\ClientVS22\extern\include\d3dx8math.inl
; File D:\_m2work\Server Client TMP4\ClientVS22\source\UserInterface\InstanceBaseBattle.cpp
; File D:\_m2work\Server Client TMP4\ClientVS22\extern\include\d3dx8math.inl
; File D:\_m2work\Server Client TMP4\ClientVS22\source\UserInterface\InstanceBaseBattle.cpp
; File D:\_m2work\Server Client TMP4\ClientVS22\extern\include\d3dx8math.inl
; File D:\_m2work\Server Client TMP4\ClientVS22\source\UserInterface\InstanceBaseBattle.cpp
; File D:\_m2work\Server Client TMP4\ClientVS22\extern\include\d3dx8math.inl
; File D:\_m2work\Server Client TMP4\ClientVS22\source\UserInterface\InstanceBaseBattle.cpp
;	COMDAT ?CheckAdvancing@CInstanceBase@@QAEHXZ
_TEXT	SEGMENT
_i$1 = -40						; size = 4
_v3CheckStep$$sroa$581$1$ = -40				; size = 4
_i$2 = -36						; size = 4
_uCollisionCount$1$ = -36				; size = 4
_v3CheckStep$$sroa$583$1$ = -36				; size = 4
_rkChrMgr$1$ = -32					; size = 4
_rv3Position$1$ = -32					; size = 4
_rkChrMgr$1$ = -28					; size = 4
_bUsingSkill$1$ = -28					; size = 4
_rkBG$1$ = -28						; size = 4
_rkActorSelf$1$ = -24					; size = 4
_v3CheckPosition$2$ = -24				; size = 4
_v3CheckPosition$1$ = -20				; size = 4
_rv3MoveDirection$1$ = -16				; size = 4
_v3CheckPosition$ = -12					; size = 12
?CheckAdvancing@CInstanceBase@@QAEHXZ PROC		; CInstanceBase::CheckAdvancing, COMDAT
; _this$ = ecx

; 470  : {

  00000	55		 push	 ebp
  00001	8b ec		 mov	 ebp, esp
  00003	83 e4 f8	 and	 esp, -8			; fffffff8H
  00006	83 ec 28	 sub	 esp, 40			; 00000028H
  00009	56		 push	 esi
  0000a	57		 push	 edi
  0000b	8b f1		 mov	 esi, ecx

; 471  : #ifdef __MOVIE_MODE__
; 472  : 	if (IsMovieMode())
; 473  : 		return FALSE;
; 474  : #endif
; 475  : 	if (!__IsMainInstance() && !IsAttacking())

  0000d	e8 00 00 00 00	 call	 ?__IsMainInstance@CInstanceBase@@IAE_NXZ ; CInstanceBase::__IsMainInstance
  00012	84 c0		 test	 al, al
  00014	0f 85 82 00 00
	00		 jne	 $LN11@CheckAdvan
  0001a	8b ce		 mov	 ecx, esi
  0001c	e8 00 00 00 00	 call	 ?IsAttacking@CInstanceBase@@QAEHXZ ; CInstanceBase::IsAttacking
  00021	85 c0		 test	 eax, eax
  00023	75 77		 jne	 SHORT $LN11@CheckAdvan

; 476  : 	{
; 477  : 		if (IsPC() && IsWalking())

  00025	8b ce		 mov	 ecx, esi
  00027	e8 00 00 00 00	 call	 ?IsPC@CInstanceBase@@QAEHXZ ; CInstanceBase::IsPC
  0002c	85 c0		 test	 eax, eax
  0002e	74 64		 je	 SHORT $LN24@CheckAdvan
  00030	8b ce		 mov	 ecx, esi
  00032	e8 00 00 00 00	 call	 ?IsWalking@CInstanceBase@@QAEHXZ ; CInstanceBase::IsWalking
  00037	85 c0		 test	 eax, eax
  00039	74 59		 je	 SHORT $LN24@CheckAdvan

; 478  : 		{
; 479  : 			CPythonCharacterManager& rkChrMgr=CPythonCharacterManager::Instance();

  0003b	a1 00 00 00 00	 mov	 eax, DWORD PTR ?ms_singleton@?$CSingleton@VCPythonCharacterManager@@@@0PAVCPythonCharacterManager@@A ; CSingleton<CPythonCharacterManager>::ms_singleton
  00040	89 44 24 14	 mov	 DWORD PTR _rkChrMgr$1$[esp+48], eax
; File C:\Program Files\Microsoft Visual Studio\2022\Community\VC\Tools\MSVC\14.44.35207\include\xtree

; 1142 :         return iterator(_Scary->_Myhead->_Left, _Scary);

  00044	8b 48 20	 mov	 ecx, DWORD PTR [eax+32]

; 37   :     _Tree_unchecked_const_iterator(_Nodeptr _Pnode, const _Mytree* _Plist) noexcept : _Ptr(_Pnode) {

  00047	8b 01		 mov	 eax, DWORD PTR [ecx]
; File D:\_m2work\Server Client TMP4\ClientVS22\source\UserInterface\PythonCharacterManager.h

; 132  : 			CharacterIterator(const TCharacterInstanceMap::iterator & it) : m_it(it) {}

  00049	89 44 24 0c	 mov	 DWORD PTR _i$2[esp+48], eax

; 162  : 				return m_it != rhs.m_it;

  0004d	3b c1		 cmp	 eax, ecx
; File D:\_m2work\Server Client TMP4\ClientVS22\source\UserInterface\InstanceBaseBattle.cpp

; 480  : 			for(CPythonCharacterManager::CharacterIterator i = rkChrMgr.CharacterInstanceBegin(); i!=rkChrMgr.CharacterInstanceEnd();++i)

  0004f	74 43		 je	 SHORT $LN24@CheckAdvan
$LL4@CheckAdvan:

; 481  : 			{
; 482  : 				CInstanceBase* pkInstEach=*i;

  00051	8b 78 14	 mov	 edi, DWORD PTR [eax+20]

; 483  : 				if (pkInstEach==this)

  00054	3b fe		 cmp	 edi, esi
  00056	74 26		 je	 SHORT $LN2@CheckAdvan

; 484  : 					continue;
; 485  : 				if (!pkInstEach->IsDoor())

  00058	8b cf		 mov	 ecx, edi
  0005a	e8 00 00 00 00	 call	 ?IsDoor@CInstanceBase@@QAEHXZ ; CInstanceBase::IsDoor
  0005f	85 c0		 test	 eax, eax
  00061	74 1b		 je	 SHORT $LN2@CheckAdvan

; 486  : 					continue;
; 487  : 
; 488  : 				if (m_GraphicThingInstance.TestActorCollision(pkInstEach->GetGraphicThingInstanceRef()))

  00063	8b cf		 mov	 ecx, edi
  00065	e8 00 00 00 00	 call	 ?GetGraphicThingInstanceRef@CInstanceBase@@QAEAAVCActorInstance@@XZ ; CInstanceBase::GetGraphicThingInstanceRef
  0006a	50		 push	 eax
  0006b	8d 8e d4 01 00
	00		 lea	 ecx, DWORD PTR [esi+468]
  00071	e8 00 00 00 00	 call	 ?TestActorCollision@CActorInstance@@QAEHAAV1@@Z ; CActorInstance::TestActorCollision
  00076	85 c0		 test	 eax, eax
  00078	0f 85 8a 02 00
	00		 jne	 $LN171@CheckAdvan
$LN2@CheckAdvan:
; File C:\Program Files\Microsoft Visual Studio\2022\Community\VC\Tools\MSVC\14.44.35207\include\xtree

; 198  :         _Mybase::operator++();

  0007e	8d 4c 24 0c	 lea	 ecx, DWORD PTR _i$2[esp+48]
  00082	e8 00 00 00 00	 call	 ??E?$_Tree_unchecked_const_iterator@V?$_Tree_val@U?$_Tree_simple_types@U?$pair@$$CBKPAVCInstanceBase@@@std@@@std@@@std@@U_Iterator_base0@2@@std@@QAEAAV01@XZ ; std::_Tree_unchecked_const_iterator<std::_Tree_val<std::_Tree_simple_types<std::pair<unsigned long const ,CInstanceBase *> > >,std::_Iterator_base0>::operator++
; File D:\_m2work\Server Client TMP4\ClientVS22\source\UserInterface\PythonCharacterManager.h

; 162  : 				return m_it != rhs.m_it;

  00087	8b 4c 24 14	 mov	 ecx, DWORD PTR _rkChrMgr$1$[esp+48]
  0008b	8b 44 24 0c	 mov	 eax, DWORD PTR _i$2[esp+48]
  0008f	3b 41 20	 cmp	 eax, DWORD PTR [ecx+32]
; File D:\_m2work\Server Client TMP4\ClientVS22\source\UserInterface\InstanceBaseBattle.cpp

; 480  : 			for(CPythonCharacterManager::CharacterIterator i = rkChrMgr.CharacterInstanceBegin(); i!=rkChrMgr.CharacterInstanceEnd();++i)

  00092	75 bd		 jne	 SHORT $LL4@CheckAdvan
$LN24@CheckAdvan:

; 574  : 		return TRUE;
; 575  : 	}
; 576  : 
; 577  : 	return FALSE;

  00094	33 c0		 xor	 eax, eax

; 578  : }

  00096	5f		 pop	 edi
  00097	5e		 pop	 esi
  00098	8b e5		 mov	 esp, ebp
  0009a	5d		 pop	 ebp
  0009b	c3		 ret	 0
$LN11@CheckAdvan:

; 489  : 				{
; 490  : 					BlockMovement();
; 491  : 					return true;
; 492  : 				}
; 493  : 			}				
; 494  : 		}
; 495  : 		return FALSE;
; 496  : 	}
; 497  : 
; 498  : 	if (m_GraphicThingInstance.CanSkipCollision())

  0009c	8d be d4 01 00
	00		 lea	 edi, DWORD PTR [esi+468]
  000a2	8b cf		 mov	 ecx, edi
  000a4	89 7c 24 18	 mov	 DWORD PTR _rkActorSelf$1$[esp+48], edi
  000a8	e8 00 00 00 00	 call	 ?CanSkipCollision@CActorInstance@@QAE_NXZ ; CActorInstance::CanSkipCollision
  000ad	84 c0		 test	 al, al
  000af	75 e3		 jne	 SHORT $LN24@CheckAdvan

; 499  : 	{
; 500  : 		//Tracenf("%x VID %d  ", ELTimer_GetMSec(), GetVirtualID());
; 501  : 		return FALSE;
; 502  : 	}
; 503  : 
; 504  : 
; 505  : 	BOOL bUsingSkill = m_GraphicThingInstance.IsUsingSkill();

  000b1	8b cf		 mov	 ecx, edi
  000b3	e8 00 00 00 00	 call	 ?IsUsingSkill@CActorInstance@@QAEHXZ ; CActorInstance::IsUsingSkill
  000b8	89 44 24 14	 mov	 DWORD PTR _bUsingSkill$1$[esp+48], eax

; 506  : 
; 507  : 	m_dwAdvActorVID = 0;
; 508  : 	UINT uCollisionCount=0;
; 509  : 
; 510  : 	CPythonCharacterManager& rkChrMgr=CPythonCharacterManager::Instance();

  000bc	a1 00 00 00 00	 mov	 eax, DWORD PTR ?ms_singleton@?$CSingleton@VCPythonCharacterManager@@@@0PAVCPythonCharacterManager@@A ; CSingleton<CPythonCharacterManager>::ms_singleton
  000c1	c7 86 78 01 00
	00 00 00 00 00	 mov	 DWORD PTR [esi+376], 0
  000cb	c7 44 24 0c 00
	00 00 00	 mov	 DWORD PTR _uCollisionCount$1$[esp+48], 0
  000d3	89 44 24 10	 mov	 DWORD PTR _rkChrMgr$1$[esp+48], eax
; File C:\Program Files\Microsoft Visual Studio\2022\Community\VC\Tools\MSVC\14.44.35207\include\xtree

; 1142 :         return iterator(_Scary->_Myhead->_Left, _Scary);

  000d7	8b 50 20	 mov	 edx, DWORD PTR [eax+32]

; 37   :     _Tree_unchecked_const_iterator(_Nodeptr _Pnode, const _Mytree* _Plist) noexcept : _Ptr(_Pnode) {

  000da	8b 0a		 mov	 ecx, DWORD PTR [edx]
; File D:\_m2work\Server Client TMP4\ClientVS22\source\UserInterface\PythonCharacterManager.h

; 132  : 			CharacterIterator(const TCharacterInstanceMap::iterator & it) : m_it(it) {}

  000dc	89 4c 24 08	 mov	 DWORD PTR _i$1[esp+48], ecx

; 162  : 				return m_it != rhs.m_it;

  000e0	3b ca		 cmp	 ecx, edx
; File D:\_m2work\Server Client TMP4\ClientVS22\source\UserInterface\InstanceBaseBattle.cpp

; 511  : 	for(CPythonCharacterManager::CharacterIterator i = rkChrMgr.CharacterInstanceBegin(); i!=rkChrMgr.CharacterInstanceEnd();++i)

  000e2	0f 84 93 00 00
	00		 je	 $LN162@CheckAdvan
$LL7@CheckAdvan:

; 512  : 	{
; 513  : 		CInstanceBase* pkInstEach=*i;

  000e8	8b 49 14	 mov	 ecx, DWORD PTR [ecx+20]

; 514  : 		if (pkInstEach==this)

  000eb	3b ce		 cmp	 ecx, esi
  000ed	74 6c		 je	 SHORT $LN5@CheckAdvan

; 515  : 			continue;
; 516  : 
; 517  : 		CActorInstance& rkActorSelf=m_GraphicThingInstance;
; 518  : 		CActorInstance& rkActorEach=pkInstEach->GetGraphicThingInstanceRef();

  000ef	e8 00 00 00 00	 call	 ?GetGraphicThingInstanceRef@CInstanceBase@@QAEAAVCActorInstance@@XZ ; CInstanceBase::GetGraphicThingInstanceRef

; 519  : 
; 520  : 		//NOTE : Skil  Door Type Collision .
; 521  : 		if( bUsingSkill && !rkActorEach.IsDoor() )

  000f4	83 7c 24 14 00	 cmp	 DWORD PTR _bUsingSkill$1$[esp+48], 0
  000f9	8b f8		 mov	 edi, eax
  000fb	74 0b		 je	 SHORT $LN18@CheckAdvan
  000fd	8b cf		 mov	 ecx, edi
  000ff	e8 00 00 00 00	 call	 ?IsDoor@CActorInstance@@QAE_NXZ ; CActorInstance::IsDoor
  00104	84 c0		 test	 al, al
  00106	74 53		 je	 SHORT $LN5@CheckAdvan
$LN18@CheckAdvan:

; 522  : 			continue;
; 523  : 			
; 524  : 		//   ?
; 525  : 		if (rkActorSelf.TestActorCollision(rkActorEach))

  00108	57		 push	 edi
  00109	8d 8e d4 01 00
	00		 lea	 ecx, DWORD PTR [esi+468]
  0010f	e8 00 00 00 00	 call	 ?TestActorCollision@CActorInstance@@QAEHAAV1@@Z ; CActorInstance::TestActorCollision
  00114	85 c0		 test	 eax, eax
  00116	74 43		 je	 SHORT $LN5@CheckAdvan

; 526  : 		{
; 527  : 			uCollisionCount++;

  00118	8b 44 24 0c	 mov	 eax, DWORD PTR _uCollisionCount$1$[esp+48]
  0011c	40		 inc	 eax
  0011d	89 44 24 0c	 mov	 DWORD PTR _uCollisionCount$1$[esp+48], eax

; 528  : 			if (uCollisionCount==2)

  00121	83 f8 02	 cmp	 eax, 2
  00124	0f 84 b6 00 00
	00		 je	 $LN172@CheckAdvan

; 532  : 			}
; 533  : 			rkActorSelf.AdjustDynamicCollisionMovement(&rkActorEach);

  0012a	57		 push	 edi
  0012b	8d 8e d4 01 00
	00		 lea	 ecx, DWORD PTR [esi+468]
  00131	e8 00 00 00 00	 call	 ?AdjustDynamicCollisionMovement@CActorInstance@@QAEXPBV1@@Z ; CActorInstance::AdjustDynamicCollisionMovement

; 534  : 
; 535  : 			if (rkActorSelf.TestActorCollision(rkActorEach))

  00136	57		 push	 edi
  00137	8d be d4 01 00
	00		 lea	 edi, DWORD PTR [esi+468]
  0013d	8b cf		 mov	 ecx, edi
  0013f	e8 00 00 00 00	 call	 ?TestActorCollision@CActorInstance@@QAEHAAV1@@Z ; CActorInstance::TestActorCollision
  00144	85 c0		 test	 eax, eax
  00146	0f 85 98 00 00
	00		 jne	 $LN156@CheckAdvan

; 536  : 			{
; 537  : 				rkActorSelf.BlockMovement();
; 538  : 				return TRUE;
; 539  : 			}
; 540  : 			else
; 541  : 			{
; 542  : 				NEW_MoveToDestPixelPositionDirection(NEW_GetDstPixelPositionRef());

  0014c	8b ce		 mov	 ecx, esi
  0014e	e8 00 00 00 00	 call	 ?NEW_GetDstPixelPositionRef@CInstanceBase@@QAEABUD3DXVECTOR3@@XZ ; CInstanceBase::NEW_GetDstPixelPositionRef
  00153	50		 push	 eax
  00154	8b ce		 mov	 ecx, esi
  00156	e8 00 00 00 00	 call	 ?NEW_MoveToDestPixelPositionDirection@CInstanceBase@@QAE_NABUD3DXVECTOR3@@@Z ; CInstanceBase::NEW_MoveToDestPixelPositionDirection
$LN5@CheckAdvan:
; File C:\Program Files\Microsoft Visual Studio\2022\Community\VC\Tools\MSVC\14.44.35207\include\xtree

; 198  :         _Mybase::operator++();

  0015b	8d 4c 24 08	 lea	 ecx, DWORD PTR _i$1[esp+48]
  0015f	e8 00 00 00 00	 call	 ??E?$_Tree_unchecked_const_iterator@V?$_Tree_val@U?$_Tree_simple_types@U?$pair@$$CBKPAVCInstanceBase@@@std@@@std@@@std@@U_Iterator_base0@2@@std@@QAEAAV01@XZ ; std::_Tree_unchecked_const_iterator<std::_Tree_val<std::_Tree_simple_types<std::pair<unsigned long const ,CInstanceBase *> > >,std::_Iterator_base0>::operator++
; File D:\_m2work\Server Client TMP4\ClientVS22\source\UserInterface\PythonCharacterManager.h

; 162  : 				return m_it != rhs.m_it;

  00164	8b 44 24 10	 mov	 eax, DWORD PTR _rkChrMgr$1$[esp+48]
  00168	8b 4c 24 08	 mov	 ecx, DWORD PTR _i$1[esp+48]
  0016c	3b 48 20	 cmp	 ecx, DWORD PTR [eax+32]
; File D:\_m2work\Server Client TMP4\ClientVS22\source\UserInterface\InstanceBaseBattle.cpp

; 511  : 	for(CPythonCharacterManager::CharacterIterator i = rkChrMgr.CharacterInstanceBegin(); i!=rkChrMgr.CharacterInstanceEnd();++i)

  0016f	0f 85 73 ff ff
	ff		 jne	 $LL7@CheckAdvan

; 519  : 
; 520  : 		//NOTE : Skil  Door Type Collision .
; 521  : 		if( bUsingSkill && !rkActorEach.IsDoor() )

  00175	8d be d4 01 00
	00		 lea	 edi, DWORD PTR [esi+468]
$LN162@CheckAdvan:

; 543  : 			}
; 544  : 		}
; 545  : 	}
; 546  : 
; 547  : 	//  
; 548  : 	CPythonBackground& rkBG=CPythonBackground::Instance();

  0017b	a1 00 00 00 00	 mov	 eax, DWORD PTR ?ms_singleton@?$CSingleton@VCPythonBackground@@@@0PAVCPythonBackground@@A ; CSingleton<CPythonBackground>::ms_singleton

; 549  : 	const D3DXVECTOR3 & rv3Position = m_GraphicThingInstance.GetPosition();

  00180	8b cf		 mov	 ecx, edi
  00182	89 44 24 14	 mov	 DWORD PTR _rkBG$1$[esp+48], eax
  00186	e8 00 00 00 00	 call	 ?GetPosition@CGraphicObjectInstance@@QBEABUD3DXVECTOR3@@XZ ; CGraphicObjectInstance::GetPosition

; 550  : 	const D3DXVECTOR3 & rv3MoveDirection = m_GraphicThingInstance.GetMovementVectorRef();

  0018b	8b cf		 mov	 ecx, edi
  0018d	89 44 24 10	 mov	 DWORD PTR _rv3Position$1$[esp+48], eax
  00191	e8 00 00 00 00	 call	 ?GetMovementVectorRef@CActorInstance@@QAEABUD3DXVECTOR3@@XZ ; CActorInstance::GetMovementVectorRef
  00196	89 44 24 20	 mov	 DWORD PTR _rv3MoveDirection$1$[esp+48], eax
; File D:\_m2work\Server Client TMP4\ClientVS22\extern\include\d3dx8math.inl

; 1239 :     return sqrtf(pV->x * pV->x + pV->y * pV->y + pV->z * pV->z);

  0019a	f3 0f 10 00	 movss	 xmm0, DWORD PTR [eax]
  0019e	f3 0f 10 58 04	 movss	 xmm3, DWORD PTR [eax+4]
  001a3	0f 28 c8	 movaps	 xmm1, xmm0
  001a6	f3 0f 10 50 08	 movss	 xmm2, DWORD PTR [eax+8]
  001ab	f3 0f 59 c8	 mulss	 xmm1, xmm0
  001af	f3 0f 11 44 24
	08		 movss	 DWORD PTR _v3CheckStep$$sroa$581$1$[esp+48], xmm0
  001b5	0f 28 c3	 movaps	 xmm0, xmm3
  001b8	f3 0f 59 c3	 mulss	 xmm0, xmm3
  001bc	f3 0f 59 d2	 mulss	 xmm2, xmm2
  001c0	f3 0f 58 c8	 addss	 xmm1, xmm0
  001c4	f3 0f 11 5c 24
	0c		 movss	 DWORD PTR _v3CheckStep$$sroa$583$1$[esp+48], xmm3
  001ca	f3 0f 58 ca	 addss	 xmm1, xmm2
; File C:\Program Files (x86)\Windows Kits\10\Include\10.0.26100.0\ucrt\corecrt_math.h

; 799  :             return (float)sqrt(_X);

  001ce	0f 5a c1	 cvtps2pd xmm0, xmm1
  001d1	0f 57 c9	 xorps	 xmm1, xmm1
  001d4	66 0f 2e c8	 ucomisd xmm1, xmm0
  001d8	77 1c		 ja	 SHORT $LN173@CheckAdvan
  001da	f2 0f 51 c0	 sqrtsd	 xmm0, xmm0
  001de	eb 1b		 jmp	 SHORT $LN174@CheckAdvan
$LN172@CheckAdvan:
; File D:\_m2work\Server Client TMP4\ClientVS22\source\UserInterface\InstanceBaseBattle.cpp

; 528  : 			if (uCollisionCount==2)

  001e0	8b 7c 24 18	 mov	 edi, DWORD PTR _rkActorSelf$1$[esp+48]
$LN156@CheckAdvan:

; 529  : 			{
; 530  : 				rkActorSelf.BlockMovement();

  001e4	8b cf		 mov	 ecx, edi
  001e6	e8 00 00 00 00	 call	 ?BlockMovement@CActorInstance@@QAEXXZ ; CActorInstance::BlockMovement

; 531  : 				return TRUE;

  001eb	b8 01 00 00 00	 mov	 eax, 1

; 578  : }

  001f0	5f		 pop	 edi
  001f1	5e		 pop	 esi
  001f2	8b e5		 mov	 esp, ebp
  001f4	5d		 pop	 ebp
  001f5	c3		 ret	 0
$LN173@CheckAdvan:
; File C:\Program Files (x86)\Windows Kits\10\Include\10.0.26100.0\ucrt\corecrt_math.h

; 799  :             return (float)sqrt(_X);

  001f6	e8 00 00 00 00	 call	 __libm_sse2_sqrt_precise
$LN174@CheckAdvan:
  001fb	f2 0f 5a c0	 cvtsd2ss xmm0, xmm0
; File D:\_m2work\Server Client TMP4\ClientVS22\source\UserInterface\InstanceBaseBattle.cpp

; 556  : 	D3DXVECTOR3 v3CheckPosition = rv3Position;

  001ff	8b 4c 24 10	 mov	 ecx, DWORD PTR _rv3Position$1$[esp+48]
; File D:\_m2work\Server Client TMP4\ClientVS22\extern\include\d3dx8math.inl

; 275  :     FLOAT fInv = 1.0f / f;

  00203	f3 0f 10 0d 00
	00 00 00	 movss	 xmm1, DWORD PTR __real@3f800000
; File D:\_m2work\Server Client TMP4\ClientVS22\source\UserInterface\InstanceBaseBattle.cpp

; 554  : 	int iStep = int(D3DXVec3Length(&rv3MoveDirection) / 10.0f);

  0020b	f3 0f 5e 05 00
	00 00 00	 divss	 xmm0, DWORD PTR __real@41200000
; File D:\_m2work\Server Client TMP4\ClientVS22\extern\include\d3dx8math.inl

; 276  :     return D3DXVECTOR3(x * fInv, y * fInv, z * fInv);

  00213	f3 0f 10 64 24
	08		 movss	 xmm4, DWORD PTR _v3CheckStep$$sroa$581$1$[esp+48]
; File D:\_m2work\Server Client TMP4\ClientVS22\source\UserInterface\InstanceBaseBattle.cpp

; 554  : 	int iStep = int(D3DXVec3Length(&rv3MoveDirection) / 10.0f);

  00219	f3 0f 2c f8	 cvttss2si edi, xmm0
; File D:\_m2work\Server Client TMP4\ClientVS22\extern\include\d3dx8math.inl

; 276  :     return D3DXVECTOR3(x * fInv, y * fInv, z * fInv);

  0021d	f3 0f 10 6c 24
	0c		 movss	 xmm5, DWORD PTR _v3CheckStep$$sroa$583$1$[esp+48]
; File D:\_m2work\Server Client TMP4\ClientVS22\source\UserInterface\InstanceBaseBattle.cpp

; 557  : 	for (int j = 0; j < iStep; ++j)

  00223	f3 0f 10 1d 00
	00 00 00	 movss	 xmm3, DWORD PTR __xmm@80000000800000008000000080000000
  0022b	66 0f 6e c7	 movd	 xmm0, edi
  0022f	0f 5b c0	 cvtdq2ps xmm0, xmm0
; File D:\_m2work\Server Client TMP4\ClientVS22\extern\include\d3dx8math.inl

; 275  :     FLOAT fInv = 1.0f / f;

  00232	f3 0f 5e c8	 divss	 xmm1, xmm0
; File D:\_m2work\Server Client TMP4\ClientVS22\source\UserInterface\InstanceBaseBattle.cpp

; 556  : 	D3DXVECTOR3 v3CheckPosition = rv3Position;

  00236	f3 0f 7e 01	 movq	 xmm0, QWORD PTR [ecx]
; File D:\_m2work\Server Client TMP4\ClientVS22\extern\include\d3dx8math.inl

; 276  :     return D3DXVECTOR3(x * fInv, y * fInv, z * fInv);

  0023a	f3 0f 59 e1	 mulss	 xmm4, xmm1
  0023e	f3 0f 59 e9	 mulss	 xmm5, xmm1
; File D:\_m2work\Server Client TMP4\ClientVS22\source\UserInterface\InstanceBaseBattle.cpp

; 556  : 	D3DXVECTOR3 v3CheckPosition = rv3Position;

  00242	66 0f d6 44 24
	24		 movq	 QWORD PTR _v3CheckPosition$[esp+48], xmm0
; File D:\_m2work\Server Client TMP4\ClientVS22\extern\include\d3dx8math.inl

; 276  :     return D3DXVECTOR3(x * fInv, y * fInv, z * fInv);

  00248	f3 0f 11 64 24
	08		 movss	 DWORD PTR _v3CheckStep$$sroa$581$1$[esp+48], xmm4
  0024e	f3 0f 11 6c 24
	0c		 movss	 DWORD PTR _v3CheckStep$$sroa$583$1$[esp+48], xmm5
; File D:\_m2work\Server Client TMP4\ClientVS22\source\UserInterface\InstanceBaseBattle.cpp

; 557  : 	for (int j = 0; j < iStep; ++j)

  00254	85 ff		 test	 edi, edi
  00256	7e 76		 jle	 SHORT $LN9@CheckAdvan

; 543  : 			}
; 544  : 		}
; 545  : 	}
; 546  : 
; 547  : 	//  
; 548  : 	CPythonBackground& rkBG=CPythonBackground::Instance();

  00258	f3 0f 10 4c 24
	28		 movss	 xmm1, DWORD PTR _v3CheckPosition$[esp+52]
  0025e	f3 0f 10 54 24
	24		 movss	 xmm2, DWORD PTR _v3CheckPosition$[esp+48]
$LL10@CheckAdvan:

; 562  : 		if (rkBG.isAttrOn(v3CheckPosition.x, -v3CheckPosition.y, CTerrainImpl::ATTRIBUTE_BLOCK))

  00264	8b 4c 24 14	 mov	 ecx, DWORD PTR _rkBG$1$[esp+48]
; File D:\_m2work\Server Client TMP4\ClientVS22\extern\include\d3dx8math.inl

; 204  :     x += v.x;

  00268	0f 28 c4	 movaps	 xmm0, xmm4
  0026b	f3 0f 58 d0	 addss	 xmm2, xmm0

; 205  :     y += v.y;

  0026f	0f 28 c5	 movaps	 xmm0, xmm5
  00272	f3 0f 58 c1	 addss	 xmm0, xmm1
; File D:\_m2work\Server Client TMP4\ClientVS22\source\UserInterface\InstanceBaseBattle.cpp

; 562  : 		if (rkBG.isAttrOn(v3CheckPosition.x, -v3CheckPosition.y, CTerrainImpl::ATTRIBUTE_BLOCK))

  00276	6a 01		 push	 1
  00278	83 ec 08	 sub	 esp, 8
; File D:\_m2work\Server Client TMP4\ClientVS22\extern\include\d3dx8math.inl

; 204  :     x += v.x;

  0027b	f3 0f 11 54 24
	28		 movss	 DWORD PTR _v3CheckPosition$1$[esp+60], xmm2

; 205  :     y += v.y;

  00281	f3 0f 11 44 24
	24		 movss	 DWORD PTR _v3CheckPosition$2$[esp+60], xmm0
; File D:\_m2work\Server Client TMP4\ClientVS22\source\UserInterface\InstanceBaseBattle.cpp

; 562  : 		if (rkBG.isAttrOn(v3CheckPosition.x, -v3CheckPosition.y, CTerrainImpl::ATTRIBUTE_BLOCK))

  00287	0f 57 c3	 xorps	 xmm0, xmm3
  0028a	f3 0f 11 44 24
	04		 movss	 DWORD PTR [esp+4], xmm0
  00290	f3 0f 11 14 24	 movss	 DWORD PTR [esp], xmm2
  00295	e8 00 00 00 00	 call	 ?isAttrOn@CMapManager@@QAE_NMME@Z ; CMapManager::isAttrOn
  0029a	84 c0		 test	 al, al
  0029c	74 07		 je	 SHORT $LN8@CheckAdvan

; 563  : 		{
; 564  : 			BlockMovement();

  0029e	8b ce		 mov	 ecx, esi
  002a0	e8 00 00 00 00	 call	 ?BlockMovement@CInstanceBase@@QAEXXZ ; CInstanceBase::BlockMovement
$LN8@CheckAdvan:

; 557  : 	for (int j = 0; j < iStep; ++j)

  002a5	f3 0f 10 4c 24
	18		 movss	 xmm1, DWORD PTR _v3CheckPosition$2$[esp+48]
  002ab	f3 0f 10 54 24
	1c		 movss	 xmm2, DWORD PTR _v3CheckPosition$1$[esp+48]
  002b1	f3 0f 10 1d 00
	00 00 00	 movss	 xmm3, DWORD PTR __xmm@80000000800000008000000080000000
  002b9	f3 0f 10 64 24
	08		 movss	 xmm4, DWORD PTR _v3CheckStep$$sroa$581$1$[esp+48]
  002bf	f3 0f 10 6c 24
	0c		 movss	 xmm5, DWORD PTR _v3CheckStep$$sroa$583$1$[esp+48]
  002c5	83 ef 01	 sub	 edi, 1
  002c8	75 9a		 jne	 SHORT $LL10@CheckAdvan
  002ca	8b 4c 24 10	 mov	 ecx, DWORD PTR _rv3Position$1$[esp+48]
$LN9@CheckAdvan:
; File D:\_m2work\Server Client TMP4\ClientVS22\extern\include\d3dx8math.inl

; 257  :     return D3DXVECTOR3(x + v.x, y + v.y, z + v.z);

  002ce	8b 44 24 20	 mov	 eax, DWORD PTR _rv3MoveDirection$1$[esp+48]
; File D:\_m2work\Server Client TMP4\ClientVS22\source\UserInterface\InstanceBaseBattle.cpp

; 571  : 	if (rkBG.isAttrOn(v3NextPosition.x, -v3NextPosition.y, CTerrainImpl::ATTRIBUTE_BLOCK))

  002d2	6a 01		 push	 1
  002d4	83 ec 08	 sub	 esp, 8
; File D:\_m2work\Server Client TMP4\ClientVS22\extern\include\d3dx8math.inl

; 257  :     return D3DXVECTOR3(x + v.x, y + v.y, z + v.z);

  002d7	f3 0f 10 40 04	 movss	 xmm0, DWORD PTR [eax+4]
  002dc	f3 0f 58 41 04	 addss	 xmm0, DWORD PTR [ecx+4]
  002e1	f3 0f 10 08	 movss	 xmm1, DWORD PTR [eax]
  002e5	f3 0f 58 09	 addss	 xmm1, DWORD PTR [ecx]
; File D:\_m2work\Server Client TMP4\ClientVS22\source\UserInterface\InstanceBaseBattle.cpp

; 571  : 	if (rkBG.isAttrOn(v3NextPosition.x, -v3NextPosition.y, CTerrainImpl::ATTRIBUTE_BLOCK))

  002e9	8b 4c 24 20	 mov	 ecx, DWORD PTR _rkBG$1$[esp+60]
  002ed	0f 57 c3	 xorps	 xmm0, xmm3
  002f0	f3 0f 11 44 24
	04		 movss	 DWORD PTR [esp+4], xmm0
  002f6	f3 0f 11 0c 24	 movss	 DWORD PTR [esp], xmm1
  002fb	e8 00 00 00 00	 call	 ?isAttrOn@CMapManager@@QAE_NMME@Z ; CMapManager::isAttrOn
  00300	84 c0		 test	 al, al
  00302	0f 84 8c fd ff
	ff		 je	 $LN24@CheckAdvan
$LN171@CheckAdvan:

; 572  : 	{
; 573  : 		BlockMovement();

  00308	8b ce		 mov	 ecx, esi
  0030a	e8 00 00 00 00	 call	 ?BlockMovement@CInstanceBase@@QAEXXZ ; CInstanceBase::BlockMovement

; 578  : }

  0030f	5f		 pop	 edi
  00310	b8 01 00 00 00	 mov	 eax, 1
  00315	5e		 pop	 esi
  00316	8b e5		 mov	 esp, ebp
  00318	5d		 pop	 ebp
  00319	c3		 ret	 0
?CheckAdvancing@CInstanceBase@@QAEHXZ ENDP		; CInstanceBase::CheckAdvancing
_TEXT	ENDS
; Function compile flags: /Ogtp
; File D:\_m2work\Server Client TMP4\ClientVS22\source\UserInterface\InstanceBaseBattle.cpp
;	COMDAT ?CheckAttacking@CInstanceBase@@QAEHAAV1@@Z
_TEXT	SEGMENT
_rkInstVictim$ = 8					; size = 4
?CheckAttacking@CInstanceBase@@QAEHAAV1@@Z PROC		; CInstanceBase::CheckAttacking, COMDAT
; _this$ = ecx

; 581  : {

  00000	55		 push	 ebp
  00001	8b ec		 mov	 ebp, esp
  00003	56		 push	 esi
  00004	57		 push	 edi
  00005	8b f9		 mov	 edi, ecx

; 582  : 	if (IsInSafe())

  00007	e8 00 00 00 00	 call	 ?IsInSafe@CInstanceBase@@QAEHXZ ; CInstanceBase::IsInSafe
  0000c	85 c0		 test	 eax, eax
  0000e	75 2c		 jne	 SHORT $LN6@CheckAttac

; 583  : 		return FALSE;
; 584  : 
; 585  : 	if (rkInstVictim.IsInSafe())

  00010	8b 75 08	 mov	 esi, DWORD PTR _rkInstVictim$[ebp]
  00013	8b ce		 mov	 ecx, esi
  00015	e8 00 00 00 00	 call	 ?IsInSafe@CInstanceBase@@QAEHXZ ; CInstanceBase::IsInSafe
  0001a	85 c0		 test	 eax, eax
  0001c	75 1e		 jne	 SHORT $LN6@CheckAttac

; 586  : 		return FALSE;
; 587  : 
; 588  : #ifdef __MOVIE_MODE__
; 589  : 	return FALSE;
; 590  : #endif
; 591  : 
; 592  : 	if (!m_GraphicThingInstance.AttackingProcess(rkInstVictim.m_GraphicThingInstance))

  0001e	8d 86 d4 01 00
	00		 lea	 eax, DWORD PTR [esi+468]
  00024	50		 push	 eax
  00025	8d 8f d4 01 00
	00		 lea	 ecx, DWORD PTR [edi+468]
  0002b	e8 00 00 00 00	 call	 ?AttackingProcess@CActorInstance@@QAEHAAV1@@Z ; CActorInstance::AttackingProcess
  00030	f7 d8		 neg	 eax
  00032	5f		 pop	 edi
  00033	1b c0		 sbb	 eax, eax
  00035	f7 d8		 neg	 eax

; 594  : 
; 595  : 	return TRUE;
; 596  : }

  00037	5e		 pop	 esi
  00038	5d		 pop	 ebp
  00039	c2 04 00	 ret	 4
$LN6@CheckAttac:
  0003c	5f		 pop	 edi

; 593  : 		return FALSE;

  0003d	33 c0		 xor	 eax, eax

; 594  : 
; 595  : 	return TRUE;
; 596  : }

  0003f	5e		 pop	 esi
  00040	5d		 pop	 ebp
  00041	c2 04 00	 ret	 4
?CheckAttacking@CInstanceBase@@QAEHAAV1@@Z ENDP		; CInstanceBase::CheckAttacking
_TEXT	ENDS
; Function compile flags: /Ogtp
; File D:\_m2work\Server Client TMP4\ClientVS22\source\UserInterface\InstanceBaseBattle.cpp
;	COMDAT ?IsUsingSkill@CInstanceBase@@QAEHXZ
_TEXT	SEGMENT
?IsUsingSkill@CInstanceBase@@QAEHXZ PROC		; CInstanceBase::IsUsingSkill, COMDAT
; _this$ = ecx

; 610  : 	return m_GraphicThingInstance.IsUsingSkill();

  00000	81 c1 d4 01 00
	00		 add	 ecx, 468		; 000001d4H
  00006	e9 00 00 00 00	 jmp	 ?IsUsingSkill@CActorInstance@@QAEHXZ ; CActorInstance::IsUsingSkill
?IsUsingSkill@CInstanceBase@@QAEHXZ ENDP		; CInstanceBase::IsUsingSkill
_TEXT	ENDS
; Function compile flags: /Ogtp
; File D:\_m2work\Server Client TMP4\ClientVS22\source\UserInterface\InstanceBaseBattle.cpp
;	COMDAT ?IsUsingMovingSkill@CInstanceBase@@QAEHXZ
_TEXT	SEGMENT
?IsUsingMovingSkill@CInstanceBase@@QAEHXZ PROC		; CInstanceBase::IsUsingMovingSkill, COMDAT
; _this$ = ecx

; 615  : 	return m_GraphicThingInstance.IsUsingMovingSkill();

  00000	81 c1 d4 01 00
	00		 add	 ecx, 468		; 000001d4H
  00006	e9 00 00 00 00	 jmp	 ?IsUsingMovingSkill@CActorInstance@@QAEHXZ ; CActorInstance::IsUsingMovingSkill
?IsUsingMovingSkill@CInstanceBase@@QAEHXZ ENDP		; CInstanceBase::IsUsingMovingSkill
_TEXT	ENDS
; Function compile flags: /Ogtp
; File D:\_m2work\Server Client TMP4\ClientVS22\source\UserInterface\InstanceBaseBattle.cpp
;	COMDAT ?CanAttackHorseLevel@CInstanceBase@@QAEHXZ
_TEXT	SEGMENT
?CanAttackHorseLevel@CInstanceBase@@QAEHXZ PROC		; CInstanceBase::CanAttackHorseLevel, COMDAT
; _this$ = ecx

; 624  : {

  00000	8b d1		 mov	 edx, ecx

; 625  : 	if (!IsMountingHorse())

  00002	e8 00 00 00 00	 call	 ?IsMountingHorse@CInstanceBase@@QAEHXZ ; CInstanceBase::IsMountingHorse
  00007	85 c0		 test	 eax, eax
  00009	75 01		 jne	 SHORT $LN2@CanAttackH

; 629  : }

  0000b	c3		 ret	 0
$LN2@CanAttackH:

; 626  : 		return FALSE;
; 627  : 
; 628  : 	return m_kHorse.CanAttack();

  0000c	8d 4a 04	 lea	 ecx, DWORD PTR [edx+4]
  0000f	e8 00 00 00 00	 call	 ?CanAttack@SHORSE@CInstanceBase@@QAE_NXZ ; CInstanceBase::SHORSE::CanAttack
  00014	0f b6 c0	 movzx	 eax, al

; 629  : }

  00017	c3		 ret	 0
?CanAttackHorseLevel@CInstanceBase@@QAEHXZ ENDP		; CInstanceBase::CanAttackHorseLevel
_TEXT	ENDS
; Function compile flags: /Ogtp
; File D:\_m2work\Server Client TMP4\ClientVS22\source\UserInterface\InstanceBaseBattle.cpp
;	COMDAT ?GetComboIndex@CInstanceBase@@QAEKXZ
_TEXT	SEGMENT
?GetComboIndex@CInstanceBase@@QAEKXZ PROC		; CInstanceBase::GetComboIndex, COMDAT
; _this$ = ecx

; 643  : 	return m_GraphicThingInstance.GetComboIndex();

  00000	81 c1 d4 01 00
	00		 add	 ecx, 468		; 000001d4H
  00006	e9 00 00 00 00	 jmp	 ?GetComboIndex@CActorInstance@@QAEKXZ ; CActorInstance::GetComboIndex
?GetComboIndex@CInstanceBase@@QAEKXZ ENDP		; CInstanceBase::GetComboIndex
_TEXT	ENDS
; Function compile flags: /Ogtp
; File D:\_m2work\Server Client TMP4\ClientVS22\source\UserInterface\InstanceBaseBattle.cpp
;	COMDAT ?Revive@CInstanceBase@@QAEXXZ
_TEXT	SEGMENT
?Revive@CInstanceBase@@QAEXXZ PROC			; CInstanceBase::Revive, COMDAT
; _this$ = ecx

; 676  : {

  00000	56		 push	 esi
  00001	8b f1		 mov	 esi, ecx

; 677  : 	m_isGoing=FALSE;
; 678  : 	m_GraphicThingInstance.Revive();

  00003	8d 8e d4 01 00
	00		 lea	 ecx, DWORD PTR [esi+468]
  00009	c6 86 88 01 00
	00 00		 mov	 BYTE PTR [esi+392], 0
  00010	e8 00 00 00 00	 call	 ?Revive@CActorInstance@@QAEXXZ ; CActorInstance::Revive

; 679  : 
; 680  : 	__AttachHorseSaddle();

  00015	8b ce		 mov	 ecx, esi
  00017	5e		 pop	 esi
  00018	e9 00 00 00 00	 jmp	 ?__AttachHorseSaddle@CInstanceBase@@IAEXXZ ; CInstanceBase::__AttachHorseSaddle
?Revive@CInstanceBase@@QAEXXZ ENDP			; CInstanceBase::Revive
_TEXT	ENDS
; Function compile flags: /Ogtp
; File D:\_m2work\Server Client TMP4\ClientVS22\source\UserInterface\InstanceBaseBattle.cpp
;	COMDAT ?Stun@CInstanceBase@@QAEXXZ
_TEXT	SEGMENT
?Stun@CInstanceBase@@QAEXXZ PROC			; CInstanceBase::Stun, COMDAT
; _this$ = ecx

; 684  : {

  00000	56		 push	 esi
  00001	8b f1		 mov	 esi, ecx

; 685  : 	NEW_Stop();

  00003	e8 00 00 00 00	 call	 ?NEW_Stop@CInstanceBase@@QAEXXZ ; CInstanceBase::NEW_Stop

; 686  : 	m_GraphicThingInstance.Stun();

  00008	8d 8e d4 01 00
	00		 lea	 ecx, DWORD PTR [esi+468]
  0000e	e8 00 00 00 00	 call	 ?Stun@CActorInstance@@QAEXXZ ; CActorInstance::Stun

; 687  : 
; 688  : 	__AttachEffect(EFFECT_STUN);

  00013	6a 01		 push	 1
  00015	8b ce		 mov	 ecx, esi
  00017	e8 00 00 00 00	 call	 ?__AttachEffect@CInstanceBase@@IAEKI@Z ; CInstanceBase::__AttachEffect
  0001c	5e		 pop	 esi

; 689  : }

  0001d	c3		 ret	 0
?Stun@CInstanceBase@@QAEXXZ ENDP			; CInstanceBase::Stun
_TEXT	ENDS
; Function compile flags: /Ogtp
; File D:\_m2work\Server Client TMP4\ClientVS22\source\UserInterface\InstanceBaseBattle.cpp
;	COMDAT ?Die@CInstanceBase@@QAEXXZ
_TEXT	SEGMENT
?Die@CInstanceBase@@QAEXXZ PROC				; CInstanceBase::Die, COMDAT
; _this$ = ecx

; 692  : {

  00000	56		 push	 esi
  00001	8b f1		 mov	 esi, ecx

; 693  : 	__DetachHorseSaddle();

  00003	e8 00 00 00 00	 call	 ?__DetachHorseSaddle@CInstanceBase@@IAEXXZ ; CInstanceBase::__DetachHorseSaddle

; 694  : 
; 695  : 	if (IsAffect(AFFECT_SPAWN))

  00008	6a 02		 push	 2
  0000a	8b ce		 mov	 ecx, esi
  0000c	e8 00 00 00 00	 call	 ?IsAffect@CInstanceBase@@QAE_NI@Z ; CInstanceBase::IsAffect
  00011	84 c0		 test	 al, al
  00013	74 09		 je	 SHORT $LN2@Die

; 696  : 		__AttachEffect(EFFECT_SPAWN_DISAPPEAR);

  00015	6a 0a		 push	 10			; 0000000aH
  00017	8b ce		 mov	 ecx, esi
  00019	e8 00 00 00 00	 call	 ?__AttachEffect@CInstanceBase@@IAEKI@Z ; CInstanceBase::__AttachEffect
$LN2@Die:

; 697  : 
; 698  : 	// 2004.07.25.  
; 699  : 	////////////////////////////////////////
; 700  : 	__ClearAffects();

  0001e	8b ce		 mov	 ecx, esi
  00020	e8 00 00 00 00	 call	 ?__ClearAffects@CInstanceBase@@QAEXXZ ; CInstanceBase::__ClearAffects

; 701  : 	////////////////////////////////////////
; 702  : 
; 703  : 	OnUnselected();

  00025	8b ce		 mov	 ecx, esi
  00027	e8 00 00 00 00	 call	 ?OnUnselected@CInstanceBase@@QAEXXZ ; CInstanceBase::OnUnselected

; 704  : 	OnUntargeted();

  0002c	8b ce		 mov	 ecx, esi
  0002e	e8 00 00 00 00	 call	 ?OnUntargeted@CInstanceBase@@QAEXXZ ; CInstanceBase::OnUntargeted

; 705  : 
; 706  : 	m_GraphicThingInstance.Die();

  00033	8d 8e d4 01 00
	00		 lea	 ecx, DWORD PTR [esi+468]
  00039	5e		 pop	 esi
  0003a	e9 00 00 00 00	 jmp	 ?Die@CActorInstance@@QAEXXZ ; CActorInstance::Die
?Die@CInstanceBase@@QAEXXZ ENDP				; CInstanceBase::Die
_TEXT	ENDS
; Function compile flags: /Ogtp
; File D:\_m2work\Server Client TMP4\ClientVS22\source\UserInterface\InstanceBaseBattle.cpp
;	COMDAT ?Hide@CInstanceBase@@QAEXXZ
_TEXT	SEGMENT
?Hide@CInstanceBase@@QAEXXZ PROC			; CInstanceBase::Hide, COMDAT
; _this$ = ecx

; 710  : {

  00000	56		 push	 esi

; 711  : 	m_GraphicThingInstance.SetAlphaValue(0.0f);

  00001	8d b1 d4 01 00
	00		 lea	 esi, DWORD PTR [ecx+468]
  00007	51		 push	 ecx
  00008	8b ce		 mov	 ecx, esi
  0000a	c7 04 24 00 00
	00 00		 mov	 DWORD PTR [esp], 0
  00011	e8 00 00 00 00	 call	 ?SetAlphaValue@CActorInstance@@QAEXM@Z ; CActorInstance::SetAlphaValue

; 712  : 	m_GraphicThingInstance.BlendAlphaValue(0.0f, 0.1f);

  00016	83 ec 08	 sub	 esp, 8
  00019	8b ce		 mov	 ecx, esi
  0001b	c7 44 24 04 cd
	cc cc 3d	 mov	 DWORD PTR [esp+4], 1036831949 ; 3dcccccdH
  00023	c7 04 24 00 00
	00 00		 mov	 DWORD PTR [esp], 0
  0002a	e8 00 00 00 00	 call	 ?BlendAlphaValue@CActorInstance@@QAEXMM@Z ; CActorInstance::BlendAlphaValue
  0002f	5e		 pop	 esi

; 713  : }

  00030	c3		 ret	 0
?Hide@CInstanceBase@@QAEXXZ ENDP			; CInstanceBase::Hide
_TEXT	ENDS
; Function compile flags: /Ogtp
; File D:\_m2work\Server Client TMP4\ClientVS22\source\UserInterface\InstanceBaseBattle.cpp
;	COMDAT ?Show@CInstanceBase@@QAEXXZ
_TEXT	SEGMENT
?Show@CInstanceBase@@QAEXXZ PROC			; CInstanceBase::Show, COMDAT
; _this$ = ecx

; 716  : {

  00000	56		 push	 esi

; 717  : 	m_GraphicThingInstance.SetAlphaValue(1.0f);

  00001	8d b1 d4 01 00
	00		 lea	 esi, DWORD PTR [ecx+468]
  00007	51		 push	 ecx
  00008	8b ce		 mov	 ecx, esi
  0000a	c7 04 24 00 00
	80 3f		 mov	 DWORD PTR [esp], 1065353216 ; 3f800000H
  00011	e8 00 00 00 00	 call	 ?SetAlphaValue@CActorInstance@@QAEXM@Z ; CActorInstance::SetAlphaValue

; 718  : 	m_GraphicThingInstance.BlendAlphaValue(1.0f, 0.1f);

  00016	83 ec 08	 sub	 esp, 8
  00019	8b ce		 mov	 ecx, esi
  0001b	c7 44 24 04 cd
	cc cc 3d	 mov	 DWORD PTR [esp+4], 1036831949 ; 3dcccccdH
  00023	c7 04 24 00 00
	80 3f		 mov	 DWORD PTR [esp], 1065353216 ; 3f800000H
  0002a	e8 00 00 00 00	 call	 ?BlendAlphaValue@CActorInstance@@QAEXMM@Z ; CActorInstance::BlendAlphaValue
  0002f	5e		 pop	 esi

; 719  : }

  00030	c3		 ret	 0
?Show@CInstanceBase@@QAEXXZ ENDP			; CInstanceBase::Show
_TEXT	ENDS
; Function compile flags: /Ogtp
; File C:\Program Files\Microsoft Visual Studio\2022\Community\VC\Tools\MSVC\14.44.35207\include\utility
;	COMDAT ??$?0AAMAAPAVCInstanceBase@@$0A@@?$pair@$$CBMPAVCInstanceBase@@@std@@QAE@AAMAAPAVCInstanceBase@@@Z
_TEXT	SEGMENT
__Val1$ = 8						; size = 4
__Val2$ = 12						; size = 4
??$?0AAMAAPAVCInstanceBase@@$0A@@?$pair@$$CBMPAVCInstanceBase@@@std@@QAE@AAMAAPAVCInstanceBase@@@Z PROC ; std::pair<float const ,CInstanceBase *>::pair<float const ,CInstanceBase *><float &,CInstanceBase * &,0>, COMDAT
; _this$ = ecx

; 274  :         : first(_STD forward<_Other1>(_Val1)), second(_STD forward<_Other2>(_Val2)) {

  00000	55		 push	 ebp
  00001	8b ec		 mov	 ebp, esp
  00003	8b 45 08	 mov	 eax, DWORD PTR __Val1$[ebp]
  00006	8b 00		 mov	 eax, DWORD PTR [eax]
  00008	89 01		 mov	 DWORD PTR [ecx], eax
  0000a	8b 45 0c	 mov	 eax, DWORD PTR __Val2$[ebp]
  0000d	8b 00		 mov	 eax, DWORD PTR [eax]
  0000f	89 41 04	 mov	 DWORD PTR [ecx+4], eax

; 275  :     }

  00012	8b c1		 mov	 eax, ecx
  00014	5d		 pop	 ebp
  00015	c2 08 00	 ret	 8
??$?0AAMAAPAVCInstanceBase@@$0A@@?$pair@$$CBMPAVCInstanceBase@@@std@@QAE@AAMAAPAVCInstanceBase@@@Z ENDP ; std::pair<float const ,CInstanceBase *>::pair<float const ,CInstanceBase *><float &,CInstanceBase * &,0>
_TEXT	ENDS
; Function compile flags: /Ogtp
; File C:\Program Files\Microsoft Visual Studio\2022\Community\VC\Tools\MSVC\14.44.35207\include\xtree
; File C:\Program Files\Microsoft Visual Studio\2022\Community\VC\Tools\MSVC\14.44.35207\include\xmemory
; File C:\Program Files\Microsoft Visual Studio\2022\Community\VC\Tools\MSVC\14.44.35207\include\xtree
; File C:\Program Files\Microsoft Visual Studio\2022\Community\VC\Tools\MSVC\14.44.35207\include\xmemory
; File C:\Program Files\Microsoft Visual Studio\2022\Community\VC\Tools\MSVC\14.44.35207\include\xtree
; File C:\Program Files\Microsoft Visual Studio\2022\Community\VC\Tools\MSVC\14.44.35207\include\xmemory
; File C:\Program Files\Microsoft Visual Studio\2022\Community\VC\Tools\MSVC\14.44.35207\include\xtree
; File C:\Program Files\Microsoft Visual Studio\2022\Community\VC\Tools\MSVC\14.44.35207\include\xmemory
; File C:\Program Files\Microsoft Visual Studio\2022\Community\VC\Tools\MSVC\14.44.35207\include\xtree
;	COMDAT ??$insert@$00$0A@@?$_Tree@V?$_Tmap_traits@MPAVCInstanceBase@@U?$less@M@std@@V?$allocator@U?$pair@$$CBMPAVCInstanceBase@@@std@@@3@$00@std@@@std@@QAE?AV?$_Tree_iterator@V?$_Tree_val@U?$_Tree_simple_types@U?$pair@$$CBMPAVCInstanceBase@@@std@@@std@@@std@@@1@$$QAU?$pair@$$CBMPAVCInstanceBase@@@1@@Z
_TEXT	SEGMENT
$T3 = -48						; size = 12
__Loc$4 = -36						; size = 12
__Newnode$5 = -24					; size = 8
_this$1$ = -16						; size = 4
__$EHRec$ = -12						; size = 12
___$ReturnUdt$ = 8					; size = 4
__Val$ = 12						; size = 4
??$insert@$00$0A@@?$_Tree@V?$_Tmap_traits@MPAVCInstanceBase@@U?$less@M@std@@V?$allocator@U?$pair@$$CBMPAVCInstanceBase@@@std@@@3@$00@std@@@std@@QAE?AV?$_Tree_iterator@V?$_Tree_val@U?$_Tree_simple_types@U?$pair@$$CBMPAVCInstanceBase@@@std@@@std@@@std@@@1@$$QAU?$pair@$$CBMPAVCInstanceBase@@@1@@Z PROC ; std::_Tree<std::_Tmap_traits<float,CInstanceBase *,std::less<float>,std::allocator<std::pair<float const ,CInstanceBase *> >,1> >::insert<1,0>, COMDAT
; _this$ = ecx

; 1251 :     iterator insert(value_type&& _Val) {

  00000	55		 push	 ebp
  00001	8b ec		 mov	 ebp, esp
  00003	6a ff		 push	 -1
  00005	68 00 00 00 00	 push	 __ehhandler$??$insert@$00$0A@@?$_Tree@V?$_Tmap_traits@MPAVCInstanceBase@@U?$less@M@std@@V?$allocator@U?$pair@$$CBMPAVCInstanceBase@@@std@@@3@$00@std@@@std@@QAE?AV?$_Tree_iterator@V?$_Tree_val@U?$_Tree_simple_types@U?$pair@$$CBMPAVCInstanceBase@@@std@@@std@@@std@@@1@$$QAU?$pair@$$CBMPAVCInstanceBase@@@1@@Z
  0000a	64 a1 00 00 00
	00		 mov	 eax, DWORD PTR fs:0
  00010	50		 push	 eax
  00011	83 ec 24	 sub	 esp, 36			; 00000024H
  00014	53		 push	 ebx
  00015	56		 push	 esi
  00016	57		 push	 edi
  00017	a1 00 00 00 00	 mov	 eax, DWORD PTR ___security_cookie
  0001c	33 c5		 xor	 eax, ebp
  0001e	50		 push	 eax
  0001f	8d 45 f4	 lea	 eax, DWORD PTR __$EHRec$[ebp]
  00022	64 a3 00 00 00
	00		 mov	 DWORD PTR fs:0, eax
  00028	8b c1		 mov	 eax, ecx
  0002a	89 45 f0	 mov	 DWORD PTR _this$1$[ebp], eax

; 1026 :             _Tree_temp_node<_Alnode> _Newnode(_Getal(), _Scary->_Myhead, _STD forward<_Valtys>(_Vals)...);

  0002d	8b 38		 mov	 edi, DWORD PTR [eax]
; File C:\Program Files\Microsoft Visual Studio\2022\Community\VC\Tools\MSVC\14.44.35207\include\xmemory

; 1160 :     _CONSTEXPR20 explicit _Alloc_construct_ptr(_Alloc& _Al_) : _Al(_Al_), _Ptr(nullptr) {}

  0002f	89 45 e8	 mov	 DWORD PTR __Newnode$5[ebp], eax
; File C:\Program Files\Microsoft Visual Studio\2022\Community\VC\Tools\MSVC\14.44.35207\include\xtree

; 808  :     explicit _Tree_temp_node_alloc(_Alnode& _Al_) : _Alloc_construct_ptr<_Alnode>(_Al_) {

  00032	c7 45 fc 00 00
	00 00		 mov	 DWORD PTR __$EHRec$[ebp+8], 0
; File C:\Program Files\Microsoft Visual Studio\2022\Community\VC\Tools\MSVC\14.44.35207\include\xmemory

; 136  :         return ::operator new(_Bytes);

  00039	6a 18		 push	 24			; 00000018H

; 1167 :         _Ptr = nullptr; // if allocate throws, prevents double-free

  0003b	c7 45 ec 00 00
	00 00		 mov	 DWORD PTR __Newnode$5[ebp+4], 0

; 136  :         return ::operator new(_Bytes);

  00042	e8 00 00 00 00	 call	 ??2@YAPAXI@Z		; operator new
; File C:\Program Files\Microsoft Visual Studio\2022\Community\VC\Tools\MSVC\14.44.35207\include\xtree

; 830  :         _Alnode_traits::construct(this->_Al, _STD addressof(this->_Ptr->_Myval), _STD forward<_Valtys>(_Vals)...);

  00047	8b 4d 0c	 mov	 ecx, DWORD PTR __Val$[ebp]
; File C:\Program Files\Microsoft Visual Studio\2022\Community\VC\Tools\MSVC\14.44.35207\include\xmemory

; 256  :         return _Traits::_Allocate(_Bytes);

  0004a	8b d8		 mov	 ebx, eax
; File C:\Program Files\Microsoft Visual Studio\2022\Community\VC\Tools\MSVC\14.44.35207\include\xtree

; 830  :         _Alnode_traits::construct(this->_Al, _STD addressof(this->_Ptr->_Myval), _STD forward<_Valtys>(_Vals)...);

  0004c	8d 73 10	 lea	 esi, DWORD PTR [ebx+16]
; File C:\Program Files\Microsoft Visual Studio\2022\Community\VC\Tools\MSVC\14.44.35207\include\xmemory

; 1168 :         _Ptr = _Al.allocate(1);

  0004f	89 5d ec	 mov	 DWORD PTR __Newnode$5[ebp+4], ebx

; 136  :         return ::operator new(_Bytes);

  00052	83 c4 04	 add	 esp, 4
; File C:\Program Files\Microsoft Visual Studio\2022\Community\VC\Tools\MSVC\14.44.35207\include\xtree

