; Listing generated by Microsoft (R) Optimizing Compiler Version 19.44.35217.0 

	TITLE	d:\_m2work\server client tmp4\clientvs22\vs_files\userinterface\distribute\insultchecker.obj
	.686P
	.XMM
	include listing.inc
	.model	flat

INCLUDELIB OLDNAMES

PUBLIC	??_R2CInsultChecker@@8				; CInsultChecker::`RTTI Base Class Array'
PUBLIC	??_R1A@?0A@EA@CInsultChecker@@8			; CInsultChecker::`RTTI Base Class Descriptor at (0,-1,0,64)'
PUBLIC	??_R3CInsultChecker@@8				; CInsultChecker::`RTTI Class Hierarchy Descriptor'
PUBLIC	??_R0?AVCInsultChecker@@@8			; CInsultChecker `RTTI Type Descriptor'
PUBLIC	??_R4CInsultChecker@@6B@			; CInsultChecker::`RTTI Complete Object Locator'
PUBLIC	??_7CInsultChecker@@6B@				; CInsultChecker::`vftable'
;	COMDAT ??_7CInsultChecker@@6B@
CONST	SEGMENT
??_7CInsultChecker@@6B@ DD FLAT:??_R4CInsultChecker@@6B@ ; CInsultChecker::`vftable'
	DD	FLAT:??_ECInsultChecker@@UAEPAXI@Z
CONST	ENDS
;	COMDAT ??_R4CInsultChecker@@6B@
rdata$r	SEGMENT
??_R4CInsultChecker@@6B@ DD 00H				; CInsultChecker::`RTTI Complete Object Locator'
	DD	00H
	DD	00H
	DD	FLAT:??_R0?AVCInsultChecker@@@8
	DD	FLAT:??_R3CInsultChecker@@8
rdata$r	ENDS
;	COMDAT ??_R0?AVCInsultChecker@@@8
data$rs	SEGMENT
??_R0?AVCInsultChecker@@@8 DD FLAT:??_7type_info@@6B@	; CInsultChecker `RTTI Type Descriptor'
	DD	00H
	DB	'.?AVCInsultChecker@@', 00H
data$rs	ENDS
;	COMDAT ??_R3CInsultChecker@@8
rdata$r	SEGMENT
??_R3CInsultChecker@@8 DD 00H				; CInsultChecker::`RTTI Class Hierarchy Descriptor'
	DD	00H
	DD	01H
	DD	FLAT:??_R2CInsultChecker@@8
rdata$r	ENDS
;	COMDAT ??_R1A@?0A@EA@CInsultChecker@@8
rdata$r	SEGMENT
??_R1A@?0A@EA@CInsultChecker@@8 DD FLAT:??_R0?AVCInsultChecker@@@8 ; CInsultChecker::`RTTI Base Class Descriptor at (0,-1,0,64)'
	DD	00H
	DD	00H
	DD	0ffffffffH
	DD	00H
	DD	040H
	DD	FLAT:??_R3CInsultChecker@@8
rdata$r	ENDS
;	COMDAT ??_R2CInsultChecker@@8
rdata$r	SEGMENT
??_R2CInsultChecker@@8 DD FLAT:??_R1A@?0A@EA@CInsultChecker@@8 ; CInsultChecker::`RTTI Base Class Array'
PUBLIC	?deallocate@?$allocator@U?$_List_node@V?$basic_string@DU?$char_traits@D@std@@V?$allocator@D@2@@std@@PAX@std@@@std@@QAEXQAU?$_List_node@V?$basic_string@DU?$char_traits@D@std@@V?$allocator@D@2@@std@@PAX@2@I@Z ; std::allocator<std::_List_node<std::basic_string<char,std::char_traits<char>,std::allocator<char> >,void *> >::deallocate
PUBLIC	?_Get_first@?$_Compressed_pair@V?$allocator@U?$_List_node@V?$basic_string@DU?$char_traits@D@std@@V?$allocator@D@2@@std@@PAX@std@@@std@@V?$_List_val@U?$_List_simple_types@V?$basic_string@DU?$char_traits@D@std@@V?$allocator@D@2@@std@@@std@@@2@$00@std@@QBEABV?$allocator@U?$_List_node@V?$basic_string@DU?$char_traits@D@std@@V?$allocator@D@2@@std@@PAX@std@@@2@XZ ; std::_Compressed_pair<std::allocator<std::_List_node<std::basic_string<char,std::char_traits<char>,std::allocator<char> >,void *> >,std::_List_val<std::_List_simple_types<std::basic_string<char,std::char_traits<char>,std::allocator<char> > > >,1>::_Get_first
PUBLIC	??$construct_at@PAU?$_List_node@V?$basic_string@DU?$char_traits@D@std@@V?$allocator@D@2@@std@@PAX@std@@ABQAU12@@std@@YAPAPAU?$_List_node@V?$basic_string@DU?$char_traits@D@std@@V?$allocator@D@2@@std@@PAX@0@QAPAU10@ABQAU10@@Z ; std::construct_at<std::_List_node<std::basic_string<char,std::char_traits<char>,std::allocator<char> >,void *> *,std::_List_node<std::basic_string<char,std::char_traits<char>,std::allocator<char> >,void *> * const &>
PUBLIC	??$forward@ABQAU?$_List_node@V?$basic_string@DU?$char_traits@D@std@@V?$allocator@D@2@@std@@PAX@std@@@std@@YAABQAU?$_List_node@V?$basic_string@DU?$char_traits@D@std@@V?$allocator@D@2@@std@@PAX@0@ABQAU10@@Z ; std::forward<std::_List_node<std::basic_string<char,std::char_traits<char>,std::allocator<char> >,void *> * const &>
PUBLIC	??$construct_at@V?$basic_string@DU?$char_traits@D@std@@V?$allocator@D@2@@std@@ABV12@@std@@YAPAV?$basic_string@DU?$char_traits@D@std@@V?$allocator@D@2@@0@QAV10@ABV10@@Z ; std::construct_at<std::basic_string<char,std::char_traits<char>,std::allocator<char> >,std::basic_string<char,std::char_traits<char>,std::allocator<char> > const &>
PUBLIC	?_Getal@?$list@V?$basic_string@DU?$char_traits@D@std@@V?$allocator@D@2@@std@@V?$allocator@V?$basic_string@DU?$char_traits@D@std@@V?$allocator@D@2@@std@@@2@@std@@ABEABV?$allocator@U?$_List_node@V?$basic_string@DU?$char_traits@D@std@@V?$allocator@D@2@@std@@PAX@std@@@2@XZ ; std::list<std::basic_string<char,std::char_traits<char>,std::allocator<char> >,std::allocator<std::basic_string<char,std::char_traits<char>,std::allocator<char> > > >::_Getal
PUBLIC	?deallocate@?$_Default_allocator_traits@V?$allocator@U?$_List_node@V?$basic_string@DU?$char_traits@D@std@@V?$allocator@D@2@@std@@PAX@std@@@std@@@std@@SAXAAV?$allocator@U?$_List_node@V?$basic_string@DU?$char_traits@D@std@@V?$allocator@D@2@@std@@PAX@std@@@2@QAU?$_List_node@V?$basic_string@DU?$char_traits@D@std@@V?$allocator@D@2@@std@@PAX@2@I@Z ; std::_Default_allocator_traits<std::allocator<std::_List_node<std::basic_string<char,std::char_traits<char>,std::allocator<char> >,void *> > >::deallocate
PUBLIC	?max_size@?$_Default_allocator_traits@V?$allocator@U?$_List_node@V?$basic_string@DU?$char_traits@D@std@@V?$allocator@D@2@@std@@PAX@std@@@std@@@std@@SAIABV?$allocator@U?$_List_node@V?$basic_string@DU?$char_traits@D@std@@V?$allocator@D@2@@std@@PAX@std@@@2@@Z ; std::_Default_allocator_traits<std::allocator<std::_List_node<std::basic_string<char,std::char_traits<char>,std::allocator<char> >,void *> > >::max_size
PUBLIC	??0?$_Alloc_construct_ptr@V?$allocator@U?$_List_node@V?$basic_string@DU?$char_traits@D@std@@V?$allocator@D@2@@std@@PAX@std@@@std@@@std@@QAE@AAV?$allocator@U?$_List_node@V?$basic_string@DU?$char_traits@D@std@@V?$allocator@D@2@@std@@PAX@std@@@1@@Z ; std::_Alloc_construct_ptr<std::allocator<std::_List_node<std::basic_string<char,std::char_traits<char>,std::allocator<char> >,void *> > >::_Alloc_construct_ptr<std::allocator<std::_List_node<std::basic_string<char,std::char_traits<char>,std::allocator<char> >,void *> > >
PUBLIC	?_Allocate@?$_Alloc_construct_ptr@V?$allocator@U?$_List_node@V?$basic_string@DU?$char_traits@D@std@@V?$allocator@D@2@@std@@PAX@std@@@std@@@std@@QAEXXZ ; std::_Alloc_construct_ptr<std::allocator<std::_List_node<std::basic_string<char,std::char_traits<char>,std::allocator<char> >,void *> > >::_Allocate
PUBLIC	??1?$_Alloc_construct_ptr@V?$allocator@U?$_List_node@V?$basic_string@DU?$char_traits@D@std@@V?$allocator@D@2@@std@@PAX@std@@@std@@@std@@QAE@XZ ; std::_Alloc_construct_ptr<std::allocator<std::_List_node<std::basic_string<char,std::char_traits<char>,std::allocator<char> >,void *> > >::~_Alloc_construct_ptr<std::allocator<std::_List_node<std::basic_string<char,std::char_traits<char>,std::allocator<char> >,void *> > >
PUBLIC	??$_Get_size_of_n@$0CA@@std@@YAII@Z		; std::_Get_size_of_n<32>
PUBLIC	??$_Construct_in_place@PAU?$_List_node@V?$basic_string@DU?$char_traits@D@std@@V?$allocator@D@2@@std@@PAX@std@@ABQAU12@@std@@YAXAAPAU?$_List_node@V?$basic_string@DU?$char_traits@D@std@@V?$allocator@D@2@@std@@PAX@0@ABQAU10@@Z ; std::_Construct_in_place<std::_List_node<std::basic_string<char,std::char_traits<char>,std::allocator<char> >,void *> *,std::_List_node<std::basic_string<char,std::char_traits<char>,std::allocator<char> >,void *> * const &>
PUBLIC	??$_Destroy_in_place@PAU?$_List_node@V?$basic_string@DU?$char_traits@D@std@@V?$allocator@D@2@@std@@PAX@std@@@std@@YAXAAPAU?$_List_node@V?$basic_string@DU?$char_traits@D@std@@V?$allocator@D@2@@std@@PAX@0@@Z ; std::_Destroy_in_place<std::_List_node<std::basic_string<char,std::char_traits<char>,std::allocator<char> >,void *> *>
PUBLIC	??$construct_at@PAU?$_List_node@V?$basic_string@DU?$char_traits@D@std@@V?$allocator@D@2@@std@@PAX@std@@AAPAU12@@std@@YAPAPAU?$_List_node@V?$basic_string@DU?$char_traits@D@std@@V?$allocator@D@2@@std@@PAX@0@QAPAU10@AAPAU10@@Z ; std::construct_at<std::_List_node<std::basic_string<char,std::char_traits<char>,std::allocator<char> >,void *> *,std::_List_node<std::basic_string<char,std::char_traits<char>,std::allocator<char> >,void *> * &>
PUBLIC	??$forward@AAPAU?$_List_node@V?$basic_string@DU?$char_traits@D@std@@V?$allocator@D@2@@std@@PAX@std@@@std@@YAAAPAU?$_List_node@V?$basic_string@DU?$char_traits@D@std@@V?$allocator@D@2@@std@@PAX@0@AAPAU10@@Z ; std::forward<std::_List_node<std::basic_string<char,std::char_traits<char>,std::allocator<char> >,void *> * &>
PUBLIC	??$addressof@PAU?$_List_node@V?$basic_string@DU?$char_traits@D@std@@V?$allocator@D@2@@std@@PAX@std@@@std@@YAPAPAU?$_List_node@V?$basic_string@DU?$char_traits@D@std@@V?$allocator@D@2@@std@@PAX@0@AAPAU10@@Z ; std::addressof<std::_List_node<std::basic_string<char,std::char_traits<char>,std::allocator<char> >,void *> *>
PUBLIC	??$construct@V?$basic_string@DU?$char_traits@D@std@@V?$allocator@D@2@@std@@ABV12@@?$_Default_allocator_traits@V?$allocator@U?$_List_node@V?$basic_string@DU?$char_traits@D@std@@V?$allocator@D@2@@std@@PAX@std@@@std@@@std@@SAXAAV?$allocator@U?$_List_node@V?$basic_string@DU?$char_traits@D@std@@V?$allocator@D@2@@std@@PAX@std@@@1@QAV?$basic_string@DU?$char_traits@D@std@@V?$allocator@D@2@@1@ABV31@@Z ; std::_Default_allocator_traits<std::allocator<std::_List_node<std::basic_string<char,std::char_traits<char>,std::allocator<char> >,void *> > >::construct<std::basic_string<char,std::char_traits<char>,std::allocator<char> >,std::basic_string<char,std::char_traits<char>,std::allocator<char> > const &>
PUBLIC	??$destroy@V?$basic_string@DU?$char_traits@D@std@@V?$allocator@D@2@@std@@@?$_Default_allocator_traits@V?$allocator@U?$_List_node@V?$basic_string@DU?$char_traits@D@std@@V?$allocator@D@2@@std@@PAX@std@@@std@@@std@@SAXAAV?$allocator@U?$_List_node@V?$basic_string@DU?$char_traits@D@std@@V?$allocator@D@2@@std@@PAX@std@@@1@QAV?$basic_string@DU?$char_traits@D@std@@V?$allocator@D@2@@1@@Z ; std::_Default_allocator_traits<std::allocator<std::_List_node<std::basic_string<char,std::char_traits<char>,std::allocator<char> >,void *> > >::destroy<std::basic_string<char,std::char_traits<char>,std::allocator<char> > >
PUBLIC	?max_size@?$list@V?$basic_string@DU?$char_traits@D@std@@V?$allocator@D@2@@std@@V?$allocator@V?$basic_string@DU?$char_traits@D@std@@V?$allocator@D@2@@std@@@2@@std@@QBEIXZ ; std::list<std::basic_string<char,std::char_traits<char>,std::allocator<char> >,std::allocator<std::basic_string<char,std::char_traits<char>,std::allocator<char> > > >::max_size
PUBLIC	??0?$allocator@U?$_List_node@V?$basic_string@DU?$char_traits@D@std@@V?$allocator@D@2@@std@@PAX@std@@@std@@QAE@XZ ; std::allocator<std::_List_node<std::basic_string<char,std::char_traits<char>,std::allocator<char> >,void *> >::allocator<std::_List_node<std::basic_string<char,std::char_traits<char>,std::allocator<char> >,void *> >
PUBLIC	?allocate@?$allocator@U?$_List_node@V?$basic_string@DU?$char_traits@D@std@@V?$allocator@D@2@@std@@PAX@std@@@std@@QAEPAU?$_List_node@V?$basic_string@DU?$char_traits@D@std@@V?$allocator@D@2@@std@@PAX@2@I@Z ; std::allocator<std::_List_node<std::basic_string<char,std::char_traits<char>,std::allocator<char> >,void *> >::allocate
PUBLIC	??0?$_List_val@U?$_List_simple_types@V?$basic_string@DU?$char_traits@D@std@@V?$allocator@D@2@@std@@@std@@@std@@QAE@XZ ; std::_List_val<std::_List_simple_types<std::basic_string<char,std::char_traits<char>,std::allocator<char> > > >::_List_val<std::_List_simple_types<std::basic_string<char,std::char_traits<char>,std::allocator<char> > > >
PUBLIC	?_Get_first@?$_Compressed_pair@V?$allocator@U?$_List_node@V?$basic_string@DU?$char_traits@D@std@@V?$allocator@D@2@@std@@PAX@std@@@std@@V?$_List_val@U?$_List_simple_types@V?$basic_string@DU?$char_traits@D@std@@V?$allocator@D@2@@std@@@std@@@2@$00@std@@QAEAAV?$allocator@U?$_List_node@V?$basic_string@DU?$char_traits@D@std@@V?$allocator@D@2@@std@@PAX@std@@@2@XZ ; std::_Compressed_pair<std::allocator<std::_List_node<std::basic_string<char,std::char_traits<char>,std::allocator<char> >,void *> >,std::_List_val<std::_List_simple_types<std::basic_string<char,std::char_traits<char>,std::allocator<char> > > >,1>::_Get_first
PUBLIC	??1?$_List_node_emplace_op2@V?$allocator@U?$_List_node@V?$basic_string@DU?$char_traits@D@std@@V?$allocator@D@2@@std@@PAX@std@@@std@@@std@@QAE@XZ ; std::_List_node_emplace_op2<std::allocator<std::_List_node<std::basic_string<char,std::char_traits<char>,std::allocator<char> >,void *> > >::~_List_node_emplace_op2<std::allocator<std::_List_node<std::basic_string<char,std::char_traits<char>,std::allocator<char> >,void *> > >
PUBLIC	?_Transfer_before@?$_List_node_emplace_op2@V?$allocator@U?$_List_node@V?$basic_string@DU?$char_traits@D@std@@V?$allocator@D@2@@std@@PAX@std@@@std@@@std@@QAEPAU?$_List_node@V?$basic_string@DU?$char_traits@D@std@@V?$allocator@D@2@@std@@PAX@2@QAU32@@Z ; std::_List_node_emplace_op2<std::allocator<std::_List_node<std::basic_string<char,std::char_traits<char>,std::allocator<char> >,void *> > >::_Transfer_before
PUBLIC	??$_Freenode0@V?$allocator@U?$_List_node@V?$basic_string@DU?$char_traits@D@std@@V?$allocator@D@2@@std@@PAX@std@@@std@@@?$_List_node@V?$basic_string@DU?$char_traits@D@std@@V?$allocator@D@2@@std@@PAX@std@@SAXAAV?$allocator@U?$_List_node@V?$basic_string@DU?$char_traits@D@std@@V?$allocator@D@2@@std@@PAX@std@@@1@PAU01@@Z ; std::_List_node<std::basic_string<char,std::char_traits<char>,std::allocator<char> >,void *>::_Freenode0<std::allocator<std::_List_node<std::basic_string<char,std::char_traits<char>,std::allocator<char> >,void *> > >
PUBLIC	??$_Construct_in_place@PAU?$_List_node@V?$basic_string@DU?$char_traits@D@std@@V?$allocator@D@2@@std@@PAX@std@@AAPAU12@@std@@YAXAAPAU?$_List_node@V?$basic_string@DU?$char_traits@D@std@@V?$allocator@D@2@@std@@PAX@0@0@Z ; std::_Construct_in_place<std::_List_node<std::basic_string<char,std::char_traits<char>,std::allocator<char> >,void *> *,std::_List_node<std::basic_string<char,std::char_traits<char>,std::allocator<char> >,void *> * &>
PUBLIC	??$?0ABV?$basic_string@DU?$char_traits@D@std@@V?$allocator@D@2@@std@@@?$_List_node_emplace_op2@V?$allocator@U?$_List_node@V?$basic_string@DU?$char_traits@D@std@@V?$allocator@D@2@@std@@PAX@std@@@std@@@std@@QAE@AAV?$allocator@U?$_List_node@V?$basic_string@DU?$char_traits@D@std@@V?$allocator@D@2@@std@@PAX@std@@@1@ABV?$basic_string@DU?$char_traits@D@std@@V?$allocator@D@2@@1@@Z ; std::_List_node_emplace_op2<std::allocator<std::_List_node<std::basic_string<char,std::char_traits<char>,std::allocator<char> >,void *> > >::_List_node_emplace_op2<std::allocator<std::_List_node<std::basic_string<char,std::char_traits<char>,std::allocator<char> >,void *> > ><std::basic_string<char,std::char_traits<char>,std::allocator<char> > const &>
PUBLIC	??$forward@ABV?$basic_string@DU?$char_traits@D@std@@V?$allocator@D@2@@std@@@std@@YAABV?$basic_string@DU?$char_traits@D@std@@V?$allocator@D@2@@0@ABV10@@Z ; std::forward<std::basic_string<char,std::char_traits<char>,std::allocator<char> > const &>
PUBLIC	??$_Freenode@V?$allocator@U?$_List_node@V?$basic_string@DU?$char_traits@D@std@@V?$allocator@D@2@@std@@PAX@std@@@std@@@?$_List_node@V?$basic_string@DU?$char_traits@D@std@@V?$allocator@D@2@@std@@PAX@std@@SAXAAV?$allocator@U?$_List_node@V?$basic_string@DU?$char_traits@D@std@@V?$allocator@D@2@@std@@PAX@std@@@1@PAU01@@Z ; std::_List_node<std::basic_string<char,std::char_traits<char>,std::allocator<char> >,void *>::_Freenode<std::allocator<std::_List_node<std::basic_string<char,std::char_traits<char>,std::allocator<char> >,void *> > >
PUBLIC	?_Tidy@?$list@V?$basic_string@DU?$char_traits@D@std@@V?$allocator@D@2@@std@@V?$allocator@V?$basic_string@DU?$char_traits@D@std@@V?$allocator@D@2@@std@@@2@@std@@AAEXXZ ; std::list<std::basic_string<char,std::char_traits<char>,std::allocator<char> >,std::allocator<std::basic_string<char,std::char_traits<char>,std::allocator<char> > > >::_Tidy
PUBLIC	?_Alloc_sentinel_and_proxy@?$list@V?$basic_string@DU?$char_traits@D@std@@V?$allocator@D@2@@std@@V?$allocator@V?$basic_string@DU?$char_traits@D@std@@V?$allocator@D@2@@std@@@2@@std@@AAEXXZ ; std::list<std::basic_string<char,std::char_traits<char>,std::allocator<char> >,std::allocator<std::basic_string<char,std::char_traits<char>,std::allocator<char> > > >::_Alloc_sentinel_and_proxy
PUBLIC	?_Getal@?$list@V?$basic_string@DU?$char_traits@D@std@@V?$allocator@D@2@@std@@V?$allocator@V?$basic_string@DU?$char_traits@D@std@@V?$allocator@D@2@@std@@@2@@std@@AAEAAV?$allocator@U?$_List_node@V?$basic_string@DU?$char_traits@D@std@@V?$allocator@D@2@@std@@PAX@std@@@2@XZ ; std::list<std::basic_string<char,std::char_traits<char>,std::allocator<char> >,std::allocator<std::basic_string<char,std::char_traits<char>,std::allocator<char> > > >::_Getal
PUBLIC	?_Orphan_non_end@?$_List_val@U?$_List_simple_types@V?$basic_string@DU?$char_traits@D@std@@V?$allocator@D@2@@std@@@std@@@std@@QAEXXZ ; std::_List_val<std::_List_simple_types<std::basic_string<char,std::char_traits<char>,std::allocator<char> > > >::_Orphan_non_end
PUBLIC	??D?$_List_const_iterator@V?$_List_val@U?$_List_simple_types@V?$basic_string@DU?$char_traits@D@std@@V?$allocator@D@2@@std@@@std@@@std@@@std@@QBEABV?$basic_string@DU?$char_traits@D@std@@V?$allocator@D@2@@1@XZ ; std::_List_const_iterator<std::_List_val<std::_List_simple_types<std::basic_string<char,std::char_traits<char>,std::allocator<char> > > > >::operator*
PUBLIC	??E?$_List_const_iterator@V?$_List_val@U?$_List_simple_types@V?$basic_string@DU?$char_traits@D@std@@V?$allocator@D@2@@std@@@std@@@std@@@std@@QAEAAV01@XZ ; std::_List_const_iterator<std::_List_val<std::_List_simple_types<std::basic_string<char,std::char_traits<char>,std::allocator<char> > > > >::operator++
PUBLIC	??0?$_List_unchecked_const_iterator@V?$_List_val@U?$_List_simple_types@V?$basic_string@DU?$char_traits@D@std@@V?$allocator@D@2@@std@@@std@@@std@@U_Iterator_base0@2@@std@@QAE@PAU?$_List_node@V?$basic_string@DU?$char_traits@D@std@@V?$allocator@D@2@@std@@PAX@1@PBV?$_List_val@U?$_List_simple_types@V?$basic_string@DU?$char_traits@D@std@@V?$allocator@D@2@@std@@@std@@@1@@Z ; std::_List_unchecked_const_iterator<std::_List_val<std::_List_simple_types<std::basic_string<char,std::char_traits<char>,std::allocator<char> > > >,std::_Iterator_base0>::_List_unchecked_const_iterator<std::_List_val<std::_List_simple_types<std::basic_string<char,std::char_traits<char>,std::allocator<char> > > >,std::_Iterator_base0>
PUBLIC	??$?0$$V@?$_Compressed_pair@V?$allocator@U?$_List_node@V?$basic_string@DU?$char_traits@D@std@@V?$allocator@D@2@@std@@PAX@std@@@std@@V?$_List_val@U?$_List_simple_types@V?$basic_string@DU?$char_traits@D@std@@V?$allocator@D@2@@std@@@std@@@2@$00@std@@QAE@U_Zero_then_variadic_args_t@1@@Z ; std::_Compressed_pair<std::allocator<std::_List_node<std::basic_string<char,std::char_traits<char>,std::allocator<char> >,void *> >,std::_List_val<std::_List_simple_types<std::basic_string<char,std::char_traits<char>,std::allocator<char> > > >,1>::_Compressed_pair<std::allocator<std::_List_node<std::basic_string<char,std::char_traits<char>,std::allocator<char> >,void *> >,std::_List_val<std::_List_simple_types<std::basic_string<char,std::char_traits<char>,std::allocator<char> > > >,1><>
PUBLIC	??$addressof@V?$_List_val@U?$_List_simple_types@V?$basic_string@DU?$char_traits@D@std@@V?$allocator@D@2@@std@@@std@@@std@@@std@@YAPAV?$_List_val@U?$_List_simple_types@V?$basic_string@DU?$char_traits@D@std@@V?$allocator@D@2@@std@@@std@@@0@AAV10@@Z ; std::addressof<std::_List_val<std::_List_simple_types<std::basic_string<char,std::char_traits<char>,std::allocator<char> > > > >
PUBLIC	??$_Emplace@ABV?$basic_string@DU?$char_traits@D@std@@V?$allocator@D@2@@std@@@?$list@V?$basic_string@DU?$char_traits@D@std@@V?$allocator@D@2@@std@@V?$allocator@V?$basic_string@DU?$char_traits@D@std@@V?$allocator@D@2@@std@@@2@@std@@QAEPAU?$_List_node@V?$basic_string@DU?$char_traits@D@std@@V?$allocator@D@2@@std@@PAX@1@QAU21@ABV?$basic_string@DU?$char_traits@D@std@@V?$allocator@D@2@@1@@Z ; std::list<std::basic_string<char,std::char_traits<char>,std::allocator<char> >,std::allocator<std::basic_string<char,std::char_traits<char>,std::allocator<char> > > >::_Emplace<std::basic_string<char,std::char_traits<char>,std::allocator<char> > const &>
PUBLIC	??$_Free_non_head@V?$allocator@U?$_List_node@V?$basic_string@DU?$char_traits@D@std@@V?$allocator@D@2@@std@@PAX@std@@@std@@@?$_List_node@V?$basic_string@DU?$char_traits@D@std@@V?$allocator@D@2@@std@@PAX@std@@SAXAAV?$allocator@U?$_List_node@V?$basic_string@DU?$char_traits@D@std@@V?$allocator@D@2@@std@@PAX@std@@@1@PAU01@@Z ; std::_List_node<std::basic_string<char,std::char_traits<char>,std::allocator<char> >,void *>::_Free_non_head<std::allocator<std::_List_node<std::basic_string<char,std::char_traits<char>,std::allocator<char> >,void *> > >
PUBLIC	??0?$_List_const_iterator@V?$_List_val@U?$_List_simple_types@V?$basic_string@DU?$char_traits@D@std@@V?$allocator@D@2@@std@@@std@@@std@@@std@@QAE@PAU?$_List_node@V?$basic_string@DU?$char_traits@D@std@@V?$allocator@D@2@@std@@PAX@1@PBV?$_List_val@U?$_List_simple_types@V?$basic_string@DU?$char_traits@D@std@@V?$allocator@D@2@@std@@@std@@@1@@Z ; std::_List_const_iterator<std::_List_val<std::_List_simple_types<std::basic_string<char,std::char_traits<char>,std::allocator<char> > > > >::_List_const_iterator<std::_List_val<std::_List_simple_types<std::basic_string<char,std::char_traits<char>,std::allocator<char> > > > >
PUBLIC	??0?$_List_iterator@V?$_List_val@U?$_List_simple_types@V?$basic_string@DU?$char_traits@D@std@@V?$allocator@D@2@@std@@@std@@@std@@@std@@QAE@PAU?$_List_node@V?$basic_string@DU?$char_traits@D@std@@V?$allocator@D@2@@std@@PAX@1@PBV?$_List_val@U?$_List_simple_types@V?$basic_string@DU?$char_traits@D@std@@V?$allocator@D@2@@std@@@std@@@1@@Z ; std::_List_iterator<std::_List_val<std::_List_simple_types<std::basic_string<char,std::char_traits<char>,std::allocator<char> > > > >::_List_iterator<std::_List_val<std::_List_simple_types<std::basic_string<char,std::char_traits<char>,std::allocator<char> > > > >
PUBLIC	??0?$list@V?$basic_string@DU?$char_traits@D@std@@V?$allocator@D@2@@std@@V?$allocator@V?$basic_string@DU?$char_traits@D@std@@V?$allocator@D@2@@std@@@2@@std@@QAE@XZ ; std::list<std::basic_string<char,std::char_traits<char>,std::allocator<char> >,std::allocator<std::basic_string<char,std::char_traits<char>,std::allocator<char> > > >::list<std::basic_string<char,std::char_traits<char>,std::allocator<char> >,std::allocator<std::basic_string<char,std::char_traits<char>,std::allocator<char> > > >
PUBLIC	??1?$list@V?$basic_string@DU?$char_traits@D@std@@V?$allocator@D@2@@std@@V?$allocator@V?$basic_string@DU?$char_traits@D@std@@V?$allocator@D@2@@std@@@2@@std@@QAE@XZ ; std::list<std::basic_string<char,std::char_traits<char>,std::allocator<char> >,std::allocator<std::basic_string<char,std::char_traits<char>,std::allocator<char> > > >::~list<std::basic_string<char,std::char_traits<char>,std::allocator<char> >,std::allocator<std::basic_string<char,std::char_traits<char>,std::allocator<char> > > >
PUBLIC	?begin@?$list@V?$basic_string@DU?$char_traits@D@std@@V?$allocator@D@2@@std@@V?$allocator@V?$basic_string@DU?$char_traits@D@std@@V?$allocator@D@2@@std@@@2@@std@@QAE?AV?$_List_iterator@V?$_List_val@U?$_List_simple_types@V?$basic_string@DU?$char_traits@D@std@@V?$allocator@D@2@@std@@@std@@@std@@@2@XZ ; std::list<std::basic_string<char,std::char_traits<char>,std::allocator<char> >,std::allocator<std::basic_string<char,std::char_traits<char>,std::allocator<char> > > >::begin
PUBLIC	?end@?$list@V?$basic_string@DU?$char_traits@D@std@@V?$allocator@D@2@@std@@V?$allocator@V?$basic_string@DU?$char_traits@D@std@@V?$allocator@D@2@@std@@@2@@std@@QAE?AV?$_List_iterator@V?$_List_val@U?$_List_simple_types@V?$basic_string@DU?$char_traits@D@std@@V?$allocator@D@2@@std@@@std@@@std@@@2@XZ ; std::list<std::basic_string<char,std::char_traits<char>,std::allocator<char> >,std::allocator<std::basic_string<char,std::char_traits<char>,std::allocator<char> > > >::end
PUBLIC	?push_back@?$list@V?$basic_string@DU?$char_traits@D@std@@V?$allocator@D@2@@std@@V?$allocator@V?$basic_string@DU?$char_traits@D@std@@V?$allocator@D@2@@std@@@2@@std@@QAEXABV?$basic_string@DU?$char_traits@D@std@@V?$allocator@D@2@@2@@Z ; std::list<std::basic_string<char,std::char_traits<char>,std::allocator<char> >,std::allocator<std::basic_string<char,std::char_traits<char>,std::allocator<char> > > >::push_back
PUBLIC	?clear@?$list@V?$basic_string@DU?$char_traits@D@std@@V?$allocator@D@2@@std@@V?$allocator@V?$basic_string@DU?$char_traits@D@std@@V?$allocator@D@2@@std@@@2@@std@@QAEXXZ ; std::list<std::basic_string<char,std::char_traits<char>,std::allocator<char> >,std::allocator<std::basic_string<char,std::char_traits<char>,std::allocator<char> > > >::clear
PUBLIC	??D?$_List_iterator@V?$_List_val@U?$_List_simple_types@V?$basic_string@DU?$char_traits@D@std@@V?$allocator@D@2@@std@@@std@@@std@@@std@@QBEAAV?$basic_string@DU?$char_traits@D@std@@V?$allocator@D@2@@1@XZ ; std::_List_iterator<std::_List_val<std::_List_simple_types<std::basic_string<char,std::char_traits<char>,std::allocator<char> > > > >::operator*
PUBLIC	??E?$_List_iterator@V?$_List_val@U?$_List_simple_types@V?$basic_string@DU?$char_traits@D@std@@V?$allocator@D@2@@std@@@std@@@std@@@std@@QAEAAV01@XZ ; std::_List_iterator<std::_List_val<std::_List_simple_types<std::basic_string<char,std::char_traits<char>,std::allocator<char> > > > >::operator++
PUBLIC	??8?$_List_const_iterator@V?$_List_val@U?$_List_simple_types@V?$basic_string@DU?$char_traits@D@std@@V?$allocator@D@2@@std@@@std@@@std@@@std@@QBE_NABV01@@Z ; std::_List_const_iterator<std::_List_val<std::_List_simple_types<std::basic_string<char,std::char_traits<char>,std::allocator<char> > > > >::operator==
PUBLIC	??0?$_List_unchecked_const_iterator@V?$_List_val@U?$_List_simple_types@V?$basic_string@DU?$char_traits@D@std@@V?$allocator@D@2@@std@@@std@@@std@@U_Iterator_base0@2@@std@@QAE@XZ ; std::_List_unchecked_const_iterator<std::_List_val<std::_List_simple_types<std::basic_string<char,std::char_traits<char>,std::allocator<char> > > >,std::_Iterator_base0>::_List_unchecked_const_iterator<std::_List_val<std::_List_simple_types<std::basic_string<char,std::char_traits<char>,std::allocator<char> > > >,std::_Iterator_base0>
PUBLIC	?IsInsultIn@CInsultChecker@@QAE_NPBDI@Z		; CInsultChecker::IsInsultIn
PUBLIC	?FilterInsult@CInsultChecker@@QAEXPADI@Z	; CInsultChecker::FilterInsult
PUBLIC	?__IsInsult@CInsultChecker@@AAE_NPBD@Z		; CInsultChecker::__IsInsult
PUBLIC	??0?$_List_const_iterator@V?$_List_val@U?$_List_simple_types@V?$basic_string@DU?$char_traits@D@std@@V?$allocator@D@2@@std@@@std@@@std@@@std@@QAE@XZ ; std::_List_const_iterator<std::_List_val<std::_List_simple_types<std::basic_string<char,std::char_traits<char>,std::allocator<char> > > > >::_List_const_iterator<std::_List_val<std::_List_simple_types<std::basic_string<char,std::char_traits<char>,std::allocator<char> > > > >
PUBLIC	??0?$_List_iterator@V?$_List_val@U?$_List_simple_types@V?$basic_string@DU?$char_traits@D@std@@V?$allocator@D@2@@std@@@std@@@std@@@std@@QAE@XZ ; std::_List_iterator<std::_List_val<std::_List_simple_types<std::basic_string<char,std::char_traits<char>,std::allocator<char> > > > >::_List_iterator<std::_List_val<std::_List_simple_types<std::basic_string<char,std::char_traits<char>,std::allocator<char> > > > >
PUBLIC	?__GetInsultLength@CInsultChecker@@AAE_NPBDPAI@Z ; CInsultChecker::__GetInsultLength
PUBLIC	?AppendInsult@CInsultChecker@@QAEXABV?$basic_string@DU?$char_traits@D@std@@V?$allocator@D@2@@std@@@Z ; CInsultChecker::AppendInsult
PUBLIC	?Clear@CInsultChecker@@QAEXXZ			; CInsultChecker::Clear
PUBLIC	??1CInsultChecker@@UAE@XZ			; CInsultChecker::~CInsultChecker
PUBLIC	??_GCInsultChecker@@UAEPAXI@Z			; CInsultChecker::`scalar deleting destructor'
PUBLIC	??0CInsultChecker@@QAE@XZ			; CInsultChecker::CInsultChecker
EXTRN	??_ECInsultChecker@@UAEPAXI@Z:PROC		; CInsultChecker::`vector deleting destructor'
;	COMDAT ?s_kInsultChecker@?1??GetSingleton@CInsultChecker@@QAEAAV2@XZ@4V2@A
_BSS	SEGMENT
?s_kInsultChecker@?1??GetSingleton@CInsultChecker@@QAEAAV2@XZ@4V2@A DB 0cH DUP (?) ; `CInsultChecker::GetSingleton'::`2'::s_kInsultChecker
_BSS	ENDS
;	COMDAT xdata$x
xdata$x	SEGMENT
__ehfuncinfo$?AppendInsult@CInsultChecker@@QAEXABV?$basic_string@DU?$char_traits@D@std@@V?$allocator@D@2@@std@@@Z DD 019930522H
	DD	01H
	DD	FLAT:__unwindtable$?AppendInsult@CInsultChecker@@QAEXABV?$basic_string@DU?$char_traits@D@std@@V?$allocator@D@2@@std@@@Z
	DD	2 DUP(00H)
	DD	2 DUP(00H)
	DD	00H
	DD	01H
__unwindtable$?AppendInsult@CInsultChecker@@QAEXABV?$basic_string@DU?$char_traits@D@std@@V?$allocator@D@2@@std@@@Z DD 0ffffffffH
	DD	FLAT:__unwindfunclet$?AppendInsult@CInsultChecker@@QAEXABV?$basic_string@DU?$char_traits@D@std@@V?$allocator@D@2@@std@@@Z$1
xdata$x	ENDS
;	COMDAT xdata$x
xdata$x	SEGMENT
__ehfuncinfo$?push_back@?$list@V?$basic_string@DU?$char_traits@D@std@@V?$allocator@D@2@@std@@V?$allocator@V?$basic_string@DU?$char_traits@D@std@@V?$allocator@D@2@@std@@@2@@std@@QAEXABV?$basic_string@DU?$char_traits@D@std@@V?$allocator@D@2@@2@@Z DD 019930522H
	DD	01H
	DD	FLAT:__unwindtable$?push_back@?$list@V?$basic_string@DU?$char_traits@D@std@@V?$allocator@D@2@@std@@V?$allocator@V?$basic_string@DU?$char_traits@D@std@@V?$allocator@D@2@@std@@@2@@std@@QAEXABV?$basic_string@DU?$char_traits@D@std@@V?$allocator@D@2@@2@@Z
	DD	2 DUP(00H)
	DD	2 DUP(00H)
	DD	00H
	DD	01H
__unwindtable$?push_back@?$list@V?$basic_string@DU?$char_traits@D@std@@V?$allocator@D@2@@std@@V?$allocator@V?$basic_string@DU?$char_traits@D@std@@V?$allocator@D@2@@std@@@2@@std@@QAEXABV?$basic_string@DU?$char_traits@D@std@@V?$allocator@D@2@@2@@Z DD 0ffffffffH
	DD	FLAT:__unwindfunclet$?push_back@?$list@V?$basic_string@DU?$char_traits@D@std@@V?$allocator@D@2@@std@@V?$allocator@V?$basic_string@DU?$char_traits@D@std@@V?$allocator@D@2@@std@@@2@@std@@QAEXABV?$basic_string@DU?$char_traits@D@std@@V?$allocator@D@2@@2@@Z$1
xdata$x	ENDS
;	COMDAT xdata$x
xdata$x	SEGMENT
__ehfuncinfo$??$_Emplace@ABV?$basic_string@DU?$char_traits@D@std@@V?$allocator@D@2@@std@@@?$list@V?$basic_string@DU?$char_traits@D@std@@V?$allocator@D@2@@std@@V?$allocator@V?$basic_string@DU?$char_traits@D@std@@V?$allocator@D@2@@std@@@2@@std@@QAEPAU?$_List_node@V?$basic_string@DU?$char_traits@D@std@@V?$allocator@D@2@@std@@PAX@1@QAU21@ABV?$basic_string@DU?$char_traits@D@std@@V?$allocator@D@2@@1@@Z DD 019930522H
	DD	01H
	DD	FLAT:__unwindtable$??$_Emplace@ABV?$basic_string@DU?$char_traits@D@std@@V?$allocator@D@2@@std@@@?$list@V?$basic_string@DU?$char_traits@D@std@@V?$allocator@D@2@@std@@V?$allocator@V?$basic_string@DU?$char_traits@D@std@@V?$allocator@D@2@@std@@@2@@std@@QAEPAU?$_List_node@V?$basic_string@DU?$char_traits@D@std@@V?$allocator@D@2@@std@@PAX@1@QAU21@ABV?$basic_string@DU?$char_traits@D@std@@V?$allocator@D@2@@1@@Z
	DD	2 DUP(00H)
	DD	2 DUP(00H)
	DD	00H
	DD	01H
__unwindtable$??$_Emplace@ABV?$basic_string@DU?$char_traits@D@std@@V?$allocator@D@2@@std@@@?$list@V?$basic_string@DU?$char_traits@D@std@@V?$allocator@D@2@@std@@V?$allocator@V?$basic_string@DU?$char_traits@D@std@@V?$allocator@D@2@@std@@@2@@std@@QAEPAU?$_List_node@V?$basic_string@DU?$char_traits@D@std@@V?$allocator@D@2@@std@@PAX@1@QAU21@ABV?$basic_string@DU?$char_traits@D@std@@V?$allocator@D@2@@1@@Z DD 0ffffffffH
	DD	FLAT:__unwindfunclet$??$_Emplace@ABV?$basic_string@DU?$char_traits@D@std@@V?$allocator@D@2@@std@@@?$list@V?$basic_string@DU?$char_traits@D@std@@V?$allocator@D@2@@std@@V?$allocator@V?$basic_string@DU?$char_traits@D@std@@V?$allocator@D@2@@std@@@2@@std@@QAEPAU?$_List_node@V?$basic_string@DU?$char_traits@D@std@@V?$allocator@D@2@@std@@PAX@1@QAU21@ABV?$basic_string@DU?$char_traits@D@std@@V?$allocator@D@2@@1@@Z$1
xdata$x	ENDS
;	COMDAT xdata$x
xdata$x	SEGMENT
__ehfuncinfo$??$?0ABV?$basic_string@DU?$char_traits@D@std@@V?$allocator@D@2@@std@@@?$_List_node_emplace_op2@V?$allocator@U?$_List_node@V?$basic_string@DU?$char_traits@D@std@@V?$allocator@D@2@@std@@PAX@std@@@std@@@std@@QAE@AAV?$allocator@U?$_List_node@V?$basic_string@DU?$char_traits@D@std@@V?$allocator@D@2@@std@@PAX@std@@@1@ABV?$basic_string@DU?$char_traits@D@std@@V?$allocator@D@2@@1@@Z DD 019930522H
	DD	01H
	DD	FLAT:__unwindtable$??$?0ABV?$basic_string@DU?$char_traits@D@std@@V?$allocator@D@2@@std@@@?$_List_node_emplace_op2@V?$allocator@U?$_List_node@V?$basic_string@DU?$char_traits@D@std@@V?$allocator@D@2@@std@@PAX@std@@@std@@@std@@QAE@AAV?$allocator@U?$_List_node@V?$basic_string@DU?$char_traits@D@std@@V?$allocator@D@2@@std@@PAX@std@@@1@ABV?$basic_string@DU?$char_traits@D@std@@V?$allocator@D@2@@1@@Z
	DD	2 DUP(00H)
	DD	2 DUP(00H)
	DD	00H
	DD	01H
__unwindtable$??$?0ABV?$basic_string@DU?$char_traits@D@std@@V?$allocator@D@2@@std@@@?$_List_node_emplace_op2@V?$allocator@U?$_List_node@V?$basic_string@DU?$char_traits@D@std@@V?$allocator@D@2@@std@@PAX@std@@@std@@@std@@QAE@AAV?$allocator@U?$_List_node@V?$basic_string@DU?$char_traits@D@std@@V?$allocator@D@2@@std@@PAX@std@@@1@ABV?$basic_string@DU?$char_traits@D@std@@V?$allocator@D@2@@1@@Z DD 0ffffffffH
	DD	FLAT:__unwindfunclet$??$?0ABV?$basic_string@DU?$char_traits@D@std@@V?$allocator@D@2@@std@@@?$_List_node_emplace_op2@V?$allocator@U?$_List_node@V?$basic_string@DU?$char_traits@D@std@@V?$allocator@D@2@@std@@PAX@std@@@std@@@std@@QAE@AAV?$allocator@U?$_List_node@V?$basic_string@DU?$char_traits@D@std@@V?$allocator@D@2@@std@@PAX@std@@@1@ABV?$basic_string@DU?$char_traits@D@std@@V?$allocator@D@2@@1@@Z$0
; Function compile flags: /Ogtp
;	COMDAT ??__Fs_kInsultChecker@?1??GetSingleton@CInsultChecker@@QAEAAV1@XZ@YAXXZ
text$yd	SEGMENT
??__Fs_kInsultChecker@?1??GetSingleton@CInsultChecker@@QAEAAV1@XZ@YAXXZ PROC ; `CInsultChecker::GetSingleton'::`2'::`dynamic atexit destructor for 's_kInsultChecker'', COMDAT
  00000	b9 00 00 00 00	 mov	 ecx, OFFSET ?s_kInsultChecker@?1??GetSingleton@CInsultChecker@@QAEAAV2@XZ@4V2@A
  00005	e9 00 00 00 00	 jmp	 ??1CInsultChecker@@UAE@XZ ; CInsultChecker::~CInsultChecker
??__Fs_kInsultChecker@?1??GetSingleton@CInsultChecker@@QAEAAV1@XZ@YAXXZ ENDP ; `CInsultChecker::GetSingleton'::`2'::`dynamic atexit destructor for 's_kInsultChecker''
text$yd	ENDS
; Function compile flags: /Ogtp
; File D:\_m2work\Server Client TMP4\ClientVS22\source\UserInterface\InsultChecker.cpp
; File C:\Program Files\Microsoft Visual Studio\2022\Community\VC\Tools\MSVC\14.44.35207\include\list
; File D:\_m2work\Server Client TMP4\ClientVS22\source\UserInterface\InsultChecker.cpp
; File C:\Program Files\Microsoft Visual Studio\2022\Community\VC\Tools\MSVC\14.44.35207\include\list
; File D:\_m2work\Server Client TMP4\ClientVS22\source\UserInterface\InsultChecker.cpp
;	COMDAT ??0CInsultChecker@@QAE@XZ
_TEXT	SEGMENT
_this$ = -4						; size = 4
??0CInsultChecker@@QAE@XZ PROC				; CInsultChecker::CInsultChecker, COMDAT
; _this$ = ecx

; 11   : {

  00000	55		 push	 ebp
  00001	8b ec		 mov	 ebp, esp
  00003	51		 push	 ecx
  00004	56		 push	 esi
  00005	8b f1		 mov	 esi, ecx
; File C:\Program Files\Microsoft Visual Studio\2022\Community\VC\Tools\MSVC\14.44.35207\include\list

; 1851 :         auto _Newhead = _Al.allocate(1);

  00007	6a 20		 push	 32			; 00000020H
; File D:\_m2work\Server Client TMP4\ClientVS22\source\UserInterface\InsultChecker.cpp

; 11   : {

  00009	89 75 fc	 mov	 DWORD PTR _this$[ebp], esi
  0000c	c7 06 00 00 00
	00		 mov	 DWORD PTR [esi], OFFSET ??_7CInsultChecker@@6B@
; File C:\Program Files\Microsoft Visual Studio\2022\Community\VC\Tools\MSVC\14.44.35207\include\list

; 353  :     _List_val() noexcept : _Myhead(), _Mysize(0) {} // initialize data

  00012	c7 46 04 00 00
	00 00		 mov	 DWORD PTR [esi+4], 0
  00019	c7 46 08 00 00
	00 00		 mov	 DWORD PTR [esi+8], 0

; 1851 :         auto _Newhead = _Al.allocate(1);

  00020	e8 00 00 00 00	 call	 ??2@YAPAXI@Z		; operator new
  00025	83 c4 04	 add	 esp, 4

; 1852 :         _Construct_in_place(_Newhead->_Next, _Newhead);

  00028	89 00		 mov	 DWORD PTR [eax], eax

; 1853 :         _Construct_in_place(_Newhead->_Prev, _Newhead);

  0002a	89 40 04	 mov	 DWORD PTR [eax+4], eax

; 1854 :         _Mypair._Myval2._Myhead = _Newhead;

  0002d	89 46 04	 mov	 DWORD PTR [esi+4], eax
; File D:\_m2work\Server Client TMP4\ClientVS22\source\UserInterface\InsultChecker.cpp

; 12   : }

  00030	8b c6		 mov	 eax, esi
  00032	5e		 pop	 esi
  00033	8b e5		 mov	 esp, ebp
  00035	5d		 pop	 ebp
  00036	c3		 ret	 0
??0CInsultChecker@@QAE@XZ ENDP				; CInsultChecker::CInsultChecker
_TEXT	ENDS
; Function compile flags: /Ogtp
;	COMDAT ??_GCInsultChecker@@UAEPAXI@Z
_TEXT	SEGMENT
___flags$ = 8						; size = 4
??_GCInsultChecker@@UAEPAXI@Z PROC			; CInsultChecker::`scalar deleting destructor', COMDAT
; _this$ = ecx
  00000	55		 push	 ebp
  00001	8b ec		 mov	 ebp, esp
  00003	56		 push	 esi
  00004	8b f1		 mov	 esi, ecx
  00006	e8 00 00 00 00	 call	 ??1CInsultChecker@@UAE@XZ ; CInsultChecker::~CInsultChecker
  0000b	f6 45 08 01	 test	 BYTE PTR ___flags$[ebp], 1
  0000f	74 0b		 je	 SHORT $LN5@scalar
  00011	6a 0c		 push	 12			; 0000000cH
  00013	56		 push	 esi
  00014	e8 00 00 00 00	 call	 ??3@YAXPAXI@Z		; operator delete
  00019	83 c4 08	 add	 esp, 8
$LN5@scalar:
  0001c	8b c6		 mov	 eax, esi
  0001e	5e		 pop	 esi
  0001f	5d		 pop	 ebp
  00020	c2 04 00	 ret	 4
??_GCInsultChecker@@UAEPAXI@Z ENDP			; CInsultChecker::`scalar deleting destructor'
_TEXT	ENDS
; Function compile flags: /Ogtp
; File D:\_m2work\Server Client TMP4\ClientVS22\source\UserInterface\InsultChecker.cpp
;	COMDAT ??1CInsultChecker@@UAE@XZ
_TEXT	SEGMENT
??1CInsultChecker@@UAE@XZ PROC				; CInsultChecker::~CInsultChecker, COMDAT
; _this$ = ecx

; 15   : {

  00000	c7 01 00 00 00
	00		 mov	 DWORD PTR [ecx], OFFSET ??_7CInsultChecker@@6B@

; 16   : }

  00006	83 c1 04	 add	 ecx, 4
  00009	e9 00 00 00 00	 jmp	 ??1?$list@V?$basic_string@DU?$char_traits@D@std@@V?$allocator@D@2@@std@@V?$allocator@V?$basic_string@DU?$char_traits@D@std@@V?$allocator@D@2@@std@@@2@@std@@QAE@XZ ; std::list<std::basic_string<char,std::char_traits<char>,std::allocator<char> >,std::allocator<std::basic_string<char,std::char_traits<char>,std::allocator<char> > > >::~list<std::basic_string<char,std::char_traits<char>,std::allocator<char> >,std::allocator<std::basic_string<char,std::char_traits<char>,std::allocator<char> > > >
??1CInsultChecker@@UAE@XZ ENDP				; CInsultChecker::~CInsultChecker
_TEXT	ENDS
; Function compile flags: /Ogtp
; File D:\_m2work\Server Client TMP4\ClientVS22\source\UserInterface\InsultChecker.cpp
; File C:\Program Files\Microsoft Visual Studio\2022\Community\VC\Tools\MSVC\14.44.35207\include\list
; File C:\Program Files\Microsoft Visual Studio\2022\Community\VC\Tools\MSVC\14.44.35207\include\xstring
; File C:\Program Files\Microsoft Visual Studio\2022\Community\VC\Tools\MSVC\14.44.35207\include\xmemory
; File C:\Program Files\Microsoft Visual Studio\2022\Community\VC\Tools\MSVC\14.44.35207\include\list
; File D:\_m2work\Server Client TMP4\ClientVS22\source\UserInterface\InsultChecker.cpp
;	COMDAT ?Clear@CInsultChecker@@QAEXXZ
_TEXT	SEGMENT
?Clear@CInsultChecker@@QAEXXZ PROC			; CInsultChecker::Clear, COMDAT
; _this$ = ecx

; 19   : {

  00000	53		 push	 ebx
  00001	8b d9		 mov	 ebx, ecx
  00003	57		 push	 edi
; File C:\Program Files\Microsoft Visual Studio\2022\Community\VC\Tools\MSVC\14.44.35207\include\list

; 1507 :         _Node::_Free_non_head(_Getal(), _My_data._Myhead);

  00004	8b 53 04	 mov	 edx, DWORD PTR [ebx+4]

; 324  :         _Head->_Prev->_Next = nullptr;

  00007	8b 42 04	 mov	 eax, DWORD PTR [edx+4]
  0000a	c7 00 00 00 00
	00		 mov	 DWORD PTR [eax], 0

; 325  : 
; 326  :         auto _Pnode = _Head->_Next;

  00010	8b 3a		 mov	 edi, DWORD PTR [edx]

; 327  :         for (_Nodeptr _Pnext; _Pnode; _Pnode = _Pnext) {

  00012	85 ff		 test	 edi, edi
  00014	74 26		 je	 SHORT $LN71@Clear
  00016	56		 push	 esi
  00017	66 0f 1f 84 00
	00 00 00 00	 npad	 9
$LL9@Clear:

; 328  :             _Pnext = _Pnode->_Next;

  00020	8b 37		 mov	 esi, DWORD PTR [edi]

; 317  :         allocator_traits<_Alnode>::destroy(_Al, _STD addressof(_Ptr->_Myval));

  00022	8d 4f 08	 lea	 ecx, DWORD PTR [edi+8]
; File C:\Program Files\Microsoft Visual Studio\2022\Community\VC\Tools\MSVC\14.44.35207\include\xstring

; 1383 :         _Tidy_deallocate();

  00025	e8 00 00 00 00	 call	 ?_Tidy_deallocate@?$basic_string@DU?$char_traits@D@std@@V?$allocator@D@2@@std@@AAEXXZ ; std::basic_string<char,std::char_traits<char>,std::allocator<char> >::_Tidy_deallocate
; File C:\Program Files\Microsoft Visual Studio\2022\Community\VC\Tools\MSVC\14.44.35207\include\xmemory

; 289  :         ::operator delete(_Ptr, _Bytes);

  0002a	6a 20		 push	 32			; 00000020H
  0002c	57		 push	 edi
  0002d	e8 00 00 00 00	 call	 ??3@YAXPAXI@Z		; operator delete
  00032	83 c4 08	 add	 esp, 8
; File C:\Program Files\Microsoft Visual Studio\2022\Community\VC\Tools\MSVC\14.44.35207\include\list

; 327  :         for (_Nodeptr _Pnext; _Pnode; _Pnode = _Pnext) {

  00035	8b fe		 mov	 edi, esi
  00037	85 f6		 test	 esi, esi
  00039	75 e5		 jne	 SHORT $LL9@Clear
  0003b	5e		 pop	 esi
$LN71@Clear:

; 1508 :         _My_data._Myhead->_Next = _My_data._Myhead;

  0003c	8b 43 04	 mov	 eax, DWORD PTR [ebx+4]

; 1509 :         _My_data._Myhead->_Prev = _My_data._Myhead;
; 1510 :         _My_data._Mysize        = 0;

  0003f	5f		 pop	 edi
  00040	89 00		 mov	 DWORD PTR [eax], eax
  00042	8b 43 04	 mov	 eax, DWORD PTR [ebx+4]
  00045	89 40 04	 mov	 DWORD PTR [eax+4], eax
  00048	c7 43 08 00 00
	00 00		 mov	 DWORD PTR [ebx+8], 0
  0004f	5b		 pop	 ebx
; File D:\_m2work\Server Client TMP4\ClientVS22\source\UserInterface\InsultChecker.cpp

; 21   : }

  00050	c3		 ret	 0
?Clear@CInsultChecker@@QAEXXZ ENDP			; CInsultChecker::Clear
_TEXT	ENDS
; Function compile flags: /Ogtp
; File D:\_m2work\Server Client TMP4\ClientVS22\source\UserInterface\InsultChecker.cpp
; File C:\Program Files\Microsoft Visual Studio\2022\Community\VC\Tools\MSVC\14.44.35207\include\list
; File D:\_m2work\Server Client TMP4\ClientVS22\source\UserInterface\InsultChecker.cpp
; File C:\Program Files\Microsoft Visual Studio\2022\Community\VC\Tools\MSVC\14.44.35207\include\list
; File C:\Program Files\Microsoft Visual Studio\2022\Community\VC\Tools\MSVC\14.44.35207\include\xmemory
; File C:\Program Files\Microsoft Visual Studio\2022\Community\VC\Tools\MSVC\14.44.35207\include\list
; File C:\Program Files\Microsoft Visual Studio\2022\Community\VC\Tools\MSVC\14.44.35207\include\xmemory
; File C:\Program Files\Microsoft Visual Studio\2022\Community\VC\Tools\MSVC\14.44.35207\include\xutility
; File C:\Program Files\Microsoft Visual Studio\2022\Community\VC\Tools\MSVC\14.44.35207\include\list
; File D:\_m2work\Server Client TMP4\ClientVS22\source\UserInterface\InsultChecker.cpp
; File C:\Program Files\Microsoft Visual Studio\2022\Community\VC\Tools\MSVC\14.44.35207\include\list
; File D:\_m2work\Server Client TMP4\ClientVS22\source\UserInterface\InsultChecker.cpp
;	COMDAT ?AppendInsult@CInsultChecker@@QAEXABV?$basic_string@DU?$char_traits@D@std@@V?$allocator@D@2@@std@@@Z
_TEXT	SEGMENT
__Op$2 = -20						; size = 8
__$EHRec$ = -12						; size = 12
_c_rstInsult$ = 8					; size = 4
__Where$1$ = 8						; size = 4
?AppendInsult@CInsultChecker@@QAEXABV?$basic_string@DU?$char_traits@D@std@@V?$allocator@D@2@@std@@@Z PROC ; CInsultChecker::AppendInsult, COMDAT
; _this$ = ecx

; 24   : {

  00000	55		 push	 ebp
  00001	8b ec		 mov	 ebp, esp
  00003	6a ff		 push	 -1
  00005	68 00 00 00 00	 push	 __ehhandler$?AppendInsult@CInsultChecker@@QAEXABV?$basic_string@DU?$char_traits@D@std@@V?$allocator@D@2@@std@@@Z
  0000a	64 a1 00 00 00
	00		 mov	 eax, DWORD PTR fs:0
  00010	50		 push	 eax
  00011	83 ec 08	 sub	 esp, 8
  00014	53		 push	 ebx
  00015	56		 push	 esi
  00016	57		 push	 edi
  00017	a1 00 00 00 00	 mov	 eax, DWORD PTR ___security_cookie
  0001c	33 c5		 xor	 eax, ebp
  0001e	50		 push	 eax
  0001f	8d 45 f4	 lea	 eax, DWORD PTR __$EHRec$[ebp]
  00022	64 a3 00 00 00
	00		 mov	 DWORD PTR fs:0, eax

; 25   : 	if (c_rstInsult.length()>0)

  00028	8b 5d 08	 mov	 ebx, DWORD PTR _c_rstInsult$[ebp]
  0002b	83 7b 10 00	 cmp	 DWORD PTR [ebx+16], 0
  0002f	76 4d		 jbe	 SHORT $LN62@AppendInsu
; File C:\Program Files\Microsoft Visual Studio\2022\Community\VC\Tools\MSVC\14.44.35207\include\list

; 1030 :         if (_Mysize == max_size()) {

  00031	81 79 08 ff ff
	ff 07		 cmp	 DWORD PTR [ecx+8], 134217727 ; 07ffffffH
; File D:\_m2work\Server Client TMP4\ClientVS22\source\UserInterface\InsultChecker.cpp

; 26   : 		m_kList_stInsult.push_back(c_rstInsult);

  00038	8d 79 04	 lea	 edi, DWORD PTR [ecx+4]
; File C:\Program Files\Microsoft Visual Studio\2022\Community\VC\Tools\MSVC\14.44.35207\include\list

; 1274 :         _Emplace(_Mypair._Myval2._Myhead, _Val);

  0003b	8b 07		 mov	 eax, DWORD PTR [edi]
  0003d	89 45 08	 mov	 DWORD PTR __Where$1$[ebp], eax

; 1030 :         if (_Mysize == max_size()) {

  00040	74 50		 je	 SHORT $LN81@AppendInsu
; File C:\Program Files\Microsoft Visual Studio\2022\Community\VC\Tools\MSVC\14.44.35207\include\xmemory

; 1160 :     _CONSTEXPR20 explicit _Alloc_construct_ptr(_Alloc& _Al_) : _Al(_Al_), _Ptr(nullptr) {}

  00042	89 7d ec	 mov	 DWORD PTR __Op$2[ebp], edi
; File C:\Program Files\Microsoft Visual Studio\2022\Community\VC\Tools\MSVC\14.44.35207\include\list

; 593  :     explicit _List_node_emplace_op2(_Alnode& _Al_, _Valtys&&... _Vals) : _Alloc_construct_ptr<_Alnode>(_Al_) {

  00045	c7 45 fc 00 00
	00 00		 mov	 DWORD PTR __$EHRec$[ebp+8], 0
; File C:\Program Files\Microsoft Visual Studio\2022\Community\VC\Tools\MSVC\14.44.35207\include\xmemory

; 1168 :         _Ptr = _Al.allocate(1);

  0004c	6a 20		 push	 32			; 00000020H
  0004e	c7 45 f0 00 00
	00 00		 mov	 DWORD PTR __Op$2[ebp+4], 0
  00055	e8 00 00 00 00	 call	 ??2@YAPAXI@Z		; operator new
  0005a	8b f0		 mov	 esi, eax
  0005c	83 c4 04	 add	 esp, 4
  0005f	89 75 f0	 mov	 DWORD PTR __Op$2[ebp+4], esi
; File C:\Program Files\Microsoft Visual Studio\2022\Community\VC\Tools\MSVC\14.44.35207\include\xutility

; 463  :     _MSVC_CONSTEXPR return ::new (static_cast<void*>(_Location)) _Ty(_STD forward<_Types>(_Args)...);

  00062	53		 push	 ebx
  00063	8d 4e 08	 lea	 ecx, DWORD PTR [esi+8]
  00066	e8 00 00 00 00	 call	 ??0?$basic_string@DU?$char_traits@D@std@@V?$allocator@D@2@@std@@QAE@ABV01@@Z ; std::basic_string<char,std::char_traits<char>,std::allocator<char> >::basic_string<char,std::char_traits<char>,std::allocator<char> >
; File C:\Program Files\Microsoft Visual Studio\2022\Community\VC\Tools\MSVC\14.44.35207\include\list

; 608  :         const pointer _Insert_after = _Insert_before->_Prev;

  0006b	8b 45 08	 mov	 eax, DWORD PTR __Where$1$[ebp]

; 1035 :         ++_Mysize;

  0006e	ff 47 04	 inc	 DWORD PTR [edi+4]

; 608  :         const pointer _Insert_after = _Insert_before->_Prev;

  00071	8b 48 04	 mov	 ecx, DWORD PTR [eax+4]

; 609  :         _Construct_in_place(this->_Ptr->_Next, _Insert_before);

  00074	89 06		 mov	 DWORD PTR [esi], eax

; 610  :         _Construct_in_place(this->_Ptr->_Prev, _Insert_after);

  00076	89 4e 04	 mov	 DWORD PTR [esi+4], ecx

; 611  :         const auto _Result    = this->_Ptr;
; 612  :         this->_Ptr            = pointer{};
; 613  :         _Insert_before->_Prev = _Result;

  00079	89 70 04	 mov	 DWORD PTR [eax+4], esi

; 614  :         _Insert_after->_Next  = _Result;

  0007c	89 31		 mov	 DWORD PTR [ecx], esi
$LN62@AppendInsu:
; File D:\_m2work\Server Client TMP4\ClientVS22\source\UserInterface\InsultChecker.cpp

; 27   : }

  0007e	8b 4d f4	 mov	 ecx, DWORD PTR __$EHRec$[ebp]
  00081	64 89 0d 00 00
	00 00		 mov	 DWORD PTR fs:0, ecx
  00088	59		 pop	 ecx
  00089	5f		 pop	 edi
  0008a	5e		 pop	 esi
  0008b	5b		 pop	 ebx
  0008c	8b e5		 mov	 esp, ebp
  0008e	5d		 pop	 ebp
  0008f	c2 04 00	 ret	 4
$LN81@AppendInsu:
; File C:\Program Files\Microsoft Visual Studio\2022\Community\VC\Tools\MSVC\14.44.35207\include\list

; 1031 :             _Xlength_error("list too long");

  00092	68 00 00 00 00	 push	 OFFSET ??_C@_0O@NKNMEGII@list?5too?5long@
  00097	e8 00 00 00 00	 call	 ?_Xlength_error@std@@YAXPBD@Z ; std::_Xlength_error
$LN79@AppendInsu:
  0009c	cc		 int	 3
_TEXT	ENDS
;	COMDAT text$x
text$x	SEGMENT
__unwindfunclet$?AppendInsult@CInsultChecker@@QAEXABV?$basic_string@DU?$char_traits@D@std@@V?$allocator@D@2@@std@@@Z$1:
  00000	8d 4d ec	 lea	 ecx, DWORD PTR __Op$2[ebp]
  00003	e9 00 00 00 00	 jmp	 ??1?$_Alloc_construct_ptr@V?$allocator@U?$_List_node@V?$basic_string@DU?$char_traits@D@std@@V?$allocator@D@2@@std@@PAX@std@@@std@@@std@@QAE@XZ ; std::_Alloc_construct_ptr<std::allocator<std::_List_node<std::basic_string<char,std::char_traits<char>,std::allocator<char> >,void *> > >::~_Alloc_construct_ptr<std::allocator<std::_List_node<std::basic_string<char,std::char_traits<char>,std::allocator<char> >,void *> > >
  00008	cc		 int	 3
  00009	cc		 int	 3
  0000a	cc		 int	 3
  0000b	cc		 int	 3
  0000c	cc		 int	 3
__ehhandler$?AppendInsult@CInsultChecker@@QAEXABV?$basic_string@DU?$char_traits@D@std@@V?$allocator@D@2@@std@@@Z:
  0000d	90		 npad	 1
  0000e	90		 npad	 1
  0000f	8b 54 24 08	 mov	 edx, DWORD PTR [esp+8]
  00013	8d 42 0c	 lea	 eax, DWORD PTR [edx+12]
  00016	8b 4a e8	 mov	 ecx, DWORD PTR [edx-24]
  00019	33 c8		 xor	 ecx, eax
  0001b	e8 00 00 00 00	 call	 @__security_check_cookie@4
  00020	b8 00 00 00 00	 mov	 eax, OFFSET __ehfuncinfo$?AppendInsult@CInsultChecker@@QAEXABV?$basic_string@DU?$char_traits@D@std@@V?$allocator@D@2@@std@@@Z
  00025	e9 00 00 00 00	 jmp	 ___CxxFrameHandler3
text$x	ENDS
?AppendInsult@CInsultChecker@@QAEXABV?$basic_string@DU?$char_traits@D@std@@V?$allocator@D@2@@std@@@Z ENDP ; CInsultChecker::AppendInsult
; Function compile flags: /Ogtp
; File D:\_m2work\Server Client TMP4\ClientVS22\source\UserInterface\InsultChecker.cpp
; File C:\Program Files\Microsoft Visual Studio\2022\Community\VC\Tools\MSVC\14.44.35207\include\list
; File D:\_m2work\Server Client TMP4\ClientVS22\source\UserInterface\InsultChecker.cpp
; File C:\Program Files\Microsoft Visual Studio\2022\Community\VC\Tools\MSVC\14.44.35207\include\xstring
; File C:\Program Files\Microsoft Visual Studio\2022\Community\VC\Tools\MSVC\14.44.35207\include\list
; File D:\_m2work\Server Client TMP4\ClientVS22\source\UserInterface\InsultChecker.cpp
; File C:\Program Files\Microsoft Visual Studio\2022\Community\VC\Tools\MSVC\14.44.35207\include\xstring
; File D:\_m2work\Server Client TMP4\ClientVS22\source\UserInterface\InsultChecker.cpp
; File C:\Program Files\Microsoft Visual Studio\2022\Community\VC\Tools\MSVC\14.44.35207\include\list
; File D:\_m2work\Server Client TMP4\ClientVS22\source\UserInterface\InsultChecker.cpp
;	COMDAT ?__GetInsultLength@CInsultChecker@@AAE_NPBDPAI@Z
_TEXT	SEGMENT
_c_szWord$ = 8						; size = 4
_puInsultLen$ = 12					; size = 4
?__GetInsultLength@CInsultChecker@@AAE_NPBDPAI@Z PROC	; CInsultChecker::__GetInsultLength, COMDAT
; _this$ = ecx

; 30   : {

  00000	55		 push	 ebp
  00001	8b ec		 mov	 ebp, esp
  00003	53		 push	 ebx
  00004	56		 push	 esi
  00005	57		 push	 edi
  00006	8b f9		 mov	 edi, ecx
; File C:\Program Files\Microsoft Visual Studio\2022\Community\VC\Tools\MSVC\14.44.35207\include\list

; 1105 :         return iterator(_Mypair._Myval2._Myhead->_Next, _STD addressof(_Mypair._Myval2));

  00008	8b 47 04	 mov	 eax, DWORD PTR [edi+4]

; 37   :     _List_unchecked_const_iterator(_Nodeptr _Pnode, const _Mylist* _Plist) noexcept : _Ptr(_Pnode) {

  0000b	8b 30		 mov	 esi, DWORD PTR [eax]
  0000d	3b f0		 cmp	 esi, eax
; File D:\_m2work\Server Client TMP4\ClientVS22\source\UserInterface\InsultChecker.cpp

; 32   : 	for (i=m_kList_stInsult.begin(); i!=m_kList_stInsult.end(); ++i)

  0000f	74 26		 je	 SHORT $LN3@GetInsultL
$LL4@GetInsultL:
; File C:\Program Files\Microsoft Visual Studio\2022\Community\VC\Tools\MSVC\14.44.35207\include\xstring

; 453  :         return _Myres > _Small_string_capacity;

  00011	83 7e 1c 0f	 cmp	 DWORD PTR [esi+28], 15	; 0000000fH
; File C:\Program Files\Microsoft Visual Studio\2022\Community\VC\Tools\MSVC\14.44.35207\include\list

; 150  :         return this->_Ptr->_Myval;

  00015	8d 56 08	 lea	 edx, DWORD PTR [esi+8]
; File D:\_m2work\Server Client TMP4\ClientVS22\source\UserInterface\InsultChecker.cpp

; 36   : 		int ret=LocaleService_StringCompareCI(c_szWord, rstInsult.c_str(), rstInsult.length());		

  00018	8d 5a 10	 lea	 ebx, DWORD PTR [edx+16]
; File C:\Program Files\Microsoft Visual Studio\2022\Community\VC\Tools\MSVC\14.44.35207\include\xstring

; 445  :         if (_Large_mode_engaged()) {

  0001b	76 02		 jbe	 SHORT $LN59@GetInsultL

; 446  :             _Result = _Unfancy(_Bx._Ptr);

  0001d	8b 12		 mov	 edx, DWORD PTR [edx]
$LN59@GetInsultL:
; File D:\_m2work\Server Client TMP4\ClientVS22\source\UserInterface\InsultChecker.cpp

; 36   : 		int ret=LocaleService_StringCompareCI(c_szWord, rstInsult.c_str(), rstInsult.length());		

  0001f	ff 33		 push	 DWORD PTR [ebx]
  00021	8b 4d 08	 mov	 ecx, DWORD PTR _c_szWord$[ebp]
  00024	e8 00 00 00 00	 call	 ?LocaleService_StringCompareCI@@YAHPBD0I@Z ; LocaleService_StringCompareCI
  00029	83 c4 04	 add	 esp, 4

; 37   : 		if (0==ret)

  0002c	85 c0		 test	 eax, eax
  0002e	74 10		 je	 SHORT $LN66@GetInsultL
; File C:\Program Files\Microsoft Visual Studio\2022\Community\VC\Tools\MSVC\14.44.35207\include\list

; 164  :         this->_Ptr = this->_Ptr->_Next;

  00030	8b 36		 mov	 esi, DWORD PTR [esi]

; 197  :         return this->_Ptr == _Right._Ptr;

  00032	3b 77 04	 cmp	 esi, DWORD PTR [edi+4]
; File D:\_m2work\Server Client TMP4\ClientVS22\source\UserInterface\InsultChecker.cpp

; 32   : 	for (i=m_kList_stInsult.begin(); i!=m_kList_stInsult.end(); ++i)

  00035	75 da		 jne	 SHORT $LL4@GetInsultL
$LN3@GetInsultL:
  00037	5f		 pop	 edi

; 40   : 			return true;
; 41   : 		}
; 42   : 	}
; 43   : 
; 44   : 	return false;
; 45   : }

  00038	5e		 pop	 esi
  00039	32 c0		 xor	 al, al
  0003b	5b		 pop	 ebx
  0003c	5d		 pop	 ebp
  0003d	c2 08 00	 ret	 8
$LN66@GetInsultL:

; 38   : 		{
; 39   : 			*puInsultLen=rstInsult.length();

  00040	8b 45 0c	 mov	 eax, DWORD PTR _puInsultLen$[ebp]
  00043	8b 0b		 mov	 ecx, DWORD PTR [ebx]
  00045	5f		 pop	 edi

; 40   : 			return true;
; 41   : 		}
; 42   : 	}
; 43   : 
; 44   : 	return false;
; 45   : }

  00046	5e		 pop	 esi
  00047	89 08		 mov	 DWORD PTR [eax], ecx
  00049	b0 01		 mov	 al, 1
  0004b	5b		 pop	 ebx
  0004c	5d		 pop	 ebp
  0004d	c2 08 00	 ret	 8
?__GetInsultLength@CInsultChecker@@AAE_NPBDPAI@Z ENDP	; CInsultChecker::__GetInsultLength
_TEXT	ENDS
; Function compile flags: /Ogtp
; File C:\Program Files\Microsoft Visual Studio\2022\Community\VC\Tools\MSVC\14.44.35207\include\list
;	COMDAT ??0?$_List_iterator@V?$_List_val@U?$_List_simple_types@V?$basic_string@DU?$char_traits@D@std@@V?$allocator@D@2@@std@@@std@@@std@@@std@@QAE@XZ
_TEXT	SEGMENT
??0?$_List_iterator@V?$_List_val@U?$_List_simple_types@V?$basic_string@DU?$char_traits@D@std@@V?$allocator@D@2@@std@@@std@@@std@@@std@@QAE@XZ PROC ; std::_List_iterator<std::_List_val<std::_List_simple_types<std::basic_string<char,std::char_traits<char>,std::allocator<char> > > > >::_List_iterator<std::_List_val<std::_List_simple_types<std::basic_string<char,std::char_traits<char>,std::allocator<char> > > > >, COMDAT
; _this$ = ecx

; 35   :     _List_unchecked_const_iterator() noexcept : _Ptr() {}

  00000	c7 01 00 00 00
	00		 mov	 DWORD PTR [ecx], 0
  00006	8b c1		 mov	 eax, ecx
  00008	c3		 ret	 0
??0?$_List_iterator@V?$_List_val@U?$_List_simple_types@V?$basic_string@DU?$char_traits@D@std@@V?$allocator@D@2@@std@@@std@@@std@@@std@@QAE@XZ ENDP ; std::_List_iterator<std::_List_val<std::_List_simple_types<std::basic_string<char,std::char_traits<char>,std::allocator<char> > > > >::_List_iterator<std::_List_val<std::_List_simple_types<std::basic_string<char,std::char_traits<char>,std::allocator<char> > > > >
_TEXT	ENDS
; Function compile flags: /Ogtp
; File C:\Program Files\Microsoft Visual Studio\2022\Community\VC\Tools\MSVC\14.44.35207\include\list
;	COMDAT ??0?$_List_const_iterator@V?$_List_val@U?$_List_simple_types@V?$basic_string@DU?$char_traits@D@std@@V?$allocator@D@2@@std@@@std@@@std@@@std@@QAE@XZ
_TEXT	SEGMENT
??0?$_List_const_iterator@V?$_List_val@U?$_List_simple_types@V?$basic_string@DU?$char_traits@D@std@@V?$allocator@D@2@@std@@@std@@@std@@@std@@QAE@XZ PROC ; std::_List_const_iterator<std::_List_val<std::_List_simple_types<std::basic_string<char,std::char_traits<char>,std::allocator<char> > > > >::_List_const_iterator<std::_List_val<std::_List_simple_types<std::basic_string<char,std::char_traits<char>,std::allocator<char> > > > >, COMDAT
; _this$ = ecx

; 35   :     _List_unchecked_const_iterator() noexcept : _Ptr() {}

  00000	c7 01 00 00 00
	00		 mov	 DWORD PTR [ecx], 0
  00006	8b c1		 mov	 eax, ecx
  00008	c3		 ret	 0
??0?$_List_const_iterator@V?$_List_val@U?$_List_simple_types@V?$basic_string@DU?$char_traits@D@std@@V?$allocator@D@2@@std@@@std@@@std@@@std@@QAE@XZ ENDP ; std::_List_const_iterator<std::_List_val<std::_List_simple_types<std::basic_string<char,std::char_traits<char>,std::allocator<char> > > > >::_List_const_iterator<std::_List_val<std::_List_simple_types<std::basic_string<char,std::char_traits<char>,std::allocator<char> > > > >
_TEXT	ENDS
; Function compile flags: /Ogtp
; File D:\_m2work\Server Client TMP4\ClientVS22\source\UserInterface\InsultChecker.cpp
;	COMDAT ?__IsInsult@CInsultChecker@@AAE_NPBD@Z
_TEXT	SEGMENT
_uInsultLen$ = -4					; size = 4
_c_szWord$ = 8						; size = 4
?__IsInsult@CInsultChecker@@AAE_NPBD@Z PROC		; CInsultChecker::__IsInsult, COMDAT
; _this$ = ecx

; 48   : {

  00000	55		 push	 ebp
  00001	8b ec		 mov	 ebp, esp
  00003	51		 push	 ecx

; 49   : 	UINT uInsultLen;
; 50   : 	return __GetInsultLength(c_szWord, &uInsultLen);

  00004	8d 45 fc	 lea	 eax, DWORD PTR _uInsultLen$[ebp]
  00007	50		 push	 eax
  00008	ff 75 08	 push	 DWORD PTR _c_szWord$[ebp]
  0000b	e8 00 00 00 00	 call	 ?__GetInsultLength@CInsultChecker@@AAE_NPBDPAI@Z ; CInsultChecker::__GetInsultLength

; 51   : }

  00010	8b e5		 mov	 esp, ebp
  00012	5d		 pop	 ebp
  00013	c2 04 00	 ret	 4
?__IsInsult@CInsultChecker@@AAE_NPBD@Z ENDP		; CInsultChecker::__IsInsult
_TEXT	ENDS
; Function compile flags: /Ogtp
; File D:\_m2work\Server Client TMP4\ClientVS22\source\UserInterface\InsultChecker.cpp
;	COMDAT ?FilterInsult@CInsultChecker@@QAEXPADI@Z
_TEXT	SEGMENT
_this$1$ = -12						; size = 4
_uInsultLen$1 = -8					; size = 4
_bChr$1$ = -1						; size = 1
_szLine$ = 8						; size = 4
_uLineLen$ = 12						; size = 4
?FilterInsult@CInsultChecker@@QAEXPADI@Z PROC		; CInsultChecker::FilterInsult, COMDAT
; _this$ = ecx

; 54   : {

  00000	55		 push	 ebp
  00001	8b ec		 mov	 ebp, esp
  00003	83 ec 0c	 sub	 esp, 12			; 0000000cH
  00006	56		 push	 esi

; 55   : 	const char INSULT_FILTER_CHAR = '*'; 
; 56   : 	for (UINT uPos=0; uPos<uLineLen;)

  00007	33 f6		 xor	 esi, esi
  00009	89 4d f4	 mov	 DWORD PTR _this$1$[ebp], ecx
  0000c	39 75 0c	 cmp	 DWORD PTR _uLineLen$[ebp], esi
  0000f	76 49		 jbe	 SHORT $LN3@FilterInsu
  00011	53		 push	 ebx
  00012	57		 push	 edi
$LL4@FilterInsu:

; 57   : 	{
; 58   : 		BYTE bChr=szLine[uPos];

  00013	8b 5d 08	 mov	 ebx, DWORD PTR _szLine$[ebp]
  00016	03 de		 add	 ebx, esi
  00018	8a 03		 mov	 al, BYTE PTR [ebx]
  0001a	88 45 ff	 mov	 BYTE PTR _bChr$1$[ebp], al

; 59   : 		UINT uInsultLen;
; 60   : 		if (__GetInsultLength(szLine+uPos, &uInsultLen))

  0001d	8d 45 f8	 lea	 eax, DWORD PTR _uInsultLen$1[ebp]
  00020	50		 push	 eax
  00021	53		 push	 ebx
  00022	e8 00 00 00 00	 call	 ?__GetInsultLength@CInsultChecker@@AAE_NPBDPAI@Z ; CInsultChecker::__GetInsultLength
  00027	84 c0		 test	 al, al
  00029	74 13		 je	 SHORT $LN5@FilterInsu

; 61   : 		{
; 62   : 			memset(szLine+uPos, INSULT_FILTER_CHAR, uInsultLen);

  0002b	8b 7d f8	 mov	 edi, DWORD PTR _uInsultLen$1[ebp]
  0002e	57		 push	 edi
  0002f	6a 2a		 push	 42			; 0000002aH
  00031	53		 push	 ebx
  00032	e8 00 00 00 00	 call	 _memset
  00037	83 c4 0c	 add	 esp, 12			; 0000000cH

; 63   : 			uPos += uInsultLen;

  0003a	03 f7		 add	 esi, edi

; 64   : 		}

  0003c	eb 12		 jmp	 SHORT $LN2@FilterInsu
$LN5@FilterInsu:

; 65   : 		else
; 66   : 		{
; 67   : 			if ( LocaleService_IsLeadByte( bChr ) )

  0003e	8a 4d ff	 mov	 cl, BYTE PTR _bChr$1$[ebp]
  00041	e8 00 00 00 00	 call	 ?LocaleService_IsLeadByte@@YAHD@Z ; LocaleService_IsLeadByte
  00046	85 c0		 test	 eax, eax
  00048	74 05		 je	 SHORT $LN7@FilterInsu

; 68   : 				uPos += 2;

  0004a	83 c6 02	 add	 esi, 2
  0004d	eb 01		 jmp	 SHORT $LN2@FilterInsu
$LN7@FilterInsu:

; 69   : 			else
; 70   : 				uPos++;

  0004f	46		 inc	 esi
$LN2@FilterInsu:

; 55   : 	const char INSULT_FILTER_CHAR = '*'; 
; 56   : 	for (UINT uPos=0; uPos<uLineLen;)

  00050	8b 4d f4	 mov	 ecx, DWORD PTR _this$1$[ebp]
  00053	3b 75 0c	 cmp	 esi, DWORD PTR _uLineLen$[ebp]
  00056	72 bb		 jb	 SHORT $LL4@FilterInsu
  00058	5f		 pop	 edi
  00059	5b		 pop	 ebx
$LN3@FilterInsu:
  0005a	5e		 pop	 esi

; 71   : 		}
; 72   : 	}
; 73   : }

  0005b	8b e5		 mov	 esp, ebp
  0005d	5d		 pop	 ebp
  0005e	c2 08 00	 ret	 8
?FilterInsult@CInsultChecker@@QAEXPADI@Z ENDP		; CInsultChecker::FilterInsult
_TEXT	ENDS
; Function compile flags: /Ogtp
; File D:\_m2work\Server Client TMP4\ClientVS22\source\UserInterface\InsultChecker.cpp
;	COMDAT ?IsInsultIn@CInsultChecker@@QAE_NPBDI@Z
_TEXT	SEGMENT
_c_szLine$ = 8						; size = 4
_uLineLen$ = 12						; size = 4
?IsInsultIn@CInsultChecker@@QAE_NPBDI@Z PROC		; CInsultChecker::IsInsultIn, COMDAT
; _this$ = ecx

; 76   : {

  00000	55		 push	 ebp
  00001	8b ec		 mov	 ebp, esp
  00003	53		 push	 ebx

; 77   : 	for (UINT uPos=0; uPos<uLineLen;)

  00004	8b 5d 0c	 mov	 ebx, DWORD PTR _uLineLen$[ebp]
  00007	56		 push	 esi
  00008	33 f6		 xor	 esi, esi
  0000a	57		 push	 edi
  0000b	8b f9		 mov	 edi, ecx
  0000d	85 db		 test	 ebx, ebx
  0000f	74 31		 je	 SHORT $LN3@IsInsultIn
$LL4@IsInsultIn:

; 78   : 	{
; 79   : 		BYTE bChr=c_szLine[uPos];

  00011	8b 45 08	 mov	 eax, DWORD PTR _c_szLine$[ebp]

; 80   : 		if (bChr & 0x80)

  00014	8b cf		 mov	 ecx, edi
  00016	03 c6		 add	 eax, esi
  00018	50		 push	 eax
  00019	80 38 00	 cmp	 BYTE PTR [eax], 0
  0001c	7d 10		 jge	 SHORT $LN5@IsInsultIn

; 81   : 		{
; 82   : 			if (__IsInsult(c_szLine+uPos))

  0001e	e8 00 00 00 00	 call	 ?__IsInsult@CInsultChecker@@AAE_NPBD@Z ; CInsultChecker::__IsInsult
  00023	84 c0		 test	 al, al
  00025	75 24		 jne	 SHORT $LN12@IsInsultIn

; 83   : 				return true;
; 84   : 
; 85   : 			uPos+=2;

  00027	b8 02 00 00 00	 mov	 eax, 2

; 86   : 		}

  0002c	eb 0e		 jmp	 SHORT $LN2@IsInsultIn
$LN5@IsInsultIn:

; 87   : 		else
; 88   : 		{
; 89   : 			if (__IsInsult(c_szLine+uPos))

  0002e	e8 00 00 00 00	 call	 ?__IsInsult@CInsultChecker@@AAE_NPBD@Z ; CInsultChecker::__IsInsult
  00033	84 c0		 test	 al, al
  00035	75 14		 jne	 SHORT $LN12@IsInsultIn

; 90   : 				return true;
; 91   : 
; 92   : 			uPos++;

  00037	b8 01 00 00 00	 mov	 eax, 1
$LN2@IsInsultIn:

; 77   : 	for (UINT uPos=0; uPos<uLineLen;)

  0003c	03 f0		 add	 esi, eax
  0003e	3b f3		 cmp	 esi, ebx
  00040	72 cf		 jb	 SHORT $LL4@IsInsultIn
$LN3@IsInsultIn:
  00042	5f		 pop	 edi

; 93   : 		}
; 94   : 	}
; 95   : 
; 96   : 	return false;
; 97   : }

  00043	5e		 pop	 esi
  00044	32 c0		 xor	 al, al
  00046	5b		 pop	 ebx
  00047	5d		 pop	 ebp
  00048	c2 08 00	 ret	 8
$LN12@IsInsultIn:
  0004b	5f		 pop	 edi
  0004c	5e		 pop	 esi
  0004d	b0 01		 mov	 al, 1
  0004f	5b		 pop	 ebx
  00050	5d		 pop	 ebp
  00051	c2 08 00	 ret	 8
?IsInsultIn@CInsultChecker@@QAE_NPBDI@Z ENDP		; CInsultChecker::IsInsultIn
_TEXT	ENDS
; Function compile flags: /Ogtp
; File C:\Program Files\Microsoft Visual Studio\2022\Community\VC\Tools\MSVC\14.44.35207\include\list
;	COMDAT ??0?$_List_unchecked_const_iterator@V?$_List_val@U?$_List_simple_types@V?$basic_string@DU?$char_traits@D@std@@V?$allocator@D@2@@std@@@std@@@std@@U_Iterator_base0@2@@std@@QAE@XZ
_TEXT	SEGMENT
??0?$_List_unchecked_const_iterator@V?$_List_val@U?$_List_simple_types@V?$basic_string@DU?$char_traits@D@std@@V?$allocator@D@2@@std@@@std@@@std@@U_Iterator_base0@2@@std@@QAE@XZ PROC ; std::_List_unchecked_const_iterator<std::_List_val<std::_List_simple_types<std::basic_string<char,std::char_traits<char>,std::allocator<char> > > >,std::_Iterator_base0>::_List_unchecked_const_iterator<std::_List_val<std::_List_simple_types<std::basic_string<char,std::char_traits<char>,std::allocator<char> > > >,std::_Iterator_base0>, COMDAT
; _this$ = ecx

; 35   :     _List_unchecked_const_iterator() noexcept : _Ptr() {}

  00000	c7 01 00 00 00
	00		 mov	 DWORD PTR [ecx], 0
  00006	8b c1		 mov	 eax, ecx
  00008	c3		 ret	 0
??0?$_List_unchecked_const_iterator@V?$_List_val@U?$_List_simple_types@V?$basic_string@DU?$char_traits@D@std@@V?$allocator@D@2@@std@@@std@@@std@@U_Iterator_base0@2@@std@@QAE@XZ ENDP ; std::_List_unchecked_const_iterator<std::_List_val<std::_List_simple_types<std::basic_string<char,std::char_traits<char>,std::allocator<char> > > >,std::_Iterator_base0>::_List_unchecked_const_iterator<std::_List_val<std::_List_simple_types<std::basic_string<char,std::char_traits<char>,std::allocator<char> > > >,std::_Iterator_base0>
_TEXT	ENDS
; Function compile flags: /Ogtp
; File C:\Program Files\Microsoft Visual Studio\2022\Community\VC\Tools\MSVC\14.44.35207\include\list
;	COMDAT ??8?$_List_const_iterator@V?$_List_val@U?$_List_simple_types@V?$basic_string@DU?$char_traits@D@std@@V?$allocator@D@2@@std@@@std@@@std@@@std@@QBE_NABV01@@Z
_TEXT	SEGMENT
__Right$ = 8						; size = 4
??8?$_List_const_iterator@V?$_List_val@U?$_List_simple_types@V?$basic_string@DU?$char_traits@D@std@@V?$allocator@D@2@@std@@@std@@@std@@@std@@QBE_NABV01@@Z PROC ; std::_List_const_iterator<std::_List_val<std::_List_simple_types<std::basic_string<char,std::char_traits<char>,std::allocator<char> > > > >::operator==, COMDAT
; _this$ = ecx

; 192  :     _NODISCARD bool operator==(const _List_const_iterator& _Right) const noexcept {

  00000	55		 push	 ebp
  00001	8b ec		 mov	 ebp, esp

; 193  : #if _ITERATOR_DEBUG_LEVEL == 2
; 194  :         _STL_VERIFY(this->_Getcont() == _Right._Getcont(), "list iterators incompatible");
; 195  : #endif // _ITERATOR_DEBUG_LEVEL == 2
; 196  : 
; 197  :         return this->_Ptr == _Right._Ptr;

  00003	8b 45 08	 mov	 eax, DWORD PTR __Right$[ebp]
  00006	8b 09		 mov	 ecx, DWORD PTR [ecx]
  00008	3b 08		 cmp	 ecx, DWORD PTR [eax]
  0000a	0f 94 c0	 sete	 al

; 198  :     }

  0000d	5d		 pop	 ebp
  0000e	c2 04 00	 ret	 4
??8?$_List_const_iterator@V?$_List_val@U?$_List_simple_types@V?$basic_string@DU?$char_traits@D@std@@V?$allocator@D@2@@std@@@std@@@std@@@std@@QBE_NABV01@@Z ENDP ; std::_List_const_iterator<std::_List_val<std::_List_simple_types<std::basic_string<char,std::char_traits<char>,std::allocator<char> > > > >::operator==
_TEXT	ENDS
; Function compile flags: /Ogtp
; File C:\Program Files\Microsoft Visual Studio\2022\Community\VC\Tools\MSVC\14.44.35207\include\list
;	COMDAT ??E?$_List_iterator@V?$_List_val@U?$_List_simple_types@V?$basic_string@DU?$char_traits@D@std@@V?$allocator@D@2@@std@@@std@@@std@@@std@@QAEAAV01@XZ
_TEXT	SEGMENT
??E?$_List_iterator@V?$_List_val@U?$_List_simple_types@V?$basic_string@DU?$char_traits@D@std@@V?$allocator@D@2@@std@@@std@@@std@@@std@@QAEAAV01@XZ PROC ; std::_List_iterator<std::_List_val<std::_List_simple_types<std::basic_string<char,std::char_traits<char>,std::allocator<char> > > > >::operator++, COMDAT
; _this$ = ecx

; 164  :         this->_Ptr = this->_Ptr->_Next;

  00000	8b 01		 mov	 eax, DWORD PTR [ecx]
  00002	8b 00		 mov	 eax, DWORD PTR [eax]
  00004	89 01		 mov	 DWORD PTR [ecx], eax

; 246  :         _Mybase::operator++();
; 247  :         return *this;

  00006	8b c1		 mov	 eax, ecx

; 248  :     }

  00008	c3		 ret	 0
??E?$_List_iterator@V?$_List_val@U?$_List_simple_types@V?$basic_string@DU?$char_traits@D@std@@V?$allocator@D@2@@std@@@std@@@std@@@std@@QAEAAV01@XZ ENDP ; std::_List_iterator<std::_List_val<std::_List_simple_types<std::basic_string<char,std::char_traits<char>,std::allocator<char> > > > >::operator++
_TEXT	ENDS
; Function compile flags: /Ogtp
; File C:\Program Files\Microsoft Visual Studio\2022\Community\VC\Tools\MSVC\14.44.35207\include\list
;	COMDAT ??D?$_List_iterator@V?$_List_val@U?$_List_simple_types@V?$basic_string@DU?$char_traits@D@std@@V?$allocator@D@2@@std@@@std@@@std@@@std@@QBEAAV?$basic_string@DU?$char_traits@D@std@@V?$allocator@D@2@@1@XZ
_TEXT	SEGMENT
??D?$_List_iterator@V?$_List_val@U?$_List_simple_types@V?$basic_string@DU?$char_traits@D@std@@V?$allocator@D@2@@std@@@std@@@std@@@std@@QBEAAV?$basic_string@DU?$char_traits@D@std@@V?$allocator@D@2@@1@XZ PROC ; std::_List_iterator<std::_List_val<std::_List_simple_types<std::basic_string<char,std::char_traits<char>,std::allocator<char> > > > >::operator*, COMDAT
; _this$ = ecx

; 150  :         return this->_Ptr->_Myval;

  00000	8b 01		 mov	 eax, DWORD PTR [ecx]
  00002	83 c0 08	 add	 eax, 8

; 238  :         return const_cast<reference>(_Mybase::operator*());
; 239  :     }

  00005	c3		 ret	 0
??D?$_List_iterator@V?$_List_val@U?$_List_simple_types@V?$basic_string@DU?$char_traits@D@std@@V?$allocator@D@2@@std@@@std@@@std@@@std@@QBEAAV?$basic_string@DU?$char_traits@D@std@@V?$allocator@D@2@@1@XZ ENDP ; std::_List_iterator<std::_List_val<std::_List_simple_types<std::basic_string<char,std::char_traits<char>,std::allocator<char> > > > >::operator*
_TEXT	ENDS
; Function compile flags: /Ogtp
; File C:\Program Files\Microsoft Visual Studio\2022\Community\VC\Tools\MSVC\14.44.35207\include\list
; File C:\Program Files\Microsoft Visual Studio\2022\Community\VC\Tools\MSVC\14.44.35207\include\xstring
; File C:\Program Files\Microsoft Visual Studio\2022\Community\VC\Tools\MSVC\14.44.35207\include\xmemory
; File C:\Program Files\Microsoft Visual Studio\2022\Community\VC\Tools\MSVC\14.44.35207\include\list
;	COMDAT ?clear@?$list@V?$basic_string@DU?$char_traits@D@std@@V?$allocator@D@2@@std@@V?$allocator@V?$basic_string@DU?$char_traits@D@std@@V?$allocator@D@2@@std@@@2@@std@@QAEXXZ
_TEXT	SEGMENT
?clear@?$list@V?$basic_string@DU?$char_traits@D@std@@V?$allocator@D@2@@std@@V?$allocator@V?$basic_string@DU?$char_traits@D@std@@V?$allocator@D@2@@std@@@2@@std@@QAEXXZ PROC ; std::list<std::basic_string<char,std::char_traits<char>,std::allocator<char> >,std::allocator<std::basic_string<char,std::char_traits<char>,std::allocator<char> > > >::clear, COMDAT
; _this$ = ecx

; 1504 :     void clear() noexcept { // erase all

  00000	53		 push	 ebx
  00001	8b d9		 mov	 ebx, ecx
  00003	57		 push	 edi

; 1505 :         auto& _My_data = _Mypair._Myval2;
; 1506 :         _My_data._Orphan_non_end();
; 1507 :         _Node::_Free_non_head(_Getal(), _My_data._Myhead);

  00004	8b 13		 mov	 edx, DWORD PTR [ebx]

; 324  :         _Head->_Prev->_Next = nullptr;

  00006	8b 42 04	 mov	 eax, DWORD PTR [edx+4]
  00009	c7 00 00 00 00
	00		 mov	 DWORD PTR [eax], 0

; 325  : 
; 326  :         auto _Pnode = _Head->_Next;

  0000f	8b 3a		 mov	 edi, DWORD PTR [edx]

; 327  :         for (_Nodeptr _Pnext; _Pnode; _Pnode = _Pnext) {

  00011	85 ff		 test	 edi, edi
  00013	74 1d		 je	 SHORT $LN68@clear
  00015	56		 push	 esi
$LL7@clear:

; 328  :             _Pnext = _Pnode->_Next;

  00016	8b 37		 mov	 esi, DWORD PTR [edi]

; 317  :         allocator_traits<_Alnode>::destroy(_Al, _STD addressof(_Ptr->_Myval));

  00018	8d 4f 08	 lea	 ecx, DWORD PTR [edi+8]
; File C:\Program Files\Microsoft Visual Studio\2022\Community\VC\Tools\MSVC\14.44.35207\include\xstring

; 1383 :         _Tidy_deallocate();

  0001b	e8 00 00 00 00	 call	 ?_Tidy_deallocate@?$basic_string@DU?$char_traits@D@std@@V?$allocator@D@2@@std@@AAEXXZ ; std::basic_string<char,std::char_traits<char>,std::allocator<char> >::_Tidy_deallocate
; File C:\Program Files\Microsoft Visual Studio\2022\Community\VC\Tools\MSVC\14.44.35207\include\xmemory

; 289  :         ::operator delete(_Ptr, _Bytes);

  00020	6a 20		 push	 32			; 00000020H
  00022	57		 push	 edi
  00023	e8 00 00 00 00	 call	 ??3@YAXPAXI@Z		; operator delete
  00028	83 c4 08	 add	 esp, 8
; File C:\Program Files\Microsoft Visual Studio\2022\Community\VC\Tools\MSVC\14.44.35207\include\list

; 327  :         for (_Nodeptr _Pnext; _Pnode; _Pnode = _Pnext) {

  0002b	8b fe		 mov	 edi, esi
  0002d	85 f6		 test	 esi, esi
  0002f	75 e5		 jne	 SHORT $LL7@clear
  00031	5e		 pop	 esi
$LN68@clear:

; 1508 :         _My_data._Myhead->_Next = _My_data._Myhead;

  00032	8b 03		 mov	 eax, DWORD PTR [ebx]

; 1509 :         _My_data._Myhead->_Prev = _My_data._Myhead;
; 1510 :         _My_data._Mysize        = 0;

  00034	5f		 pop	 edi
  00035	89 00		 mov	 DWORD PTR [eax], eax
  00037	8b 03		 mov	 eax, DWORD PTR [ebx]
  00039	89 40 04	 mov	 DWORD PTR [eax+4], eax
  0003c	c7 43 04 00 00
	00 00		 mov	 DWORD PTR [ebx+4], 0
  00043	5b		 pop	 ebx

; 1511 :     }

  00044	c3		 ret	 0
?clear@?$list@V?$basic_string@DU?$char_traits@D@std@@V?$allocator@D@2@@std@@V?$allocator@V?$basic_string@DU?$char_traits@D@std@@V?$allocator@D@2@@std@@@2@@std@@QAEXXZ ENDP ; std::list<std::basic_string<char,std::char_traits<char>,std::allocator<char> >,std::allocator<std::basic_string<char,std::char_traits<char>,std::allocator<char> > > >::clear
_TEXT	ENDS
; Function compile flags: /Ogtp
; File C:\Program Files\Microsoft Visual Studio\2022\Community\VC\Tools\MSVC\14.44.35207\include\list
; File C:\Program Files\Microsoft Visual Studio\2022\Community\VC\Tools\MSVC\14.44.35207\include\xmemory
; File C:\Program Files\Microsoft Visual Studio\2022\Community\VC\Tools\MSVC\14.44.35207\include\list
; File C:\Program Files\Microsoft Visual Studio\2022\Community\VC\Tools\MSVC\14.44.35207\include\xmemory
; File C:\Program Files\Microsoft Visual Studio\2022\Community\VC\Tools\MSVC\14.44.35207\include\xutility
; File C:\Program Files\Microsoft Visual Studio\2022\Community\VC\Tools\MSVC\14.44.35207\include\list
;	COMDAT ?push_back@?$list@V?$basic_string@DU?$char_traits@D@std@@V?$allocator@D@2@@std@@V?$allocator@V?$basic_string@DU?$char_traits@D@std@@V?$allocator@D@2@@std@@@2@@std@@QAEXABV?$basic_string@DU?$char_traits@D@std@@V?$allocator@D@2@@2@@Z
_TEXT	SEGMENT
__Op$2 = -20						; size = 8
__$EHRec$ = -12						; size = 12
__Val$ = 8						; size = 4
?push_back@?$list@V?$basic_string@DU?$char_traits@D@std@@V?$allocator@D@2@@std@@V?$allocator@V?$basic_string@DU?$char_traits@D@std@@V?$allocator@D@2@@std@@@2@@std@@QAEXABV?$basic_string@DU?$char_traits@D@std@@V?$allocator@D@2@@2@@Z PROC ; std::list<std::basic_string<char,std::char_traits<char>,std::allocator<char> >,std::allocator<std::basic_string<char,std::char_traits<char>,std::allocator<char> > > >::push_back, COMDAT
; _this$ = ecx

; 1273 :     void push_back(const _Ty& _Val) {

  00000	55		 push	 ebp
  00001	8b ec		 mov	 ebp, esp
  00003	6a ff		 push	 -1
  00005	68 00 00 00 00	 push	 __ehhandler$?push_back@?$list@V?$basic_string@DU?$char_traits@D@std@@V?$allocator@D@2@@std@@V?$allocator@V?$basic_string@DU?$char_traits@D@std@@V?$allocator@D@2@@std@@@2@@std@@QAEXABV?$basic_string@DU?$char_traits@D@std@@V?$allocator@D@2@@2@@Z
  0000a	64 a1 00 00 00
	00		 mov	 eax, DWORD PTR fs:0
  00010	50		 push	 eax
  00011	83 ec 08	 sub	 esp, 8
  00014	53		 push	 ebx
  00015	56		 push	 esi
  00016	57		 push	 edi
  00017	a1 00 00 00 00	 mov	 eax, DWORD PTR ___security_cookie
  0001c	33 c5		 xor	 eax, ebp
  0001e	50		 push	 eax
  0001f	8d 45 f4	 lea	 eax, DWORD PTR __$EHRec$[ebp]
  00022	64 a3 00 00 00
	00		 mov	 DWORD PTR fs:0, eax
  00028	8b f9		 mov	 edi, ecx

; 1030 :         if (_Mysize == max_size()) {

  0002a	81 7f 04 ff ff
	ff 07		 cmp	 DWORD PTR [edi+4], 134217727 ; 07ffffffH

; 1274 :         _Emplace(_Mypair._Myval2._Myhead, _Val);

  00031	8b 1f		 mov	 ebx, DWORD PTR [edi]

; 1030 :         if (_Mysize == max_size()) {

  00033	74 4f		 je	 SHORT $LN77@push_back
; File C:\Program Files\Microsoft Visual Studio\2022\Community\VC\Tools\MSVC\14.44.35207\include\xmemory

; 1160 :     _CONSTEXPR20 explicit _Alloc_construct_ptr(_Alloc& _Al_) : _Al(_Al_), _Ptr(nullptr) {}

  00035	89 7d ec	 mov	 DWORD PTR __Op$2[ebp], edi
; File C:\Program Files\Microsoft Visual Studio\2022\Community\VC\Tools\MSVC\14.44.35207\include\list

; 593  :     explicit _List_node_emplace_op2(_Alnode& _Al_, _Valtys&&... _Vals) : _Alloc_construct_ptr<_Alnode>(_Al_) {

  00038	c7 45 fc 00 00
	00 00		 mov	 DWORD PTR __$EHRec$[ebp+8], 0
; File C:\Program Files\Microsoft Visual Studio\2022\Community\VC\Tools\MSVC\14.44.35207\include\xmemory

; 1168 :         _Ptr = _Al.allocate(1);

  0003f	6a 20		 push	 32			; 00000020H
  00041	c7 45 f0 00 00
	00 00		 mov	 DWORD PTR __Op$2[ebp+4], 0
  00048	e8 00 00 00 00	 call	 ??2@YAPAXI@Z		; operator new
  0004d	83 c4 04	 add	 esp, 4
  00050	8b f0		 mov	 esi, eax
  00052	89 75 f0	 mov	 DWORD PTR __Op$2[ebp+4], esi
; File C:\Program Files\Microsoft Visual Studio\2022\Community\VC\Tools\MSVC\14.44.35207\include\xutility

; 463  :     _MSVC_CONSTEXPR return ::new (static_cast<void*>(_Location)) _Ty(_STD forward<_Types>(_Args)...);

  00055	ff 75 08	 push	 DWORD PTR __Val$[ebp]
  00058	8d 4e 08	 lea	 ecx, DWORD PTR [esi+8]
  0005b	e8 00 00 00 00	 call	 ??0?$basic_string@DU?$char_traits@D@std@@V?$allocator@D@2@@std@@QAE@ABV01@@Z ; std::basic_string<char,std::char_traits<char>,std::allocator<char> >::basic_string<char,std::char_traits<char>,std::allocator<char> >
; File C:\Program Files\Microsoft Visual Studio\2022\Community\VC\Tools\MSVC\14.44.35207\include\list

; 1035 :         ++_Mysize;

  00060	ff 47 04	 inc	 DWORD PTR [edi+4]

; 608  :         const pointer _Insert_after = _Insert_before->_Prev;

  00063	8b 43 04	 mov	 eax, DWORD PTR [ebx+4]

; 609  :         _Construct_in_place(this->_Ptr->_Next, _Insert_before);

  00066	89 1e		 mov	 DWORD PTR [esi], ebx

; 610  :         _Construct_in_place(this->_Ptr->_Prev, _Insert_after);

  00068	89 46 04	 mov	 DWORD PTR [esi+4], eax

; 611  :         const auto _Result    = this->_Ptr;
; 612  :         this->_Ptr            = pointer{};
; 613  :         _Insert_before->_Prev = _Result;

  0006b	89 73 04	 mov	 DWORD PTR [ebx+4], esi

; 614  :         _Insert_after->_Next  = _Result;

  0006e	89 30		 mov	 DWORD PTR [eax], esi

; 1275 :     }

  00070	8b 4d f4	 mov	 ecx, DWORD PTR __$EHRec$[ebp]
  00073	64 89 0d 00 00
	00 00		 mov	 DWORD PTR fs:0, ecx
  0007a	59		 pop	 ecx
  0007b	5f		 pop	 edi
  0007c	5e		 pop	 esi
  0007d	5b		 pop	 ebx
  0007e	8b e5		 mov	 esp, ebp
  00080	5d		 pop	 ebp
  00081	c2 04 00	 ret	 4
$LN77@push_back:

; 1031 :             _Xlength_error("list too long");

  00084	68 00 00 00 00	 push	 OFFSET ??_C@_0O@NKNMEGII@list?5too?5long@
  00089	e8 00 00 00 00	 call	 ?_Xlength_error@std@@YAXPBD@Z ; std::_Xlength_error
$LN75@push_back:
  0008e	cc		 int	 3
_TEXT	ENDS
;	COMDAT text$x
text$x	SEGMENT
__unwindfunclet$?push_back@?$list@V?$basic_string@DU?$char_traits@D@std@@V?$allocator@D@2@@std@@V?$allocator@V?$basic_string@DU?$char_traits@D@std@@V?$allocator@D@2@@std@@@2@@std@@QAEXABV?$basic_string@DU?$char_traits@D@std@@V?$allocator@D@2@@2@@Z$1:
  00000	8d 4d ec	 lea	 ecx, DWORD PTR __Op$2[ebp]
  00003	e9 00 00 00 00	 jmp	 ??1?$_Alloc_construct_ptr@V?$allocator@U?$_List_node@V?$basic_string@DU?$char_traits@D@std@@V?$allocator@D@2@@std@@PAX@std@@@std@@@std@@QAE@XZ ; std::_Alloc_construct_ptr<std::allocator<std::_List_node<std::basic_string<char,std::char_traits<char>,std::allocator<char> >,void *> > >::~_Alloc_construct_ptr<std::allocator<std::_List_node<std::basic_string<char,std::char_traits<char>,std::allocator<char> >,void *> > >
  00008	cc		 int	 3
  00009	cc		 int	 3
  0000a	cc		 int	 3
  0000b	cc		 int	 3
  0000c	cc		 int	 3
__ehhandler$?push_back@?$list@V?$basic_string@DU?$char_traits@D@std@@V?$allocator@D@2@@std@@V?$allocator@V?$basic_string@DU?$char_traits@D@std@@V?$allocator@D@2@@std@@@2@@std@@QAEXABV?$basic_string@DU?$char_traits@D@std@@V?$allocator@D@2@@2@@Z:
  0000d	90		 npad	 1
  0000e	90		 npad	 1
  0000f	8b 54 24 08	 mov	 edx, DWORD PTR [esp+8]
  00013	8d 42 0c	 lea	 eax, DWORD PTR [edx+12]
  00016	8b 4a e8	 mov	 ecx, DWORD PTR [edx-24]
  00019	33 c8		 xor	 ecx, eax
  0001b	e8 00 00 00 00	 call	 @__security_check_cookie@4
  00020	b8 00 00 00 00	 mov	 eax, OFFSET __ehfuncinfo$?push_back@?$list@V?$basic_string@DU?$char_traits@D@std@@V?$allocator@D@2@@std@@V?$allocator@V?$basic_string@DU?$char_traits@D@std@@V?$allocator@D@2@@std@@@2@@std@@QAEXABV?$basic_string@DU?$char_traits@D@std@@V?$allocator@D@2@@2@@Z
  00025	e9 00 00 00 00	 jmp	 ___CxxFrameHandler3
text$x	ENDS
?push_back@?$list@V?$basic_string@DU?$char_traits@D@std@@V?$allocator@D@2@@std@@V?$allocator@V?$basic_string@DU?$char_traits@D@std@@V?$allocator@D@2@@std@@@2@@std@@QAEXABV?$basic_string@DU?$char_traits@D@std@@V?$allocator@D@2@@2@@Z ENDP ; std::list<std::basic_string<char,std::char_traits<char>,std::allocator<char> >,std::allocator<std::basic_string<char,std::char_traits<char>,std::allocator<char> > > >::push_back
; Function compile flags: /Ogtp
; File C:\Program Files\Microsoft Visual Studio\2022\Community\VC\Tools\MSVC\14.44.35207\include\list
;	COMDAT ?end@?$list@V?$basic_string@DU?$char_traits@D@std@@V?$allocator@D@2@@std@@V?$allocator@V?$basic_string@DU?$char_traits@D@std@@V?$allocator@D@2@@std@@@2@@std@@QAE?AV?$_List_iterator@V?$_List_val@U?$_List_simple_types@V?$basic_string@DU?$char_traits@D@std@@V?$allocator@D@2@@std@@@std@@@std@@@2@XZ
_TEXT	SEGMENT
___$ReturnUdt$ = 8					; size = 4
?end@?$list@V?$basic_string@DU?$char_traits@D@std@@V?$allocator@D@2@@std@@V?$allocator@V?$basic_string@DU?$char_traits@D@std@@V?$allocator@D@2@@std@@@2@@std@@QAE?AV?$_List_iterator@V?$_List_val@U?$_List_simple_types@V?$basic_string@DU?$char_traits@D@std@@V?$allocator@D@2@@std@@@std@@@std@@@2@XZ PROC ; std::list<std::basic_string<char,std::char_traits<char>,std::allocator<char> >,std::allocator<std::basic_string<char,std::char_traits<char>,std::allocator<char> > > >::end, COMDAT
; _this$ = ecx

; 1112 :     _NODISCARD iterator end() noexcept {

  00000	55		 push	 ebp
  00001	8b ec		 mov	 ebp, esp

; 37   :     _List_unchecked_const_iterator(_Nodeptr _Pnode, const _Mylist* _Plist) noexcept : _Ptr(_Pnode) {

  00003	8b 45 08	 mov	 eax, DWORD PTR ___$ReturnUdt$[ebp]
  00006	8b 09		 mov	 ecx, DWORD PTR [ecx]
  00008	89 08		 mov	 DWORD PTR [eax], ecx

; 1113 :         return iterator(_Mypair._Myval2._Myhead, _STD addressof(_Mypair._Myval2));
; 1114 :     }

  0000a	5d		 pop	 ebp
  0000b	c2 04 00	 ret	 4
?end@?$list@V?$basic_string@DU?$char_traits@D@std@@V?$allocator@D@2@@std@@V?$allocator@V?$basic_string@DU?$char_traits@D@std@@V?$allocator@D@2@@std@@@2@@std@@QAE?AV?$_List_iterator@V?$_List_val@U?$_List_simple_types@V?$basic_string@DU?$char_traits@D@std@@V?$allocator@D@2@@std@@@std@@@std@@@2@XZ ENDP ; std::list<std::basic_string<char,std::char_traits<char>,std::allocator<char> >,std::allocator<std::basic_string<char,std::char_traits<char>,std::allocator<char> > > >::end
_TEXT	ENDS
; Function compile flags: /Ogtp
; File C:\Program Files\Microsoft Visual Studio\2022\Community\VC\Tools\MSVC\14.44.35207\include\list
;	COMDAT ?begin@?$list@V?$basic_string@DU?$char_traits@D@std@@V?$allocator@D@2@@std@@V?$allocator@V?$basic_string@DU?$char_traits@D@std@@V?$allocator@D@2@@std@@@2@@std@@QAE?AV?$_List_iterator@V?$_List_val@U?$_List_simple_types@V?$basic_string@DU?$char_traits@D@std@@V?$allocator@D@2@@std@@@std@@@std@@@2@XZ
_TEXT	SEGMENT
___$ReturnUdt$ = 8					; size = 4
?begin@?$list@V?$basic_string@DU?$char_traits@D@std@@V?$allocator@D@2@@std@@V?$allocator@V?$basic_string@DU?$char_traits@D@std@@V?$allocator@D@2@@std@@@2@@std@@QAE?AV?$_List_iterator@V?$_List_val@U?$_List_simple_types@V?$basic_string@DU?$char_traits@D@std@@V?$allocator@D@2@@std@@@std@@@std@@@2@XZ PROC ; std::list<std::basic_string<char,std::char_traits<char>,std::allocator<char> >,std::allocator<std::basic_string<char,std::char_traits<char>,std::allocator<char> > > >::begin, COMDAT
; _this$ = ecx

; 1104 :     _NODISCARD iterator begin() noexcept {

  00000	55		 push	 ebp
  00001	8b ec		 mov	 ebp, esp

; 1105 :         return iterator(_Mypair._Myval2._Myhead->_Next, _STD addressof(_Mypair._Myval2));

  00003	8b 01		 mov	 eax, DWORD PTR [ecx]

; 37   :     _List_unchecked_const_iterator(_Nodeptr _Pnode, const _Mylist* _Plist) noexcept : _Ptr(_Pnode) {

  00005	8b 08		 mov	 ecx, DWORD PTR [eax]
  00007	8b 45 08	 mov	 eax, DWORD PTR ___$ReturnUdt$[ebp]
  0000a	89 08		 mov	 DWORD PTR [eax], ecx

; 1106 :     }

  0000c	5d		 pop	 ebp
  0000d	c2 04 00	 ret	 4
?begin@?$list@V?$basic_string@DU?$char_traits@D@std@@V?$allocator@D@2@@std@@V?$allocator@V?$basic_string@DU?$char_traits@D@std@@V?$allocator@D@2@@std@@@2@@std@@QAE?AV?$_List_iterator@V?$_List_val@U?$_List_simple_types@V?$basic_string@DU?$char_traits@D@std@@V?$allocator@D@2@@std@@@std@@@std@@@2@XZ ENDP ; std::list<std::basic_string<char,std::char_traits<char>,std::allocator<char> >,std::allocator<std::basic_string<char,std::char_traits<char>,std::allocator<char> > > >::begin
_TEXT	ENDS
; Function compile flags: /Ogtp
; File C:\Program Files\Microsoft Visual Studio\2022\Community\VC\Tools\MSVC\14.44.35207\include\list
; File C:\Program Files\Microsoft Visual Studio\2022\Community\VC\Tools\MSVC\14.44.35207\include\xstring
; File C:\Program Files\Microsoft Visual Studio\2022\Community\VC\Tools\MSVC\14.44.35207\include\xmemory
; File C:\Program Files\Microsoft Visual Studio\2022\Community\VC\Tools\MSVC\14.44.35207\include\list
; File C:\Program Files\Microsoft Visual Studio\2022\Community\VC\Tools\MSVC\14.44.35207\include\xmemory
; File C:\Program Files\Microsoft Visual Studio\2022\Community\VC\Tools\MSVC\14.44.35207\include\list
;	COMDAT ??1?$list@V?$basic_string@DU?$char_traits@D@std@@V?$allocator@D@2@@std@@V?$allocator@V?$basic_string@DU?$char_traits@D@std@@V?$allocator@D@2@@std@@@2@@std@@QAE@XZ
_TEXT	SEGMENT
??1?$list@V?$basic_string@DU?$char_traits@D@std@@V?$allocator@D@2@@std@@V?$allocator@V?$basic_string@DU?$char_traits@D@std@@V?$allocator@D@2@@std@@@2@@std@@QAE@XZ PROC ; std::list<std::basic_string<char,std::char_traits<char>,std::allocator<char> >,std::allocator<std::basic_string<char,std::char_traits<char>,std::allocator<char> > > >::~list<std::basic_string<char,std::char_traits<char>,std::allocator<char> >,std::allocator<std::basic_string<char,std::char_traits<char>,std::allocator<char> > > >, COMDAT
; _this$ = ecx

; 1060 :     ~list() noexcept {

  00000	53		 push	 ebx
  00001	8b d9		 mov	 ebx, ecx
  00003	57		 push	 edi

; 1518 :         _Node::_Free_non_head(_Al, _My_data._Myhead);

  00004	8b 13		 mov	 edx, DWORD PTR [ebx]

; 324  :         _Head->_Prev->_Next = nullptr;

  00006	8b 42 04	 mov	 eax, DWORD PTR [edx+4]
  00009	c7 00 00 00 00
	00		 mov	 DWORD PTR [eax], 0

; 325  : 
; 326  :         auto _Pnode = _Head->_Next;

  0000f	8b 3a		 mov	 edi, DWORD PTR [edx]

; 327  :         for (_Nodeptr _Pnext; _Pnode; _Pnode = _Pnext) {

  00011	85 ff		 test	 edi, edi
  00013	74 1d		 je	 SHORT $LN106@list
  00015	56		 push	 esi
$LL10@list:

; 328  :             _Pnext = _Pnode->_Next;

  00016	8b 37		 mov	 esi, DWORD PTR [edi]

; 317  :         allocator_traits<_Alnode>::destroy(_Al, _STD addressof(_Ptr->_Myval));

  00018	8d 4f 08	 lea	 ecx, DWORD PTR [edi+8]
; File C:\Program Files\Microsoft Visual Studio\2022\Community\VC\Tools\MSVC\14.44.35207\include\xstring

; 1383 :         _Tidy_deallocate();

  0001b	e8 00 00 00 00	 call	 ?_Tidy_deallocate@?$basic_string@DU?$char_traits@D@std@@V?$allocator@D@2@@std@@AAEXXZ ; std::basic_string<char,std::char_traits<char>,std::allocator<char> >::_Tidy_deallocate
; File C:\Program Files\Microsoft Visual Studio\2022\Community\VC\Tools\MSVC\14.44.35207\include\xmemory

; 289  :         ::operator delete(_Ptr, _Bytes);

  00020	6a 20		 push	 32			; 00000020H
  00022	57		 push	 edi
  00023	e8 00 00 00 00	 call	 ??3@YAXPAXI@Z		; operator delete
  00028	83 c4 08	 add	 esp, 8
; File C:\Program Files\Microsoft Visual Studio\2022\Community\VC\Tools\MSVC\14.44.35207\include\list

; 327  :         for (_Nodeptr _Pnext; _Pnode; _Pnode = _Pnext) {

  0002b	8b fe		 mov	 edi, esi
  0002d	85 f6		 test	 esi, esi
  0002f	75 e5		 jne	 SHORT $LL10@list
  00031	5e		 pop	 esi
$LN106@list:
; File C:\Program Files\Microsoft Visual Studio\2022\Community\VC\Tools\MSVC\14.44.35207\include\xmemory

; 289  :         ::operator delete(_Ptr, _Bytes);

  00032	6a 20		 push	 32			; 00000020H
  00034	ff 33		 push	 DWORD PTR [ebx]
  00036	e8 00 00 00 00	 call	 ??3@YAXPAXI@Z		; operator delete
  0003b	83 c4 08	 add	 esp, 8
  0003e	5f		 pop	 edi
  0003f	5b		 pop	 ebx
; File C:\Program Files\Microsoft Visual Studio\2022\Community\VC\Tools\MSVC\14.44.35207\include\list

; 1066 :     }

  00040	c3		 ret	 0
??1?$list@V?$basic_string@DU?$char_traits@D@std@@V?$allocator@D@2@@std@@V?$allocator@V?$basic_string@DU?$char_traits@D@std@@V?$allocator@D@2@@std@@@2@@std@@QAE@XZ ENDP ; std::list<std::basic_string<char,std::char_traits<char>,std::allocator<char> >,std::allocator<std::basic_string<char,std::char_traits<char>,std::allocator<char> > > >::~list<std::basic_string<char,std::char_traits<char>,std::allocator<char> >,std::allocator<std::basic_string<char,std::char_traits<char>,std::allocator<char> > > >
_TEXT	ENDS
; Function compile flags: /Ogtp
; File C:\Program Files\Microsoft Visual Studio\2022\Community\VC\Tools\MSVC\14.44.35207\include\list
;	COMDAT ??0?$list@V?$basic_string@DU?$char_traits@D@std@@V?$allocator@D@2@@std@@V?$allocator@V?$basic_string@DU?$char_traits@D@std@@V?$allocator@D@2@@std@@@2@@std@@QAE@XZ
_TEXT	SEGMENT
??0?$list@V?$basic_string@DU?$char_traits@D@std@@V?$allocator@D@2@@std@@V?$allocator@V?$basic_string@DU?$char_traits@D@std@@V?$allocator@D@2@@std@@@2@@std@@QAE@XZ PROC ; std::list<std::basic_string<char,std::char_traits<char>,std::allocator<char> >,std::allocator<std::basic_string<char,std::char_traits<char>,std::allocator<char> > > >::list<std::basic_string<char,std::char_traits<char>,std::allocator<char> >,std::allocator<std::basic_string<char,std::char_traits<char>,std::allocator<char> > > >, COMDAT
; _this$ = ecx

; 812  :     list() : _Mypair(_Zero_then_variadic_args_t{}) {

  00000	56		 push	 esi
  00001	8b f1		 mov	 esi, ecx

; 1851 :         auto _Newhead = _Al.allocate(1);

  00003	6a 20		 push	 32			; 00000020H

; 353  :     _List_val() noexcept : _Myhead(), _Mysize(0) {} // initialize data

  00005	c7 06 00 00 00
	00		 mov	 DWORD PTR [esi], 0
  0000b	c7 46 04 00 00
	00 00		 mov	 DWORD PTR [esi+4], 0

; 1851 :         auto _Newhead = _Al.allocate(1);

  00012	e8 00 00 00 00	 call	 ??2@YAPAXI@Z		; operator new
  00017	83 c4 04	 add	 esp, 4

; 1852 :         _Construct_in_place(_Newhead->_Next, _Newhead);

  0001a	89 00		 mov	 DWORD PTR [eax], eax

; 1853 :         _Construct_in_place(_Newhead->_Prev, _Newhead);

  0001c	89 40 04	 mov	 DWORD PTR [eax+4], eax

; 1854 :         _Mypair._Myval2._Myhead = _Newhead;

  0001f	89 06		 mov	 DWORD PTR [esi], eax

; 813  :         _Alloc_sentinel_and_proxy();
; 814  :     }

  00021	8b c6		 mov	 eax, esi
  00023	5e		 pop	 esi
  00024	c3		 ret	 0
??0?$list@V?$basic_string@DU?$char_traits@D@std@@V?$allocator@D@2@@std@@V?$allocator@V?$basic_string@DU?$char_traits@D@std@@V?$allocator@D@2@@std@@@2@@std@@QAE@XZ ENDP ; std::list<std::basic_string<char,std::char_traits<char>,std::allocator<char> >,std::allocator<std::basic_string<char,std::char_traits<char>,std::allocator<char> > > >::list<std::basic_string<char,std::char_traits<char>,std::allocator<char> >,std::allocator<std::basic_string<char,std::char_traits<char>,std::allocator<char> > > >
_TEXT	ENDS
; Function compile flags: /Ogtp
; File C:\Program Files\Microsoft Visual Studio\2022\Community\VC\Tools\MSVC\14.44.35207\include\list
;	COMDAT ??0?$_List_iterator@V?$_List_val@U?$_List_simple_types@V?$basic_string@DU?$char_traits@D@std@@V?$allocator@D@2@@std@@@std@@@std@@@std@@QAE@PAU?$_List_node@V?$basic_string@DU?$char_traits@D@std@@V?$allocator@D@2@@std@@PAX@1@PBV?$_List_val@U?$_List_simple_types@V?$basic_string@DU?$char_traits@D@std@@V?$allocator@D@2@@std@@@std@@@1@@Z
_TEXT	SEGMENT
___param0$ = 8						; size = 4
___param1$dead$ = 12					; size = 4
??0?$_List_iterator@V?$_List_val@U?$_List_simple_types@V?$basic_string@DU?$char_traits@D@std@@V?$allocator@D@2@@std@@@std@@@std@@@std@@QAE@PAU?$_List_node@V?$basic_string@DU?$char_traits@D@std@@V?$allocator@D@2@@std@@PAX@1@PBV?$_List_val@U?$_List_simple_types@V?$basic_string@DU?$char_traits@D@std@@V?$allocator@D@2@@std@@@std@@@1@@Z PROC ; std::_List_iterator<std::_List_val<std::_List_simple_types<std::basic_string<char,std::char_traits<char>,std::allocator<char> > > > >::_List_iterator<std::_List_val<std::_List_simple_types<std::basic_string<char,std::char_traits<char>,std::allocator<char> > > > >, COMDAT
; _this$ = ecx
  00000	55		 push	 ebp
  00001	8b ec		 mov	 ebp, esp

; 37   :     _List_unchecked_const_iterator(_Nodeptr _Pnode, const _Mylist* _Plist) noexcept : _Ptr(_Pnode) {

  00003	8b 45 08	 mov	 eax, DWORD PTR ___param0$[ebp]
  00006	89 01		 mov	 DWORD PTR [ecx], eax
  00008	8b c1		 mov	 eax, ecx
  0000a	5d		 pop	 ebp
  0000b	c2 08 00	 ret	 8
??0?$_List_iterator@V?$_List_val@U?$_List_simple_types@V?$basic_string@DU?$char_traits@D@std@@V?$allocator@D@2@@std@@@std@@@std@@@std@@QAE@PAU?$_List_node@V?$basic_string@DU?$char_traits@D@std@@V?$allocator@D@2@@std@@PAX@1@PBV?$_List_val@U?$_List_simple_types@V?$basic_string@DU?$char_traits@D@std@@V?$allocator@D@2@@std@@@std@@@1@@Z ENDP ; std::_List_iterator<std::_List_val<std::_List_simple_types<std::basic_string<char,std::char_traits<char>,std::allocator<char> > > > >::_List_iterator<std::_List_val<std::_List_simple_types<std::basic_string<char,std::char_traits<char>,std::allocator<char> > > > >
_TEXT	ENDS
; Function compile flags: /Ogtp
; File C:\Program Files\Microsoft Visual Studio\2022\Community\VC\Tools\MSVC\14.44.35207\include\list
;	COMDAT ??0?$_List_const_iterator@V?$_List_val@U?$_List_simple_types@V?$basic_string@DU?$char_traits@D@std@@V?$allocator@D@2@@std@@@std@@@std@@@std@@QAE@PAU?$_List_node@V?$basic_string@DU?$char_traits@D@std@@V?$allocator@D@2@@std@@PAX@1@PBV?$_List_val@U?$_List_simple_types@V?$basic_string@DU?$char_traits@D@std@@V?$allocator@D@2@@std@@@std@@@1@@Z
_TEXT	SEGMENT
___param0$ = 8						; size = 4
___param1$dead$ = 12					; size = 4
??0?$_List_const_iterator@V?$_List_val@U?$_List_simple_types@V?$basic_string@DU?$char_traits@D@std@@V?$allocator@D@2@@std@@@std@@@std@@@std@@QAE@PAU?$_List_node@V?$basic_string@DU?$char_traits@D@std@@V?$allocator@D@2@@std@@PAX@1@PBV?$_List_val@U?$_List_simple_types@V?$basic_string@DU?$char_traits@D@std@@V?$allocator@D@2@@std@@@std@@@1@@Z PROC ; std::_List_const_iterator<std::_List_val<std::_List_simple_types<std::basic_string<char,std::char_traits<char>,std::allocator<char> > > > >::_List_const_iterator<std::_List_val<std::_List_simple_types<std::basic_string<char,std::char_traits<char>,std::allocator<char> > > > >, COMDAT
; _this$ = ecx
  00000	55		 push	 ebp
  00001	8b ec		 mov	 ebp, esp

; 37   :     _List_unchecked_const_iterator(_Nodeptr _Pnode, const _Mylist* _Plist) noexcept : _Ptr(_Pnode) {

  00003	8b 45 08	 mov	 eax, DWORD PTR ___param0$[ebp]
  00006	89 01		 mov	 DWORD PTR [ecx], eax
  00008	8b c1		 mov	 eax, ecx
  0000a	5d		 pop	 ebp
  0000b	c2 08 00	 ret	 8
??0?$_List_const_iterator@V?$_List_val@U?$_List_simple_types@V?$basic_string@DU?$char_traits@D@std@@V?$allocator@D@2@@std@@@std@@@std@@@std@@QAE@PAU?$_List_node@V?$basic_string@DU?$char_traits@D@std@@V?$allocator@D@2@@std@@PAX@1@PBV?$_List_val@U?$_List_simple_types@V?$basic_string@DU?$char_traits@D@std@@V?$allocator@D@2@@std@@@std@@@1@@Z ENDP ; std::_List_const_iterator<std::_List_val<std::_List_simple_types<std::basic_string<char,std::char_traits<char>,std::allocator<char> > > > >::_List_const_iterator<std::_List_val<std::_List_simple_types<std::basic_string<char,std::char_traits<char>,std::allocator<char> > > > >
_TEXT	ENDS
; Function compile flags: /Ogtp
; File C:\Program Files\Microsoft Visual Studio\2022\Community\VC\Tools\MSVC\14.44.35207\include\list
; File C:\Program Files\Microsoft Visual Studio\2022\Community\VC\Tools\MSVC\14.44.35207\include\xstring
; File C:\Program Files\Microsoft Visual Studio\2022\Community\VC\Tools\MSVC\14.44.35207\include\xmemory
; File C:\Program Files\Microsoft Visual Studio\2022\Community\VC\Tools\MSVC\14.44.35207\include\list
;	COMDAT ??$_Free_non_head@V?$allocator@U?$_List_node@V?$basic_string@DU?$char_traits@D@std@@V?$allocator@D@2@@std@@PAX@std@@@std@@@?$_List_node@V?$basic_string@DU?$char_traits@D@std@@V?$allocator@D@2@@std@@PAX@std@@SAXAAV?$allocator@U?$_List_node@V?$basic_string@DU?$char_traits@D@std@@V?$allocator@D@2@@std@@PAX@std@@@1@PAU01@@Z
_TEXT	SEGMENT
??$_Free_non_head@V?$allocator@U?$_List_node@V?$basic_string@DU?$char_traits@D@std@@V?$allocator@D@2@@std@@PAX@std@@@std@@@?$_List_node@V?$basic_string@DU?$char_traits@D@std@@V?$allocator@D@2@@std@@PAX@std@@SAXAAV?$allocator@U?$_List_node@V?$basic_string@DU?$char_traits@D@std@@V?$allocator@D@2@@std@@PAX@std@@@1@PAU01@@Z PROC ; std::_List_node<std::basic_string<char,std::char_traits<char>,std::allocator<char> >,void *>::_Free_non_head<std::allocator<std::_List_node<std::basic_string<char,std::char_traits<char>,std::allocator<char> >,void *> > >, COMDAT
; __Al$dead$ = ecx
; __Head$ = edx

; 324  :         _Head->_Prev->_Next = nullptr;

  00000	8b 42 04	 mov	 eax, DWORD PTR [edx+4]
  00003	56		 push	 esi
  00004	c7 00 00 00 00
	00		 mov	 DWORD PTR [eax], 0

; 325  : 
; 326  :         auto _Pnode = _Head->_Next;

  0000a	8b 32		 mov	 esi, DWORD PTR [edx]

; 327  :         for (_Nodeptr _Pnext; _Pnode; _Pnode = _Pnext) {

  0000c	85 f6		 test	 esi, esi
  0000e	74 1d		 je	 SHORT $LN64@Free_non_h
  00010	57		 push	 edi
$LL4@Free_non_h:

; 328  :             _Pnext = _Pnode->_Next;

  00011	8b 3e		 mov	 edi, DWORD PTR [esi]

; 317  :         allocator_traits<_Alnode>::destroy(_Al, _STD addressof(_Ptr->_Myval));

  00013	8d 4e 08	 lea	 ecx, DWORD PTR [esi+8]
; File C:\Program Files\Microsoft Visual Studio\2022\Community\VC\Tools\MSVC\14.44.35207\include\xstring

; 1383 :         _Tidy_deallocate();

  00016	e8 00 00 00 00	 call	 ?_Tidy_deallocate@?$basic_string@DU?$char_traits@D@std@@V?$allocator@D@2@@std@@AAEXXZ ; std::basic_string<char,std::char_traits<char>,std::allocator<char> >::_Tidy_deallocate
; File C:\Program Files\Microsoft Visual Studio\2022\Community\VC\Tools\MSVC\14.44.35207\include\xmemory

; 289  :         ::operator delete(_Ptr, _Bytes);

  0001b	6a 20		 push	 32			; 00000020H
  0001d	56		 push	 esi
  0001e	e8 00 00 00 00	 call	 ??3@YAXPAXI@Z		; operator delete
  00023	83 c4 08	 add	 esp, 8
; File C:\Program Files\Microsoft Visual Studio\2022\Community\VC\Tools\MSVC\14.44.35207\include\list

; 327  :         for (_Nodeptr _Pnext; _Pnode; _Pnode = _Pnext) {

  00026	8b f7		 mov	 esi, edi
  00028	85 ff		 test	 edi, edi
  0002a	75 e5		 jne	 SHORT $LL4@Free_non_h
  0002c	5f		 pop	 edi
$LN64@Free_non_h:
  0002d	5e		 pop	 esi

; 329  :             _Freenode(_Al, _Pnode);
; 330  :         }
; 331  :     }

  0002e	c3		 ret	 0
??$_Free_non_head@V?$allocator@U?$_List_node@V?$basic_string@DU?$char_traits@D@std@@V?$allocator@D@2@@std@@PAX@std@@@std@@@?$_List_node@V?$basic_string@DU?$char_traits@D@std@@V?$allocator@D@2@@std@@PAX@std@@SAXAAV?$allocator@U?$_List_node@V?$basic_string@DU?$char_traits@D@std@@V?$allocator@D@2@@std@@PAX@std@@@1@PAU01@@Z ENDP ; std::_List_node<std::basic_string<char,std::char_traits<char>,std::allocator<char> >,void *>::_Free_non_head<std::allocator<std::_List_node<std::basic_string<char,std::char_traits<char>,std::allocator<char> >,void *> > >
_TEXT	ENDS
; Function compile flags: /Ogtp
; File C:\Program Files\Microsoft Visual Studio\2022\Community\VC\Tools\MSVC\14.44.35207\include\list
; File C:\Program Files\Microsoft Visual Studio\2022\Community\VC\Tools\MSVC\14.44.35207\include\xmemory
; File C:\Program Files\Microsoft Visual Studio\2022\Community\VC\Tools\MSVC\14.44.35207\include\list
; File C:\Program Files\Microsoft Visual Studio\2022\Community\VC\Tools\MSVC\14.44.35207\include\xmemory
; File C:\Program Files\Microsoft Visual Studio\2022\Community\VC\Tools\MSVC\14.44.35207\include\xutility
; File C:\Program Files\Microsoft Visual Studio\2022\Community\VC\Tools\MSVC\14.44.35207\include\list
;	COMDAT ??$_Emplace@ABV?$basic_string@DU?$char_traits@D@std@@V?$allocator@D@2@@std@@@?$list@V?$basic_string@DU?$char_traits@D@std@@V?$allocator@D@2@@std@@V?$allocator@V?$basic_string@DU?$char_traits@D@std@@V?$allocator@D@2@@std@@@2@@std@@QAEPAU?$_List_node@V?$basic_string@DU?$char_traits@D@std@@V?$allocator@D@2@@std@@PAX@1@QAU21@ABV?$basic_string@DU?$char_traits@D@std@@V?$allocator@D@2@@1@@Z
_TEXT	SEGMENT
__Op$ = -20						; size = 8
__$EHRec$ = -12						; size = 12
__Where$ = 8						; size = 4
_<_Val_0>$ = 12						; size = 4
??$_Emplace@ABV?$basic_string@DU?$char_traits@D@std@@V?$allocator@D@2@@std@@@?$list@V?$basic_string@DU?$char_traits@D@std@@V?$allocator@D@2@@std@@V?$allocator@V?$basic_string@DU?$char_traits@D@std@@V?$allocator@D@2@@std@@@2@@std@@QAEPAU?$_List_node@V?$basic_string@DU?$char_traits@D@std@@V?$allocator@D@2@@std@@PAX@1@QAU21@ABV?$basic_string@DU?$char_traits@D@std@@V?$allocator@D@2@@1@@Z PROC ; std::list<std::basic_string<char,std::char_traits<char>,std::allocator<char> >,std::allocator<std::basic_string<char,std::char_traits<char>,std::allocator<char> > > >::_Emplace<std::basic_string<char,std::char_traits<char>,std::allocator<char> > const &>, COMDAT
; _this$ = ecx

; 1028 :     _Nodeptr _Emplace(const _Nodeptr _Where, _Valty&&... _Val) { // insert element at _Where

  00000	55		 push	 ebp
  00001	8b ec		 mov	 ebp, esp
  00003	6a ff		 push	 -1
  00005	68 00 00 00 00	 push	 __ehhandler$??$_Emplace@ABV?$basic_string@DU?$char_traits@D@std@@V?$allocator@D@2@@std@@@?$list@V?$basic_string@DU?$char_traits@D@std@@V?$allocator@D@2@@std@@V?$allocator@V?$basic_string@DU?$char_traits@D@std@@V?$allocator@D@2@@std@@@2@@std@@QAEPAU?$_List_node@V?$basic_string@DU?$char_traits@D@std@@V?$allocator@D@2@@std@@PAX@1@QAU21@ABV?$basic_string@DU?$char_traits@D@std@@V?$allocator@D@2@@1@@Z
  0000a	64 a1 00 00 00
	00		 mov	 eax, DWORD PTR fs:0
  00010	50		 push	 eax
  00011	83 ec 08	 sub	 esp, 8
  00014	56		 push	 esi
  00015	57		 push	 edi
  00016	a1 00 00 00 00	 mov	 eax, DWORD PTR ___security_cookie
  0001b	33 c5		 xor	 eax, ebp
  0001d	50		 push	 eax
  0001e	8d 45 f4	 lea	 eax, DWORD PTR __$EHRec$[ebp]
  00021	64 a3 00 00 00
	00		 mov	 DWORD PTR fs:0, eax
  00027	8b f9		 mov	 edi, ecx

; 1029 :         size_type& _Mysize = _Mypair._Myval2._Mysize;
; 1030 :         if (_Mysize == max_size()) {

  00029	81 7f 04 ff ff
	ff 07		 cmp	 DWORD PTR [edi+4], 134217727 ; 07ffffffH
  00030	74 53		 je	 SHORT $LN74@Emplace
; File C:\Program Files\Microsoft Visual Studio\2022\Community\VC\Tools\MSVC\14.44.35207\include\xmemory

; 1160 :     _CONSTEXPR20 explicit _Alloc_construct_ptr(_Alloc& _Al_) : _Al(_Al_), _Ptr(nullptr) {}

  00032	89 7d ec	 mov	 DWORD PTR __Op$[ebp], edi
; File C:\Program Files\Microsoft Visual Studio\2022\Community\VC\Tools\MSVC\14.44.35207\include\list

; 593  :     explicit _List_node_emplace_op2(_Alnode& _Al_, _Valtys&&... _Vals) : _Alloc_construct_ptr<_Alnode>(_Al_) {

  00035	c7 45 fc 00 00
	00 00		 mov	 DWORD PTR __$EHRec$[ebp+8], 0
; File C:\Program Files\Microsoft Visual Studio\2022\Community\VC\Tools\MSVC\14.44.35207\include\xmemory

; 1168 :         _Ptr = _Al.allocate(1);

  0003c	6a 20		 push	 32			; 00000020H
  0003e	c7 45 f0 00 00
	00 00		 mov	 DWORD PTR __Op$[ebp+4], 0
  00045	e8 00 00 00 00	 call	 ??2@YAPAXI@Z		; operator new
  0004a	83 c4 04	 add	 esp, 4
  0004d	8b f0		 mov	 esi, eax
  0004f	89 75 f0	 mov	 DWORD PTR __Op$[ebp+4], esi
; File C:\Program Files\Microsoft Visual Studio\2022\Community\VC\Tools\MSVC\14.44.35207\include\xutility

; 463  :     _MSVC_CONSTEXPR return ::new (static_cast<void*>(_Location)) _Ty(_STD forward<_Types>(_Args)...);

  00052	ff 75 0c	 push	 DWORD PTR _<_Val_0>$[ebp]
  00055	8d 4e 08	 lea	 ecx, DWORD PTR [esi+8]
  00058	e8 00 00 00 00	 call	 ??0?$basic_string@DU?$char_traits@D@std@@V?$allocator@D@2@@std@@QAE@ABV01@@Z ; std::basic_string<char,std::char_traits<char>,std::allocator<char> >::basic_string<char,std::char_traits<char>,std::allocator<char> >
; File C:\Program Files\Microsoft Visual Studio\2022\Community\VC\Tools\MSVC\14.44.35207\include\list

; 608  :         const pointer _Insert_after = _Insert_before->_Prev;

  0005d	8b 4d 08	 mov	 ecx, DWORD PTR __Where$[ebp]

; 1032 :         }
; 1033 : 
; 1034 :         _List_node_emplace_op2<_Alnode> _Op{_Getal(), _STD forward<_Valty>(_Val)...};
; 1035 :         ++_Mysize;

  00060	ff 47 04	 inc	 DWORD PTR [edi+4]

; 608  :         const pointer _Insert_after = _Insert_before->_Prev;

  00063	8b 41 04	 mov	 eax, DWORD PTR [ecx+4]

; 609  :         _Construct_in_place(this->_Ptr->_Next, _Insert_before);

  00066	89 0e		 mov	 DWORD PTR [esi], ecx

; 610  :         _Construct_in_place(this->_Ptr->_Prev, _Insert_after);

  00068	89 46 04	 mov	 DWORD PTR [esi+4], eax

; 611  :         const auto _Result    = this->_Ptr;
; 612  :         this->_Ptr            = pointer{};
; 613  :         _Insert_before->_Prev = _Result;

  0006b	89 71 04	 mov	 DWORD PTR [ecx+4], esi

; 614  :         _Insert_after->_Next  = _Result;

  0006e	89 30		 mov	 DWORD PTR [eax], esi

; 1036 :         return _Op._Transfer_before(_Where);

  00070	8b c6		 mov	 eax, esi

; 1037 :     }

  00072	8b 4d f4	 mov	 ecx, DWORD PTR __$EHRec$[ebp]
  00075	64 89 0d 00 00
	00 00		 mov	 DWORD PTR fs:0, ecx
  0007c	59		 pop	 ecx
  0007d	5f		 pop	 edi
  0007e	5e		 pop	 esi
  0007f	8b e5		 mov	 esp, ebp
  00081	5d		 pop	 ebp
  00082	c2 08 00	 ret	 8
$LN74@Emplace:

; 1031 :             _Xlength_error("list too long");

  00085	68 00 00 00 00	 push	 OFFSET ??_C@_0O@NKNMEGII@list?5too?5long@
  0008a	e8 00 00 00 00	 call	 ?_Xlength_error@std@@YAXPBD@Z ; std::_Xlength_error
$LN72@Emplace:
  0008f	cc		 int	 3
_TEXT	ENDS
;	COMDAT text$x
text$x	SEGMENT
__unwindfunclet$??$_Emplace@ABV?$basic_string@DU?$char_traits@D@std@@V?$allocator@D@2@@std@@@?$list@V?$basic_string@DU?$char_traits@D@std@@V?$allocator@D@2@@std@@V?$allocator@V?$basic_string@DU?$char_traits@D@std@@V?$allocator@D@2@@std@@@2@@std@@QAEPAU?$_List_node@V?$basic_string@DU?$char_traits@D@std@@V?$allocator@D@2@@std@@PAX@1@QAU21@ABV?$basic_string@DU?$char_traits@D@std@@V?$allocator@D@2@@1@@Z$1:
  00000	8d 4d ec	 lea	 ecx, DWORD PTR __Op$[ebp]
  00003	e9 00 00 00 00	 jmp	 ??1?$_Alloc_construct_ptr@V?$allocator@U?$_List_node@V?$basic_string@DU?$char_traits@D@std@@V?$allocator@D@2@@std@@PAX@std@@@std@@@std@@QAE@XZ ; std::_Alloc_construct_ptr<std::allocator<std::_List_node<std::basic_string<char,std::char_traits<char>,std::allocator<char> >,void *> > >::~_Alloc_construct_ptr<std::allocator<std::_List_node<std::basic_string<char,std::char_traits<char>,std::allocator<char> >,void *> > >
  00008	cc		 int	 3
  00009	cc		 int	 3
  0000a	cc		 int	 3
  0000b	cc		 int	 3
  0000c	cc		 int	 3
__ehhandler$??$_Emplace@ABV?$basic_string@DU?$char_traits@D@std@@V?$allocator@D@2@@std@@@?$list@V?$basic_string@DU?$char_traits@D@std@@V?$allocator@D@2@@std@@V?$allocator@V?$basic_string@DU?$char_traits@D@std@@V?$allocator@D@2@@std@@@2@@std@@QAEPAU?$_List_node@V?$basic_string@DU?$char_traits@D@std@@V?$allocator@D@2@@std@@PAX@1@QAU21@ABV?$basic_string@DU?$char_traits@D@std@@V?$allocator@D@2@@1@@Z:
  0000d	90		 npad	 1
  0000e	90		 npad	 1
  0000f	8b 54 24 08	 mov	 edx, DWORD PTR [esp+8]
  00013	8d 42 0c	 lea	 eax, DWORD PTR [edx+12]
  00016	8b 4a ec	 mov	 ecx, DWORD PTR [edx-20]
  00019	33 c8		 xor	 ecx, eax
  0001b	e8 00 00 00 00	 call	 @__security_check_cookie@4
  00020	b8 00 00 00 00	 mov	 eax, OFFSET __ehfuncinfo$??$_Emplace@ABV?$basic_string@DU?$char_traits@D@std@@V?$allocator@D@2@@std@@@?$list@V?$basic_string@DU?$char_traits@D@std@@V?$allocator@D@2@@std@@V?$allocator@V?$basic_string@DU?$char_traits@D@std@@V?$allocator@D@2@@std@@@2@@std@@QAEPAU?$_List_node@V?$basic_string@DU?$char_traits@D@std@@V?$allocator@D@2@@std@@PAX@1@QAU21@ABV?$basic_string@DU?$char_traits@D@std@@V?$allocator@D@2@@1@@Z
  00025	e9 00 00 00 00	 jmp	 ___CxxFrameHandler3
text$x	ENDS
??$_Emplace@ABV?$basic_string@DU?$char_traits@D@std@@V?$allocator@D@2@@std@@@?$list@V?$basic_string@DU?$char_traits@D@std@@V?$allocator@D@2@@std@@V?$allocator@V?$basic_string@DU?$char_traits@D@std@@V?$allocator@D@2@@std@@@2@@std@@QAEPAU?$_List_node@V?$basic_string@DU?$char_traits@D@std@@V?$allocator@D@2@@std@@PAX@1@QAU21@ABV?$basic_string@DU?$char_traits@D@std@@V?$allocator@D@2@@1@@Z ENDP ; std::list<std::basic_string<char,std::char_traits<char>,std::allocator<char> >,std::allocator<std::basic_string<char,std::char_traits<char>,std::allocator<char> > > >::_Emplace<std::basic_string<char,std::char_traits<char>,std::allocator<char> > const &>
; Function compile flags: /Ogtp
; File C:\Program Files\Microsoft Visual Studio\2022\Community\VC\Tools\MSVC\14.44.35207\include\type_traits
;	COMDAT ??$addressof@V?$_List_val@U?$_List_simple_types@V?$basic_string@DU?$char_traits@D@std@@V?$allocator@D@2@@std@@@std@@@std@@@std@@YAPAV?$_List_val@U?$_List_simple_types@V?$basic_string@DU?$char_traits@D@std@@V?$allocator@D@2@@std@@@std@@@0@AAV10@@Z
_TEXT	SEGMENT
??$addressof@V?$_List_val@U?$_List_simple_types@V?$basic_string@DU?$char_traits@D@std@@V?$allocator@D@2@@std@@@std@@@std@@@std@@YAPAV?$_List_val@U?$_List_simple_types@V?$basic_string@DU?$char_traits@D@std@@V?$allocator@D@2@@std@@@std@@@0@AAV10@@Z PROC ; std::addressof<std::_List_val<std::_List_simple_types<std::basic_string<char,std::char_traits<char>,std::allocator<char> > > > >, COMDAT
; __Val$ = ecx

; 1525 :     return __builtin_addressof(_Val);

  00000	8b c1		 mov	 eax, ecx

; 1526 : }

  00002	c3		 ret	 0
??$addressof@V?$_List_val@U?$_List_simple_types@V?$basic_string@DU?$char_traits@D@std@@V?$allocator@D@2@@std@@@std@@@std@@@std@@YAPAV?$_List_val@U?$_List_simple_types@V?$basic_string@DU?$char_traits@D@std@@V?$allocator@D@2@@std@@@std@@@0@AAV10@@Z ENDP ; std::addressof<std::_List_val<std::_List_simple_types<std::basic_string<char,std::char_traits<char>,std::allocator<char> > > > >
_TEXT	ENDS
; Function compile flags: /Ogtp
; File C:\Program Files\Microsoft Visual Studio\2022\Community\VC\Tools\MSVC\14.44.35207\include\xmemory
; File C:\Program Files\Microsoft Visual Studio\2022\Community\VC\Tools\MSVC\14.44.35207\include\list
; File C:\Program Files\Microsoft Visual Studio\2022\Community\VC\Tools\MSVC\14.44.35207\include\xmemory
; File C:\Program Files\Microsoft Visual Studio\2022\Community\VC\Tools\MSVC\14.44.35207\include\list
; File C:\Program Files\Microsoft Visual Studio\2022\Community\VC\Tools\MSVC\14.44.35207\include\xmemory
;	COMDAT ??$?0$$V@?$_Compressed_pair@V?$allocator@U?$_List_node@V?$basic_string@DU?$char_traits@D@std@@V?$allocator@D@2@@std@@PAX@std@@@std@@V?$_List_val@U?$_List_simple_types@V?$basic_string@DU?$char_traits@D@std@@V?$allocator@D@2@@std@@@std@@@2@$00@std@@QAE@U_Zero_then_variadic_args_t@1@@Z
_TEXT	SEGMENT
___formal$ = 8						; size = 1
??$?0$$V@?$_Compressed_pair@V?$allocator@U?$_List_node@V?$basic_string@DU?$char_traits@D@std@@V?$allocator@D@2@@std@@PAX@std@@@std@@V?$_List_val@U?$_List_simple_types@V?$basic_string@DU?$char_traits@D@std@@V?$allocator@D@2@@std@@@std@@@2@$00@std@@QAE@U_Zero_then_variadic_args_t@1@@Z PROC ; std::_Compressed_pair<std::allocator<std::_List_node<std::basic_string<char,std::char_traits<char>,std::allocator<char> >,void *> >,std::_List_val<std::_List_simple_types<std::basic_string<char,std::char_traits<char>,std::allocator<char> > > >,1>::_Compressed_pair<std::allocator<std::_List_node<std::basic_string<char,std::char_traits<char>,std::allocator<char> >,void *> >,std::_List_val<std::_List_simple_types<std::basic_string<char,std::char_traits<char>,std::allocator<char> > > >,1><>, COMDAT
; _this$ = ecx
; File C:\Program Files\Microsoft Visual Studio\2022\Community\VC\Tools\MSVC\14.44.35207\include\list

; 353  :     _List_val() noexcept : _Myhead(), _Mysize(0) {} // initialize data

  00000	c7 01 00 00 00
	00		 mov	 DWORD PTR [ecx], 0
; File C:\Program Files\Microsoft Visual Studio\2022\Community\VC\Tools\MSVC\14.44.35207\include\xmemory

; 1531 :         : _Ty1(), _Myval2(_STD forward<_Other2>(_Val2)...) {}

  00006	8b c1		 mov	 eax, ecx
; File C:\Program Files\Microsoft Visual Studio\2022\Community\VC\Tools\MSVC\14.44.35207\include\list

; 353  :     _List_val() noexcept : _Myhead(), _Mysize(0) {} // initialize data

  00008	c7 41 04 00 00
	00 00		 mov	 DWORD PTR [ecx+4], 0
; File C:\Program Files\Microsoft Visual Studio\2022\Community\VC\Tools\MSVC\14.44.35207\include\xmemory

; 1531 :         : _Ty1(), _Myval2(_STD forward<_Other2>(_Val2)...) {}

  0000f	c2 04 00	 ret	 4
??$?0$$V@?$_Compressed_pair@V?$allocator@U?$_List_node@V?$basic_string@DU?$char_traits@D@std@@V?$allocator@D@2@@std@@PAX@std@@@std@@V?$_List_val@U?$_List_simple_types@V?$basic_string@DU?$char_traits@D@std@@V?$allocator@D@2@@std@@@std@@@2@$00@std@@QAE@U_Zero_then_variadic_args_t@1@@Z ENDP ; std::_Compressed_pair<std::allocator<std::_List_node<std::basic_string<char,std::char_traits<char>,std::allocator<char> >,void *> >,std::_List_val<std::_List_simple_types<std::basic_string<char,std::char_traits<char>,std::allocator<char> > > >,1>::_Compressed_pair<std::allocator<std::_List_node<std::basic_string<char,std::char_traits<char>,std::allocator<char> >,void *> >,std::_List_val<std::_List_simple_types<std::basic_string<char,std::char_traits<char>,std::allocator<char> > > >,1><>
_TEXT	ENDS
; Function compile flags: /Ogtp
; File C:\Program Files\Microsoft Visual Studio\2022\Community\VC\Tools\MSVC\14.44.35207\include\list
;	COMDAT ??0?$_List_unchecked_const_iterator@V?$_List_val@U?$_List_simple_types@V?$basic_string@DU?$char_traits@D@std@@V?$allocator@D@2@@std@@@std@@@std@@U_Iterator_base0@2@@std@@QAE@PAU?$_List_node@V?$basic_string@DU?$char_traits@D@std@@V?$allocator@D@2@@std@@PAX@1@PBV?$_List_val@U?$_List_simple_types@V?$basic_string@DU?$char_traits@D@std@@V?$allocator@D@2@@std@@@std@@@1@@Z
_TEXT	SEGMENT
__Pnode$ = 8						; size = 4
__Plist$dead$ = 12					; size = 4
??0?$_List_unchecked_const_iterator@V?$_List_val@U?$_List_simple_types@V?$basic_string@DU?$char_traits@D@std@@V?$allocator@D@2@@std@@@std@@@std@@U_Iterator_base0@2@@std@@QAE@PAU?$_List_node@V?$basic_string@DU?$char_traits@D@std@@V?$allocator@D@2@@std@@PAX@1@PBV?$_List_val@U?$_List_simple_types@V?$basic_string@DU?$char_traits@D@std@@V?$allocator@D@2@@std@@@std@@@1@@Z PROC ; std::_List_unchecked_const_iterator<std::_List_val<std::_List_simple_types<std::basic_string<char,std::char_traits<char>,std::allocator<char> > > >,std::_Iterator_base0>::_List_unchecked_const_iterator<std::_List_val<std::_List_simple_types<std::basic_string<char,std::char_traits<char>,std::allocator<char> > > >,std::_Iterator_base0>, COMDAT
; _this$ = ecx

; 37   :     _List_unchecked_const_iterator(_Nodeptr _Pnode, const _Mylist* _Plist) noexcept : _Ptr(_Pnode) {

  00000	55		 push	 ebp
  00001	8b ec		 mov	 ebp, esp
  00003	8b 45 08	 mov	 eax, DWORD PTR __Pnode$[ebp]
  00006	89 01		 mov	 DWORD PTR [ecx], eax

; 38   :         this->_Adopt(_Plist);
; 39   :     }

  00008	8b c1		 mov	 eax, ecx
  0000a	5d		 pop	 ebp
  0000b	c2 08 00	 ret	 8
??0?$_List_unchecked_const_iterator@V?$_List_val@U?$_List_simple_types@V?$basic_string@DU?$char_traits@D@std@@V?$allocator@D@2@@std@@@std@@@std@@U_Iterator_base0@2@@std@@QAE@PAU?$_List_node@V?$basic_string@DU?$char_traits@D@std@@V?$allocator@D@2@@std@@PAX@1@PBV?$_List_val@U?$_List_simple_types@V?$basic_string@DU?$char_traits@D@std@@V?$allocator@D@2@@std@@@std@@@1@@Z ENDP ; std::_List_unchecked_const_iterator<std::_List_val<std::_List_simple_types<std::basic_string<char,std::char_traits<char>,std::allocator<char> > > >,std::_Iterator_base0>::_List_unchecked_const_iterator<std::_List_val<std::_List_simple_types<std::basic_string<char,std::char_traits<char>,std::allocator<char> > > >,std::_Iterator_base0>
_TEXT	ENDS
; Function compile flags: /Ogtp
; File C:\Program Files\Microsoft Visual Studio\2022\Community\VC\Tools\MSVC\14.44.35207\include\list
;	COMDAT ??E?$_List_const_iterator@V?$_List_val@U?$_List_simple_types@V?$basic_string@DU?$char_traits@D@std@@V?$allocator@D@2@@std@@@std@@@std@@@std@@QAEAAV01@XZ
_TEXT	SEGMENT
??E?$_List_const_iterator@V?$_List_val@U?$_List_simple_types@V?$basic_string@DU?$char_traits@D@std@@V?$allocator@D@2@@std@@@std@@@std@@@std@@QAEAAV01@XZ PROC ; std::_List_const_iterator<std::_List_val<std::_List_simple_types<std::basic_string<char,std::char_traits<char>,std::allocator<char> > > > >::operator++, COMDAT
; _this$ = ecx

; 158  : #if _ITERATOR_DEBUG_LEVEL == 2
; 159  :         const auto _Mycont = static_cast<const _Mylist*>(this->_Getcont());
; 160  :         _STL_VERIFY(_Mycont, "cannot increment value-initialized list iterator");
; 161  :         _STL_VERIFY(this->_Ptr != _Mycont->_Myhead, "cannot increment end list iterator");
; 162  : #endif // _ITERATOR_DEBUG_LEVEL == 2
; 163  : 
; 164  :         this->_Ptr = this->_Ptr->_Next;

  00000	8b 01		 mov	 eax, DWORD PTR [ecx]
  00002	8b 00		 mov	 eax, DWORD PTR [eax]
  00004	89 01		 mov	 DWORD PTR [ecx], eax

; 165  :         return *this;

  00006	8b c1		 mov	 eax, ecx

; 166  :     }

  00008	c3		 ret	 0
??E?$_List_const_iterator@V?$_List_val@U?$_List_simple_types@V?$basic_string@DU?$char_traits@D@std@@V?$allocator@D@2@@std@@@std@@@std@@@std@@QAEAAV01@XZ ENDP ; std::_List_const_iterator<std::_List_val<std::_List_simple_types<std::basic_string<char,std::char_traits<char>,std::allocator<char> > > > >::operator++
_TEXT	ENDS
; Function compile flags: /Ogtp
; File C:\Program Files\Microsoft Visual Studio\2022\Community\VC\Tools\MSVC\14.44.35207\include\list
;	COMDAT ??D?$_List_const_iterator@V?$_List_val@U?$_List_simple_types@V?$basic_string@DU?$char_traits@D@std@@V?$allocator@D@2@@std@@@std@@@std@@@std@@QBEABV?$basic_string@DU?$char_traits@D@std@@V?$allocator@D@2@@1@XZ
_TEXT	SEGMENT
??D?$_List_const_iterator@V?$_List_val@U?$_List_simple_types@V?$basic_string@DU?$char_traits@D@std@@V?$allocator@D@2@@std@@@std@@@std@@@std@@QBEABV?$basic_string@DU?$char_traits@D@std@@V?$allocator@D@2@@1@XZ PROC ; std::_List_const_iterator<std::_List_val<std::_List_simple_types<std::basic_string<char,std::char_traits<char>,std::allocator<char> > > > >::operator*, COMDAT
; _this$ = ecx

; 144  : #if _ITERATOR_DEBUG_LEVEL == 2
; 145  :         const auto _Mycont = static_cast<const _Mylist*>(this->_Getcont());
; 146  :         _STL_VERIFY(_Mycont, "cannot dereference value-initialized list iterator");
; 147  :         _STL_VERIFY(this->_Ptr != _Mycont->_Myhead, "cannot dereference end list iterator");
; 148  : #endif // _ITERATOR_DEBUG_LEVEL == 2
; 149  : 
; 150  :         return this->_Ptr->_Myval;

  00000	8b 01		 mov	 eax, DWORD PTR [ecx]
  00002	83 c0 08	 add	 eax, 8

; 151  :     }

  00005	c3		 ret	 0
??D?$_List_const_iterator@V?$_List_val@U?$_List_simple_types@V?$basic_string@DU?$char_traits@D@std@@V?$allocator@D@2@@std@@@std@@@std@@@std@@QBEABV?$basic_string@DU?$char_traits@D@std@@V?$allocator@D@2@@1@XZ ENDP ; std::_List_const_iterator<std::_List_val<std::_List_simple_types<std::basic_string<char,std::char_traits<char>,std::allocator<char> > > > >::operator*
_TEXT	ENDS
; Function compile flags: /Ogtp
; File C:\Program Files\Microsoft Visual Studio\2022\Community\VC\Tools\MSVC\14.44.35207\include\list
;	COMDAT ?_Orphan_non_end@?$_List_val@U?$_List_simple_types@V?$basic_string@DU?$char_traits@D@std@@V?$allocator@D@2@@std@@@std@@@std@@QAEXXZ
_TEXT	SEGMENT
?_Orphan_non_end@?$_List_val@U?$_List_simple_types@V?$basic_string@DU?$char_traits@D@std@@V?$allocator@D@2@@std@@@std@@@std@@QAEXXZ PROC ; std::_List_val<std::_List_simple_types<std::basic_string<char,std::char_traits<char>,std::allocator<char> > > >::_Orphan_non_end, COMDAT
; _this$dead$ = ecx

; 387  : #if _ITERATOR_DEBUG_LEVEL == 2
; 388  :         _Lockit _Lock(_LOCK_DEBUG);
; 389  :         _Iterator_base12** _Pnext = &this->_Myproxy->_Myfirstiter;
; 390  :         const auto _Head          = _Myhead;
; 391  :         while (*_Pnext) {
; 392  :             _Iterator_base12** _Pnextnext = &(*_Pnext)->_Mynextiter;
; 393  :             if (static_cast<_List_const_iterator<_List_val>&>(**_Pnext)._Ptr == _Head) { // iterator is end(), move on
; 394  :                 _Pnext = _Pnextnext;
; 395  :             } else { // orphan the iterator
; 396  :                 (*_Pnext)->_Myproxy = nullptr;
; 397  :                 *_Pnext             = *_Pnextnext;
; 398  :             }
; 399  :         }
; 400  : #endif // _ITERATOR_DEBUG_LEVEL == 2
; 401  :     }

  00000	c2 00 00	 ret	 0
?_Orphan_non_end@?$_List_val@U?$_List_simple_types@V?$basic_string@DU?$char_traits@D@std@@V?$allocator@D@2@@std@@@std@@@std@@QAEXXZ ENDP ; std::_List_val<std::_List_simple_types<std::basic_string<char,std::char_traits<char>,std::allocator<char> > > >::_Orphan_non_end
_TEXT	ENDS
; Function compile flags: /Ogtp
; File C:\Program Files\Microsoft Visual Studio\2022\Community\VC\Tools\MSVC\14.44.35207\include\list
;	COMDAT ?_Getal@?$list@V?$basic_string@DU?$char_traits@D@std@@V?$allocator@D@2@@std@@V?$allocator@V?$basic_string@DU?$char_traits@D@std@@V?$allocator@D@2@@std@@@2@@std@@AAEAAV?$allocator@U?$_List_node@V?$basic_string@DU?$char_traits@D@std@@V?$allocator@D@2@@std@@PAX@std@@@2@XZ
_TEXT	SEGMENT
?_Getal@?$list@V?$basic_string@DU?$char_traits@D@std@@V?$allocator@D@2@@std@@V?$allocator@V?$basic_string@DU?$char_traits@D@std@@V?$allocator@D@2@@std@@@2@@std@@AAEAAV?$allocator@U?$_List_node@V?$basic_string@DU?$char_traits@D@std@@V?$allocator@D@2@@std@@PAX@std@@@2@XZ PROC ; std::list<std::basic_string<char,std::char_traits<char>,std::allocator<char> >,std::allocator<std::basic_string<char,std::char_traits<char>,std::allocator<char> > > >::_Getal, COMDAT
; _this$ = ecx

; 1863 :         return _Mypair._Get_first();

  00000	8b c1		 mov	 eax, ecx

; 1864 :     }

  00002	c3		 ret	 0
?_Getal@?$list@V?$basic_string@DU?$char_traits@D@std@@V?$allocator@D@2@@std@@V?$allocator@V?$basic_string@DU?$char_traits@D@std@@V?$allocator@D@2@@std@@@2@@std@@AAEAAV?$allocator@U?$_List_node@V?$basic_string@DU?$char_traits@D@std@@V?$allocator@D@2@@std@@PAX@std@@@2@XZ ENDP ; std::list<std::basic_string<char,std::char_traits<char>,std::allocator<char> >,std::allocator<std::basic_string<char,std::char_traits<char>,std::allocator<char> > > >::_Getal
_TEXT	ENDS
; Function compile flags: /Ogtp
; File C:\Program Files\Microsoft Visual Studio\2022\Community\VC\Tools\MSVC\14.44.35207\include\list
;	COMDAT ?_Alloc_sentinel_and_proxy@?$list@V?$basic_string@DU?$char_traits@D@std@@V?$allocator@D@2@@std@@V?$allocator@V?$basic_string@DU?$char_traits@D@std@@V?$allocator@D@2@@std@@@2@@std@@AAEXXZ
_TEXT	SEGMENT
?_Alloc_sentinel_and_proxy@?$list@V?$basic_string@DU?$char_traits@D@std@@V?$allocator@D@2@@std@@V?$allocator@V?$basic_string@DU?$char_traits@D@std@@V?$allocator@D@2@@std@@@2@@std@@AAEXXZ PROC ; std::list<std::basic_string<char,std::char_traits<char>,std::allocator<char> >,std::allocator<std::basic_string<char,std::char_traits<char>,std::allocator<char> > > >::_Alloc_sentinel_and_proxy, COMDAT
; _this$ = ecx

; 1847 :     void _Alloc_sentinel_and_proxy() {

  00000	56		 push	 esi

; 1848 :         auto&& _Alproxy = _GET_PROXY_ALLOCATOR(_Alnode, _Getal());
; 1849 :         _Container_proxy_ptr<_Alty> _Proxy(_Alproxy, _Mypair._Myval2);
; 1850 :         auto& _Al     = _Getal();
; 1851 :         auto _Newhead = _Al.allocate(1);

  00001	6a 20		 push	 32			; 00000020H
  00003	8b f1		 mov	 esi, ecx
  00005	e8 00 00 00 00	 call	 ??2@YAPAXI@Z		; operator new
  0000a	83 c4 04	 add	 esp, 4

; 1852 :         _Construct_in_place(_Newhead->_Next, _Newhead);

  0000d	89 00		 mov	 DWORD PTR [eax], eax

; 1853 :         _Construct_in_place(_Newhead->_Prev, _Newhead);

  0000f	89 40 04	 mov	 DWORD PTR [eax+4], eax

; 1854 :         _Mypair._Myval2._Myhead = _Newhead;

  00012	89 06		 mov	 DWORD PTR [esi], eax
  00014	5e		 pop	 esi

; 1855 :         _Proxy._Release();
; 1856 :     }

  00015	c3		 ret	 0
?_Alloc_sentinel_and_proxy@?$list@V?$basic_string@DU?$char_traits@D@std@@V?$allocator@D@2@@std@@V?$allocator@V?$basic_string@DU?$char_traits@D@std@@V?$allocator@D@2@@std@@@2@@std@@AAEXXZ ENDP ; std::list<std::basic_string<char,std::char_traits<char>,std::allocator<char> >,std::allocator<std::basic_string<char,std::char_traits<char>,std::allocator<char> > > >::_Alloc_sentinel_and_proxy
_TEXT	ENDS
; Function compile flags: /Ogtp
; File C:\Program Files\Microsoft Visual Studio\2022\Community\VC\Tools\MSVC\14.44.35207\include\list
; File C:\Program Files\Microsoft Visual Studio\2022\Community\VC\Tools\MSVC\14.44.35207\include\xstring
; File C:\Program Files\Microsoft Visual Studio\2022\Community\VC\Tools\MSVC\14.44.35207\include\xmemory
; File C:\Program Files\Microsoft Visual Studio\2022\Community\VC\Tools\MSVC\14.44.35207\include\list
; File C:\Program Files\Microsoft Visual Studio\2022\Community\VC\Tools\MSVC\14.44.35207\include\xmemory
; File C:\Program Files\Microsoft Visual Studio\2022\Community\VC\Tools\MSVC\14.44.35207\include\list
;	COMDAT ?_Tidy@?$list@V?$basic_string@DU?$char_traits@D@std@@V?$allocator@D@2@@std@@V?$allocator@V?$basic_string@DU?$char_traits@D@std@@V?$allocator@D@2@@std@@@2@@std@@AAEXXZ
_TEXT	SEGMENT
?_Tidy@?$list@V?$basic_string@DU?$char_traits@D@std@@V?$allocator@D@2@@std@@V?$allocator@V?$basic_string@DU?$char_traits@D@std@@V?$allocator@D@2@@std@@@2@@std@@AAEXXZ PROC ; std::list<std::basic_string<char,std::char_traits<char>,std::allocator<char> >,std::allocator<std::basic_string<char,std::char_traits<char>,std::allocator<char> > > >::_Tidy, COMDAT
; _this$ = ecx

; 1514 :     void _Tidy() noexcept {

  00000	53		 push	 ebx
  00001	8b d9		 mov	 ebx, ecx
  00003	57		 push	 edi

; 1515 :         auto& _Al      = _Getal();
; 1516 :         auto& _My_data = _Mypair._Myval2;
; 1517 :         _My_data._Orphan_all();
; 1518 :         _Node::_Free_non_head(_Al, _My_data._Myhead);

  00004	8b 13		 mov	 edx, DWORD PTR [ebx]

; 324  :         _Head->_Prev->_Next = nullptr;

  00006	8b 42 04	 mov	 eax, DWORD PTR [edx+4]
  00009	c7 00 00 00 00
	00		 mov	 DWORD PTR [eax], 0

; 325  : 
; 326  :         auto _Pnode = _Head->_Next;

  0000f	8b 3a		 mov	 edi, DWORD PTR [edx]

; 327  :         for (_Nodeptr _Pnext; _Pnode; _Pnode = _Pnext) {

  00011	85 ff		 test	 edi, edi
  00013	74 1d		 je	 SHORT $LN102@Tidy
  00015	56		 push	 esi
$LL7@Tidy:

; 328  :             _Pnext = _Pnode->_Next;

  00016	8b 37		 mov	 esi, DWORD PTR [edi]

; 317  :         allocator_traits<_Alnode>::destroy(_Al, _STD addressof(_Ptr->_Myval));

  00018	8d 4f 08	 lea	 ecx, DWORD PTR [edi+8]
; File C:\Program Files\Microsoft Visual Studio\2022\Community\VC\Tools\MSVC\14.44.35207\include\xstring

; 1383 :         _Tidy_deallocate();

  0001b	e8 00 00 00 00	 call	 ?_Tidy_deallocate@?$basic_string@DU?$char_traits@D@std@@V?$allocator@D@2@@std@@AAEXXZ ; std::basic_string<char,std::char_traits<char>,std::allocator<char> >::_Tidy_deallocate
; File C:\Program Files\Microsoft Visual Studio\2022\Community\VC\Tools\MSVC\14.44.35207\include\xmemory

; 289  :         ::operator delete(_Ptr, _Bytes);

  00020	6a 20		 push	 32			; 00000020H
  00022	57		 push	 edi
  00023	e8 00 00 00 00	 call	 ??3@YAXPAXI@Z		; operator delete
  00028	83 c4 08	 add	 esp, 8
; File C:\Program Files\Microsoft Visual Studio\2022\Community\VC\Tools\MSVC\14.44.35207\include\list

; 327  :         for (_Nodeptr _Pnext; _Pnode; _Pnode = _Pnext) {

  0002b	8b fe		 mov	 edi, esi
  0002d	85 f6		 test	 esi, esi
  0002f	75 e5		 jne	 SHORT $LL7@Tidy
  00031	5e		 pop	 esi
$LN102@Tidy:
; File C:\Program Files\Microsoft Visual Studio\2022\Community\VC\Tools\MSVC\14.44.35207\include\xmemory

; 289  :         ::operator delete(_Ptr, _Bytes);

  00032	6a 20		 push	 32			; 00000020H
  00034	ff 33		 push	 DWORD PTR [ebx]
  00036	e8 00 00 00 00	 call	 ??3@YAXPAXI@Z		; operator delete
  0003b	83 c4 08	 add	 esp, 8
  0003e	5f		 pop	 edi
  0003f	5b		 pop	 ebx
; File C:\Program Files\Microsoft Visual Studio\2022\Community\VC\Tools\MSVC\14.44.35207\include\list

; 1520 :     }

  00040	c3		 ret	 0
?_Tidy@?$list@V?$basic_string@DU?$char_traits@D@std@@V?$allocator@D@2@@std@@V?$allocator@V?$basic_string@DU?$char_traits@D@std@@V?$allocator@D@2@@std@@@2@@std@@AAEXXZ ENDP ; std::list<std::basic_string<char,std::char_traits<char>,std::allocator<char> >,std::allocator<std::basic_string<char,std::char_traits<char>,std::allocator<char> > > >::_Tidy
_TEXT	ENDS
; Function compile flags: /Ogtp
; File C:\Program Files\Microsoft Visual Studio\2022\Community\VC\Tools\MSVC\14.44.35207\include\list
; File C:\Program Files\Microsoft Visual Studio\2022\Community\VC\Tools\MSVC\14.44.35207\include\xstring
; File C:\Program Files\Microsoft Visual Studio\2022\Community\VC\Tools\MSVC\14.44.35207\include\xmemory
; File C:\Program Files\Microsoft Visual Studio\2022\Community\VC\Tools\MSVC\14.44.35207\include\list
;	COMDAT ??$_Freenode@V?$allocator@U?$_List_node@V?$basic_string@DU?$char_traits@D@std@@V?$allocator@D@2@@std@@PAX@std@@@std@@@?$_List_node@V?$basic_string@DU?$char_traits@D@std@@V?$allocator@D@2@@std@@PAX@std@@SAXAAV?$allocator@U?$_List_node@V?$basic_string@DU?$char_traits@D@std@@V?$allocator@D@2@@std@@PAX@std@@@1@PAU01@@Z
_TEXT	SEGMENT
??$_Freenode@V?$allocator@U?$_List_node@V?$basic_string@DU?$char_traits@D@std@@V?$allocator@D@2@@std@@PAX@std@@@std@@@?$_List_node@V?$basic_string@DU?$char_traits@D@std@@V?$allocator@D@2@@std@@PAX@std@@SAXAAV?$allocator@U?$_List_node@V?$basic_string@DU?$char_traits@D@std@@V?$allocator@D@2@@std@@PAX@std@@@1@PAU01@@Z PROC ; std::_List_node<std::basic_string<char,std::char_traits<char>,std::allocator<char> >,void *>::_Freenode<std::allocator<std::_List_node<std::basic_string<char,std::char_traits<char>,std::allocator<char> >,void *> > >, COMDAT
; __Al$dead$ = ecx
; __Ptr$ = edx

; 316  :     static void _Freenode(_Alnode& _Al, _Nodeptr _Ptr) noexcept { // destroy all members in _Ptr and deallocate with _Al

  00000	56		 push	 esi
  00001	8b f2		 mov	 esi, edx

; 317  :         allocator_traits<_Alnode>::destroy(_Al, _STD addressof(_Ptr->_Myval));

  00003	8d 4e 08	 lea	 ecx, DWORD PTR [esi+8]
; File C:\Program Files\Microsoft Visual Studio\2022\Community\VC\Tools\MSVC\14.44.35207\include\xstring

; 1383 :         _Tidy_deallocate();

  00006	e8 00 00 00 00	 call	 ?_Tidy_deallocate@?$basic_string@DU?$char_traits@D@std@@V?$allocator@D@2@@std@@AAEXXZ ; std::basic_string<char,std::char_traits<char>,std::allocator<char> >::_Tidy_deallocate
; File C:\Program Files\Microsoft Visual Studio\2022\Community\VC\Tools\MSVC\14.44.35207\include\xmemory

; 289  :         ::operator delete(_Ptr, _Bytes);

  0000b	6a 20		 push	 32			; 00000020H
  0000d	56		 push	 esi
  0000e	e8 00 00 00 00	 call	 ??3@YAXPAXI@Z		; operator delete
  00013	83 c4 08	 add	 esp, 8
  00016	5e		 pop	 esi
; File C:\Program Files\Microsoft Visual Studio\2022\Community\VC\Tools\MSVC\14.44.35207\include\list

; 319  :     }

  00017	c3		 ret	 0
??$_Freenode@V?$allocator@U?$_List_node@V?$basic_string@DU?$char_traits@D@std@@V?$allocator@D@2@@std@@PAX@std@@@std@@@?$_List_node@V?$basic_string@DU?$char_traits@D@std@@V?$allocator@D@2@@std@@PAX@std@@SAXAAV?$allocator@U?$_List_node@V?$basic_string@DU?$char_traits@D@std@@V?$allocator@D@2@@std@@PAX@std@@@1@PAU01@@Z ENDP ; std::_List_node<std::basic_string<char,std::char_traits<char>,std::allocator<char> >,void *>::_Freenode<std::allocator<std::_List_node<std::basic_string<char,std::char_traits<char>,std::allocator<char> >,void *> > >
_TEXT	ENDS
; Function compile flags: /Ogtp
; File C:\Program Files\Microsoft Visual Studio\2022\Community\VC\Tools\MSVC\14.44.35207\include\type_traits
;	COMDAT ??$forward@ABV?$basic_string@DU?$char_traits@D@std@@V?$allocator@D@2@@std@@@std@@YAABV?$basic_string@DU?$char_traits@D@std@@V?$allocator@D@2@@0@ABV10@@Z
_TEXT	SEGMENT
??$forward@ABV?$basic_string@DU?$char_traits@D@std@@V?$allocator@D@2@@std@@@std@@YAABV?$basic_string@DU?$char_traits@D@std@@V?$allocator@D@2@@0@ABV10@@Z PROC ; std::forward<std::basic_string<char,std::char_traits<char>,std::allocator<char> > const &>, COMDAT
; __Arg$ = ecx

; 1502 :     return static_cast<_Ty&&>(_Arg);

  00000	8b c1		 mov	 eax, ecx

; 1503 : }

  00002	c3		 ret	 0
??$forward@ABV?$basic_string@DU?$char_traits@D@std@@V?$allocator@D@2@@std@@@std@@YAABV?$basic_string@DU?$char_traits@D@std@@V?$allocator@D@2@@0@ABV10@@Z ENDP ; std::forward<std::basic_string<char,std::char_traits<char>,std::allocator<char> > const &>
_TEXT	ENDS
; Function compile flags: /Ogtp
; File C:\Program Files\Microsoft Visual Studio\2022\Community\VC\Tools\MSVC\14.44.35207\include\list
; File C:\Program Files\Microsoft Visual Studio\2022\Community\VC\Tools\MSVC\14.44.35207\include\xmemory
; File C:\Program Files\Microsoft Visual Studio\2022\Community\VC\Tools\MSVC\14.44.35207\include\list
; File C:\Program Files\Microsoft Visual Studio\2022\Community\VC\Tools\MSVC\14.44.35207\include\xmemory
; File C:\Program Files\Microsoft Visual Studio\2022\Community\VC\Tools\MSVC\14.44.35207\include\list
; File C:\Program Files\Microsoft Visual Studio\2022\Community\VC\Tools\MSVC\14.44.35207\include\xutility
; File C:\Program Files\Microsoft Visual Studio\2022\Community\VC\Tools\MSVC\14.44.35207\include\list
;	COMDAT ??$?0ABV?$basic_string@DU?$char_traits@D@std@@V?$allocator@D@2@@std@@@?$_List_node_emplace_op2@V?$allocator@U?$_List_node@V?$basic_string@DU?$char_traits@D@std@@V?$allocator@D@2@@std@@PAX@std@@@std@@@std@@QAE@AAV?$allocator@U?$_List_node@V?$basic_string@DU?$char_traits@D@std@@V?$allocator@D@2@@std@@PAX@std@@@1@ABV?$basic_string@DU?$char_traits@D@std@@V?$allocator@D@2@@1@@Z
_TEXT	SEGMENT
_this$ = -16						; size = 4
__$EHRec$ = -12						; size = 12
__Al_$ = 8						; size = 4
_<_Vals_0>$ = 12					; size = 4
??$?0ABV?$basic_string@DU?$char_traits@D@std@@V?$allocator@D@2@@std@@@?$_List_node_emplace_op2@V?$allocator@U?$_List_node@V?$basic_string@DU?$char_traits@D@std@@V?$allocator@D@2@@std@@PAX@std@@@std@@@std@@QAE@AAV?$allocator@U?$_List_node@V?$basic_string@DU?$char_traits@D@std@@V?$allocator@D@2@@std@@PAX@std@@@1@ABV?$basic_string@DU?$char_traits@D@std@@V?$allocator@D@2@@1@@Z PROC ; std::_List_node_emplace_op2<std::allocator<std::_List_node<std::basic_string<char,std::char_traits<char>,std::allocator<char> >,void *> > >::_List_node_emplace_op2<std::allocator<std::_List_node<std::basic_string<char,std::char_traits<char>,std::allocator<char> >,void *> > ><std::basic_string<char,std::char_traits<char>,std::allocator<char> > const &>, COMDAT
; _this$ = ecx

; 593  :     explicit _List_node_emplace_op2(_Alnode& _Al_, _Valtys&&... _Vals) : _Alloc_construct_ptr<_Alnode>(_Al_) {

  00000	55		 push	 ebp
  00001	8b ec		 mov	 ebp, esp
  00003	6a ff		 push	 -1
  00005	68 00 00 00 00	 push	 __ehhandler$??$?0ABV?$basic_string@DU?$char_traits@D@std@@V?$allocator@D@2@@std@@@?$_List_node_emplace_op2@V?$allocator@U?$_List_node@V?$basic_string@DU?$char_traits@D@std@@V?$allocator@D@2@@std@@PAX@std@@@std@@@std@@QAE@AAV?$allocator@U?$_List_node@V?$basic_string@DU?$char_traits@D@std@@V?$allocator@D@2@@std@@PAX@std@@@1@ABV?$basic_string@DU?$char_traits@D@std@@V?$allocator@D@2@@1@@Z
  0000a	64 a1 00 00 00
	00		 mov	 eax, DWORD PTR fs:0
  00010	50		 push	 eax
  00011	51		 push	 ecx
  00012	56		 push	 esi
  00013	a1 00 00 00 00	 mov	 eax, DWORD PTR ___security_cookie
  00018	33 c5		 xor	 eax, ebp
  0001a	50		 push	 eax
  0001b	8d 45 f4	 lea	 eax, DWORD PTR __$EHRec$[ebp]
  0001e	64 a3 00 00 00
	00		 mov	 DWORD PTR fs:0, eax
  00024	8b f1		 mov	 esi, ecx
  00026	89 75 f0	 mov	 DWORD PTR _this$[ebp], esi
; File C:\Program Files\Microsoft Visual Studio\2022\Community\VC\Tools\MSVC\14.44.35207\include\xmemory

; 1160 :     _CONSTEXPR20 explicit _Alloc_construct_ptr(_Alloc& _Al_) : _Al(_Al_), _Ptr(nullptr) {}

  00029	8b 45 08	 mov	 eax, DWORD PTR __Al_$[ebp]
  0002c	89 06		 mov	 DWORD PTR [esi], eax
; File C:\Program Files\Microsoft Visual Studio\2022\Community\VC\Tools\MSVC\14.44.35207\include\list

; 593  :     explicit _List_node_emplace_op2(_Alnode& _Al_, _Valtys&&... _Vals) : _Alloc_construct_ptr<_Alnode>(_Al_) {

  0002e	c7 45 fc 00 00
	00 00		 mov	 DWORD PTR __$EHRec$[ebp+8], 0
; File C:\Program Files\Microsoft Visual Studio\2022\Community\VC\Tools\MSVC\14.44.35207\include\xmemory

; 1168 :         _Ptr = _Al.allocate(1);

  00035	6a 20		 push	 32			; 00000020H
  00037	c7 46 04 00 00
	00 00		 mov	 DWORD PTR [esi+4], 0
  0003e	e8 00 00 00 00	 call	 ??2@YAPAXI@Z		; operator new
  00043	83 c4 04	 add	 esp, 4
  00046	89 46 04	 mov	 DWORD PTR [esi+4], eax
; File C:\Program Files\Microsoft Visual Studio\2022\Community\VC\Tools\MSVC\14.44.35207\include\list

; 595  :         _Alnode_traits::construct(this->_Al, _STD addressof(this->_Ptr->_Myval), _STD forward<_Valtys>(_Vals)...);

  00049	8d 48 08	 lea	 ecx, DWORD PTR [eax+8]
; File C:\Program Files\Microsoft Visual Studio\2022\Community\VC\Tools\MSVC\14.44.35207\include\xutility

; 463  :     _MSVC_CONSTEXPR return ::new (static_cast<void*>(_Location)) _Ty(_STD forward<_Types>(_Args)...);

  0004c	ff 75 0c	 push	 DWORD PTR _<_Vals_0>$[ebp]
  0004f	e8 00 00 00 00	 call	 ??0?$basic_string@DU?$char_traits@D@std@@V?$allocator@D@2@@std@@QAE@ABV01@@Z ; std::basic_string<char,std::char_traits<char>,std::allocator<char> >::basic_string<char,std::char_traits<char>,std::allocator<char> >
; File C:\Program Files\Microsoft Visual Studio\2022\Community\VC\Tools\MSVC\14.44.35207\include\list

; 596  :     }

  00054	8b c6		 mov	 eax, esi
  00056	8b 4d f4	 mov	 ecx, DWORD PTR __$EHRec$[ebp]
  00059	64 89 0d 00 00
	00 00		 mov	 DWORD PTR fs:0, ecx
  00060	59		 pop	 ecx
  00061	5e		 pop	 esi
  00062	8b e5		 mov	 esp, ebp
  00064	5d		 pop	 ebp
  00065	c2 08 00	 ret	 8
_TEXT	ENDS
;	COMDAT text$x
text$x	SEGMENT
__unwindfunclet$??$?0ABV?$basic_string@DU?$char_traits@D@std@@V?$allocator@D@2@@std@@@?$_List_node_emplace_op2@V?$allocator@U?$_List_node@V?$basic_string@DU?$char_traits@D@std@@V?$allocator@D@2@@std@@PAX@std@@@std@@@std@@QAE@AAV?$allocator@U?$_List_node@V?$basic_string@DU?$char_traits@D@std@@V?$allocator@D@2@@std@@PAX@std@@@1@ABV?$basic_string@DU?$char_traits@D@std@@V?$allocator@D@2@@1@@Z$0:
  00000	8b 4d f0	 mov	 ecx, DWORD PTR _this$[ebp]
  00003	e9 00 00 00 00	 jmp	 ??1?$_Alloc_construct_ptr@V?$allocator@U?$_List_node@V?$basic_string@DU?$char_traits@D@std@@V?$allocator@D@2@@std@@PAX@std@@@std@@@std@@QAE@XZ ; std::_Alloc_construct_ptr<std::allocator<std::_List_node<std::basic_string<char,std::char_traits<char>,std::allocator<char> >,void *> > >::~_Alloc_construct_ptr<std::allocator<std::_List_node<std::basic_string<char,std::char_traits<char>,std::allocator<char> >,void *> > >
  00008	cc		 int	 3
  00009	cc		 int	 3
  0000a	cc		 int	 3
  0000b	cc		 int	 3
  0000c	cc		 int	 3
__ehhandler$??$?0ABV?$basic_string@DU?$char_traits@D@std@@V?$allocator@D@2@@std@@@?$_List_node_emplace_op2@V?$allocator@U?$_List_node@V?$basic_string@DU?$char_traits@D@std@@V?$allocator@D@2@@std@@PAX@std@@@std@@@std@@QAE@AAV?$allocator@U?$_List_node@V?$basic_string@DU?$char_traits@D@std@@V?$allocator@D@2@@std@@PAX@std@@@1@ABV?$basic_string@DU?$char_traits@D@std@@V?$allocator@D@2@@1@@Z:
  0000d	90		 npad	 1
  0000e	90		 npad	 1
  0000f	8b 54 24 08	 mov	 edx, DWORD PTR [esp+8]
  00013	8d 42 0c	 lea	 eax, DWORD PTR [edx+12]
  00016	8b 4a f4	 mov	 ecx, DWORD PTR [edx-12]
  00019	33 c8		 xor	 ecx, eax
  0001b	e8 00 00 00 00	 call	 @__security_check_cookie@4
  00020	b8 00 00 00 00	 mov	 eax, OFFSET __ehfuncinfo$??$?0ABV?$basic_string@DU?$char_traits@D@std@@V?$allocator@D@2@@std@@@?$_List_node_emplace_op2@V?$allocator@U?$_List_node@V?$basic_string@DU?$char_traits@D@std@@V?$allocator@D@2@@std@@PAX@std@@@std@@@std@@QAE@AAV?$allocator@U?$_List_node@V?$basic_string@DU?$char_traits@D@std@@V?$allocator@D@2@@std@@PAX@std@@@1@ABV?$basic_string@DU?$char_traits@D@std@@V?$allocator@D@2@@1@@Z
  00025	e9 00 00 00 00	 jmp	 ___CxxFrameHandler3
text$x	ENDS
??$?0ABV?$basic_string@DU?$char_traits@D@std@@V?$allocator@D@2@@std@@@?$_List_node_emplace_op2@V?$allocator@U?$_List_node@V?$basic_string@DU?$char_traits@D@std@@V?$allocator@D@2@@std@@PAX@std@@@std@@@std@@QAE@AAV?$allocator@U?$_List_node@V?$basic_string@DU?$char_traits@D@std@@V?$allocator@D@2@@std@@PAX@std@@@1@ABV?$basic_string@DU?$char_traits@D@std@@V?$allocator@D@2@@1@@Z ENDP ; std::_List_node_emplace_op2<std::allocator<std::_List_node<std::basic_string<char,std::char_traits<char>,std::allocator<char> >,void *> > >::_List_node_emplace_op2<std::allocator<std::_List_node<std::basic_string<char,std::char_traits<char>,std::allocator<char> >,void *> > ><std::basic_string<char,std::char_traits<char>,std::allocator<char> > const &>
; Function compile flags: /Ogtp
; File C:\Program Files\Microsoft Visual Studio\2022\Community\VC\Tools\MSVC\14.44.35207\include\xutility
;	COMDAT ??$_Construct_in_place@PAU?$_List_node@V?$basic_string@DU?$char_traits@D@std@@V?$allocator@D@2@@std@@PAX@std@@AAPAU12@@std@@YAXAAPAU?$_List_node@V?$basic_string@DU?$char_traits@D@std@@V?$allocator@D@2@@std@@PAX@0@0@Z
_TEXT	SEGMENT
??$_Construct_in_place@PAU?$_List_node@V?$basic_string@DU?$char_traits@D@std@@V?$allocator@D@2@@std@@PAX@std@@AAPAU12@@std@@YAXAAPAU?$_List_node@V?$basic_string@DU?$char_traits@D@std@@V?$allocator@D@2@@std@@PAX@0@0@Z PROC ; std::_Construct_in_place<std::_List_node<std::basic_string<char,std::char_traits<char>,std::allocator<char> >,void *> *,std::_List_node<std::basic_string<char,std::char_traits<char>,std::allocator<char> >,void *> * &>, COMDAT
; __Obj$ = ecx
; _<_Args_0>$ = edx

; 470  : #if _HAS_CXX20
; 471  :     if (_STD is_constant_evaluated()) {
; 472  :         _STD construct_at(_STD addressof(_Obj), _STD forward<_Types>(_Args)...);
; 473  :     } else
; 474  : #endif // _HAS_CXX20
; 475  :     {
; 476  :         ::new (static_cast<void*>(_STD addressof(_Obj))) _Ty(_STD forward<_Types>(_Args)...);
; 477  :     }
; 478  : }

  00000	8b 02		 mov	 eax, DWORD PTR [edx]
  00002	89 01		 mov	 DWORD PTR [ecx], eax
  00004	c3		 ret	 0
??$_Construct_in_place@PAU?$_List_node@V?$basic_string@DU?$char_traits@D@std@@V?$allocator@D@2@@std@@PAX@std@@AAPAU12@@std@@YAXAAPAU?$_List_node@V?$basic_string@DU?$char_traits@D@std@@V?$allocator@D@2@@std@@PAX@0@0@Z ENDP ; std::_Construct_in_place<std::_List_node<std::basic_string<char,std::char_traits<char>,std::allocator<char> >,void *> *,std::_List_node<std::basic_string<char,std::char_traits<char>,std::allocator<char> >,void *> * &>
_TEXT	ENDS
; Function compile flags: /Ogtp
; File C:\Program Files\Microsoft Visual Studio\2022\Community\VC\Tools\MSVC\14.44.35207\include\list
; File C:\Program Files\Microsoft Visual Studio\2022\Community\VC\Tools\MSVC\14.44.35207\include\xmemory
; File C:\Program Files\Microsoft Visual Studio\2022\Community\VC\Tools\MSVC\14.44.35207\include\list
;	COMDAT ??$_Freenode0@V?$allocator@U?$_List_node@V?$basic_string@DU?$char_traits@D@std@@V?$allocator@D@2@@std@@PAX@std@@@std@@@?$_List_node@V?$basic_string@DU?$char_traits@D@std@@V?$allocator@D@2@@std@@PAX@std@@SAXAAV?$allocator@U?$_List_node@V?$basic_string@DU?$char_traits@D@std@@V?$allocator@D@2@@std@@PAX@std@@@1@PAU01@@Z
_TEXT	SEGMENT
??$_Freenode0@V?$allocator@U?$_List_node@V?$basic_string@DU?$char_traits@D@std@@V?$allocator@D@2@@std@@PAX@std@@@std@@@?$_List_node@V?$basic_string@DU?$char_traits@D@std@@V?$allocator@D@2@@std@@PAX@std@@SAXAAV?$allocator@U?$_List_node@V?$basic_string@DU?$char_traits@D@std@@V?$allocator@D@2@@std@@PAX@std@@@1@PAU01@@Z PROC ; std::_List_node<std::basic_string<char,std::char_traits<char>,std::allocator<char> >,void *>::_Freenode0<std::allocator<std::_List_node<std::basic_string<char,std::char_traits<char>,std::allocator<char> >,void *> > >, COMDAT
; __Al$dead$ = ecx
; __Ptr$ = edx
; File C:\Program Files\Microsoft Visual Studio\2022\Community\VC\Tools\MSVC\14.44.35207\include\xmemory

; 289  :         ::operator delete(_Ptr, _Bytes);

  00000	6a 20		 push	 32			; 00000020H
  00002	52		 push	 edx
  00003	e8 00 00 00 00	 call	 ??3@YAXPAXI@Z		; operator delete
  00008	83 c4 08	 add	 esp, 8
; File C:\Program Files\Microsoft Visual Studio\2022\Community\VC\Tools\MSVC\14.44.35207\include\list

; 313  :     }

  0000b	c3		 ret	 0
??$_Freenode0@V?$allocator@U?$_List_node@V?$basic_string@DU?$char_traits@D@std@@V?$allocator@D@2@@std@@PAX@std@@@std@@@?$_List_node@V?$basic_string@DU?$char_traits@D@std@@V?$allocator@D@2@@std@@PAX@std@@SAXAAV?$allocator@U?$_List_node@V?$basic_string@DU?$char_traits@D@std@@V?$allocator@D@2@@std@@PAX@std@@@1@PAU01@@Z ENDP ; std::_List_node<std::basic_string<char,std::char_traits<char>,std::allocator<char> >,void *>::_Freenode0<std::allocator<std::_List_node<std::basic_string<char,std::char_traits<char>,std::allocator<char> >,void *> > >
_TEXT	ENDS
; Function compile flags: /Ogtp
; File C:\Program Files\Microsoft Visual Studio\2022\Community\VC\Tools\MSVC\14.44.35207\include\list
;	COMDAT ?_Transfer_before@?$_List_node_emplace_op2@V?$allocator@U?$_List_node@V?$basic_string@DU?$char_traits@D@std@@V?$allocator@D@2@@std@@PAX@std@@@std@@@std@@QAEPAU?$_List_node@V?$basic_string@DU?$char_traits@D@std@@V?$allocator@D@2@@std@@PAX@2@QAU32@@Z
_TEXT	SEGMENT
__Insert_before$ = 8					; size = 4
?_Transfer_before@?$_List_node_emplace_op2@V?$allocator@U?$_List_node@V?$basic_string@DU?$char_traits@D@std@@V?$allocator@D@2@@std@@PAX@std@@@std@@@std@@QAEPAU?$_List_node@V?$basic_string@DU?$char_traits@D@std@@V?$allocator@D@2@@std@@PAX@2@QAU32@@Z PROC ; std::_List_node_emplace_op2<std::allocator<std::_List_node<std::basic_string<char,std::char_traits<char>,std::allocator<char> >,void *> > >::_Transfer_before, COMDAT
; _this$ = ecx

; 607  :     pointer _Transfer_before(const pointer _Insert_before) noexcept {

  00000	55		 push	 ebp
  00001	8b ec		 mov	 ebp, esp

; 608  :         const pointer _Insert_after = _Insert_before->_Prev;
; 609  :         _Construct_in_place(this->_Ptr->_Next, _Insert_before);

  00003	8b 41 04	 mov	 eax, DWORD PTR [ecx+4]
  00006	56		 push	 esi
  00007	8b 75 08	 mov	 esi, DWORD PTR __Insert_before$[ebp]
  0000a	8b 56 04	 mov	 edx, DWORD PTR [esi+4]
  0000d	89 30		 mov	 DWORD PTR [eax], esi

; 610  :         _Construct_in_place(this->_Ptr->_Prev, _Insert_after);

  0000f	8b 41 04	 mov	 eax, DWORD PTR [ecx+4]
  00012	89 50 04	 mov	 DWORD PTR [eax+4], edx

; 611  :         const auto _Result    = this->_Ptr;

  00015	8b 41 04	 mov	 eax, DWORD PTR [ecx+4]

; 612  :         this->_Ptr            = pointer{};

  00018	c7 41 04 00 00
	00 00		 mov	 DWORD PTR [ecx+4], 0

; 613  :         _Insert_before->_Prev = _Result;

  0001f	89 46 04	 mov	 DWORD PTR [esi+4], eax

; 614  :         _Insert_after->_Next  = _Result;

  00022	89 02		 mov	 DWORD PTR [edx], eax

; 615  :         return _Result;

  00024	5e		 pop	 esi

; 616  :     }

  00025	5d		 pop	 ebp
  00026	c2 04 00	 ret	 4
?_Transfer_before@?$_List_node_emplace_op2@V?$allocator@U?$_List_node@V?$basic_string@DU?$char_traits@D@std@@V?$allocator@D@2@@std@@PAX@std@@@std@@@std@@QAEPAU?$_List_node@V?$basic_string@DU?$char_traits@D@std@@V?$allocator@D@2@@std@@PAX@2@QAU32@@Z ENDP ; std::_List_node_emplace_op2<std::allocator<std::_List_node<std::basic_string<char,std::char_traits<char>,std::allocator<char> >,void *> > >::_Transfer_before
_TEXT	ENDS
; Function compile flags: /Ogtp
; File C:\Program Files\Microsoft Visual Studio\2022\Community\VC\Tools\MSVC\14.44.35207\include\list
; File C:\Program Files\Microsoft Visual Studio\2022\Community\VC\Tools\MSVC\14.44.35207\include\xstring
; File C:\Program Files\Microsoft Visual Studio\2022\Community\VC\Tools\MSVC\14.44.35207\include\xmemory
; File C:\Program Files\Microsoft Visual Studio\2022\Community\VC\Tools\MSVC\14.44.35207\include\list
;	COMDAT ??1?$_List_node_emplace_op2@V?$allocator@U?$_List_node@V?$basic_string@DU?$char_traits@D@std@@V?$allocator@D@2@@std@@PAX@std@@@std@@@std@@QAE@XZ
_TEXT	SEGMENT
??1?$_List_node_emplace_op2@V?$allocator@U?$_List_node@V?$basic_string@DU?$char_traits@D@std@@V?$allocator@D@2@@std@@PAX@std@@@std@@@std@@QAE@XZ PROC ; std::_List_node_emplace_op2<std::allocator<std::_List_node<std::basic_string<char,std::char_traits<char>,std::allocator<char> >,void *> > >::~_List_node_emplace_op2<std::allocator<std::_List_node<std::basic_string<char,std::char_traits<char>,std::allocator<char> >,void *> > >, COMDAT
; _this$ = ecx

; 598  :     ~_List_node_emplace_op2() {

  00000	56		 push	 esi
  00001	8b f1		 mov	 esi, ecx

; 599  :         if (this->_Ptr != pointer{}) {

  00003	8b 4e 04	 mov	 ecx, DWORD PTR [esi+4]
  00006	85 c9		 test	 ecx, ecx
  00008	74 08		 je	 SHORT $LN11@List_node_

; 600  :             _Alnode_traits::destroy(this->_Al, _STD addressof(this->_Ptr->_Myval));

  0000a	83 c1 08	 add	 ecx, 8
; File C:\Program Files\Microsoft Visual Studio\2022\Community\VC\Tools\MSVC\14.44.35207\include\xstring

; 1383 :         _Tidy_deallocate();

  0000d	e8 00 00 00 00	 call	 ?_Tidy_deallocate@?$basic_string@DU?$char_traits@D@std@@V?$allocator@D@2@@std@@AAEXXZ ; std::basic_string<char,std::char_traits<char>,std::allocator<char> >::_Tidy_deallocate
$LN11@List_node_:
; File C:\Program Files\Microsoft Visual Studio\2022\Community\VC\Tools\MSVC\14.44.35207\include\xmemory

; 1172 :         if (_Ptr) {

  00012	8b 46 04	 mov	 eax, DWORD PTR [esi+4]
  00015	5e		 pop	 esi
  00016	85 c0		 test	 eax, eax
  00018	74 0b		 je	 SHORT $LN26@List_node_

; 289  :         ::operator delete(_Ptr, _Bytes);

  0001a	6a 20		 push	 32			; 00000020H
  0001c	50		 push	 eax
  0001d	e8 00 00 00 00	 call	 ??3@YAXPAXI@Z		; operator delete
  00022	83 c4 08	 add	 esp, 8
$LN26@List_node_:
; File C:\Program Files\Microsoft Visual Studio\2022\Community\VC\Tools\MSVC\14.44.35207\include\list

; 602  :     }

  00025	c3		 ret	 0
??1?$_List_node_emplace_op2@V?$allocator@U?$_List_node@V?$basic_string@DU?$char_traits@D@std@@V?$allocator@D@2@@std@@PAX@std@@@std@@@std@@QAE@XZ ENDP ; std::_List_node_emplace_op2<std::allocator<std::_List_node<std::basic_string<char,std::char_traits<char>,std::allocator<char> >,void *> > >::~_List_node_emplace_op2<std::allocator<std::_List_node<std::basic_string<char,std::char_traits<char>,std::allocator<char> >,void *> > >
_TEXT	ENDS
; Function compile flags: /Ogtp
; File C:\Program Files\Microsoft Visual Studio\2022\Community\VC\Tools\MSVC\14.44.35207\include\xmemory
;	COMDAT ?_Get_first@?$_Compressed_pair@V?$allocator@U?$_List_node@V?$basic_string@DU?$char_traits@D@std@@V?$allocator@D@2@@std@@PAX@std@@@std@@V?$_List_val@U?$_List_simple_types@V?$basic_string@DU?$char_traits@D@std@@V?$allocator@D@2@@std@@@std@@@2@$00@std@@QAEAAV?$allocator@U?$_List_node@V?$basic_string@DU?$char_traits@D@std@@V?$allocator@D@2@@std@@PAX@std@@@2@XZ
_TEXT	SEGMENT
?_Get_first@?$_Compressed_pair@V?$allocator@U?$_List_node@V?$basic_string@DU?$char_traits@D@std@@V?$allocator@D@2@@std@@PAX@std@@@std@@V?$_List_val@U?$_List_simple_types@V?$basic_string@DU?$char_traits@D@std@@V?$allocator@D@2@@std@@@std@@@2@$00@std@@QAEAAV?$allocator@U?$_List_node@V?$basic_string@DU?$char_traits@D@std@@V?$allocator@D@2@@std@@PAX@std@@@2@XZ PROC ; std::_Compressed_pair<std::allocator<std::_List_node<std::basic_string<char,std::char_traits<char>,std::allocator<char> >,void *> >,std::_List_val<std::_List_simple_types<std::basic_string<char,std::char_traits<char>,std::allocator<char> > > >,1>::_Get_first, COMDAT
; _this$ = ecx

; 1539 :         return *this;

  00000	8b c1		 mov	 eax, ecx

; 1540 :     }

  00002	c3		 ret	 0
?_Get_first@?$_Compressed_pair@V?$allocator@U?$_List_node@V?$basic_string@DU?$char_traits@D@std@@V?$allocator@D@2@@std@@PAX@std@@@std@@V?$_List_val@U?$_List_simple_types@V?$basic_string@DU?$char_traits@D@std@@V?$allocator@D@2@@std@@@std@@@2@$00@std@@QAEAAV?$allocator@U?$_List_node@V?$basic_string@DU?$char_traits@D@std@@V?$allocator@D@2@@std@@PAX@std@@@2@XZ ENDP ; std::_Compressed_pair<std::allocator<std::_List_node<std::basic_string<char,std::char_traits<char>,std::allocator<char> >,void *> >,std::_List_val<std::_List_simple_types<std::basic_string<char,std::char_traits<char>,std::allocator<char> > > >,1>::_Get_first
_TEXT	ENDS
; Function compile flags: /Ogtp
; File C:\Program Files\Microsoft Visual Studio\2022\Community\VC\Tools\MSVC\14.44.35207\include\list
;	COMDAT ??0?$_List_val@U?$_List_simple_types@V?$basic_string@DU?$char_traits@D@std@@V?$allocator@D@2@@std@@@std@@@std@@QAE@XZ
_TEXT	SEGMENT
??0?$_List_val@U?$_List_simple_types@V?$basic_string@DU?$char_traits@D@std@@V?$allocator@D@2@@std@@@std@@@std@@QAE@XZ PROC ; std::_List_val<std::_List_simple_types<std::basic_string<char,std::char_traits<char>,std::allocator<char> > > >::_List_val<std::_List_simple_types<std::basic_string<char,std::char_traits<char>,std::allocator<char> > > >, COMDAT
; _this$ = ecx

; 353  :     _List_val() noexcept : _Myhead(), _Mysize(0) {} // initialize data

  00000	c7 01 00 00 00
	00		 mov	 DWORD PTR [ecx], 0
  00006	8b c1		 mov	 eax, ecx
  00008	c7 41 04 00 00
	00 00		 mov	 DWORD PTR [ecx+4], 0
  0000f	c3		 ret	 0
??0?$_List_val@U?$_List_simple_types@V?$basic_string@DU?$char_traits@D@std@@V?$allocator@D@2@@std@@@std@@@std@@QAE@XZ ENDP ; std::_List_val<std::_List_simple_types<std::basic_string<char,std::char_traits<char>,std::allocator<char> > > >::_List_val<std::_List_simple_types<std::basic_string<char,std::char_traits<char>,std::allocator<char> > > >
_TEXT	ENDS
; Function compile flags: /Ogtp
; File C:\Program Files\Microsoft Visual Studio\2022\Community\VC\Tools\MSVC\14.44.35207\include\xmemory
;	COMDAT ?allocate@?$allocator@U?$_List_node@V?$basic_string@DU?$char_traits@D@std@@V?$allocator@D@2@@std@@PAX@std@@@std@@QAEPAU?$_List_node@V?$basic_string@DU?$char_traits@D@std@@V?$allocator@D@2@@std@@PAX@2@I@Z
_TEXT	SEGMENT
__Count$dead$ = 8					; size = 4
?allocate@?$allocator@U?$_List_node@V?$basic_string@DU?$char_traits@D@std@@V?$allocator@D@2@@std@@PAX@std@@@std@@QAEPAU?$_List_node@V?$basic_string@DU?$char_traits@D@std@@V?$allocator@D@2@@std@@PAX@2@I@Z PROC ; std::allocator<std::_List_node<std::basic_string<char,std::char_traits<char>,std::allocator<char> >,void *> >::allocate, COMDAT
; _this$dead$ = ecx

; 989  :         static_assert(sizeof(value_type) > 0, "value_type must be complete before calling allocate.");
; 990  :         return static_cast<_Ty*>(_STD _Allocate<_New_alignof<_Ty>>(_Get_size_of_n<sizeof(_Ty)>(_Count)));

  00000	6a 20		 push	 32			; 00000020H
  00002	e8 00 00 00 00	 call	 ??2@YAPAXI@Z		; operator new
  00007	83 c4 04	 add	 esp, 4

; 991  :     }

  0000a	c2 04 00	 ret	 4
?allocate@?$allocator@U?$_List_node@V?$basic_string@DU?$char_traits@D@std@@V?$allocator@D@2@@std@@PAX@std@@@std@@QAEPAU?$_List_node@V?$basic_string@DU?$char_traits@D@std@@V?$allocator@D@2@@std@@PAX@2@I@Z ENDP ; std::allocator<std::_List_node<std::basic_string<char,std::char_traits<char>,std::allocator<char> >,void *> >::allocate
_TEXT	ENDS
; Function compile flags: /Ogtp
; File C:\Program Files\Microsoft Visual Studio\2022\Community\VC\Tools\MSVC\14.44.35207\include\xmemory
;	COMDAT ??0?$allocator@U?$_List_node@V?$basic_string@DU?$char_traits@D@std@@V?$allocator@D@2@@std@@PAX@std@@@std@@QAE@XZ
_TEXT	SEGMENT
??0?$allocator@U?$_List_node@V?$basic_string@DU?$char_traits@D@std@@V?$allocator@D@2@@std@@PAX@std@@@std@@QAE@XZ PROC ; std::allocator<std::_List_node<std::basic_string<char,std::char_traits<char>,std::allocator<char> >,void *> >::allocator<std::_List_node<std::basic_string<char,std::char_traits<char>,std::allocator<char> >,void *> >, COMDAT
; _this$ = ecx

; 974  :     constexpr allocator() noexcept {}

  00000	8b c1		 mov	 eax, ecx
  00002	c3		 ret	 0
??0?$allocator@U?$_List_node@V?$basic_string@DU?$char_traits@D@std@@V?$allocator@D@2@@std@@PAX@std@@@std@@QAE@XZ ENDP ; std::allocator<std::_List_node<std::basic_string<char,std::char_traits<char>,std::allocator<char> >,void *> >::allocator<std::_List_node<std::basic_string<char,std::char_traits<char>,std::allocator<char> >,void *> >
_TEXT	ENDS
; Function compile flags: /Ogtp
; File C:\Program Files\Microsoft Visual Studio\2022\Community\VC\Tools\MSVC\14.44.35207\include\list
;	COMDAT ?max_size@?$list@V?$basic_string@DU?$char_traits@D@std@@V?$allocator@D@2@@std@@V?$allocator@V?$basic_string@DU?$char_traits@D@std@@V?$allocator@D@2@@std@@@2@@std@@QBEIXZ
_TEXT	SEGMENT
?max_size@?$list@V?$basic_string@DU?$char_traits@D@std@@V?$allocator@D@2@@std@@V?$allocator@V?$basic_string@DU?$char_traits@D@std@@V?$allocator@D@2@@std@@@2@@std@@QBEIXZ PROC ; std::list<std::basic_string<char,std::char_traits<char>,std::allocator<char> >,std::allocator<std::basic_string<char,std::char_traits<char>,std::allocator<char> > > >::max_size, COMDAT
; _this$dead$ = ecx

; 1208 :         return (_STD min)(

  00000	b8 ff ff ff 07	 mov	 eax, 134217727		; 07ffffffH

; 1209 :             static_cast<size_type>(_STD _Max_limit<difference_type>()), _Alnode_traits::max_size(_Getal()));
; 1210 :     }

  00005	c3		 ret	 0
?max_size@?$list@V?$basic_string@DU?$char_traits@D@std@@V?$allocator@D@2@@std@@V?$allocator@V?$basic_string@DU?$char_traits@D@std@@V?$allocator@D@2@@std@@@2@@std@@QBEIXZ ENDP ; std::list<std::basic_string<char,std::char_traits<char>,std::allocator<char> >,std::allocator<std::basic_string<char,std::char_traits<char>,std::allocator<char> > > >::max_size
_TEXT	ENDS
; Function compile flags: /Ogtp
; File C:\Program Files\Microsoft Visual Studio\2022\Community\VC\Tools\MSVC\14.44.35207\include\xmemory
; File C:\Program Files\Microsoft Visual Studio\2022\Community\VC\Tools\MSVC\14.44.35207\include\xstring
; File C:\Program Files\Microsoft Visual Studio\2022\Community\VC\Tools\MSVC\14.44.35207\include\xmemory
;	COMDAT ??$destroy@V?$basic_string@DU?$char_traits@D@std@@V?$allocator@D@2@@std@@@?$_Default_allocator_traits@V?$allocator@U?$_List_node@V?$basic_string@DU?$char_traits@D@std@@V?$allocator@D@2@@std@@PAX@std@@@std@@@std@@SAXAAV?$allocator@U?$_List_node@V?$basic_string@DU?$char_traits@D@std@@V?$allocator@D@2@@std@@PAX@std@@@1@QAV?$basic_string@DU?$char_traits@D@std@@V?$allocator@D@2@@1@@Z
_TEXT	SEGMENT
??$destroy@V?$basic_string@DU?$char_traits@D@std@@V?$allocator@D@2@@std@@@?$_Default_allocator_traits@V?$allocator@U?$_List_node@V?$basic_string@DU?$char_traits@D@std@@V?$allocator@D@2@@std@@PAX@std@@@std@@@std@@SAXAAV?$allocator@U?$_List_node@V?$basic_string@DU?$char_traits@D@std@@V?$allocator@D@2@@std@@PAX@std@@@1@QAV?$basic_string@DU?$char_traits@D@std@@V?$allocator@D@2@@1@@Z PROC ; std::_Default_allocator_traits<std::allocator<std::_List_node<std::basic_string<char,std::char_traits<char>,std::allocator<char> >,void *> > >::destroy<std::basic_string<char,std::char_traits<char>,std::allocator<char> > >, COMDAT
; ___formal$dead$ = ecx
; __Ptr$ = edx
; File C:\Program Files\Microsoft Visual Studio\2022\Community\VC\Tools\MSVC\14.44.35207\include\xstring

; 1383 :         _Tidy_deallocate();

  00000	8b ca		 mov	 ecx, edx
  00002	e9 00 00 00 00	 jmp	 ?_Tidy_deallocate@?$basic_string@DU?$char_traits@D@std@@V?$allocator@D@2@@std@@AAEXXZ ; std::basic_string<char,std::char_traits<char>,std::allocator<char> >::_Tidy_deallocate
??$destroy@V?$basic_string@DU?$char_traits@D@std@@V?$allocator@D@2@@std@@@?$_Default_allocator_traits@V?$allocator@U?$_List_node@V?$basic_string@DU?$char_traits@D@std@@V?$allocator@D@2@@std@@PAX@std@@@std@@@std@@SAXAAV?$allocator@U?$_List_node@V?$basic_string@DU?$char_traits@D@std@@V?$allocator@D@2@@std@@PAX@std@@@1@QAV?$basic_string@DU?$char_traits@D@std@@V?$allocator@D@2@@1@@Z ENDP ; std::_Default_allocator_traits<std::allocator<std::_List_node<std::basic_string<char,std::char_traits<char>,std::allocator<char> >,void *> > >::destroy<std::basic_string<char,std::char_traits<char>,std::allocator<char> > >
_TEXT	ENDS
; Function compile flags: /Ogtp
; File C:\Program Files\Microsoft Visual Studio\2022\Community\VC\Tools\MSVC\14.44.35207\include\xmemory
; File C:\Program Files\Microsoft Visual Studio\2022\Community\VC\Tools\MSVC\14.44.35207\include\xutility
; File C:\Program Files\Microsoft Visual Studio\2022\Community\VC\Tools\MSVC\14.44.35207\include\xmemory
;	COMDAT ??$construct@V?$basic_string@DU?$char_traits@D@std@@V?$allocator@D@2@@std@@ABV12@@?$_Default_allocator_traits@V?$allocator@U?$_List_node@V?$basic_string@DU?$char_traits@D@std@@V?$allocator@D@2@@std@@PAX@std@@@std@@@std@@SAXAAV?$allocator@U?$_List_node@V?$basic_string@DU?$char_traits@D@std@@V?$allocator@D@2@@std@@PAX@std@@@1@QAV?$basic_string@DU?$char_traits@D@std@@V?$allocator@D@2@@1@ABV31@@Z
_TEXT	SEGMENT
_<_Args_0>$ = 8						; size = 4
??$construct@V?$basic_string@DU?$char_traits@D@std@@V?$allocator@D@2@@std@@ABV12@@?$_Default_allocator_traits@V?$allocator@U?$_List_node@V?$basic_string@DU?$char_traits@D@std@@V?$allocator@D@2@@std@@PAX@std@@@std@@@std@@SAXAAV?$allocator@U?$_List_node@V?$basic_string@DU?$char_traits@D@std@@V?$allocator@D@2@@std@@PAX@std@@@1@QAV?$basic_string@DU?$char_traits@D@std@@V?$allocator@D@2@@1@ABV31@@Z PROC ; std::_Default_allocator_traits<std::allocator<std::_List_node<std::basic_string<char,std::char_traits<char>,std::allocator<char> >,void *> > >::construct<std::basic_string<char,std::char_traits<char>,std::allocator<char> >,std::basic_string<char,std::char_traits<char>,std::allocator<char> > const &>, COMDAT
; ___formal$dead$ = ecx
; __Ptr$ = edx

; 728  :     static _CONSTEXPR20 void construct(_Alloc&, _Objty* const _Ptr, _Types&&... _Args) {

  00000	55		 push	 ebp
  00001	8b ec		 mov	 ebp, esp
; File C:\Program Files\Microsoft Visual Studio\2022\Community\VC\Tools\MSVC\14.44.35207\include\xutility

; 463  :     _MSVC_CONSTEXPR return ::new (static_cast<void*>(_Location)) _Ty(_STD forward<_Types>(_Args)...);

  00003	ff 75 08	 push	 DWORD PTR _<_Args_0>$[ebp]
  00006	8b ca		 mov	 ecx, edx
  00008	e8 00 00 00 00	 call	 ??0?$basic_string@DU?$char_traits@D@std@@V?$allocator@D@2@@std@@QAE@ABV01@@Z ; std::basic_string<char,std::char_traits<char>,std::allocator<char> >::basic_string<char,std::char_traits<char>,std::allocator<char> >
; File C:\Program Files\Microsoft Visual Studio\2022\Community\VC\Tools\MSVC\14.44.35207\include\xmemory

; 734  :     }

  0000d	5d		 pop	 ebp
  0000e	c3		 ret	 0
??$construct@V?$basic_string@DU?$char_traits@D@std@@V?$allocator@D@2@@std@@ABV12@@?$_Default_allocator_traits@V?$allocator@U?$_List_node@V?$basic_string@DU?$char_traits@D@std@@V?$allocator@D@2@@std@@PAX@std@@@std@@@std@@SAXAAV?$allocator@U?$_List_node@V?$basic_string@DU?$char_traits@D@std@@V?$allocator@D@2@@std@@PAX@std@@@1@QAV?$basic_string@DU?$char_traits@D@std@@V?$allocator@D@2@@1@ABV31@@Z ENDP ; std::_Default_allocator_traits<std::allocator<std::_List_node<std::basic_string<char,std::char_traits<char>,std::allocator<char> >,void *> > >::construct<std::basic_string<char,std::char_traits<char>,std::allocator<char> >,std::basic_string<char,std::char_traits<char>,std::allocator<char> > const &>
_TEXT	ENDS
; Function compile flags: /Ogtp
; File C:\Program Files\Microsoft Visual Studio\2022\Community\VC\Tools\MSVC\14.44.35207\include\type_traits
;	COMDAT ??$addressof@PAU?$_List_node@V?$basic_string@DU?$char_traits@D@std@@V?$allocator@D@2@@std@@PAX@std@@@std@@YAPAPAU?$_List_node@V?$basic_string@DU?$char_traits@D@std@@V?$allocator@D@2@@std@@PAX@0@AAPAU10@@Z
_TEXT	SEGMENT
??$addressof@PAU?$_List_node@V?$basic_string@DU?$char_traits@D@std@@V?$allocator@D@2@@std@@PAX@std@@@std@@YAPAPAU?$_List_node@V?$basic_string@DU?$char_traits@D@std@@V?$allocator@D@2@@std@@PAX@0@AAPAU10@@Z PROC ; std::addressof<std::_List_node<std::basic_string<char,std::char_traits<char>,std::allocator<char> >,void *> *>, COMDAT
; __Val$ = ecx

; 1525 :     return __builtin_addressof(_Val);

  00000	8b c1		 mov	 eax, ecx

; 1526 : }

  00002	c3		 ret	 0
??$addressof@PAU?$_List_node@V?$basic_string@DU?$char_traits@D@std@@V?$allocator@D@2@@std@@PAX@std@@@std@@YAPAPAU?$_List_node@V?$basic_string@DU?$char_traits@D@std@@V?$allocator@D@2@@std@@PAX@0@AAPAU10@@Z ENDP ; std::addressof<std::_List_node<std::basic_string<char,std::char_traits<char>,std::allocator<char> >,void *> *>
_TEXT	ENDS
; Function compile flags: /Ogtp
; File C:\Program Files\Microsoft Visual Studio\2022\Community\VC\Tools\MSVC\14.44.35207\include\type_traits
;	COMDAT ??$forward@AAPAU?$_List_node@V?$basic_string@DU?$char_traits@D@std@@V?$allocator@D@2@@std@@PAX@std@@@std@@YAAAPAU?$_List_node@V?$basic_string@DU?$char_traits@D@std@@V?$allocator@D@2@@std@@PAX@0@AAPAU10@@Z
_TEXT	SEGMENT
??$forward@AAPAU?$_List_node@V?$basic_string@DU?$char_traits@D@std@@V?$allocator@D@2@@std@@PAX@std@@@std@@YAAAPAU?$_List_node@V?$basic_string@DU?$char_traits@D@std@@V?$allocator@D@2@@std@@PAX@0@AAPAU10@@Z PROC ; std::forward<std::_List_node<std::basic_string<char,std::char_traits<char>,std::allocator<char> >,void *> * &>, COMDAT
; __Arg$ = ecx

; 1502 :     return static_cast<_Ty&&>(_Arg);

  00000	8b c1		 mov	 eax, ecx

; 1503 : }

  00002	c3		 ret	 0
??$forward@AAPAU?$_List_node@V?$basic_string@DU?$char_traits@D@std@@V?$allocator@D@2@@std@@PAX@std@@@std@@YAAAPAU?$_List_node@V?$basic_string@DU?$char_traits@D@std@@V?$allocator@D@2@@std@@PAX@0@AAPAU10@@Z ENDP ; std::forward<std::_List_node<std::basic_string<char,std::char_traits<char>,std::allocator<char> >,void *> * &>
_TEXT	ENDS
; Function compile flags: /Ogtp
; File C:\Program Files\Microsoft Visual Studio\2022\Community\VC\Tools\MSVC\14.44.35207\include\xutility
;	COMDAT ??$construct_at@PAU?$_List_node@V?$basic_string@DU?$char_traits@D@std@@V?$allocator@D@2@@std@@PAX@std@@AAPAU12@@std@@YAPAPAU?$_List_node@V?$basic_string@DU?$char_traits@D@std@@V?$allocator@D@2@@std@@PAX@0@QAPAU10@AAPAU10@@Z
_TEXT	SEGMENT
??$construct_at@PAU?$_List_node@V?$basic_string@DU?$char_traits@D@std@@V?$allocator@D@2@@std@@PAX@std@@AAPAU12@@std@@YAPAPAU?$_List_node@V?$basic_string@DU?$char_traits@D@std@@V?$allocator@D@2@@std@@PAX@0@QAPAU10@AAPAU10@@Z PROC ; std::construct_at<std::_List_node<std::basic_string<char,std::char_traits<char>,std::allocator<char> >,void *> *,std::_List_node<std::basic_string<char,std::char_traits<char>,std::allocator<char> >,void *> * &>, COMDAT
; __Location$ = ecx
; _<_Args_0>$ = edx

; 463  :     _MSVC_CONSTEXPR return ::new (static_cast<void*>(_Location)) _Ty(_STD forward<_Types>(_Args)...);

  00000	8b 02		 mov	 eax, DWORD PTR [edx]
  00002	89 01		 mov	 DWORD PTR [ecx], eax
  00004	8b c1		 mov	 eax, ecx

; 464  : }

  00006	c3		 ret	 0
??$construct_at@PAU?$_List_node@V?$basic_string@DU?$char_traits@D@std@@V?$allocator@D@2@@std@@PAX@std@@AAPAU12@@std@@YAPAPAU?$_List_node@V?$basic_string@DU?$char_traits@D@std@@V?$allocator@D@2@@std@@PAX@0@QAPAU10@AAPAU10@@Z ENDP ; std::construct_at<std::_List_node<std::basic_string<char,std::char_traits<char>,std::allocator<char> >,void *> *,std::_List_node<std::basic_string<char,std::char_traits<char>,std::allocator<char> >,void *> * &>
_TEXT	ENDS
; Function compile flags: /Ogtp
; File C:\Program Files\Microsoft Visual Studio\2022\Community\VC\Tools\MSVC\14.44.35207\include\xmemory
;	COMDAT ??$_Destroy_in_place@PAU?$_List_node@V?$basic_string@DU?$char_traits@D@std@@V?$allocator@D@2@@std@@PAX@std@@@std@@YAXAAPAU?$_List_node@V?$basic_string@DU?$char_traits@D@std@@V?$allocator@D@2@@std@@PAX@0@@Z
_TEXT	SEGMENT
??$_Destroy_in_place@PAU?$_List_node@V?$basic_string@DU?$char_traits@D@std@@V?$allocator@D@2@@std@@PAX@std@@@std@@YAXAAPAU?$_List_node@V?$basic_string@DU?$char_traits@D@std@@V?$allocator@D@2@@std@@PAX@0@@Z PROC ; std::_Destroy_in_place<std::_List_node<std::basic_string<char,std::char_traits<char>,std::allocator<char> >,void *> *>, COMDAT
; __Obj$dead$ = ecx

; 321  :     if constexpr (is_array_v<_Ty>) {
; 322  :         _STD _Destroy_range(_Obj, _Obj + extent_v<_Ty>);
; 323  :     } else {
; 324  :         _Obj.~_Ty();
; 325  :     }
; 326  : }

  00000	c2 00 00	 ret	 0
??$_Destroy_in_place@PAU?$_List_node@V?$basic_string@DU?$char_traits@D@std@@V?$allocator@D@2@@std@@PAX@std@@@std@@YAXAAPAU?$_List_node@V?$basic_string@DU?$char_traits@D@std@@V?$allocator@D@2@@std@@PAX@0@@Z ENDP ; std::_Destroy_in_place<std::_List_node<std::basic_string<char,std::char_traits<char>,std::allocator<char> >,void *> *>
_TEXT	ENDS
; Function compile flags: /Ogtp
; File C:\Program Files\Microsoft Visual Studio\2022\Community\VC\Tools\MSVC\14.44.35207\include\xutility
;	COMDAT ??$_Construct_in_place@PAU?$_List_node@V?$basic_string@DU?$char_traits@D@std@@V?$allocator@D@2@@std@@PAX@std@@ABQAU12@@std@@YAXAAPAU?$_List_node@V?$basic_string@DU?$char_traits@D@std@@V?$allocator@D@2@@std@@PAX@0@ABQAU10@@Z
_TEXT	SEGMENT
??$_Construct_in_place@PAU?$_List_node@V?$basic_string@DU?$char_traits@D@std@@V?$allocator@D@2@@std@@PAX@std@@ABQAU12@@std@@YAXAAPAU?$_List_node@V?$basic_string@DU?$char_traits@D@std@@V?$allocator@D@2@@std@@PAX@0@ABQAU10@@Z PROC ; std::_Construct_in_place<std::_List_node<std::basic_string<char,std::char_traits<char>,std::allocator<char> >,void *> *,std::_List_node<std::basic_string<char,std::char_traits<char>,std::allocator<char> >,void *> * const &>, COMDAT
; __Obj$ = ecx
; _<_Args_0>$ = edx

; 470  : #if _HAS_CXX20
; 471  :     if (_STD is_constant_evaluated()) {
; 472  :         _STD construct_at(_STD addressof(_Obj), _STD forward<_Types>(_Args)...);
; 473  :     } else
; 474  : #endif // _HAS_CXX20
; 475  :     {
; 476  :         ::new (static_cast<void*>(_STD addressof(_Obj))) _Ty(_STD forward<_Types>(_Args)...);
; 477  :     }
; 478  : }

  00000	8b 02		 mov	 eax, DWORD PTR [edx]
  00002	89 01		 mov	 DWORD PTR [ecx], eax
  00004	c3		 ret	 0
??$_Construct_in_place@PAU?$_List_node@V?$basic_string@DU?$char_traits@D@std@@V?$allocator@D@2@@std@@PAX@std@@ABQAU12@@std@@YAXAAPAU?$_List_node@V?$basic_string@DU?$char_traits@D@std@@V?$allocator@D@2@@std@@PAX@0@ABQAU10@@Z ENDP ; std::_Construct_in_place<std::_List_node<std::basic_string<char,std::char_traits<char>,std::allocator<char> >,void *> *,std::_List_node<std::basic_string<char,std::char_traits<char>,std::allocator<char> >,void *> * const &>
_TEXT	ENDS
; Function compile flags: /Ogtp
; File C:\Program Files\Microsoft Visual Studio\2022\Community\VC\Tools\MSVC\14.44.35207\include\xmemory
;	COMDAT ??$_Get_size_of_n@$0CA@@std@@YAII@Z
_TEXT	SEGMENT
??$_Get_size_of_n@$0CA@@std@@YAII@Z PROC		; std::_Get_size_of_n<32>, COMDAT
; __Count$dead$ = ecx

; 113  :     constexpr bool _Overflow_is_possible = _Ty_size > 1;
; 114  : 
; 115  :     if constexpr (_Overflow_is_possible) {
; 116  :         constexpr size_t _Max_possible = static_cast<size_t>(-1) / _Ty_size;
; 117  :         if (_Count > _Max_possible) {
; 118  :             _Throw_bad_array_new_length(); // multiply overflow
; 119  :         }
; 120  :     }
; 121  : 
; 122  :     return _Count * _Ty_size;

  00000	b8 20 00 00 00	 mov	 eax, 32			; 00000020H

; 123  : }

  00005	c3		 ret	 0
??$_Get_size_of_n@$0CA@@std@@YAII@Z ENDP		; std::_Get_size_of_n<32>
_TEXT	ENDS
; Function compile flags: /Ogtp
; File C:\Program Files\Microsoft Visual Studio\2022\Community\VC\Tools\MSVC\14.44.35207\include\xmemory
;	COMDAT ??1?$_Alloc_construct_ptr@V?$allocator@U?$_List_node@V?$basic_string@DU?$char_traits@D@std@@V?$allocator@D@2@@std@@PAX@std@@@std@@@std@@QAE@XZ
_TEXT	SEGMENT
??1?$_Alloc_construct_ptr@V?$allocator@U?$_List_node@V?$basic_string@DU?$char_traits@D@std@@V?$allocator@D@2@@std@@PAX@std@@@std@@@std@@QAE@XZ PROC ; std::_Alloc_construct_ptr<std::allocator<std::_List_node<std::basic_string<char,std::char_traits<char>,std::allocator<char> >,void *> > >::~_Alloc_construct_ptr<std::allocator<std::_List_node<std::basic_string<char,std::char_traits<char>,std::allocator<char> >,void *> > >, COMDAT
; _this$ = ecx

; 1172 :         if (_Ptr) {

  00000	8b 41 04	 mov	 eax, DWORD PTR [ecx+4]
  00003	85 c0		 test	 eax, eax
  00005	74 0b		 je	 SHORT $LN8@Alloc_cons

; 289  :         ::operator delete(_Ptr, _Bytes);

  00007	6a 20		 push	 32			; 00000020H
  00009	50		 push	 eax
  0000a	e8 00 00 00 00	 call	 ??3@YAXPAXI@Z		; operator delete
  0000f	83 c4 08	 add	 esp, 8
$LN8@Alloc_cons:

; 1173 :             _Al.deallocate(_Ptr, 1);
; 1174 :         }
; 1175 :     }

  00012	c3		 ret	 0
??1?$_Alloc_construct_ptr@V?$allocator@U?$_List_node@V?$basic_string@DU?$char_traits@D@std@@V?$allocator@D@2@@std@@PAX@std@@@std@@@std@@QAE@XZ ENDP ; std::_Alloc_construct_ptr<std::allocator<std::_List_node<std::basic_string<char,std::char_traits<char>,std::allocator<char> >,void *> > >::~_Alloc_construct_ptr<std::allocator<std::_List_node<std::basic_string<char,std::char_traits<char>,std::allocator<char> >,void *> > >
_TEXT	ENDS
; Function compile flags: /Ogtp
; File C:\Program Files\Microsoft Visual Studio\2022\Community\VC\Tools\MSVC\14.44.35207\include\xmemory
;	COMDAT ?_Allocate@?$_Alloc_construct_ptr@V?$allocator@U?$_List_node@V?$basic_string@DU?$char_traits@D@std@@V?$allocator@D@2@@std@@PAX@std@@@std@@@std@@QAEXXZ
_TEXT	SEGMENT
?_Allocate@?$_Alloc_construct_ptr@V?$allocator@U?$_List_node@V?$basic_string@DU?$char_traits@D@std@@V?$allocator@D@2@@std@@PAX@std@@@std@@@std@@QAEXXZ PROC ; std::_Alloc_construct_ptr<std::allocator<std::_List_node<std::basic_string<char,std::char_traits<char>,std::allocator<char> >,void *> > >::_Allocate, COMDAT
; _this$ = ecx

; 1166 :     _CONSTEXPR20 void _Allocate() { // disengage *this, then allocate a new memory block

  00000	56		 push	 esi
  00001	8b f1		 mov	 esi, ecx

; 1167 :         _Ptr = nullptr; // if allocate throws, prevents double-free
; 1168 :         _Ptr = _Al.allocate(1);

  00003	6a 20		 push	 32			; 00000020H
  00005	c7 46 04 00 00
	00 00		 mov	 DWORD PTR [esi+4], 0
  0000c	e8 00 00 00 00	 call	 ??2@YAPAXI@Z		; operator new
  00011	83 c4 04	 add	 esp, 4
  00014	89 46 04	 mov	 DWORD PTR [esi+4], eax
  00017	5e		 pop	 esi

; 1169 :     }

  00018	c3		 ret	 0
?_Allocate@?$_Alloc_construct_ptr@V?$allocator@U?$_List_node@V?$basic_string@DU?$char_traits@D@std@@V?$allocator@D@2@@std@@PAX@std@@@std@@@std@@QAEXXZ ENDP ; std::_Alloc_construct_ptr<std::allocator<std::_List_node<std::basic_string<char,std::char_traits<char>,std::allocator<char> >,void *> > >::_Allocate
_TEXT	ENDS
; Function compile flags: /Ogtp
; File C:\Program Files\Microsoft Visual Studio\2022\Community\VC\Tools\MSVC\14.44.35207\include\xmemory
;	COMDAT ??0?$_Alloc_construct_ptr@V?$allocator@U?$_List_node@V?$basic_string@DU?$char_traits@D@std@@V?$allocator@D@2@@std@@PAX@std@@@std@@@std@@QAE@AAV?$allocator@U?$_List_node@V?$basic_string@DU?$char_traits@D@std@@V?$allocator@D@2@@std@@PAX@std@@@1@@Z
_TEXT	SEGMENT
__Al_$ = 8						; size = 4
??0?$_Alloc_construct_ptr@V?$allocator@U?$_List_node@V?$basic_string@DU?$char_traits@D@std@@V?$allocator@D@2@@std@@PAX@std@@@std@@@std@@QAE@AAV?$allocator@U?$_List_node@V?$basic_string@DU?$char_traits@D@std@@V?$allocator@D@2@@std@@PAX@std@@@1@@Z PROC ; std::_Alloc_construct_ptr<std::allocator<std::_List_node<std::basic_string<char,std::char_traits<char>,std::allocator<char> >,void *> > >::_Alloc_construct_ptr<std::allocator<std::_List_node<std::basic_string<char,std::char_traits<char>,std::allocator<char> >,void *> > >, COMDAT
; _this$ = ecx

; 1160 :     _CONSTEXPR20 explicit _Alloc_construct_ptr(_Alloc& _Al_) : _Al(_Al_), _Ptr(nullptr) {}

  00000	55		 push	 ebp
  00001	8b ec		 mov	 ebp, esp
  00003	8b 45 08	 mov	 eax, DWORD PTR __Al_$[ebp]
  00006	89 01		 mov	 DWORD PTR [ecx], eax
  00008	8b c1		 mov	 eax, ecx
  0000a	c7 41 04 00 00
	00 00		 mov	 DWORD PTR [ecx+4], 0
  00011	5d		 pop	 ebp
  00012	c2 04 00	 ret	 4
??0?$_Alloc_construct_ptr@V?$allocator@U?$_List_node@V?$basic_string@DU?$char_traits@D@std@@V?$allocator@D@2@@std@@PAX@std@@@std@@@std@@QAE@AAV?$allocator@U?$_List_node@V?$basic_string@DU?$char_traits@D@std@@V?$allocator@D@2@@std@@PAX@std@@@1@@Z ENDP ; std::_Alloc_construct_ptr<std::allocator<std::_List_node<std::basic_string<char,std::char_traits<char>,std::allocator<char> >,void *> > >::_Alloc_construct_ptr<std::allocator<std::_List_node<std::basic_string<char,std::char_traits<char>,std::allocator<char> >,void *> > >
_TEXT	ENDS
; Function compile flags: /Ogtp
; File C:\Program Files\Microsoft Visual Studio\2022\Community\VC\Tools\MSVC\14.44.35207\include\xmemory
;	COMDAT ?max_size@?$_Default_allocator_traits@V?$allocator@U?$_List_node@V?$basic_string@DU?$char_traits@D@std@@V?$allocator@D@2@@std@@PAX@std@@@std@@@std@@SAIABV?$allocator@U?$_List_node@V?$basic_string@DU?$char_traits@D@std@@V?$allocator@D@2@@std@@PAX@std@@@2@@Z
_TEXT	SEGMENT
?max_size@?$_Default_allocator_traits@V?$allocator@U?$_List_node@V?$basic_string@DU?$char_traits@D@std@@V?$allocator@D@2@@std@@PAX@std@@@std@@@std@@SAIABV?$allocator@U?$_List_node@V?$basic_string@DU?$char_traits@D@std@@V?$allocator@D@2@@std@@PAX@std@@@2@@Z PROC ; std::_Default_allocator_traits<std::allocator<std::_List_node<std::basic_string<char,std::char_traits<char>,std::allocator<char> >,void *> > >::max_size, COMDAT
; ___formal$dead$ = ecx

; 746  :         return static_cast<size_t>(-1) / sizeof(value_type);

  00000	b8 ff ff ff 07	 mov	 eax, 134217727		; 07ffffffH

; 747  :     }

  00005	c3		 ret	 0
?max_size@?$_Default_allocator_traits@V?$allocator@U?$_List_node@V?$basic_string@DU?$char_traits@D@std@@V?$allocator@D@2@@std@@PAX@std@@@std@@@std@@SAIABV?$allocator@U?$_List_node@V?$basic_string@DU?$char_traits@D@std@@V?$allocator@D@2@@std@@PAX@std@@@2@@Z ENDP ; std::_Default_allocator_traits<std::allocator<std::_List_node<std::basic_string<char,std::char_traits<char>,std::allocator<char> >,void *> > >::max_size
_TEXT	ENDS
; Function compile flags: /Ogtp
; File C:\Program Files\Microsoft Visual Studio\2022\Community\VC\Tools\MSVC\14.44.35207\include\xmemory
;	COMDAT ?deallocate@?$_Default_allocator_traits@V?$allocator@U?$_List_node@V?$basic_string@DU?$char_traits@D@std@@V?$allocator@D@2@@std@@PAX@std@@@std@@@std@@SAXAAV?$allocator@U?$_List_node@V?$basic_string@DU?$char_traits@D@std@@V?$allocator@D@2@@std@@PAX@std@@@2@QAU?$_List_node@V?$basic_string@DU?$char_traits@D@std@@V?$allocator@D@2@@std@@PAX@2@I@Z
_TEXT	SEGMENT
__Count$dead$ = 8					; size = 4
?deallocate@?$_Default_allocator_traits@V?$allocator@U?$_List_node@V?$basic_string@DU?$char_traits@D@std@@V?$allocator@D@2@@std@@PAX@std@@@std@@@std@@SAXAAV?$allocator@U?$_List_node@V?$basic_string@DU?$char_traits@D@std@@V?$allocator@D@2@@std@@PAX@std@@@2@QAU?$_List_node@V?$basic_string@DU?$char_traits@D@std@@V?$allocator@D@2@@std@@PAX@2@I@Z PROC ; std::_Default_allocator_traits<std::allocator<std::_List_node<std::basic_string<char,std::char_traits<char>,std::allocator<char> >,void *> > >::deallocate, COMDAT
; __Al$dead$ = ecx
; __Ptr$ = edx

; 289  :         ::operator delete(_Ptr, _Bytes);

  00000	6a 20		 push	 32			; 00000020H
  00002	52		 push	 edx
  00003	e8 00 00 00 00	 call	 ??3@YAXPAXI@Z		; operator delete
  00008	83 c4 08	 add	 esp, 8

; 715  :         // no overflow check on the following multiply; we assume _Allocate did that check
; 716  : #if _HAS_CXX20 // TRANSITION, GH-1532
; 717  :         if (_STD is_constant_evaluated()) {
; 718  :             _Al.deallocate(_Ptr, _Count);
; 719  :         } else
; 720  : #endif // _HAS_CXX20
; 721  :         {
; 722  :             (void) _Al;
; 723  :             _STD _Deallocate<_New_alignof<value_type>>(_Ptr, sizeof(value_type) * _Count);
; 724  :         }
; 725  :     }

  0000b	c3		 ret	 0
?deallocate@?$_Default_allocator_traits@V?$allocator@U?$_List_node@V?$basic_string@DU?$char_traits@D@std@@V?$allocator@D@2@@std@@PAX@std@@@std@@@std@@SAXAAV?$allocator@U?$_List_node@V?$basic_string@DU?$char_traits@D@std@@V?$allocator@D@2@@std@@PAX@std@@@2@QAU?$_List_node@V?$basic_string@DU?$char_traits@D@std@@V?$allocator@D@2@@std@@PAX@2@I@Z ENDP ; std::_Default_allocator_traits<std::allocator<std::_List_node<std::basic_string<char,std::char_traits<char>,std::allocator<char> >,void *> > >::deallocate
_TEXT	ENDS
; Function compile flags: /Ogtp
; File C:\Program Files\Microsoft Visual Studio\2022\Community\VC\Tools\MSVC\14.44.35207\include\list
;	COMDAT ?_Getal@?$list@V?$basic_string@DU?$char_traits@D@std@@V?$allocator@D@2@@std@@V?$allocator@V?$basic_string@DU?$char_traits@D@std@@V?$allocator@D@2@@std@@@2@@std@@ABEABV?$allocator@U?$_List_node@V?$basic_string@DU?$char_traits@D@std@@V?$allocator@D@2@@std@@PAX@std@@@2@XZ
_TEXT	SEGMENT
?_Getal@?$list@V?$basic_string@DU?$char_traits@D@std@@V?$allocator@D@2@@std@@V?$allocator@V?$basic_string@DU?$char_traits@D@std@@V?$allocator@D@2@@std@@@2@@std@@ABEABV?$allocator@U?$_List_node@V?$basic_string@DU?$char_traits@D@std@@V?$allocator@D@2@@std@@PAX@std@@@2@XZ PROC ; std::list<std::basic_string<char,std::char_traits<char>,std::allocator<char> >,std::allocator<std::basic_string<char,std::char_traits<char>,std::allocator<char> > > >::_Getal, COMDAT
; _this$ = ecx

; 1867 :         return _Mypair._Get_first();

  00000	8b c1		 mov	 eax, ecx

; 1868 :     }

  00002	c3		 ret	 0
?_Getal@?$list@V?$basic_string@DU?$char_traits@D@std@@V?$allocator@D@2@@std@@V?$allocator@V?$basic_string@DU?$char_traits@D@std@@V?$allocator@D@2@@std@@@2@@std@@ABEABV?$allocator@U?$_List_node@V?$basic_string@DU?$char_traits@D@std@@V?$allocator@D@2@@std@@PAX@std@@@2@XZ ENDP ; std::list<std::basic_string<char,std::char_traits<char>,std::allocator<char> >,std::allocator<std::basic_string<char,std::char_traits<char>,std::allocator<char> > > >::_Getal
_TEXT	ENDS
; Function compile flags: /Ogtp
; File C:\Program Files\Microsoft Visual Studio\2022\Community\VC\Tools\MSVC\14.44.35207\include\xutility
;	COMDAT ??$construct_at@V?$basic_string@DU?$char_traits@D@std@@V?$allocator@D@2@@std@@ABV12@@std@@YAPAV?$basic_string@DU?$char_traits@D@std@@V?$allocator@D@2@@0@QAV10@ABV10@@Z
_TEXT	SEGMENT
??$construct_at@V?$basic_string@DU?$char_traits@D@std@@V?$allocator@D@2@@std@@ABV12@@std@@YAPAV?$basic_string@DU?$char_traits@D@std@@V?$allocator@D@2@@0@QAV10@ABV10@@Z PROC ; std::construct_at<std::basic_string<char,std::char_traits<char>,std::allocator<char> >,std::basic_string<char,std::char_traits<char>,std::allocator<char> > const &>, COMDAT
; __Location$ = ecx
; _<_Args_0>$ = edx

; 463  :     _MSVC_CONSTEXPR return ::new (static_cast<void*>(_Location)) _Ty(_STD forward<_Types>(_Args)...);

  00000	52		 push	 edx
  00001	e8 00 00 00 00	 call	 ??0?$basic_string@DU?$char_traits@D@std@@V?$allocator@D@2@@std@@QAE@ABV01@@Z ; std::basic_string<char,std::char_traits<char>,std::allocator<char> >::basic_string<char,std::char_traits<char>,std::allocator<char> >

; 464  : }

  00006	c3		 ret	 0
??$construct_at@V?$basic_string@DU?$char_traits@D@std@@V?$allocator@D@2@@std@@ABV12@@std@@YAPAV?$basic_string@DU?$char_traits@D@std@@V?$allocator@D@2@@0@QAV10@ABV10@@Z ENDP ; std::construct_at<std::basic_string<char,std::char_traits<char>,std::allocator<char> >,std::basic_string<char,std::char_traits<char>,std::allocator<char> > const &>
_TEXT	ENDS
; Function compile flags: /Ogtp
; File C:\Program Files\Microsoft Visual Studio\2022\Community\VC\Tools\MSVC\14.44.35207\include\type_traits
;	COMDAT ??$forward@ABQAU?$_List_node@V?$basic_string@DU?$char_traits@D@std@@V?$allocator@D@2@@std@@PAX@std@@@std@@YAABQAU?$_List_node@V?$basic_string@DU?$char_traits@D@std@@V?$allocator@D@2@@std@@PAX@0@ABQAU10@@Z
_TEXT	SEGMENT
??$forward@ABQAU?$_List_node@V?$basic_string@DU?$char_traits@D@std@@V?$allocator@D@2@@std@@PAX@std@@@std@@YAABQAU?$_List_node@V?$basic_string@DU?$char_traits@D@std@@V?$allocator@D@2@@std@@PAX@0@ABQAU10@@Z PROC ; std::forward<std::_List_node<std::basic_string<char,std::char_traits<char>,std::allocator<char> >,void *> * const &>, COMDAT
; __Arg$ = ecx

; 1502 :     return static_cast<_Ty&&>(_Arg);

  00000	8b c1		 mov	 eax, ecx

; 1503 : }

  00002	c3		 ret	 0
??$forward@ABQAU?$_List_node@V?$basic_string@DU?$char_traits@D@std@@V?$allocator@D@2@@std@@PAX@std@@@std@@YAABQAU?$_List_node@V?$basic_string@DU?$char_traits@D@std@@V?$allocator@D@2@@std@@PAX@0@ABQAU10@@Z ENDP ; std::forward<std::_List_node<std::basic_string<char,std::char_traits<char>,std::allocator<char> >,void *> * const &>
_TEXT	ENDS
; Function compile flags: /Ogtp
; File C:\Program Files\Microsoft Visual Studio\2022\Community\VC\Tools\MSVC\14.44.35207\include\xutility
;	COMDAT ??$construct_at@PAU?$_List_node@V?$basic_string@DU?$char_traits@D@std@@V?$allocator@D@2@@std@@PAX@std@@ABQAU12@@std@@YAPAPAU?$_List_node@V?$basic_string@DU?$char_traits@D@std@@V?$allocator@D@2@@std@@PAX@0@QAPAU10@ABQAU10@@Z
_TEXT	SEGMENT
??$construct_at@PAU?$_List_node@V?$basic_string@DU?$char_traits@D@std@@V?$allocator@D@2@@std@@PAX@std@@ABQAU12@@std@@YAPAPAU?$_List_node@V?$basic_string@DU?$char_traits@D@std@@V?$allocator@D@2@@std@@PAX@0@QAPAU10@ABQAU10@@Z PROC ; std::construct_at<std::_List_node<std::basic_string<char,std::char_traits<char>,std::allocator<char> >,void *> *,std::_List_node<std::basic_string<char,std::char_traits<char>,std::allocator<char> >,void *> * const &>, COMDAT
; __Location$ = ecx
; _<_Args_0>$ = edx

; 463  :     _MSVC_CONSTEXPR return ::new (static_cast<void*>(_Location)) _Ty(_STD forward<_Types>(_Args)...);

  00000	8b 02		 mov	 eax, DWORD PTR [edx]
  00002	89 01		 mov	 DWORD PTR [ecx], eax
  00004	8b c1		 mov	 eax, ecx

; 464  : }

  00006	c3		 ret	 0
??$construct_at@PAU?$_List_node@V?$basic_string@DU?$char_traits@D@std@@V?$allocator@D@2@@std@@PAX@std@@ABQAU12@@std@@YAPAPAU?$_List_node@V?$basic_string@DU?$char_traits@D@std@@V?$allocator@D@2@@std@@PAX@0@QAPAU10@ABQAU10@@Z ENDP ; std::construct_at<std::_List_node<std::basic_string<char,std::char_traits<char>,std::allocator<char> >,void *> *,std::_List_node<std::basic_string<char,std::char_traits<char>,std::allocator<char> >,void *> * const &>
_TEXT	ENDS
; Function compile flags: /Ogtp
; File C:\Program Files\Microsoft Visual Studio\2022\Community\VC\Tools\MSVC\14.44.35207\include\xmemory
;	COMDAT ?_Get_first@?$_Compressed_pair@V?$allocator@U?$_List_node@V?$basic_string@DU?$char_traits@D@std@@V?$allocator@D@2@@std@@PAX@std@@@std@@V?$_List_val@U?$_List_simple_types@V?$basic_string@DU?$char_traits@D@std@@V?$allocator@D@2@@std@@@std@@@2@$00@std@@QBEABV?$allocator@U?$_List_node@V?$basic_string@DU?$char_traits@D@std@@V?$allocator@D@2@@std@@PAX@std@@@2@XZ
_TEXT	SEGMENT
?_Get_first@?$_Compressed_pair@V?$allocator@U?$_List_node@V?$basic_string@DU?$char_traits@D@std@@V?$allocator@D@2@@std@@PAX@std@@@std@@V?$_List_val@U?$_List_simple_types@V?$basic_string@DU?$char_traits@D@std@@V?$allocator@D@2@@std@@@std@@@2@$00@std@@QBEABV?$allocator@U?$_List_node@V?$basic_string@DU?$char_traits@D@std@@V?$allocator@D@2@@std@@PAX@std@@@2@XZ PROC ; std::_Compressed_pair<std::allocator<std::_List_node<std::basic_string<char,std::char_traits<char>,std::allocator<char> >,void *> >,std::_List_val<std::_List_simple_types<std::basic_string<char,std::char_traits<char>,std::allocator<char> > > >,1>::_Get_first, COMDAT
; _this$ = ecx

; 1543 :         return *this;

  00000	8b c1		 mov	 eax, ecx

; 1544 :     }

  00002	c3		 ret	 0
?_Get_first@?$_Compressed_pair@V?$allocator@U?$_List_node@V?$basic_string@DU?$char_traits@D@std@@V?$allocator@D@2@@std@@PAX@std@@@std@@V?$_List_val@U?$_List_simple_types@V?$basic_string@DU?$char_traits@D@std@@V?$allocator@D@2@@std@@@std@@@2@$00@std@@QBEABV?$allocator@U?$_List_node@V?$basic_string@DU?$char_traits@D@std@@V?$allocator@D@2@@std@@PAX@std@@@2@XZ ENDP ; std::_Compressed_pair<std::allocator<std::_List_node<std::basic_string<char,std::char_traits<char>,std::allocator<char> >,void *> >,std::_List_val<std::_List_simple_types<std::basic_string<char,std::char_traits<char>,std::allocator<char> > > >,1>::_Get_first
_TEXT	ENDS
; Function compile flags: /Ogtp
; File C:\Program Files\Microsoft Visual Studio\2022\Community\VC\Tools\MSVC\14.44.35207\include\xmemory
;	COMDAT ?deallocate@?$allocator@U?$_List_node@V?$basic_string@DU?$char_traits@D@std@@V?$allocator@D@2@@std@@PAX@std@@@std@@QAEXQAU?$_List_node@V?$basic_string@DU?$char_traits@D@std@@V?$allocator@D@2@@std@@PAX@2@I@Z
_TEXT	SEGMENT
__Ptr$ = 8						; size = 4
__Count$dead$ = 12					; size = 4
?deallocate@?$allocator@U?$_List_node@V?$basic_string@DU?$char_traits@D@std@@V?$allocator@D@2@@std@@PAX@std@@@std@@QAEXQAU?$_List_node@V?$basic_string@DU?$char_traits@D@std@@V?$allocator@D@2@@std@@PAX@2@I@Z PROC ; std::allocator<std::_List_node<std::basic_string<char,std::char_traits<char>,std::allocator<char> >,void *> >::deallocate, COMDAT
; _this$dead$ = ecx

; 982  :     _CONSTEXPR20 void deallocate(_Ty* const _Ptr, const size_t _Count) noexcept /* strengthened */ {

  00000	55		 push	 ebp
  00001	8b ec		 mov	 ebp, esp

; 289  :         ::operator delete(_Ptr, _Bytes);

  00003	6a 20		 push	 32			; 00000020H
  00005	ff 75 08	 push	 DWORD PTR __Ptr$[ebp]
  00008	e8 00 00 00 00	 call	 ??3@YAXPAXI@Z		; operator delete
  0000d	83 c4 08	 add	 esp, 8

; 983  :         _STL_ASSERT(_Ptr != nullptr || _Count == 0, "null pointer cannot point to a block of non-zero size");
; 984  :         // no overflow check on the following multiply; we assume _Allocate did that check
; 985  :         _STD _Deallocate<_New_alignof<_Ty>>(_Ptr, sizeof(_Ty) * _Count);
; 986  :     }

  00010	5d		 pop	 ebp
  00011	c2 08 00	 ret	 8
?deallocate@?$allocator@U?$_List_node@V?$basic_string@DU?$char_traits@D@std@@V?$allocator@D@2@@std@@PAX@std@@@std@@QAEXQAU?$_List_node@V?$basic_string@DU?$char_traits@D@std@@V?$allocator@D@2@@std@@PAX@2@I@Z ENDP ; std::allocator<std::_List_node<std::basic_string<char,std::char_traits<char>,std::allocator<char> >,void *> >::deallocate
_TEXT	ENDS
END
