; Listing generated by Microsoft (R) Optimizing Compiler Version 19.44.35217.0 

	TITLE	d:\_m2work\server client tmp4\clientvs22\vs_files\userinterface\distribute\locale.obj
	.686P
	.XMM
	include listing.inc
	.model	flat

INCLUDELIB OLDNAMES

PUBLIC	??_C@_04JCGGKMCB@YMIR@				; `string'
PUBLIC	??_C@_05FBMCIMHB@JAPAN@				; `string'
PUBLIC	??_C@_07NAIMCPPE@ENGLISH@			; `string'
PUBLIC	??_C@_08KDAAPGME@HONGKONG@			; `string'
PUBLIC	??_C@_06GNJGLMLD@TAIWAN@			; `string'
PUBLIC	??_C@_07EFNJJMND@NEWCIBN@			; `string'
PUBLIC	??_C@_06EIPFKCCL@EUROPE@			; `string'
PUBLIC	??_C@_06FNIPBJLB@GLOBAL@			; `string'
PUBLIC	??_C@_0BB@LBLBLFFM@testtesttesttest@		; `string'
PUBLIC	??_C@_02BMJICGCB@rt@				; `string'
PUBLIC	??_C@_08OLPJPPGI@?$CFd?5?$CFd?5?$CFs@		; `string'
PUBLIC	??_C@_09MLPAPLEB@locale?1?$CFs@			; `string'
PUBLIC	??_C@_04FOFMEOFJ@ymir@				; `string'
PUBLIC	??_C@_08EKDPFGPD@we_korea@			; `string'
PUBLIC	??_C@_0BB@JKKAAGON@1234abcd5678efgh@		; `string'
PUBLIC	??_C@_05JKFEGLDP@japan@				; `string'
PUBLIC	?_OptionsStorage@?1??__local_stdio_scanf_options@@9@4_KA ; `__local_stdio_scanf_options'::`2'::_OptionsStorage
PUBLIC	?MULTI_LOCALE_CODE@@3HA				; MULTI_LOCALE_CODE
PUBLIC	?MULTI_LOCALE_NAME@@3PADA			; MULTI_LOCALE_NAME
PUBLIC	?MULTI_LOCALE_PATH@@3PADA			; MULTI_LOCALE_PATH
PUBLIC	?LSS_EUROPE@@3PBDB				; LSS_EUROPE
PUBLIC	?LSS_TAIWAN@@3PBDB				; LSS_TAIWAN
PUBLIC	?LSS_HONGKONG@@3PBDB				; LSS_HONGKONG
PUBLIC	?LSS_YMIR@@3PBDB				; LSS_YMIR
EXTRN	__strnicmp:PROC
EXTRN	__stricmp:PROC
EXTRN	___stdio_common_vsscanf:PROC
EXTRN	___report_rangecheckfailure:PROC
EXTRN	_fgets:PROC
;	COMDAT ?_OptionsStorage@?1??__local_stdio_scanf_options@@9@4_KA
_BSS	SEGMENT
?_OptionsStorage@?1??__local_stdio_scanf_options@@9@4_KA DQ 01H DUP (?) ; `__local_stdio_scanf_options'::`2'::_OptionsStorage
_BSS	ENDS
;	COMDAT ?CHEONMA_GUILDEXP_LIST@?4??LocaleService_GetLastExp@@YAIH@Z@4PAKA
CONST	SEGMENT
?CHEONMA_GUILDEXP_LIST@?4??LocaleService_GetLastExp@@YAIH@Z@4PAKA DD 00H ; `LocaleService_GetLastExp'::`5'::CHEONMA_GUILDEXP_LIST
	DD	03a98H
	DD	0afc8H
	DD	015f90H
	DD	027100H
	DD	0395f8H
	DD	04f588H
	DD	068fb0H
	DD	086470H
	DD	0a73c8H
	DD	0cbdb8H
	DD	0f4240H
	DD	016e360H
	DD	0200b20H
	DD	02ab980H
	DD	036ee80H
	DD	044aa20H
	DD	0632ea0H
	DD	07a1200H
	DD	0989680H
	DD	0280de80H
CONST	ENDS
;	COMDAT ?INTERNATIONAL_GUILDEXP_LIST@?1??LocaleService_GetLastExp@@YAIH@Z@4PAKA
CONST	SEGMENT
?INTERNATIONAL_GUILDEXP_LIST@?1??LocaleService_GetLastExp@@YAIH@Z@4PAKA DD 00H ; `LocaleService_GetLastExp'::`2'::INTERNATIONAL_GUILDEXP_LIST
	DD	01770H
	DD	04650H
	DD	08ca0H
	DD	0fa00H
	DD	016f30H
	DD	01fbd0H
	DD	029fe0H
	DD	035b60H
	DD	042e50H
	DD	0518b0H
	DD	061a80H
	DD	0927c0H
	DD	0cd140H
	DD	0111700H
	DD	015f900H
	DD	01b7740H
	DD	027ac40H
	DD	030d400H
	DD	03d0900H
	DD	01005900H
CONST	ENDS
;	COMDAT ?CHEONMA_SKILL_POWERS@?6??LocaleService_GetSkillPower@@YAHI@Z@4PAIA
CONST	SEGMENT
?CHEONMA_SKILL_POWERS@?6??LocaleService_GetSkillPower@@YAHI@Z@4PAIA DD 00H ; `LocaleService_GetSkillPower'::`7'::CHEONMA_SKILL_POWERS
	DD	05H
	DD	07H
	DD	09H
	DD	0bH
	DD	0dH
	DD	0fH
	DD	011H
	DD	013H
	DD	014H
	DD	016H
	DD	018H
	DD	01aH
	DD	01cH
	DD	01eH
	DD	020H
	DD	022H
	DD	024H
	DD	026H
	DD	028H
	DD	032H
	DD	034H
	DD	037H
	DD	03aH
	DD	03dH
	DD	03fH
	DD	042H
	DD	045H
	DD	048H
	DD	04bH
	DD	050H
	DD	052H
	DD	054H
	DD	057H
	DD	05aH
	DD	05fH
	DD	064H
	DD	06eH
	DD	078H
	DD	082H
	DD	096H
	DD	096H
	ORG $+32
CONST	ENDS
;	COMDAT ?INTERNATIONAL_SKILL_POWERS@?1??LocaleService_GetSkillPower@@YAHI@Z@4PAIA
CONST	SEGMENT
?INTERNATIONAL_SKILL_POWERS@?1??LocaleService_GetSkillPower@@YAHI@Z@4PAIA DD 00H ; `LocaleService_GetSkillPower'::`2'::INTERNATIONAL_SKILL_POWERS
	DD	05H
	DD	06H
	DD	08H
	DD	0aH
	DD	0cH
	DD	0eH
	DD	010H
	DD	012H
	DD	014H
	DD	016H
	DD	018H
	DD	01aH
	DD	01cH
	DD	01eH
	DD	020H
	DD	022H
	DD	024H
	DD	026H
	DD	028H
	DD	032H
	DD	034H
	DD	036H
	DD	038H
	DD	03aH
	DD	03cH
	DD	03fH
	DD	042H
	DD	045H
	DD	048H
	DD	052H
	DD	055H
	DD	058H
	DD	05bH
	DD	05eH
	DD	062H
	DD	066H
	DD	06aH
	DD	06eH
	DD	073H
	DD	07dH
	DD	07dH
	ORG $+32
CONST	ENDS
;	COMDAT ??_C@_05JKFEGLDP@japan@
CONST	SEGMENT
??_C@_05JKFEGLDP@japan@ DB 'japan', 00H			; `string'
CONST	ENDS
;	COMDAT ??_C@_0BB@JKKAAGON@1234abcd5678efgh@
CONST	SEGMENT
??_C@_0BB@JKKAAGON@1234abcd5678efgh@ DB '1234abcd5678efgh', 00H ; `string'
CONST	ENDS
;	COMDAT ??_C@_08EKDPFGPD@we_korea@
CONST	SEGMENT
??_C@_08EKDPFGPD@we_korea@ DB 'we_korea', 00H		; `string'
CONST	ENDS
;	COMDAT ??_C@_04FOFMEOFJ@ymir@
CONST	SEGMENT
??_C@_04FOFMEOFJ@ymir@ DB 'ymir', 00H			; `string'
CONST	ENDS
;	COMDAT ??_C@_09MLPAPLEB@locale?1?$CFs@
CONST	SEGMENT
??_C@_09MLPAPLEB@locale?1?$CFs@ DB 'locale/%s', 00H	; `string'
CONST	ENDS
;	COMDAT ??_C@_08OLPJPPGI@?$CFd?5?$CFd?5?$CFs@
CONST	SEGMENT
??_C@_08OLPJPPGI@?$CFd?5?$CFd?5?$CFs@ DB '%d %d %s', 00H ; `string'
CONST	ENDS
;	COMDAT ??_C@_02BMJICGCB@rt@
CONST	SEGMENT
??_C@_02BMJICGCB@rt@ DB 'rt', 00H			; `string'
CONST	ENDS
;	COMDAT ??_C@_0BB@LBLBLFFM@testtesttesttest@
CONST	SEGMENT
??_C@_0BB@LBLBLFFM@testtesttesttest@ DB 'testtesttesttest', 00H ; `string'
CONST	ENDS
;	COMDAT ??_C@_06FNIPBJLB@GLOBAL@
CONST	SEGMENT
??_C@_06FNIPBJLB@GLOBAL@ DB 'GLOBAL', 00H		; `string'
CONST	ENDS
;	COMDAT ??_C@_06EIPFKCCL@EUROPE@
CONST	SEGMENT
??_C@_06EIPFKCCL@EUROPE@ DB 'EUROPE', 00H		; `string'
CONST	ENDS
;	COMDAT ??_C@_07EFNJJMND@NEWCIBN@
CONST	SEGMENT
??_C@_07EFNJJMND@NEWCIBN@ DB 'NEWCIBN', 00H		; `string'
CONST	ENDS
;	COMDAT ??_C@_06GNJGLMLD@TAIWAN@
CONST	SEGMENT
??_C@_06GNJGLMLD@TAIWAN@ DB 'TAIWAN', 00H		; `string'
CONST	ENDS
;	COMDAT ??_C@_08KDAAPGME@HONGKONG@
CONST	SEGMENT
??_C@_08KDAAPGME@HONGKONG@ DB 'HONGKONG', 00H		; `string'
CONST	ENDS
;	COMDAT ??_C@_07NAIMCPPE@ENGLISH@
CONST	SEGMENT
??_C@_07NAIMCPPE@ENGLISH@ DB 'ENGLISH', 00H		; `string'
CONST	ENDS
;	COMDAT ??_C@_05FBMCIMHB@JAPAN@
CONST	SEGMENT
??_C@_05FBMCIMHB@JAPAN@ DB 'JAPAN', 00H			; `string'
CONST	ENDS
;	COMDAT ??_C@_04JCGGKMCB@YMIR@
CONST	SEGMENT
??_C@_04JCGGKMCB@YMIR@ DB 'YMIR', 00H			; `string'
?LSS_EUROPE@@3PBDB DD FLAT:??_C@_06EIPFKCCL@EUROPE@	; LSS_EUROPE
?LSS_TAIWAN@@3PBDB DD FLAT:??_C@_06GNJGLMLD@TAIWAN@	; LSS_TAIWAN
?LSS_HONGKONG@@3PBDB DD FLAT:??_C@_08KDAAPGME@HONGKONG@	; LSS_HONGKONG
?LSS_YMIR@@3PBDB DD FLAT:??_C@_04JCGGKMCB@YMIR@		; LSS_YMIR
?MULTI_LOCALE_CODE@@3HA DD 03b5H			; MULTI_LOCALE_CODE
?MULTI_LOCALE_NAME@@3PADA DB 'ymir', 00H		; MULTI_LOCALE_NAME
	ORG $+251
?MULTI_LOCALE_PATH@@3PADA DB 'locale/ymir', 00H		; MULTI_LOCALE_PATH
	ORG $+244
PUBLIC	_sscanf
PUBLIC	__vsscanf_l
PUBLIC	___local_stdio_scanf_options
PUBLIC	?LocaleService_IsTAIWAN@@YA_NXZ			; LocaleService_IsTAIWAN
PUBLIC	?LocaleService_IsHONGKONG@@YA_NXZ		; LocaleService_IsHONGKONG
PUBLIC	?LocaleService_IsEUROPE@@YA_NXZ			; LocaleService_IsEUROPE
PUBLIC	?LocaleService_LoadGlobal@@YA_NPAUHINSTANCE__@@@Z ; LocaleService_LoadGlobal
PUBLIC	?LocaleService_ForceSetLocale@@YAXPBD0@Z	; LocaleService_ForceSetLocale
PUBLIC	?LocaleService_GetLocalePath@@YAPBDXZ		; LocaleService_GetLocalePath
PUBLIC	?LocaleService_GetLocaleName@@YAPBDXZ		; LocaleService_GetLocaleName
PUBLIC	?LocaleService_GetCodePage@@YAIXZ		; LocaleService_GetCodePage
PUBLIC	?LocaleService_GetName@@YAPBDXZ			; LocaleService_GetName
PUBLIC	?LocaleService_IsCHEONMA@@YA_NXZ		; LocaleService_IsCHEONMA
PUBLIC	?LocaleService_SetCHEONMA@@YAX_N@Z		; LocaleService_SetCHEONMA
PUBLIC	?LocaleService_GetSecurityKey@@YAPBDXZ		; LocaleService_GetSecurityKey
PUBLIC	?LocaleService_GetSkillPower@@YAHI@Z		; LocaleService_GetSkillPower
PUBLIC	?LocaleService_GetLastExp@@YAIH@Z		; LocaleService_GetLastExp
PUBLIC	?LocaleService_LoadConfig@@YAXPBD@Z		; LocaleService_LoadConfig
PUBLIC	?LocaleService_StringCompareCI@@YAHPBD0I@Z	; LocaleService_StringCompareCI
PUBLIC	?LocaleService_IsLeadByte@@YAHD@Z		; LocaleService_IsLeadByte
PUBLIC	?LocaleService_IsYMIR@@YA_NXZ			; LocaleService_IsYMIR
PUBLIC	?__SECURITY_KEY_STRING__@@3V?$basic_string@DU?$char_traits@D@std@@V?$allocator@D@2@@std@@A ; __SECURITY_KEY_STRING__
?__SECURITY_KEY_STRING__@@3V?$basic_string@DU?$char_traits@D@std@@V?$allocator@D@2@@std@@A DB 018H DUP (?) ; __SECURITY_KEY_STRING__
_BSS	ENDS
?__SECURITY_KEY_STRING__$initializer$@@3P6AXXZA DD FLAT:??__E__SECURITY_KEY_STRING__@@YAXXZ ; __SECURITY_KEY_STRING__$initializer$
; Function compile flags: /Ogtp
; File D:\_m2work\Server Client TMP4\ClientVS22\source\UserInterface\Locale.cpp
;	COMDAT ?LocaleService_IsYMIR@@YA_NXZ
_TEXT	SEGMENT
?LocaleService_IsYMIR@@YA_NXZ PROC			; LocaleService_IsYMIR, COMDAT

; 393  : bool LocaleService_IsYMIR()		{ return (stricmp( LocaleService_GetName(), LSS_YMIR ) == 0) || (stricmp( LocaleService_GetLocaleName(), "ymir" ) == 0);	}

  00000	68 00 00 00 00	 push	 OFFSET ??_C@_04JCGGKMCB@YMIR@
  00005	e8 00 00 00 00	 call	 ?LocaleService_GetName@@YAPBDXZ ; LocaleService_GetName
  0000a	50		 push	 eax
  0000b	e8 00 00 00 00	 call	 __stricmp
  00010	83 c4 08	 add	 esp, 8
  00013	85 c0		 test	 eax, eax
  00015	74 1a		 je	 SHORT $LN3@LocaleServ
  00017	68 00 00 00 00	 push	 OFFSET ??_C@_04FOFMEOFJ@ymir@
  0001c	e8 00 00 00 00	 call	 ?LocaleService_GetLocaleName@@YAPBDXZ ; LocaleService_GetLocaleName
  00021	50		 push	 eax
  00022	e8 00 00 00 00	 call	 __stricmp
  00027	83 c4 08	 add	 esp, 8
  0002a	85 c0		 test	 eax, eax
  0002c	74 03		 je	 SHORT $LN3@LocaleServ
  0002e	32 c0		 xor	 al, al
  00030	c3		 ret	 0
$LN3@LocaleServ:
  00031	b0 01		 mov	 al, 1
  00033	c3		 ret	 0
?LocaleService_IsYMIR@@YA_NXZ ENDP			; LocaleService_IsYMIR
_TEXT	ENDS
; Function compile flags: /Ogtp
; File D:\_m2work\Server Client TMP4\ClientVS22\source\UserInterface\Locale.cpp
;	COMDAT ?LocaleService_IsLeadByte@@YAHD@Z
_TEXT	SEGMENT
?LocaleService_IsLeadByte@@YAHD@Z PROC			; LocaleService_IsLeadByte, COMDAT
; _chByte$ = cl

; 414  : 	return (((unsigned char) chByte) & 0x80) != 0;

  00000	0f b6 c1	 movzx	 eax, cl
  00003	c1 e8 07	 shr	 eax, 7

; 415  : }

  00006	c3		 ret	 0
?LocaleService_IsLeadByte@@YAHD@Z ENDP			; LocaleService_IsLeadByte
_TEXT	ENDS
; Function compile flags: /Ogtp
; File D:\_m2work\Server Client TMP4\ClientVS22\source\UserInterface\Locale.cpp
;	COMDAT ?LocaleService_StringCompareCI@@YAHPBD0I@Z
_TEXT	SEGMENT
_sizeLength$ = 8					; size = 4
?LocaleService_StringCompareCI@@YAHPBD0I@Z PROC		; LocaleService_StringCompareCI, COMDAT
; _szStringLeft$ = ecx
; _szStringRight$ = edx

; 418  : {

  00000	55		 push	 ebp
  00001	8b ec		 mov	 ebp, esp

; 419  : 	return strnicmp( szStringLeft, szStringRight, sizeLength );

  00003	ff 75 08	 push	 DWORD PTR _sizeLength$[ebp]
  00006	52		 push	 edx
  00007	51		 push	 ecx
  00008	e8 00 00 00 00	 call	 __strnicmp
  0000d	83 c4 0c	 add	 esp, 12			; 0000000cH

; 420  : }

  00010	5d		 pop	 ebp
  00011	c3		 ret	 0
?LocaleService_StringCompareCI@@YAHPBD0I@Z ENDP		; LocaleService_StringCompareCI
_TEXT	ENDS
; Function compile flags: /Ogtp
; File D:\_m2work\Server Client TMP4\ClientVS22\source\UserInterface\Locale.cpp
; File C:\Program Files\Microsoft Visual Studio\2022\Community\VC\Tools\MSVC\14.44.35207\include\xmemory
; File C:\Program Files\Microsoft Visual Studio\2022\Community\VC\Tools\MSVC\14.44.35207\include\__msvc_string_view.hpp
; File C:\Program Files\Microsoft Visual Studio\2022\Community\VC\Tools\MSVC\14.44.35207\include\xstring
; File C:\Program Files\Microsoft Visual Studio\2022\Community\VC\Tools\MSVC\14.44.35207\include\__msvc_string_view.hpp
; File D:\_m2work\Server Client TMP4\ClientVS22\source\UserInterface\Locale.cpp
; File C:\Program Files\Microsoft Visual Studio\2022\Community\VC\Tools\MSVC\14.44.35207\include\xstring
; File D:\_m2work\Server Client TMP4\ClientVS22\source\UserInterface\Locale.cpp
;	COMDAT ??__E__SECURITY_KEY_STRING__@@YAXXZ
text$di	SEGMENT
??__E__SECURITY_KEY_STRING__@@YAXXZ PROC		; `dynamic initializer for '__SECURITY_KEY_STRING__'', COMDAT
; File C:\Program Files\Microsoft Visual Studio\2022\Community\VC\Tools\MSVC\14.44.35207\include\xmemory

; 136  :         return ::operator new(_Bytes);

  00000	6a 20		 push	 32			; 00000020H
  00002	e8 00 00 00 00	 call	 ??2@YAPAXI@Z		; operator new
; File C:\Program Files\Microsoft Visual Studio\2022\Community\VC\Tools\MSVC\14.44.35207\include\__msvc_string_view.hpp

; 121  :         _CSTD memcpy(_First1, _First2, _Count * sizeof(_Elem));

  00007	0f 10 05 00 00
	00 00		 movups	 xmm0, XMMWORD PTR ??_C@_0BB@LBLBLFFM@testtesttesttest@
; File C:\Program Files\Microsoft Visual Studio\2022\Community\VC\Tools\MSVC\14.44.35207\include\xstring

; 913  :         _Construct_in_place(_My_data._Bx._Ptr, _New_ptr);

  0000e	a3 00 00 00 00	 mov	 DWORD PTR ?__SECURITY_KEY_STRING__@@3V?$basic_string@DU?$char_traits@D@std@@V?$allocator@D@2@@std@@A, eax

; 914  : 
; 915  :         _My_data._Mysize = _Count;

  00013	c7 05 10 00 00
	00 10 00 00 00	 mov	 DWORD PTR ?__SECURITY_KEY_STRING__@@3V?$basic_string@DU?$char_traits@D@std@@V?$allocator@D@2@@std@@A+16, 16 ; 00000010H

; 916  :         _My_data._Myres  = _New_capacity;

  0001d	c7 05 14 00 00
	00 1f 00 00 00	 mov	 DWORD PTR ?__SECURITY_KEY_STRING__@@3V?$basic_string@DU?$char_traits@D@std@@V?$allocator@D@2@@std@@A+20, 31 ; 0000001fH
; File C:\Program Files\Microsoft Visual Studio\2022\Community\VC\Tools\MSVC\14.44.35207\include\__msvc_string_view.hpp

; 121  :         _CSTD memcpy(_First1, _First2, _Count * sizeof(_Elem));

  00027	0f 11 00	 movups	 XMMWORD PTR [eax], xmm0
; File D:\_m2work\Server Client TMP4\ClientVS22\source\UserInterface\Locale.cpp

; 25   : std::string __SECURITY_KEY_STRING__ = LSS_SECURITY_KEY;

  0002a	68 00 00 00 00	 push	 OFFSET ??__F__SECURITY_KEY_STRING__@@YAXXZ ; `dynamic atexit destructor for '__SECURITY_KEY_STRING__''
; File C:\Program Files\Microsoft Visual Studio\2022\Community\VC\Tools\MSVC\14.44.35207\include\xstring

; 922  :             _Traits::assign(_Unfancy(_New_ptr)[_Count], _Elem());

  0002f	c6 40 10 00	 mov	 BYTE PTR [eax+16], 0
; File D:\_m2work\Server Client TMP4\ClientVS22\source\UserInterface\Locale.cpp

; 25   : std::string __SECURITY_KEY_STRING__ = LSS_SECURITY_KEY;

  00033	e8 00 00 00 00	 call	 _atexit
  00038	83 c4 08	 add	 esp, 8
  0003b	c3		 ret	 0
??__E__SECURITY_KEY_STRING__@@YAXXZ ENDP		; `dynamic initializer for '__SECURITY_KEY_STRING__''
text$di	ENDS
; Function compile flags: /Ogtp
; File C:\Program Files\Microsoft Visual Studio\2022\Community\VC\Tools\MSVC\14.44.35207\include\xstring
;	COMDAT ??__F__SECURITY_KEY_STRING__@@YAXXZ
text$yd	SEGMENT
??__F__SECURITY_KEY_STRING__@@YAXXZ PROC		; `dynamic atexit destructor for '__SECURITY_KEY_STRING__'', COMDAT

; 1383 :         _Tidy_deallocate();

  00000	b9 00 00 00 00	 mov	 ecx, OFFSET ?__SECURITY_KEY_STRING__@@3V?$basic_string@DU?$char_traits@D@std@@V?$allocator@D@2@@std@@A ; __SECURITY_KEY_STRING__
  00005	e9 00 00 00 00	 jmp	 ?_Tidy_deallocate@?$basic_string@DU?$char_traits@D@std@@V?$allocator@D@2@@std@@AAEXXZ ; std::basic_string<char,std::char_traits<char>,std::allocator<char> >::_Tidy_deallocate
??__F__SECURITY_KEY_STRING__@@YAXXZ ENDP		; `dynamic atexit destructor for '__SECURITY_KEY_STRING__''
text$yd	ENDS
; Function compile flags: /Ogtp
; File D:\_m2work\Server Client TMP4\ClientVS22\source\UserInterface\Locale.cpp
;	COMDAT ?LocaleService_LoadConfig@@YAXPBD@Z
_TEXT	SEGMENT
_id$1 = -524						; size = 4
_code$2 = -520						; size = 4
_name$3 = -516						; size = 256
_line$4 = -260						; size = 256
__$ArrayPad$ = -4					; size = 4
?LocaleService_LoadConfig@@YAXPBD@Z PROC		; LocaleService_LoadConfig, COMDAT
; _fileName$dead$ = ecx

; 34   : {

  00000	55		 push	 ebp
  00001	8b ec		 mov	 ebp, esp
  00003	81 ec 0c 02 00
	00		 sub	 esp, 524		; 0000020cH
  00009	a1 00 00 00 00	 mov	 eax, DWORD PTR ___security_cookie
  0000e	33 c5		 xor	 eax, ebp
  00010	89 45 fc	 mov	 DWORD PTR __$ArrayPad$[ebp], eax
  00013	53		 push	 ebx
  00014	56		 push	 esi
  00015	57		 push	 edi

; 35   : 	NANOBEGIN

  00016	eb		 DB	 -21			; ffffffebH
  00017	03		 DB	 3
  00018	d6		 DB	 -42			; ffffffd6H
  00019	d7		 DB	 -41			; ffffffd7H
  0001a	01		 DB	 1
  0001b	68 00 00 00 00	 push	 OFFSET ??_C@_02BMJICGCB@rt@
  00020	68 00 00 00 00	 push	 OFFSET ??_C@_0L@LCFODDFH@locale?4cfg@
  00025	e8 00 00 00 00	 call	 _fopen
  0002a	8b f0		 mov	 esi, eax
  0002c	83 c4 08	 add	 esp, 8

; 36   : 	FILE* fp = fopen(fileName, "rt");
; 37   : 
; 38   : 	if (fp)

  0002f	85 f6		 test	 esi, esi
  00031	0f 84 8d 00 00
	00		 je	 $LN2@LocaleServ

; 39   : 	{		
; 40   : 		char	line[256];			
; 41   : 		char	name[256];
; 42   : 		int		code;
; 43   : 		int		id;
; 44   : 		if (fgets(line, sizeof(line)-1, fp))

  00037	56		 push	 esi
  00038	8d 85 fc fe ff
	ff		 lea	 eax, DWORD PTR _line$4[ebp]
  0003e	68 ff 00 00 00	 push	 255			; 000000ffH
  00043	50		 push	 eax
  00044	e8 00 00 00 00	 call	 _fgets
  00049	83 c4 0c	 add	 esp, 12			; 0000000cH
  0004c	85 c0		 test	 eax, eax
  0004e	74 6b		 je	 SHORT $LN3@LocaleServ

; 45   : 		{
; 46   : 			line[sizeof(line)-1] = '\0';
; 47   : 			sscanf(line, "%d %d %s", &id, &code, name);

  00050	8d 85 fc fd ff
	ff		 lea	 eax, DWORD PTR _name$3[ebp]
  00056	c6 45 fb 00	 mov	 BYTE PTR _line$4[ebp+255], 0
  0005a	50		 push	 eax
  0005b	8d 85 f8 fd ff
	ff		 lea	 eax, DWORD PTR _code$2[ebp]
  00061	50		 push	 eax
  00062	8d 85 f4 fd ff
	ff		 lea	 eax, DWORD PTR _id$1[ebp]
  00068	50		 push	 eax
  00069	8d 85 fc fe ff
	ff		 lea	 eax, DWORD PTR _line$4[ebp]
  0006f	68 00 00 00 00	 push	 OFFSET ??_C@_08OLPJPPGI@?$CFd?5?$CFd?5?$CFs@
  00074	50		 push	 eax
  00075	e8 00 00 00 00	 call	 _sscanf

; 48   : 
; 49   : 			MULTI_LOCALE_REPORT_PORT		= id;
; 50   : 			MULTI_LOCALE_CODE				= code;

  0007a	8b 85 f8 fd ff
	ff		 mov	 eax, DWORD PTR _code$2[ebp]
  00080	83 c4 14	 add	 esp, 20			; 00000014H
  00083	a3 00 00 00 00	 mov	 DWORD PTR ?MULTI_LOCALE_CODE@@3HA, eax ; MULTI_LOCALE_CODE
  00088	33 c9		 xor	 ecx, ecx
  0008a	66 0f 1f 44 00
	00		 npad	 6
$LL7@LocaleServ:

; 51   : 			strcpy(MULTI_LOCALE_NAME, name);

  00090	8a 84 0d fc fd
	ff ff		 mov	 al, BYTE PTR _name$3[ebp+ecx]
  00097	8d 49 01	 lea	 ecx, DWORD PTR [ecx+1]
  0009a	88 81 ff ff ff
	ff		 mov	 BYTE PTR ?MULTI_LOCALE_NAME@@3PADA[ecx-1], al
  000a0	84 c0		 test	 al, al
  000a2	75 ec		 jne	 SHORT $LL7@LocaleServ

; 52   : 			sprintf(MULTI_LOCALE_PATH, "locale/%s", MULTI_LOCALE_NAME);

  000a4	68 00 00 00 00	 push	 OFFSET ?MULTI_LOCALE_NAME@@3PADA ; MULTI_LOCALE_NAME
  000a9	68 00 00 00 00	 push	 OFFSET ??_C@_09MLPAPLEB@locale?1?$CFs@
  000ae	68 00 00 00 00	 push	 OFFSET ?MULTI_LOCALE_PATH@@3PADA ; MULTI_LOCALE_PATH
  000b3	e8 00 00 00 00	 call	 _sprintf
  000b8	83 c4 0c	 add	 esp, 12			; 0000000cH
$LN3@LocaleServ:

; 53   : 		}			
; 54   : 		fclose(fp);

  000bb	56		 push	 esi
  000bc	e8 00 00 00 00	 call	 _fclose
  000c1	83 c4 04	 add	 esp, 4
$LN2@LocaleServ:

; 55   : 	}
; 56   : 	NANOEND

  000c4	eb		 DB	 -21			; ffffffebH
  000c5	03		 DB	 3
  000c6	d6		 DB	 -42			; ffffffd6H
  000c7	d7		 DB	 -41			; ffffffd7H
  000c8	00		 DB	 0
  000c9	8b 4d fc	 mov	 ecx, DWORD PTR __$ArrayPad$[ebp]
  000cc	33 cd		 xor	 ecx, ebp
  000ce	5f		 pop	 edi
  000cf	5e		 pop	 esi
  000d0	5b		 pop	 ebx
  000d1	e8 00 00 00 00	 call	 @__security_check_cookie@4
  000d6	8b e5		 mov	 esp, ebp
  000d8	5d		 pop	 ebp
  000d9	c3		 ret	 0
?LocaleService_LoadConfig@@YAXPBD@Z ENDP		; LocaleService_LoadConfig
_TEXT	ENDS
; Function compile flags: /Ogtp
; File D:\_m2work\Server Client TMP4\ClientVS22\source\UserInterface\Locale.cpp
;	COMDAT ?LocaleService_GetLastExp@@YAIH@Z
_TEXT	SEGMENT
?LocaleService_GetLastExp@@YAIH@Z PROC			; LocaleService_GetLastExp, COMDAT
; _level$ = ecx

; 60   : {

  00000	56		 push	 esi
  00001	8b f1		 mov	 esi, ecx

; 61   : 	static const int GUILD_LEVEL_MAX = 20;
; 62   : 
; 63   : 	if (LocaleService_IsCHEONMA())

  00003	e8 00 00 00 00	 call	 ?LocaleService_IsCHEONMA@@YA_NXZ ; LocaleService_IsCHEONMA
  00008	84 c0		 test	 al, al
  0000a	74 09		 je	 SHORT $LN2@LocaleServ

; 64   : 	{
; 65   : 		static DWORD CHEONMA_GUILDEXP_LIST[GUILD_LEVEL_MAX+1] = 
; 66   : 		{
; 67   : 			0,			// 0
; 68   : 			15000ul,	// 1
; 69   : 			45000ul,	// 2
; 70   : 			90000ul,	// 3
; 71   : 			160000ul,	// 4
; 72   : 			235000ul,	// 5
; 73   : 			325000ul,	// 6
; 74   : 			430000ul,	// 7
; 75   : 			550000ul,	// 8
; 76   : 			685000ul,	// 9
; 77   : 			835000ul,	// 10
; 78   : 			1000000ul,	// 11
; 79   : 			1500000ul,	// 12
; 80   : 			2100000ul,	// 13
; 81   : 			2800000ul,	// 14
; 82   : 			3600000ul,	// 15
; 83   : 			4500000ul,	// 16
; 84   : 			6500000ul,	// 17
; 85   : 			8000000ul,	// 18
; 86   : 			10000000ul,	// 19			
; 87   : 			42000000UL	// 20
; 88   : 		};
; 89   : 		if (level < 0 && level >= GUILD_LEVEL_MAX)
; 90   : 			return 0;
; 91   : 		
; 92   : 		return CHEONMA_GUILDEXP_LIST[level];

  0000c	8b 04 b5 00 00
	00 00		 mov	 eax, DWORD PTR ?CHEONMA_GUILDEXP_LIST@?4??LocaleService_GetLastExp@@YAIH@Z@4PAKA[esi*4]
  00013	5e		 pop	 esi

; 124  : }

  00014	c3		 ret	 0
$LN2@LocaleServ:

; 93   : 	}
; 94   : 	
; 95   : 	static DWORD INTERNATIONAL_GUILDEXP_LIST[GUILD_LEVEL_MAX+1] = 
; 96   : 	{
; 97   : 		0,			// 0
; 98   : 		6000UL,		// 1
; 99   : 		18000UL,	// 2
; 100  : 		36000UL,	// 3
; 101  : 		64000UL,	// 4
; 102  : 		94000UL,	// 5
; 103  : 		130000UL,	// 6
; 104  : 		172000UL,	// 7
; 105  : 		220000UL,	// 8
; 106  : 		274000UL,	// 9
; 107  : 		334000UL,	// 10
; 108  : 		400000UL,	// 11
; 109  : 		600000UL,	// 12
; 110  : 		840000UL,	// 13
; 111  : 		1120000UL,	// 14
; 112  : 		1440000UL,	// 15
; 113  : 		1800000UL,	// 16
; 114  : 		2600000UL,	// 17
; 115  : 		3200000UL,	// 18
; 116  : 		4000000UL,	// 19		
; 117  : 		16800000UL	// 20		
; 118  : 	};
; 119  : 
; 120  : 	if (level < 0 && level >= GUILD_LEVEL_MAX)
; 121  : 		return 0;
; 122  : 	
; 123  : 	return INTERNATIONAL_GUILDEXP_LIST[level];	

  00015	8b 04 b5 00 00
	00 00		 mov	 eax, DWORD PTR ?INTERNATIONAL_GUILDEXP_LIST@?1??LocaleService_GetLastExp@@YAIH@Z@4PAKA[esi*4]
  0001c	5e		 pop	 esi

; 124  : }

  0001d	c3		 ret	 0
?LocaleService_GetLastExp@@YAIH@Z ENDP			; LocaleService_GetLastExp
_TEXT	ENDS
; Function compile flags: /Ogtp
; File D:\_m2work\Server Client TMP4\ClientVS22\source\UserInterface\Locale.cpp
;	COMDAT ?LocaleService_GetSkillPower@@YAHI@Z
_TEXT	SEGMENT
?LocaleService_GetSkillPower@@YAHI@Z PROC		; LocaleService_GetSkillPower, COMDAT
; _level$ = ecx

; 127  : {

  00000	56		 push	 esi
  00001	8b f1		 mov	 esi, ecx

; 128  : 	static const unsigned SKILL_POWER_NUM = 50;
; 129  : 
; 130  : 	if (level >= SKILL_POWER_NUM)

  00003	83 fe 32	 cmp	 esi, 50			; 00000032H
  00006	72 04		 jb	 SHORT $LN2@LocaleServ

; 131  : 		return 0;

  00008	33 c0		 xor	 eax, eax
  0000a	5e		 pop	 esi

; 166  : }

  0000b	c3		 ret	 0
$LN2@LocaleServ:

; 132  : 
; 133  : 	if (LocaleService_IsCHEONMA())

  0000c	e8 00 00 00 00	 call	 ?LocaleService_IsCHEONMA@@YA_NXZ ; LocaleService_IsCHEONMA
  00011	84 c0		 test	 al, al
  00013	74 09		 je	 SHORT $LN3@LocaleServ

; 134  : 	{
; 135  : 		static unsigned CHEONMA_SKILL_POWERS[SKILL_POWER_NUM]=
; 136  : 		{
; 137  : 			0,  
; 138  : 				5,  7,  9, 11, 13, 
; 139  : 				15, 17, 19, 20, 22, 
; 140  : 				24, 26, 28, 30, 32, 
; 141  : 				34, 36, 38, 40, 50, // master
; 142  : 				52, 55, 58, 61, 63,
; 143  : 				66, 69, 72, 75, 80, // grand_master
; 144  : 				82, 84, 87, 90, 95,
; 145  : 				100,110,120,130,150,// perfect_master
; 146  : 				150,
; 147  : 		};
; 148  : 		return CHEONMA_SKILL_POWERS[level];		

  00015	8b 04 b5 00 00
	00 00		 mov	 eax, DWORD PTR ?CHEONMA_SKILL_POWERS@?6??LocaleService_GetSkillPower@@YAHI@Z@4PAIA[esi*4]
  0001c	5e		 pop	 esi

; 166  : }

  0001d	c3		 ret	 0
$LN3@LocaleServ:

; 149  : 	}
; 150  : 	
; 151  : 	// 0 5 6 8 10 12 14 16 18 20 22 24 26 28 30 32 34 36 38 40 50 52 54 56 58 60 63 66 69 72 82 85 88 91 94 98 102 106 110 115 125 125 125 125 125
; 152  : 	static unsigned INTERNATIONAL_SKILL_POWERS[SKILL_POWER_NUM]=
; 153  : 	{
; 154  : 		0, 
; 155  : 			5,  6,  8, 10, 12, 
; 156  : 			14, 16, 18, 20, 22, 
; 157  : 			24, 26, 28, 30, 32, 
; 158  : 			34, 36, 38, 40, 50, // master
; 159  : 			52, 54, 56, 58, 60, 
; 160  : 			63, 66, 69, 72, 82, // grand_master
; 161  : 			85, 88, 91, 94, 98, 
; 162  : 			102,106,110,115,125,// perfect_master
; 163  : 			125,	
; 164  : 	};
; 165  : 	return INTERNATIONAL_SKILL_POWERS[level];

  0001e	8b 04 b5 00 00
	00 00		 mov	 eax, DWORD PTR ?INTERNATIONAL_SKILL_POWERS@?1??LocaleService_GetSkillPower@@YAHI@Z@4PAIA[esi*4]
  00025	5e		 pop	 esi

; 166  : }

  00026	c3		 ret	 0
?LocaleService_GetSkillPower@@YAHI@Z ENDP		; LocaleService_GetSkillPower
_TEXT	ENDS
; Function compile flags: /Ogtp
; File D:\_m2work\Server Client TMP4\ClientVS22\source\UserInterface\Locale.cpp
; File C:\Program Files\Microsoft Visual Studio\2022\Community\VC\Tools\MSVC\14.44.35207\include\xstring
; File D:\_m2work\Server Client TMP4\ClientVS22\source\UserInterface\Locale.cpp
;	COMDAT ?LocaleService_GetSecurityKey@@YAPBDXZ
_TEXT	SEGMENT
?LocaleService_GetSecurityKey@@YAPBDXZ PROC		; LocaleService_GetSecurityKey, COMDAT
; File C:\Program Files\Microsoft Visual Studio\2022\Community\VC\Tools\MSVC\14.44.35207\include\xstring

; 453  :         return _Myres > _Small_string_capacity;

  00000	83 3d 14 00 00
	00 0f		 cmp	 DWORD PTR ?__SECURITY_KEY_STRING__@@3V?$basic_string@DU?$char_traits@D@std@@V?$allocator@D@2@@std@@A+20, 15 ; 0000000fH

; 444  :         const value_type* _Result = _Bx._Buf;

  00007	b8 00 00 00 00	 mov	 eax, OFFSET ?__SECURITY_KEY_STRING__@@3V?$basic_string@DU?$char_traits@D@std@@V?$allocator@D@2@@std@@A ; __SECURITY_KEY_STRING__

; 445  :         if (_Large_mode_engaged()) {

  0000c	0f 47 05 00 00
	00 00		 cmova	 eax, DWORD PTR ?__SECURITY_KEY_STRING__@@3V?$basic_string@DU?$char_traits@D@std@@V?$allocator@D@2@@std@@A
; File D:\_m2work\Server Client TMP4\ClientVS22\source\UserInterface\Locale.cpp

; 171  : }

  00013	c3		 ret	 0
?LocaleService_GetSecurityKey@@YAPBDXZ ENDP		; LocaleService_GetSecurityKey
_TEXT	ENDS
; Function compile flags: /Ogtp
; File D:\_m2work\Server Client TMP4\ClientVS22\source\UserInterface\Locale.cpp
;	COMDAT ?LocaleService_SetCHEONMA@@YAX_N@Z
_TEXT	SEGMENT
?LocaleService_SetCHEONMA@@YAX_N@Z PROC			; LocaleService_SetCHEONMA, COMDAT
; _isEnable$dead$ = cl

; 176  : 	IS_CHEONMA = isEnable;
; 177  : }

  00000	c2 00 00	 ret	 0
?LocaleService_SetCHEONMA@@YAX_N@Z ENDP			; LocaleService_SetCHEONMA
_TEXT	ENDS
; Function compile flags: /Ogtp
; File D:\_m2work\Server Client TMP4\ClientVS22\source\UserInterface\Locale.cpp
;	COMDAT ?LocaleService_IsCHEONMA@@YA_NXZ
_TEXT	SEGMENT
?LocaleService_IsCHEONMA@@YA_NXZ PROC			; LocaleService_IsCHEONMA, COMDAT

; 181  : 	return LocaleService_IsYMIR();

  00000	e9 00 00 00 00	 jmp	 ?LocaleService_IsYMIR@@YA_NXZ ; LocaleService_IsYMIR
?LocaleService_IsCHEONMA@@YA_NXZ ENDP			; LocaleService_IsCHEONMA
_TEXT	ENDS
; Function compile flags: /Ogtp
; File D:\_m2work\Server Client TMP4\ClientVS22\source\UserInterface\Locale.cpp
;	COMDAT ?LocaleService_GetName@@YAPBDXZ
_TEXT	SEGMENT
?LocaleService_GetName@@YAPBDXZ PROC			; LocaleService_GetName, COMDAT

; 228  : const char* LocaleService_GetName()				{ return _LSS_SERVICE_NAME;}

  00000	b8 00 00 00 00	 mov	 eax, OFFSET ??_C@_06EIPFKCCL@EUROPE@
  00005	c3		 ret	 0
?LocaleService_GetName@@YAPBDXZ ENDP			; LocaleService_GetName
_TEXT	ENDS
; Function compile flags: /Ogtp
; File D:\_m2work\Server Client TMP4\ClientVS22\source\UserInterface\Locale.cpp
;	COMDAT ?LocaleService_GetCodePage@@YAIXZ
_TEXT	SEGMENT
?LocaleService_GetCodePage@@YAIXZ PROC			; LocaleService_GetCodePage, COMDAT

; 232  : unsigned int LocaleService_GetCodePage()		{ return MULTI_LOCALE_CODE; }

  00000	a1 00 00 00 00	 mov	 eax, DWORD PTR ?MULTI_LOCALE_CODE@@3HA ; MULTI_LOCALE_CODE
  00005	c3		 ret	 0
?LocaleService_GetCodePage@@YAIXZ ENDP			; LocaleService_GetCodePage
_TEXT	ENDS
; Function compile flags: /Ogtp
; File D:\_m2work\Server Client TMP4\ClientVS22\source\UserInterface\Locale.cpp
;	COMDAT ?LocaleService_GetLocaleName@@YAPBDXZ
_TEXT	SEGMENT
?LocaleService_GetLocaleName@@YAPBDXZ PROC		; LocaleService_GetLocaleName, COMDAT

; 233  : const char*	LocaleService_GetLocaleName()		{ return MULTI_LOCALE_NAME; }

  00000	b8 00 00 00 00	 mov	 eax, OFFSET ?MULTI_LOCALE_NAME@@3PADA ; MULTI_LOCALE_NAME
  00005	c3		 ret	 0
?LocaleService_GetLocaleName@@YAPBDXZ ENDP		; LocaleService_GetLocaleName
_TEXT	ENDS
; Function compile flags: /Ogtp
; File D:\_m2work\Server Client TMP4\ClientVS22\source\UserInterface\Locale.cpp
;	COMDAT ?LocaleService_GetLocalePath@@YAPBDXZ
_TEXT	SEGMENT
?LocaleService_GetLocalePath@@YAPBDXZ PROC		; LocaleService_GetLocalePath, COMDAT

; 234  : const char*	LocaleService_GetLocalePath()		{ return MULTI_LOCALE_PATH; }

  00000	b8 00 00 00 00	 mov	 eax, OFFSET ?MULTI_LOCALE_PATH@@3PADA ; MULTI_LOCALE_PATH
  00005	c3		 ret	 0
?LocaleService_GetLocalePath@@YAPBDXZ ENDP		; LocaleService_GetLocalePath
_TEXT	ENDS
; Function compile flags: /Ogtp
; File D:\_m2work\Server Client TMP4\ClientVS22\source\UserInterface\Locale.cpp
; File C:\Program Files\Microsoft Visual Studio\2022\Community\VC\Tools\MSVC\14.44.35207\include\xstring
; File D:\_m2work\Server Client TMP4\ClientVS22\source\UserInterface\Locale.cpp
; File C:\Program Files\Microsoft Visual Studio\2022\Community\VC\Tools\MSVC\14.44.35207\include\xstring
; File D:\_m2work\Server Client TMP4\ClientVS22\source\UserInterface\Locale.cpp
;	COMDAT ?LocaleService_ForceSetLocale@@YAXPBD0@Z
_TEXT	SEGMENT
?LocaleService_ForceSetLocale@@YAXPBD0@Z PROC		; LocaleService_ForceSetLocale, COMDAT
; _name$ = ecx
; _localePath$ = edx

; 243  : {

  00000	53		 push	 ebx
  00001	56		 push	 esi
  00002	57		 push	 edi
  00003	8b d9		 mov	 ebx, ecx

; 244  : 	strcpy(MULTI_LOCALE_NAME, name);

  00005	bf 00 00 00 00	 mov	 edi, OFFSET ?MULTI_LOCALE_NAME@@3PADA ; MULTI_LOCALE_NAME
  0000a	8b f3		 mov	 esi, ebx
  0000c	2b fb		 sub	 edi, ebx
  0000e	66 90		 npad	 2
$LL5@LocaleServ:
  00010	8a 06		 mov	 al, BYTE PTR [esi]
  00012	8d 76 01	 lea	 esi, DWORD PTR [esi+1]
  00015	88 44 37 ff	 mov	 BYTE PTR [edi+esi-1], al
  00019	84 c0		 test	 al, al
  0001b	75 f3		 jne	 SHORT $LL5@LocaleServ

; 245  : 	strcpy(MULTI_LOCALE_PATH, localePath);

  0001d	b9 00 00 00 00	 mov	 ecx, OFFSET ?MULTI_LOCALE_PATH@@3PADA ; MULTI_LOCALE_PATH
  00022	2b ca		 sub	 ecx, edx
$LL6@LocaleServ:
  00024	8a 02		 mov	 al, BYTE PTR [edx]
  00026	8d 52 01	 lea	 edx, DWORD PTR [edx+1]
  00029	88 44 11 ff	 mov	 BYTE PTR [ecx+edx-1], al
  0002d	84 c0		 test	 al, al
  0002f	75 f3		 jne	 SHORT $LL6@LocaleServ

; 246  : 
; 247  : 	// 기존 천마 서버로 접속시에는 security key 변경 (WE 버전 클라로 천마서버 접속하기 위함)
; 248  : 	if (0 == stricmp(name, "ymir"))

  00031	68 00 00 00 00	 push	 OFFSET ??_C@_04FOFMEOFJ@ymir@
  00036	53		 push	 ebx
  00037	e8 00 00 00 00	 call	 __stricmp
  0003c	83 c4 08	 add	 esp, 8
  0003f	85 c0		 test	 eax, eax
  00041	75 11		 jne	 SHORT $LN2@LocaleServ
; File C:\Program Files\Microsoft Visual Studio\2022\Community\VC\Tools\MSVC\14.44.35207\include\xstring

; 1638 :         return assign(_Ptr, _Convert_size<size_type>(_Traits::length(_Ptr)));

  00043	6a 10		 push	 16			; 00000010H
  00045	68 00 00 00 00	 push	 OFFSET ??_C@_0BB@LBLBLFFM@testtesttesttest@
  0004a	b9 00 00 00 00	 mov	 ecx, OFFSET ?__SECURITY_KEY_STRING__@@3V?$basic_string@DU?$char_traits@D@std@@V?$allocator@D@2@@std@@A ; __SECURITY_KEY_STRING__
  0004f	e8 00 00 00 00	 call	 ?assign@?$basic_string@DU?$char_traits@D@std@@V?$allocator@D@2@@std@@QAEAAV12@QBDI@Z ; std::basic_string<char,std::char_traits<char>,std::allocator<char> >::assign
$LN2@LocaleServ:
; File D:\_m2work\Server Client TMP4\ClientVS22\source\UserInterface\Locale.cpp

; 250  : 	if (0 == stricmp(name, "we_korea"))

  00054	68 00 00 00 00	 push	 OFFSET ??_C@_08EKDPFGPD@we_korea@
  00059	53		 push	 ebx
  0005a	e8 00 00 00 00	 call	 __stricmp
  0005f	83 c4 08	 add	 esp, 8
  00062	5f		 pop	 edi
  00063	5e		 pop	 esi
  00064	5b		 pop	 ebx
  00065	85 c0		 test	 eax, eax
  00067	75 11		 jne	 SHORT $LN3@LocaleServ
; File C:\Program Files\Microsoft Visual Studio\2022\Community\VC\Tools\MSVC\14.44.35207\include\xstring

; 1638 :         return assign(_Ptr, _Convert_size<size_type>(_Traits::length(_Ptr)));

  00069	6a 10		 push	 16			; 00000010H
  0006b	68 00 00 00 00	 push	 OFFSET ??_C@_0BB@JKKAAGON@1234abcd5678efgh@
  00070	b9 00 00 00 00	 mov	 ecx, OFFSET ?__SECURITY_KEY_STRING__@@3V?$basic_string@DU?$char_traits@D@std@@V?$allocator@D@2@@std@@A ; __SECURITY_KEY_STRING__
  00075	e8 00 00 00 00	 call	 ?assign@?$basic_string@DU?$char_traits@D@std@@V?$allocator@D@2@@std@@QAEAAV12@QBDI@Z ; std::basic_string<char,std::char_traits<char>,std::allocator<char> >::assign
$LN3@LocaleServ:
; File D:\_m2work\Server Client TMP4\ClientVS22\source\UserInterface\Locale.cpp

; 252  : }

  0007a	c3		 ret	 0
?LocaleService_ForceSetLocale@@YAXPBD0@Z ENDP		; LocaleService_ForceSetLocale
_TEXT	ENDS
; Function compile flags: /Ogtp
; File D:\_m2work\Server Client TMP4\ClientVS22\source\UserInterface\Locale.cpp
;	COMDAT ?LocaleService_LoadGlobal@@YA_NPAUHINSTANCE__@@@Z
_TEXT	SEGMENT
?LocaleService_LoadGlobal@@YA_NPAUHINSTANCE__@@@Z PROC	; LocaleService_LoadGlobal, COMDAT
; _hInstance$dead$ = ecx

; 389  : 	return false;

  00000	32 c0		 xor	 al, al

; 390  : }

  00002	c3		 ret	 0
?LocaleService_LoadGlobal@@YA_NPAUHINSTANCE__@@@Z ENDP	; LocaleService_LoadGlobal
_TEXT	ENDS
; Function compile flags: /Ogtp
; File D:\_m2work\Server Client TMP4\ClientVS22\source\UserInterface\Locale.cpp
;	COMDAT ?LocaleService_IsEUROPE@@YA_NXZ
_TEXT	SEGMENT
?LocaleService_IsEUROPE@@YA_NXZ PROC			; LocaleService_IsEUROPE, COMDAT

; 396  : bool LocaleService_IsEUROPE()	{ return (stricmp( LocaleService_GetName(), LSS_EUROPE ) == 0);		}

  00000	68 00 00 00 00	 push	 OFFSET ??_C@_06EIPFKCCL@EUROPE@
  00005	e8 00 00 00 00	 call	 ?LocaleService_GetName@@YAPBDXZ ; LocaleService_GetName
  0000a	50		 push	 eax
  0000b	e8 00 00 00 00	 call	 __stricmp
  00010	83 c4 08	 add	 esp, 8
  00013	85 c0		 test	 eax, eax
  00015	0f 94 c0	 sete	 al
  00018	c3		 ret	 0
?LocaleService_IsEUROPE@@YA_NXZ ENDP			; LocaleService_IsEUROPE
_TEXT	ENDS
; Function compile flags: /Ogtp
; File D:\_m2work\Server Client TMP4\ClientVS22\source\UserInterface\Locale.cpp
;	COMDAT ?LocaleService_IsHONGKONG@@YA_NXZ
_TEXT	SEGMENT
?LocaleService_IsHONGKONG@@YA_NXZ PROC			; LocaleService_IsHONGKONG, COMDAT

; 397  : bool LocaleService_IsHONGKONG()	{ return (stricmp( LocaleService_GetName(), LSS_HONGKONG ) == 0);	}

  00000	68 00 00 00 00	 push	 OFFSET ??_C@_08KDAAPGME@HONGKONG@
  00005	e8 00 00 00 00	 call	 ?LocaleService_GetName@@YAPBDXZ ; LocaleService_GetName
  0000a	50		 push	 eax
  0000b	e8 00 00 00 00	 call	 __stricmp
  00010	83 c4 08	 add	 esp, 8
  00013	85 c0		 test	 eax, eax
  00015	0f 94 c0	 sete	 al
  00018	c3		 ret	 0
?LocaleService_IsHONGKONG@@YA_NXZ ENDP			; LocaleService_IsHONGKONG
_TEXT	ENDS
; Function compile flags: /Ogtp
; File D:\_m2work\Server Client TMP4\ClientVS22\source\UserInterface\Locale.cpp
;	COMDAT ?LocaleService_IsTAIWAN@@YA_NXZ
_TEXT	SEGMENT
?LocaleService_IsTAIWAN@@YA_NXZ PROC			; LocaleService_IsTAIWAN, COMDAT

; 398  : bool LocaleService_IsTAIWAN()	{ return (stricmp( LocaleService_GetName(), LSS_TAIWAN ) == 0);		}

  00000	68 00 00 00 00	 push	 OFFSET ??_C@_06GNJGLMLD@TAIWAN@
  00005	e8 00 00 00 00	 call	 ?LocaleService_GetName@@YAPBDXZ ; LocaleService_GetName
  0000a	50		 push	 eax
  0000b	e8 00 00 00 00	 call	 __stricmp
  00010	83 c4 08	 add	 esp, 8
  00013	85 c0		 test	 eax, eax
  00015	0f 94 c0	 sete	 al
  00018	c3		 ret	 0
?LocaleService_IsTAIWAN@@YA_NXZ ENDP			; LocaleService_IsTAIWAN
_TEXT	ENDS
; Function compile flags: /Ogtp
; File C:\Program Files (x86)\Windows Kits\10\Include\10.0.26100.0\ucrt\corecrt_stdio_config.h
;	COMDAT ___local_stdio_scanf_options
_TEXT	SEGMENT
___local_stdio_scanf_options PROC			; COMDAT

; 101  :         static unsigned __int64 _OptionsStorage;
; 102  :         return &_OptionsStorage;

  00000	b8 00 00 00 00	 mov	 eax, OFFSET ?_OptionsStorage@?1??__local_stdio_scanf_options@@9@4_KA ; `__local_stdio_scanf_options'::`2'::_OptionsStorage

; 103  :     }

  00005	c3		 ret	 0
___local_stdio_scanf_options ENDP
_TEXT	ENDS
; Function compile flags: /Ogtp
; File C:\Program Files (x86)\Windows Kits\10\Include\10.0.26100.0\ucrt\stdio.h
;	COMDAT __vsscanf_l
_TEXT	SEGMENT
__Locale$dead$ = 8					; size = 4
__ArgList$ = 12						; size = 4
__vsscanf_l PROC					; COMDAT
; __Buffer$ = ecx
; __Format$ = edx

; 2152 :     {

  00000	55		 push	 ebp
  00001	8b ec		 mov	 ebp, esp

; 2153 :         return __stdio_common_vsscanf(

  00003	ff 75 0c	 push	 DWORD PTR __ArgList$[ebp]
  00006	6a 00		 push	 0
  00008	52		 push	 edx
  00009	6a ff		 push	 -1
  0000b	51		 push	 ecx
  0000c	e8 00 00 00 00	 call	 ___local_stdio_scanf_options
  00011	ff 70 04	 push	 DWORD PTR [eax+4]
  00014	ff 30		 push	 DWORD PTR [eax]
  00016	e8 00 00 00 00	 call	 ___stdio_common_vsscanf
  0001b	83 c4 1c	 add	 esp, 28			; 0000001cH

; 2154 :             _CRT_INTERNAL_LOCAL_SCANF_OPTIONS,
; 2155 :             _Buffer, (size_t)-1, _Format, _Locale, _ArgList);
; 2156 :     }

  0001e	5d		 pop	 ebp
  0001f	c3		 ret	 0
__vsscanf_l ENDP
_TEXT	ENDS
; Function compile flags: /Ogtp
; File C:\Program Files (x86)\Windows Kits\10\Include\10.0.26100.0\ucrt\stdio.h
;	COMDAT _sscanf
_TEXT	SEGMENT
__Buffer$ = 8						; size = 4
__Format$ = 12						; size = 4
_sscanf	PROC						; COMDAT

; 2247 :     {

  00000	55		 push	 ebp
  00001	8b ec		 mov	 ebp, esp

; 2153 :         return __stdio_common_vsscanf(

  00003	8d 45 10	 lea	 eax, DWORD PTR __Format$[ebp+4]
  00006	50		 push	 eax
  00007	6a 00		 push	 0
  00009	ff 75 0c	 push	 DWORD PTR __Format$[ebp]
  0000c	6a ff		 push	 -1
  0000e	ff 75 08	 push	 DWORD PTR __Buffer$[ebp]
  00011	e8 00 00 00 00	 call	 ___local_stdio_scanf_options
  00016	ff 70 04	 push	 DWORD PTR [eax+4]
  00019	ff 30		 push	 DWORD PTR [eax]
  0001b	e8 00 00 00 00	 call	 ___stdio_common_vsscanf
  00020	83 c4 1c	 add	 esp, 28			; 0000001cH

; 2248 :         int _Result;
; 2249 :         va_list _ArgList;
; 2250 :         __crt_va_start(_ArgList, _Format);
; 2251 :         _Result = _vsscanf_l(_Buffer, _Format, NULL, _ArgList);
; 2252 :         __crt_va_end(_ArgList);
; 2253 :         return _Result;
; 2254 :     }

  00023	5d		 pop	 ebp
  00024	c3		 ret	 0
_sscanf	ENDP
_TEXT	ENDS
END
