; Listing generated by Microsoft (R) Optimizing Compiler Version 19.44.35217.0 

	TITLE	d:\_m2work\server client tmp4\clientvs22\vs_files\userinterface\distribute\markmanager.obj
	.686P
	.XMM
	include listing.inc
	.model	flat

INCLUDELIB OLDNAMES

PUBLIC	??_C@_04KJJCFCK@mark@				; `string'
PUBLIC	??_C@_0BA@BKPHNHHG@mark?1?$CFs_?$CFlu?4tga@	; `string'
PUBLIC	??_C@_0O@OILHOJMF@mark?1?$CFs_index@		; `string'
PUBLIC	??_C@_01KDCPPGHE@r@				; `string'
PUBLIC	??_C@_07HJBKDJLI@?$CFlu?5?$CFlu@		; `string'
PUBLIC	??_C@_01NOFIACDB@w@				; `string'
PUBLIC	??_C@_0DD@DCHMIIOP@MarkManager?3?3SaveMarkData?3?5cann@ ; `string'
PUBLIC	??_C@_06IPGPIAII@?$CFd?5?$CFd?6@		; `string'
PUBLIC	??_C@_0CK@IKDHOBNC@MarkManager?3?3SaveMarkData?3?5inde@ ; `string'
PUBLIC	??_C@_0BA@PBMNNCMH@?$CFs?5Save?5failed?6@	; `string'
PUBLIC	??_C@_0CL@HBDGKDCJ@CGuildMarkManager?3?5cannot?5alloc@ ; `string'
PUBLIC	??_C@_0BL@FIGDHGGB@SaveMark?3?5mark?5id?5alloc?5?$CFu@ ; `string'
PUBLIC	??_C@_0BL@DJLHMKOD@SaveMark?3?5mark?5id?5found?5?$CFu@ ; `string'
PUBLIC	??_C@_0L@GFEFCHNI@imgidx?5?$CFu?5@		; `string'
PUBLIC	??_C@_0P@PFBACHEK@invalid?5idx?5?$CFu@		; `string'
PUBLIC	??_C@_0CD@OFIJIOEB@Cannot?5open?5Symbol?5file?5?$CIname?3?5@ ; `string'
PUBLIC	??_C@_0CG@NOAPOIFA@GuildSymbolUpload?5guildID?5?$CFlu?5S@ ; `string'
PUBLIC	??_R2CGuildMarkManager@@8			; CGuildMarkManager::`RTTI Base Class Array'
PUBLIC	??_R2?$singleton@VCGuildMarkManager@@@@8	; singleton<CGuildMarkManager>::`RTTI Base Class Array'
PUBLIC	??_R1A@?0A@EA@CGuildMarkManager@@8		; CGuildMarkManager::`RTTI Base Class Descriptor at (0,-1,0,64)'
PUBLIC	??_R1A@?0A@EA@?$singleton@VCGuildMarkManager@@@@8 ; singleton<CGuildMarkManager>::`RTTI Base Class Descriptor at (0,-1,0,64)'
PUBLIC	??_R3?$singleton@VCGuildMarkManager@@@@8	; singleton<CGuildMarkManager>::`RTTI Class Hierarchy Descriptor'
PUBLIC	??_R0?AV?$singleton@VCGuildMarkManager@@@@@8	; singleton<CGuildMarkManager> `RTTI Type Descriptor'
PUBLIC	??_R3CGuildMarkManager@@8			; CGuildMarkManager::`RTTI Class Hierarchy Descriptor'
PUBLIC	??_R0?AVCGuildMarkManager@@@8			; CGuildMarkManager `RTTI Type Descriptor'
PUBLIC	??_R4?$singleton@VCGuildMarkManager@@@@6B@	; singleton<CGuildMarkManager>::`RTTI Complete Object Locator'
PUBLIC	??_R4CGuildMarkManager@@6B@			; CGuildMarkManager::`RTTI Complete Object Locator'
PUBLIC	?piecewise_construct@std@@3Upiecewise_construct_t@1@B ; std::piecewise_construct
PUBLIC	??_7?$singleton@VCGuildMarkManager@@@@6B@	; singleton<CGuildMarkManager>::`vftable'
PUBLIC	??_7CGuildMarkManager@@6B@			; CGuildMarkManager::`vftable'
EXTRN	__mkdir:PROC
;	COMDAT ??_7CGuildMarkManager@@6B@
CONST	SEGMENT
??_7CGuildMarkManager@@6B@ DD FLAT:??_R4CGuildMarkManager@@6B@ ; CGuildMarkManager::`vftable'
	DD	FLAT:??_ECGuildMarkManager@@UAEPAXI@Z
CONST	ENDS
;	COMDAT ??_7?$singleton@VCGuildMarkManager@@@@6B@
CONST	SEGMENT
??_7?$singleton@VCGuildMarkManager@@@@6B@ DD FLAT:??_R4?$singleton@VCGuildMarkManager@@@@6B@ ; singleton<CGuildMarkManager>::`vftable'
	DD	FLAT:??_E?$singleton@VCGuildMarkManager@@@@UAEPAXI@Z
CONST	ENDS
;	COMDAT ?piecewise_construct@std@@3Upiecewise_construct_t@1@B
CONST	SEGMENT
?piecewise_construct@std@@3Upiecewise_construct_t@1@B	ORG $+1 ; std::piecewise_construct
CONST	ENDS
;	COMDAT ??_R4CGuildMarkManager@@6B@
rdata$r	SEGMENT
??_R4CGuildMarkManager@@6B@ DD 00H			; CGuildMarkManager::`RTTI Complete Object Locator'
	DD	00H
	DD	00H
	DD	FLAT:??_R0?AVCGuildMarkManager@@@8
	DD	FLAT:??_R3CGuildMarkManager@@8
rdata$r	ENDS
;	COMDAT ??_R4?$singleton@VCGuildMarkManager@@@@6B@
rdata$r	SEGMENT
??_R4?$singleton@VCGuildMarkManager@@@@6B@ DD 00H	; singleton<CGuildMarkManager>::`RTTI Complete Object Locator'
	DD	00H
	DD	00H
	DD	FLAT:??_R0?AV?$singleton@VCGuildMarkManager@@@@@8
	DD	FLAT:??_R3?$singleton@VCGuildMarkManager@@@@8
rdata$r	ENDS
;	COMDAT ??_R0?AVCGuildMarkManager@@@8
data$rs	SEGMENT
??_R0?AVCGuildMarkManager@@@8 DD FLAT:??_7type_info@@6B@ ; CGuildMarkManager `RTTI Type Descriptor'
	DD	00H
	DB	'.?AVCGuildMarkManager@@', 00H
data$rs	ENDS
;	COMDAT ??_R3CGuildMarkManager@@8
rdata$r	SEGMENT
??_R3CGuildMarkManager@@8 DD 00H			; CGuildMarkManager::`RTTI Class Hierarchy Descriptor'
	DD	00H
	DD	02H
	DD	FLAT:??_R2CGuildMarkManager@@8
rdata$r	ENDS
;	COMDAT ??_R0?AV?$singleton@VCGuildMarkManager@@@@@8
data$rs	SEGMENT
??_R0?AV?$singleton@VCGuildMarkManager@@@@@8 DD FLAT:??_7type_info@@6B@ ; singleton<CGuildMarkManager> `RTTI Type Descriptor'
	DD	00H
	DB	'.?AV?$singleton@VCGuildMarkManager@@@@', 00H
data$rs	ENDS
;	COMDAT ??_R3?$singleton@VCGuildMarkManager@@@@8
rdata$r	SEGMENT
??_R3?$singleton@VCGuildMarkManager@@@@8 DD 00H		; singleton<CGuildMarkManager>::`RTTI Class Hierarchy Descriptor'
	DD	00H
	DD	01H
	DD	FLAT:??_R2?$singleton@VCGuildMarkManager@@@@8
rdata$r	ENDS
;	COMDAT ??_R1A@?0A@EA@?$singleton@VCGuildMarkManager@@@@8
rdata$r	SEGMENT
??_R1A@?0A@EA@?$singleton@VCGuildMarkManager@@@@8 DD FLAT:??_R0?AV?$singleton@VCGuildMarkManager@@@@@8 ; singleton<CGuildMarkManager>::`RTTI Base Class Descriptor at (0,-1,0,64)'
	DD	00H
	DD	00H
	DD	0ffffffffH
	DD	00H
	DD	040H
	DD	FLAT:??_R3?$singleton@VCGuildMarkManager@@@@8
rdata$r	ENDS
;	COMDAT ??_R1A@?0A@EA@CGuildMarkManager@@8
rdata$r	SEGMENT
??_R1A@?0A@EA@CGuildMarkManager@@8 DD FLAT:??_R0?AVCGuildMarkManager@@@8 ; CGuildMarkManager::`RTTI Base Class Descriptor at (0,-1,0,64)'
	DD	01H
	DD	00H
	DD	0ffffffffH
	DD	00H
	DD	040H
	DD	FLAT:??_R3CGuildMarkManager@@8
rdata$r	ENDS
;	COMDAT ??_R2?$singleton@VCGuildMarkManager@@@@8
rdata$r	SEGMENT
??_R2?$singleton@VCGuildMarkManager@@@@8 DD FLAT:??_R1A@?0A@EA@?$singleton@VCGuildMarkManager@@@@8 ; singleton<CGuildMarkManager>::`RTTI Base Class Array'
rdata$r	ENDS
;	COMDAT ??_R2CGuildMarkManager@@8
rdata$r	SEGMENT
??_R2CGuildMarkManager@@8 DD FLAT:??_R1A@?0A@EA@CGuildMarkManager@@8 ; CGuildMarkManager::`RTTI Base Class Array'
	DD	FLAT:??_R1A@?0A@EA@?$singleton@VCGuildMarkManager@@@@8
rdata$r	ENDS
;	COMDAT ??_C@_0CG@NOAPOIFA@GuildSymbolUpload?5guildID?5?$CFlu?5S@
CONST	SEGMENT
??_C@_0CG@NOAPOIFA@GuildSymbolUpload?5guildID?5?$CFlu?5S@ DB 'GuildSymbol'
	DB	'Upload guildID %lu Size %d', 00H		; `string'
CONST	ENDS
;	COMDAT ??_C@_0CD@OFIJIOEB@Cannot?5open?5Symbol?5file?5?$CIname?3?5@
CONST	SEGMENT
??_C@_0CD@OFIJIOEB@Cannot?5open?5Symbol?5file?5?$CIname?3?5@ DB 'Cannot o'
	DB	'pen Symbol file (name: %s)', 00H		; `string'
CONST	ENDS
;	COMDAT ??_C@_0P@PFBACHEK@invalid?5idx?5?$CFu@
CONST	SEGMENT
??_C@_0P@PFBACHEK@invalid?5idx?5?$CFu@ DB 'invalid idx %u', 00H ; `string'
CONST	ENDS
;	COMDAT ??_C@_0L@GFEFCHNI@imgidx?5?$CFu?5@
CONST	SEGMENT
??_C@_0L@GFEFCHNI@imgidx?5?$CFu?5@ DB 'imgidx %u ', 00H	; `string'
CONST	ENDS
;	COMDAT ??_C@_0BL@DJLHMKOD@SaveMark?3?5mark?5id?5found?5?$CFu@
CONST	SEGMENT
??_C@_0BL@DJLHMKOD@SaveMark?3?5mark?5id?5found?5?$CFu@ DB 'SaveMark: mark'
	DB	' id found %u', 00H				; `string'
CONST	ENDS
;	COMDAT ??_C@_0BL@FIGDHGGB@SaveMark?3?5mark?5id?5alloc?5?$CFu@
CONST	SEGMENT
??_C@_0BL@FIGDHGGB@SaveMark?3?5mark?5id?5alloc?5?$CFu@ DB 'SaveMark: mark'
	DB	' id alloc %u', 00H				; `string'
CONST	ENDS
;	COMDAT ??_C@_0CL@HBDGKDCJ@CGuildMarkManager?3?5cannot?5alloc@
CONST	SEGMENT
??_C@_0CL@HBDGKDCJ@CGuildMarkManager?3?5cannot?5alloc@ DB 'CGuildMarkMana'
	DB	'ger: cannot alloc mark id %u', 00H		; `string'
CONST	ENDS
;	COMDAT ??_C@_0BA@PBMNNCMH@?$CFs?5Save?5failed?6@
CONST	SEGMENT
??_C@_0BA@PBMNNCMH@?$CFs?5Save?5failed?6@ DB '%s Save failed', 0aH, 00H ; `string'
CONST	ENDS
;	COMDAT ??_C@_0CK@IKDHOBNC@MarkManager?3?3SaveMarkData?3?5inde@
CONST	SEGMENT
??_C@_0CK@IKDHOBNC@MarkManager?3?3SaveMarkData?3?5inde@ DB 'MarkManager::'
	DB	'SaveMarkData: index count %d', 00H		; `string'
CONST	ENDS
;	COMDAT ??_C@_06IPGPIAII@?$CFd?5?$CFd?6@
CONST	SEGMENT
??_C@_06IPGPIAII@?$CFd?5?$CFd?6@ DB '%d %d', 0aH, 00H	; `string'
CONST	ENDS
;	COMDAT ??_C@_0DD@DCHMIIOP@MarkManager?3?3SaveMarkData?3?5cann@
CONST	SEGMENT
??_C@_0DD@DCHMIIOP@MarkManager?3?3SaveMarkData?3?5cann@ DB 'MarkManager::'
	DB	'SaveMarkData: cannot open index file.', 00H	; `string'
CONST	ENDS
;	COMDAT ??_C@_01NOFIACDB@w@
CONST	SEGMENT
??_C@_01NOFIACDB@w@ DB 'w', 00H				; `string'
CONST	ENDS
;	COMDAT ??_C@_07HJBKDJLI@?$CFlu?5?$CFlu@
CONST	SEGMENT
??_C@_07HJBKDJLI@?$CFlu?5?$CFlu@ DB '%lu %lu', 00H	; `string'
CONST	ENDS
;	COMDAT ??_C@_01KDCPPGHE@r@
CONST	SEGMENT
??_C@_01KDCPPGHE@r@ DB 'r', 00H				; `string'
CONST	ENDS
;	COMDAT ??_C@_0O@OILHOJMF@mark?1?$CFs_index@
CONST	SEGMENT
??_C@_0O@OILHOJMF@mark?1?$CFs_index@ DB 'mark/%s_index', 00H ; `string'
CONST	ENDS
;	COMDAT ??_C@_0BA@BKPHNHHG@mark?1?$CFs_?$CFlu?4tga@
CONST	SEGMENT
??_C@_0BA@BKPHNHHG@mark?1?$CFs_?$CFlu?4tga@ DB 'mark/%s_%lu.tga', 00H ; `string'
CONST	ENDS
;	COMDAT ??_C@_04KJJCFCK@mark@
CONST	SEGMENT
??_C@_04KJJCFCK@mark@ DB 'mark', 00H			; `string'
PUBLIC	__snprintf
PUBLIC	__vsnprintf
PUBLIC	_fprintf
PUBLIC	??0?$tuple@$$V@std@@QAE@ABV01@@Z		; std::tuple<>::tuple<>
PUBLIC	??$construct_at@EABE@std@@YAPAEQAEABE@Z		; std::construct_at<unsigned char,unsigned char const &>
PUBLIC	??$move@AAV?$tuple@ABK@std@@@std@@YA$$QAV?$tuple@ABK@0@AAV10@@Z ; std::move<std::tuple<unsigned long const &> &>
PUBLIC	??$forward@K@std@@YA$$QAKAAK@Z			; std::forward<unsigned long>
PUBLIC	??$construct@EABE@?$_Default_allocator_traits@V?$allocator@E@std@@@std@@SAXAAV?$allocator@E@1@QAEABE@Z ; std::_Default_allocator_traits<std::allocator<unsigned char> >::construct<unsigned char,unsigned char const &>
PUBLIC	??$_Tuple_get@$0A@ABK@std@@YA$$QA_P$$QAV?$tuple@ABK@0@@Z ; std::_Tuple_get<0,unsigned long const &>
PUBLIC	?_Get_first@?$_Compressed_pair@V?$allocator@U?$_Tree_node@U?$pair@$$CBKPAVCGuildMarkImage@@@std@@PAX@std@@@std@@V?$_Tree_val@U?$_Tree_simple_types@U?$pair@$$CBKPAVCGuildMarkImage@@@std@@@std@@@2@$00@std@@QBEABV?$allocator@U?$_Tree_node@U?$pair@$$CBKPAVCGuildMarkImage@@@std@@PAX@std@@@2@XZ ; std::_Compressed_pair<std::allocator<std::_Tree_node<std::pair<unsigned long const ,CGuildMarkImage *>,void *> >,std::_Tree_val<std::_Tree_simple_types<std::pair<unsigned long const ,CGuildMarkImage *> > >,1>::_Get_first
PUBLIC	??$_Get_size_of_n@$0CE@@std@@YAII@Z		; std::_Get_size_of_n<36>
PUBLIC	??$_Emplace_reallocate@ABE@?$vector@EV?$allocator@E@std@@@std@@AAEPAEQAEABE@Z ; std::vector<unsigned char,std::allocator<unsigned char> >::_Emplace_reallocate<unsigned char const &>
PUBLIC	??$forward@ABE@std@@YAABEABE@Z			; std::forward<unsigned char const &>
PUBLIC	??$construct_at@PAU?$_Tree_node@U?$pair@$$CBKPAVCGuildMarkImage@@@std@@PAX@std@@ABQAU12@@std@@YAPAPAU?$_Tree_node@U?$pair@$$CBKPAVCGuildMarkImage@@@std@@PAX@0@QAPAU10@ABQAU10@@Z ; std::construct_at<std::_Tree_node<std::pair<unsigned long const ,CGuildMarkImage *>,void *> *,std::_Tree_node<std::pair<unsigned long const ,CGuildMarkImage *>,void *> * const &>
PUBLIC	??$forward@ABQAU?$_Tree_node@U?$pair@$$CBKPAVCGuildMarkImage@@@std@@PAX@std@@@std@@YAABQAU?$_Tree_node@U?$pair@$$CBKPAVCGuildMarkImage@@@std@@PAX@0@ABQAU10@@Z ; std::forward<std::_Tree_node<std::pair<unsigned long const ,CGuildMarkImage *>,void *> * const &>
PUBLIC	??$construct_at@PAU?$_Tree_node@U?$pair@$$CBKUTGuildSymbol@CGuildMarkManager@@@std@@PAX@std@@ABQAU12@@std@@YAPAPAU?$_Tree_node@U?$pair@$$CBKUTGuildSymbol@CGuildMarkManager@@@std@@PAX@0@QAPAU10@ABQAU10@@Z ; std::construct_at<std::_Tree_node<std::pair<unsigned long const ,CGuildMarkManager::TGuildSymbol>,void *> *,std::_Tree_node<std::pair<unsigned long const ,CGuildMarkManager::TGuildSymbol>,void *> * const &>
PUBLIC	??$construct_at@E$$V@std@@YAPAEQAE@Z		; std::construct_at<unsigned char>
PUBLIC	??$construct_at@EE@std@@YAPAEQAE$$QAE@Z		; std::construct_at<unsigned char,unsigned char>
PUBLIC	??$?0ABK@?$_Tuple_val@ABK@std@@QAE@ABK@Z	; std::_Tuple_val<unsigned long const &>::_Tuple_val<unsigned long const &><unsigned long const &>
PUBLIC	??$?0U_Exact_args_t@std@@$0A@@?$tuple@$$V@std@@QAE@U_Exact_args_t@1@@Z ; std::tuple<>::tuple<><std::_Exact_args_t,0>
PUBLIC	??_G?$pair@$$CBKUTGuildSymbol@CGuildMarkManager@@@std@@QAEPAXI@Z ; std::pair<unsigned long const ,CGuildMarkManager::TGuildSymbol>::`scalar deleting destructor'
PUBLIC	??0?$tuple@ABK@std@@QAE@$$QAV01@@Z		; std::tuple<unsigned long const &>::tuple<unsigned long const &>
PUBLIC	?_Getal@?$_Tree@V?$_Tmap_traits@KPAVCGuildMarkImage@@U?$less@K@std@@V?$allocator@U?$pair@$$CBKPAVCGuildMarkImage@@@std@@@3@$0A@@std@@@std@@IBEABV?$allocator@U?$_Tree_node@U?$pair@$$CBKPAVCGuildMarkImage@@@std@@PAX@std@@@2@XZ ; std::_Tree<std::_Tmap_traits<unsigned long,CGuildMarkImage *,std::less<unsigned long>,std::allocator<std::pair<unsigned long const ,CGuildMarkImage *> >,0> >::_Getal
PUBLIC	??0?$allocator@U?$_Tree_node@U?$pair@$$CBKPAVCGuildMarkImage@@@std@@PAX@std@@@std@@QAE@XZ ; std::allocator<std::_Tree_node<std::pair<unsigned long const ,CGuildMarkImage *>,void *> >::allocator<std::_Tree_node<std::pair<unsigned long const ,CGuildMarkImage *>,void *> >
PUBLIC	?deallocate@?$allocator@U?$_Tree_node@U?$pair@$$CBKPAVCGuildMarkImage@@@std@@PAX@std@@@std@@QAEXQAU?$_Tree_node@U?$pair@$$CBKPAVCGuildMarkImage@@@std@@PAX@2@I@Z ; std::allocator<std::_Tree_node<std::pair<unsigned long const ,CGuildMarkImage *>,void *> >::deallocate
PUBLIC	?allocate@?$allocator@U?$_Tree_node@U?$pair@$$CBKPAVCGuildMarkImage@@@std@@PAX@std@@@std@@QAEPAU?$_Tree_node@U?$pair@$$CBKPAVCGuildMarkImage@@@std@@PAX@2@I@Z ; std::allocator<std::_Tree_node<std::pair<unsigned long const ,CGuildMarkImage *>,void *> >::allocate
PUBLIC	?max_size@?$_Default_allocator_traits@V?$allocator@U?$_Tree_node@U?$pair@$$CBKPAVCGuildMarkImage@@@std@@PAX@std@@@std@@@std@@SAIABV?$allocator@U?$_Tree_node@U?$pair@$$CBKPAVCGuildMarkImage@@@std@@PAX@std@@@2@@Z ; std::_Default_allocator_traits<std::allocator<std::_Tree_node<std::pair<unsigned long const ,CGuildMarkImage *>,void *> > >::max_size
PUBLIC	??0?$_Tree_val@U?$_Tree_simple_types@U?$pair@$$CBKPAVCGuildMarkImage@@@std@@@std@@@std@@QAE@XZ ; std::_Tree_val<std::_Tree_simple_types<std::pair<unsigned long const ,CGuildMarkImage *> > >::_Tree_val<std::_Tree_simple_types<std::pair<unsigned long const ,CGuildMarkImage *> > >
PUBLIC	?_Get_first@?$_Compressed_pair@U?$less@K@std@@V?$_Compressed_pair@V?$allocator@U?$_Tree_node@U?$pair@$$CBKPAVCGuildMarkImage@@@std@@PAX@std@@@std@@V?$_Tree_val@U?$_Tree_simple_types@U?$pair@$$CBKPAVCGuildMarkImage@@@std@@@std@@@2@$00@2@$00@std@@QBEABU?$less@K@2@XZ ; std::_Compressed_pair<std::less<unsigned long>,std::_Compressed_pair<std::allocator<std::_Tree_node<std::pair<unsigned long const ,CGuildMarkImage *>,void *> >,std::_Tree_val<std::_Tree_simple_types<std::pair<unsigned long const ,CGuildMarkImage *> > >,1>,1>::_Get_first
PUBLIC	??0?$allocator@U?$_Tree_node@U?$pair@$$CBKUTGuildSymbol@CGuildMarkManager@@@std@@PAX@std@@@std@@QAE@XZ ; std::allocator<std::_Tree_node<std::pair<unsigned long const ,CGuildMarkManager::TGuildSymbol>,void *> >::allocator<std::_Tree_node<std::pair<unsigned long const ,CGuildMarkManager::TGuildSymbol>,void *> >
PUBLIC	?deallocate@?$allocator@U?$_Tree_node@U?$pair@$$CBKUTGuildSymbol@CGuildMarkManager@@@std@@PAX@std@@@std@@QAEXQAU?$_Tree_node@U?$pair@$$CBKUTGuildSymbol@CGuildMarkManager@@@std@@PAX@2@I@Z ; std::allocator<std::_Tree_node<std::pair<unsigned long const ,CGuildMarkManager::TGuildSymbol>,void *> >::deallocate
PUBLIC	?allocate@?$allocator@U?$_Tree_node@U?$pair@$$CBKUTGuildSymbol@CGuildMarkManager@@@std@@PAX@std@@@std@@QAEPAU?$_Tree_node@U?$pair@$$CBKUTGuildSymbol@CGuildMarkManager@@@std@@PAX@2@I@Z ; std::allocator<std::_Tree_node<std::pair<unsigned long const ,CGuildMarkManager::TGuildSymbol>,void *> >::allocate
PUBLIC	??0?$_Tree_val@U?$_Tree_simple_types@U?$pair@$$CBKUTGuildSymbol@CGuildMarkManager@@@std@@@std@@@std@@QAE@XZ ; std::_Tree_val<std::_Tree_simple_types<std::pair<unsigned long const ,CGuildMarkManager::TGuildSymbol> > >::_Tree_val<std::_Tree_simple_types<std::pair<unsigned long const ,CGuildMarkManager::TGuildSymbol> > >
PUBLIC	??0?$_Alloc_construct_ptr@V?$allocator@U?$_Tree_node@U?$pair@$$CBKPAVCGuildMarkImage@@@std@@PAX@std@@@std@@@std@@QAE@AAV?$allocator@U?$_Tree_node@U?$pair@$$CBKPAVCGuildMarkImage@@@std@@PAX@std@@@1@@Z ; std::_Alloc_construct_ptr<std::allocator<std::_Tree_node<std::pair<unsigned long const ,CGuildMarkImage *>,void *> > >::_Alloc_construct_ptr<std::allocator<std::_Tree_node<std::pair<unsigned long const ,CGuildMarkImage *>,void *> > >
PUBLIC	?_Allocate@?$_Alloc_construct_ptr@V?$allocator@U?$_Tree_node@U?$pair@$$CBKPAVCGuildMarkImage@@@std@@PAX@std@@@std@@@std@@QAEXXZ ; std::_Alloc_construct_ptr<std::allocator<std::_Tree_node<std::pair<unsigned long const ,CGuildMarkImage *>,void *> > >::_Allocate
PUBLIC	??$_Construct_in_place@PAU?$_Tree_node@U?$pair@$$CBKPAVCGuildMarkImage@@@std@@PAX@std@@ABQAU12@@std@@YAXAAPAU?$_Tree_node@U?$pair@$$CBKPAVCGuildMarkImage@@@std@@PAX@0@ABQAU10@@Z ; std::_Construct_in_place<std::_Tree_node<std::pair<unsigned long const ,CGuildMarkImage *>,void *> *,std::_Tree_node<std::pair<unsigned long const ,CGuildMarkImage *>,void *> * const &>
PUBLIC	??$_Construct_in_place@PAU?$_Tree_node@U?$pair@$$CBKUTGuildSymbol@CGuildMarkManager@@@std@@PAX@std@@ABQAU12@@std@@YAXAAPAU?$_Tree_node@U?$pair@$$CBKUTGuildSymbol@CGuildMarkManager@@@std@@PAX@0@ABQAU10@@Z ; std::_Construct_in_place<std::_Tree_node<std::pair<unsigned long const ,CGuildMarkManager::TGuildSymbol>,void *> *,std::_Tree_node<std::pair<unsigned long const ,CGuildMarkManager::TGuildSymbol>,void *> * const &>
PUBLIC	??1?$pair@$$CBKUTGuildSymbol@CGuildMarkManager@@@std@@QAE@XZ ; std::pair<unsigned long const ,CGuildMarkManager::TGuildSymbol>::~pair<unsigned long const ,CGuildMarkManager::TGuildSymbol>
PUBLIC	??$destroy_at@U?$pair@$$CBKUTGuildSymbol@CGuildMarkManager@@@std@@@std@@YAXQAU?$pair@$$CBKUTGuildSymbol@CGuildMarkManager@@@0@@Z ; std::destroy_at<std::pair<unsigned long const ,CGuildMarkManager::TGuildSymbol> >
PUBLIC	??$construct@E$$V@?$_Default_allocator_traits@V?$allocator@E@std@@@std@@SAXAAV?$allocator@E@1@QAE@Z ; std::_Default_allocator_traits<std::allocator<unsigned char> >::construct<unsigned char>
PUBLIC	??$construct@EE@?$_Default_allocator_traits@V?$allocator@E@std@@@std@@SAXAAV?$allocator@E@1@QAE$$QAE@Z ; std::_Default_allocator_traits<std::allocator<unsigned char> >::construct<unsigned char,unsigned char>
PUBLIC	??$forward@E@std@@YA$$QAEAAE@Z			; std::forward<unsigned char>
PUBLIC	??$_Copy_memmove_tail@PAE@std@@YAPAEQBDQAEII@Z	; std::_Copy_memmove_tail<unsigned char *>
PUBLIC	??$move@AAPAE@std@@YA$$QAPAEAAPAE@Z		; std::move<unsigned char * &>
PUBLIC	??$to_address@E@std@@YAPAEQAE@Z			; std::to_address<unsigned char>
PUBLIC	??$destroy_at@U?$pair@$$CBKPAVCGuildMarkImage@@@std@@@std@@YAXQAU?$pair@$$CBKPAVCGuildMarkImage@@@0@@Z ; std::destroy_at<std::pair<unsigned long const ,CGuildMarkImage *> >
PUBLIC	??$addressof@PAU?$_Tree_node@U?$pair@$$CBKUTGuildSymbol@CGuildMarkManager@@@std@@PAX@std@@@std@@YAPAPAU?$_Tree_node@U?$pair@$$CBKUTGuildSymbol@CGuildMarkManager@@@std@@PAX@0@AAPAU10@@Z ; std::addressof<std::_Tree_node<std::pair<unsigned long const ,CGuildMarkManager::TGuildSymbol>,void *> *>
PUBLIC	??$?0U_Exact_args_t@std@@ABK$$V$0A@@?$tuple@ABK@std@@QAE@U_Exact_args_t@1@ABK@Z ; std::tuple<unsigned long const &>::tuple<unsigned long const &><std::_Exact_args_t,unsigned long const &,0>
PUBLIC	??$construct_at@PAU?$_Tree_node@U?$pair@$$CBKPAVCGuildMarkImage@@@std@@PAX@std@@AAPAU12@@std@@YAPAPAU?$_Tree_node@U?$pair@$$CBKPAVCGuildMarkImage@@@std@@PAX@0@QAPAU10@AAPAU10@@Z ; std::construct_at<std::_Tree_node<std::pair<unsigned long const ,CGuildMarkImage *>,void *> *,std::_Tree_node<std::pair<unsigned long const ,CGuildMarkImage *>,void *> * &>
PUBLIC	??$addressof@PAU?$_Tree_node@U?$pair@$$CBKPAVCGuildMarkImage@@@std@@PAX@std@@@std@@YAPAPAU?$_Tree_node@U?$pair@$$CBKPAVCGuildMarkImage@@@std@@PAX@0@AAPAU10@@Z ; std::addressof<std::_Tree_node<std::pair<unsigned long const ,CGuildMarkImage *>,void *> *>
PUBLIC	??$construct_at@U?$pair@$$CBKPAVCGuildMarkImage@@@std@@U12@@std@@YAPAU?$pair@$$CBKPAVCGuildMarkImage@@@0@QAU10@$$QAU10@@Z ; std::construct_at<std::pair<unsigned long const ,CGuildMarkImage *>,std::pair<unsigned long const ,CGuildMarkImage *> >
PUBLIC	?allocate@?$allocator@E@std@@QAEPAEI@Z		; std::allocator<unsigned char>::allocate
PUBLIC	?_Calculate_growth@?$vector@EV?$allocator@E@std@@@std@@ABEII@Z ; std::vector<unsigned char,std::allocator<unsigned char> >::_Calculate_growth
PUBLIC	??1_Reallocation_guard@?$vector@EV?$allocator@E@std@@@std@@QAE@XZ ; std::vector<unsigned char,std::allocator<unsigned char> >::_Reallocation_guard::~_Reallocation_guard
PUBLIC	?_Get_first@?$_Compressed_pair@V?$allocator@E@std@@V?$_Vector_val@U?$_Simple_types@E@std@@@2@$00@std@@QBEABV?$allocator@E@2@XZ ; std::_Compressed_pair<std::allocator<unsigned char>,std::_Vector_val<std::_Simple_types<unsigned char> >,1>::_Get_first
PUBLIC	?max_size@?$_Tree@V?$_Tmap_traits@KPAVCGuildMarkImage@@U?$less@K@std@@V?$allocator@U?$pair@$$CBKPAVCGuildMarkImage@@@std@@@3@$0A@@std@@@std@@QBEIXZ ; std::_Tree<std::_Tmap_traits<unsigned long,CGuildMarkImage *,std::less<unsigned long>,std::allocator<std::pair<unsigned long const ,CGuildMarkImage *> >,0> >::max_size
PUBLIC	?_Getcomp@?$_Tree@V?$_Tmap_traits@KPAVCGuildMarkImage@@U?$less@K@std@@V?$allocator@U?$pair@$$CBKPAVCGuildMarkImage@@@std@@@3@$0A@@std@@@std@@IBEABU?$less@K@2@XZ ; std::_Tree<std::_Tmap_traits<unsigned long,CGuildMarkImage *,std::less<unsigned long>,std::allocator<std::pair<unsigned long const ,CGuildMarkImage *> >,0> >::_Getcomp
PUBLIC	?deallocate@?$_Default_allocator_traits@V?$allocator@U?$_Tree_node@U?$pair@$$CBKPAVCGuildMarkImage@@@std@@PAX@std@@@std@@@std@@SAXAAV?$allocator@U?$_Tree_node@U?$pair@$$CBKPAVCGuildMarkImage@@@std@@PAX@std@@@2@QAU?$_Tree_node@U?$pair@$$CBKPAVCGuildMarkImage@@@std@@PAX@2@I@Z ; std::_Default_allocator_traits<std::allocator<std::_Tree_node<std::pair<unsigned long const ,CGuildMarkImage *>,void *> > >::deallocate
PUBLIC	?_Min@?$_Tree_val@U?$_Tree_simple_types@U?$pair@$$CBKPAVCGuildMarkImage@@@std@@@std@@@std@@SAPAU?$_Tree_node@U?$pair@$$CBKPAVCGuildMarkImage@@@std@@PAX@2@PAU32@@Z ; std::_Tree_val<std::_Tree_simple_types<std::pair<unsigned long const ,CGuildMarkImage *> > >::_Min
PUBLIC	?_Lrotate@?$_Tree_val@U?$_Tree_simple_types@U?$pair@$$CBKPAVCGuildMarkImage@@@std@@@std@@@std@@QAEXPAU?$_Tree_node@U?$pair@$$CBKPAVCGuildMarkImage@@@std@@PAX@2@@Z ; std::_Tree_val<std::_Tree_simple_types<std::pair<unsigned long const ,CGuildMarkImage *> > >::_Lrotate
PUBLIC	?_Rrotate@?$_Tree_val@U?$_Tree_simple_types@U?$pair@$$CBKPAVCGuildMarkImage@@@std@@@std@@@std@@QAEXPAU?$_Tree_node@U?$pair@$$CBKPAVCGuildMarkImage@@@std@@PAX@2@@Z ; std::_Tree_val<std::_Tree_simple_types<std::pair<unsigned long const ,CGuildMarkImage *> > >::_Rrotate
PUBLIC	?deallocate@?$_Default_allocator_traits@V?$allocator@U?$_Tree_node@U?$pair@$$CBKUTGuildSymbol@CGuildMarkManager@@@std@@PAX@std@@@std@@@std@@SAXAAV?$allocator@U?$_Tree_node@U?$pair@$$CBKUTGuildSymbol@CGuildMarkManager@@@std@@PAX@std@@@2@QAU?$_Tree_node@U?$pair@$$CBKUTGuildSymbol@CGuildMarkManager@@@std@@PAX@2@I@Z ; std::_Default_allocator_traits<std::allocator<std::_Tree_node<std::pair<unsigned long const ,CGuildMarkManager::TGuildSymbol>,void *> > >::deallocate
PUBLIC	??0?$_Tree_temp_node_alloc@V?$allocator@U?$_Tree_node@U?$pair@$$CBKPAVCGuildMarkImage@@@std@@PAX@std@@@std@@@std@@QAE@AAV?$allocator@U?$_Tree_node@U?$pair@$$CBKPAVCGuildMarkImage@@@std@@PAX@std@@@1@@Z ; std::_Tree_temp_node_alloc<std::allocator<std::_Tree_node<std::pair<unsigned long const ,CGuildMarkImage *>,void *> > >::_Tree_temp_node_alloc<std::allocator<std::_Tree_node<std::pair<unsigned long const ,CGuildMarkImage *>,void *> > >
PUBLIC	??1?$_Alloc_construct_ptr@V?$allocator@U?$_Tree_node@U?$pair@$$CBKPAVCGuildMarkImage@@@std@@PAX@std@@@std@@@std@@QAE@XZ ; std::_Alloc_construct_ptr<std::allocator<std::_Tree_node<std::pair<unsigned long const ,CGuildMarkImage *>,void *> > >::~_Alloc_construct_ptr<std::allocator<std::_Tree_node<std::pair<unsigned long const ,CGuildMarkImage *>,void *> > >
PUBLIC	??0?$_Uninitialized_backout_al@V?$allocator@E@std@@@std@@QAE@PAEAAV?$allocator@E@1@@Z ; std::_Uninitialized_backout_al<std::allocator<unsigned char> >::_Uninitialized_backout_al<std::allocator<unsigned char> >
PUBLIC	??1?$_Uninitialized_backout_al@V?$allocator@E@std@@@std@@QAE@XZ ; std::_Uninitialized_backout_al<std::allocator<unsigned char> >::~_Uninitialized_backout_al<std::allocator<unsigned char> >
PUBLIC	?_Release@?$_Uninitialized_backout_al@V?$allocator@E@std@@@std@@QAEPAEXZ ; std::_Uninitialized_backout_al<std::allocator<unsigned char> >::_Release
PUBLIC	??$_Buyheadnode@V?$allocator@U?$_Tree_node@U?$pair@$$CBKPAVCGuildMarkImage@@@std@@PAX@std@@@std@@@?$_Tree_node@U?$pair@$$CBKPAVCGuildMarkImage@@@std@@PAX@std@@SAPAU01@AAV?$allocator@U?$_Tree_node@U?$pair@$$CBKPAVCGuildMarkImage@@@std@@PAX@std@@@1@@Z ; std::_Tree_node<std::pair<unsigned long const ,CGuildMarkImage *>,void *>::_Buyheadnode<std::allocator<std::_Tree_node<std::pair<unsigned long const ,CGuildMarkImage *>,void *> > >
PUBLIC	??$_Buyheadnode@V?$allocator@U?$_Tree_node@U?$pair@$$CBKUTGuildSymbol@CGuildMarkManager@@@std@@PAX@std@@@std@@@?$_Tree_node@U?$pair@$$CBKUTGuildSymbol@CGuildMarkManager@@@std@@PAX@std@@SAPAU01@AAV?$allocator@U?$_Tree_node@U?$pair@$$CBKUTGuildSymbol@CGuildMarkManager@@@std@@PAX@std@@@1@@Z ; std::_Tree_node<std::pair<unsigned long const ,CGuildMarkManager::TGuildSymbol>,void *>::_Buyheadnode<std::allocator<std::_Tree_node<std::pair<unsigned long const ,CGuildMarkManager::TGuildSymbol>,void *> > >
PUBLIC	??$exchange@PAU?$_Tree_node@U?$pair@$$CBKPAVCGuildMarkImage@@@std@@PAX@std@@$$T@std@@YAPAU?$_Tree_node@U?$pair@$$CBKPAVCGuildMarkImage@@@std@@PAX@0@AAPAU10@$$QA$$T@Z ; std::exchange<std::_Tree_node<std::pair<unsigned long const ,CGuildMarkImage *>,void *> *,std::nullptr_t>
PUBLIC	??$destroy@U?$pair@$$CBKUTGuildSymbol@CGuildMarkManager@@@std@@@?$_Default_allocator_traits@V?$allocator@U?$_Tree_node@U?$pair@$$CBKUTGuildSymbol@CGuildMarkManager@@@std@@PAX@std@@@std@@@std@@SAXAAV?$allocator@U?$_Tree_node@U?$pair@$$CBKUTGuildSymbol@CGuildMarkManager@@@std@@PAX@std@@@1@QAU?$pair@$$CBKUTGuildSymbol@CGuildMarkManager@@@1@@Z ; std::_Default_allocator_traits<std::allocator<std::_Tree_node<std::pair<unsigned long const ,CGuildMarkManager::TGuildSymbol>,void *> > >::destroy<std::pair<unsigned long const ,CGuildMarkManager::TGuildSymbol> >
PUBLIC	??$_Emplace_back@$$V@?$_Uninitialized_backout_al@V?$allocator@E@std@@@std@@QAEXXZ ; std::_Uninitialized_backout_al<std::allocator<unsigned char> >::_Emplace_back<>
PUBLIC	??$_Zero_range@PAE@std@@YAPAEQAE0@Z		; std::_Zero_range<unsigned char *>
PUBLIC	??$_Emplace_back@E@?$_Uninitialized_backout_al@V?$allocator@E@std@@@std@@QAEX$$QAE@Z ; std::_Uninitialized_backout_al<std::allocator<unsigned char> >::_Emplace_back<unsigned char>
PUBLIC	??$_To_address@PAE@std@@YA?A_PABQAE@Z		; std::_To_address<unsigned char *>
PUBLIC	??$_Copy_memmove@PAEPAE@std@@YAPAEPAE00@Z	; std::_Copy_memmove<unsigned char *,unsigned char *>
PUBLIC	??$_Unfancy@E@std@@YAPAEPAE@Z			; std::_Unfancy<unsigned char>
PUBLIC	??$move@AAE@std@@YA$$QAEAAE@Z			; std::move<unsigned char &>
PUBLIC	??$_Destroy_in_place@PAU?$_Tree_node@U?$pair@$$CBKPAVCGuildMarkImage@@@std@@PAX@std@@@std@@YAXAAPAU?$_Tree_node@U?$pair@$$CBKPAVCGuildMarkImage@@@std@@PAX@0@@Z ; std::_Destroy_in_place<std::_Tree_node<std::pair<unsigned long const ,CGuildMarkImage *>,void *> *>
PUBLIC	??$destroy@U?$pair@$$CBKPAVCGuildMarkImage@@@std@@@?$_Default_allocator_traits@V?$allocator@U?$_Tree_node@U?$pair@$$CBKPAVCGuildMarkImage@@@std@@PAX@std@@@std@@@std@@SAXAAV?$allocator@U?$_Tree_node@U?$pair@$$CBKPAVCGuildMarkImage@@@std@@PAX@std@@@1@QAU?$pair@$$CBKPAVCGuildMarkImage@@@1@@Z ; std::_Default_allocator_traits<std::allocator<std::_Tree_node<std::pair<unsigned long const ,CGuildMarkImage *>,void *> > >::destroy<std::pair<unsigned long const ,CGuildMarkImage *> >
PUBLIC	??$forward@ABQAU?$_Tree_node@U?$pair@$$CBKUTGuildSymbol@CGuildMarkManager@@@std@@PAX@std@@@std@@YAABQAU?$_Tree_node@U?$pair@$$CBKUTGuildSymbol@CGuildMarkManager@@@std@@PAX@0@ABQAU10@@Z ; std::forward<std::_Tree_node<std::pair<unsigned long const ,CGuildMarkManager::TGuildSymbol>,void *> * const &>
PUBLIC	??$forward@V?$tuple@$$V@std@@@std@@YA$$QAV?$tuple@$$V@0@AAV10@@Z ; std::forward<std::tuple<> >
PUBLIC	??$forward@V?$tuple@ABK@std@@@std@@YA$$QAV?$tuple@ABK@0@AAV10@@Z ; std::forward<std::tuple<unsigned long const &> >
PUBLIC	??$forward@ABUpiecewise_construct_t@std@@@std@@YAABUpiecewise_construct_t@0@ABU10@@Z ; std::forward<std::piecewise_construct_t const &>
PUBLIC	??$?0ABK$0A@@?$tuple@ABK@std@@QAE@ABK@Z		; std::tuple<unsigned long const &>::tuple<unsigned long const &><unsigned long const &,0>
PUBLIC	??$_Destroy_in_place@PAU?$_Tree_node@U?$pair@$$CBKUTGuildSymbol@CGuildMarkManager@@@std@@PAX@std@@@std@@YAXAAPAU?$_Tree_node@U?$pair@$$CBKUTGuildSymbol@CGuildMarkManager@@@std@@PAX@0@@Z ; std::_Destroy_in_place<std::_Tree_node<std::pair<unsigned long const ,CGuildMarkManager::TGuildSymbol>,void *> *>
PUBLIC	??$_Freenode@V?$allocator@U?$_Tree_node@U?$pair@$$CBKUTGuildSymbol@CGuildMarkManager@@@std@@PAX@std@@@std@@@?$_Tree_node@U?$pair@$$CBKUTGuildSymbol@CGuildMarkManager@@@std@@PAX@std@@SAXAAV?$allocator@U?$_Tree_node@U?$pair@$$CBKUTGuildSymbol@CGuildMarkManager@@@std@@PAX@std@@@1@PAU01@@Z ; std::_Tree_node<std::pair<unsigned long const ,CGuildMarkManager::TGuildSymbol>,void *>::_Freenode<std::allocator<std::_Tree_node<std::pair<unsigned long const ,CGuildMarkManager::TGuildSymbol>,void *> > >
PUBLIC	??$exchange@PAU?$_Tree_node@U?$pair@$$CBKUTGuildSymbol@CGuildMarkManager@@@std@@PAX@std@@AAPAU12@@std@@YAPAU?$_Tree_node@U?$pair@$$CBKUTGuildSymbol@CGuildMarkManager@@@std@@PAX@0@AAPAU10@0@Z ; std::exchange<std::_Tree_node<std::pair<unsigned long const ,CGuildMarkManager::TGuildSymbol>,void *> *,std::_Tree_node<std::pair<unsigned long const ,CGuildMarkManager::TGuildSymbol>,void *> * &>
PUBLIC	??$forward@PAU?$_Tree_node@U?$pair@$$CBKPAVCGuildMarkImage@@@std@@PAX@std@@@std@@YA$$QAPAU?$_Tree_node@U?$pair@$$CBKPAVCGuildMarkImage@@@std@@PAX@0@AAPAU10@@Z ; std::forward<std::_Tree_node<std::pair<unsigned long const ,CGuildMarkImage *>,void *> *>
PUBLIC	??$forward@AAPAU?$_Tree_node@U?$pair@$$CBKPAVCGuildMarkImage@@@std@@PAX@std@@@std@@YAAAPAU?$_Tree_node@U?$pair@$$CBKPAVCGuildMarkImage@@@std@@PAX@0@AAPAU10@@Z ; std::forward<std::_Tree_node<std::pair<unsigned long const ,CGuildMarkImage *>,void *> * &>
PUBLIC	??$_Construct_in_place@PAU?$_Tree_node@U?$pair@$$CBKPAVCGuildMarkImage@@@std@@PAX@std@@AAPAU12@@std@@YAXAAPAU?$_Tree_node@U?$pair@$$CBKPAVCGuildMarkImage@@@std@@PAX@0@0@Z ; std::_Construct_in_place<std::_Tree_node<std::pair<unsigned long const ,CGuildMarkImage *>,void *> *,std::_Tree_node<std::pair<unsigned long const ,CGuildMarkImage *>,void *> * &>
PUBLIC	??$construct@U?$pair@$$CBKPAVCGuildMarkImage@@@std@@U12@@?$_Default_allocator_traits@V?$allocator@U?$_Tree_node@U?$pair@$$CBKPAVCGuildMarkImage@@@std@@PAX@std@@@std@@@std@@SAXAAV?$allocator@U?$_Tree_node@U?$pair@$$CBKPAVCGuildMarkImage@@@std@@PAX@std@@@1@QAU?$pair@$$CBKPAVCGuildMarkImage@@@1@$$QAU31@@Z ; std::_Default_allocator_traits<std::allocator<std::_Tree_node<std::pair<unsigned long const ,CGuildMarkImage *>,void *> > >::construct<std::pair<unsigned long const ,CGuildMarkImage *>,std::pair<unsigned long const ,CGuildMarkImage *> >
PUBLIC	??$_Kfn@$$CBKPAVCGuildMarkImage@@@?$_Tmap_traits@KPAVCGuildMarkImage@@U?$less@K@std@@V?$allocator@U?$pair@$$CBKPAVCGuildMarkImage@@@std@@@3@$0A@@std@@SAABKABU?$pair@$$CBKPAVCGuildMarkImage@@@1@@Z ; std::_Tmap_traits<unsigned long,CGuildMarkImage *,std::less<unsigned long>,std::allocator<std::pair<unsigned long const ,CGuildMarkImage *> >,0>::_Kfn<unsigned long const ,CGuildMarkImage *>
PUBLIC	??$?0$$V@?$_Compressed_pair@V?$allocator@U?$_Tree_node@U?$pair@$$CBKPAVCGuildMarkImage@@@std@@PAX@std@@@std@@V?$_Tree_val@U?$_Tree_simple_types@U?$pair@$$CBKPAVCGuildMarkImage@@@std@@@std@@@2@$00@std@@QAE@U_Zero_then_variadic_args_t@1@@Z ; std::_Compressed_pair<std::allocator<std::_Tree_node<std::pair<unsigned long const ,CGuildMarkImage *>,void *> >,std::_Tree_val<std::_Tree_simple_types<std::pair<unsigned long const ,CGuildMarkImage *> > >,1>::_Compressed_pair<std::allocator<std::_Tree_node<std::pair<unsigned long const ,CGuildMarkImage *>,void *> >,std::_Tree_val<std::_Tree_simple_types<std::pair<unsigned long const ,CGuildMarkImage *> > >,1><>
PUBLIC	??$?0$$V@?$_Compressed_pair@V?$allocator@U?$_Tree_node@U?$pair@$$CBKUTGuildSymbol@CGuildMarkManager@@@std@@PAX@std@@@std@@V?$_Tree_val@U?$_Tree_simple_types@U?$pair@$$CBKUTGuildSymbol@CGuildMarkManager@@@std@@@std@@@2@$00@std@@QAE@U_Zero_then_variadic_args_t@1@@Z ; std::_Compressed_pair<std::allocator<std::_Tree_node<std::pair<unsigned long const ,CGuildMarkManager::TGuildSymbol>,void *> >,std::_Tree_val<std::_Tree_simple_types<std::pair<unsigned long const ,CGuildMarkManager::TGuildSymbol> > >,1>::_Compressed_pair<std::allocator<std::_Tree_node<std::pair<unsigned long const ,CGuildMarkManager::TGuildSymbol>,void *> >,std::_Tree_val<std::_Tree_simple_types<std::pair<unsigned long const ,CGuildMarkManager::TGuildSymbol> > >,1><>
PUBLIC	??1?$_Tree_temp_node_alloc@V?$allocator@U?$_Tree_node@U?$pair@$$CBKPAVCGuildMarkImage@@@std@@PAX@std@@@std@@@std@@QAE@XZ ; std::_Tree_temp_node_alloc<std::allocator<std::_Tree_node<std::pair<unsigned long const ,CGuildMarkImage *>,void *> > >::~_Tree_temp_node_alloc<std::allocator<std::_Tree_node<std::pair<unsigned long const ,CGuildMarkImage *>,void *> > >
PUBLIC	??0?$allocator@E@std@@QAE@XZ			; std::allocator<unsigned char>::allocator<unsigned char>
PUBLIC	?deallocate@?$allocator@E@std@@QAEXQAEI@Z	; std::allocator<unsigned char>::deallocate
PUBLIC	?_Change_array@?$vector@EV?$allocator@E@std@@@std@@AAEXQAEII@Z ; std::vector<unsigned char,std::allocator<unsigned char> >::_Change_array
PUBLIC	?_Orphan_range@?$vector@EV?$allocator@E@std@@@std@@ABEXPAE0@Z ; std::vector<unsigned char,std::allocator<unsigned char> >::_Orphan_range
PUBLIC	?_Getal@?$vector@EV?$allocator@E@std@@@std@@ABEABV?$allocator@E@2@XZ ; std::vector<unsigned char,std::allocator<unsigned char> >::_Getal
PUBLIC	?max_size@?$_Default_allocator_traits@V?$allocator@E@std@@@std@@SAIABV?$allocator@E@2@@Z ; std::_Default_allocator_traits<std::allocator<unsigned char> >::max_size
PUBLIC	??0?$_Vector_val@U?$_Simple_types@E@std@@@std@@QAE@XZ ; std::_Vector_val<std::_Simple_types<unsigned char> >::_Vector_val<std::_Simple_types<unsigned char> >
PUBLIC	?_Get_first@?$_Compressed_pair@V?$allocator@E@std@@V?$_Vector_val@U?$_Simple_types@E@std@@@2@$00@std@@QAEAAV?$allocator@E@2@XZ ; std::_Compressed_pair<std::allocator<unsigned char>,std::_Vector_val<std::_Simple_types<unsigned char> >,1>::_Get_first
PUBLIC	?_Check_grow_by_1@?$_Tree@V?$_Tmap_traits@KPAVCGuildMarkImage@@U?$less@K@std@@V?$allocator@U?$pair@$$CBKPAVCGuildMarkImage@@@std@@@3@$0A@@std@@@std@@IAEXXZ ; std::_Tree<std::_Tmap_traits<unsigned long,CGuildMarkImage *,std::less<unsigned long>,std::allocator<std::pair<unsigned long const ,CGuildMarkImage *> >,0> >::_Check_grow_by_1
PUBLIC	?_Alloc_sentinel_and_proxy@?$_Tree@V?$_Tmap_traits@KPAVCGuildMarkImage@@U?$less@K@std@@V?$allocator@U?$pair@$$CBKPAVCGuildMarkImage@@@std@@@3@$0A@@std@@@std@@IAEXXZ ; std::_Tree<std::_Tmap_traits<unsigned long,CGuildMarkImage *,std::less<unsigned long>,std::allocator<std::pair<unsigned long const ,CGuildMarkImage *> >,0> >::_Alloc_sentinel_and_proxy
PUBLIC	?_Insert_node@?$_Tree_val@U?$_Tree_simple_types@U?$pair@$$CBKPAVCGuildMarkImage@@@std@@@std@@@std@@QAEPAU?$_Tree_node@U?$pair@$$CBKPAVCGuildMarkImage@@@std@@PAX@2@U?$_Tree_id@PAU?$_Tree_node@U?$pair@$$CBKPAVCGuildMarkImage@@@std@@PAX@std@@@2@QAU32@@Z ; std::_Tree_val<std::_Tree_simple_types<std::pair<unsigned long const ,CGuildMarkImage *> > >::_Insert_node
PUBLIC	??D?$_Tree_const_iterator@V?$_Tree_val@U?$_Tree_simple_types@U?$pair@$$CBKPAVCGuildMarkImage@@@std@@@std@@@std@@@std@@QBEABU?$pair@$$CBKPAVCGuildMarkImage@@@1@XZ ; std::_Tree_const_iterator<std::_Tree_val<std::_Tree_simple_types<std::pair<unsigned long const ,CGuildMarkImage *> > > >::operator*
PUBLIC	??E?$_Tree_unchecked_const_iterator@V?$_Tree_val@U?$_Tree_simple_types@U?$pair@$$CBKPAVCGuildMarkImage@@@std@@@std@@@std@@U_Iterator_base0@2@@std@@QAEAAV01@XZ ; std::_Tree_unchecked_const_iterator<std::_Tree_val<std::_Tree_simple_types<std::pair<unsigned long const ,CGuildMarkImage *> > >,std::_Iterator_base0>::operator++
PUBLIC	?_Get_first@?$_Compressed_pair@V?$allocator@U?$_Tree_node@U?$pair@$$CBKPAVCGuildMarkImage@@@std@@PAX@std@@@std@@V?$_Tree_val@U?$_Tree_simple_types@U?$pair@$$CBKPAVCGuildMarkImage@@@std@@@std@@@2@$00@std@@QAEAAV?$allocator@U?$_Tree_node@U?$pair@$$CBKPAVCGuildMarkImage@@@std@@PAX@std@@@2@XZ ; std::_Compressed_pair<std::allocator<std::_Tree_node<std::pair<unsigned long const ,CGuildMarkImage *>,void *> >,std::_Tree_val<std::_Tree_simple_types<std::pair<unsigned long const ,CGuildMarkImage *> > >,1>::_Get_first
PUBLIC	?_Alloc_sentinel_and_proxy@?$_Tree@V?$_Tmap_traits@KUTGuildSymbol@CGuildMarkManager@@U?$less@K@std@@V?$allocator@U?$pair@$$CBKUTGuildSymbol@CGuildMarkManager@@@std@@@4@$0A@@std@@@std@@IAEXXZ ; std::_Tree<std::_Tmap_traits<unsigned long,CGuildMarkManager::TGuildSymbol,std::less<unsigned long>,std::allocator<std::pair<unsigned long const ,CGuildMarkManager::TGuildSymbol> >,0> >::_Alloc_sentinel_and_proxy
PUBLIC	?_Get_first@?$_Compressed_pair@V?$allocator@U?$_Tree_node@U?$pair@$$CBKUTGuildSymbol@CGuildMarkManager@@@std@@PAX@std@@@std@@V?$_Tree_val@U?$_Tree_simple_types@U?$pair@$$CBKUTGuildSymbol@CGuildMarkManager@@@std@@@std@@@2@$00@std@@QAEAAV?$allocator@U?$_Tree_node@U?$pair@$$CBKUTGuildSymbol@CGuildMarkManager@@@std@@PAX@std@@@2@XZ ; std::_Compressed_pair<std::allocator<std::_Tree_node<std::pair<unsigned long const ,CGuildMarkManager::TGuildSymbol>,void *> >,std::_Tree_val<std::_Tree_simple_types<std::pair<unsigned long const ,CGuildMarkManager::TGuildSymbol> > >,1>::_Get_first
PUBLIC	?_Extract@?$_In_place_key_extract_map_impl@KU?$pair@$$CBKPAVCGuildMarkImage@@@std@@@std@@SAABKABU?$pair@$$CBKPAVCGuildMarkImage@@@2@@Z ; std::_In_place_key_extract_map_impl<unsigned long,std::pair<unsigned long const ,CGuildMarkImage *> >::_Extract
PUBLIC	??1?$_Tree_temp_node@V?$allocator@U?$_Tree_node@U?$pair@$$CBKPAVCGuildMarkImage@@@std@@PAX@std@@@std@@@std@@QAE@XZ ; std::_Tree_temp_node<std::allocator<std::_Tree_node<std::pair<unsigned long const ,CGuildMarkImage *>,void *> > >::~_Tree_temp_node<std::allocator<std::_Tree_node<std::pair<unsigned long const ,CGuildMarkImage *>,void *> > >
PUBLIC	?_Release@?$_Alloc_construct_ptr@V?$allocator@U?$_Tree_node@U?$pair@$$CBKPAVCGuildMarkImage@@@std@@PAX@std@@@std@@@std@@QAEPAU?$_Tree_node@U?$pair@$$CBKPAVCGuildMarkImage@@@std@@PAX@2@XZ ; std::_Alloc_construct_ptr<std::allocator<std::_Tree_node<std::pair<unsigned long const ,CGuildMarkImage *>,void *> > >::_Release
PUBLIC	??$?0ABU?$less@K@std@@U_Zero_then_variadic_args_t@1@@?$_Compressed_pair@U?$less@K@std@@V?$_Compressed_pair@V?$allocator@U?$_Tree_node@U?$pair@$$CBKPAVCGuildMarkImage@@@std@@PAX@std@@@std@@V?$_Tree_val@U?$_Tree_simple_types@U?$pair@$$CBKPAVCGuildMarkImage@@@std@@@std@@@2@$00@2@$00@std@@QAE@U_One_then_variadic_args_t@1@ABU?$less@K@1@$$QAU_Zero_then_variadic_args_t@1@@Z ; std::_Compressed_pair<std::less<unsigned long>,std::_Compressed_pair<std::allocator<std::_Tree_node<std::pair<unsigned long const ,CGuildMarkImage *>,void *> >,std::_Tree_val<std::_Tree_simple_types<std::pair<unsigned long const ,CGuildMarkImage *> > >,1>,1>::_Compressed_pair<std::less<unsigned long>,std::_Compressed_pair<std::allocator<std::_Tree_node<std::pair<unsigned long const ,CGuildMarkImage *>,void *> >,std::_Tree_val<std::_Tree_simple_types<std::pair<unsigned long const ,CGuildMarkImage *> > >,1>,1><std::less<unsigned long> const &,std::_Zero_then_variadic_args_t>
PUBLIC	??$addressof@V?$_Tree_val@U?$_Tree_simple_types@U?$pair@$$CBKPAVCGuildMarkImage@@@std@@@std@@@std@@@std@@YAPAV?$_Tree_val@U?$_Tree_simple_types@U?$pair@$$CBKPAVCGuildMarkImage@@@std@@@std@@@0@AAV10@@Z ; std::addressof<std::_Tree_val<std::_Tree_simple_types<std::pair<unsigned long const ,CGuildMarkImage *> > > >
PUBLIC	??$addressof@$$CBV?$_Tree_val@U?$_Tree_simple_types@U?$pair@$$CBKPAVCGuildMarkImage@@@std@@@std@@@std@@@std@@YAPBV?$_Tree_val@U?$_Tree_simple_types@U?$pair@$$CBKPAVCGuildMarkImage@@@std@@@std@@@0@ABV10@@Z ; std::addressof<std::_Tree_val<std::_Tree_simple_types<std::pair<unsigned long const ,CGuildMarkImage *> > > const >
PUBLIC	??$?0ABU?$less@K@std@@U_Zero_then_variadic_args_t@1@@?$_Compressed_pair@U?$less@K@std@@V?$_Compressed_pair@V?$allocator@U?$_Tree_node@U?$pair@$$CBKUTGuildSymbol@CGuildMarkManager@@@std@@PAX@std@@@std@@V?$_Tree_val@U?$_Tree_simple_types@U?$pair@$$CBKUTGuildSymbol@CGuildMarkManager@@@std@@@std@@@2@$00@2@$00@std@@QAE@U_One_then_variadic_args_t@1@ABU?$less@K@1@$$QAU_Zero_then_variadic_args_t@1@@Z ; std::_Compressed_pair<std::less<unsigned long>,std::_Compressed_pair<std::allocator<std::_Tree_node<std::pair<unsigned long const ,CGuildMarkManager::TGuildSymbol>,void *> >,std::_Tree_val<std::_Tree_simple_types<std::pair<unsigned long const ,CGuildMarkManager::TGuildSymbol> > >,1>,1>::_Compressed_pair<std::less<unsigned long>,std::_Compressed_pair<std::allocator<std::_Tree_node<std::pair<unsigned long const ,CGuildMarkManager::TGuildSymbol>,void *> >,std::_Tree_val<std::_Tree_simple_types<std::pair<unsigned long const ,CGuildMarkManager::TGuildSymbol> > >,1>,1><std::less<unsigned long> const &,std::_Zero_then_variadic_args_t>
PUBLIC	??$addressof@V?$_Tree_val@U?$_Tree_simple_types@U?$pair@$$CBKUTGuildSymbol@CGuildMarkManager@@@std@@@std@@@std@@@std@@YAPAV?$_Tree_val@U?$_Tree_simple_types@U?$pair@$$CBKUTGuildSymbol@CGuildMarkManager@@@std@@@std@@@0@AAV10@@Z ; std::addressof<std::_Tree_val<std::_Tree_simple_types<std::pair<unsigned long const ,CGuildMarkManager::TGuildSymbol> > > >
PUBLIC	??$addressof@U?$pair@$$CBKUTGuildSymbol@CGuildMarkManager@@@std@@@std@@YAPAU?$pair@$$CBKUTGuildSymbol@CGuildMarkManager@@@0@AAU10@@Z ; std::addressof<std::pair<unsigned long const ,CGuildMarkManager::TGuildSymbol> >
PUBLIC	??$addressof@U?$pair@$$CBKPAVCGuildMarkImage@@@std@@@std@@YAPAU?$pair@$$CBKPAVCGuildMarkImage@@@0@AAU10@@Z ; std::addressof<std::pair<unsigned long const ,CGuildMarkImage *> >
PUBLIC	??$_Uninitialized_value_construct_n@V?$allocator@E@std@@@std@@YAPAEPAEIAAV?$allocator@E@0@@Z ; std::_Uninitialized_value_construct_n<std::allocator<unsigned char> >
PUBLIC	??$_Resize_reallocate@U_Value_init_tag@std@@@?$vector@EV?$allocator@E@std@@@std@@AAEXIABU_Value_init_tag@1@@Z ; std::vector<unsigned char,std::allocator<unsigned char> >::_Resize_reallocate<std::_Value_init_tag>
PUBLIC	??$_Uninitialized_move@PAEV?$allocator@E@std@@@std@@YAPAEQAE0PAEAAV?$allocator@E@0@@Z ; std::_Uninitialized_move<unsigned char *,std::allocator<unsigned char> >
PUBLIC	??$_Get_unwrapped@ABQAE@std@@YA?A_TABQAE@Z	; std::_Get_unwrapped<unsigned char * const &>
PUBLIC	??$_Allocate_at_least_helper@V?$allocator@E@std@@@std@@YAPAEAAV?$allocator@E@0@AAI@Z ; std::_Allocate_at_least_helper<std::allocator<unsigned char> >
PUBLIC	??$_Freenode0@V?$allocator@U?$_Tree_node@U?$pair@$$CBKPAVCGuildMarkImage@@@std@@PAX@std@@@std@@@?$_Tree_node@U?$pair@$$CBKPAVCGuildMarkImage@@@std@@PAX@std@@SAXAAV?$allocator@U?$_Tree_node@U?$pair@$$CBKPAVCGuildMarkImage@@@std@@PAX@std@@@1@PAU01@@Z ; std::_Tree_node<std::pair<unsigned long const ,CGuildMarkImage *>,void *>::_Freenode0<std::allocator<std::_Tree_node<std::pair<unsigned long const ,CGuildMarkImage *>,void *> > >
PUBLIC	??$_Freenode@V?$allocator@U?$_Tree_node@U?$pair@$$CBKPAVCGuildMarkImage@@@std@@PAX@std@@@std@@@?$_Tree_node@U?$pair@$$CBKPAVCGuildMarkImage@@@std@@PAX@std@@SAXAAV?$allocator@U?$_Tree_node@U?$pair@$$CBKPAVCGuildMarkImage@@@std@@PAX@std@@@1@PAU01@@Z ; std::_Tree_node<std::pair<unsigned long const ,CGuildMarkImage *>,void *>::_Freenode<std::allocator<std::_Tree_node<std::pair<unsigned long const ,CGuildMarkImage *>,void *> > >
PUBLIC	??$exchange@PAU?$_Tree_node@U?$pair@$$CBKPAVCGuildMarkImage@@@std@@PAX@std@@AAPAU12@@std@@YAPAU?$_Tree_node@U?$pair@$$CBKPAVCGuildMarkImage@@@std@@PAX@0@AAPAU10@0@Z ; std::exchange<std::_Tree_node<std::pair<unsigned long const ,CGuildMarkImage *>,void *> *,std::_Tree_node<std::pair<unsigned long const ,CGuildMarkImage *>,void *> * &>
PUBLIC	??$forward_as_tuple@$$V@std@@YA?AV?$tuple@$$V@0@XZ ; std::forward_as_tuple<>
PUBLIC	??$forward_as_tuple@ABK@std@@YA?AV?$tuple@ABK@0@ABK@Z ; std::forward_as_tuple<unsigned long const &>
PUBLIC	??$_Freenode0@V?$allocator@U?$_Tree_node@U?$pair@$$CBKUTGuildSymbol@CGuildMarkManager@@@std@@PAX@std@@@std@@@?$_Tree_node@U?$pair@$$CBKUTGuildSymbol@CGuildMarkManager@@@std@@PAX@std@@SAXAAV?$allocator@U?$_Tree_node@U?$pair@$$CBKUTGuildSymbol@CGuildMarkManager@@@std@@PAX@std@@@1@PAU01@@Z ; std::_Tree_node<std::pair<unsigned long const ,CGuildMarkManager::TGuildSymbol>,void *>::_Freenode0<std::allocator<std::_Tree_node<std::pair<unsigned long const ,CGuildMarkManager::TGuildSymbol>,void *> > >
PUBLIC	??$_Erase_tree@V?$allocator@U?$_Tree_node@U?$pair@$$CBKUTGuildSymbol@CGuildMarkManager@@@std@@PAX@std@@@std@@@?$_Tree_val@U?$_Tree_simple_types@U?$pair@$$CBKUTGuildSymbol@CGuildMarkManager@@@std@@@std@@@std@@QAEXAAV?$allocator@U?$_Tree_node@U?$pair@$$CBKUTGuildSymbol@CGuildMarkManager@@@std@@PAX@std@@@1@PAU?$_Tree_node@U?$pair@$$CBKUTGuildSymbol@CGuildMarkManager@@@std@@PAX@1@@Z ; std::_Tree_val<std::_Tree_simple_types<std::pair<unsigned long const ,CGuildMarkManager::TGuildSymbol> > >::_Erase_tree<std::allocator<std::_Tree_node<std::pair<unsigned long const ,CGuildMarkManager::TGuildSymbol>,void *> > >
PUBLIC	??$forward@V?$_Tree_iterator@V?$_Tree_val@U?$_Tree_simple_types@U?$pair@$$CBKPAVCGuildMarkImage@@@std@@@std@@@std@@@std@@@std@@YA$$QAV?$_Tree_iterator@V?$_Tree_val@U?$_Tree_simple_types@U?$pair@$$CBKPAVCGuildMarkImage@@@std@@@std@@@std@@@0@AAV10@@Z ; std::forward<std::_Tree_iterator<std::_Tree_val<std::_Tree_simple_types<std::pair<unsigned long const ,CGuildMarkImage *> > > > >
PUBLIC	??$?0PAU?$_Tree_node@U?$pair@$$CBKPAVCGuildMarkImage@@@std@@PAX@std@@_N$0A@@?$pair@PAU?$_Tree_node@U?$pair@$$CBKPAVCGuildMarkImage@@@std@@PAX@std@@_N@std@@QAE@$$QAPAU?$_Tree_node@U?$pair@$$CBKPAVCGuildMarkImage@@@std@@PAX@1@$$QA_N@Z ; std::pair<std::_Tree_node<std::pair<unsigned long const ,CGuildMarkImage *>,void *> *,bool>::pair<std::_Tree_node<std::pair<unsigned long const ,CGuildMarkImage *>,void *> *,bool><std::_Tree_node<std::pair<unsigned long const ,CGuildMarkImage *>,void *> *,bool,0>
PUBLIC	??$?0AAPAU?$_Tree_node@U?$pair@$$CBKPAVCGuildMarkImage@@@std@@PAX@std@@_N$0A@@?$pair@PAU?$_Tree_node@U?$pair@$$CBKPAVCGuildMarkImage@@@std@@PAX@std@@_N@std@@QAE@AAPAU?$_Tree_node@U?$pair@$$CBKPAVCGuildMarkImage@@@std@@PAX@1@$$QA_N@Z ; std::pair<std::_Tree_node<std::pair<unsigned long const ,CGuildMarkImage *>,void *> *,bool>::pair<std::_Tree_node<std::pair<unsigned long const ,CGuildMarkImage *>,void *> *,bool><std::_Tree_node<std::pair<unsigned long const ,CGuildMarkImage *>,void *> * &,bool,0>
PUBLIC	??$?0U?$pair@$$CBKPAVCGuildMarkImage@@@std@@@?$_Tree_temp_node@V?$allocator@U?$_Tree_node@U?$pair@$$CBKPAVCGuildMarkImage@@@std@@PAX@std@@@std@@@std@@QAE@AAV?$allocator@U?$_Tree_node@U?$pair@$$CBKPAVCGuildMarkImage@@@std@@PAX@std@@@1@PAU?$_Tree_node@U?$pair@$$CBKPAVCGuildMarkImage@@@std@@PAX@1@$$QAU?$pair@$$CBKPAVCGuildMarkImage@@@1@@Z ; std::_Tree_temp_node<std::allocator<std::_Tree_node<std::pair<unsigned long const ,CGuildMarkImage *>,void *> > >::_Tree_temp_node<std::allocator<std::_Tree_node<std::pair<unsigned long const ,CGuildMarkImage *>,void *> > ><std::pair<unsigned long const ,CGuildMarkImage *> >
PUBLIC	??$forward@U?$pair@$$CBKPAVCGuildMarkImage@@@std@@@std@@YA$$QAU?$pair@$$CBKPAVCGuildMarkImage@@@0@AAU10@@Z ; std::forward<std::pair<unsigned long const ,CGuildMarkImage *> >
PUBLIC	??$_Lower_bound_duplicate@K@?$_Tree@V?$_Tmap_traits@KPAVCGuildMarkImage@@U?$less@K@std@@V?$allocator@U?$pair@$$CBKPAVCGuildMarkImage@@@std@@@3@$0A@@std@@@std@@IBE_NQAU?$_Tree_node@U?$pair@$$CBKPAVCGuildMarkImage@@@std@@PAX@1@ABK@Z ; std::_Tree<std::_Tmap_traits<unsigned long,CGuildMarkImage *,std::less<unsigned long>,std::allocator<std::pair<unsigned long const ,CGuildMarkImage *> >,0> >::_Lower_bound_duplicate<unsigned long>
PUBLIC	??$_Find_lower_bound@K@?$_Tree@V?$_Tmap_traits@KPAVCGuildMarkImage@@U?$less@K@std@@V?$allocator@U?$pair@$$CBKPAVCGuildMarkImage@@@std@@@3@$0A@@std@@@std@@IBE?AU?$_Tree_find_result@PAU?$_Tree_node@U?$pair@$$CBKPAVCGuildMarkImage@@@std@@PAX@std@@@1@ABK@Z ; std::_Tree<std::_Tmap_traits<unsigned long,CGuildMarkImage *,std::less<unsigned long>,std::allocator<std::pair<unsigned long const ,CGuildMarkImage *> >,0> >::_Find_lower_bound<unsigned long>
PUBLIC	?max_size@?$vector@EV?$allocator@E@std@@@std@@QBEIXZ ; std::vector<unsigned char,std::allocator<unsigned char> >::max_size
PUBLIC	?capacity@?$vector@EV?$allocator@E@std@@@std@@QBEIXZ ; std::vector<unsigned char,std::allocator<unsigned char> >::capacity
PUBLIC	?_Tidy@?$vector@EV?$allocator@E@std@@@std@@AAEXXZ ; std::vector<unsigned char,std::allocator<unsigned char> >::_Tidy
PUBLIC	?_Xlength@?$vector@EV?$allocator@E@std@@@std@@CAXXZ ; std::vector<unsigned char,std::allocator<unsigned char> >::_Xlength
PUBLIC	?_Getal@?$vector@EV?$allocator@E@std@@@std@@AAEAAV?$allocator@E@2@XZ ; std::vector<unsigned char,std::allocator<unsigned char> >::_Getal
PUBLIC	??0?$_Tree@V?$_Tmap_traits@KPAVCGuildMarkImage@@U?$less@K@std@@V?$allocator@U?$pair@$$CBKPAVCGuildMarkImage@@@std@@@3@$0A@@std@@@std@@QAE@ABU?$less@K@1@@Z ; std::_Tree<std::_Tmap_traits<unsigned long,CGuildMarkImage *,std::less<unsigned long>,std::allocator<std::pair<unsigned long const ,CGuildMarkImage *> >,0> >::_Tree<std::_Tmap_traits<unsigned long,CGuildMarkImage *,std::less<unsigned long>,std::allocator<std::pair<unsigned long const ,CGuildMarkImage *> >,0> >
PUBLIC	?_Getal@?$_Tree@V?$_Tmap_traits@KPAVCGuildMarkImage@@U?$less@K@std@@V?$allocator@U?$pair@$$CBKPAVCGuildMarkImage@@@std@@@3@$0A@@std@@@std@@IAEAAV?$allocator@U?$_Tree_node@U?$pair@$$CBKPAVCGuildMarkImage@@@std@@PAX@std@@@2@XZ ; std::_Tree<std::_Tmap_traits<unsigned long,CGuildMarkImage *,std::less<unsigned long>,std::allocator<std::pair<unsigned long const ,CGuildMarkImage *> >,0> >::_Getal
PUBLIC	?_Get_scary@?$_Tree@V?$_Tmap_traits@KPAVCGuildMarkImage@@U?$less@K@std@@V?$allocator@U?$pair@$$CBKPAVCGuildMarkImage@@@std@@@3@$0A@@std@@@std@@IAEPAV?$_Tree_val@U?$_Tree_simple_types@U?$pair@$$CBKPAVCGuildMarkImage@@@std@@@std@@@2@XZ ; std::_Tree<std::_Tmap_traits<unsigned long,CGuildMarkImage *,std::less<unsigned long>,std::allocator<std::pair<unsigned long const ,CGuildMarkImage *> >,0> >::_Get_scary
PUBLIC	?_Get_scary@?$_Tree@V?$_Tmap_traits@KPAVCGuildMarkImage@@U?$less@K@std@@V?$allocator@U?$pair@$$CBKPAVCGuildMarkImage@@@std@@@3@$0A@@std@@@std@@IBEPBV?$_Tree_val@U?$_Tree_simple_types@U?$pair@$$CBKPAVCGuildMarkImage@@@std@@@std@@@2@XZ ; std::_Tree<std::_Tmap_traits<unsigned long,CGuildMarkImage *,std::less<unsigned long>,std::allocator<std::pair<unsigned long const ,CGuildMarkImage *> >,0> >::_Get_scary
PUBLIC	?_Orphan_ptr@?$_Tree_val@U?$_Tree_simple_types@U?$pair@$$CBKPAVCGuildMarkImage@@@std@@@std@@@std@@QAEXQAU?$_Tree_node@U?$pair@$$CBKPAVCGuildMarkImage@@@std@@PAX@2@@Z ; std::_Tree_val<std::_Tree_simple_types<std::pair<unsigned long const ,CGuildMarkImage *> > >::_Orphan_ptr
PUBLIC	??E?$_Tree_const_iterator@V?$_Tree_val@U?$_Tree_simple_types@U?$pair@$$CBKPAVCGuildMarkImage@@@std@@@std@@@std@@@std@@QAEAAV01@XZ ; std::_Tree_const_iterator<std::_Tree_val<std::_Tree_simple_types<std::pair<unsigned long const ,CGuildMarkImage *> > > >::operator++
PUBLIC	??D?$_Tree_iterator@V?$_Tree_val@U?$_Tree_simple_types@U?$pair@$$CBKPAVCGuildMarkImage@@@std@@@std@@@std@@@std@@QBEAAU?$pair@$$CBKPAVCGuildMarkImage@@@1@XZ ; std::_Tree_iterator<std::_Tree_val<std::_Tree_simple_types<std::pair<unsigned long const ,CGuildMarkImage *> > > >::operator*
PUBLIC	??0?$_Tree_unchecked_const_iterator@V?$_Tree_val@U?$_Tree_simple_types@U?$pair@$$CBKPAVCGuildMarkImage@@@std@@@std@@@std@@U_Iterator_base0@2@@std@@QAE@PAU?$_Tree_node@U?$pair@$$CBKPAVCGuildMarkImage@@@std@@PAX@1@PBV?$_Tree_val@U?$_Tree_simple_types@U?$pair@$$CBKPAVCGuildMarkImage@@@std@@@std@@@1@@Z ; std::_Tree_unchecked_const_iterator<std::_Tree_val<std::_Tree_simple_types<std::pair<unsigned long const ,CGuildMarkImage *> > >,std::_Iterator_base0>::_Tree_unchecked_const_iterator<std::_Tree_val<std::_Tree_simple_types<std::pair<unsigned long const ,CGuildMarkImage *> > >,std::_Iterator_base0>
PUBLIC	??0?$_Tree@V?$_Tmap_traits@KUTGuildSymbol@CGuildMarkManager@@U?$less@K@std@@V?$allocator@U?$pair@$$CBKUTGuildSymbol@CGuildMarkManager@@@std@@@4@$0A@@std@@@std@@QAE@ABU?$less@K@1@@Z ; std::_Tree<std::_Tmap_traits<unsigned long,CGuildMarkManager::TGuildSymbol,std::less<unsigned long>,std::allocator<std::pair<unsigned long const ,CGuildMarkManager::TGuildSymbol> >,0> >::_Tree<std::_Tmap_traits<unsigned long,CGuildMarkManager::TGuildSymbol,std::less<unsigned long>,std::allocator<std::pair<unsigned long const ,CGuildMarkManager::TGuildSymbol> >,0> >
PUBLIC	?_Getal@?$_Tree@V?$_Tmap_traits@KUTGuildSymbol@CGuildMarkManager@@U?$less@K@std@@V?$allocator@U?$pair@$$CBKUTGuildSymbol@CGuildMarkManager@@@std@@@4@$0A@@std@@@std@@IAEAAV?$allocator@U?$_Tree_node@U?$pair@$$CBKUTGuildSymbol@CGuildMarkManager@@@std@@PAX@std@@@2@XZ ; std::_Tree<std::_Tmap_traits<unsigned long,CGuildMarkManager::TGuildSymbol,std::less<unsigned long>,std::allocator<std::pair<unsigned long const ,CGuildMarkManager::TGuildSymbol> >,0> >::_Getal
PUBLIC	?_Get_scary@?$_Tree@V?$_Tmap_traits@KUTGuildSymbol@CGuildMarkManager@@U?$less@K@std@@V?$allocator@U?$pair@$$CBKUTGuildSymbol@CGuildMarkManager@@@std@@@4@$0A@@std@@@std@@IAEPAV?$_Tree_val@U?$_Tree_simple_types@U?$pair@$$CBKUTGuildSymbol@CGuildMarkManager@@@std@@@std@@@2@XZ ; std::_Tree<std::_Tmap_traits<unsigned long,CGuildMarkManager::TGuildSymbol,std::less<unsigned long>,std::allocator<std::pair<unsigned long const ,CGuildMarkManager::TGuildSymbol> >,0> >::_Get_scary
PUBLIC	?pointer_to@?$pointer_traits@PAU?$pair@$$CBKPAVCGuildMarkImage@@@std@@@std@@SAPAU?$pair@$$CBKPAVCGuildMarkImage@@@2@AAU32@@Z ; std::pointer_traits<std::pair<unsigned long const ,CGuildMarkImage *> *>::pointer_to
PUBLIC	??$?0$$V@?$_Compressed_pair@V?$allocator@E@std@@V?$_Vector_val@U?$_Simple_types@E@std@@@2@$00@std@@QAE@U_Zero_then_variadic_args_t@1@@Z ; std::_Compressed_pair<std::allocator<unsigned char>,std::_Vector_val<std::_Simple_types<unsigned char> >,1>::_Compressed_pair<std::allocator<unsigned char>,std::_Vector_val<std::_Simple_types<unsigned char> >,1><>
PUBLIC	??$_Resize@U_Value_init_tag@std@@@?$vector@EV?$allocator@E@std@@@std@@AAEXIABU_Value_init_tag@1@@Z ; std::vector<unsigned char,std::allocator<unsigned char> >::_Resize<std::_Value_init_tag>
PUBLIC	??$_Destroy_range@V?$allocator@E@std@@@std@@YAXPAEQAEAAV?$allocator@E@0@@Z ; std::_Destroy_range<std::allocator<unsigned char> >
PUBLIC	??$_Erase_head@V?$allocator@U?$_Tree_node@U?$pair@$$CBKPAVCGuildMarkImage@@@std@@PAX@std@@@std@@@?$_Tree_val@U?$_Tree_simple_types@U?$pair@$$CBKPAVCGuildMarkImage@@@std@@@std@@@std@@QAEXAAV?$allocator@U?$_Tree_node@U?$pair@$$CBKPAVCGuildMarkImage@@@std@@PAX@std@@@1@@Z ; std::_Tree_val<std::_Tree_simple_types<std::pair<unsigned long const ,CGuildMarkImage *> > >::_Erase_head<std::allocator<std::_Tree_node<std::pair<unsigned long const ,CGuildMarkImage *>,void *> > >
PUBLIC	??$_Erase_tree@V?$allocator@U?$_Tree_node@U?$pair@$$CBKPAVCGuildMarkImage@@@std@@PAX@std@@@std@@@?$_Tree_val@U?$_Tree_simple_types@U?$pair@$$CBKPAVCGuildMarkImage@@@std@@@std@@@std@@QAEXAAV?$allocator@U?$_Tree_node@U?$pair@$$CBKPAVCGuildMarkImage@@@std@@PAX@std@@@1@PAU?$_Tree_node@U?$pair@$$CBKPAVCGuildMarkImage@@@std@@PAX@1@@Z ; std::_Tree_val<std::_Tree_simple_types<std::pair<unsigned long const ,CGuildMarkImage *> > >::_Erase_tree<std::allocator<std::_Tree_node<std::pair<unsigned long const ,CGuildMarkImage *>,void *> > >
PUBLIC	??$_Find@K@?$_Tree@V?$_Tmap_traits@KPAVCGuildMarkImage@@U?$less@K@std@@V?$allocator@U?$pair@$$CBKPAVCGuildMarkImage@@@std@@@3@$0A@@std@@@std@@ABEPAU?$_Tree_node@U?$pair@$$CBKPAVCGuildMarkImage@@@std@@PAX@1@ABK@Z ; std::_Tree<std::_Tmap_traits<unsigned long,CGuildMarkImage *,std::less<unsigned long>,std::allocator<std::pair<unsigned long const ,CGuildMarkImage *> >,0> >::_Find<unsigned long>
PUBLIC	??$_Erase_head@V?$allocator@U?$_Tree_node@U?$pair@$$CBKUTGuildSymbol@CGuildMarkManager@@@std@@PAX@std@@@std@@@?$_Tree_val@U?$_Tree_simple_types@U?$pair@$$CBKUTGuildSymbol@CGuildMarkManager@@@std@@@std@@@std@@QAEXAAV?$allocator@U?$_Tree_node@U?$pair@$$CBKUTGuildSymbol@CGuildMarkManager@@@std@@PAX@std@@@1@@Z ; std::_Tree_val<std::_Tree_simple_types<std::pair<unsigned long const ,CGuildMarkManager::TGuildSymbol> > >::_Erase_head<std::allocator<std::_Tree_node<std::pair<unsigned long const ,CGuildMarkManager::TGuildSymbol>,void *> > >
PUBLIC	??$?0V?$_Tree_iterator@V?$_Tree_val@U?$_Tree_simple_types@U?$pair@$$CBKPAVCGuildMarkImage@@@std@@@std@@@std@@@std@@AB_N$0A@@?$pair@V?$_Tree_iterator@V?$_Tree_val@U?$_Tree_simple_types@U?$pair@$$CBKPAVCGuildMarkImage@@@std@@@std@@@std@@@std@@_N@std@@QAE@$$QAV?$_Tree_iterator@V?$_Tree_val@U?$_Tree_simple_types@U?$pair@$$CBKPAVCGuildMarkImage@@@std@@@std@@@std@@@1@AB_N@Z ; std::pair<std::_Tree_iterator<std::_Tree_val<std::_Tree_simple_types<std::pair<unsigned long const ,CGuildMarkImage *> > > >,bool>::pair<std::_Tree_iterator<std::_Tree_val<std::_Tree_simple_types<std::pair<unsigned long const ,CGuildMarkImage *> > > >,bool><std::_Tree_iterator<std::_Tree_val<std::_Tree_simple_types<std::pair<unsigned long const ,CGuildMarkImage *> > > >,bool const &,0>
PUBLIC	??$_Emplace@U?$pair@$$CBKPAVCGuildMarkImage@@@std@@@?$_Tree@V?$_Tmap_traits@KPAVCGuildMarkImage@@U?$less@K@std@@V?$allocator@U?$pair@$$CBKPAVCGuildMarkImage@@@std@@@3@$0A@@std@@@std@@IAE?AU?$pair@PAU?$_Tree_node@U?$pair@$$CBKPAVCGuildMarkImage@@@std@@PAX@std@@_N@1@$$QAU?$pair@$$CBKPAVCGuildMarkImage@@@1@@Z ; std::_Tree<std::_Tmap_traits<unsigned long,CGuildMarkImage *,std::less<unsigned long>,std::allocator<std::pair<unsigned long const ,CGuildMarkImage *> >,0> >::_Emplace<std::pair<unsigned long const ,CGuildMarkImage *> >
PUBLIC	??$move@AAU?$pair@$$CBKPAVCGuildMarkImage@@@std@@@std@@YA$$QAU?$pair@$$CBKPAVCGuildMarkImage@@@0@AAU10@@Z ; std::move<std::pair<unsigned long const ,CGuildMarkImage *> &>
PUBLIC	??$forward@AAPAVCGuildMarkImage@@@std@@YAAAPAVCGuildMarkImage@@AAPAV1@@Z ; std::forward<CGuildMarkImage * &>
PUBLIC	??0?$_Tree_const_iterator@V?$_Tree_val@U?$_Tree_simple_types@U?$pair@$$CBKPAVCGuildMarkImage@@@std@@@std@@@std@@@std@@QAE@PAU?$_Tree_node@U?$pair@$$CBKPAVCGuildMarkImage@@@std@@PAX@1@PBV?$_Tree_val@U?$_Tree_simple_types@U?$pair@$$CBKPAVCGuildMarkImage@@@std@@@std@@@1@@Z ; std::_Tree_const_iterator<std::_Tree_val<std::_Tree_simple_types<std::pair<unsigned long const ,CGuildMarkImage *> > > >::_Tree_const_iterator<std::_Tree_val<std::_Tree_simple_types<std::pair<unsigned long const ,CGuildMarkImage *> > > >
PUBLIC	??_G?$singleton@VCGuildMarkManager@@@@UAEPAXI@Z	; singleton<CGuildMarkManager>::`scalar deleting destructor'
PUBLIC	??0?$_Tree_iterator@V?$_Tree_val@U?$_Tree_simple_types@U?$pair@$$CBKPAVCGuildMarkImage@@@std@@@std@@@std@@@std@@QAE@PAU?$_Tree_node@U?$pair@$$CBKPAVCGuildMarkImage@@@std@@PAX@1@PBV?$_Tree_val@U?$_Tree_simple_types@U?$pair@$$CBKPAVCGuildMarkImage@@@std@@@std@@@1@@Z ; std::_Tree_iterator<std::_Tree_val<std::_Tree_simple_types<std::pair<unsigned long const ,CGuildMarkImage *> > > >::_Tree_iterator<std::_Tree_val<std::_Tree_simple_types<std::pair<unsigned long const ,CGuildMarkImage *> > > >
PUBLIC	??0?$vector@EV?$allocator@E@std@@@std@@QAE@XZ	; std::vector<unsigned char,std::allocator<unsigned char> >::vector<unsigned char,std::allocator<unsigned char> >
PUBLIC	??1?$vector@EV?$allocator@E@std@@@std@@QAE@XZ	; std::vector<unsigned char,std::allocator<unsigned char> >::~vector<unsigned char,std::allocator<unsigned char> >
PUBLIC	?resize@?$vector@EV?$allocator@E@std@@@std@@QAEXI@Z ; std::vector<unsigned char,std::allocator<unsigned char> >::resize
PUBLIC	??0?$singleton@VCGuildMarkManager@@@@QAE@XZ	; singleton<CGuildMarkManager>::singleton<CGuildMarkManager>
PUBLIC	??1?$singleton@VCGuildMarkManager@@@@UAE@XZ	; singleton<CGuildMarkManager>::~singleton<CGuildMarkManager>
PUBLIC	??0?$map@KPAVCGuildMarkImage@@U?$less@K@std@@V?$allocator@U?$pair@$$CBKPAVCGuildMarkImage@@@std@@@3@@std@@QAE@XZ ; std::map<unsigned long,CGuildMarkImage *,std::less<unsigned long>,std::allocator<std::pair<unsigned long const ,CGuildMarkImage *> > >::map<unsigned long,CGuildMarkImage *,std::less<unsigned long>,std::allocator<std::pair<unsigned long const ,CGuildMarkImage *> > >
PUBLIC	??1?$_Tree@V?$_Tmap_traits@KPAVCGuildMarkImage@@U?$less@K@std@@V?$allocator@U?$pair@$$CBKPAVCGuildMarkImage@@@std@@@3@$0A@@std@@@std@@QAE@XZ ; std::_Tree<std::_Tmap_traits<unsigned long,CGuildMarkImage *,std::less<unsigned long>,std::allocator<std::pair<unsigned long const ,CGuildMarkImage *> >,0> >::~_Tree<std::_Tmap_traits<unsigned long,CGuildMarkImage *,std::less<unsigned long>,std::allocator<std::pair<unsigned long const ,CGuildMarkImage *> >,0> >
PUBLIC	?begin@?$_Tree@V?$_Tmap_traits@KPAVCGuildMarkImage@@U?$less@K@std@@V?$allocator@U?$pair@$$CBKPAVCGuildMarkImage@@@std@@@3@$0A@@std@@@std@@QAE?AV?$_Tree_iterator@V?$_Tree_val@U?$_Tree_simple_types@U?$pair@$$CBKPAVCGuildMarkImage@@@std@@@std@@@std@@@2@XZ ; std::_Tree<std::_Tmap_traits<unsigned long,CGuildMarkImage *,std::less<unsigned long>,std::allocator<std::pair<unsigned long const ,CGuildMarkImage *> >,0> >::begin
PUBLIC	?end@?$_Tree@V?$_Tmap_traits@KPAVCGuildMarkImage@@U?$less@K@std@@V?$allocator@U?$pair@$$CBKPAVCGuildMarkImage@@@std@@@3@$0A@@std@@@std@@QAE?AV?$_Tree_iterator@V?$_Tree_val@U?$_Tree_simple_types@U?$pair@$$CBKPAVCGuildMarkImage@@@std@@@std@@@std@@@2@XZ ; std::_Tree<std::_Tmap_traits<unsigned long,CGuildMarkImage *,std::less<unsigned long>,std::allocator<std::pair<unsigned long const ,CGuildMarkImage *> >,0> >::end
PUBLIC	?size@?$_Tree@V?$_Tmap_traits@KPAVCGuildMarkImage@@U?$less@K@std@@V?$allocator@U?$pair@$$CBKPAVCGuildMarkImage@@@std@@@3@$0A@@std@@@std@@QBEIXZ ; std::_Tree<std::_Tmap_traits<unsigned long,CGuildMarkImage *,std::less<unsigned long>,std::allocator<std::pair<unsigned long const ,CGuildMarkImage *> >,0> >::size
PUBLIC	?clear@?$_Tree@V?$_Tmap_traits@KPAVCGuildMarkImage@@U?$less@K@std@@V?$allocator@U?$pair@$$CBKPAVCGuildMarkImage@@@std@@@3@$0A@@std@@@std@@QAEXXZ ; std::_Tree<std::_Tmap_traits<unsigned long,CGuildMarkImage *,std::less<unsigned long>,std::allocator<std::pair<unsigned long const ,CGuildMarkImage *> >,0> >::clear
PUBLIC	?find@?$_Tree@V?$_Tmap_traits@KPAVCGuildMarkImage@@U?$less@K@std@@V?$allocator@U?$pair@$$CBKPAVCGuildMarkImage@@@std@@@3@$0A@@std@@@std@@QAE?AV?$_Tree_iterator@V?$_Tree_val@U?$_Tree_simple_types@U?$pair@$$CBKPAVCGuildMarkImage@@@std@@@std@@@std@@@2@ABK@Z ; std::_Tree<std::_Tmap_traits<unsigned long,CGuildMarkImage *,std::less<unsigned long>,std::allocator<std::pair<unsigned long const ,CGuildMarkImage *> >,0> >::find
PUBLIC	??8?$_Tree_const_iterator@V?$_Tree_val@U?$_Tree_simple_types@U?$pair@$$CBKPAVCGuildMarkImage@@@std@@@std@@@std@@@std@@QBE_NABV01@@Z ; std::_Tree_const_iterator<std::_Tree_val<std::_Tree_simple_types<std::pair<unsigned long const ,CGuildMarkImage *> > > >::operator==
PUBLIC	??C?$_Tree_iterator@V?$_Tree_val@U?$_Tree_simple_types@U?$pair@$$CBKPAVCGuildMarkImage@@@std@@@std@@@std@@@std@@QBEPAU?$pair@$$CBKPAVCGuildMarkImage@@@1@XZ ; std::_Tree_iterator<std::_Tree_val<std::_Tree_simple_types<std::pair<unsigned long const ,CGuildMarkImage *> > > >::operator->
PUBLIC	??E?$_Tree_iterator@V?$_Tree_val@U?$_Tree_simple_types@U?$pair@$$CBKPAVCGuildMarkImage@@@std@@@std@@@std@@@std@@QAEAAV01@XZ ; std::_Tree_iterator<std::_Tree_val<std::_Tree_simple_types<std::pair<unsigned long const ,CGuildMarkImage *> > > >::operator++
PUBLIC	??0?$map@KUTGuildSymbol@CGuildMarkManager@@U?$less@K@std@@V?$allocator@U?$pair@$$CBKUTGuildSymbol@CGuildMarkManager@@@std@@@4@@std@@QAE@XZ ; std::map<unsigned long,CGuildMarkManager::TGuildSymbol,std::less<unsigned long>,std::allocator<std::pair<unsigned long const ,CGuildMarkManager::TGuildSymbol> > >::map<unsigned long,CGuildMarkManager::TGuildSymbol,std::less<unsigned long>,std::allocator<std::pair<unsigned long const ,CGuildMarkManager::TGuildSymbol> > >
PUBLIC	??1?$_Tree@V?$_Tmap_traits@KUTGuildSymbol@CGuildMarkManager@@U?$less@K@std@@V?$allocator@U?$pair@$$CBKUTGuildSymbol@CGuildMarkManager@@@std@@@4@$0A@@std@@@std@@QAE@XZ ; std::_Tree<std::_Tmap_traits<unsigned long,CGuildMarkManager::TGuildSymbol,std::less<unsigned long>,std::allocator<std::pair<unsigned long const ,CGuildMarkManager::TGuildSymbol> >,0> >::~_Tree<std::_Tmap_traits<unsigned long,CGuildMarkManager::TGuildSymbol,std::less<unsigned long>,std::allocator<std::pair<unsigned long const ,CGuildMarkManager::TGuildSymbol> >,0> >
PUBLIC	??$insert@$0A@$0A@@?$_Tree@V?$_Tmap_traits@KPAVCGuildMarkImage@@U?$less@K@std@@V?$allocator@U?$pair@$$CBKPAVCGuildMarkImage@@@std@@@3@$0A@@std@@@std@@QAE?AU?$pair@V?$_Tree_iterator@V?$_Tree_val@U?$_Tree_simple_types@U?$pair@$$CBKPAVCGuildMarkImage@@@std@@@std@@@std@@@std@@_N@1@$$QAU?$pair@$$CBKPAVCGuildMarkImage@@@1@@Z ; std::_Tree<std::_Tmap_traits<unsigned long,CGuildMarkImage *,std::less<unsigned long>,std::allocator<std::pair<unsigned long const ,CGuildMarkImage *> >,0> >::insert<0,0>
PUBLIC	??$?0AAKAAPAVCGuildMarkImage@@$0A@@?$pair@$$CBKPAVCGuildMarkImage@@@std@@QAE@AAKAAPAVCGuildMarkImage@@@Z ; std::pair<unsigned long const ,CGuildMarkImage *>::pair<unsigned long const ,CGuildMarkImage *><unsigned long &,CGuildMarkImage * &,0>
PUBLIC	??1TGuildSymbol@CGuildMarkManager@@QAE@XZ	; CGuildMarkManager::TGuildSymbol::~TGuildSymbol
PUBLIC	?GetMarkID@CGuildMarkManager@@QAEKK@Z		; CGuildMarkManager::GetMarkID
PUBLIC	?__GetImage@CGuildMarkManager@@AAEPAVCGuildMarkImage@@K@Z ; CGuildMarkManager::__GetImage
PUBLIC	?SetMarkPathPrefix@CGuildMarkManager@@QAEXPBD@Z	; CGuildMarkManager::SetMarkPathPrefix
PUBLIC	??1CGuildMarkManager@@UAE@XZ			; CGuildMarkManager::~CGuildMarkManager
PUBLIC	??1?$map@KUTGuildSymbol@CGuildMarkManager@@U?$less@K@std@@V?$allocator@U?$pair@$$CBKUTGuildSymbol@CGuildMarkManager@@@std@@@4@@std@@QAE@XZ ; std::map<unsigned long,CGuildMarkManager::TGuildSymbol,std::less<unsigned long>,std::allocator<std::pair<unsigned long const ,CGuildMarkManager::TGuildSymbol> > >::~map<unsigned long,CGuildMarkManager::TGuildSymbol,std::less<unsigned long>,std::allocator<std::pair<unsigned long const ,CGuildMarkManager::TGuildSymbol> > >
PUBLIC	??1?$map@KPAVCGuildMarkImage@@U?$less@K@std@@V?$allocator@U?$pair@$$CBKPAVCGuildMarkImage@@@std@@@3@@std@@QAE@XZ ; std::map<unsigned long,CGuildMarkImage *,std::less<unsigned long>,std::allocator<std::pair<unsigned long const ,CGuildMarkImage *> > >::~map<unsigned long,CGuildMarkImage *,std::less<unsigned long>,std::allocator<std::pair<unsigned long const ,CGuildMarkImage *> > >
PUBLIC	??_GCGuildMarkManager@@UAEPAXI@Z		; CGuildMarkManager::`scalar deleting destructor'
PUBLIC	??0CGuildMarkManager@@QAE@XZ			; CGuildMarkManager::CGuildMarkManager
PUBLIC	?__DeleteImage@CGuildMarkManager@@AAEXPAVCGuildMarkImage@@@Z ; CGuildMarkManager::__DeleteImage
PUBLIC	?__NewImage@CGuildMarkManager@@AAEPAVCGuildMarkImage@@XZ ; CGuildMarkManager::__NewImage
PUBLIC	?AddMarkIDByGuildID@CGuildMarkManager@@QAE_NKK@Z ; CGuildMarkManager::AddMarkIDByGuildID
PUBLIC	?LoadMarkImages@CGuildMarkManager@@QAEXXZ	; CGuildMarkManager::LoadMarkImages
PUBLIC	?GetBlockCRCList@CGuildMarkManager@@QAE_NKPAK@Z	; CGuildMarkManager::GetBlockCRCList
PUBLIC	?SaveBlockFromCompressedData@CGuildMarkManager@@QAE_NKKPBEK@Z ; CGuildMarkManager::SaveBlockFromCompressedData
PUBLIC	?SaveMarkImage@CGuildMarkManager@@QAEXK@Z	; CGuildMarkManager::SaveMarkImage
PUBLIC	?GetMarkImageFilename@CGuildMarkManager@@QBE_NKAAV?$basic_string@DU?$char_traits@D@std@@V?$allocator@D@2@@std@@@Z ; CGuildMarkManager::GetMarkImageFilename
PUBLIC	?GetMarkImageCount@CGuildMarkManager@@QBEKXZ	; CGuildMarkManager::GetMarkImageCount
EXTRN	??_ECGuildMarkManager@@UAEPAXI@Z:PROC		; CGuildMarkManager::`vector deleting destructor'
EXTRN	??_E?$singleton@VCGuildMarkManager@@@@UAEPAXI@Z:PROC ; singleton<CGuildMarkManager>::`vector deleting destructor'
;	COMDAT xdata$x
xdata$x	SEGMENT
__ehfuncinfo$?SaveMarkImage@CGuildMarkManager@@QAEXK@Z DD 019930522H
	DD	01H
	DD	FLAT:__unwindtable$?SaveMarkImage@CGuildMarkManager@@QAEXK@Z
	DD	2 DUP(00H)
	DD	2 DUP(00H)
	DD	00H
	DD	01H
__unwindtable$?SaveMarkImage@CGuildMarkManager@@QAEXK@Z DD 0ffffffffH
	DD	FLAT:__unwindfunclet$?SaveMarkImage@CGuildMarkManager@@QAEXK@Z$0
xdata$x	ENDS
;	COMDAT xdata$x
xdata$x	SEGMENT
__ehfuncinfo$??0CGuildMarkManager@@QAE@XZ DD 019930522H
	DD	06H
	DD	FLAT:__unwindtable$??0CGuildMarkManager@@QAE@XZ
	DD	2 DUP(00H)
	DD	2 DUP(00H)
	DD	00H
	DD	01H
__unwindtable$??0CGuildMarkManager@@QAE@XZ DD 0ffffffffH
	DD	FLAT:__unwindfunclet$??0CGuildMarkManager@@QAE@XZ$0
	DD	00H
	DD	FLAT:__unwindfunclet$??0CGuildMarkManager@@QAE@XZ$1
	DD	01H
	DD	FLAT:__unwindfunclet$??0CGuildMarkManager@@QAE@XZ$2
	DD	02H
	DD	FLAT:__unwindfunclet$??0CGuildMarkManager@@QAE@XZ$3
	DD	03H
	DD	FLAT:__unwindfunclet$??0CGuildMarkManager@@QAE@XZ$4
	DD	04H
	DD	FLAT:__unwindfunclet$??0CGuildMarkManager@@QAE@XZ$5
xdata$x	ENDS
;	COMDAT xdata$x
xdata$x	SEGMENT
__ehfuncinfo$?__GetImage@CGuildMarkManager@@AAEPAVCGuildMarkImage@@K@Z DD 019930522H
	DD	02H
	DD	FLAT:__unwindtable$?__GetImage@CGuildMarkManager@@AAEPAVCGuildMarkImage@@K@Z
	DD	2 DUP(00H)
	DD	2 DUP(00H)
	DD	00H
	DD	01H
__unwindtable$?__GetImage@CGuildMarkManager@@AAEPAVCGuildMarkImage@@K@Z DD 0ffffffffH
	DD	FLAT:__unwindfunclet$?__GetImage@CGuildMarkManager@@AAEPAVCGuildMarkImage@@K@Z$0
	DD	00H
	DD	FLAT:__unwindfunclet$?__GetImage@CGuildMarkManager@@AAEPAVCGuildMarkImage@@K@Z$6
xdata$x	ENDS
;	COMDAT xdata$x
xdata$x	SEGMENT
__ehfuncinfo$??$insert@$0A@$0A@@?$_Tree@V?$_Tmap_traits@KPAVCGuildMarkImage@@U?$less@K@std@@V?$allocator@U?$pair@$$CBKPAVCGuildMarkImage@@@std@@@3@$0A@@std@@@std@@QAE?AU?$pair@V?$_Tree_iterator@V?$_Tree_val@U?$_Tree_simple_types@U?$pair@$$CBKPAVCGuildMarkImage@@@std@@@std@@@std@@@std@@_N@1@$$QAU?$pair@$$CBKPAVCGuildMarkImage@@@1@@Z DD 019930522H
	DD	01H
	DD	FLAT:__unwindtable$??$insert@$0A@$0A@@?$_Tree@V?$_Tmap_traits@KPAVCGuildMarkImage@@U?$less@K@std@@V?$allocator@U?$pair@$$CBKPAVCGuildMarkImage@@@std@@@3@$0A@@std@@@std@@QAE?AU?$pair@V?$_Tree_iterator@V?$_Tree_val@U?$_Tree_simple_types@U?$pair@$$CBKPAVCGuildMarkImage@@@std@@@std@@@std@@@std@@_N@1@$$QAU?$pair@$$CBKPAVCGuildMarkImage@@@1@@Z
	DD	2 DUP(00H)
	DD	2 DUP(00H)
	DD	00H
	DD	01H
__unwindtable$??$insert@$0A@$0A@@?$_Tree@V?$_Tmap_traits@KPAVCGuildMarkImage@@U?$less@K@std@@V?$allocator@U?$pair@$$CBKPAVCGuildMarkImage@@@std@@@3@$0A@@std@@@std@@QAE?AU?$pair@V?$_Tree_iterator@V?$_Tree_val@U?$_Tree_simple_types@U?$pair@$$CBKPAVCGuildMarkImage@@@std@@@std@@@std@@@std@@_N@1@$$QAU?$pair@$$CBKPAVCGuildMarkImage@@@1@@Z DD 0ffffffffH
	DD	FLAT:__unwindfunclet$??$insert@$0A@$0A@@?$_Tree@V?$_Tmap_traits@KPAVCGuildMarkImage@@U?$less@K@std@@V?$allocator@U?$pair@$$CBKPAVCGuildMarkImage@@@std@@@3@$0A@@std@@@std@@QAE?AU?$pair@V?$_Tree_iterator@V?$_Tree_val@U?$_Tree_simple_types@U?$pair@$$CBKPAVCGuildMarkImage@@@std@@@std@@@std@@@std@@_N@1@$$QAU?$pair@$$CBKPAVCGuildMarkImage@@@1@@Z$2
xdata$x	ENDS
;	COMDAT xdata$x
xdata$x	SEGMENT
__ehfuncinfo$??$_Emplace@U?$pair@$$CBKPAVCGuildMarkImage@@@std@@@?$_Tree@V?$_Tmap_traits@KPAVCGuildMarkImage@@U?$less@K@std@@V?$allocator@U?$pair@$$CBKPAVCGuildMarkImage@@@std@@@3@$0A@@std@@@std@@IAE?AU?$pair@PAU?$_Tree_node@U?$pair@$$CBKPAVCGuildMarkImage@@@std@@PAX@std@@_N@1@$$QAU?$pair@$$CBKPAVCGuildMarkImage@@@1@@Z DD 019930522H
	DD	01H
	DD	FLAT:__unwindtable$??$_Emplace@U?$pair@$$CBKPAVCGuildMarkImage@@@std@@@?$_Tree@V?$_Tmap_traits@KPAVCGuildMarkImage@@U?$less@K@std@@V?$allocator@U?$pair@$$CBKPAVCGuildMarkImage@@@std@@@3@$0A@@std@@@std@@IAE?AU?$pair@PAU?$_Tree_node@U?$pair@$$CBKPAVCGuildMarkImage@@@std@@PAX@std@@_N@1@$$QAU?$pair@$$CBKPAVCGuildMarkImage@@@1@@Z
	DD	2 DUP(00H)
	DD	2 DUP(00H)
	DD	00H
	DD	01H
__unwindtable$??$_Emplace@U?$pair@$$CBKPAVCGuildMarkImage@@@std@@@?$_Tree@V?$_Tmap_traits@KPAVCGuildMarkImage@@U?$less@K@std@@V?$allocator@U?$pair@$$CBKPAVCGuildMarkImage@@@std@@@3@$0A@@std@@@std@@IAE?AU?$pair@PAU?$_Tree_node@U?$pair@$$CBKPAVCGuildMarkImage@@@std@@PAX@std@@_N@1@$$QAU?$pair@$$CBKPAVCGuildMarkImage@@@1@@Z DD 0ffffffffH
	DD	FLAT:__unwindfunclet$??$_Emplace@U?$pair@$$CBKPAVCGuildMarkImage@@@std@@@?$_Tree@V?$_Tmap_traits@KPAVCGuildMarkImage@@U?$less@K@std@@V?$allocator@U?$pair@$$CBKPAVCGuildMarkImage@@@std@@@3@$0A@@std@@@std@@IAE?AU?$pair@PAU?$_Tree_node@U?$pair@$$CBKPAVCGuildMarkImage@@@std@@PAX@std@@_N@1@$$QAU?$pair@$$CBKPAVCGuildMarkImage@@@1@@Z$2
xdata$x	ENDS
;	COMDAT xdata$x
xdata$x	SEGMENT
__ehfuncinfo$??$?0U?$pair@$$CBKPAVCGuildMarkImage@@@std@@@?$_Tree_temp_node@V?$allocator@U?$_Tree_node@U?$pair@$$CBKPAVCGuildMarkImage@@@std@@PAX@std@@@std@@@std@@QAE@AAV?$allocator@U?$_Tree_node@U?$pair@$$CBKPAVCGuildMarkImage@@@std@@PAX@std@@@1@PAU?$_Tree_node@U?$pair@$$CBKPAVCGuildMarkImage@@@std@@PAX@1@$$QAU?$pair@$$CBKPAVCGuildMarkImage@@@1@@Z DD 019930522H
	DD	01H
	DD	FLAT:__unwindtable$??$?0U?$pair@$$CBKPAVCGuildMarkImage@@@std@@@?$_Tree_temp_node@V?$allocator@U?$_Tree_node@U?$pair@$$CBKPAVCGuildMarkImage@@@std@@PAX@std@@@std@@@std@@QAE@AAV?$allocator@U?$_Tree_node@U?$pair@$$CBKPAVCGuildMarkImage@@@std@@PAX@std@@@1@PAU?$_Tree_node@U?$pair@$$CBKPAVCGuildMarkImage@@@std@@PAX@1@$$QAU?$pair@$$CBKPAVCGuildMarkImage@@@1@@Z
	DD	2 DUP(00H)
	DD	2 DUP(00H)
	DD	00H
	DD	01H
__unwindtable$??$?0U?$pair@$$CBKPAVCGuildMarkImage@@@std@@@?$_Tree_temp_node@V?$allocator@U?$_Tree_node@U?$pair@$$CBKPAVCGuildMarkImage@@@std@@PAX@std@@@std@@@std@@QAE@AAV?$allocator@U?$_Tree_node@U?$pair@$$CBKPAVCGuildMarkImage@@@std@@PAX@std@@@1@PAU?$_Tree_node@U?$pair@$$CBKPAVCGuildMarkImage@@@std@@PAX@1@$$QAU?$pair@$$CBKPAVCGuildMarkImage@@@1@@Z DD 0ffffffffH
	DD	FLAT:__unwindfunclet$??$?0U?$pair@$$CBKPAVCGuildMarkImage@@@std@@@?$_Tree_temp_node@V?$allocator@U?$_Tree_node@U?$pair@$$CBKPAVCGuildMarkImage@@@std@@PAX@std@@@std@@@std@@QAE@AAV?$allocator@U?$_Tree_node@U?$pair@$$CBKPAVCGuildMarkImage@@@std@@PAX@std@@@1@PAU?$_Tree_node@U?$pair@$$CBKPAVCGuildMarkImage@@@std@@PAX@1@$$QAU?$pair@$$CBKPAVCGuildMarkImage@@@1@@Z$1
xdata$x	ENDS
;	COMDAT xdata$x
xdata$x	SEGMENT
__ehfuncinfo$??0?$_Tree_temp_node_alloc@V?$allocator@U?$_Tree_node@U?$pair@$$CBKPAVCGuildMarkImage@@@std@@PAX@std@@@std@@@std@@QAE@AAV?$allocator@U?$_Tree_node@U?$pair@$$CBKPAVCGuildMarkImage@@@std@@PAX@std@@@1@@Z DD 019930522H
	DD	01H
	DD	FLAT:__unwindtable$??0?$_Tree_temp_node_alloc@V?$allocator@U?$_Tree_node@U?$pair@$$CBKPAVCGuildMarkImage@@@std@@PAX@std@@@std@@@std@@QAE@AAV?$allocator@U?$_Tree_node@U?$pair@$$CBKPAVCGuildMarkImage@@@std@@PAX@std@@@1@@Z
	DD	2 DUP(00H)
	DD	2 DUP(00H)
	DD	00H
	DD	01H
__unwindtable$??0?$_Tree_temp_node_alloc@V?$allocator@U?$_Tree_node@U?$pair@$$CBKPAVCGuildMarkImage@@@std@@PAX@std@@@std@@@std@@QAE@AAV?$allocator@U?$_Tree_node@U?$pair@$$CBKPAVCGuildMarkImage@@@std@@PAX@std@@@1@@Z DD 0ffffffffH
	DD	FLAT:__unwindfunclet$??0?$_Tree_temp_node_alloc@V?$allocator@U?$_Tree_node@U?$pair@$$CBKPAVCGuildMarkImage@@@std@@PAX@std@@@std@@@std@@QAE@AAV?$allocator@U?$_Tree_node@U?$pair@$$CBKPAVCGuildMarkImage@@@std@@PAX@std@@@1@@Z$0
; Function compile flags: /Ogtp
; File D:\_m2work\Server Client TMP4\ClientVS22\source\UserInterface\MarkManager.cpp
;	COMDAT ?GetMarkImageCount@CGuildMarkManager@@QBEKXZ
_TEXT	SEGMENT
?GetMarkImageCount@CGuildMarkManager@@QBEKXZ PROC	; CGuildMarkManager::GetMarkImageCount, COMDAT
; _this$ = ecx

; 195  : 	return m_mapIdx_Image.size();

  00000	8b 41 08	 mov	 eax, DWORD PTR [ecx+8]

; 196  : }

  00003	c3		 ret	 0
?GetMarkImageCount@CGuildMarkManager@@QBEKXZ ENDP	; CGuildMarkManager::GetMarkImageCount
_TEXT	ENDS
; Function compile flags: /Ogtp
; File D:\_m2work\Server Client TMP4\ClientVS22\source\UserInterface\MarkManager.cpp
; File C:\Program Files\Microsoft Visual Studio\2022\Community\VC\Tools\MSVC\14.44.35207\include\xstring
; File D:\_m2work\Server Client TMP4\ClientVS22\source\UserInterface\MarkManager.cpp
; File C:\Program Files\Microsoft Visual Studio\2022\Community\VC\Tools\MSVC\14.44.35207\include\__msvc_string_view.hpp
; File D:\_m2work\Server Client TMP4\ClientVS22\source\UserInterface\MarkManager.cpp
; File C:\Program Files\Microsoft Visual Studio\2022\Community\VC\Tools\MSVC\14.44.35207\include\__msvc_string_view.hpp
; File C:\Program Files\Microsoft Visual Studio\2022\Community\VC\Tools\MSVC\14.44.35207\include\xstring
; File D:\_m2work\Server Client TMP4\ClientVS22\source\UserInterface\MarkManager.cpp
;	COMDAT ?GetMarkImageFilename@CGuildMarkManager@@QBE_NKAAV?$basic_string@DU?$char_traits@D@std@@V?$allocator@D@2@@std@@@Z
_TEXT	SEGMENT
_buf$ = -68						; size = 64
__$ArrayPad$ = -4					; size = 4
_imgIdx$ = 8						; size = 4
_path$ = 12						; size = 4
?GetMarkImageFilename@CGuildMarkManager@@QBE_NKAAV?$basic_string@DU?$char_traits@D@std@@V?$allocator@D@2@@std@@@Z PROC ; CGuildMarkManager::GetMarkImageFilename, COMDAT
; _this$ = ecx

; 42   : {

  00000	55		 push	 ebp
  00001	8b ec		 mov	 ebp, esp
  00003	83 ec 44	 sub	 esp, 68			; 00000044H
  00006	a1 00 00 00 00	 mov	 eax, DWORD PTR ___security_cookie
  0000b	33 c5		 xor	 eax, ebp
  0000d	89 45 fc	 mov	 DWORD PTR __$ArrayPad$[ebp], eax

; 43   : 	if (imgIdx >= MAX_IMAGE_COUNT)

  00010	8b 55 08	 mov	 edx, DWORD PTR _imgIdx$[ebp]
  00013	56		 push	 esi
  00014	8b 75 0c	 mov	 esi, DWORD PTR _path$[ebp]
  00017	83 fa 05	 cmp	 edx, 5
  0001a	72 13		 jb	 SHORT $LN2@GetMarkIma

; 44   : 		return false;

  0001c	32 c0		 xor	 al, al
  0001e	5e		 pop	 esi

; 50   : }

  0001f	8b 4d fc	 mov	 ecx, DWORD PTR __$ArrayPad$[ebp]
  00022	33 cd		 xor	 ecx, ebp
  00024	e8 00 00 00 00	 call	 @__security_check_cookie@4
  00029	8b e5		 mov	 esp, ebp
  0002b	5d		 pop	 ebp
  0002c	c2 08 00	 ret	 8
$LN2@GetMarkIma:
; File C:\Program Files\Microsoft Visual Studio\2022\Community\VC\Tools\MSVC\14.44.35207\include\xstring

; 453  :         return _Myres > _Small_string_capacity;

  0002f	83 79 30 0f	 cmp	 DWORD PTR [ecx+48], 15	; 0000000fH

; 2356 :         return _Mypair._Myval2._Myptr();

  00033	8d 41 1c	 lea	 eax, DWORD PTR [ecx+28]

; 445  :         if (_Large_mode_engaged()) {

  00036	76 02		 jbe	 SHORT $LN8@GetMarkIma

; 446  :             _Result = _Unfancy(_Bx._Ptr);

  00038	8b 00		 mov	 eax, DWORD PTR [eax]
$LN8@GetMarkIma:
; File D:\_m2work\Server Client TMP4\ClientVS22\source\UserInterface\MarkManager.cpp

; 47   : 	snprintf(buf, sizeof(buf), "mark/%s_%lu.tga", m_pathPrefix.c_str(), imgIdx);

  0003a	52		 push	 edx
  0003b	50		 push	 eax
  0003c	68 00 00 00 00	 push	 OFFSET ??_C@_0BA@BKPHNHHG@mark?1?$CFs_?$CFlu?4tga@
  00041	8d 45 bc	 lea	 eax, DWORD PTR _buf$[ebp]
  00044	6a 40		 push	 64			; 00000040H
  00046	50		 push	 eax
  00047	e8 00 00 00 00	 call	 __snprintf
; File C:\Program Files\Microsoft Visual Studio\2022\Community\VC\Tools\MSVC\14.44.35207\include\__msvc_string_view.hpp

; 456  :             return __builtin_strlen(_First);

  0004c	8d 55 bc	 lea	 edx, DWORD PTR _buf$[ebp]
; File D:\_m2work\Server Client TMP4\ClientVS22\source\UserInterface\MarkManager.cpp

; 47   : 	snprintf(buf, sizeof(buf), "mark/%s_%lu.tga", m_pathPrefix.c_str(), imgIdx);

  0004f	83 c4 14	 add	 esp, 20			; 00000014H
; File C:\Program Files\Microsoft Visual Studio\2022\Community\VC\Tools\MSVC\14.44.35207\include\__msvc_string_view.hpp

; 456  :             return __builtin_strlen(_First);

  00052	8d 4a 01	 lea	 ecx, DWORD PTR [edx+1]
$LL21@GetMarkIma:
  00055	8a 02		 mov	 al, BYTE PTR [edx]
  00057	42		 inc	 edx
  00058	84 c0		 test	 al, al
  0005a	75 f9		 jne	 SHORT $LL21@GetMarkIma
  0005c	2b d1		 sub	 edx, ecx
; File C:\Program Files\Microsoft Visual Studio\2022\Community\VC\Tools\MSVC\14.44.35207\include\xstring

; 1638 :         return assign(_Ptr, _Convert_size<size_type>(_Traits::length(_Ptr)));

  0005e	8d 45 bc	 lea	 eax, DWORD PTR _buf$[ebp]
  00061	52		 push	 edx
  00062	50		 push	 eax
  00063	8b ce		 mov	 ecx, esi
  00065	e8 00 00 00 00	 call	 ?assign@?$basic_string@DU?$char_traits@D@std@@V?$allocator@D@2@@std@@QAEAAV12@QBDI@Z ; std::basic_string<char,std::char_traits<char>,std::allocator<char> >::assign
; File D:\_m2work\Server Client TMP4\ClientVS22\source\UserInterface\MarkManager.cpp

; 50   : }

  0006a	8b 4d fc	 mov	 ecx, DWORD PTR __$ArrayPad$[ebp]
  0006d	b0 01		 mov	 al, 1
  0006f	33 cd		 xor	 ecx, ebp
  00071	5e		 pop	 esi
  00072	e8 00 00 00 00	 call	 @__security_check_cookie@4
  00077	8b e5		 mov	 esp, ebp
  00079	5d		 pop	 ebp
  0007a	c2 08 00	 ret	 8
?GetMarkImageFilename@CGuildMarkManager@@QBE_NKAAV?$basic_string@DU?$char_traits@D@std@@V?$allocator@D@2@@std@@@Z ENDP ; CGuildMarkManager::GetMarkImageFilename
_TEXT	ENDS
; Function compile flags: /Ogtp
; File D:\_m2work\Server Client TMP4\ClientVS22\source\UserInterface\MarkManager.cpp
; File C:\Program Files\Microsoft Visual Studio\2022\Community\VC\Tools\MSVC\14.44.35207\include\xstring
; File D:\_m2work\Server Client TMP4\ClientVS22\source\UserInterface\MarkManager.cpp
; File C:\Program Files\Microsoft Visual Studio\2022\Community\VC\Tools\MSVC\14.44.35207\include\xstring
; File D:\_m2work\Server Client TMP4\ClientVS22\source\UserInterface\MarkManager.cpp
; File C:\Program Files\Microsoft Visual Studio\2022\Community\VC\Tools\MSVC\14.44.35207\include\xstring
; File D:\_m2work\Server Client TMP4\ClientVS22\source\UserInterface\MarkManager.cpp
; File C:\Program Files\Microsoft Visual Studio\2022\Community\VC\Tools\MSVC\14.44.35207\include\xstring
; File C:\Program Files\Microsoft Visual Studio\2022\Community\VC\Tools\MSVC\14.44.35207\include\xmemory
; File C:\Program Files\Microsoft Visual Studio\2022\Community\VC\Tools\MSVC\14.44.35207\include\xstring
; File C:\Program Files\Microsoft Visual Studio\2022\Community\VC\Tools\MSVC\14.44.35207\include\xmemory
; File D:\_m2work\Server Client TMP4\ClientVS22\source\UserInterface\MarkManager.cpp
; File C:\Program Files\Microsoft Visual Studio\2022\Community\VC\Tools\MSVC\14.44.35207\include\xmemory
; File D:\_m2work\Server Client TMP4\ClientVS22\source\UserInterface\MarkManager.cpp
;	COMDAT ?SaveMarkImage@CGuildMarkManager@@QAEXK@Z
_TEXT	SEGMENT
_path$ = -44						; size = 24
__$ArrayPad$ = -20					; size = 4
__$EHRec$ = -12						; size = 12
_imgIdx$ = 8						; size = 4
?SaveMarkImage@CGuildMarkManager@@QAEXK@Z PROC		; CGuildMarkManager::SaveMarkImage, COMDAT
; _this$ = ecx

; 124  : {

  00000	53		 push	 ebx
  00001	8b dc		 mov	 ebx, esp
  00003	83 ec 08	 sub	 esp, 8
  00006	83 e4 f8	 and	 esp, -8			; fffffff8H
  00009	83 c4 04	 add	 esp, 4
  0000c	55		 push	 ebp
  0000d	8b 6b 04	 mov	 ebp, DWORD PTR [ebx+4]
  00010	89 6c 24 04	 mov	 DWORD PTR [esp+4], ebp
  00014	8b ec		 mov	 ebp, esp
  00016	6a ff		 push	 -1
  00018	68 00 00 00 00	 push	 __ehhandler$?SaveMarkImage@CGuildMarkManager@@QAEXK@Z
  0001d	64 a1 00 00 00
	00		 mov	 eax, DWORD PTR fs:0
  00023	50		 push	 eax
  00024	53		 push	 ebx
  00025	83 ec 20	 sub	 esp, 32			; 00000020H
  00028	a1 00 00 00 00	 mov	 eax, DWORD PTR ___security_cookie
  0002d	33 c5		 xor	 eax, ebp
  0002f	89 45 ec	 mov	 DWORD PTR __$ArrayPad$[ebp], eax
  00032	56		 push	 esi
  00033	57		 push	 edi
  00034	50		 push	 eax
  00035	8d 45 f4	 lea	 eax, DWORD PTR __$EHRec$[ebp]
  00038	64 a3 00 00 00
	00		 mov	 DWORD PTR fs:0, eax
  0003e	8b f1		 mov	 esi, ecx
  00040	8b 7b 08	 mov	 edi, DWORD PTR _imgIdx$[ebx]
  00043	0f 57 c0	 xorps	 xmm0, xmm0
; File C:\Program Files\Microsoft Visual Studio\2022\Community\VC\Tools\MSVC\14.44.35207\include\xstring

; 493  :         _CONSTEXPR20 _Bxty() noexcept : _Buf() {} // user-provided, for fancy pointers

  00046	0f 11 45 d4	 movups	 XMMWORD PTR _path$[ebp], xmm0

; 860  :         _My_data._Mysize = 0;

  0004a	c7 45 e4 00 00
	00 00		 mov	 DWORD PTR _path$[ebp+16], 0

; 861  :         _My_data._Myres  = _Small_string_capacity;

  00051	c7 45 e8 0f 00
	00 00		 mov	 DWORD PTR _path$[ebp+20], 15 ; 0000000fH

; 862  :         _My_data._Activate_SSO_buffer();
; 863  : 
; 864  :         // the _Traits::assign is last so the codegen doesn't think the char write can alias this
; 865  :         _Traits::assign(_My_data._Bx._Buf[0], _Elem());

  00058	c6 45 d4 00	 mov	 BYTE PTR _path$[ebp], 0
; File D:\_m2work\Server Client TMP4\ClientVS22\source\UserInterface\MarkManager.cpp

; 127  : 	if (GetMarkImageFilename(imgIdx, path))

  0005c	8d 45 d4	 lea	 eax, DWORD PTR _path$[ebp]
  0005f	c7 45 fc 00 00
	00 00		 mov	 DWORD PTR __$EHRec$[ebp+8], 0
  00066	50		 push	 eax
  00067	57		 push	 edi
  00068	e8 00 00 00 00	 call	 ?GetMarkImageFilename@CGuildMarkManager@@QBE_NKAAV?$basic_string@DU?$char_traits@D@std@@V?$allocator@D@2@@std@@@Z ; CGuildMarkManager::GetMarkImageFilename
  0006d	84 c0		 test	 al, al
  0006f	74 38		 je	 SHORT $LN3@SaveMarkIm

; 128  : 		if (!__GetImage(imgIdx)->Save(path.c_str()))

  00071	57		 push	 edi
  00072	8b ce		 mov	 ecx, esi
  00074	e8 00 00 00 00	 call	 ?__GetImage@CGuildMarkManager@@AAEPAVCGuildMarkImage@@K@Z ; CGuildMarkManager::__GetImage
; File C:\Program Files\Microsoft Visual Studio\2022\Community\VC\Tools\MSVC\14.44.35207\include\xstring

; 453  :         return _Myres > _Small_string_capacity;

  00079	83 7d e8 0f	 cmp	 DWORD PTR _path$[ebp+20], 15 ; 0000000fH

; 444  :         const value_type* _Result = _Bx._Buf;

  0007d	8d 4d d4	 lea	 ecx, DWORD PTR _path$[ebp]

; 445  :         if (_Large_mode_engaged()) {

  00080	0f 47 4d d4	 cmova	 ecx, DWORD PTR _path$[ebp]
; File D:\_m2work\Server Client TMP4\ClientVS22\source\UserInterface\MarkManager.cpp

; 128  : 		if (!__GetImage(imgIdx)->Save(path.c_str()))

  00084	51		 push	 ecx
  00085	8b c8		 mov	 ecx, eax
  00087	e8 00 00 00 00	 call	 ?Save@CGuildMarkImage@@QAE_NPBD@Z ; CGuildMarkImage::Save
  0008c	84 c0		 test	 al, al
  0008e	75 19		 jne	 SHORT $LN3@SaveMarkIm
; File C:\Program Files\Microsoft Visual Studio\2022\Community\VC\Tools\MSVC\14.44.35207\include\xstring

; 453  :         return _Myres > _Small_string_capacity;

  00090	83 7d e8 0f	 cmp	 DWORD PTR _path$[ebp+20], 15 ; 0000000fH

; 444  :         const value_type* _Result = _Bx._Buf;

  00094	8d 45 d4	 lea	 eax, DWORD PTR _path$[ebp]

; 445  :         if (_Large_mode_engaged()) {

  00097	0f 47 45 d4	 cmova	 eax, DWORD PTR _path$[ebp]
; File D:\_m2work\Server Client TMP4\ClientVS22\source\UserInterface\MarkManager.cpp

; 129  : 			sys_err("%s Save failed\n", path.c_str());

  0009b	50		 push	 eax
  0009c	68 00 00 00 00	 push	 OFFSET ??_C@_0BA@PBMNNCMH@?$CFs?5Save?5failed?6@
  000a1	e8 00 00 00 00	 call	 ?TraceError@@YAXPBDZZ	; TraceError
  000a6	83 c4 08	 add	 esp, 8
$LN3@SaveMarkIm:
; File C:\Program Files\Microsoft Visual Studio\2022\Community\VC\Tools\MSVC\14.44.35207\include\xstring

; 453  :         return _Myres > _Small_string_capacity;

  000a9	8b 4d e8	 mov	 ecx, DWORD PTR _path$[ebp+20]
  000ac	83 f9 0f	 cmp	 ecx, 15			; 0000000fH

; 3083 :         if (_My_data._Large_mode_engaged()) {

  000af	76 28		 jbe	 SHORT $LN64@SaveMarkIm
; File C:\Program Files\Microsoft Visual Studio\2022\Community\VC\Tools\MSVC\14.44.35207\include\xmemory

; 985  :         _STD _Deallocate<_New_alignof<_Ty>>(_Ptr, sizeof(_Ty) * _Count);

  000b1	8b 55 d4	 mov	 edx, DWORD PTR _path$[ebp]
; File C:\Program Files\Microsoft Visual Studio\2022\Community\VC\Tools\MSVC\14.44.35207\include\xstring

; 852  :         _Al.deallocate(_Old_ptr, _Capacity + 1); // +1 for null terminator

  000b4	41		 inc	 ecx
; File C:\Program Files\Microsoft Visual Studio\2022\Community\VC\Tools\MSVC\14.44.35207\include\xmemory

; 985  :         _STD _Deallocate<_New_alignof<_Ty>>(_Ptr, sizeof(_Ty) * _Count);

  000b5	8b c2		 mov	 eax, edx

; 284  :         if (_Bytes >= _Big_allocation_threshold) {

  000b7	81 f9 00 10 00
	00		 cmp	 ecx, 4096		; 00001000H
  000bd	72 10		 jb	 SHORT $LN72@SaveMarkIm

; 205  :     const uintptr_t _Ptr_container   = _Ptr_user[-1];

  000bf	8b 50 fc	 mov	 edx, DWORD PTR [eax-4]
  000c2	83 c1 23	 add	 ecx, 35			; 00000023H
  000c5	2b c2		 sub	 eax, edx

; 219  :     _STL_VERIFY(_Back_shift >= _Min_back_shift && _Back_shift <= _Non_user_size, "invalid argument");

  000c7	83 c0 fc	 add	 eax, -4			; fffffffcH
  000ca	83 f8 1f	 cmp	 eax, 31			; 0000001fH
  000cd	77 2a		 ja	 SHORT $LN82@SaveMarkIm
$LN72@SaveMarkIm:

; 289  :         ::operator delete(_Ptr, _Bytes);

  000cf	51		 push	 ecx
  000d0	52		 push	 edx
  000d1	e8 00 00 00 00	 call	 ??3@YAXPAXI@Z		; operator delete
  000d6	83 c4 08	 add	 esp, 8
$LN64@SaveMarkIm:
; File D:\_m2work\Server Client TMP4\ClientVS22\source\UserInterface\MarkManager.cpp

; 130  : }

  000d9	8b 4d f4	 mov	 ecx, DWORD PTR __$EHRec$[ebp]
  000dc	64 89 0d 00 00
	00 00		 mov	 DWORD PTR fs:0, ecx
  000e3	59		 pop	 ecx
  000e4	5f		 pop	 edi
  000e5	5e		 pop	 esi
  000e6	8b 4d ec	 mov	 ecx, DWORD PTR __$ArrayPad$[ebp]
  000e9	33 cd		 xor	 ecx, ebp
  000eb	e8 00 00 00 00	 call	 @__security_check_cookie@4
  000f0	8b e5		 mov	 esp, ebp
  000f2	5d		 pop	 ebp
  000f3	8b e3		 mov	 esp, ebx
  000f5	5b		 pop	 ebx
  000f6	c2 04 00	 ret	 4
$LN82@SaveMarkIm:
; File C:\Program Files\Microsoft Visual Studio\2022\Community\VC\Tools\MSVC\14.44.35207\include\xmemory

; 219  :     _STL_VERIFY(_Back_shift >= _Min_back_shift && _Back_shift <= _Non_user_size, "invalid argument");

  000f9	6a 00		 push	 0
  000fb	6a 00		 push	 0
  000fd	6a 00		 push	 0
  000ff	6a 00		 push	 0
  00101	6a 00		 push	 0
  00103	e8 00 00 00 00	 call	 __invoke_watson
$LN80@SaveMarkIm:
  00108	cc		 int	 3
_TEXT	ENDS
;	COMDAT text$x
text$x	SEGMENT
__unwindfunclet$?SaveMarkImage@CGuildMarkManager@@QAEXK@Z$0:
  00000	8d 4d d4	 lea	 ecx, DWORD PTR _path$[ebp]
  00003	e9 00 00 00 00	 jmp	 ??1?$basic_string@DU?$char_traits@D@std@@V?$allocator@D@2@@std@@QAE@XZ ; std::basic_string<char,std::char_traits<char>,std::allocator<char> >::~basic_string<char,std::char_traits<char>,std::allocator<char> >
  00008	cc		 int	 3
  00009	cc		 int	 3
  0000a	cc		 int	 3
  0000b	cc		 int	 3
  0000c	cc		 int	 3
__ehhandler$?SaveMarkImage@CGuildMarkManager@@QAEXK@Z:
  0000d	90		 npad	 1
  0000e	90		 npad	 1
  0000f	8b 54 24 08	 mov	 edx, DWORD PTR [esp+8]
  00013	8d 42 0c	 lea	 eax, DWORD PTR [edx+12]
  00016	8b 4a d0	 mov	 ecx, DWORD PTR [edx-48]
  00019	33 c8		 xor	 ecx, eax
  0001b	e8 00 00 00 00	 call	 @__security_check_cookie@4
  00020	8b 4a f8	 mov	 ecx, DWORD PTR [edx-8]
  00023	33 c8		 xor	 ecx, eax
  00025	e8 00 00 00 00	 call	 @__security_check_cookie@4
  0002a	b8 00 00 00 00	 mov	 eax, OFFSET __ehfuncinfo$?SaveMarkImage@CGuildMarkManager@@QAEXK@Z
  0002f	e9 00 00 00 00	 jmp	 ___CxxFrameHandler3
text$x	ENDS
?SaveMarkImage@CGuildMarkManager@@QAEXK@Z ENDP		; CGuildMarkManager::SaveMarkImage
; Function compile flags: /Ogtp
; File D:\_m2work\Server Client TMP4\ClientVS22\source\UserInterface\MarkManager.cpp
;	COMDAT ?SaveBlockFromCompressedData@CGuildMarkManager@@QAE_NKKPBEK@Z
_TEXT	SEGMENT
_imgIdx$ = 8						; size = 4
_posBlock$ = 12						; size = 4
_pbBlock$ = 16						; size = 4
_dwSize$ = 20						; size = 4
?SaveBlockFromCompressedData@CGuildMarkManager@@QAE_NKKPBEK@Z PROC ; CGuildMarkManager::SaveBlockFromCompressedData, COMDAT
; _this$ = ecx

; 289  : {

  00000	55		 push	 ebp
  00001	8b ec		 mov	 ebp, esp

; 290  : 	CGuildMarkImage * pkImage = __GetImage(imgIdx);

  00003	ff 75 08	 push	 DWORD PTR _imgIdx$[ebp]
  00006	e8 00 00 00 00	 call	 ?__GetImage@CGuildMarkManager@@AAEPAVCGuildMarkImage@@K@Z ; CGuildMarkManager::__GetImage

; 291  : 
; 292  : 	if (pkImage)

  0000b	85 c0		 test	 eax, eax
  0000d	74 10		 je	 SHORT $LN4@SaveBlockF

; 293  : 		pkImage->SaveBlockFromCompressedData(posBlock, pbBlock, dwSize);

  0000f	ff 75 14	 push	 DWORD PTR _dwSize$[ebp]
  00012	8b c8		 mov	 ecx, eax
  00014	ff 75 10	 push	 DWORD PTR _pbBlock$[ebp]
  00017	ff 75 0c	 push	 DWORD PTR _posBlock$[ebp]
  0001a	e8 00 00 00 00	 call	 ?SaveBlockFromCompressedData@CGuildMarkImage@@QAE_NKPBEK@Z ; CGuildMarkImage::SaveBlockFromCompressedData
$LN4@SaveBlockF:

; 294  : 
; 295  : 	return false;
; 296  : }

  0001f	32 c0		 xor	 al, al
  00021	5d		 pop	 ebp
  00022	c2 10 00	 ret	 16			; 00000010H
?SaveBlockFromCompressedData@CGuildMarkManager@@QAE_NKKPBEK@Z ENDP ; CGuildMarkManager::SaveBlockFromCompressedData
_TEXT	ENDS
; Function compile flags: /Ogtp
; File D:\_m2work\Server Client TMP4\ClientVS22\source\UserInterface\MarkManager.cpp
; File C:\Program Files\Microsoft Visual Studio\2022\Community\VC\Tools\MSVC\14.44.35207\include\xtree
; File C:\Program Files\Microsoft Visual Studio\2022\Community\VC\Tools\MSVC\14.44.35207\include\type_traits
; File C:\Program Files\Microsoft Visual Studio\2022\Community\VC\Tools\MSVC\14.44.35207\include\xtree
; File D:\_m2work\Server Client TMP4\ClientVS22\source\UserInterface\MarkManager.cpp
;	COMDAT ?GetBlockCRCList@CGuildMarkManager@@QAE_NKPAK@Z
_TEXT	SEGMENT
__Loc$1 = -12						; size = 12
_imgIdx$ = 8						; size = 4
_crcList$ = 12						; size = 4
?GetBlockCRCList@CGuildMarkManager@@QAE_NKPAK@Z PROC	; CGuildMarkManager::GetBlockCRCList, COMDAT
; _this$ = ecx

; 300  : {

  00000	55		 push	 ebp
  00001	8b ec		 mov	 ebp, esp
  00003	83 ec 10	 sub	 esp, 16			; 00000010H
  00006	56		 push	 esi
  00007	57		 push	 edi
  00008	8b f1		 mov	 esi, ecx
; File C:\Program Files\Microsoft Visual Studio\2022\Community\VC\Tools\MSVC\14.44.35207\include\xtree

; 1384 :         const _Tree_find_result<_Nodeptr> _Loc = _Find_lower_bound(_Keyval);

  0000a	8d 45 08	 lea	 eax, DWORD PTR _imgIdx$[ebp]

; 37   :     _Tree_unchecked_const_iterator(_Nodeptr _Pnode, const _Mytree* _Plist) noexcept : _Ptr(_Pnode) {

  0000d	8b 7e 04	 mov	 edi, DWORD PTR [esi+4]

; 1152 :         return iterator(_Scary->_Myhead, _Scary);

  00010	8d 4e 04	 lea	 ecx, DWORD PTR [esi+4]

; 1384 :         const _Tree_find_result<_Nodeptr> _Loc = _Find_lower_bound(_Keyval);

  00013	50		 push	 eax
  00014	8d 45 f4	 lea	 eax, DWORD PTR __Loc$1[ebp]
  00017	50		 push	 eax
  00018	e8 00 00 00 00	 call	 ??$_Find_lower_bound@K@?$_Tree@V?$_Tmap_traits@KPAVCGuildMarkImage@@U?$less@K@std@@V?$allocator@U?$pair@$$CBKPAVCGuildMarkImage@@@std@@@3@$0A@@std@@@std@@IBE?AU?$_Tree_find_result@PAU?$_Tree_node@U?$pair@$$CBKPAVCGuildMarkImage@@@std@@PAX@std@@@1@ABK@Z ; std::_Tree<std::_Tmap_traits<unsigned long,CGuildMarkImage *,std::less<unsigned long>,std::allocator<std::pair<unsigned long const ,CGuildMarkImage *> >,0> >::_Find_lower_bound<unsigned long>

; 1624 :         return !_Bound->_Isnil && !_DEBUG_LT_PRED(_Getcomp(), _Keyval, _Traits::_Kfn(_Bound->_Myval));

  0001d	8b 4d fc	 mov	 ecx, DWORD PTR __Loc$1[ebp+8]
  00020	8b 45 08	 mov	 eax, DWORD PTR _imgIdx$[ebp]
  00023	80 79 0d 00	 cmp	 BYTE PTR [ecx+13], 0
  00027	75 29		 jne	 SHORT $LN42@GetBlockCR
; File C:\Program Files\Microsoft Visual Studio\2022\Community\VC\Tools\MSVC\14.44.35207\include\type_traits

; 2380 :         return _Left < _Right;

  00029	3b 41 10	 cmp	 eax, DWORD PTR [ecx+16]
; File C:\Program Files\Microsoft Visual Studio\2022\Community\VC\Tools\MSVC\14.44.35207\include\xtree

; 1624 :         return !_Bound->_Isnil && !_DEBUG_LT_PRED(_Getcomp(), _Keyval, _Traits::_Kfn(_Bound->_Myval));

  0002c	72 24		 jb	 SHORT $LN42@GetBlockCR

; 232  :         return this->_Ptr == _Right._Ptr;

  0002e	3b f9		 cmp	 edi, ecx
; File D:\_m2work\Server Client TMP4\ClientVS22\source\UserInterface\MarkManager.cpp

; 302  : 	if (m_mapIdx_Image.end() == m_mapIdx_Image.find(imgIdx))

  00030	74 20		 je	 SHORT $LN42@GetBlockCR

; 306  : 	}
; 307  : 
; 308  : 	CGuildMarkImage * p = __GetImage(imgIdx);

  00032	50		 push	 eax
  00033	8b ce		 mov	 ecx, esi
  00035	e8 00 00 00 00	 call	 ?__GetImage@CGuildMarkManager@@AAEPAVCGuildMarkImage@@K@Z ; CGuildMarkManager::__GetImage

; 309  : 	
; 310  : 	if (p)

  0003a	85 c0		 test	 eax, eax
  0003c	74 0a		 je	 SHORT $LN3@GetBlockCR

; 311  : 		p->GetBlockCRCList(crcList);

  0003e	ff 75 0c	 push	 DWORD PTR _crcList$[ebp]
  00041	8b c8		 mov	 ecx, eax
  00043	e8 00 00 00 00	 call	 ?GetBlockCRCList@CGuildMarkImage@@QAEXPAK@Z ; CGuildMarkImage::GetBlockCRCList
$LN3@GetBlockCR:

; 312  : 
; 313  : 	return true;

  00048	b0 01		 mov	 al, 1

; 314  : }

  0004a	5f		 pop	 edi
  0004b	5e		 pop	 esi
  0004c	8b e5		 mov	 esp, ebp
  0004e	5d		 pop	 ebp
  0004f	c2 08 00	 ret	 8
$LN42@GetBlockCR:

; 303  : 	{
; 304  : 		sys_err("invalid idx %u", imgIdx);

  00052	50		 push	 eax
  00053	68 00 00 00 00	 push	 OFFSET ??_C@_0P@PFBACHEK@invalid?5idx?5?$CFu@
  00058	e8 00 00 00 00	 call	 ?TraceError@@YAXPBDZZ	; TraceError
  0005d	83 c4 08	 add	 esp, 8

; 305  : 		return false;

  00060	32 c0		 xor	 al, al

; 314  : }

  00062	5f		 pop	 edi
  00063	5e		 pop	 esi
  00064	8b e5		 mov	 esp, ebp
  00066	5d		 pop	 ebp
  00067	c2 08 00	 ret	 8
?GetBlockCRCList@CGuildMarkManager@@QAE_NKPAK@Z ENDP	; CGuildMarkManager::GetBlockCRCList
_TEXT	ENDS
; Function compile flags: /Ogtp
; File D:\_m2work\Server Client TMP4\ClientVS22\source\UserInterface\MarkManager.cpp
; File C:\Program Files\Microsoft Visual Studio\2022\Community\VC\Tools\MSVC\14.44.35207\include\xtree
; File D:\_m2work\Server Client TMP4\ClientVS22\source\UserInterface\MarkManager.cpp
; File C:\Program Files\Microsoft Visual Studio\2022\Community\VC\Tools\MSVC\14.44.35207\include\xtree
; File D:\_m2work\Server Client TMP4\ClientVS22\source\UserInterface\MarkManager.cpp
;	COMDAT ?LoadMarkImages@CGuildMarkManager@@QAEXXZ
_TEXT	SEGMENT
_it$1 = -16						; size = 4
_isMarkExists$ = -12					; size = 5
__$ArrayPad$ = -4					; size = 4
?LoadMarkImages@CGuildMarkManager@@QAEXXZ PROC		; CGuildMarkManager::LoadMarkImages, COMDAT
; _this$ = ecx

; 106  : {

  00000	55		 push	 ebp
  00001	8b ec		 mov	 ebp, esp
  00003	83 ec 10	 sub	 esp, 16			; 00000010H
  00006	a1 00 00 00 00	 mov	 eax, DWORD PTR ___security_cookie
  0000b	33 c5		 xor	 eax, ebp
  0000d	89 45 fc	 mov	 DWORD PTR __$ArrayPad$[ebp], eax
  00010	56		 push	 esi
  00011	57		 push	 edi
  00012	8b f9		 mov	 edi, ecx

; 107  : 	bool isMarkExists[MAX_IMAGE_COUNT];
; 108  : 	memset(isMarkExists, 0, sizeof(isMarkExists));

  00014	c7 45 f4 00 00
	00 00		 mov	 DWORD PTR _isMarkExists$[ebp], 0
  0001b	c6 45 f8 00	 mov	 BYTE PTR _isMarkExists$[ebp+4], 0
; File C:\Program Files\Microsoft Visual Studio\2022\Community\VC\Tools\MSVC\14.44.35207\include\xtree

; 1142 :         return iterator(_Scary->_Myhead->_Left, _Scary);

  0001f	8b 77 0c	 mov	 esi, DWORD PTR [edi+12]

; 37   :     _Tree_unchecked_const_iterator(_Nodeptr _Pnode, const _Mytree* _Plist) noexcept : _Ptr(_Pnode) {

  00022	8b 06		 mov	 eax, DWORD PTR [esi]
  00024	89 45 f0	 mov	 DWORD PTR _it$1[ebp], eax
  00027	3b c6		 cmp	 eax, esi
; File D:\_m2work\Server Client TMP4\ClientVS22\source\UserInterface\MarkManager.cpp

; 110  : 	for (std::map<DWORD, DWORD>::iterator it = m_mapGID_MarkID.begin(); it != m_mapGID_MarkID.end(); ++it)

  00029	74 2e		 je	 SHORT $LN3@LoadMarkIm
  0002b	0f 1f 44 00 00	 npad	 5
$LL4@LoadMarkIm:

; 111  : 	{
; 112  : 		DWORD markID = it->second;

  00030	8b 48 14	 mov	 ecx, DWORD PTR [eax+20]

; 113  : 
; 114  : 		if (markID < MAX_IMAGE_COUNT * CGuildMarkImage::MARK_TOTAL_COUNT)

  00033	81 f9 00 19 00
	00		 cmp	 ecx, 6400		; 00001900H
  00039	73 0f		 jae	 SHORT $LN2@LoadMarkIm

; 115  : 			isMarkExists[markID / CGuildMarkImage::MARK_TOTAL_COUNT] = true;

  0003b	b8 cd cc cc cc	 mov	 eax, -858993459		; cccccccdH
  00040	f7 e1		 mul	 ecx
  00042	c1 ea 0a	 shr	 edx, 10			; 0000000aH
  00045	c6 44 15 f4 01	 mov	 BYTE PTR _isMarkExists$[ebp+edx], 1
$LN2@LoadMarkIm:
; File C:\Program Files\Microsoft Visual Studio\2022\Community\VC\Tools\MSVC\14.44.35207\include\xtree

; 198  :         _Mybase::operator++();

  0004a	8d 4d f0	 lea	 ecx, DWORD PTR _it$1[ebp]
  0004d	e8 00 00 00 00	 call	 ??E?$_Tree_unchecked_const_iterator@V?$_Tree_val@U?$_Tree_simple_types@U?$pair@$$CBKK@std@@@std@@@std@@U_Iterator_base0@2@@std@@QAEAAV01@XZ ; std::_Tree_unchecked_const_iterator<std::_Tree_val<std::_Tree_simple_types<std::pair<unsigned long const ,unsigned long> > >,std::_Iterator_base0>::operator++

; 232  :         return this->_Ptr == _Right._Ptr;

  00052	8b 45 f0	 mov	 eax, DWORD PTR _it$1[ebp]
  00055	3b c6		 cmp	 eax, esi
; File D:\_m2work\Server Client TMP4\ClientVS22\source\UserInterface\MarkManager.cpp

; 110  : 	for (std::map<DWORD, DWORD>::iterator it = m_mapGID_MarkID.begin(); it != m_mapGID_MarkID.end(); ++it)

  00057	75 d7		 jne	 SHORT $LL4@LoadMarkIm
$LN3@LoadMarkIm:

; 116  : 	}
; 117  : 
; 118  : 	for (DWORD i = 0; i < MAX_IMAGE_COUNT; ++i)

  00059	33 f6		 xor	 esi, esi
  0005b	0f 1f 44 00 00	 npad	 5
$LL7@LoadMarkIm:

; 119  : 		if (isMarkExists[i])

  00060	80 7c 35 f4 00	 cmp	 BYTE PTR _isMarkExists$[ebp+esi], 0
  00065	74 08		 je	 SHORT $LN5@LoadMarkIm

; 120  : 			__GetImage(i);

  00067	56		 push	 esi
  00068	8b cf		 mov	 ecx, edi
  0006a	e8 00 00 00 00	 call	 ?__GetImage@CGuildMarkManager@@AAEPAVCGuildMarkImage@@K@Z ; CGuildMarkManager::__GetImage
$LN5@LoadMarkIm:

; 116  : 	}
; 117  : 
; 118  : 	for (DWORD i = 0; i < MAX_IMAGE_COUNT; ++i)

  0006f	46		 inc	 esi
  00070	83 fe 05	 cmp	 esi, 5
  00073	72 eb		 jb	 SHORT $LL7@LoadMarkIm

; 121  : }

  00075	8b 4d fc	 mov	 ecx, DWORD PTR __$ArrayPad$[ebp]
  00078	5f		 pop	 edi
  00079	33 cd		 xor	 ecx, ebp
  0007b	5e		 pop	 esi
  0007c	e8 00 00 00 00	 call	 @__security_check_cookie@4
  00081	8b e5		 mov	 esp, ebp
  00083	5d		 pop	 ebp
  00084	c3		 ret	 0
?LoadMarkImages@CGuildMarkManager@@QAEXXZ ENDP		; CGuildMarkManager::LoadMarkImages
_TEXT	ENDS
; Function compile flags: /Ogtp
; File D:\_m2work\Server Client TMP4\ClientVS22\source\UserInterface\MarkManager.cpp
; File C:\Program Files\Microsoft Visual Studio\2022\Community\VC\Tools\MSVC\14.44.35207\include\utility
; File D:\_m2work\Server Client TMP4\ClientVS22\source\UserInterface\MarkManager.cpp
; File C:\Program Files\Microsoft Visual Studio\2022\Community\VC\Tools\MSVC\14.44.35207\include\utility
; File D:\_m2work\Server Client TMP4\ClientVS22\source\UserInterface\MarkManager.cpp
; File C:\Program Files\Microsoft Visual Studio\2022\Community\VC\Tools\MSVC\14.44.35207\include\utility
; File D:\_m2work\Server Client TMP4\ClientVS22\source\UserInterface\MarkManager.cpp
;	COMDAT ?AddMarkIDByGuildID@CGuildMarkManager@@QAE_NKK@Z
_TEXT	SEGMENT
$T1 = -16						; size = 8
$T2 = -8						; size = 8
_guildID$ = 8						; size = 4
_markID$ = 12						; size = 4
?AddMarkIDByGuildID@CGuildMarkManager@@QAE_NKK@Z PROC	; CGuildMarkManager::AddMarkIDByGuildID, COMDAT
; _this$ = ecx

; 155  : {

  00000	55		 push	 ebp
  00001	8b ec		 mov	 ebp, esp

; 156  : 	if (markID >= MAX_IMAGE_COUNT * CGuildMarkImage::MARK_TOTAL_COUNT)

  00003	8b 55 0c	 mov	 edx, DWORD PTR _markID$[ebp]
  00006	83 ec 14	 sub	 esp, 20			; 00000014H
  00009	56		 push	 esi
  0000a	8b f1		 mov	 esi, ecx
  0000c	81 fa 00 19 00
	00		 cmp	 edx, 6400		; 00001900H
  00012	72 09		 jb	 SHORT $LN2@AddMarkIDB

; 157  : 		return false;

  00014	32 c0		 xor	 al, al

; 163  : }

  00016	5e		 pop	 esi
  00017	8b e5		 mov	 esp, ebp
  00019	5d		 pop	 ebp
  0001a	c2 08 00	 ret	 8
$LN2@AddMarkIDB:
; File C:\Program Files\Microsoft Visual Studio\2022\Community\VC\Tools\MSVC\14.44.35207\include\utility

; 274  :         : first(_STD forward<_Other1>(_Val1)), second(_STD forward<_Other2>(_Val2)) {

  0001d	8b 45 08	 mov	 eax, DWORD PTR _guildID$[ebp]
; File D:\_m2work\Server Client TMP4\ClientVS22\source\UserInterface\MarkManager.cpp

; 160  : 	m_mapGID_MarkID.insert(std::map<DWORD, DWORD>::value_type(guildID, markID));

  00020	8d 4e 0c	 lea	 ecx, DWORD PTR [esi+12]
; File C:\Program Files\Microsoft Visual Studio\2022\Community\VC\Tools\MSVC\14.44.35207\include\utility

; 274  :         : first(_STD forward<_Other1>(_Val1)), second(_STD forward<_Other2>(_Val2)) {

  00023	89 45 f8	 mov	 DWORD PTR $T2[ebp], eax
; File D:\_m2work\Server Client TMP4\ClientVS22\source\UserInterface\MarkManager.cpp

; 160  : 	m_mapGID_MarkID.insert(std::map<DWORD, DWORD>::value_type(guildID, markID));

  00026	8d 45 f8	 lea	 eax, DWORD PTR $T2[ebp]
  00029	50		 push	 eax
  0002a	8d 45 f0	 lea	 eax, DWORD PTR $T1[ebp]
; File C:\Program Files\Microsoft Visual Studio\2022\Community\VC\Tools\MSVC\14.44.35207\include\utility

; 274  :         : first(_STD forward<_Other1>(_Val1)), second(_STD forward<_Other2>(_Val2)) {

  0002d	89 55 fc	 mov	 DWORD PTR $T2[ebp+4], edx
; File D:\_m2work\Server Client TMP4\ClientVS22\source\UserInterface\MarkManager.cpp

; 160  : 	m_mapGID_MarkID.insert(std::map<DWORD, DWORD>::value_type(guildID, markID));

  00030	50		 push	 eax
  00031	e8 00 00 00 00	 call	 ??$insert@$0A@$0A@@?$_Tree@V?$_Tmap_traits@KKU?$less@K@std@@V?$allocator@U?$pair@$$CBKK@std@@@2@$0A@@std@@@std@@QAE?AU?$pair@V?$_Tree_iterator@V?$_Tree_val@U?$_Tree_simple_types@U?$pair@$$CBKK@std@@@std@@@std@@@std@@_N@1@$$QAU?$pair@$$CBKK@1@@Z ; std::_Tree<std::_Tmap_traits<unsigned long,unsigned long,std::less<unsigned long>,std::allocator<std::pair<unsigned long const ,unsigned long> >,0> >::insert<0,0>

; 161  : 	m_setFreeMarkID.erase(markID);

  00036	8d 45 0c	 lea	 eax, DWORD PTR _markID$[ebp]
  00039	50		 push	 eax
  0003a	8d 4e 14	 lea	 ecx, DWORD PTR [esi+20]
  0003d	e8 00 00 00 00	 call	 ?erase@?$_Tree@V?$_Tset_traits@KU?$less@K@std@@V?$allocator@K@2@$0A@@std@@@std@@QAEIABK@Z ; std::_Tree<std::_Tset_traits<unsigned long,std::less<unsigned long>,std::allocator<unsigned long>,0> >::erase

; 162  : 	return true;

  00042	b0 01		 mov	 al, 1

; 163  : }

  00044	5e		 pop	 esi
  00045	8b e5		 mov	 esp, ebp
  00047	5d		 pop	 ebp
  00048	c2 08 00	 ret	 8
?AddMarkIDByGuildID@CGuildMarkManager@@QAE_NKK@Z ENDP	; CGuildMarkManager::AddMarkIDByGuildID
_TEXT	ENDS
; Function compile flags: /Ogtp
; File D:\_m2work\Server Client TMP4\ClientVS22\source\UserInterface\MarkManager.cpp
;	COMDAT ?__NewImage@CGuildMarkManager@@AAEPAVCGuildMarkImage@@XZ
_TEXT	SEGMENT
$T1 = -4						; size = 4
?__NewImage@CGuildMarkManager@@AAEPAVCGuildMarkImage@@XZ PROC ; CGuildMarkManager::__NewImage, COMDAT
; _this$dead$ = ecx

; 14   : {

  00000	55		 push	 ebp
  00001	8b ec		 mov	 ebp, esp
  00003	51		 push	 ecx

; 15   : 	return new CGuildMarkImage;

  00004	68 c8 07 5f 00	 push	 6227912			; 005f07c8H
  00009	e8 00 00 00 00	 call	 ??2@YAPAXI@Z		; operator new
  0000e	83 c4 04	 add	 esp, 4
  00011	89 45 fc	 mov	 DWORD PTR $T1[ebp], eax
  00014	8b c8		 mov	 ecx, eax
  00016	e8 00 00 00 00	 call	 ??0CGuildMarkImage@@QAE@XZ ; CGuildMarkImage::CGuildMarkImage

; 16   : }

  0001b	8b e5		 mov	 esp, ebp
  0001d	5d		 pop	 ebp
  0001e	c3		 ret	 0
?__NewImage@CGuildMarkManager@@AAEPAVCGuildMarkImage@@XZ ENDP ; CGuildMarkManager::__NewImage
_TEXT	ENDS
; Function compile flags: /Ogtp
; File D:\_m2work\Server Client TMP4\ClientVS22\source\UserInterface\MarkManager.cpp
;	COMDAT ?__DeleteImage@CGuildMarkManager@@AAEXPAVCGuildMarkImage@@@Z
_TEXT	SEGMENT
_pkImgDel$ = 8						; size = 4
?__DeleteImage@CGuildMarkManager@@AAEXPAVCGuildMarkImage@@@Z PROC ; CGuildMarkManager::__DeleteImage, COMDAT
; _this$dead$ = ecx

; 19   : {

  00000	55		 push	 ebp
  00001	8b ec		 mov	 ebp, esp

; 20   : 	delete pkImgDel;

  00003	8b 4d 08	 mov	 ecx, DWORD PTR _pkImgDel$[ebp]
  00006	85 c9		 test	 ecx, ecx
  00008	74 0c		 je	 SHORT $LN3@DeleteImag
  0000a	8b 01		 mov	 eax, DWORD PTR [ecx]
  0000c	c7 45 08 01 00
	00 00		 mov	 DWORD PTR _pkImgDel$[ebp], 1

; 21   : }

  00013	5d		 pop	 ebp

; 20   : 	delete pkImgDel;

  00014	ff 20		 jmp	 DWORD PTR [eax]
$LN3@DeleteImag:

; 21   : }

  00016	5d		 pop	 ebp
  00017	c2 04 00	 ret	 4
?__DeleteImage@CGuildMarkManager@@AAEXPAVCGuildMarkImage@@@Z ENDP ; CGuildMarkManager::__DeleteImage
_TEXT	ENDS
; Function compile flags: /Ogtp
; File D:\_m2work\Server Client TMP4\ClientVS22\source\UserInterface\MarkManager.cpp
; File D:\_m2work\Server Client TMP4\ClientVS22\source\eterBase\Singleton.h
; File D:\_m2work\Server Client TMP4\ClientVS22\source\UserInterface\MarkManager.cpp
; File C:\Program Files\Microsoft Visual Studio\2022\Community\VC\Tools\MSVC\14.44.35207\include\xmemory
; File C:\Program Files\Microsoft Visual Studio\2022\Community\VC\Tools\MSVC\14.44.35207\include\xtree
; File C:\Program Files\Microsoft Visual Studio\2022\Community\VC\Tools\MSVC\14.44.35207\include\xmemory
; File C:\Program Files\Microsoft Visual Studio\2022\Community\VC\Tools\MSVC\14.44.35207\include\xtree
; File D:\_m2work\Server Client TMP4\ClientVS22\source\UserInterface\MarkManager.cpp
; File C:\Program Files\Microsoft Visual Studio\2022\Community\VC\Tools\MSVC\14.44.35207\include\xmemory
; File C:\Program Files\Microsoft Visual Studio\2022\Community\VC\Tools\MSVC\14.44.35207\include\xtree
; File C:\Program Files\Microsoft Visual Studio\2022\Community\VC\Tools\MSVC\14.44.35207\include\xmemory
; File C:\Program Files\Microsoft Visual Studio\2022\Community\VC\Tools\MSVC\14.44.35207\include\xtree
; File D:\_m2work\Server Client TMP4\ClientVS22\source\UserInterface\MarkManager.cpp
; File C:\Program Files\Microsoft Visual Studio\2022\Community\VC\Tools\MSVC\14.44.35207\include\xtree
; File C:\Program Files\Microsoft Visual Studio\2022\Community\VC\Tools\MSVC\14.44.35207\include\xstring
; File D:\_m2work\Server Client TMP4\ClientVS22\source\UserInterface\MarkManager.cpp
; File C:\Program Files\Microsoft Visual Studio\2022\Community\VC\Tools\MSVC\14.44.35207\include\xmemory
; File C:\Program Files\Microsoft Visual Studio\2022\Community\VC\Tools\MSVC\14.44.35207\include\xtree
; File C:\Program Files\Microsoft Visual Studio\2022\Community\VC\Tools\MSVC\14.44.35207\include\xmemory
; File C:\Program Files\Microsoft Visual Studio\2022\Community\VC\Tools\MSVC\14.44.35207\include\xtree
; File D:\_m2work\Server Client TMP4\ClientVS22\source\UserInterface\MarkManager.cpp
;	COMDAT ??0CGuildMarkManager@@QAE@XZ
_TEXT	SEGMENT
$T2 = -28						; size = 8
_this$ = -20						; size = 4
_i$3 = -16						; size = 4
_this$ = -16						; size = 4
_this$ = -16						; size = 4
_this$ = -16						; size = 4
_this$ = -16						; size = 4
__$EHRec$ = -12						; size = 12
??0CGuildMarkManager@@QAE@XZ PROC			; CGuildMarkManager::CGuildMarkManager, COMDAT
; _this$ = ecx

; 24   : {

  00000	55		 push	 ebp
  00001	8b ec		 mov	 ebp, esp
  00003	6a ff		 push	 -1
  00005	68 00 00 00 00	 push	 __ehhandler$??0CGuildMarkManager@@QAE@XZ
  0000a	64 a1 00 00 00
	00		 mov	 eax, DWORD PTR fs:0
  00010	50		 push	 eax
  00011	83 ec 10	 sub	 esp, 16			; 00000010H
  00014	56		 push	 esi
  00015	57		 push	 edi
  00016	a1 00 00 00 00	 mov	 eax, DWORD PTR ___security_cookie
  0001b	33 c5		 xor	 eax, ebp
  0001d	50		 push	 eax
  0001e	8d 45 f4	 lea	 eax, DWORD PTR __$EHRec$[ebp]
  00021	64 a3 00 00 00
	00		 mov	 DWORD PTR fs:0, eax
  00027	8b f9		 mov	 edi, ecx
  00029	89 7d ec	 mov	 DWORD PTR _this$[ebp], edi
; File D:\_m2work\Server Client TMP4\ClientVS22\source\eterBase\Singleton.h

; 56   : 		ms_singleton = (T*) ((int) this + offset);

  0002c	89 3d 00 00 00
	00		 mov	 DWORD PTR ?ms_singleton@?$singleton@VCGuildMarkManager@@@@0PAVCGuildMarkManager@@A, edi ; singleton<CGuildMarkManager>::ms_singleton
; File D:\_m2work\Server Client TMP4\ClientVS22\source\UserInterface\MarkManager.cpp

; 24   : {

  00032	c7 45 fc 00 00
	00 00		 mov	 DWORD PTR __$EHRec$[ebp+8], 0
  00039	8d 77 04	 lea	 esi, DWORD PTR [edi+4]
  0003c	c7 07 00 00 00
	00		 mov	 DWORD PTR [edi], OFFSET ??_7CGuildMarkManager@@6B@
  00042	89 75 f0	 mov	 DWORD PTR _this$[ebp], esi
; File C:\Program Files\Microsoft Visual Studio\2022\Community\VC\Tools\MSVC\14.44.35207\include\xmemory

; 136  :         return ::operator new(_Bytes);

  00045	6a 18		 push	 24			; 00000018H
; File C:\Program Files\Microsoft Visual Studio\2022\Community\VC\Tools\MSVC\14.44.35207\include\xtree

; 450  :     _Tree_val() noexcept : _Myhead(), _Mysize(0) {}

  00047	c7 06 00 00 00
	00		 mov	 DWORD PTR [esi], 0
  0004d	c7 46 04 00 00
	00 00		 mov	 DWORD PTR [esi+4], 0
; File C:\Program Files\Microsoft Visual Studio\2022\Community\VC\Tools\MSVC\14.44.35207\include\xmemory

; 136  :         return ::operator new(_Bytes);

  00054	e8 00 00 00 00	 call	 ??2@YAPAXI@Z		; operator new
; File C:\Program Files\Microsoft Visual Studio\2022\Community\VC\Tools\MSVC\14.44.35207\include\xtree

; 346  :         _Construct_in_place(_Pnode->_Left, _Pnode);

  00059	89 00		 mov	 DWORD PTR [eax], eax

; 347  :         _Construct_in_place(_Pnode->_Parent, _Pnode);

  0005b	89 40 04	 mov	 DWORD PTR [eax+4], eax

; 348  :         _Construct_in_place(_Pnode->_Right, _Pnode);

  0005e	89 40 08	 mov	 DWORD PTR [eax+8], eax

; 349  :         _Pnode->_Color = _Black;

  00061	66 c7 40 0c 01
	01		 mov	 WORD PTR [eax+12], 257	; 00000101H

; 1957 :         _Scary->_Myhead = _Node::_Buyheadnode(_Getal());

  00067	89 06		 mov	 DWORD PTR [esi], eax
; File D:\_m2work\Server Client TMP4\ClientVS22\source\UserInterface\MarkManager.cpp

; 24   : {

  00069	c6 45 fc 01	 mov	 BYTE PTR __$EHRec$[ebp+8], 1
  0006d	8d 77 0c	 lea	 esi, DWORD PTR [edi+12]
  00070	89 75 f0	 mov	 DWORD PTR _this$[ebp], esi
; File C:\Program Files\Microsoft Visual Studio\2022\Community\VC\Tools\MSVC\14.44.35207\include\xmemory

; 136  :         return ::operator new(_Bytes);

  00073	6a 18		 push	 24			; 00000018H
; File C:\Program Files\Microsoft Visual Studio\2022\Community\VC\Tools\MSVC\14.44.35207\include\xtree

; 450  :     _Tree_val() noexcept : _Myhead(), _Mysize(0) {}

  00075	c7 06 00 00 00
	00		 mov	 DWORD PTR [esi], 0
  0007b	c7 46 04 00 00
	00 00		 mov	 DWORD PTR [esi+4], 0
; File C:\Program Files\Microsoft Visual Studio\2022\Community\VC\Tools\MSVC\14.44.35207\include\xmemory

; 136  :         return ::operator new(_Bytes);

  00082	e8 00 00 00 00	 call	 ??2@YAPAXI@Z		; operator new
; File C:\Program Files\Microsoft Visual Studio\2022\Community\VC\Tools\MSVC\14.44.35207\include\xtree

; 346  :         _Construct_in_place(_Pnode->_Left, _Pnode);

  00087	89 00		 mov	 DWORD PTR [eax], eax

; 347  :         _Construct_in_place(_Pnode->_Parent, _Pnode);

  00089	89 40 04	 mov	 DWORD PTR [eax+4], eax

; 348  :         _Construct_in_place(_Pnode->_Right, _Pnode);

  0008c	89 40 08	 mov	 DWORD PTR [eax+8], eax

; 349  :         _Pnode->_Color = _Black;

  0008f	66 c7 40 0c 01
	01		 mov	 WORD PTR [eax+12], 257	; 00000101H

; 1957 :         _Scary->_Myhead = _Node::_Buyheadnode(_Getal());

  00095	89 06		 mov	 DWORD PTR [esi], eax
; File D:\_m2work\Server Client TMP4\ClientVS22\source\UserInterface\MarkManager.cpp

; 24   : {

  00097	83 c7 14	 add	 edi, 20			; 00000014H
  0009a	c6 45 fc 02	 mov	 BYTE PTR __$EHRec$[ebp+8], 2
  0009e	89 7d f0	 mov	 DWORD PTR _this$[ebp], edi
; File C:\Program Files\Microsoft Visual Studio\2022\Community\VC\Tools\MSVC\14.44.35207\include\xtree

; 345  :         const auto _Pnode = _Al.allocate(1);

  000a1	6a 14		 push	 20			; 00000014H

; 450  :     _Tree_val() noexcept : _Myhead(), _Mysize(0) {}

  000a3	c7 07 00 00 00
	00		 mov	 DWORD PTR [edi], 0
  000a9	c7 47 04 00 00
	00 00		 mov	 DWORD PTR [edi+4], 0

; 345  :         const auto _Pnode = _Al.allocate(1);

  000b0	e8 00 00 00 00	 call	 ??2@YAPAXI@Z		; operator new

; 346  :         _Construct_in_place(_Pnode->_Left, _Pnode);

  000b5	89 00		 mov	 DWORD PTR [eax], eax

; 347  :         _Construct_in_place(_Pnode->_Parent, _Pnode);

  000b7	89 40 04	 mov	 DWORD PTR [eax+4], eax

; 348  :         _Construct_in_place(_Pnode->_Right, _Pnode);

  000ba	89 40 08	 mov	 DWORD PTR [eax+8], eax

; 349  :         _Pnode->_Color = _Black;

  000bd	66 c7 40 0c 01
	01		 mov	 WORD PTR [eax+12], 257	; 00000101H

; 1957 :         _Scary->_Myhead = _Node::_Buyheadnode(_Getal());

  000c3	89 07		 mov	 DWORD PTR [edi], eax
; File C:\Program Files\Microsoft Visual Studio\2022\Community\VC\Tools\MSVC\14.44.35207\include\xstring

; 493  :         _CONSTEXPR20 _Bxty() noexcept : _Buf() {} // user-provided, for fancy pointers

  000c5	8b 45 ec	 mov	 eax, DWORD PTR _this$[ebp]
  000c8	0f 57 c0	 xorps	 xmm0, xmm0
  000cb	0f 11 40 1c	 movups	 XMMWORD PTR [eax+28], xmm0

; 860  :         _My_data._Mysize = 0;

  000cf	c7 40 2c 00 00
	00 00		 mov	 DWORD PTR [eax+44], 0

; 861  :         _My_data._Myres  = _Small_string_capacity;

  000d6	c7 40 30 0f 00
	00 00		 mov	 DWORD PTR [eax+48], 15	; 0000000fH

; 862  :         _My_data._Activate_SSO_buffer();
; 863  : 
; 864  :         // the _Traits::assign is last so the codegen doesn't think the char write can alias this
; 865  :         _Traits::assign(_My_data._Bx._Buf[0], _Elem());

  000dd	c6 40 1c 00	 mov	 BYTE PTR [eax+28], 0
; File D:\_m2work\Server Client TMP4\ClientVS22\source\UserInterface\MarkManager.cpp

; 24   : {

  000e1	8d 70 34	 lea	 esi, DWORD PTR [eax+52]
  000e4	c6 45 fc 04	 mov	 BYTE PTR __$EHRec$[ebp+8], 4
  000e8	89 75 f0	 mov	 DWORD PTR _this$[ebp], esi
; File C:\Program Files\Microsoft Visual Studio\2022\Community\VC\Tools\MSVC\14.44.35207\include\xmemory

; 136  :         return ::operator new(_Bytes);

  000eb	6a 24		 push	 36			; 00000024H
; File C:\Program Files\Microsoft Visual Studio\2022\Community\VC\Tools\MSVC\14.44.35207\include\xtree

; 450  :     _Tree_val() noexcept : _Myhead(), _Mysize(0) {}

  000ed	c7 06 00 00 00
	00		 mov	 DWORD PTR [esi], 0
  000f3	c7 46 04 00 00
	00 00		 mov	 DWORD PTR [esi+4], 0
; File C:\Program Files\Microsoft Visual Studio\2022\Community\VC\Tools\MSVC\14.44.35207\include\xmemory

; 136  :         return ::operator new(_Bytes);

  000fa	e8 00 00 00 00	 call	 ??2@YAPAXI@Z		; operator new
; File C:\Program Files\Microsoft Visual Studio\2022\Community\VC\Tools\MSVC\14.44.35207\include\xtree

; 346  :         _Construct_in_place(_Pnode->_Left, _Pnode);

  000ff	89 00		 mov	 DWORD PTR [eax], eax

; 347  :         _Construct_in_place(_Pnode->_Parent, _Pnode);

  00101	89 40 04	 mov	 DWORD PTR [eax+4], eax

; 348  :         _Construct_in_place(_Pnode->_Right, _Pnode);

  00104	89 40 08	 mov	 DWORD PTR [eax+8], eax

; 349  :         _Pnode->_Color = _Black;

  00107	66 c7 40 0c 01
	01		 mov	 WORD PTR [eax+12], 257	; 00000101H

; 1957 :         _Scary->_Myhead = _Node::_Buyheadnode(_Getal());

  0010d	89 06		 mov	 DWORD PTR [esi], eax
; File D:\_m2work\Server Client TMP4\ClientVS22\source\UserInterface\MarkManager.cpp

; 26   : 	_mkdir("mark");

  0010f	68 00 00 00 00	 push	 OFFSET ??_C@_04KJJCFCK@mark@
  00114	c6 45 fc 05	 mov	 BYTE PTR __$EHRec$[ebp+8], 5
  00118	e8 00 00 00 00	 call	 __mkdir
  0011d	83 c4 14	 add	 esp, 20			; 00000014H

; 27   : #endif
; 28   : 	//  mark id  . ()
; 29   : 	for (DWORD i = 0; i < MAX_IMAGE_COUNT * CGuildMarkImage::MARK_TOTAL_COUNT; ++i)

  00120	c7 45 f0 00 00
	00 00		 mov	 DWORD PTR _i$3[ebp], 0
$LL4@CGuildMark:

; 30   : 		m_setFreeMarkID.insert(i);

  00127	8d 45 f0	 lea	 eax, DWORD PTR _i$3[ebp]
  0012a	8b cf		 mov	 ecx, edi
  0012c	50		 push	 eax
  0012d	8d 45 e4	 lea	 eax, DWORD PTR $T2[ebp]
  00130	50		 push	 eax
  00131	e8 00 00 00 00	 call	 ??$insert@$0A@$0A@@?$_Tree@V?$_Tset_traits@KU?$less@K@std@@V?$allocator@K@2@$0A@@std@@@std@@QAE?AU?$pair@V?$_Tree_const_iterator@V?$_Tree_val@U?$_Tree_simple_types@K@std@@@std@@@std@@_N@1@ABK@Z ; std::_Tree<std::_Tset_traits<unsigned long,std::less<unsigned long>,std::allocator<unsigned long>,0> >::insert<0,0>
  00136	8b 45 f0	 mov	 eax, DWORD PTR _i$3[ebp]
  00139	40		 inc	 eax
  0013a	89 45 f0	 mov	 DWORD PTR _i$3[ebp], eax
  0013d	3d 00 19 00 00	 cmp	 eax, 6400		; 00001900H
  00142	72 e3		 jb	 SHORT $LL4@CGuildMark

; 31   : }

  00144	8b 45 ec	 mov	 eax, DWORD PTR _this$[ebp]
  00147	8b 4d f4	 mov	 ecx, DWORD PTR __$EHRec$[ebp]
  0014a	64 89 0d 00 00
	00 00		 mov	 DWORD PTR fs:0, ecx
  00151	59		 pop	 ecx
  00152	5f		 pop	 edi
  00153	5e		 pop	 esi
  00154	8b e5		 mov	 esp, ebp
  00156	5d		 pop	 ebp
  00157	c3		 ret	 0
_TEXT	ENDS
;	COMDAT text$x
text$x	SEGMENT
__unwindfunclet$??0CGuildMarkManager@@QAE@XZ$0:
  00000	8b 4d ec	 mov	 ecx, DWORD PTR _this$[ebp]
  00003	e9 00 00 00 00	 jmp	 ??1?$singleton@VCGuildMarkManager@@@@UAE@XZ ; singleton<CGuildMarkManager>::~singleton<CGuildMarkManager>
__unwindfunclet$??0CGuildMarkManager@@QAE@XZ$1:
  00008	8b 4d ec	 mov	 ecx, DWORD PTR _this$[ebp]
  0000b	83 c1 04	 add	 ecx, 4
  0000e	e9 00 00 00 00	 jmp	 ??1?$map@KPAVCGuildMarkImage@@U?$less@K@std@@V?$allocator@U?$pair@$$CBKPAVCGuildMarkImage@@@std@@@3@@std@@QAE@XZ
__unwindfunclet$??0CGuildMarkManager@@QAE@XZ$2:
  00013	8b 4d ec	 mov	 ecx, DWORD PTR _this$[ebp]
  00016	83 c1 0c	 add	 ecx, 12			; 0000000cH
  00019	e9 00 00 00 00	 jmp	 ??1?$map@KKU?$less@K@std@@V?$allocator@U?$pair@$$CBKK@std@@@2@@std@@QAE@XZ
__unwindfunclet$??0CGuildMarkManager@@QAE@XZ$3:
  0001e	8b 4d ec	 mov	 ecx, DWORD PTR _this$[ebp]
  00021	83 c1 14	 add	 ecx, 20			; 00000014H
  00024	e9 00 00 00 00	 jmp	 ??1?$set@KU?$less@K@std@@V?$allocator@K@2@@std@@QAE@XZ
__unwindfunclet$??0CGuildMarkManager@@QAE@XZ$4:
  00029	8b 4d ec	 mov	 ecx, DWORD PTR _this$[ebp]
  0002c	83 c1 1c	 add	 ecx, 28			; 0000001cH
  0002f	e9 00 00 00 00	 jmp	 ??1?$basic_string@DU?$char_traits@D@std@@V?$allocator@D@2@@std@@QAE@XZ ; std::basic_string<char,std::char_traits<char>,std::allocator<char> >::~basic_string<char,std::char_traits<char>,std::allocator<char> >
__unwindfunclet$??0CGuildMarkManager@@QAE@XZ$5:
  00034	8b 4d ec	 mov	 ecx, DWORD PTR _this$[ebp]
  00037	83 c1 34	 add	 ecx, 52			; 00000034H
  0003a	e9 00 00 00 00	 jmp	 ??1?$map@KUTGuildSymbol@CGuildMarkManager@@U?$less@K@std@@V?$allocator@U?$pair@$$CBKUTGuildSymbol@CGuildMarkManager@@@std@@@4@@std@@QAE@XZ
  0003f	cc		 int	 3
  00040	cc		 int	 3
  00041	cc		 int	 3
  00042	cc		 int	 3
  00043	cc		 int	 3
__ehhandler$??0CGuildMarkManager@@QAE@XZ:
  00044	90		 npad	 1
  00045	90		 npad	 1
  00046	8b 54 24 08	 mov	 edx, DWORD PTR [esp+8]
  0004a	8d 42 0c	 lea	 eax, DWORD PTR [edx+12]
  0004d	8b 4a e4	 mov	 ecx, DWORD PTR [edx-28]
  00050	33 c8		 xor	 ecx, eax
  00052	e8 00 00 00 00	 call	 @__security_check_cookie@4
  00057	b8 00 00 00 00	 mov	 eax, OFFSET __ehfuncinfo$??0CGuildMarkManager@@QAE@XZ
  0005c	e9 00 00 00 00	 jmp	 ___CxxFrameHandler3
text$x	ENDS
??0CGuildMarkManager@@QAE@XZ ENDP			; CGuildMarkManager::CGuildMarkManager
; Function compile flags: /Ogtp
;	COMDAT ??_GCGuildMarkManager@@UAEPAXI@Z
_TEXT	SEGMENT
___flags$ = 8						; size = 4
??_GCGuildMarkManager@@UAEPAXI@Z PROC			; CGuildMarkManager::`scalar deleting destructor', COMDAT
; _this$ = ecx
  00000	55		 push	 ebp
  00001	8b ec		 mov	 ebp, esp
  00003	56		 push	 esi
  00004	8b f1		 mov	 esi, ecx
  00006	e8 00 00 00 00	 call	 ??1CGuildMarkManager@@UAE@XZ ; CGuildMarkManager::~CGuildMarkManager
  0000b	f6 45 08 01	 test	 BYTE PTR ___flags$[ebp], 1
  0000f	74 0b		 je	 SHORT $LN5@scalar
  00011	6a 3c		 push	 60			; 0000003cH
  00013	56		 push	 esi
  00014	e8 00 00 00 00	 call	 ??3@YAXPAXI@Z		; operator delete
  00019	83 c4 08	 add	 esp, 8
$LN5@scalar:
  0001c	8b c6		 mov	 eax, esi
  0001e	5e		 pop	 esi
  0001f	5d		 pop	 ebp
  00020	c2 04 00	 ret	 4
??_GCGuildMarkManager@@UAEPAXI@Z ENDP			; CGuildMarkManager::`scalar deleting destructor'
_TEXT	ENDS
; Function compile flags: /Ogtp
; File C:\Program Files\Microsoft Visual Studio\2022\Community\VC\Tools\MSVC\14.44.35207\include\xtree
; File C:\Program Files\Microsoft Visual Studio\2022\Community\VC\Tools\MSVC\14.44.35207\include\xmemory
;	COMDAT ??1?$map@KPAVCGuildMarkImage@@U?$less@K@std@@V?$allocator@U?$pair@$$CBKPAVCGuildMarkImage@@@std@@@3@@std@@QAE@XZ
_TEXT	SEGMENT
??1?$map@KPAVCGuildMarkImage@@U?$less@K@std@@V?$allocator@U?$pair@$$CBKPAVCGuildMarkImage@@@std@@@3@@std@@QAE@XZ PROC ; std::map<unsigned long,CGuildMarkImage *,std::less<unsigned long>,std::allocator<std::pair<unsigned long const ,CGuildMarkImage *> > >::~map<unsigned long,CGuildMarkImage *,std::less<unsigned long>,std::allocator<std::pair<unsigned long const ,CGuildMarkImage *> > >, COMDAT
; _this$ = ecx
; File C:\Program Files\Microsoft Visual Studio\2022\Community\VC\Tools\MSVC\14.44.35207\include\xtree

; 777  :         _Erase_tree(_Al, _Myhead->_Parent);

  00000	56		 push	 esi
  00001	8b f1		 mov	 esi, ecx
  00003	8b 06		 mov	 eax, DWORD PTR [esi]
  00005	ff 70 04	 push	 DWORD PTR [eax+4]
  00008	56		 push	 esi
  00009	e8 00 00 00 00	 call	 ??$_Erase_tree@V?$allocator@U?$_Tree_node@U?$pair@$$CBKPAVCGuildMarkImage@@@std@@PAX@std@@@std@@@?$_Tree_val@U?$_Tree_simple_types@U?$pair@$$CBKPAVCGuildMarkImage@@@std@@@std@@@std@@QAEXAAV?$allocator@U?$_Tree_node@U?$pair@$$CBKPAVCGuildMarkImage@@@std@@PAX@std@@@1@PAU?$_Tree_node@U?$pair@$$CBKPAVCGuildMarkImage@@@std@@PAX@1@@Z ; std::_Tree_val<std::_Tree_simple_types<std::pair<unsigned long const ,CGuildMarkImage *> > >::_Erase_tree<std::allocator<std::_Tree_node<std::pair<unsigned long const ,CGuildMarkImage *>,void *> > >
; File C:\Program Files\Microsoft Visual Studio\2022\Community\VC\Tools\MSVC\14.44.35207\include\xmemory

; 289  :         ::operator delete(_Ptr, _Bytes);

  0000e	6a 18		 push	 24			; 00000018H
  00010	ff 36		 push	 DWORD PTR [esi]
  00012	e8 00 00 00 00	 call	 ??3@YAXPAXI@Z		; operator delete
  00017	83 c4 08	 add	 esp, 8
  0001a	5e		 pop	 esi
  0001b	c3		 ret	 0
??1?$map@KPAVCGuildMarkImage@@U?$less@K@std@@V?$allocator@U?$pair@$$CBKPAVCGuildMarkImage@@@std@@@3@@std@@QAE@XZ ENDP ; std::map<unsigned long,CGuildMarkImage *,std::less<unsigned long>,std::allocator<std::pair<unsigned long const ,CGuildMarkImage *> > >::~map<unsigned long,CGuildMarkImage *,std::less<unsigned long>,std::allocator<std::pair<unsigned long const ,CGuildMarkImage *> > >
_TEXT	ENDS
; Function compile flags: /Ogtp
; File C:\Program Files\Microsoft Visual Studio\2022\Community\VC\Tools\MSVC\14.44.35207\include\xtree
; File C:\Program Files\Microsoft Visual Studio\2022\Community\VC\Tools\MSVC\14.44.35207\include\xmemory
;	COMDAT ??1?$map@KUTGuildSymbol@CGuildMarkManager@@U?$less@K@std@@V?$allocator@U?$pair@$$CBKUTGuildSymbol@CGuildMarkManager@@@std@@@4@@std@@QAE@XZ
_TEXT	SEGMENT
??1?$map@KUTGuildSymbol@CGuildMarkManager@@U?$less@K@std@@V?$allocator@U?$pair@$$CBKUTGuildSymbol@CGuildMarkManager@@@std@@@4@@std@@QAE@XZ PROC ; std::map<unsigned long,CGuildMarkManager::TGuildSymbol,std::less<unsigned long>,std::allocator<std::pair<unsigned long const ,CGuildMarkManager::TGuildSymbol> > >::~map<unsigned long,CGuildMarkManager::TGuildSymbol,std::less<unsigned long>,std::allocator<std::pair<unsigned long const ,CGuildMarkManager::TGuildSymbol> > >, COMDAT
; _this$ = ecx
; File C:\Program Files\Microsoft Visual Studio\2022\Community\VC\Tools\MSVC\14.44.35207\include\xtree

; 777  :         _Erase_tree(_Al, _Myhead->_Parent);

  00000	56		 push	 esi
  00001	8b f1		 mov	 esi, ecx
  00003	8b 06		 mov	 eax, DWORD PTR [esi]
  00005	ff 70 04	 push	 DWORD PTR [eax+4]
  00008	56		 push	 esi
  00009	e8 00 00 00 00	 call	 ??$_Erase_tree@V?$allocator@U?$_Tree_node@U?$pair@$$CBKUTGuildSymbol@CGuildMarkManager@@@std@@PAX@std@@@std@@@?$_Tree_val@U?$_Tree_simple_types@U?$pair@$$CBKUTGuildSymbol@CGuildMarkManager@@@std@@@std@@@std@@QAEXAAV?$allocator@U?$_Tree_node@U?$pair@$$CBKUTGuildSymbol@CGuildMarkManager@@@std@@PAX@std@@@1@PAU?$_Tree_node@U?$pair@$$CBKUTGuildSymbol@CGuildMarkManager@@@std@@PAX@1@@Z ; std::_Tree_val<std::_Tree_simple_types<std::pair<unsigned long const ,CGuildMarkManager::TGuildSymbol> > >::_Erase_tree<std::allocator<std::_Tree_node<std::pair<unsigned long const ,CGuildMarkManager::TGuildSymbol>,void *> > >
; File C:\Program Files\Microsoft Visual Studio\2022\Community\VC\Tools\MSVC\14.44.35207\include\xmemory

; 289  :         ::operator delete(_Ptr, _Bytes);

  0000e	6a 24		 push	 36			; 00000024H
  00010	ff 36		 push	 DWORD PTR [esi]
  00012	e8 00 00 00 00	 call	 ??3@YAXPAXI@Z		; operator delete
  00017	83 c4 08	 add	 esp, 8
  0001a	5e		 pop	 esi
  0001b	c3		 ret	 0
??1?$map@KUTGuildSymbol@CGuildMarkManager@@U?$less@K@std@@V?$allocator@U?$pair@$$CBKUTGuildSymbol@CGuildMarkManager@@@std@@@4@@std@@QAE@XZ ENDP ; std::map<unsigned long,CGuildMarkManager::TGuildSymbol,std::less<unsigned long>,std::allocator<std::pair<unsigned long const ,CGuildMarkManager::TGuildSymbol> > >::~map<unsigned long,CGuildMarkManager::TGuildSymbol,std::less<unsigned long>,std::allocator<std::pair<unsigned long const ,CGuildMarkManager::TGuildSymbol> > >
_TEXT	ENDS
; Function compile flags: /Ogtp
; File D:\_m2work\Server Client TMP4\ClientVS22\source\UserInterface\MarkManager.cpp
; File C:\Program Files\Microsoft Visual Studio\2022\Community\VC\Tools\MSVC\14.44.35207\include\xtree
; File D:\_m2work\Server Client TMP4\ClientVS22\source\UserInterface\MarkManager.cpp
; File C:\Program Files\Microsoft Visual Studio\2022\Community\VC\Tools\MSVC\14.44.35207\include\xtree
; File D:\_m2work\Server Client TMP4\ClientVS22\source\UserInterface\MarkManager.cpp
; File C:\Program Files\Microsoft Visual Studio\2022\Community\VC\Tools\MSVC\14.44.35207\include\xtree
; File D:\_m2work\Server Client TMP4\ClientVS22\source\UserInterface\MarkManager.cpp
; File C:\Program Files\Microsoft Visual Studio\2022\Community\VC\Tools\MSVC\14.44.35207\include\xtree
; File D:\_m2work\Server Client TMP4\ClientVS22\source\UserInterface\MarkManager.cpp
; File C:\Program Files\Microsoft Visual Studio\2022\Community\VC\Tools\MSVC\14.44.35207\include\xtree
; File D:\_m2work\Server Client TMP4\ClientVS22\source\UserInterface\MarkManager.cpp
; File C:\Program Files\Microsoft Visual Studio\2022\Community\VC\Tools\MSVC\14.44.35207\include\xtree
; File C:\Program Files\Microsoft Visual Studio\2022\Community\VC\Tools\MSVC\14.44.35207\include\xmemory
; File D:\_m2work\Server Client TMP4\ClientVS22\source\UserInterface\MarkManager.cpp
; File C:\Program Files\Microsoft Visual Studio\2022\Community\VC\Tools\MSVC\14.44.35207\include\xstring
; File C:\Program Files\Microsoft Visual Studio\2022\Community\VC\Tools\MSVC\14.44.35207\include\xtree
; File D:\_m2work\Server Client TMP4\ClientVS22\source\UserInterface\MarkManager.cpp
; File C:\Program Files\Microsoft Visual Studio\2022\Community\VC\Tools\MSVC\14.44.35207\include\xtree
; File C:\Program Files\Microsoft Visual Studio\2022\Community\VC\Tools\MSVC\14.44.35207\include\xmemory
; File C:\Program Files\Microsoft Visual Studio\2022\Community\VC\Tools\MSVC\14.44.35207\include\xtree
; File D:\_m2work\Server Client TMP4\ClientVS22\source\UserInterface\MarkManager.cpp
; File C:\Program Files\Microsoft Visual Studio\2022\Community\VC\Tools\MSVC\14.44.35207\include\xmemory
; File C:\Program Files\Microsoft Visual Studio\2022\Community\VC\Tools\MSVC\14.44.35207\include\xtree
; File C:\Program Files\Microsoft Visual Studio\2022\Community\VC\Tools\MSVC\14.44.35207\include\xmemory
; File C:\Program Files\Microsoft Visual Studio\2022\Community\VC\Tools\MSVC\14.44.35207\include\xtree
; File C:\Program Files\Microsoft Visual Studio\2022\Community\VC\Tools\MSVC\14.44.35207\include\xmemory
; File C:\Program Files\Microsoft Visual Studio\2022\Community\VC\Tools\MSVC\14.44.35207\include\xtree
; File C:\Program Files\Microsoft Visual Studio\2022\Community\VC\Tools\MSVC\14.44.35207\include\xmemory
; File D:\_m2work\Server Client TMP4\ClientVS22\source\eterBase\Singleton.h
; File D:\_m2work\Server Client TMP4\ClientVS22\source\UserInterface\MarkManager.cpp
;	COMDAT ??1CGuildMarkManager@@UAE@XZ
_TEXT	SEGMENT
_this$1$ = -4						; size = 4
??1CGuildMarkManager@@UAE@XZ PROC			; CGuildMarkManager::~CGuildMarkManager, COMDAT
; _this$ = ecx

; 34   : {

  00000	55		 push	 ebp
  00001	8b ec		 mov	 ebp, esp
  00003	51		 push	 ecx
  00004	53		 push	 ebx
  00005	56		 push	 esi
  00006	c7 01 00 00 00
	00		 mov	 DWORD PTR [ecx], OFFSET ??_7CGuildMarkManager@@6B@
; File C:\Program Files\Microsoft Visual Studio\2022\Community\VC\Tools\MSVC\14.44.35207\include\xtree

; 1142 :         return iterator(_Scary->_Myhead->_Left, _Scary);

  0000c	8d 59 04	 lea	 ebx, DWORD PTR [ecx+4]
; File D:\_m2work\Server Client TMP4\ClientVS22\source\UserInterface\MarkManager.cpp

; 34   : {

  0000f	57		 push	 edi
; File C:\Program Files\Microsoft Visual Studio\2022\Community\VC\Tools\MSVC\14.44.35207\include\xtree

; 1142 :         return iterator(_Scary->_Myhead->_Left, _Scary);

  00010	8b 3b		 mov	 edi, DWORD PTR [ebx]
; File D:\_m2work\Server Client TMP4\ClientVS22\source\UserInterface\MarkManager.cpp

; 34   : {

  00012	89 4d fc	 mov	 DWORD PTR _this$1$[ebp], ecx
; File C:\Program Files\Microsoft Visual Studio\2022\Community\VC\Tools\MSVC\14.44.35207\include\xtree

; 37   :     _Tree_unchecked_const_iterator(_Nodeptr _Pnode, const _Mytree* _Plist) noexcept : _Ptr(_Pnode) {

  00015	8b 37		 mov	 esi, DWORD PTR [edi]
  00017	3b f7		 cmp	 esi, edi
; File D:\_m2work\Server Client TMP4\ClientVS22\source\UserInterface\MarkManager.cpp

; 35   : 	for (std::map<DWORD, CGuildMarkImage *>::iterator it = m_mapIdx_Image.begin(); it != m_mapIdx_Image.end(); ++it)

  00019	74 57		 je	 SHORT $LN3@CGuildMark
  0001b	0f 1f 44 00 00	 npad	 5
$LL4@CGuildMark:

; 36   : 		__DeleteImage(it->second);

  00020	ff 76 14	 push	 DWORD PTR [esi+20]
  00023	e8 00 00 00 00	 call	 ?__DeleteImage@CGuildMarkManager@@AAEXPAVCGuildMarkImage@@@Z ; CGuildMarkManager::__DeleteImage
; File C:\Program Files\Microsoft Visual Studio\2022\Community\VC\Tools\MSVC\14.44.35207\include\xtree

; 50   :         if (_Ptr->_Right->_Isnil) { // climb looking for right subtree

  00028	8b 46 08	 mov	 eax, DWORD PTR [esi+8]
  0002b	80 78 0d 00	 cmp	 BYTE PTR [eax+13], 0
  0002f	74 23		 je	 SHORT $LN28@CGuildMark

; 51   :             _Nodeptr _Pnode;
; 52   :             while (!(_Pnode = _Ptr->_Parent)->_Isnil && _Ptr == _Pnode->_Right) {

  00031	8b 46 04	 mov	 eax, DWORD PTR [esi+4]
  00034	80 78 0d 00	 cmp	 BYTE PTR [eax+13], 0
  00038	75 16		 jne	 SHORT $LN277@CGuildMark
  0003a	66 0f 1f 44 00
	00		 npad	 6
$LL26@CGuildMark:
  00040	3b 70 08	 cmp	 esi, DWORD PTR [eax+8]
  00043	75 0b		 jne	 SHORT $LN277@CGuildMark

; 53   :                 _Ptr = _Pnode; // ==> parent while right subtree

  00045	8b f0		 mov	 esi, eax
  00047	8b 40 04	 mov	 eax, DWORD PTR [eax+4]
  0004a	80 78 0d 00	 cmp	 BYTE PTR [eax+13], 0
  0004e	74 f0		 je	 SHORT $LL26@CGuildMark
$LN277@CGuildMark:

; 54   :             }
; 55   : 
; 56   :             _Ptr = _Pnode; // ==> parent (head if end())

  00050	8b f0		 mov	 esi, eax

; 57   :         } else {

  00052	eb 18		 jmp	 SHORT $LN34@CGuildMark
$LN28@CGuildMark:

; 58   :             _Ptr = _Mytree::_Min(_Ptr->_Right); // ==> smallest of right subtree

  00054	8b f0		 mov	 esi, eax

; 476  :         while (!_Pnode->_Left->_Isnil) {

  00056	8b 0e		 mov	 ecx, DWORD PTR [esi]
  00058	80 79 0d 00	 cmp	 BYTE PTR [ecx+13], 0
  0005c	75 0e		 jne	 SHORT $LN34@CGuildMark
  0005e	66 90		 npad	 2
$LL33@CGuildMark:
  00060	8b 01		 mov	 eax, DWORD PTR [ecx]

; 477  :             _Pnode = _Pnode->_Left;

  00062	8b f1		 mov	 esi, ecx
  00064	8b c8		 mov	 ecx, eax
  00066	80 78 0d 00	 cmp	 BYTE PTR [eax+13], 0
  0006a	74 f4		 je	 SHORT $LL33@CGuildMark
$LN34@CGuildMark:

; 37   :     _Tree_unchecked_const_iterator(_Nodeptr _Pnode, const _Mytree* _Plist) noexcept : _Ptr(_Pnode) {

  0006c	8b 3b		 mov	 edi, DWORD PTR [ebx]

; 232  :         return this->_Ptr == _Right._Ptr;

  0006e	3b f7		 cmp	 esi, edi
; File D:\_m2work\Server Client TMP4\ClientVS22\source\UserInterface\MarkManager.cpp

; 35   : 	for (std::map<DWORD, CGuildMarkImage *>::iterator it = m_mapIdx_Image.begin(); it != m_mapIdx_Image.end(); ++it)

  00070	75 ae		 jne	 SHORT $LL4@CGuildMark
$LN3@CGuildMark:
; File C:\Program Files\Microsoft Visual Studio\2022\Community\VC\Tools\MSVC\14.44.35207\include\xtree

; 1374 :         _Scary->_Erase_tree(_Getal(), _Head->_Parent);

  00072	ff 77 04	 push	 DWORD PTR [edi+4]
  00075	8b cb		 mov	 ecx, ebx
  00077	53		 push	 ebx
  00078	e8 00 00 00 00	 call	 ??$_Erase_tree@V?$allocator@U?$_Tree_node@U?$pair@$$CBKPAVCGuildMarkImage@@@std@@PAX@std@@@std@@@?$_Tree_val@U?$_Tree_simple_types@U?$pair@$$CBKPAVCGuildMarkImage@@@std@@@std@@@std@@QAEXAAV?$allocator@U?$_Tree_node@U?$pair@$$CBKPAVCGuildMarkImage@@@std@@PAX@std@@@1@PAU?$_Tree_node@U?$pair@$$CBKPAVCGuildMarkImage@@@std@@PAX@1@@Z ; std::_Tree_val<std::_Tree_simple_types<std::pair<unsigned long const ,CGuildMarkImage *> > >::_Erase_tree<std::allocator<std::_Tree_node<std::pair<unsigned long const ,CGuildMarkImage *>,void *> > >

; 1375 :         _Head->_Parent  = _Head;

  0007d	89 7f 04	 mov	 DWORD PTR [edi+4], edi

; 1376 :         _Head->_Left    = _Head;

  00080	89 3f		 mov	 DWORD PTR [edi], edi

; 1377 :         _Head->_Right   = _Head;

  00082	89 7f 08	 mov	 DWORD PTR [edi+8], edi
; File D:\_m2work\Server Client TMP4\ClientVS22\source\UserInterface\MarkManager.cpp

; 39   : }

  00085	8b 7d fc	 mov	 edi, DWORD PTR _this$1$[ebp]
  00088	8d 77 34	 lea	 esi, DWORD PTR [edi+52]
; File C:\Program Files\Microsoft Visual Studio\2022\Community\VC\Tools\MSVC\14.44.35207\include\xtree

; 1378 :         _Scary->_Mysize = 0;

  0008b	c7 43 04 00 00
	00 00		 mov	 DWORD PTR [ebx+4], 0

; 777  :         _Erase_tree(_Al, _Myhead->_Parent);

  00092	8b 06		 mov	 eax, DWORD PTR [esi]
  00094	8b ce		 mov	 ecx, esi
  00096	ff 70 04	 push	 DWORD PTR [eax+4]
  00099	56		 push	 esi
  0009a	e8 00 00 00 00	 call	 ??$_Erase_tree@V?$allocator@U?$_Tree_node@U?$pair@$$CBKUTGuildSymbol@CGuildMarkManager@@@std@@PAX@std@@@std@@@?$_Tree_val@U?$_Tree_simple_types@U?$pair@$$CBKUTGuildSymbol@CGuildMarkManager@@@std@@@std@@@std@@QAEXAAV?$allocator@U?$_Tree_node@U?$pair@$$CBKUTGuildSymbol@CGuildMarkManager@@@std@@PAX@std@@@1@PAU?$_Tree_node@U?$pair@$$CBKUTGuildSymbol@CGuildMarkManager@@@std@@PAX@1@@Z ; std::_Tree_val<std::_Tree_simple_types<std::pair<unsigned long const ,CGuildMarkManager::TGuildSymbol> > >::_Erase_tree<std::allocator<std::_Tree_node<std::pair<unsigned long const ,CGuildMarkManager::TGuildSymbol>,void *> > >
; File C:\Program Files\Microsoft Visual Studio\2022\Community\VC\Tools\MSVC\14.44.35207\include\xmemory

; 289  :         ::operator delete(_Ptr, _Bytes);

  0009f	6a 24		 push	 36			; 00000024H
  000a1	ff 36		 push	 DWORD PTR [esi]
  000a3	e8 00 00 00 00	 call	 ??3@YAXPAXI@Z		; operator delete
  000a8	83 c4 08	 add	 esp, 8
; File D:\_m2work\Server Client TMP4\ClientVS22\source\UserInterface\MarkManager.cpp

; 39   : }

  000ab	8d 4f 1c	 lea	 ecx, DWORD PTR [edi+28]
; File C:\Program Files\Microsoft Visual Studio\2022\Community\VC\Tools\MSVC\14.44.35207\include\xstring

; 1383 :         _Tidy_deallocate();

  000ae	e8 00 00 00 00	 call	 ?_Tidy_deallocate@?$basic_string@DU?$char_traits@D@std@@V?$allocator@D@2@@std@@AAEXXZ ; std::basic_string<char,std::char_traits<char>,std::allocator<char> >::_Tidy_deallocate
; File C:\Program Files\Microsoft Visual Studio\2022\Community\VC\Tools\MSVC\14.44.35207\include\xtree

; 777  :         _Erase_tree(_Al, _Myhead->_Parent);

  000b3	8b 47 14	 mov	 eax, DWORD PTR [edi+20]
; File D:\_m2work\Server Client TMP4\ClientVS22\source\UserInterface\MarkManager.cpp

; 39   : }

  000b6	8d 77 14	 lea	 esi, DWORD PTR [edi+20]
; File C:\Program Files\Microsoft Visual Studio\2022\Community\VC\Tools\MSVC\14.44.35207\include\xtree

; 777  :         _Erase_tree(_Al, _Myhead->_Parent);

  000b9	8b ce		 mov	 ecx, esi
  000bb	ff 70 04	 push	 DWORD PTR [eax+4]
  000be	56		 push	 esi
  000bf	e8 00 00 00 00	 call	 ??$_Erase_tree@V?$allocator@U?$_Tree_node@KPAX@std@@@std@@@?$_Tree_val@U?$_Tree_simple_types@K@std@@@std@@QAEXAAV?$allocator@U?$_Tree_node@KPAX@std@@@1@PAU?$_Tree_node@KPAX@1@@Z ; std::_Tree_val<std::_Tree_simple_types<unsigned long> >::_Erase_tree<std::allocator<std::_Tree_node<unsigned long,void *> > >
; File C:\Program Files\Microsoft Visual Studio\2022\Community\VC\Tools\MSVC\14.44.35207\include\xmemory

; 289  :         ::operator delete(_Ptr, _Bytes);

  000c4	6a 14		 push	 20			; 00000014H
  000c6	ff 36		 push	 DWORD PTR [esi]
  000c8	e8 00 00 00 00	 call	 ??3@YAXPAXI@Z		; operator delete
; File C:\Program Files\Microsoft Visual Studio\2022\Community\VC\Tools\MSVC\14.44.35207\include\xtree

; 777  :         _Erase_tree(_Al, _Myhead->_Parent);

  000cd	8b 47 0c	 mov	 eax, DWORD PTR [edi+12]
; File D:\_m2work\Server Client TMP4\ClientVS22\source\UserInterface\MarkManager.cpp

; 39   : }

  000d0	8d 77 0c	 lea	 esi, DWORD PTR [edi+12]
; File C:\Program Files\Microsoft Visual Studio\2022\Community\VC\Tools\MSVC\14.44.35207\include\xmemory

; 289  :         ::operator delete(_Ptr, _Bytes);

  000d3	83 c4 08	 add	 esp, 8
; File C:\Program Files\Microsoft Visual Studio\2022\Community\VC\Tools\MSVC\14.44.35207\include\xtree

; 777  :         _Erase_tree(_Al, _Myhead->_Parent);

  000d6	8b ce		 mov	 ecx, esi
  000d8	ff 70 04	 push	 DWORD PTR [eax+4]
  000db	56		 push	 esi
  000dc	e8 00 00 00 00	 call	 ??$_Erase_tree@V?$allocator@U?$_Tree_node@U?$pair@$$CBKK@std@@PAX@std@@@std@@@?$_Tree_val@U?$_Tree_simple_types@U?$pair@$$CBKK@std@@@std@@@std@@QAEXAAV?$allocator@U?$_Tree_node@U?$pair@$$CBKK@std@@PAX@std@@@1@PAU?$_Tree_node@U?$pair@$$CBKK@std@@PAX@1@@Z ; std::_Tree_val<std::_Tree_simple_types<std::pair<unsigned long const ,unsigned long> > >::_Erase_tree<std::allocator<std::_Tree_node<std::pair<unsigned long const ,unsigned long>,void *> > >
; File C:\Program Files\Microsoft Visual Studio\2022\Community\VC\Tools\MSVC\14.44.35207\include\xmemory

; 289  :         ::operator delete(_Ptr, _Bytes);

  000e1	6a 18		 push	 24			; 00000018H
  000e3	ff 36		 push	 DWORD PTR [esi]
  000e5	e8 00 00 00 00	 call	 ??3@YAXPAXI@Z		; operator delete
; File C:\Program Files\Microsoft Visual Studio\2022\Community\VC\Tools\MSVC\14.44.35207\include\xtree

; 777  :         _Erase_tree(_Al, _Myhead->_Parent);

  000ea	8b 03		 mov	 eax, DWORD PTR [ebx]
; File C:\Program Files\Microsoft Visual Studio\2022\Community\VC\Tools\MSVC\14.44.35207\include\xmemory

; 289  :         ::operator delete(_Ptr, _Bytes);

  000ec	83 c4 08	 add	 esp, 8
; File C:\Program Files\Microsoft Visual Studio\2022\Community\VC\Tools\MSVC\14.44.35207\include\xtree

; 777  :         _Erase_tree(_Al, _Myhead->_Parent);

  000ef	8b cb		 mov	 ecx, ebx
  000f1	ff 70 04	 push	 DWORD PTR [eax+4]
  000f4	53		 push	 ebx
  000f5	e8 00 00 00 00	 call	 ??$_Erase_tree@V?$allocator@U?$_Tree_node@U?$pair@$$CBKPAVCGuildMarkImage@@@std@@PAX@std@@@std@@@?$_Tree_val@U?$_Tree_simple_types@U?$pair@$$CBKPAVCGuildMarkImage@@@std@@@std@@@std@@QAEXAAV?$allocator@U?$_Tree_node@U?$pair@$$CBKPAVCGuildMarkImage@@@std@@PAX@std@@@1@PAU?$_Tree_node@U?$pair@$$CBKPAVCGuildMarkImage@@@std@@PAX@1@@Z ; std::_Tree_val<std::_Tree_simple_types<std::pair<unsigned long const ,CGuildMarkImage *> > >::_Erase_tree<std::allocator<std::_Tree_node<std::pair<unsigned long const ,CGuildMarkImage *>,void *> > >
; File C:\Program Files\Microsoft Visual Studio\2022\Community\VC\Tools\MSVC\14.44.35207\include\xmemory

; 289  :         ::operator delete(_Ptr, _Bytes);

  000fa	6a 18		 push	 24			; 00000018H
  000fc	ff 33		 push	 DWORD PTR [ebx]
  000fe	e8 00 00 00 00	 call	 ??3@YAXPAXI@Z		; operator delete
  00103	83 c4 08	 add	 esp, 8
; File D:\_m2work\Server Client TMP4\ClientVS22\source\eterBase\Singleton.h

; 60   : 	{ 

  00106	c7 07 00 00 00
	00		 mov	 DWORD PTR [edi], OFFSET ??_7?$singleton@VCGuildMarkManager@@@@6B@

; 61   : 		assert(ms_singleton);
; 62   : 		ms_singleton = 0; 

  0010c	c7 05 00 00 00
	00 00 00 00 00	 mov	 DWORD PTR ?ms_singleton@?$singleton@VCGuildMarkManager@@@@0PAVCGuildMarkManager@@A, 0 ; singleton<CGuildMarkManager>::ms_singleton
  00116	5f		 pop	 edi
  00117	5e		 pop	 esi
  00118	5b		 pop	 ebx
; File D:\_m2work\Server Client TMP4\ClientVS22\source\UserInterface\MarkManager.cpp

; 39   : }

  00119	8b e5		 mov	 esp, ebp
  0011b	5d		 pop	 ebp
  0011c	c3		 ret	 0
??1CGuildMarkManager@@UAE@XZ ENDP			; CGuildMarkManager::~CGuildMarkManager
_TEXT	ENDS
; Function compile flags: /Ogtp
; File D:\_m2work\Server Client TMP4\ClientVS22\source\UserInterface\MarkManager.cpp
; File C:\Program Files\Microsoft Visual Studio\2022\Community\VC\Tools\MSVC\14.44.35207\include\__msvc_string_view.hpp
; File D:\_m2work\Server Client TMP4\ClientVS22\source\UserInterface\MarkManager.cpp
; File C:\Program Files\Microsoft Visual Studio\2022\Community\VC\Tools\MSVC\14.44.35207\include\__msvc_string_view.hpp
; File D:\_m2work\Server Client TMP4\ClientVS22\source\UserInterface\MarkManager.cpp
; File C:\Program Files\Microsoft Visual Studio\2022\Community\VC\Tools\MSVC\14.44.35207\include\xstring
; File D:\_m2work\Server Client TMP4\ClientVS22\source\UserInterface\MarkManager.cpp
;	COMDAT ?SetMarkPathPrefix@CGuildMarkManager@@QAEXPBD@Z
_TEXT	SEGMENT
_prefix$ = 8						; size = 4
?SetMarkPathPrefix@CGuildMarkManager@@QAEXPBD@Z PROC	; CGuildMarkManager::SetMarkPathPrefix, COMDAT
; _this$ = ecx

; 53   : {

  00000	55		 push	 ebp
  00001	8b ec		 mov	 ebp, esp
; File C:\Program Files\Microsoft Visual Studio\2022\Community\VC\Tools\MSVC\14.44.35207\include\__msvc_string_view.hpp

; 456  :             return __builtin_strlen(_First);

  00003	8b 55 08	 mov	 edx, DWORD PTR _prefix$[ebp]
  00006	8b c2		 mov	 eax, edx
; File D:\_m2work\Server Client TMP4\ClientVS22\source\UserInterface\MarkManager.cpp

; 53   : {

  00008	56		 push	 esi
  00009	57		 push	 edi
  0000a	8b f1		 mov	 esi, ecx
; File C:\Program Files\Microsoft Visual Studio\2022\Community\VC\Tools\MSVC\14.44.35207\include\__msvc_string_view.hpp

; 456  :             return __builtin_strlen(_First);

  0000c	8d 78 01	 lea	 edi, DWORD PTR [eax+1]
  0000f	90		 npad	 1
$LL10@SetMarkPat:
  00010	8a 08		 mov	 cl, BYTE PTR [eax]
  00012	40		 inc	 eax
  00013	84 c9		 test	 cl, cl
  00015	75 f9		 jne	 SHORT $LL10@SetMarkPat
  00017	2b c7		 sub	 eax, edi
; File D:\_m2work\Server Client TMP4\ClientVS22\source\UserInterface\MarkManager.cpp

; 54   : 	m_pathPrefix = prefix;

  00019	8d 4e 1c	 lea	 ecx, DWORD PTR [esi+28]
; File C:\Program Files\Microsoft Visual Studio\2022\Community\VC\Tools\MSVC\14.44.35207\include\xstring

; 1638 :         return assign(_Ptr, _Convert_size<size_type>(_Traits::length(_Ptr)));

  0001c	50		 push	 eax
  0001d	52		 push	 edx
  0001e	e8 00 00 00 00	 call	 ?assign@?$basic_string@DU?$char_traits@D@std@@V?$allocator@D@2@@std@@QAEAAV12@QBDI@Z ; std::basic_string<char,std::char_traits<char>,std::allocator<char> >::assign
  00023	5f		 pop	 edi
  00024	5e		 pop	 esi
; File D:\_m2work\Server Client TMP4\ClientVS22\source\UserInterface\MarkManager.cpp

; 55   : }

  00025	5d		 pop	 ebp
  00026	c2 04 00	 ret	 4
?SetMarkPathPrefix@CGuildMarkManager@@QAEXPBD@Z ENDP	; CGuildMarkManager::SetMarkPathPrefix
_TEXT	ENDS
; Function compile flags: /Ogtp
; File D:\_m2work\Server Client TMP4\ClientVS22\source\UserInterface\MarkManager.cpp
; File C:\Program Files\Microsoft Visual Studio\2022\Community\VC\Tools\MSVC\14.44.35207\include\xtree
; File D:\_m2work\Server Client TMP4\ClientVS22\source\UserInterface\MarkManager.cpp
; File C:\Program Files\Microsoft Visual Studio\2022\Community\VC\Tools\MSVC\14.44.35207\include\xtree
; File C:\Program Files\Microsoft Visual Studio\2022\Community\VC\Tools\MSVC\14.44.35207\include\type_traits
; File C:\Program Files\Microsoft Visual Studio\2022\Community\VC\Tools\MSVC\14.44.35207\include\xtree
; File D:\_m2work\Server Client TMP4\ClientVS22\source\UserInterface\MarkManager.cpp
; File C:\Program Files\Microsoft Visual Studio\2022\Community\VC\Tools\MSVC\14.44.35207\include\xstring
; File D:\_m2work\Server Client TMP4\ClientVS22\source\UserInterface\MarkManager.cpp
; File C:\Program Files\Microsoft Visual Studio\2022\Community\VC\Tools\MSVC\14.44.35207\include\xtree
; File C:\Program Files\Microsoft Visual Studio\2022\Community\VC\Tools\MSVC\14.44.35207\include\utility
; File C:\Program Files\Microsoft Visual Studio\2022\Community\VC\Tools\MSVC\14.44.35207\include\xtree
; File D:\_m2work\Server Client TMP4\ClientVS22\source\UserInterface\MarkManager.cpp
; File C:\Program Files\Microsoft Visual Studio\2022\Community\VC\Tools\MSVC\14.44.35207\include\xtree
; File C:\Program Files\Microsoft Visual Studio\2022\Community\VC\Tools\MSVC\14.44.35207\include\utility
; File C:\Program Files\Microsoft Visual Studio\2022\Community\VC\Tools\MSVC\14.44.35207\include\xtree
; File C:\Program Files\Microsoft Visual Studio\2022\Community\VC\Tools\MSVC\14.44.35207\include\type_traits
; File C:\Program Files\Microsoft Visual Studio\2022\Community\VC\Tools\MSVC\14.44.35207\include\xtree
; File C:\Program Files\Microsoft Visual Studio\2022\Community\VC\Tools\MSVC\14.44.35207\include\xmemory
; File C:\Program Files\Microsoft Visual Studio\2022\Community\VC\Tools\MSVC\14.44.35207\include\xtree
; File C:\Program Files\Microsoft Visual Studio\2022\Community\VC\Tools\MSVC\14.44.35207\include\xmemory
; File C:\Program Files\Microsoft Visual Studio\2022\Community\VC\Tools\MSVC\14.44.35207\include\xtree
; File C:\Program Files\Microsoft Visual Studio\2022\Community\VC\Tools\MSVC\14.44.35207\include\xmemory
; File C:\Program Files\Microsoft Visual Studio\2022\Community\VC\Tools\MSVC\14.44.35207\include\xtree
; File C:\Program Files\Microsoft Visual Studio\2022\Community\VC\Tools\MSVC\14.44.35207\include\xstring
; File D:\_m2work\Server Client TMP4\ClientVS22\source\UserInterface\MarkManager.cpp
; File C:\Program Files\Microsoft Visual Studio\2022\Community\VC\Tools\MSVC\14.44.35207\include\xstring
; File D:\_m2work\Server Client TMP4\ClientVS22\source\UserInterface\MarkManager.cpp
; File C:\Program Files\Microsoft Visual Studio\2022\Community\VC\Tools\MSVC\14.44.35207\include\xstring
; File C:\Program Files\Microsoft Visual Studio\2022\Community\VC\Tools\MSVC\14.44.35207\include\xmemory
; File C:\Program Files\Microsoft Visual Studio\2022\Community\VC\Tools\MSVC\14.44.35207\include\xstring
; File C:\Program Files\Microsoft Visual Studio\2022\Community\VC\Tools\MSVC\14.44.35207\include\xmemory
; File D:\_m2work\Server Client TMP4\ClientVS22\source\UserInterface\MarkManager.cpp
; File C:\Program Files\Microsoft Visual Studio\2022\Community\VC\Tools\MSVC\14.44.35207\include\xtree
; File C:\Program Files\Microsoft Visual Studio\2022\Community\VC\Tools\MSVC\14.44.35207\include\xmemory
; File D:\_m2work\Server Client TMP4\ClientVS22\source\UserInterface\MarkManager.cpp
;	COMDAT ?__GetImage@CGuildMarkManager@@AAEPAVCGuildMarkImage@@K@Z
_TEXT	SEGMENT
$T2 = -80						; size = 12
__Loc$3 = -68						; size = 12
__Loc$4 = -68						; size = 12
$T5 = -56						; size = 8
$T6 = -56						; size = 8
$T7 = -48						; size = 4
_imagePath$8 = -44					; size = 24
__$ArrayPad$ = -20					; size = 4
__$EHRec$ = -12						; size = 12
_imgIdx$ = 8						; size = 4
?__GetImage@CGuildMarkManager@@AAEPAVCGuildMarkImage@@K@Z PROC ; CGuildMarkManager::__GetImage, COMDAT
; _this$ = ecx

; 133  : {

  00000	53		 push	 ebx
  00001	8b dc		 mov	 ebx, esp
  00003	83 ec 08	 sub	 esp, 8
  00006	83 e4 f8	 and	 esp, -8			; fffffff8H
  00009	83 c4 04	 add	 esp, 4
  0000c	55		 push	 ebp
  0000d	8b 6b 04	 mov	 ebp, DWORD PTR [ebx+4]
  00010	89 6c 24 04	 mov	 DWORD PTR [esp+4], ebp
  00014	8b ec		 mov	 ebp, esp
  00016	6a ff		 push	 -1
  00018	68 00 00 00 00	 push	 __ehhandler$?__GetImage@CGuildMarkManager@@AAEPAVCGuildMarkImage@@K@Z
  0001d	64 a1 00 00 00
	00		 mov	 eax, DWORD PTR fs:0
  00023	50		 push	 eax
  00024	53		 push	 ebx
  00025	83 ec 40	 sub	 esp, 64			; 00000040H
  00028	a1 00 00 00 00	 mov	 eax, DWORD PTR ___security_cookie
  0002d	33 c5		 xor	 eax, ebp
  0002f	89 45 ec	 mov	 DWORD PTR __$ArrayPad$[ebp], eax
  00032	56		 push	 esi
  00033	57		 push	 edi
  00034	50		 push	 eax
  00035	8d 45 f4	 lea	 eax, DWORD PTR __$EHRec$[ebp]
  00038	64 a3 00 00 00
	00		 mov	 DWORD PTR fs:0, eax
  0003e	8b f1		 mov	 esi, ecx
; File C:\Program Files\Microsoft Visual Studio\2022\Community\VC\Tools\MSVC\14.44.35207\include\xtree

; 1384 :         const _Tree_find_result<_Nodeptr> _Loc = _Find_lower_bound(_Keyval);

  00040	8d 43 08	 lea	 eax, DWORD PTR _imgIdx$[ebx]
  00043	50		 push	 eax
  00044	8d 45 bc	 lea	 eax, DWORD PTR __Loc$3[ebp]
; File D:\_m2work\Server Client TMP4\ClientVS22\source\UserInterface\MarkManager.cpp

; 134  : 	std::map<DWORD, CGuildMarkImage *>::iterator it = m_mapIdx_Image.find(imgIdx);

  00047	8d 7e 04	 lea	 edi, DWORD PTR [esi+4]
; File C:\Program Files\Microsoft Visual Studio\2022\Community\VC\Tools\MSVC\14.44.35207\include\xtree

; 1384 :         const _Tree_find_result<_Nodeptr> _Loc = _Find_lower_bound(_Keyval);

  0004a	50		 push	 eax
  0004b	8b cf		 mov	 ecx, edi
  0004d	e8 00 00 00 00	 call	 ??$_Find_lower_bound@K@?$_Tree@V?$_Tmap_traits@KPAVCGuildMarkImage@@U?$less@K@std@@V?$allocator@U?$pair@$$CBKPAVCGuildMarkImage@@@std@@@3@$0A@@std@@@std@@IBE?AU?$_Tree_find_result@PAU?$_Tree_node@U?$pair@$$CBKPAVCGuildMarkImage@@@std@@PAX@std@@@1@ABK@Z ; std::_Tree<std::_Tmap_traits<unsigned long,CGuildMarkImage *,std::less<unsigned long>,std::allocator<std::pair<unsigned long const ,CGuildMarkImage *> >,0> >::_Find_lower_bound<unsigned long>

; 1624 :         return !_Bound->_Isnil && !_DEBUG_LT_PRED(_Getcomp(), _Keyval, _Traits::_Kfn(_Bound->_Myval));

  00052	8b 45 c4	 mov	 eax, DWORD PTR __Loc$3[ebp+8]
  00055	8b 4b 08	 mov	 ecx, DWORD PTR _imgIdx$[ebx]
  00058	80 78 0d 00	 cmp	 BYTE PTR [eax+13], 0
  0005c	75 05		 jne	 SHORT $LN12@GetImage
; File C:\Program Files\Microsoft Visual Studio\2022\Community\VC\Tools\MSVC\14.44.35207\include\type_traits

; 2380 :         return _Left < _Right;

  0005e	3b 48 10	 cmp	 ecx, DWORD PTR [eax+16]
; File C:\Program Files\Microsoft Visual Studio\2022\Community\VC\Tools\MSVC\14.44.35207\include\xtree

; 1624 :         return !_Bound->_Isnil && !_DEBUG_LT_PRED(_Getcomp(), _Keyval, _Traits::_Kfn(_Bound->_Myval));

  00061	73 02		 jae	 SHORT $LN11@GetImage
$LN12@GetImage:

; 1389 :         return _Get_scary()->_Myhead;

  00063	8b 07		 mov	 eax, DWORD PTR [edi]
$LN11@GetImage:
; File D:\_m2work\Server Client TMP4\ClientVS22\source\UserInterface\MarkManager.cpp

; 137  : 	{

  00065	3b 07		 cmp	 eax, DWORD PTR [edi]
  00067	0f 85 11 01 00
	00		 jne	 $LN2@GetImage
  0006d	0f 57 c0	 xorps	 xmm0, xmm0
; File C:\Program Files\Microsoft Visual Studio\2022\Community\VC\Tools\MSVC\14.44.35207\include\xstring

; 860  :         _My_data._Mysize = 0;

  00070	c7 45 e4 00 00
	00 00		 mov	 DWORD PTR _imagePath$8[ebp+16], 0

; 493  :         _CONSTEXPR20 _Bxty() noexcept : _Buf() {} // user-provided, for fancy pointers

  00077	0f 11 45 d4	 movups	 XMMWORD PTR _imagePath$8[ebp], xmm0

; 861  :         _My_data._Myres  = _Small_string_capacity;

  0007b	c7 45 e8 0f 00
	00 00		 mov	 DWORD PTR _imagePath$8[ebp+20], 15 ; 0000000fH

; 862  :         _My_data._Activate_SSO_buffer();
; 863  : 
; 864  :         // the _Traits::assign is last so the codegen doesn't think the char write can alias this
; 865  :         _Traits::assign(_My_data._Bx._Buf[0], _Elem());

  00082	c6 45 d4 00	 mov	 BYTE PTR _imagePath$8[ebp], 0
; File D:\_m2work\Server Client TMP4\ClientVS22\source\UserInterface\MarkManager.cpp

; 140  : 		if (GetMarkImageFilename(imgIdx, imagePath))

  00086	8d 45 d4	 lea	 eax, DWORD PTR _imagePath$8[ebp]
  00089	c7 45 fc 00 00
	00 00		 mov	 DWORD PTR __$EHRec$[ebp+8], 0
  00090	50		 push	 eax
  00091	51		 push	 ecx
  00092	8b ce		 mov	 ecx, esi
  00094	e8 00 00 00 00	 call	 ?GetMarkImageFilename@CGuildMarkManager@@QBE_NKAAV?$basic_string@DU?$char_traits@D@std@@V?$allocator@D@2@@std@@@Z ; CGuildMarkManager::GetMarkImageFilename
  00099	84 c0		 test	 al, al
  0009b	0f 84 a7 00 00
	00		 je	 $LN4@GetImage

; 142  : 			CGuildMarkImage * pkImage = __NewImage();

  000a1	e8 00 00 00 00	 call	 ?__NewImage@CGuildMarkManager@@AAEPAVCGuildMarkImage@@XZ ; CGuildMarkManager::__NewImage
  000a6	8b f0		 mov	 esi, eax
; File C:\Program Files\Microsoft Visual Studio\2022\Community\VC\Tools\MSVC\14.44.35207\include\xtree

; 1017 :             _Loc                = _Find_lower_bound(_Keyval);

  000a8	8b cf		 mov	 ecx, edi
; File C:\Program Files\Microsoft Visual Studio\2022\Community\VC\Tools\MSVC\14.44.35207\include\utility

; 274  :         : first(_STD forward<_Other1>(_Val1)), second(_STD forward<_Other2>(_Val2)) {

  000aa	8b 43 08	 mov	 eax, DWORD PTR _imgIdx$[ebx]
  000ad	89 45 c8	 mov	 DWORD PTR $T5[ebp], eax
; File C:\Program Files\Microsoft Visual Studio\2022\Community\VC\Tools\MSVC\14.44.35207\include\xtree

; 1017 :             _Loc                = _Find_lower_bound(_Keyval);

  000b0	8d 45 c8	 lea	 eax, DWORD PTR $T5[ebp]
  000b3	50		 push	 eax
  000b4	8d 45 b0	 lea	 eax, DWORD PTR $T2[ebp]
; File D:\_m2work\Server Client TMP4\ClientVS22\source\UserInterface\MarkManager.cpp

; 142  : 			CGuildMarkImage * pkImage = __NewImage();

  000b7	89 75 d0	 mov	 DWORD PTR $T7[ebp], esi
; File C:\Program Files\Microsoft Visual Studio\2022\Community\VC\Tools\MSVC\14.44.35207\include\xtree

; 1017 :             _Loc                = _Find_lower_bound(_Keyval);

  000ba	50		 push	 eax
; File C:\Program Files\Microsoft Visual Studio\2022\Community\VC\Tools\MSVC\14.44.35207\include\utility

; 274  :         : first(_STD forward<_Other1>(_Val1)), second(_STD forward<_Other2>(_Val2)) {

  000bb	89 75 cc	 mov	 DWORD PTR $T5[ebp+4], esi
; File C:\Program Files\Microsoft Visual Studio\2022\Community\VC\Tools\MSVC\14.44.35207\include\xtree

; 1017 :             _Loc                = _Find_lower_bound(_Keyval);

  000be	e8 00 00 00 00	 call	 ??$_Find_lower_bound@K@?$_Tree@V?$_Tmap_traits@KPAVCGuildMarkImage@@U?$less@K@std@@V?$allocator@U?$pair@$$CBKPAVCGuildMarkImage@@@std@@@3@$0A@@std@@@std@@IBE?AU?$_Tree_find_result@PAU?$_Tree_node@U?$pair@$$CBKPAVCGuildMarkImage@@@std@@PAX@std@@@1@ABK@Z ; std::_Tree<std::_Tmap_traits<unsigned long,CGuildMarkImage *,std::less<unsigned long>,std::allocator<std::pair<unsigned long const ,CGuildMarkImage *> >,0> >::_Find_lower_bound<unsigned long>
  000c3	8b 48 08	 mov	 ecx, DWORD PTR [eax+8]
  000c6	f3 0f 7e 00	 movq	 xmm0, QWORD PTR [eax]
  000ca	66 0f d6 45 bc	 movq	 QWORD PTR __Loc$4[ebp], xmm0

; 1624 :         return !_Bound->_Isnil && !_DEBUG_LT_PRED(_Getcomp(), _Keyval, _Traits::_Kfn(_Bound->_Myval));

  000cf	80 79 0d 00	 cmp	 BYTE PTR [ecx+13], 0
  000d3	75 08		 jne	 SHORT $LN76@GetImage
; File C:\Program Files\Microsoft Visual Studio\2022\Community\VC\Tools\MSVC\14.44.35207\include\type_traits

; 2380 :         return _Left < _Right;

  000d5	8b 43 08	 mov	 eax, DWORD PTR _imgIdx$[ebx]
  000d8	3b 41 10	 cmp	 eax, DWORD PTR [ecx+16]
; File C:\Program Files\Microsoft Visual Studio\2022\Community\VC\Tools\MSVC\14.44.35207\include\xtree

; 1624 :         return !_Bound->_Isnil && !_DEBUG_LT_PRED(_Getcomp(), _Keyval, _Traits::_Kfn(_Bound->_Myval));

  000db	73 56		 jae	 SHORT $LN155@GetImage
$LN76@GetImage:

; 1648 :         if (max_size() == _Get_scary()->_Mysize) {

  000dd	81 7f 04 aa aa
	aa 0a		 cmp	 DWORD PTR [edi+4], 178956970 ; 0aaaaaaaH
  000e4	0f 84 b7 00 00
	00		 je	 $LN266@GetImage

; 1023 :             _Inserted = _Tree_temp_node<_Alnode>(_Getal(), _Scary->_Myhead, _STD forward<_Valtys>(_Vals)...)._Release();

  000ea	8b 37		 mov	 esi, DWORD PTR [edi]
; File C:\Program Files\Microsoft Visual Studio\2022\Community\VC\Tools\MSVC\14.44.35207\include\xmemory

; 1160 :     _CONSTEXPR20 explicit _Alloc_construct_ptr(_Alloc& _Al_) : _Al(_Al_), _Ptr(nullptr) {}

  000ec	89 7d c8	 mov	 DWORD PTR $T6[ebp], edi
; File C:\Program Files\Microsoft Visual Studio\2022\Community\VC\Tools\MSVC\14.44.35207\include\xtree

; 808  :     explicit _Tree_temp_node_alloc(_Alnode& _Al_) : _Alloc_construct_ptr<_Alnode>(_Al_) {

  000ef	c6 45 fc 01	 mov	 BYTE PTR __$EHRec$[ebp+8], 1
; File C:\Program Files\Microsoft Visual Studio\2022\Community\VC\Tools\MSVC\14.44.35207\include\xmemory

; 136  :         return ::operator new(_Bytes);

  000f3	6a 18		 push	 24			; 00000018H

; 1167 :         _Ptr = nullptr; // if allocate throws, prevents double-free

  000f5	c7 45 cc 00 00
	00 00		 mov	 DWORD PTR $T6[ebp+4], 0

; 136  :         return ::operator new(_Bytes);

  000fc	e8 00 00 00 00	 call	 ??2@YAPAXI@Z		; operator new
; File C:\Program Files\Microsoft Visual Studio\2022\Community\VC\Tools\MSVC\14.44.35207\include\xtree

; 810  :     }

  00101	c6 45 fc 00	 mov	 BYTE PTR __$EHRec$[ebp+8], 0
; File C:\Program Files\Microsoft Visual Studio\2022\Community\VC\Tools\MSVC\14.44.35207\include\xmemory

; 136  :         return ::operator new(_Bytes);

  00105	83 c4 04	 add	 esp, 4
; File C:\Program Files\Microsoft Visual Studio\2022\Community\VC\Tools\MSVC\14.44.35207\include\xtree

; 830  :         _Alnode_traits::construct(this->_Al, _STD addressof(this->_Ptr->_Myval), _STD forward<_Valtys>(_Vals)...);

  00108	8b 4b 08	 mov	 ecx, DWORD PTR _imgIdx$[ebx]
  0010b	89 48 10	 mov	 DWORD PTR [eax+16], ecx
  0010e	8b 4d d0	 mov	 ecx, DWORD PTR $T7[ebp]
  00111	89 48 14	 mov	 DWORD PTR [eax+20], ecx

; 1042 :         return {_Scary->_Insert_node(_Loc._Location, _Inserted), true};

  00114	8b cf		 mov	 ecx, edi
  00116	50		 push	 eax
  00117	ff 75 c0	 push	 DWORD PTR __Loc$4[ebp+4]

; 831  :         _Construct_in_place(this->_Ptr->_Left, _Myhead);

  0011a	89 30		 mov	 DWORD PTR [eax], esi

; 1042 :         return {_Scary->_Insert_node(_Loc._Location, _Inserted), true};

  0011c	ff 75 bc	 push	 DWORD PTR __Loc$4[ebp]

; 832  :         _Construct_in_place(this->_Ptr->_Parent, _Myhead);

  0011f	89 70 04	 mov	 DWORD PTR [eax+4], esi

; 833  :         _Construct_in_place(this->_Ptr->_Right, _Myhead);

  00122	89 70 08	 mov	 DWORD PTR [eax+8], esi

; 834  :         this->_Ptr->_Color = _Red;

  00125	66 c7 40 0c 00
	00		 mov	 WORD PTR [eax+12], 0

; 1042 :         return {_Scary->_Insert_node(_Loc._Location, _Inserted), true};

  0012b	e8 00 00 00 00	 call	 ?_Insert_node@?$_Tree_val@U?$_Tree_simple_types@U?$pair@$$CBKPAVCGuildMarkImage@@@std@@@std@@@std@@QAEPAU?$_Tree_node@U?$pair@$$CBKPAVCGuildMarkImage@@@std@@PAX@2@U?$_Tree_id@PAU?$_Tree_node@U?$pair@$$CBKPAVCGuildMarkImage@@@std@@PAX@std@@@2@QAU32@@Z ; std::_Tree_val<std::_Tree_simple_types<std::pair<unsigned long const ,CGuildMarkImage *> > >::_Insert_node
  00130	8b 75 d0	 mov	 esi, DWORD PTR $T7[ebp]
$LN155@GetImage:
; File C:\Program Files\Microsoft Visual Studio\2022\Community\VC\Tools\MSVC\14.44.35207\include\xstring

; 453  :         return _Myres > _Small_string_capacity;

  00133	83 7d e8 0f	 cmp	 DWORD PTR _imagePath$8[ebp+20], 15 ; 0000000fH

; 444  :         const value_type* _Result = _Bx._Buf;

  00137	8d 45 d4	 lea	 eax, DWORD PTR _imagePath$8[ebp]
; File D:\_m2work\Server Client TMP4\ClientVS22\source\UserInterface\MarkManager.cpp

; 144  : 			pkImage->Load(imagePath.c_str());

  0013a	8b ce		 mov	 ecx, esi
; File C:\Program Files\Microsoft Visual Studio\2022\Community\VC\Tools\MSVC\14.44.35207\include\xstring

; 445  :         if (_Large_mode_engaged()) {

  0013c	0f 47 45 d4	 cmova	 eax, DWORD PTR _imagePath$8[ebp]
; File D:\_m2work\Server Client TMP4\ClientVS22\source\UserInterface\MarkManager.cpp

; 144  : 			pkImage->Load(imagePath.c_str());

  00140	50		 push	 eax
  00141	e8 00 00 00 00	 call	 ?Load@CGuildMarkImage@@QAE_NPBD@Z ; CGuildMarkImage::Load
  00146	eb 02		 jmp	 SHORT $LN8@GetImage
$LN4@GetImage:

; 148  : 			return NULL;

  00148	33 f6		 xor	 esi, esi
$LN8@GetImage:
; File C:\Program Files\Microsoft Visual Studio\2022\Community\VC\Tools\MSVC\14.44.35207\include\xstring

; 453  :         return _Myres > _Small_string_capacity;

  0014a	8b 4d e8	 mov	 ecx, DWORD PTR _imagePath$8[ebp+20]
  0014d	83 f9 0f	 cmp	 ecx, 15			; 0000000fH

; 3083 :         if (_My_data._Large_mode_engaged()) {

  00150	76 28		 jbe	 SHORT $LN218@GetImage
; File C:\Program Files\Microsoft Visual Studio\2022\Community\VC\Tools\MSVC\14.44.35207\include\xmemory

; 985  :         _STD _Deallocate<_New_alignof<_Ty>>(_Ptr, sizeof(_Ty) * _Count);

  00152	8b 55 d4	 mov	 edx, DWORD PTR _imagePath$8[ebp]
; File C:\Program Files\Microsoft Visual Studio\2022\Community\VC\Tools\MSVC\14.44.35207\include\xstring

; 852  :         _Al.deallocate(_Old_ptr, _Capacity + 1); // +1 for null terminator

  00155	41		 inc	 ecx
; File C:\Program Files\Microsoft Visual Studio\2022\Community\VC\Tools\MSVC\14.44.35207\include\xmemory

; 985  :         _STD _Deallocate<_New_alignof<_Ty>>(_Ptr, sizeof(_Ty) * _Count);

  00156	8b c2		 mov	 eax, edx

; 284  :         if (_Bytes >= _Big_allocation_threshold) {

  00158	81 f9 00 10 00
	00		 cmp	 ecx, 4096		; 00001000H
  0015e	72 10		 jb	 SHORT $LN226@GetImage

; 205  :     const uintptr_t _Ptr_container   = _Ptr_user[-1];

  00160	8b 50 fc	 mov	 edx, DWORD PTR [eax-4]
  00163	83 c1 23	 add	 ecx, 35			; 00000023H
  00166	2b c2		 sub	 eax, edx

; 219  :     _STL_VERIFY(_Back_shift >= _Min_back_shift && _Back_shift <= _Non_user_size, "invalid argument");

  00168	83 c0 fc	 add	 eax, -4			; fffffffcH
  0016b	83 f8 1f	 cmp	 eax, 31			; 0000001fH
  0016e	77 36		 ja	 SHORT $LN267@GetImage
$LN226@GetImage:

; 289  :         ::operator delete(_Ptr, _Bytes);

  00170	51		 push	 ecx
  00171	52		 push	 edx
  00172	e8 00 00 00 00	 call	 ??3@YAXPAXI@Z		; operator delete
  00177	83 c4 08	 add	 esp, 8
$LN218@GetImage:
; File D:\_m2work\Server Client TMP4\ClientVS22\source\UserInterface\MarkManager.cpp

; 148  : 			return NULL;

  0017a	8b c6		 mov	 eax, esi
  0017c	eb 03		 jmp	 SHORT $LN3@GetImage
$LN2@GetImage:

; 149  : 	}
; 150  : 	else
; 151  : 		return it->second;

  0017e	8b 40 14	 mov	 eax, DWORD PTR [eax+20]
$LN3@GetImage:

; 152  : }

  00181	8b 4d f4	 mov	 ecx, DWORD PTR __$EHRec$[ebp]
  00184	64 89 0d 00 00
	00 00		 mov	 DWORD PTR fs:0, ecx
  0018b	59		 pop	 ecx
  0018c	5f		 pop	 edi
  0018d	5e		 pop	 esi
  0018e	8b 4d ec	 mov	 ecx, DWORD PTR __$ArrayPad$[ebp]
  00191	33 cd		 xor	 ecx, ebp
  00193	e8 00 00 00 00	 call	 @__security_check_cookie@4
  00198	8b e5		 mov	 esp, ebp
  0019a	5d		 pop	 ebp
  0019b	8b e3		 mov	 esp, ebx
  0019d	5b		 pop	 ebx
  0019e	c2 04 00	 ret	 4
$LN266@GetImage:
; File C:\Program Files\Microsoft Visual Studio\2022\Community\VC\Tools\MSVC\14.44.35207\include\xtree

; 1649 :             _Throw_tree_length_error();

  001a1	e8 00 00 00 00	 call	 ?_Throw_tree_length_error@std@@YAXXZ ; std::_Throw_tree_length_error
$LN267@GetImage:
; File C:\Program Files\Microsoft Visual Studio\2022\Community\VC\Tools\MSVC\14.44.35207\include\xmemory

; 219  :     _STL_VERIFY(_Back_shift >= _Min_back_shift && _Back_shift <= _Non_user_size, "invalid argument");

  001a6	6a 00		 push	 0
  001a8	6a 00		 push	 0
  001aa	6a 00		 push	 0
  001ac	6a 00		 push	 0
  001ae	6a 00		 push	 0
  001b0	e8 00 00 00 00	 call	 __invoke_watson
$LN264@GetImage:
  001b5	cc		 int	 3
_TEXT	ENDS
;	COMDAT text$x
text$x	SEGMENT
__unwindfunclet$?__GetImage@CGuildMarkManager@@AAEPAVCGuildMarkImage@@K@Z$0:
  00000	8d 4d d4	 lea	 ecx, DWORD PTR _imagePath$8[ebp]
  00003	e9 00 00 00 00	 jmp	 ??1?$basic_string@DU?$char_traits@D@std@@V?$allocator@D@2@@std@@QAE@XZ ; std::basic_string<char,std::char_traits<char>,std::allocator<char> >::~basic_string<char,std::char_traits<char>,std::allocator<char> >
__unwindfunclet$?__GetImage@CGuildMarkManager@@AAEPAVCGuildMarkImage@@K@Z$6:
  00008	8d 4d c8	 lea	 ecx, DWORD PTR $T6[ebp]
  0000b	e9 00 00 00 00	 jmp	 ??1?$_Alloc_construct_ptr@V?$allocator@U?$_Tree_node@U?$pair@$$CBKPAVCGuildMarkImage@@@std@@PAX@std@@@std@@@std@@QAE@XZ ; std::_Alloc_construct_ptr<std::allocator<std::_Tree_node<std::pair<unsigned long const ,CGuildMarkImage *>,void *> > >::~_Alloc_construct_ptr<std::allocator<std::_Tree_node<std::pair<unsigned long const ,CGuildMarkImage *>,void *> > >
  00010	cc		 int	 3
  00011	cc		 int	 3
  00012	cc		 int	 3
  00013	cc		 int	 3
  00014	cc		 int	 3
__ehhandler$?__GetImage@CGuildMarkManager@@AAEPAVCGuildMarkImage@@K@Z:
  00015	90		 npad	 1
  00016	90		 npad	 1
  00017	8b 54 24 08	 mov	 edx, DWORD PTR [esp+8]
  0001b	8d 42 0c	 lea	 eax, DWORD PTR [edx+12]
  0001e	8b 4a b0	 mov	 ecx, DWORD PTR [edx-80]
  00021	33 c8		 xor	 ecx, eax
  00023	e8 00 00 00 00	 call	 @__security_check_cookie@4
  00028	8b 4a f8	 mov	 ecx, DWORD PTR [edx-8]
  0002b	33 c8		 xor	 ecx, eax
  0002d	e8 00 00 00 00	 call	 @__security_check_cookie@4
  00032	b8 00 00 00 00	 mov	 eax, OFFSET __ehfuncinfo$?__GetImage@CGuildMarkManager@@AAEPAVCGuildMarkImage@@K@Z
  00037	e9 00 00 00 00	 jmp	 ___CxxFrameHandler3
text$x	ENDS
?__GetImage@CGuildMarkManager@@AAEPAVCGuildMarkImage@@K@Z ENDP ; CGuildMarkManager::__GetImage
; Function compile flags: /Ogtp
; File D:\_m2work\Server Client TMP4\ClientVS22\source\UserInterface\MarkManager.cpp
; File C:\Program Files\Microsoft Visual Studio\2022\Community\VC\Tools\MSVC\14.44.35207\include\xtree
; File D:\_m2work\Server Client TMP4\ClientVS22\source\UserInterface\MarkManager.cpp
; File C:\Program Files\Microsoft Visual Studio\2022\Community\VC\Tools\MSVC\14.44.35207\include\xtree
; File C:\Program Files\Microsoft Visual Studio\2022\Community\VC\Tools\MSVC\14.44.35207\include\type_traits
; File C:\Program Files\Microsoft Visual Studio\2022\Community\VC\Tools\MSVC\14.44.35207\include\xtree
; File D:\_m2work\Server Client TMP4\ClientVS22\source\UserInterface\MarkManager.cpp
;	COMDAT ?GetMarkID@CGuildMarkManager@@QAEKK@Z
_TEXT	SEGMENT
__Loc$1 = -12						; size = 12
_guildID$ = 8						; size = 4
?GetMarkID@CGuildMarkManager@@QAEKK@Z PROC		; CGuildMarkManager::GetMarkID, COMDAT
; _this$ = ecx

; 166  : {

  00000	55		 push	 ebp
  00001	8b ec		 mov	 ebp, esp
  00003	83 ec 0c	 sub	 esp, 12			; 0000000cH
  00006	56		 push	 esi
; File C:\Program Files\Microsoft Visual Studio\2022\Community\VC\Tools\MSVC\14.44.35207\include\xtree

; 1384 :         const _Tree_find_result<_Nodeptr> _Loc = _Find_lower_bound(_Keyval);

  00007	8d 45 08	 lea	 eax, DWORD PTR _guildID$[ebp]
  0000a	50		 push	 eax
; File D:\_m2work\Server Client TMP4\ClientVS22\source\UserInterface\MarkManager.cpp

; 167  : 	std::map<DWORD, DWORD>::iterator it = m_mapGID_MarkID.find(guildID);

  0000b	8d 71 0c	 lea	 esi, DWORD PTR [ecx+12]
; File C:\Program Files\Microsoft Visual Studio\2022\Community\VC\Tools\MSVC\14.44.35207\include\xtree

; 1384 :         const _Tree_find_result<_Nodeptr> _Loc = _Find_lower_bound(_Keyval);

  0000e	8d 45 f4	 lea	 eax, DWORD PTR __Loc$1[ebp]
  00011	8b ce		 mov	 ecx, esi
  00013	50		 push	 eax
  00014	e8 00 00 00 00	 call	 ??$_Find_lower_bound@K@?$_Tree@V?$_Tmap_traits@KKU?$less@K@std@@V?$allocator@U?$pair@$$CBKK@std@@@2@$0A@@std@@@std@@IBE?AU?$_Tree_find_result@PAU?$_Tree_node@U?$pair@$$CBKK@std@@PAX@std@@@1@ABK@Z ; std::_Tree<std::_Tmap_traits<unsigned long,unsigned long,std::less<unsigned long>,std::allocator<std::pair<unsigned long const ,unsigned long> >,0> >::_Find_lower_bound<unsigned long>

; 1624 :         return !_Bound->_Isnil && !_DEBUG_LT_PRED(_Getcomp(), _Keyval, _Traits::_Kfn(_Bound->_Myval));

  00019	8b 45 fc	 mov	 eax, DWORD PTR __Loc$1[ebp+8]
  0001c	80 78 0d 00	 cmp	 BYTE PTR [eax+13], 0
  00020	75 16		 jne	 SHORT $LN50@GetMarkID
; File C:\Program Files\Microsoft Visual Studio\2022\Community\VC\Tools\MSVC\14.44.35207\include\type_traits

; 2380 :         return _Left < _Right;

  00022	8b 4d 08	 mov	 ecx, DWORD PTR _guildID$[ebp]
  00025	3b 48 10	 cmp	 ecx, DWORD PTR [eax+16]
; File C:\Program Files\Microsoft Visual Studio\2022\Community\VC\Tools\MSVC\14.44.35207\include\xtree

; 1624 :         return !_Bound->_Isnil && !_DEBUG_LT_PRED(_Getcomp(), _Keyval, _Traits::_Kfn(_Bound->_Myval));

  00028	72 0e		 jb	 SHORT $LN50@GetMarkID

; 37   :     _Tree_unchecked_const_iterator(_Nodeptr _Pnode, const _Mytree* _Plist) noexcept : _Ptr(_Pnode) {

  0002a	3b 06		 cmp	 eax, DWORD PTR [esi]
; File D:\_m2work\Server Client TMP4\ClientVS22\source\UserInterface\MarkManager.cpp

; 169  : 	if (it == m_mapGID_MarkID.end())

  0002c	74 0a		 je	 SHORT $LN50@GetMarkID

; 171  : 
; 172  : 	return it->second;

  0002e	8b 40 14	 mov	 eax, DWORD PTR [eax+20]
  00031	5e		 pop	 esi

; 173  : }

  00032	8b e5		 mov	 esp, ebp
  00034	5d		 pop	 ebp
  00035	c2 04 00	 ret	 4
$LN50@GetMarkID:

; 170  : 		return INVALID_MARK_ID;

  00038	83 c8 ff	 or	 eax, -1
  0003b	5e		 pop	 esi

; 173  : }

  0003c	8b e5		 mov	 esp, ebp
  0003e	5d		 pop	 ebp
  0003f	c2 04 00	 ret	 4
?GetMarkID@CGuildMarkManager@@QAEKK@Z ENDP		; CGuildMarkManager::GetMarkID
_TEXT	ENDS
; Function compile flags: /Ogtp
; File C:\Program Files\Microsoft Visual Studio\2022\Community\VC\Tools\MSVC\14.44.35207\include\vector
;	COMDAT ??1TGuildSymbol@CGuildMarkManager@@QAE@XZ
_TEXT	SEGMENT
??1TGuildSymbol@CGuildMarkManager@@QAE@XZ PROC		; CGuildMarkManager::TGuildSymbol::~TGuildSymbol, COMDAT
; _this$ = ecx
  00000	83 c1 04	 add	 ecx, 4

; 830  :         _Tidy();

  00003	e9 00 00 00 00	 jmp	 ?_Tidy@?$vector@EV?$allocator@E@std@@@std@@AAEXXZ ; std::vector<unsigned char,std::allocator<unsigned char> >::_Tidy
??1TGuildSymbol@CGuildMarkManager@@QAE@XZ ENDP		; CGuildMarkManager::TGuildSymbol::~TGuildSymbol
_TEXT	ENDS
; Function compile flags: /Ogtp
; File C:\Program Files\Microsoft Visual Studio\2022\Community\VC\Tools\MSVC\14.44.35207\include\utility
;	COMDAT ??$?0AAKAAPAVCGuildMarkImage@@$0A@@?$pair@$$CBKPAVCGuildMarkImage@@@std@@QAE@AAKAAPAVCGuildMarkImage@@@Z
_TEXT	SEGMENT
__Val1$ = 8						; size = 4
__Val2$ = 12						; size = 4
??$?0AAKAAPAVCGuildMarkImage@@$0A@@?$pair@$$CBKPAVCGuildMarkImage@@@std@@QAE@AAKAAPAVCGuildMarkImage@@@Z PROC ; std::pair<unsigned long const ,CGuildMarkImage *>::pair<unsigned long const ,CGuildMarkImage *><unsigned long &,CGuildMarkImage * &,0>, COMDAT
; _this$ = ecx

; 274  :         : first(_STD forward<_Other1>(_Val1)), second(_STD forward<_Other2>(_Val2)) {

  00000	55		 push	 ebp
  00001	8b ec		 mov	 ebp, esp
  00003	8b 45 08	 mov	 eax, DWORD PTR __Val1$[ebp]
  00006	8b 00		 mov	 eax, DWORD PTR [eax]
  00008	89 01		 mov	 DWORD PTR [ecx], eax
  0000a	8b 45 0c	 mov	 eax, DWORD PTR __Val2$[ebp]
  0000d	8b 00		 mov	 eax, DWORD PTR [eax]
  0000f	89 41 04	 mov	 DWORD PTR [ecx+4], eax

; 275  :     }

  00012	8b c1		 mov	 eax, ecx
  00014	5d		 pop	 ebp
  00015	c2 08 00	 ret	 8
??$?0AAKAAPAVCGuildMarkImage@@$0A@@?$pair@$$CBKPAVCGuildMarkImage@@@std@@QAE@AAKAAPAVCGuildMarkImage@@@Z ENDP ; std::pair<unsigned long const ,CGuildMarkImage *>::pair<unsigned long const ,CGuildMarkImage *><unsigned long &,CGuildMarkImage * &,0>
_TEXT	ENDS
; Function compile flags: /Ogtp
; File C:\Program Files\Microsoft Visual Studio\2022\Community\VC\Tools\MSVC\14.44.35207\include\xtree
; File C:\Program Files\Microsoft Visual Studio\2022\Community\VC\Tools\MSVC\14.44.35207\include\type_traits
; File C:\Program Files\Microsoft Visual Studio\2022\Community\VC\Tools\MSVC\14.44.35207\include\xtree
; File C:\Program Files\Microsoft Visual Studio\2022\Community\VC\Tools\MSVC\14.44.35207\include\utility
; File C:\Program Files\Microsoft Visual Studio\2022\Community\VC\Tools\MSVC\14.44.35207\include\xtree
; File C:\Program Files\Microsoft Visual Studio\2022\Community\VC\Tools\MSVC\14.44.35207\include\xmemory
; File C:\Program Files\Microsoft Visual Studio\2022\Community\VC\Tools\MSVC\14.44.35207\include\xtree
; File C:\Program Files\Microsoft Visual Studio\2022\Community\VC\Tools\MSVC\14.44.35207\include\xmemory
; File C:\Program Files\Microsoft Visual Studio\2022\Community\VC\Tools\MSVC\14.44.35207\include\xtree
; File C:\Program Files\Microsoft Visual Studio\2022\Community\VC\Tools\MSVC\14.44.35207\include\xmemory
; File C:\Program Files\Microsoft Visual Studio\2022\Community\VC\Tools\MSVC\14.44.35207\include\xtree
; File C:\Program Files\Microsoft Visual Studio\2022\Community\VC\Tools\MSVC\14.44.35207\include\utility
; File C:\Program Files\Microsoft Visual Studio\2022\Community\VC\Tools\MSVC\14.44.35207\include\xtree
;	COMDAT ??$insert@$0A@$0A@@?$_Tree@V?$_Tmap_traits@KPAVCGuildMarkImage@@U?$less@K@std@@V?$allocator@U?$pair@$$CBKPAVCGuildMarkImage@@@std@@@3@$0A@@std@@@std@@QAE?AU?$pair@V?$_Tree_iterator@V?$_Tree_val@U?$_Tree_simple_types@U?$pair@$$CBKPAVCGuildMarkImage@@@std@@@std@@@std@@@std@@_N@1@$$QAU?$pair@$$CBKPAVCGuildMarkImage@@@1@@Z
_TEXT	SEGMENT
__Loc$2 = -36						; size = 12
$T3 = -24						; size = 12
$T4 = -20						; size = 8
__$EHRec$ = -12						; size = 12
___$ReturnUdt$ = 8					; size = 4
__Val$ = 12						; size = 4
??$insert@$0A@$0A@@?$_Tree@V?$_Tmap_traits@KPAVCGuildMarkImage@@U?$less@K@std@@V?$allocator@U?$pair@$$CBKPAVCGuildMarkImage@@@std@@@3@$0A@@std@@@std@@QAE?AU?$pair@V?$_Tree_iterator@V?$_Tree_val@U?$_Tree_simple_types@U?$pair@$$CBKPAVCGuildMarkImage@@@std@@@std@@@std@@@std@@_N@1@$$QAU?$pair@$$CBKPAVCGuildMarkImage@@@1@@Z PROC ; std::_Tree<std::_Tmap_traits<unsigned long,CGuildMarkImage *,std::less<unsigned long>,std::allocator<std::pair<unsigned long const ,CGuildMarkImage *> >,0> >::insert<0,0>, COMDAT
; _this$ = ecx

; 1245 :     pair<iterator, bool> insert(value_type&& _Val) {

  00000	55		 push	 ebp
  00001	8b ec		 mov	 ebp, esp
  00003	6a ff		 push	 -1
  00005	68 00 00 00 00	 push	 __ehhandler$??$insert@$0A@$0A@@?$_Tree@V?$_Tmap_traits@KPAVCGuildMarkImage@@U?$less@K@std@@V?$allocator@U?$pair@$$CBKPAVCGuildMarkImage@@@std@@@3@$0A@@std@@@std@@QAE?AU?$pair@V?$_Tree_iterator@V?$_Tree_val@U?$_Tree_simple_types@U?$pair@$$CBKPAVCGuildMarkImage@@@std@@@std@@@std@@@std@@_N@1@$$QAU?$pair@$$CBKPAVCGuildMarkImage@@@1@@Z
  0000a	64 a1 00 00 00
	00		 mov	 eax, DWORD PTR fs:0
  00010	50		 push	 eax
  00011	83 ec 1c	 sub	 esp, 28			; 0000001cH
  00014	53		 push	 ebx
  00015	56		 push	 esi
  00016	57		 push	 edi
  00017	a1 00 00 00 00	 mov	 eax, DWORD PTR ___security_cookie
  0001c	33 c5		 xor	 eax, ebp
  0001e	50		 push	 eax
  0001f	8d 45 f4	 lea	 eax, DWORD PTR __$EHRec$[ebp]
  00022	64 a3 00 00 00
	00		 mov	 DWORD PTR fs:0, eax
  00028	8b f9		 mov	 edi, ecx

; 1017 :             _Loc                = _Find_lower_bound(_Keyval);

  0002a	8b 5d 0c	 mov	 ebx, DWORD PTR __Val$[ebp]
  0002d	8d 45 e8	 lea	 eax, DWORD PTR $T3[ebp]
  00030	53		 push	 ebx
  00031	50		 push	 eax
  00032	e8 00 00 00 00	 call	 ??$_Find_lower_bound@K@?$_Tree@V?$_Tmap_traits@KPAVCGuildMarkImage@@U?$less@K@std@@V?$allocator@U?$pair@$$CBKPAVCGuildMarkImage@@@std@@@3@$0A@@std@@@std@@IBE?AU?$_Tree_find_result@PAU?$_Tree_node@U?$pair@$$CBKPAVCGuildMarkImage@@@std@@PAX@std@@@1@ABK@Z ; std::_Tree<std::_Tmap_traits<unsigned long,CGuildMarkImage *,std::less<unsigned long>,std::allocator<std::pair<unsigned long const ,CGuildMarkImage *> >,0> >::_Find_lower_bound<unsigned long>
  00037	8b 48 08	 mov	 ecx, DWORD PTR [eax+8]
  0003a	f3 0f 7e 00	 movq	 xmm0, QWORD PTR [eax]
  0003e	66 0f d6 45 dc	 movq	 QWORD PTR __Loc$2[ebp], xmm0

; 1624 :         return !_Bound->_Isnil && !_DEBUG_LT_PRED(_Getcomp(), _Keyval, _Traits::_Kfn(_Bound->_Myval));

  00043	80 79 0d 00	 cmp	 BYTE PTR [ecx+13], 0
  00047	75 0b		 jne	 SHORT $LN4@insert
; File C:\Program Files\Microsoft Visual Studio\2022\Community\VC\Tools\MSVC\14.44.35207\include\type_traits

; 2380 :         return _Left < _Right;

  00049	8b 03		 mov	 eax, DWORD PTR [ebx]
  0004b	3b 41 10	 cmp	 eax, DWORD PTR [ecx+16]
; File C:\Program Files\Microsoft Visual Studio\2022\Community\VC\Tools\MSVC\14.44.35207\include\xtree

; 1624 :         return !_Bound->_Isnil && !_DEBUG_LT_PRED(_Getcomp(), _Keyval, _Traits::_Kfn(_Bound->_Myval));

  0004e	72 04		 jb	 SHORT $LN4@insert
; File C:\Program Files\Microsoft Visual Studio\2022\Community\VC\Tools\MSVC\14.44.35207\include\utility

; 274  :         : first(_STD forward<_Other1>(_Val1)), second(_STD forward<_Other2>(_Val2)) {

  00050	32 d2		 xor	 dl, dl
; File C:\Program Files\Microsoft Visual Studio\2022\Community\VC\Tools\MSVC\14.44.35207\include\xtree

; 1019 :                 return {_Loc._Bound, false};

  00052	eb 51		 jmp	 SHORT $LN88@insert
$LN4@insert:

; 1648 :         if (max_size() == _Get_scary()->_Mysize) {

  00054	81 7f 04 aa aa
	aa 0a		 cmp	 DWORD PTR [edi+4], 178956970 ; 0aaaaaaaH
  0005b	74 64		 je	 SHORT $LN107@insert

; 1023 :             _Inserted = _Tree_temp_node<_Alnode>(_Getal(), _Scary->_Myhead, _STD forward<_Valtys>(_Vals)...)._Release();

  0005d	8b 37		 mov	 esi, DWORD PTR [edi]
; File C:\Program Files\Microsoft Visual Studio\2022\Community\VC\Tools\MSVC\14.44.35207\include\xmemory

; 1160 :     _CONSTEXPR20 explicit _Alloc_construct_ptr(_Alloc& _Al_) : _Al(_Al_), _Ptr(nullptr) {}

  0005f	89 7d ec	 mov	 DWORD PTR $T4[ebp], edi
; File C:\Program Files\Microsoft Visual Studio\2022\Community\VC\Tools\MSVC\14.44.35207\include\xtree

; 808  :     explicit _Tree_temp_node_alloc(_Alnode& _Al_) : _Alloc_construct_ptr<_Alnode>(_Al_) {

  00062	c7 45 fc 00 00
	00 00		 mov	 DWORD PTR __$EHRec$[ebp+8], 0
; File C:\Program Files\Microsoft Visual Studio\2022\Community\VC\Tools\MSVC\14.44.35207\include\xmemory

; 136  :         return ::operator new(_Bytes);

  00069	6a 18		 push	 24			; 00000018H

; 1167 :         _Ptr = nullptr; // if allocate throws, prevents double-free

  0006b	c7 45 f0 00 00
	00 00		 mov	 DWORD PTR $T4[ebp+4], 0

; 136  :         return ::operator new(_Bytes);

  00072	e8 00 00 00 00	 call	 ??2@YAPAXI@Z		; operator new
; File C:\Program Files\Microsoft Visual Studio\2022\Community\VC\Tools\MSVC\14.44.35207\include\xtree

; 830  :         _Alnode_traits::construct(this->_Al, _STD addressof(this->_Ptr->_Myval), _STD forward<_Valtys>(_Vals)...);

  00077	8b 0b		 mov	 ecx, DWORD PTR [ebx]
; File C:\Program Files\Microsoft Visual Studio\2022\Community\VC\Tools\MSVC\14.44.35207\include\xmemory

; 136  :         return ::operator new(_Bytes);

  00079	83 c4 04	 add	 esp, 4
; File C:\Program Files\Microsoft Visual Studio\2022\Community\VC\Tools\MSVC\14.44.35207\include\xtree

; 830  :         _Alnode_traits::construct(this->_Al, _STD addressof(this->_Ptr->_Myval), _STD forward<_Valtys>(_Vals)...);

  0007c	8b 53 04	 mov	 edx, DWORD PTR [ebx+4]
  0007f	89 48 10	 mov	 DWORD PTR [eax+16], ecx

; 1042 :         return {_Scary->_Insert_node(_Loc._Location, _Inserted), true};

  00082	8b cf		 mov	 ecx, edi
  00084	50		 push	 eax
  00085	ff 75 e0	 push	 DWORD PTR __Loc$2[ebp+4]

; 830  :         _Alnode_traits::construct(this->_Al, _STD addressof(this->_Ptr->_Myval), _STD forward<_Valtys>(_Vals)...);

  00088	89 50 14	 mov	 DWORD PTR [eax+20], edx

; 1042 :         return {_Scary->_Insert_node(_Loc._Location, _Inserted), true};

  0008b	ff 75 dc	 push	 DWORD PTR __Loc$2[ebp]

; 831  :         _Construct_in_place(this->_Ptr->_Left, _Myhead);

  0008e	89 30		 mov	 DWORD PTR [eax], esi

; 832  :         _Construct_in_place(this->_Ptr->_Parent, _Myhead);

  00090	89 70 04	 mov	 DWORD PTR [eax+4], esi

; 833  :         _Construct_in_place(this->_Ptr->_Right, _Myhead);

  00093	89 70 08	 mov	 DWORD PTR [eax+8], esi

; 834  :         this->_Ptr->_Color = _Red;

  00096	66 c7 40 0c 00
	00		 mov	 WORD PTR [eax+12], 0

; 1042 :         return {_Scary->_Insert_node(_Loc._Location, _Inserted), true};

  0009c	e8 00 00 00 00	 call	 ?_Insert_node@?$_Tree_val@U?$_Tree_simple_types@U?$pair@$$CBKPAVCGuildMarkImage@@@std@@@std@@@std@@QAEPAU?$_Tree_node@U?$pair@$$CBKPAVCGuildMarkImage@@@std@@PAX@2@U?$_Tree_id@PAU?$_Tree_node@U?$pair@$$CBKPAVCGuildMarkImage@@@std@@PAX@std@@@2@QAU32@@Z ; std::_Tree_val<std::_Tree_simple_types<std::pair<unsigned long const ,CGuildMarkImage *> > >::_Insert_node
; File C:\Program Files\Microsoft Visual Studio\2022\Community\VC\Tools\MSVC\14.44.35207\include\utility

; 274  :         : first(_STD forward<_Other1>(_Val1)), second(_STD forward<_Other2>(_Val2)) {

  000a1	8b c8		 mov	 ecx, eax
  000a3	b2 01		 mov	 dl, 1
$LN88@insert:
  000a5	8b 45 08	 mov	 eax, DWORD PTR ___$ReturnUdt$[ebp]
  000a8	89 08		 mov	 DWORD PTR [eax], ecx
  000aa	88 50 04	 mov	 BYTE PTR [eax+4], dl
; File C:\Program Files\Microsoft Visual Studio\2022\Community\VC\Tools\MSVC\14.44.35207\include\xtree

; 1248 :     }

  000ad	8b 4d f4	 mov	 ecx, DWORD PTR __$EHRec$[ebp]
  000b0	64 89 0d 00 00
	00 00		 mov	 DWORD PTR fs:0, ecx
  000b7	59		 pop	 ecx
  000b8	5f		 pop	 edi
  000b9	5e		 pop	 esi
  000ba	5b		 pop	 ebx
  000bb	8b e5		 mov	 esp, ebp
  000bd	5d		 pop	 ebp
  000be	c2 08 00	 ret	 8
$LN107@insert:

; 1649 :             _Throw_tree_length_error();

  000c1	e8 00 00 00 00	 call	 ?_Throw_tree_length_error@std@@YAXXZ ; std::_Throw_tree_length_error
$LN105@insert:
  000c6	cc		 int	 3
_TEXT	ENDS
;	COMDAT text$x
text$x	SEGMENT
__unwindfunclet$??$insert@$0A@$0A@@?$_Tree@V?$_Tmap_traits@KPAVCGuildMarkImage@@U?$less@K@std@@V?$allocator@U?$pair@$$CBKPAVCGuildMarkImage@@@std@@@3@$0A@@std@@@std@@QAE?AU?$pair@V?$_Tree_iterator@V?$_Tree_val@U?$_Tree_simple_types@U?$pair@$$CBKPAVCGuildMarkImage@@@std@@@std@@@std@@@std@@_N@1@$$QAU?$pair@$$CBKPAVCGuildMarkImage@@@1@@Z$2:
  00000	8d 4d ec	 lea	 ecx, DWORD PTR $T4[ebp]
  00003	e9 00 00 00 00	 jmp	 ??1?$_Alloc_construct_ptr@V?$allocator@U?$_Tree_node@U?$pair@$$CBKPAVCGuildMarkImage@@@std@@PAX@std@@@std@@@std@@QAE@XZ ; std::_Alloc_construct_ptr<std::allocator<std::_Tree_node<std::pair<unsigned long const ,CGuildMarkImage *>,void *> > >::~_Alloc_construct_ptr<std::allocator<std::_Tree_node<std::pair<unsigned long const ,CGuildMarkImage *>,void *> > >
  00008	cc		 int	 3
  00009	cc		 int	 3
  0000a	cc		 int	 3
  0000b	cc		 int	 3
  0000c	cc		 int	 3
__ehhandler$??$insert@$0A@$0A@@?$_Tree@V?$_Tmap_traits@KPAVCGuildMarkImage@@U?$less@K@std@@V?$allocator@U?$pair@$$CBKPAVCGuildMarkImage@@@std@@@3@$0A@@std@@@std@@QAE?AU?$pair@V?$_Tree_iterator@V?$_Tree_val@U?$_Tree_simple_types@U?$pair@$$CBKPAVCGuildMarkImage@@@std@@@std@@@std@@@std@@_N@1@$$QAU?$pair@$$CBKPAVCGuildMarkImage@@@1@@Z:
  0000d	90		 npad	 1
  0000e	90		 npad	 1
  0000f	8b 54 24 08	 mov	 edx, DWORD PTR [esp+8]
  00013	8d 42 0c	 lea	 eax, DWORD PTR [edx+12]
  00016	8b 4a d4	 mov	 ecx, DWORD PTR [edx-44]
  00019	33 c8		 xor	 ecx, eax
  0001b	e8 00 00 00 00	 call	 @__security_check_cookie@4
  00020	b8 00 00 00 00	 mov	 eax, OFFSET __ehfuncinfo$??$insert@$0A@$0A@@?$_Tree@V?$_Tmap_traits@KPAVCGuildMarkImage@@U?$less@K@std@@V?$allocator@U?$pair@$$CBKPAVCGuildMarkImage@@@std@@@3@$0A@@std@@@std@@QAE?AU?$pair@V?$_Tree_iterator@V?$_Tree_val@U?$_Tree_simple_types@U?$pair@$$CBKPAVCGuildMarkImage@@@std@@@std@@@std@@@std@@_N@1@$$QAU?$pair@$$CBKPAVCGuildMarkImage@@@1@@Z
  00025	e9 00 00 00 00	 jmp	 ___CxxFrameHandler3
text$x	ENDS
??$insert@$0A@$0A@@?$_Tree@V?$_Tmap_traits@KPAVCGuildMarkImage@@U?$less@K@std@@V?$allocator@U?$pair@$$CBKPAVCGuildMarkImage@@@std@@@3@$0A@@std@@@std@@QAE?AU?$pair@V?$_Tree_iterator@V?$_Tree_val@U?$_Tree_simple_types@U?$pair@$$CBKPAVCGuildMarkImage@@@std@@@std@@@std@@@std@@_N@1@$$QAU?$pair@$$CBKPAVCGuildMarkImage@@@1@@Z ENDP ; std::_Tree<std::_Tmap_traits<unsigned long,CGuildMarkImage *,std::less<unsigned long>,std::allocator<std::pair<unsigned long const ,CGuildMarkImage *> >,0> >::insert<0,0>
; Function compile flags: /Ogtp
; File C:\Program Files\Microsoft Visual Studio\2022\Community\VC\Tools\MSVC\14.44.35207\include\xtree
; File C:\Program Files\Microsoft Visual Studio\2022\Community\VC\Tools\MSVC\14.44.35207\include\xmemory
; File C:\Program Files\Microsoft Visual Studio\2022\Community\VC\Tools\MSVC\14.44.35207\include\xtree
;	COMDAT ??1?$_Tree@V?$_Tmap_traits@KUTGuildSymbol@CGuildMarkManager@@U?$less@K@std@@V?$allocator@U?$pair@$$CBKUTGuildSymbol@CGuildMarkManager@@@std@@@4@$0A@@std@@@std@@QAE@XZ
_TEXT	SEGMENT
??1?$_Tree@V?$_Tmap_traits@KUTGuildSymbol@CGuildMarkManager@@U?$less@K@std@@V?$allocator@U?$pair@$$CBKUTGuildSymbol@CGuildMarkManager@@@std@@@4@$0A@@std@@@std@@QAE@XZ PROC ; std::_Tree<std::_Tmap_traits<unsigned long,CGuildMarkManager::TGuildSymbol,std::less<unsigned long>,std::allocator<std::pair<unsigned long const ,CGuildMarkManager::TGuildSymbol> >,0> >::~_Tree<std::_Tmap_traits<unsigned long,CGuildMarkManager::TGuildSymbol,std::less<unsigned long>,std::allocator<std::pair<unsigned long const ,CGuildMarkManager::TGuildSymbol> >,0> >, COMDAT
; _this$ = ecx

; 1095 :     ~_Tree() noexcept {

  00000	56		 push	 esi
  00001	8b f1		 mov	 esi, ecx

; 777  :         _Erase_tree(_Al, _Myhead->_Parent);

  00003	8b 06		 mov	 eax, DWORD PTR [esi]
  00005	ff 70 04	 push	 DWORD PTR [eax+4]
  00008	56		 push	 esi
  00009	e8 00 00 00 00	 call	 ??$_Erase_tree@V?$allocator@U?$_Tree_node@U?$pair@$$CBKUTGuildSymbol@CGuildMarkManager@@@std@@PAX@std@@@std@@@?$_Tree_val@U?$_Tree_simple_types@U?$pair@$$CBKUTGuildSymbol@CGuildMarkManager@@@std@@@std@@@std@@QAEXAAV?$allocator@U?$_Tree_node@U?$pair@$$CBKUTGuildSymbol@CGuildMarkManager@@@std@@PAX@std@@@1@PAU?$_Tree_node@U?$pair@$$CBKUTGuildSymbol@CGuildMarkManager@@@std@@PAX@1@@Z ; std::_Tree_val<std::_Tree_simple_types<std::pair<unsigned long const ,CGuildMarkManager::TGuildSymbol> > >::_Erase_tree<std::allocator<std::_Tree_node<std::pair<unsigned long const ,CGuildMarkManager::TGuildSymbol>,void *> > >
; File C:\Program Files\Microsoft Visual Studio\2022\Community\VC\Tools\MSVC\14.44.35207\include\xmemory

; 289  :         ::operator delete(_Ptr, _Bytes);

  0000e	6a 24		 push	 36			; 00000024H
  00010	ff 36		 push	 DWORD PTR [esi]
  00012	e8 00 00 00 00	 call	 ??3@YAXPAXI@Z		; operator delete
  00017	83 c4 08	 add	 esp, 8
  0001a	5e		 pop	 esi
; File C:\Program Files\Microsoft Visual Studio\2022\Community\VC\Tools\MSVC\14.44.35207\include\xtree

; 1102 :     }

  0001b	c3		 ret	 0
??1?$_Tree@V?$_Tmap_traits@KUTGuildSymbol@CGuildMarkManager@@U?$less@K@std@@V?$allocator@U?$pair@$$CBKUTGuildSymbol@CGuildMarkManager@@@std@@@4@$0A@@std@@@std@@QAE@XZ ENDP ; std::_Tree<std::_Tmap_traits<unsigned long,CGuildMarkManager::TGuildSymbol,std::less<unsigned long>,std::allocator<std::pair<unsigned long const ,CGuildMarkManager::TGuildSymbol> >,0> >::~_Tree<std::_Tmap_traits<unsigned long,CGuildMarkManager::TGuildSymbol,std::less<unsigned long>,std::allocator<std::pair<unsigned long const ,CGuildMarkManager::TGuildSymbol> >,0> >
_TEXT	ENDS
; Function compile flags: /Ogtp
; File C:\Program Files\Microsoft Visual Studio\2022\Community\VC\Tools\MSVC\14.44.35207\include\map
; File C:\Program Files\Microsoft Visual Studio\2022\Community\VC\Tools\MSVC\14.44.35207\include\xmemory
; File C:\Program Files\Microsoft Visual Studio\2022\Community\VC\Tools\MSVC\14.44.35207\include\map
; File C:\Program Files\Microsoft Visual Studio\2022\Community\VC\Tools\MSVC\14.44.35207\include\xtree
; File C:\Program Files\Microsoft Visual Studio\2022\Community\VC\Tools\MSVC\14.44.35207\include\xmemory
; File C:\Program Files\Microsoft Visual Studio\2022\Community\VC\Tools\MSVC\14.44.35207\include\xtree
; File C:\Program Files\Microsoft Visual Studio\2022\Community\VC\Tools\MSVC\14.44.35207\include\map
;	COMDAT ??0?$map@KUTGuildSymbol@CGuildMarkManager@@U?$less@K@std@@V?$allocator@U?$pair@$$CBKUTGuildSymbol@CGuildMarkManager@@@std@@@4@@std@@QAE@XZ
_TEXT	SEGMENT
_this$ = -4						; size = 4
??0?$map@KUTGuildSymbol@CGuildMarkManager@@U?$less@K@std@@V?$allocator@U?$pair@$$CBKUTGuildSymbol@CGuildMarkManager@@@std@@@4@@std@@QAE@XZ PROC ; std::map<unsigned long,CGuildMarkManager::TGuildSymbol,std::less<unsigned long>,std::allocator<std::pair<unsigned long const ,CGuildMarkManager::TGuildSymbol> > >::map<unsigned long,CGuildMarkManager::TGuildSymbol,std::less<unsigned long>,std::allocator<std::pair<unsigned long const ,CGuildMarkManager::TGuildSymbol> > >, COMDAT
; _this$ = ecx

; 106  :     map() : _Mybase(key_compare()) {}

  00000	55		 push	 ebp
  00001	8b ec		 mov	 ebp, esp
  00003	51		 push	 ecx
  00004	56		 push	 esi
  00005	8b f1		 mov	 esi, ecx
; File C:\Program Files\Microsoft Visual Studio\2022\Community\VC\Tools\MSVC\14.44.35207\include\xmemory

; 136  :         return ::operator new(_Bytes);

  00007	6a 24		 push	 36			; 00000024H
; File C:\Program Files\Microsoft Visual Studio\2022\Community\VC\Tools\MSVC\14.44.35207\include\map

; 106  :     map() : _Mybase(key_compare()) {}

  00009	89 75 fc	 mov	 DWORD PTR _this$[ebp], esi
; File C:\Program Files\Microsoft Visual Studio\2022\Community\VC\Tools\MSVC\14.44.35207\include\xtree

; 450  :     _Tree_val() noexcept : _Myhead(), _Mysize(0) {}

  0000c	c7 06 00 00 00
	00		 mov	 DWORD PTR [esi], 0
  00012	c7 46 04 00 00
	00 00		 mov	 DWORD PTR [esi+4], 0
; File C:\Program Files\Microsoft Visual Studio\2022\Community\VC\Tools\MSVC\14.44.35207\include\xmemory

; 136  :         return ::operator new(_Bytes);

  00019	e8 00 00 00 00	 call	 ??2@YAPAXI@Z		; operator new
  0001e	83 c4 04	 add	 esp, 4
; File C:\Program Files\Microsoft Visual Studio\2022\Community\VC\Tools\MSVC\14.44.35207\include\xtree

; 346  :         _Construct_in_place(_Pnode->_Left, _Pnode);

  00021	89 00		 mov	 DWORD PTR [eax], eax

; 347  :         _Construct_in_place(_Pnode->_Parent, _Pnode);

  00023	89 40 04	 mov	 DWORD PTR [eax+4], eax

; 348  :         _Construct_in_place(_Pnode->_Right, _Pnode);

  00026	89 40 08	 mov	 DWORD PTR [eax+8], eax

; 349  :         _Pnode->_Color = _Black;

  00029	66 c7 40 0c 01
	01		 mov	 WORD PTR [eax+12], 257	; 00000101H

; 1957 :         _Scary->_Myhead = _Node::_Buyheadnode(_Getal());

  0002f	89 06		 mov	 DWORD PTR [esi], eax
; File C:\Program Files\Microsoft Visual Studio\2022\Community\VC\Tools\MSVC\14.44.35207\include\map

; 106  :     map() : _Mybase(key_compare()) {}

  00031	8b c6		 mov	 eax, esi
  00033	5e		 pop	 esi
  00034	8b e5		 mov	 esp, ebp
  00036	5d		 pop	 ebp
  00037	c3		 ret	 0
??0?$map@KUTGuildSymbol@CGuildMarkManager@@U?$less@K@std@@V?$allocator@U?$pair@$$CBKUTGuildSymbol@CGuildMarkManager@@@std@@@4@@std@@QAE@XZ ENDP ; std::map<unsigned long,CGuildMarkManager::TGuildSymbol,std::less<unsigned long>,std::allocator<std::pair<unsigned long const ,CGuildMarkManager::TGuildSymbol> > >::map<unsigned long,CGuildMarkManager::TGuildSymbol,std::less<unsigned long>,std::allocator<std::pair<unsigned long const ,CGuildMarkManager::TGuildSymbol> > >
_TEXT	ENDS
; Function compile flags: /Ogtp
; File C:\Program Files\Microsoft Visual Studio\2022\Community\VC\Tools\MSVC\14.44.35207\include\xtree
;	COMDAT ??E?$_Tree_iterator@V?$_Tree_val@U?$_Tree_simple_types@U?$pair@$$CBKPAVCGuildMarkImage@@@std@@@std@@@std@@@std@@QAEAAV01@XZ
_TEXT	SEGMENT
??E?$_Tree_iterator@V?$_Tree_val@U?$_Tree_simple_types@U?$pair@$$CBKPAVCGuildMarkImage@@@std@@@std@@@std@@@std@@QAEAAV01@XZ PROC ; std::_Tree_iterator<std::_Tree_val<std::_Tree_simple_types<std::pair<unsigned long const ,CGuildMarkImage *> > > >::operator++, COMDAT
; _this$ = ecx

; 281  :     _Tree_iterator& operator++() noexcept {

  00000	56		 push	 esi
  00001	8b f1		 mov	 esi, ecx
  00003	57		 push	 edi

; 50   :         if (_Ptr->_Right->_Isnil) { // climb looking for right subtree

  00004	8b 16		 mov	 edx, DWORD PTR [esi]
  00006	8b 7a 08	 mov	 edi, DWORD PTR [edx+8]
  00009	80 7f 0d 00	 cmp	 BYTE PTR [edi+13], 0
  0000d	74 22		 je	 SHORT $LN10@operator

; 51   :             _Nodeptr _Pnode;
; 52   :             while (!(_Pnode = _Ptr->_Parent)->_Isnil && _Ptr == _Pnode->_Right) {

  0000f	8b 42 04	 mov	 eax, DWORD PTR [edx+4]
  00012	80 78 0d 00	 cmp	 BYTE PTR [eax+13], 0
  00016	75 12		 jne	 SHORT $LN27@operator
$LL8@operator:
  00018	3b 50 08	 cmp	 edx, DWORD PTR [eax+8]
  0001b	75 0d		 jne	 SHORT $LN27@operator

; 53   :                 _Ptr = _Pnode; // ==> parent while right subtree

  0001d	89 06		 mov	 DWORD PTR [esi], eax
  0001f	8b d0		 mov	 edx, eax
  00021	8b 40 04	 mov	 eax, DWORD PTR [eax+4]
  00024	80 78 0d 00	 cmp	 BYTE PTR [eax+13], 0
  00028	74 ee		 je	 SHORT $LL8@operator
$LN27@operator:

; 282  :         _Mybase::operator++();
; 283  :         return *this;

  0002a	89 06		 mov	 DWORD PTR [esi], eax

; 284  :     }

  0002c	8b c6		 mov	 eax, esi
  0002e	5f		 pop	 edi
  0002f	5e		 pop	 esi
  00030	c3		 ret	 0
$LN10@operator:

; 476  :         while (!_Pnode->_Left->_Isnil) {

  00031	8b 0f		 mov	 ecx, DWORD PTR [edi]
  00033	80 79 0d 00	 cmp	 BYTE PTR [ecx+13], 0
  00037	75 13		 jne	 SHORT $LN16@operator
  00039	0f 1f 80 00 00
	00 00		 npad	 7
$LL15@operator:
  00040	8b 01		 mov	 eax, DWORD PTR [ecx]

; 477  :             _Pnode = _Pnode->_Left;

  00042	8b f9		 mov	 edi, ecx
  00044	8b c8		 mov	 ecx, eax
  00046	80 78 0d 00	 cmp	 BYTE PTR [eax+13], 0
  0004a	74 f4		 je	 SHORT $LL15@operator
$LN16@operator:

; 282  :         _Mybase::operator++();
; 283  :         return *this;

  0004c	89 3e		 mov	 DWORD PTR [esi], edi

; 284  :     }

  0004e	8b c6		 mov	 eax, esi
  00050	5f		 pop	 edi
  00051	5e		 pop	 esi
  00052	c3		 ret	 0
??E?$_Tree_iterator@V?$_Tree_val@U?$_Tree_simple_types@U?$pair@$$CBKPAVCGuildMarkImage@@@std@@@std@@@std@@@std@@QAEAAV01@XZ ENDP ; std::_Tree_iterator<std::_Tree_val<std::_Tree_simple_types<std::pair<unsigned long const ,CGuildMarkImage *> > > >::operator++
_TEXT	ENDS
; Function compile flags: /Ogtp
; File C:\Program Files\Microsoft Visual Studio\2022\Community\VC\Tools\MSVC\14.44.35207\include\xtree
;	COMDAT ??C?$_Tree_iterator@V?$_Tree_val@U?$_Tree_simple_types@U?$pair@$$CBKPAVCGuildMarkImage@@@std@@@std@@@std@@@std@@QBEPAU?$pair@$$CBKPAVCGuildMarkImage@@@1@XZ
_TEXT	SEGMENT
??C?$_Tree_iterator@V?$_Tree_val@U?$_Tree_simple_types@U?$pair@$$CBKPAVCGuildMarkImage@@@std@@@std@@@std@@@std@@QBEPAU?$pair@$$CBKPAVCGuildMarkImage@@@1@XZ PROC ; std::_Tree_iterator<std::_Tree_val<std::_Tree_simple_types<std::pair<unsigned long const ,CGuildMarkImage *> > > >::operator->, COMDAT
; _this$ = ecx

; 185  :         return this->_Ptr->_Myval;

  00000	8b 01		 mov	 eax, DWORD PTR [ecx]
  00002	83 c0 10	 add	 eax, 16			; 00000010H

; 278  :         return pointer_traits<pointer>::pointer_to(**this);
; 279  :     }

  00005	c3		 ret	 0
??C?$_Tree_iterator@V?$_Tree_val@U?$_Tree_simple_types@U?$pair@$$CBKPAVCGuildMarkImage@@@std@@@std@@@std@@@std@@QBEPAU?$pair@$$CBKPAVCGuildMarkImage@@@1@XZ ENDP ; std::_Tree_iterator<std::_Tree_val<std::_Tree_simple_types<std::pair<unsigned long const ,CGuildMarkImage *> > > >::operator->
_TEXT	ENDS
; Function compile flags: /Ogtp
; File C:\Program Files\Microsoft Visual Studio\2022\Community\VC\Tools\MSVC\14.44.35207\include\xtree
;	COMDAT ??8?$_Tree_const_iterator@V?$_Tree_val@U?$_Tree_simple_types@U?$pair@$$CBKPAVCGuildMarkImage@@@std@@@std@@@std@@@std@@QBE_NABV01@@Z
_TEXT	SEGMENT
__Right$ = 8						; size = 4
??8?$_Tree_const_iterator@V?$_Tree_val@U?$_Tree_simple_types@U?$pair@$$CBKPAVCGuildMarkImage@@@std@@@std@@@std@@@std@@QBE_NABV01@@Z PROC ; std::_Tree_const_iterator<std::_Tree_val<std::_Tree_simple_types<std::pair<unsigned long const ,CGuildMarkImage *> > > >::operator==, COMDAT
; _this$ = ecx

; 227  :     _NODISCARD bool operator==(const _Tree_const_iterator& _Right) const noexcept {

  00000	55		 push	 ebp
  00001	8b ec		 mov	 ebp, esp

; 228  : #if _ITERATOR_DEBUG_LEVEL == 2
; 229  :         _STL_VERIFY(this->_Getcont() == _Right._Getcont(), "map/set iterators incompatible");
; 230  : #endif // _ITERATOR_DEBUG_LEVEL == 2
; 231  : 
; 232  :         return this->_Ptr == _Right._Ptr;

  00003	8b 45 08	 mov	 eax, DWORD PTR __Right$[ebp]
  00006	8b 09		 mov	 ecx, DWORD PTR [ecx]
  00008	3b 08		 cmp	 ecx, DWORD PTR [eax]
  0000a	0f 94 c0	 sete	 al

; 233  :     }

  0000d	5d		 pop	 ebp
  0000e	c2 04 00	 ret	 4
??8?$_Tree_const_iterator@V?$_Tree_val@U?$_Tree_simple_types@U?$pair@$$CBKPAVCGuildMarkImage@@@std@@@std@@@std@@@std@@QBE_NABV01@@Z ENDP ; std::_Tree_const_iterator<std::_Tree_val<std::_Tree_simple_types<std::pair<unsigned long const ,CGuildMarkImage *> > > >::operator==
_TEXT	ENDS
; Function compile flags: /Ogtp
; File C:\Program Files\Microsoft Visual Studio\2022\Community\VC\Tools\MSVC\14.44.35207\include\xtree
; File C:\Program Files\Microsoft Visual Studio\2022\Community\VC\Tools\MSVC\14.44.35207\include\type_traits
; File C:\Program Files\Microsoft Visual Studio\2022\Community\VC\Tools\MSVC\14.44.35207\include\xtree
;	COMDAT ?find@?$_Tree@V?$_Tmap_traits@KPAVCGuildMarkImage@@U?$less@K@std@@V?$allocator@U?$pair@$$CBKPAVCGuildMarkImage@@@std@@@3@$0A@@std@@@std@@QAE?AV?$_Tree_iterator@V?$_Tree_val@U?$_Tree_simple_types@U?$pair@$$CBKPAVCGuildMarkImage@@@std@@@std@@@std@@@2@ABK@Z
_TEXT	SEGMENT
__Loc$1 = -12						; size = 12
___$ReturnUdt$ = 8					; size = 4
__Keyval$ = 12						; size = 4
?find@?$_Tree@V?$_Tmap_traits@KPAVCGuildMarkImage@@U?$less@K@std@@V?$allocator@U?$pair@$$CBKPAVCGuildMarkImage@@@std@@@3@$0A@@std@@@std@@QAE?AV?$_Tree_iterator@V?$_Tree_val@U?$_Tree_simple_types@U?$pair@$$CBKPAVCGuildMarkImage@@@std@@@std@@@std@@@2@ABK@Z PROC ; std::_Tree<std::_Tmap_traits<unsigned long,CGuildMarkImage *,std::less<unsigned long>,std::allocator<std::pair<unsigned long const ,CGuildMarkImage *> >,0> >::find, COMDAT
; _this$ = ecx

; 1393 :     _NODISCARD iterator find(const key_type& _Keyval) {

  00000	55		 push	 ebp
  00001	8b ec		 mov	 ebp, esp
  00003	83 ec 0c	 sub	 esp, 12			; 0000000cH
  00006	56		 push	 esi

; 1384 :         const _Tree_find_result<_Nodeptr> _Loc = _Find_lower_bound(_Keyval);

  00007	8b 75 0c	 mov	 esi, DWORD PTR __Keyval$[ebp]
  0000a	8d 45 f4	 lea	 eax, DWORD PTR __Loc$1[ebp]

; 1393 :     _NODISCARD iterator find(const key_type& _Keyval) {

  0000d	57		 push	 edi

; 1384 :         const _Tree_find_result<_Nodeptr> _Loc = _Find_lower_bound(_Keyval);

  0000e	56		 push	 esi
  0000f	50		 push	 eax

; 1393 :     _NODISCARD iterator find(const key_type& _Keyval) {

  00010	8b f9		 mov	 edi, ecx

; 1384 :         const _Tree_find_result<_Nodeptr> _Loc = _Find_lower_bound(_Keyval);

  00012	e8 00 00 00 00	 call	 ??$_Find_lower_bound@K@?$_Tree@V?$_Tmap_traits@KPAVCGuildMarkImage@@U?$less@K@std@@V?$allocator@U?$pair@$$CBKPAVCGuildMarkImage@@@std@@@3@$0A@@std@@@std@@IBE?AU?$_Tree_find_result@PAU?$_Tree_node@U?$pair@$$CBKPAVCGuildMarkImage@@@std@@PAX@std@@@1@ABK@Z ; std::_Tree<std::_Tmap_traits<unsigned long,CGuildMarkImage *,std::less<unsigned long>,std::allocator<std::pair<unsigned long const ,CGuildMarkImage *> >,0> >::_Find_lower_bound<unsigned long>

; 1624 :         return !_Bound->_Isnil && !_DEBUG_LT_PRED(_Getcomp(), _Keyval, _Traits::_Kfn(_Bound->_Myval));

  00017	8b 55 fc	 mov	 edx, DWORD PTR __Loc$1[ebp+8]
  0001a	80 7a 0d 00	 cmp	 BYTE PTR [edx+13], 0
  0001e	75 14		 jne	 SHORT $LN4@find
; File C:\Program Files\Microsoft Visual Studio\2022\Community\VC\Tools\MSVC\14.44.35207\include\type_traits

; 2380 :         return _Left < _Right;

  00020	8b 06		 mov	 eax, DWORD PTR [esi]
  00022	3b 42 10	 cmp	 eax, DWORD PTR [edx+16]
; File C:\Program Files\Microsoft Visual Studio\2022\Community\VC\Tools\MSVC\14.44.35207\include\xtree

; 1624 :         return !_Bound->_Isnil && !_DEBUG_LT_PRED(_Getcomp(), _Keyval, _Traits::_Kfn(_Bound->_Myval));

  00025	72 0d		 jb	 SHORT $LN4@find

; 37   :     _Tree_unchecked_const_iterator(_Nodeptr _Pnode, const _Mytree* _Plist) noexcept : _Ptr(_Pnode) {

  00027	8b 45 08	 mov	 eax, DWORD PTR ___$ReturnUdt$[ebp]
  0002a	5f		 pop	 edi

; 1394 :         return iterator(_Find(_Keyval), _Get_scary());
; 1395 :     }

  0002b	5e		 pop	 esi

; 37   :     _Tree_unchecked_const_iterator(_Nodeptr _Pnode, const _Mytree* _Plist) noexcept : _Ptr(_Pnode) {

  0002c	89 10		 mov	 DWORD PTR [eax], edx

; 1394 :         return iterator(_Find(_Keyval), _Get_scary());
; 1395 :     }

  0002e	8b e5		 mov	 esp, ebp
  00030	5d		 pop	 ebp
  00031	c2 08 00	 ret	 8
$LN4@find:

; 37   :     _Tree_unchecked_const_iterator(_Nodeptr _Pnode, const _Mytree* _Plist) noexcept : _Ptr(_Pnode) {

  00034	8b 45 08	 mov	 eax, DWORD PTR ___$ReturnUdt$[ebp]

; 1389 :         return _Get_scary()->_Myhead;

  00037	8b 0f		 mov	 ecx, DWORD PTR [edi]
  00039	5f		 pop	 edi

; 1394 :         return iterator(_Find(_Keyval), _Get_scary());
; 1395 :     }

  0003a	5e		 pop	 esi

; 37   :     _Tree_unchecked_const_iterator(_Nodeptr _Pnode, const _Mytree* _Plist) noexcept : _Ptr(_Pnode) {

  0003b	89 08		 mov	 DWORD PTR [eax], ecx

; 1394 :         return iterator(_Find(_Keyval), _Get_scary());
; 1395 :     }

  0003d	8b e5		 mov	 esp, ebp
  0003f	5d		 pop	 ebp
  00040	c2 08 00	 ret	 8
?find@?$_Tree@V?$_Tmap_traits@KPAVCGuildMarkImage@@U?$less@K@std@@V?$allocator@U?$pair@$$CBKPAVCGuildMarkImage@@@std@@@3@$0A@@std@@@std@@QAE?AV?$_Tree_iterator@V?$_Tree_val@U?$_Tree_simple_types@U?$pair@$$CBKPAVCGuildMarkImage@@@std@@@std@@@std@@@2@ABK@Z ENDP ; std::_Tree<std::_Tmap_traits<unsigned long,CGuildMarkImage *,std::less<unsigned long>,std::allocator<std::pair<unsigned long const ,CGuildMarkImage *> >,0> >::find
_TEXT	ENDS
; Function compile flags: /Ogtp
; File C:\Program Files\Microsoft Visual Studio\2022\Community\VC\Tools\MSVC\14.44.35207\include\xtree
;	COMDAT ?clear@?$_Tree@V?$_Tmap_traits@KPAVCGuildMarkImage@@U?$less@K@std@@V?$allocator@U?$pair@$$CBKPAVCGuildMarkImage@@@std@@@3@$0A@@std@@@std@@QAEXXZ
_TEXT	SEGMENT
?clear@?$_Tree@V?$_Tmap_traits@KPAVCGuildMarkImage@@U?$less@K@std@@V?$allocator@U?$pair@$$CBKPAVCGuildMarkImage@@@std@@@3@$0A@@std@@@std@@QAEXXZ PROC ; std::_Tree<std::_Tmap_traits<unsigned long,CGuildMarkImage *,std::less<unsigned long>,std::allocator<std::pair<unsigned long const ,CGuildMarkImage *> >,0> >::clear, COMDAT
; _this$ = ecx

; 1370 :     void clear() noexcept {

  00000	56		 push	 esi
  00001	57		 push	 edi
  00002	8b f9		 mov	 edi, ecx

; 1371 :         const auto _Scary = _Get_scary();
; 1372 :         _Scary->_Orphan_ptr(nullptr);
; 1373 :         auto _Head = _Scary->_Myhead;

  00004	8b 37		 mov	 esi, DWORD PTR [edi]

; 1374 :         _Scary->_Erase_tree(_Getal(), _Head->_Parent);

  00006	ff 76 04	 push	 DWORD PTR [esi+4]
  00009	57		 push	 edi
  0000a	e8 00 00 00 00	 call	 ??$_Erase_tree@V?$allocator@U?$_Tree_node@U?$pair@$$CBKPAVCGuildMarkImage@@@std@@PAX@std@@@std@@@?$_Tree_val@U?$_Tree_simple_types@U?$pair@$$CBKPAVCGuildMarkImage@@@std@@@std@@@std@@QAEXAAV?$allocator@U?$_Tree_node@U?$pair@$$CBKPAVCGuildMarkImage@@@std@@PAX@std@@@1@PAU?$_Tree_node@U?$pair@$$CBKPAVCGuildMarkImage@@@std@@PAX@1@@Z ; std::_Tree_val<std::_Tree_simple_types<std::pair<unsigned long const ,CGuildMarkImage *> > >::_Erase_tree<std::allocator<std::_Tree_node<std::pair<unsigned long const ,CGuildMarkImage *>,void *> > >

; 1375 :         _Head->_Parent  = _Head;

  0000f	89 76 04	 mov	 DWORD PTR [esi+4], esi

; 1376 :         _Head->_Left    = _Head;

  00012	89 36		 mov	 DWORD PTR [esi], esi

; 1377 :         _Head->_Right   = _Head;

  00014	89 76 08	 mov	 DWORD PTR [esi+8], esi

; 1378 :         _Scary->_Mysize = 0;

  00017	c7 47 04 00 00
	00 00		 mov	 DWORD PTR [edi+4], 0
  0001e	5f		 pop	 edi
  0001f	5e		 pop	 esi

; 1379 :     }

  00020	c3		 ret	 0
?clear@?$_Tree@V?$_Tmap_traits@KPAVCGuildMarkImage@@U?$less@K@std@@V?$allocator@U?$pair@$$CBKPAVCGuildMarkImage@@@std@@@3@$0A@@std@@@std@@QAEXXZ ENDP ; std::_Tree<std::_Tmap_traits<unsigned long,CGuildMarkImage *,std::less<unsigned long>,std::allocator<std::pair<unsigned long const ,CGuildMarkImage *> >,0> >::clear
_TEXT	ENDS
; Function compile flags: /Ogtp
; File C:\Program Files\Microsoft Visual Studio\2022\Community\VC\Tools\MSVC\14.44.35207\include\xtree
;	COMDAT ?size@?$_Tree@V?$_Tmap_traits@KPAVCGuildMarkImage@@U?$less@K@std@@V?$allocator@U?$pair@$$CBKPAVCGuildMarkImage@@@std@@@3@$0A@@std@@@std@@QBEIXZ
_TEXT	SEGMENT
?size@?$_Tree@V?$_Tmap_traits@KPAVCGuildMarkImage@@U?$less@K@std@@V?$allocator@U?$pair@$$CBKPAVCGuildMarkImage@@@std@@@3@$0A@@std@@@std@@QBEIXZ PROC ; std::_Tree<std::_Tmap_traits<unsigned long,CGuildMarkImage *,std::less<unsigned long>,std::allocator<std::pair<unsigned long const ,CGuildMarkImage *> >,0> >::size, COMDAT
; _this$ = ecx

; 1209 :         return _Get_scary()->_Mysize;

  00000	8b 41 04	 mov	 eax, DWORD PTR [ecx+4]

; 1210 :     }

  00003	c3		 ret	 0
?size@?$_Tree@V?$_Tmap_traits@KPAVCGuildMarkImage@@U?$less@K@std@@V?$allocator@U?$pair@$$CBKPAVCGuildMarkImage@@@std@@@3@$0A@@std@@@std@@QBEIXZ ENDP ; std::_Tree<std::_Tmap_traits<unsigned long,CGuildMarkImage *,std::less<unsigned long>,std::allocator<std::pair<unsigned long const ,CGuildMarkImage *> >,0> >::size
_TEXT	ENDS
; Function compile flags: /Ogtp
; File C:\Program Files\Microsoft Visual Studio\2022\Community\VC\Tools\MSVC\14.44.35207\include\xtree
;	COMDAT ?end@?$_Tree@V?$_Tmap_traits@KPAVCGuildMarkImage@@U?$less@K@std@@V?$allocator@U?$pair@$$CBKPAVCGuildMarkImage@@@std@@@3@$0A@@std@@@std@@QAE?AV?$_Tree_iterator@V?$_Tree_val@U?$_Tree_simple_types@U?$pair@$$CBKPAVCGuildMarkImage@@@std@@@std@@@std@@@2@XZ
_TEXT	SEGMENT
___$ReturnUdt$ = 8					; size = 4
?end@?$_Tree@V?$_Tmap_traits@KPAVCGuildMarkImage@@U?$less@K@std@@V?$allocator@U?$pair@$$CBKPAVCGuildMarkImage@@@std@@@3@$0A@@std@@@std@@QAE?AV?$_Tree_iterator@V?$_Tree_val@U?$_Tree_simple_types@U?$pair@$$CBKPAVCGuildMarkImage@@@std@@@std@@@std@@@2@XZ PROC ; std::_Tree<std::_Tmap_traits<unsigned long,CGuildMarkImage *,std::less<unsigned long>,std::allocator<std::pair<unsigned long const ,CGuildMarkImage *> >,0> >::end, COMDAT
; _this$ = ecx

; 1150 :     _NODISCARD iterator end() noexcept {

  00000	55		 push	 ebp
  00001	8b ec		 mov	 ebp, esp

; 37   :     _Tree_unchecked_const_iterator(_Nodeptr _Pnode, const _Mytree* _Plist) noexcept : _Ptr(_Pnode) {

  00003	8b 45 08	 mov	 eax, DWORD PTR ___$ReturnUdt$[ebp]
  00006	8b 09		 mov	 ecx, DWORD PTR [ecx]
  00008	89 08		 mov	 DWORD PTR [eax], ecx

; 1151 :         const auto _Scary = _Get_scary();
; 1152 :         return iterator(_Scary->_Myhead, _Scary);
; 1153 :     }

  0000a	5d		 pop	 ebp
  0000b	c2 04 00	 ret	 4
?end@?$_Tree@V?$_Tmap_traits@KPAVCGuildMarkImage@@U?$less@K@std@@V?$allocator@U?$pair@$$CBKPAVCGuildMarkImage@@@std@@@3@$0A@@std@@@std@@QAE?AV?$_Tree_iterator@V?$_Tree_val@U?$_Tree_simple_types@U?$pair@$$CBKPAVCGuildMarkImage@@@std@@@std@@@std@@@2@XZ ENDP ; std::_Tree<std::_Tmap_traits<unsigned long,CGuildMarkImage *,std::less<unsigned long>,std::allocator<std::pair<unsigned long const ,CGuildMarkImage *> >,0> >::end
_TEXT	ENDS
; Function compile flags: /Ogtp
; File C:\Program Files\Microsoft Visual Studio\2022\Community\VC\Tools\MSVC\14.44.35207\include\xtree
;	COMDAT ?begin@?$_Tree@V?$_Tmap_traits@KPAVCGuildMarkImage@@U?$less@K@std@@V?$allocator@U?$pair@$$CBKPAVCGuildMarkImage@@@std@@@3@$0A@@std@@@std@@QAE?AV?$_Tree_iterator@V?$_Tree_val@U?$_Tree_simple_types@U?$pair@$$CBKPAVCGuildMarkImage@@@std@@@std@@@std@@@2@XZ
_TEXT	SEGMENT
___$ReturnUdt$ = 8					; size = 4
?begin@?$_Tree@V?$_Tmap_traits@KPAVCGuildMarkImage@@U?$less@K@std@@V?$allocator@U?$pair@$$CBKPAVCGuildMarkImage@@@std@@@3@$0A@@std@@@std@@QAE?AV?$_Tree_iterator@V?$_Tree_val@U?$_Tree_simple_types@U?$pair@$$CBKPAVCGuildMarkImage@@@std@@@std@@@std@@@2@XZ PROC ; std::_Tree<std::_Tmap_traits<unsigned long,CGuildMarkImage *,std::less<unsigned long>,std::allocator<std::pair<unsigned long const ,CGuildMarkImage *> >,0> >::begin, COMDAT
; _this$ = ecx

; 1140 :     _NODISCARD iterator begin() noexcept {

  00000	55		 push	 ebp
  00001	8b ec		 mov	 ebp, esp

; 1141 :         const auto _Scary = _Get_scary();
; 1142 :         return iterator(_Scary->_Myhead->_Left, _Scary);

  00003	8b 01		 mov	 eax, DWORD PTR [ecx]

; 37   :     _Tree_unchecked_const_iterator(_Nodeptr _Pnode, const _Mytree* _Plist) noexcept : _Ptr(_Pnode) {

  00005	8b 08		 mov	 ecx, DWORD PTR [eax]
  00007	8b 45 08	 mov	 eax, DWORD PTR ___$ReturnUdt$[ebp]
  0000a	89 08		 mov	 DWORD PTR [eax], ecx

; 1143 :     }

  0000c	5d		 pop	 ebp
  0000d	c2 04 00	 ret	 4
?begin@?$_Tree@V?$_Tmap_traits@KPAVCGuildMarkImage@@U?$less@K@std@@V?$allocator@U?$pair@$$CBKPAVCGuildMarkImage@@@std@@@3@$0A@@std@@@std@@QAE?AV?$_Tree_iterator@V?$_Tree_val@U?$_Tree_simple_types@U?$pair@$$CBKPAVCGuildMarkImage@@@std@@@std@@@std@@@2@XZ ENDP ; std::_Tree<std::_Tmap_traits<unsigned long,CGuildMarkImage *,std::less<unsigned long>,std::allocator<std::pair<unsigned long const ,CGuildMarkImage *> >,0> >::begin
_TEXT	ENDS
; Function compile flags: /Ogtp
; File C:\Program Files\Microsoft Visual Studio\2022\Community\VC\Tools\MSVC\14.44.35207\include\xtree
; File C:\Program Files\Microsoft Visual Studio\2022\Community\VC\Tools\MSVC\14.44.35207\include\xmemory
; File C:\Program Files\Microsoft Visual Studio\2022\Community\VC\Tools\MSVC\14.44.35207\include\xtree
;	COMDAT ??1?$_Tree@V?$_Tmap_traits@KPAVCGuildMarkImage@@U?$less@K@std@@V?$allocator@U?$pair@$$CBKPAVCGuildMarkImage@@@std@@@3@$0A@@std@@@std@@QAE@XZ
_TEXT	SEGMENT
??1?$_Tree@V?$_Tmap_traits@KPAVCGuildMarkImage@@U?$less@K@std@@V?$allocator@U?$pair@$$CBKPAVCGuildMarkImage@@@std@@@3@$0A@@std@@@std@@QAE@XZ PROC ; std::_Tree<std::_Tmap_traits<unsigned long,CGuildMarkImage *,std::less<unsigned long>,std::allocator<std::pair<unsigned long const ,CGuildMarkImage *> >,0> >::~_Tree<std::_Tmap_traits<unsigned long,CGuildMarkImage *,std::less<unsigned long>,std::allocator<std::pair<unsigned long const ,CGuildMarkImage *> >,0> >, COMDAT
; _this$ = ecx

; 1095 :     ~_Tree() noexcept {

  00000	56		 push	 esi
  00001	8b f1		 mov	 esi, ecx

; 777  :         _Erase_tree(_Al, _Myhead->_Parent);

  00003	8b 06		 mov	 eax, DWORD PTR [esi]
  00005	ff 70 04	 push	 DWORD PTR [eax+4]
  00008	56		 push	 esi
  00009	e8 00 00 00 00	 call	 ??$_Erase_tree@V?$allocator@U?$_Tree_node@U?$pair@$$CBKPAVCGuildMarkImage@@@std@@PAX@std@@@std@@@?$_Tree_val@U?$_Tree_simple_types@U?$pair@$$CBKPAVCGuildMarkImage@@@std@@@std@@@std@@QAEXAAV?$allocator@U?$_Tree_node@U?$pair@$$CBKPAVCGuildMarkImage@@@std@@PAX@std@@@1@PAU?$_Tree_node@U?$pair@$$CBKPAVCGuildMarkImage@@@std@@PAX@1@@Z ; std::_Tree_val<std::_Tree_simple_types<std::pair<unsigned long const ,CGuildMarkImage *> > >::_Erase_tree<std::allocator<std::_Tree_node<std::pair<unsigned long const ,CGuildMarkImage *>,void *> > >
; File C:\Program Files\Microsoft Visual Studio\2022\Community\VC\Tools\MSVC\14.44.35207\include\xmemory

; 289  :         ::operator delete(_Ptr, _Bytes);

  0000e	6a 18		 push	 24			; 00000018H
  00010	ff 36		 push	 DWORD PTR [esi]
  00012	e8 00 00 00 00	 call	 ??3@YAXPAXI@Z		; operator delete
  00017	83 c4 08	 add	 esp, 8
  0001a	5e		 pop	 esi
; File C:\Program Files\Microsoft Visual Studio\2022\Community\VC\Tools\MSVC\14.44.35207\include\xtree

; 1102 :     }

  0001b	c3		 ret	 0
??1?$_Tree@V?$_Tmap_traits@KPAVCGuildMarkImage@@U?$less@K@std@@V?$allocator@U?$pair@$$CBKPAVCGuildMarkImage@@@std@@@3@$0A@@std@@@std@@QAE@XZ ENDP ; std::_Tree<std::_Tmap_traits<unsigned long,CGuildMarkImage *,std::less<unsigned long>,std::allocator<std::pair<unsigned long const ,CGuildMarkImage *> >,0> >::~_Tree<std::_Tmap_traits<unsigned long,CGuildMarkImage *,std::less<unsigned long>,std::allocator<std::pair<unsigned long const ,CGuildMarkImage *> >,0> >
_TEXT	ENDS
; Function compile flags: /Ogtp
; File C:\Program Files\Microsoft Visual Studio\2022\Community\VC\Tools\MSVC\14.44.35207\include\map
; File C:\Program Files\Microsoft Visual Studio\2022\Community\VC\Tools\MSVC\14.44.35207\include\xmemory
; File C:\Program Files\Microsoft Visual Studio\2022\Community\VC\Tools\MSVC\14.44.35207\include\map
; File C:\Program Files\Microsoft Visual Studio\2022\Community\VC\Tools\MSVC\14.44.35207\include\xtree
; File C:\Program Files\Microsoft Visual Studio\2022\Community\VC\Tools\MSVC\14.44.35207\include\xmemory
; File C:\Program Files\Microsoft Visual Studio\2022\Community\VC\Tools\MSVC\14.44.35207\include\xtree
; File C:\Program Files\Microsoft Visual Studio\2022\Community\VC\Tools\MSVC\14.44.35207\include\map
;	COMDAT ??0?$map@KPAVCGuildMarkImage@@U?$less@K@std@@V?$allocator@U?$pair@$$CBKPAVCGuildMarkImage@@@std@@@3@@std@@QAE@XZ
_TEXT	SEGMENT
_this$ = -4						; size = 4
??0?$map@KPAVCGuildMarkImage@@U?$less@K@std@@V?$allocator@U?$pair@$$CBKPAVCGuildMarkImage@@@std@@@3@@std@@QAE@XZ PROC ; std::map<unsigned long,CGuildMarkImage *,std::less<unsigned long>,std::allocator<std::pair<unsigned long const ,CGuildMarkImage *> > >::map<unsigned long,CGuildMarkImage *,std::less<unsigned long>,std::allocator<std::pair<unsigned long const ,CGuildMarkImage *> > >, COMDAT
; _this$ = ecx

; 106  :     map() : _Mybase(key_compare()) {}

  00000	55		 push	 ebp
  00001	8b ec		 mov	 ebp, esp
  00003	51		 push	 ecx
  00004	56		 push	 esi
  00005	8b f1		 mov	 esi, ecx
; File C:\Program Files\Microsoft Visual Studio\2022\Community\VC\Tools\MSVC\14.44.35207\include\xmemory

; 136  :         return ::operator new(_Bytes);

  00007	6a 18		 push	 24			; 00000018H
; File C:\Program Files\Microsoft Visual Studio\2022\Community\VC\Tools\MSVC\14.44.35207\include\map

; 106  :     map() : _Mybase(key_compare()) {}

  00009	89 75 fc	 mov	 DWORD PTR _this$[ebp], esi
; File C:\Program Files\Microsoft Visual Studio\2022\Community\VC\Tools\MSVC\14.44.35207\include\xtree

; 450  :     _Tree_val() noexcept : _Myhead(), _Mysize(0) {}

  0000c	c7 06 00 00 00
	00		 mov	 DWORD PTR [esi], 0
  00012	c7 46 04 00 00
	00 00		 mov	 DWORD PTR [esi+4], 0
; File C:\Program Files\Microsoft Visual Studio\2022\Community\VC\Tools\MSVC\14.44.35207\include\xmemory

; 136  :         return ::operator new(_Bytes);

  00019	e8 00 00 00 00	 call	 ??2@YAPAXI@Z		; operator new
  0001e	83 c4 04	 add	 esp, 4
; File C:\Program Files\Microsoft Visual Studio\2022\Community\VC\Tools\MSVC\14.44.35207\include\xtree

; 346  :         _Construct_in_place(_Pnode->_Left, _Pnode);

  00021	89 00		 mov	 DWORD PTR [eax], eax

; 347  :         _Construct_in_place(_Pnode->_Parent, _Pnode);

  00023	89 40 04	 mov	 DWORD PTR [eax+4], eax

; 348  :         _Construct_in_place(_Pnode->_Right, _Pnode);

  00026	89 40 08	 mov	 DWORD PTR [eax+8], eax

; 349  :         _Pnode->_Color = _Black;

  00029	66 c7 40 0c 01
	01		 mov	 WORD PTR [eax+12], 257	; 00000101H

; 1957 :         _Scary->_Myhead = _Node::_Buyheadnode(_Getal());

  0002f	89 06		 mov	 DWORD PTR [esi], eax
; File C:\Program Files\Microsoft Visual Studio\2022\Community\VC\Tools\MSVC\14.44.35207\include\map

; 106  :     map() : _Mybase(key_compare()) {}

  00031	8b c6		 mov	 eax, esi
  00033	5e		 pop	 esi
  00034	8b e5		 mov	 esp, ebp
  00036	5d		 pop	 ebp
  00037	c3		 ret	 0
??0?$map@KPAVCGuildMarkImage@@U?$less@K@std@@V?$allocator@U?$pair@$$CBKPAVCGuildMarkImage@@@std@@@3@@std@@QAE@XZ ENDP ; std::map<unsigned long,CGuildMarkImage *,std::less<unsigned long>,std::allocator<std::pair<unsigned long const ,CGuildMarkImage *> > >::map<unsigned long,CGuildMarkImage *,std::less<unsigned long>,std::allocator<std::pair<unsigned long const ,CGuildMarkImage *> > >
_TEXT	ENDS
; Function compile flags: /Ogtp
; File D:\_m2work\Server Client TMP4\ClientVS22\source\eterBase\Singleton.h
;	COMDAT ??1?$singleton@VCGuildMarkManager@@@@UAE@XZ
_TEXT	SEGMENT
??1?$singleton@VCGuildMarkManager@@@@UAE@XZ PROC	; singleton<CGuildMarkManager>::~singleton<CGuildMarkManager>, COMDAT
; _this$ = ecx

; 60   : 	{ 

  00000	c7 01 00 00 00
	00		 mov	 DWORD PTR [ecx], OFFSET ??_7?$singleton@VCGuildMarkManager@@@@6B@

; 61   : 		assert(ms_singleton);
; 62   : 		ms_singleton = 0; 

  00006	c7 05 00 00 00
	00 00 00 00 00	 mov	 DWORD PTR ?ms_singleton@?$singleton@VCGuildMarkManager@@@@0PAVCGuildMarkManager@@A, 0 ; singleton<CGuildMarkManager>::ms_singleton

; 63   : 	}

  00010	c3		 ret	 0
??1?$singleton@VCGuildMarkManager@@@@UAE@XZ ENDP	; singleton<CGuildMarkManager>::~singleton<CGuildMarkManager>
_TEXT	ENDS
; Function compile flags: /Ogtp
; File D:\_m2work\Server Client TMP4\ClientVS22\source\eterBase\Singleton.h
;	COMDAT ??0?$singleton@VCGuildMarkManager@@@@QAE@XZ
_TEXT	SEGMENT
??0?$singleton@VCGuildMarkManager@@@@QAE@XZ PROC	; singleton<CGuildMarkManager>::singleton<CGuildMarkManager>, COMDAT
; _this$ = ecx

; 53   : 	{ 

  00000	c7 01 00 00 00
	00		 mov	 DWORD PTR [ecx], OFFSET ??_7?$singleton@VCGuildMarkManager@@@@6B@

; 54   : 		assert(!ms_singleton);
; 55   : 		int offset = (int) (T*) 1 - (int) (singleton <T>*) (T*) 1; 
; 56   : 		ms_singleton = (T*) ((int) this + offset);
; 57   : 	} 

  00006	8b c1		 mov	 eax, ecx
  00008	89 0d 00 00 00
	00		 mov	 DWORD PTR ?ms_singleton@?$singleton@VCGuildMarkManager@@@@0PAVCGuildMarkManager@@A, ecx ; singleton<CGuildMarkManager>::ms_singleton
  0000e	c3		 ret	 0
??0?$singleton@VCGuildMarkManager@@@@QAE@XZ ENDP	; singleton<CGuildMarkManager>::singleton<CGuildMarkManager>
_TEXT	ENDS
; Function compile flags: /Ogtp
; File C:\Program Files\Microsoft Visual Studio\2022\Community\VC\Tools\MSVC\14.44.35207\include\vector
; File C:\Program Files\Microsoft Visual Studio\2022\Community\VC\Tools\MSVC\14.44.35207\include\xmemory
; File C:\Program Files\Microsoft Visual Studio\2022\Community\VC\Tools\MSVC\14.44.35207\include\vector
; File C:\Program Files\Microsoft Visual Studio\2022\Community\VC\Tools\MSVC\14.44.35207\include\xmemory
; File C:\Program Files\Microsoft Visual Studio\2022\Community\VC\Tools\MSVC\14.44.35207\include\vector
; File C:\Program Files\Microsoft Visual Studio\2022\Community\VC\Tools\MSVC\14.44.35207\include\xmemory
; File C:\Program Files\Microsoft Visual Studio\2022\Community\VC\Tools\MSVC\14.44.35207\include\vector
; File C:\Program Files\Microsoft Visual Studio\2022\Community\VC\Tools\MSVC\14.44.35207\include\xmemory
; File C:\Program Files\Microsoft Visual Studio\2022\Community\VC\Tools\MSVC\14.44.35207\include\vector
;	COMDAT ?resize@?$vector@EV?$allocator@E@std@@@std@@QAEXI@Z
_TEXT	SEGMENT
__Oldsize$1$ = -8					; size = 4
tv636 = -4						; size = 4
__Newsize$ = 8						; size = 4
$T5 = 8							; size = 4
?resize@?$vector@EV?$allocator@E@std@@@std@@QAEXI@Z PROC ; std::vector<unsigned char,std::allocator<unsigned char> >::resize, COMDAT
; _this$ = ecx

; 1628 :     _CONSTEXPR20 void resize(_CRT_GUARDOVERFLOW const size_type _Newsize) {

  00000	55		 push	 ebp
  00001	8b ec		 mov	 ebp, esp
  00003	83 ec 08	 sub	 esp, 8
  00006	53		 push	 ebx
  00007	8b d9		 mov	 ebx, ecx
  00009	56		 push	 esi

; 1596 :         if (_Newsize < _Oldsize) { // trim

  0000a	8b 75 08	 mov	 esi, DWORD PTR __Newsize$[ebp]

; 1628 :     _CONSTEXPR20 void resize(_CRT_GUARDOVERFLOW const size_type _Newsize) {

  0000d	57		 push	 edi

; 1595 :         const auto _Oldsize = static_cast<size_type>(_Mylast - _Myfirst);

  0000e	8b 7b 04	 mov	 edi, DWORD PTR [ebx+4]
  00011	8b c7		 mov	 eax, edi
  00013	8b 13		 mov	 edx, DWORD PTR [ebx]
  00015	2b c2		 sub	 eax, edx
  00017	89 45 f8	 mov	 DWORD PTR __Oldsize$1$[ebp], eax

; 1596 :         if (_Newsize < _Oldsize) { // trim

  0001a	3b f0		 cmp	 esi, eax
  0001c	73 0f		 jae	 SHORT $LN4@resize
  0001e	5f		 pop	 edi

; 1597 :             const pointer _Newlast = _Myfirst + _Newsize;

  0001f	8d 04 32	 lea	 eax, DWORD PTR [edx+esi]

; 1629 :         // trim or append value-initialized elements, provide strong guarantee
; 1630 :         _Resize(_Newsize, _Value_init_tag{});
; 1631 :     }

  00022	5e		 pop	 esi

; 1601 :             _Mylast = _Newlast;

  00023	89 43 04	 mov	 DWORD PTR [ebx+4], eax

; 1629 :         // trim or append value-initialized elements, provide strong guarantee
; 1630 :         _Resize(_Newsize, _Value_init_tag{});
; 1631 :     }

  00026	5b		 pop	 ebx
  00027	8b e5		 mov	 esp, ebp
  00029	5d		 pop	 ebp
  0002a	c2 04 00	 ret	 4
$LN4@resize:

; 1605 :         if (_Newsize > _Oldsize) { // append

  0002d	0f 86 a7 00 00
	00		 jbe	 $LN5@resize

; 1606 :             const auto _Oldcapacity = static_cast<size_type>(_My_data._Myend - _Myfirst);

  00033	8b 4b 08	 mov	 ecx, DWORD PTR [ebx+8]
  00036	2b ca		 sub	 ecx, edx

; 1607 :             if (_Newsize > _Oldcapacity) { // reallocate

  00038	3b f1		 cmp	 esi, ecx
  0003a	0f 86 89 00 00
	00		 jbe	 $LN6@resize

; 1553 :         if (_Newsize > max_size()) {

  00040	81 fe ff ff ff
	7f		 cmp	 esi, 2147483647		; 7fffffffH
  00046	0f 87 97 00 00
	00		 ja	 $LN123@resize

; 2011 :         if (_Oldcapacity > _Max - _Oldcapacity / 2) {

  0004c	8b d1		 mov	 edx, ecx
  0004e	b8 ff ff ff 7f	 mov	 eax, 2147483647		; 7fffffffH
  00053	d1 ea		 shr	 edx, 1
  00055	2b c2		 sub	 eax, edx
  00057	3b c8		 cmp	 ecx, eax
  00059	76 0d		 jbe	 SHORT $LN13@resize

; 2012 :             return _Max; // geometric growth would overflow

  0005b	bf ff ff ff 7f	 mov	 edi, 2147483647		; 7fffffffH
; File C:\Program Files\Microsoft Visual Studio\2022\Community\VC\Tools\MSVC\14.44.35207\include\xmemory

; 253  :             return _Allocate_manually_vector_aligned<_Traits>(_Bytes);

  00060	57		 push	 edi
  00061	e8 00 00 00 00	 call	 ??$_Allocate_manually_vector_aligned@U_Default_allocate_traits@std@@@std@@YAPAXI@Z ; std::_Allocate_manually_vector_aligned<std::_Default_allocate_traits>
  00066	eb 23		 jmp	 SHORT $LN121@resize
$LN13@resize:
; File C:\Program Files\Microsoft Visual Studio\2022\Community\VC\Tools\MSVC\14.44.35207\include\vector

; 2015 :         const size_type _Geometric = _Oldcapacity + _Oldcapacity / 2;

  00068	8d 3c 0a	 lea	 edi, DWORD PTR [edx+ecx]

; 2016 : 
; 2017 :         if (_Geometric < _Newsize) {

  0006b	3b fe		 cmp	 edi, esi
  0006d	0f 42 fe	 cmovb	 edi, esi
; File C:\Program Files\Microsoft Visual Studio\2022\Community\VC\Tools\MSVC\14.44.35207\include\xmemory

; 227  :     if (_Bytes == 0) {

  00070	8b c7		 mov	 eax, edi
  00072	85 ff		 test	 edi, edi
  00074	74 18		 je	 SHORT $LN120@resize
$LN24@resize:

; 228  :         return nullptr;
; 229  :     }
; 230  : 
; 231  : #if _HAS_CXX20 // TRANSITION, GH-1532
; 232  :     if (_STD is_constant_evaluated()) {
; 233  :         return _Traits::_Allocate(_Bytes);
; 234  :     }
; 235  : #endif // _HAS_CXX20
; 236  : 
; 237  : #ifdef __cpp_aligned_new
; 238  :     if constexpr (_Align > __STDCPP_DEFAULT_NEW_ALIGNMENT__) {
; 239  :         size_t _Passed_align = _Align;
; 240  : #if defined(_M_IX86) || defined(_M_X64)
; 241  :         if (_Bytes >= _Big_allocation_threshold) {
; 242  :             // boost the alignment of big allocations to help autovectorization
; 243  :             _Passed_align = (_STD max)(_Align, _Big_allocation_alignment);
; 244  :         }
; 245  : #endif // defined(_M_IX86) || defined(_M_X64)
; 246  :         return _Traits::_Allocate_aligned(_Bytes, _Passed_align);
; 247  :     } else
; 248  : #endif // defined(__cpp_aligned_new)
; 249  :     {
; 250  : #if defined(_M_IX86) || defined(_M_X64)
; 251  :         if (_Bytes >= _Big_allocation_threshold) {

  00076	3d 00 10 00 00	 cmp	 eax, 4096		; 00001000H
  0007b	72 08		 jb	 SHORT $LN26@resize

; 253  :             return _Allocate_manually_vector_aligned<_Traits>(_Bytes);

  0007d	57		 push	 edi
  0007e	e8 00 00 00 00	 call	 ??$_Allocate_manually_vector_aligned@U_Default_allocate_traits@std@@@std@@YAPAXI@Z ; std::_Allocate_manually_vector_aligned<std::_Default_allocate_traits>
  00083	eb 06		 jmp	 SHORT $LN121@resize
$LN26@resize:

; 136  :         return ::operator new(_Bytes);

  00085	50		 push	 eax
  00086	e8 00 00 00 00	 call	 ??2@YAPAXI@Z		; operator new
$LN121@resize:
; File C:\Program Files\Microsoft Visual Studio\2022\Community\VC\Tools\MSVC\14.44.35207\include\vector

; 1566 :         const pointer _Appended_first = _Newvec + _Oldsize;

  0008b	83 c4 04	 add	 esp, 4
$LN120@resize:
  0008e	8b 55 f8	 mov	 edx, DWORD PTR __Oldsize$1$[ebp]
  00091	89 45 08	 mov	 DWORD PTR $T5[ebp], eax
  00094	8d 0c 10	 lea	 ecx, DWORD PTR [eax+edx]

; 1567 : 
; 1568 :         _Reallocation_guard _Guard{_Al, _Newvec, _Newcapacity, _Appended_first, _Appended_first};
; 1569 :         auto& _Appended_last = _Guard._Constructed_last;
; 1570 : 
; 1571 :         if constexpr (is_same_v<_Ty2, _Ty>) {
; 1572 :             _Appended_last = _Uninitialized_fill_n(_Appended_first, _Newsize - _Oldsize, _Val, _Al);
; 1573 :         } else {
; 1574 :             _STL_INTERNAL_STATIC_ASSERT(is_same_v<_Ty2, _Value_init_tag>);
; 1575 :             _Appended_last = _Uninitialized_value_construct_n(_Appended_first, _Newsize - _Oldsize, _Al);

  00097	8b c6		 mov	 eax, esi
  00099	2b c2		 sub	 eax, edx
; File C:\Program Files\Microsoft Visual Studio\2022\Community\VC\Tools\MSVC\14.44.35207\include\xmemory

; 2087 :             _Zero_range(_PFirst, _PFirst + _Count);

  0009b	03 c1		 add	 eax, ecx
  0009d	50		 push	 eax
  0009e	51		 push	 ecx
  0009f	e8 00 00 00 00	 call	 ??$_Zero_range@PAE@std@@YAPAEQAE0@Z ; std::_Zero_range<unsigned char *>

; 1992 :             _STD _Copy_memmove(_UFirst, _ULast, _STD _Unfancy(_Dest));

  000a4	ff 75 08	 push	 DWORD PTR $T5[ebp]
  000a7	ff 73 04	 push	 DWORD PTR [ebx+4]
  000aa	ff 33		 push	 DWORD PTR [ebx]
  000ac	e8 00 00 00 00	 call	 ??$_Copy_memmove@PAEPAE@std@@YAPAEPAE00@Z ; std::_Copy_memmove<unsigned char *,unsigned char *>
  000b1	83 c4 14	 add	 esp, 20			; 00000014H
; File C:\Program Files\Microsoft Visual Studio\2022\Community\VC\Tools\MSVC\14.44.35207\include\vector

; 1585 :         _Change_array(_Newvec, _Newsize, _Newcapacity);

  000b4	8b cb		 mov	 ecx, ebx
  000b6	57		 push	 edi
  000b7	56		 push	 esi
  000b8	ff 75 08	 push	 DWORD PTR $T5[ebp]
  000bb	e8 00 00 00 00	 call	 ?_Change_array@?$vector@EV?$allocator@E@std@@@std@@AAEXQAEII@Z ; std::vector<unsigned char,std::allocator<unsigned char> >::_Change_array
  000c0	5f		 pop	 edi

; 1629 :         // trim or append value-initialized elements, provide strong guarantee
; 1630 :         _Resize(_Newsize, _Value_init_tag{});
; 1631 :     }

  000c1	5e		 pop	 esi
  000c2	5b		 pop	 ebx
  000c3	8b e5		 mov	 esp, ebp
  000c5	5d		 pop	 ebp
  000c6	c2 04 00	 ret	 4
$LN6@resize:

; 1618 :                 _Mylast = _Uninitialized_value_construct_n(_Oldlast, _Newsize - _Oldsize, _Al);

  000c9	2b f0		 sub	 esi, eax
; File C:\Program Files\Microsoft Visual Studio\2022\Community\VC\Tools\MSVC\14.44.35207\include\xmemory

; 2087 :             _Zero_range(_PFirst, _PFirst + _Count);

  000cb	03 f7		 add	 esi, edi
  000cd	56		 push	 esi
  000ce	57		 push	 edi
  000cf	e8 00 00 00 00	 call	 ??$_Zero_range@PAE@std@@YAPAEQAE0@Z ; std::_Zero_range<unsigned char *>
  000d4	83 c4 08	 add	 esp, 8
; File C:\Program Files\Microsoft Visual Studio\2022\Community\VC\Tools\MSVC\14.44.35207\include\vector

; 1618 :                 _Mylast = _Uninitialized_value_construct_n(_Oldlast, _Newsize - _Oldsize, _Al);

  000d7	89 73 04	 mov	 DWORD PTR [ebx+4], esi
$LN5@resize:
  000da	5f		 pop	 edi

; 1629 :         // trim or append value-initialized elements, provide strong guarantee
; 1630 :         _Resize(_Newsize, _Value_init_tag{});
; 1631 :     }

  000db	5e		 pop	 esi
  000dc	5b		 pop	 ebx
  000dd	8b e5		 mov	 esp, ebp
  000df	5d		 pop	 ebp
  000e0	c2 04 00	 ret	 4
$LN123@resize:

; 1554 :             _Xlength();

  000e3	e8 00 00 00 00	 call	 ?_Xlength@?$vector@EV?$allocator@E@std@@@std@@CAXXZ ; std::vector<unsigned char,std::allocator<unsigned char> >::_Xlength
$LN119@resize:
  000e8	cc		 int	 3
?resize@?$vector@EV?$allocator@E@std@@@std@@QAEXI@Z ENDP ; std::vector<unsigned char,std::allocator<unsigned char> >::resize
_TEXT	ENDS
; Function compile flags: /Ogtp
; File C:\Program Files\Microsoft Visual Studio\2022\Community\VC\Tools\MSVC\14.44.35207\include\vector
;	COMDAT ??1?$vector@EV?$allocator@E@std@@@std@@QAE@XZ
_TEXT	SEGMENT
??1?$vector@EV?$allocator@E@std@@@std@@QAE@XZ PROC	; std::vector<unsigned char,std::allocator<unsigned char> >::~vector<unsigned char,std::allocator<unsigned char> >, COMDAT
; _this$ = ecx

; 830  :         _Tidy();

  00000	e9 00 00 00 00	 jmp	 ?_Tidy@?$vector@EV?$allocator@E@std@@@std@@AAEXXZ ; std::vector<unsigned char,std::allocator<unsigned char> >::_Tidy
??1?$vector@EV?$allocator@E@std@@@std@@QAE@XZ ENDP	; std::vector<unsigned char,std::allocator<unsigned char> >::~vector<unsigned char,std::allocator<unsigned char> >
_TEXT	ENDS
; Function compile flags: /Ogtp
; File C:\Program Files\Microsoft Visual Studio\2022\Community\VC\Tools\MSVC\14.44.35207\include\vector
;	COMDAT ??0?$vector@EV?$allocator@E@std@@@std@@QAE@XZ
_TEXT	SEGMENT
??0?$vector@EV?$allocator@E@std@@@std@@QAE@XZ PROC	; std::vector<unsigned char,std::allocator<unsigned char> >::vector<unsigned char,std::allocator<unsigned char> >, COMDAT
; _this$ = ecx

; 400  :     _CONSTEXPR20 _Vector_val() noexcept : _Myfirst(), _Mylast(), _Myend() {}

  00000	c7 01 00 00 00
	00		 mov	 DWORD PTR [ecx], 0

; 671  :         _Mypair._Myval2._Alloc_proxy(_GET_PROXY_ALLOCATOR(_Alty, _Getal()));
; 672  :     }

  00006	8b c1		 mov	 eax, ecx

; 400  :     _CONSTEXPR20 _Vector_val() noexcept : _Myfirst(), _Mylast(), _Myend() {}

  00008	c7 41 04 00 00
	00 00		 mov	 DWORD PTR [ecx+4], 0
  0000f	c7 41 08 00 00
	00 00		 mov	 DWORD PTR [ecx+8], 0

; 671  :         _Mypair._Myval2._Alloc_proxy(_GET_PROXY_ALLOCATOR(_Alty, _Getal()));
; 672  :     }

  00016	c3		 ret	 0
??0?$vector@EV?$allocator@E@std@@@std@@QAE@XZ ENDP	; std::vector<unsigned char,std::allocator<unsigned char> >::vector<unsigned char,std::allocator<unsigned char> >
_TEXT	ENDS
; Function compile flags: /Ogtp
; File C:\Program Files\Microsoft Visual Studio\2022\Community\VC\Tools\MSVC\14.44.35207\include\xtree
;	COMDAT ??0?$_Tree_iterator@V?$_Tree_val@U?$_Tree_simple_types@U?$pair@$$CBKPAVCGuildMarkImage@@@std@@@std@@@std@@@std@@QAE@PAU?$_Tree_node@U?$pair@$$CBKPAVCGuildMarkImage@@@std@@PAX@1@PBV?$_Tree_val@U?$_Tree_simple_types@U?$pair@$$CBKPAVCGuildMarkImage@@@std@@@std@@@1@@Z
_TEXT	SEGMENT
___param0$ = 8						; size = 4
___param1$dead$ = 12					; size = 4
??0?$_Tree_iterator@V?$_Tree_val@U?$_Tree_simple_types@U?$pair@$$CBKPAVCGuildMarkImage@@@std@@@std@@@std@@@std@@QAE@PAU?$_Tree_node@U?$pair@$$CBKPAVCGuildMarkImage@@@std@@PAX@1@PBV?$_Tree_val@U?$_Tree_simple_types@U?$pair@$$CBKPAVCGuildMarkImage@@@std@@@std@@@1@@Z PROC ; std::_Tree_iterator<std::_Tree_val<std::_Tree_simple_types<std::pair<unsigned long const ,CGuildMarkImage *> > > >::_Tree_iterator<std::_Tree_val<std::_Tree_simple_types<std::pair<unsigned long const ,CGuildMarkImage *> > > >, COMDAT
; _this$ = ecx
  00000	55		 push	 ebp
  00001	8b ec		 mov	 ebp, esp

; 37   :     _Tree_unchecked_const_iterator(_Nodeptr _Pnode, const _Mytree* _Plist) noexcept : _Ptr(_Pnode) {

  00003	8b 45 08	 mov	 eax, DWORD PTR ___param0$[ebp]
  00006	89 01		 mov	 DWORD PTR [ecx], eax
  00008	8b c1		 mov	 eax, ecx
  0000a	5d		 pop	 ebp
  0000b	c2 08 00	 ret	 8
??0?$_Tree_iterator@V?$_Tree_val@U?$_Tree_simple_types@U?$pair@$$CBKPAVCGuildMarkImage@@@std@@@std@@@std@@@std@@QAE@PAU?$_Tree_node@U?$pair@$$CBKPAVCGuildMarkImage@@@std@@PAX@1@PBV?$_Tree_val@U?$_Tree_simple_types@U?$pair@$$CBKPAVCGuildMarkImage@@@std@@@std@@@1@@Z ENDP ; std::_Tree_iterator<std::_Tree_val<std::_Tree_simple_types<std::pair<unsigned long const ,CGuildMarkImage *> > > >::_Tree_iterator<std::_Tree_val<std::_Tree_simple_types<std::pair<unsigned long const ,CGuildMarkImage *> > > >
_TEXT	ENDS
; Function compile flags: /Ogtp
; File D:\_m2work\Server Client TMP4\ClientVS22\source\eterBase\Singleton.h
;	COMDAT ??_G?$singleton@VCGuildMarkManager@@@@UAEPAXI@Z
_TEXT	SEGMENT
___flags$ = 8						; size = 4
??_G?$singleton@VCGuildMarkManager@@@@UAEPAXI@Z PROC	; singleton<CGuildMarkManager>::`scalar deleting destructor', COMDAT
; _this$ = ecx
  00000	55		 push	 ebp
  00001	8b ec		 mov	 ebp, esp
  00003	f6 45 08 01	 test	 BYTE PTR ___flags$[ebp], 1

; 60   : 	{ 

  00007	56		 push	 esi
  00008	8b f1		 mov	 esi, ecx

; 61   : 		assert(ms_singleton);
; 62   : 		ms_singleton = 0; 

  0000a	c7 05 00 00 00
	00 00 00 00 00	 mov	 DWORD PTR ?ms_singleton@?$singleton@VCGuildMarkManager@@@@0PAVCGuildMarkManager@@A, 0 ; singleton<CGuildMarkManager>::ms_singleton
  00014	c7 06 00 00 00
	00		 mov	 DWORD PTR [esi], OFFSET ??_7?$singleton@VCGuildMarkManager@@@@6B@
  0001a	74 0b		 je	 SHORT $LN8@scalar
  0001c	6a 04		 push	 4
  0001e	56		 push	 esi
  0001f	e8 00 00 00 00	 call	 ??3@YAXPAXI@Z		; operator delete
  00024	83 c4 08	 add	 esp, 8
$LN8@scalar:
  00027	8b c6		 mov	 eax, esi
  00029	5e		 pop	 esi
  0002a	5d		 pop	 ebp
  0002b	c2 04 00	 ret	 4
??_G?$singleton@VCGuildMarkManager@@@@UAEPAXI@Z ENDP	; singleton<CGuildMarkManager>::`scalar deleting destructor'
_TEXT	ENDS
; Function compile flags: /Ogtp
; File C:\Program Files\Microsoft Visual Studio\2022\Community\VC\Tools\MSVC\14.44.35207\include\xtree
;	COMDAT ??0?$_Tree_const_iterator@V?$_Tree_val@U?$_Tree_simple_types@U?$pair@$$CBKPAVCGuildMarkImage@@@std@@@std@@@std@@@std@@QAE@PAU?$_Tree_node@U?$pair@$$CBKPAVCGuildMarkImage@@@std@@PAX@1@PBV?$_Tree_val@U?$_Tree_simple_types@U?$pair@$$CBKPAVCGuildMarkImage@@@std@@@std@@@1@@Z
_TEXT	SEGMENT
___param0$ = 8						; size = 4
___param1$dead$ = 12					; size = 4
??0?$_Tree_const_iterator@V?$_Tree_val@U?$_Tree_simple_types@U?$pair@$$CBKPAVCGuildMarkImage@@@std@@@std@@@std@@@std@@QAE@PAU?$_Tree_node@U?$pair@$$CBKPAVCGuildMarkImage@@@std@@PAX@1@PBV?$_Tree_val@U?$_Tree_simple_types@U?$pair@$$CBKPAVCGuildMarkImage@@@std@@@std@@@1@@Z PROC ; std::_Tree_const_iterator<std::_Tree_val<std::_Tree_simple_types<std::pair<unsigned long const ,CGuildMarkImage *> > > >::_Tree_const_iterator<std::_Tree_val<std::_Tree_simple_types<std::pair<unsigned long const ,CGuildMarkImage *> > > >, COMDAT
; _this$ = ecx
  00000	55		 push	 ebp
  00001	8b ec		 mov	 ebp, esp

; 37   :     _Tree_unchecked_const_iterator(_Nodeptr _Pnode, const _Mytree* _Plist) noexcept : _Ptr(_Pnode) {

  00003	8b 45 08	 mov	 eax, DWORD PTR ___param0$[ebp]
  00006	89 01		 mov	 DWORD PTR [ecx], eax
  00008	8b c1		 mov	 eax, ecx
  0000a	5d		 pop	 ebp
  0000b	c2 08 00	 ret	 8
??0?$_Tree_const_iterator@V?$_Tree_val@U?$_Tree_simple_types@U?$pair@$$CBKPAVCGuildMarkImage@@@std@@@std@@@std@@@std@@QAE@PAU?$_Tree_node@U?$pair@$$CBKPAVCGuildMarkImage@@@std@@PAX@1@PBV?$_Tree_val@U?$_Tree_simple_types@U?$pair@$$CBKPAVCGuildMarkImage@@@std@@@std@@@1@@Z ENDP ; std::_Tree_const_iterator<std::_Tree_val<std::_Tree_simple_types<std::pair<unsigned long const ,CGuildMarkImage *> > > >::_Tree_const_iterator<std::_Tree_val<std::_Tree_simple_types<std::pair<unsigned long const ,CGuildMarkImage *> > > >
_TEXT	ENDS
; Function compile flags: /Ogtp
; File C:\Program Files\Microsoft Visual Studio\2022\Community\VC\Tools\MSVC\14.44.35207\include\type_traits
;	COMDAT ??$forward@AAPAVCGuildMarkImage@@@std@@YAAAPAVCGuildMarkImage@@AAPAV1@@Z
_TEXT	SEGMENT
??$forward@AAPAVCGuildMarkImage@@@std@@YAAAPAVCGuildMarkImage@@AAPAV1@@Z PROC ; std::forward<CGuildMarkImage * &>, COMDAT
; __Arg$ = ecx

; 1502 :     return static_cast<_Ty&&>(_Arg);

  00000	8b c1		 mov	 eax, ecx

; 1503 : }

  00002	c3		 ret	 0
??$forward@AAPAVCGuildMarkImage@@@std@@YAAAPAVCGuildMarkImage@@AAPAV1@@Z ENDP ; std::forward<CGuildMarkImage * &>
_TEXT	ENDS
; Function compile flags: /Ogtp
; File C:\Program Files\Microsoft Visual Studio\2022\Community\VC\Tools\MSVC\14.44.35207\include\type_traits
;	COMDAT ??$move@AAU?$pair@$$CBKPAVCGuildMarkImage@@@std@@@std@@YA$$QAU?$pair@$$CBKPAVCGuildMarkImage@@@0@AAU10@@Z
_TEXT	SEGMENT
??$move@AAU?$pair@$$CBKPAVCGuildMarkImage@@@std@@@std@@YA$$QAU?$pair@$$CBKPAVCGuildMarkImage@@@0@AAU10@@Z PROC ; std::move<std::pair<unsigned long const ,CGuildMarkImage *> &>, COMDAT
; __Arg$ = ecx

; 1513 :     return static_cast<remove_reference_t<_Ty>&&>(_Arg);

  00000	8b c1		 mov	 eax, ecx

; 1514 : }

  00002	c3		 ret	 0
??$move@AAU?$pair@$$CBKPAVCGuildMarkImage@@@std@@@std@@YA$$QAU?$pair@$$CBKPAVCGuildMarkImage@@@0@AAU10@@Z ENDP ; std::move<std::pair<unsigned long const ,CGuildMarkImage *> &>
_TEXT	ENDS
; Function compile flags: /Ogtp
; File C:\Program Files\Microsoft Visual Studio\2022\Community\VC\Tools\MSVC\14.44.35207\include\xtree
; File C:\Program Files\Microsoft Visual Studio\2022\Community\VC\Tools\MSVC\14.44.35207\include\type_traits
; File C:\Program Files\Microsoft Visual Studio\2022\Community\VC\Tools\MSVC\14.44.35207\include\xtree
; File C:\Program Files\Microsoft Visual Studio\2022\Community\VC\Tools\MSVC\14.44.35207\include\utility
; File C:\Program Files\Microsoft Visual Studio\2022\Community\VC\Tools\MSVC\14.44.35207\include\xtree
; File C:\Program Files\Microsoft Visual Studio\2022\Community\VC\Tools\MSVC\14.44.35207\include\xmemory
; File C:\Program Files\Microsoft Visual Studio\2022\Community\VC\Tools\MSVC\14.44.35207\include\xtree
; File C:\Program Files\Microsoft Visual Studio\2022\Community\VC\Tools\MSVC\14.44.35207\include\xmemory
; File C:\Program Files\Microsoft Visual Studio\2022\Community\VC\Tools\MSVC\14.44.35207\include\xtree
; File C:\Program Files\Microsoft Visual Studio\2022\Community\VC\Tools\MSVC\14.44.35207\include\xmemory
; File C:\Program Files\Microsoft Visual Studio\2022\Community\VC\Tools\MSVC\14.44.35207\include\xtree
; File C:\Program Files\Microsoft Visual Studio\2022\Community\VC\Tools\MSVC\14.44.35207\include\utility
; File C:\Program Files\Microsoft Visual Studio\2022\Community\VC\Tools\MSVC\14.44.35207\include\xtree
; File C:\Program Files\Microsoft Visual Studio\2022\Community\VC\Tools\MSVC\14.44.35207\include\utility
; File C:\Program Files\Microsoft Visual Studio\2022\Community\VC\Tools\MSVC\14.44.35207\include\xtree
;	COMDAT ??$_Emplace@U?$pair@$$CBKPAVCGuildMarkImage@@@std@@@?$_Tree@V?$_Tmap_traits@KPAVCGuildMarkImage@@U?$less@K@std@@V?$allocator@U?$pair@$$CBKPAVCGuildMarkImage@@@std@@@3@$0A@@std@@@std@@IAE?AU?$pair@PAU?$_Tree_node@U?$pair@$$CBKPAVCGuildMarkImage@@@std@@PAX@std@@_N@1@$$QAU?$pair@$$CBKPAVCGuildMarkImage@@@1@@Z
_TEXT	SEGMENT
__Loc$ = -36						; size = 12
$T2 = -24						; size = 12
$T3 = -20						; size = 8
__$EHRec$ = -12						; size = 12
___$ReturnUdt$ = 8					; size = 4
_<_Vals_0>$ = 12					; size = 4
??$_Emplace@U?$pair@$$CBKPAVCGuildMarkImage@@@std@@@?$_Tree@V?$_Tmap_traits@KPAVCGuildMarkImage@@U?$less@K@std@@V?$allocator@U?$pair@$$CBKPAVCGuildMarkImage@@@std@@@3@$0A@@std@@@std@@IAE?AU?$pair@PAU?$_Tree_node@U?$pair@$$CBKPAVCGuildMarkImage@@@std@@PAX@std@@_N@1@$$QAU?$pair@$$CBKPAVCGuildMarkImage@@@1@@Z PROC ; std::_Tree<std::_Tmap_traits<unsigned long,CGuildMarkImage *,std::less<unsigned long>,std::allocator<std::pair<unsigned long const ,CGuildMarkImage *> >,0> >::_Emplace<std::pair<unsigned long const ,CGuildMarkImage *> >, COMDAT
; _this$ = ecx

; 1010 :     pair<_Nodeptr, bool> _Emplace(_Valtys&&... _Vals) {

  00000	55		 push	 ebp
  00001	8b ec		 mov	 ebp, esp
  00003	6a ff		 push	 -1
  00005	68 00 00 00 00	 push	 __ehhandler$??$_Emplace@U?$pair@$$CBKPAVCGuildMarkImage@@@std@@@?$_Tree@V?$_Tmap_traits@KPAVCGuildMarkImage@@U?$less@K@std@@V?$allocator@U?$pair@$$CBKPAVCGuildMarkImage@@@std@@@3@$0A@@std@@@std@@IAE?AU?$pair@PAU?$_Tree_node@U?$pair@$$CBKPAVCGuildMarkImage@@@std@@PAX@std@@_N@1@$$QAU?$pair@$$CBKPAVCGuildMarkImage@@@1@@Z
  0000a	64 a1 00 00 00
	00		 mov	 eax, DWORD PTR fs:0
  00010	50		 push	 eax
  00011	83 ec 1c	 sub	 esp, 28			; 0000001cH
  00014	53		 push	 ebx
  00015	56		 push	 esi
  00016	57		 push	 edi
  00017	a1 00 00 00 00	 mov	 eax, DWORD PTR ___security_cookie
  0001c	33 c5		 xor	 eax, ebp
  0001e	50		 push	 eax
  0001f	8d 45 f4	 lea	 eax, DWORD PTR __$EHRec$[ebp]
  00022	64 a3 00 00 00
	00		 mov	 DWORD PTR fs:0, eax
  00028	8b f9		 mov	 edi, ecx

; 1011 :         using _In_place_key_extractor = typename _Traits::template _In_place_key_extractor<_Valtys...>;
; 1012 :         const auto _Scary             = _Get_scary();
; 1013 :         _Tree_find_result<_Nodeptr> _Loc;
; 1014 :         _Nodeptr _Inserted;
; 1015 :         if constexpr (!_Multi && _In_place_key_extractor::_Extractable) {
; 1016 :             const auto& _Keyval = _In_place_key_extractor::_Extract(_Vals...);
; 1017 :             _Loc                = _Find_lower_bound(_Keyval);

  0002a	8b 5d 0c	 mov	 ebx, DWORD PTR _<_Vals_0>$[ebp]
  0002d	8d 45 e8	 lea	 eax, DWORD PTR $T2[ebp]
  00030	53		 push	 ebx
  00031	50		 push	 eax
  00032	e8 00 00 00 00	 call	 ??$_Find_lower_bound@K@?$_Tree@V?$_Tmap_traits@KPAVCGuildMarkImage@@U?$less@K@std@@V?$allocator@U?$pair@$$CBKPAVCGuildMarkImage@@@std@@@3@$0A@@std@@@std@@IBE?AU?$_Tree_find_result@PAU?$_Tree_node@U?$pair@$$CBKPAVCGuildMarkImage@@@std@@PAX@std@@@1@ABK@Z ; std::_Tree<std::_Tmap_traits<unsigned long,CGuildMarkImage *,std::less<unsigned long>,std::allocator<std::pair<unsigned long const ,CGuildMarkImage *> >,0> >::_Find_lower_bound<unsigned long>
  00037	8b 48 08	 mov	 ecx, DWORD PTR [eax+8]
  0003a	f3 0f 7e 00	 movq	 xmm0, QWORD PTR [eax]
  0003e	66 0f d6 45 dc	 movq	 QWORD PTR __Loc$[ebp], xmm0

; 1624 :         return !_Bound->_Isnil && !_DEBUG_LT_PRED(_Getcomp(), _Keyval, _Traits::_Kfn(_Bound->_Myval));

  00043	80 79 0d 00	 cmp	 BYTE PTR [ecx+13], 0
  00047	75 24		 jne	 SHORT $LN2@Emplace
; File C:\Program Files\Microsoft Visual Studio\2022\Community\VC\Tools\MSVC\14.44.35207\include\type_traits

; 2380 :         return _Left < _Right;

  00049	8b 03		 mov	 eax, DWORD PTR [ebx]
  0004b	3b 41 10	 cmp	 eax, DWORD PTR [ecx+16]
; File C:\Program Files\Microsoft Visual Studio\2022\Community\VC\Tools\MSVC\14.44.35207\include\xtree

; 1624 :         return !_Bound->_Isnil && !_DEBUG_LT_PRED(_Getcomp(), _Keyval, _Traits::_Kfn(_Bound->_Myval));

  0004e	72 1d		 jb	 SHORT $LN2@Emplace
; File C:\Program Files\Microsoft Visual Studio\2022\Community\VC\Tools\MSVC\14.44.35207\include\utility

; 274  :         : first(_STD forward<_Other1>(_Val1)), second(_STD forward<_Other2>(_Val2)) {

  00050	8b 45 08	 mov	 eax, DWORD PTR ___$ReturnUdt$[ebp]
  00053	89 08		 mov	 DWORD PTR [eax], ecx
  00055	c6 40 04 00	 mov	 BYTE PTR [eax+4], 0
; File C:\Program Files\Microsoft Visual Studio\2022\Community\VC\Tools\MSVC\14.44.35207\include\xtree

; 1043 :     }

  00059	8b 4d f4	 mov	 ecx, DWORD PTR __$EHRec$[ebp]
  0005c	64 89 0d 00 00
	00 00		 mov	 DWORD PTR fs:0, ecx
  00063	59		 pop	 ecx
  00064	5f		 pop	 edi
  00065	5e		 pop	 esi
  00066	5b		 pop	 ebx
  00067	8b e5		 mov	 esp, ebp
  00069	5d		 pop	 ebp
  0006a	c2 08 00	 ret	 8
$LN2@Emplace:

; 1648 :         if (max_size() == _Get_scary()->_Mysize) {

  0006d	81 7f 04 aa aa
	aa 0a		 cmp	 DWORD PTR [edi+4], 178956970 ; 0aaaaaaaH
  00074	74 63		 je	 SHORT $LN92@Emplace

; 1018 :             if (_Lower_bound_duplicate(_Loc._Bound, _Keyval)) {
; 1019 :                 return {_Loc._Bound, false};
; 1020 :             }
; 1021 : 
; 1022 :             _Check_grow_by_1();
; 1023 :             _Inserted = _Tree_temp_node<_Alnode>(_Getal(), _Scary->_Myhead, _STD forward<_Valtys>(_Vals)...)._Release();

  00076	8b 37		 mov	 esi, DWORD PTR [edi]
; File C:\Program Files\Microsoft Visual Studio\2022\Community\VC\Tools\MSVC\14.44.35207\include\xmemory

; 1160 :     _CONSTEXPR20 explicit _Alloc_construct_ptr(_Alloc& _Al_) : _Al(_Al_), _Ptr(nullptr) {}

  00078	89 7d ec	 mov	 DWORD PTR $T3[ebp], edi
; File C:\Program Files\Microsoft Visual Studio\2022\Community\VC\Tools\MSVC\14.44.35207\include\xtree

; 808  :     explicit _Tree_temp_node_alloc(_Alnode& _Al_) : _Alloc_construct_ptr<_Alnode>(_Al_) {

  0007b	c7 45 fc 00 00
	00 00		 mov	 DWORD PTR __$EHRec$[ebp+8], 0
; File C:\Program Files\Microsoft Visual Studio\2022\Community\VC\Tools\MSVC\14.44.35207\include\xmemory

; 136  :         return ::operator new(_Bytes);

  00082	6a 18		 push	 24			; 00000018H

; 1167 :         _Ptr = nullptr; // if allocate throws, prevents double-free

  00084	c7 45 f0 00 00
	00 00		 mov	 DWORD PTR $T3[ebp+4], 0

; 136  :         return ::operator new(_Bytes);

  0008b	e8 00 00 00 00	 call	 ??2@YAPAXI@Z		; operator new
; File C:\Program Files\Microsoft Visual Studio\2022\Community\VC\Tools\MSVC\14.44.35207\include\xtree

; 830  :         _Alnode_traits::construct(this->_Al, _STD addressof(this->_Ptr->_Myval), _STD forward<_Valtys>(_Vals)...);

  00090	8b 0b		 mov	 ecx, DWORD PTR [ebx]
; File C:\Program Files\Microsoft Visual Studio\2022\Community\VC\Tools\MSVC\14.44.35207\include\xmemory

; 136  :         return ::operator new(_Bytes);

  00092	83 c4 04	 add	 esp, 4
; File C:\Program Files\Microsoft Visual Studio\2022\Community\VC\Tools\MSVC\14.44.35207\include\xtree

; 830  :         _Alnode_traits::construct(this->_Al, _STD addressof(this->_Ptr->_Myval), _STD forward<_Valtys>(_Vals)...);

  00095	8b 53 04	 mov	 edx, DWORD PTR [ebx+4]
  00098	89 48 10	 mov	 DWORD PTR [eax+16], ecx

; 1042 :         return {_Scary->_Insert_node(_Loc._Location, _Inserted), true};

  0009b	8b cf		 mov	 ecx, edi
  0009d	50		 push	 eax
  0009e	ff 75 e0	 push	 DWORD PTR __Loc$[ebp+4]

; 830  :         _Alnode_traits::construct(this->_Al, _STD addressof(this->_Ptr->_Myval), _STD forward<_Valtys>(_Vals)...);

  000a1	89 50 14	 mov	 DWORD PTR [eax+20], edx

; 1042 :         return {_Scary->_Insert_node(_Loc._Location, _Inserted), true};

  000a4	ff 75 dc	 push	 DWORD PTR __Loc$[ebp]

; 831  :         _Construct_in_place(this->_Ptr->_Left, _Myhead);

  000a7	89 30		 mov	 DWORD PTR [eax], esi

; 832  :         _Construct_in_place(this->_Ptr->_Parent, _Myhead);

  000a9	89 70 04	 mov	 DWORD PTR [eax+4], esi

; 833  :         _Construct_in_place(this->_Ptr->_Right, _Myhead);

  000ac	89 70 08	 mov	 DWORD PTR [eax+8], esi

; 834  :         this->_Ptr->_Color = _Red;

  000af	66 c7 40 0c 00
	00		 mov	 WORD PTR [eax+12], 0

; 1042 :         return {_Scary->_Insert_node(_Loc._Location, _Inserted), true};

  000b5	e8 00 00 00 00	 call	 ?_Insert_node@?$_Tree_val@U?$_Tree_simple_types@U?$pair@$$CBKPAVCGuildMarkImage@@@std@@@std@@@std@@QAEPAU?$_Tree_node@U?$pair@$$CBKPAVCGuildMarkImage@@@std@@PAX@2@U?$_Tree_id@PAU?$_Tree_node@U?$pair@$$CBKPAVCGuildMarkImage@@@std@@PAX@std@@@2@QAU32@@Z ; std::_Tree_val<std::_Tree_simple_types<std::pair<unsigned long const ,CGuildMarkImage *> > >::_Insert_node
; File C:\Program Files\Microsoft Visual Studio\2022\Community\VC\Tools\MSVC\14.44.35207\include\utility

; 274  :         : first(_STD forward<_Other1>(_Val1)), second(_STD forward<_Other2>(_Val2)) {

  000ba	8b 4d 08	 mov	 ecx, DWORD PTR ___$ReturnUdt$[ebp]
  000bd	89 01		 mov	 DWORD PTR [ecx], eax
; File C:\Program Files\Microsoft Visual Studio\2022\Community\VC\Tools\MSVC\14.44.35207\include\xtree

; 1042 :         return {_Scary->_Insert_node(_Loc._Location, _Inserted), true};

  000bf	8b c1		 mov	 eax, ecx
; File C:\Program Files\Microsoft Visual Studio\2022\Community\VC\Tools\MSVC\14.44.35207\include\utility

; 274  :         : first(_STD forward<_Other1>(_Val1)), second(_STD forward<_Other2>(_Val2)) {

  000c1	c6 41 04 01	 mov	 BYTE PTR [ecx+4], 1
; File C:\Program Files\Microsoft Visual Studio\2022\Community\VC\Tools\MSVC\14.44.35207\include\xtree

; 1043 :     }

  000c5	8b 4d f4	 mov	 ecx, DWORD PTR __$EHRec$[ebp]
  000c8	64 89 0d 00 00
	00 00		 mov	 DWORD PTR fs:0, ecx
  000cf	59		 pop	 ecx
  000d0	5f		 pop	 edi
  000d1	5e		 pop	 esi
  000d2	5b		 pop	 ebx
  000d3	8b e5		 mov	 esp, ebp
  000d5	5d		 pop	 ebp
  000d6	c2 08 00	 ret	 8
$LN92@Emplace:

; 1649 :             _Throw_tree_length_error();

  000d9	e8 00 00 00 00	 call	 ?_Throw_tree_length_error@std@@YAXXZ ; std::_Throw_tree_length_error
$LN90@Emplace:
  000de	cc		 int	 3
_TEXT	ENDS
;	COMDAT text$x
text$x	SEGMENT
__unwindfunclet$??$_Emplace@U?$pair@$$CBKPAVCGuildMarkImage@@@std@@@?$_Tree@V?$_Tmap_traits@KPAVCGuildMarkImage@@U?$less@K@std@@V?$allocator@U?$pair@$$CBKPAVCGuildMarkImage@@@std@@@3@$0A@@std@@@std@@IAE?AU?$pair@PAU?$_Tree_node@U?$pair@$$CBKPAVCGuildMarkImage@@@std@@PAX@std@@_N@1@$$QAU?$pair@$$CBKPAVCGuildMarkImage@@@1@@Z$2:
  00000	8d 4d ec	 lea	 ecx, DWORD PTR $T3[ebp]
  00003	e9 00 00 00 00	 jmp	 ??1?$_Alloc_construct_ptr@V?$allocator@U?$_Tree_node@U?$pair@$$CBKPAVCGuildMarkImage@@@std@@PAX@std@@@std@@@std@@QAE@XZ ; std::_Alloc_construct_ptr<std::allocator<std::_Tree_node<std::pair<unsigned long const ,CGuildMarkImage *>,void *> > >::~_Alloc_construct_ptr<std::allocator<std::_Tree_node<std::pair<unsigned long const ,CGuildMarkImage *>,void *> > >
  00008	cc		 int	 3
  00009	cc		 int	 3
  0000a	cc		 int	 3
  0000b	cc		 int	 3
  0000c	cc		 int	 3
__ehhandler$??$_Emplace@U?$pair@$$CBKPAVCGuildMarkImage@@@std@@@?$_Tree@V?$_Tmap_traits@KPAVCGuildMarkImage@@U?$less@K@std@@V?$allocator@U?$pair@$$CBKPAVCGuildMarkImage@@@std@@@3@$0A@@std@@@std@@IAE?AU?$pair@PAU?$_Tree_node@U?$pair@$$CBKPAVCGuildMarkImage@@@std@@PAX@std@@_N@1@$$QAU?$pair@$$CBKPAVCGuildMarkImage@@@1@@Z:
  0000d	90		 npad	 1
  0000e	90		 npad	 1
  0000f	8b 54 24 08	 mov	 edx, DWORD PTR [esp+8]
  00013	8d 42 0c	 lea	 eax, DWORD PTR [edx+12]
  00016	8b 4a d4	 mov	 ecx, DWORD PTR [edx-44]
  00019	33 c8		 xor	 ecx, eax
  0001b	e8 00 00 00 00	 call	 @__security_check_cookie@4
  00020	b8 00 00 00 00	 mov	 eax, OFFSET __ehfuncinfo$??$_Emplace@U?$pair@$$CBKPAVCGuildMarkImage@@@std@@@?$_Tree@V?$_Tmap_traits@KPAVCGuildMarkImage@@U?$less@K@std@@V?$allocator@U?$pair@$$CBKPAVCGuildMarkImage@@@std@@@3@$0A@@std@@@std@@IAE?AU?$pair@PAU?$_Tree_node@U?$pair@$$CBKPAVCGuildMarkImage@@@std@@PAX@std@@_N@1@$$QAU?$pair@$$CBKPAVCGuildMarkImage@@@1@@Z
  00025	e9 00 00 00 00	 jmp	 ___CxxFrameHandler3
text$x	ENDS
??$_Emplace@U?$pair@$$CBKPAVCGuildMarkImage@@@std@@@?$_Tree@V?$_Tmap_traits@KPAVCGuildMarkImage@@U?$less@K@std@@V?$allocator@U?$pair@$$CBKPAVCGuildMarkImage@@@std@@@3@$0A@@std@@@std@@IAE?AU?$pair@PAU?$_Tree_node@U?$pair@$$CBKPAVCGuildMarkImage@@@std@@PAX@std@@_N@1@$$QAU?$pair@$$CBKPAVCGuildMarkImage@@@1@@Z ENDP ; std::_Tree<std::_Tmap_traits<unsigned long,CGuildMarkImage *,std::less<unsigned long>,std::allocator<std::pair<unsigned long const ,CGuildMarkImage *> >,0> >::_Emplace<std::pair<unsigned long const ,CGuildMarkImage *> >
; Function compile flags: /Ogtp
; File C:\Program Files\Microsoft Visual Studio\2022\Community\VC\Tools\MSVC\14.44.35207\include\utility
;	COMDAT ??$?0V?$_Tree_iterator@V?$_Tree_val@U?$_Tree_simple_types@U?$pair@$$CBKPAVCGuildMarkImage@@@std@@@std@@@std@@@std@@AB_N$0A@@?$pair@V?$_Tree_iterator@V?$_Tree_val@U?$_Tree_simple_types@U?$pair@$$CBKPAVCGuildMarkImage@@@std@@@std@@@std@@@std@@_N@std@@QAE@$$QAV?$_Tree_iterator@V?$_Tree_val@U?$_Tree_simple_types@U?$pair@$$CBKPAVCGuildMarkImage@@@std@@@std@@@std@@@1@AB_N@Z
_TEXT	SEGMENT
__Val1$ = 8						; size = 4
__Val2$ = 12						; size = 4
??$?0V?$_Tree_iterator@V?$_Tree_val@U?$_Tree_simple_types@U?$pair@$$CBKPAVCGuildMarkImage@@@std@@@std@@@std@@@std@@AB_N$0A@@?$pair@V?$_Tree_iterator@V?$_Tree_val@U?$_Tree_simple_types@U?$pair@$$CBKPAVCGuildMarkImage@@@std@@@std@@@std@@@std@@_N@std@@QAE@$$QAV?$_Tree_iterator@V?$_Tree_val@U?$_Tree_simple_types@U?$pair@$$CBKPAVCGuildMarkImage@@@std@@@std@@@std@@@1@AB_N@Z PROC ; std::pair<std::_Tree_iterator<std::_Tree_val<std::_Tree_simple_types<std::pair<unsigned long const ,CGuildMarkImage *> > > >,bool>::pair<std::_Tree_iterator<std::_Tree_val<std::_Tree_simple_types<std::pair<unsigned long const ,CGuildMarkImage *> > > >,bool><std::_Tree_iterator<std::_Tree_val<std::_Tree_simple_types<std::pair<unsigned long const ,CGuildMarkImage *> > > >,bool const &,0>, COMDAT
; _this$ = ecx

; 274  :         : first(_STD forward<_Other1>(_Val1)), second(_STD forward<_Other2>(_Val2)) {

  00000	55		 push	 ebp
  00001	8b ec		 mov	 ebp, esp
  00003	8b 45 08	 mov	 eax, DWORD PTR __Val1$[ebp]
  00006	8b 00		 mov	 eax, DWORD PTR [eax]
  00008	89 01		 mov	 DWORD PTR [ecx], eax
  0000a	8b 45 0c	 mov	 eax, DWORD PTR __Val2$[ebp]
  0000d	8a 00		 mov	 al, BYTE PTR [eax]
  0000f	88 41 04	 mov	 BYTE PTR [ecx+4], al

; 275  :     }

  00012	8b c1		 mov	 eax, ecx
  00014	5d		 pop	 ebp
  00015	c2 08 00	 ret	 8
??$?0V?$_Tree_iterator@V?$_Tree_val@U?$_Tree_simple_types@U?$pair@$$CBKPAVCGuildMarkImage@@@std@@@std@@@std@@@std@@AB_N$0A@@?$pair@V?$_Tree_iterator@V?$_Tree_val@U?$_Tree_simple_types@U?$pair@$$CBKPAVCGuildMarkImage@@@std@@@std@@@std@@@std@@_N@std@@QAE@$$QAV?$_Tree_iterator@V?$_Tree_val@U?$_Tree_simple_types@U?$pair@$$CBKPAVCGuildMarkImage@@@std@@@std@@@std@@@1@AB_N@Z ENDP ; std::pair<std::_Tree_iterator<std::_Tree_val<std::_Tree_simple_types<std::pair<unsigned long const ,CGuildMarkImage *> > > >,bool>::pair<std::_Tree_iterator<std::_Tree_val<std::_Tree_simple_types<std::pair<unsigned long const ,CGuildMarkImage *> > > >,bool><std::_Tree_iterator<std::_Tree_val<std::_Tree_simple_types<std::pair<unsigned long const ,CGuildMarkImage *> > > >,bool const &,0>
_TEXT	ENDS
; Function compile flags: /Ogtp
; File C:\Program Files\Microsoft Visual Studio\2022\Community\VC\Tools\MSVC\14.44.35207\include\xtree
; File C:\Program Files\Microsoft Visual Studio\2022\Community\VC\Tools\MSVC\14.44.35207\include\xmemory
; File C:\Program Files\Microsoft Visual Studio\2022\Community\VC\Tools\MSVC\14.44.35207\include\xtree
;	COMDAT ??$_Erase_head@V?$allocator@U?$_Tree_node@U?$pair@$$CBKUTGuildSymbol@CGuildMarkManager@@@std@@PAX@std@@@std@@@?$_Tree_val@U?$_Tree_simple_types@U?$pair@$$CBKUTGuildSymbol@CGuildMarkManager@@@std@@@std@@@std@@QAEXAAV?$allocator@U?$_Tree_node@U?$pair@$$CBKUTGuildSymbol@CGuildMarkManager@@@std@@PAX@std@@@1@@Z
_TEXT	SEGMENT
__Al$ = 8						; size = 4
??$_Erase_head@V?$allocator@U?$_Tree_node@U?$pair@$$CBKUTGuildSymbol@CGuildMarkManager@@@std@@PAX@std@@@std@@@?$_Tree_val@U?$_Tree_simple_types@U?$pair@$$CBKUTGuildSymbol@CGuildMarkManager@@@std@@@std@@@std@@QAEXAAV?$allocator@U?$_Tree_node@U?$pair@$$CBKUTGuildSymbol@CGuildMarkManager@@@std@@PAX@std@@@1@@Z PROC ; std::_Tree_val<std::_Tree_simple_types<std::pair<unsigned long const ,CGuildMarkManager::TGuildSymbol> > >::_Erase_head<std::allocator<std::_Tree_node<std::pair<unsigned long const ,CGuildMarkManager::TGuildSymbol>,void *> > >, COMDAT
; _this$ = ecx

; 775  :     void _Erase_head(_Alnode& _Al) noexcept {

  00000	55		 push	 ebp
  00001	8b ec		 mov	 ebp, esp
  00003	56		 push	 esi
  00004	8b f1		 mov	 esi, ecx

; 776  :         this->_Orphan_all();
; 777  :         _Erase_tree(_Al, _Myhead->_Parent);

  00006	8b 06		 mov	 eax, DWORD PTR [esi]
  00008	ff 70 04	 push	 DWORD PTR [eax+4]
  0000b	ff 75 08	 push	 DWORD PTR __Al$[ebp]
  0000e	e8 00 00 00 00	 call	 ??$_Erase_tree@V?$allocator@U?$_Tree_node@U?$pair@$$CBKUTGuildSymbol@CGuildMarkManager@@@std@@PAX@std@@@std@@@?$_Tree_val@U?$_Tree_simple_types@U?$pair@$$CBKUTGuildSymbol@CGuildMarkManager@@@std@@@std@@@std@@QAEXAAV?$allocator@U?$_Tree_node@U?$pair@$$CBKUTGuildSymbol@CGuildMarkManager@@@std@@PAX@std@@@1@PAU?$_Tree_node@U?$pair@$$CBKUTGuildSymbol@CGuildMarkManager@@@std@@PAX@1@@Z ; std::_Tree_val<std::_Tree_simple_types<std::pair<unsigned long const ,CGuildMarkManager::TGuildSymbol> > >::_Erase_tree<std::allocator<std::_Tree_node<std::pair<unsigned long const ,CGuildMarkManager::TGuildSymbol>,void *> > >
; File C:\Program Files\Microsoft Visual Studio\2022\Community\VC\Tools\MSVC\14.44.35207\include\xmemory

; 289  :         ::operator delete(_Ptr, _Bytes);

  00013	6a 24		 push	 36			; 00000024H
  00015	ff 36		 push	 DWORD PTR [esi]
  00017	e8 00 00 00 00	 call	 ??3@YAXPAXI@Z		; operator delete
  0001c	83 c4 08	 add	 esp, 8
  0001f	5e		 pop	 esi
; File C:\Program Files\Microsoft Visual Studio\2022\Community\VC\Tools\MSVC\14.44.35207\include\xtree

; 779  :     }

  00020	5d		 pop	 ebp
  00021	c2 04 00	 ret	 4
??$_Erase_head@V?$allocator@U?$_Tree_node@U?$pair@$$CBKUTGuildSymbol@CGuildMarkManager@@@std@@PAX@std@@@std@@@?$_Tree_val@U?$_Tree_simple_types@U?$pair@$$CBKUTGuildSymbol@CGuildMarkManager@@@std@@@std@@@std@@QAEXAAV?$allocator@U?$_Tree_node@U?$pair@$$CBKUTGuildSymbol@CGuildMarkManager@@@std@@PAX@std@@@1@@Z ENDP ; std::_Tree_val<std::_Tree_simple_types<std::pair<unsigned long const ,CGuildMarkManager::TGuildSymbol> > >::_Erase_head<std::allocator<std::_Tree_node<std::pair<unsigned long const ,CGuildMarkManager::TGuildSymbol>,void *> > >
_TEXT	ENDS
; Function compile flags: /Ogtp
; File C:\Program Files\Microsoft Visual Studio\2022\Community\VC\Tools\MSVC\14.44.35207\include\xtree
; File C:\Program Files\Microsoft Visual Studio\2022\Community\VC\Tools\MSVC\14.44.35207\include\type_traits
; File C:\Program Files\Microsoft Visual Studio\2022\Community\VC\Tools\MSVC\14.44.35207\include\xtree
;	COMDAT ??$_Find@K@?$_Tree@V?$_Tmap_traits@KPAVCGuildMarkImage@@U?$less@K@std@@V?$allocator@U?$pair@$$CBKPAVCGuildMarkImage@@@std@@@3@$0A@@std@@@std@@ABEPAU?$_Tree_node@U?$pair@$$CBKPAVCGuildMarkImage@@@std@@PAX@1@ABK@Z
_TEXT	SEGMENT
__Loc$ = -12						; size = 12
__Keyval$ = 8						; size = 4
??$_Find@K@?$_Tree@V?$_Tmap_traits@KPAVCGuildMarkImage@@U?$less@K@std@@V?$allocator@U?$pair@$$CBKPAVCGuildMarkImage@@@std@@@3@$0A@@std@@@std@@ABEPAU?$_Tree_node@U?$pair@$$CBKPAVCGuildMarkImage@@@std@@PAX@1@ABK@Z PROC ; std::_Tree<std::_Tmap_traits<unsigned long,CGuildMarkImage *,std::less<unsigned long>,std::allocator<std::pair<unsigned long const ,CGuildMarkImage *> >,0> >::_Find<unsigned long>, COMDAT
; _this$ = ecx

; 1383 :     _NODISCARD _Nodeptr _Find(const _Other& _Keyval) const {

  00000	55		 push	 ebp
  00001	8b ec		 mov	 ebp, esp
  00003	83 ec 0c	 sub	 esp, 12			; 0000000cH
  00006	56		 push	 esi
  00007	57		 push	 edi

; 1384 :         const _Tree_find_result<_Nodeptr> _Loc = _Find_lower_bound(_Keyval);

  00008	8b 7d 08	 mov	 edi, DWORD PTR __Keyval$[ebp]
  0000b	8d 45 f4	 lea	 eax, DWORD PTR __Loc$[ebp]
  0000e	57		 push	 edi
  0000f	50		 push	 eax
  00010	8b f1		 mov	 esi, ecx
  00012	e8 00 00 00 00	 call	 ??$_Find_lower_bound@K@?$_Tree@V?$_Tmap_traits@KPAVCGuildMarkImage@@U?$less@K@std@@V?$allocator@U?$pair@$$CBKPAVCGuildMarkImage@@@std@@@3@$0A@@std@@@std@@IBE?AU?$_Tree_find_result@PAU?$_Tree_node@U?$pair@$$CBKPAVCGuildMarkImage@@@std@@PAX@std@@@1@ABK@Z ; std::_Tree<std::_Tmap_traits<unsigned long,CGuildMarkImage *,std::less<unsigned long>,std::allocator<std::pair<unsigned long const ,CGuildMarkImage *> >,0> >::_Find_lower_bound<unsigned long>

; 1624 :         return !_Bound->_Isnil && !_DEBUG_LT_PRED(_Getcomp(), _Keyval, _Traits::_Kfn(_Bound->_Myval));

  00017	8b 45 fc	 mov	 eax, DWORD PTR __Loc$[ebp+8]
  0001a	80 78 0d 00	 cmp	 BYTE PTR [eax+13], 0
  0001e	75 07		 jne	 SHORT $LN2@Find
; File C:\Program Files\Microsoft Visual Studio\2022\Community\VC\Tools\MSVC\14.44.35207\include\type_traits

; 2380 :         return _Left < _Right;

  00020	8b 0f		 mov	 ecx, DWORD PTR [edi]
  00022	3b 48 10	 cmp	 ecx, DWORD PTR [eax+16]
; File C:\Program Files\Microsoft Visual Studio\2022\Community\VC\Tools\MSVC\14.44.35207\include\xtree

; 1624 :         return !_Bound->_Isnil && !_DEBUG_LT_PRED(_Getcomp(), _Keyval, _Traits::_Kfn(_Bound->_Myval));

  00025	73 02		 jae	 SHORT $LN1@Find
$LN2@Find:

; 1385 :         if (_Lower_bound_duplicate(_Loc._Bound, _Keyval)) {
; 1386 :             return _Loc._Bound;
; 1387 :         }
; 1388 : 
; 1389 :         return _Get_scary()->_Myhead;

  00027	8b 06		 mov	 eax, DWORD PTR [esi]
$LN1@Find:
  00029	5f		 pop	 edi

; 1390 :     }

  0002a	5e		 pop	 esi
  0002b	8b e5		 mov	 esp, ebp
  0002d	5d		 pop	 ebp
  0002e	c2 04 00	 ret	 4
??$_Find@K@?$_Tree@V?$_Tmap_traits@KPAVCGuildMarkImage@@U?$less@K@std@@V?$allocator@U?$pair@$$CBKPAVCGuildMarkImage@@@std@@@3@$0A@@std@@@std@@ABEPAU?$_Tree_node@U?$pair@$$CBKPAVCGuildMarkImage@@@std@@PAX@1@ABK@Z ENDP ; std::_Tree<std::_Tmap_traits<unsigned long,CGuildMarkImage *,std::less<unsigned long>,std::allocator<std::pair<unsigned long const ,CGuildMarkImage *> >,0> >::_Find<unsigned long>
_TEXT	ENDS
; Function compile flags: /Ogtp
; File C:\Program Files\Microsoft Visual Studio\2022\Community\VC\Tools\MSVC\14.44.35207\include\xtree
; File C:\Program Files\Microsoft Visual Studio\2022\Community\VC\Tools\MSVC\14.44.35207\include\utility
; File C:\Program Files\Microsoft Visual Studio\2022\Community\VC\Tools\MSVC\14.44.35207\include\xmemory
; File C:\Program Files\Microsoft Visual Studio\2022\Community\VC\Tools\MSVC\14.44.35207\include\xtree
;	COMDAT ??$_Erase_tree@V?$allocator@U?$_Tree_node@U?$pair@$$CBKPAVCGuildMarkImage@@@std@@PAX@std@@@std@@@?$_Tree_val@U?$_Tree_simple_types@U?$pair@$$CBKPAVCGuildMarkImage@@@std@@@std@@@std@@QAEXAAV?$allocator@U?$_Tree_node@U?$pair@$$CBKPAVCGuildMarkImage@@@std@@PAX@std@@@1@PAU?$_Tree_node@U?$pair@$$CBKPAVCGuildMarkImage@@@std@@PAX@1@@Z
_TEXT	SEGMENT
__Al$ = 8						; size = 4
__Rootnode$ = 12					; size = 4
??$_Erase_tree@V?$allocator@U?$_Tree_node@U?$pair@$$CBKPAVCGuildMarkImage@@@std@@PAX@std@@@std@@@?$_Tree_val@U?$_Tree_simple_types@U?$pair@$$CBKPAVCGuildMarkImage@@@std@@@std@@@std@@QAEXAAV?$allocator@U?$_Tree_node@U?$pair@$$CBKPAVCGuildMarkImage@@@std@@PAX@std@@@1@PAU?$_Tree_node@U?$pair@$$CBKPAVCGuildMarkImage@@@std@@PAX@1@@Z PROC ; std::_Tree_val<std::_Tree_simple_types<std::pair<unsigned long const ,CGuildMarkImage *> > >::_Erase_tree<std::allocator<std::_Tree_node<std::pair<unsigned long const ,CGuildMarkImage *>,void *> > >, COMDAT
; _this$ = ecx

; 767  :     void _Erase_tree(_Alnode& _Al, _Nodeptr _Rootnode) noexcept {

  00000	55		 push	 ebp
  00001	8b ec		 mov	 ebp, esp
  00003	53		 push	 ebx
  00004	56		 push	 esi

; 768  :         while (!_Rootnode->_Isnil) { // free subtrees, then node

  00005	8b 75 0c	 mov	 esi, DWORD PTR __Rootnode$[ebp]
  00008	8b d9		 mov	 ebx, ecx
  0000a	80 7e 0d 00	 cmp	 BYTE PTR [esi+13], 0
  0000e	75 25		 jne	 SHORT $LN51@Erase_tree
  00010	57		 push	 edi
  00011	8b 7d 08	 mov	 edi, DWORD PTR __Al$[ebp]
$LL2@Erase_tree:

; 769  :             _Erase_tree(_Al, _Rootnode->_Right);

  00014	ff 76 08	 push	 DWORD PTR [esi+8]
  00017	8b cb		 mov	 ecx, ebx
  00019	57		 push	 edi
  0001a	e8 00 00 00 00	 call	 ??$_Erase_tree@V?$allocator@U?$_Tree_node@U?$pair@$$CBKPAVCGuildMarkImage@@@std@@PAX@std@@@std@@@?$_Tree_val@U?$_Tree_simple_types@U?$pair@$$CBKPAVCGuildMarkImage@@@std@@@std@@@std@@QAEXAAV?$allocator@U?$_Tree_node@U?$pair@$$CBKPAVCGuildMarkImage@@@std@@PAX@std@@@1@PAU?$_Tree_node@U?$pair@$$CBKPAVCGuildMarkImage@@@std@@PAX@1@@Z ; std::_Tree_val<std::_Tree_simple_types<std::pair<unsigned long const ,CGuildMarkImage *> > >::_Erase_tree<std::allocator<std::_Tree_node<std::pair<unsigned long const ,CGuildMarkImage *>,void *> > >
; File C:\Program Files\Microsoft Visual Studio\2022\Community\VC\Tools\MSVC\14.44.35207\include\utility

; 773  :     _Ty _Old_val = static_cast<_Ty&&>(_Val);

  0001f	8b c6		 mov	 eax, esi

; 774  :     _Val         = static_cast<_Other&&>(_New_val);

  00021	8b 36		 mov	 esi, DWORD PTR [esi]
; File C:\Program Files\Microsoft Visual Studio\2022\Community\VC\Tools\MSVC\14.44.35207\include\xmemory

; 289  :         ::operator delete(_Ptr, _Bytes);

  00023	6a 18		 push	 24			; 00000018H
  00025	50		 push	 eax
  00026	e8 00 00 00 00	 call	 ??3@YAXPAXI@Z		; operator delete
  0002b	83 c4 08	 add	 esp, 8
; File C:\Program Files\Microsoft Visual Studio\2022\Community\VC\Tools\MSVC\14.44.35207\include\xtree

; 768  :         while (!_Rootnode->_Isnil) { // free subtrees, then node

  0002e	80 7e 0d 00	 cmp	 BYTE PTR [esi+13], 0
  00032	74 e0		 je	 SHORT $LL2@Erase_tree
  00034	5f		 pop	 edi
$LN51@Erase_tree:
  00035	5e		 pop	 esi

; 770  :             _Alnode::value_type::_Freenode(_Al, _STD exchange(_Rootnode, _Rootnode->_Left));
; 771  :         }
; 772  :     }

  00036	5b		 pop	 ebx
  00037	5d		 pop	 ebp
  00038	c2 08 00	 ret	 8
??$_Erase_tree@V?$allocator@U?$_Tree_node@U?$pair@$$CBKPAVCGuildMarkImage@@@std@@PAX@std@@@std@@@?$_Tree_val@U?$_Tree_simple_types@U?$pair@$$CBKPAVCGuildMarkImage@@@std@@@std@@@std@@QAEXAAV?$allocator@U?$_Tree_node@U?$pair@$$CBKPAVCGuildMarkImage@@@std@@PAX@std@@@1@PAU?$_Tree_node@U?$pair@$$CBKPAVCGuildMarkImage@@@std@@PAX@1@@Z ENDP ; std::_Tree_val<std::_Tree_simple_types<std::pair<unsigned long const ,CGuildMarkImage *> > >::_Erase_tree<std::allocator<std::_Tree_node<std::pair<unsigned long const ,CGuildMarkImage *>,void *> > >
_TEXT	ENDS
; Function compile flags: /Ogtp
; File C:\Program Files\Microsoft Visual Studio\2022\Community\VC\Tools\MSVC\14.44.35207\include\xtree
; File C:\Program Files\Microsoft Visual Studio\2022\Community\VC\Tools\MSVC\14.44.35207\include\xmemory
; File C:\Program Files\Microsoft Visual Studio\2022\Community\VC\Tools\MSVC\14.44.35207\include\xtree
;	COMDAT ??$_Erase_head@V?$allocator@U?$_Tree_node@U?$pair@$$CBKPAVCGuildMarkImage@@@std@@PAX@std@@@std@@@?$_Tree_val@U?$_Tree_simple_types@U?$pair@$$CBKPAVCGuildMarkImage@@@std@@@std@@@std@@QAEXAAV?$allocator@U?$_Tree_node@U?$pair@$$CBKPAVCGuildMarkImage@@@std@@PAX@std@@@1@@Z
_TEXT	SEGMENT
__Al$ = 8						; size = 4
??$_Erase_head@V?$allocator@U?$_Tree_node@U?$pair@$$CBKPAVCGuildMarkImage@@@std@@PAX@std@@@std@@@?$_Tree_val@U?$_Tree_simple_types@U?$pair@$$CBKPAVCGuildMarkImage@@@std@@@std@@@std@@QAEXAAV?$allocator@U?$_Tree_node@U?$pair@$$CBKPAVCGuildMarkImage@@@std@@PAX@std@@@1@@Z PROC ; std::_Tree_val<std::_Tree_simple_types<std::pair<unsigned long const ,CGuildMarkImage *> > >::_Erase_head<std::allocator<std::_Tree_node<std::pair<unsigned long const ,CGuildMarkImage *>,void *> > >, COMDAT
; _this$ = ecx

; 775  :     void _Erase_head(_Alnode& _Al) noexcept {

  00000	55		 push	 ebp
  00001	8b ec		 mov	 ebp, esp
  00003	56		 push	 esi
  00004	8b f1		 mov	 esi, ecx

; 776  :         this->_Orphan_all();
; 777  :         _Erase_tree(_Al, _Myhead->_Parent);

  00006	8b 06		 mov	 eax, DWORD PTR [esi]
  00008	ff 70 04	 push	 DWORD PTR [eax+4]
  0000b	ff 75 08	 push	 DWORD PTR __Al$[ebp]
  0000e	e8 00 00 00 00	 call	 ??$_Erase_tree@V?$allocator@U?$_Tree_node@U?$pair@$$CBKPAVCGuildMarkImage@@@std@@PAX@std@@@std@@@?$_Tree_val@U?$_Tree_simple_types@U?$pair@$$CBKPAVCGuildMarkImage@@@std@@@std@@@std@@QAEXAAV?$allocator@U?$_Tree_node@U?$pair@$$CBKPAVCGuildMarkImage@@@std@@PAX@std@@@1@PAU?$_Tree_node@U?$pair@$$CBKPAVCGuildMarkImage@@@std@@PAX@1@@Z ; std::_Tree_val<std::_Tree_simple_types<std::pair<unsigned long const ,CGuildMarkImage *> > >::_Erase_tree<std::allocator<std::_Tree_node<std::pair<unsigned long const ,CGuildMarkImage *>,void *> > >
; File C:\Program Files\Microsoft Visual Studio\2022\Community\VC\Tools\MSVC\14.44.35207\include\xmemory

; 289  :         ::operator delete(_Ptr, _Bytes);

  00013	6a 18		 push	 24			; 00000018H
  00015	ff 36		 push	 DWORD PTR [esi]
  00017	e8 00 00 00 00	 call	 ??3@YAXPAXI@Z		; operator delete
  0001c	83 c4 08	 add	 esp, 8
  0001f	5e		 pop	 esi
; File C:\Program Files\Microsoft Visual Studio\2022\Community\VC\Tools\MSVC\14.44.35207\include\xtree

; 779  :     }

  00020	5d		 pop	 ebp
  00021	c2 04 00	 ret	 4
??$_Erase_head@V?$allocator@U?$_Tree_node@U?$pair@$$CBKPAVCGuildMarkImage@@@std@@PAX@std@@@std@@@?$_Tree_val@U?$_Tree_simple_types@U?$pair@$$CBKPAVCGuildMarkImage@@@std@@@std@@@std@@QAEXAAV?$allocator@U?$_Tree_node@U?$pair@$$CBKPAVCGuildMarkImage@@@std@@PAX@std@@@1@@Z ENDP ; std::_Tree_val<std::_Tree_simple_types<std::pair<unsigned long const ,CGuildMarkImage *> > >::_Erase_head<std::allocator<std::_Tree_node<std::pair<unsigned long const ,CGuildMarkImage *>,void *> > >
_TEXT	ENDS
; Function compile flags: /Ogtp
; File C:\Program Files\Microsoft Visual Studio\2022\Community\VC\Tools\MSVC\14.44.35207\include\xmemory
;	COMDAT ??$_Destroy_range@V?$allocator@E@std@@@std@@YAXPAEQAEAAV?$allocator@E@0@@Z
_TEXT	SEGMENT
__First$ = 8						; size = 4
__Last$ = 12						; size = 4
__Al$ = 16						; size = 4
??$_Destroy_range@V?$allocator@E@std@@@std@@YAXPAEQAEAAV?$allocator@E@0@@Z PROC ; std::_Destroy_range<std::allocator<unsigned char> >, COMDAT

; 1099 :     // note that this is an optimization for debug mode codegen; in release mode the BE removes all of this
; 1100 :     using _Ty = typename _Alloc::value_type;
; 1101 :     if constexpr (!conjunction_v<is_trivially_destructible<_Ty>, _Uses_default_destroy<_Alloc, _Ty*>>) {
; 1102 :         for (; _First != _Last; ++_First) {
; 1103 :             allocator_traits<_Alloc>::destroy(_Al, _STD _Unfancy(_First));
; 1104 :         }
; 1105 :     }
; 1106 : }

  00000	c2 00 00	 ret	 0
??$_Destroy_range@V?$allocator@E@std@@@std@@YAXPAEQAEAAV?$allocator@E@0@@Z ENDP ; std::_Destroy_range<std::allocator<unsigned char> >
_TEXT	ENDS
; Function compile flags: /Ogtp
; File C:\Program Files\Microsoft Visual Studio\2022\Community\VC\Tools\MSVC\14.44.35207\include\vector
; File C:\Program Files\Microsoft Visual Studio\2022\Community\VC\Tools\MSVC\14.44.35207\include\xmemory
; File C:\Program Files\Microsoft Visual Studio\2022\Community\VC\Tools\MSVC\14.44.35207\include\vector
; File C:\Program Files\Microsoft Visual Studio\2022\Community\VC\Tools\MSVC\14.44.35207\include\xmemory
; File C:\Program Files\Microsoft Visual Studio\2022\Community\VC\Tools\MSVC\14.44.35207\include\vector
; File C:\Program Files\Microsoft Visual Studio\2022\Community\VC\Tools\MSVC\14.44.35207\include\xmemory
; File C:\Program Files\Microsoft Visual Studio\2022\Community\VC\Tools\MSVC\14.44.35207\include\vector
; File C:\Program Files\Microsoft Visual Studio\2022\Community\VC\Tools\MSVC\14.44.35207\include\xmemory
; File C:\Program Files\Microsoft Visual Studio\2022\Community\VC\Tools\MSVC\14.44.35207\include\vector
;	COMDAT ??$_Resize@U_Value_init_tag@std@@@?$vector@EV?$allocator@E@std@@@std@@AAEXIABU_Value_init_tag@1@@Z
_TEXT	SEGMENT
__Oldsize$1$ = -8					; size = 4
tv636 = -4						; size = 4
__Newsize$ = 8						; size = 4
$T5 = 8							; size = 4
__Val$ = 12						; size = 4
??$_Resize@U_Value_init_tag@std@@@?$vector@EV?$allocator@E@std@@@std@@AAEXIABU_Value_init_tag@1@@Z PROC ; std::vector<unsigned char,std::allocator<unsigned char> >::_Resize<std::_Value_init_tag>, COMDAT
; _this$ = ecx

; 1589 :     _CONSTEXPR20 void _Resize(const size_type _Newsize, const _Ty2& _Val) {

  00000	55		 push	 ebp
  00001	8b ec		 mov	 ebp, esp
  00003	83 ec 08	 sub	 esp, 8
  00006	53		 push	 ebx
  00007	8b d9		 mov	 ebx, ecx
  00009	56		 push	 esi

; 1590 :         // trim or append elements, provide strong guarantee
; 1591 :         auto& _Al           = _Getal();
; 1592 :         auto& _My_data      = _Mypair._Myval2;
; 1593 :         pointer& _Myfirst   = _My_data._Myfirst;
; 1594 :         pointer& _Mylast    = _My_data._Mylast;
; 1595 :         const auto _Oldsize = static_cast<size_type>(_Mylast - _Myfirst);
; 1596 :         if (_Newsize < _Oldsize) { // trim

  0000a	8b 75 08	 mov	 esi, DWORD PTR __Newsize$[ebp]
  0000d	57		 push	 edi
  0000e	8b 7b 04	 mov	 edi, DWORD PTR [ebx+4]
  00011	8b c7		 mov	 eax, edi
  00013	8b 13		 mov	 edx, DWORD PTR [ebx]
  00015	2b c2		 sub	 eax, edx
  00017	89 45 f8	 mov	 DWORD PTR __Oldsize$1$[ebp], eax
  0001a	3b f0		 cmp	 esi, eax
  0001c	73 0f		 jae	 SHORT $LN2@Resize

; 1597 :             const pointer _Newlast = _Myfirst + _Newsize;

  0001e	5f		 pop	 edi
  0001f	8d 04 32	 lea	 eax, DWORD PTR [edx+esi]

; 1619 :             }
; 1620 :             _ASAN_VECTOR_RELEASE_GUARD;
; 1621 :             _Orphan_range(_Oldlast, _Oldlast);
; 1622 :         }
; 1623 : 
; 1624 :         // if _Newsize == _Oldsize, do nothing; avoid invalidating iterators
; 1625 :     }

  00022	5e		 pop	 esi
  00023	89 43 04	 mov	 DWORD PTR [ebx+4], eax
  00026	5b		 pop	 ebx
  00027	8b e5		 mov	 esp, ebp
  00029	5d		 pop	 ebp
  0002a	c2 08 00	 ret	 8
$LN2@Resize:

; 1598 :             _Orphan_range(_Newlast, _Mylast);
; 1599 :             _Destroy_range(_Newlast, _Mylast, _Al);
; 1600 :             _ASAN_VECTOR_MODIFY(static_cast<difference_type>(_Newsize - _Oldsize));
; 1601 :             _Mylast = _Newlast;
; 1602 :             return;
; 1603 :         }
; 1604 : 
; 1605 :         if (_Newsize > _Oldsize) { // append

  0002d	0f 86 a7 00 00
	00		 jbe	 $LN3@Resize

; 1606 :             const auto _Oldcapacity = static_cast<size_type>(_My_data._Myend - _Myfirst);

  00033	8b 4b 08	 mov	 ecx, DWORD PTR [ebx+8]
  00036	2b ca		 sub	 ecx, edx

; 1607 :             if (_Newsize > _Oldcapacity) { // reallocate

  00038	3b f1		 cmp	 esi, ecx
  0003a	0f 86 89 00 00
	00		 jbe	 $LN4@Resize

; 1553 :         if (_Newsize > max_size()) {

  00040	81 fe ff ff ff
	7f		 cmp	 esi, 2147483647		; 7fffffffH
  00046	0f 87 97 00 00
	00		 ja	 $LN120@Resize

; 2011 :         if (_Oldcapacity > _Max - _Oldcapacity / 2) {

  0004c	8b d1		 mov	 edx, ecx
  0004e	b8 ff ff ff 7f	 mov	 eax, 2147483647		; 7fffffffH
  00053	d1 ea		 shr	 edx, 1
  00055	2b c2		 sub	 eax, edx
  00057	3b c8		 cmp	 ecx, eax
  00059	76 0d		 jbe	 SHORT $LN11@Resize

; 2012 :             return _Max; // geometric growth would overflow

  0005b	bf ff ff ff 7f	 mov	 edi, 2147483647		; 7fffffffH
; File C:\Program Files\Microsoft Visual Studio\2022\Community\VC\Tools\MSVC\14.44.35207\include\xmemory

; 253  :             return _Allocate_manually_vector_aligned<_Traits>(_Bytes);

  00060	57		 push	 edi
  00061	e8 00 00 00 00	 call	 ??$_Allocate_manually_vector_aligned@U_Default_allocate_traits@std@@@std@@YAPAXI@Z ; std::_Allocate_manually_vector_aligned<std::_Default_allocate_traits>
  00066	eb 23		 jmp	 SHORT $LN118@Resize
$LN11@Resize:
; File C:\Program Files\Microsoft Visual Studio\2022\Community\VC\Tools\MSVC\14.44.35207\include\vector

; 2015 :         const size_type _Geometric = _Oldcapacity + _Oldcapacity / 2;

  00068	8d 3c 0a	 lea	 edi, DWORD PTR [edx+ecx]

; 2016 : 
; 2017 :         if (_Geometric < _Newsize) {

  0006b	3b fe		 cmp	 edi, esi
  0006d	0f 42 fe	 cmovb	 edi, esi
; File C:\Program Files\Microsoft Visual Studio\2022\Community\VC\Tools\MSVC\14.44.35207\include\xmemory

; 227  :     if (_Bytes == 0) {

  00070	8b c7		 mov	 eax, edi
  00072	85 ff		 test	 edi, edi
  00074	74 18		 je	 SHORT $LN117@Resize
$LN22@Resize:

; 228  :         return nullptr;
; 229  :     }
; 230  : 
; 231  : #if _HAS_CXX20 // TRANSITION, GH-1532
; 232  :     if (_STD is_constant_evaluated()) {
; 233  :         return _Traits::_Allocate(_Bytes);
; 234  :     }
; 235  : #endif // _HAS_CXX20
; 236  : 
; 237  : #ifdef __cpp_aligned_new
; 238  :     if constexpr (_Align > __STDCPP_DEFAULT_NEW_ALIGNMENT__) {
; 239  :         size_t _Passed_align = _Align;
; 240  : #if defined(_M_IX86) || defined(_M_X64)
; 241  :         if (_Bytes >= _Big_allocation_threshold) {
; 242  :             // boost the alignment of big allocations to help autovectorization
; 243  :             _Passed_align = (_STD max)(_Align, _Big_allocation_alignment);
; 244  :         }
; 245  : #endif // defined(_M_IX86) || defined(_M_X64)
; 246  :         return _Traits::_Allocate_aligned(_Bytes, _Passed_align);
; 247  :     } else
; 248  : #endif // defined(__cpp_aligned_new)
; 249  :     {
; 250  : #if defined(_M_IX86) || defined(_M_X64)
; 251  :         if (_Bytes >= _Big_allocation_threshold) {

  00076	3d 00 10 00 00	 cmp	 eax, 4096		; 00001000H
  0007b	72 08		 jb	 SHORT $LN24@Resize

; 253  :             return _Allocate_manually_vector_aligned<_Traits>(_Bytes);

  0007d	57		 push	 edi
  0007e	e8 00 00 00 00	 call	 ??$_Allocate_manually_vector_aligned@U_Default_allocate_traits@std@@@std@@YAPAXI@Z ; std::_Allocate_manually_vector_aligned<std::_Default_allocate_traits>
  00083	eb 06		 jmp	 SHORT $LN118@Resize
$LN24@Resize:

; 136  :         return ::operator new(_Bytes);

  00085	50		 push	 eax
  00086	e8 00 00 00 00	 call	 ??2@YAPAXI@Z		; operator new
$LN118@Resize:
; File C:\Program Files\Microsoft Visual Studio\2022\Community\VC\Tools\MSVC\14.44.35207\include\vector

; 1566 :         const pointer _Appended_first = _Newvec + _Oldsize;

  0008b	83 c4 04	 add	 esp, 4
$LN117@Resize:
  0008e	8b 55 f8	 mov	 edx, DWORD PTR __Oldsize$1$[ebp]
  00091	89 45 08	 mov	 DWORD PTR $T5[ebp], eax
  00094	8d 0c 10	 lea	 ecx, DWORD PTR [eax+edx]

; 1567 : 
; 1568 :         _Reallocation_guard _Guard{_Al, _Newvec, _Newcapacity, _Appended_first, _Appended_first};
; 1569 :         auto& _Appended_last = _Guard._Constructed_last;
; 1570 : 
; 1571 :         if constexpr (is_same_v<_Ty2, _Ty>) {
; 1572 :             _Appended_last = _Uninitialized_fill_n(_Appended_first, _Newsize - _Oldsize, _Val, _Al);
; 1573 :         } else {
; 1574 :             _STL_INTERNAL_STATIC_ASSERT(is_same_v<_Ty2, _Value_init_tag>);
; 1575 :             _Appended_last = _Uninitialized_value_construct_n(_Appended_first, _Newsize - _Oldsize, _Al);

  00097	8b c6		 mov	 eax, esi
  00099	2b c2		 sub	 eax, edx
; File C:\Program Files\Microsoft Visual Studio\2022\Community\VC\Tools\MSVC\14.44.35207\include\xmemory

; 2087 :             _Zero_range(_PFirst, _PFirst + _Count);

  0009b	03 c1		 add	 eax, ecx
  0009d	50		 push	 eax
  0009e	51		 push	 ecx
  0009f	e8 00 00 00 00	 call	 ??$_Zero_range@PAE@std@@YAPAEQAE0@Z ; std::_Zero_range<unsigned char *>

; 1992 :             _STD _Copy_memmove(_UFirst, _ULast, _STD _Unfancy(_Dest));

  000a4	ff 75 08	 push	 DWORD PTR $T5[ebp]
  000a7	ff 73 04	 push	 DWORD PTR [ebx+4]
  000aa	ff 33		 push	 DWORD PTR [ebx]
  000ac	e8 00 00 00 00	 call	 ??$_Copy_memmove@PAEPAE@std@@YAPAEPAE00@Z ; std::_Copy_memmove<unsigned char *,unsigned char *>
  000b1	83 c4 14	 add	 esp, 20			; 00000014H
; File C:\Program Files\Microsoft Visual Studio\2022\Community\VC\Tools\MSVC\14.44.35207\include\vector

; 1585 :         _Change_array(_Newvec, _Newsize, _Newcapacity);

  000b4	8b cb		 mov	 ecx, ebx
  000b6	57		 push	 edi
  000b7	56		 push	 esi
  000b8	ff 75 08	 push	 DWORD PTR $T5[ebp]
  000bb	e8 00 00 00 00	 call	 ?_Change_array@?$vector@EV?$allocator@E@std@@@std@@AAEXQAEII@Z ; std::vector<unsigned char,std::allocator<unsigned char> >::_Change_array
  000c0	5f		 pop	 edi

; 1619 :             }
; 1620 :             _ASAN_VECTOR_RELEASE_GUARD;
; 1621 :             _Orphan_range(_Oldlast, _Oldlast);
; 1622 :         }
; 1623 : 
; 1624 :         // if _Newsize == _Oldsize, do nothing; avoid invalidating iterators
; 1625 :     }

  000c1	5e		 pop	 esi
  000c2	5b		 pop	 ebx
  000c3	8b e5		 mov	 esp, ebp
  000c5	5d		 pop	 ebp
  000c6	c2 08 00	 ret	 8
$LN4@Resize:

; 1618 :                 _Mylast = _Uninitialized_value_construct_n(_Oldlast, _Newsize - _Oldsize, _Al);

  000c9	2b f0		 sub	 esi, eax
; File C:\Program Files\Microsoft Visual Studio\2022\Community\VC\Tools\MSVC\14.44.35207\include\xmemory

; 2087 :             _Zero_range(_PFirst, _PFirst + _Count);

  000cb	03 f7		 add	 esi, edi
  000cd	56		 push	 esi
  000ce	57		 push	 edi
  000cf	e8 00 00 00 00	 call	 ??$_Zero_range@PAE@std@@YAPAEQAE0@Z ; std::_Zero_range<unsigned char *>
  000d4	83 c4 08	 add	 esp, 8
; File C:\Program Files\Microsoft Visual Studio\2022\Community\VC\Tools\MSVC\14.44.35207\include\vector

; 1618 :                 _Mylast = _Uninitialized_value_construct_n(_Oldlast, _Newsize - _Oldsize, _Al);

  000d7	89 73 04	 mov	 DWORD PTR [ebx+4], esi
$LN3@Resize:

; 1619 :             }
; 1620 :             _ASAN_VECTOR_RELEASE_GUARD;
; 1621 :             _Orphan_range(_Oldlast, _Oldlast);
; 1622 :         }
; 1623 : 
; 1624 :         // if _Newsize == _Oldsize, do nothing; avoid invalidating iterators
; 1625 :     }

  000da	5f		 pop	 edi
  000db	5e		 pop	 esi
  000dc	5b		 pop	 ebx
  000dd	8b e5		 mov	 esp, ebp
  000df	5d		 pop	 ebp
  000e0	c2 08 00	 ret	 8
$LN120@Resize:

; 1554 :             _Xlength();

  000e3	e8 00 00 00 00	 call	 ?_Xlength@?$vector@EV?$allocator@E@std@@@std@@CAXXZ ; std::vector<unsigned char,std::allocator<unsigned char> >::_Xlength
$LN116@Resize:
  000e8	cc		 int	 3
??$_Resize@U_Value_init_tag@std@@@?$vector@EV?$allocator@E@std@@@std@@AAEXIABU_Value_init_tag@1@@Z ENDP ; std::vector<unsigned char,std::allocator<unsigned char> >::_Resize<std::_Value_init_tag>
_TEXT	ENDS
; Function compile flags: /Ogtp
; File C:\Program Files\Microsoft Visual Studio\2022\Community\VC\Tools\MSVC\14.44.35207\include\xmemory
; File C:\Program Files\Microsoft Visual Studio\2022\Community\VC\Tools\MSVC\14.44.35207\include\vector
; File C:\Program Files\Microsoft Visual Studio\2022\Community\VC\Tools\MSVC\14.44.35207\include\xmemory
; File C:\Program Files\Microsoft Visual Studio\2022\Community\VC\Tools\MSVC\14.44.35207\include\vector
; File C:\Program Files\Microsoft Visual Studio\2022\Community\VC\Tools\MSVC\14.44.35207\include\xmemory
;	COMDAT ??$?0$$V@?$_Compressed_pair@V?$allocator@E@std@@V?$_Vector_val@U?$_Simple_types@E@std@@@2@$00@std@@QAE@U_Zero_then_variadic_args_t@1@@Z
_TEXT	SEGMENT
___formal$ = 8						; size = 1
??$?0$$V@?$_Compressed_pair@V?$allocator@E@std@@V?$_Vector_val@U?$_Simple_types@E@std@@@2@$00@std@@QAE@U_Zero_then_variadic_args_t@1@@Z PROC ; std::_Compressed_pair<std::allocator<unsigned char>,std::_Vector_val<std::_Simple_types<unsigned char> >,1>::_Compressed_pair<std::allocator<unsigned char>,std::_Vector_val<std::_Simple_types<unsigned char> >,1><>, COMDAT
; _this$ = ecx
; File C:\Program Files\Microsoft Visual Studio\2022\Community\VC\Tools\MSVC\14.44.35207\include\vector

; 400  :     _CONSTEXPR20 _Vector_val() noexcept : _Myfirst(), _Mylast(), _Myend() {}

  00000	c7 01 00 00 00
	00		 mov	 DWORD PTR [ecx], 0
; File C:\Program Files\Microsoft Visual Studio\2022\Community\VC\Tools\MSVC\14.44.35207\include\xmemory

; 1531 :         : _Ty1(), _Myval2(_STD forward<_Other2>(_Val2)...) {}

  00006	8b c1		 mov	 eax, ecx
; File C:\Program Files\Microsoft Visual Studio\2022\Community\VC\Tools\MSVC\14.44.35207\include\vector

; 400  :     _CONSTEXPR20 _Vector_val() noexcept : _Myfirst(), _Mylast(), _Myend() {}

  00008	c7 41 04 00 00
	00 00		 mov	 DWORD PTR [ecx+4], 0
  0000f	c7 41 08 00 00
	00 00		 mov	 DWORD PTR [ecx+8], 0
; File C:\Program Files\Microsoft Visual Studio\2022\Community\VC\Tools\MSVC\14.44.35207\include\xmemory

; 1531 :         : _Ty1(), _Myval2(_STD forward<_Other2>(_Val2)...) {}

  00016	c2 04 00	 ret	 4
??$?0$$V@?$_Compressed_pair@V?$allocator@E@std@@V?$_Vector_val@U?$_Simple_types@E@std@@@2@$00@std@@QAE@U_Zero_then_variadic_args_t@1@@Z ENDP ; std::_Compressed_pair<std::allocator<unsigned char>,std::_Vector_val<std::_Simple_types<unsigned char> >,1>::_Compressed_pair<std::allocator<unsigned char>,std::_Vector_val<std::_Simple_types<unsigned char> >,1><>
_TEXT	ENDS
; Function compile flags: /Ogtp
; File C:\Program Files\Microsoft Visual Studio\2022\Community\VC\Tools\MSVC\14.44.35207\include\xutility
;	COMDAT ?pointer_to@?$pointer_traits@PAU?$pair@$$CBKPAVCGuildMarkImage@@@std@@@std@@SAPAU?$pair@$$CBKPAVCGuildMarkImage@@@2@AAU32@@Z
_TEXT	SEGMENT
?pointer_to@?$pointer_traits@PAU?$pair@$$CBKPAVCGuildMarkImage@@@std@@@std@@SAPAU?$pair@$$CBKPAVCGuildMarkImage@@@2@AAU32@@Z PROC ; std::pointer_traits<std::pair<unsigned long const ,CGuildMarkImage *> *>::pointer_to, COMDAT
; __Val$ = ecx

; 528  :         return _STD addressof(_Val);

  00000	8b c1		 mov	 eax, ecx

; 529  :     }

  00002	c3		 ret	 0
?pointer_to@?$pointer_traits@PAU?$pair@$$CBKPAVCGuildMarkImage@@@std@@@std@@SAPAU?$pair@$$CBKPAVCGuildMarkImage@@@2@AAU32@@Z ENDP ; std::pointer_traits<std::pair<unsigned long const ,CGuildMarkImage *> *>::pointer_to
_TEXT	ENDS
; Function compile flags: /Ogtp
; File C:\Program Files\Microsoft Visual Studio\2022\Community\VC\Tools\MSVC\14.44.35207\include\xtree
;	COMDAT ?_Get_scary@?$_Tree@V?$_Tmap_traits@KUTGuildSymbol@CGuildMarkManager@@U?$less@K@std@@V?$allocator@U?$pair@$$CBKUTGuildSymbol@CGuildMarkManager@@@std@@@4@$0A@@std@@@std@@IAEPAV?$_Tree_val@U?$_Tree_simple_types@U?$pair@$$CBKUTGuildSymbol@CGuildMarkManager@@@std@@@std@@@2@XZ
_TEXT	SEGMENT
?_Get_scary@?$_Tree@V?$_Tmap_traits@KUTGuildSymbol@CGuildMarkManager@@U?$less@K@std@@V?$allocator@U?$pair@$$CBKUTGuildSymbol@CGuildMarkManager@@@std@@@4@$0A@@std@@@std@@IAEPAV?$_Tree_val@U?$_Tree_simple_types@U?$pair@$$CBKUTGuildSymbol@CGuildMarkManager@@@std@@@std@@@2@XZ PROC ; std::_Tree<std::_Tmap_traits<unsigned long,CGuildMarkManager::TGuildSymbol,std::less<unsigned long>,std::allocator<std::pair<unsigned long const ,CGuildMarkManager::TGuildSymbol> >,0> >::_Get_scary, COMDAT
; _this$ = ecx

; 1983 :         return _STD addressof(_Mypair._Myval2._Myval2);

  00000	8b c1		 mov	 eax, ecx

; 1984 :     }

  00002	c3		 ret	 0
?_Get_scary@?$_Tree@V?$_Tmap_traits@KUTGuildSymbol@CGuildMarkManager@@U?$less@K@std@@V?$allocator@U?$pair@$$CBKUTGuildSymbol@CGuildMarkManager@@@std@@@4@$0A@@std@@@std@@IAEPAV?$_Tree_val@U?$_Tree_simple_types@U?$pair@$$CBKUTGuildSymbol@CGuildMarkManager@@@std@@@std@@@2@XZ ENDP ; std::_Tree<std::_Tmap_traits<unsigned long,CGuildMarkManager::TGuildSymbol,std::less<unsigned long>,std::allocator<std::pair<unsigned long const ,CGuildMarkManager::TGuildSymbol> >,0> >::_Get_scary
_TEXT	ENDS
; Function compile flags: /Ogtp
; File C:\Program Files\Microsoft Visual Studio\2022\Community\VC\Tools\MSVC\14.44.35207\include\xtree
;	COMDAT ?_Getal@?$_Tree@V?$_Tmap_traits@KUTGuildSymbol@CGuildMarkManager@@U?$less@K@std@@V?$allocator@U?$pair@$$CBKUTGuildSymbol@CGuildMarkManager@@@std@@@4@$0A@@std@@@std@@IAEAAV?$allocator@U?$_Tree_node@U?$pair@$$CBKUTGuildSymbol@CGuildMarkManager@@@std@@PAX@std@@@2@XZ
_TEXT	SEGMENT
?_Getal@?$_Tree@V?$_Tmap_traits@KUTGuildSymbol@CGuildMarkManager@@U?$less@K@std@@V?$allocator@U?$pair@$$CBKUTGuildSymbol@CGuildMarkManager@@@std@@@4@$0A@@std@@@std@@IAEAAV?$allocator@U?$_Tree_node@U?$pair@$$CBKUTGuildSymbol@CGuildMarkManager@@@std@@PAX@std@@@2@XZ PROC ; std::_Tree<std::_Tmap_traits<unsigned long,CGuildMarkManager::TGuildSymbol,std::less<unsigned long>,std::allocator<std::pair<unsigned long const ,CGuildMarkManager::TGuildSymbol> >,0> >::_Getal, COMDAT
; _this$ = ecx

; 1975 :         return _Mypair._Myval2._Get_first();

  00000	8b c1		 mov	 eax, ecx

; 1976 :     }

  00002	c3		 ret	 0
?_Getal@?$_Tree@V?$_Tmap_traits@KUTGuildSymbol@CGuildMarkManager@@U?$less@K@std@@V?$allocator@U?$pair@$$CBKUTGuildSymbol@CGuildMarkManager@@@std@@@4@$0A@@std@@@std@@IAEAAV?$allocator@U?$_Tree_node@U?$pair@$$CBKUTGuildSymbol@CGuildMarkManager@@@std@@PAX@std@@@2@XZ ENDP ; std::_Tree<std::_Tmap_traits<unsigned long,CGuildMarkManager::TGuildSymbol,std::less<unsigned long>,std::allocator<std::pair<unsigned long const ,CGuildMarkManager::TGuildSymbol> >,0> >::_Getal
_TEXT	ENDS
; Function compile flags: /Ogtp
; File C:\Program Files\Microsoft Visual Studio\2022\Community\VC\Tools\MSVC\14.44.35207\include\xtree
; File C:\Program Files\Microsoft Visual Studio\2022\Community\VC\Tools\MSVC\14.44.35207\include\xmemory
; File C:\Program Files\Microsoft Visual Studio\2022\Community\VC\Tools\MSVC\14.44.35207\include\xtree
; File C:\Program Files\Microsoft Visual Studio\2022\Community\VC\Tools\MSVC\14.44.35207\include\xmemory
; File C:\Program Files\Microsoft Visual Studio\2022\Community\VC\Tools\MSVC\14.44.35207\include\xtree
;	COMDAT ??0?$_Tree@V?$_Tmap_traits@KUTGuildSymbol@CGuildMarkManager@@U?$less@K@std@@V?$allocator@U?$pair@$$CBKUTGuildSymbol@CGuildMarkManager@@@std@@@4@$0A@@std@@@std@@QAE@ABU?$less@K@1@@Z
_TEXT	SEGMENT
__Parg$dead$ = 8					; size = 4
??0?$_Tree@V?$_Tmap_traits@KUTGuildSymbol@CGuildMarkManager@@U?$less@K@std@@V?$allocator@U?$pair@$$CBKUTGuildSymbol@CGuildMarkManager@@@std@@@4@$0A@@std@@@std@@QAE@ABU?$less@K@1@@Z PROC ; std::_Tree<std::_Tmap_traits<unsigned long,CGuildMarkManager::TGuildSymbol,std::less<unsigned long>,std::allocator<std::pair<unsigned long const ,CGuildMarkManager::TGuildSymbol> >,0> >::_Tree<std::_Tmap_traits<unsigned long,CGuildMarkManager::TGuildSymbol,std::less<unsigned long>,std::allocator<std::pair<unsigned long const ,CGuildMarkManager::TGuildSymbol> >,0> >, COMDAT
; _this$ = ecx

; 904  :     _Tree(const key_compare& _Parg) : _Mypair(_One_then_variadic_args_t{}, _Parg, _Zero_then_variadic_args_t{}) {

  00000	56		 push	 esi
  00001	8b f1		 mov	 esi, ecx
; File C:\Program Files\Microsoft Visual Studio\2022\Community\VC\Tools\MSVC\14.44.35207\include\xmemory

; 136  :         return ::operator new(_Bytes);

  00003	6a 24		 push	 36			; 00000024H
; File C:\Program Files\Microsoft Visual Studio\2022\Community\VC\Tools\MSVC\14.44.35207\include\xtree

; 450  :     _Tree_val() noexcept : _Myhead(), _Mysize(0) {}

  00005	c7 06 00 00 00
	00		 mov	 DWORD PTR [esi], 0
  0000b	c7 46 04 00 00
	00 00		 mov	 DWORD PTR [esi+4], 0
; File C:\Program Files\Microsoft Visual Studio\2022\Community\VC\Tools\MSVC\14.44.35207\include\xmemory

; 136  :         return ::operator new(_Bytes);

  00012	e8 00 00 00 00	 call	 ??2@YAPAXI@Z		; operator new
  00017	83 c4 04	 add	 esp, 4
; File C:\Program Files\Microsoft Visual Studio\2022\Community\VC\Tools\MSVC\14.44.35207\include\xtree

; 346  :         _Construct_in_place(_Pnode->_Left, _Pnode);

  0001a	89 00		 mov	 DWORD PTR [eax], eax

; 347  :         _Construct_in_place(_Pnode->_Parent, _Pnode);

  0001c	89 40 04	 mov	 DWORD PTR [eax+4], eax

; 348  :         _Construct_in_place(_Pnode->_Right, _Pnode);

  0001f	89 40 08	 mov	 DWORD PTR [eax+8], eax

; 349  :         _Pnode->_Color = _Black;

  00022	66 c7 40 0c 01
	01		 mov	 WORD PTR [eax+12], 257	; 00000101H

; 1957 :         _Scary->_Myhead = _Node::_Buyheadnode(_Getal());

  00028	89 06		 mov	 DWORD PTR [esi], eax

; 905  :         _Alloc_sentinel_and_proxy();
; 906  :     }

  0002a	8b c6		 mov	 eax, esi
  0002c	5e		 pop	 esi
  0002d	c2 04 00	 ret	 4
??0?$_Tree@V?$_Tmap_traits@KUTGuildSymbol@CGuildMarkManager@@U?$less@K@std@@V?$allocator@U?$pair@$$CBKUTGuildSymbol@CGuildMarkManager@@@std@@@4@$0A@@std@@@std@@QAE@ABU?$less@K@1@@Z ENDP ; std::_Tree<std::_Tmap_traits<unsigned long,CGuildMarkManager::TGuildSymbol,std::less<unsigned long>,std::allocator<std::pair<unsigned long const ,CGuildMarkManager::TGuildSymbol> >,0> >::_Tree<std::_Tmap_traits<unsigned long,CGuildMarkManager::TGuildSymbol,std::less<unsigned long>,std::allocator<std::pair<unsigned long const ,CGuildMarkManager::TGuildSymbol> >,0> >
_TEXT	ENDS
; Function compile flags: /Ogtp
; File C:\Program Files\Microsoft Visual Studio\2022\Community\VC\Tools\MSVC\14.44.35207\include\xtree
;	COMDAT ??0?$_Tree_unchecked_const_iterator@V?$_Tree_val@U?$_Tree_simple_types@U?$pair@$$CBKPAVCGuildMarkImage@@@std@@@std@@@std@@U_Iterator_base0@2@@std@@QAE@PAU?$_Tree_node@U?$pair@$$CBKPAVCGuildMarkImage@@@std@@PAX@1@PBV?$_Tree_val@U?$_Tree_simple_types@U?$pair@$$CBKPAVCGuildMarkImage@@@std@@@std@@@1@@Z
_TEXT	SEGMENT
__Pnode$ = 8						; size = 4
__Plist$dead$ = 12					; size = 4
??0?$_Tree_unchecked_const_iterator@V?$_Tree_val@U?$_Tree_simple_types@U?$pair@$$CBKPAVCGuildMarkImage@@@std@@@std@@@std@@U_Iterator_base0@2@@std@@QAE@PAU?$_Tree_node@U?$pair@$$CBKPAVCGuildMarkImage@@@std@@PAX@1@PBV?$_Tree_val@U?$_Tree_simple_types@U?$pair@$$CBKPAVCGuildMarkImage@@@std@@@std@@@1@@Z PROC ; std::_Tree_unchecked_const_iterator<std::_Tree_val<std::_Tree_simple_types<std::pair<unsigned long const ,CGuildMarkImage *> > >,std::_Iterator_base0>::_Tree_unchecked_const_iterator<std::_Tree_val<std::_Tree_simple_types<std::pair<unsigned long const ,CGuildMarkImage *> > >,std::_Iterator_base0>, COMDAT
; _this$ = ecx

; 37   :     _Tree_unchecked_const_iterator(_Nodeptr _Pnode, const _Mytree* _Plist) noexcept : _Ptr(_Pnode) {

  00000	55		 push	 ebp
  00001	8b ec		 mov	 ebp, esp
  00003	8b 45 08	 mov	 eax, DWORD PTR __Pnode$[ebp]
  00006	89 01		 mov	 DWORD PTR [ecx], eax

; 38   :         this->_Adopt(_Plist);
; 39   :     }

  00008	8b c1		 mov	 eax, ecx
  0000a	5d		 pop	 ebp
  0000b	c2 08 00	 ret	 8
??0?$_Tree_unchecked_const_iterator@V?$_Tree_val@U?$_Tree_simple_types@U?$pair@$$CBKPAVCGuildMarkImage@@@std@@@std@@@std@@U_Iterator_base0@2@@std@@QAE@PAU?$_Tree_node@U?$pair@$$CBKPAVCGuildMarkImage@@@std@@PAX@1@PBV?$_Tree_val@U?$_Tree_simple_types@U?$pair@$$CBKPAVCGuildMarkImage@@@std@@@std@@@1@@Z ENDP ; std::_Tree_unchecked_const_iterator<std::_Tree_val<std::_Tree_simple_types<std::pair<unsigned long const ,CGuildMarkImage *> > >,std::_Iterator_base0>::_Tree_unchecked_const_iterator<std::_Tree_val<std::_Tree_simple_types<std::pair<unsigned long const ,CGuildMarkImage *> > >,std::_Iterator_base0>
_TEXT	ENDS
; Function compile flags: /Ogtp
; File C:\Program Files\Microsoft Visual Studio\2022\Community\VC\Tools\MSVC\14.44.35207\include\xtree
;	COMDAT ??D?$_Tree_iterator@V?$_Tree_val@U?$_Tree_simple_types@U?$pair@$$CBKPAVCGuildMarkImage@@@std@@@std@@@std@@@std@@QBEAAU?$pair@$$CBKPAVCGuildMarkImage@@@1@XZ
_TEXT	SEGMENT
??D?$_Tree_iterator@V?$_Tree_val@U?$_Tree_simple_types@U?$pair@$$CBKPAVCGuildMarkImage@@@std@@@std@@@std@@@std@@QBEAAU?$pair@$$CBKPAVCGuildMarkImage@@@1@XZ PROC ; std::_Tree_iterator<std::_Tree_val<std::_Tree_simple_types<std::pair<unsigned long const ,CGuildMarkImage *> > > >::operator*, COMDAT
; _this$ = ecx

; 185  :         return this->_Ptr->_Myval;

  00000	8b 01		 mov	 eax, DWORD PTR [ecx]
  00002	83 c0 10	 add	 eax, 16			; 00000010H

; 274  :         return const_cast<reference>(_Mybase::operator*());
; 275  :     }

  00005	c3		 ret	 0
??D?$_Tree_iterator@V?$_Tree_val@U?$_Tree_simple_types@U?$pair@$$CBKPAVCGuildMarkImage@@@std@@@std@@@std@@@std@@QBEAAU?$pair@$$CBKPAVCGuildMarkImage@@@1@XZ ENDP ; std::_Tree_iterator<std::_Tree_val<std::_Tree_simple_types<std::pair<unsigned long const ,CGuildMarkImage *> > > >::operator*
_TEXT	ENDS
; Function compile flags: /Ogtp
; File C:\Program Files\Microsoft Visual Studio\2022\Community\VC\Tools\MSVC\14.44.35207\include\xtree
;	COMDAT ??E?$_Tree_const_iterator@V?$_Tree_val@U?$_Tree_simple_types@U?$pair@$$CBKPAVCGuildMarkImage@@@std@@@std@@@std@@@std@@QAEAAV01@XZ
_TEXT	SEGMENT
??E?$_Tree_const_iterator@V?$_Tree_val@U?$_Tree_simple_types@U?$pair@$$CBKPAVCGuildMarkImage@@@std@@@std@@@std@@@std@@QAEAAV01@XZ PROC ; std::_Tree_const_iterator<std::_Tree_val<std::_Tree_simple_types<std::pair<unsigned long const ,CGuildMarkImage *> > > >::operator++, COMDAT
; _this$ = ecx

; 192  :     _Tree_const_iterator& operator++() noexcept {

  00000	56		 push	 esi
  00001	8b f1		 mov	 esi, ecx
  00003	57		 push	 edi

; 50   :         if (_Ptr->_Right->_Isnil) { // climb looking for right subtree

  00004	8b 16		 mov	 edx, DWORD PTR [esi]
  00006	8b 7a 08	 mov	 edi, DWORD PTR [edx+8]
  00009	80 7f 0d 00	 cmp	 BYTE PTR [edi+13], 0
  0000d	74 22		 je	 SHORT $LN7@operator

; 51   :             _Nodeptr _Pnode;
; 52   :             while (!(_Pnode = _Ptr->_Parent)->_Isnil && _Ptr == _Pnode->_Right) {

  0000f	8b 42 04	 mov	 eax, DWORD PTR [edx+4]
  00012	80 78 0d 00	 cmp	 BYTE PTR [eax+13], 0
  00016	75 12		 jne	 SHORT $LN24@operator
$LL5@operator:
  00018	3b 50 08	 cmp	 edx, DWORD PTR [eax+8]
  0001b	75 0d		 jne	 SHORT $LN24@operator

; 53   :                 _Ptr = _Pnode; // ==> parent while right subtree

  0001d	89 06		 mov	 DWORD PTR [esi], eax
  0001f	8b d0		 mov	 edx, eax
  00021	8b 40 04	 mov	 eax, DWORD PTR [eax+4]
  00024	80 78 0d 00	 cmp	 BYTE PTR [eax+13], 0
  00028	74 ee		 je	 SHORT $LL5@operator
$LN24@operator:

; 193  : #if _ITERATOR_DEBUG_LEVEL == 2
; 194  :         _STL_VERIFY(this->_Getcont(), "cannot increment value-initialized map/set iterator");
; 195  :         _STL_VERIFY(!this->_Ptr->_Isnil, "cannot increment end map/set iterator");
; 196  : #endif // _ITERATOR_DEBUG_LEVEL == 2
; 197  : 
; 198  :         _Mybase::operator++();
; 199  :         return *this;

  0002a	89 06		 mov	 DWORD PTR [esi], eax

; 200  :     }

  0002c	8b c6		 mov	 eax, esi
  0002e	5f		 pop	 edi
  0002f	5e		 pop	 esi
  00030	c3		 ret	 0
$LN7@operator:

; 476  :         while (!_Pnode->_Left->_Isnil) {

  00031	8b 0f		 mov	 ecx, DWORD PTR [edi]
  00033	80 79 0d 00	 cmp	 BYTE PTR [ecx+13], 0
  00037	75 13		 jne	 SHORT $LN13@operator
  00039	0f 1f 80 00 00
	00 00		 npad	 7
$LL12@operator:
  00040	8b 01		 mov	 eax, DWORD PTR [ecx]

; 477  :             _Pnode = _Pnode->_Left;

  00042	8b f9		 mov	 edi, ecx
  00044	8b c8		 mov	 ecx, eax
  00046	80 78 0d 00	 cmp	 BYTE PTR [eax+13], 0
  0004a	74 f4		 je	 SHORT $LL12@operator
$LN13@operator:

; 193  : #if _ITERATOR_DEBUG_LEVEL == 2
; 194  :         _STL_VERIFY(this->_Getcont(), "cannot increment value-initialized map/set iterator");
; 195  :         _STL_VERIFY(!this->_Ptr->_Isnil, "cannot increment end map/set iterator");
; 196  : #endif // _ITERATOR_DEBUG_LEVEL == 2
; 197  : 
; 198  :         _Mybase::operator++();
; 199  :         return *this;

  0004c	89 3e		 mov	 DWORD PTR [esi], edi

; 200  :     }

  0004e	8b c6		 mov	 eax, esi
  00050	5f		 pop	 edi
  00051	5e		 pop	 esi
  00052	c3		 ret	 0
??E?$_Tree_const_iterator@V?$_Tree_val@U?$_Tree_simple_types@U?$pair@$$CBKPAVCGuildMarkImage@@@std@@@std@@@std@@@std@@QAEAAV01@XZ ENDP ; std::_Tree_const_iterator<std::_Tree_val<std::_Tree_simple_types<std::pair<unsigned long const ,CGuildMarkImage *> > > >::operator++
_TEXT	ENDS
; Function compile flags: /Ogtp
; File C:\Program Files\Microsoft Visual Studio\2022\Community\VC\Tools\MSVC\14.44.35207\include\xtree
;	COMDAT ?_Orphan_ptr@?$_Tree_val@U?$_Tree_simple_types@U?$pair@$$CBKPAVCGuildMarkImage@@@std@@@std@@@std@@QAEXQAU?$_Tree_node@U?$pair@$$CBKPAVCGuildMarkImage@@@std@@PAX@2@@Z
_TEXT	SEGMENT
__Ptr$dead$ = 8						; size = 4
?_Orphan_ptr@?$_Tree_val@U?$_Tree_simple_types@U?$pair@$$CBKPAVCGuildMarkImage@@@std@@@std@@@std@@QAEXQAU?$_Tree_node@U?$pair@$$CBKPAVCGuildMarkImage@@@std@@PAX@2@@Z PROC ; std::_Tree_val<std::_Tree_simple_types<std::pair<unsigned long const ,CGuildMarkImage *> > >::_Orphan_ptr, COMDAT
; _this$dead$ = ecx

; 739  : #if _ITERATOR_DEBUG_LEVEL == 2
; 740  :         _Lockit _Lock(_LOCK_DEBUG);
; 741  :         _Iterator_base12** _Pnext = &this->_Myproxy->_Myfirstiter;
; 742  :         while (*_Pnext) {
; 743  :             const auto _Pnextptr = static_cast<const_iterator&>(**_Pnext)._Ptr;
; 744  :             if (_Pnextptr == _Myhead || (_Ptr != nullptr && _Pnextptr != _Ptr)) {
; 745  :                 _Pnext = &(*_Pnext)->_Mynextiter;
; 746  :             } else { // orphan the iterator
; 747  :                 (*_Pnext)->_Myproxy = nullptr;
; 748  :                 *_Pnext             = (*_Pnext)->_Mynextiter;
; 749  :             }
; 750  :         }
; 751  : #else // ^^^ _ITERATOR_DEBUG_LEVEL == 2 / _ITERATOR_DEBUG_LEVEL != 2 vvv
; 752  :         (void) _Ptr;
; 753  : #endif // ^^^ _ITERATOR_DEBUG_LEVEL != 2 ^^^
; 754  :     }

  00000	c2 04 00	 ret	 4
?_Orphan_ptr@?$_Tree_val@U?$_Tree_simple_types@U?$pair@$$CBKPAVCGuildMarkImage@@@std@@@std@@@std@@QAEXQAU?$_Tree_node@U?$pair@$$CBKPAVCGuildMarkImage@@@std@@PAX@2@@Z ENDP ; std::_Tree_val<std::_Tree_simple_types<std::pair<unsigned long const ,CGuildMarkImage *> > >::_Orphan_ptr
_TEXT	ENDS
; Function compile flags: /Ogtp
; File C:\Program Files\Microsoft Visual Studio\2022\Community\VC\Tools\MSVC\14.44.35207\include\xtree
;	COMDAT ?_Get_scary@?$_Tree@V?$_Tmap_traits@KPAVCGuildMarkImage@@U?$less@K@std@@V?$allocator@U?$pair@$$CBKPAVCGuildMarkImage@@@std@@@3@$0A@@std@@@std@@IBEPBV?$_Tree_val@U?$_Tree_simple_types@U?$pair@$$CBKPAVCGuildMarkImage@@@std@@@std@@@2@XZ
_TEXT	SEGMENT
?_Get_scary@?$_Tree@V?$_Tmap_traits@KPAVCGuildMarkImage@@U?$less@K@std@@V?$allocator@U?$pair@$$CBKPAVCGuildMarkImage@@@std@@@3@$0A@@std@@@std@@IBEPBV?$_Tree_val@U?$_Tree_simple_types@U?$pair@$$CBKPAVCGuildMarkImage@@@std@@@std@@@2@XZ PROC ; std::_Tree<std::_Tmap_traits<unsigned long,CGuildMarkImage *,std::less<unsigned long>,std::allocator<std::pair<unsigned long const ,CGuildMarkImage *> >,0> >::_Get_scary, COMDAT
; _this$ = ecx

; 1987 :         return _STD addressof(_Mypair._Myval2._Myval2);

  00000	8b c1		 mov	 eax, ecx

; 1988 :     }

  00002	c3		 ret	 0
?_Get_scary@?$_Tree@V?$_Tmap_traits@KPAVCGuildMarkImage@@U?$less@K@std@@V?$allocator@U?$pair@$$CBKPAVCGuildMarkImage@@@std@@@3@$0A@@std@@@std@@IBEPBV?$_Tree_val@U?$_Tree_simple_types@U?$pair@$$CBKPAVCGuildMarkImage@@@std@@@std@@@2@XZ ENDP ; std::_Tree<std::_Tmap_traits<unsigned long,CGuildMarkImage *,std::less<unsigned long>,std::allocator<std::pair<unsigned long const ,CGuildMarkImage *> >,0> >::_Get_scary
_TEXT	ENDS
; Function compile flags: /Ogtp
; File C:\Program Files\Microsoft Visual Studio\2022\Community\VC\Tools\MSVC\14.44.35207\include\xtree
;	COMDAT ?_Get_scary@?$_Tree@V?$_Tmap_traits@KPAVCGuildMarkImage@@U?$less@K@std@@V?$allocator@U?$pair@$$CBKPAVCGuildMarkImage@@@std@@@3@$0A@@std@@@std@@IAEPAV?$_Tree_val@U?$_Tree_simple_types@U?$pair@$$CBKPAVCGuildMarkImage@@@std@@@std@@@2@XZ
_TEXT	SEGMENT
?_Get_scary@?$_Tree@V?$_Tmap_traits@KPAVCGuildMarkImage@@U?$less@K@std@@V?$allocator@U?$pair@$$CBKPAVCGuildMarkImage@@@std@@@3@$0A@@std@@@std@@IAEPAV?$_Tree_val@U?$_Tree_simple_types@U?$pair@$$CBKPAVCGuildMarkImage@@@std@@@std@@@2@XZ PROC ; std::_Tree<std::_Tmap_traits<unsigned long,CGuildMarkImage *,std::less<unsigned long>,std::allocator<std::pair<unsigned long const ,CGuildMarkImage *> >,0> >::_Get_scary, COMDAT
; _this$ = ecx

; 1983 :         return _STD addressof(_Mypair._Myval2._Myval2);

  00000	8b c1		 mov	 eax, ecx

; 1984 :     }

  00002	c3		 ret	 0
?_Get_scary@?$_Tree@V?$_Tmap_traits@KPAVCGuildMarkImage@@U?$less@K@std@@V?$allocator@U?$pair@$$CBKPAVCGuildMarkImage@@@std@@@3@$0A@@std@@@std@@IAEPAV?$_Tree_val@U?$_Tree_simple_types@U?$pair@$$CBKPAVCGuildMarkImage@@@std@@@std@@@2@XZ ENDP ; std::_Tree<std::_Tmap_traits<unsigned long,CGuildMarkImage *,std::less<unsigned long>,std::allocator<std::pair<unsigned long const ,CGuildMarkImage *> >,0> >::_Get_scary
_TEXT	ENDS
; Function compile flags: /Ogtp
; File C:\Program Files\Microsoft Visual Studio\2022\Community\VC\Tools\MSVC\14.44.35207\include\xtree
;	COMDAT ?_Getal@?$_Tree@V?$_Tmap_traits@KPAVCGuildMarkImage@@U?$less@K@std@@V?$allocator@U?$pair@$$CBKPAVCGuildMarkImage@@@std@@@3@$0A@@std@@@std@@IAEAAV?$allocator@U?$_Tree_node@U?$pair@$$CBKPAVCGuildMarkImage@@@std@@PAX@std@@@2@XZ
_TEXT	SEGMENT
?_Getal@?$_Tree@V?$_Tmap_traits@KPAVCGuildMarkImage@@U?$less@K@std@@V?$allocator@U?$pair@$$CBKPAVCGuildMarkImage@@@std@@@3@$0A@@std@@@std@@IAEAAV?$allocator@U?$_Tree_node@U?$pair@$$CBKPAVCGuildMarkImage@@@std@@PAX@std@@@2@XZ PROC ; std::_Tree<std::_Tmap_traits<unsigned long,CGuildMarkImage *,std::less<unsigned long>,std::allocator<std::pair<unsigned long const ,CGuildMarkImage *> >,0> >::_Getal, COMDAT
; _this$ = ecx

; 1975 :         return _Mypair._Myval2._Get_first();

  00000	8b c1		 mov	 eax, ecx

; 1976 :     }

  00002	c3		 ret	 0
?_Getal@?$_Tree@V?$_Tmap_traits@KPAVCGuildMarkImage@@U?$less@K@std@@V?$allocator@U?$pair@$$CBKPAVCGuildMarkImage@@@std@@@3@$0A@@std@@@std@@IAEAAV?$allocator@U?$_Tree_node@U?$pair@$$CBKPAVCGuildMarkImage@@@std@@PAX@std@@@2@XZ ENDP ; std::_Tree<std::_Tmap_traits<unsigned long,CGuildMarkImage *,std::less<unsigned long>,std::allocator<std::pair<unsigned long const ,CGuildMarkImage *> >,0> >::_Getal
_TEXT	ENDS
; Function compile flags: /Ogtp
; File C:\Program Files\Microsoft Visual Studio\2022\Community\VC\Tools\MSVC\14.44.35207\include\xtree
; File C:\Program Files\Microsoft Visual Studio\2022\Community\VC\Tools\MSVC\14.44.35207\include\xmemory
; File C:\Program Files\Microsoft Visual Studio\2022\Community\VC\Tools\MSVC\14.44.35207\include\xtree
; File C:\Program Files\Microsoft Visual Studio\2022\Community\VC\Tools\MSVC\14.44.35207\include\xmemory
; File C:\Program Files\Microsoft Visual Studio\2022\Community\VC\Tools\MSVC\14.44.35207\include\xtree
;	COMDAT ??0?$_Tree@V?$_Tmap_traits@KPAVCGuildMarkImage@@U?$less@K@std@@V?$allocator@U?$pair@$$CBKPAVCGuildMarkImage@@@std@@@3@$0A@@std@@@std@@QAE@ABU?$less@K@1@@Z
_TEXT	SEGMENT
__Parg$dead$ = 8					; size = 4
??0?$_Tree@V?$_Tmap_traits@KPAVCGuildMarkImage@@U?$less@K@std@@V?$allocator@U?$pair@$$CBKPAVCGuildMarkImage@@@std@@@3@$0A@@std@@@std@@QAE@ABU?$less@K@1@@Z PROC ; std::_Tree<std::_Tmap_traits<unsigned long,CGuildMarkImage *,std::less<unsigned long>,std::allocator<std::pair<unsigned long const ,CGuildMarkImage *> >,0> >::_Tree<std::_Tmap_traits<unsigned long,CGuildMarkImage *,std::less<unsigned long>,std::allocator<std::pair<unsigned long const ,CGuildMarkImage *> >,0> >, COMDAT
; _this$ = ecx

; 904  :     _Tree(const key_compare& _Parg) : _Mypair(_One_then_variadic_args_t{}, _Parg, _Zero_then_variadic_args_t{}) {

  00000	56		 push	 esi
  00001	8b f1		 mov	 esi, ecx
; File C:\Program Files\Microsoft Visual Studio\2022\Community\VC\Tools\MSVC\14.44.35207\include\xmemory

; 136  :         return ::operator new(_Bytes);

  00003	6a 18		 push	 24			; 00000018H
; File C:\Program Files\Microsoft Visual Studio\2022\Community\VC\Tools\MSVC\14.44.35207\include\xtree

; 450  :     _Tree_val() noexcept : _Myhead(), _Mysize(0) {}

  00005	c7 06 00 00 00
	00		 mov	 DWORD PTR [esi], 0
  0000b	c7 46 04 00 00
	00 00		 mov	 DWORD PTR [esi+4], 0
; File C:\Program Files\Microsoft Visual Studio\2022\Community\VC\Tools\MSVC\14.44.35207\include\xmemory

; 136  :         return ::operator new(_Bytes);

  00012	e8 00 00 00 00	 call	 ??2@YAPAXI@Z		; operator new
  00017	83 c4 04	 add	 esp, 4
; File C:\Program Files\Microsoft Visual Studio\2022\Community\VC\Tools\MSVC\14.44.35207\include\xtree

; 346  :         _Construct_in_place(_Pnode->_Left, _Pnode);

  0001a	89 00		 mov	 DWORD PTR [eax], eax

; 347  :         _Construct_in_place(_Pnode->_Parent, _Pnode);

  0001c	89 40 04	 mov	 DWORD PTR [eax+4], eax

; 348  :         _Construct_in_place(_Pnode->_Right, _Pnode);

  0001f	89 40 08	 mov	 DWORD PTR [eax+8], eax

; 349  :         _Pnode->_Color = _Black;

  00022	66 c7 40 0c 01
	01		 mov	 WORD PTR [eax+12], 257	; 00000101H

; 1957 :         _Scary->_Myhead = _Node::_Buyheadnode(_Getal());

  00028	89 06		 mov	 DWORD PTR [esi], eax

; 905  :         _Alloc_sentinel_and_proxy();
; 906  :     }

  0002a	8b c6		 mov	 eax, esi
  0002c	5e		 pop	 esi
  0002d	c2 04 00	 ret	 4
??0?$_Tree@V?$_Tmap_traits@KPAVCGuildMarkImage@@U?$less@K@std@@V?$allocator@U?$pair@$$CBKPAVCGuildMarkImage@@@std@@@3@$0A@@std@@@std@@QAE@ABU?$less@K@1@@Z ENDP ; std::_Tree<std::_Tmap_traits<unsigned long,CGuildMarkImage *,std::less<unsigned long>,std::allocator<std::pair<unsigned long const ,CGuildMarkImage *> >,0> >::_Tree<std::_Tmap_traits<unsigned long,CGuildMarkImage *,std::less<unsigned long>,std::allocator<std::pair<unsigned long const ,CGuildMarkImage *> >,0> >
_TEXT	ENDS
; Function compile flags: /Ogtp
; File C:\Program Files\Microsoft Visual Studio\2022\Community\VC\Tools\MSVC\14.44.35207\include\vector
;	COMDAT ?_Getal@?$vector@EV?$allocator@E@std@@@std@@AAEAAV?$allocator@E@2@XZ
_TEXT	SEGMENT
?_Getal@?$vector@EV?$allocator@E@std@@@std@@AAEAAV?$allocator@E@2@XZ PROC ; std::vector<unsigned char,std::allocator<unsigned char> >::_Getal, COMDAT
; _this$ = ecx

; 2227 :         return _Mypair._Get_first();

  00000	8b c1		 mov	 eax, ecx

; 2228 :     }

  00002	c3		 ret	 0
?_Getal@?$vector@EV?$allocator@E@std@@@std@@AAEAAV?$allocator@E@2@XZ ENDP ; std::vector<unsigned char,std::allocator<unsigned char> >::_Getal
_TEXT	ENDS
; Function compile flags: /Ogtp
; File C:\Program Files\Microsoft Visual Studio\2022\Community\VC\Tools\MSVC\14.44.35207\include\vector
;	COMDAT ?_Xlength@?$vector@EV?$allocator@E@std@@@std@@CAXXZ
_TEXT	SEGMENT
?_Xlength@?$vector@EV?$allocator@E@std@@@std@@CAXXZ PROC ; std::vector<unsigned char,std::allocator<unsigned char> >::_Xlength, COMDAT

; 2184 :         _Xlength_error("vector too long");

  00000	68 00 00 00 00	 push	 OFFSET ??_C@_0BA@FOIKENOD@vector?5too?5long@
  00005	e8 00 00 00 00	 call	 ?_Xlength_error@std@@YAXPBD@Z ; std::_Xlength_error
$LN3@Xlength:
  0000a	cc		 int	 3
?_Xlength@?$vector@EV?$allocator@E@std@@@std@@CAXXZ ENDP ; std::vector<unsigned char,std::allocator<unsigned char> >::_Xlength
_TEXT	ENDS
; Function compile flags: /Ogtp
; File C:\Program Files\Microsoft Visual Studio\2022\Community\VC\Tools\MSVC\14.44.35207\include\vector
; File C:\Program Files\Microsoft Visual Studio\2022\Community\VC\Tools\MSVC\14.44.35207\include\xmemory
; File C:\Program Files\Microsoft Visual Studio\2022\Community\VC\Tools\MSVC\14.44.35207\include\vector
; File C:\Program Files\Microsoft Visual Studio\2022\Community\VC\Tools\MSVC\14.44.35207\include\xmemory
; File C:\Program Files\Microsoft Visual Studio\2022\Community\VC\Tools\MSVC\14.44.35207\include\vector
; File C:\Program Files\Microsoft Visual Studio\2022\Community\VC\Tools\MSVC\14.44.35207\include\xmemory
; File C:\Program Files\Microsoft Visual Studio\2022\Community\VC\Tools\MSVC\14.44.35207\include\vector
;	COMDAT ?_Tidy@?$vector@EV?$allocator@E@std@@@std@@AAEXXZ
_TEXT	SEGMENT
?_Tidy@?$vector@EV?$allocator@E@std@@@std@@AAEXXZ PROC	; std::vector<unsigned char,std::allocator<unsigned char> >::_Tidy, COMDAT
; _this$ = ecx

; 2081 :     _CONSTEXPR20 void _Tidy() noexcept { // free all storage

  00000	56		 push	 esi
  00001	8b f1		 mov	 esi, ecx

; 2082 :         auto& _Al         = _Getal();
; 2083 :         auto& _My_data    = _Mypair._Myval2;
; 2084 :         pointer& _Myfirst = _My_data._Myfirst;
; 2085 :         pointer& _Mylast  = _My_data._Mylast;
; 2086 :         pointer& _Myend   = _My_data._Myend;
; 2087 : 
; 2088 :         _My_data._Orphan_all();
; 2089 : 
; 2090 :         if (_Myfirst) { // destroy and deallocate old array

  00003	8b 06		 mov	 eax, DWORD PTR [esi]
  00005	85 c0		 test	 eax, eax
  00007	74 3d		 je	 SHORT $LN2@Tidy

; 2091 :             _STD _Destroy_range(_Myfirst, _Mylast, _Al);
; 2092 :             _ASAN_VECTOR_REMOVE;
; 2093 :             _Al.deallocate(_Myfirst, static_cast<size_type>(_Myend - _Myfirst));

  00009	8b 4e 08	 mov	 ecx, DWORD PTR [esi+8]
  0000c	2b c8		 sub	 ecx, eax
; File C:\Program Files\Microsoft Visual Studio\2022\Community\VC\Tools\MSVC\14.44.35207\include\xmemory

; 284  :         if (_Bytes >= _Big_allocation_threshold) {

  0000e	81 f9 00 10 00
	00		 cmp	 ecx, 4096		; 00001000H
  00014	72 12		 jb	 SHORT $LN16@Tidy

; 205  :     const uintptr_t _Ptr_container   = _Ptr_user[-1];

  00016	8b 50 fc	 mov	 edx, DWORD PTR [eax-4]
  00019	83 c1 23	 add	 ecx, 35			; 00000023H

; 206  : 
; 207  :     // If the following asserts, it likely means that we are performing
; 208  :     // an aligned delete on memory coming from an unaligned allocation.
; 209  :     _STL_ASSERT(_Ptr_user[-2] == _Big_allocation_sentinel, "invalid argument");
; 210  : 
; 211  :     // Extra paranoia on aligned allocation/deallocation; ensure _Ptr_container is
; 212  :     // in range [_Min_back_shift, _Non_user_size]
; 213  : #ifdef _DEBUG
; 214  :     constexpr uintptr_t _Min_back_shift = 2 * sizeof(void*);
; 215  : #else // ^^^ defined(_DEBUG) / !defined(_DEBUG) vvv
; 216  :     constexpr uintptr_t _Min_back_shift = sizeof(void*);
; 217  : #endif // ^^^ !defined(_DEBUG) ^^^
; 218  :     const uintptr_t _Back_shift = reinterpret_cast<uintptr_t>(_Ptr) - _Ptr_container;

  0001c	2b c2		 sub	 eax, edx

; 219  :     _STL_VERIFY(_Back_shift >= _Min_back_shift && _Back_shift <= _Non_user_size, "invalid argument");

  0001e	83 c0 fc	 add	 eax, -4			; fffffffcH
  00021	83 f8 1f	 cmp	 eax, 31			; 0000001fH
  00024	77 22		 ja	 SHORT $LN15@Tidy

; 220  :     _Ptr = reinterpret_cast<void*>(_Ptr_container);

  00026	8b c2		 mov	 eax, edx
$LN16@Tidy:

; 289  :         ::operator delete(_Ptr, _Bytes);

  00028	51		 push	 ecx
  00029	50		 push	 eax
  0002a	e8 00 00 00 00	 call	 ??3@YAXPAXI@Z		; operator delete
; File C:\Program Files\Microsoft Visual Studio\2022\Community\VC\Tools\MSVC\14.44.35207\include\vector

; 2095 :             _Myfirst = nullptr;

  0002f	c7 06 00 00 00
	00		 mov	 DWORD PTR [esi], 0
; File C:\Program Files\Microsoft Visual Studio\2022\Community\VC\Tools\MSVC\14.44.35207\include\xmemory

; 289  :         ::operator delete(_Ptr, _Bytes);

  00035	83 c4 08	 add	 esp, 8
; File C:\Program Files\Microsoft Visual Studio\2022\Community\VC\Tools\MSVC\14.44.35207\include\vector

; 2096 :             _Mylast  = nullptr;

  00038	c7 46 04 00 00
	00 00		 mov	 DWORD PTR [esi+4], 0

; 2097 :             _Myend   = nullptr;

  0003f	c7 46 08 00 00
	00 00		 mov	 DWORD PTR [esi+8], 0
$LN2@Tidy:

; 2099 :     }

  00046	5e		 pop	 esi
  00047	c3		 ret	 0
$LN15@Tidy:
; File C:\Program Files\Microsoft Visual Studio\2022\Community\VC\Tools\MSVC\14.44.35207\include\xmemory

; 219  :     _STL_VERIFY(_Back_shift >= _Min_back_shift && _Back_shift <= _Non_user_size, "invalid argument");

  00048	6a 00		 push	 0
  0004a	6a 00		 push	 0
  0004c	6a 00		 push	 0
  0004e	6a 00		 push	 0
  00050	6a 00		 push	 0
  00052	e8 00 00 00 00	 call	 __invoke_watson
$LN23@Tidy:
  00057	cc		 int	 3
?_Tidy@?$vector@EV?$allocator@E@std@@@std@@AAEXXZ ENDP	; std::vector<unsigned char,std::allocator<unsigned char> >::_Tidy
_TEXT	ENDS
; Function compile flags: /Ogtp
; File C:\Program Files\Microsoft Visual Studio\2022\Community\VC\Tools\MSVC\14.44.35207\include\vector
;	COMDAT ?capacity@?$vector@EV?$allocator@E@std@@@std@@QBEIXZ
_TEXT	SEGMENT
?capacity@?$vector@EV?$allocator@E@std@@@std@@QBEIXZ PROC ; std::vector<unsigned char,std::allocator<unsigned char> >::capacity, COMDAT
; _this$ = ecx

; 1923 :         auto& _My_data = _Mypair._Myval2;
; 1924 :         return static_cast<size_type>(_My_data._Myend - _My_data._Myfirst);

  00000	8b 41 08	 mov	 eax, DWORD PTR [ecx+8]
  00003	2b 01		 sub	 eax, DWORD PTR [ecx]

; 1925 :     }

  00005	c3		 ret	 0
?capacity@?$vector@EV?$allocator@E@std@@@std@@QBEIXZ ENDP ; std::vector<unsigned char,std::allocator<unsigned char> >::capacity
_TEXT	ENDS
; Function compile flags: /Ogtp
; File C:\Program Files\Microsoft Visual Studio\2022\Community\VC\Tools\MSVC\14.44.35207\include\vector
;	COMDAT ?max_size@?$vector@EV?$allocator@E@std@@@std@@QBEIXZ
_TEXT	SEGMENT
?max_size@?$vector@EV?$allocator@E@std@@@std@@QBEIXZ PROC ; std::vector<unsigned char,std::allocator<unsigned char> >::max_size, COMDAT
; _this$dead$ = ecx

; 1919 :         return (_STD min)(static_cast<size_type>(_STD _Max_limit<difference_type>()), _Alty_traits::max_size(_Getal()));

  00000	b8 ff ff ff 7f	 mov	 eax, 2147483647		; 7fffffffH

; 1920 :     }

  00005	c3		 ret	 0
?max_size@?$vector@EV?$allocator@E@std@@@std@@QBEIXZ ENDP ; std::vector<unsigned char,std::allocator<unsigned char> >::max_size
_TEXT	ENDS
; Function compile flags: /Ogtp
; File C:\Program Files\Microsoft Visual Studio\2022\Community\VC\Tools\MSVC\14.44.35207\include\xtree
; File C:\Program Files\Microsoft Visual Studio\2022\Community\VC\Tools\MSVC\14.44.35207\include\type_traits
; File C:\Program Files\Microsoft Visual Studio\2022\Community\VC\Tools\MSVC\14.44.35207\include\xtree
; File C:\Program Files\Microsoft Visual Studio\2022\Community\VC\Tools\MSVC\14.44.35207\include\type_traits
; File C:\Program Files\Microsoft Visual Studio\2022\Community\VC\Tools\MSVC\14.44.35207\include\xtree
;	COMDAT ??$_Find_lower_bound@K@?$_Tree@V?$_Tmap_traits@KPAVCGuildMarkImage@@U?$less@K@std@@V?$allocator@U?$pair@$$CBKPAVCGuildMarkImage@@@std@@@3@$0A@@std@@@std@@IBE?AU?$_Tree_find_result@PAU?$_Tree_node@U?$pair@$$CBKPAVCGuildMarkImage@@@std@@PAX@std@@@1@ABK@Z
_TEXT	SEGMENT
___$ReturnUdt$ = 8					; size = 4
__Keyval$ = 12						; size = 4
??$_Find_lower_bound@K@?$_Tree@V?$_Tmap_traits@KPAVCGuildMarkImage@@U?$less@K@std@@V?$allocator@U?$pair@$$CBKPAVCGuildMarkImage@@@std@@@3@$0A@@std@@@std@@IBE?AU?$_Tree_find_result@PAU?$_Tree_node@U?$pair@$$CBKPAVCGuildMarkImage@@@std@@PAX@std@@@1@ABK@Z PROC ; std::_Tree<std::_Tmap_traits<unsigned long,CGuildMarkImage *,std::less<unsigned long>,std::allocator<std::pair<unsigned long const ,CGuildMarkImage *> >,0> >::_Find_lower_bound<unsigned long>, COMDAT
; _this$ = ecx

; 1628 :     _Tree_find_result<_Nodeptr> _Find_lower_bound(const _Keyty& _Keyval) const {

  00000	55		 push	 ebp
  00001	8b ec		 mov	 ebp, esp

; 1629 :         const auto _Scary = _Get_scary();
; 1630 :         _Tree_find_result<_Nodeptr> _Result{{_Scary->_Myhead->_Parent, _Tree_child::_Right}, _Scary->_Myhead};

  00003	8b 09		 mov	 ecx, DWORD PTR [ecx]
  00005	8b 55 08	 mov	 edx, DWORD PTR ___$ReturnUdt$[ebp]
  00008	8b 41 04	 mov	 eax, DWORD PTR [ecx+4]
  0000b	89 02		 mov	 DWORD PTR [edx], eax
  0000d	c7 42 04 00 00
	00 00		 mov	 DWORD PTR [edx+4], 0
  00014	89 4a 08	 mov	 DWORD PTR [edx+8], ecx

; 1631 :         _Nodeptr _Trynode = _Result._Location._Parent;
; 1632 :         while (!_Trynode->_Isnil) {

  00017	80 78 0d 00	 cmp	 BYTE PTR [eax+13], 0
  0001b	75 28		 jne	 SHORT $LN13@Find_lower
; File C:\Program Files\Microsoft Visual Studio\2022\Community\VC\Tools\MSVC\14.44.35207\include\type_traits

; 2380 :         return _Left < _Right;

  0001d	8b 4d 0c	 mov	 ecx, DWORD PTR __Keyval$[ebp]
  00020	56		 push	 esi
  00021	8b 31		 mov	 esi, DWORD PTR [ecx]
$LL2@Find_lower:
; File C:\Program Files\Microsoft Visual Studio\2022\Community\VC\Tools\MSVC\14.44.35207\include\xtree

; 1633 :             _Result._Location._Parent = _Trynode;

  00023	89 02		 mov	 DWORD PTR [edx], eax
; File C:\Program Files\Microsoft Visual Studio\2022\Community\VC\Tools\MSVC\14.44.35207\include\type_traits

; 2380 :         return _Left < _Right;

  00025	39 70 10	 cmp	 DWORD PTR [eax+16], esi
; File C:\Program Files\Microsoft Visual Studio\2022\Community\VC\Tools\MSVC\14.44.35207\include\xtree

; 1634 :             if (_DEBUG_LT_PRED(_Getcomp(), _Traits::_Kfn(_Trynode->_Myval), _Keyval)) {

  00028	73 07		 jae	 SHORT $LN4@Find_lower

; 1635 :                 _Result._Location._Child = _Tree_child::_Right;
; 1636 :                 _Trynode                 = _Trynode->_Right;

  0002a	8b 40 08	 mov	 eax, DWORD PTR [eax+8]
  0002d	33 c9		 xor	 ecx, ecx

; 1637 :             } else {

  0002f	eb 0a		 jmp	 SHORT $LN5@Find_lower
$LN4@Find_lower:

; 1638 :                 _Result._Location._Child = _Tree_child::_Left;
; 1639 :                 _Result._Bound           = _Trynode;

  00031	89 42 08	 mov	 DWORD PTR [edx+8], eax

; 1640 :                 _Trynode                 = _Trynode->_Left;

  00034	b9 01 00 00 00	 mov	 ecx, 1
  00039	8b 00		 mov	 eax, DWORD PTR [eax]
$LN5@Find_lower:

; 1631 :         _Nodeptr _Trynode = _Result._Location._Parent;
; 1632 :         while (!_Trynode->_Isnil) {

  0003b	89 4a 04	 mov	 DWORD PTR [edx+4], ecx
  0003e	80 78 0d 00	 cmp	 BYTE PTR [eax+13], 0
  00042	74 df		 je	 SHORT $LL2@Find_lower
  00044	5e		 pop	 esi
$LN13@Find_lower:

; 1641 :             }
; 1642 :         }
; 1643 : 
; 1644 :         return _Result;
; 1645 :     }

  00045	8b c2		 mov	 eax, edx
  00047	5d		 pop	 ebp
  00048	c2 08 00	 ret	 8
??$_Find_lower_bound@K@?$_Tree@V?$_Tmap_traits@KPAVCGuildMarkImage@@U?$less@K@std@@V?$allocator@U?$pair@$$CBKPAVCGuildMarkImage@@@std@@@3@$0A@@std@@@std@@IBE?AU?$_Tree_find_result@PAU?$_Tree_node@U?$pair@$$CBKPAVCGuildMarkImage@@@std@@PAX@std@@@1@ABK@Z ENDP ; std::_Tree<std::_Tmap_traits<unsigned long,CGuildMarkImage *,std::less<unsigned long>,std::allocator<std::pair<unsigned long const ,CGuildMarkImage *> >,0> >::_Find_lower_bound<unsigned long>
_TEXT	ENDS
; Function compile flags: /Ogtp
; File C:\Program Files\Microsoft Visual Studio\2022\Community\VC\Tools\MSVC\14.44.35207\include\xtree
; File C:\Program Files\Microsoft Visual Studio\2022\Community\VC\Tools\MSVC\14.44.35207\include\type_traits
; File C:\Program Files\Microsoft Visual Studio\2022\Community\VC\Tools\MSVC\14.44.35207\include\xtree
;	COMDAT ??$_Lower_bound_duplicate@K@?$_Tree@V?$_Tmap_traits@KPAVCGuildMarkImage@@U?$less@K@std@@V?$allocator@U?$pair@$$CBKPAVCGuildMarkImage@@@std@@@3@$0A@@std@@@std@@IBE_NQAU?$_Tree_node@U?$pair@$$CBKPAVCGuildMarkImage@@@std@@PAX@1@ABK@Z
_TEXT	SEGMENT
__Bound$ = 8						; size = 4
__Keyval$ = 12						; size = 4
??$_Lower_bound_duplicate@K@?$_Tree@V?$_Tmap_traits@KPAVCGuildMarkImage@@U?$less@K@std@@V?$allocator@U?$pair@$$CBKPAVCGuildMarkImage@@@std@@@3@$0A@@std@@@std@@IBE_NQAU?$_Tree_node@U?$pair@$$CBKPAVCGuildMarkImage@@@std@@PAX@1@ABK@Z PROC ; std::_Tree<std::_Tmap_traits<unsigned long,CGuildMarkImage *,std::less<unsigned long>,std::allocator<std::pair<unsigned long const ,CGuildMarkImage *> >,0> >::_Lower_bound_duplicate<unsigned long>, COMDAT
; _this$dead$ = ecx

; 1623 :     bool _Lower_bound_duplicate(const _Nodeptr _Bound, const _Keyty& _Keyval) const {

  00000	55		 push	 ebp
  00001	8b ec		 mov	 ebp, esp

; 1624 :         return !_Bound->_Isnil && !_DEBUG_LT_PRED(_Getcomp(), _Keyval, _Traits::_Kfn(_Bound->_Myval));

  00003	8b 4d 08	 mov	 ecx, DWORD PTR __Bound$[ebp]
  00006	80 79 0d 00	 cmp	 BYTE PTR [ecx+13], 0
  0000a	75 10		 jne	 SHORT $LN3@Lower_boun
; File C:\Program Files\Microsoft Visual Studio\2022\Community\VC\Tools\MSVC\14.44.35207\include\type_traits

; 2380 :         return _Left < _Right;

  0000c	8b 45 0c	 mov	 eax, DWORD PTR __Keyval$[ebp]
  0000f	8b 00		 mov	 eax, DWORD PTR [eax]
  00011	3b 41 10	 cmp	 eax, DWORD PTR [ecx+16]
; File C:\Program Files\Microsoft Visual Studio\2022\Community\VC\Tools\MSVC\14.44.35207\include\xtree

; 1624 :         return !_Bound->_Isnil && !_DEBUG_LT_PRED(_Getcomp(), _Keyval, _Traits::_Kfn(_Bound->_Myval));

  00014	72 06		 jb	 SHORT $LN3@Lower_boun
  00016	b0 01		 mov	 al, 1

; 1625 :     }

  00018	5d		 pop	 ebp
  00019	c2 08 00	 ret	 8
$LN3@Lower_boun:

; 1624 :         return !_Bound->_Isnil && !_DEBUG_LT_PRED(_Getcomp(), _Keyval, _Traits::_Kfn(_Bound->_Myval));

  0001c	32 c0		 xor	 al, al

; 1625 :     }

  0001e	5d		 pop	 ebp
  0001f	c2 08 00	 ret	 8
??$_Lower_bound_duplicate@K@?$_Tree@V?$_Tmap_traits@KPAVCGuildMarkImage@@U?$less@K@std@@V?$allocator@U?$pair@$$CBKPAVCGuildMarkImage@@@std@@@3@$0A@@std@@@std@@IBE_NQAU?$_Tree_node@U?$pair@$$CBKPAVCGuildMarkImage@@@std@@PAX@1@ABK@Z ENDP ; std::_Tree<std::_Tmap_traits<unsigned long,CGuildMarkImage *,std::less<unsigned long>,std::allocator<std::pair<unsigned long const ,CGuildMarkImage *> >,0> >::_Lower_bound_duplicate<unsigned long>
_TEXT	ENDS
; Function compile flags: /Ogtp
; File C:\Program Files\Microsoft Visual Studio\2022\Community\VC\Tools\MSVC\14.44.35207\include\type_traits
;	COMDAT ??$forward@U?$pair@$$CBKPAVCGuildMarkImage@@@std@@@std@@YA$$QAU?$pair@$$CBKPAVCGuildMarkImage@@@0@AAU10@@Z
_TEXT	SEGMENT
??$forward@U?$pair@$$CBKPAVCGuildMarkImage@@@std@@@std@@YA$$QAU?$pair@$$CBKPAVCGuildMarkImage@@@0@AAU10@@Z PROC ; std::forward<std::pair<unsigned long const ,CGuildMarkImage *> >, COMDAT
; __Arg$ = ecx

; 1502 :     return static_cast<_Ty&&>(_Arg);

  00000	8b c1		 mov	 eax, ecx

; 1503 : }

  00002	c3		 ret	 0
??$forward@U?$pair@$$CBKPAVCGuildMarkImage@@@std@@@std@@YA$$QAU?$pair@$$CBKPAVCGuildMarkImage@@@0@AAU10@@Z ENDP ; std::forward<std::pair<unsigned long const ,CGuildMarkImage *> >
_TEXT	ENDS
; Function compile flags: /Ogtp
; File C:\Program Files\Microsoft Visual Studio\2022\Community\VC\Tools\MSVC\14.44.35207\include\xtree
; File C:\Program Files\Microsoft Visual Studio\2022\Community\VC\Tools\MSVC\14.44.35207\include\xmemory
; File C:\Program Files\Microsoft Visual Studio\2022\Community\VC\Tools\MSVC\14.44.35207\include\xtree
; File C:\Program Files\Microsoft Visual Studio\2022\Community\VC\Tools\MSVC\14.44.35207\include\xmemory
; File C:\Program Files\Microsoft Visual Studio\2022\Community\VC\Tools\MSVC\14.44.35207\include\xtree
; File C:\Program Files\Microsoft Visual Studio\2022\Community\VC\Tools\MSVC\14.44.35207\include\xmemory
; File C:\Program Files\Microsoft Visual Studio\2022\Community\VC\Tools\MSVC\14.44.35207\include\xtree
;	COMDAT ??$?0U?$pair@$$CBKPAVCGuildMarkImage@@@std@@@?$_Tree_temp_node@V?$allocator@U?$_Tree_node@U?$pair@$$CBKPAVCGuildMarkImage@@@std@@PAX@std@@@std@@@std@@QAE@AAV?$allocator@U?$_Tree_node@U?$pair@$$CBKPAVCGuildMarkImage@@@std@@PAX@std@@@1@PAU?$_Tree_node@U?$pair@$$CBKPAVCGuildMarkImage@@@std@@PAX@1@$$QAU?$pair@$$CBKPAVCGuildMarkImage@@@1@@Z
_TEXT	SEGMENT
_this$ = -16						; size = 4
__$EHRec$ = -12						; size = 12
__Al_$ = 8						; size = 4
__Myhead$ = 12						; size = 4
_<_Vals_0>$ = 16					; size = 4
??$?0U?$pair@$$CBKPAVCGuildMarkImage@@@std@@@?$_Tree_temp_node@V?$allocator@U?$_Tree_node@U?$pair@$$CBKPAVCGuildMarkImage@@@std@@PAX@std@@@std@@@std@@QAE@AAV?$allocator@U?$_Tree_node@U?$pair@$$CBKPAVCGuildMarkImage@@@std@@PAX@std@@@1@PAU?$_Tree_node@U?$pair@$$CBKPAVCGuildMarkImage@@@std@@PAX@1@$$QAU?$pair@$$CBKPAVCGuildMarkImage@@@1@@Z PROC ; std::_Tree_temp_node<std::allocator<std::_Tree_node<std::pair<unsigned long const ,CGuildMarkImage *>,void *> > >::_Tree_temp_node<std::allocator<std::_Tree_node<std::pair<unsigned long const ,CGuildMarkImage *>,void *> > ><std::pair<unsigned long const ,CGuildMarkImage *> >, COMDAT
; _this$ = ecx

; 829  :         : _Tree_temp_node_alloc<_Alnode>(_Al_) {

  00000	55		 push	 ebp
  00001	8b ec		 mov	 ebp, esp
  00003	6a ff		 push	 -1
  00005	68 00 00 00 00	 push	 __ehhandler$??$?0U?$pair@$$CBKPAVCGuildMarkImage@@@std@@@?$_Tree_temp_node@V?$allocator@U?$_Tree_node@U?$pair@$$CBKPAVCGuildMarkImage@@@std@@PAX@std@@@std@@@std@@QAE@AAV?$allocator@U?$_Tree_node@U?$pair@$$CBKPAVCGuildMarkImage@@@std@@PAX@std@@@1@PAU?$_Tree_node@U?$pair@$$CBKPAVCGuildMarkImage@@@std@@PAX@1@$$QAU?$pair@$$CBKPAVCGuildMarkImage@@@1@@Z
  0000a	64 a1 00 00 00
	00		 mov	 eax, DWORD PTR fs:0
  00010	50		 push	 eax
  00011	51		 push	 ecx
  00012	56		 push	 esi
  00013	a1 00 00 00 00	 mov	 eax, DWORD PTR ___security_cookie
  00018	33 c5		 xor	 eax, ebp
  0001a	50		 push	 eax
  0001b	8d 45 f4	 lea	 eax, DWORD PTR __$EHRec$[ebp]
  0001e	64 a3 00 00 00
	00		 mov	 DWORD PTR fs:0, eax
  00024	8b f1		 mov	 esi, ecx
  00026	89 75 f0	 mov	 DWORD PTR _this$[ebp], esi
; File C:\Program Files\Microsoft Visual Studio\2022\Community\VC\Tools\MSVC\14.44.35207\include\xmemory

; 1160 :     _CONSTEXPR20 explicit _Alloc_construct_ptr(_Alloc& _Al_) : _Al(_Al_), _Ptr(nullptr) {}

  00029	8b 45 08	 mov	 eax, DWORD PTR __Al_$[ebp]
  0002c	89 06		 mov	 DWORD PTR [esi], eax
; File C:\Program Files\Microsoft Visual Studio\2022\Community\VC\Tools\MSVC\14.44.35207\include\xtree

; 808  :     explicit _Tree_temp_node_alloc(_Alnode& _Al_) : _Alloc_construct_ptr<_Alnode>(_Al_) {

  0002e	c7 45 fc 00 00
	00 00		 mov	 DWORD PTR __$EHRec$[ebp+8], 0
; File C:\Program Files\Microsoft Visual Studio\2022\Community\VC\Tools\MSVC\14.44.35207\include\xmemory

; 136  :         return ::operator new(_Bytes);

  00035	6a 18		 push	 24			; 00000018H

; 1167 :         _Ptr = nullptr; // if allocate throws, prevents double-free

  00037	c7 46 04 00 00
	00 00		 mov	 DWORD PTR [esi+4], 0

; 136  :         return ::operator new(_Bytes);

  0003e	e8 00 00 00 00	 call	 ??2@YAPAXI@Z		; operator new
; File C:\Program Files\Microsoft Visual Studio\2022\Community\VC\Tools\MSVC\14.44.35207\include\xtree

; 830  :         _Alnode_traits::construct(this->_Al, _STD addressof(this->_Ptr->_Myval), _STD forward<_Valtys>(_Vals)...);

  00043	8b 4d 10	 mov	 ecx, DWORD PTR _<_Vals_0>$[ebp]
; File C:\Program Files\Microsoft Visual Studio\2022\Community\VC\Tools\MSVC\14.44.35207\include\xmemory

; 136  :         return ::operator new(_Bytes);

  00046	83 c4 04	 add	 esp, 4

; 1168 :         _Ptr = _Al.allocate(1);

  00049	89 46 04	 mov	 DWORD PTR [esi+4], eax
; File C:\Program Files\Microsoft Visual Studio\2022\Community\VC\Tools\MSVC\14.44.35207\include\xtree

; 830  :         _Alnode_traits::construct(this->_Al, _STD addressof(this->_Ptr->_Myval), _STD forward<_Valtys>(_Vals)...);

  0004c	8b 11		 mov	 edx, DWORD PTR [ecx]
  0004e	8b 49 04	 mov	 ecx, DWORD PTR [ecx+4]
  00051	89 48 14	 mov	 DWORD PTR [eax+20], ecx

; 831  :         _Construct_in_place(this->_Ptr->_Left, _Myhead);

  00054	8b 4d 0c	 mov	 ecx, DWORD PTR __Myhead$[ebp]
  00057	89 50 10	 mov	 DWORD PTR [eax+16], edx
  0005a	8b 46 04	 mov	 eax, DWORD PTR [esi+4]
  0005d	89 08		 mov	 DWORD PTR [eax], ecx

; 832  :         _Construct_in_place(this->_Ptr->_Parent, _Myhead);

  0005f	8b 46 04	 mov	 eax, DWORD PTR [esi+4]
  00062	89 48 04	 mov	 DWORD PTR [eax+4], ecx

; 833  :         _Construct_in_place(this->_Ptr->_Right, _Myhead);

  00065	8b 46 04	 mov	 eax, DWORD PTR [esi+4]
  00068	89 48 08	 mov	 DWORD PTR [eax+8], ecx

; 834  :         this->_Ptr->_Color = _Red;

  0006b	8b 46 04	 mov	 eax, DWORD PTR [esi+4]
  0006e	c6 40 0c 00	 mov	 BYTE PTR [eax+12], 0

; 835  :         this->_Ptr->_Isnil = false;

  00072	8b 46 04	 mov	 eax, DWORD PTR [esi+4]
  00075	c6 40 0d 00	 mov	 BYTE PTR [eax+13], 0

; 836  :     }

  00079	8b c6		 mov	 eax, esi
  0007b	8b 4d f4	 mov	 ecx, DWORD PTR __$EHRec$[ebp]
  0007e	64 89 0d 00 00
	00 00		 mov	 DWORD PTR fs:0, ecx
  00085	59		 pop	 ecx
  00086	5e		 pop	 esi
  00087	8b e5		 mov	 esp, ebp
  00089	5d		 pop	 ebp
  0008a	c2 0c 00	 ret	 12			; 0000000cH
_TEXT	ENDS
;	COMDAT text$x
text$x	SEGMENT
__unwindfunclet$??$?0U?$pair@$$CBKPAVCGuildMarkImage@@@std@@@?$_Tree_temp_node@V?$allocator@U?$_Tree_node@U?$pair@$$CBKPAVCGuildMarkImage@@@std@@PAX@std@@@std@@@std@@QAE@AAV?$allocator@U?$_Tree_node@U?$pair@$$CBKPAVCGuildMarkImage@@@std@@PAX@std@@@1@PAU?$_Tree_node@U?$pair@$$CBKPAVCGuildMarkImage@@@std@@PAX@1@$$QAU?$pair@$$CBKPAVCGuildMarkImage@@@1@@Z$1:
  00000	8b 4d f0	 mov	 ecx, DWORD PTR _this$[ebp]
  00003	e9 00 00 00 00	 jmp	 ??1?$_Alloc_construct_ptr@V?$allocator@U?$_Tree_node@U?$pair@$$CBKPAVCGuildMarkImage@@@std@@PAX@std@@@std@@@std@@QAE@XZ ; std::_Alloc_construct_ptr<std::allocator<std::_Tree_node<std::pair<unsigned long const ,CGuildMarkImage *>,void *> > >::~_Alloc_construct_ptr<std::allocator<std::_Tree_node<std::pair<unsigned long const ,CGuildMarkImage *>,void *> > >
  00008	cc		 int	 3
  00009	cc		 int	 3
  0000a	cc		 int	 3
  0000b	cc		 int	 3
  0000c	cc		 int	 3
__ehhandler$??$?0U?$pair@$$CBKPAVCGuildMarkImage@@@std@@@?$_Tree_temp_node@V?$allocator@U?$_Tree_node@U?$pair@$$CBKPAVCGuildMarkImage@@@std@@PAX@std@@@std@@@std@@QAE@AAV?$allocator@U?$_Tree_node@U?$pair@$$CBKPAVCGuildMarkImage@@@std@@PAX@std@@@1@PAU?$_Tree_node@U?$pair@$$CBKPAVCGuildMarkImage@@@std@@PAX@1@$$QAU?$pair@$$CBKPAVCGuildMarkImage@@@1@@Z:
  0000d	90		 npad	 1
  0000e	90		 npad	 1
  0000f	8b 54 24 08	 mov	 edx, DWORD PTR [esp+8]
  00013	8d 42 0c	 lea	 eax, DWORD PTR [edx+12]
  00016	8b 4a f4	 mov	 ecx, DWORD PTR [edx-12]
  00019	33 c8		 xor	 ecx, eax
  0001b	e8 00 00 00 00	 call	 @__security_check_cookie@4
  00020	b8 00 00 00 00	 mov	 eax, OFFSET __ehfuncinfo$??$?0U?$pair@$$CBKPAVCGuildMarkImage@@@std@@@?$_Tree_temp_node@V?$allocator@U?$_Tree_node@U?$pair@$$CBKPAVCGuildMarkImage@@@std@@PAX@std@@@std@@@std@@QAE@AAV?$allocator@U?$_Tree_node@U?$pair@$$CBKPAVCGuildMarkImage@@@std@@PAX@std@@@1@PAU?$_Tree_node@U?$pair@$$CBKPAVCGuildMarkImage@@@std@@PAX@1@$$QAU?$pair@$$CBKPAVCGuildMarkImage@@@1@@Z
  00025	e9 00 00 00 00	 jmp	 ___CxxFrameHandler3
text$x	ENDS
??$?0U?$pair@$$CBKPAVCGuildMarkImage@@@std@@@?$_Tree_temp_node@V?$allocator@U?$_Tree_node@U?$pair@$$CBKPAVCGuildMarkImage@@@std@@PAX@std@@@std@@@std@@QAE@AAV?$allocator@U?$_Tree_node@U?$pair@$$CBKPAVCGuildMarkImage@@@std@@PAX@std@@@1@PAU?$_Tree_node@U?$pair@$$CBKPAVCGuildMarkImage@@@std@@PAX@1@$$QAU?$pair@$$CBKPAVCGuildMarkImage@@@1@@Z ENDP ; std::_Tree_temp_node<std::allocator<std::_Tree_node<std::pair<unsigned long const ,CGuildMarkImage *>,void *> > >::_Tree_temp_node<std::allocator<std::_Tree_node<std::pair<unsigned long const ,CGuildMarkImage *>,void *> > ><std::pair<unsigned long const ,CGuildMarkImage *> >
; Function compile flags: /Ogtp
; File C:\Program Files\Microsoft Visual Studio\2022\Community\VC\Tools\MSVC\14.44.35207\include\utility
;	COMDAT ??$?0AAPAU?$_Tree_node@U?$pair@$$CBKPAVCGuildMarkImage@@@std@@PAX@std@@_N$0A@@?$pair@PAU?$_Tree_node@U?$pair@$$CBKPAVCGuildMarkImage@@@std@@PAX@std@@_N@std@@QAE@AAPAU?$_Tree_node@U?$pair@$$CBKPAVCGuildMarkImage@@@std@@PAX@1@$$QA_N@Z
_TEXT	SEGMENT
__Val1$ = 8						; size = 4
__Val2$ = 12						; size = 4
??$?0AAPAU?$_Tree_node@U?$pair@$$CBKPAVCGuildMarkImage@@@std@@PAX@std@@_N$0A@@?$pair@PAU?$_Tree_node@U?$pair@$$CBKPAVCGuildMarkImage@@@std@@PAX@std@@_N@std@@QAE@AAPAU?$_Tree_node@U?$pair@$$CBKPAVCGuildMarkImage@@@std@@PAX@1@$$QA_N@Z PROC ; std::pair<std::_Tree_node<std::pair<unsigned long const ,CGuildMarkImage *>,void *> *,bool>::pair<std::_Tree_node<std::pair<unsigned long const ,CGuildMarkImage *>,void *> *,bool><std::_Tree_node<std::pair<unsigned long const ,CGuildMarkImage *>,void *> * &,bool,0>, COMDAT
; _this$ = ecx

; 274  :         : first(_STD forward<_Other1>(_Val1)), second(_STD forward<_Other2>(_Val2)) {

  00000	55		 push	 ebp
  00001	8b ec		 mov	 ebp, esp
  00003	8b 45 08	 mov	 eax, DWORD PTR __Val1$[ebp]
  00006	8b 00		 mov	 eax, DWORD PTR [eax]
  00008	89 01		 mov	 DWORD PTR [ecx], eax
  0000a	8b 45 0c	 mov	 eax, DWORD PTR __Val2$[ebp]
  0000d	8a 00		 mov	 al, BYTE PTR [eax]
  0000f	88 41 04	 mov	 BYTE PTR [ecx+4], al

; 275  :     }

  00012	8b c1		 mov	 eax, ecx
  00014	5d		 pop	 ebp
  00015	c2 08 00	 ret	 8
??$?0AAPAU?$_Tree_node@U?$pair@$$CBKPAVCGuildMarkImage@@@std@@PAX@std@@_N$0A@@?$pair@PAU?$_Tree_node@U?$pair@$$CBKPAVCGuildMarkImage@@@std@@PAX@std@@_N@std@@QAE@AAPAU?$_Tree_node@U?$pair@$$CBKPAVCGuildMarkImage@@@std@@PAX@1@$$QA_N@Z ENDP ; std::pair<std::_Tree_node<std::pair<unsigned long const ,CGuildMarkImage *>,void *> *,bool>::pair<std::_Tree_node<std::pair<unsigned long const ,CGuildMarkImage *>,void *> *,bool><std::_Tree_node<std::pair<unsigned long const ,CGuildMarkImage *>,void *> * &,bool,0>
_TEXT	ENDS
; Function compile flags: /Ogtp
; File C:\Program Files\Microsoft Visual Studio\2022\Community\VC\Tools\MSVC\14.44.35207\include\utility
;	COMDAT ??$?0PAU?$_Tree_node@U?$pair@$$CBKPAVCGuildMarkImage@@@std@@PAX@std@@_N$0A@@?$pair@PAU?$_Tree_node@U?$pair@$$CBKPAVCGuildMarkImage@@@std@@PAX@std@@_N@std@@QAE@$$QAPAU?$_Tree_node@U?$pair@$$CBKPAVCGuildMarkImage@@@std@@PAX@1@$$QA_N@Z
_TEXT	SEGMENT
__Val1$ = 8						; size = 4
__Val2$ = 12						; size = 4
??$?0PAU?$_Tree_node@U?$pair@$$CBKPAVCGuildMarkImage@@@std@@PAX@std@@_N$0A@@?$pair@PAU?$_Tree_node@U?$pair@$$CBKPAVCGuildMarkImage@@@std@@PAX@std@@_N@std@@QAE@$$QAPAU?$_Tree_node@U?$pair@$$CBKPAVCGuildMarkImage@@@std@@PAX@1@$$QA_N@Z PROC ; std::pair<std::_Tree_node<std::pair<unsigned long const ,CGuildMarkImage *>,void *> *,bool>::pair<std::_Tree_node<std::pair<unsigned long const ,CGuildMarkImage *>,void *> *,bool><std::_Tree_node<std::pair<unsigned long const ,CGuildMarkImage *>,void *> *,bool,0>, COMDAT
; _this$ = ecx

; 274  :         : first(_STD forward<_Other1>(_Val1)), second(_STD forward<_Other2>(_Val2)) {

  00000	55		 push	 ebp
  00001	8b ec		 mov	 ebp, esp
  00003	8b 45 08	 mov	 eax, DWORD PTR __Val1$[ebp]
  00006	8b 00		 mov	 eax, DWORD PTR [eax]
  00008	89 01		 mov	 DWORD PTR [ecx], eax
  0000a	8b 45 0c	 mov	 eax, DWORD PTR __Val2$[ebp]
  0000d	8a 00		 mov	 al, BYTE PTR [eax]
  0000f	88 41 04	 mov	 BYTE PTR [ecx+4], al

; 275  :     }

  00012	8b c1		 mov	 eax, ecx
  00014	5d		 pop	 ebp
  00015	c2 08 00	 ret	 8
??$?0PAU?$_Tree_node@U?$pair@$$CBKPAVCGuildMarkImage@@@std@@PAX@std@@_N$0A@@?$pair@PAU?$_Tree_node@U?$pair@$$CBKPAVCGuildMarkImage@@@std@@PAX@std@@_N@std@@QAE@$$QAPAU?$_Tree_node@U?$pair@$$CBKPAVCGuildMarkImage@@@std@@PAX@1@$$QA_N@Z ENDP ; std::pair<std::_Tree_node<std::pair<unsigned long const ,CGuildMarkImage *>,void *> *,bool>::pair<std::_Tree_node<std::pair<unsigned long const ,CGuildMarkImage *>,void *> *,bool><std::_Tree_node<std::pair<unsigned long const ,CGuildMarkImage *>,void *> *,bool,0>
_TEXT	ENDS
; Function compile flags: /Ogtp
; File C:\Program Files\Microsoft Visual Studio\2022\Community\VC\Tools\MSVC\14.44.35207\include\type_traits
;	COMDAT ??$forward@V?$_Tree_iterator@V?$_Tree_val@U?$_Tree_simple_types@U?$pair@$$CBKPAVCGuildMarkImage@@@std@@@std@@@std@@@std@@@std@@YA$$QAV?$_Tree_iterator@V?$_Tree_val@U?$_Tree_simple_types@U?$pair@$$CBKPAVCGuildMarkImage@@@std@@@std@@@std@@@0@AAV10@@Z
_TEXT	SEGMENT
??$forward@V?$_Tree_iterator@V?$_Tree_val@U?$_Tree_simple_types@U?$pair@$$CBKPAVCGuildMarkImage@@@std@@@std@@@std@@@std@@@std@@YA$$QAV?$_Tree_iterator@V?$_Tree_val@U?$_Tree_simple_types@U?$pair@$$CBKPAVCGuildMarkImage@@@std@@@std@@@std@@@0@AAV10@@Z PROC ; std::forward<std::_Tree_iterator<std::_Tree_val<std::_Tree_simple_types<std::pair<unsigned long const ,CGuildMarkImage *> > > > >, COMDAT
; __Arg$ = ecx

; 1502 :     return static_cast<_Ty&&>(_Arg);

  00000	8b c1		 mov	 eax, ecx

; 1503 : }

  00002	c3		 ret	 0
??$forward@V?$_Tree_iterator@V?$_Tree_val@U?$_Tree_simple_types@U?$pair@$$CBKPAVCGuildMarkImage@@@std@@@std@@@std@@@std@@@std@@YA$$QAV?$_Tree_iterator@V?$_Tree_val@U?$_Tree_simple_types@U?$pair@$$CBKPAVCGuildMarkImage@@@std@@@std@@@std@@@0@AAV10@@Z ENDP ; std::forward<std::_Tree_iterator<std::_Tree_val<std::_Tree_simple_types<std::pair<unsigned long const ,CGuildMarkImage *> > > > >
_TEXT	ENDS
; Function compile flags: /Ogtp
; File C:\Program Files\Microsoft Visual Studio\2022\Community\VC\Tools\MSVC\14.44.35207\include\xtree
; File C:\Program Files\Microsoft Visual Studio\2022\Community\VC\Tools\MSVC\14.44.35207\include\utility
; File C:\Program Files\Microsoft Visual Studio\2022\Community\VC\Tools\MSVC\14.44.35207\include\xtree
; File C:\Program Files\Microsoft Visual Studio\2022\Community\VC\Tools\MSVC\14.44.35207\include\vector
; File C:\Program Files\Microsoft Visual Studio\2022\Community\VC\Tools\MSVC\14.44.35207\include\xmemory
; File C:\Program Files\Microsoft Visual Studio\2022\Community\VC\Tools\MSVC\14.44.35207\include\xtree
; File C:\Program Files\Microsoft Visual Studio\2022\Community\VC\Tools\MSVC\14.44.35207\include\xmemory
; File C:\Program Files\Microsoft Visual Studio\2022\Community\VC\Tools\MSVC\14.44.35207\include\xtree
;	COMDAT ??$_Erase_tree@V?$allocator@U?$_Tree_node@U?$pair@$$CBKUTGuildSymbol@CGuildMarkManager@@@std@@PAX@std@@@std@@@?$_Tree_val@U?$_Tree_simple_types@U?$pair@$$CBKUTGuildSymbol@CGuildMarkManager@@@std@@@std@@@std@@QAEXAAV?$allocator@U?$_Tree_node@U?$pair@$$CBKUTGuildSymbol@CGuildMarkManager@@@std@@PAX@std@@@1@PAU?$_Tree_node@U?$pair@$$CBKUTGuildSymbol@CGuildMarkManager@@@std@@PAX@1@@Z
_TEXT	SEGMENT
_this$1$ = -4						; size = 4
__Al$ = 8						; size = 4
__Rootnode$ = 12					; size = 4
??$_Erase_tree@V?$allocator@U?$_Tree_node@U?$pair@$$CBKUTGuildSymbol@CGuildMarkManager@@@std@@PAX@std@@@std@@@?$_Tree_val@U?$_Tree_simple_types@U?$pair@$$CBKUTGuildSymbol@CGuildMarkManager@@@std@@@std@@@std@@QAEXAAV?$allocator@U?$_Tree_node@U?$pair@$$CBKUTGuildSymbol@CGuildMarkManager@@@std@@PAX@std@@@1@PAU?$_Tree_node@U?$pair@$$CBKUTGuildSymbol@CGuildMarkManager@@@std@@PAX@1@@Z PROC ; std::_Tree_val<std::_Tree_simple_types<std::pair<unsigned long const ,CGuildMarkManager::TGuildSymbol> > >::_Erase_tree<std::allocator<std::_Tree_node<std::pair<unsigned long const ,CGuildMarkManager::TGuildSymbol>,void *> > >, COMDAT
; _this$ = ecx

; 767  :     void _Erase_tree(_Alnode& _Al, _Nodeptr _Rootnode) noexcept {

  00000	55		 push	 ebp
  00001	8b ec		 mov	 ebp, esp
  00003	51		 push	 ecx
  00004	56		 push	 esi

; 768  :         while (!_Rootnode->_Isnil) { // free subtrees, then node

  00005	8b 75 0c	 mov	 esi, DWORD PTR __Rootnode$[ebp]
  00008	8b c1		 mov	 eax, ecx
  0000a	89 45 fc	 mov	 DWORD PTR _this$1$[ebp], eax
  0000d	80 7e 0d 00	 cmp	 BYTE PTR [esi+13], 0
  00011	75 32		 jne	 SHORT $LN73@Erase_tree
  00013	53		 push	 ebx
  00014	8b 5d 08	 mov	 ebx, DWORD PTR __Al$[ebp]
  00017	57		 push	 edi
$LL2@Erase_tree:

; 769  :             _Erase_tree(_Al, _Rootnode->_Right);

  00018	ff 76 08	 push	 DWORD PTR [esi+8]
  0001b	8b c8		 mov	 ecx, eax
  0001d	53		 push	 ebx
  0001e	e8 00 00 00 00	 call	 ??$_Erase_tree@V?$allocator@U?$_Tree_node@U?$pair@$$CBKUTGuildSymbol@CGuildMarkManager@@@std@@PAX@std@@@std@@@?$_Tree_val@U?$_Tree_simple_types@U?$pair@$$CBKUTGuildSymbol@CGuildMarkManager@@@std@@@std@@@std@@QAEXAAV?$allocator@U?$_Tree_node@U?$pair@$$CBKUTGuildSymbol@CGuildMarkManager@@@std@@PAX@std@@@1@PAU?$_Tree_node@U?$pair@$$CBKUTGuildSymbol@CGuildMarkManager@@@std@@PAX@1@@Z ; std::_Tree_val<std::_Tree_simple_types<std::pair<unsigned long const ,CGuildMarkManager::TGuildSymbol> > >::_Erase_tree<std::allocator<std::_Tree_node<std::pair<unsigned long const ,CGuildMarkManager::TGuildSymbol>,void *> > >
; File C:\Program Files\Microsoft Visual Studio\2022\Community\VC\Tools\MSVC\14.44.35207\include\utility

; 773  :     _Ty _Old_val = static_cast<_Ty&&>(_Val);

  00023	8b fe		 mov	 edi, esi

; 774  :     _Val         = static_cast<_Other&&>(_New_val);

  00025	8b 36		 mov	 esi, DWORD PTR [esi]
; File C:\Program Files\Microsoft Visual Studio\2022\Community\VC\Tools\MSVC\14.44.35207\include\xtree

; 381  :         allocator_traits<_Alloc>::destroy(_Al, _STD addressof(_Ptr->_Myval));

  00027	8d 4f 18	 lea	 ecx, DWORD PTR [edi+24]
; File C:\Program Files\Microsoft Visual Studio\2022\Community\VC\Tools\MSVC\14.44.35207\include\vector

; 830  :         _Tidy();

  0002a	e8 00 00 00 00	 call	 ?_Tidy@?$vector@EV?$allocator@E@std@@@std@@AAEXXZ ; std::vector<unsigned char,std::allocator<unsigned char> >::_Tidy
; File C:\Program Files\Microsoft Visual Studio\2022\Community\VC\Tools\MSVC\14.44.35207\include\xmemory

; 289  :         ::operator delete(_Ptr, _Bytes);

  0002f	6a 24		 push	 36			; 00000024H
  00031	57		 push	 edi
  00032	e8 00 00 00 00	 call	 ??3@YAXPAXI@Z		; operator delete
; File C:\Program Files\Microsoft Visual Studio\2022\Community\VC\Tools\MSVC\14.44.35207\include\xtree

; 768  :         while (!_Rootnode->_Isnil) { // free subtrees, then node

  00037	8b 45 fc	 mov	 eax, DWORD PTR _this$1$[ebp]
; File C:\Program Files\Microsoft Visual Studio\2022\Community\VC\Tools\MSVC\14.44.35207\include\xmemory

; 289  :         ::operator delete(_Ptr, _Bytes);

  0003a	83 c4 08	 add	 esp, 8
; File C:\Program Files\Microsoft Visual Studio\2022\Community\VC\Tools\MSVC\14.44.35207\include\xtree

; 768  :         while (!_Rootnode->_Isnil) { // free subtrees, then node

  0003d	80 7e 0d 00	 cmp	 BYTE PTR [esi+13], 0
  00041	74 d5		 je	 SHORT $LL2@Erase_tree
  00043	5f		 pop	 edi
  00044	5b		 pop	 ebx
$LN73@Erase_tree:
  00045	5e		 pop	 esi

; 770  :             _Alnode::value_type::_Freenode(_Al, _STD exchange(_Rootnode, _Rootnode->_Left));
; 771  :         }
; 772  :     }

  00046	8b e5		 mov	 esp, ebp
  00048	5d		 pop	 ebp
  00049	c2 08 00	 ret	 8
??$_Erase_tree@V?$allocator@U?$_Tree_node@U?$pair@$$CBKUTGuildSymbol@CGuildMarkManager@@@std@@PAX@std@@@std@@@?$_Tree_val@U?$_Tree_simple_types@U?$pair@$$CBKUTGuildSymbol@CGuildMarkManager@@@std@@@std@@@std@@QAEXAAV?$allocator@U?$_Tree_node@U?$pair@$$CBKUTGuildSymbol@CGuildMarkManager@@@std@@PAX@std@@@1@PAU?$_Tree_node@U?$pair@$$CBKUTGuildSymbol@CGuildMarkManager@@@std@@PAX@1@@Z ENDP ; std::_Tree_val<std::_Tree_simple_types<std::pair<unsigned long const ,CGuildMarkManager::TGuildSymbol> > >::_Erase_tree<std::allocator<std::_Tree_node<std::pair<unsigned long const ,CGuildMarkManager::TGuildSymbol>,void *> > >
_TEXT	ENDS
; Function compile flags: /Ogtp
; File C:\Program Files\Microsoft Visual Studio\2022\Community\VC\Tools\MSVC\14.44.35207\include\xtree
; File C:\Program Files\Microsoft Visual Studio\2022\Community\VC\Tools\MSVC\14.44.35207\include\xmemory
; File C:\Program Files\Microsoft Visual Studio\2022\Community\VC\Tools\MSVC\14.44.35207\include\xtree
;	COMDAT ??$_Freenode0@V?$allocator@U?$_Tree_node@U?$pair@$$CBKUTGuildSymbol@CGuildMarkManager@@@std@@PAX@std@@@std@@@?$_Tree_node@U?$pair@$$CBKUTGuildSymbol@CGuildMarkManager@@@std@@PAX@std@@SAXAAV?$allocator@U?$_Tree_node@U?$pair@$$CBKUTGuildSymbol@CGuildMarkManager@@@std@@PAX@std@@@1@PAU01@@Z
_TEXT	SEGMENT
??$_Freenode0@V?$allocator@U?$_Tree_node@U?$pair@$$CBKUTGuildSymbol@CGuildMarkManager@@@std@@PAX@std@@@std@@@?$_Tree_node@U?$pair@$$CBKUTGuildSymbol@CGuildMarkManager@@@std@@PAX@std@@SAXAAV?$allocator@U?$_Tree_node@U?$pair@$$CBKUTGuildSymbol@CGuildMarkManager@@@std@@PAX@std@@@1@PAU01@@Z PROC ; std::_Tree_node<std::pair<unsigned long const ,CGuildMarkManager::TGuildSymbol>,void *>::_Freenode0<std::allocator<std::_Tree_node<std::pair<unsigned long const ,CGuildMarkManager::TGuildSymbol>,void *> > >, COMDAT
; __Al$dead$ = ecx
; __Ptr$ = edx
; File C:\Program Files\Microsoft Visual Studio\2022\Community\VC\Tools\MSVC\14.44.35207\include\xmemory

; 289  :         ::operator delete(_Ptr, _Bytes);

  00000	6a 24		 push	 36			; 00000024H
  00002	52		 push	 edx
  00003	e8 00 00 00 00	 call	 ??3@YAXPAXI@Z		; operator delete
  00008	83 c4 08	 add	 esp, 8
; File C:\Program Files\Microsoft Visual Studio\2022\Community\VC\Tools\MSVC\14.44.35207\include\xtree

; 376  :     }

  0000b	c3		 ret	 0
??$_Freenode0@V?$allocator@U?$_Tree_node@U?$pair@$$CBKUTGuildSymbol@CGuildMarkManager@@@std@@PAX@std@@@std@@@?$_Tree_node@U?$pair@$$CBKUTGuildSymbol@CGuildMarkManager@@@std@@PAX@std@@SAXAAV?$allocator@U?$_Tree_node@U?$pair@$$CBKUTGuildSymbol@CGuildMarkManager@@@std@@PAX@std@@@1@PAU01@@Z ENDP ; std::_Tree_node<std::pair<unsigned long const ,CGuildMarkManager::TGuildSymbol>,void *>::_Freenode0<std::allocator<std::_Tree_node<std::pair<unsigned long const ,CGuildMarkManager::TGuildSymbol>,void *> > >
_TEXT	ENDS
; Function compile flags: /Ogtp
; File C:\Program Files\Microsoft Visual Studio\2022\Community\VC\Tools\MSVC\14.44.35207\include\tuple
;	COMDAT ??$forward_as_tuple@ABK@std@@YA?AV?$tuple@ABK@0@ABK@Z
_TEXT	SEGMENT
??$forward_as_tuple@ABK@std@@YA?AV?$tuple@ABK@0@ABK@Z PROC ; std::forward_as_tuple<unsigned long const &>, COMDAT
; ___$ReturnUdt$ = ecx
; _<_Args_0>$ = edx

; 132  :     constexpr _Tuple_val(_Other&& _Arg) : _Val(_STD forward<_Other>(_Arg)) {}

  00000	89 11		 mov	 DWORD PTR [ecx], edx

; 1005 :     return tuple<_Types&&...>(_STD forward<_Types>(_Args)...);

  00002	8b c1		 mov	 eax, ecx

; 1006 : }

  00004	c3		 ret	 0
??$forward_as_tuple@ABK@std@@YA?AV?$tuple@ABK@0@ABK@Z ENDP ; std::forward_as_tuple<unsigned long const &>
_TEXT	ENDS
; Function compile flags: /Ogtp
; File C:\Program Files\Microsoft Visual Studio\2022\Community\VC\Tools\MSVC\14.44.35207\include\tuple
;	COMDAT ??$forward_as_tuple@$$V@std@@YA?AV?$tuple@$$V@0@XZ
_TEXT	SEGMENT
??$forward_as_tuple@$$V@std@@YA?AV?$tuple@$$V@0@XZ PROC	; std::forward_as_tuple<>, COMDAT
; ___$ReturnUdt$ = ecx

; 1005 :     return tuple<_Types&&...>(_STD forward<_Types>(_Args)...);

  00000	8b c1		 mov	 eax, ecx

; 1006 : }

  00002	c3		 ret	 0
??$forward_as_tuple@$$V@std@@YA?AV?$tuple@$$V@0@XZ ENDP	; std::forward_as_tuple<>
_TEXT	ENDS
; Function compile flags: /Ogtp
; File C:\Program Files\Microsoft Visual Studio\2022\Community\VC\Tools\MSVC\14.44.35207\include\utility
;	COMDAT ??$exchange@PAU?$_Tree_node@U?$pair@$$CBKPAVCGuildMarkImage@@@std@@PAX@std@@AAPAU12@@std@@YAPAU?$_Tree_node@U?$pair@$$CBKPAVCGuildMarkImage@@@std@@PAX@0@AAPAU10@0@Z
_TEXT	SEGMENT
??$exchange@PAU?$_Tree_node@U?$pair@$$CBKPAVCGuildMarkImage@@@std@@PAX@std@@AAPAU12@@std@@YAPAU?$_Tree_node@U?$pair@$$CBKPAVCGuildMarkImage@@@std@@PAX@0@AAPAU10@0@Z PROC ; std::exchange<std::_Tree_node<std::pair<unsigned long const ,CGuildMarkImage *>,void *> *,std::_Tree_node<std::pair<unsigned long const ,CGuildMarkImage *>,void *> * &>, COMDAT
; __Val$ = ecx
; __New_val$ = edx

; 772  :     // assign _New_val to _Val, return previous _Val
; 773  :     _Ty _Old_val = static_cast<_Ty&&>(_Val);

  00000	8b 01		 mov	 eax, DWORD PTR [ecx]

; 774  :     _Val         = static_cast<_Other&&>(_New_val);

  00002	8b 12		 mov	 edx, DWORD PTR [edx]
  00004	89 11		 mov	 DWORD PTR [ecx], edx

; 775  :     return _Old_val;
; 776  : }

  00006	c3		 ret	 0
??$exchange@PAU?$_Tree_node@U?$pair@$$CBKPAVCGuildMarkImage@@@std@@PAX@std@@AAPAU12@@std@@YAPAU?$_Tree_node@U?$pair@$$CBKPAVCGuildMarkImage@@@std@@PAX@0@AAPAU10@0@Z ENDP ; std::exchange<std::_Tree_node<std::pair<unsigned long const ,CGuildMarkImage *>,void *> *,std::_Tree_node<std::pair<unsigned long const ,CGuildMarkImage *>,void *> * &>
_TEXT	ENDS
; Function compile flags: /Ogtp
; File C:\Program Files\Microsoft Visual Studio\2022\Community\VC\Tools\MSVC\14.44.35207\include\xtree
; File C:\Program Files\Microsoft Visual Studio\2022\Community\VC\Tools\MSVC\14.44.35207\include\xmemory
; File C:\Program Files\Microsoft Visual Studio\2022\Community\VC\Tools\MSVC\14.44.35207\include\xtree
;	COMDAT ??$_Freenode@V?$allocator@U?$_Tree_node@U?$pair@$$CBKPAVCGuildMarkImage@@@std@@PAX@std@@@std@@@?$_Tree_node@U?$pair@$$CBKPAVCGuildMarkImage@@@std@@PAX@std@@SAXAAV?$allocator@U?$_Tree_node@U?$pair@$$CBKPAVCGuildMarkImage@@@std@@PAX@std@@@1@PAU01@@Z
_TEXT	SEGMENT
??$_Freenode@V?$allocator@U?$_Tree_node@U?$pair@$$CBKPAVCGuildMarkImage@@@std@@PAX@std@@@std@@@?$_Tree_node@U?$pair@$$CBKPAVCGuildMarkImage@@@std@@PAX@std@@SAXAAV?$allocator@U?$_Tree_node@U?$pair@$$CBKPAVCGuildMarkImage@@@std@@PAX@std@@@1@PAU01@@Z PROC ; std::_Tree_node<std::pair<unsigned long const ,CGuildMarkImage *>,void *>::_Freenode<std::allocator<std::_Tree_node<std::pair<unsigned long const ,CGuildMarkImage *>,void *> > >, COMDAT
; __Al$dead$ = ecx
; __Ptr$ = edx
; File C:\Program Files\Microsoft Visual Studio\2022\Community\VC\Tools\MSVC\14.44.35207\include\xmemory

; 289  :         ::operator delete(_Ptr, _Bytes);

  00000	6a 18		 push	 24			; 00000018H
  00002	52		 push	 edx
  00003	e8 00 00 00 00	 call	 ??3@YAXPAXI@Z		; operator delete
  00008	83 c4 08	 add	 esp, 8
; File C:\Program Files\Microsoft Visual Studio\2022\Community\VC\Tools\MSVC\14.44.35207\include\xtree

; 383  :     }

  0000b	c3		 ret	 0
??$_Freenode@V?$allocator@U?$_Tree_node@U?$pair@$$CBKPAVCGuildMarkImage@@@std@@PAX@std@@@std@@@?$_Tree_node@U?$pair@$$CBKPAVCGuildMarkImage@@@std@@PAX@std@@SAXAAV?$allocator@U?$_Tree_node@U?$pair@$$CBKPAVCGuildMarkImage@@@std@@PAX@std@@@1@PAU01@@Z ENDP ; std::_Tree_node<std::pair<unsigned long const ,CGuildMarkImage *>,void *>::_Freenode<std::allocator<std::_Tree_node<std::pair<unsigned long const ,CGuildMarkImage *>,void *> > >
_TEXT	ENDS
; Function compile flags: /Ogtp
; File C:\Program Files\Microsoft Visual Studio\2022\Community\VC\Tools\MSVC\14.44.35207\include\xtree
; File C:\Program Files\Microsoft Visual Studio\2022\Community\VC\Tools\MSVC\14.44.35207\include\xmemory
; File C:\Program Files\Microsoft Visual Studio\2022\Community\VC\Tools\MSVC\14.44.35207\include\xtree
;	COMDAT ??$_Freenode0@V?$allocator@U?$_Tree_node@U?$pair@$$CBKPAVCGuildMarkImage@@@std@@PAX@std@@@std@@@?$_Tree_node@U?$pair@$$CBKPAVCGuildMarkImage@@@std@@PAX@std@@SAXAAV?$allocator@U?$_Tree_node@U?$pair@$$CBKPAVCGuildMarkImage@@@std@@PAX@std@@@1@PAU01@@Z
_TEXT	SEGMENT
??$_Freenode0@V?$allocator@U?$_Tree_node@U?$pair@$$CBKPAVCGuildMarkImage@@@std@@PAX@std@@@std@@@?$_Tree_node@U?$pair@$$CBKPAVCGuildMarkImage@@@std@@PAX@std@@SAXAAV?$allocator@U?$_Tree_node@U?$pair@$$CBKPAVCGuildMarkImage@@@std@@PAX@std@@@1@PAU01@@Z PROC ; std::_Tree_node<std::pair<unsigned long const ,CGuildMarkImage *>,void *>::_Freenode0<std::allocator<std::_Tree_node<std::pair<unsigned long const ,CGuildMarkImage *>,void *> > >, COMDAT
; __Al$dead$ = ecx
; __Ptr$ = edx
; File C:\Program Files\Microsoft Visual Studio\2022\Community\VC\Tools\MSVC\14.44.35207\include\xmemory

; 289  :         ::operator delete(_Ptr, _Bytes);

  00000	6a 18		 push	 24			; 00000018H
  00002	52		 push	 edx
  00003	e8 00 00 00 00	 call	 ??3@YAXPAXI@Z		; operator delete
  00008	83 c4 08	 add	 esp, 8
; File C:\Program Files\Microsoft Visual Studio\2022\Community\VC\Tools\MSVC\14.44.35207\include\xtree

; 376  :     }

  0000b	c3		 ret	 0
??$_Freenode0@V?$allocator@U?$_Tree_node@U?$pair@$$CBKPAVCGuildMarkImage@@@std@@PAX@std@@@std@@@?$_Tree_node@U?$pair@$$CBKPAVCGuildMarkImage@@@std@@PAX@std@@SAXAAV?$allocator@U?$_Tree_node@U?$pair@$$CBKPAVCGuildMarkImage@@@std@@PAX@std@@@1@PAU01@@Z ENDP ; std::_Tree_node<std::pair<unsigned long const ,CGuildMarkImage *>,void *>::_Freenode0<std::allocator<std::_Tree_node<std::pair<unsigned long const ,CGuildMarkImage *>,void *> > >
_TEXT	ENDS
; Function compile flags: /Ogtp
; File C:\Program Files\Microsoft Visual Studio\2022\Community\VC\Tools\MSVC\14.44.35207\include\xmemory
;	COMDAT ??$_Allocate_at_least_helper@V?$allocator@E@std@@@std@@YAPAEAAV?$allocator@E@0@AAI@Z
_TEXT	SEGMENT
??$_Allocate_at_least_helper@V?$allocator@E@std@@@std@@YAPAEAAV?$allocator@E@0@AAI@Z PROC ; std::_Allocate_at_least_helper<std::allocator<unsigned char> >, COMDAT
; __Al$dead$ = ecx
; __Count$ = edx

; 2295 : #if _HAS_CXX23
; 2296 :     if constexpr (_Should_allocate_at_least<_Alloc>) {
; 2297 :         auto [_Ptr, _Allocated] = _Al.allocate_at_least(_Count);
; 2298 :         _Count                  = _Allocated;
; 2299 :         return _Ptr;
; 2300 :     } else
; 2301 : #endif // _HAS_CXX23
; 2302 :     {
; 2303 :         return _Al.allocate(_Count);

  00000	8b 02		 mov	 eax, DWORD PTR [edx]

; 227  :     if (_Bytes == 0) {

  00002	85 c0		 test	 eax, eax
  00004	75 01		 jne	 SHORT $LN6@Allocate_a

; 2304 :     }
; 2305 : }

  00006	c3		 ret	 0
$LN6@Allocate_a:

; 251  :         if (_Bytes >= _Big_allocation_threshold) {

  00007	50		 push	 eax
  00008	3d 00 10 00 00	 cmp	 eax, 4096		; 00001000H
  0000d	72 09		 jb	 SHORT $LN8@Allocate_a

; 252  :             // boost the alignment of big allocations to help autovectorization
; 253  :             return _Allocate_manually_vector_aligned<_Traits>(_Bytes);

  0000f	e8 00 00 00 00	 call	 ??$_Allocate_manually_vector_aligned@U_Default_allocate_traits@std@@@std@@YAPAXI@Z ; std::_Allocate_manually_vector_aligned<std::_Default_allocate_traits>

; 2304 :     }
; 2305 : }

  00014	83 c4 04	 add	 esp, 4
  00017	c3		 ret	 0
$LN8@Allocate_a:

; 136  :         return ::operator new(_Bytes);

  00018	e8 00 00 00 00	 call	 ??2@YAPAXI@Z		; operator new

; 2304 :     }
; 2305 : }

  0001d	83 c4 04	 add	 esp, 4
  00020	c3		 ret	 0
??$_Allocate_at_least_helper@V?$allocator@E@std@@@std@@YAPAEAAV?$allocator@E@0@AAI@Z ENDP ; std::_Allocate_at_least_helper<std::allocator<unsigned char> >
_TEXT	ENDS
; Function compile flags: /Ogtp
; File C:\Program Files\Microsoft Visual Studio\2022\Community\VC\Tools\MSVC\14.44.35207\include\xutility
;	COMDAT ??$_Get_unwrapped@ABQAE@std@@YA?A_TABQAE@Z
_TEXT	SEGMENT
??$_Get_unwrapped@ABQAE@std@@YA?A_TABQAE@Z PROC		; std::_Get_unwrapped<unsigned char * const &>, COMDAT
; __It$ = ecx

; 1380 :     // unwrap an iterator previously subjected to _Adl_verify_range or otherwise validated
; 1381 :     if constexpr (is_pointer_v<decay_t<_Iter>>) { // special-case pointers and arrays
; 1382 :         return _It + 0;

  00000	8b 01		 mov	 eax, DWORD PTR [ecx]

; 1383 :     } else if constexpr (_Unwrappable_v<_Iter>) {
; 1384 :         return static_cast<_Iter&&>(_It)._Unwrapped();
; 1385 :     } else {
; 1386 :         return static_cast<_Iter&&>(_It);
; 1387 :     }
; 1388 : }

  00002	c3		 ret	 0
??$_Get_unwrapped@ABQAE@std@@YA?A_TABQAE@Z ENDP		; std::_Get_unwrapped<unsigned char * const &>
_TEXT	ENDS
; Function compile flags: /Ogtp
; File C:\Program Files\Microsoft Visual Studio\2022\Community\VC\Tools\MSVC\14.44.35207\include\xmemory
;	COMDAT ??$_Uninitialized_move@PAEV?$allocator@E@std@@@std@@YAPAEQAE0PAEAAV?$allocator@E@0@@Z
_TEXT	SEGMENT
__First$ = 8						; size = 4
__Last$ = 12						; size = 4
__Dest$ = 16						; size = 4
__Al$ = 20						; size = 4
??$_Uninitialized_move@PAEV?$allocator@E@std@@@std@@YAPAEQAE0PAEAAV?$allocator@E@0@@Z PROC ; std::_Uninitialized_move<unsigned char *,std::allocator<unsigned char> >, COMDAT

; 1977 :     const _InIt _First, const _InIt _Last, _Alloc_ptr_t<_Alloc> _Dest, _Alloc& _Al) {

  00000	55		 push	 ebp
  00001	8b ec		 mov	 ebp, esp
  00003	57		 push	 edi

; 1978 :     // move [_First, _Last) to raw _Dest, using _Al
; 1979 :     // note: only called internally from elsewhere in the STL
; 1980 : #ifdef _ENABLE_STL_INTERNAL_CHECK
; 1981 :     _STD _Adl_verify_range(_First, _Last);
; 1982 : #endif // ^^^ defined(_ENABLE_STL_INTERNAL_CHECK) ^^^
; 1983 :     using _Ptrval     = typename _Alloc::value_type*;
; 1984 :     auto _UFirst      = _STD _Get_unwrapped(_First);
; 1985 :     const auto _ULast = _STD _Get_unwrapped(_Last);
; 1986 :     if constexpr (conjunction_v<bool_constant<_Iter_move_cat<decltype(_UFirst), _Ptrval>::_Bitcopy_constructible>,
; 1987 :                       _Uses_default_construct<_Alloc, _Ptrval, decltype(_STD move(*_UFirst))>>) {
; 1988 : #if _HAS_CXX20
; 1989 :         if (!_STD is_constant_evaluated())
; 1990 : #endif // _HAS_CXX20
; 1991 :         {
; 1992 :             _STD _Copy_memmove(_UFirst, _ULast, _STD _Unfancy(_Dest));

  00004	ff 75 10	 push	 DWORD PTR __Dest$[ebp]
  00007	8b 7d 0c	 mov	 edi, DWORD PTR __Last$[ebp]
  0000a	57		 push	 edi
  0000b	ff 75 08	 push	 DWORD PTR __First$[ebp]
  0000e	e8 00 00 00 00	 call	 ??$_Copy_memmove@PAEPAE@std@@YAPAEPAE00@Z ; std::_Copy_memmove<unsigned char *,unsigned char *>

; 1993 :             return _Dest + (_ULast - _UFirst);

  00013	2b 7d 08	 sub	 edi, DWORD PTR __First$[ebp]
  00016	83 c4 0c	 add	 esp, 12			; 0000000cH
  00019	03 7d 10	 add	 edi, DWORD PTR __Dest$[ebp]
  0001c	8b c7		 mov	 eax, edi
  0001e	5f		 pop	 edi

; 1994 :         }
; 1995 :     }
; 1996 : 
; 1997 :     _Uninitialized_backout_al<_Alloc> _Backout{_Dest, _Al};
; 1998 :     for (; _UFirst != _ULast; ++_UFirst) {
; 1999 :         _Backout._Emplace_back(_STD move(*_UFirst));
; 2000 :     }
; 2001 : 
; 2002 :     return _Backout._Release();
; 2003 : }

  0001f	5d		 pop	 ebp
  00020	c3		 ret	 0
??$_Uninitialized_move@PAEV?$allocator@E@std@@@std@@YAPAEQAE0PAEAAV?$allocator@E@0@@Z ENDP ; std::_Uninitialized_move<unsigned char *,std::allocator<unsigned char> >
_TEXT	ENDS
; Function compile flags: /Ogtp
; File C:\Program Files\Microsoft Visual Studio\2022\Community\VC\Tools\MSVC\14.44.35207\include\vector
; File C:\Program Files\Microsoft Visual Studio\2022\Community\VC\Tools\MSVC\14.44.35207\include\xmemory
; File C:\Program Files\Microsoft Visual Studio\2022\Community\VC\Tools\MSVC\14.44.35207\include\vector
; File C:\Program Files\Microsoft Visual Studio\2022\Community\VC\Tools\MSVC\14.44.35207\include\xmemory
; File C:\Program Files\Microsoft Visual Studio\2022\Community\VC\Tools\MSVC\14.44.35207\include\vector
; File C:\Program Files\Microsoft Visual Studio\2022\Community\VC\Tools\MSVC\14.44.35207\include\xmemory
; File C:\Program Files\Microsoft Visual Studio\2022\Community\VC\Tools\MSVC\14.44.35207\include\vector
; File C:\Program Files\Microsoft Visual Studio\2022\Community\VC\Tools\MSVC\14.44.35207\include\xmemory
; File C:\Program Files\Microsoft Visual Studio\2022\Community\VC\Tools\MSVC\14.44.35207\include\vector
;	COMDAT ??$_Resize_reallocate@U_Value_init_tag@std@@@?$vector@EV?$allocator@E@std@@@std@@AAEXIABU_Value_init_tag@1@@Z
_TEXT	SEGMENT
__Oldsize$1$ = -8					; size = 4
_this$1$ = -4						; size = 4
__Newsize$ = 8						; size = 4
__Val$dead$ = 12					; size = 4
??$_Resize_reallocate@U_Value_init_tag@std@@@?$vector@EV?$allocator@E@std@@@std@@AAEXIABU_Value_init_tag@1@@Z PROC ; std::vector<unsigned char,std::allocator<unsigned char> >::_Resize_reallocate<std::_Value_init_tag>, COMDAT
; _this$ = ecx

; 1552 :     _CONSTEXPR20 void _Resize_reallocate(const size_type _Newsize, const _Ty2& _Val) {

  00000	55		 push	 ebp
  00001	8b ec		 mov	 ebp, esp
  00003	83 ec 08	 sub	 esp, 8
  00006	53		 push	 ebx

; 1553 :         if (_Newsize > max_size()) {

  00007	8b 5d 08	 mov	 ebx, DWORD PTR __Newsize$[ebp]
  0000a	89 4d fc	 mov	 DWORD PTR _this$1$[ebp], ecx
  0000d	81 fb ff ff ff
	7f		 cmp	 ebx, 2147483647		; 7fffffffH
  00013	0f 87 8e 00 00
	00		 ja	 $LN89@Resize_rea

; 1555 :         }
; 1556 : 
; 1557 :         auto& _Al         = _Getal();
; 1558 :         auto& _My_data    = _Mypair._Myval2;
; 1559 :         pointer& _Myfirst = _My_data._Myfirst;
; 1560 :         pointer& _Mylast  = _My_data._Mylast;
; 1561 : 
; 1562 :         const auto _Oldsize    = static_cast<size_type>(_Mylast - _Myfirst);

  00019	8b 01		 mov	 eax, DWORD PTR [ecx]
  0001b	8b 51 04	 mov	 edx, DWORD PTR [ecx+4]

; 1924 :         return static_cast<size_type>(_My_data._Myend - _My_data._Myfirst);

  0001e	8b 49 08	 mov	 ecx, DWORD PTR [ecx+8]

; 1555 :         }
; 1556 : 
; 1557 :         auto& _Al         = _Getal();
; 1558 :         auto& _My_data    = _Mypair._Myval2;
; 1559 :         pointer& _Myfirst = _My_data._Myfirst;
; 1560 :         pointer& _Mylast  = _My_data._Mylast;
; 1561 : 
; 1562 :         const auto _Oldsize    = static_cast<size_type>(_Mylast - _Myfirst);

  00021	2b d0		 sub	 edx, eax

; 1924 :         return static_cast<size_type>(_My_data._Myend - _My_data._Myfirst);

  00023	2b c8		 sub	 ecx, eax

; 1555 :         }
; 1556 : 
; 1557 :         auto& _Al         = _Getal();
; 1558 :         auto& _My_data    = _Mypair._Myval2;
; 1559 :         pointer& _Myfirst = _My_data._Myfirst;
; 1560 :         pointer& _Mylast  = _My_data._Mylast;
; 1561 : 
; 1562 :         const auto _Oldsize    = static_cast<size_type>(_Mylast - _Myfirst);

  00025	89 55 f8	 mov	 DWORD PTR __Oldsize$1$[ebp], edx

; 2011 :         if (_Oldcapacity > _Max - _Oldcapacity / 2) {

  00028	8b d1		 mov	 edx, ecx
  0002a	b8 ff ff ff 7f	 mov	 eax, 2147483647		; 7fffffffH
  0002f	d1 ea		 shr	 edx, 1
  00031	2b c2		 sub	 eax, edx
  00033	56		 push	 esi
  00034	57		 push	 edi
  00035	3b c8		 cmp	 ecx, eax
  00037	76 0d		 jbe	 SHORT $LN6@Resize_rea

; 2012 :             return _Max; // geometric growth would overflow

  00039	be ff ff ff 7f	 mov	 esi, 2147483647		; 7fffffffH
; File C:\Program Files\Microsoft Visual Studio\2022\Community\VC\Tools\MSVC\14.44.35207\include\xmemory

; 253  :             return _Allocate_manually_vector_aligned<_Traits>(_Bytes);

  0003e	56		 push	 esi
  0003f	e8 00 00 00 00	 call	 ??$_Allocate_manually_vector_aligned@U_Default_allocate_traits@std@@@std@@YAPAXI@Z ; std::_Allocate_manually_vector_aligned<std::_Default_allocate_traits>
  00044	eb 24		 jmp	 SHORT $LN87@Resize_rea
$LN6@Resize_rea:
; File C:\Program Files\Microsoft Visual Studio\2022\Community\VC\Tools\MSVC\14.44.35207\include\vector

; 2015 :         const size_type _Geometric = _Oldcapacity + _Oldcapacity / 2;

  00046	8d 34 0a	 lea	 esi, DWORD PTR [edx+ecx]

; 2016 : 
; 2017 :         if (_Geometric < _Newsize) {

  00049	3b f3		 cmp	 esi, ebx
  0004b	0f 42 f3	 cmovb	 esi, ebx
; File C:\Program Files\Microsoft Visual Studio\2022\Community\VC\Tools\MSVC\14.44.35207\include\xmemory

; 227  :     if (_Bytes == 0) {

  0004e	8b fe		 mov	 edi, esi
  00050	85 f6		 test	 esi, esi
  00052	74 1b		 je	 SHORT $LN16@Resize_rea
$LN17@Resize_rea:

; 228  :         return nullptr;
; 229  :     }
; 230  : 
; 231  : #if _HAS_CXX20 // TRANSITION, GH-1532
; 232  :     if (_STD is_constant_evaluated()) {
; 233  :         return _Traits::_Allocate(_Bytes);
; 234  :     }
; 235  : #endif // _HAS_CXX20
; 236  : 
; 237  : #ifdef __cpp_aligned_new
; 238  :     if constexpr (_Align > __STDCPP_DEFAULT_NEW_ALIGNMENT__) {
; 239  :         size_t _Passed_align = _Align;
; 240  : #if defined(_M_IX86) || defined(_M_X64)
; 241  :         if (_Bytes >= _Big_allocation_threshold) {
; 242  :             // boost the alignment of big allocations to help autovectorization
; 243  :             _Passed_align = (_STD max)(_Align, _Big_allocation_alignment);
; 244  :         }
; 245  : #endif // defined(_M_IX86) || defined(_M_X64)
; 246  :         return _Traits::_Allocate_aligned(_Bytes, _Passed_align);
; 247  :     } else
; 248  : #endif // defined(__cpp_aligned_new)
; 249  :     {
; 250  : #if defined(_M_IX86) || defined(_M_X64)
; 251  :         if (_Bytes >= _Big_allocation_threshold) {

  00054	81 ff 00 10 00
	00		 cmp	 edi, 4096		; 00001000H
  0005a	72 08		 jb	 SHORT $LN19@Resize_rea

; 253  :             return _Allocate_manually_vector_aligned<_Traits>(_Bytes);

  0005c	56		 push	 esi
  0005d	e8 00 00 00 00	 call	 ??$_Allocate_manually_vector_aligned@U_Default_allocate_traits@std@@@std@@YAPAXI@Z ; std::_Allocate_manually_vector_aligned<std::_Default_allocate_traits>
  00062	eb 06		 jmp	 SHORT $LN87@Resize_rea
$LN19@Resize_rea:

; 136  :         return ::operator new(_Bytes);

  00064	57		 push	 edi
  00065	e8 00 00 00 00	 call	 ??2@YAPAXI@Z		; operator new
$LN87@Resize_rea:
; File C:\Program Files\Microsoft Visual Studio\2022\Community\VC\Tools\MSVC\14.44.35207\include\vector

; 1566 :         const pointer _Appended_first = _Newvec + _Oldsize;

  0006a	8b f8		 mov	 edi, eax
  0006c	83 c4 04	 add	 esp, 4
$LN16@Resize_rea:
  0006f	8b 55 f8	 mov	 edx, DWORD PTR __Oldsize$1$[ebp]

; 1567 : 
; 1568 :         _Reallocation_guard _Guard{_Al, _Newvec, _Newcapacity, _Appended_first, _Appended_first};
; 1569 :         auto& _Appended_last = _Guard._Constructed_last;
; 1570 : 
; 1571 :         if constexpr (is_same_v<_Ty2, _Ty>) {
; 1572 :             _Appended_last = _Uninitialized_fill_n(_Appended_first, _Newsize - _Oldsize, _Val, _Al);
; 1573 :         } else {
; 1574 :             _STL_INTERNAL_STATIC_ASSERT(is_same_v<_Ty2, _Value_init_tag>);
; 1575 :             _Appended_last = _Uninitialized_value_construct_n(_Appended_first, _Newsize - _Oldsize, _Al);

  00072	8b c3		 mov	 eax, ebx
  00074	2b c2		 sub	 eax, edx
  00076	8d 0c 17	 lea	 ecx, DWORD PTR [edi+edx]
; File C:\Program Files\Microsoft Visual Studio\2022\Community\VC\Tools\MSVC\14.44.35207\include\xmemory

; 2087 :             _Zero_range(_PFirst, _PFirst + _Count);

  00079	03 c1		 add	 eax, ecx
  0007b	50		 push	 eax
  0007c	51		 push	 ecx
  0007d	e8 00 00 00 00	 call	 ??$_Zero_range@PAE@std@@YAPAEQAE0@Z ; std::_Zero_range<unsigned char *>

; 1992 :             _STD _Copy_memmove(_UFirst, _ULast, _STD _Unfancy(_Dest));

  00082	8b 45 fc	 mov	 eax, DWORD PTR _this$1$[ebp]
  00085	57		 push	 edi
  00086	ff 70 04	 push	 DWORD PTR [eax+4]
  00089	ff 30		 push	 DWORD PTR [eax]
  0008b	e8 00 00 00 00	 call	 ??$_Copy_memmove@PAEPAE@std@@YAPAEPAE00@Z ; std::_Copy_memmove<unsigned char *,unsigned char *>
; File C:\Program Files\Microsoft Visual Studio\2022\Community\VC\Tools\MSVC\14.44.35207\include\vector

; 1585 :         _Change_array(_Newvec, _Newsize, _Newcapacity);

  00090	8b 4d fc	 mov	 ecx, DWORD PTR _this$1$[ebp]
; File C:\Program Files\Microsoft Visual Studio\2022\Community\VC\Tools\MSVC\14.44.35207\include\xmemory

; 1992 :             _STD _Copy_memmove(_UFirst, _ULast, _STD _Unfancy(_Dest));

  00093	83 c4 14	 add	 esp, 20			; 00000014H
; File C:\Program Files\Microsoft Visual Studio\2022\Community\VC\Tools\MSVC\14.44.35207\include\vector

; 1585 :         _Change_array(_Newvec, _Newsize, _Newcapacity);

  00096	56		 push	 esi
  00097	53		 push	 ebx
  00098	57		 push	 edi
  00099	e8 00 00 00 00	 call	 ?_Change_array@?$vector@EV?$allocator@E@std@@@std@@AAEXQAEII@Z ; std::vector<unsigned char,std::allocator<unsigned char> >::_Change_array
  0009e	5f		 pop	 edi
  0009f	5e		 pop	 esi

; 1586 :     }

  000a0	5b		 pop	 ebx
  000a1	8b e5		 mov	 esp, ebp
  000a3	5d		 pop	 ebp
  000a4	c2 08 00	 ret	 8
$LN89@Resize_rea:

; 1554 :             _Xlength();

  000a7	e8 00 00 00 00	 call	 ?_Xlength@?$vector@EV?$allocator@E@std@@@std@@CAXXZ ; std::vector<unsigned char,std::allocator<unsigned char> >::_Xlength
$LN86@Resize_rea:
  000ac	cc		 int	 3
??$_Resize_reallocate@U_Value_init_tag@std@@@?$vector@EV?$allocator@E@std@@@std@@AAEXIABU_Value_init_tag@1@@Z ENDP ; std::vector<unsigned char,std::allocator<unsigned char> >::_Resize_reallocate<std::_Value_init_tag>
_TEXT	ENDS
; Function compile flags: /Ogtp
; File C:\Program Files\Microsoft Visual Studio\2022\Community\VC\Tools\MSVC\14.44.35207\include\xmemory
;	COMDAT ??$_Uninitialized_value_construct_n@V?$allocator@E@std@@@std@@YAPAEPAEIAAV?$allocator@E@0@@Z
_TEXT	SEGMENT
__Al$dead$ = 8						; size = 4
??$_Uninitialized_value_construct_n@V?$allocator@E@std@@@std@@YAPAEPAEIAAV?$allocator@E@0@@Z PROC ; std::_Uninitialized_value_construct_n<std::allocator<unsigned char> >, COMDAT
; __First$ = ecx
; __Count$ = edx

; 2078 :     _Alloc_ptr_t<_Alloc> _First, _Alloc_size_t<_Alloc> _Count, _Alloc& _Al) {

  00000	56		 push	 esi

; 2079 :     // value-initialize _Count objects to raw _First, using _Al
; 2080 :     using _Ptrty = typename _Alloc::value_type*;
; 2081 :     if constexpr (_Use_memset_value_construct_v<_Ptrty> && _Uses_default_construct<_Alloc, _Ptrty>::value) {
; 2082 : #if _HAS_CXX20
; 2083 :         if (!_STD is_constant_evaluated())
; 2084 : #endif // _HAS_CXX20
; 2085 :         {
; 2086 :             auto _PFirst = _Unfancy(_First);
; 2087 :             _Zero_range(_PFirst, _PFirst + _Count);

  00001	8d 34 11	 lea	 esi, DWORD PTR [ecx+edx]
  00004	56		 push	 esi
  00005	51		 push	 ecx
  00006	e8 00 00 00 00	 call	 ??$_Zero_range@PAE@std@@YAPAEQAE0@Z ; std::_Zero_range<unsigned char *>
  0000b	83 c4 08	 add	 esp, 8

; 2088 :             return _First + _Count;

  0000e	8b c6		 mov	 eax, esi
  00010	5e		 pop	 esi

; 2089 :         }
; 2090 :     }
; 2091 : 
; 2092 :     _Uninitialized_backout_al<_Alloc> _Backout{_First, _Al};
; 2093 :     for (; 0 < _Count; --_Count) {
; 2094 :         _Backout._Emplace_back();
; 2095 :     }
; 2096 : 
; 2097 :     return _Backout._Release();
; 2098 : }

  00011	c3		 ret	 0
??$_Uninitialized_value_construct_n@V?$allocator@E@std@@@std@@YAPAEPAEIAAV?$allocator@E@0@@Z ENDP ; std::_Uninitialized_value_construct_n<std::allocator<unsigned char> >
_TEXT	ENDS
; Function compile flags: /Ogtp
; File C:\Program Files\Microsoft Visual Studio\2022\Community\VC\Tools\MSVC\14.44.35207\include\type_traits
;	COMDAT ??$addressof@U?$pair@$$CBKPAVCGuildMarkImage@@@std@@@std@@YAPAU?$pair@$$CBKPAVCGuildMarkImage@@@0@AAU10@@Z
_TEXT	SEGMENT
??$addressof@U?$pair@$$CBKPAVCGuildMarkImage@@@std@@@std@@YAPAU?$pair@$$CBKPAVCGuildMarkImage@@@0@AAU10@@Z PROC ; std::addressof<std::pair<unsigned long const ,CGuildMarkImage *> >, COMDAT
; __Val$ = ecx

; 1525 :     return __builtin_addressof(_Val);

  00000	8b c1		 mov	 eax, ecx

; 1526 : }

  00002	c3		 ret	 0
??$addressof@U?$pair@$$CBKPAVCGuildMarkImage@@@std@@@std@@YAPAU?$pair@$$CBKPAVCGuildMarkImage@@@0@AAU10@@Z ENDP ; std::addressof<std::pair<unsigned long const ,CGuildMarkImage *> >
_TEXT	ENDS
; Function compile flags: /Ogtp
; File C:\Program Files\Microsoft Visual Studio\2022\Community\VC\Tools\MSVC\14.44.35207\include\type_traits
;	COMDAT ??$addressof@U?$pair@$$CBKUTGuildSymbol@CGuildMarkManager@@@std@@@std@@YAPAU?$pair@$$CBKUTGuildSymbol@CGuildMarkManager@@@0@AAU10@@Z
_TEXT	SEGMENT
??$addressof@U?$pair@$$CBKUTGuildSymbol@CGuildMarkManager@@@std@@@std@@YAPAU?$pair@$$CBKUTGuildSymbol@CGuildMarkManager@@@0@AAU10@@Z PROC ; std::addressof<std::pair<unsigned long const ,CGuildMarkManager::TGuildSymbol> >, COMDAT
; __Val$ = ecx

; 1525 :     return __builtin_addressof(_Val);

  00000	8b c1		 mov	 eax, ecx

; 1526 : }

  00002	c3		 ret	 0
??$addressof@U?$pair@$$CBKUTGuildSymbol@CGuildMarkManager@@@std@@@std@@YAPAU?$pair@$$CBKUTGuildSymbol@CGuildMarkManager@@@0@AAU10@@Z ENDP ; std::addressof<std::pair<unsigned long const ,CGuildMarkManager::TGuildSymbol> >
_TEXT	ENDS
; Function compile flags: /Ogtp
; File C:\Program Files\Microsoft Visual Studio\2022\Community\VC\Tools\MSVC\14.44.35207\include\type_traits
;	COMDAT ??$addressof@V?$_Tree_val@U?$_Tree_simple_types@U?$pair@$$CBKUTGuildSymbol@CGuildMarkManager@@@std@@@std@@@std@@@std@@YAPAV?$_Tree_val@U?$_Tree_simple_types@U?$pair@$$CBKUTGuildSymbol@CGuildMarkManager@@@std@@@std@@@0@AAV10@@Z
_TEXT	SEGMENT
??$addressof@V?$_Tree_val@U?$_Tree_simple_types@U?$pair@$$CBKUTGuildSymbol@CGuildMarkManager@@@std@@@std@@@std@@@std@@YAPAV?$_Tree_val@U?$_Tree_simple_types@U?$pair@$$CBKUTGuildSymbol@CGuildMarkManager@@@std@@@std@@@0@AAV10@@Z PROC ; std::addressof<std::_Tree_val<std::_Tree_simple_types<std::pair<unsigned long const ,CGuildMarkManager::TGuildSymbol> > > >, COMDAT
; __Val$ = ecx

; 1525 :     return __builtin_addressof(_Val);

  00000	8b c1		 mov	 eax, ecx

; 1526 : }

  00002	c3		 ret	 0
??$addressof@V?$_Tree_val@U?$_Tree_simple_types@U?$pair@$$CBKUTGuildSymbol@CGuildMarkManager@@@std@@@std@@@std@@@std@@YAPAV?$_Tree_val@U?$_Tree_simple_types@U?$pair@$$CBKUTGuildSymbol@CGuildMarkManager@@@std@@@std@@@0@AAV10@@Z ENDP ; std::addressof<std::_Tree_val<std::_Tree_simple_types<std::pair<unsigned long const ,CGuildMarkManager::TGuildSymbol> > > >
_TEXT	ENDS
; Function compile flags: /Ogtp
; File C:\Program Files\Microsoft Visual Studio\2022\Community\VC\Tools\MSVC\14.44.35207\include\xmemory
; File C:\Program Files\Microsoft Visual Studio\2022\Community\VC\Tools\MSVC\14.44.35207\include\xtree
; File C:\Program Files\Microsoft Visual Studio\2022\Community\VC\Tools\MSVC\14.44.35207\include\xmemory
; File C:\Program Files\Microsoft Visual Studio\2022\Community\VC\Tools\MSVC\14.44.35207\include\xtree
; File C:\Program Files\Microsoft Visual Studio\2022\Community\VC\Tools\MSVC\14.44.35207\include\xmemory
;	COMDAT ??$?0ABU?$less@K@std@@U_Zero_then_variadic_args_t@1@@?$_Compressed_pair@U?$less@K@std@@V?$_Compressed_pair@V?$allocator@U?$_Tree_node@U?$pair@$$CBKUTGuildSymbol@CGuildMarkManager@@@std@@PAX@std@@@std@@V?$_Tree_val@U?$_Tree_simple_types@U?$pair@$$CBKUTGuildSymbol@CGuildMarkManager@@@std@@@std@@@2@$00@2@$00@std@@QAE@U_One_then_variadic_args_t@1@ABU?$less@K@1@$$QAU_Zero_then_variadic_args_t@1@@Z
_TEXT	SEGMENT
___formal$ = 8						; size = 1
__Val1$dead$ = 12					; size = 4
_<_Val2_0>$dead$ = 16					; size = 4
??$?0ABU?$less@K@std@@U_Zero_then_variadic_args_t@1@@?$_Compressed_pair@U?$less@K@std@@V?$_Compressed_pair@V?$allocator@U?$_Tree_node@U?$pair@$$CBKUTGuildSymbol@CGuildMarkManager@@@std@@PAX@std@@@std@@V?$_Tree_val@U?$_Tree_simple_types@U?$pair@$$CBKUTGuildSymbol@CGuildMarkManager@@@std@@@std@@@2@$00@2@$00@std@@QAE@U_One_then_variadic_args_t@1@ABU?$less@K@1@$$QAU_Zero_then_variadic_args_t@1@@Z PROC ; std::_Compressed_pair<std::less<unsigned long>,std::_Compressed_pair<std::allocator<std::_Tree_node<std::pair<unsigned long const ,CGuildMarkManager::TGuildSymbol>,void *> >,std::_Tree_val<std::_Tree_simple_types<std::pair<unsigned long const ,CGuildMarkManager::TGuildSymbol> > >,1>,1>::_Compressed_pair<std::less<unsigned long>,std::_Compressed_pair<std::allocator<std::_Tree_node<std::pair<unsigned long const ,CGuildMarkManager::TGuildSymbol>,void *> >,std::_Tree_val<std::_Tree_simple_types<std::pair<unsigned long const ,CGuildMarkManager::TGuildSymbol> > >,1>,1><std::less<unsigned long> const &,std::_Zero_then_variadic_args_t>, COMDAT
; _this$ = ecx
; File C:\Program Files\Microsoft Visual Studio\2022\Community\VC\Tools\MSVC\14.44.35207\include\xtree

; 450  :     _Tree_val() noexcept : _Myhead(), _Mysize(0) {}

  00000	c7 01 00 00 00
	00		 mov	 DWORD PTR [ecx], 0
; File C:\Program Files\Microsoft Visual Studio\2022\Community\VC\Tools\MSVC\14.44.35207\include\xmemory

; 1536 :         : _Ty1(_STD forward<_Other1>(_Val1)), _Myval2(_STD forward<_Other2>(_Val2)...) {}

  00006	8b c1		 mov	 eax, ecx
; File C:\Program Files\Microsoft Visual Studio\2022\Community\VC\Tools\MSVC\14.44.35207\include\xtree

; 450  :     _Tree_val() noexcept : _Myhead(), _Mysize(0) {}

  00008	c7 41 04 00 00
	00 00		 mov	 DWORD PTR [ecx+4], 0
; File C:\Program Files\Microsoft Visual Studio\2022\Community\VC\Tools\MSVC\14.44.35207\include\xmemory

; 1536 :         : _Ty1(_STD forward<_Other1>(_Val1)), _Myval2(_STD forward<_Other2>(_Val2)...) {}

  0000f	c2 0c 00	 ret	 12			; 0000000cH
??$?0ABU?$less@K@std@@U_Zero_then_variadic_args_t@1@@?$_Compressed_pair@U?$less@K@std@@V?$_Compressed_pair@V?$allocator@U?$_Tree_node@U?$pair@$$CBKUTGuildSymbol@CGuildMarkManager@@@std@@PAX@std@@@std@@V?$_Tree_val@U?$_Tree_simple_types@U?$pair@$$CBKUTGuildSymbol@CGuildMarkManager@@@std@@@std@@@2@$00@2@$00@std@@QAE@U_One_then_variadic_args_t@1@ABU?$less@K@1@$$QAU_Zero_then_variadic_args_t@1@@Z ENDP ; std::_Compressed_pair<std::less<unsigned long>,std::_Compressed_pair<std::allocator<std::_Tree_node<std::pair<unsigned long const ,CGuildMarkManager::TGuildSymbol>,void *> >,std::_Tree_val<std::_Tree_simple_types<std::pair<unsigned long const ,CGuildMarkManager::TGuildSymbol> > >,1>,1>::_Compressed_pair<std::less<unsigned long>,std::_Compressed_pair<std::allocator<std::_Tree_node<std::pair<unsigned long const ,CGuildMarkManager::TGuildSymbol>,void *> >,std::_Tree_val<std::_Tree_simple_types<std::pair<unsigned long const ,CGuildMarkManager::TGuildSymbol> > >,1>,1><std::less<unsigned long> const &,std::_Zero_then_variadic_args_t>
_TEXT	ENDS
; Function compile flags: /Ogtp
; File C:\Program Files\Microsoft Visual Studio\2022\Community\VC\Tools\MSVC\14.44.35207\include\type_traits
;	COMDAT ??$addressof@$$CBV?$_Tree_val@U?$_Tree_simple_types@U?$pair@$$CBKPAVCGuildMarkImage@@@std@@@std@@@std@@@std@@YAPBV?$_Tree_val@U?$_Tree_simple_types@U?$pair@$$CBKPAVCGuildMarkImage@@@std@@@std@@@0@ABV10@@Z
_TEXT	SEGMENT
??$addressof@$$CBV?$_Tree_val@U?$_Tree_simple_types@U?$pair@$$CBKPAVCGuildMarkImage@@@std@@@std@@@std@@@std@@YAPBV?$_Tree_val@U?$_Tree_simple_types@U?$pair@$$CBKPAVCGuildMarkImage@@@std@@@std@@@0@ABV10@@Z PROC ; std::addressof<std::_Tree_val<std::_Tree_simple_types<std::pair<unsigned long const ,CGuildMarkImage *> > > const >, COMDAT
; __Val$ = ecx

; 1525 :     return __builtin_addressof(_Val);

  00000	8b c1		 mov	 eax, ecx

; 1526 : }

  00002	c3		 ret	 0
??$addressof@$$CBV?$_Tree_val@U?$_Tree_simple_types@U?$pair@$$CBKPAVCGuildMarkImage@@@std@@@std@@@std@@@std@@YAPBV?$_Tree_val@U?$_Tree_simple_types@U?$pair@$$CBKPAVCGuildMarkImage@@@std@@@std@@@0@ABV10@@Z ENDP ; std::addressof<std::_Tree_val<std::_Tree_simple_types<std::pair<unsigned long const ,CGuildMarkImage *> > > const >
_TEXT	ENDS
; Function compile flags: /Ogtp
; File C:\Program Files\Microsoft Visual Studio\2022\Community\VC\Tools\MSVC\14.44.35207\include\type_traits
;	COMDAT ??$addressof@V?$_Tree_val@U?$_Tree_simple_types@U?$pair@$$CBKPAVCGuildMarkImage@@@std@@@std@@@std@@@std@@YAPAV?$_Tree_val@U?$_Tree_simple_types@U?$pair@$$CBKPAVCGuildMarkImage@@@std@@@std@@@0@AAV10@@Z
_TEXT	SEGMENT
??$addressof@V?$_Tree_val@U?$_Tree_simple_types@U?$pair@$$CBKPAVCGuildMarkImage@@@std@@@std@@@std@@@std@@YAPAV?$_Tree_val@U?$_Tree_simple_types@U?$pair@$$CBKPAVCGuildMarkImage@@@std@@@std@@@0@AAV10@@Z PROC ; std::addressof<std::_Tree_val<std::_Tree_simple_types<std::pair<unsigned long const ,CGuildMarkImage *> > > >, COMDAT
; __Val$ = ecx

; 1525 :     return __builtin_addressof(_Val);

  00000	8b c1		 mov	 eax, ecx

; 1526 : }

  00002	c3		 ret	 0
??$addressof@V?$_Tree_val@U?$_Tree_simple_types@U?$pair@$$CBKPAVCGuildMarkImage@@@std@@@std@@@std@@@std@@YAPAV?$_Tree_val@U?$_Tree_simple_types@U?$pair@$$CBKPAVCGuildMarkImage@@@std@@@std@@@0@AAV10@@Z ENDP ; std::addressof<std::_Tree_val<std::_Tree_simple_types<std::pair<unsigned long const ,CGuildMarkImage *> > > >
_TEXT	ENDS
; Function compile flags: /Ogtp
; File C:\Program Files\Microsoft Visual Studio\2022\Community\VC\Tools\MSVC\14.44.35207\include\xmemory
; File C:\Program Files\Microsoft Visual Studio\2022\Community\VC\Tools\MSVC\14.44.35207\include\xtree
; File C:\Program Files\Microsoft Visual Studio\2022\Community\VC\Tools\MSVC\14.44.35207\include\xmemory
; File C:\Program Files\Microsoft Visual Studio\2022\Community\VC\Tools\MSVC\14.44.35207\include\xtree
; File C:\Program Files\Microsoft Visual Studio\2022\Community\VC\Tools\MSVC\14.44.35207\include\xmemory
;	COMDAT ??$?0ABU?$less@K@std@@U_Zero_then_variadic_args_t@1@@?$_Compressed_pair@U?$less@K@std@@V?$_Compressed_pair@V?$allocator@U?$_Tree_node@U?$pair@$$CBKPAVCGuildMarkImage@@@std@@PAX@std@@@std@@V?$_Tree_val@U?$_Tree_simple_types@U?$pair@$$CBKPAVCGuildMarkImage@@@std@@@std@@@2@$00@2@$00@std@@QAE@U_One_then_variadic_args_t@1@ABU?$less@K@1@$$QAU_Zero_then_variadic_args_t@1@@Z
_TEXT	SEGMENT
___formal$ = 8						; size = 1
__Val1$dead$ = 12					; size = 4
_<_Val2_0>$dead$ = 16					; size = 4
??$?0ABU?$less@K@std@@U_Zero_then_variadic_args_t@1@@?$_Compressed_pair@U?$less@K@std@@V?$_Compressed_pair@V?$allocator@U?$_Tree_node@U?$pair@$$CBKPAVCGuildMarkImage@@@std@@PAX@std@@@std@@V?$_Tree_val@U?$_Tree_simple_types@U?$pair@$$CBKPAVCGuildMarkImage@@@std@@@std@@@2@$00@2@$00@std@@QAE@U_One_then_variadic_args_t@1@ABU?$less@K@1@$$QAU_Zero_then_variadic_args_t@1@@Z PROC ; std::_Compressed_pair<std::less<unsigned long>,std::_Compressed_pair<std::allocator<std::_Tree_node<std::pair<unsigned long const ,CGuildMarkImage *>,void *> >,std::_Tree_val<std::_Tree_simple_types<std::pair<unsigned long const ,CGuildMarkImage *> > >,1>,1>::_Compressed_pair<std::less<unsigned long>,std::_Compressed_pair<std::allocator<std::_Tree_node<std::pair<unsigned long const ,CGuildMarkImage *>,void *> >,std::_Tree_val<std::_Tree_simple_types<std::pair<unsigned long const ,CGuildMarkImage *> > >,1>,1><std::less<unsigned long> const &,std::_Zero_then_variadic_args_t>, COMDAT
; _this$ = ecx
; File C:\Program Files\Microsoft Visual Studio\2022\Community\VC\Tools\MSVC\14.44.35207\include\xtree

; 450  :     _Tree_val() noexcept : _Myhead(), _Mysize(0) {}

  00000	c7 01 00 00 00
	00		 mov	 DWORD PTR [ecx], 0
; File C:\Program Files\Microsoft Visual Studio\2022\Community\VC\Tools\MSVC\14.44.35207\include\xmemory

; 1536 :         : _Ty1(_STD forward<_Other1>(_Val1)), _Myval2(_STD forward<_Other2>(_Val2)...) {}

  00006	8b c1		 mov	 eax, ecx
; File C:\Program Files\Microsoft Visual Studio\2022\Community\VC\Tools\MSVC\14.44.35207\include\xtree

; 450  :     _Tree_val() noexcept : _Myhead(), _Mysize(0) {}

  00008	c7 41 04 00 00
	00 00		 mov	 DWORD PTR [ecx+4], 0
; File C:\Program Files\Microsoft Visual Studio\2022\Community\VC\Tools\MSVC\14.44.35207\include\xmemory

; 1536 :         : _Ty1(_STD forward<_Other1>(_Val1)), _Myval2(_STD forward<_Other2>(_Val2)...) {}

  0000f	c2 0c 00	 ret	 12			; 0000000cH
??$?0ABU?$less@K@std@@U_Zero_then_variadic_args_t@1@@?$_Compressed_pair@U?$less@K@std@@V?$_Compressed_pair@V?$allocator@U?$_Tree_node@U?$pair@$$CBKPAVCGuildMarkImage@@@std@@PAX@std@@@std@@V?$_Tree_val@U?$_Tree_simple_types@U?$pair@$$CBKPAVCGuildMarkImage@@@std@@@std@@@2@$00@2@$00@std@@QAE@U_One_then_variadic_args_t@1@ABU?$less@K@1@$$QAU_Zero_then_variadic_args_t@1@@Z ENDP ; std::_Compressed_pair<std::less<unsigned long>,std::_Compressed_pair<std::allocator<std::_Tree_node<std::pair<unsigned long const ,CGuildMarkImage *>,void *> >,std::_Tree_val<std::_Tree_simple_types<std::pair<unsigned long const ,CGuildMarkImage *> > >,1>,1>::_Compressed_pair<std::less<unsigned long>,std::_Compressed_pair<std::allocator<std::_Tree_node<std::pair<unsigned long const ,CGuildMarkImage *>,void *> >,std::_Tree_val<std::_Tree_simple_types<std::pair<unsigned long const ,CGuildMarkImage *> > >,1>,1><std::less<unsigned long> const &,std::_Zero_then_variadic_args_t>
_TEXT	ENDS
; Function compile flags: /Ogtp
; File C:\Program Files\Microsoft Visual Studio\2022\Community\VC\Tools\MSVC\14.44.35207\include\xmemory
; File C:\Program Files\Microsoft Visual Studio\2022\Community\VC\Tools\MSVC\14.44.35207\include\utility
; File C:\Program Files\Microsoft Visual Studio\2022\Community\VC\Tools\MSVC\14.44.35207\include\xmemory
;	COMDAT ?_Release@?$_Alloc_construct_ptr@V?$allocator@U?$_Tree_node@U?$pair@$$CBKPAVCGuildMarkImage@@@std@@PAX@std@@@std@@@std@@QAEPAU?$_Tree_node@U?$pair@$$CBKPAVCGuildMarkImage@@@std@@PAX@2@XZ
_TEXT	SEGMENT
?_Release@?$_Alloc_construct_ptr@V?$allocator@U?$_Tree_node@U?$pair@$$CBKPAVCGuildMarkImage@@@std@@PAX@std@@@std@@@std@@QAEPAU?$_Tree_node@U?$pair@$$CBKPAVCGuildMarkImage@@@std@@PAX@2@XZ PROC ; std::_Alloc_construct_ptr<std::allocator<std::_Tree_node<std::pair<unsigned long const ,CGuildMarkImage *>,void *> > >::_Release, COMDAT
; _this$ = ecx
; File C:\Program Files\Microsoft Visual Studio\2022\Community\VC\Tools\MSVC\14.44.35207\include\utility

; 773  :     _Ty _Old_val = static_cast<_Ty&&>(_Val);

  00000	8b 41 04	 mov	 eax, DWORD PTR [ecx+4]

; 774  :     _Val         = static_cast<_Other&&>(_New_val);

  00003	c7 41 04 00 00
	00 00		 mov	 DWORD PTR [ecx+4], 0
; File C:\Program Files\Microsoft Visual Studio\2022\Community\VC\Tools\MSVC\14.44.35207\include\xmemory

; 1164 :     }

  0000a	c3		 ret	 0
?_Release@?$_Alloc_construct_ptr@V?$allocator@U?$_Tree_node@U?$pair@$$CBKPAVCGuildMarkImage@@@std@@PAX@std@@@std@@@std@@QAEPAU?$_Tree_node@U?$pair@$$CBKPAVCGuildMarkImage@@@std@@PAX@2@XZ ENDP ; std::_Alloc_construct_ptr<std::allocator<std::_Tree_node<std::pair<unsigned long const ,CGuildMarkImage *>,void *> > >::_Release
_TEXT	ENDS
; Function compile flags: /Ogtp
; File C:\Program Files\Microsoft Visual Studio\2022\Community\VC\Tools\MSVC\14.44.35207\include\xtree
; File C:\Program Files\Microsoft Visual Studio\2022\Community\VC\Tools\MSVC\14.44.35207\include\xmemory
; File C:\Program Files\Microsoft Visual Studio\2022\Community\VC\Tools\MSVC\14.44.35207\include\xtree
;	COMDAT ??1?$_Tree_temp_node@V?$allocator@U?$_Tree_node@U?$pair@$$CBKPAVCGuildMarkImage@@@std@@PAX@std@@@std@@@std@@QAE@XZ
_TEXT	SEGMENT
??1?$_Tree_temp_node@V?$allocator@U?$_Tree_node@U?$pair@$$CBKPAVCGuildMarkImage@@@std@@PAX@std@@@std@@@std@@QAE@XZ PROC ; std::_Tree_temp_node<std::allocator<std::_Tree_node<std::pair<unsigned long const ,CGuildMarkImage *>,void *> > >::~_Tree_temp_node<std::allocator<std::_Tree_node<std::pair<unsigned long const ,CGuildMarkImage *>,void *> > >, COMDAT
; _this$ = ecx
; File C:\Program Files\Microsoft Visual Studio\2022\Community\VC\Tools\MSVC\14.44.35207\include\xmemory

; 1172 :         if (_Ptr) {

  00000	8b 41 04	 mov	 eax, DWORD PTR [ecx+4]
  00003	85 c0		 test	 eax, eax
  00005	74 0b		 je	 SHORT $LN17@Tree_temp_

; 289  :         ::operator delete(_Ptr, _Bytes);

  00007	6a 18		 push	 24			; 00000018H
  00009	50		 push	 eax
  0000a	e8 00 00 00 00	 call	 ??3@YAXPAXI@Z		; operator delete
  0000f	83 c4 08	 add	 esp, 8
$LN17@Tree_temp_:
; File C:\Program Files\Microsoft Visual Studio\2022\Community\VC\Tools\MSVC\14.44.35207\include\xtree

; 848  :     }

  00012	c3		 ret	 0
??1?$_Tree_temp_node@V?$allocator@U?$_Tree_node@U?$pair@$$CBKPAVCGuildMarkImage@@@std@@PAX@std@@@std@@@std@@QAE@XZ ENDP ; std::_Tree_temp_node<std::allocator<std::_Tree_node<std::pair<unsigned long const ,CGuildMarkImage *>,void *> > >::~_Tree_temp_node<std::allocator<std::_Tree_node<std::pair<unsigned long const ,CGuildMarkImage *>,void *> > >
_TEXT	ENDS
; Function compile flags: /Ogtp
; File C:\Program Files\Microsoft Visual Studio\2022\Community\VC\Tools\MSVC\14.44.35207\include\xmemory
;	COMDAT ?_Extract@?$_In_place_key_extract_map_impl@KU?$pair@$$CBKPAVCGuildMarkImage@@@std@@@std@@SAABKABU?$pair@$$CBKPAVCGuildMarkImage@@@2@@Z
_TEXT	SEGMENT
?_Extract@?$_In_place_key_extract_map_impl@KU?$pair@$$CBKPAVCGuildMarkImage@@@std@@@std@@SAABKABU?$pair@$$CBKPAVCGuildMarkImage@@@2@@Z PROC ; std::_In_place_key_extract_map_impl<unsigned long,std::pair<unsigned long const ,CGuildMarkImage *> >::_Extract, COMDAT
; __Val$ = ecx

; 2175 :         return _Val.first;

  00000	8b c1		 mov	 eax, ecx

; 2176 :     }

  00002	c3		 ret	 0
?_Extract@?$_In_place_key_extract_map_impl@KU?$pair@$$CBKPAVCGuildMarkImage@@@std@@@std@@SAABKABU?$pair@$$CBKPAVCGuildMarkImage@@@2@@Z ENDP ; std::_In_place_key_extract_map_impl<unsigned long,std::pair<unsigned long const ,CGuildMarkImage *> >::_Extract
_TEXT	ENDS
; Function compile flags: /Ogtp
; File C:\Program Files\Microsoft Visual Studio\2022\Community\VC\Tools\MSVC\14.44.35207\include\xmemory
;	COMDAT ?_Get_first@?$_Compressed_pair@V?$allocator@U?$_Tree_node@U?$pair@$$CBKUTGuildSymbol@CGuildMarkManager@@@std@@PAX@std@@@std@@V?$_Tree_val@U?$_Tree_simple_types@U?$pair@$$CBKUTGuildSymbol@CGuildMarkManager@@@std@@@std@@@2@$00@std@@QAEAAV?$allocator@U?$_Tree_node@U?$pair@$$CBKUTGuildSymbol@CGuildMarkManager@@@std@@PAX@std@@@2@XZ
_TEXT	SEGMENT
?_Get_first@?$_Compressed_pair@V?$allocator@U?$_Tree_node@U?$pair@$$CBKUTGuildSymbol@CGuildMarkManager@@@std@@PAX@std@@@std@@V?$_Tree_val@U?$_Tree_simple_types@U?$pair@$$CBKUTGuildSymbol@CGuildMarkManager@@@std@@@std@@@2@$00@std@@QAEAAV?$allocator@U?$_Tree_node@U?$pair@$$CBKUTGuildSymbol@CGuildMarkManager@@@std@@PAX@std@@@2@XZ PROC ; std::_Compressed_pair<std::allocator<std::_Tree_node<std::pair<unsigned long const ,CGuildMarkManager::TGuildSymbol>,void *> >,std::_Tree_val<std::_Tree_simple_types<std::pair<unsigned long const ,CGuildMarkManager::TGuildSymbol> > >,1>::_Get_first, COMDAT
; _this$ = ecx

; 1539 :         return *this;

  00000	8b c1		 mov	 eax, ecx

; 1540 :     }

  00002	c3		 ret	 0
?_Get_first@?$_Compressed_pair@V?$allocator@U?$_Tree_node@U?$pair@$$CBKUTGuildSymbol@CGuildMarkManager@@@std@@PAX@std@@@std@@V?$_Tree_val@U?$_Tree_simple_types@U?$pair@$$CBKUTGuildSymbol@CGuildMarkManager@@@std@@@std@@@2@$00@std@@QAEAAV?$allocator@U?$_Tree_node@U?$pair@$$CBKUTGuildSymbol@CGuildMarkManager@@@std@@PAX@std@@@2@XZ ENDP ; std::_Compressed_pair<std::allocator<std::_Tree_node<std::pair<unsigned long const ,CGuildMarkManager::TGuildSymbol>,void *> >,std::_Tree_val<std::_Tree_simple_types<std::pair<unsigned long const ,CGuildMarkManager::TGuildSymbol> > >,1>::_Get_first
_TEXT	ENDS
; Function compile flags: /Ogtp
; File C:\Program Files\Microsoft Visual Studio\2022\Community\VC\Tools\MSVC\14.44.35207\include\xtree
; File C:\Program Files\Microsoft Visual Studio\2022\Community\VC\Tools\MSVC\14.44.35207\include\xmemory
; File C:\Program Files\Microsoft Visual Studio\2022\Community\VC\Tools\MSVC\14.44.35207\include\xtree
; File C:\Program Files\Microsoft Visual Studio\2022\Community\VC\Tools\MSVC\14.44.35207\include\xmemory
; File C:\Program Files\Microsoft Visual Studio\2022\Community\VC\Tools\MSVC\14.44.35207\include\xtree
;	COMDAT ?_Alloc_sentinel_and_proxy@?$_Tree@V?$_Tmap_traits@KUTGuildSymbol@CGuildMarkManager@@U?$less@K@std@@V?$allocator@U?$pair@$$CBKUTGuildSymbol@CGuildMarkManager@@@std@@@4@$0A@@std@@@std@@IAEXXZ
_TEXT	SEGMENT
?_Alloc_sentinel_and_proxy@?$_Tree@V?$_Tmap_traits@KUTGuildSymbol@CGuildMarkManager@@U?$less@K@std@@V?$allocator@U?$pair@$$CBKUTGuildSymbol@CGuildMarkManager@@@std@@@4@$0A@@std@@@std@@IAEXXZ PROC ; std::_Tree<std::_Tmap_traits<unsigned long,CGuildMarkManager::TGuildSymbol,std::less<unsigned long>,std::allocator<std::pair<unsigned long const ,CGuildMarkManager::TGuildSymbol> >,0> >::_Alloc_sentinel_and_proxy, COMDAT
; _this$ = ecx

; 1953 :     void _Alloc_sentinel_and_proxy() {

  00000	56		 push	 esi
; File C:\Program Files\Microsoft Visual Studio\2022\Community\VC\Tools\MSVC\14.44.35207\include\xmemory

; 136  :         return ::operator new(_Bytes);

  00001	6a 24		 push	 36			; 00000024H
; File C:\Program Files\Microsoft Visual Studio\2022\Community\VC\Tools\MSVC\14.44.35207\include\xtree

; 1953 :     void _Alloc_sentinel_and_proxy() {

  00003	8b f1		 mov	 esi, ecx
; File C:\Program Files\Microsoft Visual Studio\2022\Community\VC\Tools\MSVC\14.44.35207\include\xmemory

; 136  :         return ::operator new(_Bytes);

  00005	e8 00 00 00 00	 call	 ??2@YAPAXI@Z		; operator new
  0000a	83 c4 04	 add	 esp, 4
; File C:\Program Files\Microsoft Visual Studio\2022\Community\VC\Tools\MSVC\14.44.35207\include\xtree

; 346  :         _Construct_in_place(_Pnode->_Left, _Pnode);

  0000d	89 00		 mov	 DWORD PTR [eax], eax

; 347  :         _Construct_in_place(_Pnode->_Parent, _Pnode);

  0000f	89 40 04	 mov	 DWORD PTR [eax+4], eax

; 348  :         _Construct_in_place(_Pnode->_Right, _Pnode);

  00012	89 40 08	 mov	 DWORD PTR [eax+8], eax

; 349  :         _Pnode->_Color = _Black;

  00015	66 c7 40 0c 01
	01		 mov	 WORD PTR [eax+12], 257	; 00000101H

; 1954 :         const auto _Scary = _Get_scary();
; 1955 :         auto&& _Alproxy   = _GET_PROXY_ALLOCATOR(_Alnode, _Getal());
; 1956 :         _Container_proxy_ptr<_Alnode> _Proxy(_Alproxy, *_Scary);
; 1957 :         _Scary->_Myhead = _Node::_Buyheadnode(_Getal());

  0001b	89 06		 mov	 DWORD PTR [esi], eax
  0001d	5e		 pop	 esi

; 1958 :         _Proxy._Release();
; 1959 :     }

  0001e	c3		 ret	 0
?_Alloc_sentinel_and_proxy@?$_Tree@V?$_Tmap_traits@KUTGuildSymbol@CGuildMarkManager@@U?$less@K@std@@V?$allocator@U?$pair@$$CBKUTGuildSymbol@CGuildMarkManager@@@std@@@4@$0A@@std@@@std@@IAEXXZ ENDP ; std::_Tree<std::_Tmap_traits<unsigned long,CGuildMarkManager::TGuildSymbol,std::less<unsigned long>,std::allocator<std::pair<unsigned long const ,CGuildMarkManager::TGuildSymbol> >,0> >::_Alloc_sentinel_and_proxy
_TEXT	ENDS
; Function compile flags: /Ogtp
; File C:\Program Files\Microsoft Visual Studio\2022\Community\VC\Tools\MSVC\14.44.35207\include\xmemory
;	COMDAT ?_Get_first@?$_Compressed_pair@V?$allocator@U?$_Tree_node@U?$pair@$$CBKPAVCGuildMarkImage@@@std@@PAX@std@@@std@@V?$_Tree_val@U?$_Tree_simple_types@U?$pair@$$CBKPAVCGuildMarkImage@@@std@@@std@@@2@$00@std@@QAEAAV?$allocator@U?$_Tree_node@U?$pair@$$CBKPAVCGuildMarkImage@@@std@@PAX@std@@@2@XZ
_TEXT	SEGMENT
?_Get_first@?$_Compressed_pair@V?$allocator@U?$_Tree_node@U?$pair@$$CBKPAVCGuildMarkImage@@@std@@PAX@std@@@std@@V?$_Tree_val@U?$_Tree_simple_types@U?$pair@$$CBKPAVCGuildMarkImage@@@std@@@std@@@2@$00@std@@QAEAAV?$allocator@U?$_Tree_node@U?$pair@$$CBKPAVCGuildMarkImage@@@std@@PAX@std@@@2@XZ PROC ; std::_Compressed_pair<std::allocator<std::_Tree_node<std::pair<unsigned long const ,CGuildMarkImage *>,void *> >,std::_Tree_val<std::_Tree_simple_types<std::pair<unsigned long const ,CGuildMarkImage *> > >,1>::_Get_first, COMDAT
; _this$ = ecx

; 1539 :         return *this;

  00000	8b c1		 mov	 eax, ecx

; 1540 :     }

  00002	c3		 ret	 0
?_Get_first@?$_Compressed_pair@V?$allocator@U?$_Tree_node@U?$pair@$$CBKPAVCGuildMarkImage@@@std@@PAX@std@@@std@@V?$_Tree_val@U?$_Tree_simple_types@U?$pair@$$CBKPAVCGuildMarkImage@@@std@@@std@@@2@$00@std@@QAEAAV?$allocator@U?$_Tree_node@U?$pair@$$CBKPAVCGuildMarkImage@@@std@@PAX@std@@@2@XZ ENDP ; std::_Compressed_pair<std::allocator<std::_Tree_node<std::pair<unsigned long const ,CGuildMarkImage *>,void *> >,std::_Tree_val<std::_Tree_simple_types<std::pair<unsigned long const ,CGuildMarkImage *> > >,1>::_Get_first
_TEXT	ENDS
; Function compile flags: /Ogtp
; File C:\Program Files\Microsoft Visual Studio\2022\Community\VC\Tools\MSVC\14.44.35207\include\xtree
;	COMDAT ??E?$_Tree_unchecked_const_iterator@V?$_Tree_val@U?$_Tree_simple_types@U?$pair@$$CBKPAVCGuildMarkImage@@@std@@@std@@@std@@U_Iterator_base0@2@@std@@QAEAAV01@XZ
_TEXT	SEGMENT
??E?$_Tree_unchecked_const_iterator@V?$_Tree_val@U?$_Tree_simple_types@U?$pair@$$CBKPAVCGuildMarkImage@@@std@@@std@@@std@@U_Iterator_base0@2@@std@@QAEAAV01@XZ PROC ; std::_Tree_unchecked_const_iterator<std::_Tree_val<std::_Tree_simple_types<std::pair<unsigned long const ,CGuildMarkImage *> > >,std::_Iterator_base0>::operator++, COMDAT
; _this$ = ecx

; 49   :     _Tree_unchecked_const_iterator& operator++() noexcept {

  00000	56		 push	 esi
  00001	8b f1		 mov	 esi, ecx
  00003	57		 push	 edi

; 50   :         if (_Ptr->_Right->_Isnil) { // climb looking for right subtree

  00004	8b 16		 mov	 edx, DWORD PTR [esi]
  00006	8b 7a 08	 mov	 edi, DWORD PTR [edx+8]
  00009	80 7f 0d 00	 cmp	 BYTE PTR [edi+13], 0
  0000d	74 22		 je	 SHORT $LN4@operator

; 51   :             _Nodeptr _Pnode;
; 52   :             while (!(_Pnode = _Ptr->_Parent)->_Isnil && _Ptr == _Pnode->_Right) {

  0000f	8b 42 04	 mov	 eax, DWORD PTR [edx+4]
  00012	80 78 0d 00	 cmp	 BYTE PTR [eax+13], 0
  00016	75 12		 jne	 SHORT $LN21@operator
$LL2@operator:
  00018	3b 50 08	 cmp	 edx, DWORD PTR [eax+8]
  0001b	75 0d		 jne	 SHORT $LN21@operator

; 53   :                 _Ptr = _Pnode; // ==> parent while right subtree

  0001d	89 06		 mov	 DWORD PTR [esi], eax
  0001f	8b d0		 mov	 edx, eax
  00021	8b 40 04	 mov	 eax, DWORD PTR [eax+4]
  00024	80 78 0d 00	 cmp	 BYTE PTR [eax+13], 0
  00028	74 ee		 je	 SHORT $LL2@operator
$LN21@operator:

; 54   :             }
; 55   : 
; 56   :             _Ptr = _Pnode; // ==> parent (head if end())
; 57   :         } else {
; 58   :             _Ptr = _Mytree::_Min(_Ptr->_Right); // ==> smallest of right subtree
; 59   :         }
; 60   : 
; 61   :         return *this;

  0002a	89 06		 mov	 DWORD PTR [esi], eax

; 62   :     }

  0002c	8b c6		 mov	 eax, esi
  0002e	5f		 pop	 edi
  0002f	5e		 pop	 esi
  00030	c3		 ret	 0
$LN4@operator:

; 476  :         while (!_Pnode->_Left->_Isnil) {

  00031	8b 0f		 mov	 ecx, DWORD PTR [edi]
  00033	80 79 0d 00	 cmp	 BYTE PTR [ecx+13], 0
  00037	75 13		 jne	 SHORT $LN10@operator
  00039	0f 1f 80 00 00
	00 00		 npad	 7
$LL9@operator:
  00040	8b 01		 mov	 eax, DWORD PTR [ecx]

; 477  :             _Pnode = _Pnode->_Left;

  00042	8b f9		 mov	 edi, ecx
  00044	8b c8		 mov	 ecx, eax
  00046	80 78 0d 00	 cmp	 BYTE PTR [eax+13], 0
  0004a	74 f4		 je	 SHORT $LL9@operator
$LN10@operator:

; 54   :             }
; 55   : 
; 56   :             _Ptr = _Pnode; // ==> parent (head if end())
; 57   :         } else {
; 58   :             _Ptr = _Mytree::_Min(_Ptr->_Right); // ==> smallest of right subtree
; 59   :         }
; 60   : 
; 61   :         return *this;

  0004c	89 3e		 mov	 DWORD PTR [esi], edi

; 62   :     }

  0004e	8b c6		 mov	 eax, esi
  00050	5f		 pop	 edi
  00051	5e		 pop	 esi
  00052	c3		 ret	 0
??E?$_Tree_unchecked_const_iterator@V?$_Tree_val@U?$_Tree_simple_types@U?$pair@$$CBKPAVCGuildMarkImage@@@std@@@std@@@std@@U_Iterator_base0@2@@std@@QAEAAV01@XZ ENDP ; std::_Tree_unchecked_const_iterator<std::_Tree_val<std::_Tree_simple_types<std::pair<unsigned long const ,CGuildMarkImage *> > >,std::_Iterator_base0>::operator++
_TEXT	ENDS
; Function compile flags: /Ogtp
; File C:\Program Files\Microsoft Visual Studio\2022\Community\VC\Tools\MSVC\14.44.35207\include\xtree
;	COMDAT ??D?$_Tree_const_iterator@V?$_Tree_val@U?$_Tree_simple_types@U?$pair@$$CBKPAVCGuildMarkImage@@@std@@@std@@@std@@@std@@QBEABU?$pair@$$CBKPAVCGuildMarkImage@@@1@XZ
_TEXT	SEGMENT
??D?$_Tree_const_iterator@V?$_Tree_val@U?$_Tree_simple_types@U?$pair@$$CBKPAVCGuildMarkImage@@@std@@@std@@@std@@@std@@QBEABU?$pair@$$CBKPAVCGuildMarkImage@@@1@XZ PROC ; std::_Tree_const_iterator<std::_Tree_val<std::_Tree_simple_types<std::pair<unsigned long const ,CGuildMarkImage *> > > >::operator*, COMDAT
; _this$ = ecx

; 179  : #if _ITERATOR_DEBUG_LEVEL == 2
; 180  :         const auto _Mycont = static_cast<const _Mytree*>(this->_Getcont());
; 181  :         _STL_VERIFY(_Mycont, "cannot dereference value-initialized map/set iterator");
; 182  :         _STL_VERIFY(this->_Ptr != _Mycont->_Myhead, "cannot dereference end map/set iterator");
; 183  : #endif // _ITERATOR_DEBUG_LEVEL == 2
; 184  : 
; 185  :         return this->_Ptr->_Myval;

  00000	8b 01		 mov	 eax, DWORD PTR [ecx]
  00002	83 c0 10	 add	 eax, 16			; 00000010H

; 186  :     }

  00005	c3		 ret	 0
??D?$_Tree_const_iterator@V?$_Tree_val@U?$_Tree_simple_types@U?$pair@$$CBKPAVCGuildMarkImage@@@std@@@std@@@std@@@std@@QBEABU?$pair@$$CBKPAVCGuildMarkImage@@@1@XZ ENDP ; std::_Tree_const_iterator<std::_Tree_val<std::_Tree_simple_types<std::pair<unsigned long const ,CGuildMarkImage *> > > >::operator*
_TEXT	ENDS
; Function compile flags: /Ogtp
; File C:\Program Files\Microsoft Visual Studio\2022\Community\VC\Tools\MSVC\14.44.35207\include\xtree
;	COMDAT ?_Insert_node@?$_Tree_val@U?$_Tree_simple_types@U?$pair@$$CBKPAVCGuildMarkImage@@@std@@@std@@@std@@QAEPAU?$_Tree_node@U?$pair@$$CBKPAVCGuildMarkImage@@@std@@PAX@2@U?$_Tree_id@PAU?$_Tree_node@U?$pair@$$CBKPAVCGuildMarkImage@@@std@@PAX@std@@@2@QAU32@@Z
_TEXT	SEGMENT
__Head$1$ = -4						; size = 4
__Loc$ = 8						; size = 8
__Newnode$ = 16						; size = 4
?_Insert_node@?$_Tree_val@U?$_Tree_simple_types@U?$pair@$$CBKPAVCGuildMarkImage@@@std@@@std@@@std@@QAEPAU?$_Tree_node@U?$pair@$$CBKPAVCGuildMarkImage@@@std@@PAX@2@U?$_Tree_id@PAU?$_Tree_node@U?$pair@$$CBKPAVCGuildMarkImage@@@std@@PAX@std@@@2@QAU32@@Z PROC ; std::_Tree_val<std::_Tree_simple_types<std::pair<unsigned long const ,CGuildMarkImage *> > >::_Insert_node, COMDAT
; _this$ = ecx

; 669  :     _Nodeptr _Insert_node(const _Tree_id<_Nodeptr> _Loc, const _Nodeptr _Newnode) noexcept {

  00000	55		 push	 ebp
  00001	8b ec		 mov	 ebp, esp
  00003	51		 push	 ecx

; 670  :         ++_Mysize;
; 671  :         const auto _Head  = _Myhead;
; 672  :         _Newnode->_Parent = _Loc._Parent;

  00004	8b 55 08	 mov	 edx, DWORD PTR __Loc$[ebp]
  00007	53		 push	 ebx
  00008	8b d9		 mov	 ebx, ecx
  0000a	57		 push	 edi
  0000b	8b 7d 10	 mov	 edi, DWORD PTR __Newnode$[ebp]
  0000e	8b 03		 mov	 eax, DWORD PTR [ebx]
  00010	ff 43 04	 inc	 DWORD PTR [ebx+4]
  00013	89 45 fc	 mov	 DWORD PTR __Head$1$[ebp], eax
  00016	89 57 04	 mov	 DWORD PTR [edi+4], edx

; 673  :         if (_Loc._Parent == _Head) { // first node in tree, just set head values

  00019	3b d0		 cmp	 edx, eax
  0001b	75 16		 jne	 SHORT $LN5@Insert_nod

; 674  :             _Head->_Left     = _Newnode;

  0001d	89 38		 mov	 DWORD PTR [eax], edi

; 675  :             _Head->_Parent   = _Newnode;

  0001f	89 78 04	 mov	 DWORD PTR [eax+4], edi

; 676  :             _Head->_Right    = _Newnode;

  00022	89 78 08	 mov	 DWORD PTR [eax+8], edi

; 735  :         return _Newnode;
; 736  :     }

  00025	8b c7		 mov	 eax, edi
  00027	c6 47 0c 01	 mov	 BYTE PTR [edi+12], 1
  0002b	5f		 pop	 edi
  0002c	5b		 pop	 ebx
  0002d	8b e5		 mov	 esp, ebp
  0002f	5d		 pop	 ebp
  00030	c2 0c 00	 ret	 12			; 0000000cH
$LN5@Insert_nod:

; 677  :             _Newnode->_Color = _Black; // the root is black
; 678  :             return _Newnode;
; 679  :         }
; 680  : 
; 681  :         _STL_INTERNAL_CHECK(_Loc._Child != _Tree_child::_Unused);
; 682  :         if (_Loc._Child == _Tree_child::_Right) { // add to right of _Loc._Parent

  00033	83 7d 0c 00	 cmp	 DWORD PTR __Loc$[ebp+4], 0
  00037	75 0d		 jne	 SHORT $LN6@Insert_nod

; 683  :             _STL_INTERNAL_CHECK(_Loc._Parent->_Right->_Isnil);
; 684  :             _Loc._Parent->_Right = _Newnode;

  00039	89 7a 08	 mov	 DWORD PTR [edx+8], edi

; 685  :             if (_Loc._Parent == _Head->_Right) { // remember rightmost node

  0003c	3b 50 08	 cmp	 edx, DWORD PTR [eax+8]
  0003f	75 0d		 jne	 SHORT $LN9@Insert_nod

; 686  :                 _Head->_Right = _Newnode;

  00041	89 78 08	 mov	 DWORD PTR [eax+8], edi

; 687  :             }
; 688  :         } else { // add to left of _Loc._Parent

  00044	eb 08		 jmp	 SHORT $LN9@Insert_nod
$LN6@Insert_nod:

; 689  :             _STL_INTERNAL_CHECK(_Loc._Parent->_Left->_Isnil);
; 690  :             _Loc._Parent->_Left = _Newnode;

  00046	89 3a		 mov	 DWORD PTR [edx], edi

; 691  :             if (_Loc._Parent == _Head->_Left) { // remember leftmost node

  00048	3b 10		 cmp	 edx, DWORD PTR [eax]
  0004a	75 02		 jne	 SHORT $LN9@Insert_nod

; 692  :                 _Head->_Left = _Newnode;

  0004c	89 38		 mov	 DWORD PTR [eax], edi
$LN9@Insert_nod:

; 693  :             }
; 694  :         }
; 695  : 
; 696  :         for (_Nodeptr _Pnode = _Newnode; _Pnode->_Parent->_Color == _Red;) {

  0004e	8b 4f 04	 mov	 ecx, DWORD PTR [edi+4]
  00051	8b c7		 mov	 eax, edi
  00053	80 79 0c 00	 cmp	 BYTE PTR [ecx+12], 0
  00057	0f 85 7d 01 00
	00		 jne	 $LN3@Insert_nod
  0005d	56		 push	 esi
  0005e	66 90		 npad	 2
$LL4@Insert_nod:

; 697  :             if (_Pnode->_Parent == _Pnode->_Parent->_Parent->_Left) { // fixup red-red in left subtree

  00060	8b 50 04	 mov	 edx, DWORD PTR [eax+4]
  00063	8b 72 04	 mov	 esi, DWORD PTR [edx+4]
  00066	8b 0e		 mov	 ecx, DWORD PTR [esi]
  00068	3b d1		 cmp	 edx, ecx
  0006a	0f 85 aa 00 00
	00		 jne	 $LN10@Insert_nod

; 698  :                 const auto _Parent_sibling = _Pnode->_Parent->_Parent->_Right;

  00070	8b 4e 08	 mov	 ecx, DWORD PTR [esi+8]

; 699  :                 if (_Parent_sibling->_Color == _Red) { // parent's sibling has two red children, blacken both

  00073	80 79 0c 00	 cmp	 BYTE PTR [ecx+12], 0
  00077	0f 84 a3 00 00
	00		 je	 $LN82@Insert_nod

; 700  :                     _Pnode->_Parent->_Color          = _Black;
; 701  :                     _Parent_sibling->_Color          = _Black;
; 702  :                     _Pnode->_Parent->_Parent->_Color = _Red;
; 703  :                     _Pnode                           = _Pnode->_Parent->_Parent;
; 704  :                 } else { // parent's sibling has red and black children
; 705  :                     if (_Pnode == _Pnode->_Parent->_Right) { // rotate right child to left

  0007d	8b 72 08	 mov	 esi, DWORD PTR [edx+8]
  00080	3b c6		 cmp	 eax, esi
  00082	75 37		 jne	 SHORT $LN57@Insert_nod

; 485  :         _Wherenode->_Right = _Pnode->_Left;

  00084	8b 0e		 mov	 ecx, DWORD PTR [esi]

; 706  :                         _Pnode = _Pnode->_Parent;

  00086	8b c2		 mov	 eax, edx

; 485  :         _Wherenode->_Right = _Pnode->_Left;

  00088	89 4a 08	 mov	 DWORD PTR [edx+8], ecx

; 486  : 
; 487  :         if (!_Pnode->_Left->_Isnil) {

  0008b	8b 0e		 mov	 ecx, DWORD PTR [esi]
  0008d	80 79 0d 00	 cmp	 BYTE PTR [ecx+13], 0
  00091	75 03		 jne	 SHORT $LN21@Insert_nod

; 488  :             _Pnode->_Left->_Parent = _Wherenode;

  00093	89 41 04	 mov	 DWORD PTR [ecx+4], eax
$LN21@Insert_nod:

; 489  :         }
; 490  : 
; 491  :         _Pnode->_Parent = _Wherenode->_Parent;

  00096	8b 4a 04	 mov	 ecx, DWORD PTR [edx+4]
  00099	89 4e 04	 mov	 DWORD PTR [esi+4], ecx

; 492  : 
; 493  :         if (_Wherenode == _Myhead->_Parent) {

  0009c	8b 0b		 mov	 ecx, DWORD PTR [ebx]
  0009e	3b 41 04	 cmp	 eax, DWORD PTR [ecx+4]
  000a1	75 05		 jne	 SHORT $LN22@Insert_nod

; 494  :             _Myhead->_Parent = _Pnode;

  000a3	89 71 04	 mov	 DWORD PTR [ecx+4], esi
  000a6	eb 0e		 jmp	 SHORT $LN25@Insert_nod
$LN22@Insert_nod:

; 495  :         } else if (_Wherenode == _Wherenode->_Parent->_Left) {

  000a8	8b 4a 04	 mov	 ecx, DWORD PTR [edx+4]
  000ab	3b 01		 cmp	 eax, DWORD PTR [ecx]
  000ad	75 04		 jne	 SHORT $LN24@Insert_nod

; 496  :             _Wherenode->_Parent->_Left = _Pnode;

  000af	89 31		 mov	 DWORD PTR [ecx], esi

; 497  :         } else {

  000b1	eb 03		 jmp	 SHORT $LN25@Insert_nod
$LN24@Insert_nod:

; 498  :             _Wherenode->_Parent->_Right = _Pnode;

  000b3	89 71 08	 mov	 DWORD PTR [ecx+8], esi
$LN25@Insert_nod:

; 499  :         }
; 500  : 
; 501  :         _Pnode->_Left       = _Wherenode;

  000b6	89 06		 mov	 DWORD PTR [esi], eax

; 502  :         _Wherenode->_Parent = _Pnode;

  000b8	89 70 04	 mov	 DWORD PTR [eax+4], esi
$LN57@Insert_nod:

; 707  :                         _Lrotate(_Pnode);
; 708  :                     }
; 709  : 
; 710  :                     _Pnode->_Parent->_Color          = _Black; // propagate red up

  000bb	8b 48 04	 mov	 ecx, DWORD PTR [eax+4]
  000be	c6 41 0c 01	 mov	 BYTE PTR [ecx+12], 1

; 711  :                     _Pnode->_Parent->_Parent->_Color = _Red;

  000c2	8b 48 04	 mov	 ecx, DWORD PTR [eax+4]
  000c5	8b 49 04	 mov	 ecx, DWORD PTR [ecx+4]
  000c8	c6 41 0c 00	 mov	 BYTE PTR [ecx+12], 0

; 712  :                     _Rrotate(_Pnode->_Parent->_Parent);

  000cc	8b 48 04	 mov	 ecx, DWORD PTR [eax+4]
  000cf	8b 51 04	 mov	 edx, DWORD PTR [ecx+4]

; 506  :         _Nodeptr _Pnode   = _Wherenode->_Left;

  000d2	8b 32		 mov	 esi, DWORD PTR [edx]

; 507  :         _Wherenode->_Left = _Pnode->_Right;

  000d4	8b 4e 08	 mov	 ecx, DWORD PTR [esi+8]
  000d7	89 0a		 mov	 DWORD PTR [edx], ecx

; 508  : 
; 509  :         if (!_Pnode->_Right->_Isnil) {

  000d9	8b 4e 08	 mov	 ecx, DWORD PTR [esi+8]
  000dc	80 79 0d 00	 cmp	 BYTE PTR [ecx+13], 0
  000e0	75 03		 jne	 SHORT $LN29@Insert_nod

; 510  :             _Pnode->_Right->_Parent = _Wherenode;

  000e2	89 51 04	 mov	 DWORD PTR [ecx+4], edx
$LN29@Insert_nod:

; 511  :         }
; 512  : 
; 513  :         _Pnode->_Parent = _Wherenode->_Parent;

  000e5	8b 4a 04	 mov	 ecx, DWORD PTR [edx+4]
  000e8	89 4e 04	 mov	 DWORD PTR [esi+4], ecx

; 514  : 
; 515  :         if (_Wherenode == _Myhead->_Parent) {

  000eb	8b 0b		 mov	 ecx, DWORD PTR [ebx]
  000ed	3b 51 04	 cmp	 edx, DWORD PTR [ecx+4]
  000f0	75 0b		 jne	 SHORT $LN30@Insert_nod

; 516  :             _Myhead->_Parent = _Pnode;

  000f2	89 71 04	 mov	 DWORD PTR [ecx+4], esi

; 521  :         }
; 522  : 
; 523  :         _Pnode->_Right      = _Wherenode;

  000f5	89 56 08	 mov	 DWORD PTR [esi+8], edx

; 713  :                 }
; 714  :             } else { // fixup red-red in right subtree

  000f8	e9 cc 00 00 00	 jmp	 $LN81@Insert_nod
$LN30@Insert_nod:

; 517  :         } else if (_Wherenode == _Wherenode->_Parent->_Right) {

  000fd	8b 4a 04	 mov	 ecx, DWORD PTR [edx+4]
  00100	3b 51 08	 cmp	 edx, DWORD PTR [ecx+8]
  00103	75 0b		 jne	 SHORT $LN32@Insert_nod

; 518  :             _Wherenode->_Parent->_Right = _Pnode;

  00105	89 71 08	 mov	 DWORD PTR [ecx+8], esi

; 521  :         }
; 522  : 
; 523  :         _Pnode->_Right      = _Wherenode;

  00108	89 56 08	 mov	 DWORD PTR [esi+8], edx

; 713  :                 }
; 714  :             } else { // fixup red-red in right subtree

  0010b	e9 b9 00 00 00	 jmp	 $LN81@Insert_nod
$LN32@Insert_nod:

; 520  :             _Wherenode->_Parent->_Left = _Pnode;

  00110	89 31		 mov	 DWORD PTR [ecx], esi

; 521  :         }
; 522  : 
; 523  :         _Pnode->_Right      = _Wherenode;

  00112	89 56 08	 mov	 DWORD PTR [esi+8], edx

; 713  :                 }
; 714  :             } else { // fixup red-red in right subtree

  00115	e9 af 00 00 00	 jmp	 $LN81@Insert_nod
$LN10@Insert_nod:

; 715  :                 const auto _Parent_sibling = _Pnode->_Parent->_Parent->_Left;
; 716  :                 if (_Parent_sibling->_Color == _Red) { // parent's sibling has two red children, blacken both

  0011a	80 79 0c 00	 cmp	 BYTE PTR [ecx+12], 0
  0011e	75 1d		 jne	 SHORT $LN15@Insert_nod
$LN82@Insert_nod:

; 693  :             }
; 694  :         }
; 695  : 
; 696  :         for (_Nodeptr _Pnode = _Newnode; _Pnode->_Parent->_Color == _Red;) {

  00120	c6 42 0c 01	 mov	 BYTE PTR [edx+12], 1
  00124	c6 41 0c 01	 mov	 BYTE PTR [ecx+12], 1
  00128	8b 48 04	 mov	 ecx, DWORD PTR [eax+4]
  0012b	8b 49 04	 mov	 ecx, DWORD PTR [ecx+4]
  0012e	c6 41 0c 00	 mov	 BYTE PTR [ecx+12], 0
  00132	8b 48 04	 mov	 ecx, DWORD PTR [eax+4]
  00135	8b 41 04	 mov	 eax, DWORD PTR [ecx+4]
  00138	e9 8f 00 00 00	 jmp	 $LN2@Insert_nod
$LN15@Insert_nod:

; 717  :                     _Pnode->_Parent->_Color          = _Black;
; 718  :                     _Parent_sibling->_Color          = _Black;
; 719  :                     _Pnode->_Parent->_Parent->_Color = _Red;
; 720  :                     _Pnode                           = _Pnode->_Parent->_Parent;
; 721  :                 } else { // parent's sibling has red and black children
; 722  :                     if (_Pnode == _Pnode->_Parent->_Left) { // rotate left child to right

  0013d	8b 32		 mov	 esi, DWORD PTR [edx]
  0013f	3b c6		 cmp	 eax, esi
  00141	75 3a		 jne	 SHORT $LN42@Insert_nod

; 507  :         _Wherenode->_Left = _Pnode->_Right;

  00143	8b 4e 08	 mov	 ecx, DWORD PTR [esi+8]

; 723  :                         _Pnode = _Pnode->_Parent;

  00146	8b c2		 mov	 eax, edx

; 507  :         _Wherenode->_Left = _Pnode->_Right;

  00148	89 08		 mov	 DWORD PTR [eax], ecx

; 508  : 
; 509  :         if (!_Pnode->_Right->_Isnil) {

  0014a	8b 4e 08	 mov	 ecx, DWORD PTR [esi+8]
  0014d	80 79 0d 00	 cmp	 BYTE PTR [ecx+13], 0
  00151	75 03		 jne	 SHORT $LN37@Insert_nod

; 510  :             _Pnode->_Right->_Parent = _Wherenode;

  00153	89 41 04	 mov	 DWORD PTR [ecx+4], eax
$LN37@Insert_nod:

; 511  :         }
; 512  : 
; 513  :         _Pnode->_Parent = _Wherenode->_Parent;

  00156	8b 4a 04	 mov	 ecx, DWORD PTR [edx+4]
  00159	89 4e 04	 mov	 DWORD PTR [esi+4], ecx

; 514  : 
; 515  :         if (_Wherenode == _Myhead->_Parent) {

  0015c	8b 0b		 mov	 ecx, DWORD PTR [ebx]
  0015e	3b 41 04	 cmp	 eax, DWORD PTR [ecx+4]
  00161	75 05		 jne	 SHORT $LN38@Insert_nod

; 516  :             _Myhead->_Parent = _Pnode;

  00163	89 71 04	 mov	 DWORD PTR [ecx+4], esi
  00166	eb 0f		 jmp	 SHORT $LN41@Insert_nod
$LN38@Insert_nod:

; 517  :         } else if (_Wherenode == _Wherenode->_Parent->_Right) {

  00168	8b 4a 04	 mov	 ecx, DWORD PTR [edx+4]
  0016b	3b 41 08	 cmp	 eax, DWORD PTR [ecx+8]
  0016e	75 05		 jne	 SHORT $LN40@Insert_nod

; 518  :             _Wherenode->_Parent->_Right = _Pnode;

  00170	89 71 08	 mov	 DWORD PTR [ecx+8], esi

; 519  :         } else {

  00173	eb 02		 jmp	 SHORT $LN41@Insert_nod
$LN40@Insert_nod:

; 520  :             _Wherenode->_Parent->_Left = _Pnode;

  00175	89 31		 mov	 DWORD PTR [ecx], esi
$LN41@Insert_nod:

; 521  :         }
; 522  : 
; 523  :         _Pnode->_Right      = _Wherenode;

  00177	89 46 08	 mov	 DWORD PTR [esi+8], eax

; 524  :         _Wherenode->_Parent = _Pnode;

  0017a	89 70 04	 mov	 DWORD PTR [eax+4], esi
$LN42@Insert_nod:

; 724  :                         _Rrotate(_Pnode);
; 725  :                     }
; 726  : 
; 727  :                     _Pnode->_Parent->_Color          = _Black; // propagate red up

  0017d	8b 48 04	 mov	 ecx, DWORD PTR [eax+4]
  00180	c6 41 0c 01	 mov	 BYTE PTR [ecx+12], 1

; 728  :                     _Pnode->_Parent->_Parent->_Color = _Red;

  00184	8b 48 04	 mov	 ecx, DWORD PTR [eax+4]
  00187	8b 49 04	 mov	 ecx, DWORD PTR [ecx+4]
  0018a	c6 41 0c 00	 mov	 BYTE PTR [ecx+12], 0

; 729  :                     _Lrotate(_Pnode->_Parent->_Parent);

  0018e	8b 48 04	 mov	 ecx, DWORD PTR [eax+4]
  00191	8b 51 04	 mov	 edx, DWORD PTR [ecx+4]

; 484  :         _Nodeptr _Pnode    = _Wherenode->_Right;

  00194	8b 72 08	 mov	 esi, DWORD PTR [edx+8]

; 485  :         _Wherenode->_Right = _Pnode->_Left;

  00197	8b 0e		 mov	 ecx, DWORD PTR [esi]
  00199	89 4a 08	 mov	 DWORD PTR [edx+8], ecx

; 486  : 
; 487  :         if (!_Pnode->_Left->_Isnil) {

  0019c	8b 0e		 mov	 ecx, DWORD PTR [esi]
  0019e	80 79 0d 00	 cmp	 BYTE PTR [ecx+13], 0
  001a2	75 03		 jne	 SHORT $LN45@Insert_nod

; 488  :             _Pnode->_Left->_Parent = _Wherenode;

  001a4	89 51 04	 mov	 DWORD PTR [ecx+4], edx
$LN45@Insert_nod:

; 489  :         }
; 490  : 
; 491  :         _Pnode->_Parent = _Wherenode->_Parent;

  001a7	8b 4a 04	 mov	 ecx, DWORD PTR [edx+4]
  001aa	89 4e 04	 mov	 DWORD PTR [esi+4], ecx

; 492  : 
; 493  :         if (_Wherenode == _Myhead->_Parent) {

  001ad	8b 0b		 mov	 ecx, DWORD PTR [ebx]
  001af	3b 51 04	 cmp	 edx, DWORD PTR [ecx+4]
  001b2	75 05		 jne	 SHORT $LN46@Insert_nod

; 494  :             _Myhead->_Parent = _Pnode;

  001b4	89 71 04	 mov	 DWORD PTR [ecx+4], esi
  001b7	eb 0e		 jmp	 SHORT $LN49@Insert_nod
$LN46@Insert_nod:

; 495  :         } else if (_Wherenode == _Wherenode->_Parent->_Left) {

  001b9	8b 4a 04	 mov	 ecx, DWORD PTR [edx+4]
  001bc	3b 11		 cmp	 edx, DWORD PTR [ecx]
  001be	75 04		 jne	 SHORT $LN48@Insert_nod

; 496  :             _Wherenode->_Parent->_Left = _Pnode;

  001c0	89 31		 mov	 DWORD PTR [ecx], esi

; 497  :         } else {

  001c2	eb 03		 jmp	 SHORT $LN49@Insert_nod
$LN48@Insert_nod:

; 498  :             _Wherenode->_Parent->_Right = _Pnode;

  001c4	89 71 08	 mov	 DWORD PTR [ecx+8], esi
$LN49@Insert_nod:

; 499  :         }
; 500  : 
; 501  :         _Pnode->_Left       = _Wherenode;

  001c7	89 16		 mov	 DWORD PTR [esi], edx
$LN81@Insert_nod:

; 693  :             }
; 694  :         }
; 695  : 
; 696  :         for (_Nodeptr _Pnode = _Newnode; _Pnode->_Parent->_Color == _Red;) {

  001c9	89 72 04	 mov	 DWORD PTR [edx+4], esi
$LN2@Insert_nod:
  001cc	8b 48 04	 mov	 ecx, DWORD PTR [eax+4]
  001cf	80 79 0c 00	 cmp	 BYTE PTR [ecx+12], 0
  001d3	0f 84 87 fe ff
	ff		 je	 $LL4@Insert_nod
  001d9	5e		 pop	 esi
$LN3@Insert_nod:

; 730  :                 }
; 731  :             }
; 732  :         }
; 733  : 
; 734  :         _Head->_Parent->_Color = _Black; // root is always black

  001da	8b 45 fc	 mov	 eax, DWORD PTR __Head$1$[ebp]
  001dd	8b 40 04	 mov	 eax, DWORD PTR [eax+4]
  001e0	c6 40 0c 01	 mov	 BYTE PTR [eax+12], 1

; 735  :         return _Newnode;
; 736  :     }

  001e4	8b c7		 mov	 eax, edi
  001e6	5f		 pop	 edi
  001e7	5b		 pop	 ebx
  001e8	8b e5		 mov	 esp, ebp
  001ea	5d		 pop	 ebp
  001eb	c2 0c 00	 ret	 12			; 0000000cH
?_Insert_node@?$_Tree_val@U?$_Tree_simple_types@U?$pair@$$CBKPAVCGuildMarkImage@@@std@@@std@@@std@@QAEPAU?$_Tree_node@U?$pair@$$CBKPAVCGuildMarkImage@@@std@@PAX@2@U?$_Tree_id@PAU?$_Tree_node@U?$pair@$$CBKPAVCGuildMarkImage@@@std@@PAX@std@@@2@QAU32@@Z ENDP ; std::_Tree_val<std::_Tree_simple_types<std::pair<unsigned long const ,CGuildMarkImage *> > >::_Insert_node
_TEXT	ENDS
; Function compile flags: /Ogtp
; File C:\Program Files\Microsoft Visual Studio\2022\Community\VC\Tools\MSVC\14.44.35207\include\xtree
; File C:\Program Files\Microsoft Visual Studio\2022\Community\VC\Tools\MSVC\14.44.35207\include\xmemory
; File C:\Program Files\Microsoft Visual Studio\2022\Community\VC\Tools\MSVC\14.44.35207\include\xtree
; File C:\Program Files\Microsoft Visual Studio\2022\Community\VC\Tools\MSVC\14.44.35207\include\xmemory
; File C:\Program Files\Microsoft Visual Studio\2022\Community\VC\Tools\MSVC\14.44.35207\include\xtree
;	COMDAT ?_Alloc_sentinel_and_proxy@?$_Tree@V?$_Tmap_traits@KPAVCGuildMarkImage@@U?$less@K@std@@V?$allocator@U?$pair@$$CBKPAVCGuildMarkImage@@@std@@@3@$0A@@std@@@std@@IAEXXZ
_TEXT	SEGMENT
?_Alloc_sentinel_and_proxy@?$_Tree@V?$_Tmap_traits@KPAVCGuildMarkImage@@U?$less@K@std@@V?$allocator@U?$pair@$$CBKPAVCGuildMarkImage@@@std@@@3@$0A@@std@@@std@@IAEXXZ PROC ; std::_Tree<std::_Tmap_traits<unsigned long,CGuildMarkImage *,std::less<unsigned long>,std::allocator<std::pair<unsigned long const ,CGuildMarkImage *> >,0> >::_Alloc_sentinel_and_proxy, COMDAT
; _this$ = ecx

; 1953 :     void _Alloc_sentinel_and_proxy() {

  00000	56		 push	 esi
; File C:\Program Files\Microsoft Visual Studio\2022\Community\VC\Tools\MSVC\14.44.35207\include\xmemory

; 136  :         return ::operator new(_Bytes);

  00001	6a 18		 push	 24			; 00000018H
; File C:\Program Files\Microsoft Visual Studio\2022\Community\VC\Tools\MSVC\14.44.35207\include\xtree

; 1953 :     void _Alloc_sentinel_and_proxy() {

  00003	8b f1		 mov	 esi, ecx
; File C:\Program Files\Microsoft Visual Studio\2022\Community\VC\Tools\MSVC\14.44.35207\include\xmemory

; 136  :         return ::operator new(_Bytes);

  00005	e8 00 00 00 00	 call	 ??2@YAPAXI@Z		; operator new
  0000a	83 c4 04	 add	 esp, 4
; File C:\Program Files\Microsoft Visual Studio\2022\Community\VC\Tools\MSVC\14.44.35207\include\xtree

; 346  :         _Construct_in_place(_Pnode->_Left, _Pnode);

  0000d	89 00		 mov	 DWORD PTR [eax], eax

; 347  :         _Construct_in_place(_Pnode->_Parent, _Pnode);

  0000f	89 40 04	 mov	 DWORD PTR [eax+4], eax

; 348  :         _Construct_in_place(_Pnode->_Right, _Pnode);

  00012	89 40 08	 mov	 DWORD PTR [eax+8], eax

; 349  :         _Pnode->_Color = _Black;

  00015	66 c7 40 0c 01
	01		 mov	 WORD PTR [eax+12], 257	; 00000101H

; 1954 :         const auto _Scary = _Get_scary();
; 1955 :         auto&& _Alproxy   = _GET_PROXY_ALLOCATOR(_Alnode, _Getal());
; 1956 :         _Container_proxy_ptr<_Alnode> _Proxy(_Alproxy, *_Scary);
; 1957 :         _Scary->_Myhead = _Node::_Buyheadnode(_Getal());

  0001b	89 06		 mov	 DWORD PTR [esi], eax
  0001d	5e		 pop	 esi

; 1958 :         _Proxy._Release();
; 1959 :     }

  0001e	c3		 ret	 0
?_Alloc_sentinel_and_proxy@?$_Tree@V?$_Tmap_traits@KPAVCGuildMarkImage@@U?$less@K@std@@V?$allocator@U?$pair@$$CBKPAVCGuildMarkImage@@@std@@@3@$0A@@std@@@std@@IAEXXZ ENDP ; std::_Tree<std::_Tmap_traits<unsigned long,CGuildMarkImage *,std::less<unsigned long>,std::allocator<std::pair<unsigned long const ,CGuildMarkImage *> >,0> >::_Alloc_sentinel_and_proxy
_TEXT	ENDS
; Function compile flags: /Ogtp
; File C:\Program Files\Microsoft Visual Studio\2022\Community\VC\Tools\MSVC\14.44.35207\include\xtree
;	COMDAT ?_Check_grow_by_1@?$_Tree@V?$_Tmap_traits@KPAVCGuildMarkImage@@U?$less@K@std@@V?$allocator@U?$pair@$$CBKPAVCGuildMarkImage@@@std@@@3@$0A@@std@@@std@@IAEXXZ
_TEXT	SEGMENT
?_Check_grow_by_1@?$_Tree@V?$_Tmap_traits@KPAVCGuildMarkImage@@U?$less@K@std@@V?$allocator@U?$pair@$$CBKPAVCGuildMarkImage@@@std@@@3@$0A@@std@@@std@@IAEXXZ PROC ; std::_Tree<std::_Tmap_traits<unsigned long,CGuildMarkImage *,std::less<unsigned long>,std::allocator<std::pair<unsigned long const ,CGuildMarkImage *> >,0> >::_Check_grow_by_1, COMDAT
; _this$ = ecx

; 1648 :         if (max_size() == _Get_scary()->_Mysize) {

  00000	81 79 04 aa aa
	aa 0a		 cmp	 DWORD PTR [ecx+4], 178956970 ; 0aaaaaaaH
  00007	0f 84 00 00 00
	00		 je	 ?_Throw_tree_length_error@std@@YAXXZ ; std::_Throw_tree_length_error

; 1649 :             _Throw_tree_length_error();
; 1650 :         }
; 1651 :     }

  0000d	c3		 ret	 0
?_Check_grow_by_1@?$_Tree@V?$_Tmap_traits@KPAVCGuildMarkImage@@U?$less@K@std@@V?$allocator@U?$pair@$$CBKPAVCGuildMarkImage@@@std@@@3@$0A@@std@@@std@@IAEXXZ ENDP ; std::_Tree<std::_Tmap_traits<unsigned long,CGuildMarkImage *,std::less<unsigned long>,std::allocator<std::pair<unsigned long const ,CGuildMarkImage *> >,0> >::_Check_grow_by_1
_TEXT	ENDS
; Function compile flags: /Ogtp
; File C:\Program Files\Microsoft Visual Studio\2022\Community\VC\Tools\MSVC\14.44.35207\include\xmemory
;	COMDAT ?_Get_first@?$_Compressed_pair@V?$allocator@E@std@@V?$_Vector_val@U?$_Simple_types@E@std@@@2@$00@std@@QAEAAV?$allocator@E@2@XZ
_TEXT	SEGMENT
?_Get_first@?$_Compressed_pair@V?$allocator@E@std@@V?$_Vector_val@U?$_Simple_types@E@std@@@2@$00@std@@QAEAAV?$allocator@E@2@XZ PROC ; std::_Compressed_pair<std::allocator<unsigned char>,std::_Vector_val<std::_Simple_types<unsigned char> >,1>::_Get_first, COMDAT
; _this$ = ecx

; 1539 :         return *this;

  00000	8b c1		 mov	 eax, ecx

; 1540 :     }

  00002	c3		 ret	 0
?_Get_first@?$_Compressed_pair@V?$allocator@E@std@@V?$_Vector_val@U?$_Simple_types@E@std@@@2@$00@std@@QAEAAV?$allocator@E@2@XZ ENDP ; std::_Compressed_pair<std::allocator<unsigned char>,std::_Vector_val<std::_Simple_types<unsigned char> >,1>::_Get_first
_TEXT	ENDS
; Function compile flags: /Ogtp
; File C:\Program Files\Microsoft Visual Studio\2022\Community\VC\Tools\MSVC\14.44.35207\include\vector
;	COMDAT ??0?$_Vector_val@U?$_Simple_types@E@std@@@std@@QAE@XZ
_TEXT	SEGMENT
??0?$_Vector_val@U?$_Simple_types@E@std@@@std@@QAE@XZ PROC ; std::_Vector_val<std::_Simple_types<unsigned char> >::_Vector_val<std::_Simple_types<unsigned char> >, COMDAT
; _this$ = ecx

; 400  :     _CONSTEXPR20 _Vector_val() noexcept : _Myfirst(), _Mylast(), _Myend() {}

  00000	c7 01 00 00 00
	00		 mov	 DWORD PTR [ecx], 0
  00006	8b c1		 mov	 eax, ecx
  00008	c7 41 04 00 00
	00 00		 mov	 DWORD PTR [ecx+4], 0
  0000f	c7 41 08 00 00
	00 00		 mov	 DWORD PTR [ecx+8], 0
  00016	c3		 ret	 0
??0?$_Vector_val@U?$_Simple_types@E@std@@@std@@QAE@XZ ENDP ; std::_Vector_val<std::_Simple_types<unsigned char> >::_Vector_val<std::_Simple_types<unsigned char> >
_TEXT	ENDS
; Function compile flags: /Ogtp
; File C:\Program Files\Microsoft Visual Studio\2022\Community\VC\Tools\MSVC\14.44.35207\include\xmemory
;	COMDAT ?max_size@?$_Default_allocator_traits@V?$allocator@E@std@@@std@@SAIABV?$allocator@E@2@@Z
_TEXT	SEGMENT
?max_size@?$_Default_allocator_traits@V?$allocator@E@std@@@std@@SAIABV?$allocator@E@2@@Z PROC ; std::_Default_allocator_traits<std::allocator<unsigned char> >::max_size, COMDAT
; ___formal$dead$ = ecx

; 746  :         return static_cast<size_t>(-1) / sizeof(value_type);

  00000	83 c8 ff	 or	 eax, -1

; 747  :     }

  00003	c3		 ret	 0
?max_size@?$_Default_allocator_traits@V?$allocator@E@std@@@std@@SAIABV?$allocator@E@2@@Z ENDP ; std::_Default_allocator_traits<std::allocator<unsigned char> >::max_size
_TEXT	ENDS
; Function compile flags: /Ogtp
; File C:\Program Files\Microsoft Visual Studio\2022\Community\VC\Tools\MSVC\14.44.35207\include\vector
;	COMDAT ?_Getal@?$vector@EV?$allocator@E@std@@@std@@ABEABV?$allocator@E@2@XZ
_TEXT	SEGMENT
?_Getal@?$vector@EV?$allocator@E@std@@@std@@ABEABV?$allocator@E@2@XZ PROC ; std::vector<unsigned char,std::allocator<unsigned char> >::_Getal, COMDAT
; _this$ = ecx

; 2231 :         return _Mypair._Get_first();

  00000	8b c1		 mov	 eax, ecx

; 2232 :     }

  00002	c3		 ret	 0
?_Getal@?$vector@EV?$allocator@E@std@@@std@@ABEABV?$allocator@E@2@XZ ENDP ; std::vector<unsigned char,std::allocator<unsigned char> >::_Getal
_TEXT	ENDS
; Function compile flags: /Ogtp
; File C:\Program Files\Microsoft Visual Studio\2022\Community\VC\Tools\MSVC\14.44.35207\include\vector
;	COMDAT ?_Orphan_range@?$vector@EV?$allocator@E@std@@@std@@ABEXPAE0@Z
_TEXT	SEGMENT
___formal$dead$ = 8					; size = 4
___formal$dead$ = 12					; size = 4
?_Orphan_range@?$vector@EV?$allocator@E@std@@@std@@ABEXPAE0@Z PROC ; std::vector<unsigned char,std::allocator<unsigned char> >::_Orphan_range, COMDAT
; _this$dead$ = ecx

; 2223 :     _CONSTEXPR20 void _Orphan_range(pointer, pointer) const {}

  00000	c2 08 00	 ret	 8
?_Orphan_range@?$vector@EV?$allocator@E@std@@@std@@ABEXPAE0@Z ENDP ; std::vector<unsigned char,std::allocator<unsigned char> >::_Orphan_range
_TEXT	ENDS
; Function compile flags: /Ogtp
; File C:\Program Files\Microsoft Visual Studio\2022\Community\VC\Tools\MSVC\14.44.35207\include\vector
; File C:\Program Files\Microsoft Visual Studio\2022\Community\VC\Tools\MSVC\14.44.35207\include\xmemory
; File C:\Program Files\Microsoft Visual Studio\2022\Community\VC\Tools\MSVC\14.44.35207\include\vector
; File C:\Program Files\Microsoft Visual Studio\2022\Community\VC\Tools\MSVC\14.44.35207\include\xmemory
; File C:\Program Files\Microsoft Visual Studio\2022\Community\VC\Tools\MSVC\14.44.35207\include\vector
;	COMDAT ?_Change_array@?$vector@EV?$allocator@E@std@@@std@@AAEXQAEII@Z
_TEXT	SEGMENT
__Newvec$ = 8						; size = 4
__Newsize$ = 12						; size = 4
__Newcapacity$ = 16					; size = 4
?_Change_array@?$vector@EV?$allocator@E@std@@@std@@AAEXQAEII@Z PROC ; std::vector<unsigned char,std::allocator<unsigned char> >::_Change_array, COMDAT
; _this$ = ecx

; 2059 :         const pointer _Newvec, const size_type _Newsize, const size_type _Newcapacity) noexcept {

  00000	55		 push	 ebp
  00001	8b ec		 mov	 ebp, esp
  00003	56		 push	 esi
  00004	8b f1		 mov	 esi, ecx

; 2060 :         // orphan all iterators, discard old array, acquire new array
; 2061 :         auto& _Al         = _Getal();
; 2062 :         auto& _My_data    = _Mypair._Myval2;
; 2063 :         pointer& _Myfirst = _My_data._Myfirst;
; 2064 :         pointer& _Mylast  = _My_data._Mylast;
; 2065 :         pointer& _Myend   = _My_data._Myend;
; 2066 : 
; 2067 :         _My_data._Orphan_all();
; 2068 : 
; 2069 :         if (_Myfirst) { // destroy and deallocate old array

  00006	8b 06		 mov	 eax, DWORD PTR [esi]
  00008	85 c0		 test	 eax, eax
  0000a	74 29		 je	 SHORT $LN8@Change_arr

; 2070 :             _STD _Destroy_range(_Myfirst, _Mylast, _Al);
; 2071 :             _ASAN_VECTOR_REMOVE;
; 2072 :             _Al.deallocate(_Myfirst, static_cast<size_type>(_Myend - _Myfirst));

  0000c	8b 4e 08	 mov	 ecx, DWORD PTR [esi+8]
  0000f	2b c8		 sub	 ecx, eax
; File C:\Program Files\Microsoft Visual Studio\2022\Community\VC\Tools\MSVC\14.44.35207\include\xmemory

; 284  :         if (_Bytes >= _Big_allocation_threshold) {

  00011	81 f9 00 10 00
	00		 cmp	 ecx, 4096		; 00001000H
  00017	72 12		 jb	 SHORT $LN16@Change_arr

; 205  :     const uintptr_t _Ptr_container   = _Ptr_user[-1];

  00019	8b 50 fc	 mov	 edx, DWORD PTR [eax-4]
  0001c	83 c1 23	 add	 ecx, 35			; 00000023H

; 206  : 
; 207  :     // If the following asserts, it likely means that we are performing
; 208  :     // an aligned delete on memory coming from an unaligned allocation.
; 209  :     _STL_ASSERT(_Ptr_user[-2] == _Big_allocation_sentinel, "invalid argument");
; 210  : 
; 211  :     // Extra paranoia on aligned allocation/deallocation; ensure _Ptr_container is
; 212  :     // in range [_Min_back_shift, _Non_user_size]
; 213  : #ifdef _DEBUG
; 214  :     constexpr uintptr_t _Min_back_shift = 2 * sizeof(void*);
; 215  : #else // ^^^ defined(_DEBUG) / !defined(_DEBUG) vvv
; 216  :     constexpr uintptr_t _Min_back_shift = sizeof(void*);
; 217  : #endif // ^^^ !defined(_DEBUG) ^^^
; 218  :     const uintptr_t _Back_shift = reinterpret_cast<uintptr_t>(_Ptr) - _Ptr_container;

  0001f	2b c2		 sub	 eax, edx

; 219  :     _STL_VERIFY(_Back_shift >= _Min_back_shift && _Back_shift <= _Non_user_size, "invalid argument");

  00021	83 c0 fc	 add	 eax, -4			; fffffffcH
  00024	83 f8 1f	 cmp	 eax, 31			; 0000001fH
  00027	77 26		 ja	 SHORT $LN15@Change_arr

; 220  :     _Ptr = reinterpret_cast<void*>(_Ptr_container);

  00029	8b c2		 mov	 eax, edx
$LN16@Change_arr:

; 289  :         ::operator delete(_Ptr, _Bytes);

  0002b	51		 push	 ecx
  0002c	50		 push	 eax
  0002d	e8 00 00 00 00	 call	 ??3@YAXPAXI@Z		; operator delete
  00032	83 c4 08	 add	 esp, 8
$LN8@Change_arr:
; File C:\Program Files\Microsoft Visual Studio\2022\Community\VC\Tools\MSVC\14.44.35207\include\vector

; 2075 :         _Myfirst = _Newvec;

  00035	8b 4d 08	 mov	 ecx, DWORD PTR __Newvec$[ebp]

; 2076 :         _Mylast  = _Newvec + _Newsize;

  00038	8b 45 0c	 mov	 eax, DWORD PTR __Newsize$[ebp]
  0003b	03 c1		 add	 eax, ecx
  0003d	89 0e		 mov	 DWORD PTR [esi], ecx
  0003f	89 46 04	 mov	 DWORD PTR [esi+4], eax

; 2077 :         _Myend   = _Newvec + _Newcapacity;

  00042	8b 45 10	 mov	 eax, DWORD PTR __Newcapacity$[ebp]
  00045	03 c1		 add	 eax, ecx
  00047	89 46 08	 mov	 DWORD PTR [esi+8], eax
  0004a	5e		 pop	 esi

; 2079 :     }

  0004b	5d		 pop	 ebp
  0004c	c2 0c 00	 ret	 12			; 0000000cH
$LN15@Change_arr:
; File C:\Program Files\Microsoft Visual Studio\2022\Community\VC\Tools\MSVC\14.44.35207\include\xmemory

; 219  :     _STL_VERIFY(_Back_shift >= _Min_back_shift && _Back_shift <= _Non_user_size, "invalid argument");

  0004f	6a 00		 push	 0
  00051	6a 00		 push	 0
  00053	6a 00		 push	 0
  00055	6a 00		 push	 0
  00057	6a 00		 push	 0
  00059	e8 00 00 00 00	 call	 __invoke_watson
$LN23@Change_arr:
  0005e	cc		 int	 3
?_Change_array@?$vector@EV?$allocator@E@std@@@std@@AAEXQAEII@Z ENDP ; std::vector<unsigned char,std::allocator<unsigned char> >::_Change_array
_TEXT	ENDS
; Function compile flags: /Ogtp
; File C:\Program Files\Microsoft Visual Studio\2022\Community\VC\Tools\MSVC\14.44.35207\include\xmemory
;	COMDAT ?deallocate@?$allocator@E@std@@QAEXQAEI@Z
_TEXT	SEGMENT
__Ptr$ = 8						; size = 4
__Count$ = 12						; size = 4
?deallocate@?$allocator@E@std@@QAEXQAEI@Z PROC		; std::allocator<unsigned char>::deallocate, COMDAT
; _this$ = ecx

; 982  :     _CONSTEXPR20 void deallocate(_Ty* const _Ptr, const size_t _Count) noexcept /* strengthened */ {

  00000	55		 push	 ebp
  00001	8b ec		 mov	 ebp, esp

; 983  :         _STL_ASSERT(_Ptr != nullptr || _Count == 0, "null pointer cannot point to a block of non-zero size");
; 984  :         // no overflow check on the following multiply; we assume _Allocate did that check
; 985  :         _STD _Deallocate<_New_alignof<_Ty>>(_Ptr, sizeof(_Ty) * _Count);

  00003	8b 4d 0c	 mov	 ecx, DWORD PTR __Count$[ebp]
  00006	8b 45 08	 mov	 eax, DWORD PTR __Ptr$[ebp]

; 284  :         if (_Bytes >= _Big_allocation_threshold) {

  00009	81 f9 00 10 00
	00		 cmp	 ecx, 4096		; 00001000H
  0000f	72 12		 jb	 SHORT $LN12@deallocate

; 205  :     const uintptr_t _Ptr_container   = _Ptr_user[-1];

  00011	8b 50 fc	 mov	 edx, DWORD PTR [eax-4]
  00014	83 c1 23	 add	 ecx, 35			; 00000023H

; 206  : 
; 207  :     // If the following asserts, it likely means that we are performing
; 208  :     // an aligned delete on memory coming from an unaligned allocation.
; 209  :     _STL_ASSERT(_Ptr_user[-2] == _Big_allocation_sentinel, "invalid argument");
; 210  : 
; 211  :     // Extra paranoia on aligned allocation/deallocation; ensure _Ptr_container is
; 212  :     // in range [_Min_back_shift, _Non_user_size]
; 213  : #ifdef _DEBUG
; 214  :     constexpr uintptr_t _Min_back_shift = 2 * sizeof(void*);
; 215  : #else // ^^^ defined(_DEBUG) / !defined(_DEBUG) vvv
; 216  :     constexpr uintptr_t _Min_back_shift = sizeof(void*);
; 217  : #endif // ^^^ !defined(_DEBUG) ^^^
; 218  :     const uintptr_t _Back_shift = reinterpret_cast<uintptr_t>(_Ptr) - _Ptr_container;

  00017	2b c2		 sub	 eax, edx

; 219  :     _STL_VERIFY(_Back_shift >= _Min_back_shift && _Back_shift <= _Non_user_size, "invalid argument");

  00019	83 c0 fc	 add	 eax, -4			; fffffffcH
  0001c	83 f8 1f	 cmp	 eax, 31			; 0000001fH
  0001f	77 10		 ja	 SHORT $LN11@deallocate

; 220  :     _Ptr = reinterpret_cast<void*>(_Ptr_container);

  00021	8b c2		 mov	 eax, edx
$LN12@deallocate:

; 289  :         ::operator delete(_Ptr, _Bytes);

  00023	51		 push	 ecx
  00024	50		 push	 eax
  00025	e8 00 00 00 00	 call	 ??3@YAXPAXI@Z		; operator delete
  0002a	83 c4 08	 add	 esp, 8

; 986  :     }

  0002d	5d		 pop	 ebp
  0002e	c2 08 00	 ret	 8
$LN11@deallocate:

; 219  :     _STL_VERIFY(_Back_shift >= _Min_back_shift && _Back_shift <= _Non_user_size, "invalid argument");

  00031	6a 00		 push	 0
  00033	6a 00		 push	 0
  00035	6a 00		 push	 0
  00037	6a 00		 push	 0
  00039	6a 00		 push	 0
  0003b	e8 00 00 00 00	 call	 __invoke_watson
$LN15@deallocate:
  00040	cc		 int	 3
?deallocate@?$allocator@E@std@@QAEXQAEI@Z ENDP		; std::allocator<unsigned char>::deallocate
_TEXT	ENDS
; Function compile flags: /Ogtp
; File C:\Program Files\Microsoft Visual Studio\2022\Community\VC\Tools\MSVC\14.44.35207\include\xmemory
;	COMDAT ??0?$allocator@E@std@@QAE@XZ
_TEXT	SEGMENT
??0?$allocator@E@std@@QAE@XZ PROC			; std::allocator<unsigned char>::allocator<unsigned char>, COMDAT
; _this$ = ecx

; 974  :     constexpr allocator() noexcept {}

  00000	8b c1		 mov	 eax, ecx
  00002	c3		 ret	 0
??0?$allocator@E@std@@QAE@XZ ENDP			; std::allocator<unsigned char>::allocator<unsigned char>
_TEXT	ENDS
; Function compile flags: /Ogtp
; File C:\Program Files\Microsoft Visual Studio\2022\Community\VC\Tools\MSVC\14.44.35207\include\xmemory
;	COMDAT ??1?$_Tree_temp_node_alloc@V?$allocator@U?$_Tree_node@U?$pair@$$CBKPAVCGuildMarkImage@@@std@@PAX@std@@@std@@@std@@QAE@XZ
_TEXT	SEGMENT
??1?$_Tree_temp_node_alloc@V?$allocator@U?$_Tree_node@U?$pair@$$CBKPAVCGuildMarkImage@@@std@@PAX@std@@@std@@@std@@QAE@XZ PROC ; std::_Tree_temp_node_alloc<std::allocator<std::_Tree_node<std::pair<unsigned long const ,CGuildMarkImage *>,void *> > >::~_Tree_temp_node_alloc<std::allocator<std::_Tree_node<std::pair<unsigned long const ,CGuildMarkImage *>,void *> > >, COMDAT
; _this$ = ecx

; 1172 :         if (_Ptr) {

  00000	8b 41 04	 mov	 eax, DWORD PTR [ecx+4]
  00003	85 c0		 test	 eax, eax
  00005	74 0b		 je	 SHORT $LN11@Tree_temp_

; 289  :         ::operator delete(_Ptr, _Bytes);

  00007	6a 18		 push	 24			; 00000018H
  00009	50		 push	 eax
  0000a	e8 00 00 00 00	 call	 ??3@YAXPAXI@Z		; operator delete
  0000f	83 c4 08	 add	 esp, 8
$LN11@Tree_temp_:
  00012	c3		 ret	 0
??1?$_Tree_temp_node_alloc@V?$allocator@U?$_Tree_node@U?$pair@$$CBKPAVCGuildMarkImage@@@std@@PAX@std@@@std@@@std@@QAE@XZ ENDP ; std::_Tree_temp_node_alloc<std::allocator<std::_Tree_node<std::pair<unsigned long const ,CGuildMarkImage *>,void *> > >::~_Tree_temp_node_alloc<std::allocator<std::_Tree_node<std::pair<unsigned long const ,CGuildMarkImage *>,void *> > >
_TEXT	ENDS
; Function compile flags: /Ogtp
; File C:\Program Files\Microsoft Visual Studio\2022\Community\VC\Tools\MSVC\14.44.35207\include\xmemory
; File C:\Program Files\Microsoft Visual Studio\2022\Community\VC\Tools\MSVC\14.44.35207\include\xtree
; File C:\Program Files\Microsoft Visual Studio\2022\Community\VC\Tools\MSVC\14.44.35207\include\xmemory
; File C:\Program Files\Microsoft Visual Studio\2022\Community\VC\Tools\MSVC\14.44.35207\include\xtree
; File C:\Program Files\Microsoft Visual Studio\2022\Community\VC\Tools\MSVC\14.44.35207\include\xmemory
;	COMDAT ??$?0$$V@?$_Compressed_pair@V?$allocator@U?$_Tree_node@U?$pair@$$CBKUTGuildSymbol@CGuildMarkManager@@@std@@PAX@std@@@std@@V?$_Tree_val@U?$_Tree_simple_types@U?$pair@$$CBKUTGuildSymbol@CGuildMarkManager@@@std@@@std@@@2@$00@std@@QAE@U_Zero_then_variadic_args_t@1@@Z
_TEXT	SEGMENT
___formal$ = 8						; size = 1
??$?0$$V@?$_Compressed_pair@V?$allocator@U?$_Tree_node@U?$pair@$$CBKUTGuildSymbol@CGuildMarkManager@@@std@@PAX@std@@@std@@V?$_Tree_val@U?$_Tree_simple_types@U?$pair@$$CBKUTGuildSymbol@CGuildMarkManager@@@std@@@std@@@2@$00@std@@QAE@U_Zero_then_variadic_args_t@1@@Z PROC ; std::_Compressed_pair<std::allocator<std::_Tree_node<std::pair<unsigned long const ,CGuildMarkManager::TGuildSymbol>,void *> >,std::_Tree_val<std::_Tree_simple_types<std::pair<unsigned long const ,CGuildMarkManager::TGuildSymbol> > >,1>::_Compressed_pair<std::allocator<std::_Tree_node<std::pair<unsigned long const ,CGuildMarkManager::TGuildSymbol>,void *> >,std::_Tree_val<std::_Tree_simple_types<std::pair<unsigned long const ,CGuildMarkManager::TGuildSymbol> > >,1><>, COMDAT
; _this$ = ecx
; File C:\Program Files\Microsoft Visual Studio\2022\Community\VC\Tools\MSVC\14.44.35207\include\xtree

; 450  :     _Tree_val() noexcept : _Myhead(), _Mysize(0) {}

  00000	c7 01 00 00 00
	00		 mov	 DWORD PTR [ecx], 0
; File C:\Program Files\Microsoft Visual Studio\2022\Community\VC\Tools\MSVC\14.44.35207\include\xmemory

; 1531 :         : _Ty1(), _Myval2(_STD forward<_Other2>(_Val2)...) {}

  00006	8b c1		 mov	 eax, ecx
; File C:\Program Files\Microsoft Visual Studio\2022\Community\VC\Tools\MSVC\14.44.35207\include\xtree

; 450  :     _Tree_val() noexcept : _Myhead(), _Mysize(0) {}

  00008	c7 41 04 00 00
	00 00		 mov	 DWORD PTR [ecx+4], 0
; File C:\Program Files\Microsoft Visual Studio\2022\Community\VC\Tools\MSVC\14.44.35207\include\xmemory

; 1531 :         : _Ty1(), _Myval2(_STD forward<_Other2>(_Val2)...) {}

  0000f	c2 04 00	 ret	 4
??$?0$$V@?$_Compressed_pair@V?$allocator@U?$_Tree_node@U?$pair@$$CBKUTGuildSymbol@CGuildMarkManager@@@std@@PAX@std@@@std@@V?$_Tree_val@U?$_Tree_simple_types@U?$pair@$$CBKUTGuildSymbol@CGuildMarkManager@@@std@@@std@@@2@$00@std@@QAE@U_Zero_then_variadic_args_t@1@@Z ENDP ; std::_Compressed_pair<std::allocator<std::_Tree_node<std::pair<unsigned long const ,CGuildMarkManager::TGuildSymbol>,void *> >,std::_Tree_val<std::_Tree_simple_types<std::pair<unsigned long const ,CGuildMarkManager::TGuildSymbol> > >,1>::_Compressed_pair<std::allocator<std::_Tree_node<std::pair<unsigned long const ,CGuildMarkManager::TGuildSymbol>,void *> >,std::_Tree_val<std::_Tree_simple_types<std::pair<unsigned long const ,CGuildMarkManager::TGuildSymbol> > >,1><>
_TEXT	ENDS
; Function compile flags: /Ogtp
; File C:\Program Files\Microsoft Visual Studio\2022\Community\VC\Tools\MSVC\14.44.35207\include\xmemory
; File C:\Program Files\Microsoft Visual Studio\2022\Community\VC\Tools\MSVC\14.44.35207\include\xtree
; File C:\Program Files\Microsoft Visual Studio\2022\Community\VC\Tools\MSVC\14.44.35207\include\xmemory
; File C:\Program Files\Microsoft Visual Studio\2022\Community\VC\Tools\MSVC\14.44.35207\include\xtree
; File C:\Program Files\Microsoft Visual Studio\2022\Community\VC\Tools\MSVC\14.44.35207\include\xmemory
;	COMDAT ??$?0$$V@?$_Compressed_pair@V?$allocator@U?$_Tree_node@U?$pair@$$CBKPAVCGuildMarkImage@@@std@@PAX@std@@@std@@V?$_Tree_val@U?$_Tree_simple_types@U?$pair@$$CBKPAVCGuildMarkImage@@@std@@@std@@@2@$00@std@@QAE@U_Zero_then_variadic_args_t@1@@Z
_TEXT	SEGMENT
___formal$ = 8						; size = 1
??$?0$$V@?$_Compressed_pair@V?$allocator@U?$_Tree_node@U?$pair@$$CBKPAVCGuildMarkImage@@@std@@PAX@std@@@std@@V?$_Tree_val@U?$_Tree_simple_types@U?$pair@$$CBKPAVCGuildMarkImage@@@std@@@std@@@2@$00@std@@QAE@U_Zero_then_variadic_args_t@1@@Z PROC ; std::_Compressed_pair<std::allocator<std::_Tree_node<std::pair<unsigned long const ,CGuildMarkImage *>,void *> >,std::_Tree_val<std::_Tree_simple_types<std::pair<unsigned long const ,CGuildMarkImage *> > >,1>::_Compressed_pair<std::allocator<std::_Tree_node<std::pair<unsigned long const ,CGuildMarkImage *>,void *> >,std::_Tree_val<std::_Tree_simple_types<std::pair<unsigned long const ,CGuildMarkImage *> > >,1><>, COMDAT
; _this$ = ecx
; File C:\Program Files\Microsoft Visual Studio\2022\Community\VC\Tools\MSVC\14.44.35207\include\xtree

; 450  :     _Tree_val() noexcept : _Myhead(), _Mysize(0) {}

  00000	c7 01 00 00 00
	00		 mov	 DWORD PTR [ecx], 0
; File C:\Program Files\Microsoft Visual Studio\2022\Community\VC\Tools\MSVC\14.44.35207\include\xmemory

; 1531 :         : _Ty1(), _Myval2(_STD forward<_Other2>(_Val2)...) {}

  00006	8b c1		 mov	 eax, ecx
; File C:\Program Files\Microsoft Visual Studio\2022\Community\VC\Tools\MSVC\14.44.35207\include\xtree

; 450  :     _Tree_val() noexcept : _Myhead(), _Mysize(0) {}

  00008	c7 41 04 00 00
	00 00		 mov	 DWORD PTR [ecx+4], 0
; File C:\Program Files\Microsoft Visual Studio\2022\Community\VC\Tools\MSVC\14.44.35207\include\xmemory

; 1531 :         : _Ty1(), _Myval2(_STD forward<_Other2>(_Val2)...) {}

  0000f	c2 04 00	 ret	 4
??$?0$$V@?$_Compressed_pair@V?$allocator@U?$_Tree_node@U?$pair@$$CBKPAVCGuildMarkImage@@@std@@PAX@std@@@std@@V?$_Tree_val@U?$_Tree_simple_types@U?$pair@$$CBKPAVCGuildMarkImage@@@std@@@std@@@2@$00@std@@QAE@U_Zero_then_variadic_args_t@1@@Z ENDP ; std::_Compressed_pair<std::allocator<std::_Tree_node<std::pair<unsigned long const ,CGuildMarkImage *>,void *> >,std::_Tree_val<std::_Tree_simple_types<std::pair<unsigned long const ,CGuildMarkImage *> > >,1>::_Compressed_pair<std::allocator<std::_Tree_node<std::pair<unsigned long const ,CGuildMarkImage *>,void *> >,std::_Tree_val<std::_Tree_simple_types<std::pair<unsigned long const ,CGuildMarkImage *> > >,1><>
_TEXT	ENDS
; Function compile flags: /Ogtp
; File C:\Program Files\Microsoft Visual Studio\2022\Community\VC\Tools\MSVC\14.44.35207\include\map
;	COMDAT ??$_Kfn@$$CBKPAVCGuildMarkImage@@@?$_Tmap_traits@KPAVCGuildMarkImage@@U?$less@K@std@@V?$allocator@U?$pair@$$CBKPAVCGuildMarkImage@@@std@@@3@$0A@@std@@SAABKABU?$pair@$$CBKPAVCGuildMarkImage@@@1@@Z
_TEXT	SEGMENT
??$_Kfn@$$CBKPAVCGuildMarkImage@@@?$_Tmap_traits@KPAVCGuildMarkImage@@U?$less@K@std@@V?$allocator@U?$pair@$$CBKPAVCGuildMarkImage@@@std@@@3@$0A@@std@@SAABKABU?$pair@$$CBKPAVCGuildMarkImage@@@1@@Z PROC ; std::_Tmap_traits<unsigned long,CGuildMarkImage *,std::less<unsigned long>,std::allocator<std::pair<unsigned long const ,CGuildMarkImage *> >,0>::_Kfn<unsigned long const ,CGuildMarkImage *>, COMDAT
; __Val$ = ecx

; 67   :         return _Val.first;

  00000	8b c1		 mov	 eax, ecx

; 68   :     }

  00002	c3		 ret	 0
??$_Kfn@$$CBKPAVCGuildMarkImage@@@?$_Tmap_traits@KPAVCGuildMarkImage@@U?$less@K@std@@V?$allocator@U?$pair@$$CBKPAVCGuildMarkImage@@@std@@@3@$0A@@std@@SAABKABU?$pair@$$CBKPAVCGuildMarkImage@@@1@@Z ENDP ; std::_Tmap_traits<unsigned long,CGuildMarkImage *,std::less<unsigned long>,std::allocator<std::pair<unsigned long const ,CGuildMarkImage *> >,0>::_Kfn<unsigned long const ,CGuildMarkImage *>
_TEXT	ENDS
; Function compile flags: /Ogtp
; File C:\Program Files\Microsoft Visual Studio\2022\Community\VC\Tools\MSVC\14.44.35207\include\xmemory
; File C:\Program Files\Microsoft Visual Studio\2022\Community\VC\Tools\MSVC\14.44.35207\include\xutility
; File C:\Program Files\Microsoft Visual Studio\2022\Community\VC\Tools\MSVC\14.44.35207\include\xmemory
;	COMDAT ??$construct@U?$pair@$$CBKPAVCGuildMarkImage@@@std@@U12@@?$_Default_allocator_traits@V?$allocator@U?$_Tree_node@U?$pair@$$CBKPAVCGuildMarkImage@@@std@@PAX@std@@@std@@@std@@SAXAAV?$allocator@U?$_Tree_node@U?$pair@$$CBKPAVCGuildMarkImage@@@std@@PAX@std@@@1@QAU?$pair@$$CBKPAVCGuildMarkImage@@@1@$$QAU31@@Z
_TEXT	SEGMENT
_<_Args_0>$ = 8						; size = 4
??$construct@U?$pair@$$CBKPAVCGuildMarkImage@@@std@@U12@@?$_Default_allocator_traits@V?$allocator@U?$_Tree_node@U?$pair@$$CBKPAVCGuildMarkImage@@@std@@PAX@std@@@std@@@std@@SAXAAV?$allocator@U?$_Tree_node@U?$pair@$$CBKPAVCGuildMarkImage@@@std@@PAX@std@@@1@QAU?$pair@$$CBKPAVCGuildMarkImage@@@1@$$QAU31@@Z PROC ; std::_Default_allocator_traits<std::allocator<std::_Tree_node<std::pair<unsigned long const ,CGuildMarkImage *>,void *> > >::construct<std::pair<unsigned long const ,CGuildMarkImage *>,std::pair<unsigned long const ,CGuildMarkImage *> >, COMDAT
; ___formal$dead$ = ecx
; __Ptr$ = edx

; 728  :     static _CONSTEXPR20 void construct(_Alloc&, _Objty* const _Ptr, _Types&&... _Args) {

  00000	55		 push	 ebp
  00001	8b ec		 mov	 ebp, esp
; File C:\Program Files\Microsoft Visual Studio\2022\Community\VC\Tools\MSVC\14.44.35207\include\xutility

; 463  :     _MSVC_CONSTEXPR return ::new (static_cast<void*>(_Location)) _Ty(_STD forward<_Types>(_Args)...);

  00003	8b 45 08	 mov	 eax, DWORD PTR _<_Args_0>$[ebp]
  00006	8b 08		 mov	 ecx, DWORD PTR [eax]
  00008	8b 40 04	 mov	 eax, DWORD PTR [eax+4]
  0000b	89 0a		 mov	 DWORD PTR [edx], ecx
  0000d	89 42 04	 mov	 DWORD PTR [edx+4], eax
; File C:\Program Files\Microsoft Visual Studio\2022\Community\VC\Tools\MSVC\14.44.35207\include\xmemory

; 734  :     }

  00010	5d		 pop	 ebp
  00011	c3		 ret	 0
??$construct@U?$pair@$$CBKPAVCGuildMarkImage@@@std@@U12@@?$_Default_allocator_traits@V?$allocator@U?$_Tree_node@U?$pair@$$CBKPAVCGuildMarkImage@@@std@@PAX@std@@@std@@@std@@SAXAAV?$allocator@U?$_Tree_node@U?$pair@$$CBKPAVCGuildMarkImage@@@std@@PAX@std@@@1@QAU?$pair@$$CBKPAVCGuildMarkImage@@@1@$$QAU31@@Z ENDP ; std::_Default_allocator_traits<std::allocator<std::_Tree_node<std::pair<unsigned long const ,CGuildMarkImage *>,void *> > >::construct<std::pair<unsigned long const ,CGuildMarkImage *>,std::pair<unsigned long const ,CGuildMarkImage *> >
_TEXT	ENDS
; Function compile flags: /Ogtp
; File C:\Program Files\Microsoft Visual Studio\2022\Community\VC\Tools\MSVC\14.44.35207\include\xutility
;	COMDAT ??$_Construct_in_place@PAU?$_Tree_node@U?$pair@$$CBKPAVCGuildMarkImage@@@std@@PAX@std@@AAPAU12@@std@@YAXAAPAU?$_Tree_node@U?$pair@$$CBKPAVCGuildMarkImage@@@std@@PAX@0@0@Z
_TEXT	SEGMENT
??$_Construct_in_place@PAU?$_Tree_node@U?$pair@$$CBKPAVCGuildMarkImage@@@std@@PAX@std@@AAPAU12@@std@@YAXAAPAU?$_Tree_node@U?$pair@$$CBKPAVCGuildMarkImage@@@std@@PAX@0@0@Z PROC ; std::_Construct_in_place<std::_Tree_node<std::pair<unsigned long const ,CGuildMarkImage *>,void *> *,std::_Tree_node<std::pair<unsigned long const ,CGuildMarkImage *>,void *> * &>, COMDAT
; __Obj$ = ecx
; _<_Args_0>$ = edx

; 470  : #if _HAS_CXX20
; 471  :     if (_STD is_constant_evaluated()) {
; 472  :         _STD construct_at(_STD addressof(_Obj), _STD forward<_Types>(_Args)...);
; 473  :     } else
; 474  : #endif // _HAS_CXX20
; 475  :     {
; 476  :         ::new (static_cast<void*>(_STD addressof(_Obj))) _Ty(_STD forward<_Types>(_Args)...);
; 477  :     }
; 478  : }

  00000	8b 02		 mov	 eax, DWORD PTR [edx]
  00002	89 01		 mov	 DWORD PTR [ecx], eax
  00004	c3		 ret	 0
??$_Construct_in_place@PAU?$_Tree_node@U?$pair@$$CBKPAVCGuildMarkImage@@@std@@PAX@std@@AAPAU12@@std@@YAXAAPAU?$_Tree_node@U?$pair@$$CBKPAVCGuildMarkImage@@@std@@PAX@0@0@Z ENDP ; std::_Construct_in_place<std::_Tree_node<std::pair<unsigned long const ,CGuildMarkImage *>,void *> *,std::_Tree_node<std::pair<unsigned long const ,CGuildMarkImage *>,void *> * &>
_TEXT	ENDS
; Function compile flags: /Ogtp
; File C:\Program Files\Microsoft Visual Studio\2022\Community\VC\Tools\MSVC\14.44.35207\include\type_traits
;	COMDAT ??$forward@AAPAU?$_Tree_node@U?$pair@$$CBKPAVCGuildMarkImage@@@std@@PAX@std@@@std@@YAAAPAU?$_Tree_node@U?$pair@$$CBKPAVCGuildMarkImage@@@std@@PAX@0@AAPAU10@@Z
_TEXT	SEGMENT
??$forward@AAPAU?$_Tree_node@U?$pair@$$CBKPAVCGuildMarkImage@@@std@@PAX@std@@@std@@YAAAPAU?$_Tree_node@U?$pair@$$CBKPAVCGuildMarkImage@@@std@@PAX@0@AAPAU10@@Z PROC ; std::forward<std::_Tree_node<std::pair<unsigned long const ,CGuildMarkImage *>,void *> * &>, COMDAT
; __Arg$ = ecx

; 1502 :     return static_cast<_Ty&&>(_Arg);

  00000	8b c1		 mov	 eax, ecx

; 1503 : }

  00002	c3		 ret	 0
??$forward@AAPAU?$_Tree_node@U?$pair@$$CBKPAVCGuildMarkImage@@@std@@PAX@std@@@std@@YAAAPAU?$_Tree_node@U?$pair@$$CBKPAVCGuildMarkImage@@@std@@PAX@0@AAPAU10@@Z ENDP ; std::forward<std::_Tree_node<std::pair<unsigned long const ,CGuildMarkImage *>,void *> * &>
_TEXT	ENDS
; Function compile flags: /Ogtp
; File C:\Program Files\Microsoft Visual Studio\2022\Community\VC\Tools\MSVC\14.44.35207\include\type_traits
;	COMDAT ??$forward@PAU?$_Tree_node@U?$pair@$$CBKPAVCGuildMarkImage@@@std@@PAX@std@@@std@@YA$$QAPAU?$_Tree_node@U?$pair@$$CBKPAVCGuildMarkImage@@@std@@PAX@0@AAPAU10@@Z
_TEXT	SEGMENT
??$forward@PAU?$_Tree_node@U?$pair@$$CBKPAVCGuildMarkImage@@@std@@PAX@std@@@std@@YA$$QAPAU?$_Tree_node@U?$pair@$$CBKPAVCGuildMarkImage@@@std@@PAX@0@AAPAU10@@Z PROC ; std::forward<std::_Tree_node<std::pair<unsigned long const ,CGuildMarkImage *>,void *> *>, COMDAT
; __Arg$ = ecx

; 1502 :     return static_cast<_Ty&&>(_Arg);

  00000	8b c1		 mov	 eax, ecx

; 1503 : }

  00002	c3		 ret	 0
??$forward@PAU?$_Tree_node@U?$pair@$$CBKPAVCGuildMarkImage@@@std@@PAX@std@@@std@@YA$$QAPAU?$_Tree_node@U?$pair@$$CBKPAVCGuildMarkImage@@@std@@PAX@0@AAPAU10@@Z ENDP ; std::forward<std::_Tree_node<std::pair<unsigned long const ,CGuildMarkImage *>,void *> *>
_TEXT	ENDS
; Function compile flags: /Ogtp
; File C:\Program Files\Microsoft Visual Studio\2022\Community\VC\Tools\MSVC\14.44.35207\include\utility
;	COMDAT ??$exchange@PAU?$_Tree_node@U?$pair@$$CBKUTGuildSymbol@CGuildMarkManager@@@std@@PAX@std@@AAPAU12@@std@@YAPAU?$_Tree_node@U?$pair@$$CBKUTGuildSymbol@CGuildMarkManager@@@std@@PAX@0@AAPAU10@0@Z
_TEXT	SEGMENT
??$exchange@PAU?$_Tree_node@U?$pair@$$CBKUTGuildSymbol@CGuildMarkManager@@@std@@PAX@std@@AAPAU12@@std@@YAPAU?$_Tree_node@U?$pair@$$CBKUTGuildSymbol@CGuildMarkManager@@@std@@PAX@0@AAPAU10@0@Z PROC ; std::exchange<std::_Tree_node<std::pair<unsigned long const ,CGuildMarkManager::TGuildSymbol>,void *> *,std::_Tree_node<std::pair<unsigned long const ,CGuildMarkManager::TGuildSymbol>,void *> * &>, COMDAT
; __Val$ = ecx
; __New_val$ = edx

; 772  :     // assign _New_val to _Val, return previous _Val
; 773  :     _Ty _Old_val = static_cast<_Ty&&>(_Val);

  00000	8b 01		 mov	 eax, DWORD PTR [ecx]

; 774  :     _Val         = static_cast<_Other&&>(_New_val);

  00002	8b 12		 mov	 edx, DWORD PTR [edx]
  00004	89 11		 mov	 DWORD PTR [ecx], edx

; 775  :     return _Old_val;
; 776  : }

  00006	c3		 ret	 0
??$exchange@PAU?$_Tree_node@U?$pair@$$CBKUTGuildSymbol@CGuildMarkManager@@@std@@PAX@std@@AAPAU12@@std@@YAPAU?$_Tree_node@U?$pair@$$CBKUTGuildSymbol@CGuildMarkManager@@@std@@PAX@0@AAPAU10@0@Z ENDP ; std::exchange<std::_Tree_node<std::pair<unsigned long const ,CGuildMarkManager::TGuildSymbol>,void *> *,std::_Tree_node<std::pair<unsigned long const ,CGuildMarkManager::TGuildSymbol>,void *> * &>
_TEXT	ENDS
; Function compile flags: /Ogtp
; File C:\Program Files\Microsoft Visual Studio\2022\Community\VC\Tools\MSVC\14.44.35207\include\xtree
; File C:\Program Files\Microsoft Visual Studio\2022\Community\VC\Tools\MSVC\14.44.35207\include\vector
; File C:\Program Files\Microsoft Visual Studio\2022\Community\VC\Tools\MSVC\14.44.35207\include\xmemory
; File C:\Program Files\Microsoft Visual Studio\2022\Community\VC\Tools\MSVC\14.44.35207\include\xtree
;	COMDAT ??$_Freenode@V?$allocator@U?$_Tree_node@U?$pair@$$CBKUTGuildSymbol@CGuildMarkManager@@@std@@PAX@std@@@std@@@?$_Tree_node@U?$pair@$$CBKUTGuildSymbol@CGuildMarkManager@@@std@@PAX@std@@SAXAAV?$allocator@U?$_Tree_node@U?$pair@$$CBKUTGuildSymbol@CGuildMarkManager@@@std@@PAX@std@@@1@PAU01@@Z
_TEXT	SEGMENT
??$_Freenode@V?$allocator@U?$_Tree_node@U?$pair@$$CBKUTGuildSymbol@CGuildMarkManager@@@std@@PAX@std@@@std@@@?$_Tree_node@U?$pair@$$CBKUTGuildSymbol@CGuildMarkManager@@@std@@PAX@std@@SAXAAV?$allocator@U?$_Tree_node@U?$pair@$$CBKUTGuildSymbol@CGuildMarkManager@@@std@@PAX@std@@@1@PAU01@@Z PROC ; std::_Tree_node<std::pair<unsigned long const ,CGuildMarkManager::TGuildSymbol>,void *>::_Freenode<std::allocator<std::_Tree_node<std::pair<unsigned long const ,CGuildMarkManager::TGuildSymbol>,void *> > >, COMDAT
; __Al$dead$ = ecx
; __Ptr$ = edx

; 379  :     static void _Freenode(_Alloc& _Al, _Nodeptr _Ptr) noexcept {

  00000	56		 push	 esi
  00001	8b f2		 mov	 esi, edx

; 380  :         static_assert(is_same_v<typename _Alloc::value_type, _Tree_node>, "Bad _Freenode call");
; 381  :         allocator_traits<_Alloc>::destroy(_Al, _STD addressof(_Ptr->_Myval));

  00003	8d 4e 18	 lea	 ecx, DWORD PTR [esi+24]
; File C:\Program Files\Microsoft Visual Studio\2022\Community\VC\Tools\MSVC\14.44.35207\include\vector

; 830  :         _Tidy();

  00006	e8 00 00 00 00	 call	 ?_Tidy@?$vector@EV?$allocator@E@std@@@std@@AAEXXZ ; std::vector<unsigned char,std::allocator<unsigned char> >::_Tidy
; File C:\Program Files\Microsoft Visual Studio\2022\Community\VC\Tools\MSVC\14.44.35207\include\xmemory

; 289  :         ::operator delete(_Ptr, _Bytes);

  0000b	6a 24		 push	 36			; 00000024H
  0000d	56		 push	 esi
  0000e	e8 00 00 00 00	 call	 ??3@YAXPAXI@Z		; operator delete
  00013	83 c4 08	 add	 esp, 8
  00016	5e		 pop	 esi
; File C:\Program Files\Microsoft Visual Studio\2022\Community\VC\Tools\MSVC\14.44.35207\include\xtree

; 383  :     }

  00017	c3		 ret	 0
??$_Freenode@V?$allocator@U?$_Tree_node@U?$pair@$$CBKUTGuildSymbol@CGuildMarkManager@@@std@@PAX@std@@@std@@@?$_Tree_node@U?$pair@$$CBKUTGuildSymbol@CGuildMarkManager@@@std@@PAX@std@@SAXAAV?$allocator@U?$_Tree_node@U?$pair@$$CBKUTGuildSymbol@CGuildMarkManager@@@std@@PAX@std@@@1@PAU01@@Z ENDP ; std::_Tree_node<std::pair<unsigned long const ,CGuildMarkManager::TGuildSymbol>,void *>::_Freenode<std::allocator<std::_Tree_node<std::pair<unsigned long const ,CGuildMarkManager::TGuildSymbol>,void *> > >
_TEXT	ENDS
; Function compile flags: /Ogtp
; File C:\Program Files\Microsoft Visual Studio\2022\Community\VC\Tools\MSVC\14.44.35207\include\xmemory
;	COMDAT ??$_Destroy_in_place@PAU?$_Tree_node@U?$pair@$$CBKUTGuildSymbol@CGuildMarkManager@@@std@@PAX@std@@@std@@YAXAAPAU?$_Tree_node@U?$pair@$$CBKUTGuildSymbol@CGuildMarkManager@@@std@@PAX@0@@Z
_TEXT	SEGMENT
??$_Destroy_in_place@PAU?$_Tree_node@U?$pair@$$CBKUTGuildSymbol@CGuildMarkManager@@@std@@PAX@std@@@std@@YAXAAPAU?$_Tree_node@U?$pair@$$CBKUTGuildSymbol@CGuildMarkManager@@@std@@PAX@0@@Z PROC ; std::_Destroy_in_place<std::_Tree_node<std::pair<unsigned long const ,CGuildMarkManager::TGuildSymbol>,void *> *>, COMDAT
; __Obj$dead$ = ecx

; 321  :     if constexpr (is_array_v<_Ty>) {
; 322  :         _STD _Destroy_range(_Obj, _Obj + extent_v<_Ty>);
; 323  :     } else {
; 324  :         _Obj.~_Ty();
; 325  :     }
; 326  : }

  00000	c2 00 00	 ret	 0
??$_Destroy_in_place@PAU?$_Tree_node@U?$pair@$$CBKUTGuildSymbol@CGuildMarkManager@@@std@@PAX@std@@@std@@YAXAAPAU?$_Tree_node@U?$pair@$$CBKUTGuildSymbol@CGuildMarkManager@@@std@@PAX@0@@Z ENDP ; std::_Destroy_in_place<std::_Tree_node<std::pair<unsigned long const ,CGuildMarkManager::TGuildSymbol>,void *> *>
_TEXT	ENDS
; Function compile flags: /Ogtp
; File C:\Program Files\Microsoft Visual Studio\2022\Community\VC\Tools\MSVC\14.44.35207\include\tuple
;	COMDAT ??$?0ABK$0A@@?$tuple@ABK@std@@QAE@ABK@Z
_TEXT	SEGMENT
__This_arg$ = 8						; size = 4
??$?0ABK$0A@@?$tuple@ABK@std@@QAE@ABK@Z PROC		; std::tuple<unsigned long const &>::tuple<unsigned long const &><unsigned long const &,0>, COMDAT
; _this$ = ecx

; 340  :         : tuple(_Exact_args_t{}, _This_arg, _Rest_arg...) {}

  00000	55		 push	 ebp
  00001	8b ec		 mov	 ebp, esp

; 132  :     constexpr _Tuple_val(_Other&& _Arg) : _Val(_STD forward<_Other>(_Arg)) {}

  00003	8b 45 08	 mov	 eax, DWORD PTR __This_arg$[ebp]
  00006	89 01		 mov	 DWORD PTR [ecx], eax

; 340  :         : tuple(_Exact_args_t{}, _This_arg, _Rest_arg...) {}

  00008	8b c1		 mov	 eax, ecx
  0000a	5d		 pop	 ebp
  0000b	c2 04 00	 ret	 4
??$?0ABK$0A@@?$tuple@ABK@std@@QAE@ABK@Z ENDP		; std::tuple<unsigned long const &>::tuple<unsigned long const &><unsigned long const &,0>
_TEXT	ENDS
; Function compile flags: /Ogtp
; File C:\Program Files\Microsoft Visual Studio\2022\Community\VC\Tools\MSVC\14.44.35207\include\type_traits
;	COMDAT ??$forward@ABUpiecewise_construct_t@std@@@std@@YAABUpiecewise_construct_t@0@ABU10@@Z
_TEXT	SEGMENT
??$forward@ABUpiecewise_construct_t@std@@@std@@YAABUpiecewise_construct_t@0@ABU10@@Z PROC ; std::forward<std::piecewise_construct_t const &>, COMDAT
; __Arg$ = ecx

; 1502 :     return static_cast<_Ty&&>(_Arg);

  00000	8b c1		 mov	 eax, ecx

; 1503 : }

  00002	c3		 ret	 0
??$forward@ABUpiecewise_construct_t@std@@@std@@YAABUpiecewise_construct_t@0@ABU10@@Z ENDP ; std::forward<std::piecewise_construct_t const &>
_TEXT	ENDS
; Function compile flags: /Ogtp
; File C:\Program Files\Microsoft Visual Studio\2022\Community\VC\Tools\MSVC\14.44.35207\include\type_traits
;	COMDAT ??$forward@V?$tuple@ABK@std@@@std@@YA$$QAV?$tuple@ABK@0@AAV10@@Z
_TEXT	SEGMENT
??$forward@V?$tuple@ABK@std@@@std@@YA$$QAV?$tuple@ABK@0@AAV10@@Z PROC ; std::forward<std::tuple<unsigned long const &> >, COMDAT
; __Arg$ = ecx

; 1502 :     return static_cast<_Ty&&>(_Arg);

  00000	8b c1		 mov	 eax, ecx

; 1503 : }

  00002	c3		 ret	 0
??$forward@V?$tuple@ABK@std@@@std@@YA$$QAV?$tuple@ABK@0@AAV10@@Z ENDP ; std::forward<std::tuple<unsigned long const &> >
_TEXT	ENDS
; Function compile flags: /Ogtp
; File C:\Program Files\Microsoft Visual Studio\2022\Community\VC\Tools\MSVC\14.44.35207\include\type_traits
;	COMDAT ??$forward@V?$tuple@$$V@std@@@std@@YA$$QAV?$tuple@$$V@0@AAV10@@Z
_TEXT	SEGMENT
??$forward@V?$tuple@$$V@std@@@std@@YA$$QAV?$tuple@$$V@0@AAV10@@Z PROC ; std::forward<std::tuple<> >, COMDAT
; __Arg$ = ecx

; 1502 :     return static_cast<_Ty&&>(_Arg);

  00000	8b c1		 mov	 eax, ecx

; 1503 : }

  00002	c3		 ret	 0
??$forward@V?$tuple@$$V@std@@@std@@YA$$QAV?$tuple@$$V@0@AAV10@@Z ENDP ; std::forward<std::tuple<> >
_TEXT	ENDS
; Function compile flags: /Ogtp
; File C:\Program Files\Microsoft Visual Studio\2022\Community\VC\Tools\MSVC\14.44.35207\include\type_traits
;	COMDAT ??$forward@ABQAU?$_Tree_node@U?$pair@$$CBKUTGuildSymbol@CGuildMarkManager@@@std@@PAX@std@@@std@@YAABQAU?$_Tree_node@U?$pair@$$CBKUTGuildSymbol@CGuildMarkManager@@@std@@PAX@0@ABQAU10@@Z
_TEXT	SEGMENT
??$forward@ABQAU?$_Tree_node@U?$pair@$$CBKUTGuildSymbol@CGuildMarkManager@@@std@@PAX@std@@@std@@YAABQAU?$_Tree_node@U?$pair@$$CBKUTGuildSymbol@CGuildMarkManager@@@std@@PAX@0@ABQAU10@@Z PROC ; std::forward<std::_Tree_node<std::pair<unsigned long const ,CGuildMarkManager::TGuildSymbol>,void *> * const &>, COMDAT
; __Arg$ = ecx

; 1502 :     return static_cast<_Ty&&>(_Arg);

  00000	8b c1		 mov	 eax, ecx

; 1503 : }

  00002	c3		 ret	 0
??$forward@ABQAU?$_Tree_node@U?$pair@$$CBKUTGuildSymbol@CGuildMarkManager@@@std@@PAX@std@@@std@@YAABQAU?$_Tree_node@U?$pair@$$CBKUTGuildSymbol@CGuildMarkManager@@@std@@PAX@0@ABQAU10@@Z ENDP ; std::forward<std::_Tree_node<std::pair<unsigned long const ,CGuildMarkManager::TGuildSymbol>,void *> * const &>
_TEXT	ENDS
; Function compile flags: /Ogtp
; File C:\Program Files\Microsoft Visual Studio\2022\Community\VC\Tools\MSVC\14.44.35207\include\xmemory
;	COMDAT ??$destroy@U?$pair@$$CBKPAVCGuildMarkImage@@@std@@@?$_Default_allocator_traits@V?$allocator@U?$_Tree_node@U?$pair@$$CBKPAVCGuildMarkImage@@@std@@PAX@std@@@std@@@std@@SAXAAV?$allocator@U?$_Tree_node@U?$pair@$$CBKPAVCGuildMarkImage@@@std@@PAX@std@@@1@QAU?$pair@$$CBKPAVCGuildMarkImage@@@1@@Z
_TEXT	SEGMENT
??$destroy@U?$pair@$$CBKPAVCGuildMarkImage@@@std@@@?$_Default_allocator_traits@V?$allocator@U?$_Tree_node@U?$pair@$$CBKPAVCGuildMarkImage@@@std@@PAX@std@@@std@@@std@@SAXAAV?$allocator@U?$_Tree_node@U?$pair@$$CBKPAVCGuildMarkImage@@@std@@PAX@std@@@1@QAU?$pair@$$CBKPAVCGuildMarkImage@@@1@@Z PROC ; std::_Default_allocator_traits<std::allocator<std::_Tree_node<std::pair<unsigned long const ,CGuildMarkImage *>,void *> > >::destroy<std::pair<unsigned long const ,CGuildMarkImage *> >, COMDAT
; ___formal$dead$ = ecx
; __Ptr$dead$ = edx

; 738  : #if _HAS_CXX20
; 739  :         _STD destroy_at(_Ptr);
; 740  : #else // ^^^ _HAS_CXX20 / !_HAS_CXX20 vvv
; 741  :         _Ptr->~_Uty();
; 742  : #endif // ^^^ !_HAS_CXX20 ^^^
; 743  :     }

  00000	c2 00 00	 ret	 0
??$destroy@U?$pair@$$CBKPAVCGuildMarkImage@@@std@@@?$_Default_allocator_traits@V?$allocator@U?$_Tree_node@U?$pair@$$CBKPAVCGuildMarkImage@@@std@@PAX@std@@@std@@@std@@SAXAAV?$allocator@U?$_Tree_node@U?$pair@$$CBKPAVCGuildMarkImage@@@std@@PAX@std@@@1@QAU?$pair@$$CBKPAVCGuildMarkImage@@@1@@Z ENDP ; std::_Default_allocator_traits<std::allocator<std::_Tree_node<std::pair<unsigned long const ,CGuildMarkImage *>,void *> > >::destroy<std::pair<unsigned long const ,CGuildMarkImage *> >
_TEXT	ENDS
; Function compile flags: /Ogtp
; File C:\Program Files\Microsoft Visual Studio\2022\Community\VC\Tools\MSVC\14.44.35207\include\xmemory
;	COMDAT ??$_Destroy_in_place@PAU?$_Tree_node@U?$pair@$$CBKPAVCGuildMarkImage@@@std@@PAX@std@@@std@@YAXAAPAU?$_Tree_node@U?$pair@$$CBKPAVCGuildMarkImage@@@std@@PAX@0@@Z
_TEXT	SEGMENT
??$_Destroy_in_place@PAU?$_Tree_node@U?$pair@$$CBKPAVCGuildMarkImage@@@std@@PAX@std@@@std@@YAXAAPAU?$_Tree_node@U?$pair@$$CBKPAVCGuildMarkImage@@@std@@PAX@0@@Z PROC ; std::_Destroy_in_place<std::_Tree_node<std::pair<unsigned long const ,CGuildMarkImage *>,void *> *>, COMDAT
; __Obj$dead$ = ecx

; 321  :     if constexpr (is_array_v<_Ty>) {
; 322  :         _STD _Destroy_range(_Obj, _Obj + extent_v<_Ty>);
; 323  :     } else {
; 324  :         _Obj.~_Ty();
; 325  :     }
; 326  : }

  00000	c2 00 00	 ret	 0
??$_Destroy_in_place@PAU?$_Tree_node@U?$pair@$$CBKPAVCGuildMarkImage@@@std@@PAX@std@@@std@@YAXAAPAU?$_Tree_node@U?$pair@$$CBKPAVCGuildMarkImage@@@std@@PAX@0@@Z ENDP ; std::_Destroy_in_place<std::_Tree_node<std::pair<unsigned long const ,CGuildMarkImage *>,void *> *>
_TEXT	ENDS
; Function compile flags: /Ogtp
; File C:\Program Files\Microsoft Visual Studio\2022\Community\VC\Tools\MSVC\14.44.35207\include\type_traits
;	COMDAT ??$move@AAE@std@@YA$$QAEAAE@Z
_TEXT	SEGMENT
??$move@AAE@std@@YA$$QAEAAE@Z PROC			; std::move<unsigned char &>, COMDAT
; __Arg$ = ecx

; 1513 :     return static_cast<remove_reference_t<_Ty>&&>(_Arg);

  00000	8b c1		 mov	 eax, ecx

; 1514 : }

  00002	c3		 ret	 0
??$move@AAE@std@@YA$$QAEAAE@Z ENDP			; std::move<unsigned char &>
_TEXT	ENDS
; Function compile flags: /Ogtp
; File C:\Program Files\Microsoft Visual Studio\2022\Community\VC\Tools\MSVC\14.44.35207\include\xmemory
;	COMDAT ??$_Unfancy@E@std@@YAPAEPAE@Z
_TEXT	SEGMENT
??$_Unfancy@E@std@@YAPAEPAE@Z PROC			; std::_Unfancy<unsigned char>, COMDAT
; __Ptr$ = ecx

; 69   :     return _Ptr;

  00000	8b c1		 mov	 eax, ecx

; 70   : }

  00002	c3		 ret	 0
??$_Unfancy@E@std@@YAPAEPAE@Z ENDP			; std::_Unfancy<unsigned char>
_TEXT	ENDS
; Function compile flags: /Ogtp
; File C:\Program Files\Microsoft Visual Studio\2022\Community\VC\Tools\MSVC\14.44.35207\include\xutility
;	COMDAT ??$_Copy_memmove@PAEPAE@std@@YAPAEPAE00@Z
_TEXT	SEGMENT
__First$ = 8						; size = 4
__Last$ = 12						; size = 4
__Dest$ = 16						; size = 4
??$_Copy_memmove@PAEPAE@std@@YAPAEPAE00@Z PROC		; std::_Copy_memmove<unsigned char *,unsigned char *>, COMDAT

; 4762 : _OutCtgIt _Copy_memmove(_CtgIt _First, _CtgIt _Last, _OutCtgIt _Dest) {

  00000	55		 push	 ebp
  00001	8b ec		 mov	 ebp, esp

; 4763 :     _STL_INTERNAL_CHECK(_First <= _Last);
; 4764 :     const auto _First_ptr    = _STD _To_address(_First);
; 4765 :     const auto _Last_ptr     = _STD _To_address(_Last);
; 4766 :     const auto _Object_count = static_cast<size_t>(_Last_ptr - _First_ptr);

  00003	8b 4d 08	 mov	 ecx, DWORD PTR __First$[ebp]
  00006	8b 45 0c	 mov	 eax, DWORD PTR __Last$[ebp]
  00009	2b c1		 sub	 eax, ecx

; 4767 :     const auto _First_ch     = const_cast<const char*>(reinterpret_cast<const volatile char*>(_First_ptr));
; 4768 :     const auto _Last_ch      = const_cast<const char*>(reinterpret_cast<const volatile char*>(_Last_ptr));
; 4769 :     const auto _Byte_count   = static_cast<size_t>(_Last_ch - _First_ch);
; 4770 :     return _STD _Copy_memmove_tail(_First_ch, _STD move(_Dest), _Byte_count, _Object_count);

  0000b	50		 push	 eax
  0000c	50		 push	 eax
  0000d	ff 75 10	 push	 DWORD PTR __Dest$[ebp]
  00010	51		 push	 ecx
  00011	e8 00 00 00 00	 call	 ??$_Copy_memmove_tail@PAE@std@@YAPAEQBDQAEII@Z ; std::_Copy_memmove_tail<unsigned char *>
  00016	83 c4 10	 add	 esp, 16			; 00000010H

; 4771 : }

  00019	5d		 pop	 ebp
  0001a	c3		 ret	 0
??$_Copy_memmove@PAEPAE@std@@YAPAEPAE00@Z ENDP		; std::_Copy_memmove<unsigned char *,unsigned char *>
_TEXT	ENDS
; Function compile flags: /Ogtp
; File C:\Program Files\Microsoft Visual Studio\2022\Community\VC\Tools\MSVC\14.44.35207\include\xutility
;	COMDAT ??$_To_address@PAE@std@@YA?A_PABQAE@Z
_TEXT	SEGMENT
??$_To_address@PAE@std@@YA?A_PABQAE@Z PROC		; std::_To_address<unsigned char *>, COMDAT
; __Val$ = ecx

; 4616 :     _STL_INTERNAL_STATIC_ASSERT(contiguous_iterator<_Iter>);
; 4617 :     return _STD to_address(_Val);

  00000	8b 01		 mov	 eax, DWORD PTR [ecx]

; 4618 : }

  00002	c3		 ret	 0
??$_To_address@PAE@std@@YA?A_PABQAE@Z ENDP		; std::_To_address<unsigned char *>
_TEXT	ENDS
; Function compile flags: /Ogtp
; File C:\Program Files\Microsoft Visual Studio\2022\Community\VC\Tools\MSVC\14.44.35207\include\xmemory
;	COMDAT ??$_Emplace_back@E@?$_Uninitialized_backout_al@V?$allocator@E@std@@@std@@QAEX$$QAE@Z
_TEXT	SEGMENT
_<_Vals_0>$ = 8						; size = 4
??$_Emplace_back@E@?$_Uninitialized_backout_al@V?$allocator@E@std@@@std@@QAEX$$QAE@Z PROC ; std::_Uninitialized_backout_al<std::allocator<unsigned char> >::_Emplace_back<unsigned char>, COMDAT
; _this$ = ecx

; 1843 :     _CONSTEXPR20 void _Emplace_back(_Types&&... _Vals) { // construct a new element at *_Last and increment

  00000	55		 push	 ebp
  00001	8b ec		 mov	 ebp, esp

; 1844 :         allocator_traits<_Alloc>::construct(_Al, _STD _Unfancy(_Last), _STD forward<_Types>(_Vals)...);

  00003	8b 45 08	 mov	 eax, DWORD PTR _<_Vals_0>$[ebp]
  00006	8b 51 04	 mov	 edx, DWORD PTR [ecx+4]
  00009	8a 00		 mov	 al, BYTE PTR [eax]
  0000b	88 02		 mov	 BYTE PTR [edx], al

; 1845 :         ++_Last;

  0000d	ff 41 04	 inc	 DWORD PTR [ecx+4]

; 1846 :     }

  00010	5d		 pop	 ebp
  00011	c2 04 00	 ret	 4
??$_Emplace_back@E@?$_Uninitialized_backout_al@V?$allocator@E@std@@@std@@QAEX$$QAE@Z ENDP ; std::_Uninitialized_backout_al<std::allocator<unsigned char> >::_Emplace_back<unsigned char>
_TEXT	ENDS
; Function compile flags: /Ogtp
; File C:\Program Files\Microsoft Visual Studio\2022\Community\VC\Tools\MSVC\14.44.35207\include\xmemory
;	COMDAT ??$_Zero_range@PAE@std@@YAPAEQAE0@Z
_TEXT	SEGMENT
__First$ = 8						; size = 4
__Last$ = 12						; size = 4
??$_Zero_range@PAE@std@@YAPAEQAE0@Z PROC		; std::_Zero_range<unsigned char *>, COMDAT

; 2069 : _Ptr _Zero_range(const _Ptr _First, const _Ptr _Last) { // fill [_First, _Last) with zeroes

  00000	55		 push	 ebp
  00001	8b ec		 mov	 ebp, esp

; 2070 :     char* const _First_ch = reinterpret_cast<char*>(_STD _To_address(_First));
; 2071 :     char* const _Last_ch  = reinterpret_cast<char*>(_STD _To_address(_Last));
; 2072 :     _CSTD memset(_First_ch, 0, static_cast<size_t>(_Last_ch - _First_ch));

  00003	8b 55 08	 mov	 edx, DWORD PTR __First$[ebp]
  00006	8b 4d 0c	 mov	 ecx, DWORD PTR __Last$[ebp]
  00009	2b ca		 sub	 ecx, edx
  0000b	51		 push	 ecx
  0000c	6a 00		 push	 0
  0000e	52		 push	 edx
  0000f	e8 00 00 00 00	 call	 _memset

; 2073 :     return _Last;

  00014	8b 45 0c	 mov	 eax, DWORD PTR __Last$[ebp]
  00017	83 c4 0c	 add	 esp, 12			; 0000000cH

; 2074 : }

  0001a	5d		 pop	 ebp
  0001b	c3		 ret	 0
??$_Zero_range@PAE@std@@YAPAEQAE0@Z ENDP		; std::_Zero_range<unsigned char *>
_TEXT	ENDS
; Function compile flags: /Ogtp
; File C:\Program Files\Microsoft Visual Studio\2022\Community\VC\Tools\MSVC\14.44.35207\include\xmemory
; File C:\Program Files\Microsoft Visual Studio\2022\Community\VC\Tools\MSVC\14.44.35207\include\xutility
; File C:\Program Files\Microsoft Visual Studio\2022\Community\VC\Tools\MSVC\14.44.35207\include\xmemory
;	COMDAT ??$_Emplace_back@$$V@?$_Uninitialized_backout_al@V?$allocator@E@std@@@std@@QAEXXZ
_TEXT	SEGMENT
??$_Emplace_back@$$V@?$_Uninitialized_backout_al@V?$allocator@E@std@@@std@@QAEXXZ PROC ; std::_Uninitialized_backout_al<std::allocator<unsigned char> >::_Emplace_back<>, COMDAT
; _this$ = ecx
; File C:\Program Files\Microsoft Visual Studio\2022\Community\VC\Tools\MSVC\14.44.35207\include\xutility

; 463  :     _MSVC_CONSTEXPR return ::new (static_cast<void*>(_Location)) _Ty(_STD forward<_Types>(_Args)...);

  00000	8b 41 04	 mov	 eax, DWORD PTR [ecx+4]
  00003	c6 00 00	 mov	 BYTE PTR [eax], 0
; File C:\Program Files\Microsoft Visual Studio\2022\Community\VC\Tools\MSVC\14.44.35207\include\xmemory

; 1845 :         ++_Last;

  00006	ff 41 04	 inc	 DWORD PTR [ecx+4]

; 1846 :     }

  00009	c3		 ret	 0
??$_Emplace_back@$$V@?$_Uninitialized_backout_al@V?$allocator@E@std@@@std@@QAEXXZ ENDP ; std::_Uninitialized_backout_al<std::allocator<unsigned char> >::_Emplace_back<>
_TEXT	ENDS
; Function compile flags: /Ogtp
; File C:\Program Files\Microsoft Visual Studio\2022\Community\VC\Tools\MSVC\14.44.35207\include\xmemory
; File C:\Program Files\Microsoft Visual Studio\2022\Community\VC\Tools\MSVC\14.44.35207\include\vector
; File C:\Program Files\Microsoft Visual Studio\2022\Community\VC\Tools\MSVC\14.44.35207\include\xmemory
;	COMDAT ??$destroy@U?$pair@$$CBKUTGuildSymbol@CGuildMarkManager@@@std@@@?$_Default_allocator_traits@V?$allocator@U?$_Tree_node@U?$pair@$$CBKUTGuildSymbol@CGuildMarkManager@@@std@@PAX@std@@@std@@@std@@SAXAAV?$allocator@U?$_Tree_node@U?$pair@$$CBKUTGuildSymbol@CGuildMarkManager@@@std@@PAX@std@@@1@QAU?$pair@$$CBKUTGuildSymbol@CGuildMarkManager@@@1@@Z
_TEXT	SEGMENT
??$destroy@U?$pair@$$CBKUTGuildSymbol@CGuildMarkManager@@@std@@@?$_Default_allocator_traits@V?$allocator@U?$_Tree_node@U?$pair@$$CBKUTGuildSymbol@CGuildMarkManager@@@std@@PAX@std@@@std@@@std@@SAXAAV?$allocator@U?$_Tree_node@U?$pair@$$CBKUTGuildSymbol@CGuildMarkManager@@@std@@PAX@std@@@1@QAU?$pair@$$CBKUTGuildSymbol@CGuildMarkManager@@@1@@Z PROC ; std::_Default_allocator_traits<std::allocator<std::_Tree_node<std::pair<unsigned long const ,CGuildMarkManager::TGuildSymbol>,void *> > >::destroy<std::pair<unsigned long const ,CGuildMarkManager::TGuildSymbol> >, COMDAT
; ___formal$dead$ = ecx
; __Ptr$ = edx

; 737  :     static _CONSTEXPR20 void destroy(_Alloc&, _Uty* const _Ptr) {

  00000	8d 4a 08	 lea	 ecx, DWORD PTR [edx+8]
; File C:\Program Files\Microsoft Visual Studio\2022\Community\VC\Tools\MSVC\14.44.35207\include\vector

; 830  :         _Tidy();

  00003	e9 00 00 00 00	 jmp	 ?_Tidy@?$vector@EV?$allocator@E@std@@@std@@AAEXXZ ; std::vector<unsigned char,std::allocator<unsigned char> >::_Tidy
??$destroy@U?$pair@$$CBKUTGuildSymbol@CGuildMarkManager@@@std@@@?$_Default_allocator_traits@V?$allocator@U?$_Tree_node@U?$pair@$$CBKUTGuildSymbol@CGuildMarkManager@@@std@@PAX@std@@@std@@@std@@SAXAAV?$allocator@U?$_Tree_node@U?$pair@$$CBKUTGuildSymbol@CGuildMarkManager@@@std@@PAX@std@@@1@QAU?$pair@$$CBKUTGuildSymbol@CGuildMarkManager@@@1@@Z ENDP ; std::_Default_allocator_traits<std::allocator<std::_Tree_node<std::pair<unsigned long const ,CGuildMarkManager::TGuildSymbol>,void *> > >::destroy<std::pair<unsigned long const ,CGuildMarkManager::TGuildSymbol> >
_TEXT	ENDS
; Function compile flags: /Ogtp
; File C:\Program Files\Microsoft Visual Studio\2022\Community\VC\Tools\MSVC\14.44.35207\include\utility
;	COMDAT ??$exchange@PAU?$_Tree_node@U?$pair@$$CBKPAVCGuildMarkImage@@@std@@PAX@std@@$$T@std@@YAPAU?$_Tree_node@U?$pair@$$CBKPAVCGuildMarkImage@@@std@@PAX@0@AAPAU10@$$QA$$T@Z
_TEXT	SEGMENT
??$exchange@PAU?$_Tree_node@U?$pair@$$CBKPAVCGuildMarkImage@@@std@@PAX@std@@$$T@std@@YAPAU?$_Tree_node@U?$pair@$$CBKPAVCGuildMarkImage@@@std@@PAX@0@AAPAU10@$$QA$$T@Z PROC ; std::exchange<std::_Tree_node<std::pair<unsigned long const ,CGuildMarkImage *>,void *> *,std::nullptr_t>, COMDAT
; __Val$ = ecx
; __New_val$ = edx

; 772  :     // assign _New_val to _Val, return previous _Val
; 773  :     _Ty _Old_val = static_cast<_Ty&&>(_Val);

  00000	8b 01		 mov	 eax, DWORD PTR [ecx]

; 774  :     _Val         = static_cast<_Other&&>(_New_val);

  00002	8b 12		 mov	 edx, DWORD PTR [edx]
  00004	89 11		 mov	 DWORD PTR [ecx], edx

; 775  :     return _Old_val;
; 776  : }

  00006	c3		 ret	 0
??$exchange@PAU?$_Tree_node@U?$pair@$$CBKPAVCGuildMarkImage@@@std@@PAX@std@@$$T@std@@YAPAU?$_Tree_node@U?$pair@$$CBKPAVCGuildMarkImage@@@std@@PAX@0@AAPAU10@$$QA$$T@Z ENDP ; std::exchange<std::_Tree_node<std::pair<unsigned long const ,CGuildMarkImage *>,void *> *,std::nullptr_t>
_TEXT	ENDS
; Function compile flags: /Ogtp
; File C:\Program Files\Microsoft Visual Studio\2022\Community\VC\Tools\MSVC\14.44.35207\include\xtree
; File C:\Program Files\Microsoft Visual Studio\2022\Community\VC\Tools\MSVC\14.44.35207\include\xmemory
; File C:\Program Files\Microsoft Visual Studio\2022\Community\VC\Tools\MSVC\14.44.35207\include\xtree
;	COMDAT ??$_Buyheadnode@V?$allocator@U?$_Tree_node@U?$pair@$$CBKUTGuildSymbol@CGuildMarkManager@@@std@@PAX@std@@@std@@@?$_Tree_node@U?$pair@$$CBKUTGuildSymbol@CGuildMarkManager@@@std@@PAX@std@@SAPAU01@AAV?$allocator@U?$_Tree_node@U?$pair@$$CBKUTGuildSymbol@CGuildMarkManager@@@std@@PAX@std@@@1@@Z
_TEXT	SEGMENT
??$_Buyheadnode@V?$allocator@U?$_Tree_node@U?$pair@$$CBKUTGuildSymbol@CGuildMarkManager@@@std@@PAX@std@@@std@@@?$_Tree_node@U?$pair@$$CBKUTGuildSymbol@CGuildMarkManager@@@std@@PAX@std@@SAPAU01@AAV?$allocator@U?$_Tree_node@U?$pair@$$CBKUTGuildSymbol@CGuildMarkManager@@@std@@PAX@std@@@1@@Z PROC ; std::_Tree_node<std::pair<unsigned long const ,CGuildMarkManager::TGuildSymbol>,void *>::_Buyheadnode<std::allocator<std::_Tree_node<std::pair<unsigned long const ,CGuildMarkManager::TGuildSymbol>,void *> > >, COMDAT
; __Al$dead$ = ecx
; File C:\Program Files\Microsoft Visual Studio\2022\Community\VC\Tools\MSVC\14.44.35207\include\xmemory

; 136  :         return ::operator new(_Bytes);

  00000	6a 24		 push	 36			; 00000024H
  00002	e8 00 00 00 00	 call	 ??2@YAPAXI@Z		; operator new
  00007	83 c4 04	 add	 esp, 4
; File C:\Program Files\Microsoft Visual Studio\2022\Community\VC\Tools\MSVC\14.44.35207\include\xtree

; 346  :         _Construct_in_place(_Pnode->_Left, _Pnode);

  0000a	89 00		 mov	 DWORD PTR [eax], eax

; 347  :         _Construct_in_place(_Pnode->_Parent, _Pnode);

  0000c	89 40 04	 mov	 DWORD PTR [eax+4], eax

; 348  :         _Construct_in_place(_Pnode->_Right, _Pnode);

  0000f	89 40 08	 mov	 DWORD PTR [eax+8], eax

; 349  :         _Pnode->_Color = _Black;

  00012	66 c7 40 0c 01
	01		 mov	 WORD PTR [eax+12], 257	; 00000101H

; 350  :         _Pnode->_Isnil = true;
; 351  :         return _Pnode;
; 352  :     }

  00018	c3		 ret	 0
??$_Buyheadnode@V?$allocator@U?$_Tree_node@U?$pair@$$CBKUTGuildSymbol@CGuildMarkManager@@@std@@PAX@std@@@std@@@?$_Tree_node@U?$pair@$$CBKUTGuildSymbol@CGuildMarkManager@@@std@@PAX@std@@SAPAU01@AAV?$allocator@U?$_Tree_node@U?$pair@$$CBKUTGuildSymbol@CGuildMarkManager@@@std@@PAX@std@@@1@@Z ENDP ; std::_Tree_node<std::pair<unsigned long const ,CGuildMarkManager::TGuildSymbol>,void *>::_Buyheadnode<std::allocator<std::_Tree_node<std::pair<unsigned long const ,CGuildMarkManager::TGuildSymbol>,void *> > >
_TEXT	ENDS
; Function compile flags: /Ogtp
; File C:\Program Files\Microsoft Visual Studio\2022\Community\VC\Tools\MSVC\14.44.35207\include\xtree
; File C:\Program Files\Microsoft Visual Studio\2022\Community\VC\Tools\MSVC\14.44.35207\include\xmemory
; File C:\Program Files\Microsoft Visual Studio\2022\Community\VC\Tools\MSVC\14.44.35207\include\xtree
;	COMDAT ??$_Buyheadnode@V?$allocator@U?$_Tree_node@U?$pair@$$CBKPAVCGuildMarkImage@@@std@@PAX@std@@@std@@@?$_Tree_node@U?$pair@$$CBKPAVCGuildMarkImage@@@std@@PAX@std@@SAPAU01@AAV?$allocator@U?$_Tree_node@U?$pair@$$CBKPAVCGuildMarkImage@@@std@@PAX@std@@@1@@Z
_TEXT	SEGMENT
??$_Buyheadnode@V?$allocator@U?$_Tree_node@U?$pair@$$CBKPAVCGuildMarkImage@@@std@@PAX@std@@@std@@@?$_Tree_node@U?$pair@$$CBKPAVCGuildMarkImage@@@std@@PAX@std@@SAPAU01@AAV?$allocator@U?$_Tree_node@U?$pair@$$CBKPAVCGuildMarkImage@@@std@@PAX@std@@@1@@Z PROC ; std::_Tree_node<std::pair<unsigned long const ,CGuildMarkImage *>,void *>::_Buyheadnode<std::allocator<std::_Tree_node<std::pair<unsigned long const ,CGuildMarkImage *>,void *> > >, COMDAT
; __Al$dead$ = ecx
; File C:\Program Files\Microsoft Visual Studio\2022\Community\VC\Tools\MSVC\14.44.35207\include\xmemory

; 136  :         return ::operator new(_Bytes);

  00000	6a 18		 push	 24			; 00000018H
  00002	e8 00 00 00 00	 call	 ??2@YAPAXI@Z		; operator new
  00007	83 c4 04	 add	 esp, 4
; File C:\Program Files\Microsoft Visual Studio\2022\Community\VC\Tools\MSVC\14.44.35207\include\xtree

; 346  :         _Construct_in_place(_Pnode->_Left, _Pnode);

  0000a	89 00		 mov	 DWORD PTR [eax], eax

; 347  :         _Construct_in_place(_Pnode->_Parent, _Pnode);

  0000c	89 40 04	 mov	 DWORD PTR [eax+4], eax

; 348  :         _Construct_in_place(_Pnode->_Right, _Pnode);

  0000f	89 40 08	 mov	 DWORD PTR [eax+8], eax

; 349  :         _Pnode->_Color = _Black;

  00012	66 c7 40 0c 01
	01		 mov	 WORD PTR [eax+12], 257	; 00000101H

; 350  :         _Pnode->_Isnil = true;
; 351  :         return _Pnode;
; 352  :     }

  00018	c3		 ret	 0
??$_Buyheadnode@V?$allocator@U?$_Tree_node@U?$pair@$$CBKPAVCGuildMarkImage@@@std@@PAX@std@@@std@@@?$_Tree_node@U?$pair@$$CBKPAVCGuildMarkImage@@@std@@PAX@std@@SAPAU01@AAV?$allocator@U?$_Tree_node@U?$pair@$$CBKPAVCGuildMarkImage@@@std@@PAX@std@@@1@@Z ENDP ; std::_Tree_node<std::pair<unsigned long const ,CGuildMarkImage *>,void *>::_Buyheadnode<std::allocator<std::_Tree_node<std::pair<unsigned long const ,CGuildMarkImage *>,void *> > >
_TEXT	ENDS
; Function compile flags: /Ogtp
; File C:\Program Files\Microsoft Visual Studio\2022\Community\VC\Tools\MSVC\14.44.35207\include\xmemory
;	COMDAT ?_Release@?$_Uninitialized_backout_al@V?$allocator@E@std@@@std@@QAEPAEXZ
_TEXT	SEGMENT
?_Release@?$_Uninitialized_backout_al@V?$allocator@E@std@@@std@@QAEPAEXZ PROC ; std::_Uninitialized_backout_al<std::allocator<unsigned char> >::_Release, COMDAT
; _this$ = ecx

; 1849 :         _First = _Last;

  00000	8b 41 04	 mov	 eax, DWORD PTR [ecx+4]
  00003	89 01		 mov	 DWORD PTR [ecx], eax

; 1850 :         return _Last;
; 1851 :     }

  00005	c3		 ret	 0
?_Release@?$_Uninitialized_backout_al@V?$allocator@E@std@@@std@@QAEPAEXZ ENDP ; std::_Uninitialized_backout_al<std::allocator<unsigned char> >::_Release
_TEXT	ENDS
; Function compile flags: /Ogtp
; File C:\Program Files\Microsoft Visual Studio\2022\Community\VC\Tools\MSVC\14.44.35207\include\xmemory
;	COMDAT ??1?$_Uninitialized_backout_al@V?$allocator@E@std@@@std@@QAE@XZ
_TEXT	SEGMENT
??1?$_Uninitialized_backout_al@V?$allocator@E@std@@@std@@QAE@XZ PROC ; std::_Uninitialized_backout_al<std::allocator<unsigned char> >::~_Uninitialized_backout_al<std::allocator<unsigned char> >, COMDAT
; _this$ = ecx

; 1839 :         _STD _Destroy_range(_First, _Last, _Al);
; 1840 :     }

  00000	c2 00 00	 ret	 0
??1?$_Uninitialized_backout_al@V?$allocator@E@std@@@std@@QAE@XZ ENDP ; std::_Uninitialized_backout_al<std::allocator<unsigned char> >::~_Uninitialized_backout_al<std::allocator<unsigned char> >
_TEXT	ENDS
; Function compile flags: /Ogtp
; File C:\Program Files\Microsoft Visual Studio\2022\Community\VC\Tools\MSVC\14.44.35207\include\xmemory
;	COMDAT ??0?$_Uninitialized_backout_al@V?$allocator@E@std@@@std@@QAE@PAEAAV?$allocator@E@1@@Z
_TEXT	SEGMENT
__Dest$ = 8						; size = 4
__Al_$ = 12						; size = 4
??0?$_Uninitialized_backout_al@V?$allocator@E@std@@@std@@QAE@PAEAAV?$allocator@E@1@@Z PROC ; std::_Uninitialized_backout_al<std::allocator<unsigned char> >::_Uninitialized_backout_al<std::allocator<unsigned char> >, COMDAT
; _this$ = ecx

; 1833 :     _CONSTEXPR20 _Uninitialized_backout_al(pointer _Dest, _Alloc& _Al_) : _First(_Dest), _Last(_Dest), _Al(_Al_) {}

  00000	55		 push	 ebp
  00001	8b ec		 mov	 ebp, esp
  00003	8b 45 08	 mov	 eax, DWORD PTR __Dest$[ebp]
  00006	89 01		 mov	 DWORD PTR [ecx], eax
  00008	89 41 04	 mov	 DWORD PTR [ecx+4], eax
  0000b	8b 45 0c	 mov	 eax, DWORD PTR __Al_$[ebp]
  0000e	89 41 08	 mov	 DWORD PTR [ecx+8], eax
  00011	8b c1		 mov	 eax, ecx
  00013	5d		 pop	 ebp
  00014	c2 08 00	 ret	 8
??0?$_Uninitialized_backout_al@V?$allocator@E@std@@@std@@QAE@PAEAAV?$allocator@E@1@@Z ENDP ; std::_Uninitialized_backout_al<std::allocator<unsigned char> >::_Uninitialized_backout_al<std::allocator<unsigned char> >
_TEXT	ENDS
; Function compile flags: /Ogtp
; File C:\Program Files\Microsoft Visual Studio\2022\Community\VC\Tools\MSVC\14.44.35207\include\xmemory
;	COMDAT ??1?$_Alloc_construct_ptr@V?$allocator@U?$_Tree_node@U?$pair@$$CBKPAVCGuildMarkImage@@@std@@PAX@std@@@std@@@std@@QAE@XZ
_TEXT	SEGMENT
??1?$_Alloc_construct_ptr@V?$allocator@U?$_Tree_node@U?$pair@$$CBKPAVCGuildMarkImage@@@std@@PAX@std@@@std@@@std@@QAE@XZ PROC ; std::_Alloc_construct_ptr<std::allocator<std::_Tree_node<std::pair<unsigned long const ,CGuildMarkImage *>,void *> > >::~_Alloc_construct_ptr<std::allocator<std::_Tree_node<std::pair<unsigned long const ,CGuildMarkImage *>,void *> > >, COMDAT
; _this$ = ecx

; 1172 :         if (_Ptr) {

  00000	8b 41 04	 mov	 eax, DWORD PTR [ecx+4]
  00003	85 c0		 test	 eax, eax
  00005	74 0b		 je	 SHORT $LN8@Alloc_cons

; 289  :         ::operator delete(_Ptr, _Bytes);

  00007	6a 18		 push	 24			; 00000018H
  00009	50		 push	 eax
  0000a	e8 00 00 00 00	 call	 ??3@YAXPAXI@Z		; operator delete
  0000f	83 c4 08	 add	 esp, 8
$LN8@Alloc_cons:

; 1173 :             _Al.deallocate(_Ptr, 1);
; 1174 :         }
; 1175 :     }

  00012	c3		 ret	 0
??1?$_Alloc_construct_ptr@V?$allocator@U?$_Tree_node@U?$pair@$$CBKPAVCGuildMarkImage@@@std@@PAX@std@@@std@@@std@@QAE@XZ ENDP ; std::_Alloc_construct_ptr<std::allocator<std::_Tree_node<std::pair<unsigned long const ,CGuildMarkImage *>,void *> > >::~_Alloc_construct_ptr<std::allocator<std::_Tree_node<std::pair<unsigned long const ,CGuildMarkImage *>,void *> > >
_TEXT	ENDS
; Function compile flags: /Ogtp
; File C:\Program Files\Microsoft Visual Studio\2022\Community\VC\Tools\MSVC\14.44.35207\include\xtree
; File C:\Program Files\Microsoft Visual Studio\2022\Community\VC\Tools\MSVC\14.44.35207\include\xmemory
; File C:\Program Files\Microsoft Visual Studio\2022\Community\VC\Tools\MSVC\14.44.35207\include\xtree
; File C:\Program Files\Microsoft Visual Studio\2022\Community\VC\Tools\MSVC\14.44.35207\include\xmemory
; File C:\Program Files\Microsoft Visual Studio\2022\Community\VC\Tools\MSVC\14.44.35207\include\xtree
;	COMDAT ??0?$_Tree_temp_node_alloc@V?$allocator@U?$_Tree_node@U?$pair@$$CBKPAVCGuildMarkImage@@@std@@PAX@std@@@std@@@std@@QAE@AAV?$allocator@U?$_Tree_node@U?$pair@$$CBKPAVCGuildMarkImage@@@std@@PAX@std@@@1@@Z
_TEXT	SEGMENT
_this$ = -16						; size = 4
__$EHRec$ = -12						; size = 12
__Al_$ = 8						; size = 4
??0?$_Tree_temp_node_alloc@V?$allocator@U?$_Tree_node@U?$pair@$$CBKPAVCGuildMarkImage@@@std@@PAX@std@@@std@@@std@@QAE@AAV?$allocator@U?$_Tree_node@U?$pair@$$CBKPAVCGuildMarkImage@@@std@@PAX@std@@@1@@Z PROC ; std::_Tree_temp_node_alloc<std::allocator<std::_Tree_node<std::pair<unsigned long const ,CGuildMarkImage *>,void *> > >::_Tree_temp_node_alloc<std::allocator<std::_Tree_node<std::pair<unsigned long const ,CGuildMarkImage *>,void *> > >, COMDAT
; _this$ = ecx

; 808  :     explicit _Tree_temp_node_alloc(_Alnode& _Al_) : _Alloc_construct_ptr<_Alnode>(_Al_) {

  00000	55		 push	 ebp
  00001	8b ec		 mov	 ebp, esp
  00003	6a ff		 push	 -1
  00005	68 00 00 00 00	 push	 __ehhandler$??0?$_Tree_temp_node_alloc@V?$allocator@U?$_Tree_node@U?$pair@$$CBKPAVCGuildMarkImage@@@std@@PAX@std@@@std@@@std@@QAE@AAV?$allocator@U?$_Tree_node@U?$pair@$$CBKPAVCGuildMarkImage@@@std@@PAX@std@@@1@@Z
  0000a	64 a1 00 00 00
	00		 mov	 eax, DWORD PTR fs:0
  00010	50		 push	 eax
  00011	51		 push	 ecx
  00012	56		 push	 esi
  00013	a1 00 00 00 00	 mov	 eax, DWORD PTR ___security_cookie
  00018	33 c5		 xor	 eax, ebp
  0001a	50		 push	 eax
  0001b	8d 45 f4	 lea	 eax, DWORD PTR __$EHRec$[ebp]
  0001e	64 a3 00 00 00
	00		 mov	 DWORD PTR fs:0, eax
  00024	8b f1		 mov	 esi, ecx
  00026	89 75 f0	 mov	 DWORD PTR _this$[ebp], esi
; File C:\Program Files\Microsoft Visual Studio\2022\Community\VC\Tools\MSVC\14.44.35207\include\xmemory

; 1160 :     _CONSTEXPR20 explicit _Alloc_construct_ptr(_Alloc& _Al_) : _Al(_Al_), _Ptr(nullptr) {}

  00029	8b 45 08	 mov	 eax, DWORD PTR __Al_$[ebp]
  0002c	89 06		 mov	 DWORD PTR [esi], eax
; File C:\Program Files\Microsoft Visual Studio\2022\Community\VC\Tools\MSVC\14.44.35207\include\xtree

; 808  :     explicit _Tree_temp_node_alloc(_Alnode& _Al_) : _Alloc_construct_ptr<_Alnode>(_Al_) {

  0002e	c7 45 fc 00 00
	00 00		 mov	 DWORD PTR __$EHRec$[ebp+8], 0
; File C:\Program Files\Microsoft Visual Studio\2022\Community\VC\Tools\MSVC\14.44.35207\include\xmemory

; 136  :         return ::operator new(_Bytes);

  00035	6a 18		 push	 24			; 00000018H

; 1167 :         _Ptr = nullptr; // if allocate throws, prevents double-free

  00037	c7 46 04 00 00
	00 00		 mov	 DWORD PTR [esi+4], 0

; 136  :         return ::operator new(_Bytes);

  0003e	e8 00 00 00 00	 call	 ??2@YAPAXI@Z		; operator new

; 1168 :         _Ptr = _Al.allocate(1);

  00043	89 46 04	 mov	 DWORD PTR [esi+4], eax

; 136  :         return ::operator new(_Bytes);

  00046	83 c4 04	 add	 esp, 4
; File C:\Program Files\Microsoft Visual Studio\2022\Community\VC\Tools\MSVC\14.44.35207\include\xtree

; 810  :     }

  00049	8b c6		 mov	 eax, esi
  0004b	8b 4d f4	 mov	 ecx, DWORD PTR __$EHRec$[ebp]
  0004e	64 89 0d 00 00
	00 00		 mov	 DWORD PTR fs:0, ecx
  00055	59		 pop	 ecx
  00056	5e		 pop	 esi
  00057	8b e5		 mov	 esp, ebp
  00059	5d		 pop	 ebp
  0005a	c2 04 00	 ret	 4
_TEXT	ENDS
;	COMDAT text$x
text$x	SEGMENT
__unwindfunclet$??0?$_Tree_temp_node_alloc@V?$allocator@U?$_Tree_node@U?$pair@$$CBKPAVCGuildMarkImage@@@std@@PAX@std@@@std@@@std@@QAE@AAV?$allocator@U?$_Tree_node@U?$pair@$$CBKPAVCGuildMarkImage@@@std@@PAX@std@@@1@@Z$0:
  00000	8b 4d f0	 mov	 ecx, DWORD PTR _this$[ebp]
  00003	e9 00 00 00 00	 jmp	 ??1?$_Alloc_construct_ptr@V?$allocator@U?$_Tree_node@U?$pair@$$CBKPAVCGuildMarkImage@@@std@@PAX@std@@@std@@@std@@QAE@XZ ; std::_Alloc_construct_ptr<std::allocator<std::_Tree_node<std::pair<unsigned long const ,CGuildMarkImage *>,void *> > >::~_Alloc_construct_ptr<std::allocator<std::_Tree_node<std::pair<unsigned long const ,CGuildMarkImage *>,void *> > >
  00008	cc		 int	 3
  00009	cc		 int	 3
  0000a	cc		 int	 3
  0000b	cc		 int	 3
  0000c	cc		 int	 3
__ehhandler$??0?$_Tree_temp_node_alloc@V?$allocator@U?$_Tree_node@U?$pair@$$CBKPAVCGuildMarkImage@@@std@@PAX@std@@@std@@@std@@QAE@AAV?$allocator@U?$_Tree_node@U?$pair@$$CBKPAVCGuildMarkImage@@@std@@PAX@std@@@1@@Z:
  0000d	90		 npad	 1
  0000e	90		 npad	 1
  0000f	8b 54 24 08	 mov	 edx, DWORD PTR [esp+8]
  00013	8d 42 0c	 lea	 eax, DWORD PTR [edx+12]
  00016	8b 4a f4	 mov	 ecx, DWORD PTR [edx-12]
  00019	33 c8		 xor	 ecx, eax
  0001b	e8 00 00 00 00	 call	 @__security_check_cookie@4
  00020	b8 00 00 00 00	 mov	 eax, OFFSET __ehfuncinfo$??0?$_Tree_temp_node_alloc@V?$allocator@U?$_Tree_node@U?$pair@$$CBKPAVCGuildMarkImage@@@std@@PAX@std@@@std@@@std@@QAE@AAV?$allocator@U?$_Tree_node@U?$pair@$$CBKPAVCGuildMarkImage@@@std@@PAX@std@@@1@@Z
  00025	e9 00 00 00 00	 jmp	 ___CxxFrameHandler3
text$x	ENDS
??0?$_Tree_temp_node_alloc@V?$allocator@U?$_Tree_node@U?$pair@$$CBKPAVCGuildMarkImage@@@std@@PAX@std@@@std@@@std@@QAE@AAV?$allocator@U?$_Tree_node@U?$pair@$$CBKPAVCGuildMarkImage@@@std@@PAX@std@@@1@@Z ENDP ; std::_Tree_temp_node_alloc<std::allocator<std::_Tree_node<std::pair<unsigned long const ,CGuildMarkImage *>,void *> > >::_Tree_temp_node_alloc<std::allocator<std::_Tree_node<std::pair<unsigned long const ,CGuildMarkImage *>,void *> > >
; Function compile flags: /Ogtp
; File C:\Program Files\Microsoft Visual Studio\2022\Community\VC\Tools\MSVC\14.44.35207\include\xmemory
;	COMDAT ?deallocate@?$_Default_allocator_traits@V?$allocator@U?$_Tree_node@U?$pair@$$CBKUTGuildSymbol@CGuildMarkManager@@@std@@PAX@std@@@std@@@std@@SAXAAV?$allocator@U?$_Tree_node@U?$pair@$$CBKUTGuildSymbol@CGuildMarkManager@@@std@@PAX@std@@@2@QAU?$_Tree_node@U?$pair@$$CBKUTGuildSymbol@CGuildMarkManager@@@std@@PAX@2@I@Z
_TEXT	SEGMENT
__Count$dead$ = 8					; size = 4
?deallocate@?$_Default_allocator_traits@V?$allocator@U?$_Tree_node@U?$pair@$$CBKUTGuildSymbol@CGuildMarkManager@@@std@@PAX@std@@@std@@@std@@SAXAAV?$allocator@U?$_Tree_node@U?$pair@$$CBKUTGuildSymbol@CGuildMarkManager@@@std@@PAX@std@@@2@QAU?$_Tree_node@U?$pair@$$CBKUTGuildSymbol@CGuildMarkManager@@@std@@PAX@2@I@Z PROC ; std::_Default_allocator_traits<std::allocator<std::_Tree_node<std::pair<unsigned long const ,CGuildMarkManager::TGuildSymbol>,void *> > >::deallocate, COMDAT
; __Al$dead$ = ecx
; __Ptr$ = edx

; 289  :         ::operator delete(_Ptr, _Bytes);

  00000	6a 24		 push	 36			; 00000024H
  00002	52		 push	 edx
  00003	e8 00 00 00 00	 call	 ??3@YAXPAXI@Z		; operator delete
  00008	83 c4 08	 add	 esp, 8

; 715  :         // no overflow check on the following multiply; we assume _Allocate did that check
; 716  : #if _HAS_CXX20 // TRANSITION, GH-1532
; 717  :         if (_STD is_constant_evaluated()) {
; 718  :             _Al.deallocate(_Ptr, _Count);
; 719  :         } else
; 720  : #endif // _HAS_CXX20
; 721  :         {
; 722  :             (void) _Al;
; 723  :             _STD _Deallocate<_New_alignof<value_type>>(_Ptr, sizeof(value_type) * _Count);
; 724  :         }
; 725  :     }

  0000b	c3		 ret	 0
?deallocate@?$_Default_allocator_traits@V?$allocator@U?$_Tree_node@U?$pair@$$CBKUTGuildSymbol@CGuildMarkManager@@@std@@PAX@std@@@std@@@std@@SAXAAV?$allocator@U?$_Tree_node@U?$pair@$$CBKUTGuildSymbol@CGuildMarkManager@@@std@@PAX@std@@@2@QAU?$_Tree_node@U?$pair@$$CBKUTGuildSymbol@CGuildMarkManager@@@std@@PAX@2@I@Z ENDP ; std::_Default_allocator_traits<std::allocator<std::_Tree_node<std::pair<unsigned long const ,CGuildMarkManager::TGuildSymbol>,void *> > >::deallocate
_TEXT	ENDS
; Function compile flags: /Ogtp
; File C:\Program Files\Microsoft Visual Studio\2022\Community\VC\Tools\MSVC\14.44.35207\include\xtree
;	COMDAT ?_Rrotate@?$_Tree_val@U?$_Tree_simple_types@U?$pair@$$CBKPAVCGuildMarkImage@@@std@@@std@@@std@@QAEXPAU?$_Tree_node@U?$pair@$$CBKPAVCGuildMarkImage@@@std@@PAX@2@@Z
_TEXT	SEGMENT
__Wherenode$ = 8					; size = 4
?_Rrotate@?$_Tree_val@U?$_Tree_simple_types@U?$pair@$$CBKPAVCGuildMarkImage@@@std@@@std@@@std@@QAEXPAU?$_Tree_node@U?$pair@$$CBKPAVCGuildMarkImage@@@std@@PAX@2@@Z PROC ; std::_Tree_val<std::_Tree_simple_types<std::pair<unsigned long const ,CGuildMarkImage *> > >::_Rrotate, COMDAT
; _this$ = ecx

; 505  :     void _Rrotate(_Nodeptr _Wherenode) noexcept { // promote left node to root of subtree

  00000	55		 push	 ebp
  00001	8b ec		 mov	 ebp, esp

; 506  :         _Nodeptr _Pnode   = _Wherenode->_Left;

  00003	8b 55 08	 mov	 edx, DWORD PTR __Wherenode$[ebp]
  00006	56		 push	 esi
  00007	8b 32		 mov	 esi, DWORD PTR [edx]

; 507  :         _Wherenode->_Left = _Pnode->_Right;

  00009	8b 46 08	 mov	 eax, DWORD PTR [esi+8]
  0000c	89 02		 mov	 DWORD PTR [edx], eax

; 508  : 
; 509  :         if (!_Pnode->_Right->_Isnil) {

  0000e	8b 46 08	 mov	 eax, DWORD PTR [esi+8]
  00011	80 78 0d 00	 cmp	 BYTE PTR [eax+13], 0
  00015	75 03		 jne	 SHORT $LN2@Rrotate

; 510  :             _Pnode->_Right->_Parent = _Wherenode;

  00017	89 50 04	 mov	 DWORD PTR [eax+4], edx
$LN2@Rrotate:

; 511  :         }
; 512  : 
; 513  :         _Pnode->_Parent = _Wherenode->_Parent;

  0001a	8b 42 04	 mov	 eax, DWORD PTR [edx+4]
  0001d	89 46 04	 mov	 DWORD PTR [esi+4], eax

; 514  : 
; 515  :         if (_Wherenode == _Myhead->_Parent) {

  00020	8b 01		 mov	 eax, DWORD PTR [ecx]
  00022	3b 50 04	 cmp	 edx, DWORD PTR [eax+4]
  00025	75 0e		 jne	 SHORT $LN3@Rrotate

; 516  :             _Myhead->_Parent = _Pnode;

  00027	89 70 04	 mov	 DWORD PTR [eax+4], esi

; 521  :         }
; 522  : 
; 523  :         _Pnode->_Right      = _Wherenode;
; 524  :         _Wherenode->_Parent = _Pnode;
; 525  :     }

  0002a	89 56 08	 mov	 DWORD PTR [esi+8], edx
  0002d	89 72 04	 mov	 DWORD PTR [edx+4], esi
  00030	5e		 pop	 esi
  00031	5d		 pop	 ebp
  00032	c2 04 00	 ret	 4
$LN3@Rrotate:

; 517  :         } else if (_Wherenode == _Wherenode->_Parent->_Right) {

  00035	8b 42 04	 mov	 eax, DWORD PTR [edx+4]
  00038	3b 50 08	 cmp	 edx, DWORD PTR [eax+8]
  0003b	75 0e		 jne	 SHORT $LN5@Rrotate

; 518  :             _Wherenode->_Parent->_Right = _Pnode;

  0003d	89 70 08	 mov	 DWORD PTR [eax+8], esi

; 521  :         }
; 522  : 
; 523  :         _Pnode->_Right      = _Wherenode;
; 524  :         _Wherenode->_Parent = _Pnode;
; 525  :     }

  00040	89 56 08	 mov	 DWORD PTR [esi+8], edx
  00043	89 72 04	 mov	 DWORD PTR [edx+4], esi
  00046	5e		 pop	 esi
  00047	5d		 pop	 ebp
  00048	c2 04 00	 ret	 4
$LN5@Rrotate:

; 519  :         } else {
; 520  :             _Wherenode->_Parent->_Left = _Pnode;

  0004b	89 30		 mov	 DWORD PTR [eax], esi

; 521  :         }
; 522  : 
; 523  :         _Pnode->_Right      = _Wherenode;
; 524  :         _Wherenode->_Parent = _Pnode;
; 525  :     }

  0004d	89 56 08	 mov	 DWORD PTR [esi+8], edx
  00050	89 72 04	 mov	 DWORD PTR [edx+4], esi
  00053	5e		 pop	 esi
  00054	5d		 pop	 ebp
  00055	c2 04 00	 ret	 4
?_Rrotate@?$_Tree_val@U?$_Tree_simple_types@U?$pair@$$CBKPAVCGuildMarkImage@@@std@@@std@@@std@@QAEXPAU?$_Tree_node@U?$pair@$$CBKPAVCGuildMarkImage@@@std@@PAX@2@@Z ENDP ; std::_Tree_val<std::_Tree_simple_types<std::pair<unsigned long const ,CGuildMarkImage *> > >::_Rrotate
_TEXT	ENDS
; Function compile flags: /Ogtp
; File C:\Program Files\Microsoft Visual Studio\2022\Community\VC\Tools\MSVC\14.44.35207\include\xtree
;	COMDAT ?_Lrotate@?$_Tree_val@U?$_Tree_simple_types@U?$pair@$$CBKPAVCGuildMarkImage@@@std@@@std@@@std@@QAEXPAU?$_Tree_node@U?$pair@$$CBKPAVCGuildMarkImage@@@std@@PAX@2@@Z
_TEXT	SEGMENT
__Wherenode$ = 8					; size = 4
?_Lrotate@?$_Tree_val@U?$_Tree_simple_types@U?$pair@$$CBKPAVCGuildMarkImage@@@std@@@std@@@std@@QAEXPAU?$_Tree_node@U?$pair@$$CBKPAVCGuildMarkImage@@@std@@PAX@2@@Z PROC ; std::_Tree_val<std::_Tree_simple_types<std::pair<unsigned long const ,CGuildMarkImage *> > >::_Lrotate, COMDAT
; _this$ = ecx

; 483  :     void _Lrotate(_Nodeptr _Wherenode) noexcept { // promote right node to root of subtree

  00000	55		 push	 ebp
  00001	8b ec		 mov	 ebp, esp

; 484  :         _Nodeptr _Pnode    = _Wherenode->_Right;

  00003	8b 55 08	 mov	 edx, DWORD PTR __Wherenode$[ebp]
  00006	56		 push	 esi
  00007	8b 72 08	 mov	 esi, DWORD PTR [edx+8]

; 485  :         _Wherenode->_Right = _Pnode->_Left;

  0000a	8b 06		 mov	 eax, DWORD PTR [esi]
  0000c	89 42 08	 mov	 DWORD PTR [edx+8], eax

; 486  : 
; 487  :         if (!_Pnode->_Left->_Isnil) {

  0000f	8b 06		 mov	 eax, DWORD PTR [esi]
  00011	80 78 0d 00	 cmp	 BYTE PTR [eax+13], 0
  00015	75 03		 jne	 SHORT $LN2@Lrotate

; 488  :             _Pnode->_Left->_Parent = _Wherenode;

  00017	89 50 04	 mov	 DWORD PTR [eax+4], edx
$LN2@Lrotate:

; 489  :         }
; 490  : 
; 491  :         _Pnode->_Parent = _Wherenode->_Parent;

  0001a	8b 42 04	 mov	 eax, DWORD PTR [edx+4]
  0001d	89 46 04	 mov	 DWORD PTR [esi+4], eax

; 492  : 
; 493  :         if (_Wherenode == _Myhead->_Parent) {

  00020	8b 01		 mov	 eax, DWORD PTR [ecx]
  00022	3b 50 04	 cmp	 edx, DWORD PTR [eax+4]
  00025	75 0d		 jne	 SHORT $LN3@Lrotate

; 494  :             _Myhead->_Parent = _Pnode;

  00027	89 70 04	 mov	 DWORD PTR [eax+4], esi

; 499  :         }
; 500  : 
; 501  :         _Pnode->_Left       = _Wherenode;
; 502  :         _Wherenode->_Parent = _Pnode;
; 503  :     }

  0002a	89 16		 mov	 DWORD PTR [esi], edx
  0002c	89 72 04	 mov	 DWORD PTR [edx+4], esi
  0002f	5e		 pop	 esi
  00030	5d		 pop	 ebp
  00031	c2 04 00	 ret	 4
$LN3@Lrotate:

; 495  :         } else if (_Wherenode == _Wherenode->_Parent->_Left) {

  00034	8b 42 04	 mov	 eax, DWORD PTR [edx+4]
  00037	3b 10		 cmp	 edx, DWORD PTR [eax]
  00039	75 0c		 jne	 SHORT $LN5@Lrotate

; 496  :             _Wherenode->_Parent->_Left = _Pnode;

  0003b	89 30		 mov	 DWORD PTR [eax], esi

; 499  :         }
; 500  : 
; 501  :         _Pnode->_Left       = _Wherenode;
; 502  :         _Wherenode->_Parent = _Pnode;
; 503  :     }

  0003d	89 16		 mov	 DWORD PTR [esi], edx
  0003f	89 72 04	 mov	 DWORD PTR [edx+4], esi
  00042	5e		 pop	 esi
  00043	5d		 pop	 ebp
  00044	c2 04 00	 ret	 4
$LN5@Lrotate:

; 497  :         } else {
; 498  :             _Wherenode->_Parent->_Right = _Pnode;

  00047	89 70 08	 mov	 DWORD PTR [eax+8], esi

; 499  :         }
; 500  : 
; 501  :         _Pnode->_Left       = _Wherenode;
; 502  :         _Wherenode->_Parent = _Pnode;
; 503  :     }

  0004a	89 16		 mov	 DWORD PTR [esi], edx
  0004c	89 72 04	 mov	 DWORD PTR [edx+4], esi
  0004f	5e		 pop	 esi
  00050	5d		 pop	 ebp
  00051	c2 04 00	 ret	 4
?_Lrotate@?$_Tree_val@U?$_Tree_simple_types@U?$pair@$$CBKPAVCGuildMarkImage@@@std@@@std@@@std@@QAEXPAU?$_Tree_node@U?$pair@$$CBKPAVCGuildMarkImage@@@std@@PAX@2@@Z ENDP ; std::_Tree_val<std::_Tree_simple_types<std::pair<unsigned long const ,CGuildMarkImage *> > >::_Lrotate
_TEXT	ENDS
; Function compile flags: /Ogtp
; File C:\Program Files\Microsoft Visual Studio\2022\Community\VC\Tools\MSVC\14.44.35207\include\xtree
;	COMDAT ?_Min@?$_Tree_val@U?$_Tree_simple_types@U?$pair@$$CBKPAVCGuildMarkImage@@@std@@@std@@@std@@SAPAU?$_Tree_node@U?$pair@$$CBKPAVCGuildMarkImage@@@std@@PAX@2@PAU32@@Z
_TEXT	SEGMENT
?_Min@?$_Tree_val@U?$_Tree_simple_types@U?$pair@$$CBKPAVCGuildMarkImage@@@std@@@std@@@std@@SAPAU?$_Tree_node@U?$pair@$$CBKPAVCGuildMarkImage@@@std@@PAX@2@PAU32@@Z PROC ; std::_Tree_val<std::_Tree_simple_types<std::pair<unsigned long const ,CGuildMarkImage *> > >::_Min, COMDAT
; __Pnode$ = ecx

; 476  :         while (!_Pnode->_Left->_Isnil) {

  00000	8b 11		 mov	 edx, DWORD PTR [ecx]
  00002	80 7a 0d 00	 cmp	 BYTE PTR [edx+13], 0
  00006	75 0d		 jne	 SHORT $LN10@Min
$LL2@Min:
  00008	8b 0a		 mov	 ecx, DWORD PTR [edx]

; 477  :             _Pnode = _Pnode->_Left;

  0000a	8b c2		 mov	 eax, edx
  0000c	8b d1		 mov	 edx, ecx
  0000e	80 79 0d 00	 cmp	 BYTE PTR [ecx+13], 0
  00012	74 f4		 je	 SHORT $LL2@Min

; 481  :     }

  00014	c3		 ret	 0
$LN10@Min:

; 478  :         }
; 479  : 
; 480  :         return _Pnode;

  00015	8b c1		 mov	 eax, ecx

; 481  :     }

  00017	c3		 ret	 0
?_Min@?$_Tree_val@U?$_Tree_simple_types@U?$pair@$$CBKPAVCGuildMarkImage@@@std@@@std@@@std@@SAPAU?$_Tree_node@U?$pair@$$CBKPAVCGuildMarkImage@@@std@@PAX@2@PAU32@@Z ENDP ; std::_Tree_val<std::_Tree_simple_types<std::pair<unsigned long const ,CGuildMarkImage *> > >::_Min
_TEXT	ENDS
; Function compile flags: /Ogtp
; File C:\Program Files\Microsoft Visual Studio\2022\Community\VC\Tools\MSVC\14.44.35207\include\xmemory
;	COMDAT ?deallocate@?$_Default_allocator_traits@V?$allocator@U?$_Tree_node@U?$pair@$$CBKPAVCGuildMarkImage@@@std@@PAX@std@@@std@@@std@@SAXAAV?$allocator@U?$_Tree_node@U?$pair@$$CBKPAVCGuildMarkImage@@@std@@PAX@std@@@2@QAU?$_Tree_node@U?$pair@$$CBKPAVCGuildMarkImage@@@std@@PAX@2@I@Z
_TEXT	SEGMENT
__Count$dead$ = 8					; size = 4
?deallocate@?$_Default_allocator_traits@V?$allocator@U?$_Tree_node@U?$pair@$$CBKPAVCGuildMarkImage@@@std@@PAX@std@@@std@@@std@@SAXAAV?$allocator@U?$_Tree_node@U?$pair@$$CBKPAVCGuildMarkImage@@@std@@PAX@std@@@2@QAU?$_Tree_node@U?$pair@$$CBKPAVCGuildMarkImage@@@std@@PAX@2@I@Z PROC ; std::_Default_allocator_traits<std::allocator<std::_Tree_node<std::pair<unsigned long const ,CGuildMarkImage *>,void *> > >::deallocate, COMDAT
; __Al$dead$ = ecx
; __Ptr$ = edx

; 289  :         ::operator delete(_Ptr, _Bytes);

  00000	6a 18		 push	 24			; 00000018H
  00002	52		 push	 edx
  00003	e8 00 00 00 00	 call	 ??3@YAXPAXI@Z		; operator delete
  00008	83 c4 08	 add	 esp, 8

; 715  :         // no overflow check on the following multiply; we assume _Allocate did that check
; 716  : #if _HAS_CXX20 // TRANSITION, GH-1532
; 717  :         if (_STD is_constant_evaluated()) {
; 718  :             _Al.deallocate(_Ptr, _Count);
; 719  :         } else
; 720  : #endif // _HAS_CXX20
; 721  :         {
; 722  :             (void) _Al;
; 723  :             _STD _Deallocate<_New_alignof<value_type>>(_Ptr, sizeof(value_type) * _Count);
; 724  :         }
; 725  :     }

  0000b	c3		 ret	 0
?deallocate@?$_Default_allocator_traits@V?$allocator@U?$_Tree_node@U?$pair@$$CBKPAVCGuildMarkImage@@@std@@PAX@std@@@std@@@std@@SAXAAV?$allocator@U?$_Tree_node@U?$pair@$$CBKPAVCGuildMarkImage@@@std@@PAX@std@@@2@QAU?$_Tree_node@U?$pair@$$CBKPAVCGuildMarkImage@@@std@@PAX@2@I@Z ENDP ; std::_Default_allocator_traits<std::allocator<std::_Tree_node<std::pair<unsigned long const ,CGuildMarkImage *>,void *> > >::deallocate
_TEXT	ENDS
; Function compile flags: /Ogtp
; File C:\Program Files\Microsoft Visual Studio\2022\Community\VC\Tools\MSVC\14.44.35207\include\xtree
;	COMDAT ?_Getcomp@?$_Tree@V?$_Tmap_traits@KPAVCGuildMarkImage@@U?$less@K@std@@V?$allocator@U?$pair@$$CBKPAVCGuildMarkImage@@@std@@@3@$0A@@std@@@std@@IBEABU?$less@K@2@XZ
_TEXT	SEGMENT
?_Getcomp@?$_Tree@V?$_Tmap_traits@KPAVCGuildMarkImage@@U?$less@K@std@@V?$allocator@U?$pair@$$CBKPAVCGuildMarkImage@@@std@@@3@$0A@@std@@@std@@IBEABU?$less@K@2@XZ PROC ; std::_Tree<std::_Tmap_traits<unsigned long,CGuildMarkImage *,std::less<unsigned long>,std::allocator<std::pair<unsigned long const ,CGuildMarkImage *> >,0> >::_Getcomp, COMDAT
; _this$ = ecx

; 1971 :         return _Mypair._Get_first();

  00000	8b c1		 mov	 eax, ecx

; 1972 :     }

  00002	c3		 ret	 0
?_Getcomp@?$_Tree@V?$_Tmap_traits@KPAVCGuildMarkImage@@U?$less@K@std@@V?$allocator@U?$pair@$$CBKPAVCGuildMarkImage@@@std@@@3@$0A@@std@@@std@@IBEABU?$less@K@2@XZ ENDP ; std::_Tree<std::_Tmap_traits<unsigned long,CGuildMarkImage *,std::less<unsigned long>,std::allocator<std::pair<unsigned long const ,CGuildMarkImage *> >,0> >::_Getcomp
_TEXT	ENDS
; Function compile flags: /Ogtp
; File C:\Program Files\Microsoft Visual Studio\2022\Community\VC\Tools\MSVC\14.44.35207\include\xtree
;	COMDAT ?max_size@?$_Tree@V?$_Tmap_traits@KPAVCGuildMarkImage@@U?$less@K@std@@V?$allocator@U?$pair@$$CBKPAVCGuildMarkImage@@@std@@@3@$0A@@std@@@std@@QBEIXZ
_TEXT	SEGMENT
?max_size@?$_Tree@V?$_Tmap_traits@KPAVCGuildMarkImage@@U?$less@K@std@@V?$allocator@U?$pair@$$CBKPAVCGuildMarkImage@@@std@@@3@$0A@@std@@@std@@QBEIXZ PROC ; std::_Tree<std::_Tmap_traits<unsigned long,CGuildMarkImage *,std::less<unsigned long>,std::allocator<std::pair<unsigned long const ,CGuildMarkImage *> >,0> >::max_size, COMDAT
; _this$dead$ = ecx

; 1213 :         return (_STD min)(

  00000	b8 aa aa aa 0a	 mov	 eax, 178956970		; 0aaaaaaaH

; 1214 :             static_cast<size_type>(_STD _Max_limit<difference_type>()), _Alnode_traits::max_size(_Getal()));
; 1215 :     }

  00005	c3		 ret	 0
?max_size@?$_Tree@V?$_Tmap_traits@KPAVCGuildMarkImage@@U?$less@K@std@@V?$allocator@U?$pair@$$CBKPAVCGuildMarkImage@@@std@@@3@$0A@@std@@@std@@QBEIXZ ENDP ; std::_Tree<std::_Tmap_traits<unsigned long,CGuildMarkImage *,std::less<unsigned long>,std::allocator<std::pair<unsigned long const ,CGuildMarkImage *> >,0> >::max_size
_TEXT	ENDS
; Function compile flags: /Ogtp
; File C:\Program Files\Microsoft Visual Studio\2022\Community\VC\Tools\MSVC\14.44.35207\include\xmemory
;	COMDAT ?_Get_first@?$_Compressed_pair@V?$allocator@E@std@@V?$_Vector_val@U?$_Simple_types@E@std@@@2@$00@std@@QBEABV?$allocator@E@2@XZ
_TEXT	SEGMENT
?_Get_first@?$_Compressed_pair@V?$allocator@E@std@@V?$_Vector_val@U?$_Simple_types@E@std@@@2@$00@std@@QBEABV?$allocator@E@2@XZ PROC ; std::_Compressed_pair<std::allocator<unsigned char>,std::_Vector_val<std::_Simple_types<unsigned char> >,1>::_Get_first, COMDAT
; _this$ = ecx

; 1543 :         return *this;

  00000	8b c1		 mov	 eax, ecx

; 1544 :     }

  00002	c3		 ret	 0
?_Get_first@?$_Compressed_pair@V?$allocator@E@std@@V?$_Vector_val@U?$_Simple_types@E@std@@@2@$00@std@@QBEABV?$allocator@E@2@XZ ENDP ; std::_Compressed_pair<std::allocator<unsigned char>,std::_Vector_val<std::_Simple_types<unsigned char> >,1>::_Get_first
_TEXT	ENDS
; Function compile flags: /Ogtp
; File C:\Program Files\Microsoft Visual Studio\2022\Community\VC\Tools\MSVC\14.44.35207\include\vector
; File C:\Program Files\Microsoft Visual Studio\2022\Community\VC\Tools\MSVC\14.44.35207\include\xmemory
; File C:\Program Files\Microsoft Visual Studio\2022\Community\VC\Tools\MSVC\14.44.35207\include\vector
; File C:\Program Files\Microsoft Visual Studio\2022\Community\VC\Tools\MSVC\14.44.35207\include\xmemory
; File C:\Program Files\Microsoft Visual Studio\2022\Community\VC\Tools\MSVC\14.44.35207\include\vector
;	COMDAT ??1_Reallocation_guard@?$vector@EV?$allocator@E@std@@@std@@QAE@XZ
_TEXT	SEGMENT
??1_Reallocation_guard@?$vector@EV?$allocator@E@std@@@std@@QAE@XZ PROC ; std::vector<unsigned char,std::allocator<unsigned char> >::_Reallocation_guard::~_Reallocation_guard, COMDAT
; _this$ = ecx

; 621  :             if (_New_begin != nullptr) {

  00000	8b 41 04	 mov	 eax, DWORD PTR [ecx+4]
  00003	85 c0		 test	 eax, eax
  00005	74 27		 je	 SHORT $LN8@Reallocati
; File C:\Program Files\Microsoft Visual Studio\2022\Community\VC\Tools\MSVC\14.44.35207\include\xmemory

; 985  :         _STD _Deallocate<_New_alignof<_Ty>>(_Ptr, sizeof(_Ty) * _Count);

  00007	8b 49 08	 mov	 ecx, DWORD PTR [ecx+8]

; 284  :         if (_Bytes >= _Big_allocation_threshold) {

  0000a	81 f9 00 10 00
	00		 cmp	 ecx, 4096		; 00001000H
  00010	72 12		 jb	 SHORT $LN16@Reallocati

; 205  :     const uintptr_t _Ptr_container   = _Ptr_user[-1];

  00012	8b 50 fc	 mov	 edx, DWORD PTR [eax-4]
  00015	83 c1 23	 add	 ecx, 35			; 00000023H

; 206  : 
; 207  :     // If the following asserts, it likely means that we are performing
; 208  :     // an aligned delete on memory coming from an unaligned allocation.
; 209  :     _STL_ASSERT(_Ptr_user[-2] == _Big_allocation_sentinel, "invalid argument");
; 210  : 
; 211  :     // Extra paranoia on aligned allocation/deallocation; ensure _Ptr_container is
; 212  :     // in range [_Min_back_shift, _Non_user_size]
; 213  : #ifdef _DEBUG
; 214  :     constexpr uintptr_t _Min_back_shift = 2 * sizeof(void*);
; 215  : #else // ^^^ defined(_DEBUG) / !defined(_DEBUG) vvv
; 216  :     constexpr uintptr_t _Min_back_shift = sizeof(void*);
; 217  : #endif // ^^^ !defined(_DEBUG) ^^^
; 218  :     const uintptr_t _Back_shift = reinterpret_cast<uintptr_t>(_Ptr) - _Ptr_container;

  00018	2b c2		 sub	 eax, edx

; 219  :     _STL_VERIFY(_Back_shift >= _Min_back_shift && _Back_shift <= _Non_user_size, "invalid argument");

  0001a	83 c0 fc	 add	 eax, -4			; fffffffcH
  0001d	83 f8 1f	 cmp	 eax, 31			; 0000001fH
  00020	77 0d		 ja	 SHORT $LN15@Reallocati

; 220  :     _Ptr = reinterpret_cast<void*>(_Ptr_container);

  00022	8b c2		 mov	 eax, edx
$LN16@Reallocati:

; 289  :         ::operator delete(_Ptr, _Bytes);

  00024	51		 push	 ecx
  00025	50		 push	 eax
  00026	e8 00 00 00 00	 call	 ??3@YAXPAXI@Z		; operator delete
  0002b	83 c4 08	 add	 esp, 8
$LN8@Reallocati:
; File C:\Program Files\Microsoft Visual Studio\2022\Community\VC\Tools\MSVC\14.44.35207\include\vector

; 625  :         }

  0002e	c3		 ret	 0
$LN15@Reallocati:
; File C:\Program Files\Microsoft Visual Studio\2022\Community\VC\Tools\MSVC\14.44.35207\include\xmemory

; 219  :     _STL_VERIFY(_Back_shift >= _Min_back_shift && _Back_shift <= _Non_user_size, "invalid argument");

  0002f	6a 00		 push	 0
  00031	6a 00		 push	 0
  00033	6a 00		 push	 0
  00035	6a 00		 push	 0
  00037	6a 00		 push	 0
  00039	e8 00 00 00 00	 call	 __invoke_watson
$LN20@Reallocati:
  0003e	cc		 int	 3
??1_Reallocation_guard@?$vector@EV?$allocator@E@std@@@std@@QAE@XZ ENDP ; std::vector<unsigned char,std::allocator<unsigned char> >::_Reallocation_guard::~_Reallocation_guard
_TEXT	ENDS
; Function compile flags: /Ogtp
; File C:\Program Files\Microsoft Visual Studio\2022\Community\VC\Tools\MSVC\14.44.35207\include\vector
;	COMDAT ?_Calculate_growth@?$vector@EV?$allocator@E@std@@@std@@ABEII@Z
_TEXT	SEGMENT
__Newsize$ = 8						; size = 4
?_Calculate_growth@?$vector@EV?$allocator@E@std@@@std@@ABEII@Z PROC ; std::vector<unsigned char,std::allocator<unsigned char> >::_Calculate_growth, COMDAT
; _this$ = ecx

; 2006 :     _CONSTEXPR20 size_type _Calculate_growth(const size_type _Newsize) const {

  00000	55		 push	 ebp
  00001	8b ec		 mov	 ebp, esp

; 1924 :         return static_cast<size_type>(_My_data._Myend - _My_data._Myfirst);

  00003	8b 51 08	 mov	 edx, DWORD PTR [ecx+8]
  00006	2b 11		 sub	 edx, DWORD PTR [ecx]

; 2007 :         // given _Oldcapacity and _Newsize, calculate geometric growth
; 2008 :         const size_type _Oldcapacity = capacity();
; 2009 :         const auto _Max              = max_size();
; 2010 : 
; 2011 :         if (_Oldcapacity > _Max - _Oldcapacity / 2) {

  00008	b9 ff ff ff 7f	 mov	 ecx, 2147483647		; 7fffffffH
  0000d	56		 push	 esi
  0000e	8b f2		 mov	 esi, edx
  00010	d1 ee		 shr	 esi, 1
  00012	2b ce		 sub	 ecx, esi
  00014	3b d1		 cmp	 edx, ecx
  00016	76 0a		 jbe	 SHORT $LN2@Calculate_

; 2012 :             return _Max; // geometric growth would overflow

  00018	b8 ff ff ff 7f	 mov	 eax, 2147483647		; 7fffffffH
  0001d	5e		 pop	 esi

; 2018 :             return _Newsize; // geometric growth would be insufficient
; 2019 :         }
; 2020 : 
; 2021 :         return _Geometric; // geometric growth is sufficient
; 2022 :     }

  0001e	5d		 pop	 ebp
  0001f	c2 04 00	 ret	 4
$LN2@Calculate_:

; 2013 :         }
; 2014 : 
; 2015 :         const size_type _Geometric = _Oldcapacity + _Oldcapacity / 2;

  00022	8d 04 16	 lea	 eax, DWORD PTR [esi+edx]

; 2016 : 
; 2017 :         if (_Geometric < _Newsize) {

  00025	3b 45 08	 cmp	 eax, DWORD PTR __Newsize$[ebp]
  00028	5e		 pop	 esi
  00029	0f 42 45 08	 cmovb	 eax, DWORD PTR __Newsize$[ebp]

; 2018 :             return _Newsize; // geometric growth would be insufficient
; 2019 :         }
; 2020 : 
; 2021 :         return _Geometric; // geometric growth is sufficient
; 2022 :     }

  0002d	5d		 pop	 ebp
  0002e	c2 04 00	 ret	 4
?_Calculate_growth@?$vector@EV?$allocator@E@std@@@std@@ABEII@Z ENDP ; std::vector<unsigned char,std::allocator<unsigned char> >::_Calculate_growth
_TEXT	ENDS
; Function compile flags: /Ogtp
; File C:\Program Files\Microsoft Visual Studio\2022\Community\VC\Tools\MSVC\14.44.35207\include\xmemory
;	COMDAT ?allocate@?$allocator@E@std@@QAEPAEI@Z
_TEXT	SEGMENT
__Count$ = 8						; size = 4
?allocate@?$allocator@E@std@@QAEPAEI@Z PROC		; std::allocator<unsigned char>::allocate, COMDAT
; _this$ = ecx

; 988  :     _NODISCARD_RAW_PTR_ALLOC _CONSTEXPR20 __declspec(allocator) _Ty* allocate(_CRT_GUARDOVERFLOW const size_t _Count) {

  00000	55		 push	 ebp
  00001	8b ec		 mov	 ebp, esp

; 227  :     if (_Bytes == 0) {

  00003	8b 45 08	 mov	 eax, DWORD PTR __Count$[ebp]
  00006	85 c0		 test	 eax, eax
  00008	75 04		 jne	 SHORT $LN4@allocate

; 989  :         static_assert(sizeof(value_type) > 0, "value_type must be complete before calling allocate.");
; 990  :         return static_cast<_Ty*>(_STD _Allocate<_New_alignof<_Ty>>(_Get_size_of_n<sizeof(_Ty)>(_Count)));
; 991  :     }

  0000a	5d		 pop	 ebp
  0000b	c2 04 00	 ret	 4
$LN4@allocate:

; 251  :         if (_Bytes >= _Big_allocation_threshold) {

  0000e	50		 push	 eax
  0000f	3d 00 10 00 00	 cmp	 eax, 4096		; 00001000H
  00014	72 0c		 jb	 SHORT $LN6@allocate

; 252  :             // boost the alignment of big allocations to help autovectorization
; 253  :             return _Allocate_manually_vector_aligned<_Traits>(_Bytes);

  00016	e8 00 00 00 00	 call	 ??$_Allocate_manually_vector_aligned@U_Default_allocate_traits@std@@@std@@YAPAXI@Z ; std::_Allocate_manually_vector_aligned<std::_Default_allocate_traits>

; 989  :         static_assert(sizeof(value_type) > 0, "value_type must be complete before calling allocate.");
; 990  :         return static_cast<_Ty*>(_STD _Allocate<_New_alignof<_Ty>>(_Get_size_of_n<sizeof(_Ty)>(_Count)));
; 991  :     }

  0001b	83 c4 04	 add	 esp, 4
  0001e	5d		 pop	 ebp
  0001f	c2 04 00	 ret	 4
$LN6@allocate:

; 136  :         return ::operator new(_Bytes);

  00022	e8 00 00 00 00	 call	 ??2@YAPAXI@Z		; operator new

; 989  :         static_assert(sizeof(value_type) > 0, "value_type must be complete before calling allocate.");
; 990  :         return static_cast<_Ty*>(_STD _Allocate<_New_alignof<_Ty>>(_Get_size_of_n<sizeof(_Ty)>(_Count)));
; 991  :     }

  00027	83 c4 04	 add	 esp, 4
  0002a	5d		 pop	 ebp
  0002b	c2 04 00	 ret	 4
?allocate@?$allocator@E@std@@QAEPAEI@Z ENDP		; std::allocator<unsigned char>::allocate
_TEXT	ENDS
; Function compile flags: /Ogtp
; File C:\Program Files\Microsoft Visual Studio\2022\Community\VC\Tools\MSVC\14.44.35207\include\xutility
;	COMDAT ??$construct_at@U?$pair@$$CBKPAVCGuildMarkImage@@@std@@U12@@std@@YAPAU?$pair@$$CBKPAVCGuildMarkImage@@@0@QAU10@$$QAU10@@Z
_TEXT	SEGMENT
??$construct_at@U?$pair@$$CBKPAVCGuildMarkImage@@@std@@U12@@std@@YAPAU?$pair@$$CBKPAVCGuildMarkImage@@@0@QAU10@$$QAU10@@Z PROC ; std::construct_at<std::pair<unsigned long const ,CGuildMarkImage *>,std::pair<unsigned long const ,CGuildMarkImage *> >, COMDAT
; __Location$ = ecx
; _<_Args_0>$ = edx

; 463  :     _MSVC_CONSTEXPR return ::new (static_cast<void*>(_Location)) _Ty(_STD forward<_Types>(_Args)...);

  00000	8b 02		 mov	 eax, DWORD PTR [edx]
  00002	8b 52 04	 mov	 edx, DWORD PTR [edx+4]
  00005	89 01		 mov	 DWORD PTR [ecx], eax
  00007	8b c1		 mov	 eax, ecx
  00009	89 51 04	 mov	 DWORD PTR [ecx+4], edx

; 464  : }

  0000c	c3		 ret	 0
??$construct_at@U?$pair@$$CBKPAVCGuildMarkImage@@@std@@U12@@std@@YAPAU?$pair@$$CBKPAVCGuildMarkImage@@@0@QAU10@$$QAU10@@Z ENDP ; std::construct_at<std::pair<unsigned long const ,CGuildMarkImage *>,std::pair<unsigned long const ,CGuildMarkImage *> >
_TEXT	ENDS
; Function compile flags: /Ogtp
; File C:\Program Files\Microsoft Visual Studio\2022\Community\VC\Tools\MSVC\14.44.35207\include\type_traits
;	COMDAT ??$addressof@PAU?$_Tree_node@U?$pair@$$CBKPAVCGuildMarkImage@@@std@@PAX@std@@@std@@YAPAPAU?$_Tree_node@U?$pair@$$CBKPAVCGuildMarkImage@@@std@@PAX@0@AAPAU10@@Z
_TEXT	SEGMENT
??$addressof@PAU?$_Tree_node@U?$pair@$$CBKPAVCGuildMarkImage@@@std@@PAX@std@@@std@@YAPAPAU?$_Tree_node@U?$pair@$$CBKPAVCGuildMarkImage@@@std@@PAX@0@AAPAU10@@Z PROC ; std::addressof<std::_Tree_node<std::pair<unsigned long const ,CGuildMarkImage *>,void *> *>, COMDAT
; __Val$ = ecx

; 1525 :     return __builtin_addressof(_Val);

  00000	8b c1		 mov	 eax, ecx

; 1526 : }

  00002	c3		 ret	 0
??$addressof@PAU?$_Tree_node@U?$pair@$$CBKPAVCGuildMarkImage@@@std@@PAX@std@@@std@@YAPAPAU?$_Tree_node@U?$pair@$$CBKPAVCGuildMarkImage@@@std@@PAX@0@AAPAU10@@Z ENDP ; std::addressof<std::_Tree_node<std::pair<unsigned long const ,CGuildMarkImage *>,void *> *>
_TEXT	ENDS
; Function compile flags: /Ogtp
; File C:\Program Files\Microsoft Visual Studio\2022\Community\VC\Tools\MSVC\14.44.35207\include\xutility
;	COMDAT ??$construct_at@PAU?$_Tree_node@U?$pair@$$CBKPAVCGuildMarkImage@@@std@@PAX@std@@AAPAU12@@std@@YAPAPAU?$_Tree_node@U?$pair@$$CBKPAVCGuildMarkImage@@@std@@PAX@0@QAPAU10@AAPAU10@@Z
_TEXT	SEGMENT
??$construct_at@PAU?$_Tree_node@U?$pair@$$CBKPAVCGuildMarkImage@@@std@@PAX@std@@AAPAU12@@std@@YAPAPAU?$_Tree_node@U?$pair@$$CBKPAVCGuildMarkImage@@@std@@PAX@0@QAPAU10@AAPAU10@@Z PROC ; std::construct_at<std::_Tree_node<std::pair<unsigned long const ,CGuildMarkImage *>,void *> *,std::_Tree_node<std::pair<unsigned long const ,CGuildMarkImage *>,void *> * &>, COMDAT
; __Location$ = ecx
; _<_Args_0>$ = edx

; 463  :     _MSVC_CONSTEXPR return ::new (static_cast<void*>(_Location)) _Ty(_STD forward<_Types>(_Args)...);

  00000	8b 02		 mov	 eax, DWORD PTR [edx]
  00002	89 01		 mov	 DWORD PTR [ecx], eax
  00004	8b c1		 mov	 eax, ecx

; 464  : }

  00006	c3		 ret	 0
??$construct_at@PAU?$_Tree_node@U?$pair@$$CBKPAVCGuildMarkImage@@@std@@PAX@std@@AAPAU12@@std@@YAPAPAU?$_Tree_node@U?$pair@$$CBKPAVCGuildMarkImage@@@std@@PAX@0@QAPAU10@AAPAU10@@Z ENDP ; std::construct_at<std::_Tree_node<std::pair<unsigned long const ,CGuildMarkImage *>,void *> *,std::_Tree_node<std::pair<unsigned long const ,CGuildMarkImage *>,void *> * &>
_TEXT	ENDS
; Function compile flags: /Ogtp
; File C:\Program Files\Microsoft Visual Studio\2022\Community\VC\Tools\MSVC\14.44.35207\include\tuple
;	COMDAT ??$?0U_Exact_args_t@std@@ABK$$V$0A@@?$tuple@ABK@std@@QAE@U_Exact_args_t@1@ABK@Z
_TEXT	SEGMENT
___formal$ = 8						; size = 1
__This_arg$ = 12					; size = 4
??$?0U_Exact_args_t@std@@ABK$$V$0A@@?$tuple@ABK@std@@QAE@U_Exact_args_t@1@ABK@Z PROC ; std::tuple<unsigned long const &>::tuple<unsigned long const &><std::_Exact_args_t,unsigned long const &,0>, COMDAT
; _this$ = ecx

; 301  :         : _Mybase(_Exact_args_t{}, _STD forward<_Rest2>(_Rest_arg)...), _Myfirst(_STD forward<_This2>(_This_arg)) {}

  00000	55		 push	 ebp
  00001	8b ec		 mov	 ebp, esp

; 132  :     constexpr _Tuple_val(_Other&& _Arg) : _Val(_STD forward<_Other>(_Arg)) {}

  00003	8b 45 0c	 mov	 eax, DWORD PTR __This_arg$[ebp]
  00006	89 01		 mov	 DWORD PTR [ecx], eax

; 301  :         : _Mybase(_Exact_args_t{}, _STD forward<_Rest2>(_Rest_arg)...), _Myfirst(_STD forward<_This2>(_This_arg)) {}

  00008	8b c1		 mov	 eax, ecx
  0000a	5d		 pop	 ebp
  0000b	c2 08 00	 ret	 8
??$?0U_Exact_args_t@std@@ABK$$V$0A@@?$tuple@ABK@std@@QAE@U_Exact_args_t@1@ABK@Z ENDP ; std::tuple<unsigned long const &>::tuple<unsigned long const &><std::_Exact_args_t,unsigned long const &,0>
_TEXT	ENDS
; Function compile flags: /Ogtp
; File C:\Program Files\Microsoft Visual Studio\2022\Community\VC\Tools\MSVC\14.44.35207\include\type_traits
;	COMDAT ??$addressof@PAU?$_Tree_node@U?$pair@$$CBKUTGuildSymbol@CGuildMarkManager@@@std@@PAX@std@@@std@@YAPAPAU?$_Tree_node@U?$pair@$$CBKUTGuildSymbol@CGuildMarkManager@@@std@@PAX@0@AAPAU10@@Z
_TEXT	SEGMENT
??$addressof@PAU?$_Tree_node@U?$pair@$$CBKUTGuildSymbol@CGuildMarkManager@@@std@@PAX@std@@@std@@YAPAPAU?$_Tree_node@U?$pair@$$CBKUTGuildSymbol@CGuildMarkManager@@@std@@PAX@0@AAPAU10@@Z PROC ; std::addressof<std::_Tree_node<std::pair<unsigned long const ,CGuildMarkManager::TGuildSymbol>,void *> *>, COMDAT
; __Val$ = ecx

; 1525 :     return __builtin_addressof(_Val);

  00000	8b c1		 mov	 eax, ecx

; 1526 : }

  00002	c3		 ret	 0
??$addressof@PAU?$_Tree_node@U?$pair@$$CBKUTGuildSymbol@CGuildMarkManager@@@std@@PAX@std@@@std@@YAPAPAU?$_Tree_node@U?$pair@$$CBKUTGuildSymbol@CGuildMarkManager@@@std@@PAX@0@AAPAU10@@Z ENDP ; std::addressof<std::_Tree_node<std::pair<unsigned long const ,CGuildMarkManager::TGuildSymbol>,void *> *>
_TEXT	ENDS
; Function compile flags: /Ogtp
; File C:\Program Files\Microsoft Visual Studio\2022\Community\VC\Tools\MSVC\14.44.35207\include\xmemory
;	COMDAT ??$destroy_at@U?$pair@$$CBKPAVCGuildMarkImage@@@std@@@std@@YAXQAU?$pair@$$CBKPAVCGuildMarkImage@@@0@@Z
_TEXT	SEGMENT
??$destroy_at@U?$pair@$$CBKPAVCGuildMarkImage@@@std@@@std@@YAXQAU?$pair@$$CBKPAVCGuildMarkImage@@@0@@Z PROC ; std::destroy_at<std::pair<unsigned long const ,CGuildMarkImage *> >, COMDAT
; __Location$dead$ = ecx

; 331  : #if _HAS_CXX20
; 332  :     if constexpr (is_array_v<_Ty>) {
; 333  :         _STD _Destroy_range(_STD begin(*_Location), _STD end(*_Location));
; 334  :     } else
; 335  : #endif // _HAS_CXX20
; 336  :     {
; 337  :         _Location->~_Ty();
; 338  :     }
; 339  : }

  00000	c2 00 00	 ret	 0
??$destroy_at@U?$pair@$$CBKPAVCGuildMarkImage@@@std@@@std@@YAXQAU?$pair@$$CBKPAVCGuildMarkImage@@@0@@Z ENDP ; std::destroy_at<std::pair<unsigned long const ,CGuildMarkImage *> >
_TEXT	ENDS
; Function compile flags: /Ogtp
; File C:\Program Files\Microsoft Visual Studio\2022\Community\VC\Tools\MSVC\14.44.35207\include\xutility
;	COMDAT ??$to_address@E@std@@YAPAEQAE@Z
_TEXT	SEGMENT
??$to_address@E@std@@YAPAEQAE@Z PROC			; std::to_address<unsigned char>, COMDAT
; __Val$ = ecx

; 541  :     static_assert(!is_function_v<_Ty>, "N4950 [pointer.conversion]/1: Mandates: T is not a function type.");
; 542  :     return _Val;

  00000	8b c1		 mov	 eax, ecx

; 543  : }

  00002	c3		 ret	 0
??$to_address@E@std@@YAPAEQAE@Z ENDP			; std::to_address<unsigned char>
_TEXT	ENDS
; Function compile flags: /Ogtp
; File C:\Program Files\Microsoft Visual Studio\2022\Community\VC\Tools\MSVC\14.44.35207\include\type_traits
;	COMDAT ??$move@AAPAE@std@@YA$$QAPAEAAPAE@Z
_TEXT	SEGMENT
??$move@AAPAE@std@@YA$$QAPAEAAPAE@Z PROC		; std::move<unsigned char * &>, COMDAT
; __Arg$ = ecx

; 1513 :     return static_cast<remove_reference_t<_Ty>&&>(_Arg);

  00000	8b c1		 mov	 eax, ecx

; 1514 : }

  00002	c3		 ret	 0
??$move@AAPAE@std@@YA$$QAPAEAAPAE@Z ENDP		; std::move<unsigned char * &>
_TEXT	ENDS
; Function compile flags: /Ogtp
; File C:\Program Files\Microsoft Visual Studio\2022\Community\VC\Tools\MSVC\14.44.35207\include\xutility
;	COMDAT ??$_Copy_memmove_tail@PAE@std@@YAPAEQBDQAEII@Z
_TEXT	SEGMENT
__First_ch$ = 8						; size = 4
__Dest$ = 12						; size = 4
__Byte_count$ = 16					; size = 4
__Object_count$ = 20					; size = 4
??$_Copy_memmove_tail@PAE@std@@YAPAEQBDQAEII@Z PROC	; std::_Copy_memmove_tail<unsigned char *>, COMDAT

; 4747 :     const char* const _First_ch, const _OutCtgIt _Dest, const size_t _Byte_count, const size_t _Object_count) {

  00000	55		 push	 ebp
  00001	8b ec		 mov	 ebp, esp
  00003	56		 push	 esi

; 4748 :     _STL_INTERNAL_CHECK(_Byte_count == _Object_count * sizeof(*_Dest));
; 4749 :     const auto _Dest_ptr = _STD _To_address(_Dest);
; 4750 :     const auto _Dest_ch  = const_cast<char*>(reinterpret_cast<const volatile char*>(_Dest_ptr));
; 4751 :     _CSTD memmove(_Dest_ch, _First_ch, _Byte_count);

  00004	8b 75 0c	 mov	 esi, DWORD PTR __Dest$[ebp]
  00007	57		 push	 edi
  00008	8b 7d 10	 mov	 edi, DWORD PTR __Byte_count$[ebp]
  0000b	57		 push	 edi
  0000c	ff 75 08	 push	 DWORD PTR __First_ch$[ebp]
  0000f	56		 push	 esi
  00010	e8 00 00 00 00	 call	 _memmove
  00015	83 c4 0c	 add	 esp, 12			; 0000000cH

; 4752 :     if constexpr (is_pointer_v<_OutCtgIt>) {
; 4753 :         (void) _Object_count;
; 4754 :         // CodeQL [SM02986] This cast is correct: we're bypassing pointer arithmetic for performance.
; 4755 :         return reinterpret_cast<_OutCtgIt>(_Dest_ch + _Byte_count);

  00018	8d 04 3e	 lea	 eax, DWORD PTR [esi+edi]
  0001b	5f		 pop	 edi
  0001c	5e		 pop	 esi

; 4756 :     } else {
; 4757 :         return _Dest + static_cast<_Iter_diff_t<_OutCtgIt>>(_Object_count);
; 4758 :     }
; 4759 : }

  0001d	5d		 pop	 ebp
  0001e	c3		 ret	 0
??$_Copy_memmove_tail@PAE@std@@YAPAEQBDQAEII@Z ENDP	; std::_Copy_memmove_tail<unsigned char *>
_TEXT	ENDS
; Function compile flags: /Ogtp
; File C:\Program Files\Microsoft Visual Studio\2022\Community\VC\Tools\MSVC\14.44.35207\include\type_traits
;	COMDAT ??$forward@E@std@@YA$$QAEAAE@Z
_TEXT	SEGMENT
??$forward@E@std@@YA$$QAEAAE@Z PROC			; std::forward<unsigned char>, COMDAT
; __Arg$ = ecx

; 1502 :     return static_cast<_Ty&&>(_Arg);

  00000	8b c1		 mov	 eax, ecx

; 1503 : }

  00002	c3		 ret	 0
??$forward@E@std@@YA$$QAEAAE@Z ENDP			; std::forward<unsigned char>
_TEXT	ENDS
; Function compile flags: /Ogtp
; File C:\Program Files\Microsoft Visual Studio\2022\Community\VC\Tools\MSVC\14.44.35207\include\xmemory
; File C:\Program Files\Microsoft Visual Studio\2022\Community\VC\Tools\MSVC\14.44.35207\include\xutility
; File C:\Program Files\Microsoft Visual Studio\2022\Community\VC\Tools\MSVC\14.44.35207\include\xmemory
;	COMDAT ??$construct@EE@?$_Default_allocator_traits@V?$allocator@E@std@@@std@@SAXAAV?$allocator@E@1@QAE$$QAE@Z
_TEXT	SEGMENT
_<_Args_0>$ = 8						; size = 4
??$construct@EE@?$_Default_allocator_traits@V?$allocator@E@std@@@std@@SAXAAV?$allocator@E@1@QAE$$QAE@Z PROC ; std::_Default_allocator_traits<std::allocator<unsigned char> >::construct<unsigned char,unsigned char>, COMDAT
; ___formal$dead$ = ecx
; __Ptr$ = edx

; 728  :     static _CONSTEXPR20 void construct(_Alloc&, _Objty* const _Ptr, _Types&&... _Args) {

  00000	55		 push	 ebp
  00001	8b ec		 mov	 ebp, esp
; File C:\Program Files\Microsoft Visual Studio\2022\Community\VC\Tools\MSVC\14.44.35207\include\xutility

; 463  :     _MSVC_CONSTEXPR return ::new (static_cast<void*>(_Location)) _Ty(_STD forward<_Types>(_Args)...);

  00003	8b 45 08	 mov	 eax, DWORD PTR _<_Args_0>$[ebp]
  00006	8a 00		 mov	 al, BYTE PTR [eax]
  00008	88 02		 mov	 BYTE PTR [edx], al
; File C:\Program Files\Microsoft Visual Studio\2022\Community\VC\Tools\MSVC\14.44.35207\include\xmemory

; 734  :     }

  0000a	5d		 pop	 ebp
  0000b	c3		 ret	 0
??$construct@EE@?$_Default_allocator_traits@V?$allocator@E@std@@@std@@SAXAAV?$allocator@E@1@QAE$$QAE@Z ENDP ; std::_Default_allocator_traits<std::allocator<unsigned char> >::construct<unsigned char,unsigned char>
_TEXT	ENDS
; Function compile flags: /Ogtp
; File C:\Program Files\Microsoft Visual Studio\2022\Community\VC\Tools\MSVC\14.44.35207\include\xmemory
; File C:\Program Files\Microsoft Visual Studio\2022\Community\VC\Tools\MSVC\14.44.35207\include\xutility
; File C:\Program Files\Microsoft Visual Studio\2022\Community\VC\Tools\MSVC\14.44.35207\include\xmemory
;	COMDAT ??$construct@E$$V@?$_Default_allocator_traits@V?$allocator@E@std@@@std@@SAXAAV?$allocator@E@1@QAE@Z
_TEXT	SEGMENT
??$construct@E$$V@?$_Default_allocator_traits@V?$allocator@E@std@@@std@@SAXAAV?$allocator@E@1@QAE@Z PROC ; std::_Default_allocator_traits<std::allocator<unsigned char> >::construct<unsigned char>, COMDAT
; ___formal$dead$ = ecx
; __Ptr$ = edx
; File C:\Program Files\Microsoft Visual Studio\2022\Community\VC\Tools\MSVC\14.44.35207\include\xutility

; 463  :     _MSVC_CONSTEXPR return ::new (static_cast<void*>(_Location)) _Ty(_STD forward<_Types>(_Args)...);

  00000	c6 02 00	 mov	 BYTE PTR [edx], 0
; File C:\Program Files\Microsoft Visual Studio\2022\Community\VC\Tools\MSVC\14.44.35207\include\xmemory

; 734  :     }

  00003	c3		 ret	 0
??$construct@E$$V@?$_Default_allocator_traits@V?$allocator@E@std@@@std@@SAXAAV?$allocator@E@1@QAE@Z ENDP ; std::_Default_allocator_traits<std::allocator<unsigned char> >::construct<unsigned char>
_TEXT	ENDS
; Function compile flags: /Ogtp
; File C:\Program Files\Microsoft Visual Studio\2022\Community\VC\Tools\MSVC\14.44.35207\include\xmemory
; File C:\Program Files\Microsoft Visual Studio\2022\Community\VC\Tools\MSVC\14.44.35207\include\vector
; File C:\Program Files\Microsoft Visual Studio\2022\Community\VC\Tools\MSVC\14.44.35207\include\xmemory
;	COMDAT ??$destroy_at@U?$pair@$$CBKUTGuildSymbol@CGuildMarkManager@@@std@@@std@@YAXQAU?$pair@$$CBKUTGuildSymbol@CGuildMarkManager@@@0@@Z
_TEXT	SEGMENT
??$destroy_at@U?$pair@$$CBKUTGuildSymbol@CGuildMarkManager@@@std@@@std@@YAXQAU?$pair@$$CBKUTGuildSymbol@CGuildMarkManager@@@0@@Z PROC ; std::destroy_at<std::pair<unsigned long const ,CGuildMarkManager::TGuildSymbol> >, COMDAT
; __Location$ = ecx

; 330  : _CONSTEXPR20 void destroy_at(_Ty* const _Location) noexcept /* strengthened */ {

  00000	83 c1 08	 add	 ecx, 8
; File C:\Program Files\Microsoft Visual Studio\2022\Community\VC\Tools\MSVC\14.44.35207\include\vector

; 830  :         _Tidy();

  00003	e9 00 00 00 00	 jmp	 ?_Tidy@?$vector@EV?$allocator@E@std@@@std@@AAEXXZ ; std::vector<unsigned char,std::allocator<unsigned char> >::_Tidy
??$destroy_at@U?$pair@$$CBKUTGuildSymbol@CGuildMarkManager@@@std@@@std@@YAXQAU?$pair@$$CBKUTGuildSymbol@CGuildMarkManager@@@0@@Z ENDP ; std::destroy_at<std::pair<unsigned long const ,CGuildMarkManager::TGuildSymbol> >
_TEXT	ENDS
; Function compile flags: /Ogtp
; File C:\Program Files\Microsoft Visual Studio\2022\Community\VC\Tools\MSVC\14.44.35207\include\vector
;	COMDAT ??1?$pair@$$CBKUTGuildSymbol@CGuildMarkManager@@@std@@QAE@XZ
_TEXT	SEGMENT
??1?$pair@$$CBKUTGuildSymbol@CGuildMarkManager@@@std@@QAE@XZ PROC ; std::pair<unsigned long const ,CGuildMarkManager::TGuildSymbol>::~pair<unsigned long const ,CGuildMarkManager::TGuildSymbol>, COMDAT
; _this$ = ecx
  00000	83 c1 08	 add	 ecx, 8

; 830  :         _Tidy();

  00003	e9 00 00 00 00	 jmp	 ?_Tidy@?$vector@EV?$allocator@E@std@@@std@@AAEXXZ ; std::vector<unsigned char,std::allocator<unsigned char> >::_Tidy
??1?$pair@$$CBKUTGuildSymbol@CGuildMarkManager@@@std@@QAE@XZ ENDP ; std::pair<unsigned long const ,CGuildMarkManager::TGuildSymbol>::~pair<unsigned long const ,CGuildMarkManager::TGuildSymbol>
_TEXT	ENDS
; Function compile flags: /Ogtp
; File C:\Program Files\Microsoft Visual Studio\2022\Community\VC\Tools\MSVC\14.44.35207\include\xutility
;	COMDAT ??$_Construct_in_place@PAU?$_Tree_node@U?$pair@$$CBKUTGuildSymbol@CGuildMarkManager@@@std@@PAX@std@@ABQAU12@@std@@YAXAAPAU?$_Tree_node@U?$pair@$$CBKUTGuildSymbol@CGuildMarkManager@@@std@@PAX@0@ABQAU10@@Z
_TEXT	SEGMENT
??$_Construct_in_place@PAU?$_Tree_node@U?$pair@$$CBKUTGuildSymbol@CGuildMarkManager@@@std@@PAX@std@@ABQAU12@@std@@YAXAAPAU?$_Tree_node@U?$pair@$$CBKUTGuildSymbol@CGuildMarkManager@@@std@@PAX@0@ABQAU10@@Z PROC ; std::_Construct_in_place<std::_Tree_node<std::pair<unsigned long const ,CGuildMarkManager::TGuildSymbol>,void *> *,std::_Tree_node<std::pair<unsigned long const ,CGuildMarkManager::TGuildSymbol>,void *> * const &>, COMDAT
; __Obj$ = ecx
; _<_Args_0>$ = edx

; 470  : #if _HAS_CXX20
; 471  :     if (_STD is_constant_evaluated()) {
; 472  :         _STD construct_at(_STD addressof(_Obj), _STD forward<_Types>(_Args)...);
; 473  :     } else
; 474  : #endif // _HAS_CXX20
; 475  :     {
; 476  :         ::new (static_cast<void*>(_STD addressof(_Obj))) _Ty(_STD forward<_Types>(_Args)...);
; 477  :     }
; 478  : }

  00000	8b 02		 mov	 eax, DWORD PTR [edx]
  00002	89 01		 mov	 DWORD PTR [ecx], eax
  00004	c3		 ret	 0
??$_Construct_in_place@PAU?$_Tree_node@U?$pair@$$CBKUTGuildSymbol@CGuildMarkManager@@@std@@PAX@std@@ABQAU12@@std@@YAXAAPAU?$_Tree_node@U?$pair@$$CBKUTGuildSymbol@CGuildMarkManager@@@std@@PAX@0@ABQAU10@@Z ENDP ; std::_Construct_in_place<std::_Tree_node<std::pair<unsigned long const ,CGuildMarkManager::TGuildSymbol>,void *> *,std::_Tree_node<std::pair<unsigned long const ,CGuildMarkManager::TGuildSymbol>,void *> * const &>
_TEXT	ENDS
; Function compile flags: /Ogtp
; File C:\Program Files\Microsoft Visual Studio\2022\Community\VC\Tools\MSVC\14.44.35207\include\xutility
;	COMDAT ??$_Construct_in_place@PAU?$_Tree_node@U?$pair@$$CBKPAVCGuildMarkImage@@@std@@PAX@std@@ABQAU12@@std@@YAXAAPAU?$_Tree_node@U?$pair@$$CBKPAVCGuildMarkImage@@@std@@PAX@0@ABQAU10@@Z
_TEXT	SEGMENT
??$_Construct_in_place@PAU?$_Tree_node@U?$pair@$$CBKPAVCGuildMarkImage@@@std@@PAX@std@@ABQAU12@@std@@YAXAAPAU?$_Tree_node@U?$pair@$$CBKPAVCGuildMarkImage@@@std@@PAX@0@ABQAU10@@Z PROC ; std::_Construct_in_place<std::_Tree_node<std::pair<unsigned long const ,CGuildMarkImage *>,void *> *,std::_Tree_node<std::pair<unsigned long const ,CGuildMarkImage *>,void *> * const &>, COMDAT
; __Obj$ = ecx
; _<_Args_0>$ = edx

; 470  : #if _HAS_CXX20
; 471  :     if (_STD is_constant_evaluated()) {
; 472  :         _STD construct_at(_STD addressof(_Obj), _STD forward<_Types>(_Args)...);
; 473  :     } else
; 474  : #endif // _HAS_CXX20
; 475  :     {
; 476  :         ::new (static_cast<void*>(_STD addressof(_Obj))) _Ty(_STD forward<_Types>(_Args)...);
; 477  :     }
; 478  : }

  00000	8b 02		 mov	 eax, DWORD PTR [edx]
  00002	89 01		 mov	 DWORD PTR [ecx], eax
  00004	c3		 ret	 0
??$_Construct_in_place@PAU?$_Tree_node@U?$pair@$$CBKPAVCGuildMarkImage@@@std@@PAX@std@@ABQAU12@@std@@YAXAAPAU?$_Tree_node@U?$pair@$$CBKPAVCGuildMarkImage@@@std@@PAX@0@ABQAU10@@Z ENDP ; std::_Construct_in_place<std::_Tree_node<std::pair<unsigned long const ,CGuildMarkImage *>,void *> *,std::_Tree_node<std::pair<unsigned long const ,CGuildMarkImage *>,void *> * const &>
_TEXT	ENDS
; Function compile flags: /Ogtp
; File C:\Program Files\Microsoft Visual Studio\2022\Community\VC\Tools\MSVC\14.44.35207\include\xmemory
;	COMDAT ?_Allocate@?$_Alloc_construct_ptr@V?$allocator@U?$_Tree_node@U?$pair@$$CBKPAVCGuildMarkImage@@@std@@PAX@std@@@std@@@std@@QAEXXZ
_TEXT	SEGMENT
?_Allocate@?$_Alloc_construct_ptr@V?$allocator@U?$_Tree_node@U?$pair@$$CBKPAVCGuildMarkImage@@@std@@PAX@std@@@std@@@std@@QAEXXZ PROC ; std::_Alloc_construct_ptr<std::allocator<std::_Tree_node<std::pair<unsigned long const ,CGuildMarkImage *>,void *> > >::_Allocate, COMDAT
; _this$ = ecx

; 1166 :     _CONSTEXPR20 void _Allocate() { // disengage *this, then allocate a new memory block

  00000	56		 push	 esi
  00001	8b f1		 mov	 esi, ecx

; 136  :         return ::operator new(_Bytes);

  00003	6a 18		 push	 24			; 00000018H

; 1167 :         _Ptr = nullptr; // if allocate throws, prevents double-free

  00005	c7 46 04 00 00
	00 00		 mov	 DWORD PTR [esi+4], 0

; 136  :         return ::operator new(_Bytes);

  0000c	e8 00 00 00 00	 call	 ??2@YAPAXI@Z		; operator new
  00011	83 c4 04	 add	 esp, 4

; 1168 :         _Ptr = _Al.allocate(1);

  00014	89 46 04	 mov	 DWORD PTR [esi+4], eax
  00017	5e		 pop	 esi

; 1169 :     }

  00018	c3		 ret	 0
?_Allocate@?$_Alloc_construct_ptr@V?$allocator@U?$_Tree_node@U?$pair@$$CBKPAVCGuildMarkImage@@@std@@PAX@std@@@std@@@std@@QAEXXZ ENDP ; std::_Alloc_construct_ptr<std::allocator<std::_Tree_node<std::pair<unsigned long const ,CGuildMarkImage *>,void *> > >::_Allocate
_TEXT	ENDS
; Function compile flags: /Ogtp
; File C:\Program Files\Microsoft Visual Studio\2022\Community\VC\Tools\MSVC\14.44.35207\include\xmemory
;	COMDAT ??0?$_Alloc_construct_ptr@V?$allocator@U?$_Tree_node@U?$pair@$$CBKPAVCGuildMarkImage@@@std@@PAX@std@@@std@@@std@@QAE@AAV?$allocator@U?$_Tree_node@U?$pair@$$CBKPAVCGuildMarkImage@@@std@@PAX@std@@@1@@Z
_TEXT	SEGMENT
__Al_$ = 8						; size = 4
??0?$_Alloc_construct_ptr@V?$allocator@U?$_Tree_node@U?$pair@$$CBKPAVCGuildMarkImage@@@std@@PAX@std@@@std@@@std@@QAE@AAV?$allocator@U?$_Tree_node@U?$pair@$$CBKPAVCGuildMarkImage@@@std@@PAX@std@@@1@@Z PROC ; std::_Alloc_construct_ptr<std::allocator<std::_Tree_node<std::pair<unsigned long const ,CGuildMarkImage *>,void *> > >::_Alloc_construct_ptr<std::allocator<std::_Tree_node<std::pair<unsigned long const ,CGuildMarkImage *>,void *> > >, COMDAT
; _this$ = ecx

; 1160 :     _CONSTEXPR20 explicit _Alloc_construct_ptr(_Alloc& _Al_) : _Al(_Al_), _Ptr(nullptr) {}

  00000	55		 push	 ebp
  00001	8b ec		 mov	 ebp, esp
  00003	8b 45 08	 mov	 eax, DWORD PTR __Al_$[ebp]
  00006	89 01		 mov	 DWORD PTR [ecx], eax
  00008	8b c1		 mov	 eax, ecx
  0000a	c7 41 04 00 00
	00 00		 mov	 DWORD PTR [ecx+4], 0
  00011	5d		 pop	 ebp
  00012	c2 04 00	 ret	 4
??0?$_Alloc_construct_ptr@V?$allocator@U?$_Tree_node@U?$pair@$$CBKPAVCGuildMarkImage@@@std@@PAX@std@@@std@@@std@@QAE@AAV?$allocator@U?$_Tree_node@U?$pair@$$CBKPAVCGuildMarkImage@@@std@@PAX@std@@@1@@Z ENDP ; std::_Alloc_construct_ptr<std::allocator<std::_Tree_node<std::pair<unsigned long const ,CGuildMarkImage *>,void *> > >::_Alloc_construct_ptr<std::allocator<std::_Tree_node<std::pair<unsigned long const ,CGuildMarkImage *>,void *> > >
_TEXT	ENDS
; Function compile flags: /Ogtp
; File C:\Program Files\Microsoft Visual Studio\2022\Community\VC\Tools\MSVC\14.44.35207\include\xtree
;	COMDAT ??0?$_Tree_val@U?$_Tree_simple_types@U?$pair@$$CBKUTGuildSymbol@CGuildMarkManager@@@std@@@std@@@std@@QAE@XZ
_TEXT	SEGMENT
??0?$_Tree_val@U?$_Tree_simple_types@U?$pair@$$CBKUTGuildSymbol@CGuildMarkManager@@@std@@@std@@@std@@QAE@XZ PROC ; std::_Tree_val<std::_Tree_simple_types<std::pair<unsigned long const ,CGuildMarkManager::TGuildSymbol> > >::_Tree_val<std::_Tree_simple_types<std::pair<unsigned long const ,CGuildMarkManager::TGuildSymbol> > >, COMDAT
; _this$ = ecx

; 450  :     _Tree_val() noexcept : _Myhead(), _Mysize(0) {}

  00000	c7 01 00 00 00
	00		 mov	 DWORD PTR [ecx], 0
  00006	8b c1		 mov	 eax, ecx
  00008	c7 41 04 00 00
	00 00		 mov	 DWORD PTR [ecx+4], 0
  0000f	c3		 ret	 0
??0?$_Tree_val@U?$_Tree_simple_types@U?$pair@$$CBKUTGuildSymbol@CGuildMarkManager@@@std@@@std@@@std@@QAE@XZ ENDP ; std::_Tree_val<std::_Tree_simple_types<std::pair<unsigned long const ,CGuildMarkManager::TGuildSymbol> > >::_Tree_val<std::_Tree_simple_types<std::pair<unsigned long const ,CGuildMarkManager::TGuildSymbol> > >
_TEXT	ENDS
; Function compile flags: /Ogtp
; File C:\Program Files\Microsoft Visual Studio\2022\Community\VC\Tools\MSVC\14.44.35207\include\xmemory
;	COMDAT ?allocate@?$allocator@U?$_Tree_node@U?$pair@$$CBKUTGuildSymbol@CGuildMarkManager@@@std@@PAX@std@@@std@@QAEPAU?$_Tree_node@U?$pair@$$CBKUTGuildSymbol@CGuildMarkManager@@@std@@PAX@2@I@Z
_TEXT	SEGMENT
__Count$dead$ = 8					; size = 4
?allocate@?$allocator@U?$_Tree_node@U?$pair@$$CBKUTGuildSymbol@CGuildMarkManager@@@std@@PAX@std@@@std@@QAEPAU?$_Tree_node@U?$pair@$$CBKUTGuildSymbol@CGuildMarkManager@@@std@@PAX@2@I@Z PROC ; std::allocator<std::_Tree_node<std::pair<unsigned long const ,CGuildMarkManager::TGuildSymbol>,void *> >::allocate, COMDAT
; _this$dead$ = ecx

; 136  :         return ::operator new(_Bytes);

  00000	6a 24		 push	 36			; 00000024H
  00002	e8 00 00 00 00	 call	 ??2@YAPAXI@Z		; operator new
  00007	83 c4 04	 add	 esp, 4

; 989  :         static_assert(sizeof(value_type) > 0, "value_type must be complete before calling allocate.");
; 990  :         return static_cast<_Ty*>(_STD _Allocate<_New_alignof<_Ty>>(_Get_size_of_n<sizeof(_Ty)>(_Count)));
; 991  :     }

  0000a	c2 04 00	 ret	 4
?allocate@?$allocator@U?$_Tree_node@U?$pair@$$CBKUTGuildSymbol@CGuildMarkManager@@@std@@PAX@std@@@std@@QAEPAU?$_Tree_node@U?$pair@$$CBKUTGuildSymbol@CGuildMarkManager@@@std@@PAX@2@I@Z ENDP ; std::allocator<std::_Tree_node<std::pair<unsigned long const ,CGuildMarkManager::TGuildSymbol>,void *> >::allocate
_TEXT	ENDS
; Function compile flags: /Ogtp
; File C:\Program Files\Microsoft Visual Studio\2022\Community\VC\Tools\MSVC\14.44.35207\include\xmemory
;	COMDAT ?deallocate@?$allocator@U?$_Tree_node@U?$pair@$$CBKUTGuildSymbol@CGuildMarkManager@@@std@@PAX@std@@@std@@QAEXQAU?$_Tree_node@U?$pair@$$CBKUTGuildSymbol@CGuildMarkManager@@@std@@PAX@2@I@Z
_TEXT	SEGMENT
__Ptr$ = 8						; size = 4
__Count$dead$ = 12					; size = 4
?deallocate@?$allocator@U?$_Tree_node@U?$pair@$$CBKUTGuildSymbol@CGuildMarkManager@@@std@@PAX@std@@@std@@QAEXQAU?$_Tree_node@U?$pair@$$CBKUTGuildSymbol@CGuildMarkManager@@@std@@PAX@2@I@Z PROC ; std::allocator<std::_Tree_node<std::pair<unsigned long const ,CGuildMarkManager::TGuildSymbol>,void *> >::deallocate, COMDAT
; _this$dead$ = ecx

; 982  :     _CONSTEXPR20 void deallocate(_Ty* const _Ptr, const size_t _Count) noexcept /* strengthened */ {

  00000	55		 push	 ebp
  00001	8b ec		 mov	 ebp, esp

; 289  :         ::operator delete(_Ptr, _Bytes);

  00003	6a 24		 push	 36			; 00000024H
  00005	ff 75 08	 push	 DWORD PTR __Ptr$[ebp]
  00008	e8 00 00 00 00	 call	 ??3@YAXPAXI@Z		; operator delete
  0000d	83 c4 08	 add	 esp, 8

; 983  :         _STL_ASSERT(_Ptr != nullptr || _Count == 0, "null pointer cannot point to a block of non-zero size");
; 984  :         // no overflow check on the following multiply; we assume _Allocate did that check
; 985  :         _STD _Deallocate<_New_alignof<_Ty>>(_Ptr, sizeof(_Ty) * _Count);
; 986  :     }

  00010	5d		 pop	 ebp
  00011	c2 08 00	 ret	 8
?deallocate@?$allocator@U?$_Tree_node@U?$pair@$$CBKUTGuildSymbol@CGuildMarkManager@@@std@@PAX@std@@@std@@QAEXQAU?$_Tree_node@U?$pair@$$CBKUTGuildSymbol@CGuildMarkManager@@@std@@PAX@2@I@Z ENDP ; std::allocator<std::_Tree_node<std::pair<unsigned long const ,CGuildMarkManager::TGuildSymbol>,void *> >::deallocate
_TEXT	ENDS
; Function compile flags: /Ogtp
; File C:\Program Files\Microsoft Visual Studio\2022\Community\VC\Tools\MSVC\14.44.35207\include\xmemory
;	COMDAT ??0?$allocator@U?$_Tree_node@U?$pair@$$CBKUTGuildSymbol@CGuildMarkManager@@@std@@PAX@std@@@std@@QAE@XZ
_TEXT	SEGMENT
??0?$allocator@U?$_Tree_node@U?$pair@$$CBKUTGuildSymbol@CGuildMarkManager@@@std@@PAX@std@@@std@@QAE@XZ PROC ; std::allocator<std::_Tree_node<std::pair<unsigned long const ,CGuildMarkManager::TGuildSymbol>,void *> >::allocator<std::_Tree_node<std::pair<unsigned long const ,CGuildMarkManager::TGuildSymbol>,void *> >, COMDAT
; _this$ = ecx

; 974  :     constexpr allocator() noexcept {}

  00000	8b c1		 mov	 eax, ecx
  00002	c3		 ret	 0
??0?$allocator@U?$_Tree_node@U?$pair@$$CBKUTGuildSymbol@CGuildMarkManager@@@std@@PAX@std@@@std@@QAE@XZ ENDP ; std::allocator<std::_Tree_node<std::pair<unsigned long const ,CGuildMarkManager::TGuildSymbol>,void *> >::allocator<std::_Tree_node<std::pair<unsigned long const ,CGuildMarkManager::TGuildSymbol>,void *> >
_TEXT	ENDS
; Function compile flags: /Ogtp
; File C:\Program Files\Microsoft Visual Studio\2022\Community\VC\Tools\MSVC\14.44.35207\include\xmemory
;	COMDAT ?_Get_first@?$_Compressed_pair@U?$less@K@std@@V?$_Compressed_pair@V?$allocator@U?$_Tree_node@U?$pair@$$CBKPAVCGuildMarkImage@@@std@@PAX@std@@@std@@V?$_Tree_val@U?$_Tree_simple_types@U?$pair@$$CBKPAVCGuildMarkImage@@@std@@@std@@@2@$00@2@$00@std@@QBEABU?$less@K@2@XZ
_TEXT	SEGMENT
?_Get_first@?$_Compressed_pair@U?$less@K@std@@V?$_Compressed_pair@V?$allocator@U?$_Tree_node@U?$pair@$$CBKPAVCGuildMarkImage@@@std@@PAX@std@@@std@@V?$_Tree_val@U?$_Tree_simple_types@U?$pair@$$CBKPAVCGuildMarkImage@@@std@@@std@@@2@$00@2@$00@std@@QBEABU?$less@K@2@XZ PROC ; std::_Compressed_pair<std::less<unsigned long>,std::_Compressed_pair<std::allocator<std::_Tree_node<std::pair<unsigned long const ,CGuildMarkImage *>,void *> >,std::_Tree_val<std::_Tree_simple_types<std::pair<unsigned long const ,CGuildMarkImage *> > >,1>,1>::_Get_first, COMDAT
; _this$ = ecx

; 1543 :         return *this;

  00000	8b c1		 mov	 eax, ecx

; 1544 :     }

  00002	c3		 ret	 0
?_Get_first@?$_Compressed_pair@U?$less@K@std@@V?$_Compressed_pair@V?$allocator@U?$_Tree_node@U?$pair@$$CBKPAVCGuildMarkImage@@@std@@PAX@std@@@std@@V?$_Tree_val@U?$_Tree_simple_types@U?$pair@$$CBKPAVCGuildMarkImage@@@std@@@std@@@2@$00@2@$00@std@@QBEABU?$less@K@2@XZ ENDP ; std::_Compressed_pair<std::less<unsigned long>,std::_Compressed_pair<std::allocator<std::_Tree_node<std::pair<unsigned long const ,CGuildMarkImage *>,void *> >,std::_Tree_val<std::_Tree_simple_types<std::pair<unsigned long const ,CGuildMarkImage *> > >,1>,1>::_Get_first
_TEXT	ENDS
; Function compile flags: /Ogtp
; File C:\Program Files\Microsoft Visual Studio\2022\Community\VC\Tools\MSVC\14.44.35207\include\xtree
;	COMDAT ??0?$_Tree_val@U?$_Tree_simple_types@U?$pair@$$CBKPAVCGuildMarkImage@@@std@@@std@@@std@@QAE@XZ
_TEXT	SEGMENT
??0?$_Tree_val@U?$_Tree_simple_types@U?$pair@$$CBKPAVCGuildMarkImage@@@std@@@std@@@std@@QAE@XZ PROC ; std::_Tree_val<std::_Tree_simple_types<std::pair<unsigned long const ,CGuildMarkImage *> > >::_Tree_val<std::_Tree_simple_types<std::pair<unsigned long const ,CGuildMarkImage *> > >, COMDAT
; _this$ = ecx

; 450  :     _Tree_val() noexcept : _Myhead(), _Mysize(0) {}

  00000	c7 01 00 00 00
	00		 mov	 DWORD PTR [ecx], 0
  00006	8b c1		 mov	 eax, ecx
  00008	c7 41 04 00 00
	00 00		 mov	 DWORD PTR [ecx+4], 0
  0000f	c3		 ret	 0
??0?$_Tree_val@U?$_Tree_simple_types@U?$pair@$$CBKPAVCGuildMarkImage@@@std@@@std@@@std@@QAE@XZ ENDP ; std::_Tree_val<std::_Tree_simple_types<std::pair<unsigned long const ,CGuildMarkImage *> > >::_Tree_val<std::_Tree_simple_types<std::pair<unsigned long const ,CGuildMarkImage *> > >
_TEXT	ENDS
; Function compile flags: /Ogtp
; File C:\Program Files\Microsoft Visual Studio\2022\Community\VC\Tools\MSVC\14.44.35207\include\xmemory
;	COMDAT ?max_size@?$_Default_allocator_traits@V?$allocator@U?$_Tree_node@U?$pair@$$CBKPAVCGuildMarkImage@@@std@@PAX@std@@@std@@@std@@SAIABV?$allocator@U?$_Tree_node@U?$pair@$$CBKPAVCGuildMarkImage@@@std@@PAX@std@@@2@@Z
_TEXT	SEGMENT
?max_size@?$_Default_allocator_traits@V?$allocator@U?$_Tree_node@U?$pair@$$CBKPAVCGuildMarkImage@@@std@@PAX@std@@@std@@@std@@SAIABV?$allocator@U?$_Tree_node@U?$pair@$$CBKPAVCGuildMarkImage@@@std@@PAX@std@@@2@@Z PROC ; std::_Default_allocator_traits<std::allocator<std::_Tree_node<std::pair<unsigned long const ,CGuildMarkImage *>,void *> > >::max_size, COMDAT
; ___formal$dead$ = ecx

; 746  :         return static_cast<size_t>(-1) / sizeof(value_type);

  00000	b8 aa aa aa 0a	 mov	 eax, 178956970		; 0aaaaaaaH

; 747  :     }

  00005	c3		 ret	 0
?max_size@?$_Default_allocator_traits@V?$allocator@U?$_Tree_node@U?$pair@$$CBKPAVCGuildMarkImage@@@std@@PAX@std@@@std@@@std@@SAIABV?$allocator@U?$_Tree_node@U?$pair@$$CBKPAVCGuildMarkImage@@@std@@PAX@std@@@2@@Z ENDP ; std::_Default_allocator_traits<std::allocator<std::_Tree_node<std::pair<unsigned long const ,CGuildMarkImage *>,void *> > >::max_size
_TEXT	ENDS
; Function compile flags: /Ogtp
; File C:\Program Files\Microsoft Visual Studio\2022\Community\VC\Tools\MSVC\14.44.35207\include\xmemory
;	COMDAT ?allocate@?$allocator@U?$_Tree_node@U?$pair@$$CBKPAVCGuildMarkImage@@@std@@PAX@std@@@std@@QAEPAU?$_Tree_node@U?$pair@$$CBKPAVCGuildMarkImage@@@std@@PAX@2@I@Z
_TEXT	SEGMENT
__Count$dead$ = 8					; size = 4
?allocate@?$allocator@U?$_Tree_node@U?$pair@$$CBKPAVCGuildMarkImage@@@std@@PAX@std@@@std@@QAEPAU?$_Tree_node@U?$pair@$$CBKPAVCGuildMarkImage@@@std@@PAX@2@I@Z PROC ; std::allocator<std::_Tree_node<std::pair<unsigned long const ,CGuildMarkImage *>,void *> >::allocate, COMDAT
; _this$dead$ = ecx

; 136  :         return ::operator new(_Bytes);

  00000	6a 18		 push	 24			; 00000018H
  00002	e8 00 00 00 00	 call	 ??2@YAPAXI@Z		; operator new
  00007	83 c4 04	 add	 esp, 4

; 989  :         static_assert(sizeof(value_type) > 0, "value_type must be complete before calling allocate.");
; 990  :         return static_cast<_Ty*>(_STD _Allocate<_New_alignof<_Ty>>(_Get_size_of_n<sizeof(_Ty)>(_Count)));
; 991  :     }

  0000a	c2 04 00	 ret	 4
?allocate@?$allocator@U?$_Tree_node@U?$pair@$$CBKPAVCGuildMarkImage@@@std@@PAX@std@@@std@@QAEPAU?$_Tree_node@U?$pair@$$CBKPAVCGuildMarkImage@@@std@@PAX@2@I@Z ENDP ; std::allocator<std::_Tree_node<std::pair<unsigned long const ,CGuildMarkImage *>,void *> >::allocate
_TEXT	ENDS
; Function compile flags: /Ogtp
; File C:\Program Files\Microsoft Visual Studio\2022\Community\VC\Tools\MSVC\14.44.35207\include\xmemory
;	COMDAT ?deallocate@?$allocator@U?$_Tree_node@U?$pair@$$CBKPAVCGuildMarkImage@@@std@@PAX@std@@@std@@QAEXQAU?$_Tree_node@U?$pair@$$CBKPAVCGuildMarkImage@@@std@@PAX@2@I@Z
_TEXT	SEGMENT
__Ptr$ = 8						; size = 4
__Count$dead$ = 12					; size = 4
?deallocate@?$allocator@U?$_Tree_node@U?$pair@$$CBKPAVCGuildMarkImage@@@std@@PAX@std@@@std@@QAEXQAU?$_Tree_node@U?$pair@$$CBKPAVCGuildMarkImage@@@std@@PAX@2@I@Z PROC ; std::allocator<std::_Tree_node<std::pair<unsigned long const ,CGuildMarkImage *>,void *> >::deallocate, COMDAT
; _this$dead$ = ecx

; 982  :     _CONSTEXPR20 void deallocate(_Ty* const _Ptr, const size_t _Count) noexcept /* strengthened */ {

  00000	55		 push	 ebp
  00001	8b ec		 mov	 ebp, esp

; 289  :         ::operator delete(_Ptr, _Bytes);

  00003	6a 18		 push	 24			; 00000018H
  00005	ff 75 08	 push	 DWORD PTR __Ptr$[ebp]
  00008	e8 00 00 00 00	 call	 ??3@YAXPAXI@Z		; operator delete
  0000d	83 c4 08	 add	 esp, 8

; 983  :         _STL_ASSERT(_Ptr != nullptr || _Count == 0, "null pointer cannot point to a block of non-zero size");
; 984  :         // no overflow check on the following multiply; we assume _Allocate did that check
; 985  :         _STD _Deallocate<_New_alignof<_Ty>>(_Ptr, sizeof(_Ty) * _Count);
; 986  :     }

  00010	5d		 pop	 ebp
  00011	c2 08 00	 ret	 8
?deallocate@?$allocator@U?$_Tree_node@U?$pair@$$CBKPAVCGuildMarkImage@@@std@@PAX@std@@@std@@QAEXQAU?$_Tree_node@U?$pair@$$CBKPAVCGuildMarkImage@@@std@@PAX@2@I@Z ENDP ; std::allocator<std::_Tree_node<std::pair<unsigned long const ,CGuildMarkImage *>,void *> >::deallocate
_TEXT	ENDS
; Function compile flags: /Ogtp
; File C:\Program Files\Microsoft Visual Studio\2022\Community\VC\Tools\MSVC\14.44.35207\include\xmemory
;	COMDAT ??0?$allocator@U?$_Tree_node@U?$pair@$$CBKPAVCGuildMarkImage@@@std@@PAX@std@@@std@@QAE@XZ
_TEXT	SEGMENT
??0?$allocator@U?$_Tree_node@U?$pair@$$CBKPAVCGuildMarkImage@@@std@@PAX@std@@@std@@QAE@XZ PROC ; std::allocator<std::_Tree_node<std::pair<unsigned long const ,CGuildMarkImage *>,void *> >::allocator<std::_Tree_node<std::pair<unsigned long const ,CGuildMarkImage *>,void *> >, COMDAT
; _this$ = ecx

; 974  :     constexpr allocator() noexcept {}

  00000	8b c1		 mov	 eax, ecx
  00002	c3		 ret	 0
??0?$allocator@U?$_Tree_node@U?$pair@$$CBKPAVCGuildMarkImage@@@std@@PAX@std@@@std@@QAE@XZ ENDP ; std::allocator<std::_Tree_node<std::pair<unsigned long const ,CGuildMarkImage *>,void *> >::allocator<std::_Tree_node<std::pair<unsigned long const ,CGuildMarkImage *>,void *> >
_TEXT	ENDS
; Function compile flags: /Ogtp
; File C:\Program Files\Microsoft Visual Studio\2022\Community\VC\Tools\MSVC\14.44.35207\include\xtree
;	COMDAT ?_Getal@?$_Tree@V?$_Tmap_traits@KPAVCGuildMarkImage@@U?$less@K@std@@V?$allocator@U?$pair@$$CBKPAVCGuildMarkImage@@@std@@@3@$0A@@std@@@std@@IBEABV?$allocator@U?$_Tree_node@U?$pair@$$CBKPAVCGuildMarkImage@@@std@@PAX@std@@@2@XZ
_TEXT	SEGMENT
?_Getal@?$_Tree@V?$_Tmap_traits@KPAVCGuildMarkImage@@U?$less@K@std@@V?$allocator@U?$pair@$$CBKPAVCGuildMarkImage@@@std@@@3@$0A@@std@@@std@@IBEABV?$allocator@U?$_Tree_node@U?$pair@$$CBKPAVCGuildMarkImage@@@std@@PAX@std@@@2@XZ PROC ; std::_Tree<std::_Tmap_traits<unsigned long,CGuildMarkImage *,std::less<unsigned long>,std::allocator<std::pair<unsigned long const ,CGuildMarkImage *> >,0> >::_Getal, COMDAT
; _this$ = ecx

; 1979 :         return _Mypair._Myval2._Get_first();

  00000	8b c1		 mov	 eax, ecx

; 1980 :     }

  00002	c3		 ret	 0
?_Getal@?$_Tree@V?$_Tmap_traits@KPAVCGuildMarkImage@@U?$less@K@std@@V?$allocator@U?$pair@$$CBKPAVCGuildMarkImage@@@std@@@3@$0A@@std@@@std@@IBEABV?$allocator@U?$_Tree_node@U?$pair@$$CBKPAVCGuildMarkImage@@@std@@PAX@std@@@2@XZ ENDP ; std::_Tree<std::_Tmap_traits<unsigned long,CGuildMarkImage *,std::less<unsigned long>,std::allocator<std::pair<unsigned long const ,CGuildMarkImage *> >,0> >::_Getal
_TEXT	ENDS
; Function compile flags: /Ogtp
; File C:\Program Files\Microsoft Visual Studio\2022\Community\VC\Tools\MSVC\14.44.35207\include\tuple
;	COMDAT ??0?$tuple@ABK@std@@QAE@$$QAV01@@Z
_TEXT	SEGMENT
___that$ = 8						; size = 4
??0?$tuple@ABK@std@@QAE@$$QAV01@@Z PROC			; std::tuple<unsigned long const &>::tuple<unsigned long const &>, COMDAT
; _this$ = ecx

; 352  :     tuple(tuple&&)      = default;

  00000	55		 push	 ebp
  00001	8b ec		 mov	 ebp, esp
  00003	8b 45 08	 mov	 eax, DWORD PTR ___that$[ebp]
  00006	8b 00		 mov	 eax, DWORD PTR [eax]
  00008	89 01		 mov	 DWORD PTR [ecx], eax
  0000a	8b c1		 mov	 eax, ecx
  0000c	5d		 pop	 ebp
  0000d	c2 04 00	 ret	 4
??0?$tuple@ABK@std@@QAE@$$QAV01@@Z ENDP			; std::tuple<unsigned long const &>::tuple<unsigned long const &>
_TEXT	ENDS
; Function compile flags: /Ogtp
; File C:\Program Files\Microsoft Visual Studio\2022\Community\VC\Tools\MSVC\14.44.35207\include\vector
;	COMDAT ??_G?$pair@$$CBKUTGuildSymbol@CGuildMarkManager@@@std@@QAEPAXI@Z
_TEXT	SEGMENT
___flags$dead$ = 8					; size = 4
??_G?$pair@$$CBKUTGuildSymbol@CGuildMarkManager@@@std@@QAEPAXI@Z PROC ; std::pair<unsigned long const ,CGuildMarkManager::TGuildSymbol>::`scalar deleting destructor', COMDAT
; _this$ = ecx

; 830  :         _Tidy();

  00000	56		 push	 esi
  00001	8b f1		 mov	 esi, ecx
  00003	8d 4e 08	 lea	 ecx, DWORD PTR [esi+8]
  00006	e8 00 00 00 00	 call	 ?_Tidy@?$vector@EV?$allocator@E@std@@@std@@AAEXXZ ; std::vector<unsigned char,std::allocator<unsigned char> >::_Tidy
  0000b	8b c6		 mov	 eax, esi
  0000d	5e		 pop	 esi
  0000e	c2 04 00	 ret	 4
??_G?$pair@$$CBKUTGuildSymbol@CGuildMarkManager@@@std@@QAEPAXI@Z ENDP ; std::pair<unsigned long const ,CGuildMarkManager::TGuildSymbol>::`scalar deleting destructor'
_TEXT	ENDS
; Function compile flags: /Ogtp
; File C:\Program Files\Microsoft Visual Studio\2022\Community\VC\Tools\MSVC\14.44.35207\include\tuple
;	COMDAT ??$?0U_Exact_args_t@std@@$0A@@?$tuple@$$V@std@@QAE@U_Exact_args_t@1@@Z
_TEXT	SEGMENT
___formal$ = 8						; size = 1
??$?0U_Exact_args_t@std@@$0A@@?$tuple@$$V@std@@QAE@U_Exact_args_t@1@@Z PROC ; std::tuple<>::tuple<><std::_Exact_args_t,0>, COMDAT
; _this$ = ecx

; 235  :     constexpr tuple(_Tag) noexcept /* strengthened */ {}

  00000	8b c1		 mov	 eax, ecx
  00002	c2 04 00	 ret	 4
??$?0U_Exact_args_t@std@@$0A@@?$tuple@$$V@std@@QAE@U_Exact_args_t@1@@Z ENDP ; std::tuple<>::tuple<><std::_Exact_args_t,0>
_TEXT	ENDS
; Function compile flags: /Ogtp
; File C:\Program Files\Microsoft Visual Studio\2022\Community\VC\Tools\MSVC\14.44.35207\include\tuple
;	COMDAT ??$?0ABK@?$_Tuple_val@ABK@std@@QAE@ABK@Z
_TEXT	SEGMENT
__Arg$ = 8						; size = 4
??$?0ABK@?$_Tuple_val@ABK@std@@QAE@ABK@Z PROC		; std::_Tuple_val<unsigned long const &>::_Tuple_val<unsigned long const &><unsigned long const &>, COMDAT
; _this$ = ecx

; 132  :     constexpr _Tuple_val(_Other&& _Arg) : _Val(_STD forward<_Other>(_Arg)) {}

  00000	55		 push	 ebp
  00001	8b ec		 mov	 ebp, esp
  00003	8b 45 08	 mov	 eax, DWORD PTR __Arg$[ebp]
  00006	89 01		 mov	 DWORD PTR [ecx], eax
  00008	8b c1		 mov	 eax, ecx
  0000a	5d		 pop	 ebp
  0000b	c2 04 00	 ret	 4
??$?0ABK@?$_Tuple_val@ABK@std@@QAE@ABK@Z ENDP		; std::_Tuple_val<unsigned long const &>::_Tuple_val<unsigned long const &><unsigned long const &>
_TEXT	ENDS
; Function compile flags: /Ogtp
; File C:\Program Files\Microsoft Visual Studio\2022\Community\VC\Tools\MSVC\14.44.35207\include\xutility
;	COMDAT ??$construct_at@EE@std@@YAPAEQAE$$QAE@Z
_TEXT	SEGMENT
??$construct_at@EE@std@@YAPAEQAE$$QAE@Z PROC		; std::construct_at<unsigned char,unsigned char>, COMDAT
; __Location$ = ecx
; _<_Args_0>$ = edx

; 463  :     _MSVC_CONSTEXPR return ::new (static_cast<void*>(_Location)) _Ty(_STD forward<_Types>(_Args)...);

  00000	8a 02		 mov	 al, BYTE PTR [edx]
  00002	88 01		 mov	 BYTE PTR [ecx], al
  00004	8b c1		 mov	 eax, ecx

; 464  : }

  00006	c3		 ret	 0
??$construct_at@EE@std@@YAPAEQAE$$QAE@Z ENDP		; std::construct_at<unsigned char,unsigned char>
_TEXT	ENDS
; Function compile flags: /Ogtp
; File C:\Program Files\Microsoft Visual Studio\2022\Community\VC\Tools\MSVC\14.44.35207\include\xutility
;	COMDAT ??$construct_at@E$$V@std@@YAPAEQAE@Z
_TEXT	SEGMENT
??$construct_at@E$$V@std@@YAPAEQAE@Z PROC		; std::construct_at<unsigned char>, COMDAT
; __Location$ = ecx

; 463  :     _MSVC_CONSTEXPR return ::new (static_cast<void*>(_Location)) _Ty(_STD forward<_Types>(_Args)...);

  00000	c6 01 00	 mov	 BYTE PTR [ecx], 0
  00003	8b c1		 mov	 eax, ecx

; 464  : }

  00005	c3		 ret	 0
??$construct_at@E$$V@std@@YAPAEQAE@Z ENDP		; std::construct_at<unsigned char>
_TEXT	ENDS
; Function compile flags: /Ogtp
; File C:\Program Files\Microsoft Visual Studio\2022\Community\VC\Tools\MSVC\14.44.35207\include\xutility
;	COMDAT ??$construct_at@PAU?$_Tree_node@U?$pair@$$CBKUTGuildSymbol@CGuildMarkManager@@@std@@PAX@std@@ABQAU12@@std@@YAPAPAU?$_Tree_node@U?$pair@$$CBKUTGuildSymbol@CGuildMarkManager@@@std@@PAX@0@QAPAU10@ABQAU10@@Z
_TEXT	SEGMENT
??$construct_at@PAU?$_Tree_node@U?$pair@$$CBKUTGuildSymbol@CGuildMarkManager@@@std@@PAX@std@@ABQAU12@@std@@YAPAPAU?$_Tree_node@U?$pair@$$CBKUTGuildSymbol@CGuildMarkManager@@@std@@PAX@0@QAPAU10@ABQAU10@@Z PROC ; std::construct_at<std::_Tree_node<std::pair<unsigned long const ,CGuildMarkManager::TGuildSymbol>,void *> *,std::_Tree_node<std::pair<unsigned long const ,CGuildMarkManager::TGuildSymbol>,void *> * const &>, COMDAT
; __Location$ = ecx
; _<_Args_0>$ = edx

; 463  :     _MSVC_CONSTEXPR return ::new (static_cast<void*>(_Location)) _Ty(_STD forward<_Types>(_Args)...);

  00000	8b 02		 mov	 eax, DWORD PTR [edx]
  00002	89 01		 mov	 DWORD PTR [ecx], eax
  00004	8b c1		 mov	 eax, ecx

; 464  : }

  00006	c3		 ret	 0
??$construct_at@PAU?$_Tree_node@U?$pair@$$CBKUTGuildSymbol@CGuildMarkManager@@@std@@PAX@std@@ABQAU12@@std@@YAPAPAU?$_Tree_node@U?$pair@$$CBKUTGuildSymbol@CGuildMarkManager@@@std@@PAX@0@QAPAU10@ABQAU10@@Z ENDP ; std::construct_at<std::_Tree_node<std::pair<unsigned long const ,CGuildMarkManager::TGuildSymbol>,void *> *,std::_Tree_node<std::pair<unsigned long const ,CGuildMarkManager::TGuildSymbol>,void *> * const &>
_TEXT	ENDS
; Function compile flags: /Ogtp
; File C:\Program Files\Microsoft Visual Studio\2022\Community\VC\Tools\MSVC\14.44.35207\include\type_traits
;	COMDAT ??$forward@ABQAU?$_Tree_node@U?$pair@$$CBKPAVCGuildMarkImage@@@std@@PAX@std@@@std@@YAABQAU?$_Tree_node@U?$pair@$$CBKPAVCGuildMarkImage@@@std@@PAX@0@ABQAU10@@Z
_TEXT	SEGMENT
??$forward@ABQAU?$_Tree_node@U?$pair@$$CBKPAVCGuildMarkImage@@@std@@PAX@std@@@std@@YAABQAU?$_Tree_node@U?$pair@$$CBKPAVCGuildMarkImage@@@std@@PAX@0@ABQAU10@@Z PROC ; std::forward<std::_Tree_node<std::pair<unsigned long const ,CGuildMarkImage *>,void *> * const &>, COMDAT
; __Arg$ = ecx

; 1502 :     return static_cast<_Ty&&>(_Arg);

  00000	8b c1		 mov	 eax, ecx

; 1503 : }

  00002	c3		 ret	 0
??$forward@ABQAU?$_Tree_node@U?$pair@$$CBKPAVCGuildMarkImage@@@std@@PAX@std@@@std@@YAABQAU?$_Tree_node@U?$pair@$$CBKPAVCGuildMarkImage@@@std@@PAX@0@ABQAU10@@Z ENDP ; std::forward<std::_Tree_node<std::pair<unsigned long const ,CGuildMarkImage *>,void *> * const &>
_TEXT	ENDS
; Function compile flags: /Ogtp
; File C:\Program Files\Microsoft Visual Studio\2022\Community\VC\Tools\MSVC\14.44.35207\include\xutility
;	COMDAT ??$construct_at@PAU?$_Tree_node@U?$pair@$$CBKPAVCGuildMarkImage@@@std@@PAX@std@@ABQAU12@@std@@YAPAPAU?$_Tree_node@U?$pair@$$CBKPAVCGuildMarkImage@@@std@@PAX@0@QAPAU10@ABQAU10@@Z
_TEXT	SEGMENT
??$construct_at@PAU?$_Tree_node@U?$pair@$$CBKPAVCGuildMarkImage@@@std@@PAX@std@@ABQAU12@@std@@YAPAPAU?$_Tree_node@U?$pair@$$CBKPAVCGuildMarkImage@@@std@@PAX@0@QAPAU10@ABQAU10@@Z PROC ; std::construct_at<std::_Tree_node<std::pair<unsigned long const ,CGuildMarkImage *>,void *> *,std::_Tree_node<std::pair<unsigned long const ,CGuildMarkImage *>,void *> * const &>, COMDAT
; __Location$ = ecx
; _<_Args_0>$ = edx

; 463  :     _MSVC_CONSTEXPR return ::new (static_cast<void*>(_Location)) _Ty(_STD forward<_Types>(_Args)...);

  00000	8b 02		 mov	 eax, DWORD PTR [edx]
  00002	89 01		 mov	 DWORD PTR [ecx], eax
  00004	8b c1		 mov	 eax, ecx

; 464  : }

  00006	c3		 ret	 0
??$construct_at@PAU?$_Tree_node@U?$pair@$$CBKPAVCGuildMarkImage@@@std@@PAX@std@@ABQAU12@@std@@YAPAPAU?$_Tree_node@U?$pair@$$CBKPAVCGuildMarkImage@@@std@@PAX@0@QAPAU10@ABQAU10@@Z ENDP ; std::construct_at<std::_Tree_node<std::pair<unsigned long const ,CGuildMarkImage *>,void *> *,std::_Tree_node<std::pair<unsigned long const ,CGuildMarkImage *>,void *> * const &>
_TEXT	ENDS
; Function compile flags: /Ogtp
; File C:\Program Files\Microsoft Visual Studio\2022\Community\VC\Tools\MSVC\14.44.35207\include\type_traits
;	COMDAT ??$forward@ABE@std@@YAABEABE@Z
_TEXT	SEGMENT
??$forward@ABE@std@@YAABEABE@Z PROC			; std::forward<unsigned char const &>, COMDAT
; __Arg$ = ecx

; 1502 :     return static_cast<_Ty&&>(_Arg);

  00000	8b c1		 mov	 eax, ecx

; 1503 : }

  00002	c3		 ret	 0
??$forward@ABE@std@@YAABEABE@Z ENDP			; std::forward<unsigned char const &>
_TEXT	ENDS
; Function compile flags: /Ogtp
; File C:\Program Files\Microsoft Visual Studio\2022\Community\VC\Tools\MSVC\14.44.35207\include\vector
; File C:\Program Files\Microsoft Visual Studio\2022\Community\VC\Tools\MSVC\14.44.35207\include\xmemory
; File C:\Program Files\Microsoft Visual Studio\2022\Community\VC\Tools\MSVC\14.44.35207\include\vector
; File C:\Program Files\Microsoft Visual Studio\2022\Community\VC\Tools\MSVC\14.44.35207\include\xmemory
; File C:\Program Files\Microsoft Visual Studio\2022\Community\VC\Tools\MSVC\14.44.35207\include\vector
; File C:\Program Files\Microsoft Visual Studio\2022\Community\VC\Tools\MSVC\14.44.35207\include\xmemory
; File C:\Program Files\Microsoft Visual Studio\2022\Community\VC\Tools\MSVC\14.44.35207\include\vector
; File C:\Program Files\Microsoft Visual Studio\2022\Community\VC\Tools\MSVC\14.44.35207\include\xmemory
; File C:\Program Files\Microsoft Visual Studio\2022\Community\VC\Tools\MSVC\14.44.35207\include\vector
; File C:\Program Files\Microsoft Visual Studio\2022\Community\VC\Tools\MSVC\14.44.35207\include\xmemory
; File C:\Program Files\Microsoft Visual Studio\2022\Community\VC\Tools\MSVC\14.44.35207\include\vector
; File C:\Program Files\Microsoft Visual Studio\2022\Community\VC\Tools\MSVC\14.44.35207\include\xmemory
; File C:\Program Files\Microsoft Visual Studio\2022\Community\VC\Tools\MSVC\14.44.35207\include\vector
;	COMDAT ??$_Emplace_reallocate@ABE@?$vector@EV?$allocator@E@std@@@std@@AAEPAEQAEABE@Z
_TEXT	SEGMENT
__Newsize$1$ = -12					; size = 4
tv601 = -8						; size = 4
__Whereoff$1$ = -4					; size = 4
__Whereptr$ = 8						; size = 4
_<_Val_0>$ = 12						; size = 4
??$_Emplace_reallocate@ABE@?$vector@EV?$allocator@E@std@@@std@@AAEPAEQAEABE@Z PROC ; std::vector<unsigned char,std::allocator<unsigned char> >::_Emplace_reallocate<unsigned char const &>, COMDAT
; _this$ = ecx

; 875  :     _CONSTEXPR20 pointer _Emplace_reallocate(const pointer _Whereptr, _Valty&&... _Val) {

  00000	55		 push	 ebp
  00001	8b ec		 mov	 ebp, esp
  00003	83 ec 0c	 sub	 esp, 12			; 0000000cH

; 876  :         // reallocate and insert by perfectly forwarding _Val at _Whereptr
; 877  :         _Alty& _Al        = _Getal();
; 878  :         auto& _My_data    = _Mypair._Myval2;
; 879  :         pointer& _Myfirst = _My_data._Myfirst;
; 880  :         pointer& _Mylast  = _My_data._Mylast;
; 881  : 
; 882  :         _STL_INTERNAL_CHECK(_Mylast == _My_data._Myend); // check that we have no unused capacity
; 883  : 
; 884  :         const auto _Whereoff = static_cast<size_type>(_Whereptr - _Myfirst);

  00006	8b 45 08	 mov	 eax, DWORD PTR __Whereptr$[ebp]
  00009	53		 push	 ebx
  0000a	8b d9		 mov	 ebx, ecx
  0000c	8b 0b		 mov	 ecx, DWORD PTR [ebx]
  0000e	2b c1		 sub	 eax, ecx
  00010	89 45 fc	 mov	 DWORD PTR __Whereoff$1$[ebp], eax

; 885  :         const auto _Oldsize  = static_cast<size_type>(_Mylast - _Myfirst);

  00013	8b 43 04	 mov	 eax, DWORD PTR [ebx+4]
  00016	2b c1		 sub	 eax, ecx

; 886  : 
; 887  :         if (_Oldsize == max_size()) {

  00018	3d ff ff ff 7f	 cmp	 eax, 2147483647		; 7fffffffH
  0001d	0f 84 ae 00 00
	00		 je	 $LN103@Emplace_re

; 1924 :         return static_cast<size_type>(_My_data._Myend - _My_data._Myfirst);

  00023	8b 53 08	 mov	 edx, DWORD PTR [ebx+8]
  00026	2b d1		 sub	 edx, ecx
  00028	56		 push	 esi
  00029	57		 push	 edi

; 889  :         }
; 890  : 
; 891  :         const size_type _Newsize = _Oldsize + 1;

  0002a	8d 78 01	 lea	 edi, DWORD PTR [eax+1]

; 2011 :         if (_Oldcapacity > _Max - _Oldcapacity / 2) {

  0002d	8b ca		 mov	 ecx, edx
  0002f	d1 e9		 shr	 ecx, 1
  00031	b8 ff ff ff 7f	 mov	 eax, 2147483647		; 7fffffffH
  00036	2b c1		 sub	 eax, ecx

; 889  :         }
; 890  : 
; 891  :         const size_type _Newsize = _Oldsize + 1;

  00038	89 7d f4	 mov	 DWORD PTR __Newsize$1$[ebp], edi

; 2011 :         if (_Oldcapacity > _Max - _Oldcapacity / 2) {

  0003b	3b d0		 cmp	 edx, eax
  0003d	76 0d		 jbe	 SHORT $LN8@Emplace_re

; 2012 :             return _Max; // geometric growth would overflow

  0003f	be ff ff ff 7f	 mov	 esi, 2147483647		; 7fffffffH
; File C:\Program Files\Microsoft Visual Studio\2022\Community\VC\Tools\MSVC\14.44.35207\include\xmemory

; 253  :             return _Allocate_manually_vector_aligned<_Traits>(_Bytes);

  00044	56		 push	 esi
  00045	e8 00 00 00 00	 call	 ??$_Allocate_manually_vector_aligned@U_Default_allocate_traits@std@@@std@@YAPAXI@Z ; std::_Allocate_manually_vector_aligned<std::_Default_allocate_traits>
  0004a	eb 29		 jmp	 SHORT $LN101@Emplace_re
$LN8@Emplace_re:
; File C:\Program Files\Microsoft Visual Studio\2022\Community\VC\Tools\MSVC\14.44.35207\include\vector

; 2015 :         const size_type _Geometric = _Oldcapacity + _Oldcapacity / 2;

  0004c	8d 04 11	 lea	 eax, DWORD PTR [ecx+edx]
; File C:\Program Files\Microsoft Visual Studio\2022\Community\VC\Tools\MSVC\14.44.35207\include\xmemory

; 227  :     if (_Bytes == 0) {

  0004f	8b f7		 mov	 esi, edi
  00051	3b c7		 cmp	 eax, edi
  00053	0f 43 f0	 cmovae	 esi, eax
  00056	8b c6		 mov	 eax, esi
  00058	85 f6		 test	 esi, esi
  0005a	75 04		 jne	 SHORT $LN19@Emplace_re

; 228  :         return nullptr;

  0005c	33 ff		 xor	 edi, edi
  0005e	eb 1a		 jmp	 SHORT $LN18@Emplace_re
$LN19@Emplace_re:

; 229  :     }
; 230  : 
; 231  : #if _HAS_CXX20 // TRANSITION, GH-1532
; 232  :     if (_STD is_constant_evaluated()) {
; 233  :         return _Traits::_Allocate(_Bytes);
; 234  :     }
; 235  : #endif // _HAS_CXX20
; 236  : 
; 237  : #ifdef __cpp_aligned_new
; 238  :     if constexpr (_Align > __STDCPP_DEFAULT_NEW_ALIGNMENT__) {
; 239  :         size_t _Passed_align = _Align;
; 240  : #if defined(_M_IX86) || defined(_M_X64)
; 241  :         if (_Bytes >= _Big_allocation_threshold) {
; 242  :             // boost the alignment of big allocations to help autovectorization
; 243  :             _Passed_align = (_STD max)(_Align, _Big_allocation_alignment);
; 244  :         }
; 245  : #endif // defined(_M_IX86) || defined(_M_X64)
; 246  :         return _Traits::_Allocate_aligned(_Bytes, _Passed_align);
; 247  :     } else
; 248  : #endif // defined(__cpp_aligned_new)
; 249  :     {
; 250  : #if defined(_M_IX86) || defined(_M_X64)
; 251  :         if (_Bytes >= _Big_allocation_threshold) {

  00060	3d 00 10 00 00	 cmp	 eax, 4096		; 00001000H
  00065	72 08		 jb	 SHORT $LN21@Emplace_re

; 253  :             return _Allocate_manually_vector_aligned<_Traits>(_Bytes);

  00067	56		 push	 esi
  00068	e8 00 00 00 00	 call	 ??$_Allocate_manually_vector_aligned@U_Default_allocate_traits@std@@@std@@YAPAXI@Z ; std::_Allocate_manually_vector_aligned<std::_Default_allocate_traits>
  0006d	eb 06		 jmp	 SHORT $LN101@Emplace_re
$LN21@Emplace_re:

; 136  :         return ::operator new(_Bytes);

  0006f	50		 push	 eax
  00070	e8 00 00 00 00	 call	 ??2@YAPAXI@Z		; operator new
$LN101@Emplace_re:
; File C:\Program Files\Microsoft Visual Studio\2022\Community\VC\Tools\MSVC\14.44.35207\include\vector

; 900  :         _Alty_traits::construct(_Al, _STD _Unfancy(_Newvec + _Whereoff), _STD forward<_Valty>(_Val)...);

  00075	8b f8		 mov	 edi, eax
  00077	83 c4 04	 add	 esp, 4
$LN18@Emplace_re:
  0007a	8b 45 0c	 mov	 eax, DWORD PTR _<_Val_0>$[ebp]
  0007d	8b 4d fc	 mov	 ecx, DWORD PTR __Whereoff$1$[ebp]
  00080	8a 00		 mov	 al, BYTE PTR [eax]
  00082	88 04 39	 mov	 BYTE PTR [ecx+edi], al

; 901  :         _Constructed_first = _Newvec + _Whereoff;
; 902  : 
; 903  :         if (_Whereptr == _Mylast) { // at back, provide strong guarantee

  00085	8b 43 04	 mov	 eax, DWORD PTR [ebx+4]
  00088	8b 4d 08	 mov	 ecx, DWORD PTR __Whereptr$[ebp]
  0008b	8b 13		 mov	 edx, DWORD PTR [ebx]
  0008d	3b c8		 cmp	 ecx, eax
  0008f	75 04		 jne	 SHORT $LN3@Emplace_re
; File C:\Program Files\Microsoft Visual Studio\2022\Community\VC\Tools\MSVC\14.44.35207\include\xmemory

; 1992 :             _STD _Copy_memmove(_UFirst, _ULast, _STD _Unfancy(_Dest));

  00091	8b cf		 mov	 ecx, edi
; File C:\Program Files\Microsoft Visual Studio\2022\Community\VC\Tools\MSVC\14.44.35207\include\vector

; 909  :         } else { // provide basic guarantee

  00093	eb 17		 jmp	 SHORT $LN53@Emplace_re
$LN3@Emplace_re:
; File C:\Program Files\Microsoft Visual Studio\2022\Community\VC\Tools\MSVC\14.44.35207\include\xmemory

; 1992 :             _STD _Copy_memmove(_UFirst, _ULast, _STD _Unfancy(_Dest));

  00095	57		 push	 edi
  00096	51		 push	 ecx
  00097	52		 push	 edx
  00098	e8 00 00 00 00	 call	 ??$_Copy_memmove@PAEPAE@std@@YAPAEPAE00@Z ; std::_Copy_memmove<unsigned char *,unsigned char *>
; File C:\Program Files\Microsoft Visual Studio\2022\Community\VC\Tools\MSVC\14.44.35207\include\vector

; 912  :             _STD _Uninitialized_move(_Whereptr, _Mylast, _Newvec + _Whereoff + 1, _Al);

  0009d	8b 4d fc	 mov	 ecx, DWORD PTR __Whereoff$1$[ebp]
; File C:\Program Files\Microsoft Visual Studio\2022\Community\VC\Tools\MSVC\14.44.35207\include\xmemory

; 1992 :             _STD _Copy_memmove(_UFirst, _ULast, _STD _Unfancy(_Dest));

  000a0	83 c4 0c	 add	 esp, 12			; 0000000cH

; 1985 :     const auto _ULast = _STD _Get_unwrapped(_Last);

  000a3	8b 43 04	 mov	 eax, DWORD PTR [ebx+4]
; File C:\Program Files\Microsoft Visual Studio\2022\Community\VC\Tools\MSVC\14.44.35207\include\vector

; 912  :             _STD _Uninitialized_move(_Whereptr, _Mylast, _Newvec + _Whereoff + 1, _Al);

  000a6	41		 inc	 ecx
; File C:\Program Files\Microsoft Visual Studio\2022\Community\VC\Tools\MSVC\14.44.35207\include\xmemory

; 1992 :             _STD _Copy_memmove(_UFirst, _ULast, _STD _Unfancy(_Dest));

  000a7	8b 55 08	 mov	 edx, DWORD PTR __Whereptr$[ebp]
; File C:\Program Files\Microsoft Visual Studio\2022\Community\VC\Tools\MSVC\14.44.35207\include\vector

; 912  :             _STD _Uninitialized_move(_Whereptr, _Mylast, _Newvec + _Whereoff + 1, _Al);

  000aa	03 cf		 add	 ecx, edi
$LN53@Emplace_re:

; 913  :         }
; 914  : 
; 915  :         _Guard._New_begin = nullptr;
; 916  :         _Change_array(_Newvec, _Newsize, _Newcapacity);

  000ac	51		 push	 ecx
  000ad	50		 push	 eax
  000ae	52		 push	 edx
  000af	e8 00 00 00 00	 call	 ??$_Copy_memmove@PAEPAE@std@@YAPAEPAE00@Z ; std::_Copy_memmove<unsigned char *,unsigned char *>
  000b4	83 c4 0c	 add	 esp, 12			; 0000000cH
  000b7	8b cb		 mov	 ecx, ebx
  000b9	56		 push	 esi
  000ba	ff 75 f4	 push	 DWORD PTR __Newsize$1$[ebp]
  000bd	57		 push	 edi
  000be	e8 00 00 00 00	 call	 ?_Change_array@?$vector@EV?$allocator@E@std@@@std@@AAEXQAEII@Z ; std::vector<unsigned char,std::allocator<unsigned char> >::_Change_array

; 917  :         return _Newvec + _Whereoff;

  000c3	8b 45 fc	 mov	 eax, DWORD PTR __Whereoff$1$[ebp]
  000c6	03 c7		 add	 eax, edi
  000c8	5f		 pop	 edi
  000c9	5e		 pop	 esi

; 918  :     }

  000ca	5b		 pop	 ebx
  000cb	8b e5		 mov	 esp, ebp
  000cd	5d		 pop	 ebp
  000ce	c2 08 00	 ret	 8
$LN103@Emplace_re:

; 888  :             _Xlength();

  000d1	e8 00 00 00 00	 call	 ?_Xlength@?$vector@EV?$allocator@E@std@@@std@@CAXXZ ; std::vector<unsigned char,std::allocator<unsigned char> >::_Xlength
$LN100@Emplace_re:
  000d6	cc		 int	 3
??$_Emplace_reallocate@ABE@?$vector@EV?$allocator@E@std@@@std@@AAEPAEQAEABE@Z ENDP ; std::vector<unsigned char,std::allocator<unsigned char> >::_Emplace_reallocate<unsigned char const &>
_TEXT	ENDS
; Function compile flags: /Ogtp
; File C:\Program Files\Microsoft Visual Studio\2022\Community\VC\Tools\MSVC\14.44.35207\include\xmemory
;	COMDAT ??$_Get_size_of_n@$0CE@@std@@YAII@Z
_TEXT	SEGMENT
??$_Get_size_of_n@$0CE@@std@@YAII@Z PROC		; std::_Get_size_of_n<36>, COMDAT
; __Count$ = ecx

; 113  :     constexpr bool _Overflow_is_possible = _Ty_size > 1;
; 114  : 
; 115  :     if constexpr (_Overflow_is_possible) {
; 116  :         constexpr size_t _Max_possible = static_cast<size_t>(-1) / _Ty_size;
; 117  :         if (_Count > _Max_possible) {

  00000	81 f9 c7 71 1c
	07		 cmp	 ecx, 119304647		; 071c71c7H
  00006	0f 87 00 00 00
	00		 ja	 ?_Throw_bad_array_new_length@std@@YAXXZ ; std::_Throw_bad_array_new_length

; 118  :             _Throw_bad_array_new_length(); // multiply overflow
; 119  :         }
; 120  :     }
; 121  : 
; 122  :     return _Count * _Ty_size;

  0000c	8d 04 c9	 lea	 eax, DWORD PTR [ecx+ecx*8]
  0000f	c1 e0 02	 shl	 eax, 2

; 123  : }

  00012	c3		 ret	 0
??$_Get_size_of_n@$0CE@@std@@YAII@Z ENDP		; std::_Get_size_of_n<36>
_TEXT	ENDS
; Function compile flags: /Ogtp
; File C:\Program Files\Microsoft Visual Studio\2022\Community\VC\Tools\MSVC\14.44.35207\include\xmemory
;	COMDAT ?_Get_first@?$_Compressed_pair@V?$allocator@U?$_Tree_node@U?$pair@$$CBKPAVCGuildMarkImage@@@std@@PAX@std@@@std@@V?$_Tree_val@U?$_Tree_simple_types@U?$pair@$$CBKPAVCGuildMarkImage@@@std@@@std@@@2@$00@std@@QBEABV?$allocator@U?$_Tree_node@U?$pair@$$CBKPAVCGuildMarkImage@@@std@@PAX@std@@@2@XZ
_TEXT	SEGMENT
?_Get_first@?$_Compressed_pair@V?$allocator@U?$_Tree_node@U?$pair@$$CBKPAVCGuildMarkImage@@@std@@PAX@std@@@std@@V?$_Tree_val@U?$_Tree_simple_types@U?$pair@$$CBKPAVCGuildMarkImage@@@std@@@std@@@2@$00@std@@QBEABV?$allocator@U?$_Tree_node@U?$pair@$$CBKPAVCGuildMarkImage@@@std@@PAX@std@@@2@XZ PROC ; std::_Compressed_pair<std::allocator<std::_Tree_node<std::pair<unsigned long const ,CGuildMarkImage *>,void *> >,std::_Tree_val<std::_Tree_simple_types<std::pair<unsigned long const ,CGuildMarkImage *> > >,1>::_Get_first, COMDAT
; _this$ = ecx

; 1543 :         return *this;

  00000	8b c1		 mov	 eax, ecx

; 1544 :     }

  00002	c3		 ret	 0
?_Get_first@?$_Compressed_pair@V?$allocator@U?$_Tree_node@U?$pair@$$CBKPAVCGuildMarkImage@@@std@@PAX@std@@@std@@V?$_Tree_val@U?$_Tree_simple_types@U?$pair@$$CBKPAVCGuildMarkImage@@@std@@@std@@@2@$00@std@@QBEABV?$allocator@U?$_Tree_node@U?$pair@$$CBKPAVCGuildMarkImage@@@std@@PAX@std@@@2@XZ ENDP ; std::_Compressed_pair<std::allocator<std::_Tree_node<std::pair<unsigned long const ,CGuildMarkImage *>,void *> >,std::_Tree_val<std::_Tree_simple_types<std::pair<unsigned long const ,CGuildMarkImage *> > >,1>::_Get_first
_TEXT	ENDS
; Function compile flags: /Ogtp
; File C:\Program Files\Microsoft Visual Studio\2022\Community\VC\Tools\MSVC\14.44.35207\include\tuple
;	COMDAT ??$_Tuple_get@$0A@ABK@std@@YA$$QA_P$$QAV?$tuple@ABK@0@@Z
_TEXT	SEGMENT
??$_Tuple_get@$0A@ABK@std@@YA$$QA_P$$QAV?$tuple@ABK@0@@Z PROC ; std::_Tuple_get<0,unsigned long const &>, COMDAT
; __Tuple$ = ecx

; 926  :     // used by pair's piecewise constructor
; 927  :     using _Ty    = tuple_element_t<_Index, tuple<_Types...>>;
; 928  :     using _Ttype = typename tuple_element<_Index, tuple<_Types...>>::_Ttype;
; 929  :     return static_cast<_Ty&&>(static_cast<_Ttype&>(_Tuple)._Myfirst._Val);

  00000	8b 01		 mov	 eax, DWORD PTR [ecx]

; 930  : }

  00002	c3		 ret	 0
??$_Tuple_get@$0A@ABK@std@@YA$$QA_P$$QAV?$tuple@ABK@0@@Z ENDP ; std::_Tuple_get<0,unsigned long const &>
_TEXT	ENDS
; Function compile flags: /Ogtp
; File C:\Program Files\Microsoft Visual Studio\2022\Community\VC\Tools\MSVC\14.44.35207\include\xmemory
; File C:\Program Files\Microsoft Visual Studio\2022\Community\VC\Tools\MSVC\14.44.35207\include\xutility
; File C:\Program Files\Microsoft Visual Studio\2022\Community\VC\Tools\MSVC\14.44.35207\include\xmemory
;	COMDAT ??$construct@EABE@?$_Default_allocator_traits@V?$allocator@E@std@@@std@@SAXAAV?$allocator@E@1@QAEABE@Z
_TEXT	SEGMENT
_<_Args_0>$ = 8						; size = 4
??$construct@EABE@?$_Default_allocator_traits@V?$allocator@E@std@@@std@@SAXAAV?$allocator@E@1@QAEABE@Z PROC ; std::_Default_allocator_traits<std::allocator<unsigned char> >::construct<unsigned char,unsigned char const &>, COMDAT
; ___formal$dead$ = ecx
; __Ptr$ = edx

; 728  :     static _CONSTEXPR20 void construct(_Alloc&, _Objty* const _Ptr, _Types&&... _Args) {

  00000	55		 push	 ebp
  00001	8b ec		 mov	 ebp, esp
; File C:\Program Files\Microsoft Visual Studio\2022\Community\VC\Tools\MSVC\14.44.35207\include\xutility

; 463  :     _MSVC_CONSTEXPR return ::new (static_cast<void*>(_Location)) _Ty(_STD forward<_Types>(_Args)...);

  00003	8b 45 08	 mov	 eax, DWORD PTR _<_Args_0>$[ebp]
  00006	8a 00		 mov	 al, BYTE PTR [eax]
  00008	88 02		 mov	 BYTE PTR [edx], al
; File C:\Program Files\Microsoft Visual Studio\2022\Community\VC\Tools\MSVC\14.44.35207\include\xmemory

; 734  :     }

  0000a	5d		 pop	 ebp
  0000b	c3		 ret	 0
??$construct@EABE@?$_Default_allocator_traits@V?$allocator@E@std@@@std@@SAXAAV?$allocator@E@1@QAEABE@Z ENDP ; std::_Default_allocator_traits<std::allocator<unsigned char> >::construct<unsigned char,unsigned char const &>
_TEXT	ENDS
; Function compile flags: /Ogtp
; File C:\Program Files\Microsoft Visual Studio\2022\Community\VC\Tools\MSVC\14.44.35207\include\type_traits
;	COMDAT ??$forward@K@std@@YA$$QAKAAK@Z
_TEXT	SEGMENT
??$forward@K@std@@YA$$QAKAAK@Z PROC			; std::forward<unsigned long>, COMDAT
; __Arg$ = ecx

; 1502 :     return static_cast<_Ty&&>(_Arg);

  00000	8b c1		 mov	 eax, ecx

; 1503 : }

  00002	c3		 ret	 0
??$forward@K@std@@YA$$QAKAAK@Z ENDP			; std::forward<unsigned long>
_TEXT	ENDS
; Function compile flags: /Ogtp
; File C:\Program Files\Microsoft Visual Studio\2022\Community\VC\Tools\MSVC\14.44.35207\include\type_traits
;	COMDAT ??$move@AAV?$tuple@ABK@std@@@std@@YA$$QAV?$tuple@ABK@0@AAV10@@Z
_TEXT	SEGMENT
??$move@AAV?$tuple@ABK@std@@@std@@YA$$QAV?$tuple@ABK@0@AAV10@@Z PROC ; std::move<std::tuple<unsigned long const &> &>, COMDAT
; __Arg$ = ecx

; 1513 :     return static_cast<remove_reference_t<_Ty>&&>(_Arg);

  00000	8b c1		 mov	 eax, ecx

; 1514 : }

  00002	c3		 ret	 0
??$move@AAV?$tuple@ABK@std@@@std@@YA$$QAV?$tuple@ABK@0@AAV10@@Z ENDP ; std::move<std::tuple<unsigned long const &> &>
_TEXT	ENDS
; Function compile flags: /Ogtp
; File C:\Program Files\Microsoft Visual Studio\2022\Community\VC\Tools\MSVC\14.44.35207\include\xutility
;	COMDAT ??$construct_at@EABE@std@@YAPAEQAEABE@Z
_TEXT	SEGMENT
??$construct_at@EABE@std@@YAPAEQAEABE@Z PROC		; std::construct_at<unsigned char,unsigned char const &>, COMDAT
; __Location$ = ecx
; _<_Args_0>$ = edx

; 463  :     _MSVC_CONSTEXPR return ::new (static_cast<void*>(_Location)) _Ty(_STD forward<_Types>(_Args)...);

  00000	8a 02		 mov	 al, BYTE PTR [edx]
  00002	88 01		 mov	 BYTE PTR [ecx], al
  00004	8b c1		 mov	 eax, ecx

; 464  : }

  00006	c3		 ret	 0
??$construct_at@EABE@std@@YAPAEQAEABE@Z ENDP		; std::construct_at<unsigned char,unsigned char const &>
_TEXT	ENDS
; Function compile flags: /Ogtp
; File C:\Program Files\Microsoft Visual Studio\2022\Community\VC\Tools\MSVC\14.44.35207\include\tuple
;	COMDAT ??0?$tuple@$$V@std@@QAE@ABV01@@Z
_TEXT	SEGMENT
___formal$dead$ = 8					; size = 4
??0?$tuple@$$V@std@@QAE@ABV01@@Z PROC			; std::tuple<>::tuple<>, COMDAT
; _this$ = ecx

; 214  :     constexpr tuple(const tuple&) noexcept /* strengthened */ {} // TRANSITION, ABI: should be defaulted

  00000	8b c1		 mov	 eax, ecx
  00002	c2 04 00	 ret	 4
??0?$tuple@$$V@std@@QAE@ABV01@@Z ENDP			; std::tuple<>::tuple<>
_TEXT	ENDS
; Function compile flags: /Ogtp
; File C:\Program Files (x86)\Windows Kits\10\Include\10.0.26100.0\ucrt\stdio.h
;	COMDAT _fprintf
_TEXT	SEGMENT
__Stream$ = 8						; size = 4
__Format$ = 12						; size = 4
_fprintf PROC						; COMDAT

; 837  :     {

  00000	55		 push	 ebp
  00001	8b ec		 mov	 ebp, esp

; 838  :         int _Result;
; 839  :         va_list _ArgList;
; 840  :         __crt_va_start(_ArgList, _Format);
; 841  :         _Result = _vfprintf_l(_Stream, _Format, NULL, _ArgList);

  00003	8b 55 0c	 mov	 edx, DWORD PTR __Format$[ebp]
  00006	8d 45 10	 lea	 eax, DWORD PTR __Format$[ebp+4]
  00009	50		 push	 eax
  0000a	51		 push	 ecx
  0000b	8b 4d 08	 mov	 ecx, DWORD PTR __Stream$[ebp]
  0000e	e8 00 00 00 00	 call	 __vfprintf_l
  00013	83 c4 08	 add	 esp, 8

; 842  :         __crt_va_end(_ArgList);
; 843  :         return _Result;
; 844  :     }

  00016	5d		 pop	 ebp
  00017	c3		 ret	 0
_fprintf ENDP
_TEXT	ENDS
; Function compile flags: /Ogtp
; File C:\Program Files (x86)\Windows Kits\10\Include\10.0.26100.0\ucrt\stdio.h
;	COMDAT __vsnprintf
_TEXT	SEGMENT
__Buffer$ = 8						; size = 4
__BufferCount$ = 12					; size = 4
__Format$ = 16						; size = 4
__ArgList$ = 20						; size = 4
__vsnprintf PROC					; COMDAT

; 1411 :     {

  00000	55		 push	 ebp
  00001	8b ec		 mov	 ebp, esp

; 1412 :         return _vsnprintf_l(_Buffer, _BufferCount, _Format, NULL, _ArgList);

  00003	ff 75 14	 push	 DWORD PTR __ArgList$[ebp]
  00006	8b 55 0c	 mov	 edx, DWORD PTR __BufferCount$[ebp]
  00009	51		 push	 ecx
  0000a	ff 75 10	 push	 DWORD PTR __Format$[ebp]
  0000d	8b 4d 08	 mov	 ecx, DWORD PTR __Buffer$[ebp]
  00010	e8 00 00 00 00	 call	 __vsnprintf_l
  00015	83 c4 0c	 add	 esp, 12			; 0000000cH

; 1413 :     }

  00018	5d		 pop	 ebp
  00019	c3		 ret	 0
__vsnprintf ENDP
_TEXT	ENDS
; Function compile flags: /Ogtp
; File C:\Program Files (x86)\Windows Kits\10\Include\10.0.26100.0\ucrt\stdio.h
;	COMDAT __snprintf
_TEXT	SEGMENT
__Buffer$ = 8						; size = 4
__BufferCount$ = 12					; size = 4
__Format$ = 16						; size = 4
__snprintf PROC						; COMDAT

; 1947 :     {

  00000	55		 push	 ebp
  00001	8b ec		 mov	 ebp, esp
  00003	51		 push	 ecx

; 1412 :         return _vsnprintf_l(_Buffer, _BufferCount, _Format, NULL, _ArgList);

  00004	8b 55 0c	 mov	 edx, DWORD PTR __BufferCount$[ebp]
  00007	8d 45 14	 lea	 eax, DWORD PTR __Format$[ebp+4]
  0000a	50		 push	 eax
  0000b	51		 push	 ecx
  0000c	ff 75 10	 push	 DWORD PTR __Format$[ebp]
  0000f	8b 4d 08	 mov	 ecx, DWORD PTR __Buffer$[ebp]
  00012	e8 00 00 00 00	 call	 __vsnprintf_l
  00017	83 c4 0c	 add	 esp, 12			; 0000000cH

; 1948 :         int _Result;
; 1949 :         va_list _ArgList;
; 1950 :         __crt_va_start(_ArgList, _Format);
; 1951 :         _Result = _vsnprintf(_Buffer, _BufferCount, _Format, _ArgList);
; 1952 :         __crt_va_end(_ArgList);
; 1953 :         return _Result;
; 1954 :     }

  0001a	59		 pop	 ecx
  0001b	5d		 pop	 ebp
  0001c	c3		 ret	 0
__snprintf ENDP
_TEXT	ENDS
END
