; Listing generated by Microsoft (R) Optimizing Compiler Version 19.44.35217.0 

	TITLE	d:\_m2work\txoko-m2-work\txoko-client-src\vs_files\userinterface\distribute\movieman.obj
	.686P
	.XMM
	include listing.inc
	.model	flat

INCLUDELIB OLDNAMES

PUBLIC	??_C@_09MGJJCKGJ@intro?4mpg@			; `string'
PUBLIC	??_C@_0BM@JFEKAACJ@TutorialMovie?2Tutorial0?4mpg@ ; `string'
PUBLIC	??_C@_0BM@FOBGNDIM@TutorialMovie?2Tutorial1?4mpg@ ; `string'
PUBLIC	??_C@_0BM@NIICKBCC@TutorialMovie?2Tutorial2?4mpg@ ; `string'
PUBLIC	??_C@_13FPGAJAPJ@?$AA?2@			; `string'
PUBLIC	??_C@_03GJLKJKAN@mpg@				; `string'
PUBLIC	??_C@_04OEEJDDPO@mp43@				; `string'
PUBLIC	??_C@_1BM@KFENCCEP@?$AAS?$AAo?$AAu?$AAr?$AAc?$AAe?$AA?5?$AAF?$AAi?$AAl?$AAt?$AAe?$AAr@ ; `string'
PUBLIC	??_C@_1BC@GEEOHGFK@?$AAS?$AAp?$AAl?$AAi?$AAt?$AAt?$AAe?$AAr@ ; `string'
PUBLIC	??_C@_1BM@DBOEKKK@?$AAV?$AAi?$AAd?$AAe?$AAo?$AA?5?$AAD?$AAe?$AAc?$AAo?$AAd?$AAe?$AAr@ ; `string'
PUBLIC	??_C@_1BM@CMEFDNDD@?$AAA?$AAu?$AAd?$AAi?$AAo?$AA?5?$AAD?$AAe?$AAc?$AAo?$AAd?$AAe?$AAr@ ; `string'
EXTRN	_IID_IBasicAudio:BYTE
EXTRN	_DMOCATEGORY_VIDEO_DECODER:BYTE
EXTRN	_IID_IDMOWrapperFilter:BYTE
EXTRN	_CLSID_DMOWrapperFilter:BYTE
EXTRN	_IID_IBaseFilter:BYTE
EXTRN	__imp__GetTickCount@0:PROC
EXTRN	_IID_IMultiMediaStream:BYTE
EXTRN	_CLSID_AviSplitter:BYTE
EXTRN	_CLSID_MPEG1Splitter:BYTE
EXTRN	_CLSID_CMpegVideoCodec:BYTE
EXTRN	_CLSID_CMpegAudioCodec:BYTE
EXTRN	_tolower:PROC
EXTRN	?GetFileExtension@@YAXPBDHPAV?$basic_string@DU?$char_traits@D@std@@V?$allocator@D@2@@std@@@Z:PROC ; GetFileExtension
EXTRN	_MSPID_PrimaryAudio:BYTE
EXTRN	_wcsncpy:PROC
EXTRN	_wcsnlen:PROC
EXTRN	_wcsncat:PROC
EXTRN	__imp__GetCurrentDirectoryW@8:PROC
EXTRN	__imp__MultiByteToWideChar@24:PROC
EXTRN	_CLSID_AMMultiMediaStream:BYTE
EXTRN	_IID_IAMMultiMediaStream:BYTE
EXTRN	__imp__CoCreateInstance@20:PROC
EXTRN	__imp__GetAsyncKeyState@4:PROC
EXTRN	__imp__SetRect@20:PROC
EXTRN	__imp__OffsetRect@12:PROC
EXTRN	__imp__GetClientRect@8:PROC
EXTRN	__imp__ClientToScreen@8:PROC
EXTRN	__imp__PeekMessageA@20:PROC
EXTRN	_IID_IDirectDrawMediaStream:BYTE
EXTRN	_MSPID_PrimaryVideo:BYTE
EXTRN	__imp__DirectDrawCreate@12:PROC
EXTRN	__imp__StretchBlt@44:PROC
EXTRN	__imp__DeleteObject@4:PROC
EXTRN	__imp__ReleaseDC@8:PROC
EXTRN	__imp__FillRect@12:PROC
EXTRN	__imp__GetDC@4:PROC
EXTRN	__imp__CreateSolidBrush@4:PROC
EXTRN	__imp__EndPaint@8:PROC
EXTRN	__imp__PatBlt@24:PROC
EXTRN	__imp__BeginPaint@8:PROC
EXTRN	__imp__InvalidateRect@12:PROC
EXTRN	?GetWindowHandle@CMSWindow@@QAEPAUHWND__@@XZ:PROC ; CMSWindow::GetWindowHandle
;	COMDAT ??_C@_1BM@CMEFDNDD@?$AAA?$AAu?$AAd?$AAi?$AAo?$AA?5?$AAD?$AAe?$AAc?$AAo?$AAd?$AAe?$AAr@
CONST	SEGMENT
??_C@_1BM@CMEFDNDD@?$AAA?$AAu?$AAd?$AAi?$AAo?$AA?5?$AAD?$AAe?$AAc?$AAo?$AAd?$AAe?$AAr@ DB 'A'
	DB	00H, 'u', 00H, 'd', 00H, 'i', 00H, 'o', 00H, ' ', 00H, 'D', 00H
	DB	'e', 00H, 'c', 00H, 'o', 00H, 'd', 00H, 'e', 00H, 'r', 00H, 00H
	DB	00H						; `string'
CONST	ENDS
;	COMDAT ??_C@_1BM@DBOEKKK@?$AAV?$AAi?$AAd?$AAe?$AAo?$AA?5?$AAD?$AAe?$AAc?$AAo?$AAd?$AAe?$AAr@
CONST	SEGMENT
??_C@_1BM@DBOEKKK@?$AAV?$AAi?$AAd?$AAe?$AAo?$AA?5?$AAD?$AAe?$AAc?$AAo?$AAd?$AAe?$AAr@ DB 'V'
	DB	00H, 'i', 00H, 'd', 00H, 'e', 00H, 'o', 00H, ' ', 00H, 'D', 00H
	DB	'e', 00H, 'c', 00H, 'o', 00H, 'd', 00H, 'e', 00H, 'r', 00H, 00H
	DB	00H						; `string'
CONST	ENDS
;	COMDAT ??_C@_1BC@GEEOHGFK@?$AAS?$AAp?$AAl?$AAi?$AAt?$AAt?$AAe?$AAr@
CONST	SEGMENT
??_C@_1BC@GEEOHGFK@?$AAS?$AAp?$AAl?$AAi?$AAt?$AAt?$AAe?$AAr@ DB 'S', 00H, 'p'
	DB	00H, 'l', 00H, 'i', 00H, 't', 00H, 't', 00H, 'e', 00H, 'r', 00H
	DB	00H, 00H					; `string'
CONST	ENDS
;	COMDAT ??_C@_1BM@KFENCCEP@?$AAS?$AAo?$AAu?$AAr?$AAc?$AAe?$AA?5?$AAF?$AAi?$AAl?$AAt?$AAe?$AAr@
CONST	SEGMENT
??_C@_1BM@KFENCCEP@?$AAS?$AAo?$AAu?$AAr?$AAc?$AAe?$AA?5?$AAF?$AAi?$AAl?$AAt?$AAe?$AAr@ DB 'S'
	DB	00H, 'o', 00H, 'u', 00H, 'r', 00H, 'c', 00H, 'e', 00H, ' ', 00H
	DB	'F', 00H, 'i', 00H, 'l', 00H, 't', 00H, 'e', 00H, 'r', 00H, 00H
	DB	00H						; `string'
CONST	ENDS
;	COMDAT ??_C@_04OEEJDDPO@mp43@
CONST	SEGMENT
??_C@_04OEEJDDPO@mp43@ DB 'mp43', 00H			; `string'
CONST	ENDS
;	COMDAT ??_C@_03GJLKJKAN@mpg@
CONST	SEGMENT
??_C@_03GJLKJKAN@mpg@ DB 'mpg', 00H			; `string'
CONST	ENDS
;	COMDAT ??_C@_13FPGAJAPJ@?$AA?2@
CONST	SEGMENT
??_C@_13FPGAJAPJ@?$AA?2@ DB '\', 00H, 00H, 00H		; `string'
CONST	ENDS
;	COMDAT ??_C@_0BM@NIICKBCC@TutorialMovie?2Tutorial2?4mpg@
CONST	SEGMENT
??_C@_0BM@NIICKBCC@TutorialMovie?2Tutorial2?4mpg@ DB 'TutorialMovie\Tutor'
	DB	'ial2.mpg', 00H				; `string'
CONST	ENDS
;	COMDAT ??_C@_0BM@FOBGNDIM@TutorialMovie?2Tutorial1?4mpg@
CONST	SEGMENT
??_C@_0BM@FOBGNDIM@TutorialMovie?2Tutorial1?4mpg@ DB 'TutorialMovie\Tutor'
	DB	'ial1.mpg', 00H				; `string'
CONST	ENDS
;	COMDAT ??_C@_0BM@JFEKAACJ@TutorialMovie?2Tutorial0?4mpg@
CONST	SEGMENT
??_C@_0BM@JFEKAACJ@TutorialMovie?2Tutorial0?4mpg@ DB 'TutorialMovie\Tutor'
	DB	'ial0.mpg', 00H				; `string'
CONST	ENDS
;	COMDAT ??_C@_09MGJJCKGJ@intro?4mpg@
CONST	SEGMENT
??_C@_09MGJJCKGJ@intro?4mpg@ DB 'intro.mpg', 00H	; `string'
?CLSID_MP3AudioCodec@@3U_GUID@@B DD 038be3000H		; CLSID_MP3AudioCodec
	DW	0dbf4H
	DW	011d0H
	DB	086H
	DB	0eH
	DB	00H
	DB	0a0H
	DB	024H
	DB	0cfH
	DB	0efH
	DB	06dH
?CLSID_MP4VideoCodec@@3U_GUID@@B DD 082ccd3e0H		; CLSID_MP4VideoCodec
	DW	0f71aH
	DW	011d0H
	DB	09fH
	DB	0e5H
	DB	00H
	DB	060H
	DB	097H
	DB	078H
	DB	0eaH
	DB	066H
?CLSID_MP43DMOCodec@@3U_GUID@@B DD 0cba9e78bH		; CLSID_MP43DMOCodec
	DW	049a3H
	DW	049eaH
	DB	093H
	DB	0d4H
	DB	06bH
	DB	0cbH
	DB	0a8H
	DB	0c4H
	DB	0deH
	DB	07H
PUBLIC	_IsEqualGUID
PUBLIC	??$_Refancy_maybe_null@PBD$0A@@std@@YAPBDPBD@Z	; std::_Refancy_maybe_null<char const *,0>
PUBLIC	?_Seek_to@?$_String_const_iterator@V?$_String_val@U?$_Simple_types@D@std@@@std@@@std@@QAEXPBD@Z ; std::_String_const_iterator<std::_String_val<std::_Simple_types<char> > >::_Seek_to
PUBLIC	??$_Traits_equal@U?$char_traits@D@std@@@std@@YA_NQBDI0I@Z ; std::_Traits_equal<std::char_traits<char> >
PUBLIC	?_Equal@?$basic_string@DU?$char_traits@D@std@@V?$allocator@D@2@@std@@QBE_NQBD@Z ; std::basic_string<char,std::char_traits<char>,std::allocator<char> >::_Equal
PUBLIC	??0?$_String_const_iterator@V?$_String_val@U?$_Simple_types@D@std@@@std@@@std@@QAE@PBDPBU_Container_base0@1@@Z ; std::_String_const_iterator<std::_String_val<std::_Simple_types<char> > >::_String_const_iterator<std::_String_val<std::_Simple_types<char> > >
PUBLIC	?_Verify_offset@?$_String_const_iterator@V?$_String_val@U?$_Simple_types@D@std@@@std@@@std@@QBEXH@Z ; std::_String_const_iterator<std::_String_val<std::_Simple_types<char> > >::_Verify_offset
PUBLIC	??$_Refancy@PAD$0A@@std@@YAPADPAD@Z		; std::_Refancy<char *,0>
PUBLIC	??$_Seek_wrapped@V?$_String_iterator@V?$_String_val@U?$_Simple_types@D@std@@@std@@@std@@AAPAD@std@@YAXAAV?$_String_iterator@V?$_String_val@U?$_Simple_types@D@std@@@std@@@0@AAPAD@Z ; std::_Seek_wrapped<std::_String_iterator<std::_String_val<std::_Simple_types<char> > >,char * &>
PUBLIC	??$_Unfancy_maybe_null@$$CBD@std@@YAPBDPBD@Z	; std::_Unfancy_maybe_null<char const >
PUBLIC	??$_Adl_verify_range@V?$_String_iterator@V?$_String_val@U?$_Simple_types@D@std@@@std@@@std@@V12@@std@@YAXABV?$_String_iterator@V?$_String_val@U?$_Simple_types@D@std@@@std@@@0@0@Z ; std::_Adl_verify_range<std::_String_iterator<std::_String_val<std::_Simple_types<char> > >,std::_String_iterator<std::_String_val<std::_Simple_types<char> > > >
PUBLIC	?begin@?$basic_string@DU?$char_traits@D@std@@V?$allocator@D@2@@std@@QAE?AV?$_String_iterator@V?$_String_val@U?$_Simple_types@D@std@@@std@@@2@XZ ; std::basic_string<char,std::char_traits<char>,std::allocator<char> >::begin
PUBLIC	??0?$_String_iterator@V?$_String_val@U?$_Simple_types@D@std@@@std@@@std@@QAE@PBDPBU_Container_base0@1@@Z ; std::_String_iterator<std::_String_val<std::_Simple_types<char> > >::_String_iterator<std::_String_val<std::_Simple_types<char> > >
PUBLIC	?end@?$basic_string@DU?$char_traits@D@std@@V?$allocator@D@2@@std@@QAE?AV?$_String_iterator@V?$_String_val@U?$_Simple_types@D@std@@@std@@@2@XZ ; std::basic_string<char,std::char_traits<char>,std::allocator<char> >::end
PUBLIC	??$?8DU?$char_traits@D@std@@V?$allocator@D@1@@std@@YA_NABV?$basic_string@DU?$char_traits@D@std@@V?$allocator@D@2@@0@QBD@Z ; std::operator==<char,std::char_traits<char>,std::allocator<char> >
PUBLIC	??$_Get_unwrapped_n@AAV?$_String_iterator@V?$_String_val@U?$_Simple_types@D@std@@@std@@@std@@H@std@@YA?A_TAAV?$_String_iterator@V?$_String_val@U?$_Simple_types@D@std@@@std@@@0@H@Z ; std::_Get_unwrapped_n<std::_String_iterator<std::_String_val<std::_Simple_types<char> > > &,int>
PUBLIC	??$_Idl_distance@V?$_String_iterator@V?$_String_val@U?$_Simple_types@D@std@@@std@@@std@@PAD@std@@YA?A_PABQAD0@Z ; std::_Idl_distance<std::_String_iterator<std::_String_val<std::_Simple_types<char> > >,char *>
PUBLIC	?_Unwrapped@?$_String_iterator@V?$_String_val@U?$_Simple_types@D@std@@@std@@@std@@QBEPADXZ ; std::_String_iterator<std::_String_val<std::_Simple_types<char> > >::_Unwrapped
PUBLIC	??$_Get_unwrapped@ABV?$_String_iterator@V?$_String_val@U?$_Simple_types@D@std@@@std@@@std@@@std@@YA?A_TABV?$_String_iterator@V?$_String_val@U?$_Simple_types@D@std@@@std@@@0@@Z ; std::_Get_unwrapped<std::_String_iterator<std::_String_val<std::_Simple_types<char> > > const &>
PUBLIC	??$transform@V?$_String_iterator@V?$_String_val@U?$_Simple_types@D@std@@@std@@@std@@V12@P6AHH@Z@std@@YA?AV?$_String_iterator@V?$_String_val@U?$_Simple_types@D@std@@@std@@@0@V10@0V10@P6AHH@Z@Z ; std::transform<std::_String_iterator<std::_String_val<std::_Simple_types<char> > >,std::_String_iterator<std::_String_val<std::_Simple_types<char> > >,int (__cdecl*)(int)>
PUBLIC	?BuildFilterGraphManually@CMovieMan@@AAEJPA_WPAUIAMMultiMediaStream@@U_GUID@@22@Z ; CMovieMan::BuildFilterGraphManually
PUBLIC	?RenderPostEffectFadeOut@CMovieMan@@AAEJPAUIDirectDrawSurface@@HK@Z ; CMovieMan::RenderPostEffectFadeOut
PUBLIC	?RenderFileToMMStream@CMovieMan@@AAEJPBDPAPAUIMultiMediaStream@@PAUIDirectDraw@@@Z ; CMovieMan::RenderFileToMMStream
PUBLIC	?RenderStreamToSurface@CMovieMan@@AAEJPAUIDirectDrawSurface@@PAUIDirectDrawMediaStream@@PAUIMultiMediaStream@@_NHK@Z ; CMovieMan::RenderStreamToSurface
PUBLIC	?CalcBackgroundRect@CMovieMan@@AAEXABUtagRECT@@AAU2@1@Z ; CMovieMan::CalcBackgroundRect
PUBLIC	?CalcMovieRect@CMovieMan@@AAEXHHAAUtagRECT@@@Z	; CMovieMan::CalcMovieRect
PUBLIC	?GetWindowRect@CMovieMan@@AAEXAAUtagRECT@@@Z	; CMovieMan::GetWindowRect
PUBLIC	?PlayMovie@CMovieMan@@AAEHPBD_NHK@Z		; CMovieMan::PlayMovie
PUBLIC	?PlayLogo@CMovieMan@@QAEXPBD@Z			; CMovieMan::PlayLogo
PUBLIC	?GDIBlt@CMovieMan@@AAEXPAUIDirectDrawSurface@@PAUtagRECT@@@Z ; CMovieMan::GDIBlt
PUBLIC	?GDIFillRect@CMovieMan@@AAEXAAUtagRECT@@K@Z	; CMovieMan::GDIFillRect
PUBLIC	?FillRect@CMovieMan@@AAEXAAUtagRECT@@K@Z	; CMovieMan::FillRect
PUBLIC	?Instance@CPythonApplication@@SAAAV1@XZ		; CPythonApplication::Instance
;	COMDAT xdata$x
xdata$x	SEGMENT
__ehfuncinfo$?RenderFileToMMStream@CMovieMan@@AAEJPBDPAPAUIMultiMediaStream@@PAUIDirectDraw@@@Z DD 019930522H
	DD	01H
	DD	FLAT:__unwindtable$?RenderFileToMMStream@CMovieMan@@AAEJPBDPAPAUIMultiMediaStream@@PAUIDirectDraw@@@Z
	DD	2 DUP(00H)
	DD	2 DUP(00H)
	DD	00H
	DD	01H
__unwindtable$?RenderFileToMMStream@CMovieMan@@AAEJPBDPAPAUIMultiMediaStream@@PAUIDirectDraw@@@Z DD 0ffffffffH
	DD	FLAT:__unwindfunclet$?RenderFileToMMStream@CMovieMan@@AAEJPBDPAPAUIMultiMediaStream@@PAUIDirectDraw@@@Z$0
; Function compile flags: /Ogtp
; File D:\_m2work\txoko-m2-work\txoko-client-src\source\UserInterface\PythonApplication.h
;	COMDAT ?Instance@CPythonApplication@@SAAAV1@XZ
_TEXT	SEGMENT
?Instance@CPythonApplication@@SAAAV1@XZ PROC		; CPythonApplication::Instance, COMDAT

; 142  : 			assert(ms_pInstance != NULL);
; 143  : 			return *ms_pInstance;

  00000	a1 00 00 00 00	 mov	 eax, DWORD PTR ?ms_pInstance@CPythonApplication@@1PAV1@A ; CPythonApplication::ms_pInstance

; 144  : 		}

  00005	c3		 ret	 0
?Instance@CPythonApplication@@SAAAV1@XZ ENDP		; CPythonApplication::Instance
_TEXT	ENDS
; Function compile flags: /Ogtp
; File D:\_m2work\txoko-m2-work\txoko-client-src\source\UserInterface\MovieMan.cpp
;	COMDAT ?FillRect@CMovieMan@@AAEXAAUtagRECT@@K@Z
_TEXT	SEGMENT
_colorFillBltFX$ = -100					; size = 100
_fillRect$ = 8						; size = 4
_fillColor$ = 12					; size = 4
?FillRect@CMovieMan@@AAEXAAUtagRECT@@K@Z PROC		; CMovieMan::FillRect, COMDAT
; _this$ = ecx

; 53   : {

  00000	55		 push	 ebp
  00001	8b ec		 mov	 ebp, esp
  00003	83 ec 64	 sub	 esp, 100		; 00000064H
  00006	53		 push	 ebx

; 54   : 	assert(m_pPrimarySurface);
; 55   : 
; 56   : 	if (fillRect.bottom == fillRect.top || fillRect.left == fillRect.right)

  00007	8b 5d 08	 mov	 ebx, DWORD PTR _fillRect$[ebp]
  0000a	8b 43 0c	 mov	 eax, DWORD PTR [ebx+12]
  0000d	3b 43 04	 cmp	 eax, DWORD PTR [ebx+4]
  00010	0f 84 83 00 00
	00		 je	 $LN3@FillRect
  00016	8b 03		 mov	 eax, DWORD PTR [ebx]
  00018	3b 43 08	 cmp	 eax, DWORD PTR [ebx+8]
  0001b	74 7c		 je	 SHORT $LN3@FillRect

; 57   : 	{
; 58   : 		// 채울 필요 없음
; 59   : 		return;
; 60   : 	}
; 61   : 
; 62   : 	DDBLTFX colorFillBltFX;
; 63   : 	colorFillBltFX.dwSize = sizeof(DDBLTFX);
; 64   : 	colorFillBltFX.dwFillColor = fillColor;
; 65   : 	if (!m_usingRGB32 || FAILED(m_pPrimarySurface->Blt(&fillRect, NULL, NULL, DDBLT_WAIT | DDBLT_COLORFILL, &colorFillBltFX)))

  0001d	80 79 04 00	 cmp	 BYTE PTR [ecx+4], 0
  00021	8b 55 0c	 mov	 edx, DWORD PTR _fillColor$[ebp]
  00024	c7 45 9c 64 00
	00 00		 mov	 DWORD PTR _colorFillBltFX$[ebp], 100 ; 00000064H
  0002b	89 55 ec	 mov	 DWORD PTR _colorFillBltFX$[ebp+80], edx
  0002e	74 1e		 je	 SHORT $LN5@FillRect
  00030	8b 49 20	 mov	 ecx, DWORD PTR [ecx+32]
  00033	8d 55 9c	 lea	 edx, DWORD PTR _colorFillBltFX$[ebp]
  00036	52		 push	 edx
  00037	68 00 04 00 01	 push	 16778240		; 01000400H
  0003c	6a 00		 push	 0
  0003e	8b 01		 mov	 eax, DWORD PTR [ecx]
  00040	6a 00		 push	 0
  00042	53		 push	 ebx
  00043	51		 push	 ecx
  00044	ff 50 14	 call	 DWORD PTR [eax+20]
  00047	85 c0		 test	 eax, eax
  00049	79 4e		 jns	 SHORT $LN3@FillRect
  0004b	8b 55 0c	 mov	 edx, DWORD PTR _fillColor$[ebp]
$LN5@FillRect:

; 74   : 	HBRUSH fillBrush = CreateSolidBrush(

  0004e	8b c2		 mov	 eax, edx
  00050	c1 e8 08	 shr	 eax, 8
  00053	0f b6 c8	 movzx	 ecx, al
  00056	0f b6 c2	 movzx	 eax, dl
  00059	c1 e0 08	 shl	 eax, 8
  0005c	0b c8		 or	 ecx, eax
  0005e	c1 ea 10	 shr	 edx, 16			; 00000010H
  00061	56		 push	 esi
  00062	c1 e1 08	 shl	 ecx, 8
  00065	0f b6 c2	 movzx	 eax, dl
  00068	57		 push	 edi
  00069	0b c8		 or	 ecx, eax
  0006b	51		 push	 ecx
  0006c	ff 15 00 00 00
	00		 call	 DWORD PTR __imp__CreateSolidBrush@4

; 75   : 		RGB((fillColor >> 16) & 255, (fillColor >> 8) & 255, fillColor & 255)
; 76   : 		);
; 77   : 
; 78   : 	HDC desktopDC = GetDC(0);

  00072	6a 00		 push	 0
  00074	8b f8		 mov	 edi, eax
  00076	ff 15 00 00 00
	00		 call	 DWORD PTR __imp__GetDC@4

; 79   : 	::FillRect(desktopDC, &fillRect, fillBrush);

  0007c	57		 push	 edi
  0007d	8b f0		 mov	 esi, eax
  0007f	53		 push	 ebx
  00080	56		 push	 esi
  00081	ff 15 00 00 00
	00		 call	 DWORD PTR __imp__FillRect@12

; 80   : 	ReleaseDC(0, desktopDC);

  00087	56		 push	 esi
  00088	6a 00		 push	 0
  0008a	ff 15 00 00 00
	00		 call	 DWORD PTR __imp__ReleaseDC@8

; 81   : 
; 82   : 	DeleteObject(fillBrush);

  00090	57		 push	 edi
  00091	ff 15 00 00 00
	00		 call	 DWORD PTR __imp__DeleteObject@4
  00097	5f		 pop	 edi
  00098	5e		 pop	 esi
$LN3@FillRect:
  00099	5b		 pop	 ebx

; 66   : 	{
; 67   : 		GDIFillRect(fillRect, fillColor);
; 68   : 		return;
; 69   : 	}
; 70   : }

  0009a	8b e5		 mov	 esp, ebp
  0009c	5d		 pop	 ebp
  0009d	c2 08 00	 ret	 8
?FillRect@CMovieMan@@AAEXAAUtagRECT@@K@Z ENDP		; CMovieMan::FillRect
_TEXT	ENDS
; Function compile flags: /Ogtp
; File D:\_m2work\txoko-m2-work\txoko-client-src\source\UserInterface\MovieMan.cpp
;	COMDAT ?GDIFillRect@CMovieMan@@AAEXAAUtagRECT@@K@Z
_TEXT	SEGMENT
_fillRect$ = 8						; size = 4
_fillColor$ = 12					; size = 4
?GDIFillRect@CMovieMan@@AAEXAAUtagRECT@@K@Z PROC	; CMovieMan::GDIFillRect, COMDAT
; _this$dead$ = ecx

; 73   : {

  00000	55		 push	 ebp
  00001	8b ec		 mov	 ebp, esp

; 74   : 	HBRUSH fillBrush = CreateSolidBrush(

  00003	8b 55 0c	 mov	 edx, DWORD PTR _fillColor$[ebp]
  00006	8b c2		 mov	 eax, edx
  00008	c1 e8 08	 shr	 eax, 8
  0000b	0f b6 c8	 movzx	 ecx, al
  0000e	0f b6 c2	 movzx	 eax, dl
  00011	c1 e0 08	 shl	 eax, 8
  00014	0b c8		 or	 ecx, eax
  00016	c1 ea 10	 shr	 edx, 16			; 00000010H
  00019	56		 push	 esi
  0001a	c1 e1 08	 shl	 ecx, 8
  0001d	0f b6 c2	 movzx	 eax, dl
  00020	57		 push	 edi
  00021	0b c8		 or	 ecx, eax
  00023	51		 push	 ecx
  00024	ff 15 00 00 00
	00		 call	 DWORD PTR __imp__CreateSolidBrush@4

; 75   : 		RGB((fillColor >> 16) & 255, (fillColor >> 8) & 255, fillColor & 255)
; 76   : 		);
; 77   : 
; 78   : 	HDC desktopDC = GetDC(0);

  0002a	6a 00		 push	 0
  0002c	8b f8		 mov	 edi, eax
  0002e	ff 15 00 00 00
	00		 call	 DWORD PTR __imp__GetDC@4

; 79   : 	::FillRect(desktopDC, &fillRect, fillBrush);

  00034	57		 push	 edi
  00035	ff 75 08	 push	 DWORD PTR _fillRect$[ebp]
  00038	8b f0		 mov	 esi, eax
  0003a	56		 push	 esi
  0003b	ff 15 00 00 00
	00		 call	 DWORD PTR __imp__FillRect@12

; 80   : 	ReleaseDC(0, desktopDC);

  00041	56		 push	 esi
  00042	6a 00		 push	 0
  00044	ff 15 00 00 00
	00		 call	 DWORD PTR __imp__ReleaseDC@8

; 81   : 
; 82   : 	DeleteObject(fillBrush);

  0004a	57		 push	 edi
  0004b	ff 15 00 00 00
	00		 call	 DWORD PTR __imp__DeleteObject@4
  00051	5f		 pop	 edi
  00052	5e		 pop	 esi

; 83   : }

  00053	5d		 pop	 ebp
  00054	c2 08 00	 ret	 8
?GDIFillRect@CMovieMan@@AAEXAAUtagRECT@@K@Z ENDP	; CMovieMan::GDIFillRect
_TEXT	ENDS
; Function compile flags: /Ogtp
; File D:\_m2work\txoko-m2-work\txoko-client-src\source\UserInterface\MovieMan.cpp
;	COMDAT ?GDIBlt@CMovieMan@@AAEXPAUIDirectDrawSurface@@PAUtagRECT@@@Z
_TEXT	SEGMENT
_this$1$ = -8						; size = 4
_surfaceDC$ = -4					; size = 4
_pSrcSurface$ = 8					; size = 4
_pDestRect$ = 12					; size = 4
?GDIBlt@CMovieMan@@AAEXPAUIDirectDrawSurface@@PAUtagRECT@@@Z PROC ; CMovieMan::GDIBlt, COMDAT
; _this$ = ecx

; 89   : {

  00000	55		 push	 ebp
  00001	8b ec		 mov	 ebp, esp
  00003	83 ec 08	 sub	 esp, 8
  00006	53		 push	 ebx
  00007	57		 push	 edi

; 90   : 	HDC surfaceDC;
; 91   : 	HDC desktopDC = GetDC(0);

  00008	6a 00		 push	 0
  0000a	89 4d f8	 mov	 DWORD PTR _this$1$[ebp], ecx
  0000d	ff 15 00 00 00
	00		 call	 DWORD PTR __imp__GetDC@4

; 92   : 	if (SUCCEEDED(pSrcSurface->GetDC(&surfaceDC)))

  00013	8b 7d 08	 mov	 edi, DWORD PTR _pSrcSurface$[ebp]
  00016	8b d8		 mov	 ebx, eax
  00018	8d 45 fc	 lea	 eax, DWORD PTR _surfaceDC$[ebp]
  0001b	50		 push	 eax
  0001c	57		 push	 edi
  0001d	8b 17		 mov	 edx, DWORD PTR [edi]
  0001f	ff 52 44	 call	 DWORD PTR [edx+68]
  00022	85 c0		 test	 eax, eax
  00024	78 3a		 js	 SHORT $LN2@GDIBlt

; 93   : 	{
; 94   : 		StretchBlt(desktopDC, pDestRect->left, pDestRect->top, pDestRect->right - pDestRect->left, pDestRect->bottom - pDestRect->top,

  00026	8b 45 f8	 mov	 eax, DWORD PTR _this$1$[ebp]
  00029	8b 4d 0c	 mov	 ecx, DWORD PTR _pDestRect$[ebp]
  0002c	68 20 00 cc 00	 push	 13369376		; 00cc0020H
  00031	ff 70 0c	 push	 DWORD PTR [eax+12]
  00034	8b 51 04	 mov	 edx, DWORD PTR [ecx+4]
  00037	ff 70 08	 push	 DWORD PTR [eax+8]
  0003a	8b 41 0c	 mov	 eax, DWORD PTR [ecx+12]
  0003d	6a 00		 push	 0
  0003f	6a 00		 push	 0
  00041	ff 75 fc	 push	 DWORD PTR _surfaceDC$[ebp]
  00044	2b c2		 sub	 eax, edx
  00046	50		 push	 eax
  00047	8b 41 08	 mov	 eax, DWORD PTR [ecx+8]
  0004a	2b 01		 sub	 eax, DWORD PTR [ecx]
  0004c	50		 push	 eax
  0004d	52		 push	 edx
  0004e	ff 31		 push	 DWORD PTR [ecx]
  00050	53		 push	 ebx
  00051	ff 15 00 00 00
	00		 call	 DWORD PTR __imp__StretchBlt@44

; 95   : 			surfaceDC, 0, 0, m_movieWidth, m_movieHeight, SRCCOPY);
; 96   : 		pSrcSurface->ReleaseDC(surfaceDC);

  00057	ff 75 fc	 push	 DWORD PTR _surfaceDC$[ebp]
  0005a	8b 07		 mov	 eax, DWORD PTR [edi]
  0005c	57		 push	 edi
  0005d	ff 50 68	 call	 DWORD PTR [eax+104]
$LN2@GDIBlt:

; 97   : 	}
; 98   : 	ReleaseDC(0, desktopDC);

  00060	53		 push	 ebx
  00061	6a 00		 push	 0
  00063	ff 15 00 00 00
	00		 call	 DWORD PTR __imp__ReleaseDC@8
  00069	5f		 pop	 edi
  0006a	5b		 pop	 ebx

; 99   : }

  0006b	8b e5		 mov	 esp, ebp
  0006d	5d		 pop	 ebp
  0006e	c2 08 00	 ret	 8
?GDIBlt@CMovieMan@@AAEXPAUIDirectDrawSurface@@PAUtagRECT@@@Z ENDP ; CMovieMan::GDIBlt
_TEXT	ENDS
; Function compile flags: /Ogtp
; File D:\_m2work\txoko-m2-work\txoko-client-src\source\UserInterface\MovieMan.cpp
;	COMDAT ?PlayLogo@CMovieMan@@QAEXPBD@Z
_TEXT	SEGMENT
_pcszName$ = 8						; size = 4
?PlayLogo@CMovieMan@@QAEXPBD@Z PROC			; CMovieMan::PlayLogo, COMDAT
; _this$ = ecx

; 102  : {

  00000	55		 push	 ebp
  00001	8b ec		 mov	 ebp, esp

; 103  : 	PlayMovie(pcszName);

  00003	83 ec 0c	 sub	 esp, 12			; 0000000cH
  00006	ff 75 08	 push	 DWORD PTR _pcszName$[ebp]
  00009	e8 00 00 00 00	 call	 ?PlayMovie@CMovieMan@@AAEHPBD_NHK@Z ; CMovieMan::PlayMovie

; 104  : }

  0000e	5d		 pop	 ebp
  0000f	c2 04 00	 ret	 4
?PlayLogo@CMovieMan@@QAEXPBD@Z ENDP			; CMovieMan::PlayLogo
_TEXT	ENDS
; Function compile flags: /Ogtp
; File D:\_m2work\txoko-m2-work\txoko-client-src\source\UserInterface\MovieMan.cpp
;	COMDAT ?PlayMovie@CMovieMan@@AAEHPBD_NHK@Z
_TEXT	SEGMENT
_pDD$ = -292						; size = 4
_pDDClipper$ = -288					; size = 4
_pDDStream$1 = -284					; size = 4
_pMMStream$ = -280					; size = 4
tv499 = -276						; size = 4
_cpFileName$GSCopy$1$ = -276				; size = 4
_pPrimaryVidStream$2 = -272				; size = 4
_this$GSCopy$1$ = -268					; size = 4
_pSurface$3 = -264					; size = 4
_msg$ = -260						; size = 28
_ddsd$ = -232						; size = 108
_ddsdBackSurface$4 = -120				; size = 108
__$ArrayPad$ = -4					; size = 4
_cpFileName$ = 8					; size = 4
_bSkipAllowed$dead$ = 12				; size = 1
_nPostEffectID$dead$ = 16				; size = 4
_dwPostEffectData$dead$ = 20				; size = 4
?PlayMovie@CMovieMan@@AAEHPBD_NHK@Z PROC		; CMovieMan::PlayMovie, COMDAT
; _this$ = ecx

; 131  : {

  00000	55		 push	 ebp
  00001	8b ec		 mov	 ebp, esp
  00003	83 e4 f8	 and	 esp, -8			; fffffff8H
  00006	81 ec 24 01 00
	00		 sub	 esp, 292		; 00000124H
  0000c	a1 00 00 00 00	 mov	 eax, DWORD PTR ___security_cookie
  00011	33 c4		 xor	 eax, esp
  00013	89 84 24 20 01
	00 00		 mov	 DWORD PTR __$ArrayPad$[esp+292], eax
  0001a	8b 45 08	 mov	 eax, DWORD PTR _cpFileName$[ebp]
  0001d	53		 push	 ebx
  0001e	56		 push	 esi
  0001f	8b f1		 mov	 esi, ecx
  00021	89 44 24 18	 mov	 DWORD PTR _cpFileName$GSCopy$1$[esp+300], eax

; 132  : 	HWND hWnd = CPythonApplication::Instance().GetWindowHandle();

  00025	8b 0d 00 00 00
	00		 mov	 ecx, DWORD PTR ?ms_pInstance@CPythonApplication@@1PAV1@A ; CPythonApplication::ms_pInstance
  0002b	57		 push	 edi
  0002c	89 74 24 24	 mov	 DWORD PTR _this$GSCopy$1$[esp+304], esi
  00030	e8 00 00 00 00	 call	 ?GetWindowHandle@CMSWindow@@QAEPAUHWND__@@XZ ; CMSWindow::GetWindowHandle
  00035	8b d8		 mov	 ebx, eax

; 133  : 
; 134  : 	IDirectDraw *pDD = NULL;

  00037	c7 44 24 0c 00
	00 00 00	 mov	 DWORD PTR _pDD$[esp+304], 0

; 135  : 	DirectDrawCreate(NULL, &pDD, NULL);

  0003f	6a 00		 push	 0
  00041	8d 44 24 10	 lea	 eax, DWORD PTR _pDD$[esp+308]
  00045	50		 push	 eax
  00046	6a 00		 push	 0
  00048	ff 15 00 00 00
	00		 call	 DWORD PTR __imp__DirectDrawCreate@12

; 136  : 	pDD->SetCooperativeLevel(hWnd, DDSCL_NORMAL);

  0004e	8b 4c 24 0c	 mov	 ecx, DWORD PTR _pDD$[esp+304]
  00052	6a 08		 push	 8
  00054	53		 push	 ebx
  00055	51		 push	 ecx
  00056	8b 11		 mov	 edx, DWORD PTR [ecx]
  00058	ff 52 50	 call	 DWORD PTR [edx+80]

; 137  : 
; 138  : 	DDSURFACEDESC ddsd;
; 139  : 	ZeroMemory(&ddsd, sizeof(ddsd));

  0005b	6a 60		 push	 96			; 00000060H
  0005d	8d 44 24 54	 lea	 eax, DWORD PTR _ddsd$[esp+316]
  00061	6a 00		 push	 0
  00063	50		 push	 eax
  00064	e8 00 00 00 00	 call	 _memset

; 140  : 	ddsd.dwSize = sizeof(ddsd);
; 141  : 	ddsd.dwFlags = DDSD_CAPS;
; 142  : 	ddsd.ddsCaps.dwCaps = DDSCAPS_PRIMARYSURFACE;
; 143  : 	if (FAILED(pDD->CreateSurface(&ddsd, &m_pPrimarySurface, NULL)))

  00069	8b 4c 24 18	 mov	 ecx, DWORD PTR _pDD$[esp+316]
  0006d	8d 7e 20	 lea	 edi, DWORD PTR [esi+32]
  00070	83 c4 0c	 add	 esp, 12			; 0000000cH
  00073	c7 44 24 48 6c
	00 00 00	 mov	 DWORD PTR _ddsd$[esp+304], 108 ; 0000006cH
  0007b	c7 44 24 4c 01
	00 00 00	 mov	 DWORD PTR _ddsd$[esp+308], 1
  00083	8d 54 24 48	 lea	 edx, DWORD PTR _ddsd$[esp+304]
  00087	c7 84 24 b0 00
	00 00 00 02 00
	00		 mov	 DWORD PTR _ddsd$[esp+408], 512 ; 00000200H
  00092	8b 01		 mov	 eax, DWORD PTR [ecx]
  00094	6a 00		 push	 0
  00096	57		 push	 edi
  00097	52		 push	 edx
  00098	51		 push	 ecx
  00099	ff 50 18	 call	 DWORD PTR [eax+24]
  0009c	85 c0		 test	 eax, eax
  0009e	79 23		 jns	 SHORT $LN6@PlayMovie

; 144  : 	{
; 145  : 		pDD->Release();

  000a0	8b 44 24 0c	 mov	 eax, DWORD PTR _pDD$[esp+304]
  000a4	50		 push	 eax
  000a5	8b 08		 mov	 ecx, DWORD PTR [eax]
  000a7	ff 51 08	 call	 DWORD PTR [ecx+8]

; 146  : 		return FALSE;

  000aa	33 c0		 xor	 eax, eax

; 235  : 
; 236  : 	return SUCCEEDED(hr);
; 237  : }

  000ac	5f		 pop	 edi
  000ad	5e		 pop	 esi
  000ae	5b		 pop	 ebx
  000af	8b 8c 24 20 01
	00 00		 mov	 ecx, DWORD PTR __$ArrayPad$[esp+292]
  000b6	33 cc		 xor	 ecx, esp
  000b8	e8 00 00 00 00	 call	 @__security_check_cookie@4
  000bd	8b e5		 mov	 esp, ebp
  000bf	5d		 pop	 ebp
  000c0	c2 10 00	 ret	 16			; 00000010H
$LN6@PlayMovie:

; 147  : 	}
; 148  : 
; 149  : 	// 32비트인지 알아본다
; 150  : 	ZeroMemory(&ddsd, sizeof(ddsd));

  000c3	6a 64		 push	 100			; 00000064H
  000c5	8d 44 24 54	 lea	 eax, DWORD PTR _ddsd$[esp+316]
  000c9	6a 00		 push	 0
  000cb	50		 push	 eax
  000cc	e8 00 00 00 00	 call	 _memset

; 151  : 	ddsd.dwSize = sizeof(ddsd);
; 152  : 	ddsd.dwFlags = DDSD_PIXELFORMAT;
; 153  : 	m_pPrimarySurface->GetSurfaceDesc(&ddsd);

  000d1	8b 07		 mov	 eax, DWORD PTR [edi]
  000d3	8d 54 24 54	 lea	 edx, DWORD PTR _ddsd$[esp+316]
  000d7	83 c4 0c	 add	 esp, 12			; 0000000cH
  000da	c7 44 24 48 6c
	00 00 00	 mov	 DWORD PTR _ddsd$[esp+304], 108 ; 0000006cH
  000e2	c7 44 24 4c 00
	10 00 00	 mov	 DWORD PTR _ddsd$[esp+308], 4096 ; 00001000H
  000ea	8b 08		 mov	 ecx, DWORD PTR [eax]
  000ec	52		 push	 edx
  000ed	50		 push	 eax
  000ee	ff 51 58	 call	 DWORD PTR [ecx+88]

; 154  : 	ddsd.ddpfPixelFormat.dwSize = sizeof(ddsd.ddpfPixelFormat);
; 155  : 	m_usingRGB32 = (ddsd.ddpfPixelFormat.dwRGBBitCount == 32);

  000f1	83 bc 24 9c 00
	00 00 20	 cmp	 DWORD PTR _ddsd$[esp+388], 32 ; 00000020H

; 156  : 
; 157  : 	IDirectDrawClipper *pDDClipper = NULL;
; 158  : 	HRESULT hr = pDD->CreateClipper(0, &pDDClipper, NULL);

  000f9	8d 54 24 10	 lea	 edx, DWORD PTR _pDDClipper$[esp+304]
  000fd	8b 4c 24 0c	 mov	 ecx, DWORD PTR _pDD$[esp+304]
  00101	6a 00		 push	 0
  00103	0f 94 c0	 sete	 al
  00106	c7 84 24 94 00
	00 00 20 00 00
	00		 mov	 DWORD PTR _ddsd$[esp+380], 32 ; 00000020H
  00111	52		 push	 edx
  00112	88 46 04	 mov	 BYTE PTR [esi+4], al
  00115	c7 44 24 18 00
	00 00 00	 mov	 DWORD PTR _pDDClipper$[esp+312], 0
  0011d	8b 01		 mov	 eax, DWORD PTR [ecx]
  0011f	6a 00		 push	 0
  00121	51		 push	 ecx
  00122	ff 50 10	 call	 DWORD PTR [eax+16]

; 159  : 	if (SUCCEEDED(hr))

  00125	85 c0		 test	 eax, eax
  00127	78 19		 js	 SHORT $LN7@PlayMovie

; 160  : 	{
; 161  : 		pDDClipper->SetHWnd(0, hWnd);

  00129	8b 44 24 10	 mov	 eax, DWORD PTR _pDDClipper$[esp+304]
  0012d	53		 push	 ebx
  0012e	6a 00		 push	 0
  00130	50		 push	 eax
  00131	8b 08		 mov	 ecx, DWORD PTR [eax]
  00133	ff 51 20	 call	 DWORD PTR [ecx+32]

; 162  : 		m_pPrimarySurface->SetClipper(pDDClipper);

  00136	8b 07		 mov	 eax, DWORD PTR [edi]
  00138	ff 74 24 10	 push	 DWORD PTR _pDDClipper$[esp+304]
  0013c	50		 push	 eax
  0013d	8b 08		 mov	 ecx, DWORD PTR [eax]
  0013f	ff 51 70	 call	 DWORD PTR [ecx+112]
$LN7@PlayMovie:

; 163  : 	}
; 164  : 
; 165  : 	IMultiMediaStream *pMMStream = NULL;
; 166  : 	hr = RenderFileToMMStream(cpFileName, &pMMStream, pDD);

  00142	ff 74 24 0c	 push	 DWORD PTR _pDD$[esp+304]
  00146	8d 44 24 1c	 lea	 eax, DWORD PTR _pMMStream$[esp+308]
  0014a	c7 44 24 1c 00
	00 00 00	 mov	 DWORD PTR _pMMStream$[esp+308], 0
  00152	50		 push	 eax
  00153	ff 74 24 24	 push	 DWORD PTR _cpFileName$GSCopy$1$[esp+312]
  00157	8b ce		 mov	 ecx, esi
  00159	e8 00 00 00 00	 call	 ?RenderFileToMMStream@CMovieMan@@AAEJPBDPAPAUIMultiMediaStream@@PAUIDirectDraw@@@Z ; CMovieMan::RenderFileToMMStream
  0015e	8b f8		 mov	 edi, eax
  00160	89 7c 24 1c	 mov	 DWORD PTR tv499[esp+304], edi

; 167  : 	if (SUCCEEDED(hr))

  00164	85 ff		 test	 edi, edi
  00166	0f 88 5e 01 00
	00		 js	 $LN8@PlayMovie

; 168  : 	{
; 169  : 		IMediaStream *pPrimaryVidStream = NULL;
; 170  : 		HRESULT hr = pMMStream->GetMediaStream(MSPID_PrimaryVideo, &pPrimaryVidStream);

  0016c	8b 4c 24 18	 mov	 ecx, DWORD PTR _pMMStream$[esp+304]
  00170	8d 54 24 20	 lea	 edx, DWORD PTR _pPrimaryVidStream$2[esp+304]
  00174	52		 push	 edx
  00175	c7 44 24 24 00
	00 00 00	 mov	 DWORD PTR _pPrimaryVidStream$2[esp+308], 0
  0017d	68 00 00 00 00	 push	 OFFSET _MSPID_PrimaryVideo
  00182	8b 01		 mov	 eax, DWORD PTR [ecx]
  00184	51		 push	 ecx
  00185	ff 50 10	 call	 DWORD PTR [eax+16]

; 171  : 		if (SUCCEEDED(hr))

  00188	85 c0		 test	 eax, eax
  0018a	0f 88 30 01 00
	00		 js	 $LN9@PlayMovie

; 172  : 		{
; 173  : 			IDirectDrawMediaStream *pDDStream = NULL;
; 174  : 			pPrimaryVidStream->QueryInterface(IID_IDirectDrawMediaStream, (void **) &pDDStream);

  00190	8b 44 24 20	 mov	 eax, DWORD PTR _pPrimaryVidStream$2[esp+304]
  00194	8d 54 24 14	 lea	 edx, DWORD PTR _pDDStream$1[esp+304]
  00198	52		 push	 edx
  00199	c7 44 24 18 00
	00 00 00	 mov	 DWORD PTR _pDDStream$1[esp+308], 0
  001a1	68 00 00 00 00	 push	 OFFSET _IID_IDirectDrawMediaStream
  001a6	8b 08		 mov	 ecx, DWORD PTR [eax]
  001a8	50		 push	 eax
  001a9	ff 11		 call	 DWORD PTR [ecx]

; 175  : 			pPrimaryVidStream->Release();

  001ab	8b 44 24 20	 mov	 eax, DWORD PTR _pPrimaryVidStream$2[esp+304]
  001af	50		 push	 eax
  001b0	8b 08		 mov	 ecx, DWORD PTR [eax]
  001b2	ff 51 08	 call	 DWORD PTR [ecx+8]

; 176  : 
; 177  : 			ddsd.dwSize = sizeof(ddsd);
; 178  : 			hr = pDDStream->GetFormat(&ddsd, NULL, NULL, NULL);

  001b5	8b 4c 24 14	 mov	 ecx, DWORD PTR _pDDStream$1[esp+304]
  001b9	8d 54 24 48	 lea	 edx, DWORD PTR _ddsd$[esp+304]
  001bd	6a 00		 push	 0
  001bf	6a 00		 push	 0
  001c1	6a 00		 push	 0
  001c3	c7 44 24 54 6c
	00 00 00	 mov	 DWORD PTR _ddsd$[esp+316], 108 ; 0000006cH
  001cb	8b 01		 mov	 eax, DWORD PTR [ecx]
  001cd	52		 push	 edx
  001ce	51		 push	 ecx
  001cf	ff 50 24	 call	 DWORD PTR [eax+36]

; 179  : 			if (SUCCEEDED(hr))

  001d2	85 c0		 test	 eax, eax
  001d4	0f 88 dc 00 00
	00		 js	 $LN11@PlayMovie

; 180  : 			{
; 181  : 				// 동영상 크기와 윈도우 크기를 기준으로 동영상 재생될 적당한 영역을 설정
; 182  : 				m_movieWidth = ddsd.dwWidth;
; 183  : 				m_movieHeight = ddsd.dwHeight;

  001da	8b 44 24 24	 mov	 eax, DWORD PTR _this$GSCopy$1$[esp+304]
  001de	8b 7c 24 54	 mov	 edi, DWORD PTR _ddsd$[esp+316]
  001e2	89 7e 08	 mov	 DWORD PTR [esi+8], edi
  001e5	8b 74 24 50	 mov	 esi, DWORD PTR _ddsd$[esp+312]

; 184  : 
; 185  : 				// 백버퍼는 무조건 RGB32로 만들고 PrimarySurface와 형식이 다르면
; 186  : 				// GDI fallback 해서 StretchBlt 한다
; 187  : 				DDSURFACEDESC ddsdBackSurface;
; 188  : 				ZeroMemory(&ddsdBackSurface, sizeof(ddsdBackSurface));

  001e9	6a 6c		 push	 108			; 0000006cH
  001eb	89 70 0c	 mov	 DWORD PTR [eax+12], esi
  001ee	8d 84 24 bc 00
	00 00		 lea	 eax, DWORD PTR _ddsdBackSurface$4[esp+308]
  001f5	6a 00		 push	 0
  001f7	50		 push	 eax
  001f8	e8 00 00 00 00	 call	 _memset

; 189  : 				ddsdBackSurface.ddpfPixelFormat.dwSize = sizeof(ddsdBackSurface.ddpfPixelFormat);
; 190  : 				ddsdBackSurface.ddpfPixelFormat.dwFlags = DDPF_RGB;
; 191  : 				ddsdBackSurface.ddpfPixelFormat.dwRGBBitCount = 32;
; 192  : 				ddsdBackSurface.ddpfPixelFormat.dwRBitMask = 255 << 16;
; 193  : 				ddsdBackSurface.ddpfPixelFormat.dwGBitMask = 255 << 8;
; 194  : 				ddsdBackSurface.ddpfPixelFormat.dwBBitMask = 255;
; 195  : 				ddsdBackSurface.dwSize = sizeof(ddsdBackSurface);
; 196  : 				ddsdBackSurface.dwFlags = DDSD_CAPS | DDSD_HEIGHT | DDSD_WIDTH | DDSD_PIXELFORMAT;
; 197  : 				ddsdBackSurface.ddsCaps.dwCaps = DDSCAPS_OFFSCREENPLAIN | DDSCAPS_SYSTEMMEMORY;
; 198  : 				ddsdBackSurface.dwHeight = m_movieHeight;
; 199  : 				ddsdBackSurface.dwWidth = m_movieWidth;
; 200  : 
; 201  : 				IDirectDrawSurface *pSurface;
; 202  : 				hr = pDD->CreateSurface(&ddsdBackSurface, &pSurface, NULL);

  001fd	8b 4c 24 18	 mov	 ecx, DWORD PTR _pDD$[esp+316]
  00201	8d 54 24 34	 lea	 edx, DWORD PTR _pSurface$3[esp+316]
  00205	83 c4 0c	 add	 esp, 12			; 0000000cH
  00208	c7 84 24 00 01
	00 00 20 00 00
	00		 mov	 DWORD PTR _ddsdBackSurface$4[esp+376], 32 ; 00000020H
  00213	c7 84 24 04 01
	00 00 40 00 00
	00		 mov	 DWORD PTR _ddsdBackSurface$4[esp+380], 64 ; 00000040H
  0021e	c7 84 24 0c 01
	00 00 20 00 00
	00		 mov	 DWORD PTR _ddsdBackSurface$4[esp+388], 32 ; 00000020H
  00229	c7 84 24 10 01
	00 00 00 00 ff
	00		 mov	 DWORD PTR _ddsdBackSurface$4[esp+392], 16711680 ; 00ff0000H
  00234	6a 00		 push	 0
  00236	52		 push	 edx
  00237	c7 84 24 1c 01
	00 00 00 ff 00
	00		 mov	 DWORD PTR _ddsdBackSurface$4[esp+404], 65280 ; 0000ff00H
  00242	8d 94 24 c0 00
	00 00		 lea	 edx, DWORD PTR _ddsdBackSurface$4[esp+312]
  00249	c7 84 24 20 01
	00 00 ff 00 00
	00		 mov	 DWORD PTR _ddsdBackSurface$4[esp+408], 255 ; 000000ffH
  00254	c7 84 24 c0 00
	00 00 6c 00 00
	00		 mov	 DWORD PTR _ddsdBackSurface$4[esp+312], 108 ; 0000006cH
  0025f	c7 84 24 c4 00
	00 00 07 10 00
	00		 mov	 DWORD PTR _ddsdBackSurface$4[esp+316], 4103 ; 00001007H
  0026a	c7 84 24 28 01
	00 00 40 08 00
	00		 mov	 DWORD PTR _ddsdBackSurface$4[esp+416], 2112 ; 00000840H
  00275	89 b4 24 c8 00
	00 00		 mov	 DWORD PTR _ddsdBackSurface$4[esp+320], esi
  0027c	89 bc 24 cc 00
	00 00		 mov	 DWORD PTR _ddsdBackSurface$4[esp+324], edi
  00283	8b 01		 mov	 eax, DWORD PTR [ecx]
  00285	52		 push	 edx
  00286	51		 push	 ecx
  00287	ff 50 18	 call	 DWORD PTR [eax+24]

; 203  : 				if (SUCCEEDED(hr))

  0028a	8b 74 24 24	 mov	 esi, DWORD PTR _this$GSCopy$1$[esp+304]
  0028e	85 c0		 test	 eax, eax
  00290	78 20		 js	 SHORT $LN30@PlayMovie

; 204  : 				{ 
; 205  : 					RenderStreamToSurface(pSurface, pDDStream, pMMStream, bSkipAllowed, nPostEffectID, dwPostEffectData);

  00292	83 ec 0c	 sub	 esp, 12			; 0000000cH
  00295	8b ce		 mov	 ecx, esi
  00297	ff 74 24 24	 push	 DWORD PTR _pMMStream$[esp+316]
  0029b	ff 74 24 24	 push	 DWORD PTR _pDDStream$1[esp+320]
  0029f	ff 74 24 3c	 push	 DWORD PTR _pSurface$3[esp+324]
  002a3	e8 00 00 00 00	 call	 ?RenderStreamToSurface@CMovieMan@@AAEJPAUIDirectDrawSurface@@PAUIDirectDrawMediaStream@@PAUIMultiMediaStream@@_NHK@Z ; CMovieMan::RenderStreamToSurface

; 206  : 					pSurface->Release();

  002a8	8b 44 24 28	 mov	 eax, DWORD PTR _pSurface$3[esp+304]
  002ac	50		 push	 eax
  002ad	8b 08		 mov	 ecx, DWORD PTR [eax]
  002af	ff 51 08	 call	 DWORD PTR [ecx+8]
$LN30@PlayMovie:

; 207  : 				}
; 208  : 			}
; 209  : 			pDDStream->Release();

  002b2	8b 7c 24 1c	 mov	 edi, DWORD PTR tv499[esp+304]
$LN11@PlayMovie:
  002b6	8b 44 24 14	 mov	 eax, DWORD PTR _pDDStream$1[esp+304]
  002ba	50		 push	 eax
  002bb	8b 08		 mov	 ecx, DWORD PTR [eax]
  002bd	ff 51 08	 call	 DWORD PTR [ecx+8]
$LN9@PlayMovie:

; 210  : 		}
; 211  : 		pMMStream->Release();

  002c0	8b 44 24 18	 mov	 eax, DWORD PTR _pMMStream$[esp+304]
  002c4	50		 push	 eax
  002c5	8b 08		 mov	 ecx, DWORD PTR [eax]
  002c7	ff 51 08	 call	 DWORD PTR [ecx+8]
$LN8@PlayMovie:

; 212  : 	}
; 213  : 
; 214  : 	m_pPrimarySurface->Release();

  002ca	8b 46 20	 mov	 eax, DWORD PTR [esi+32]
  002cd	50		 push	 eax
  002ce	8b 08		 mov	 ecx, DWORD PTR [eax]
  002d0	ff 51 08	 call	 DWORD PTR [ecx+8]

; 215  : 	m_pPrimarySurface = NULL;
; 216  : 
; 217  : 	if (m_pBasicAudio)

  002d3	8b 4e 24	 mov	 ecx, DWORD PTR [esi+36]
  002d6	c7 46 20 00 00
	00 00		 mov	 DWORD PTR [esi+32], 0
  002dd	85 c9		 test	 ecx, ecx
  002df	74 0d		 je	 SHORT $LN12@PlayMovie

; 218  : 	{
; 219  : 		m_pBasicAudio->Release();

  002e1	8b 01		 mov	 eax, DWORD PTR [ecx]
  002e3	51		 push	 ecx
  002e4	ff 50 08	 call	 DWORD PTR [eax+8]

; 220  : 		m_pBasicAudio = NULL;

  002e7	c7 46 24 00 00
	00 00		 mov	 DWORD PTR [esi+36], 0
$LN12@PlayMovie:

; 221  : 	}
; 222  : 
; 223  : 	if (pDDClipper)

  002ee	8b 4c 24 10	 mov	 ecx, DWORD PTR _pDDClipper$[esp+304]
  002f2	85 c9		 test	 ecx, ecx
  002f4	74 0e		 je	 SHORT $LN13@PlayMovie

; 224  : 	{
; 225  : 		pDDClipper->Release();

  002f6	8b 01		 mov	 eax, DWORD PTR [ecx]
  002f8	51		 push	 ecx
  002f9	ff 50 08	 call	 DWORD PTR [eax+8]

; 226  : 		pDDClipper = NULL;

  002fc	c7 44 24 10 00
	00 00 00	 mov	 DWORD PTR _pDDClipper$[esp+304], 0
$LN13@PlayMovie:

; 227  : 	}
; 228  : 
; 229  : 	pDD->Release(); 

  00304	8b 44 24 0c	 mov	 eax, DWORD PTR _pDD$[esp+304]
  00308	50		 push	 eax
  00309	8b 08		 mov	 ecx, DWORD PTR [eax]
  0030b	ff 51 08	 call	 DWORD PTR [ecx+8]
  0030e	8b 35 00 00 00
	00		 mov	 esi, DWORD PTR __imp__PeekMessageA@20
$LL2@PlayMovie:

; 230  : 
; 231  : 	// 키보드, 마우스 버퍼 비우기
; 232  : 	MSG msg;
; 233  : 	while (PeekMessage(&msg, hWnd, WM_KEYFIRST, WM_KEYLAST, PM_REMOVE));

  00314	6a 01		 push	 1
  00316	68 09 01 00 00	 push	 265			; 00000109H
  0031b	68 00 01 00 00	 push	 256			; 00000100H
  00320	53		 push	 ebx
  00321	8d 44 24 3c	 lea	 eax, DWORD PTR _msg$[esp+320]
  00325	50		 push	 eax
  00326	ff d6		 call	 esi
  00328	85 c0		 test	 eax, eax
  0032a	75 e8		 jne	 SHORT $LL2@PlayMovie
  0032c	0f 1f 40 00	 npad	 4
$LL4@PlayMovie:

; 234  : 	while (PeekMessage(&msg, hWnd, WM_MOUSEFIRST, WM_MOUSELAST, PM_REMOVE));

  00330	6a 01		 push	 1
  00332	68 0e 02 00 00	 push	 526			; 0000020eH
  00337	68 00 02 00 00	 push	 512			; 00000200H
  0033c	53		 push	 ebx
  0033d	8d 44 24 3c	 lea	 eax, DWORD PTR _msg$[esp+320]
  00341	50		 push	 eax
  00342	ff d6		 call	 esi
  00344	85 c0		 test	 eax, eax
  00346	75 e8		 jne	 SHORT $LL4@PlayMovie

; 235  : 
; 236  : 	return SUCCEEDED(hr);
; 237  : }

  00348	8b 8c 24 2c 01
	00 00		 mov	 ecx, DWORD PTR __$ArrayPad$[esp+304]
  0034f	f7 d7		 not	 edi
  00351	c1 ef 1f	 shr	 edi, 31			; 0000001fH
  00354	8b c7		 mov	 eax, edi
  00356	5f		 pop	 edi
  00357	5e		 pop	 esi
  00358	5b		 pop	 ebx
  00359	33 cc		 xor	 ecx, esp
  0035b	e8 00 00 00 00	 call	 @__security_check_cookie@4
  00360	8b e5		 mov	 esp, ebp
  00362	5d		 pop	 ebp
  00363	c2 10 00	 ret	 16			; 00000010H
?PlayMovie@CMovieMan@@AAEHPBD_NHK@Z ENDP		; CMovieMan::PlayMovie
_TEXT	ENDS
; Function compile flags: /Ogtp
; File D:\_m2work\txoko-m2-work\txoko-client-src\source\UserInterface\MovieMan.cpp
;	COMDAT ?GetWindowRect@CMovieMan@@AAEXAAUtagRECT@@@Z
_TEXT	SEGMENT
_p$ = -12						; size = 8
_windowRect$ = 8					; size = 4
?GetWindowRect@CMovieMan@@AAEXAAUtagRECT@@@Z PROC	; CMovieMan::GetWindowRect, COMDAT
; _this$dead$ = ecx

; 243  : {

  00000	55		 push	 ebp
  00001	8b ec		 mov	 ebp, esp
  00003	83 ec 10	 sub	 esp, 16			; 00000010H

; 244  : 	HWND hWnd = CPythonApplication::Instance().GetWindowHandle();

  00006	8b 0d 00 00 00
	00		 mov	 ecx, DWORD PTR ?ms_pInstance@CPythonApplication@@1PAV1@A ; CPythonApplication::ms_pInstance
  0000c	57		 push	 edi
  0000d	e8 00 00 00 00	 call	 ?GetWindowHandle@CMSWindow@@QAEPAUHWND__@@XZ ; CMSWindow::GetWindowHandle
  00012	8b f8		 mov	 edi, eax

; 245  : 	POINT p;
; 246  : 
; 247  : 	//
; 248  : 	// Get the position of the upper-left client coordinate (in screen space).
; 249  : 	//
; 250  : 	p.x = 0;

  00014	c7 45 f4 00 00
	00 00		 mov	 DWORD PTR _p$[ebp], 0

; 251  : 	p.y = 0;
; 252  : 	ClientToScreen( hWnd, &p );

  0001b	8d 45 f4	 lea	 eax, DWORD PTR _p$[ebp]
  0001e	c7 45 f8 00 00
	00 00		 mov	 DWORD PTR _p$[ebp+4], 0
  00025	50		 push	 eax
  00026	57		 push	 edi
  00027	ff 15 00 00 00
	00		 call	 DWORD PTR __imp__ClientToScreen@8

; 253  : 
; 254  : 	//
; 255  : 	// Get the client rectangle of the window.
; 256  : 	//
; 257  : 	GetClientRect( hWnd, &windowRect );

  0002d	ff 75 08	 push	 DWORD PTR _windowRect$[ebp]
  00030	57		 push	 edi
  00031	ff 15 00 00 00
	00		 call	 DWORD PTR __imp__GetClientRect@8

; 258  : 
; 259  : 	// clientRect를 ClientToScreen 하는 것과 같음
; 260  : 	OffsetRect( &windowRect, p.x, p.y );

  00037	ff 75 f8	 push	 DWORD PTR _p$[ebp+4]
  0003a	ff 75 f4	 push	 DWORD PTR _p$[ebp]
  0003d	ff 75 08	 push	 DWORD PTR _windowRect$[ebp]
  00040	ff 15 00 00 00
	00		 call	 DWORD PTR __imp__OffsetRect@12

; 261  : }

  00046	5f		 pop	 edi
  00047	8b e5		 mov	 esp, ebp
  00049	5d		 pop	 ebp
  0004a	c2 04 00	 ret	 4
?GetWindowRect@CMovieMan@@AAEXAAUtagRECT@@@Z ENDP	; CMovieMan::GetWindowRect
_TEXT	ENDS
; Function compile flags: /Ogtp
; File D:\_m2work\txoko-m2-work\txoko-client-src\source\UserInterface\MovieMan.cpp
;	COMDAT ?CalcMovieRect@CMovieMan@@AAEXHHAAUtagRECT@@@Z
_TEXT	SEGMENT
_movieRect$GSCopy$1$ = -28				; size = 4
_windowRect$ = -24					; size = 16
__$ArrayPad$ = -8					; size = 4
_srcWidth$ = 8						; size = 4
_srcHeight$ = 12					; size = 4
_movieRect$ = 16					; size = 4
?CalcMovieRect@CMovieMan@@AAEXHHAAUtagRECT@@@Z PROC	; CMovieMan::CalcMovieRect, COMDAT
; _this$dead$ = ecx

; 267  : {

  00000	55		 push	 ebp
  00001	8b ec		 mov	 ebp, esp
  00003	83 ec 20	 sub	 esp, 32			; 00000020H
  00006	a1 00 00 00 00	 mov	 eax, DWORD PTR ___security_cookie
  0000b	33 c5		 xor	 eax, ebp
  0000d	89 45 f8	 mov	 DWORD PTR __$ArrayPad$[ebp], eax
  00010	8b 45 10	 mov	 eax, DWORD PTR _movieRect$[ebp]
  00013	53		 push	 ebx
  00014	56		 push	 esi
  00015	89 45 e4	 mov	 DWORD PTR _movieRect$GSCopy$1$[ebp], eax

; 268  : 	RECT windowRect;
; 269  : 	GetWindowRect(windowRect);

  00018	8d 45 e8	 lea	 eax, DWORD PTR _windowRect$[ebp]
  0001b	57		 push	 edi
  0001c	50		 push	 eax
  0001d	e8 00 00 00 00	 call	 ?GetWindowRect@CMovieMan@@AAEXAAUtagRECT@@@Z ; CMovieMan::GetWindowRect

; 270  : 
; 271  : 	int nMovieWidth, nMovieHeight;
; 272  : 	if (srcWidth >= srcHeight)

  00022	8b 4d 08	 mov	 ecx, DWORD PTR _srcWidth$[ebp]
  00025	8b 75 0c	 mov	 esi, DWORD PTR _srcHeight$[ebp]
  00028	3b ce		 cmp	 ecx, esi
  0002a	7c 23		 jl	 SHORT $LN2@CalcMovieR

; 273  : 	{
; 274  : 		nMovieWidth = (windowRect.right - windowRect.left);

  0002c	8b 5d f0	 mov	 ebx, DWORD PTR _windowRect$[ebp+8]
  0002f	2b 5d e8	 sub	 ebx, DWORD PTR _windowRect$[ebp]

; 275  : 		nMovieHeight =  srcHeight * nMovieWidth / srcWidth;

  00032	8b c3		 mov	 eax, ebx
  00034	0f af c6	 imul	 eax, esi

; 276  : 		if( nMovieHeight > windowRect.bottom - windowRect.top )
; 277  : 			nMovieHeight = windowRect.bottom - windowRect.top;
; 278  : 	}

  00037	8b 75 e8	 mov	 esi, DWORD PTR _windowRect$[ebp]
  0003a	99		 cdq
  0003b	f7 f9		 idiv	 ecx
  0003d	8b 4d f4	 mov	 ecx, DWORD PTR _windowRect$[ebp+12]
  00040	8b f9		 mov	 edi, ecx
  00042	2b 7d ec	 sub	 edi, DWORD PTR _windowRect$[ebp+4]
  00045	3b c7		 cmp	 eax, edi
  00047	0f 4e f8	 cmovle	 edi, eax
  0004a	8b 45 f0	 mov	 eax, DWORD PTR _windowRect$[ebp+8]
  0004d	eb 22		 jmp	 SHORT $LN5@CalcMovieR
$LN2@CalcMovieR:

; 279  : 	else
; 280  : 	{
; 281  : 		nMovieHeight = (windowRect.bottom - windowRect.top);

  0004f	8b 7d f4	 mov	 edi, DWORD PTR _windowRect$[ebp+12]
  00052	2b 7d ec	 sub	 edi, DWORD PTR _windowRect$[ebp+4]

; 282  : 		nMovieWidth =  srcWidth * nMovieHeight / srcHeight;

  00055	8b c7		 mov	 eax, edi
  00057	0f af c1	 imul	 eax, ecx
  0005a	99		 cdq
  0005b	f7 fe		 idiv	 esi

; 283  : 		if( nMovieWidth > windowRect.right - windowRect.left )

  0005d	8b 75 e8	 mov	 esi, DWORD PTR _windowRect$[ebp]
  00060	8b d8		 mov	 ebx, eax
  00062	8b 45 f0	 mov	 eax, DWORD PTR _windowRect$[ebp+8]
  00065	8b c8		 mov	 ecx, eax
  00067	2b ce		 sub	 ecx, esi
  00069	3b d9		 cmp	 ebx, ecx
  0006b	0f 4f d9	 cmovg	 ebx, ecx
  0006e	8b 4d f4	 mov	 ecx, DWORD PTR _windowRect$[ebp+12]
$LN5@CalcMovieR:

; 284  : 			nMovieWidth = windowRect.right - windowRect.left;
; 285  : 	}
; 286  : 	movieRect.left = windowRect.left + ((windowRect.right - windowRect.left) - nMovieWidth) / 2;
; 287  : 	movieRect.top = windowRect.top + ((windowRect.bottom - windowRect.top) - nMovieHeight) / 2;

  00071	2b 4d ec	 sub	 ecx, DWORD PTR _windowRect$[ebp+4]
  00074	2b c6		 sub	 eax, esi
  00076	2b c3		 sub	 eax, ebx
  00078	2b cf		 sub	 ecx, edi
  0007a	99		 cdq
  0007b	2b c2		 sub	 eax, edx
  0007d	d1 f8		 sar	 eax, 1
  0007f	03 f0		 add	 esi, eax
  00081	8b 45 e4	 mov	 eax, DWORD PTR _movieRect$GSCopy$1$[ebp]
  00084	89 30		 mov	 DWORD PTR [eax], esi
  00086	8b c1		 mov	 eax, ecx
  00088	8b 4d ec	 mov	 ecx, DWORD PTR _windowRect$[ebp+4]
  0008b	99		 cdq
  0008c	2b c2		 sub	 eax, edx
  0008e	8b 55 e4	 mov	 edx, DWORD PTR _movieRect$GSCopy$1$[ebp]
  00091	d1 f8		 sar	 eax, 1
  00093	03 c8		 add	 ecx, eax

; 288  : 	movieRect.right = movieRect.left + nMovieWidth;

  00095	8d 04 1e	 lea	 eax, DWORD PTR [esi+ebx]
  00098	89 42 08	 mov	 DWORD PTR [edx+8], eax
  0009b	89 4a 04	 mov	 DWORD PTR [edx+4], ecx

; 289  : 	movieRect.bottom = movieRect.top + nMovieHeight;

  0009e	8d 04 39	 lea	 eax, DWORD PTR [ecx+edi]

; 290  : }

  000a1	8b 4d f8	 mov	 ecx, DWORD PTR __$ArrayPad$[ebp]
  000a4	5f		 pop	 edi
  000a5	5e		 pop	 esi
  000a6	33 cd		 xor	 ecx, ebp
  000a8	89 42 0c	 mov	 DWORD PTR [edx+12], eax
  000ab	5b		 pop	 ebx
  000ac	e8 00 00 00 00	 call	 @__security_check_cookie@4
  000b1	8b e5		 mov	 esp, ebp
  000b3	5d		 pop	 ebp
  000b4	c2 0c 00	 ret	 12			; 0000000cH
?CalcMovieRect@CMovieMan@@AAEXHHAAUtagRECT@@@Z ENDP	; CMovieMan::CalcMovieRect
_TEXT	ENDS
; Function compile flags: /Ogtp
; File D:\_m2work\txoko-m2-work\txoko-client-src\source\UserInterface\MovieMan.cpp
;	COMDAT ?CalcBackgroundRect@CMovieMan@@AAEXABUtagRECT@@AAU2@1@Z
_TEXT	SEGMENT
_lowerRect$GSCopy$1$ = -28				; size = 4
_windowRect$ = -24					; size = 16
__$ArrayPad$ = -8					; size = 4
_movieRect$ = 8						; size = 4
_upperRect$ = 12					; size = 4
_lowerRect$ = 16					; size = 4
?CalcBackgroundRect@CMovieMan@@AAEXABUtagRECT@@AAU2@1@Z PROC ; CMovieMan::CalcBackgroundRect, COMDAT
; _this$ = ecx

; 296  : {

  00000	55		 push	 ebp
  00001	8b ec		 mov	 ebp, esp
  00003	83 ec 20	 sub	 esp, 32			; 00000020H
  00006	a1 00 00 00 00	 mov	 eax, DWORD PTR ___security_cookie
  0000b	33 c5		 xor	 eax, ebp
  0000d	89 45 f8	 mov	 DWORD PTR __$ArrayPad$[ebp], eax
  00010	8b 45 10	 mov	 eax, DWORD PTR _lowerRect$[ebp]
  00013	53		 push	 ebx
  00014	8b 5d 0c	 mov	 ebx, DWORD PTR _upperRect$[ebp]
  00017	56		 push	 esi
  00018	57		 push	 edi
  00019	8b 7d 08	 mov	 edi, DWORD PTR _movieRect$[ebp]
  0001c	8b f1		 mov	 esi, ecx
  0001e	89 45 e4	 mov	 DWORD PTR _lowerRect$GSCopy$1$[ebp], eax

; 297  : 	RECT windowRect;
; 298  : 	GetWindowRect(windowRect);

  00021	8d 45 e8	 lea	 eax, DWORD PTR _windowRect$[ebp]
  00024	50		 push	 eax
  00025	e8 00 00 00 00	 call	 ?GetWindowRect@CMovieMan@@AAEXAAUtagRECT@@@Z ; CMovieMan::GetWindowRect

; 299  : 
; 300  : 	if (m_movieWidth > m_movieHeight)

  0002a	8b 46 08	 mov	 eax, DWORD PTR [esi+8]
  0002d	3b 46 0c	 cmp	 eax, DWORD PTR [esi+12]
  00030	8b 35 00 00 00
	00		 mov	 esi, DWORD PTR __imp__SetRect@20
  00036	7e 1d		 jle	 SHORT $LN2@CalcBackgr

; 301  : 	{
; 302  : 		// 위아래 두개
; 303  : 		SetRect(&upperRect, windowRect.left, windowRect.top, windowRect.right, movieRect.top);

  00038	ff 77 04	 push	 DWORD PTR [edi+4]
  0003b	ff 75 f0	 push	 DWORD PTR _windowRect$[ebp+8]
  0003e	ff 75 ec	 push	 DWORD PTR _windowRect$[ebp+4]
  00041	ff 75 e8	 push	 DWORD PTR _windowRect$[ebp]
  00044	53		 push	 ebx
  00045	ff d6		 call	 esi

; 304  : 		SetRect(&lowerRect, windowRect.left, movieRect.bottom, windowRect.right, windowRect.bottom);

  00047	ff 75 f4	 push	 DWORD PTR _windowRect$[ebp+12]
  0004a	ff 75 f0	 push	 DWORD PTR _windowRect$[ebp+8]
  0004d	ff 77 0c	 push	 DWORD PTR [edi+12]
  00050	ff 75 e8	 push	 DWORD PTR _windowRect$[ebp]

; 305  : 	}

  00053	eb 1a		 jmp	 SHORT $LN5@CalcBackgr
$LN2@CalcBackgr:

; 306  : 	else
; 307  : 	{
; 308  : 		// 좌우 두개
; 309  : 		SetRect(&upperRect, windowRect.left, windowRect.top, movieRect.left, windowRect.bottom);

  00055	ff 75 f4	 push	 DWORD PTR _windowRect$[ebp+12]
  00058	ff 37		 push	 DWORD PTR [edi]
  0005a	ff 75 ec	 push	 DWORD PTR _windowRect$[ebp+4]
  0005d	ff 75 e8	 push	 DWORD PTR _windowRect$[ebp]
  00060	53		 push	 ebx
  00061	ff d6		 call	 esi

; 310  : 		SetRect(&lowerRect, movieRect.right, windowRect.top, windowRect.right, windowRect.bottom);

  00063	ff 75 f4	 push	 DWORD PTR _windowRect$[ebp+12]
  00066	ff 75 f0	 push	 DWORD PTR _windowRect$[ebp+8]
  00069	ff 75 ec	 push	 DWORD PTR _windowRect$[ebp+4]
  0006c	ff 77 08	 push	 DWORD PTR [edi+8]
$LN5@CalcBackgr:

; 311  : 	}
; 312  : }

  0006f	ff 75 e4	 push	 DWORD PTR _lowerRect$GSCopy$1$[ebp]
  00072	ff d6		 call	 esi
  00074	8b 4d f8	 mov	 ecx, DWORD PTR __$ArrayPad$[ebp]
  00077	5f		 pop	 edi
  00078	5e		 pop	 esi
  00079	33 cd		 xor	 ecx, ebp
  0007b	5b		 pop	 ebx
  0007c	e8 00 00 00 00	 call	 @__security_check_cookie@4
  00081	8b e5		 mov	 esp, ebp
  00083	5d		 pop	 ebp
  00084	c2 0c 00	 ret	 12			; 0000000cH
?CalcBackgroundRect@CMovieMan@@AAEXABUtagRECT@@AAU2@1@Z ENDP ; CMovieMan::CalcBackgroundRect
_TEXT	ENDS
; Function compile flags: /Ogtp
; File D:\_m2work\txoko-m2-work\txoko-client-src\source\UserInterface\MovieMan.cpp
;	COMDAT ?RenderStreamToSurface@CMovieMan@@AAEJPAUIDirectDrawSurface@@PAUIDirectDrawMediaStream@@PAUIMultiMediaStream@@_NHK@Z
_TEXT	SEGMENT
_hr$1$ = -68						; size = 4
_pMMStream$GSCopy$1$ = -64				; size = 4
_surfaceDC$1 = -60					; size = 4
_pSample$ = -56						; size = 4
_lowerRect$2 = -52					; size = 16
_upperRect$3 = -36					; size = 16
_movieRect$4 = -20					; size = 16
__$ArrayPad$ = -4					; size = 4
_pSurface$ = 8						; size = 4
_pDDStream$ = 12					; size = 4
_pMMStream$ = 16					; size = 4
_bSkipAllowed$dead$ = 20				; size = 1
_nPostEffectID$dead$ = 24				; size = 4
_dwPostEffectData$dead$ = 28				; size = 4
?RenderStreamToSurface@CMovieMan@@AAEJPAUIDirectDrawSurface@@PAUIDirectDrawMediaStream@@PAUIMultiMediaStream@@_NHK@Z PROC ; CMovieMan::RenderStreamToSurface, COMDAT
; _this$ = ecx

; 318  : {    

  00000	55		 push	 ebp
  00001	8b ec		 mov	 ebp, esp
  00003	83 ec 44	 sub	 esp, 68			; 00000044H
  00006	a1 00 00 00 00	 mov	 eax, DWORD PTR ___security_cookie
  0000b	33 c5		 xor	 eax, ebp
  0000d	89 45 fc	 mov	 DWORD PTR __$ArrayPad$[ebp], eax
  00010	8b 55 0c	 mov	 edx, DWORD PTR _pDDStream$[ebp]
  00013	53		 push	 ebx
  00014	8b 5d 10	 mov	 ebx, DWORD PTR _pMMStream$[ebp]
  00017	56		 push	 esi
  00018	8b 75 08	 mov	 esi, DWORD PTR _pSurface$[ebp]

; 319  : 	#define KEY_DOWN(vk)	(GetAsyncKeyState(vk) & 0x8000)
; 320  : 
; 321  : 	IDirectDrawStreamSample *pSample = NULL;
; 322  : 	HRESULT hr = pDDStream->CreateSample(pSurface, NULL, 0, &pSample);

  0001b	8b 02		 mov	 eax, DWORD PTR [edx]
  0001d	57		 push	 edi
  0001e	8b f9		 mov	 edi, ecx
  00020	89 5d c0	 mov	 DWORD PTR _pMMStream$GSCopy$1$[ebp], ebx
  00023	8d 4d c8	 lea	 ecx, DWORD PTR _pSample$[ebp]
  00026	c7 45 c8 00 00
	00 00		 mov	 DWORD PTR _pSample$[ebp], 0
  0002d	51		 push	 ecx
  0002e	6a 00		 push	 0
  00030	6a 00		 push	 0
  00032	56		 push	 esi
  00033	52		 push	 edx
  00034	ff 50 34	 call	 DWORD PTR [eax+52]
  00037	89 45 bc	 mov	 DWORD PTR _hr$1$[ebp], eax

; 323  : 	if (SUCCEEDED(hr))

  0003a	85 c0		 test	 eax, eax
  0003c	0f 88 0f 01 00
	00		 js	 $LN6@RenderStre

; 324  : 	{
; 325  : 		// 최초 한번 검은색으로 배경을 칠해준다
; 326  : 		RECT movieRect;
; 327  : 		RECT upperRect, lowerRect;
; 328  : 		CalcMovieRect(m_movieWidth, m_movieHeight, movieRect);

  00042	8d 45 ec	 lea	 eax, DWORD PTR _movieRect$4[ebp]
  00045	50		 push	 eax
  00046	ff 77 0c	 push	 DWORD PTR [edi+12]
  00049	ff 77 08	 push	 DWORD PTR [edi+8]
  0004c	e8 00 00 00 00	 call	 ?CalcMovieRect@CMovieMan@@AAEXHHAAUtagRECT@@@Z ; CMovieMan::CalcMovieRect

; 329  : 		CalcBackgroundRect(movieRect, upperRect, lowerRect);

  00051	8d 45 cc	 lea	 eax, DWORD PTR _lowerRect$2[ebp]
  00054	8b cf		 mov	 ecx, edi
  00056	50		 push	 eax
  00057	8d 45 dc	 lea	 eax, DWORD PTR _upperRect$3[ebp]
  0005a	50		 push	 eax
  0005b	8d 45 ec	 lea	 eax, DWORD PTR _movieRect$4[ebp]
  0005e	50		 push	 eax
  0005f	e8 00 00 00 00	 call	 ?CalcBackgroundRect@CMovieMan@@AAEXABUtagRECT@@AAU2@1@Z ; CMovieMan::CalcBackgroundRect

; 330  : 		FillRect(upperRect, 0);

  00064	6a 00		 push	 0
  00066	8d 45 dc	 lea	 eax, DWORD PTR _upperRect$3[ebp]
  00069	8b cf		 mov	 ecx, edi
  0006b	50		 push	 eax
  0006c	e8 00 00 00 00	 call	 ?FillRect@CMovieMan@@AAEXAAUtagRECT@@K@Z ; CMovieMan::FillRect

; 331  : 		FillRect(lowerRect, 0);

  00071	6a 00		 push	 0
  00073	8d 45 cc	 lea	 eax, DWORD PTR _lowerRect$2[ebp]
  00076	8b cf		 mov	 ecx, edi
  00078	50		 push	 eax
  00079	e8 00 00 00 00	 call	 ?FillRect@CMovieMan@@AAEXAAUtagRECT@@K@Z ; CMovieMan::FillRect

; 332  : 
; 333  : 		pMMStream->SetState(STREAMSTATE_RUN);

  0007e	8b 03		 mov	 eax, DWORD PTR [ebx]
  00080	6a 01		 push	 1
  00082	53		 push	 ebx
  00083	ff 50 1c	 call	 DWORD PTR [eax+28]

; 334  : 		while (pSample->Update(0, NULL, NULL, NULL) == S_OK)

  00086	8b 4d c8	 mov	 ecx, DWORD PTR _pSample$[ebp]
  00089	6a 00		 push	 0
  0008b	6a 00		 push	 0
  0008d	6a 00		 push	 0
  0008f	8b 01		 mov	 eax, DWORD PTR [ecx]
  00091	6a 00		 push	 0
  00093	51		 push	 ecx
  00094	ff 50 18	 call	 DWORD PTR [eax+24]
  00097	85 c0		 test	 eax, eax
  00099	0f 85 9e 00 00
	00		 jne	 $LN9@RenderStre
  0009f	90		 npad	 1
$LL2@RenderStre:

; 335  : 		{
; 336  : 			// 윈도우 중앙을 기준으로 꽉차게 그린다
; 337  : 			CalcMovieRect(m_movieWidth, m_movieHeight, movieRect);

  000a0	8d 45 ec	 lea	 eax, DWORD PTR _movieRect$4[ebp]
  000a3	50		 push	 eax
  000a4	ff 77 0c	 push	 DWORD PTR [edi+12]
  000a7	ff 77 08	 push	 DWORD PTR [edi+8]
  000aa	e8 00 00 00 00	 call	 ?CalcMovieRect@CMovieMan@@AAEXHHAAUtagRECT@@@Z ; CMovieMan::CalcMovieRect

; 338  : 			if (FAILED(m_pPrimarySurface->Blt(&movieRect, pSurface, NULL, DDBLT_WAIT, NULL)))

  000af	8b 4f 20	 mov	 ecx, DWORD PTR [edi+32]
  000b2	8d 55 ec	 lea	 edx, DWORD PTR _movieRect$4[ebp]
  000b5	6a 00		 push	 0
  000b7	68 00 00 00 01	 push	 16777216		; 01000000H
  000bc	6a 00		 push	 0
  000be	8b 01		 mov	 eax, DWORD PTR [ecx]
  000c0	56		 push	 esi
  000c1	52		 push	 edx
  000c2	51		 push	 ecx
  000c3	ff 50 14	 call	 DWORD PTR [eax+20]
  000c6	85 c0		 test	 eax, eax
  000c8	79 57		 jns	 SHORT $LN8@RenderStre

; 91   : 	HDC desktopDC = GetDC(0);

  000ca	6a 00		 push	 0
  000cc	ff 15 00 00 00
	00		 call	 DWORD PTR __imp__GetDC@4

; 92   : 	if (SUCCEEDED(pSrcSurface->GetDC(&surfaceDC)))

  000d2	8b 0e		 mov	 ecx, DWORD PTR [esi]
  000d4	8b d8		 mov	 ebx, eax
  000d6	8d 45 c4	 lea	 eax, DWORD PTR _surfaceDC$1[ebp]
  000d9	50		 push	 eax
  000da	56		 push	 esi
  000db	ff 51 44	 call	 DWORD PTR [ecx+68]
  000de	85 c0		 test	 eax, eax
  000e0	78 36		 js	 SHORT $LN13@RenderStre

; 93   : 	{
; 94   : 		StretchBlt(desktopDC, pDestRect->left, pDestRect->top, pDestRect->right - pDestRect->left, pDestRect->bottom - pDestRect->top,

  000e2	8b 45 f8	 mov	 eax, DWORD PTR _movieRect$4[ebp+12]
  000e5	8b 55 f0	 mov	 edx, DWORD PTR _movieRect$4[ebp+4]
  000e8	2b c2		 sub	 eax, edx
  000ea	8b 4d ec	 mov	 ecx, DWORD PTR _movieRect$4[ebp]
  000ed	68 20 00 cc 00	 push	 13369376		; 00cc0020H
  000f2	ff 77 0c	 push	 DWORD PTR [edi+12]
  000f5	ff 77 08	 push	 DWORD PTR [edi+8]
  000f8	6a 00		 push	 0
  000fa	6a 00		 push	 0
  000fc	ff 75 c4	 push	 DWORD PTR _surfaceDC$1[ebp]
  000ff	50		 push	 eax
  00100	8b 45 f4	 mov	 eax, DWORD PTR _movieRect$4[ebp+8]
  00103	2b c1		 sub	 eax, ecx
  00105	50		 push	 eax
  00106	52		 push	 edx
  00107	51		 push	 ecx
  00108	53		 push	 ebx
  00109	ff 15 00 00 00
	00		 call	 DWORD PTR __imp__StretchBlt@44

; 95   : 			surfaceDC, 0, 0, m_movieWidth, m_movieHeight, SRCCOPY);
; 96   : 		pSrcSurface->ReleaseDC(surfaceDC);

  0010f	ff 75 c4	 push	 DWORD PTR _surfaceDC$1[ebp]
  00112	8b 06		 mov	 eax, DWORD PTR [esi]
  00114	56		 push	 esi
  00115	ff 50 68	 call	 DWORD PTR [eax+104]
$LN13@RenderStre:

; 97   : 	}
; 98   : 	ReleaseDC(0, desktopDC);

  00118	53		 push	 ebx
  00119	6a 00		 push	 0
  0011b	ff 15 00 00 00
	00		 call	 DWORD PTR __imp__ReleaseDC@8
$LN8@RenderStre:

; 334  : 		while (pSample->Update(0, NULL, NULL, NULL) == S_OK)

  00121	8b 4d c8	 mov	 ecx, DWORD PTR _pSample$[ebp]
  00124	6a 00		 push	 0
  00126	6a 00		 push	 0
  00128	6a 00		 push	 0
  0012a	8b 01		 mov	 eax, DWORD PTR [ecx]
  0012c	6a 00		 push	 0
  0012e	51		 push	 ecx
  0012f	ff 50 18	 call	 DWORD PTR [eax+24]
  00132	85 c0		 test	 eax, eax
  00134	0f 84 66 ff ff
	ff		 je	 $LL2@RenderStre
  0013a	8b 5d c0	 mov	 ebx, DWORD PTR _pMMStream$GSCopy$1$[ebp]
$LN9@RenderStre:

; 339  : 			{
; 340  : 				GDIBlt(pSurface, &movieRect);
; 341  : 			}
; 342  : 
; 343  : 			// 중간에 스킵 가능하면 키보드ESC/마우스 입력시 탈출
; 344  : 			if (bSkipAllowed && (KEY_DOWN(VK_LBUTTON) || KEY_DOWN(VK_ESCAPE) || KEY_DOWN(VK_SPACE)))
; 345  : 			{
; 346  : 				break;
; 347  : 			}
; 348  : 		}
; 349  : 
; 350  : 		// 동영상 재생 종료시에 2초 동안 페이드아웃
; 351  : 		switch(nPostEffectID)
; 352  : 		{
; 353  : 		case MOVIEMAN_POSTEFFECT_FADEOUT:
; 354  : 			RenderPostEffectFadeOut(pSurface, MOVIEMAN_FADE_DURATION, dwPostEffectData);
; 355  : 			break;
; 356  : 		}
; 357  : 
; 358  : 		pMMStream->SetState(STREAMSTATE_STOP);

  0013d	8b 03		 mov	 eax, DWORD PTR [ebx]
  0013f	6a 00		 push	 0
  00141	53		 push	 ebx
  00142	ff 50 1c	 call	 DWORD PTR [eax+28]

; 359  : 		pSample->Release();

  00145	8b 45 c8	 mov	 eax, DWORD PTR _pSample$[ebp]
  00148	50		 push	 eax
  00149	8b 08		 mov	 ecx, DWORD PTR [eax]
  0014b	ff 51 08	 call	 DWORD PTR [ecx+8]

; 360  : 	}
; 361  : 
; 362  : 	return hr;

  0014e	8b 45 bc	 mov	 eax, DWORD PTR _hr$1$[ebp]
$LN6@RenderStre:

; 363  : }

  00151	8b 4d fc	 mov	 ecx, DWORD PTR __$ArrayPad$[ebp]
  00154	5f		 pop	 edi
  00155	5e		 pop	 esi
  00156	33 cd		 xor	 ecx, ebp
  00158	5b		 pop	 ebx
  00159	e8 00 00 00 00	 call	 @__security_check_cookie@4
  0015e	8b e5		 mov	 esp, ebp
  00160	5d		 pop	 ebp
  00161	c2 18 00	 ret	 24			; 00000018H
?RenderStreamToSurface@CMovieMan@@AAEJPAUIDirectDrawSurface@@PAUIDirectDrawMediaStream@@PAUIMultiMediaStream@@_NHK@Z ENDP ; CMovieMan::RenderStreamToSurface
_TEXT	ENDS
; Function compile flags: /Ogtp
; File D:\_m2work\txoko-m2-work\txoko-client-src\source\UserInterface\MovieMan.cpp
; File C:\Program Files\Microsoft Visual Studio\2022\Community\VC\Tools\MSVC\14.44.35207\include\xstring
; File D:\_m2work\txoko-m2-work\txoko-client-src\source\UserInterface\MovieMan.cpp
; File C:\Program Files\Microsoft Visual Studio\2022\Community\VC\Tools\MSVC\14.44.35207\include\xstring
; File D:\_m2work\txoko-m2-work\txoko-client-src\source\UserInterface\MovieMan.cpp
; File C:\Program Files\Microsoft Visual Studio\2022\Community\VC\Tools\MSVC\14.44.35207\include\xstring
; File C:\Program Files\Microsoft Visual Studio\2022\Community\VC\Tools\MSVC\14.44.35207\include\algorithm
; File C:\Program Files\Microsoft Visual Studio\2022\Community\VC\Tools\MSVC\14.44.35207\include\xstring
; File C:\Program Files\Microsoft Visual Studio\2022\Community\VC\Tools\MSVC\14.44.35207\include\__msvc_string_view.hpp
; File D:\_m2work\txoko-m2-work\txoko-client-src\source\UserInterface\MovieMan.cpp
; File C:\Program Files\Microsoft Visual Studio\2022\Community\VC\Tools\MSVC\14.44.35207\include\xstring
; File C:\Program Files\Microsoft Visual Studio\2022\Community\VC\Tools\MSVC\14.44.35207\include\__msvc_string_view.hpp
; File D:\_m2work\txoko-m2-work\txoko-client-src\source\UserInterface\MovieMan.cpp
; File C:\Program Files\Microsoft Visual Studio\2022\Community\VC\Tools\MSVC\14.44.35207\include\xstring
; File C:\Program Files\Microsoft Visual Studio\2022\Community\VC\Tools\MSVC\14.44.35207\include\xmemory
; File C:\Program Files\Microsoft Visual Studio\2022\Community\VC\Tools\MSVC\14.44.35207\include\xstring
; File C:\Program Files\Microsoft Visual Studio\2022\Community\VC\Tools\MSVC\14.44.35207\include\xmemory
; File D:\_m2work\txoko-m2-work\txoko-client-src\source\UserInterface\MovieMan.cpp
; File C:\Program Files\Microsoft Visual Studio\2022\Community\VC\Tools\MSVC\14.44.35207\include\xmemory
; File D:\_m2work\txoko-m2-work\txoko-client-src\source\UserInterface\MovieMan.cpp
;	COMDAT ?RenderFileToMMStream@CMovieMan@@AAEJPBDPAPAUIMultiMediaStream@@PAUIDirectDraw@@@Z
_TEXT	SEGMENT
_ppMMStream$GSCopy$1$ = -1120				; size = 4
__ULast$1$ = -1116					; size = 4
_this$GSCopy$1$ = -1112					; size = 4
_pAMStream$ = -1108					; size = 4
_ext$ = -1104						; size = 24
_wsDir$ = -1080						; size = 522
_wPath$ = -552						; size = 522
__$ArrayPad$ = -20					; size = 4
__$EHRec$ = -12						; size = 12
_cpFilename$ = 8					; size = 4
_ppMMStream$ = 12					; size = 4
_pDD$ = 16						; size = 4
?RenderFileToMMStream@CMovieMan@@AAEJPBDPAPAUIMultiMediaStream@@PAUIDirectDraw@@@Z PROC ; CMovieMan::RenderFileToMMStream, COMDAT
; _this$ = ecx

; 366  : {

  00000	53		 push	 ebx
  00001	8b dc		 mov	 ebx, esp
  00003	83 ec 08	 sub	 esp, 8
  00006	83 e4 f8	 and	 esp, -8			; fffffff8H
  00009	83 c4 04	 add	 esp, 4
  0000c	55		 push	 ebp
  0000d	8b 6b 04	 mov	 ebp, DWORD PTR [ebx+4]
  00010	89 6c 24 04	 mov	 DWORD PTR [esp+4], ebp
  00014	8b ec		 mov	 ebp, esp
  00016	6a ff		 push	 -1
  00018	68 00 00 00 00	 push	 __ehhandler$?RenderFileToMMStream@CMovieMan@@AAEJPBDPAPAUIMultiMediaStream@@PAUIDirectDraw@@@Z
  0001d	64 a1 00 00 00
	00		 mov	 eax, DWORD PTR fs:0
  00023	50		 push	 eax
  00024	53		 push	 ebx
  00025	81 ec 50 04 00
	00		 sub	 esp, 1104		; 00000450H
  0002b	a1 00 00 00 00	 mov	 eax, DWORD PTR ___security_cookie
  00030	33 c5		 xor	 eax, ebp
  00032	89 45 ec	 mov	 DWORD PTR __$ArrayPad$[ebp], eax
  00035	56		 push	 esi
  00036	57		 push	 edi
  00037	50		 push	 eax
  00038	8d 45 f4	 lea	 eax, DWORD PTR __$EHRec$[ebp]
  0003b	64 a3 00 00 00
	00		 mov	 DWORD PTR fs:0, eax
  00041	89 8d a8 fb ff
	ff		 mov	 DWORD PTR _this$GSCopy$1$[ebp], ecx
  00047	8b 43 0c	 mov	 eax, DWORD PTR _ppMMStream$[ebx]
  0004a	8b 73 08	 mov	 esi, DWORD PTR _cpFilename$[ebx]
  0004d	8b 7b 10	 mov	 edi, DWORD PTR _pDD$[ebx]
  00050	89 85 a0 fb ff
	ff		 mov	 DWORD PTR _ppMMStream$GSCopy$1$[ebp], eax

; 367  : 	IAMMultiMediaStream *pAMStream;
; 368  : 	HRESULT hr = CoCreateInstance(CLSID_AMMultiMediaStream, NULL, CLSCTX_INPROC_SERVER, IID_IAMMultiMediaStream, (void **) &pAMStream);

  00056	8d 85 ac fb ff
	ff		 lea	 eax, DWORD PTR _pAMStream$[ebp]
  0005c	50		 push	 eax
  0005d	68 00 00 00 00	 push	 OFFSET _IID_IAMMultiMediaStream
  00062	6a 01		 push	 1
  00064	6a 00		 push	 0
  00066	68 00 00 00 00	 push	 OFFSET _CLSID_AMMultiMediaStream
  0006b	ff 15 00 00 00
	00		 call	 DWORD PTR __imp__CoCreateInstance@20

; 369  : 	if (FAILED(hr))

  00071	85 c0		 test	 eax, eax
  00073	0f 88 ab 03 00
	00		 js	 $LN1@RenderFile

; 370  : 	{
; 371  : 		return hr;
; 372  : 	}
; 373  : 
; 374  : 	WCHAR wPath[MAX_PATH + 1];
; 375  : 	MultiByteToWideChar(CP_ACP, 0, cpFilename, -1, wPath, MAX_PATH + 1);

  00079	68 05 01 00 00	 push	 261			; 00000105H
  0007e	8d 85 d8 fd ff
	ff		 lea	 eax, DWORD PTR _wPath$[ebp]
  00084	50		 push	 eax
  00085	6a ff		 push	 -1
  00087	56		 push	 esi
  00088	6a 00		 push	 0
  0008a	6a 00		 push	 0
  0008c	ff 15 00 00 00
	00		 call	 DWORD PTR __imp__MultiByteToWideChar@24

; 376  : 	//
; 377  : 	WCHAR wsDir[MAX_PATH + 1];
; 378  : 	::memset(wsDir, 0, sizeof(wsDir));

  00092	68 0a 02 00 00	 push	 522			; 0000020aH
  00097	8d 85 c8 fb ff
	ff		 lea	 eax, DWORD PTR _wsDir$[ebp]
  0009d	6a 00		 push	 0
  0009f	50		 push	 eax
  000a0	e8 00 00 00 00	 call	 _memset
  000a5	83 c4 0c	 add	 esp, 12			; 0000000cH

; 379  : 	::GetCurrentDirectoryW( MAX_PATH, wsDir );

  000a8	8d 85 c8 fb ff
	ff		 lea	 eax, DWORD PTR _wsDir$[ebp]
  000ae	50		 push	 eax
  000af	68 04 01 00 00	 push	 260			; 00000104H
  000b4	ff 15 00 00 00
	00		 call	 DWORD PTR __imp__GetCurrentDirectoryW@8

; 380  : 	::wcsncat( wsDir, L"\\", sizeof(WCHAR)*1 );

  000ba	6a 02		 push	 2
  000bc	8d 85 c8 fb ff
	ff		 lea	 eax, DWORD PTR _wsDir$[ebp]
  000c2	68 00 00 00 00	 push	 OFFSET ??_C@_13FPGAJAPJ@?$AA?2@
  000c7	50		 push	 eax
  000c8	e8 00 00 00 00	 call	 _wcsncat
  000cd	83 c4 0c	 add	 esp, 12			; 0000000cH

; 381  : 	::wcsncat( wsDir, wPath, sizeof(WCHAR)*::wcsnlen(wPath, MAX_PATH) );

  000d0	8d 85 d8 fd ff
	ff		 lea	 eax, DWORD PTR _wPath$[ebp]
  000d6	68 04 01 00 00	 push	 260			; 00000104H
  000db	50		 push	 eax
  000dc	e8 00 00 00 00	 call	 _wcsnlen
  000e1	03 c0		 add	 eax, eax
  000e3	50		 push	 eax
  000e4	8d 85 d8 fd ff
	ff		 lea	 eax, DWORD PTR _wPath$[ebp]
  000ea	50		 push	 eax
  000eb	8d 85 c8 fb ff
	ff		 lea	 eax, DWORD PTR _wsDir$[ebp]
  000f1	50		 push	 eax
  000f2	e8 00 00 00 00	 call	 _wcsncat
  000f7	83 c4 14	 add	 esp, 20			; 00000014H

; 382  : 	::memset(wPath, 0, sizeof(wPath));

  000fa	8d 85 d8 fd ff
	ff		 lea	 eax, DWORD PTR _wPath$[ebp]
  00100	68 0a 02 00 00	 push	 522			; 0000020aH
  00105	6a 00		 push	 0
  00107	50		 push	 eax
  00108	e8 00 00 00 00	 call	 _memset
  0010d	83 c4 0c	 add	 esp, 12			; 0000000cH

; 383  : 	::wcsncpy( wPath, wsDir, sizeof(WCHAR)*::wcsnlen(wsDir, MAX_PATH) );

  00110	8d 85 c8 fb ff
	ff		 lea	 eax, DWORD PTR _wsDir$[ebp]
  00116	68 04 01 00 00	 push	 260			; 00000104H
  0011b	50		 push	 eax
  0011c	e8 00 00 00 00	 call	 _wcsnlen
  00121	03 c0		 add	 eax, eax
  00123	50		 push	 eax
  00124	8d 85 c8 fb ff
	ff		 lea	 eax, DWORD PTR _wsDir$[ebp]
  0012a	50		 push	 eax
  0012b	8d 85 d8 fd ff
	ff		 lea	 eax, DWORD PTR _wPath$[ebp]
  00131	50		 push	 eax
  00132	e8 00 00 00 00	 call	 _wcsncpy

; 384  : 	//
; 385  : 
; 386  : 	pAMStream->Initialize(STREAMTYPE_READ, AMMSF_NOGRAPHTHREAD, NULL);

  00137	8b 8d ac fb ff
	ff		 mov	 ecx, DWORD PTR _pAMStream$[ebp]
  0013d	83 c4 14	 add	 esp, 20			; 00000014H
  00140	8b 01		 mov	 eax, DWORD PTR [ecx]
  00142	6a 00		 push	 0
  00144	6a 01		 push	 1
  00146	6a 00		 push	 0
  00148	51		 push	 ecx
  00149	ff 50 30	 call	 DWORD PTR [eax+48]

; 387  : 	pAMStream->AddMediaStream(pDD, &MSPID_PrimaryVideo, 0, NULL);

  0014c	8b 8d ac fb ff
	ff		 mov	 ecx, DWORD PTR _pAMStream$[ebp]
  00152	6a 00		 push	 0
  00154	6a 00		 push	 0
  00156	68 00 00 00 00	 push	 OFFSET _MSPID_PrimaryVideo
  0015b	8b 01		 mov	 eax, DWORD PTR [ecx]
  0015d	57		 push	 edi
  0015e	51		 push	 ecx
  0015f	ff 50 3c	 call	 DWORD PTR [eax+60]

; 388  : 	pAMStream->AddMediaStream(NULL, &MSPID_PrimaryAudio, AMMSF_ADDDEFAULTRENDERER, NULL);

  00162	8b 8d ac fb ff
	ff		 mov	 ecx, DWORD PTR _pAMStream$[ebp]
  00168	6a 00		 push	 0
  0016a	6a 01		 push	 1
  0016c	68 00 00 00 00	 push	 OFFSET _MSPID_PrimaryAudio
  00171	8b 01		 mov	 eax, DWORD PTR [ecx]
  00173	6a 00		 push	 0
  00175	51		 push	 ecx
  00176	ff 50 3c	 call	 DWORD PTR [eax+60]
  00179	0f 57 c0	 xorps	 xmm0, xmm0
; File C:\Program Files\Microsoft Visual Studio\2022\Community\VC\Tools\MSVC\14.44.35207\include\xstring

; 860  :         _My_data._Mysize = 0;

  0017c	c7 85 c0 fb ff
	ff 00 00 00 00	 mov	 DWORD PTR _ext$[ebp+16], 0

; 493  :         _CONSTEXPR20 _Bxty() noexcept : _Buf() {} // user-provided, for fancy pointers

  00186	0f 11 85 b0 fb
	ff ff		 movups	 XMMWORD PTR _ext$[ebp], xmm0

; 861  :         _My_data._Myres  = _Small_string_capacity;

  0018d	c7 85 c4 fb ff
	ff 0f 00 00 00	 mov	 DWORD PTR _ext$[ebp+20], 15 ; 0000000fH

; 862  :         _My_data._Activate_SSO_buffer();
; 863  : 
; 864  :         // the _Traits::assign is last so the codegen doesn't think the char write can alias this
; 865  :         _Traits::assign(_My_data._Bx._Buf[0], _Elem());

  00197	c6 85 b0 fb ff
	ff 00		 mov	 BYTE PTR _ext$[ebp], 0
; File D:\_m2work\txoko-m2-work\txoko-client-src\source\UserInterface\MovieMan.cpp

; 391  : 	GetFileExtension(cpFilename, strlen(cpFilename), &ext);

  0019e	8b ce		 mov	 ecx, esi
  001a0	c7 45 fc 00 00
	00 00		 mov	 DWORD PTR __$EHRec$[ebp+8], 0
  001a7	8d 51 01	 lea	 edx, DWORD PTR [ecx+1]
  001aa	66 0f 1f 44 00
	00		 npad	 6
$LL172@RenderFile:
  001b0	8a 01		 mov	 al, BYTE PTR [ecx]
  001b2	41		 inc	 ecx
  001b3	84 c0		 test	 al, al
  001b5	75 f9		 jne	 SHORT $LL172@RenderFile
  001b7	8d 85 b0 fb ff
	ff		 lea	 eax, DWORD PTR _ext$[ebp]
  001bd	2b ca		 sub	 ecx, edx
  001bf	50		 push	 eax
  001c0	51		 push	 ecx
  001c1	56		 push	 esi
  001c2	e8 00 00 00 00	 call	 ?GetFileExtension@@YAXPBDHPAV?$basic_string@DU?$char_traits@D@std@@V?$allocator@D@2@@std@@@Z ; GetFileExtension
; File C:\Program Files\Microsoft Visual Studio\2022\Community\VC\Tools\MSVC\14.44.35207\include\xstring

; 2170 :         return iterator(

  001c7	8b 8d c0 fb ff
	ff		 mov	 ecx, DWORD PTR _ext$[ebp+16]

; 435  :         value_type* _Result = _Bx._Buf;

  001cd	8d 85 b0 fb ff
	ff		 lea	 eax, DWORD PTR _ext$[ebp]
; File D:\_m2work\txoko-m2-work\txoko-client-src\source\UserInterface\MovieMan.cpp

; 391  : 	GetFileExtension(cpFilename, strlen(cpFilename), &ext);

  001d3	83 c4 0c	 add	 esp, 12			; 0000000cH
; File C:\Program Files\Microsoft Visual Studio\2022\Community\VC\Tools\MSVC\14.44.35207\include\xstring

; 435  :         value_type* _Result = _Bx._Buf;

  001d6	8d bd b0 fb ff
	ff		 lea	 edi, DWORD PTR _ext$[ebp]

; 453  :         return _Myres > _Small_string_capacity;

  001dc	83 bd c4 fb ff
	ff 0f		 cmp	 DWORD PTR _ext$[ebp+20], 15 ; 0000000fH

; 435  :         value_type* _Result = _Bx._Buf;

  001e3	8d b5 b0 fb ff
	ff		 lea	 esi, DWORD PTR _ext$[ebp]

; 436  :         if (_Large_mode_engaged()) {

  001e9	0f 47 85 b0 fb
	ff ff		 cmova	 eax, DWORD PTR _ext$[ebp]
  001f0	0f 47 bd b0 fb
	ff ff		 cmova	 edi, DWORD PTR _ext$[ebp]

; 2170 :         return iterator(

  001f7	03 c1		 add	 eax, ecx

; 453  :         return _Myres > _Small_string_capacity;

  001f9	83 bd c4 fb ff
	ff 0f		 cmp	 DWORD PTR _ext$[ebp+20], 15 ; 0000000fH

; 2170 :         return iterator(

  00200	89 85 a4 fb ff
	ff		 mov	 DWORD PTR __ULast$1$[ebp], eax

; 436  :         if (_Large_mode_engaged()) {

  00206	0f 47 b5 b0 fb
	ff ff		 cmova	 esi, DWORD PTR _ext$[ebp]
; File C:\Program Files\Microsoft Visual Studio\2022\Community\VC\Tools\MSVC\14.44.35207\include\algorithm

; 3798 :     for (; _UFirst != _ULast; ++_UFirst, (void) ++_UDest) {

  0020d	3b f0		 cmp	 esi, eax
  0020f	74 20		 je	 SHORT $LN80@RenderFile
  00211	2b fe		 sub	 edi, esi
$LL81@RenderFile:

; 3799 :         *_UDest = _Func(*_UFirst);

  00213	0f be 06	 movsx	 eax, BYTE PTR [esi]
  00216	50		 push	 eax
  00217	e8 00 00 00 00	 call	 _tolower
  0021c	88 04 37	 mov	 BYTE PTR [edi+esi], al
  0021f	83 c4 04	 add	 esp, 4
  00222	46		 inc	 esi
  00223	3b b5 a4 fb ff
	ff		 cmp	 esi, DWORD PTR __ULast$1$[ebp]
  00229	75 e8		 jne	 SHORT $LL81@RenderFile
  0022b	8b 8d c0 fb ff
	ff		 mov	 ecx, DWORD PTR _ext$[ebp+16]
$LN80@RenderFile:
; File C:\Program Files\Microsoft Visual Studio\2022\Community\VC\Tools\MSVC\14.44.35207\include\xstring

; 453  :         return _Myres > _Small_string_capacity;

  00231	8b 85 c4 fb ff
	ff		 mov	 eax, DWORD PTR _ext$[ebp+20]

; 444  :         const value_type* _Result = _Bx._Buf;

  00237	8d 95 b0 fb ff
	ff		 lea	 edx, DWORD PTR _ext$[ebp]

; 453  :         return _Myres > _Small_string_capacity;

  0023d	83 f8 0f	 cmp	 eax, 15			; 0000000fH

; 445  :         if (_Large_mode_engaged()) {

  00240	0f 47 95 b0 fb
	ff ff		 cmova	 edx, DWORD PTR _ext$[ebp]
; File C:\Program Files\Microsoft Visual Studio\2022\Community\VC\Tools\MSVC\14.44.35207\include\__msvc_string_view.hpp

; 604  :     if (_Left_size != _Right_size) {

  00247	83 f9 03	 cmp	 ecx, 3
  0024a	0f 85 b5 00 00
	00		 jne	 $LN3@RenderFile

; 605  :         return false;
; 606  :     }
; 607  : 
; 608  :     if (_Left_size == 0u) {

  00250	85 c9		 test	 ecx, ecx
  00252	74 61		 je	 SHORT $LN170@RenderFile

; 437  :         return __builtin_memcmp(_First1, _First2, _Count);

  00254	8b f9		 mov	 edi, ecx
  00256	be 00 00 00 00	 mov	 esi, OFFSET ??_C@_03GJLKJKAN@mpg@
  0025b	83 ef 04	 sub	 edi, 4
  0025e	72 11		 jb	 SHORT $LN175@RenderFile
$LL176@RenderFile:
  00260	8b 02		 mov	 eax, DWORD PTR [edx]
  00262	3b 06		 cmp	 eax, DWORD PTR [esi]
  00264	75 10		 jne	 SHORT $LN174@RenderFile
  00266	83 c2 04	 add	 edx, 4
  00269	83 c6 04	 add	 esi, 4
  0026c	83 ef 04	 sub	 edi, 4
  0026f	73 ef		 jae	 SHORT $LL176@RenderFile
$LN175@RenderFile:
  00271	83 ff fc	 cmp	 edi, -4			; fffffffcH
  00274	74 34		 je	 SHORT $LN173@RenderFile
$LN174@RenderFile:
  00276	8a 02		 mov	 al, BYTE PTR [edx]
  00278	3a 06		 cmp	 al, BYTE PTR [esi]
  0027a	75 27		 jne	 SHORT $LN177@RenderFile
  0027c	83 ff fd	 cmp	 edi, -3			; fffffffdH
  0027f	74 29		 je	 SHORT $LN173@RenderFile
  00281	8a 42 01	 mov	 al, BYTE PTR [edx+1]
  00284	3a 46 01	 cmp	 al, BYTE PTR [esi+1]
  00287	75 1a		 jne	 SHORT $LN177@RenderFile
  00289	83 ff fe	 cmp	 edi, -2			; fffffffeH
  0028c	74 1c		 je	 SHORT $LN173@RenderFile
  0028e	8a 42 02	 mov	 al, BYTE PTR [edx+2]
  00291	3a 46 02	 cmp	 al, BYTE PTR [esi+2]
  00294	75 0d		 jne	 SHORT $LN177@RenderFile
  00296	83 ff ff	 cmp	 edi, -1
  00299	74 0f		 je	 SHORT $LN173@RenderFile
  0029b	8a 42 03	 mov	 al, BYTE PTR [edx+3]
  0029e	3a 46 03	 cmp	 al, BYTE PTR [esi+3]
  002a1	74 07		 je	 SHORT $LN173@RenderFile
$LN177@RenderFile:
  002a3	1b c0		 sbb	 eax, eax
  002a5	83 c8 01	 or	 eax, 1
  002a8	eb 02		 jmp	 SHORT $LN178@RenderFile
$LN173@RenderFile:
  002aa	33 c0		 xor	 eax, eax
$LN178@RenderFile:

; 612  :     return _Traits::compare(_Left, _Right, _Left_size) == 0;

  002ac	85 c0		 test	 eax, eax
  002ae	0f 94 c0	 sete	 al
; File D:\_m2work\txoko-m2-work\txoko-client-src\source\UserInterface\MovieMan.cpp

; 393  : 	if (ext == "mpg")

  002b1	84 c0		 test	 al, al
  002b3	74 4a		 je	 SHORT $LN185@RenderFile
$LN170@RenderFile:

; 394  : 	{
; 395  : 		// 2007-08-01, nuclei
; 396  : 		// MPG만 재생한다고 가정하고 매뉴얼로 각종 코덱을 연결해 
; 397  : 		// 외부 코덱(ffdshow 등)에 영향을 받지 않도록 한다
; 398  : 		// (기타 파일도 재생은 되지만 코덱에 영향을 받을 수 있음)
; 399  : 		hr = BuildFilterGraphManually(wPath, pAMStream, CLSID_MPEG1Splitter, CLSID_CMpegVideoCodec, CLSID_CMpegAudioCodec);

  002b5	0f 10 05 00 00
	00 00		 movups	 xmm0, XMMWORD PTR _CLSID_CMpegAudioCodec
  002bc	83 ec 10	 sub	 esp, 16			; 00000010H
  002bf	8b c4		 mov	 eax, esp
  002c1	83 ec 10	 sub	 esp, 16			; 00000010H
  002c4	0f 11 00	 movups	 XMMWORD PTR [eax], xmm0
  002c7	8b c4		 mov	 eax, esp
  002c9	0f 10 05 00 00
	00 00		 movups	 xmm0, XMMWORD PTR _CLSID_CMpegVideoCodec
  002d0	0f 11 00	 movups	 XMMWORD PTR [eax], xmm0
  002d3	0f 10 05 00 00
	00 00		 movups	 xmm0, XMMWORD PTR _CLSID_MPEG1Splitter
$LN190@RenderFile:

; 410  : 	}
; 411  : 
; 412  : 	// 재생 성공시 hr은 S_OK
; 413  : 	if (SUCCEEDED(hr))

  002da	8b 8d a8 fb ff
	ff		 mov	 ecx, DWORD PTR _this$GSCopy$1$[ebp]
  002e0	83 ec 10	 sub	 esp, 16			; 00000010H
  002e3	8b c4		 mov	 eax, esp
  002e5	ff b5 ac fb ff
	ff		 push	 DWORD PTR _pAMStream$[ebp]
  002eb	0f 11 00	 movups	 XMMWORD PTR [eax], xmm0
  002ee	8d 85 d8 fd ff
	ff		 lea	 eax, DWORD PTR _wPath$[ebp]
  002f4	50		 push	 eax
  002f5	e8 00 00 00 00	 call	 ?BuildFilterGraphManually@CMovieMan@@AAEJPA_WPAUIAMMultiMediaStream@@U_GUID@@22@Z ; CMovieMan::BuildFilterGraphManually
  002fa	e9 c5 00 00 00	 jmp	 $LN188@RenderFile
$LN185@RenderFile:

; 393  : 	if (ext == "mpg")

  002ff	8b 85 c4 fb ff
	ff		 mov	 eax, DWORD PTR _ext$[ebp+20]
$LN3@RenderFile:
; File C:\Program Files\Microsoft Visual Studio\2022\Community\VC\Tools\MSVC\14.44.35207\include\xstring

; 453  :         return _Myres > _Small_string_capacity;

  00305	83 f8 0f	 cmp	 eax, 15			; 0000000fH

; 444  :         const value_type* _Result = _Bx._Buf;

  00308	8d 95 b0 fb ff
	ff		 lea	 edx, DWORD PTR _ext$[ebp]

; 445  :         if (_Large_mode_engaged()) {

  0030e	0f 47 95 b0 fb
	ff ff		 cmova	 edx, DWORD PTR _ext$[ebp]
; File C:\Program Files\Microsoft Visual Studio\2022\Community\VC\Tools\MSVC\14.44.35207\include\__msvc_string_view.hpp

; 604  :     if (_Left_size != _Right_size) {

  00315	83 f9 04	 cmp	 ecx, 4
  00318	0f 85 91 00 00
	00		 jne	 $LN5@RenderFile

; 605  :         return false;
; 606  :     }
; 607  : 
; 608  :     if (_Left_size == 0u) {

  0031e	85 c9		 test	 ecx, ecx
  00320	74 63		 je	 SHORT $LN171@RenderFile

; 437  :         return __builtin_memcmp(_First1, _First2, _Count);

  00322	be 00 00 00 00	 mov	 esi, OFFSET ??_C@_04OEEJDDPO@mp43@
  00327	2b c9		 sub	 ecx, ecx
  00329	72 16		 jb	 SHORT $LN181@RenderFile
  0032b	0f 1f 44 00 00	 npad	 5
$LL182@RenderFile:
  00330	8b 02		 mov	 eax, DWORD PTR [edx]
  00332	3b 06		 cmp	 eax, DWORD PTR [esi]
  00334	75 10		 jne	 SHORT $LN180@RenderFile
  00336	83 c2 04	 add	 edx, 4
  00339	83 c6 04	 add	 esi, 4
  0033c	83 e9 04	 sub	 ecx, 4
  0033f	73 ef		 jae	 SHORT $LL182@RenderFile
$LN181@RenderFile:
  00341	83 f9 fc	 cmp	 ecx, -4			; fffffffcH
  00344	74 34		 je	 SHORT $LN179@RenderFile
$LN180@RenderFile:
  00346	8a 02		 mov	 al, BYTE PTR [edx]
  00348	3a 06		 cmp	 al, BYTE PTR [esi]
  0034a	75 27		 jne	 SHORT $LN183@RenderFile
  0034c	83 f9 fd	 cmp	 ecx, -3			; fffffffdH
  0034f	74 29		 je	 SHORT $LN179@RenderFile
  00351	8a 42 01	 mov	 al, BYTE PTR [edx+1]
  00354	3a 46 01	 cmp	 al, BYTE PTR [esi+1]
  00357	75 1a		 jne	 SHORT $LN183@RenderFile
  00359	83 f9 fe	 cmp	 ecx, -2			; fffffffeH
  0035c	74 1c		 je	 SHORT $LN179@RenderFile
  0035e	8a 42 02	 mov	 al, BYTE PTR [edx+2]
  00361	3a 46 02	 cmp	 al, BYTE PTR [esi+2]
  00364	75 0d		 jne	 SHORT $LN183@RenderFile
  00366	83 f9 ff	 cmp	 ecx, -1
  00369	74 0f		 je	 SHORT $LN179@RenderFile
  0036b	8a 42 03	 mov	 al, BYTE PTR [edx+3]
  0036e	3a 46 03	 cmp	 al, BYTE PTR [esi+3]
  00371	74 07		 je	 SHORT $LN179@RenderFile
$LN183@RenderFile:
  00373	1b c0		 sbb	 eax, eax
  00375	83 c8 01	 or	 eax, 1
  00378	eb 02		 jmp	 SHORT $LN184@RenderFile
$LN179@RenderFile:
  0037a	33 c0		 xor	 eax, eax
$LN184@RenderFile:

; 612  :     return _Traits::compare(_Left, _Right, _Left_size) == 0;

  0037c	85 c0		 test	 eax, eax
  0037e	0f 94 c0	 sete	 al
; File D:\_m2work\txoko-m2-work\txoko-client-src\source\UserInterface\MovieMan.cpp

; 401  : 	else if (ext == "mp43")

  00381	84 c0		 test	 al, al
  00383	74 2a		 je	 SHORT $LN5@RenderFile
$LN171@RenderFile:

; 402  : 	{
; 403  : 		// 2007-08-12, nuclei
; 404  : 		// MPEG-4, MP3 코덱을 이용한 AVI의 재생 추가(확장자는 .mp43으로 해야함)
; 405  : 		hr = BuildFilterGraphManually(wPath, pAMStream, CLSID_AviSplitter, CLSID_MP4VideoCodec, CLSID_MP3AudioCodec);

  00385	0f 10 05 00 00
	00 00		 movups	 xmm0, XMMWORD PTR ?CLSID_MP3AudioCodec@@3U_GUID@@B
  0038c	83 ec 10	 sub	 esp, 16			; 00000010H
  0038f	8b c4		 mov	 eax, esp
  00391	83 ec 10	 sub	 esp, 16			; 00000010H
  00394	0f 11 00	 movups	 XMMWORD PTR [eax], xmm0
  00397	8b c4		 mov	 eax, esp
  00399	0f 10 05 00 00
	00 00		 movups	 xmm0, XMMWORD PTR ?CLSID_MP4VideoCodec@@3U_GUID@@B
  003a0	0f 11 00	 movups	 XMMWORD PTR [eax], xmm0
  003a3	0f 10 05 00 00
	00 00		 movups	 xmm0, XMMWORD PTR _CLSID_AviSplitter

; 406  : 	}

  003aa	e9 2b ff ff ff	 jmp	 $LN190@RenderFile
$LN5@RenderFile:

; 407  : 	else
; 408  : 	{
; 409  : 		hr = pAMStream->OpenFile(wPath, 0);

  003af	8b 8d ac fb ff
	ff		 mov	 ecx, DWORD PTR _pAMStream$[ebp]
  003b5	8d 95 d8 fd ff
	ff		 lea	 edx, DWORD PTR _wPath$[ebp]
  003bb	6a 00		 push	 0
  003bd	52		 push	 edx
  003be	51		 push	 ecx
  003bf	8b 01		 mov	 eax, DWORD PTR [ecx]
  003c1	ff 50 40	 call	 DWORD PTR [eax+64]
$LN188@RenderFile:

; 410  : 	}
; 411  : 
; 412  : 	// 재생 성공시 hr은 S_OK
; 413  : 	if (SUCCEEDED(hr))

  003c4	8b f0		 mov	 esi, eax
  003c6	85 f6		 test	 esi, esi
  003c8	78 16		 js	 SHORT $LN7@RenderFile

; 414  : 	{
; 415  : 		pAMStream->QueryInterface(IID_IMultiMediaStream, (void**) ppMMStream);

  003ca	8b 85 ac fb ff
	ff		 mov	 eax, DWORD PTR _pAMStream$[ebp]
  003d0	ff b5 a0 fb ff
	ff		 push	 DWORD PTR _ppMMStream$GSCopy$1$[ebp]
  003d6	68 00 00 00 00	 push	 OFFSET _IID_IMultiMediaStream
  003db	8b 08		 mov	 ecx, DWORD PTR [eax]
  003dd	50		 push	 eax
  003de	ff 11		 call	 DWORD PTR [ecx]
$LN7@RenderFile:

; 416  : 	}
; 417  : 
; 418  : 	pAMStream->Release();

  003e0	8b 85 ac fb ff
	ff		 mov	 eax, DWORD PTR _pAMStream$[ebp]
  003e6	50		 push	 eax
  003e7	8b 08		 mov	 ecx, DWORD PTR [eax]
  003e9	ff 51 08	 call	 DWORD PTR [ecx+8]
; File C:\Program Files\Microsoft Visual Studio\2022\Community\VC\Tools\MSVC\14.44.35207\include\xstring

; 453  :         return _Myres > _Small_string_capacity;

  003ec	8b 8d c4 fb ff
	ff		 mov	 ecx, DWORD PTR _ext$[ebp+20]
  003f2	83 f9 0f	 cmp	 ecx, 15			; 0000000fH

; 3083 :         if (_My_data._Large_mode_engaged()) {

  003f5	76 2b		 jbe	 SHORT $LN127@RenderFile
; File C:\Program Files\Microsoft Visual Studio\2022\Community\VC\Tools\MSVC\14.44.35207\include\xmemory

; 985  :         _STD _Deallocate<_New_alignof<_Ty>>(_Ptr, sizeof(_Ty) * _Count);

  003f7	8b 95 b0 fb ff
	ff		 mov	 edx, DWORD PTR _ext$[ebp]
; File C:\Program Files\Microsoft Visual Studio\2022\Community\VC\Tools\MSVC\14.44.35207\include\xstring

; 852  :         _Al.deallocate(_Old_ptr, _Capacity + 1); // +1 for null terminator

  003fd	41		 inc	 ecx
; File C:\Program Files\Microsoft Visual Studio\2022\Community\VC\Tools\MSVC\14.44.35207\include\xmemory

; 985  :         _STD _Deallocate<_New_alignof<_Ty>>(_Ptr, sizeof(_Ty) * _Count);

  003fe	8b c2		 mov	 eax, edx

; 284  :         if (_Bytes >= _Big_allocation_threshold) {

  00400	81 f9 00 10 00
	00		 cmp	 ecx, 4096		; 00001000H
  00406	72 10		 jb	 SHORT $LN135@RenderFile

; 205  :     const uintptr_t _Ptr_container   = _Ptr_user[-1];

  00408	8b 50 fc	 mov	 edx, DWORD PTR [eax-4]
  0040b	83 c1 23	 add	 ecx, 35			; 00000023H
  0040e	2b c2		 sub	 eax, edx

; 219  :     _STL_VERIFY(_Back_shift >= _Min_back_shift && _Back_shift <= _Non_user_size, "invalid argument");

  00410	83 c0 fc	 add	 eax, -4			; fffffffcH
  00413	83 f8 1f	 cmp	 eax, 31			; 0000001fH
  00416	77 2c		 ja	 SHORT $LN192@RenderFile
$LN135@RenderFile:

; 289  :         ::operator delete(_Ptr, _Bytes);

  00418	51		 push	 ecx
  00419	52		 push	 edx
  0041a	e8 00 00 00 00	 call	 ??3@YAXPAXI@Z		; operator delete
  0041f	83 c4 08	 add	 esp, 8
$LN127@RenderFile:
; File D:\_m2work\txoko-m2-work\txoko-client-src\source\UserInterface\MovieMan.cpp

; 420  : 	return hr;

  00422	8b c6		 mov	 eax, esi
$LN1@RenderFile:

; 421  : }

  00424	8b 4d f4	 mov	 ecx, DWORD PTR __$EHRec$[ebp]
  00427	64 89 0d 00 00
	00 00		 mov	 DWORD PTR fs:0, ecx
  0042e	59		 pop	 ecx
  0042f	5f		 pop	 edi
  00430	5e		 pop	 esi
  00431	8b 4d ec	 mov	 ecx, DWORD PTR __$ArrayPad$[ebp]
  00434	33 cd		 xor	 ecx, ebp
  00436	e8 00 00 00 00	 call	 @__security_check_cookie@4
  0043b	8b e5		 mov	 esp, ebp
  0043d	5d		 pop	 ebp
  0043e	8b e3		 mov	 esp, ebx
  00440	5b		 pop	 ebx
  00441	c2 0c 00	 ret	 12			; 0000000cH
$LN192@RenderFile:
; File C:\Program Files\Microsoft Visual Studio\2022\Community\VC\Tools\MSVC\14.44.35207\include\xmemory

; 219  :     _STL_VERIFY(_Back_shift >= _Min_back_shift && _Back_shift <= _Non_user_size, "invalid argument");

  00444	6a 00		 push	 0
  00446	6a 00		 push	 0
  00448	6a 00		 push	 0
  0044a	6a 00		 push	 0
  0044c	6a 00		 push	 0
  0044e	e8 00 00 00 00	 call	 __invoke_watson
$LN187@RenderFile:
  00453	cc		 int	 3
_TEXT	ENDS
;	COMDAT text$x
text$x	SEGMENT
__unwindfunclet$?RenderFileToMMStream@CMovieMan@@AAEJPBDPAPAUIMultiMediaStream@@PAUIDirectDraw@@@Z$0:
  00000	8d 8d b0 fb ff
	ff		 lea	 ecx, DWORD PTR _ext$[ebp]
  00006	e9 00 00 00 00	 jmp	 ??1?$basic_string@DU?$char_traits@D@std@@V?$allocator@D@2@@std@@QAE@XZ ; std::basic_string<char,std::char_traits<char>,std::allocator<char> >::~basic_string<char,std::char_traits<char>,std::allocator<char> >
  0000b	cc		 int	 3
  0000c	cc		 int	 3
  0000d	cc		 int	 3
  0000e	cc		 int	 3
  0000f	cc		 int	 3
__ehhandler$?RenderFileToMMStream@CMovieMan@@AAEJPBDPAPAUIMultiMediaStream@@PAUIDirectDraw@@@Z:
  00010	90		 npad	 1
  00011	90		 npad	 1
  00012	8b 54 24 08	 mov	 edx, DWORD PTR [esp+8]
  00016	8d 42 0c	 lea	 eax, DWORD PTR [edx+12]
  00019	8b 8a a0 fb ff
	ff		 mov	 ecx, DWORD PTR [edx-1120]
  0001f	33 c8		 xor	 ecx, eax
  00021	e8 00 00 00 00	 call	 @__security_check_cookie@4
  00026	8b 4a f8	 mov	 ecx, DWORD PTR [edx-8]
  00029	33 c8		 xor	 ecx, eax
  0002b	e8 00 00 00 00	 call	 @__security_check_cookie@4
  00030	b8 00 00 00 00	 mov	 eax, OFFSET __ehfuncinfo$?RenderFileToMMStream@CMovieMan@@AAEJPBDPAPAUIMultiMediaStream@@PAUIDirectDraw@@@Z
  00035	e9 00 00 00 00	 jmp	 ___CxxFrameHandler3
text$x	ENDS
?RenderFileToMMStream@CMovieMan@@AAEJPBDPAPAUIMultiMediaStream@@PAUIDirectDraw@@@Z ENDP ; CMovieMan::RenderFileToMMStream
; Function compile flags: /Ogtp
; File D:\_m2work\txoko-m2-work\txoko-client-src\source\UserInterface\MovieMan.cpp
;	COMDAT ?RenderPostEffectFadeOut@CMovieMan@@AAEJPAUIDirectDrawSurface@@HK@Z
_TEXT	SEGMENT
_fadeBegin$1$ = -240					; size = 4
tv597 = -236						; size = 4
_fadeOutColorBlue$1$ = -232				; size = 4
_surfaceDC$1 = -228					; size = 4
tv601 = -224						; size = 4
_y$1$ = -220						; size = 4
$T2 = -216						; size = 4
_fadeProgress$1$ = -212					; size = 4
$T3 = -208						; size = 4
_pSrcSurfaceBuf$1$ = -204				; size = 4
_x$1$ = -204						; size = 4
_pCopiedSrcSurBuf$1$ = -200				; size = 4
_pSurface$GSCopy$1$ = -196				; size = 4
_this$GSCopy$1$ = -192					; size = 4
_lockedSurfaceDesc$ = -188				; size = 108
_windowRect$ = -72					; size = 16
_lowerRect$4 = -56					; size = 16
_upperRect$5 = -40					; size = 16
_movieRect$6 = -24					; size = 16
__$ArrayPad$ = -8					; size = 4
_pSurface$ = 8						; size = 4
_fadeOutDuration$dead$ = 12				; size = 4
_fadeOutColor$dead$ = 16				; size = 4
?RenderPostEffectFadeOut@CMovieMan@@AAEJPAUIDirectDrawSurface@@HK@Z PROC ; CMovieMan::RenderPostEffectFadeOut, COMDAT
; _this$ = ecx

; 427  : {

  00000	55		 push	 ebp
  00001	8b ec		 mov	 ebp, esp
  00003	81 ec f0 00 00
	00		 sub	 esp, 240		; 000000f0H
  00009	a1 00 00 00 00	 mov	 eax, DWORD PTR ___security_cookie
  0000e	33 c5		 xor	 eax, ebp
  00010	89 45 f8	 mov	 DWORD PTR __$ArrayPad$[ebp], eax
  00013	53		 push	 ebx
  00014	56		 push	 esi
  00015	57		 push	 edi
  00016	8b 7d 08	 mov	 edi, DWORD PTR _pSurface$[ebp]
  00019	8b d9		 mov	 ebx, ecx
  0001b	89 9d 40 ff ff
	ff		 mov	 DWORD PTR _this$GSCopy$1$[ebp], ebx
  00021	89 bd 3c ff ff
	ff		 mov	 DWORD PTR _pSurface$GSCopy$1$[ebp], edi

; 428  : 	// Lock 걸기 위해 초기화
; 429  : 	DDSURFACEDESC lockedSurfaceDesc;
; 430  : 
; 431  : 	int *pCopiedSrcSurBuf = NULL;

  00027	c7 85 38 ff ff
	ff 00 00 00 00	 mov	 DWORD PTR _pCopiedSrcSurBuf$1$[ebp], 0

; 432  : 	LONG fadeBegin = GetTickCount();

  00031	ff 15 00 00 00
	00		 call	 DWORD PTR __imp__GetTickCount@0
  00037	8b f0		 mov	 esi, eax
  00039	89 b5 10 ff ff
	ff		 mov	 DWORD PTR _fadeBegin$1$[ebp], esi

; 433  : 	float fadeProgress = 0.0;
; 434  : 	while ((fadeProgress = ((float)((LONG)GetTickCount()) - fadeBegin) / fadeOutDuration) < 1.0)

  0003f	ff 15 00 00 00
	00		 call	 DWORD PTR __imp__GetTickCount@0
  00045	66 0f 6e ce	 movd	 xmm1, esi
  00049	0f 5b c9	 cvtdq2ps xmm1, xmm1
  0004c	66 0f 6e c0	 movd	 xmm0, eax
  00050	0f 5b c0	 cvtdq2ps xmm0, xmm0
  00053	f3 0f 5c c1	 subss	 xmm0, xmm1
  00057	f3 0f 10 0d 00
	00 00 00	 movss	 xmm1, DWORD PTR __real@3f800000
  0005f	f3 0f 5e 05 00
	00 00 00	 divss	 xmm0, DWORD PTR __real@44a28000
  00067	0f 2f c8	 comiss	 xmm1, xmm0
  0006a	f3 0f 11 85 2c
	ff ff ff	 movss	 DWORD PTR _fadeProgress$1$[ebp], xmm0
  00072	0f 86 cb 03 00
	00		 jbe	 $LN35@RenderPost
  00078	8d 4b 08	 lea	 ecx, DWORD PTR [ebx+8]
  0007b	8d 43 0c	 lea	 eax, DWORD PTR [ebx+12]
  0007e	89 8d 14 ff ff
	ff		 mov	 DWORD PTR tv597[ebp], ecx
  00084	8b d9		 mov	 ebx, ecx
  00086	66 66 0f 1f 84
	00 00 00 00 00	 npad	 10
$LL2@RenderPost:

; 435  : 	{
; 436  : 		ZeroMemory(&lockedSurfaceDesc, sizeof(lockedSurfaceDesc));

  00090	6a 68		 push	 104			; 00000068H
  00092	89 85 20 ff ff
	ff		 mov	 DWORD PTR tv601[ebp], eax
  00098	89 85 28 ff ff
	ff		 mov	 DWORD PTR $T2[ebp], eax
  0009e	8d 85 48 ff ff
	ff		 lea	 eax, DWORD PTR _lockedSurfaceDesc$[ebp+4]
  000a4	6a 00		 push	 0
  000a6	50		 push	 eax
  000a7	89 9d 30 ff ff
	ff		 mov	 DWORD PTR $T3[ebp], ebx
  000ad	e8 00 00 00 00	 call	 _memset

; 437  : 		lockedSurfaceDesc.dwSize = sizeof(lockedSurfaceDesc);
; 438  : 		HRESULT hr = pSurface->Lock(NULL, &lockedSurfaceDesc, DDLOCK_WAIT | DDLOCK_NOSYSLOCK | DDLOCK_READONLY, NULL);

  000b2	8b 07		 mov	 eax, DWORD PTR [edi]
  000b4	8d 8d 44 ff ff
	ff		 lea	 ecx, DWORD PTR _lockedSurfaceDesc$[ebp]
  000ba	83 c4 0c	 add	 esp, 12			; 0000000cH
  000bd	c7 85 44 ff ff
	ff 6c 00 00 00	 mov	 DWORD PTR _lockedSurfaceDesc$[ebp], 108 ; 0000006cH
  000c7	6a 00		 push	 0
  000c9	68 11 08 00 00	 push	 2065			; 00000811H
  000ce	51		 push	 ecx
  000cf	6a 00		 push	 0
  000d1	57		 push	 edi
  000d2	ff 50 64	 call	 DWORD PTR [eax+100]

; 439  : 		if (FAILED(hr))

  000d5	85 c0		 test	 eax, eax
  000d7	0f 88 8e 03 00
	00		 js	 $LN1@RenderPost

; 440  : 		{
; 441  : 			return hr;
; 442  : 		}
; 443  : 
; 444  : 		// 최초 1회에 서피스 복사하고 복사본에 FadeOut 처리한다
; 445  : 		if (!pCopiedSrcSurBuf)

  000dd	8b 85 38 ff ff
	ff		 mov	 eax, DWORD PTR _pCopiedSrcSurBuf$1$[ebp]
  000e3	85 c0		 test	 eax, eax
  000e5	75 51		 jne	 SHORT $LN11@RenderPost

; 446  : 		{
; 447  : 			if (!(pCopiedSrcSurBuf = (int*)malloc((LONG)lockedSurfaceDesc.lPitch * m_movieHeight)))

  000e7	8b 9d 28 ff ff
	ff		 mov	 ebx, DWORD PTR $T2[ebp]
  000ed	8b 03		 mov	 eax, DWORD PTR [ebx]
  000ef	0f af 85 54 ff
	ff ff		 imul	 eax, DWORD PTR _lockedSurfaceDesc$[ebp+16]
  000f6	50		 push	 eax
  000f7	e8 00 00 00 00	 call	 _malloc
  000fc	83 c4 04	 add	 esp, 4
  000ff	89 85 38 ff ff
	ff		 mov	 DWORD PTR _pCopiedSrcSurBuf$1$[ebp], eax
  00105	85 c0		 test	 eax, eax
  00107	0f 84 0f 03 00
	00		 je	 $LN23@RenderPost

; 451  : 			}
; 452  : 			CopyMemory(pCopiedSrcSurBuf, lockedSurfaceDesc.lpSurface, (LONG)lockedSurfaceDesc.lPitch * m_movieHeight);

  0010d	8b 0b		 mov	 ecx, DWORD PTR [ebx]
  0010f	0f af 8d 54 ff
	ff ff		 imul	 ecx, DWORD PTR _lockedSurfaceDesc$[ebp+16]
  00116	51		 push	 ecx
  00117	ff b5 68 ff ff
	ff		 push	 DWORD PTR _lockedSurfaceDesc$[ebp+36]
  0011d	50		 push	 eax
  0011e	e8 00 00 00 00	 call	 _memcpy
  00123	8b 9d 14 ff ff
	ff		 mov	 ebx, DWORD PTR tv597[ebp]
  00129	83 c4 0c	 add	 esp, 12			; 0000000cH
  0012c	8b 85 38 ff ff
	ff		 mov	 eax, DWORD PTR _pCopiedSrcSurBuf$1$[ebp]
  00132	89 9d 30 ff ff
	ff		 mov	 DWORD PTR $T3[ebp], ebx
$LN11@RenderPost:

; 453  : 		}
; 454  : 
; 455  : 		// 픽셀 플랏팅(32비트)
; 456  : 		int *pSrcSurfaceBuf = pCopiedSrcSurBuf;
; 457  : 		int *pDestSurfaceBuf = (int*)lockedSurfaceDesc.lpSurface;
; 458  : 
; 459  : 		int fadeOutColorRed = (int)(((fadeOutColor >> 16) & 255) * fadeProgress);

  00138	f3 0f 10 95 2c
	ff ff ff	 movss	 xmm2, DWORD PTR _fadeProgress$1$[ebp]
  00140	0f 57 c9	 xorps	 xmm1, xmm1

; 460  : 		int fadeOutColorGreen = (int)(((fadeOutColor >> 8) & 255) * fadeProgress);
; 461  : 		int fadeOutColorBlue = (int)((fadeOutColor & 255) * fadeProgress);
; 462  : 		for(int y = 0; y < m_movieHeight; ++y)

  00143	8b 8d 28 ff ff
	ff		 mov	 ecx, DWORD PTR $T2[ebp]
  00149	0f 28 c2	 movaps	 xmm0, xmm2
  0014c	8b bd 68 ff ff
	ff		 mov	 edi, DWORD PTR _lockedSurfaceDesc$[ebp+36]
  00152	f3 0f 59 c1	 mulss	 xmm0, xmm1
  00156	89 85 34 ff ff
	ff		 mov	 DWORD PTR _pSrcSurfaceBuf$1$[ebp], eax
  0015c	83 39 00	 cmp	 DWORD PTR [ecx], 0
  0015f	c7 85 24 ff ff
	ff 00 00 00 00	 mov	 DWORD PTR _y$1$[ebp], 0
  00169	f3 0f 2c c0	 cvttss2si eax, xmm0
  0016d	89 85 18 ff ff
	ff		 mov	 DWORD PTR _fadeOutColorBlue$1$[ebp], eax
  00173	0f 8e 35 01 00
	00		 jle	 $LN30@RenderPost
  00179	8b 0b		 mov	 ecx, DWORD PTR [ebx]
  0017b	8b b5 34 ff ff
	ff		 mov	 esi, DWORD PTR _pSrcSurfaceBuf$1$[ebp]
$LL6@RenderPost:

; 463  : 		{
; 464  : 			for(int x = 0; x < m_movieWidth; ++x)

  00181	c7 85 34 ff ff
	ff 00 00 00 00	 mov	 DWORD PTR _x$1$[ebp], 0
  0018b	8b d9		 mov	 ebx, ecx
  0018d	85 c9		 test	 ecx, ecx
  0018f	0f 8e ce 00 00
	00		 jle	 $LN34@RenderPost
  00195	f3 0f 10 0d 00
	00 00 00	 movss	 xmm1, DWORD PTR __real@3f800000
  0019d	66 0f 6e d8	 movd	 xmm3, eax
  001a1	f3 0f 5c ca	 subss	 xmm1, xmm2
  001a5	0f 5b db	 cvtdq2ps xmm3, xmm3
$LL9@RenderPost:

; 465  : 			{
; 466  : 				DWORD srcPixel = *pSrcSurfaceBuf;

  001a8	8b 16		 mov	 edx, DWORD PTR [esi]

; 467  : 				*pDestSurfaceBuf = RGB(

  001aa	8b c2		 mov	 eax, edx
  001ac	c1 e8 10	 shr	 eax, 16			; 00000010H

; 468  : 					(srcPixel & 255) * (1 - fadeProgress) + fadeOutColorBlue,
; 469  : 					((srcPixel >> 8) & 255) * (1 - fadeProgress) + fadeOutColorGreen,
; 470  : 					((srcPixel >> 16) & 255) * (1 - fadeProgress) + fadeOutColorRed);
; 471  : 				pSrcSurfaceBuf++;

  001af	83 c6 04	 add	 esi, 4
  001b2	0f b6 c0	 movzx	 eax, al
  001b5	66 0f 6e c0	 movd	 xmm0, eax
  001b9	f3 0f e6 c0	 cvtdq2pd xmm0, xmm0
  001bd	c1 e8 1f	 shr	 eax, 31			; 0000001fH
  001c0	f2 0f 58 04 c5
	00 00 00 00	 addsd	 xmm0, QWORD PTR __xmm@41f00000000000000000000000000000[eax*8]
  001c9	66 0f 5a c0	 cvtpd2ps xmm0, xmm0
  001cd	f3 0f 59 c1	 mulss	 xmm0, xmm1
  001d1	f3 0f 58 c3	 addss	 xmm0, xmm3
  001d5	f3 0f 2c c0	 cvttss2si eax, xmm0
  001d9	0f b6 c8	 movzx	 ecx, al
  001dc	8b c2		 mov	 eax, edx
  001de	c1 e8 08	 shr	 eax, 8
  001e1	0f b6 c0	 movzx	 eax, al
  001e4	c1 e1 08	 shl	 ecx, 8
  001e7	66 0f 6e c0	 movd	 xmm0, eax
  001eb	f3 0f e6 c0	 cvtdq2pd xmm0, xmm0
  001ef	c1 e8 1f	 shr	 eax, 31			; 0000001fH
  001f2	f2 0f 58 04 c5
	00 00 00 00	 addsd	 xmm0, QWORD PTR __xmm@41f00000000000000000000000000000[eax*8]
  001fb	66 0f 5a c0	 cvtpd2ps xmm0, xmm0
  001ff	f3 0f 59 c1	 mulss	 xmm0, xmm1
  00203	f3 0f 58 c3	 addss	 xmm0, xmm3
  00207	f3 0f 2c c0	 cvttss2si eax, xmm0
  0020b	0f b6 c0	 movzx	 eax, al
  0020e	0b c8		 or	 ecx, eax
  00210	0f b6 c2	 movzx	 eax, dl
  00213	c1 e1 08	 shl	 ecx, 8
  00216	66 0f 6e c0	 movd	 xmm0, eax
  0021a	f3 0f e6 c0	 cvtdq2pd xmm0, xmm0
  0021e	c1 e8 1f	 shr	 eax, 31			; 0000001fH
  00221	f2 0f 58 04 c5
	00 00 00 00	 addsd	 xmm0, QWORD PTR __xmm@41f00000000000000000000000000000[eax*8]
  0022a	66 0f 5a c0	 cvtpd2ps xmm0, xmm0
  0022e	f3 0f 59 c1	 mulss	 xmm0, xmm1
  00232	f3 0f 58 c3	 addss	 xmm0, xmm3
  00236	f3 0f 2c c0	 cvttss2si eax, xmm0
  0023a	0f b6 c0	 movzx	 eax, al
  0023d	0b c8		 or	 ecx, eax
  0023f	8b 85 34 ff ff
	ff		 mov	 eax, DWORD PTR _x$1$[ebp]
  00245	89 0f		 mov	 DWORD PTR [edi], ecx
  00247	40		 inc	 eax
  00248	8b 8d 30 ff ff
	ff		 mov	 ecx, DWORD PTR $T3[ebp]

; 472  : 				pDestSurfaceBuf++;

  0024e	83 c7 04	 add	 edi, 4
  00251	89 85 34 ff ff
	ff		 mov	 DWORD PTR _x$1$[ebp], eax
  00257	8b 09		 mov	 ecx, DWORD PTR [ecx]
  00259	3b c1		 cmp	 eax, ecx
  0025b	0f 8c 47 ff ff
	ff		 jl	 $LL9@RenderPost
  00261	8b d9		 mov	 ebx, ecx
$LN34@RenderPost:

; 473  : 			}
; 474  : 			pSrcSurfaceBuf += (lockedSurfaceDesc.lPitch / 4) - m_movieWidth;

  00263	8b 85 54 ff ff
	ff		 mov	 eax, DWORD PTR _lockedSurfaceDesc$[ebp+16]
  00269	99		 cdq
  0026a	83 e2 03	 and	 edx, 3
  0026d	03 c2		 add	 eax, edx
  0026f	8b 95 20 ff ff
	ff		 mov	 edx, DWORD PTR tv601[ebp]
  00275	c1 f8 02	 sar	 eax, 2
  00278	2b c3		 sub	 eax, ebx
  0027a	c1 e0 02	 shl	 eax, 2
  0027d	03 f0		 add	 esi, eax

; 475  : 			pDestSurfaceBuf += (lockedSurfaceDesc.lPitch / 4) - m_movieWidth;

  0027f	03 f8		 add	 edi, eax
  00281	8b 85 24 ff ff
	ff		 mov	 eax, DWORD PTR _y$1$[ebp]
  00287	40		 inc	 eax
  00288	3b 02		 cmp	 eax, DWORD PTR [edx]
  0028a	89 85 24 ff ff
	ff		 mov	 DWORD PTR _y$1$[ebp], eax
  00290	8b 85 18 ff ff
	ff		 mov	 eax, DWORD PTR _fadeOutColorBlue$1$[ebp]
  00296	0f 8c e5 fe ff
	ff		 jl	 $LL6@RenderPost
  0029c	8b b5 10 ff ff
	ff		 mov	 esi, DWORD PTR _fadeBegin$1$[ebp]
  002a2	8b bd 68 ff ff
	ff		 mov	 edi, DWORD PTR _lockedSurfaceDesc$[ebp+36]
  002a8	8b 9d 30 ff ff
	ff		 mov	 ebx, DWORD PTR $T3[ebp]
$LN30@RenderPost:

; 476  : 		}
; 477  : 		pSurface->Unlock(lockedSurfaceDesc.lpSurface);

  002ae	8b 8d 3c ff ff
	ff		 mov	 ecx, DWORD PTR _pSurface$GSCopy$1$[ebp]
  002b4	57		 push	 edi
  002b5	51		 push	 ecx
  002b6	8b 01		 mov	 eax, DWORD PTR [ecx]
  002b8	ff 90 80 00 00
	00		 call	 DWORD PTR [eax+128]

; 478  : 
; 479  : 		// 색상이 바뀐 동영상 이미지 그리기
; 480  : 		RECT movieRect;
; 481  : 		CalcMovieRect(m_movieWidth, m_movieHeight, movieRect);

  002be	8d 45 e8	 lea	 eax, DWORD PTR _movieRect$6[ebp]
  002c1	50		 push	 eax
  002c2	8b 85 20 ff ff
	ff		 mov	 eax, DWORD PTR tv601[ebp]
  002c8	ff 30		 push	 DWORD PTR [eax]
  002ca	ff 33		 push	 DWORD PTR [ebx]
  002cc	e8 00 00 00 00	 call	 ?CalcMovieRect@CMovieMan@@AAEXHHAAUtagRECT@@@Z ; CMovieMan::CalcMovieRect

; 482  : 		if (FAILED(m_pPrimarySurface->Blt(&movieRect, pSurface, NULL, DDBLT_WAIT, NULL)))

  002d1	8b 85 40 ff ff
	ff		 mov	 eax, DWORD PTR _this$GSCopy$1$[ebp]
  002d7	8d 55 e8	 lea	 edx, DWORD PTR _movieRect$6[ebp]
  002da	6a 00		 push	 0
  002dc	68 00 00 00 01	 push	 16777216		; 01000000H
  002e1	6a 00		 push	 0
  002e3	8b 48 20	 mov	 ecx, DWORD PTR [eax+32]
  002e6	ff b5 3c ff ff
	ff		 push	 DWORD PTR _pSurface$GSCopy$1$[ebp]
  002ec	52		 push	 edx
  002ed	8b 01		 mov	 eax, DWORD PTR [ecx]
  002ef	51		 push	 ecx
  002f0	ff 50 14	 call	 DWORD PTR [eax+20]
  002f3	85 c0		 test	 eax, eax
  002f5	79 72		 jns	 SHORT $LN13@RenderPost

; 91   : 	HDC desktopDC = GetDC(0);

  002f7	6a 00		 push	 0
  002f9	ff 15 00 00 00
	00		 call	 DWORD PTR __imp__GetDC@4
  002ff	8b f8		 mov	 edi, eax

; 92   : 	if (SUCCEEDED(pSrcSurface->GetDC(&surfaceDC)))

  00301	8d 95 1c ff ff
	ff		 lea	 edx, DWORD PTR _surfaceDC$1[ebp]
  00307	8b 85 3c ff ff
	ff		 mov	 eax, DWORD PTR _pSurface$GSCopy$1$[ebp]
  0030d	52		 push	 edx
  0030e	50		 push	 eax
  0030f	8b 08		 mov	 ecx, DWORD PTR [eax]
  00311	ff 51 44	 call	 DWORD PTR [ecx+68]
  00314	85 c0		 test	 eax, eax
  00316	78 48		 js	 SHORT $LN17@RenderPost

; 93   : 	{
; 94   : 		StretchBlt(desktopDC, pDestRect->left, pDestRect->top, pDestRect->right - pDestRect->left, pDestRect->bottom - pDestRect->top,

  00318	8b 85 40 ff ff
	ff		 mov	 eax, DWORD PTR _this$GSCopy$1$[ebp]
  0031e	8b 55 ec	 mov	 edx, DWORD PTR _movieRect$6[ebp+4]
  00321	8b 4d e8	 mov	 ecx, DWORD PTR _movieRect$6[ebp]
  00324	68 20 00 cc 00	 push	 13369376		; 00cc0020H
  00329	ff 70 0c	 push	 DWORD PTR [eax+12]
  0032c	ff 70 08	 push	 DWORD PTR [eax+8]
  0032f	8b 45 f4	 mov	 eax, DWORD PTR _movieRect$6[ebp+12]
  00332	6a 00		 push	 0
  00334	6a 00		 push	 0
  00336	ff b5 1c ff ff
	ff		 push	 DWORD PTR _surfaceDC$1[ebp]
  0033c	2b c2		 sub	 eax, edx
  0033e	50		 push	 eax
  0033f	8b 45 f0	 mov	 eax, DWORD PTR _movieRect$6[ebp+8]
  00342	2b c1		 sub	 eax, ecx
  00344	50		 push	 eax
  00345	52		 push	 edx
  00346	51		 push	 ecx
  00347	57		 push	 edi
  00348	ff 15 00 00 00
	00		 call	 DWORD PTR __imp__StretchBlt@44

; 95   : 			surfaceDC, 0, 0, m_movieWidth, m_movieHeight, SRCCOPY);
; 96   : 		pSrcSurface->ReleaseDC(surfaceDC);

  0034e	8b 8d 3c ff ff
	ff		 mov	 ecx, DWORD PTR _pSurface$GSCopy$1$[ebp]
  00354	ff b5 1c ff ff
	ff		 push	 DWORD PTR _surfaceDC$1[ebp]
  0035a	51		 push	 ecx
  0035b	8b 01		 mov	 eax, DWORD PTR [ecx]
  0035d	ff 50 68	 call	 DWORD PTR [eax+104]
$LN17@RenderPost:

; 97   : 	}
; 98   : 	ReleaseDC(0, desktopDC);

  00360	57		 push	 edi
  00361	6a 00		 push	 0
  00363	ff 15 00 00 00
	00		 call	 DWORD PTR __imp__ReleaseDC@8
$LN13@RenderPost:

; 483  : 		{
; 484  : 			GDIBlt(pSurface, &movieRect);
; 485  : 		}
; 486  : 
; 487  : 		// 위 또는 좌측 빈칸 색채우기
; 488  : 		RECT upperRect, lowerRect;
; 489  : 		CalcBackgroundRect(movieRect, upperRect, lowerRect);

  00369	8b 8d 40 ff ff
	ff		 mov	 ecx, DWORD PTR _this$GSCopy$1$[ebp]
  0036f	8d 45 c8	 lea	 eax, DWORD PTR _lowerRect$4[ebp]
  00372	50		 push	 eax
  00373	8d 45 d8	 lea	 eax, DWORD PTR _upperRect$5[ebp]
  00376	50		 push	 eax
  00377	8d 45 e8	 lea	 eax, DWORD PTR _movieRect$6[ebp]
  0037a	50		 push	 eax
  0037b	e8 00 00 00 00	 call	 ?CalcBackgroundRect@CMovieMan@@AAEXABUtagRECT@@AAU2@1@Z ; CMovieMan::CalcBackgroundRect

; 490  : 		FillRect(upperRect, (fadeOutColorRed << 16) | (fadeOutColorGreen << 8) | fadeOutColorBlue);

  00380	8b 85 18 ff ff
	ff		 mov	 eax, DWORD PTR _fadeOutColorBlue$1$[ebp]
  00386	8b f8		 mov	 edi, eax
  00388	8b 8d 40 ff ff
	ff		 mov	 ecx, DWORD PTR _this$GSCopy$1$[ebp]
  0038e	c1 e7 08	 shl	 edi, 8
  00391	0b f8		 or	 edi, eax
  00393	c1 e7 08	 shl	 edi, 8
  00396	0b f8		 or	 edi, eax
  00398	8d 45 d8	 lea	 eax, DWORD PTR _upperRect$5[ebp]
  0039b	57		 push	 edi
  0039c	50		 push	 eax
  0039d	e8 00 00 00 00	 call	 ?FillRect@CMovieMan@@AAEXAAUtagRECT@@K@Z ; CMovieMan::FillRect

; 491  : 		FillRect(lowerRect, (fadeOutColorRed << 16) | (fadeOutColorGreen << 8) | fadeOutColorBlue);

  003a2	57		 push	 edi
  003a3	8b bd 40 ff ff
	ff		 mov	 edi, DWORD PTR _this$GSCopy$1$[ebp]
  003a9	8d 45 c8	 lea	 eax, DWORD PTR _lowerRect$4[ebp]
  003ac	50		 push	 eax
  003ad	8b cf		 mov	 ecx, edi
  003af	e8 00 00 00 00	 call	 ?FillRect@CMovieMan@@AAEXAAUtagRECT@@K@Z ; CMovieMan::FillRect

; 492  : 		
; 493  : 		// 음량 조절
; 494  : 		if (m_pBasicAudio)

  003b4	8b 57 24	 mov	 edx, DWORD PTR [edi+36]
  003b7	85 d2		 test	 edx, edx
  003b9	74 1b		 je	 SHORT $LN14@RenderPost

; 495  : 		{
; 496  : 			m_pBasicAudio->put_Volume((long)(-10000 * fadeProgress));

  003bb	f3 0f 10 85 2c
	ff ff ff	 movss	 xmm0, DWORD PTR _fadeProgress$1$[ebp]
  003c3	f3 0f 59 05 00
	00 00 00	 mulss	 xmm0, DWORD PTR __real@c61c4000
  003cb	8b 0a		 mov	 ecx, DWORD PTR [edx]
  003cd	f3 0f 2c c0	 cvttss2si eax, xmm0
  003d1	50		 push	 eax
  003d2	52		 push	 edx
  003d3	ff 51 1c	 call	 DWORD PTR [ecx+28]
$LN14@RenderPost:

; 433  : 	float fadeProgress = 0.0;
; 434  : 	while ((fadeProgress = ((float)((LONG)GetTickCount()) - fadeBegin) / fadeOutDuration) < 1.0)

  003d6	ff 15 00 00 00
	00		 call	 DWORD PTR __imp__GetTickCount@0
  003dc	66 0f 6e ce	 movd	 xmm1, esi
  003e0	0f 5b c9	 cvtdq2ps xmm1, xmm1
  003e3	66 0f 6e c0	 movd	 xmm0, eax
  003e7	0f 5b c0	 cvtdq2ps xmm0, xmm0
  003ea	f3 0f 5c c1	 subss	 xmm0, xmm1
  003ee	f3 0f 10 0d 00
	00 00 00	 movss	 xmm1, DWORD PTR __real@3f800000
  003f6	f3 0f 5e 05 00
	00 00 00	 divss	 xmm0, DWORD PTR __real@44a28000
  003fe	0f 2f c8	 comiss	 xmm1, xmm0
  00401	f3 0f 11 85 2c
	ff ff ff	 movss	 DWORD PTR _fadeProgress$1$[ebp], xmm0
  00409	76 3a		 jbe	 SHORT $LN3@RenderPost
  0040b	8b bd 3c ff ff
	ff		 mov	 edi, DWORD PTR _pSurface$GSCopy$1$[ebp]
  00411	8b 85 28 ff ff
	ff		 mov	 eax, DWORD PTR $T2[ebp]
  00417	e9 74 fc ff ff	 jmp	 $LL2@RenderPost
$LN23@RenderPost:

; 448  : 			{
; 449  : 				pSurface->Unlock(lockedSurfaceDesc.lpSurface);

  0041c	ff b5 68 ff ff
	ff		 push	 DWORD PTR _lockedSurfaceDesc$[ebp+36]
  00422	8b 07		 mov	 eax, DWORD PTR [edi]
  00424	57		 push	 edi
  00425	ff 90 80 00 00
	00		 call	 DWORD PTR [eax+128]

; 450  : 				return E_OUTOFMEMORY;

  0042b	b8 0e 00 07 80	 mov	 eax, -2147024882	; 8007000eH

; 509  : }

  00430	5f		 pop	 edi
  00431	5e		 pop	 esi
  00432	5b		 pop	 ebx
  00433	8b 4d f8	 mov	 ecx, DWORD PTR __$ArrayPad$[ebp]
  00436	33 cd		 xor	 ecx, ebp
  00438	e8 00 00 00 00	 call	 @__security_check_cookie@4
  0043d	8b e5		 mov	 esp, ebp
  0043f	5d		 pop	 ebp
  00440	c2 0c 00	 ret	 12			; 0000000cH
$LN35@RenderPost:

; 433  : 	float fadeProgress = 0.0;
; 434  : 	while ((fadeProgress = ((float)((LONG)GetTickCount()) - fadeBegin) / fadeOutDuration) < 1.0)

  00443	8b fb		 mov	 edi, ebx
$LN3@RenderPost:

; 497  : 		}
; 498  : 	}
; 499  : 
; 500  : 	// 메모리 해제
; 501  : 	free(pCopiedSrcSurBuf);

  00445	ff b5 38 ff ff
	ff		 push	 DWORD PTR _pCopiedSrcSurBuf$1$[ebp]
  0044b	e8 00 00 00 00	 call	 _free
  00450	83 c4 04	 add	 esp, 4

; 502  : 
; 503  : 	// 마지막엔 1.0을 기준으로 완전히 FadeOut된 화면 그리기
; 504  : 	RECT windowRect;
; 505  : 	GetWindowRect(windowRect);

  00453	8d 45 b8	 lea	 eax, DWORD PTR _windowRect$[ebp]
  00456	50		 push	 eax
  00457	e8 00 00 00 00	 call	 ?GetWindowRect@CMovieMan@@AAEXAAUtagRECT@@@Z ; CMovieMan::GetWindowRect

; 506  : 	FillRect(windowRect, fadeOutColor);

  0045c	6a 00		 push	 0
  0045e	8d 45 b8	 lea	 eax, DWORD PTR _windowRect$[ebp]
  00461	8b cf		 mov	 ecx, edi
  00463	50		 push	 eax
  00464	e8 00 00 00 00	 call	 ?FillRect@CMovieMan@@AAEXAAUtagRECT@@K@Z ; CMovieMan::FillRect

; 507  : 
; 508  : 	return S_OK;

  00469	33 c0		 xor	 eax, eax
$LN1@RenderPost:

; 509  : }

  0046b	8b 4d f8	 mov	 ecx, DWORD PTR __$ArrayPad$[ebp]
  0046e	5f		 pop	 edi
  0046f	5e		 pop	 esi
  00470	33 cd		 xor	 ecx, ebp
  00472	5b		 pop	 ebx
  00473	e8 00 00 00 00	 call	 @__security_check_cookie@4
  00478	8b e5		 mov	 esp, ebp
  0047a	5d		 pop	 ebp
  0047b	c2 0c 00	 ret	 12			; 0000000cH
?RenderPostEffectFadeOut@CMovieMan@@AAEJPAUIDirectDrawSurface@@HK@Z ENDP ; CMovieMan::RenderPostEffectFadeOut
_TEXT	ENDS
; Function compile flags: /Ogtp
; File D:\_m2work\txoko-m2-work\txoko-client-src\source\UserInterface\MovieMan.cpp
; File C:\Program Files (x86)\Windows Kits\10\Include\10.0.26100.0\shared\guiddef.h
; File D:\_m2work\txoko-m2-work\txoko-client-src\source\UserInterface\MovieMan.cpp
;	COMDAT ?BuildFilterGraphManually@CMovieMan@@AAEJPA_WPAUIAMMultiMediaStream@@U_GUID@@22@Z
_TEXT	SEGMENT
_wpFilename$GSCopy$1$ = -364				; size = 4
_pWrap$1 = -360						; size = 4
_pSourceFilter$ = -356					; size = 4
_pAudioFilter$ = -352					; size = 4
_pSplitterAudioOutPin$ = -348				; size = 4
_pSplitterFilter$ = -344				; size = 4
_pVideoFilter$ = -340					; size = 4
_pOutPin$ = -336					; size = 4
_pGraphBuilder$ = -332					; size = 4
_pInPin$ = -328						; size = 4
_pEnumPins$ = -324					; size = 4
_pinInfo$2 = -320					; size = 264
_clsidAudioCodec$GSCopy$ = -56				; size = 16
_clsidSplitter$GSCopy$ = -40				; size = 16
_clsidVideoCodec$GSCopy$ = -24				; size = 16
__$ArrayPad$ = -4					; size = 4
_wpFilename$ = 8					; size = 4
_pAMStream$ = 12					; size = 4
_clsidSplitter$ = 16					; size = 16
_clsidVideoCodec$ = 32					; size = 16
_clsidAudioCodec$ = 48					; size = 16
?BuildFilterGraphManually@CMovieMan@@AAEJPA_WPAUIAMMultiMediaStream@@U_GUID@@22@Z PROC ; CMovieMan::BuildFilterGraphManually, COMDAT
; _this$ = ecx

; 520  : {

  00000	55		 push	 ebp
  00001	8b ec		 mov	 ebp, esp
  00003	81 ec 6c 01 00
	00		 sub	 esp, 364		; 0000016cH
  00009	a1 00 00 00 00	 mov	 eax, DWORD PTR ___security_cookie
  0000e	33 c5		 xor	 eax, ebp
  00010	89 45 fc	 mov	 DWORD PTR __$ArrayPad$[ebp], eax
  00013	0f 10 45 10	 movups	 xmm0, XMMWORD PTR _clsidSplitter$[ebp]
  00017	8b 55 0c	 mov	 edx, DWORD PTR _pAMStream$[ebp]
  0001a	8b 45 08	 mov	 eax, DWORD PTR _wpFilename$[ebp]
  0001d	53		 push	 ebx
  0001e	0f 11 45 d8	 movups	 XMMWORD PTR _clsidSplitter$GSCopy$[ebp], xmm0
  00022	56		 push	 esi
  00023	0f 10 45 20	 movups	 xmm0, XMMWORD PTR _clsidVideoCodec$[ebp]
  00027	57		 push	 edi
  00028	8b d9		 mov	 ebx, ecx
  0002a	89 85 94 fe ff
	ff		 mov	 DWORD PTR _wpFilename$GSCopy$1$[ebp], eax

; 521  : 	IGraphBuilder* pGraphBuilder = NULL;
; 522  : 	pAMStream->GetFilterGraph(&pGraphBuilder);

  00030	8b 02		 mov	 eax, DWORD PTR [edx]
  00032	8d 8d b4 fe ff
	ff		 lea	 ecx, DWORD PTR _pGraphBuilder$[ebp]
  00038	0f 11 45 e8	 movups	 XMMWORD PTR _clsidVideoCodec$GSCopy$[ebp], xmm0
  0003c	51		 push	 ecx
  0003d	0f 10 45 30	 movups	 xmm0, XMMWORD PTR _clsidAudioCodec$[ebp]
  00041	52		 push	 edx
  00042	c7 85 b4 fe ff
	ff 00 00 00 00	 mov	 DWORD PTR _pGraphBuilder$[ebp], 0
  0004c	0f 11 45 c8	 movups	 XMMWORD PTR _clsidAudioCodec$GSCopy$[ebp], xmm0
  00050	ff 50 34	 call	 DWORD PTR [eax+52]

; 523  : 
; 524  : 	assert(pGraphBuilder);
; 525  : 
; 526  : //#ifdef _DEBUG
; 527  : //	DWORD dwRegister;
; 528  : //	AddToRot(pGraphBuilder, &dwRegister);
; 529  : //#endif
; 530  : 
; 531  : 	IBaseFilter *pSourceFilter = NULL;
; 532  : 	IBaseFilter *pSplitterFilter = NULL;
; 533  : 	IBaseFilter *pVideoFilter = NULL;
; 534  : 	IBaseFilter *pAudioFilter = NULL;
; 535  : 
; 536  : 	CoCreateInstance(clsidSplitter, NULL, CLSCTX_INPROC_SERVER, IID_IBaseFilter, (void **) &pSplitterFilter);

  00053	8b 3d 00 00 00
	00		 mov	 edi, DWORD PTR __imp__CoCreateInstance@20
  00059	8d 85 a8 fe ff
	ff		 lea	 eax, DWORD PTR _pSplitterFilter$[ebp]
  0005f	50		 push	 eax
  00060	68 00 00 00 00	 push	 OFFSET _IID_IBaseFilter
  00065	6a 01		 push	 1
  00067	6a 00		 push	 0
  00069	8d 45 d8	 lea	 eax, DWORD PTR _clsidSplitter$GSCopy$[ebp]
  0006c	c7 85 9c fe ff
	ff 00 00 00 00	 mov	 DWORD PTR _pSourceFilter$[ebp], 0
  00076	50		 push	 eax
  00077	c7 85 a8 fe ff
	ff 00 00 00 00	 mov	 DWORD PTR _pSplitterFilter$[ebp], 0
  00081	c7 85 ac fe ff
	ff 00 00 00 00	 mov	 DWORD PTR _pVideoFilter$[ebp], 0
  0008b	c7 85 a0 fe ff
	ff 00 00 00 00	 mov	 DWORD PTR _pAudioFilter$[ebp], 0
  00095	ff d7		 call	 edi

; 537  : 	CoCreateInstance(clsidVideoCodec, NULL, CLSCTX_INPROC_SERVER, IID_IBaseFilter, (void **) &pVideoFilter);

  00097	8d 85 ac fe ff
	ff		 lea	 eax, DWORD PTR _pVideoFilter$[ebp]
  0009d	50		 push	 eax
  0009e	68 00 00 00 00	 push	 OFFSET _IID_IBaseFilter
  000a3	6a 01		 push	 1
  000a5	6a 00		 push	 0
  000a7	8d 45 e8	 lea	 eax, DWORD PTR _clsidVideoCodec$GSCopy$[ebp]
  000aa	50		 push	 eax
  000ab	ff d7		 call	 edi

; 538  : 	CoCreateInstance(clsidAudioCodec, NULL, CLSCTX_INPROC_SERVER, IID_IBaseFilter, (void **) &pAudioFilter);

  000ad	8d 85 a0 fe ff
	ff		 lea	 eax, DWORD PTR _pAudioFilter$[ebp]
  000b3	50		 push	 eax
  000b4	68 00 00 00 00	 push	 OFFSET _IID_IBaseFilter
  000b9	6a 01		 push	 1
  000bb	6a 00		 push	 0
  000bd	8d 45 c8	 lea	 eax, DWORD PTR _clsidAudioCodec$GSCopy$[ebp]
  000c0	50		 push	 eax
  000c1	ff d7		 call	 edi

; 539  : 
; 540  : 	// 만약 MP43 디코더가 없다면 DMO 코덱을 대신 넣어준다
; 541  : 	// MONSTER팀에서 발견된 케이스(코덱을 누군가 강제로 삭제)
; 542  : 	if (!pVideoFilter && IsEqualGUID(clsidVideoCodec, CLSID_MP4VideoCodec))

  000c3	83 bd ac fe ff
	ff 00		 cmp	 DWORD PTR _pVideoFilter$[ebp], 0
  000ca	75 7d		 jne	 SHORT $LN6@BuildFilte
; File C:\Program Files (x86)\Windows Kits\10\Include\10.0.26100.0\shared\guiddef.h

; 161  :     return !memcmp(&rguid1, &rguid2, sizeof(GUID));

  000cc	8d 4d e8	 lea	 ecx, DWORD PTR _clsidVideoCodec$GSCopy$[ebp]
  000cf	ba 00 00 00 00	 mov	 edx, OFFSET ?CLSID_MP4VideoCodec@@3U_GUID@@B
  000d4	be 0c 00 00 00	 mov	 esi, 12			; 0000000cH
  000d9	0f 1f 80 00 00
	00 00		 npad	 7
$LL23@BuildFilte:
  000e0	8b 01		 mov	 eax, DWORD PTR [ecx]
  000e2	3b 02		 cmp	 eax, DWORD PTR [edx]
  000e4	75 63		 jne	 SHORT $LN6@BuildFilte
  000e6	83 c1 04	 add	 ecx, 4
  000e9	83 c2 04	 add	 edx, 4
  000ec	83 ee 04	 sub	 esi, 4
  000ef	73 ef		 jae	 SHORT $LL23@BuildFilte
; File D:\_m2work\txoko-m2-work\txoko-client-src\source\UserInterface\MovieMan.cpp

; 545  : 		HRESULT hr = CoCreateInstance(CLSID_DMOWrapperFilter, NULL, CLSCTX_INPROC, IID_IBaseFilter, (void **)&pVideoFilter);

  000f1	8d 85 ac fe ff
	ff		 lea	 eax, DWORD PTR _pVideoFilter$[ebp]
  000f7	50		 push	 eax
  000f8	68 00 00 00 00	 push	 OFFSET _IID_IBaseFilter
  000fd	6a 03		 push	 3
  000ff	6a 00		 push	 0
  00101	68 00 00 00 00	 push	 OFFSET _CLSID_DMOWrapperFilter
  00106	ff d7		 call	 edi

; 546  : 		if (SUCCEEDED(hr)) 

  00108	85 c0		 test	 eax, eax
  0010a	78 3d		 js	 SHORT $LN6@BuildFilte

; 547  : 		{
; 548  : 			IDMOWrapperFilter *pWrap;
; 549  : 			hr = pVideoFilter->QueryInterface(IID_IDMOWrapperFilter, (void **)&pWrap);

  0010c	8b 8d ac fe ff
	ff		 mov	 ecx, DWORD PTR _pVideoFilter$[ebp]
  00112	8d 95 98 fe ff
	ff		 lea	 edx, DWORD PTR _pWrap$1[ebp]
  00118	52		 push	 edx
  00119	68 00 00 00 00	 push	 OFFSET _IID_IDMOWrapperFilter
  0011e	51		 push	 ecx
  0011f	8b 01		 mov	 eax, DWORD PTR [ecx]
  00121	ff 10		 call	 DWORD PTR [eax]

; 550  : 			if (SUCCEEDED(hr))

  00123	85 c0		 test	 eax, eax
  00125	78 22		 js	 SHORT $LN6@BuildFilte

; 551  : 			{
; 552  : 				hr = pWrap->Init(CLSID_MP43DMOCodec, DMOCATEGORY_VIDEO_DECODER);

  00127	8b 85 98 fe ff
	ff		 mov	 eax, DWORD PTR _pWrap$1[ebp]
  0012d	68 00 00 00 00	 push	 OFFSET _DMOCATEGORY_VIDEO_DECODER
  00132	68 00 00 00 00	 push	 OFFSET ?CLSID_MP43DMOCodec@@3U_GUID@@B
  00137	50		 push	 eax
  00138	8b 08		 mov	 ecx, DWORD PTR [eax]
  0013a	ff 51 0c	 call	 DWORD PTR [ecx+12]

; 553  : 				pWrap->Release();

  0013d	8b 85 98 fe ff
	ff		 mov	 eax, DWORD PTR _pWrap$1[ebp]
  00143	50		 push	 eax
  00144	8b 08		 mov	 ecx, DWORD PTR [eax]
  00146	ff 51 08	 call	 DWORD PTR [ecx+8]
$LN6@BuildFilte:

; 554  : 			}
; 555  : 		}
; 556  : 	}
; 557  : 
; 558  : 	pGraphBuilder->AddSourceFilter(wpFilename, L"Source Filter", &pSourceFilter);

  00149	8b 85 b4 fe ff
	ff		 mov	 eax, DWORD PTR _pGraphBuilder$[ebp]
  0014f	8d 95 9c fe ff
	ff		 lea	 edx, DWORD PTR _pSourceFilter$[ebp]
  00155	52		 push	 edx
  00156	68 00 00 00 00	 push	 OFFSET ??_C@_1BM@KFENCCEP@?$AAS?$AAo?$AAu?$AAr?$AAc?$AAe?$AA?5?$AAF?$AAi?$AAl?$AAt?$AAe?$AAr@
  0015b	ff b5 94 fe ff
	ff		 push	 DWORD PTR _wpFilename$GSCopy$1$[ebp]
  00161	8b 08		 mov	 ecx, DWORD PTR [eax]
  00163	50		 push	 eax
  00164	ff 51 38	 call	 DWORD PTR [ecx+56]

; 559  : 	pGraphBuilder->AddFilter(pSplitterFilter, L"Splitter");

  00167	8b 85 b4 fe ff
	ff		 mov	 eax, DWORD PTR _pGraphBuilder$[ebp]
  0016d	68 00 00 00 00	 push	 OFFSET ??_C@_1BC@GEEOHGFK@?$AAS?$AAp?$AAl?$AAi?$AAt?$AAt?$AAe?$AAr@
  00172	ff b5 a8 fe ff
	ff		 push	 DWORD PTR _pSplitterFilter$[ebp]
  00178	8b 08		 mov	 ecx, DWORD PTR [eax]
  0017a	50		 push	 eax
  0017b	ff 51 0c	 call	 DWORD PTR [ecx+12]

; 560  : 	pGraphBuilder->AddFilter(pVideoFilter, L"Video Decoder");

  0017e	8b 85 b4 fe ff
	ff		 mov	 eax, DWORD PTR _pGraphBuilder$[ebp]
  00184	68 00 00 00 00	 push	 OFFSET ??_C@_1BM@DBOEKKK@?$AAV?$AAi?$AAd?$AAe?$AAo?$AA?5?$AAD?$AAe?$AAc?$AAo?$AAd?$AAe?$AAr@
  00189	ff b5 ac fe ff
	ff		 push	 DWORD PTR _pVideoFilter$[ebp]
  0018f	8b 08		 mov	 ecx, DWORD PTR [eax]
  00191	50		 push	 eax
  00192	ff 51 0c	 call	 DWORD PTR [ecx+12]

; 561  : 	pGraphBuilder->AddFilter(pAudioFilter, L"Audio Decoder");

  00195	8b 85 b4 fe ff
	ff		 mov	 eax, DWORD PTR _pGraphBuilder$[ebp]
  0019b	68 00 00 00 00	 push	 OFFSET ??_C@_1BM@CMEFDNDD@?$AAA?$AAu?$AAd?$AAi?$AAo?$AA?5?$AAD?$AAe?$AAc?$AAo?$AAd?$AAe?$AAr@
  001a0	ff b5 a0 fe ff
	ff		 push	 DWORD PTR _pAudioFilter$[ebp]
  001a6	8b 08		 mov	 ecx, DWORD PTR [eax]
  001a8	50		 push	 eax
  001a9	ff 51 0c	 call	 DWORD PTR [ecx+12]

; 562  : 
; 563  : 	assert(m_pBasicAudio == NULL);
; 564  : 	pGraphBuilder->QueryInterface(IID_IBasicAudio, (void**) &m_pBasicAudio);

  001ac	8b 8d b4 fe ff
	ff		 mov	 ecx, DWORD PTR _pGraphBuilder$[ebp]
  001b2	8d 43 24	 lea	 eax, DWORD PTR [ebx+36]
  001b5	50		 push	 eax
  001b6	68 00 00 00 00	 push	 OFFSET _IID_IBasicAudio
  001bb	51		 push	 ecx
  001bc	8b 11		 mov	 edx, DWORD PTR [ecx]
  001be	ff 12		 call	 DWORD PTR [edx]

; 565  : 
; 566  : 	// Connect "Source" -> "Splitter"
; 567  : 	IPin *pInPin = NULL;
; 568  : 	IPin *pOutPin = NULL;
; 569  : 	IPin *pSplitterVideoOutPin = NULL;
; 570  : 	IPin *pSplitterAudioOutPin = NULL;
; 571  : 	IEnumPins *pEnumPins = NULL;
; 572  : 	pSourceFilter->EnumPins(&pEnumPins);

  001c0	8b 85 9c fe ff
	ff		 mov	 eax, DWORD PTR _pSourceFilter$[ebp]
  001c6	8d 95 bc fe ff
	ff		 lea	 edx, DWORD PTR _pEnumPins$[ebp]
  001cc	33 f6		 xor	 esi, esi
  001ce	c7 85 b8 fe ff
	ff 00 00 00 00	 mov	 DWORD PTR _pInPin$[ebp], 0
  001d8	c7 85 b0 fe ff
	ff 00 00 00 00	 mov	 DWORD PTR _pOutPin$[ebp], 0
  001e2	89 b5 a4 fe ff
	ff		 mov	 DWORD PTR _pSplitterAudioOutPin$[ebp], esi
  001e8	89 b5 bc fe ff
	ff		 mov	 DWORD PTR _pEnumPins$[ebp], esi
  001ee	8b 08		 mov	 ecx, DWORD PTR [eax]
  001f0	52		 push	 edx
  001f1	50		 push	 eax
  001f2	ff 51 28	 call	 DWORD PTR [ecx+40]

; 573  : 	pEnumPins->Next(1, &pOutPin, NULL);

  001f5	8b 85 bc fe ff
	ff		 mov	 eax, DWORD PTR _pEnumPins$[ebp]
  001fb	8d 95 b0 fe ff
	ff		 lea	 edx, DWORD PTR _pOutPin$[ebp]
  00201	56		 push	 esi
  00202	52		 push	 edx
  00203	6a 01		 push	 1
  00205	8b 08		 mov	 ecx, DWORD PTR [eax]
  00207	50		 push	 eax
  00208	ff 51 0c	 call	 DWORD PTR [ecx+12]

; 574  : 	pEnumPins->Release();

  0020b	8b 85 bc fe ff
	ff		 mov	 eax, DWORD PTR _pEnumPins$[ebp]
  00211	50		 push	 eax
  00212	8b 08		 mov	 ecx, DWORD PTR [eax]
  00214	ff 51 08	 call	 DWORD PTR [ecx+8]

; 575  : 	pSplitterFilter->EnumPins(&pEnumPins);

  00217	8b 85 a8 fe ff
	ff		 mov	 eax, DWORD PTR _pSplitterFilter$[ebp]
  0021d	8d 95 bc fe ff
	ff		 lea	 edx, DWORD PTR _pEnumPins$[ebp]
  00223	52		 push	 edx
  00224	50		 push	 eax
  00225	8b 08		 mov	 ecx, DWORD PTR [eax]
  00227	ff 51 28	 call	 DWORD PTR [ecx+40]

; 576  : 	pEnumPins->Next(1, &pInPin, NULL);

  0022a	8b 85 bc fe ff
	ff		 mov	 eax, DWORD PTR _pEnumPins$[ebp]
  00230	8d 95 b8 fe ff
	ff		 lea	 edx, DWORD PTR _pInPin$[ebp]
  00236	56		 push	 esi
  00237	52		 push	 edx
  00238	6a 01		 push	 1
  0023a	8b 08		 mov	 ecx, DWORD PTR [eax]
  0023c	50		 push	 eax
  0023d	ff 51 0c	 call	 DWORD PTR [ecx+12]

; 577  : 	pEnumPins->Release();

  00240	8b 85 bc fe ff
	ff		 mov	 eax, DWORD PTR _pEnumPins$[ebp]
  00246	50		 push	 eax
  00247	8b 08		 mov	 ecx, DWORD PTR [eax]
  00249	ff 51 08	 call	 DWORD PTR [ecx+8]

; 578  : 	HRESULT hr = pGraphBuilder->Connect(pOutPin, pInPin);

  0024c	8b 8d b4 fe ff
	ff		 mov	 ecx, DWORD PTR _pGraphBuilder$[ebp]
  00252	ff b5 b8 fe ff
	ff		 push	 DWORD PTR _pInPin$[ebp]
  00258	ff b5 b0 fe ff
	ff		 push	 DWORD PTR _pOutPin$[ebp]
  0025e	8b 01		 mov	 eax, DWORD PTR [ecx]
  00260	51		 push	 ecx
  00261	ff 50 2c	 call	 DWORD PTR [eax+44]
  00264	8b f8		 mov	 edi, eax

; 579  : 	pInPin->Release();

  00266	8b 8d b8 fe ff
	ff		 mov	 ecx, DWORD PTR _pInPin$[ebp]
  0026c	51		 push	 ecx
  0026d	8b 11		 mov	 edx, DWORD PTR [ecx]
  0026f	ff 52 08	 call	 DWORD PTR [edx+8]

; 580  : 	pOutPin->Release();

  00272	8b 8d b0 fe ff
	ff		 mov	 ecx, DWORD PTR _pOutPin$[ebp]
  00278	51		 push	 ecx
  00279	8b 11		 mov	 edx, DWORD PTR [ecx]
  0027b	ff 52 08	 call	 DWORD PTR [edx+8]

; 581  : 	if (SUCCEEDED(hr))

  0027e	85 ff		 test	 edi, edi
  00280	0f 88 eb 01 00
	00		 js	 $LN25@BuildFilte

; 582  : 	{
; 583  : 		// 연결후에만 Output 핀들이 나타난다
; 584  : 		pSplitterFilter->EnumPins(&pEnumPins);

  00286	8b 85 a8 fe ff
	ff		 mov	 eax, DWORD PTR _pSplitterFilter$[ebp]
  0028c	8d 95 bc fe ff
	ff		 lea	 edx, DWORD PTR _pEnumPins$[ebp]
  00292	52		 push	 edx
  00293	50		 push	 eax
  00294	8b 08		 mov	 ecx, DWORD PTR [eax]
  00296	ff 51 28	 call	 DWORD PTR [ecx+40]

; 585  : 		PIN_INFO pinInfo;
; 586  : 		while( SUCCEEDED(pEnumPins->Next(1, &pInPin, NULL)) )

  00299	8b 8d bc fe ff
	ff		 mov	 ecx, DWORD PTR _pEnumPins$[ebp]
  0029f	8d 95 b8 fe ff
	ff		 lea	 edx, DWORD PTR _pInPin$[ebp]
  002a5	56		 push	 esi
  002a6	52		 push	 edx
  002a7	6a 01		 push	 1
  002a9	8b 01		 mov	 eax, DWORD PTR [ecx]
  002ab	51		 push	 ecx
  002ac	ff 50 0c	 call	 DWORD PTR [eax+12]
  002af	85 c0		 test	 eax, eax
  002b1	78 6e		 js	 SHORT $LN3@BuildFilte
$LL2@BuildFilte:

; 587  : 		{
; 588  : 			pInPin->QueryPinInfo(&pinInfo);

  002b3	8b 85 b8 fe ff
	ff		 mov	 eax, DWORD PTR _pInPin$[ebp]
  002b9	8d 95 c0 fe ff
	ff		 lea	 edx, DWORD PTR _pinInfo$2[ebp]
  002bf	52		 push	 edx
  002c0	50		 push	 eax
  002c1	8b 08		 mov	 ecx, DWORD PTR [eax]
  002c3	ff 51 20	 call	 DWORD PTR [ecx+32]

; 589  : 			pinInfo.pFilter->Release();

  002c6	8b 85 c0 fe ff
	ff		 mov	 eax, DWORD PTR _pinInfo$2[ebp]
  002cc	50		 push	 eax
  002cd	8b 08		 mov	 ecx, DWORD PTR [eax]
  002cf	ff 51 08	 call	 DWORD PTR [ecx+8]

; 590  : 			if (pinInfo.dir == PINDIR_OUTPUT)

  002d2	83 bd c4 fe ff
	ff 01		 cmp	 DWORD PTR _pinInfo$2[ebp+4], 1
  002d9	74 29		 je	 SHORT $LN18@BuildFilte

; 595  : 				break;
; 596  : 			}
; 597  : 			pInPin->Release();

  002db	8b 85 b8 fe ff
	ff		 mov	 eax, DWORD PTR _pInPin$[ebp]
  002e1	50		 push	 eax
  002e2	8b 08		 mov	 ecx, DWORD PTR [eax]
  002e4	ff 51 08	 call	 DWORD PTR [ecx+8]
  002e7	8b 8d bc fe ff
	ff		 mov	 ecx, DWORD PTR _pEnumPins$[ebp]
  002ed	8d 95 b8 fe ff
	ff		 lea	 edx, DWORD PTR _pInPin$[ebp]
  002f3	6a 00		 push	 0
  002f5	52		 push	 edx
  002f6	6a 01		 push	 1
  002f8	8b 01		 mov	 eax, DWORD PTR [ecx]
  002fa	51		 push	 ecx
  002fb	ff 50 0c	 call	 DWORD PTR [eax+12]
  002fe	85 c0		 test	 eax, eax
  00300	79 b1		 jns	 SHORT $LL2@BuildFilte

; 590  : 			if (pinInfo.dir == PINDIR_OUTPUT)

  00302	eb 1d		 jmp	 SHORT $LN3@BuildFilte
$LN18@BuildFilte:

; 591  : 			{
; 592  : 				// Pin의 순서를 비디오-오디오로 가정
; 593  : 				pSplitterVideoOutPin = pInPin;
; 594  : 				pEnumPins->Next(1, &pSplitterAudioOutPin, NULL);

  00304	8b 85 bc fe ff
	ff		 mov	 eax, DWORD PTR _pEnumPins$[ebp]
  0030a	8d 95 a4 fe ff
	ff		 lea	 edx, DWORD PTR _pSplitterAudioOutPin$[ebp]
  00310	8b b5 b8 fe ff
	ff		 mov	 esi, DWORD PTR _pInPin$[ebp]
  00316	6a 00		 push	 0
  00318	52		 push	 edx
  00319	8b 08		 mov	 ecx, DWORD PTR [eax]
  0031b	6a 01		 push	 1
  0031d	50		 push	 eax
  0031e	ff 51 0c	 call	 DWORD PTR [ecx+12]
$LN3@BuildFilte:

; 598  : 		}
; 599  : 		pEnumPins->Release();

  00321	8b 85 bc fe ff
	ff		 mov	 eax, DWORD PTR _pEnumPins$[ebp]
  00327	50		 push	 eax
  00328	8b 08		 mov	 ecx, DWORD PTR [eax]
  0032a	ff 51 08	 call	 DWORD PTR [ecx+8]

; 600  : 
; 601  : 		// Splitter -> Video/Audio codecs
; 602  : 		pVideoFilter->EnumPins(&pEnumPins);

  0032d	8b 85 ac fe ff
	ff		 mov	 eax, DWORD PTR _pVideoFilter$[ebp]
  00333	8d 95 bc fe ff
	ff		 lea	 edx, DWORD PTR _pEnumPins$[ebp]
  00339	52		 push	 edx
  0033a	50		 push	 eax
  0033b	8b 08		 mov	 ecx, DWORD PTR [eax]
  0033d	ff 51 28	 call	 DWORD PTR [ecx+40]

; 603  : 		pEnumPins->Next(1, &pInPin, NULL);

  00340	8b 85 bc fe ff
	ff		 mov	 eax, DWORD PTR _pEnumPins$[ebp]
  00346	8d 95 b8 fe ff
	ff		 lea	 edx, DWORD PTR _pInPin$[ebp]
  0034c	6a 00		 push	 0
  0034e	52		 push	 edx
  0034f	6a 01		 push	 1
  00351	8b 08		 mov	 ecx, DWORD PTR [eax]
  00353	50		 push	 eax
  00354	ff 51 0c	 call	 DWORD PTR [ecx+12]

; 604  : 		pEnumPins->Next(1, &pOutPin, NULL);

  00357	8b 85 bc fe ff
	ff		 mov	 eax, DWORD PTR _pEnumPins$[ebp]
  0035d	8d 95 b0 fe ff
	ff		 lea	 edx, DWORD PTR _pOutPin$[ebp]
  00363	6a 00		 push	 0
  00365	52		 push	 edx
  00366	6a 01		 push	 1
  00368	8b 08		 mov	 ecx, DWORD PTR [eax]
  0036a	50		 push	 eax
  0036b	ff 51 0c	 call	 DWORD PTR [ecx+12]

; 605  : 		pEnumPins->Release();

  0036e	8b 85 bc fe ff
	ff		 mov	 eax, DWORD PTR _pEnumPins$[ebp]
  00374	50		 push	 eax
  00375	8b 08		 mov	 ecx, DWORD PTR [eax]
  00377	ff 51 08	 call	 DWORD PTR [ecx+8]

; 606  : 		hr = pGraphBuilder->Connect(pSplitterVideoOutPin, pInPin);

  0037a	8b 8d b4 fe ff
	ff		 mov	 ecx, DWORD PTR _pGraphBuilder$[ebp]
  00380	ff b5 b8 fe ff
	ff		 push	 DWORD PTR _pInPin$[ebp]
  00386	56		 push	 esi
  00387	8b 01		 mov	 eax, DWORD PTR [ecx]
  00389	51		 push	 ecx
  0038a	ff 50 2c	 call	 DWORD PTR [eax+44]
  0038d	8b f8		 mov	 edi, eax

; 607  : 		if (SUCCEEDED(hr))

  0038f	85 ff		 test	 edi, edi
  00391	0f 88 d0 00 00
	00		 js	 $LN24@BuildFilte

; 608  : 		{
; 609  : 			// 비디오 렌더
; 610  : 			hr = pGraphBuilder->Render(pOutPin);

  00397	8b 8d b4 fe ff
	ff		 mov	 ecx, DWORD PTR _pGraphBuilder$[ebp]
  0039d	ff b5 b0 fe ff
	ff		 push	 DWORD PTR _pOutPin$[ebp]
  003a3	51		 push	 ecx
  003a4	8b 01		 mov	 eax, DWORD PTR [ecx]
  003a6	ff 50 30	 call	 DWORD PTR [eax+48]
  003a9	8b f8		 mov	 edi, eax

; 611  : 			pInPin->Release();

  003ab	8b 85 b8 fe ff
	ff		 mov	 eax, DWORD PTR _pInPin$[ebp]
  003b1	50		 push	 eax
  003b2	8b 08		 mov	 ecx, DWORD PTR [eax]
  003b4	ff 51 08	 call	 DWORD PTR [ecx+8]

; 612  : 			pOutPin->Release();

  003b7	8b 85 b0 fe ff
	ff		 mov	 eax, DWORD PTR _pOutPin$[ebp]
  003bd	50		 push	 eax
  003be	8b 08		 mov	 ecx, DWORD PTR [eax]
  003c0	ff 51 08	 call	 DWORD PTR [ecx+8]

; 613  : 
; 614  : 			// 오디오는 파일에 따라 없을 수도 있다
; 615  : 			if (pSplitterAudioOutPin && pAudioFilter)

  003c3	83 bd a4 fe ff
	ff 00		 cmp	 DWORD PTR _pSplitterAudioOutPin$[ebp], 0
  003ca	0f 84 97 00 00
	00		 je	 $LN24@BuildFilte
  003d0	8b 8d a0 fe ff
	ff		 mov	 ecx, DWORD PTR _pAudioFilter$[ebp]
  003d6	85 c9		 test	 ecx, ecx
  003d8	0f 84 89 00 00
	00		 je	 $LN24@BuildFilte

; 616  : 			{
; 617  : 				pAudioFilter->EnumPins(&pEnumPins);

  003de	8b 01		 mov	 eax, DWORD PTR [ecx]
  003e0	8d 95 bc fe ff
	ff		 lea	 edx, DWORD PTR _pEnumPins$[ebp]
  003e6	52		 push	 edx
  003e7	51		 push	 ecx
  003e8	ff 50 28	 call	 DWORD PTR [eax+40]

; 618  : 				pEnumPins->Next(1, &pInPin, NULL);

  003eb	8b 85 bc fe ff
	ff		 mov	 eax, DWORD PTR _pEnumPins$[ebp]
  003f1	8d 95 b8 fe ff
	ff		 lea	 edx, DWORD PTR _pInPin$[ebp]
  003f7	6a 00		 push	 0
  003f9	52		 push	 edx
  003fa	6a 01		 push	 1
  003fc	8b 08		 mov	 ecx, DWORD PTR [eax]
  003fe	50		 push	 eax
  003ff	ff 51 0c	 call	 DWORD PTR [ecx+12]

; 619  : 				pEnumPins->Next(1, &pOutPin, NULL);

  00402	8b 85 bc fe ff
	ff		 mov	 eax, DWORD PTR _pEnumPins$[ebp]
  00408	8d 95 b0 fe ff
	ff		 lea	 edx, DWORD PTR _pOutPin$[ebp]
  0040e	6a 00		 push	 0
  00410	52		 push	 edx
  00411	6a 01		 push	 1
  00413	8b 08		 mov	 ecx, DWORD PTR [eax]
  00415	50		 push	 eax
  00416	ff 51 0c	 call	 DWORD PTR [ecx+12]

; 620  : 				pEnumPins->Release();

  00419	8b 85 bc fe ff
	ff		 mov	 eax, DWORD PTR _pEnumPins$[ebp]
  0041f	50		 push	 eax
  00420	8b 08		 mov	 ecx, DWORD PTR [eax]
  00422	ff 51 08	 call	 DWORD PTR [ecx+8]

; 621  : 				pGraphBuilder->Connect(pSplitterAudioOutPin, pInPin);

  00425	8b 85 b4 fe ff
	ff		 mov	 eax, DWORD PTR _pGraphBuilder$[ebp]
  0042b	ff b5 b8 fe ff
	ff		 push	 DWORD PTR _pInPin$[ebp]
  00431	ff b5 a4 fe ff
	ff		 push	 DWORD PTR _pSplitterAudioOutPin$[ebp]
  00437	8b 08		 mov	 ecx, DWORD PTR [eax]
  00439	50		 push	 eax
  0043a	ff 51 2c	 call	 DWORD PTR [ecx+44]

; 622  : 				// 오디오 렌더는 실패해도 넘어갈 수 있음
; 623  : 				pGraphBuilder->Render(pOutPin);

  0043d	8b 85 b4 fe ff
	ff		 mov	 eax, DWORD PTR _pGraphBuilder$[ebp]
  00443	ff b5 b0 fe ff
	ff		 push	 DWORD PTR _pOutPin$[ebp]
  00449	50		 push	 eax
  0044a	8b 08		 mov	 ecx, DWORD PTR [eax]
  0044c	ff 51 30	 call	 DWORD PTR [ecx+48]

; 624  : 				pInPin->Release();

  0044f	8b 85 b8 fe ff
	ff		 mov	 eax, DWORD PTR _pInPin$[ebp]
  00455	50		 push	 eax
  00456	8b 08		 mov	 ecx, DWORD PTR [eax]
  00458	ff 51 08	 call	 DWORD PTR [ecx+8]

; 625  : 				pOutPin->Release();

  0045b	8b 85 b0 fe ff
	ff		 mov	 eax, DWORD PTR _pOutPin$[ebp]
  00461	50		 push	 eax
  00462	8b 08		 mov	 ecx, DWORD PTR [eax]
  00464	ff 51 08	 call	 DWORD PTR [ecx+8]
$LN24@BuildFilte:

; 626  : 			}
; 627  : 		}
; 628  : 	}
; 629  : 
; 630  : 	// 해제
; 631  : //#ifdef _DEBUG
; 632  : //	RemoveFromRot(dwRegister);
; 633  : //#endif
; 634  : 
; 635  : 	if (pSplitterVideoOutPin)

  00467	85 f6		 test	 esi, esi
  00469	74 06		 je	 SHORT $LN25@BuildFilte

; 636  : 	{
; 637  : 		pSplitterVideoOutPin->Release();

  0046b	8b 06		 mov	 eax, DWORD PTR [esi]
  0046d	56		 push	 esi
  0046e	ff 50 08	 call	 DWORD PTR [eax+8]
$LN25@BuildFilte:

; 638  : 	}
; 639  : 	if (pSplitterAudioOutPin)

  00471	8b 8d a4 fe ff
	ff		 mov	 ecx, DWORD PTR _pSplitterAudioOutPin$[ebp]
  00477	85 c9		 test	 ecx, ecx
  00479	74 06		 je	 SHORT $LN12@BuildFilte

; 640  : 	{
; 641  : 		pSplitterAudioOutPin->Release();

  0047b	8b 01		 mov	 eax, DWORD PTR [ecx]
  0047d	51		 push	 ecx
  0047e	ff 50 08	 call	 DWORD PTR [eax+8]
$LN12@BuildFilte:

; 642  : 	}
; 643  : 	pVideoFilter->Release();

  00481	8b 85 ac fe ff
	ff		 mov	 eax, DWORD PTR _pVideoFilter$[ebp]
  00487	50		 push	 eax
  00488	8b 08		 mov	 ecx, DWORD PTR [eax]
  0048a	ff 51 08	 call	 DWORD PTR [ecx+8]

; 644  : 	if (pAudioFilter)

  0048d	8b 8d a0 fe ff
	ff		 mov	 ecx, DWORD PTR _pAudioFilter$[ebp]
  00493	85 c9		 test	 ecx, ecx
  00495	74 06		 je	 SHORT $LN13@BuildFilte

; 645  : 	{
; 646  : 		pAudioFilter->Release();

  00497	8b 01		 mov	 eax, DWORD PTR [ecx]
  00499	51		 push	 ecx
  0049a	ff 50 08	 call	 DWORD PTR [eax+8]
$LN13@BuildFilte:

; 647  : 	}
; 648  : 	pSplitterFilter->Release();

  0049d	8b 85 a8 fe ff
	ff		 mov	 eax, DWORD PTR _pSplitterFilter$[ebp]
  004a3	50		 push	 eax
  004a4	8b 08		 mov	 ecx, DWORD PTR [eax]
  004a6	ff 51 08	 call	 DWORD PTR [ecx+8]

; 649  : 	pSourceFilter->Release();

  004a9	8b 85 9c fe ff
	ff		 mov	 eax, DWORD PTR _pSourceFilter$[ebp]
  004af	50		 push	 eax
  004b0	8b 08		 mov	 ecx, DWORD PTR [eax]
  004b2	ff 51 08	 call	 DWORD PTR [ecx+8]

; 650  : 	pGraphBuilder->Release();

  004b5	8b 85 b4 fe ff
	ff		 mov	 eax, DWORD PTR _pGraphBuilder$[ebp]
  004bb	50		 push	 eax
  004bc	8b 08		 mov	 ecx, DWORD PTR [eax]
  004be	ff 51 08	 call	 DWORD PTR [ecx+8]

; 651  : 	
; 652  : 	return hr;
; 653  : }

  004c1	8b 4d fc	 mov	 ecx, DWORD PTR __$ArrayPad$[ebp]
  004c4	8b c7		 mov	 eax, edi
  004c6	5f		 pop	 edi
  004c7	5e		 pop	 esi
  004c8	33 cd		 xor	 ecx, ebp
  004ca	5b		 pop	 ebx
  004cb	e8 00 00 00 00	 call	 @__security_check_cookie@4
  004d0	8b e5		 mov	 esp, ebp
  004d2	5d		 pop	 ebp
  004d3	c2 38 00	 ret	 56			; 00000038H
?BuildFilterGraphManually@CMovieMan@@AAEJPA_WPAUIAMMultiMediaStream@@U_GUID@@22@Z ENDP ; CMovieMan::BuildFilterGraphManually
_TEXT	ENDS
; Function compile flags: /Ogtp
; File C:\Program Files\Microsoft Visual Studio\2022\Community\VC\Tools\MSVC\14.44.35207\include\algorithm
;	COMDAT ??$transform@V?$_String_iterator@V?$_String_val@U?$_Simple_types@D@std@@@std@@@std@@V12@P6AHH@Z@std@@YA?AV?$_String_iterator@V?$_String_val@U?$_Simple_types@D@std@@@std@@@0@V10@0V10@P6AHH@Z@Z
_TEXT	SEGMENT
___$ReturnUdt$1$ = -8					; size = 4
__First$ = 8						; size = 4
__Last$ = 12						; size = 4
__Dest$ = 16						; size = 4
??$transform@V?$_String_iterator@V?$_String_val@U?$_Simple_types@D@std@@@std@@@std@@V12@P6AHH@Z@std@@YA?AV?$_String_iterator@V?$_String_val@U?$_Simple_types@D@std@@@std@@@0@V10@0V10@P6AHH@Z@Z PROC ; std::transform<std::_String_iterator<std::_String_val<std::_Simple_types<char> > >,std::_String_iterator<std::_String_val<std::_Simple_types<char> > >,int (__cdecl*)(int)>, COMDAT
; ___$ReturnUdt$ = ecx
; __Func$dead$ = edx

; 3792 : _CONSTEXPR20 _OutIt transform(const _InIt _First, const _InIt _Last, _OutIt _Dest, _Fn _Func) {

  00000	55		 push	 ebp
  00001	8b ec		 mov	 ebp, esp
  00003	83 ec 08	 sub	 esp, 8

; 3793 :     // transform [_First, _Last) with _Func
; 3794 :     _STD _Adl_verify_range(_First, _Last);
; 3795 :     auto _UFirst      = _STD _Get_unwrapped(_First);
; 3796 :     const auto _ULast = _STD _Get_unwrapped(_Last);

  00006	8b 45 0c	 mov	 eax, DWORD PTR __Last$[ebp]
  00009	53		 push	 ebx
  0000a	56		 push	 esi
  0000b	8b 75 08	 mov	 esi, DWORD PTR __First$[ebp]
  0000e	8b d9		 mov	 ebx, ecx
  00010	89 5d f8	 mov	 DWORD PTR ___$ReturnUdt$1$[ebp], ebx
  00013	57		 push	 edi

; 3797 :     auto _UDest       = _STD _Get_unwrapped_n(_Dest, _STD _Idl_distance<_InIt>(_UFirst, _ULast));

  00014	8b 7d 10	 mov	 edi, DWORD PTR __Dest$[ebp]

; 3798 :     for (; _UFirst != _ULast; ++_UFirst, (void) ++_UDest) {

  00017	3b f0		 cmp	 esi, eax
  00019	74 1c		 je	 SHORT $LN12@transform
  0001b	8b d8		 mov	 ebx, eax
  0001d	0f 1f 00	 npad	 3
$LL4@transform:

; 3799 :         *_UDest = _Func(*_UFirst);

  00020	0f be 06	 movsx	 eax, BYTE PTR [esi]
  00023	50		 push	 eax
  00024	e8 00 00 00 00	 call	 _tolower
  00029	88 07		 mov	 BYTE PTR [edi], al
  0002b	46		 inc	 esi
  0002c	83 c4 04	 add	 esp, 4
  0002f	47		 inc	 edi
  00030	3b f3		 cmp	 esi, ebx
  00032	75 ec		 jne	 SHORT $LL4@transform

; 3800 :     }
; 3801 : 
; 3802 :     _STD _Seek_wrapped(_Dest, _UDest);
; 3803 :     return _Dest;

  00034	8b 5d f8	 mov	 ebx, DWORD PTR ___$ReturnUdt$1$[ebp]
$LN12@transform:

; 3804 : }

  00037	89 3b		 mov	 DWORD PTR [ebx], edi
  00039	8b c3		 mov	 eax, ebx
  0003b	5f		 pop	 edi
  0003c	5e		 pop	 esi
  0003d	5b		 pop	 ebx
  0003e	8b e5		 mov	 esp, ebp
  00040	5d		 pop	 ebp
  00041	c3		 ret	 0
??$transform@V?$_String_iterator@V?$_String_val@U?$_Simple_types@D@std@@@std@@@std@@V12@P6AHH@Z@std@@YA?AV?$_String_iterator@V?$_String_val@U?$_Simple_types@D@std@@@std@@@0@V10@0V10@P6AHH@Z@Z ENDP ; std::transform<std::_String_iterator<std::_String_val<std::_Simple_types<char> > >,std::_String_iterator<std::_String_val<std::_Simple_types<char> > >,int (__cdecl*)(int)>
_TEXT	ENDS
; Function compile flags: /Ogtp
; File C:\Program Files\Microsoft Visual Studio\2022\Community\VC\Tools\MSVC\14.44.35207\include\xutility
;	COMDAT ??$_Get_unwrapped@ABV?$_String_iterator@V?$_String_val@U?$_Simple_types@D@std@@@std@@@std@@@std@@YA?A_TABV?$_String_iterator@V?$_String_val@U?$_Simple_types@D@std@@@std@@@0@@Z
_TEXT	SEGMENT
??$_Get_unwrapped@ABV?$_String_iterator@V?$_String_val@U?$_Simple_types@D@std@@@std@@@std@@@std@@YA?A_TABV?$_String_iterator@V?$_String_val@U?$_Simple_types@D@std@@@std@@@0@@Z PROC ; std::_Get_unwrapped<std::_String_iterator<std::_String_val<std::_Simple_types<char> > > const &>, COMDAT
; __It$ = ecx

; 1380 :     // unwrap an iterator previously subjected to _Adl_verify_range or otherwise validated
; 1381 :     if constexpr (is_pointer_v<decay_t<_Iter>>) { // special-case pointers and arrays
; 1382 :         return _It + 0;
; 1383 :     } else if constexpr (_Unwrappable_v<_Iter>) {
; 1384 :         return static_cast<_Iter&&>(_It)._Unwrapped();

  00000	8b 01		 mov	 eax, DWORD PTR [ecx]

; 1385 :     } else {
; 1386 :         return static_cast<_Iter&&>(_It);
; 1387 :     }
; 1388 : }

  00002	c3		 ret	 0
??$_Get_unwrapped@ABV?$_String_iterator@V?$_String_val@U?$_Simple_types@D@std@@@std@@@std@@@std@@YA?A_TABV?$_String_iterator@V?$_String_val@U?$_Simple_types@D@std@@@std@@@0@@Z ENDP ; std::_Get_unwrapped<std::_String_iterator<std::_String_val<std::_Simple_types<char> > > const &>
_TEXT	ENDS
; Function compile flags: /Ogtp
; File C:\Program Files\Microsoft Visual Studio\2022\Community\VC\Tools\MSVC\14.44.35207\include\xstring
;	COMDAT ?_Unwrapped@?$_String_iterator@V?$_String_val@U?$_Simple_types@D@std@@@std@@@std@@QBEPADXZ
_TEXT	SEGMENT
?_Unwrapped@?$_String_iterator@V?$_String_val@U?$_Simple_types@D@std@@@std@@@std@@QBEPADXZ PROC ; std::_String_iterator<std::_String_val<std::_Simple_types<char> > >::_Unwrapped, COMDAT
; _this$ = ecx

; 347  :         return const_cast<value_type*>(_STD _Unfancy_maybe_null(this->_Ptr));

  00000	8b 01		 mov	 eax, DWORD PTR [ecx]

; 348  :     }

  00002	c3		 ret	 0
?_Unwrapped@?$_String_iterator@V?$_String_val@U?$_Simple_types@D@std@@@std@@@std@@QBEPADXZ ENDP ; std::_String_iterator<std::_String_val<std::_Simple_types<char> > >::_Unwrapped
_TEXT	ENDS
; Function compile flags: /Ogtp
; File C:\Program Files\Microsoft Visual Studio\2022\Community\VC\Tools\MSVC\14.44.35207\include\xutility
;	COMDAT ??$_Idl_distance@V?$_String_iterator@V?$_String_val@U?$_Simple_types@D@std@@@std@@@std@@PAD@std@@YA?A_PABQAD0@Z
_TEXT	SEGMENT
??$_Idl_distance@V?$_String_iterator@V?$_String_val@U?$_Simple_types@D@std@@@std@@@std@@PAD@std@@YA?A_PABQAD0@Z PROC ; std::_Idl_distance<std::_String_iterator<std::_String_val<std::_Simple_types<char> > >,char *>, COMDAT
; __First$ = ecx
; __Last$ = edx

; 1551 :     // Returns the distance between _First and _Last or
; 1552 :     // an indicator that the distance cannot be determined in O(1).
; 1553 :     _STL_INTERNAL_STATIC_ASSERT(is_same_v<_Unwrapped_t<_Checked>, _Iter>);
; 1554 :     if constexpr (_Is_ranges_random_iter_v<_Iter>) {
; 1555 :         return static_cast<_Iter_diff_t<_Checked>>(_Last - _First);

  00000	8b 02		 mov	 eax, DWORD PTR [edx]
  00002	2b 01		 sub	 eax, DWORD PTR [ecx]

; 1556 :     } else {
; 1557 :         return _Distance_unknown{};
; 1558 :     }
; 1559 : }

  00004	c3		 ret	 0
??$_Idl_distance@V?$_String_iterator@V?$_String_val@U?$_Simple_types@D@std@@@std@@@std@@PAD@std@@YA?A_PABQAD0@Z ENDP ; std::_Idl_distance<std::_String_iterator<std::_String_val<std::_Simple_types<char> > >,char *>
_TEXT	ENDS
; Function compile flags: /Ogtp
; File C:\Program Files\Microsoft Visual Studio\2022\Community\VC\Tools\MSVC\14.44.35207\include\xutility
;	COMDAT ??$_Get_unwrapped_n@AAV?$_String_iterator@V?$_String_val@U?$_Simple_types@D@std@@@std@@@std@@H@std@@YA?A_TAAV?$_String_iterator@V?$_String_val@U?$_Simple_types@D@std@@@std@@@0@H@Z
_TEXT	SEGMENT
??$_Get_unwrapped_n@AAV?$_String_iterator@V?$_String_val@U?$_Simple_types@D@std@@@std@@@std@@H@std@@YA?A_TAAV?$_String_iterator@V?$_String_val@U?$_Simple_types@D@std@@@std@@@0@H@Z PROC ; std::_Get_unwrapped_n<std::_String_iterator<std::_String_val<std::_Simple_types<char> > > &,int>, COMDAT
; __It$ = ecx
; __Off$dead$ = edx

; 1444 :     if constexpr (is_pointer_v<decay_t<_Iter>>) {
; 1445 :         return _It + 0;
; 1446 :     } else if constexpr (_Unwrappable_for_offset_v<_Iter> && _Integer_like<_Diff>) {
; 1447 :         // ask an iterator to assert that the iterator moved _Off positions is valid, and unwrap
; 1448 :         using _IDiff     = _Iter_diff_t<_Remove_cvref_t<_Iter>>;
; 1449 :         using _CDiff     = common_type_t<_Diff, _IDiff>;
; 1450 :         const auto _COff = static_cast<_CDiff>(_Off);
; 1451 : 
; 1452 :         _STL_ASSERT(_COff <= static_cast<_CDiff>(_Max_possible_v<_IDiff>)
; 1453 :                         && (is_unsigned_v<_Diff> || static_cast<_CDiff>(_Min_possible_v<_IDiff>) <= _COff),
; 1454 :             "integer overflow");
; 1455 :         (void) _COff;
; 1456 : 
; 1457 :         _It._Verify_offset(static_cast<_IDiff>(_Off));
; 1458 :         return static_cast<_Iter&&>(_It)._Unwrapped();

  00000	8b 01		 mov	 eax, DWORD PTR [ecx]

; 1459 :     } else if constexpr (_Unwrappable_for_unverified_v<_Iter>) {
; 1460 :         // iterator doesn't support offset-based asserts, or offset unknown; defer to unverified unwrap
; 1461 :         return static_cast<_Iter&&>(_It)._Unwrapped();
; 1462 :     } else {
; 1463 :         // pass through iterator that doesn't participate in checking
; 1464 :         return static_cast<_Iter&&>(_It);
; 1465 :     }
; 1466 : }

  00002	c3		 ret	 0
??$_Get_unwrapped_n@AAV?$_String_iterator@V?$_String_val@U?$_Simple_types@D@std@@@std@@@std@@H@std@@YA?A_TAAV?$_String_iterator@V?$_String_val@U?$_Simple_types@D@std@@@std@@@0@H@Z ENDP ; std::_Get_unwrapped_n<std::_String_iterator<std::_String_val<std::_Simple_types<char> > > &,int>
_TEXT	ENDS
; Function compile flags: /Ogtp
; File C:\Program Files\Microsoft Visual Studio\2022\Community\VC\Tools\MSVC\14.44.35207\include\xstring
; File C:\Program Files\Microsoft Visual Studio\2022\Community\VC\Tools\MSVC\14.44.35207\include\__msvc_string_view.hpp
; File C:\Program Files\Microsoft Visual Studio\2022\Community\VC\Tools\MSVC\14.44.35207\include\xstring
; File C:\Program Files\Microsoft Visual Studio\2022\Community\VC\Tools\MSVC\14.44.35207\include\__msvc_string_view.hpp
; File C:\Program Files\Microsoft Visual Studio\2022\Community\VC\Tools\MSVC\14.44.35207\include\xstring
; File C:\Program Files\Microsoft Visual Studio\2022\Community\VC\Tools\MSVC\14.44.35207\include\__msvc_string_view.hpp
; File C:\Program Files\Microsoft Visual Studio\2022\Community\VC\Tools\MSVC\14.44.35207\include\xstring
; File C:\Program Files\Microsoft Visual Studio\2022\Community\VC\Tools\MSVC\14.44.35207\include\__msvc_string_view.hpp
; File C:\Program Files\Microsoft Visual Studio\2022\Community\VC\Tools\MSVC\14.44.35207\include\xstring
; File C:\Program Files\Microsoft Visual Studio\2022\Community\VC\Tools\MSVC\14.44.35207\include\__msvc_string_view.hpp
; File C:\Program Files\Microsoft Visual Studio\2022\Community\VC\Tools\MSVC\14.44.35207\include\xstring
; File C:\Program Files\Microsoft Visual Studio\2022\Community\VC\Tools\MSVC\14.44.35207\include\__msvc_string_view.hpp
; File C:\Program Files\Microsoft Visual Studio\2022\Community\VC\Tools\MSVC\14.44.35207\include\xstring
;	COMDAT ??$?8DU?$char_traits@D@std@@V?$allocator@D@1@@std@@YA_NABV?$basic_string@DU?$char_traits@D@std@@V?$allocator@D@2@@0@QBD@Z
_TEXT	SEGMENT
__Left$ = 8						; size = 4
__Right$ = 12						; size = 4
??$?8DU?$char_traits@D@std@@V?$allocator@D@1@@std@@YA_NABV?$basic_string@DU?$char_traits@D@std@@V?$allocator@D@2@@0@QBD@Z PROC ; std::operator==<char,std::char_traits<char>,std::allocator<char> >, COMDAT

; 3264 :     const basic_string<_Elem, _Traits, _Alloc>& _Left, _In_z_ const _Elem* const _Right) noexcept /* strengthened */ {

  00000	55		 push	 ebp
  00001	8b ec		 mov	 ebp, esp
  00003	56		 push	 esi
; File C:\Program Files\Microsoft Visual Studio\2022\Community\VC\Tools\MSVC\14.44.35207\include\__msvc_string_view.hpp

; 456  :             return __builtin_strlen(_First);

  00004	8b 75 0c	 mov	 esi, DWORD PTR __Right$[ebp]
; File C:\Program Files\Microsoft Visual Studio\2022\Community\VC\Tools\MSVC\14.44.35207\include\xstring

; 3264 :     const basic_string<_Elem, _Traits, _Alloc>& _Left, _In_z_ const _Elem* const _Right) noexcept /* strengthened */ {

  00007	57		 push	 edi
; File C:\Program Files\Microsoft Visual Studio\2022\Community\VC\Tools\MSVC\14.44.35207\include\__msvc_string_view.hpp

; 456  :             return __builtin_strlen(_First);

  00008	8b fe		 mov	 edi, esi
  0000a	8d 4f 01	 lea	 ecx, DWORD PTR [edi+1]
  0000d	0f 1f 00	 npad	 3
$LL25@operator:
  00010	8a 07		 mov	 al, BYTE PTR [edi]
  00012	47		 inc	 edi
  00013	84 c0		 test	 al, al
  00015	75 f9		 jne	 SHORT $LL25@operator
  00017	2b f9		 sub	 edi, ecx
; File C:\Program Files\Microsoft Visual Studio\2022\Community\VC\Tools\MSVC\14.44.35207\include\xstring

; 2854 :         return _Traits_equal<_Traits>(_Mypair._Myval2._Myptr(), _Mypair._Myval2._Mysize, _Ptr, _Traits::length(_Ptr));

  00019	8b 4d 08	 mov	 ecx, DWORD PTR __Left$[ebp]

; 453  :         return _Myres > _Small_string_capacity;

  0001c	83 79 14 0f	 cmp	 DWORD PTR [ecx+20], 15	; 0000000fH

; 2854 :         return _Traits_equal<_Traits>(_Mypair._Myval2._Myptr(), _Mypair._Myval2._Mysize, _Ptr, _Traits::length(_Ptr));

  00020	8b 51 10	 mov	 edx, DWORD PTR [ecx+16]

; 445  :         if (_Large_mode_engaged()) {

  00023	76 02		 jbe	 SHORT $LN11@operator

; 446  :             _Result = _Unfancy(_Bx._Ptr);

  00025	8b 09		 mov	 ecx, DWORD PTR [ecx]
$LN11@operator:
; File C:\Program Files\Microsoft Visual Studio\2022\Community\VC\Tools\MSVC\14.44.35207\include\__msvc_string_view.hpp

; 604  :     if (_Left_size != _Right_size) {

  00027	3b d7		 cmp	 edx, edi
  00029	74 06		 je	 SHORT $LN18@operator
  0002b	5f		 pop	 edi

; 605  :         return false;

  0002c	32 c0		 xor	 al, al
; File C:\Program Files\Microsoft Visual Studio\2022\Community\VC\Tools\MSVC\14.44.35207\include\xstring

; 3266 : }

  0002e	5e		 pop	 esi
  0002f	5d		 pop	 ebp
  00030	c3		 ret	 0
$LN18@operator:
; File C:\Program Files\Microsoft Visual Studio\2022\Community\VC\Tools\MSVC\14.44.35207\include\__msvc_string_view.hpp

; 608  :     if (_Left_size == 0u) {

  00031	85 d2		 test	 edx, edx
  00033	75 06		 jne	 SHORT $LN19@operator
  00035	5f		 pop	 edi

; 609  :         return true;

  00036	b0 01		 mov	 al, 1
; File C:\Program Files\Microsoft Visual Studio\2022\Community\VC\Tools\MSVC\14.44.35207\include\xstring

; 3266 : }

  00038	5e		 pop	 esi
  00039	5d		 pop	 ebp
  0003a	c3		 ret	 0
$LN19@operator:
; File C:\Program Files\Microsoft Visual Studio\2022\Community\VC\Tools\MSVC\14.44.35207\include\__msvc_string_view.hpp

; 437  :         return __builtin_memcmp(_First1, _First2, _Count);

  0003b	83 ea 04	 sub	 edx, 4
  0003e	72 11		 jb	 SHORT $LN28@operator
$LL29@operator:
  00040	8b 01		 mov	 eax, DWORD PTR [ecx]
  00042	3b 06		 cmp	 eax, DWORD PTR [esi]
  00044	75 10		 jne	 SHORT $LN27@operator
  00046	83 c1 04	 add	 ecx, 4
  00049	83 c6 04	 add	 esi, 4
  0004c	83 ea 04	 sub	 edx, 4
  0004f	73 ef		 jae	 SHORT $LL29@operator
$LN28@operator:
  00051	83 fa fc	 cmp	 edx, -4			; fffffffcH
  00054	74 3b		 je	 SHORT $LN26@operator
$LN27@operator:
  00056	8a 01		 mov	 al, BYTE PTR [ecx]
  00058	3a 06		 cmp	 al, BYTE PTR [esi]
  0005a	75 27		 jne	 SHORT $LN30@operator
  0005c	83 fa fd	 cmp	 edx, -3			; fffffffdH
  0005f	74 30		 je	 SHORT $LN26@operator
  00061	8a 41 01	 mov	 al, BYTE PTR [ecx+1]
  00064	3a 46 01	 cmp	 al, BYTE PTR [esi+1]
  00067	75 1a		 jne	 SHORT $LN30@operator
  00069	83 fa fe	 cmp	 edx, -2			; fffffffeH
  0006c	74 23		 je	 SHORT $LN26@operator
  0006e	8a 41 02	 mov	 al, BYTE PTR [ecx+2]
  00071	3a 46 02	 cmp	 al, BYTE PTR [esi+2]
  00074	75 0d		 jne	 SHORT $LN30@operator
  00076	83 fa ff	 cmp	 edx, -1
  00079	74 16		 je	 SHORT $LN26@operator
  0007b	8a 41 03	 mov	 al, BYTE PTR [ecx+3]
  0007e	3a 46 03	 cmp	 al, BYTE PTR [esi+3]
  00081	74 0e		 je	 SHORT $LN26@operator
$LN30@operator:
  00083	1b c0		 sbb	 eax, eax
  00085	83 c8 01	 or	 eax, 1

; 612  :     return _Traits::compare(_Left, _Right, _Left_size) == 0;

  00088	85 c0		 test	 eax, eax
  0008a	5f		 pop	 edi
  0008b	0f 94 c0	 sete	 al
; File C:\Program Files\Microsoft Visual Studio\2022\Community\VC\Tools\MSVC\14.44.35207\include\xstring

; 3266 : }

  0008e	5e		 pop	 esi
  0008f	5d		 pop	 ebp
  00090	c3		 ret	 0
$LN26@operator:
; File C:\Program Files\Microsoft Visual Studio\2022\Community\VC\Tools\MSVC\14.44.35207\include\__msvc_string_view.hpp

; 437  :         return __builtin_memcmp(_First1, _First2, _Count);

  00091	33 c0		 xor	 eax, eax

; 612  :     return _Traits::compare(_Left, _Right, _Left_size) == 0;

  00093	85 c0		 test	 eax, eax
  00095	5f		 pop	 edi
  00096	0f 94 c0	 sete	 al
; File C:\Program Files\Microsoft Visual Studio\2022\Community\VC\Tools\MSVC\14.44.35207\include\xstring

; 3266 : }

  00099	5e		 pop	 esi
  0009a	5d		 pop	 ebp
  0009b	c3		 ret	 0
??$?8DU?$char_traits@D@std@@V?$allocator@D@1@@std@@YA_NABV?$basic_string@DU?$char_traits@D@std@@V?$allocator@D@2@@0@QBD@Z ENDP ; std::operator==<char,std::char_traits<char>,std::allocator<char> >
_TEXT	ENDS
; Function compile flags: /Ogtp
; File C:\Program Files\Microsoft Visual Studio\2022\Community\VC\Tools\MSVC\14.44.35207\include\xstring
;	COMDAT ?end@?$basic_string@DU?$char_traits@D@std@@V?$allocator@D@2@@std@@QAE?AV?$_String_iterator@V?$_String_val@U?$_Simple_types@D@std@@@std@@@2@XZ
_TEXT	SEGMENT
___$ReturnUdt$ = 8					; size = 4
?end@?$basic_string@DU?$char_traits@D@std@@V?$allocator@D@2@@std@@QAE?AV?$_String_iterator@V?$_String_val@U?$_Simple_types@D@std@@@std@@@2@XZ PROC ; std::basic_string<char,std::char_traits<char>,std::allocator<char> >::end, COMDAT
; _this$ = ecx

; 2169 :     _NODISCARD _CONSTEXPR20 iterator end() noexcept {

  00000	55		 push	 ebp
  00001	8b ec		 mov	 ebp, esp

; 453  :         return _Myres > _Small_string_capacity;

  00003	83 79 14 0f	 cmp	 DWORD PTR [ecx+20], 15	; 0000000fH

; 435  :         value_type* _Result = _Bx._Buf;

  00007	8b c1		 mov	 eax, ecx

; 436  :         if (_Large_mode_engaged()) {

  00009	76 02		 jbe	 SHORT $LN5@end

; 437  :             _Result = _Unfancy(_Bx._Ptr);

  0000b	8b 01		 mov	 eax, DWORD PTR [ecx]
$LN5@end:

; 2170 :         return iterator(

  0000d	8b 49 10	 mov	 ecx, DWORD PTR [ecx+16]
  00010	03 c8		 add	 ecx, eax

; 41   :     _CONSTEXPR20 _String_const_iterator(pointer _Parg, const _Container_base* _Pstring) noexcept : _Ptr(_Parg) {

  00012	8b 45 08	 mov	 eax, DWORD PTR ___$ReturnUdt$[ebp]
  00015	89 08		 mov	 DWORD PTR [eax], ecx

; 2171 :             _Refancy<pointer>(_Mypair._Myval2._Myptr()) + static_cast<difference_type>(_Mypair._Myval2._Mysize),
; 2172 :             _STD addressof(_Mypair._Myval2));
; 2173 :     }

  00017	5d		 pop	 ebp
  00018	c2 04 00	 ret	 4
?end@?$basic_string@DU?$char_traits@D@std@@V?$allocator@D@2@@std@@QAE?AV?$_String_iterator@V?$_String_val@U?$_Simple_types@D@std@@@std@@@2@XZ ENDP ; std::basic_string<char,std::char_traits<char>,std::allocator<char> >::end
_TEXT	ENDS
; Function compile flags: /Ogtp
; File C:\Program Files\Microsoft Visual Studio\2022\Community\VC\Tools\MSVC\14.44.35207\include\xstring
;	COMDAT ??0?$_String_iterator@V?$_String_val@U?$_Simple_types@D@std@@@std@@@std@@QAE@PBDPBU_Container_base0@1@@Z
_TEXT	SEGMENT
___param0$ = 8						; size = 4
___param1$ = 12						; size = 4
??0?$_String_iterator@V?$_String_val@U?$_Simple_types@D@std@@@std@@@std@@QAE@PBDPBU_Container_base0@1@@Z PROC ; std::_String_iterator<std::_String_val<std::_Simple_types<char> > >::_String_iterator<std::_String_val<std::_Simple_types<char> > >, COMDAT
; _this$ = ecx
  00000	55		 push	 ebp
  00001	8b ec		 mov	 ebp, esp

; 41   :     _CONSTEXPR20 _String_const_iterator(pointer _Parg, const _Container_base* _Pstring) noexcept : _Ptr(_Parg) {

  00003	8b 45 08	 mov	 eax, DWORD PTR ___param0$[ebp]
  00006	89 01		 mov	 DWORD PTR [ecx], eax
  00008	8b c1		 mov	 eax, ecx
  0000a	5d		 pop	 ebp
  0000b	c2 08 00	 ret	 8
??0?$_String_iterator@V?$_String_val@U?$_Simple_types@D@std@@@std@@@std@@QAE@PBDPBU_Container_base0@1@@Z ENDP ; std::_String_iterator<std::_String_val<std::_Simple_types<char> > >::_String_iterator<std::_String_val<std::_Simple_types<char> > >
_TEXT	ENDS
; Function compile flags: /Ogtp
; File C:\Program Files\Microsoft Visual Studio\2022\Community\VC\Tools\MSVC\14.44.35207\include\xstring
;	COMDAT ?begin@?$basic_string@DU?$char_traits@D@std@@V?$allocator@D@2@@std@@QAE?AV?$_String_iterator@V?$_String_val@U?$_Simple_types@D@std@@@std@@@2@XZ
_TEXT	SEGMENT
___$ReturnUdt$ = 8					; size = 4
?begin@?$basic_string@DU?$char_traits@D@std@@V?$allocator@D@2@@std@@QAE?AV?$_String_iterator@V?$_String_val@U?$_Simple_types@D@std@@@std@@@2@XZ PROC ; std::basic_string<char,std::char_traits<char>,std::allocator<char> >::begin, COMDAT
; _this$ = ecx

; 2161 :     _NODISCARD _CONSTEXPR20 iterator begin() noexcept {

  00000	55		 push	 ebp
  00001	8b ec		 mov	 ebp, esp

; 453  :         return _Myres > _Small_string_capacity;

  00003	83 79 14 0f	 cmp	 DWORD PTR [ecx+20], 15	; 0000000fH

; 436  :         if (_Large_mode_engaged()) {

  00007	8b 45 08	 mov	 eax, DWORD PTR ___$ReturnUdt$[ebp]
  0000a	76 02		 jbe	 SHORT $LN17@begin

; 437  :             _Result = _Unfancy(_Bx._Ptr);

  0000c	8b 09		 mov	 ecx, DWORD PTR [ecx]
$LN17@begin:

; 2162 :         return iterator(_Refancy<pointer>(_Mypair._Myval2._Myptr()), _STD addressof(_Mypair._Myval2));
; 2163 :     }

  0000e	89 08		 mov	 DWORD PTR [eax], ecx
  00010	5d		 pop	 ebp
  00011	c2 04 00	 ret	 4
?begin@?$basic_string@DU?$char_traits@D@std@@V?$allocator@D@2@@std@@QAE?AV?$_String_iterator@V?$_String_val@U?$_Simple_types@D@std@@@std@@@2@XZ ENDP ; std::basic_string<char,std::char_traits<char>,std::allocator<char> >::begin
_TEXT	ENDS
; Function compile flags: /Ogtp
; File C:\Program Files\Microsoft Visual Studio\2022\Community\VC\Tools\MSVC\14.44.35207\include\xutility
;	COMDAT ??$_Adl_verify_range@V?$_String_iterator@V?$_String_val@U?$_Simple_types@D@std@@@std@@@std@@V12@@std@@YAXABV?$_String_iterator@V?$_String_val@U?$_Simple_types@D@std@@@std@@@0@0@Z
_TEXT	SEGMENT
??$_Adl_verify_range@V?$_String_iterator@V?$_String_val@U?$_Simple_types@D@std@@@std@@@std@@V12@@std@@YAXABV?$_String_iterator@V?$_String_val@U?$_Simple_types@D@std@@@std@@@0@0@Z PROC ; std::_Adl_verify_range<std::_String_iterator<std::_String_val<std::_Simple_types<char> > >,std::_String_iterator<std::_String_val<std::_Simple_types<char> > > >, COMDAT
; __First$dead$ = ecx
; __Last$dead$ = edx

; 1353 :     // check that [_First, _Last) forms an iterator range
; 1354 :     if constexpr (is_pointer_v<_Iter> && is_pointer_v<_Sentinel>) {
; 1355 : #if _ITERATOR_DEBUG_LEVEL != 0
; 1356 :         _STL_VERIFY(_First <= _Last, "transposed pointer range");
; 1357 : #endif // _ITERATOR_DEBUG_LEVEL != 0
; 1358 :     } else if constexpr (_Range_verifiable_v<_Iter, _Sentinel>) {
; 1359 :         _Verify_range(_First, _Last);
; 1360 :     }
; 1361 : }

  00000	c2 00 00	 ret	 0
??$_Adl_verify_range@V?$_String_iterator@V?$_String_val@U?$_Simple_types@D@std@@@std@@@std@@V12@@std@@YAXABV?$_String_iterator@V?$_String_val@U?$_Simple_types@D@std@@@std@@@0@0@Z ENDP ; std::_Adl_verify_range<std::_String_iterator<std::_String_val<std::_Simple_types<char> > >,std::_String_iterator<std::_String_val<std::_Simple_types<char> > > >
_TEXT	ENDS
; Function compile flags: /Ogtp
; File C:\Program Files\Microsoft Visual Studio\2022\Community\VC\Tools\MSVC\14.44.35207\include\xmemory
;	COMDAT ??$_Unfancy_maybe_null@$$CBD@std@@YAPBDPBD@Z
_TEXT	SEGMENT
??$_Unfancy_maybe_null@$$CBD@std@@YAPBDPBD@Z PROC	; std::_Unfancy_maybe_null<char const >, COMDAT
; __Ptr$ = ecx

; 80   :     return _Ptr;

  00000	8b c1		 mov	 eax, ecx

; 81   : }

  00002	c3		 ret	 0
??$_Unfancy_maybe_null@$$CBD@std@@YAPBDPBD@Z ENDP	; std::_Unfancy_maybe_null<char const >
_TEXT	ENDS
; Function compile flags: /Ogtp
; File C:\Program Files\Microsoft Visual Studio\2022\Community\VC\Tools\MSVC\14.44.35207\include\xutility
;	COMDAT ??$_Seek_wrapped@V?$_String_iterator@V?$_String_val@U?$_Simple_types@D@std@@@std@@@std@@AAPAD@std@@YAXAAV?$_String_iterator@V?$_String_val@U?$_Simple_types@D@std@@@std@@@0@AAPAD@Z
_TEXT	SEGMENT
??$_Seek_wrapped@V?$_String_iterator@V?$_String_val@U?$_Simple_types@D@std@@@std@@@std@@AAPAD@std@@YAXAAV?$_String_iterator@V?$_String_val@U?$_Simple_types@D@std@@@std@@@0@AAPAD@Z PROC ; std::_Seek_wrapped<std::_String_iterator<std::_String_val<std::_Simple_types<char> > >,char * &>, COMDAT
; __It$ = ecx
; __UIt$ = edx

; 1478 :     if constexpr (_Wrapped_seekable_v<_Iter, _UIter>) {
; 1479 :         _It._Seek_to(_STD forward<_UIter>(_UIt));

  00000	8b 02		 mov	 eax, DWORD PTR [edx]
  00002	89 01		 mov	 DWORD PTR [ecx], eax

; 1480 :     } else {
; 1481 :         _It = _STD forward<_UIter>(_UIt);
; 1482 :     }
; 1483 : }

  00004	c3		 ret	 0
??$_Seek_wrapped@V?$_String_iterator@V?$_String_val@U?$_Simple_types@D@std@@@std@@@std@@AAPAD@std@@YAXAAV?$_String_iterator@V?$_String_val@U?$_Simple_types@D@std@@@std@@@0@AAPAD@Z ENDP ; std::_Seek_wrapped<std::_String_iterator<std::_String_val<std::_Simple_types<char> > >,char * &>
_TEXT	ENDS
; Function compile flags: /Ogtp
; File C:\Program Files\Microsoft Visual Studio\2022\Community\VC\Tools\MSVC\14.44.35207\include\xmemory
;	COMDAT ??$_Refancy@PAD$0A@@std@@YAPADPAD@Z
_TEXT	SEGMENT
__Ptr$ = 8						; size = 4
??$_Refancy@PAD$0A@@std@@YAPADPAD@Z PROC		; std::_Refancy<char *,0>, COMDAT

; 302  : _CONSTEXPR20 _Pointer _Refancy(_Pointer _Ptr) noexcept {

  00000	55		 push	 ebp
  00001	8b ec		 mov	 ebp, esp

; 303  :     return _Ptr;

  00003	8b 45 08	 mov	 eax, DWORD PTR __Ptr$[ebp]

; 304  : }

  00006	5d		 pop	 ebp
  00007	c3		 ret	 0
??$_Refancy@PAD$0A@@std@@YAPADPAD@Z ENDP		; std::_Refancy<char *,0>
_TEXT	ENDS
; Function compile flags: /Ogtp
; File C:\Program Files\Microsoft Visual Studio\2022\Community\VC\Tools\MSVC\14.44.35207\include\xstring
;	COMDAT ?_Verify_offset@?$_String_const_iterator@V?$_String_val@U?$_Simple_types@D@std@@@std@@@std@@QBEXH@Z
_TEXT	SEGMENT
__Off$dead$ = 8						; size = 4
?_Verify_offset@?$_String_const_iterator@V?$_String_val@U?$_Simple_types@D@std@@@std@@@std@@QBEXH@Z PROC ; std::_String_const_iterator<std::_String_val<std::_Simple_types<char> > >::_Verify_offset, COMDAT
; _this$dead$ = ecx

; 104  : #if _ITERATOR_DEBUG_LEVEL >= 1
; 105  :         if (_Off == 0) {
; 106  :             return;
; 107  :         }
; 108  : 
; 109  :         _STL_VERIFY(_Ptr, "cannot seek value-initialized string iterator");
; 110  :         const auto _Mycont = static_cast<const _Mystr*>(this->_Getcont());
; 111  :         _STL_VERIFY(_Mycont, "cannot seek string iterator because the iterator was "
; 112  :                              "invalidated (e.g. reallocation occurred, or the string was destroyed)");
; 113  :         const auto _Contptr = _Mycont->_Myptr();
; 114  :         const auto _Rawptr  = _Unfancy(_Ptr);
; 115  : 
; 116  :         if (_Off < 0) {
; 117  :             _STL_VERIFY(_Contptr - _Rawptr <= _Off, "cannot seek string iterator before begin");
; 118  :         }
; 119  : 
; 120  :         if (_Off > 0) {
; 121  :             using _Size_type = typename _Mystr::size_type;
; 122  :             const auto _Left = _Mycont->_Mysize - static_cast<_Size_type>(_Rawptr - _Contptr);
; 123  :             _STL_VERIFY(static_cast<_Size_type>(_Off) <= _Left, "cannot seek string iterator after end");
; 124  :         }
; 125  : #else // ^^^ _ITERATOR_DEBUG_LEVEL >= 1 / _ITERATOR_DEBUG_LEVEL == 0 vvv
; 126  :         (void) _Off;
; 127  : #endif // ^^^ _ITERATOR_DEBUG_LEVEL == 0 ^^^
; 128  :     }

  00000	c2 04 00	 ret	 4
?_Verify_offset@?$_String_const_iterator@V?$_String_val@U?$_Simple_types@D@std@@@std@@@std@@QBEXH@Z ENDP ; std::_String_const_iterator<std::_String_val<std::_Simple_types<char> > >::_Verify_offset
_TEXT	ENDS
; Function compile flags: /Ogtp
; File C:\Program Files\Microsoft Visual Studio\2022\Community\VC\Tools\MSVC\14.44.35207\include\xstring
;	COMDAT ??0?$_String_const_iterator@V?$_String_val@U?$_Simple_types@D@std@@@std@@@std@@QAE@PBDPBU_Container_base0@1@@Z
_TEXT	SEGMENT
__Parg$ = 8						; size = 4
__Pstring$ = 12						; size = 4
??0?$_String_const_iterator@V?$_String_val@U?$_Simple_types@D@std@@@std@@@std@@QAE@PBDPBU_Container_base0@1@@Z PROC ; std::_String_const_iterator<std::_String_val<std::_Simple_types<char> > >::_String_const_iterator<std::_String_val<std::_Simple_types<char> > >, COMDAT
; _this$ = ecx

; 41   :     _CONSTEXPR20 _String_const_iterator(pointer _Parg, const _Container_base* _Pstring) noexcept : _Ptr(_Parg) {

  00000	55		 push	 ebp
  00001	8b ec		 mov	 ebp, esp
  00003	8b 45 08	 mov	 eax, DWORD PTR __Parg$[ebp]
  00006	89 01		 mov	 DWORD PTR [ecx], eax

; 42   :         this->_Adopt(_Pstring);
; 43   :     }

  00008	8b c1		 mov	 eax, ecx
  0000a	5d		 pop	 ebp
  0000b	c2 08 00	 ret	 8
??0?$_String_const_iterator@V?$_String_val@U?$_Simple_types@D@std@@@std@@@std@@QAE@PBDPBU_Container_base0@1@@Z ENDP ; std::_String_const_iterator<std::_String_val<std::_Simple_types<char> > >::_String_const_iterator<std::_String_val<std::_Simple_types<char> > >
_TEXT	ENDS
; Function compile flags: /Ogtp
; File C:\Program Files\Microsoft Visual Studio\2022\Community\VC\Tools\MSVC\14.44.35207\include\xstring
; File C:\Program Files\Microsoft Visual Studio\2022\Community\VC\Tools\MSVC\14.44.35207\include\__msvc_string_view.hpp
; File C:\Program Files\Microsoft Visual Studio\2022\Community\VC\Tools\MSVC\14.44.35207\include\xstring
; File C:\Program Files\Microsoft Visual Studio\2022\Community\VC\Tools\MSVC\14.44.35207\include\__msvc_string_view.hpp
; File C:\Program Files\Microsoft Visual Studio\2022\Community\VC\Tools\MSVC\14.44.35207\include\xstring
; File C:\Program Files\Microsoft Visual Studio\2022\Community\VC\Tools\MSVC\14.44.35207\include\__msvc_string_view.hpp
; File C:\Program Files\Microsoft Visual Studio\2022\Community\VC\Tools\MSVC\14.44.35207\include\xstring
; File C:\Program Files\Microsoft Visual Studio\2022\Community\VC\Tools\MSVC\14.44.35207\include\__msvc_string_view.hpp
; File C:\Program Files\Microsoft Visual Studio\2022\Community\VC\Tools\MSVC\14.44.35207\include\xstring
; File C:\Program Files\Microsoft Visual Studio\2022\Community\VC\Tools\MSVC\14.44.35207\include\__msvc_string_view.hpp
; File C:\Program Files\Microsoft Visual Studio\2022\Community\VC\Tools\MSVC\14.44.35207\include\xstring
; File C:\Program Files\Microsoft Visual Studio\2022\Community\VC\Tools\MSVC\14.44.35207\include\__msvc_string_view.hpp
; File C:\Program Files\Microsoft Visual Studio\2022\Community\VC\Tools\MSVC\14.44.35207\include\xstring
;	COMDAT ?_Equal@?$basic_string@DU?$char_traits@D@std@@V?$allocator@D@2@@std@@QBE_NQBD@Z
_TEXT	SEGMENT
__Ptr$ = 8						; size = 4
?_Equal@?$basic_string@DU?$char_traits@D@std@@V?$allocator@D@2@@std@@QBE_NQBD@Z PROC ; std::basic_string<char,std::char_traits<char>,std::allocator<char> >::_Equal, COMDAT
; _this$ = ecx

; 2852 :     _CONSTEXPR20 bool _Equal(_In_z_ const _Elem* const _Ptr) const noexcept {

  00000	55		 push	 ebp
  00001	8b ec		 mov	 ebp, esp
  00003	56		 push	 esi
; File C:\Program Files\Microsoft Visual Studio\2022\Community\VC\Tools\MSVC\14.44.35207\include\__msvc_string_view.hpp

; 456  :             return __builtin_strlen(_First);

  00004	8b 75 08	 mov	 esi, DWORD PTR __Ptr$[ebp]
; File C:\Program Files\Microsoft Visual Studio\2022\Community\VC\Tools\MSVC\14.44.35207\include\xstring

; 2852 :     _CONSTEXPR20 bool _Equal(_In_z_ const _Elem* const _Ptr) const noexcept {

  00007	57		 push	 edi
; File C:\Program Files\Microsoft Visual Studio\2022\Community\VC\Tools\MSVC\14.44.35207\include\__msvc_string_view.hpp

; 456  :             return __builtin_strlen(_First);

  00008	8b fe		 mov	 edi, esi
  0000a	8d 57 01	 lea	 edx, DWORD PTR [edi+1]
  0000d	0f 1f 00	 npad	 3
$LL22@Equal:
  00010	8a 07		 mov	 al, BYTE PTR [edi]
  00012	47		 inc	 edi
  00013	84 c0		 test	 al, al
  00015	75 f9		 jne	 SHORT $LL22@Equal
  00017	2b fa		 sub	 edi, edx
; File C:\Program Files\Microsoft Visual Studio\2022\Community\VC\Tools\MSVC\14.44.35207\include\xstring

; 453  :         return _Myres > _Small_string_capacity;

  00019	83 79 14 0f	 cmp	 DWORD PTR [ecx+20], 15	; 0000000fH

; 2853 :         // compare [0, size()) with _Ptr for equality
; 2854 :         return _Traits_equal<_Traits>(_Mypair._Myval2._Myptr(), _Mypair._Myval2._Mysize, _Ptr, _Traits::length(_Ptr));

  0001d	8b 51 10	 mov	 edx, DWORD PTR [ecx+16]

; 445  :         if (_Large_mode_engaged()) {

  00020	76 02		 jbe	 SHORT $LN8@Equal

; 446  :             _Result = _Unfancy(_Bx._Ptr);

  00022	8b 09		 mov	 ecx, DWORD PTR [ecx]
$LN8@Equal:
; File C:\Program Files\Microsoft Visual Studio\2022\Community\VC\Tools\MSVC\14.44.35207\include\__msvc_string_view.hpp

; 604  :     if (_Left_size != _Right_size) {

  00024	3b d7		 cmp	 edx, edi
  00026	74 08		 je	 SHORT $LN15@Equal
  00028	5f		 pop	 edi

; 605  :         return false;

  00029	32 c0		 xor	 al, al
; File C:\Program Files\Microsoft Visual Studio\2022\Community\VC\Tools\MSVC\14.44.35207\include\xstring

; 2855 :     }

  0002b	5e		 pop	 esi
  0002c	5d		 pop	 ebp
  0002d	c2 04 00	 ret	 4
$LN15@Equal:
; File C:\Program Files\Microsoft Visual Studio\2022\Community\VC\Tools\MSVC\14.44.35207\include\__msvc_string_view.hpp

; 608  :     if (_Left_size == 0u) {

  00030	85 d2		 test	 edx, edx
  00032	75 08		 jne	 SHORT $LN16@Equal
  00034	5f		 pop	 edi

; 609  :         return true;

  00035	b0 01		 mov	 al, 1
; File C:\Program Files\Microsoft Visual Studio\2022\Community\VC\Tools\MSVC\14.44.35207\include\xstring

; 2855 :     }

  00037	5e		 pop	 esi
  00038	5d		 pop	 ebp
  00039	c2 04 00	 ret	 4
$LN16@Equal:
; File C:\Program Files\Microsoft Visual Studio\2022\Community\VC\Tools\MSVC\14.44.35207\include\__msvc_string_view.hpp

; 437  :         return __builtin_memcmp(_First1, _First2, _Count);

  0003c	83 ea 04	 sub	 edx, 4
  0003f	72 11		 jb	 SHORT $LN25@Equal
$LL26@Equal:
  00041	8b 01		 mov	 eax, DWORD PTR [ecx]
  00043	3b 06		 cmp	 eax, DWORD PTR [esi]
  00045	75 10		 jne	 SHORT $LN24@Equal
  00047	83 c1 04	 add	 ecx, 4
  0004a	83 c6 04	 add	 esi, 4
  0004d	83 ea 04	 sub	 edx, 4
  00050	73 ef		 jae	 SHORT $LL26@Equal
$LN25@Equal:
  00052	83 fa fc	 cmp	 edx, -4			; fffffffcH
  00055	74 3d		 je	 SHORT $LN23@Equal
$LN24@Equal:
  00057	8a 01		 mov	 al, BYTE PTR [ecx]
  00059	3a 06		 cmp	 al, BYTE PTR [esi]
  0005b	75 27		 jne	 SHORT $LN27@Equal
  0005d	83 fa fd	 cmp	 edx, -3			; fffffffdH
  00060	74 32		 je	 SHORT $LN23@Equal
  00062	8a 41 01	 mov	 al, BYTE PTR [ecx+1]
  00065	3a 46 01	 cmp	 al, BYTE PTR [esi+1]
  00068	75 1a		 jne	 SHORT $LN27@Equal
  0006a	83 fa fe	 cmp	 edx, -2			; fffffffeH
  0006d	74 25		 je	 SHORT $LN23@Equal
  0006f	8a 41 02	 mov	 al, BYTE PTR [ecx+2]
  00072	3a 46 02	 cmp	 al, BYTE PTR [esi+2]
  00075	75 0d		 jne	 SHORT $LN27@Equal
  00077	83 fa ff	 cmp	 edx, -1
  0007a	74 18		 je	 SHORT $LN23@Equal
  0007c	8a 41 03	 mov	 al, BYTE PTR [ecx+3]
  0007f	3a 46 03	 cmp	 al, BYTE PTR [esi+3]
  00082	74 10		 je	 SHORT $LN23@Equal
$LN27@Equal:
  00084	1b c0		 sbb	 eax, eax
  00086	83 c8 01	 or	 eax, 1

; 612  :     return _Traits::compare(_Left, _Right, _Left_size) == 0;

  00089	85 c0		 test	 eax, eax
  0008b	5f		 pop	 edi
  0008c	0f 94 c0	 sete	 al
; File C:\Program Files\Microsoft Visual Studio\2022\Community\VC\Tools\MSVC\14.44.35207\include\xstring

; 2855 :     }

  0008f	5e		 pop	 esi
  00090	5d		 pop	 ebp
  00091	c2 04 00	 ret	 4
$LN23@Equal:
; File C:\Program Files\Microsoft Visual Studio\2022\Community\VC\Tools\MSVC\14.44.35207\include\__msvc_string_view.hpp

; 437  :         return __builtin_memcmp(_First1, _First2, _Count);

  00094	33 c0		 xor	 eax, eax

; 612  :     return _Traits::compare(_Left, _Right, _Left_size) == 0;

  00096	85 c0		 test	 eax, eax
  00098	5f		 pop	 edi
  00099	0f 94 c0	 sete	 al
; File C:\Program Files\Microsoft Visual Studio\2022\Community\VC\Tools\MSVC\14.44.35207\include\xstring

; 2855 :     }

  0009c	5e		 pop	 esi
  0009d	5d		 pop	 ebp
  0009e	c2 04 00	 ret	 4
?_Equal@?$basic_string@DU?$char_traits@D@std@@V?$allocator@D@2@@std@@QBE_NQBD@Z ENDP ; std::basic_string<char,std::char_traits<char>,std::allocator<char> >::_Equal
_TEXT	ENDS
; Function compile flags: /Ogtp
; File C:\Program Files\Microsoft Visual Studio\2022\Community\VC\Tools\MSVC\14.44.35207\include\__msvc_string_view.hpp
;	COMDAT ??$_Traits_equal@U?$char_traits@D@std@@@std@@YA_NQBDI0I@Z
_TEXT	SEGMENT
__Left$ = 8						; size = 4
__Left_size$ = 12					; size = 4
__Right$ = 16						; size = 4
__Right_size$ = 20					; size = 4
??$_Traits_equal@U?$char_traits@D@std@@@std@@YA_NQBDI0I@Z PROC ; std::_Traits_equal<std::char_traits<char> >, COMDAT

; 602  :     _In_reads_(_Right_size) const _Traits_ptr_t<_Traits> _Right, const size_t _Right_size) noexcept {

  00000	55		 push	 ebp
  00001	8b ec		 mov	 ebp, esp

; 603  :     // compare [_Left, _Left + _Left_size) to [_Right, _Right + _Right_size) for equality using _Traits
; 604  :     if (_Left_size != _Right_size) {

  00003	8b 4d 0c	 mov	 ecx, DWORD PTR __Left_size$[ebp]
  00006	3b 4d 14	 cmp	 ecx, DWORD PTR __Right_size$[ebp]
  00009	74 04		 je	 SHORT $LN2@Traits_equ

; 605  :         return false;

  0000b	32 c0		 xor	 al, al

; 613  : }

  0000d	5d		 pop	 ebp
  0000e	c3		 ret	 0
$LN2@Traits_equ:

; 606  :     }
; 607  : 
; 608  :     if (_Left_size == 0u) {

  0000f	85 c9		 test	 ecx, ecx
  00011	75 04		 jne	 SHORT $LN3@Traits_equ

; 609  :         return true;

  00013	b0 01		 mov	 al, 1

; 613  : }

  00015	5d		 pop	 ebp
  00016	c3		 ret	 0
$LN3@Traits_equ:

; 437  :         return __builtin_memcmp(_First1, _First2, _Count);

  00017	8b 55 08	 mov	 edx, DWORD PTR __Left$[ebp]
  0001a	56		 push	 esi
  0001b	8b 75 10	 mov	 esi, DWORD PTR __Right$[ebp]
  0001e	83 e9 04	 sub	 ecx, 4
  00021	72 11		 jb	 SHORT $LN11@Traits_equ
$LL12@Traits_equ:
  00023	8b 02		 mov	 eax, DWORD PTR [edx]
  00025	3b 06		 cmp	 eax, DWORD PTR [esi]
  00027	75 10		 jne	 SHORT $LN10@Traits_equ
  00029	83 c2 04	 add	 edx, 4
  0002c	83 c6 04	 add	 esi, 4
  0002f	83 e9 04	 sub	 ecx, 4
  00032	73 ef		 jae	 SHORT $LL12@Traits_equ
$LN11@Traits_equ:
  00034	83 f9 fc	 cmp	 ecx, -4			; fffffffcH
  00037	74 3a		 je	 SHORT $LN9@Traits_equ
$LN10@Traits_equ:
  00039	8a 02		 mov	 al, BYTE PTR [edx]
  0003b	3a 06		 cmp	 al, BYTE PTR [esi]
  0003d	75 27		 jne	 SHORT $LN13@Traits_equ
  0003f	83 f9 fd	 cmp	 ecx, -3			; fffffffdH
  00042	74 2f		 je	 SHORT $LN9@Traits_equ
  00044	8a 42 01	 mov	 al, BYTE PTR [edx+1]
  00047	3a 46 01	 cmp	 al, BYTE PTR [esi+1]
  0004a	75 1a		 jne	 SHORT $LN13@Traits_equ
  0004c	83 f9 fe	 cmp	 ecx, -2			; fffffffeH
  0004f	74 22		 je	 SHORT $LN9@Traits_equ
  00051	8a 42 02	 mov	 al, BYTE PTR [edx+2]
  00054	3a 46 02	 cmp	 al, BYTE PTR [esi+2]
  00057	75 0d		 jne	 SHORT $LN13@Traits_equ
  00059	83 f9 ff	 cmp	 ecx, -1
  0005c	74 15		 je	 SHORT $LN9@Traits_equ
  0005e	8a 42 03	 mov	 al, BYTE PTR [edx+3]
  00061	3a 46 03	 cmp	 al, BYTE PTR [esi+3]
  00064	74 0d		 je	 SHORT $LN9@Traits_equ
$LN13@Traits_equ:
  00066	1b c0		 sbb	 eax, eax
  00068	83 c8 01	 or	 eax, 1

; 610  :     }
; 611  : 
; 612  :     return _Traits::compare(_Left, _Right, _Left_size) == 0;

  0006b	85 c0		 test	 eax, eax
  0006d	5e		 pop	 esi
  0006e	0f 94 c0	 sete	 al

; 613  : }

  00071	5d		 pop	 ebp
  00072	c3		 ret	 0
$LN9@Traits_equ:

; 437  :         return __builtin_memcmp(_First1, _First2, _Count);

  00073	33 c0		 xor	 eax, eax

; 610  :     }
; 611  : 
; 612  :     return _Traits::compare(_Left, _Right, _Left_size) == 0;

  00075	85 c0		 test	 eax, eax
  00077	5e		 pop	 esi
  00078	0f 94 c0	 sete	 al

; 613  : }

  0007b	5d		 pop	 ebp
  0007c	c3		 ret	 0
??$_Traits_equal@U?$char_traits@D@std@@@std@@YA_NQBDI0I@Z ENDP ; std::_Traits_equal<std::char_traits<char> >
_TEXT	ENDS
; Function compile flags: /Ogtp
; File C:\Program Files\Microsoft Visual Studio\2022\Community\VC\Tools\MSVC\14.44.35207\include\xstring
;	COMDAT ?_Seek_to@?$_String_const_iterator@V?$_String_val@U?$_Simple_types@D@std@@@std@@@std@@QAEXPBD@Z
_TEXT	SEGMENT
__It$ = 8						; size = 4
?_Seek_to@?$_String_const_iterator@V?$_String_val@U?$_Simple_types@D@std@@@std@@@std@@QAEXPBD@Z PROC ; std::_String_const_iterator<std::_String_val<std::_Simple_types<char> > >::_Seek_to, COMDAT
; _this$ = ecx

; 226  :     _CONSTEXPR20 void _Seek_to(const value_type* _It) noexcept {

  00000	55		 push	 ebp
  00001	8b ec		 mov	 ebp, esp

; 227  :         _Ptr = _STD _Refancy_maybe_null<pointer>(const_cast<value_type*>(_It));

  00003	8b 45 08	 mov	 eax, DWORD PTR __It$[ebp]
  00006	89 01		 mov	 DWORD PTR [ecx], eax

; 228  :     }

  00008	5d		 pop	 ebp
  00009	c2 04 00	 ret	 4
?_Seek_to@?$_String_const_iterator@V?$_String_val@U?$_Simple_types@D@std@@@std@@@std@@QAEXPBD@Z ENDP ; std::_String_const_iterator<std::_String_val<std::_Simple_types<char> > >::_Seek_to
_TEXT	ENDS
; Function compile flags: /Ogtp
; File C:\Program Files\Microsoft Visual Studio\2022\Community\VC\Tools\MSVC\14.44.35207\include\xmemory
;	COMDAT ??$_Refancy_maybe_null@PBD$0A@@std@@YAPBDPBD@Z
_TEXT	SEGMENT
??$_Refancy_maybe_null@PBD$0A@@std@@YAPBDPBD@Z PROC	; std::_Refancy_maybe_null<char const *,0>, COMDAT
; __Ptr$ = ecx

; 313  :     return _Ptr;

  00000	8b c1		 mov	 eax, ecx

; 314  : }

  00002	c3		 ret	 0
??$_Refancy_maybe_null@PBD$0A@@std@@YAPBDPBD@Z ENDP	; std::_Refancy_maybe_null<char const *,0>
_TEXT	ENDS
; Function compile flags: /Ogtp
; File C:\Program Files (x86)\Windows Kits\10\Include\10.0.26100.0\shared\guiddef.h
;	COMDAT _IsEqualGUID
_TEXT	SEGMENT
_rguid1$ = 8						; size = 4
_rguid2$ = 12						; size = 4
_IsEqualGUID PROC					; COMDAT

; 160  : {

  00000	55		 push	 ebp
  00001	8b ec		 mov	 ebp, esp

; 161  :     return !memcmp(&rguid1, &rguid2, sizeof(GUID));

  00003	8b 55 08	 mov	 edx, DWORD PTR _rguid1$[ebp]
  00006	8b 45 0c	 mov	 eax, DWORD PTR _rguid2$[ebp]
  00009	56		 push	 esi
  0000a	be 0c 00 00 00	 mov	 esi, 12			; 0000000cH
  0000f	90		 npad	 1
$LL5@IsEqualGUI:
  00010	8b 0a		 mov	 ecx, DWORD PTR [edx]
  00012	3b 08		 cmp	 ecx, DWORD PTR [eax]
  00014	75 13		 jne	 SHORT $LN4@IsEqualGUI
  00016	83 c2 04	 add	 edx, 4
  00019	83 c0 04	 add	 eax, 4
  0001c	83 ee 04	 sub	 esi, 4
  0001f	73 ef		 jae	 SHORT $LL5@IsEqualGUI
  00021	b8 01 00 00 00	 mov	 eax, 1
  00026	5e		 pop	 esi

; 162  : }

  00027	5d		 pop	 ebp
  00028	c3		 ret	 0
$LN4@IsEqualGUI:

; 161  :     return !memcmp(&rguid1, &rguid2, sizeof(GUID));

  00029	33 c0		 xor	 eax, eax
  0002b	5e		 pop	 esi

; 162  : }

  0002c	5d		 pop	 ebp
  0002d	c3		 ret	 0
_IsEqualGUID ENDP
_TEXT	ENDS
END
