; Listing generated by Microsoft (R) Optimizing Compiler Version 19.44.35217.0 

	TITLE	d:\_m2work\txoko-m2-work\txoko-client-src\vs_files\userinterface\distribute\networkactormanager.obj
	.686P
	.XMM
	include listing.inc
	.model	flat

INCLUDELIB OLDNAMES

PUBLIC	??_C@_0DM@DKEOKINK@CNetworkActorManager?3?3__AppendC@ ; `string'
PUBLIC	??_R2CNetworkActorManager@@8			; CNetworkActorManager::`RTTI Base Class Array'
PUBLIC	??_R2CReferenceObject@@8			; CReferenceObject::`RTTI Base Class Array'
PUBLIC	??_R1A@?0A@EA@CNetworkActorManager@@8		; CNetworkActorManager::`RTTI Base Class Descriptor at (0,-1,0,64)'
PUBLIC	??_R1A@?0A@EA@CReferenceObject@@8		; CReferenceObject::`RTTI Base Class Descriptor at (0,-1,0,64)'
PUBLIC	??_R3CReferenceObject@@8			; CReferenceObject::`RTTI Class Hierarchy Descriptor'
PUBLIC	??_R0?AVCReferenceObject@@@8			; CReferenceObject `RTTI Type Descriptor'
PUBLIC	??_R3CNetworkActorManager@@8			; CNetworkActorManager::`RTTI Class Hierarchy Descriptor'
PUBLIC	??_R0?AVCNetworkActorManager@@@8		; CNetworkActorManager `RTTI Type Descriptor'
PUBLIC	??_R4CNetworkActorManager@@6B@			; CNetworkActorManager::`RTTI Complete Object Locator'
PUBLIC	?ms_singleton@?$CSingleton@VCPythonItem@@@@0PAVCPythonItem@@A ; CSingleton<CPythonItem>::ms_singleton
PUBLIC	??_7CNetworkActorManager@@6B@			; CNetworkActorManager::`vftable'
EXTRN	?OnSelfDestruct@CReferenceObject@@MAEXXZ:PROC	; CReferenceObject::OnSelfDestruct
EXTRN	?OnConstruct@CReferenceObject@@MAEXXZ:PROC	; CReferenceObject::OnConstruct
EXTRN	??1CReferenceObject@@UAE@XZ:PROC		; CReferenceObject::~CReferenceObject
EXTRN	??0CReferenceObject@@QAE@XZ:PROC		; CReferenceObject::CReferenceObject
;	COMDAT ?ms_singleton@?$CSingleton@VCPythonItem@@@@0PAVCPythonItem@@A
_BSS	SEGMENT
?ms_singleton@?$CSingleton@VCPythonItem@@@@0PAVCPythonItem@@A DD 01H DUP (?) ; CSingleton<CPythonItem>::ms_singleton
_BSS	ENDS
;	COMDAT ??_7CNetworkActorManager@@6B@
CONST	SEGMENT
??_7CNetworkActorManager@@6B@ DD FLAT:??_R4CNetworkActorManager@@6B@ ; CNetworkActorManager::`vftable'
	DD	FLAT:??_ECNetworkActorManager@@UAEPAXI@Z
	DD	FLAT:?OnConstruct@CReferenceObject@@MAEXXZ
	DD	FLAT:?OnSelfDestruct@CReferenceObject@@MAEXXZ
CONST	ENDS
;	COMDAT ??_R4CNetworkActorManager@@6B@
rdata$r	SEGMENT
??_R4CNetworkActorManager@@6B@ DD 00H			; CNetworkActorManager::`RTTI Complete Object Locator'
	DD	00H
	DD	00H
	DD	FLAT:??_R0?AVCNetworkActorManager@@@8
	DD	FLAT:??_R3CNetworkActorManager@@8
rdata$r	ENDS
;	COMDAT ??_R0?AVCNetworkActorManager@@@8
data$rs	SEGMENT
??_R0?AVCNetworkActorManager@@@8 DD FLAT:??_7type_info@@6B@ ; CNetworkActorManager `RTTI Type Descriptor'
	DD	00H
	DB	'.?AVCNetworkActorManager@@', 00H
data$rs	ENDS
;	COMDAT ??_R3CNetworkActorManager@@8
rdata$r	SEGMENT
??_R3CNetworkActorManager@@8 DD 00H			; CNetworkActorManager::`RTTI Class Hierarchy Descriptor'
	DD	00H
	DD	02H
	DD	FLAT:??_R2CNetworkActorManager@@8
rdata$r	ENDS
;	COMDAT ??_R0?AVCReferenceObject@@@8
data$rs	SEGMENT
??_R0?AVCReferenceObject@@@8 DD FLAT:??_7type_info@@6B@	; CReferenceObject `RTTI Type Descriptor'
	DD	00H
	DB	'.?AVCReferenceObject@@', 00H
data$rs	ENDS
;	COMDAT ??_R3CReferenceObject@@8
rdata$r	SEGMENT
??_R3CReferenceObject@@8 DD 00H				; CReferenceObject::`RTTI Class Hierarchy Descriptor'
	DD	00H
	DD	01H
	DD	FLAT:??_R2CReferenceObject@@8
rdata$r	ENDS
;	COMDAT ??_R1A@?0A@EA@CReferenceObject@@8
rdata$r	SEGMENT
??_R1A@?0A@EA@CReferenceObject@@8 DD FLAT:??_R0?AVCReferenceObject@@@8 ; CReferenceObject::`RTTI Base Class Descriptor at (0,-1,0,64)'
	DD	00H
	DD	00H
	DD	0ffffffffH
	DD	00H
	DD	040H
	DD	FLAT:??_R3CReferenceObject@@8
rdata$r	ENDS
;	COMDAT ??_R1A@?0A@EA@CNetworkActorManager@@8
rdata$r	SEGMENT
??_R1A@?0A@EA@CNetworkActorManager@@8 DD FLAT:??_R0?AVCNetworkActorManager@@@8 ; CNetworkActorManager::`RTTI Base Class Descriptor at (0,-1,0,64)'
	DD	01H
	DD	00H
	DD	0ffffffffH
	DD	00H
	DD	040H
	DD	FLAT:??_R3CNetworkActorManager@@8
rdata$r	ENDS
;	COMDAT ??_R2CReferenceObject@@8
rdata$r	SEGMENT
??_R2CReferenceObject@@8 DD FLAT:??_R1A@?0A@EA@CReferenceObject@@8 ; CReferenceObject::`RTTI Base Class Array'
rdata$r	ENDS
;	COMDAT ??_R2CNetworkActorManager@@8
rdata$r	SEGMENT
??_R2CNetworkActorManager@@8 DD FLAT:??_R1A@?0A@EA@CNetworkActorManager@@8 ; CNetworkActorManager::`RTTI Base Class Array'
	DD	FLAT:??_R1A@?0A@EA@CReferenceObject@@8
rdata$r	ENDS
;	COMDAT ??_C@_0DM@DKEOKINK@CNetworkActorManager?3?3__AppendC@
CONST	SEGMENT
??_C@_0DM@DKEOKINK@CNetworkActorManager?3?3__AppendC@ DB 'CNetworkActorMa'
	DB	'nager::__AppendCharacterManagerActor(%d, %s)', 00H ; `string'
PUBLIC	??$?0V?$tuple@ABK@std@@V?$tuple@$$V@1@$0A@$$Z$S@?$pair@$$CBKUSNetworkActorData@@@std@@AAE@AAV?$tuple@ABK@1@AAV?$tuple@$$V@1@U?$integer_sequence@I$0A@@1@U?$integer_sequence@I$S@1@@Z ; std::pair<unsigned long const ,SNetworkActorData>::pair<unsigned long const ,SNetworkActorData><std::tuple<unsigned long const &>,std::tuple<>,0>
PUBLIC	?_Get_first@?$_Compressed_pair@V?$allocator@U?$_Tree_node@U?$pair@$$CBKUSNetworkActorData@@@std@@PAX@std@@@std@@V?$_Tree_val@U?$_Tree_simple_types@U?$pair@$$CBKUSNetworkActorData@@@std@@@std@@@2@$00@std@@QBEABV?$allocator@U?$_Tree_node@U?$pair@$$CBKUSNetworkActorData@@@std@@PAX@std@@@2@XZ ; std::_Compressed_pair<std::allocator<std::_Tree_node<std::pair<unsigned long const ,SNetworkActorData>,void *> >,std::_Tree_val<std::_Tree_simple_types<std::pair<unsigned long const ,SNetworkActorData> > >,1>::_Get_first
PUBLIC	??$_Get_size_of_n@$0JI@@std@@YAII@Z		; std::_Get_size_of_n<152>
PUBLIC	??$construct_at@PAU?$_Tree_node@U?$pair@$$CBKUSNetworkActorData@@@std@@PAX@std@@ABQAU12@@std@@YAPAPAU?$_Tree_node@U?$pair@$$CBKUSNetworkActorData@@@std@@PAX@0@QAPAU10@ABQAU10@@Z ; std::construct_at<std::_Tree_node<std::pair<unsigned long const ,SNetworkActorData>,void *> *,std::_Tree_node<std::pair<unsigned long const ,SNetworkActorData>,void *> * const &>
PUBLIC	??$?0ABK$$Z$$V@?$pair@$$CBKUSNetworkActorData@@@std@@QAE@Upiecewise_construct_t@1@V?$tuple@ABK@1@V?$tuple@$$V@1@@Z ; std::pair<unsigned long const ,SNetworkActorData>::pair<unsigned long const ,SNetworkActorData><unsigned long const &>
PUBLIC	??_G?$pair@$$CBKUSNetworkActorData@@@std@@QAEPAXI@Z ; std::pair<unsigned long const ,SNetworkActorData>::`scalar deleting destructor'
PUBLIC	?_Getal@?$_Tree@V?$_Tmap_traits@KUSNetworkActorData@@U?$less@K@std@@V?$allocator@U?$pair@$$CBKUSNetworkActorData@@@std@@@3@$0A@@std@@@std@@IBEABV?$allocator@U?$_Tree_node@U?$pair@$$CBKUSNetworkActorData@@@std@@PAX@std@@@2@XZ ; std::_Tree<std::_Tmap_traits<unsigned long,SNetworkActorData,std::less<unsigned long>,std::allocator<std::pair<unsigned long const ,SNetworkActorData> >,0> >::_Getal
PUBLIC	??0?$allocator@U?$_Tree_node@U?$pair@$$CBKUSNetworkActorData@@@std@@PAX@std@@@std@@QAE@XZ ; std::allocator<std::_Tree_node<std::pair<unsigned long const ,SNetworkActorData>,void *> >::allocator<std::_Tree_node<std::pair<unsigned long const ,SNetworkActorData>,void *> >
PUBLIC	?deallocate@?$allocator@U?$_Tree_node@U?$pair@$$CBKUSNetworkActorData@@@std@@PAX@std@@@std@@QAEXQAU?$_Tree_node@U?$pair@$$CBKUSNetworkActorData@@@std@@PAX@2@I@Z ; std::allocator<std::_Tree_node<std::pair<unsigned long const ,SNetworkActorData>,void *> >::deallocate
PUBLIC	?allocate@?$allocator@U?$_Tree_node@U?$pair@$$CBKUSNetworkActorData@@@std@@PAX@std@@@std@@QAEPAU?$_Tree_node@U?$pair@$$CBKUSNetworkActorData@@@std@@PAX@2@I@Z ; std::allocator<std::_Tree_node<std::pair<unsigned long const ,SNetworkActorData>,void *> >::allocate
PUBLIC	?max_size@?$_Default_allocator_traits@V?$allocator@U?$_Tree_node@U?$pair@$$CBKUSNetworkActorData@@@std@@PAX@std@@@std@@@std@@SAIABV?$allocator@U?$_Tree_node@U?$pair@$$CBKUSNetworkActorData@@@std@@PAX@std@@@2@@Z ; std::_Default_allocator_traits<std::allocator<std::_Tree_node<std::pair<unsigned long const ,SNetworkActorData>,void *> > >::max_size
PUBLIC	??0?$_Tree_val@U?$_Tree_simple_types@U?$pair@$$CBKUSNetworkActorData@@@std@@@std@@@std@@QAE@XZ ; std::_Tree_val<std::_Tree_simple_types<std::pair<unsigned long const ,SNetworkActorData> > >::_Tree_val<std::_Tree_simple_types<std::pair<unsigned long const ,SNetworkActorData> > >
PUBLIC	??0?$_Alloc_construct_ptr@V?$allocator@U?$_Tree_node@U?$pair@$$CBKUSNetworkActorData@@@std@@PAX@std@@@std@@@std@@QAE@AAV?$allocator@U?$_Tree_node@U?$pair@$$CBKUSNetworkActorData@@@std@@PAX@std@@@1@@Z ; std::_Alloc_construct_ptr<std::allocator<std::_Tree_node<std::pair<unsigned long const ,SNetworkActorData>,void *> > >::_Alloc_construct_ptr<std::allocator<std::_Tree_node<std::pair<unsigned long const ,SNetworkActorData>,void *> > >
PUBLIC	?_Allocate@?$_Alloc_construct_ptr@V?$allocator@U?$_Tree_node@U?$pair@$$CBKUSNetworkActorData@@@std@@PAX@std@@@std@@@std@@QAEXXZ ; std::_Alloc_construct_ptr<std::allocator<std::_Tree_node<std::pair<unsigned long const ,SNetworkActorData>,void *> > >::_Allocate
PUBLIC	??$_Construct_in_place@PAU?$_Tree_node@U?$pair@$$CBKUSNetworkActorData@@@std@@PAX@std@@ABQAU12@@std@@YAXAAPAU?$_Tree_node@U?$pair@$$CBKUSNetworkActorData@@@std@@PAX@0@ABQAU10@@Z ; std::_Construct_in_place<std::_Tree_node<std::pair<unsigned long const ,SNetworkActorData>,void *> *,std::_Tree_node<std::pair<unsigned long const ,SNetworkActorData>,void *> * const &>
PUBLIC	??$_Emplace_back@K@?$_Uninitialized_backout_al@V?$allocator@K@std@@@std@@QAEX$$QAK@Z ; std::_Uninitialized_backout_al<std::allocator<unsigned long> >::_Emplace_back<unsigned long>
PUBLIC	??$_Copy_memmove@PAKPAK@std@@YAPAKPAK00@Z	; std::_Copy_memmove<unsigned long *,unsigned long *>
PUBLIC	??$construct_at@KK@std@@YAPAKQAK$$QAK@Z		; std::construct_at<unsigned long,unsigned long>
PUBLIC	??$construct_at@PAU?$_Tree_node@U?$pair@$$CBKUSNetworkActorData@@@std@@PAX@std@@AAPAU12@@std@@YAPAPAU?$_Tree_node@U?$pair@$$CBKUSNetworkActorData@@@std@@PAX@0@QAPAU10@AAPAU10@@Z ; std::construct_at<std::_Tree_node<std::pair<unsigned long const ,SNetworkActorData>,void *> *,std::_Tree_node<std::pair<unsigned long const ,SNetworkActorData>,void *> * &>
PUBLIC	??$addressof@PAU?$_Tree_node@U?$pair@$$CBKUSNetworkActorData@@@std@@PAX@std@@@std@@YAPAPAU?$_Tree_node@U?$pair@$$CBKUSNetworkActorData@@@std@@PAX@0@AAPAU10@@Z ; std::addressof<std::_Tree_node<std::pair<unsigned long const ,SNetworkActorData>,void *> *>
PUBLIC	??$construct_at@U?$pair@$$CBKUSNetworkActorData@@@std@@ABUpiecewise_construct_t@2@V?$tuple@ABK@2@V?$tuple@$$V@2@@std@@YAPAU?$pair@$$CBKUSNetworkActorData@@@0@QAU10@ABUpiecewise_construct_t@0@$$QAV?$tuple@ABK@0@$$QAV?$tuple@$$V@0@@Z ; std::construct_at<std::pair<unsigned long const ,SNetworkActorData>,std::piecewise_construct_t const &,std::tuple<unsigned long const &>,std::tuple<> >
PUBLIC	??1SNetworkActorData@@QAE@XZ			; SNetworkActorData::~SNetworkActorData
PUBLIC	??1?$pair@$$CBKUSNetworkActorData@@@std@@QAE@XZ	; std::pair<unsigned long const ,SNetworkActorData>::~pair<unsigned long const ,SNetworkActorData>
PUBLIC	??$destroy_at@U?$pair@$$CBKUSNetworkActorData@@@std@@@std@@YAXQAU?$pair@$$CBKUSNetworkActorData@@@0@@Z ; std::destroy_at<std::pair<unsigned long const ,SNetworkActorData> >
PUBLIC	?_Change_array@?$vector@KV?$allocator@K@std@@@std@@AAEXQAKII@Z ; std::vector<unsigned long,std::allocator<unsigned long> >::_Change_array
PUBLIC	?_Orphan_range@?$vector@KV?$allocator@K@std@@@std@@ABEXPAK0@Z ; std::vector<unsigned long,std::allocator<unsigned long> >::_Orphan_range
PUBLIC	??1_Reallocation_guard@?$vector@KV?$allocator@K@std@@@std@@QAE@XZ ; std::vector<unsigned long,std::allocator<unsigned long> >::_Reallocation_guard::~_Reallocation_guard
PUBLIC	?_Unchecked_begin@?$_Tree@V?$_Tmap_traits@KUSNetworkActorData@@U?$less@K@std@@V?$allocator@U?$pair@$$CBKUSNetworkActorData@@@std@@@3@$0A@@std@@@std@@QAE?AV?$_Tree_unchecked_iterator@V?$_Tree_val@U?$_Tree_simple_types@U?$pair@$$CBKUSNetworkActorData@@@std@@@std@@@std@@@2@XZ ; std::_Tree<std::_Tmap_traits<unsigned long,SNetworkActorData,std::less<unsigned long>,std::allocator<std::pair<unsigned long const ,SNetworkActorData> >,0> >::_Unchecked_begin
PUBLIC	?max_size@?$_Tree@V?$_Tmap_traits@KUSNetworkActorData@@U?$less@K@std@@V?$allocator@U?$pair@$$CBKUSNetworkActorData@@@std@@@3@$0A@@std@@@std@@QBEIXZ ; std::_Tree<std::_Tmap_traits<unsigned long,SNetworkActorData,std::less<unsigned long>,std::allocator<std::pair<unsigned long const ,SNetworkActorData> >,0> >::max_size
PUBLIC	?deallocate@?$_Default_allocator_traits@V?$allocator@U?$_Tree_node@U?$pair@$$CBKUSNetworkActorData@@@std@@PAX@std@@@std@@@std@@SAXAAV?$allocator@U?$_Tree_node@U?$pair@$$CBKUSNetworkActorData@@@std@@PAX@std@@@2@QAU?$_Tree_node@U?$pair@$$CBKUSNetworkActorData@@@std@@PAX@2@I@Z ; std::_Default_allocator_traits<std::allocator<std::_Tree_node<std::pair<unsigned long const ,SNetworkActorData>,void *> > >::deallocate
PUBLIC	?_Max@?$_Tree_val@U?$_Tree_simple_types@U?$pair@$$CBKUSNetworkActorData@@@std@@@std@@@std@@SAPAU?$_Tree_node@U?$pair@$$CBKUSNetworkActorData@@@std@@PAX@2@PAU32@@Z ; std::_Tree_val<std::_Tree_simple_types<std::pair<unsigned long const ,SNetworkActorData> > >::_Max
PUBLIC	?_Min@?$_Tree_val@U?$_Tree_simple_types@U?$pair@$$CBKUSNetworkActorData@@@std@@@std@@@std@@SAPAU?$_Tree_node@U?$pair@$$CBKUSNetworkActorData@@@std@@PAX@2@PAU32@@Z ; std::_Tree_val<std::_Tree_simple_types<std::pair<unsigned long const ,SNetworkActorData> > >::_Min
PUBLIC	?_Lrotate@?$_Tree_val@U?$_Tree_simple_types@U?$pair@$$CBKUSNetworkActorData@@@std@@@std@@@std@@QAEXPAU?$_Tree_node@U?$pair@$$CBKUSNetworkActorData@@@std@@PAX@2@@Z ; std::_Tree_val<std::_Tree_simple_types<std::pair<unsigned long const ,SNetworkActorData> > >::_Lrotate
PUBLIC	?_Rrotate@?$_Tree_val@U?$_Tree_simple_types@U?$pair@$$CBKUSNetworkActorData@@@std@@@std@@@std@@QAEXPAU?$_Tree_node@U?$pair@$$CBKUSNetworkActorData@@@std@@PAX@2@@Z ; std::_Tree_val<std::_Tree_simple_types<std::pair<unsigned long const ,SNetworkActorData> > >::_Rrotate
PUBLIC	??E?$_Tree_unchecked_const_iterator@V?$_Tree_val@U?$_Tree_simple_types@U?$pair@$$CBKUSNetworkActorData@@@std@@@std@@@std@@U_Iterator_base0@2@@std@@QAE?AV01@H@Z ; std::_Tree_unchecked_const_iterator<std::_Tree_val<std::_Tree_simple_types<std::pair<unsigned long const ,SNetworkActorData> > >,std::_Iterator_base0>::operator++
PUBLIC	??8?$_Tree_unchecked_const_iterator@V?$_Tree_val@U?$_Tree_simple_types@U?$pair@$$CBKUSNetworkActorData@@@std@@@std@@@std@@U_Iterator_base0@2@@std@@QBE_NABV01@@Z ; std::_Tree_unchecked_const_iterator<std::_Tree_val<std::_Tree_simple_types<std::pair<unsigned long const ,SNetworkActorData> > >,std::_Iterator_base0>::operator==
PUBLIC	?_Get_first@?$_Compressed_pair@U?$less@K@std@@V?$_Compressed_pair@V?$allocator@U?$_Tree_node@U?$pair@$$CBKUSNetworkActorData@@@std@@PAX@std@@@std@@V?$_Tree_val@U?$_Tree_simple_types@U?$pair@$$CBKUSNetworkActorData@@@std@@@std@@@2@$00@2@$00@std@@QBEABU?$less@K@2@XZ ; std::_Compressed_pair<std::less<unsigned long>,std::_Compressed_pair<std::allocator<std::_Tree_node<std::pair<unsigned long const ,SNetworkActorData>,void *> >,std::_Tree_val<std::_Tree_simple_types<std::pair<unsigned long const ,SNetworkActorData> > >,1>,1>::_Get_first
PUBLIC	??0?$_Tree_temp_node_alloc@V?$allocator@U?$_Tree_node@U?$pair@$$CBKUSNetworkActorData@@@std@@PAX@std@@@std@@@std@@QAE@AAV?$allocator@U?$_Tree_node@U?$pair@$$CBKUSNetworkActorData@@@std@@PAX@std@@@1@@Z ; std::_Tree_temp_node_alloc<std::allocator<std::_Tree_node<std::pair<unsigned long const ,SNetworkActorData>,void *> > >::_Tree_temp_node_alloc<std::allocator<std::_Tree_node<std::pair<unsigned long const ,SNetworkActorData>,void *> > >
PUBLIC	??1?$_Alloc_construct_ptr@V?$allocator@U?$_Tree_node@U?$pair@$$CBKUSNetworkActorData@@@std@@PAX@std@@@std@@@std@@QAE@XZ ; std::_Alloc_construct_ptr<std::allocator<std::_Tree_node<std::pair<unsigned long const ,SNetworkActorData>,void *> > >::~_Alloc_construct_ptr<std::allocator<std::_Tree_node<std::pair<unsigned long const ,SNetworkActorData>,void *> > >
PUBLIC	??$_Buyheadnode@V?$allocator@U?$_Tree_node@U?$pair@$$CBKUSNetworkActorData@@@std@@PAX@std@@@std@@@?$_Tree_node@U?$pair@$$CBKUSNetworkActorData@@@std@@PAX@std@@SAPAU01@AAV?$allocator@U?$_Tree_node@U?$pair@$$CBKUSNetworkActorData@@@std@@PAX@std@@@1@@Z ; std::_Tree_node<std::pair<unsigned long const ,SNetworkActorData>,void *>::_Buyheadnode<std::allocator<std::_Tree_node<std::pair<unsigned long const ,SNetworkActorData>,void *> > >
PUBLIC	??$addressof@$$CBV?$_Tree_val@U?$_Tree_simple_types@U?$pair@$$CBKUSNetworkActorData@@@std@@@std@@@std@@@std@@YAPBV?$_Tree_val@U?$_Tree_simple_types@U?$pair@$$CBKUSNetworkActorData@@@std@@@std@@@0@ABV10@@Z ; std::addressof<std::_Tree_val<std::_Tree_simple_types<std::pair<unsigned long const ,SNetworkActorData> > > const >
PUBLIC	??$exchange@PAU?$_Tree_node@U?$pair@$$CBKUSNetworkActorData@@@std@@PAX@std@@$$T@std@@YAPAU?$_Tree_node@U?$pair@$$CBKUSNetworkActorData@@@std@@PAX@0@AAPAU10@$$QA$$T@Z ; std::exchange<std::_Tree_node<std::pair<unsigned long const ,SNetworkActorData>,void *> *,std::nullptr_t>
PUBLIC	??$_Adl_verify_range@V?$_Tree_unchecked_const_iterator@V?$_Tree_val@U?$_Tree_simple_types@U?$pair@$$CBKUSNetworkActorData@@@std@@@std@@@std@@U_Iterator_base0@2@@std@@V12@@std@@YAXABV?$_Tree_unchecked_const_iterator@V?$_Tree_val@U?$_Tree_simple_types@U?$pair@$$CBKUSNetworkActorData@@@std@@@std@@@std@@U_Iterator_base0@2@@0@0@Z ; std::_Adl_verify_range<std::_Tree_unchecked_const_iterator<std::_Tree_val<std::_Tree_simple_types<std::pair<unsigned long const ,SNetworkActorData> > >,std::_Iterator_base0>,std::_Tree_unchecked_const_iterator<std::_Tree_val<std::_Tree_simple_types<std::pair<unsigned long const ,SNetworkActorData> > >,std::_Iterator_base0> >
PUBLIC	??$_Uninitialized_move@PAKV?$allocator@K@std@@@std@@YAPAKQAK0PAKAAV?$allocator@K@0@@Z ; std::_Uninitialized_move<unsigned long *,std::allocator<unsigned long> >
PUBLIC	??$_Get_unwrapped@ABQAK@std@@YA?A_TABQAK@Z	; std::_Get_unwrapped<unsigned long * const &>
PUBLIC	??$construct@KK@?$_Default_allocator_traits@V?$allocator@K@std@@@std@@SAXAAV?$allocator@K@1@QAK$$QAK@Z ; std::_Default_allocator_traits<std::allocator<unsigned long> >::construct<unsigned long,unsigned long>
PUBLIC	??$_Construct_in_place@KK@std@@YAXAAK$$QAK@Z	; std::_Construct_in_place<unsigned long,unsigned long>
PUBLIC	??$forward@PAU?$_Tree_node@U?$pair@$$CBKUSNetworkActorData@@@std@@PAX@std@@@std@@YA$$QAPAU?$_Tree_node@U?$pair@$$CBKUSNetworkActorData@@@std@@PAX@0@AAPAU10@@Z ; std::forward<std::_Tree_node<std::pair<unsigned long const ,SNetworkActorData>,void *> *>
PUBLIC	??$forward@ABQAU?$_Tree_node@U?$pair@$$CBKUSNetworkActorData@@@std@@PAX@std@@@std@@YAABQAU?$_Tree_node@U?$pair@$$CBKUSNetworkActorData@@@std@@PAX@0@ABQAU10@@Z ; std::forward<std::_Tree_node<std::pair<unsigned long const ,SNetworkActorData>,void *> * const &>
PUBLIC	??$_Construct_in_place@PAU?$_Tree_node@U?$pair@$$CBKUSNetworkActorData@@@std@@PAX@std@@AAPAU12@@std@@YAXAAPAU?$_Tree_node@U?$pair@$$CBKUSNetworkActorData@@@std@@PAX@0@0@Z ; std::_Construct_in_place<std::_Tree_node<std::pair<unsigned long const ,SNetworkActorData>,void *> *,std::_Tree_node<std::pair<unsigned long const ,SNetworkActorData>,void *> * &>
PUBLIC	??$construct@U?$pair@$$CBKUSNetworkActorData@@@std@@ABUpiecewise_construct_t@2@V?$tuple@ABK@2@V?$tuple@$$V@2@@?$_Default_allocator_traits@V?$allocator@U?$_Tree_node@U?$pair@$$CBKUSNetworkActorData@@@std@@PAX@std@@@std@@@std@@SAXAAV?$allocator@U?$_Tree_node@U?$pair@$$CBKUSNetworkActorData@@@std@@PAX@std@@@1@QAU?$pair@$$CBKUSNetworkActorData@@@1@ABUpiecewise_construct_t@1@$$QAV?$tuple@ABK@1@$$QAV?$tuple@$$V@1@@Z ; std::_Default_allocator_traits<std::allocator<std::_Tree_node<std::pair<unsigned long const ,SNetworkActorData>,void *> > >::construct<std::pair<unsigned long const ,SNetworkActorData>,std::piecewise_construct_t const &,std::tuple<unsigned long const &>,std::tuple<> >
PUBLIC	??$_Destroy_in_place@PAU?$_Tree_node@U?$pair@$$CBKUSNetworkActorData@@@std@@PAX@std@@@std@@YAXAAPAU?$_Tree_node@U?$pair@$$CBKUSNetworkActorData@@@std@@PAX@0@@Z ; std::_Destroy_in_place<std::_Tree_node<std::pair<unsigned long const ,SNetworkActorData>,void *> *>
PUBLIC	??$destroy@U?$pair@$$CBKUSNetworkActorData@@@std@@@?$_Default_allocator_traits@V?$allocator@U?$_Tree_node@U?$pair@$$CBKUSNetworkActorData@@@std@@PAX@std@@@std@@@std@@SAXAAV?$allocator@U?$_Tree_node@U?$pair@$$CBKUSNetworkActorData@@@std@@PAX@std@@@1@QAU?$pair@$$CBKUSNetworkActorData@@@1@@Z ; std::_Default_allocator_traits<std::allocator<std::_Tree_node<std::pair<unsigned long const ,SNetworkActorData>,void *> > >::destroy<std::pair<unsigned long const ,SNetworkActorData> >
PUBLIC	??$forward@AAPAU?$_Tree_node@U?$pair@$$CBKUSNetworkActorData@@@std@@PAX@std@@@std@@YAAAPAU?$_Tree_node@U?$pair@$$CBKUSNetworkActorData@@@std@@PAX@0@AAPAU10@@Z ; std::forward<std::_Tree_node<std::pair<unsigned long const ,SNetworkActorData>,void *> * &>
PUBLIC	??$?0$$V@?$_Compressed_pair@V?$allocator@U?$_Tree_node@U?$pair@$$CBKUSNetworkActorData@@@std@@PAX@std@@@std@@V?$_Tree_val@U?$_Tree_simple_types@U?$pair@$$CBKUSNetworkActorData@@@std@@@std@@@2@$00@std@@QAE@U_Zero_then_variadic_args_t@1@@Z ; std::_Compressed_pair<std::allocator<std::_Tree_node<std::pair<unsigned long const ,SNetworkActorData>,void *> >,std::_Tree_val<std::_Tree_simple_types<std::pair<unsigned long const ,SNetworkActorData> > >,1>::_Compressed_pair<std::allocator<std::_Tree_node<std::pair<unsigned long const ,SNetworkActorData>,void *> >,std::_Tree_val<std::_Tree_simple_types<std::pair<unsigned long const ,SNetworkActorData> > >,1><>
PUBLIC	??1?$_Tree_temp_node_alloc@V?$allocator@U?$_Tree_node@U?$pair@$$CBKUSNetworkActorData@@@std@@PAX@std@@@std@@@std@@QAE@XZ ; std::_Tree_temp_node_alloc<std::allocator<std::_Tree_node<std::pair<unsigned long const ,SNetworkActorData>,void *> > >::~_Tree_temp_node_alloc<std::allocator<std::_Tree_node<std::pair<unsigned long const ,SNetworkActorData>,void *> > >
PUBLIC	?_Erase_unchecked@?$_Tree@V?$_Tmap_traits@KUSNetworkActorData@@U?$less@K@std@@V?$allocator@U?$pair@$$CBKUSNetworkActorData@@@std@@@3@$0A@@std@@@std@@AAEPAU?$_Tree_node@U?$pair@$$CBKUSNetworkActorData@@@std@@PAX@2@V?$_Tree_unchecked_const_iterator@V?$_Tree_val@U?$_Tree_simple_types@U?$pair@$$CBKUSNetworkActorData@@@std@@@std@@@std@@U_Iterator_base0@2@@2@0@Z ; std::_Tree<std::_Tmap_traits<unsigned long,SNetworkActorData,std::less<unsigned long>,std::allocator<std::pair<unsigned long const ,SNetworkActorData> >,0> >::_Erase_unchecked
PUBLIC	?_Check_grow_by_1@?$_Tree@V?$_Tmap_traits@KUSNetworkActorData@@U?$less@K@std@@V?$allocator@U?$pair@$$CBKUSNetworkActorData@@@std@@@3@$0A@@std@@@std@@IAEXXZ ; std::_Tree<std::_Tmap_traits<unsigned long,SNetworkActorData,std::less<unsigned long>,std::allocator<std::pair<unsigned long const ,SNetworkActorData> >,0> >::_Check_grow_by_1
PUBLIC	?_Alloc_sentinel_and_proxy@?$_Tree@V?$_Tmap_traits@KUSNetworkActorData@@U?$less@K@std@@V?$allocator@U?$pair@$$CBKUSNetworkActorData@@@std@@@3@$0A@@std@@@std@@IAEXXZ ; std::_Tree<std::_Tmap_traits<unsigned long,SNetworkActorData,std::less<unsigned long>,std::allocator<std::pair<unsigned long const ,SNetworkActorData> >,0> >::_Alloc_sentinel_and_proxy
PUBLIC	?_Getcomp@?$_Tree@V?$_Tmap_traits@KUSNetworkActorData@@U?$less@K@std@@V?$allocator@U?$pair@$$CBKUSNetworkActorData@@@std@@@3@$0A@@std@@@std@@IBEABU?$less@K@2@XZ ; std::_Tree<std::_Tmap_traits<unsigned long,SNetworkActorData,std::less<unsigned long>,std::allocator<std::pair<unsigned long const ,SNetworkActorData> >,0> >::_Getcomp
PUBLIC	?_Get_scary@?$_Tree@V?$_Tmap_traits@KUSNetworkActorData@@U?$less@K@std@@V?$allocator@U?$pair@$$CBKUSNetworkActorData@@@std@@@3@$0A@@std@@@std@@IBEPBV?$_Tree_val@U?$_Tree_simple_types@U?$pair@$$CBKUSNetworkActorData@@@std@@@std@@@2@XZ ; std::_Tree<std::_Tmap_traits<unsigned long,SNetworkActorData,std::less<unsigned long>,std::allocator<std::pair<unsigned long const ,SNetworkActorData> >,0> >::_Get_scary
PUBLIC	?_Extract@?$_Tree_val@U?$_Tree_simple_types@U?$pair@$$CBKUSNetworkActorData@@@std@@@std@@@std@@QAEPAU?$_Tree_node@U?$pair@$$CBKUSNetworkActorData@@@std@@PAX@2@V?$_Tree_unchecked_const_iterator@V?$_Tree_val@U?$_Tree_simple_types@U?$pair@$$CBKUSNetworkActorData@@@std@@@std@@@std@@U_Iterator_base0@2@@2@@Z ; std::_Tree_val<std::_Tree_simple_types<std::pair<unsigned long const ,SNetworkActorData> > >::_Extract
PUBLIC	?_Insert_node@?$_Tree_val@U?$_Tree_simple_types@U?$pair@$$CBKUSNetworkActorData@@@std@@@std@@@std@@QAEPAU?$_Tree_node@U?$pair@$$CBKUSNetworkActorData@@@std@@PAX@2@U?$_Tree_id@PAU?$_Tree_node@U?$pair@$$CBKUSNetworkActorData@@@std@@PAX@std@@@2@QAU32@@Z ; std::_Tree_val<std::_Tree_simple_types<std::pair<unsigned long const ,SNetworkActorData> > >::_Insert_node
PUBLIC	??D?$_Tree_const_iterator@V?$_Tree_val@U?$_Tree_simple_types@U?$pair@$$CBKUSNetworkActorData@@@std@@@std@@@std@@@std@@QBEABU?$pair@$$CBKUSNetworkActorData@@@1@XZ ; std::_Tree_const_iterator<std::_Tree_val<std::_Tree_simple_types<std::pair<unsigned long const ,SNetworkActorData> > > >::operator*
PUBLIC	??E?$_Tree_unchecked_const_iterator@V?$_Tree_val@U?$_Tree_simple_types@U?$pair@$$CBKUSNetworkActorData@@@std@@@std@@@std@@U_Iterator_base0@2@@std@@QAEAAV01@XZ ; std::_Tree_unchecked_const_iterator<std::_Tree_val<std::_Tree_simple_types<std::pair<unsigned long const ,SNetworkActorData> > >,std::_Iterator_base0>::operator++
PUBLIC	?_Get_first@?$_Compressed_pair@V?$allocator@U?$_Tree_node@U?$pair@$$CBKUSNetworkActorData@@@std@@PAX@std@@@std@@V?$_Tree_val@U?$_Tree_simple_types@U?$pair@$$CBKUSNetworkActorData@@@std@@@std@@@2@$00@std@@QAEAAV?$allocator@U?$_Tree_node@U?$pair@$$CBKUSNetworkActorData@@@std@@PAX@std@@@2@XZ ; std::_Compressed_pair<std::allocator<std::_Tree_node<std::pair<unsigned long const ,SNetworkActorData>,void *> >,std::_Tree_val<std::_Tree_simple_types<std::pair<unsigned long const ,SNetworkActorData> > >,1>::_Get_first
PUBLIC	??1?$_Tree_temp_node@V?$allocator@U?$_Tree_node@U?$pair@$$CBKUSNetworkActorData@@@std@@PAX@std@@@std@@@std@@QAE@XZ ; std::_Tree_temp_node<std::allocator<std::_Tree_node<std::pair<unsigned long const ,SNetworkActorData>,void *> > >::~_Tree_temp_node<std::allocator<std::_Tree_node<std::pair<unsigned long const ,SNetworkActorData>,void *> > >
PUBLIC	?_Release@?$_Alloc_construct_ptr@V?$allocator@U?$_Tree_node@U?$pair@$$CBKUSNetworkActorData@@@std@@PAX@std@@@std@@@std@@QAEPAU?$_Tree_node@U?$pair@$$CBKUSNetworkActorData@@@std@@PAX@2@XZ ; std::_Alloc_construct_ptr<std::allocator<std::_Tree_node<std::pair<unsigned long const ,SNetworkActorData>,void *> > >::_Release
PUBLIC	??$?0ABU?$less@K@std@@U_Zero_then_variadic_args_t@1@@?$_Compressed_pair@U?$less@K@std@@V?$_Compressed_pair@V?$allocator@U?$_Tree_node@U?$pair@$$CBKUSNetworkActorData@@@std@@PAX@std@@@std@@V?$_Tree_val@U?$_Tree_simple_types@U?$pair@$$CBKUSNetworkActorData@@@std@@@std@@@2@$00@2@$00@std@@QAE@U_One_then_variadic_args_t@1@ABU?$less@K@1@$$QAU_Zero_then_variadic_args_t@1@@Z ; std::_Compressed_pair<std::less<unsigned long>,std::_Compressed_pair<std::allocator<std::_Tree_node<std::pair<unsigned long const ,SNetworkActorData>,void *> >,std::_Tree_val<std::_Tree_simple_types<std::pair<unsigned long const ,SNetworkActorData> > >,1>,1>::_Compressed_pair<std::less<unsigned long>,std::_Compressed_pair<std::allocator<std::_Tree_node<std::pair<unsigned long const ,SNetworkActorData>,void *> >,std::_Tree_val<std::_Tree_simple_types<std::pair<unsigned long const ,SNetworkActorData> > >,1>,1><std::less<unsigned long> const &,std::_Zero_then_variadic_args_t>
PUBLIC	??$_Get_unwrapped@AAV?$_Tree_unchecked_const_iterator@V?$_Tree_val@U?$_Tree_simple_types@U?$pair@$$CBKUSNetworkActorData@@@std@@@std@@@std@@U_Iterator_base0@2@@std@@@std@@YA?A_TAAV?$_Tree_unchecked_const_iterator@V?$_Tree_val@U?$_Tree_simple_types@U?$pair@$$CBKUSNetworkActorData@@@std@@@std@@@std@@U_Iterator_base0@2@@0@@Z ; std::_Get_unwrapped<std::_Tree_unchecked_const_iterator<std::_Tree_val<std::_Tree_simple_types<std::pair<unsigned long const ,SNetworkActorData> > >,std::_Iterator_base0> &>
PUBLIC	??$distance@V?$_Tree_unchecked_const_iterator@V?$_Tree_val@U?$_Tree_simple_types@U?$pair@$$CBKUSNetworkActorData@@@std@@@std@@@std@@U_Iterator_base0@2@@std@@@std@@YAHV?$_Tree_unchecked_const_iterator@V?$_Tree_val@U?$_Tree_simple_types@U?$pair@$$CBKUSNetworkActorData@@@std@@@std@@@std@@U_Iterator_base0@2@@0@0@Z ; std::distance<std::_Tree_unchecked_const_iterator<std::_Tree_val<std::_Tree_simple_types<std::pair<unsigned long const ,SNetworkActorData> > >,std::_Iterator_base0> >
PUBLIC	??$addressof@V?$_Tree_val@U?$_Tree_simple_types@U?$pair@$$CBKUSNetworkActorData@@@std@@@std@@@std@@@std@@YAPAV?$_Tree_val@U?$_Tree_simple_types@U?$pair@$$CBKUSNetworkActorData@@@std@@@std@@@0@AAV10@@Z ; std::addressof<std::_Tree_val<std::_Tree_simple_types<std::pair<unsigned long const ,SNetworkActorData> > > >
PUBLIC	??$addressof@U?$pair@$$CBKUSNetworkActorData@@@std@@@std@@YAPAU?$pair@$$CBKUSNetworkActorData@@@0@AAU10@@Z ; std::addressof<std::pair<unsigned long const ,SNetworkActorData> >
PUBLIC	??$_Emplace_reallocate@K@?$vector@KV?$allocator@K@std@@@std@@AAEPAKQAK$$QAK@Z ; std::vector<unsigned long,std::allocator<unsigned long> >::_Emplace_reallocate<unsigned long>
PUBLIC	??$_Emplace_back_with_unused_capacity@K@?$vector@KV?$allocator@K@std@@@std@@AAEAAK$$QAK@Z ; std::vector<unsigned long,std::allocator<unsigned long> >::_Emplace_back_with_unused_capacity<unsigned long>
PUBLIC	??$?0PAU?$_Tree_node@U?$pair@$$CBKUSNetworkActorData@@@std@@PAX@std@@_N$0A@@?$pair@PAU?$_Tree_node@U?$pair@$$CBKUSNetworkActorData@@@std@@PAX@std@@_N@std@@QAE@$$QAPAU?$_Tree_node@U?$pair@$$CBKUSNetworkActorData@@@std@@PAX@1@$$QA_N@Z ; std::pair<std::_Tree_node<std::pair<unsigned long const ,SNetworkActorData>,void *> *,bool>::pair<std::_Tree_node<std::pair<unsigned long const ,SNetworkActorData>,void *> *,bool><std::_Tree_node<std::pair<unsigned long const ,SNetworkActorData>,void *> *,bool,0>
PUBLIC	??$?0ABQAU?$_Tree_node@U?$pair@$$CBKUSNetworkActorData@@@std@@PAX@std@@_N$0A@@?$pair@PAU?$_Tree_node@U?$pair@$$CBKUSNetworkActorData@@@std@@PAX@std@@_N@std@@QAE@ABQAU?$_Tree_node@U?$pair@$$CBKUSNetworkActorData@@@std@@PAX@1@$$QA_N@Z ; std::pair<std::_Tree_node<std::pair<unsigned long const ,SNetworkActorData>,void *> *,bool>::pair<std::_Tree_node<std::pair<unsigned long const ,SNetworkActorData>,void *> *,bool><std::_Tree_node<std::pair<unsigned long const ,SNetworkActorData>,void *> * const &,bool,0>
PUBLIC	??$?0ABUpiecewise_construct_t@std@@V?$tuple@ABK@1@V?$tuple@$$V@1@@?$_Tree_temp_node@V?$allocator@U?$_Tree_node@U?$pair@$$CBKUSNetworkActorData@@@std@@PAX@std@@@std@@@std@@QAE@AAV?$allocator@U?$_Tree_node@U?$pair@$$CBKUSNetworkActorData@@@std@@PAX@std@@@1@PAU?$_Tree_node@U?$pair@$$CBKUSNetworkActorData@@@std@@PAX@1@ABUpiecewise_construct_t@1@$$QAV?$tuple@ABK@1@$$QAV?$tuple@$$V@1@@Z ; std::_Tree_temp_node<std::allocator<std::_Tree_node<std::pair<unsigned long const ,SNetworkActorData>,void *> > >::_Tree_temp_node<std::allocator<std::_Tree_node<std::pair<unsigned long const ,SNetworkActorData>,void *> > ><std::piecewise_construct_t const &,std::tuple<unsigned long const &>,std::tuple<> >
PUBLIC	??$_Freenode0@V?$allocator@U?$_Tree_node@U?$pair@$$CBKUSNetworkActorData@@@std@@PAX@std@@@std@@@?$_Tree_node@U?$pair@$$CBKUSNetworkActorData@@@std@@PAX@std@@SAXAAV?$allocator@U?$_Tree_node@U?$pair@$$CBKUSNetworkActorData@@@std@@PAX@std@@@1@PAU01@@Z ; std::_Tree_node<std::pair<unsigned long const ,SNetworkActorData>,void *>::_Freenode0<std::allocator<std::_Tree_node<std::pair<unsigned long const ,SNetworkActorData>,void *> > >
PUBLIC	??$_Freenode@V?$allocator@U?$_Tree_node@U?$pair@$$CBKUSNetworkActorData@@@std@@PAX@std@@@std@@@?$_Tree_node@U?$pair@$$CBKUSNetworkActorData@@@std@@PAX@std@@SAXAAV?$allocator@U?$_Tree_node@U?$pair@$$CBKUSNetworkActorData@@@std@@PAX@std@@@1@PAU01@@Z ; std::_Tree_node<std::pair<unsigned long const ,SNetworkActorData>,void *>::_Freenode<std::allocator<std::_Tree_node<std::pair<unsigned long const ,SNetworkActorData>,void *> > >
PUBLIC	??$exchange@PAU?$_Tree_node@U?$pair@$$CBKUSNetworkActorData@@@std@@PAX@std@@AAPAU12@@std@@YAPAU?$_Tree_node@U?$pair@$$CBKUSNetworkActorData@@@std@@PAX@0@AAPAU10@0@Z ; std::exchange<std::_Tree_node<std::pair<unsigned long const ,SNetworkActorData>,void *> *,std::_Tree_node<std::pair<unsigned long const ,SNetworkActorData>,void *> * &>
PUBLIC	??$_Lower_bound_duplicate@K@?$_Tree@V?$_Tmap_traits@KUSNetworkActorData@@U?$less@K@std@@V?$allocator@U?$pair@$$CBKUSNetworkActorData@@@std@@@3@$0A@@std@@@std@@IBE_NQAU?$_Tree_node@U?$pair@$$CBKUSNetworkActorData@@@std@@PAX@1@ABK@Z ; std::_Tree<std::_Tmap_traits<unsigned long,SNetworkActorData,std::less<unsigned long>,std::allocator<std::pair<unsigned long const ,SNetworkActorData> >,0> >::_Lower_bound_duplicate<unsigned long>
PUBLIC	??$_Find_lower_bound@K@?$_Tree@V?$_Tmap_traits@KUSNetworkActorData@@U?$less@K@std@@V?$allocator@U?$pair@$$CBKUSNetworkActorData@@@std@@@3@$0A@@std@@@std@@IBE?AU?$_Tree_find_result@PAU?$_Tree_node@U?$pair@$$CBKUSNetworkActorData@@@std@@PAX@std@@@1@ABK@Z ; std::_Tree<std::_Tmap_traits<unsigned long,SNetworkActorData,std::less<unsigned long>,std::allocator<std::pair<unsigned long const ,SNetworkActorData> >,0> >::_Find_lower_bound<unsigned long>
PUBLIC	??$?0AAPAU?$_Tree_node@U?$pair@$$CBKUSNetworkActorData@@@std@@PAX@std@@AAPAU01@$0A@@?$pair@PAU?$_Tree_node@U?$pair@$$CBKUSNetworkActorData@@@std@@PAX@std@@PAU12@@std@@QAE@AAPAU?$_Tree_node@U?$pair@$$CBKUSNetworkActorData@@@std@@PAX@1@0@Z ; std::pair<std::_Tree_node<std::pair<unsigned long const ,SNetworkActorData>,void *> *,std::_Tree_node<std::pair<unsigned long const ,SNetworkActorData>,void *> *>::pair<std::_Tree_node<std::pair<unsigned long const ,SNetworkActorData>,void *> *,std::_Tree_node<std::pair<unsigned long const ,SNetworkActorData>,void *> *><std::_Tree_node<std::pair<unsigned long const ,SNetworkActorData>,void *> * &,std::_Tree_node<std::pair<unsigned long const ,SNetworkActorData>,void *> * &,0>
PUBLIC	??$_Kfn@$$CBKUSNetworkActorData@@@?$_Tmap_traits@KUSNetworkActorData@@U?$less@K@std@@V?$allocator@U?$pair@$$CBKUSNetworkActorData@@@std@@@3@$0A@@std@@SAABKABU?$pair@$$CBKUSNetworkActorData@@@1@@Z ; std::_Tmap_traits<unsigned long,SNetworkActorData,std::less<unsigned long>,std::allocator<std::pair<unsigned long const ,SNetworkActorData> >,0>::_Kfn<unsigned long const ,SNetworkActorData>
PUBLIC	??0?$_Tree_unchecked_iterator@V?$_Tree_val@U?$_Tree_simple_types@U?$pair@$$CBKUSNetworkActorData@@@std@@@std@@@std@@@std@@QAE@PAU?$_Tree_node@U?$pair@$$CBKUSNetworkActorData@@@std@@PAX@1@PBV?$_Tree_val@U?$_Tree_simple_types@U?$pair@$$CBKUSNetworkActorData@@@std@@@std@@@1@@Z ; std::_Tree_unchecked_iterator<std::_Tree_val<std::_Tree_simple_types<std::pair<unsigned long const ,SNetworkActorData> > > >::_Tree_unchecked_iterator<std::_Tree_val<std::_Tree_simple_types<std::pair<unsigned long const ,SNetworkActorData> > > >
PUBLIC	??0?$_Tree@V?$_Tmap_traits@KUSNetworkActorData@@U?$less@K@std@@V?$allocator@U?$pair@$$CBKUSNetworkActorData@@@std@@@3@$0A@@std@@@std@@QAE@ABU?$less@K@1@@Z ; std::_Tree<std::_Tmap_traits<unsigned long,SNetworkActorData,std::less<unsigned long>,std::allocator<std::pair<unsigned long const ,SNetworkActorData> >,0> >::_Tree<std::_Tmap_traits<unsigned long,SNetworkActorData,std::less<unsigned long>,std::allocator<std::pair<unsigned long const ,SNetworkActorData> >,0> >
PUBLIC	?_Erase_unchecked@?$_Tree@V?$_Tmap_traits@KUSNetworkActorData@@U?$less@K@std@@V?$allocator@U?$pair@$$CBKUSNetworkActorData@@@std@@@3@$0A@@std@@@std@@AAEPAU?$_Tree_node@U?$pair@$$CBKUSNetworkActorData@@@std@@PAX@2@V?$_Tree_unchecked_const_iterator@V?$_Tree_val@U?$_Tree_simple_types@U?$pair@$$CBKUSNetworkActorData@@@std@@@std@@@std@@U_Iterator_base0@2@@2@@Z ; std::_Tree<std::_Tmap_traits<unsigned long,SNetworkActorData,std::less<unsigned long>,std::allocator<std::pair<unsigned long const ,SNetworkActorData> >,0> >::_Erase_unchecked
PUBLIC	?_Erase@?$_Tree@V?$_Tmap_traits@KUSNetworkActorData@@U?$less@K@std@@V?$allocator@U?$pair@$$CBKUSNetworkActorData@@@std@@@3@$0A@@std@@@std@@AAEIU?$pair@PAU?$_Tree_node@U?$pair@$$CBKUSNetworkActorData@@@std@@PAX@std@@PAU12@@2@@Z ; std::_Tree<std::_Tmap_traits<unsigned long,SNetworkActorData,std::less<unsigned long>,std::allocator<std::pair<unsigned long const ,SNetworkActorData> >,0> >::_Erase
PUBLIC	?_Getal@?$_Tree@V?$_Tmap_traits@KUSNetworkActorData@@U?$less@K@std@@V?$allocator@U?$pair@$$CBKUSNetworkActorData@@@std@@@3@$0A@@std@@@std@@IAEAAV?$allocator@U?$_Tree_node@U?$pair@$$CBKUSNetworkActorData@@@std@@PAX@std@@@2@XZ ; std::_Tree<std::_Tmap_traits<unsigned long,SNetworkActorData,std::less<unsigned long>,std::allocator<std::pair<unsigned long const ,SNetworkActorData> >,0> >::_Getal
PUBLIC	?_Get_scary@?$_Tree@V?$_Tmap_traits@KUSNetworkActorData@@U?$less@K@std@@V?$allocator@U?$pair@$$CBKUSNetworkActorData@@@std@@@3@$0A@@std@@@std@@IAEPAV?$_Tree_val@U?$_Tree_simple_types@U?$pair@$$CBKUSNetworkActorData@@@std@@@std@@@2@XZ ; std::_Tree<std::_Tmap_traits<unsigned long,SNetworkActorData,std::less<unsigned long>,std::allocator<std::pair<unsigned long const ,SNetworkActorData> >,0> >::_Get_scary
PUBLIC	?_Orphan_ptr@?$_Tree_val@U?$_Tree_simple_types@U?$pair@$$CBKUSNetworkActorData@@@std@@@std@@@std@@QAEXQAU?$_Tree_node@U?$pair@$$CBKUSNetworkActorData@@@std@@PAX@2@@Z ; std::_Tree_val<std::_Tree_simple_types<std::pair<unsigned long const ,SNetworkActorData> > >::_Orphan_ptr
PUBLIC	??E?$_Tree_const_iterator@V?$_Tree_val@U?$_Tree_simple_types@U?$pair@$$CBKUSNetworkActorData@@@std@@@std@@@std@@@std@@QAEAAV01@XZ ; std::_Tree_const_iterator<std::_Tree_val<std::_Tree_simple_types<std::pair<unsigned long const ,SNetworkActorData> > > >::operator++
PUBLIC	??D?$_Tree_iterator@V?$_Tree_val@U?$_Tree_simple_types@U?$pair@$$CBKUSNetworkActorData@@@std@@@std@@@std@@@std@@QBEAAU?$pair@$$CBKUSNetworkActorData@@@1@XZ ; std::_Tree_iterator<std::_Tree_val<std::_Tree_simple_types<std::pair<unsigned long const ,SNetworkActorData> > > >::operator*
PUBLIC	?_Unwrapped@?$_Tree_iterator@V?$_Tree_val@U?$_Tree_simple_types@U?$pair@$$CBKUSNetworkActorData@@@std@@@std@@@std@@@std@@QBE?AV?$_Tree_unchecked_iterator@V?$_Tree_val@U?$_Tree_simple_types@U?$pair@$$CBKUSNetworkActorData@@@std@@@std@@@std@@@2@XZ ; std::_Tree_iterator<std::_Tree_val<std::_Tree_simple_types<std::pair<unsigned long const ,SNetworkActorData> > > >::_Unwrapped
PUBLIC	??0?$_Tree_unchecked_const_iterator@V?$_Tree_val@U?$_Tree_simple_types@U?$pair@$$CBKUSNetworkActorData@@@std@@@std@@@std@@U_Iterator_base0@2@@std@@QAE@PAU?$_Tree_node@U?$pair@$$CBKUSNetworkActorData@@@std@@PAX@1@PBV?$_Tree_val@U?$_Tree_simple_types@U?$pair@$$CBKUSNetworkActorData@@@std@@@std@@@1@@Z ; std::_Tree_unchecked_const_iterator<std::_Tree_val<std::_Tree_simple_types<std::pair<unsigned long const ,SNetworkActorData> > >,std::_Iterator_base0>::_Tree_unchecked_const_iterator<std::_Tree_val<std::_Tree_simple_types<std::pair<unsigned long const ,SNetworkActorData> > >,std::_Iterator_base0>
PUBLIC	?pointer_to@?$pointer_traits@PAU?$pair@$$CBKUSNetworkActorData@@@std@@@std@@SAPAU?$pair@$$CBKUSNetworkActorData@@@2@AAU32@@Z ; std::pointer_traits<std::pair<unsigned long const ,SNetworkActorData> *>::pointer_to
PUBLIC	??$_Pocca@V?$allocator@D@std@@@std@@YAXAAV?$allocator@D@0@ABV10@@Z ; std::_Pocca<std::allocator<char> >
PUBLIC	??$addressof@$$CBV?$basic_string@DU?$char_traits@D@std@@V?$allocator@D@2@@std@@@std@@YAPBV?$basic_string@DU?$char_traits@D@std@@V?$allocator@D@2@@0@ABV10@@Z ; std::addressof<std::basic_string<char,std::char_traits<char>,std::allocator<char> > const >
PUBLIC	??$_Emplace_one_at_back@K@?$vector@KV?$allocator@K@std@@@std@@AAEAAK$$QAK@Z ; std::vector<unsigned long,std::allocator<unsigned long> >::_Emplace_one_at_back<unsigned long>
PUBLIC	??$_Try_emplace@ABK$$V@?$map@KUSNetworkActorData@@U?$less@K@std@@V?$allocator@U?$pair@$$CBKUSNetworkActorData@@@std@@@3@@std@@AAE?AU?$pair@PAU?$_Tree_node@U?$pair@$$CBKUSNetworkActorData@@@std@@PAX@std@@_N@1@ABK@Z ; std::map<unsigned long,SNetworkActorData,std::less<unsigned long>,std::allocator<std::pair<unsigned long const ,SNetworkActorData> > >::_Try_emplace<unsigned long const &>
PUBLIC	??$_Erase_head@V?$allocator@U?$_Tree_node@U?$pair@$$CBKUSNetworkActorData@@@std@@PAX@std@@@std@@@?$_Tree_val@U?$_Tree_simple_types@U?$pair@$$CBKUSNetworkActorData@@@std@@@std@@@std@@QAEXAAV?$allocator@U?$_Tree_node@U?$pair@$$CBKUSNetworkActorData@@@std@@PAX@std@@@1@@Z ; std::_Tree_val<std::_Tree_simple_types<std::pair<unsigned long const ,SNetworkActorData> > >::_Erase_head<std::allocator<std::_Tree_node<std::pair<unsigned long const ,SNetworkActorData>,void *> > >
PUBLIC	??$_Erase_tree@V?$allocator@U?$_Tree_node@U?$pair@$$CBKUSNetworkActorData@@@std@@PAX@std@@@std@@@?$_Tree_val@U?$_Tree_simple_types@U?$pair@$$CBKUSNetworkActorData@@@std@@@std@@@std@@QAEXAAV?$allocator@U?$_Tree_node@U?$pair@$$CBKUSNetworkActorData@@@std@@PAX@std@@@1@PAU?$_Tree_node@U?$pair@$$CBKUSNetworkActorData@@@std@@PAX@1@@Z ; std::_Tree_val<std::_Tree_simple_types<std::pair<unsigned long const ,SNetworkActorData> > >::_Erase_tree<std::allocator<std::_Tree_node<std::pair<unsigned long const ,SNetworkActorData>,void *> > >
PUBLIC	??$_Find@K@?$_Tree@V?$_Tmap_traits@KUSNetworkActorData@@U?$less@K@std@@V?$allocator@U?$pair@$$CBKUSNetworkActorData@@@std@@@3@$0A@@std@@@std@@ABEPAU?$_Tree_node@U?$pair@$$CBKUSNetworkActorData@@@std@@PAX@1@ABK@Z ; std::_Tree<std::_Tmap_traits<unsigned long,SNetworkActorData,std::less<unsigned long>,std::allocator<std::pair<unsigned long const ,SNetworkActorData> >,0> >::_Find<unsigned long>
PUBLIC	??$_Eqrange@K@?$_Tree@V?$_Tmap_traits@KUSNetworkActorData@@U?$less@K@std@@V?$allocator@U?$pair@$$CBKUSNetworkActorData@@@std@@@3@$0A@@std@@@std@@IBE?AU?$pair@PAU?$_Tree_node@U?$pair@$$CBKUSNetworkActorData@@@std@@PAX@std@@PAU12@@1@ABK@Z ; std::_Tree<std::_Tmap_traits<unsigned long,SNetworkActorData,std::less<unsigned long>,std::allocator<std::pair<unsigned long const ,SNetworkActorData> >,0> >::_Eqrange<unsigned long>
PUBLIC	??0?$_Tree_const_iterator@V?$_Tree_val@U?$_Tree_simple_types@U?$pair@$$CBKUSNetworkActorData@@@std@@@std@@@std@@@std@@QAE@PAU?$_Tree_node@U?$pair@$$CBKUSNetworkActorData@@@std@@PAX@1@PBV?$_Tree_val@U?$_Tree_simple_types@U?$pair@$$CBKUSNetworkActorData@@@std@@@std@@@1@@Z ; std::_Tree_const_iterator<std::_Tree_val<std::_Tree_simple_types<std::pair<unsigned long const ,SNetworkActorData> > > >::_Tree_const_iterator<std::_Tree_val<std::_Tree_simple_types<std::pair<unsigned long const ,SNetworkActorData> > > >
PUBLIC	??0?$_Tree_iterator@V?$_Tree_val@U?$_Tree_simple_types@U?$pair@$$CBKUSNetworkActorData@@@std@@@std@@@std@@@std@@QAE@PAU?$_Tree_node@U?$pair@$$CBKUSNetworkActorData@@@std@@PAX@1@PBV?$_Tree_val@U?$_Tree_simple_types@U?$pair@$$CBKUSNetworkActorData@@@std@@@std@@@1@@Z ; std::_Tree_iterator<std::_Tree_val<std::_Tree_simple_types<std::pair<unsigned long const ,SNetworkActorData> > > >::_Tree_iterator<std::_Tree_val<std::_Tree_simple_types<std::pair<unsigned long const ,SNetworkActorData> > > >
PUBLIC	??4?$basic_string@DU?$char_traits@D@std@@V?$allocator@D@2@@std@@QAEAAV01@ABV01@@Z ; std::basic_string<char,std::char_traits<char>,std::allocator<char> >::operator=
PUBLIC	?push_back@?$vector@KV?$allocator@K@std@@@std@@QAEX$$QAK@Z ; std::vector<unsigned long,std::allocator<unsigned long> >::push_back
PUBLIC	??0?$map@KUSNetworkActorData@@U?$less@K@std@@V?$allocator@U?$pair@$$CBKUSNetworkActorData@@@std@@@3@@std@@QAE@XZ ; std::map<unsigned long,SNetworkActorData,std::less<unsigned long>,std::allocator<std::pair<unsigned long const ,SNetworkActorData> > >::map<unsigned long,SNetworkActorData,std::less<unsigned long>,std::allocator<std::pair<unsigned long const ,SNetworkActorData> > >
PUBLIC	??A?$map@KUSNetworkActorData@@U?$less@K@std@@V?$allocator@U?$pair@$$CBKUSNetworkActorData@@@std@@@3@@std@@QAEAAUSNetworkActorData@@ABK@Z ; std::map<unsigned long,SNetworkActorData,std::less<unsigned long>,std::allocator<std::pair<unsigned long const ,SNetworkActorData> > >::operator[]
PUBLIC	??1?$_Tree@V?$_Tmap_traits@KUSNetworkActorData@@U?$less@K@std@@V?$allocator@U?$pair@$$CBKUSNetworkActorData@@@std@@@3@$0A@@std@@@std@@QAE@XZ ; std::_Tree<std::_Tmap_traits<unsigned long,SNetworkActorData,std::less<unsigned long>,std::allocator<std::pair<unsigned long const ,SNetworkActorData> >,0> >::~_Tree<std::_Tmap_traits<unsigned long,SNetworkActorData,std::less<unsigned long>,std::allocator<std::pair<unsigned long const ,SNetworkActorData> >,0> >
PUBLIC	?begin@?$_Tree@V?$_Tmap_traits@KUSNetworkActorData@@U?$less@K@std@@V?$allocator@U?$pair@$$CBKUSNetworkActorData@@@std@@@3@$0A@@std@@@std@@QAE?AV?$_Tree_iterator@V?$_Tree_val@U?$_Tree_simple_types@U?$pair@$$CBKUSNetworkActorData@@@std@@@std@@@std@@@2@XZ ; std::_Tree<std::_Tmap_traits<unsigned long,SNetworkActorData,std::less<unsigned long>,std::allocator<std::pair<unsigned long const ,SNetworkActorData> >,0> >::begin
PUBLIC	?end@?$_Tree@V?$_Tmap_traits@KUSNetworkActorData@@U?$less@K@std@@V?$allocator@U?$pair@$$CBKUSNetworkActorData@@@std@@@3@$0A@@std@@@std@@QAE?AV?$_Tree_iterator@V?$_Tree_val@U?$_Tree_simple_types@U?$pair@$$CBKUSNetworkActorData@@@std@@@std@@@std@@@2@XZ ; std::_Tree<std::_Tmap_traits<unsigned long,SNetworkActorData,std::less<unsigned long>,std::allocator<std::pair<unsigned long const ,SNetworkActorData> >,0> >::end
PUBLIC	?erase@?$_Tree@V?$_Tmap_traits@KUSNetworkActorData@@U?$less@K@std@@V?$allocator@U?$pair@$$CBKUSNetworkActorData@@@std@@@3@$0A@@std@@@std@@QAEIABK@Z ; std::_Tree<std::_Tmap_traits<unsigned long,SNetworkActorData,std::less<unsigned long>,std::allocator<std::pair<unsigned long const ,SNetworkActorData> >,0> >::erase
PUBLIC	?clear@?$_Tree@V?$_Tmap_traits@KUSNetworkActorData@@U?$less@K@std@@V?$allocator@U?$pair@$$CBKUSNetworkActorData@@@std@@@3@$0A@@std@@@std@@QAEXXZ ; std::_Tree<std::_Tmap_traits<unsigned long,SNetworkActorData,std::less<unsigned long>,std::allocator<std::pair<unsigned long const ,SNetworkActorData> >,0> >::clear
PUBLIC	?find@?$_Tree@V?$_Tmap_traits@KUSNetworkActorData@@U?$less@K@std@@V?$allocator@U?$pair@$$CBKUSNetworkActorData@@@std@@@3@$0A@@std@@@std@@QAE?AV?$_Tree_iterator@V?$_Tree_val@U?$_Tree_simple_types@U?$pair@$$CBKUSNetworkActorData@@@std@@@std@@@std@@@2@ABK@Z ; std::_Tree<std::_Tmap_traits<unsigned long,SNetworkActorData,std::less<unsigned long>,std::allocator<std::pair<unsigned long const ,SNetworkActorData> >,0> >::find
PUBLIC	??8?$_Tree_const_iterator@V?$_Tree_val@U?$_Tree_simple_types@U?$pair@$$CBKUSNetworkActorData@@@std@@@std@@@std@@@std@@QBE_NABV01@@Z ; std::_Tree_const_iterator<std::_Tree_val<std::_Tree_simple_types<std::pair<unsigned long const ,SNetworkActorData> > > >::operator==
PUBLIC	??C?$_Tree_iterator@V?$_Tree_val@U?$_Tree_simple_types@U?$pair@$$CBKUSNetworkActorData@@@std@@@std@@@std@@@std@@QBEPAU?$pair@$$CBKUSNetworkActorData@@@1@XZ ; std::_Tree_iterator<std::_Tree_val<std::_Tree_simple_types<std::pair<unsigned long const ,SNetworkActorData> > > >::operator->
PUBLIC	??E?$_Tree_iterator@V?$_Tree_val@U?$_Tree_simple_types@U?$pair@$$CBKUSNetworkActorData@@@std@@@std@@@std@@@std@@QAEAAV01@XZ ; std::_Tree_iterator<std::_Tree_val<std::_Tree_simple_types<std::pair<unsigned long const ,SNetworkActorData> > > >::operator++
PUBLIC	??0?$_Tree_unchecked_const_iterator@V?$_Tree_val@U?$_Tree_simple_types@U?$pair@$$CBKUSNetworkActorData@@@std@@@std@@@std@@U_Iterator_base0@2@@std@@QAE@XZ ; std::_Tree_unchecked_const_iterator<std::_Tree_val<std::_Tree_simple_types<std::pair<unsigned long const ,SNetworkActorData> > >,std::_Iterator_base0>::_Tree_unchecked_const_iterator<std::_Tree_val<std::_Tree_simple_types<std::pair<unsigned long const ,SNetworkActorData> > >,std::_Iterator_base0>
PUBLIC	?Instance@?$CSingleton@VCPythonItem@@@@SAAAVCPythonItem@@XZ ; CSingleton<CPythonItem>::Instance
PUBLIC	??$erase@V?$_Tree_iterator@V?$_Tree_val@U?$_Tree_simple_types@U?$pair@$$CBKUSNetworkActorData@@@std@@@std@@@std@@@std@@$0A@@?$_Tree@V?$_Tmap_traits@KUSNetworkActorData@@U?$less@K@std@@V?$allocator@U?$pair@$$CBKUSNetworkActorData@@@std@@@3@$0A@@std@@@std@@QAE?AV?$_Tree_iterator@V?$_Tree_val@U?$_Tree_simple_types@U?$pair@$$CBKUSNetworkActorData@@@std@@@std@@@std@@@1@V21@@Z ; std::_Tree<std::_Tmap_traits<unsigned long,SNetworkActorData,std::less<unsigned long>,std::allocator<std::pair<unsigned long const ,SNetworkActorData> >,0> >::erase<std::_Tree_iterator<std::_Tree_val<std::_Tree_simple_types<std::pair<unsigned long const ,SNetworkActorData> > > >,0>
PUBLIC	?SetActorOwner@CNetworkActorManager@@QAEXKK@Z	; CNetworkActorManager::SetActorOwner
PUBLIC	?SyncActor@CNetworkActorManager@@QAEXKJJ@Z	; CNetworkActorManager::SyncActor
PUBLIC	?MoveActor@CNetworkActorManager@@QAEXABUSNetworkMoveActorData@@@Z ; CNetworkActorManager::MoveActor
PUBLIC	?UpdateActor@CNetworkActorManager@@QAEXABUSNetworkUpdateActorData@@@Z ; CNetworkActorManager::UpdateActor
PUBLIC	?RemoveActor@CNetworkActorManager@@QAEXK@Z	; CNetworkActorManager::RemoveActor
PUBLIC	?AppendActor@CNetworkActorManager@@QAEXABUSNetworkActorData@@@Z ; CNetworkActorManager::AppendActor
PUBLIC	??1SCreateData@CInstanceBase@@QAE@XZ		; CInstanceBase::SCreateData::~SCreateData
PUBLIC	??0SCreateData@CInstanceBase@@QAE@XZ		; CInstanceBase::SCreateData::SCreateData
PUBLIC	?__AppendCharacterManagerActor@CNetworkActorManager@@IAEPAVCInstanceBase@@AAUSNetworkActorData@@@Z ; CNetworkActorManager::__AppendCharacterManagerActor
PUBLIC	?__RemoveCharacterManagerActor@CNetworkActorManager@@IAEXAAUSNetworkActorData@@@Z ; CNetworkActorManager::__RemoveCharacterManagerActor
PUBLIC	?__GetCharacterManager@CNetworkActorManager@@IAEAAVCPythonCharacterManager@@XZ ; CNetworkActorManager::__GetCharacterManager
PUBLIC	?__IsMainActorVID@CNetworkActorManager@@IAE_NK@Z ; CNetworkActorManager::__IsMainActorVID
PUBLIC	?__IsVisiblePos@CNetworkActorManager@@IAE_NJJ@Z	; CNetworkActorManager::__IsVisiblePos
PUBLIC	?__IsVisibleActor@CNetworkActorManager@@IAE_NABUSNetworkActorData@@@Z ; CNetworkActorManager::__IsVisibleActor
PUBLIC	?__UpdateMainActor@CNetworkActorManager@@IAEXXZ	; CNetworkActorManager::__UpdateMainActor
PUBLIC	?__RemoveDynamicActors@CNetworkActorManager@@IAEXXZ ; CNetworkActorManager::__RemoveDynamicActors
PUBLIC	?__RemoveAllGroundItems@CNetworkActorManager@@IAEXXZ ; CNetworkActorManager::__RemoveAllGroundItems
PUBLIC	?__FindActor@CNetworkActorManager@@IAEPAVCInstanceBase@@AAUSNetworkActorData@@@Z ; CNetworkActorManager::__FindActor
PUBLIC	?__FindActor@CNetworkActorManager@@IAEPAVCInstanceBase@@AAUSNetworkActorData@@JJ@Z ; CNetworkActorManager::__FindActor
PUBLIC	??0?$_Tree_const_iterator@V?$_Tree_val@U?$_Tree_simple_types@U?$pair@$$CBKUSNetworkActorData@@@std@@@std@@@std@@@std@@QAE@XZ ; std::_Tree_const_iterator<std::_Tree_val<std::_Tree_simple_types<std::pair<unsigned long const ,SNetworkActorData> > > >::_Tree_const_iterator<std::_Tree_val<std::_Tree_simple_types<std::pair<unsigned long const ,SNetworkActorData> > > >
PUBLIC	??0?$_Tree_iterator@V?$_Tree_val@U?$_Tree_simple_types@U?$pair@$$CBKUSNetworkActorData@@@std@@@std@@@std@@@std@@QAE@XZ ; std::_Tree_iterator<std::_Tree_val<std::_Tree_simple_types<std::pair<unsigned long const ,SNetworkActorData> > > >::_Tree_iterator<std::_Tree_val<std::_Tree_simple_types<std::pair<unsigned long const ,SNetworkActorData> > > >
PUBLIC	?__OLD_Update@CNetworkActorManager@@IAEXXZ	; CNetworkActorManager::__OLD_Update
PUBLIC	?Update@CNetworkActorManager@@QAEXXZ		; CNetworkActorManager::Update
PUBLIC	?SetMainActorVID@CNetworkActorManager@@QAEXK@Z	; CNetworkActorManager::SetMainActorVID
PUBLIC	?Destroy@CNetworkActorManager@@QAEXXZ		; CNetworkActorManager::Destroy
PUBLIC	??1CNetworkActorManager@@UAE@XZ			; CNetworkActorManager::~CNetworkActorManager
PUBLIC	??1?$map@KUSNetworkActorData@@U?$less@K@std@@V?$allocator@U?$pair@$$CBKUSNetworkActorData@@@std@@@3@@std@@QAE@XZ ; std::map<unsigned long,SNetworkActorData,std::less<unsigned long>,std::allocator<std::pair<unsigned long const ,SNetworkActorData> > >::~map<unsigned long,SNetworkActorData,std::less<unsigned long>,std::allocator<std::pair<unsigned long const ,SNetworkActorData> > >
PUBLIC	??_GCNetworkActorManager@@UAEPAXI@Z		; CNetworkActorManager::`scalar deleting destructor'
PUBLIC	??0CNetworkActorManager@@QAE@XZ			; CNetworkActorManager::CNetworkActorManager
PUBLIC	??0SNetworkActorData@@QAE@XZ			; SNetworkActorData::SNetworkActorData
PUBLIC	?__copy__@SNetworkActorData@@QAEXABU1@@Z	; SNetworkActorData::__copy__
PUBLIC	??4SNetworkActorData@@QAEXABU0@@Z		; SNetworkActorData::operator=
PUBLIC	??0SNetworkActorData@@QAE@ABU0@@Z		; SNetworkActorData::SNetworkActorData
PUBLIC	?SetPosition@SNetworkActorData@@QAEXJJ@Z	; SNetworkActorData::SetPosition
PUBLIC	?SetDstPosition@SNetworkActorData@@QAEXKJJK@Z	; SNetworkActorData::SetDstPosition
PUBLIC	?UpdatePosition@SNetworkActorData@@QAEXXZ	; SNetworkActorData::UpdatePosition
EXTRN	??_ECNetworkActorManager@@UAEPAXI@Z:PROC	; CNetworkActorManager::`vector deleting destructor'
;	COMDAT xdata$x
xdata$x	SEGMENT
__ehfuncinfo$??0SNetworkActorData@@QAE@ABU0@@Z DD 019930522H
	DD	01H
	DD	FLAT:__unwindtable$??0SNetworkActorData@@QAE@ABU0@@Z
	DD	2 DUP(00H)
	DD	2 DUP(00H)
	DD	00H
	DD	01H
__unwindtable$??0SNetworkActorData@@QAE@ABU0@@Z DD 0ffffffffH
	DD	FLAT:__unwindfunclet$??0SNetworkActorData@@QAE@ABU0@@Z$0
xdata$x	ENDS
;	COMDAT xdata$x
xdata$x	SEGMENT
__ehfuncinfo$??0SNetworkActorData@@QAE@XZ DD 019930522H
	DD	01H
	DD	FLAT:__unwindtable$??0SNetworkActorData@@QAE@XZ
	DD	2 DUP(00H)
	DD	2 DUP(00H)
	DD	00H
	DD	01H
__unwindtable$??0SNetworkActorData@@QAE@XZ DD 0ffffffffH
	DD	FLAT:__unwindfunclet$??0SNetworkActorData@@QAE@XZ$0
xdata$x	ENDS
;	COMDAT xdata$x
xdata$x	SEGMENT
__ehfuncinfo$??0CNetworkActorManager@@QAE@XZ DD 019930522H
	DD	01H
	DD	FLAT:__unwindtable$??0CNetworkActorManager@@QAE@XZ
	DD	2 DUP(00H)
	DD	2 DUP(00H)
	DD	00H
	DD	01H
__unwindtable$??0CNetworkActorManager@@QAE@XZ DD 0ffffffffH
	DD	FLAT:__unwindfunclet$??0CNetworkActorManager@@QAE@XZ$0
xdata$x	ENDS
;	COMDAT xdata$x
xdata$x	SEGMENT
__ehfuncinfo$?__RemoveDynamicActors@CNetworkActorManager@@IAEXXZ DD 019930522H
	DD	01H
	DD	FLAT:__unwindtable$?__RemoveDynamicActors@CNetworkActorManager@@IAEXXZ
	DD	2 DUP(00H)
	DD	2 DUP(00H)
	DD	00H
	DD	01H
__unwindtable$?__RemoveDynamicActors@CNetworkActorManager@@IAEXXZ DD 0ffffffffH
	DD	FLAT:__unwindfunclet$?__RemoveDynamicActors@CNetworkActorManager@@IAEXXZ$0
xdata$x	ENDS
;	COMDAT xdata$x
xdata$x	SEGMENT
__ehfuncinfo$?__AppendCharacterManagerActor@CNetworkActorManager@@IAEPAVCInstanceBase@@AAUSNetworkActorData@@@Z DD 019930522H
	DD	01H
	DD	FLAT:__unwindtable$?__AppendCharacterManagerActor@CNetworkActorManager@@IAEPAVCInstanceBase@@AAUSNetworkActorData@@@Z
	DD	2 DUP(00H)
	DD	2 DUP(00H)
	DD	00H
	DD	01H
__unwindtable$?__AppendCharacterManagerActor@CNetworkActorManager@@IAEPAVCInstanceBase@@AAUSNetworkActorData@@@Z DD 0ffffffffH
	DD	FLAT:__unwindfunclet$?__AppendCharacterManagerActor@CNetworkActorManager@@IAEPAVCInstanceBase@@AAUSNetworkActorData@@@Z$0
xdata$x	ENDS
;	COMDAT xdata$x
xdata$x	SEGMENT
__ehfuncinfo$?AppendActor@CNetworkActorManager@@QAEXABUSNetworkActorData@@@Z DD 019930522H
	DD	02H
	DD	FLAT:__unwindtable$?AppendActor@CNetworkActorManager@@QAEXABUSNetworkActorData@@@Z
	DD	2 DUP(00H)
	DD	2 DUP(00H)
	DD	00H
	DD	01H
__unwindtable$?AppendActor@CNetworkActorManager@@QAEXABUSNetworkActorData@@@Z DD 0ffffffffH
	DD	FLAT:__unwindfunclet$?AppendActor@CNetworkActorManager@@QAEXABUSNetworkActorData@@@Z$2
	DD	0ffffffffH
	DD	FLAT:__unwindfunclet$?AppendActor@CNetworkActorManager@@QAEXABUSNetworkActorData@@@Z$1
xdata$x	ENDS
;	COMDAT xdata$x
xdata$x	SEGMENT
__ehfuncinfo$??A?$map@KUSNetworkActorData@@U?$less@K@std@@V?$allocator@U?$pair@$$CBKUSNetworkActorData@@@std@@@3@@std@@QAEAAUSNetworkActorData@@ABK@Z DD 019930522H
	DD	02H
	DD	FLAT:__unwindtable$??A?$map@KUSNetworkActorData@@U?$less@K@std@@V?$allocator@U?$pair@$$CBKUSNetworkActorData@@@std@@@3@@std@@QAEAAUSNetworkActorData@@ABK@Z
	DD	2 DUP(00H)
	DD	2 DUP(00H)
	DD	00H
	DD	01H
__unwindtable$??A?$map@KUSNetworkActorData@@U?$less@K@std@@V?$allocator@U?$pair@$$CBKUSNetworkActorData@@@std@@@3@@std@@QAEAAUSNetworkActorData@@ABK@Z DD 0ffffffffH
	DD	FLAT:__unwindfunclet$??A?$map@KUSNetworkActorData@@U?$less@K@std@@V?$allocator@U?$pair@$$CBKUSNetworkActorData@@@std@@@3@@std@@QAEAAUSNetworkActorData@@ABK@Z$2
	DD	0ffffffffH
	DD	FLAT:__unwindfunclet$??A?$map@KUSNetworkActorData@@U?$less@K@std@@V?$allocator@U?$pair@$$CBKUSNetworkActorData@@@std@@@3@@std@@QAEAAUSNetworkActorData@@ABK@Z$1
xdata$x	ENDS
;	COMDAT xdata$x
xdata$x	SEGMENT
__ehfuncinfo$??$_Try_emplace@ABK$$V@?$map@KUSNetworkActorData@@U?$less@K@std@@V?$allocator@U?$pair@$$CBKUSNetworkActorData@@@std@@@3@@std@@AAE?AU?$pair@PAU?$_Tree_node@U?$pair@$$CBKUSNetworkActorData@@@std@@PAX@std@@_N@1@ABK@Z DD 019930522H
	DD	02H
	DD	FLAT:__unwindtable$??$_Try_emplace@ABK$$V@?$map@KUSNetworkActorData@@U?$less@K@std@@V?$allocator@U?$pair@$$CBKUSNetworkActorData@@@std@@@3@@std@@AAE?AU?$pair@PAU?$_Tree_node@U?$pair@$$CBKUSNetworkActorData@@@std@@PAX@std@@_N@1@ABK@Z
	DD	2 DUP(00H)
	DD	2 DUP(00H)
	DD	00H
	DD	01H
__unwindtable$??$_Try_emplace@ABK$$V@?$map@KUSNetworkActorData@@U?$less@K@std@@V?$allocator@U?$pair@$$CBKUSNetworkActorData@@@std@@@3@@std@@AAE?AU?$pair@PAU?$_Tree_node@U?$pair@$$CBKUSNetworkActorData@@@std@@PAX@std@@_N@1@ABK@Z DD 0ffffffffH
	DD	FLAT:__unwindfunclet$??$_Try_emplace@ABK$$V@?$map@KUSNetworkActorData@@U?$less@K@std@@V?$allocator@U?$pair@$$CBKUSNetworkActorData@@@std@@@3@@std@@AAE?AU?$pair@PAU?$_Tree_node@U?$pair@$$CBKUSNetworkActorData@@@std@@PAX@std@@_N@1@ABK@Z$2
	DD	0ffffffffH
	DD	FLAT:__unwindfunclet$??$_Try_emplace@ABK$$V@?$map@KUSNetworkActorData@@U?$less@K@std@@V?$allocator@U?$pair@$$CBKUSNetworkActorData@@@std@@@3@@std@@AAE?AU?$pair@PAU?$_Tree_node@U?$pair@$$CBKUSNetworkActorData@@@std@@PAX@std@@_N@1@ABK@Z$1
xdata$x	ENDS
;	COMDAT xdata$x
xdata$x	SEGMENT
__ehfuncinfo$??$?0ABUpiecewise_construct_t@std@@V?$tuple@ABK@1@V?$tuple@$$V@1@@?$_Tree_temp_node@V?$allocator@U?$_Tree_node@U?$pair@$$CBKUSNetworkActorData@@@std@@PAX@std@@@std@@@std@@QAE@AAV?$allocator@U?$_Tree_node@U?$pair@$$CBKUSNetworkActorData@@@std@@PAX@std@@@1@PAU?$_Tree_node@U?$pair@$$CBKUSNetworkActorData@@@std@@PAX@1@ABUpiecewise_construct_t@1@$$QAV?$tuple@ABK@1@$$QAV?$tuple@$$V@1@@Z DD 019930522H
	DD	02H
	DD	FLAT:__unwindtable$??$?0ABUpiecewise_construct_t@std@@V?$tuple@ABK@1@V?$tuple@$$V@1@@?$_Tree_temp_node@V?$allocator@U?$_Tree_node@U?$pair@$$CBKUSNetworkActorData@@@std@@PAX@std@@@std@@@std@@QAE@AAV?$allocator@U?$_Tree_node@U?$pair@$$CBKUSNetworkActorData@@@std@@PAX@std@@@1@PAU?$_Tree_node@U?$pair@$$CBKUSNetworkActorData@@@std@@PAX@1@ABUpiecewise_construct_t@1@$$QAV?$tuple@ABK@1@$$QAV?$tuple@$$V@1@@Z
	DD	2 DUP(00H)
	DD	2 DUP(00H)
	DD	00H
	DD	01H
__unwindtable$??$?0ABUpiecewise_construct_t@std@@V?$tuple@ABK@1@V?$tuple@$$V@1@@?$_Tree_temp_node@V?$allocator@U?$_Tree_node@U?$pair@$$CBKUSNetworkActorData@@@std@@PAX@std@@@std@@@std@@QAE@AAV?$allocator@U?$_Tree_node@U?$pair@$$CBKUSNetworkActorData@@@std@@PAX@std@@@1@PAU?$_Tree_node@U?$pair@$$CBKUSNetworkActorData@@@std@@PAX@1@ABUpiecewise_construct_t@1@$$QAV?$tuple@ABK@1@$$QAV?$tuple@$$V@1@@Z DD 0ffffffffH
	DD	FLAT:__unwindfunclet$??$?0ABUpiecewise_construct_t@std@@V?$tuple@ABK@1@V?$tuple@$$V@1@@?$_Tree_temp_node@V?$allocator@U?$_Tree_node@U?$pair@$$CBKUSNetworkActorData@@@std@@PAX@std@@@std@@@std@@QAE@AAV?$allocator@U?$_Tree_node@U?$pair@$$CBKUSNetworkActorData@@@std@@PAX@std@@@1@PAU?$_Tree_node@U?$pair@$$CBKUSNetworkActorData@@@std@@PAX@1@ABUpiecewise_construct_t@1@$$QAV?$tuple@ABK@1@$$QAV?$tuple@$$V@1@@Z$1
	DD	0ffffffffH
	DD	FLAT:__unwindfunclet$??$?0ABUpiecewise_construct_t@std@@V?$tuple@ABK@1@V?$tuple@$$V@1@@?$_Tree_temp_node@V?$allocator@U?$_Tree_node@U?$pair@$$CBKUSNetworkActorData@@@std@@PAX@std@@@std@@@std@@QAE@AAV?$allocator@U?$_Tree_node@U?$pair@$$CBKUSNetworkActorData@@@std@@PAX@std@@@1@PAU?$_Tree_node@U?$pair@$$CBKUSNetworkActorData@@@std@@PAX@1@ABUpiecewise_construct_t@1@$$QAV?$tuple@ABK@1@$$QAV?$tuple@$$V@1@@Z$0
xdata$x	ENDS
;	COMDAT xdata$x
xdata$x	SEGMENT
__ehfuncinfo$??0?$_Tree_temp_node_alloc@V?$allocator@U?$_Tree_node@U?$pair@$$CBKUSNetworkActorData@@@std@@PAX@std@@@std@@@std@@QAE@AAV?$allocator@U?$_Tree_node@U?$pair@$$CBKUSNetworkActorData@@@std@@PAX@std@@@1@@Z DD 019930522H
	DD	01H
	DD	FLAT:__unwindtable$??0?$_Tree_temp_node_alloc@V?$allocator@U?$_Tree_node@U?$pair@$$CBKUSNetworkActorData@@@std@@PAX@std@@@std@@@std@@QAE@AAV?$allocator@U?$_Tree_node@U?$pair@$$CBKUSNetworkActorData@@@std@@PAX@std@@@1@@Z
	DD	2 DUP(00H)
	DD	2 DUP(00H)
	DD	00H
	DD	01H
__unwindtable$??0?$_Tree_temp_node_alloc@V?$allocator@U?$_Tree_node@U?$pair@$$CBKUSNetworkActorData@@@std@@PAX@std@@@std@@@std@@QAE@AAV?$allocator@U?$_Tree_node@U?$pair@$$CBKUSNetworkActorData@@@std@@PAX@std@@@1@@Z DD 0ffffffffH
	DD	FLAT:__unwindfunclet$??0?$_Tree_temp_node_alloc@V?$allocator@U?$_Tree_node@U?$pair@$$CBKUSNetworkActorData@@@std@@PAX@std@@@std@@@std@@QAE@AAV?$allocator@U?$_Tree_node@U?$pair@$$CBKUSNetworkActorData@@@std@@PAX@std@@@1@@Z$0
; Function compile flags: /Ogtp
; File D:\_m2work\txoko-m2-work\txoko-client-src\source\UserInterface\NetworkActorManager.cpp
;	COMDAT ?UpdatePosition@SNetworkActorData@@QAEXXZ
_TEXT	SEGMENT
?UpdatePosition@SNetworkActorData@@QAEXXZ PROC		; SNetworkActorData::UpdatePosition, COMDAT
; _this$ = ecx

; 9    : {

  00000	56		 push	 esi
  00001	57		 push	 edi
  00002	8b f1		 mov	 esi, ecx

; 10   : 	DWORD dwClientCurTime=ELTimer_GetMSec();

  00004	e8 00 00 00 00	 call	 ?ELTimer_GetMSec@@YAKXZ	; ELTimer_GetMSec

; 11   : 	DWORD dwElapsedTime=dwClientCurTime-m_dwClientSrcTime;

  00009	2b 46 5c	 sub	 eax, DWORD PTR [esi+92]

; 12   : 
; 13   : 	if (dwElapsedTime<m_dwDuration)

  0000c	8b 56 60	 mov	 edx, DWORD PTR [esi+96]
  0000f	8b 7e 50	 mov	 edi, DWORD PTR [esi+80]
  00012	8b 4e 54	 mov	 ecx, DWORD PTR [esi+84]
  00015	3b c2		 cmp	 eax, edx
  00017	73 79		 jae	 SHORT $LN2@UpdatePosi

; 14   : 	{
; 15   : 		float fRate=float(dwElapsedTime)/float(m_dwDuration);

  00019	0f 57 c0	 xorps	 xmm0, xmm0
  0001c	0f 57 c9	 xorps	 xmm1, xmm1
  0001f	f2 0f 2a c0	 cvtsi2sd xmm0, eax
  00023	c1 e8 1f	 shr	 eax, 31			; 0000001fH
  00026	f2 0f 58 04 c5
	00 00 00 00	 addsd	 xmm0, QWORD PTR __xmm@41f00000000000000000000000000000[eax*8]

; 16   : 		m_lCurX=LONG((m_lDstX-m_lSrcX)*fRate+m_lSrcX);
; 17   : 		m_lCurY=LONG((m_lDstY-m_lSrcY)*fRate+m_lSrcY);

  0002f	8b 46 4c	 mov	 eax, DWORD PTR [esi+76]
  00032	2b c8		 sub	 ecx, eax
  00034	66 0f 5a d0	 cvtpd2ps xmm2, xmm0
  00038	0f 57 c0	 xorps	 xmm0, xmm0
  0003b	f2 0f 2a c2	 cvtsi2sd xmm0, edx
  0003f	c1 ea 1f	 shr	 edx, 31			; 0000001fH
  00042	f3 0f 2a c9	 cvtsi2ss xmm1, ecx
  00046	f2 0f 58 04 d5
	00 00 00 00	 addsd	 xmm0, QWORD PTR __xmm@41f00000000000000000000000000000[edx*8]
  0004f	8b 56 48	 mov	 edx, DWORD PTR [esi+72]
  00052	2b fa		 sub	 edi, edx
  00054	66 0f 5a c0	 cvtpd2ps xmm0, xmm0
  00058	f3 0f 5e d0	 divss	 xmm2, xmm0
  0005c	0f 57 c0	 xorps	 xmm0, xmm0
  0005f	f3 0f 2a c0	 cvtsi2ss xmm0, eax
  00063	f3 0f 59 ca	 mulss	 xmm1, xmm2
  00067	f3 0f 58 c8	 addss	 xmm1, xmm0
  0006b	0f 57 c0	 xorps	 xmm0, xmm0
  0006e	f3 0f 2a c2	 cvtsi2ss xmm0, edx
  00072	f3 0f 2c c9	 cvttss2si ecx, xmm1
  00076	0f 57 c9	 xorps	 xmm1, xmm1
  00079	f3 0f 2a cf	 cvtsi2ss xmm1, edi
  0007d	5f		 pop	 edi
  0007e	f3 0f 59 ca	 mulss	 xmm1, xmm2
  00082	f3 0f 58 c8	 addss	 xmm1, xmm0
  00086	f3 0f 2c c1	 cvttss2si eax, xmm1

; 18   : 	}
; 19   : 	else
; 20   : 	{
; 21   : 		m_lCurX=m_lDstX;
; 22   : 		m_lCurY=m_lDstY;
; 23   : 	}
; 24   : }

  0008a	89 46 40	 mov	 DWORD PTR [esi+64], eax
  0008d	89 4e 44	 mov	 DWORD PTR [esi+68], ecx
  00090	5e		 pop	 esi
  00091	c3		 ret	 0
$LN2@UpdatePosi:
  00092	89 7e 40	 mov	 DWORD PTR [esi+64], edi
  00095	5f		 pop	 edi
  00096	89 4e 44	 mov	 DWORD PTR [esi+68], ecx
  00099	5e		 pop	 esi
  0009a	c3		 ret	 0
?UpdatePosition@SNetworkActorData@@QAEXXZ ENDP		; SNetworkActorData::UpdatePosition
_TEXT	ENDS
; Function compile flags: /Ogtp
; File D:\_m2work\txoko-m2-work\txoko-client-src\source\UserInterface\NetworkActorManager.cpp
;	COMDAT ?SetDstPosition@SNetworkActorData@@QAEXKJJK@Z
_TEXT	SEGMENT
_dwServerTime$ = 8					; size = 4
_lDstX$ = 12						; size = 4
_lDstY$ = 16						; size = 4
_dwDuration$ = 20					; size = 4
?SetDstPosition@SNetworkActorData@@QAEXKJJK@Z PROC	; SNetworkActorData::SetDstPosition, COMDAT
; _this$ = ecx

; 27   : {

  00000	55		 push	 ebp
  00001	8b ec		 mov	 ebp, esp
  00003	56		 push	 esi
  00004	8b f1		 mov	 esi, ecx

; 28   : 	m_lSrcX=m_lCurX;

  00006	8b 46 40	 mov	 eax, DWORD PTR [esi+64]
  00009	89 46 48	 mov	 DWORD PTR [esi+72], eax

; 29   : 	m_lSrcY=m_lCurY;

  0000c	8b 46 44	 mov	 eax, DWORD PTR [esi+68]
  0000f	89 46 4c	 mov	 DWORD PTR [esi+76], eax

; 30   : 	m_lDstX=lDstX;

  00012	8b 45 0c	 mov	 eax, DWORD PTR _lDstX$[ebp]
  00015	89 46 50	 mov	 DWORD PTR [esi+80], eax

; 31   : 	m_lDstY=lDstY;

  00018	8b 45 10	 mov	 eax, DWORD PTR _lDstY$[ebp]
  0001b	89 46 54	 mov	 DWORD PTR [esi+84], eax

; 32   : 
; 33   : 	m_dwDuration=dwDuration;

  0001e	8b 45 14	 mov	 eax, DWORD PTR _dwDuration$[ebp]
  00021	89 46 60	 mov	 DWORD PTR [esi+96], eax

; 34   : 	m_dwServerSrcTime=dwServerTime;

  00024	8b 45 08	 mov	 eax, DWORD PTR _dwServerTime$[ebp]
  00027	89 46 58	 mov	 DWORD PTR [esi+88], eax

; 35   : 	m_dwClientSrcTime=ELTimer_GetMSec();		

  0002a	e8 00 00 00 00	 call	 ?ELTimer_GetMSec@@YAKXZ	; ELTimer_GetMSec
  0002f	89 46 5c	 mov	 DWORD PTR [esi+92], eax
  00032	5e		 pop	 esi

; 36   : }

  00033	5d		 pop	 ebp
  00034	c2 10 00	 ret	 16			; 00000010H
?SetDstPosition@SNetworkActorData@@QAEXKJJK@Z ENDP	; SNetworkActorData::SetDstPosition
_TEXT	ENDS
; Function compile flags: /Ogtp
; File D:\_m2work\txoko-m2-work\txoko-client-src\source\UserInterface\NetworkActorManager.cpp
;	COMDAT ?SetPosition@SNetworkActorData@@QAEXJJ@Z
_TEXT	SEGMENT
_lPosX$ = 8						; size = 4
_lPosY$ = 12						; size = 4
?SetPosition@SNetworkActorData@@QAEXJJ@Z PROC		; SNetworkActorData::SetPosition, COMDAT
; _this$ = ecx

; 39   : {

  00000	55		 push	 ebp
  00001	8b ec		 mov	 ebp, esp

; 40   : 	m_lDstX=m_lSrcX=m_lCurX=lPosX;

  00003	8b 45 08	 mov	 eax, DWORD PTR _lPosX$[ebp]
  00006	89 41 40	 mov	 DWORD PTR [ecx+64], eax
  00009	89 41 48	 mov	 DWORD PTR [ecx+72], eax
  0000c	89 41 50	 mov	 DWORD PTR [ecx+80], eax

; 41   : 	m_lDstY=m_lSrcY=m_lCurY=lPosY;

  0000f	8b 45 0c	 mov	 eax, DWORD PTR _lPosY$[ebp]
  00012	89 41 44	 mov	 DWORD PTR [ecx+68], eax
  00015	89 41 4c	 mov	 DWORD PTR [ecx+76], eax
  00018	89 41 54	 mov	 DWORD PTR [ecx+84], eax

; 42   : }

  0001b	5d		 pop	 ebp
  0001c	c2 08 00	 ret	 8
?SetPosition@SNetworkActorData@@QAEXJJ@Z ENDP		; SNetworkActorData::SetPosition
_TEXT	ENDS
; Function compile flags: /Ogtp
; File D:\_m2work\txoko-m2-work\txoko-client-src\source\UserInterface\NetworkActorManager.cpp
; File C:\Program Files\Microsoft Visual Studio\2022\Community\VC\Tools\MSVC\14.44.35207\include\xstring
; File D:\_m2work\txoko-m2-work\txoko-client-src\source\UserInterface\NetworkActorManager.cpp
;	COMDAT ??0SNetworkActorData@@QAE@ABU0@@Z
_TEXT	SEGMENT
_this$ = -16						; size = 4
__$EHRec$ = -12						; size = 12
_src$dead$ = 8						; size = 4
??0SNetworkActorData@@QAE@ABU0@@Z PROC			; SNetworkActorData::SNetworkActorData, COMDAT
; _this$ = ecx

; 46   : {

  00000	55		 push	 ebp
  00001	8b ec		 mov	 ebp, esp
  00003	6a ff		 push	 -1
  00005	68 00 00 00 00	 push	 __ehhandler$??0SNetworkActorData@@QAE@ABU0@@Z
  0000a	64 a1 00 00 00
	00		 mov	 eax, DWORD PTR fs:0
  00010	50		 push	 eax
  00011	51		 push	 ecx
  00012	56		 push	 esi
  00013	a1 00 00 00 00	 mov	 eax, DWORD PTR ___security_cookie
  00018	33 c5		 xor	 eax, ebp
  0001a	50		 push	 eax
  0001b	8d 45 f4	 lea	 eax, DWORD PTR __$EHRec$[ebp]
  0001e	64 a3 00 00 00
	00		 mov	 DWORD PTR fs:0, eax
  00024	8b f1		 mov	 esi, ecx
  00026	89 75 f0	 mov	 DWORD PTR _this$[ebp], esi
  00029	0f 57 c0	 xorps	 xmm0, xmm0
; File C:\Program Files\Microsoft Visual Studio\2022\Community\VC\Tools\MSVC\14.44.35207\include\xstring

; 493  :         _CONSTEXPR20 _Bxty() noexcept : _Buf() {} // user-provided, for fancy pointers

  0002c	0f 11 06	 movups	 XMMWORD PTR [esi], xmm0

; 860  :         _My_data._Mysize = 0;

  0002f	c7 46 10 00 00
	00 00		 mov	 DWORD PTR [esi+16], 0

; 861  :         _My_data._Myres  = _Small_string_capacity;

  00036	c7 46 14 0f 00
	00 00		 mov	 DWORD PTR [esi+20], 15	; 0000000fH

; 862  :         _My_data._Activate_SSO_buffer();
; 863  : 
; 864  :         // the _Traits::assign is last so the codegen doesn't think the char write can alias this
; 865  :         _Traits::assign(_My_data._Bx._Buf[0], _Elem());

  0003d	c6 06 00	 mov	 BYTE PTR [esi], 0
; File D:\_m2work\txoko-m2-work\txoko-client-src\source\UserInterface\NetworkActorManager.cpp

; 46   : {

  00040	8d 4e 18	 lea	 ecx, DWORD PTR [esi+24]
  00043	c7 45 fc 00 00
	00 00		 mov	 DWORD PTR __$EHRec$[ebp+8], 0
  0004a	e8 00 00 00 00	 call	 ??0CAffectFlagContainer@@QAE@XZ ; CAffectFlagContainer::CAffectFlagContainer

; 47   : 	__copy__(src);

  0004f	68 00 00 00 00	 push	 OFFSET ?s_kNetActorData@@3USNetworkActorData@@A
  00054	8b ce		 mov	 ecx, esi
  00056	e8 00 00 00 00	 call	 ?__copy__@SNetworkActorData@@QAEXABU1@@Z ; SNetworkActorData::__copy__

; 48   : }

  0005b	8b c6		 mov	 eax, esi
  0005d	8b 4d f4	 mov	 ecx, DWORD PTR __$EHRec$[ebp]
  00060	64 89 0d 00 00
	00 00		 mov	 DWORD PTR fs:0, ecx
  00067	59		 pop	 ecx
  00068	5e		 pop	 esi
  00069	8b e5		 mov	 esp, ebp
  0006b	5d		 pop	 ebp
  0006c	c2 04 00	 ret	 4
_TEXT	ENDS
;	COMDAT text$x
text$x	SEGMENT
__unwindfunclet$??0SNetworkActorData@@QAE@ABU0@@Z$0:
  00000	8b 4d f0	 mov	 ecx, DWORD PTR _this$[ebp]
  00003	e9 00 00 00 00	 jmp	 ??1?$basic_string@DU?$char_traits@D@std@@V?$allocator@D@2@@std@@QAE@XZ ; std::basic_string<char,std::char_traits<char>,std::allocator<char> >::~basic_string<char,std::char_traits<char>,std::allocator<char> >
  00008	cc		 int	 3
  00009	cc		 int	 3
  0000a	cc		 int	 3
  0000b	cc		 int	 3
  0000c	cc		 int	 3
__ehhandler$??0SNetworkActorData@@QAE@ABU0@@Z:
  0000d	90		 npad	 1
  0000e	90		 npad	 1
  0000f	8b 54 24 08	 mov	 edx, DWORD PTR [esp+8]
  00013	8d 42 0c	 lea	 eax, DWORD PTR [edx+12]
  00016	8b 4a f4	 mov	 ecx, DWORD PTR [edx-12]
  00019	33 c8		 xor	 ecx, eax
  0001b	e8 00 00 00 00	 call	 @__security_check_cookie@4
  00020	b8 00 00 00 00	 mov	 eax, OFFSET __ehfuncinfo$??0SNetworkActorData@@QAE@ABU0@@Z
  00025	e9 00 00 00 00	 jmp	 ___CxxFrameHandler3
text$x	ENDS
??0SNetworkActorData@@QAE@ABU0@@Z ENDP			; SNetworkActorData::SNetworkActorData
; Function compile flags: /Ogtp
; File D:\_m2work\txoko-m2-work\txoko-client-src\source\UserInterface\NetworkActorManager.cpp
;	COMDAT ??4SNetworkActorData@@QAEXABU0@@Z
_TEXT	SEGMENT
_src$ = 8						; size = 4
??4SNetworkActorData@@QAEXABU0@@Z PROC			; SNetworkActorData::operator=, COMDAT
; _this$ = ecx

; 51   : {

  00000	55		 push	 ebp
  00001	8b ec		 mov	 ebp, esp

; 53   : }

  00003	5d		 pop	 ebp

; 52   : 	__copy__(src);

  00004	e9 00 00 00 00	 jmp	 ?__copy__@SNetworkActorData@@QAEXABU1@@Z ; SNetworkActorData::__copy__
??4SNetworkActorData@@QAEXABU0@@Z ENDP			; SNetworkActorData::operator=
_TEXT	ENDS
; Function compile flags: /Ogtp
; File D:\_m2work\txoko-m2-work\txoko-client-src\source\UserInterface\NetworkActorManager.cpp
; File C:\Program Files\Microsoft Visual Studio\2022\Community\VC\Tools\MSVC\14.44.35207\include\xstring
; File D:\_m2work\txoko-m2-work\txoko-client-src\source\UserInterface\NetworkActorManager.cpp
;	COMDAT ?__copy__@SNetworkActorData@@QAEXABU1@@Z
_TEXT	SEGMENT
_src$ = 8						; size = 4
?__copy__@SNetworkActorData@@QAEXABU1@@Z PROC		; SNetworkActorData::__copy__, COMDAT
; _this$ = ecx

; 56   : {

  00000	55		 push	 ebp
  00001	8b ec		 mov	 ebp, esp
  00003	56		 push	 esi

; 57   : 	m_bType = src.m_bType;

  00004	8b 75 08	 mov	 esi, DWORD PTR _src$[ebp]
  00007	57		 push	 edi
  00008	8b f9		 mov	 edi, ecx
  0000a	0f b6 46 20	 movzx	 eax, BYTE PTR [esi+32]
  0000e	88 47 20	 mov	 BYTE PTR [edi+32], al

; 58   : 	m_dwVID = src.m_dwVID;
; 59   : 	m_dwStateFlags = src.m_dwStateFlags;
; 60   : 	m_dwEmpireID = src.m_dwEmpireID;
; 61   : 	m_dwRace = src.m_dwRace;
; 62   : 	m_dwMovSpd = src.m_dwMovSpd;
; 63   : 	m_dwAtkSpd = src.m_dwAtkSpd;
; 64   : 	m_fRot = src.m_fRot;
; 65   : 	m_lCurX = src.m_lCurX;
; 66   : 	m_lCurY = src.m_lCurY;
; 67   : 	m_lSrcX = src.m_lSrcX;
; 68   : 	m_lSrcY = src.m_lSrcY;
; 69   : 	m_lDstX = src.m_lDstX;
; 70   : 	m_lDstY = src.m_lDstY;
; 71   : 	m_kAffectFlags.CopyInstance(src.m_kAffectFlags);

  00011	8d 4f 18	 lea	 ecx, DWORD PTR [edi+24]
  00014	8b 46 24	 mov	 eax, DWORD PTR [esi+36]
  00017	89 47 24	 mov	 DWORD PTR [edi+36], eax
  0001a	8b 46 28	 mov	 eax, DWORD PTR [esi+40]
  0001d	89 47 28	 mov	 DWORD PTR [edi+40], eax
  00020	8b 46 2c	 mov	 eax, DWORD PTR [esi+44]
  00023	89 47 2c	 mov	 DWORD PTR [edi+44], eax
  00026	8b 46 30	 mov	 eax, DWORD PTR [esi+48]
  00029	89 47 30	 mov	 DWORD PTR [edi+48], eax
  0002c	8b 46 34	 mov	 eax, DWORD PTR [esi+52]
  0002f	89 47 34	 mov	 DWORD PTR [edi+52], eax
  00032	8b 46 38	 mov	 eax, DWORD PTR [esi+56]
  00035	89 47 38	 mov	 DWORD PTR [edi+56], eax
  00038	8b 46 3c	 mov	 eax, DWORD PTR [esi+60]
  0003b	89 47 3c	 mov	 DWORD PTR [edi+60], eax
  0003e	8b 46 40	 mov	 eax, DWORD PTR [esi+64]
  00041	89 47 40	 mov	 DWORD PTR [edi+64], eax
  00044	8b 46 44	 mov	 eax, DWORD PTR [esi+68]
  00047	89 47 44	 mov	 DWORD PTR [edi+68], eax
  0004a	8b 46 48	 mov	 eax, DWORD PTR [esi+72]
  0004d	89 47 48	 mov	 DWORD PTR [edi+72], eax
  00050	8b 46 4c	 mov	 eax, DWORD PTR [esi+76]
  00053	89 47 4c	 mov	 DWORD PTR [edi+76], eax
  00056	8b 46 50	 mov	 eax, DWORD PTR [esi+80]
  00059	89 47 50	 mov	 DWORD PTR [edi+80], eax
  0005c	8b 46 54	 mov	 eax, DWORD PTR [esi+84]
  0005f	89 47 54	 mov	 DWORD PTR [edi+84], eax
  00062	8d 46 18	 lea	 eax, DWORD PTR [esi+24]
  00065	50		 push	 eax
  00066	e8 00 00 00 00	 call	 ?CopyInstance@CAffectFlagContainer@@QAEXABV1@@Z ; CAffectFlagContainer::CopyInstance

; 72   : 	
; 73   : 	m_dwServerSrcTime = src.m_dwServerSrcTime;

  0006b	8b 46 58	 mov	 eax, DWORD PTR [esi+88]
  0006e	89 47 58	 mov	 DWORD PTR [edi+88], eax

; 74   : 	m_dwClientSrcTime = src.m_dwClientSrcTime;

  00071	8b 46 5c	 mov	 eax, DWORD PTR [esi+92]
  00074	89 47 5c	 mov	 DWORD PTR [edi+92], eax

; 75   : 	m_dwDuration = src.m_dwDuration;

  00077	8b 46 60	 mov	 eax, DWORD PTR [esi+96]
  0007a	89 47 60	 mov	 DWORD PTR [edi+96], eax

; 76   : 
; 77   : 	m_dwArmor = src.m_dwArmor;

  0007d	8b 46 64	 mov	 eax, DWORD PTR [esi+100]
  00080	89 47 64	 mov	 DWORD PTR [edi+100], eax

; 78   : 	m_dwWeapon = src.m_dwWeapon;

  00083	8b 46 68	 mov	 eax, DWORD PTR [esi+104]
  00086	89 47 68	 mov	 DWORD PTR [edi+104], eax

; 79   : 	m_dwHair = src.m_dwHair;

  00089	8b 46 6c	 mov	 eax, DWORD PTR [esi+108]
  0008c	89 47 6c	 mov	 DWORD PTR [edi+108], eax

; 80   : 
; 81   : 	m_dwOwnerVID = src.m_dwOwnerVID;

  0008f	8b 46 70	 mov	 eax, DWORD PTR [esi+112]
  00092	89 47 70	 mov	 DWORD PTR [edi+112], eax

; 82   : 
; 83   : 	m_sAlignment = src.m_sAlignment;

  00095	66 8b 46 74	 mov	 ax, WORD PTR [esi+116]
  00099	66 89 47 74	 mov	 WORD PTR [edi+116], ax

; 84   : 	m_byPKMode = src.m_byPKMode;

  0009d	0f b6 46 76	 movzx	 eax, BYTE PTR [esi+118]
  000a1	88 47 76	 mov	 BYTE PTR [edi+118], al

; 85   : 	m_dwMountVnum = src.m_dwMountVnum;

  000a4	8b 46 78	 mov	 eax, DWORD PTR [esi+120]
  000a7	89 47 78	 mov	 DWORD PTR [edi+120], eax

; 86   : 
; 87   : 	m_dwGuildID = src.m_dwGuildID;

  000aa	8b 46 7c	 mov	 eax, DWORD PTR [esi+124]
  000ad	89 47 7c	 mov	 DWORD PTR [edi+124], eax

; 88   : 	m_dwLevel = src.m_dwLevel;

  000b0	8b 86 80 00 00
	00		 mov	 eax, DWORD PTR [esi+128]
  000b6	89 87 80 00 00
	00		 mov	 DWORD PTR [edi+128], eax
; File C:\Program Files\Microsoft Visual Studio\2022\Community\VC\Tools\MSVC\14.44.35207\include\xstring

; 1395 :         if (this == _STD addressof(_Right)) {

  000bc	3b fe		 cmp	 edi, esi
  000be	74 14		 je	 SHORT $LN3@copy__

; 453  :         return _Myres > _Small_string_capacity;

  000c0	83 7e 14 0f	 cmp	 DWORD PTR [esi+20], 15	; 0000000fH

; 1434 :         assign(_Right._Mypair._Myval2._Myptr(), _Right._Mypair._Myval2._Mysize);

  000c4	8b 46 10	 mov	 eax, DWORD PTR [esi+16]

; 445  :         if (_Large_mode_engaged()) {

  000c7	76 02		 jbe	 SHORT $LN7@copy__

; 446  :             _Result = _Unfancy(_Bx._Ptr);

  000c9	8b 36		 mov	 esi, DWORD PTR [esi]
$LN7@copy__:

; 1434 :         assign(_Right._Mypair._Myval2._Myptr(), _Right._Mypair._Myval2._Mysize);

  000cb	50		 push	 eax
  000cc	56		 push	 esi
  000cd	8b cf		 mov	 ecx, edi
  000cf	e8 00 00 00 00	 call	 ?assign@?$basic_string@DU?$char_traits@D@std@@V?$allocator@D@2@@std@@QAEAAV12@QBDI@Z ; std::basic_string<char,std::char_traits<char>,std::allocator<char> >::assign
$LN3@copy__:
  000d4	5f		 pop	 edi
; File D:\_m2work\txoko-m2-work\txoko-client-src\source\UserInterface\NetworkActorManager.cpp

; 90   : }

  000d5	5e		 pop	 esi
  000d6	5d		 pop	 ebp
  000d7	c2 04 00	 ret	 4
?__copy__@SNetworkActorData@@QAEXABU1@@Z ENDP		; SNetworkActorData::__copy__
_TEXT	ENDS
; Function compile flags: /Ogtp
; File D:\_m2work\txoko-m2-work\txoko-client-src\source\UserInterface\NetworkActorManager.cpp
; File C:\Program Files\Microsoft Visual Studio\2022\Community\VC\Tools\MSVC\14.44.35207\include\xstring
; File D:\_m2work\txoko-m2-work\txoko-client-src\source\UserInterface\NetworkActorManager.cpp
; File C:\Program Files\Microsoft Visual Studio\2022\Community\VC\Tools\MSVC\14.44.35207\include\xstring
; File D:\_m2work\txoko-m2-work\txoko-client-src\source\UserInterface\NetworkActorManager.cpp
; File C:\Program Files\Microsoft Visual Studio\2022\Community\VC\Tools\MSVC\14.44.35207\include\xstring
; File D:\_m2work\txoko-m2-work\txoko-client-src\source\UserInterface\NetworkActorManager.cpp
; File C:\Program Files\Microsoft Visual Studio\2022\Community\VC\Tools\MSVC\14.44.35207\include\xstring
; File D:\_m2work\txoko-m2-work\txoko-client-src\source\UserInterface\NetworkActorManager.cpp
;	COMDAT ??0SNetworkActorData@@QAE@XZ
_TEXT	SEGMENT
_this$ = -16						; size = 4
__$EHRec$ = -12						; size = 12
??0SNetworkActorData@@QAE@XZ PROC			; SNetworkActorData::SNetworkActorData, COMDAT
; _this$ = ecx

; 94   : {

  00000	55		 push	 ebp
  00001	8b ec		 mov	 ebp, esp
  00003	6a ff		 push	 -1
  00005	68 00 00 00 00	 push	 __ehhandler$??0SNetworkActorData@@QAE@XZ
  0000a	64 a1 00 00 00
	00		 mov	 eax, DWORD PTR fs:0
  00010	50		 push	 eax
  00011	51		 push	 ecx
  00012	56		 push	 esi
  00013	a1 00 00 00 00	 mov	 eax, DWORD PTR ___security_cookie
  00018	33 c5		 xor	 eax, ebp
  0001a	50		 push	 eax
  0001b	8d 45 f4	 lea	 eax, DWORD PTR __$EHRec$[ebp]
  0001e	64 a3 00 00 00
	00		 mov	 DWORD PTR fs:0, eax
  00024	8b d1		 mov	 edx, ecx
  00026	89 55 f0	 mov	 DWORD PTR _this$[ebp], edx
  00029	0f 57 c0	 xorps	 xmm0, xmm0
; File C:\Program Files\Microsoft Visual Studio\2022\Community\VC\Tools\MSVC\14.44.35207\include\xstring

; 493  :         _CONSTEXPR20 _Bxty() noexcept : _Buf() {} // user-provided, for fancy pointers

  0002c	0f 11 02	 movups	 XMMWORD PTR [edx], xmm0

; 861  :         _My_data._Myres  = _Small_string_capacity;

  0002f	c7 42 14 0f 00
	00 00		 mov	 DWORD PTR [edx+20], 15	; 0000000fH

; 862  :         _My_data._Activate_SSO_buffer();
; 863  : 
; 864  :         // the _Traits::assign is last so the codegen doesn't think the char write can alias this
; 865  :         _Traits::assign(_My_data._Bx._Buf[0], _Elem());

  00036	c6 02 00	 mov	 BYTE PTR [edx], 0
; File D:\_m2work\txoko-m2-work\txoko-client-src\source\UserInterface\NetworkActorManager.cpp

; 94   : {

  00039	8d 4a 18	 lea	 ecx, DWORD PTR [edx+24]
  0003c	e8 00 00 00 00	 call	 ??0CAffectFlagContainer@@QAE@XZ ; CAffectFlagContainer::CAffectFlagContainer

; 95   : 	SetPosition(0, 0);

  00041	6a 00		 push	 0
  00043	6a 00		 push	 0
  00045	8b ca		 mov	 ecx, edx
  00047	e8 00 00 00 00	 call	 ?SetPosition@SNetworkActorData@@QAEXJJ@Z ; SNetworkActorData::SetPosition

; 114  : 
; 115  : 	m_sAlignment=0;

  0004c	33 c0		 xor	 eax, eax
  0004e	c6 42 20 00	 mov	 BYTE PTR [edx+32], 0
  00052	66 89 42 74	 mov	 WORD PTR [edx+116], ax

; 116  : 	m_byPKMode=0;

  00056	88 42 76	 mov	 BYTE PTR [edx+118], al

; 117  : 	m_dwMountVnum=0;

  00059	89 42 78	 mov	 DWORD PTR [edx+120], eax
; File C:\Program Files\Microsoft Visual Studio\2022\Community\VC\Tools\MSVC\14.44.35207\include\xstring

; 435  :         value_type* _Result = _Bx._Buf;

  0005c	8b c2		 mov	 eax, edx
; File D:\_m2work\txoko-m2-work\txoko-client-src\source\UserInterface\NetworkActorManager.cpp

; 98   : 	m_dwVID=0;

  0005e	c7 42 24 00 00
	00 00		 mov	 DWORD PTR [edx+36], 0

; 99   : 	m_dwStateFlags=0;

  00065	c7 42 28 00 00
	00 00		 mov	 DWORD PTR [edx+40], 0

; 100  : 	m_dwRace=0;

  0006c	c7 42 30 00 00
	00 00		 mov	 DWORD PTR [edx+48], 0

; 101  : 	m_dwMovSpd=0;

  00073	c7 42 34 00 00
	00 00		 mov	 DWORD PTR [edx+52], 0

; 102  : 	m_dwAtkSpd=0;

  0007a	c7 42 38 00 00
	00 00		 mov	 DWORD PTR [edx+56], 0

; 103  : 	m_fRot=0.0f;

  00081	c7 42 3c 00 00
	00 00		 mov	 DWORD PTR [edx+60], 0

; 104  : 	m_dwArmor=0;

  00088	c7 42 64 00 00
	00 00		 mov	 DWORD PTR [edx+100], 0

; 105  : 	m_dwWeapon=0;	

  0008f	c7 42 68 00 00
	00 00		 mov	 DWORD PTR [edx+104], 0

; 106  : 	m_dwHair=0;

  00096	c7 42 6c 00 00
	00 00		 mov	 DWORD PTR [edx+108], 0

; 107  : 	m_dwEmpireID=0;

  0009d	c7 42 2c 00 00
	00 00		 mov	 DWORD PTR [edx+44], 0

; 108  : 
; 109  : 	m_dwOwnerVID=0;

  000a4	c7 42 70 00 00
	00 00		 mov	 DWORD PTR [edx+112], 0

; 110  : 
; 111  : 	m_dwDuration=0;

  000ab	c7 42 60 00 00
	00 00		 mov	 DWORD PTR [edx+96], 0

; 112  : 	m_dwClientSrcTime=0;

  000b2	c7 42 5c 00 00
	00 00		 mov	 DWORD PTR [edx+92], 0

; 113  : 	m_dwServerSrcTime=0;

  000b9	c7 42 58 00 00
	00 00		 mov	 DWORD PTR [edx+88], 0
; File C:\Program Files\Microsoft Visual Studio\2022\Community\VC\Tools\MSVC\14.44.35207\include\xstring

; 453  :         return _Myres > _Small_string_capacity;

  000c0	83 7a 14 0f	 cmp	 DWORD PTR [edx+20], 15	; 0000000fH

; 436  :         if (_Large_mode_engaged()) {

  000c4	76 02		 jbe	 SHORT $LN35@SNetworkAc

; 437  :             _Result = _Unfancy(_Bx._Ptr);

  000c6	8b 02		 mov	 eax, DWORD PTR [edx]
$LN35@SNetworkAc:

; 1621 :             _Mypair._Myval2._Mysize = _Count;

  000c8	c7 42 10 00 00
	00 00		 mov	 DWORD PTR [edx+16], 0
; File D:\_m2work\txoko-m2-work\txoko-client-src\source\UserInterface\NetworkActorManager.cpp

; 121  : 	m_kAffectFlags.Clear();

  000cf	8d 4a 18	 lea	 ecx, DWORD PTR [edx+24]
; File C:\Program Files\Microsoft Visual Studio\2022\Community\VC\Tools\MSVC\14.44.35207\include\xstring

; 1623 :             _Traits::assign(_Old_ptr[_Count], _Elem());

  000d2	c6 00 00	 mov	 BYTE PTR [eax], 0
; File D:\_m2work\txoko-m2-work\txoko-client-src\source\UserInterface\NetworkActorManager.cpp

; 121  : 	m_kAffectFlags.Clear();

  000d5	e8 00 00 00 00	 call	 ?Clear@CAffectFlagContainer@@QAEXXZ ; CAffectFlagContainer::Clear

; 122  : }

  000da	8b c2		 mov	 eax, edx
  000dc	8b 4d f4	 mov	 ecx, DWORD PTR __$EHRec$[ebp]
  000df	64 89 0d 00 00
	00 00		 mov	 DWORD PTR fs:0, ecx
  000e6	59		 pop	 ecx
  000e7	5e		 pop	 esi
  000e8	8b e5		 mov	 esp, ebp
  000ea	5d		 pop	 ebp
  000eb	c3		 ret	 0
_TEXT	ENDS
;	COMDAT text$x
text$x	SEGMENT
__unwindfunclet$??0SNetworkActorData@@QAE@XZ$0:
  00000	8b 4d f0	 mov	 ecx, DWORD PTR _this$[ebp]
  00003	e9 00 00 00 00	 jmp	 ??1?$basic_string@DU?$char_traits@D@std@@V?$allocator@D@2@@std@@QAE@XZ ; std::basic_string<char,std::char_traits<char>,std::allocator<char> >::~basic_string<char,std::char_traits<char>,std::allocator<char> >
  00008	cc		 int	 3
  00009	cc		 int	 3
  0000a	cc		 int	 3
  0000b	cc		 int	 3
  0000c	cc		 int	 3
__ehhandler$??0SNetworkActorData@@QAE@XZ:
  0000d	90		 npad	 1
  0000e	90		 npad	 1
  0000f	8b 54 24 08	 mov	 edx, DWORD PTR [esp+8]
  00013	8d 42 0c	 lea	 eax, DWORD PTR [edx+12]
  00016	8b 4a f4	 mov	 ecx, DWORD PTR [edx-12]
  00019	33 c8		 xor	 ecx, eax
  0001b	e8 00 00 00 00	 call	 @__security_check_cookie@4
  00020	b8 00 00 00 00	 mov	 eax, OFFSET __ehfuncinfo$??0SNetworkActorData@@QAE@XZ
  00025	e9 00 00 00 00	 jmp	 ___CxxFrameHandler3
text$x	ENDS
??0SNetworkActorData@@QAE@XZ ENDP			; SNetworkActorData::SNetworkActorData
; Function compile flags: /Ogtp
; File D:\_m2work\txoko-m2-work\txoko-client-src\source\UserInterface\NetworkActorManager.cpp
; File C:\Program Files\Microsoft Visual Studio\2022\Community\VC\Tools\MSVC\14.44.35207\include\xtree
; File D:\_m2work\txoko-m2-work\txoko-client-src\source\UserInterface\NetworkActorManager.cpp
; File C:\Program Files\Microsoft Visual Studio\2022\Community\VC\Tools\MSVC\14.44.35207\include\xtree
; File D:\_m2work\txoko-m2-work\txoko-client-src\source\UserInterface\NetworkActorManager.cpp
;	COMDAT ??0CNetworkActorManager@@QAE@XZ
_TEXT	SEGMENT
_this$ = -20						; size = 4
_this$ = -16						; size = 4
__$EHRec$ = -12						; size = 12
??0CNetworkActorManager@@QAE@XZ PROC			; CNetworkActorManager::CNetworkActorManager, COMDAT
; _this$ = ecx

; 127  : {

  00000	55		 push	 ebp
  00001	8b ec		 mov	 ebp, esp
  00003	6a ff		 push	 -1
  00005	68 00 00 00 00	 push	 __ehhandler$??0CNetworkActorManager@@QAE@XZ
  0000a	64 a1 00 00 00
	00		 mov	 eax, DWORD PTR fs:0
  00010	50		 push	 eax
  00011	83 ec 08	 sub	 esp, 8
  00014	56		 push	 esi
  00015	57		 push	 edi
  00016	a1 00 00 00 00	 mov	 eax, DWORD PTR ___security_cookie
  0001b	33 c5		 xor	 eax, ebp
  0001d	50		 push	 eax
  0001e	8d 45 f4	 lea	 eax, DWORD PTR __$EHRec$[ebp]
  00021	64 a3 00 00 00
	00		 mov	 DWORD PTR fs:0, eax
  00027	8b f9		 mov	 edi, ecx
  00029	89 7d f0	 mov	 DWORD PTR _this$[ebp], edi
  0002c	e8 00 00 00 00	 call	 ??0CReferenceObject@@QAE@XZ ; CReferenceObject::CReferenceObject
  00031	c7 45 fc 00 00
	00 00		 mov	 DWORD PTR __$EHRec$[ebp+8], 0
  00038	8d 77 18	 lea	 esi, DWORD PTR [edi+24]
  0003b	c7 07 00 00 00
	00		 mov	 DWORD PTR [edi], OFFSET ??_7CNetworkActorManager@@6B@
; File C:\Program Files\Microsoft Visual Studio\2022\Community\VC\Tools\MSVC\14.44.35207\include\xtree

; 345  :         const auto _Pnode = _Al.allocate(1);

  00041	68 98 00 00 00	 push	 152			; 00000098H
; File D:\_m2work\txoko-m2-work\txoko-client-src\source\UserInterface\NetworkActorManager.cpp

; 127  : {

  00046	89 75 ec	 mov	 DWORD PTR _this$[ebp], esi
; File C:\Program Files\Microsoft Visual Studio\2022\Community\VC\Tools\MSVC\14.44.35207\include\xtree

; 450  :     _Tree_val() noexcept : _Myhead(), _Mysize(0) {}

  00049	c7 06 00 00 00
	00		 mov	 DWORD PTR [esi], 0
  0004f	c7 46 04 00 00
	00 00		 mov	 DWORD PTR [esi+4], 0

; 345  :         const auto _Pnode = _Al.allocate(1);

  00056	e8 00 00 00 00	 call	 ??2@YAPAXI@Z		; operator new
  0005b	83 c4 04	 add	 esp, 4

; 346  :         _Construct_in_place(_Pnode->_Left, _Pnode);

  0005e	89 00		 mov	 DWORD PTR [eax], eax

; 347  :         _Construct_in_place(_Pnode->_Parent, _Pnode);

  00060	89 40 04	 mov	 DWORD PTR [eax+4], eax

; 348  :         _Construct_in_place(_Pnode->_Right, _Pnode);

  00063	89 40 08	 mov	 DWORD PTR [eax+8], eax

; 349  :         _Pnode->_Color = _Black;

  00066	66 c7 40 0c 01
	01		 mov	 WORD PTR [eax+12], 257	; 00000101H

; 1957 :         _Scary->_Myhead = _Node::_Buyheadnode(_Getal());

  0006c	89 06		 mov	 DWORD PTR [esi], eax
; File D:\_m2work\txoko-m2-work\txoko-client-src\source\UserInterface\NetworkActorManager.cpp

; 129  : }

  0006e	8b c7		 mov	 eax, edi
  00070	c7 47 0c 00 00
	00 00		 mov	 DWORD PTR [edi+12], 0
  00077	8b 4d f4	 mov	 ecx, DWORD PTR __$EHRec$[ebp]
  0007a	64 89 0d 00 00
	00 00		 mov	 DWORD PTR fs:0, ecx
  00081	59		 pop	 ecx
  00082	5f		 pop	 edi
  00083	5e		 pop	 esi
  00084	8b e5		 mov	 esp, ebp
  00086	5d		 pop	 ebp
  00087	c3		 ret	 0
_TEXT	ENDS
;	COMDAT text$x
text$x	SEGMENT
__unwindfunclet$??0CNetworkActorManager@@QAE@XZ$0:
  00000	8b 4d f0	 mov	 ecx, DWORD PTR _this$[ebp]
  00003	e9 00 00 00 00	 jmp	 ??1CReferenceObject@@UAE@XZ ; CReferenceObject::~CReferenceObject
  00008	cc		 int	 3
  00009	cc		 int	 3
  0000a	cc		 int	 3
  0000b	cc		 int	 3
  0000c	cc		 int	 3
__ehhandler$??0CNetworkActorManager@@QAE@XZ:
  0000d	90		 npad	 1
  0000e	90		 npad	 1
  0000f	8b 54 24 08	 mov	 edx, DWORD PTR [esp+8]
  00013	8d 42 0c	 lea	 eax, DWORD PTR [edx+12]
  00016	8b 4a ec	 mov	 ecx, DWORD PTR [edx-20]
  00019	33 c8		 xor	 ecx, eax
  0001b	e8 00 00 00 00	 call	 @__security_check_cookie@4
  00020	b8 00 00 00 00	 mov	 eax, OFFSET __ehfuncinfo$??0CNetworkActorManager@@QAE@XZ
  00025	e9 00 00 00 00	 jmp	 ___CxxFrameHandler3
text$x	ENDS
??0CNetworkActorManager@@QAE@XZ ENDP			; CNetworkActorManager::CNetworkActorManager
; Function compile flags: /Ogtp
;	COMDAT ??_GCNetworkActorManager@@UAEPAXI@Z
_TEXT	SEGMENT
___flags$ = 8						; size = 4
??_GCNetworkActorManager@@UAEPAXI@Z PROC		; CNetworkActorManager::`scalar deleting destructor', COMDAT
; _this$ = ecx
  00000	55		 push	 ebp
  00001	8b ec		 mov	 ebp, esp
  00003	56		 push	 esi
  00004	8b f1		 mov	 esi, ecx
  00006	e8 00 00 00 00	 call	 ??1CNetworkActorManager@@UAE@XZ ; CNetworkActorManager::~CNetworkActorManager
  0000b	f6 45 08 01	 test	 BYTE PTR ___flags$[ebp], 1
  0000f	74 0b		 je	 SHORT $LN5@scalar
  00011	6a 20		 push	 32			; 00000020H
  00013	56		 push	 esi
  00014	e8 00 00 00 00	 call	 ??3@YAXPAXI@Z		; operator delete
  00019	83 c4 08	 add	 esp, 8
$LN5@scalar:
  0001c	8b c6		 mov	 eax, esi
  0001e	5e		 pop	 esi
  0001f	5d		 pop	 ebp
  00020	c2 04 00	 ret	 4
??_GCNetworkActorManager@@UAEPAXI@Z ENDP		; CNetworkActorManager::`scalar deleting destructor'
_TEXT	ENDS
; Function compile flags: /Ogtp
; File C:\Program Files\Microsoft Visual Studio\2022\Community\VC\Tools\MSVC\14.44.35207\include\xtree
; File C:\Program Files\Microsoft Visual Studio\2022\Community\VC\Tools\MSVC\14.44.35207\include\xmemory
;	COMDAT ??1?$map@KUSNetworkActorData@@U?$less@K@std@@V?$allocator@U?$pair@$$CBKUSNetworkActorData@@@std@@@3@@std@@QAE@XZ
_TEXT	SEGMENT
??1?$map@KUSNetworkActorData@@U?$less@K@std@@V?$allocator@U?$pair@$$CBKUSNetworkActorData@@@std@@@3@@std@@QAE@XZ PROC ; std::map<unsigned long,SNetworkActorData,std::less<unsigned long>,std::allocator<std::pair<unsigned long const ,SNetworkActorData> > >::~map<unsigned long,SNetworkActorData,std::less<unsigned long>,std::allocator<std::pair<unsigned long const ,SNetworkActorData> > >, COMDAT
; _this$ = ecx
; File C:\Program Files\Microsoft Visual Studio\2022\Community\VC\Tools\MSVC\14.44.35207\include\xtree

; 777  :         _Erase_tree(_Al, _Myhead->_Parent);

  00000	56		 push	 esi
  00001	8b f1		 mov	 esi, ecx
  00003	8b 06		 mov	 eax, DWORD PTR [esi]
  00005	ff 70 04	 push	 DWORD PTR [eax+4]
  00008	56		 push	 esi
  00009	e8 00 00 00 00	 call	 ??$_Erase_tree@V?$allocator@U?$_Tree_node@U?$pair@$$CBKUSNetworkActorData@@@std@@PAX@std@@@std@@@?$_Tree_val@U?$_Tree_simple_types@U?$pair@$$CBKUSNetworkActorData@@@std@@@std@@@std@@QAEXAAV?$allocator@U?$_Tree_node@U?$pair@$$CBKUSNetworkActorData@@@std@@PAX@std@@@1@PAU?$_Tree_node@U?$pair@$$CBKUSNetworkActorData@@@std@@PAX@1@@Z ; std::_Tree_val<std::_Tree_simple_types<std::pair<unsigned long const ,SNetworkActorData> > >::_Erase_tree<std::allocator<std::_Tree_node<std::pair<unsigned long const ,SNetworkActorData>,void *> > >
; File C:\Program Files\Microsoft Visual Studio\2022\Community\VC\Tools\MSVC\14.44.35207\include\xmemory

; 289  :         ::operator delete(_Ptr, _Bytes);

  0000e	68 98 00 00 00	 push	 152			; 00000098H
  00013	ff 36		 push	 DWORD PTR [esi]
  00015	e8 00 00 00 00	 call	 ??3@YAXPAXI@Z		; operator delete
  0001a	83 c4 08	 add	 esp, 8
  0001d	5e		 pop	 esi
  0001e	c3		 ret	 0
??1?$map@KUSNetworkActorData@@U?$less@K@std@@V?$allocator@U?$pair@$$CBKUSNetworkActorData@@@std@@@3@@std@@QAE@XZ ENDP ; std::map<unsigned long,SNetworkActorData,std::less<unsigned long>,std::allocator<std::pair<unsigned long const ,SNetworkActorData> > >::~map<unsigned long,SNetworkActorData,std::less<unsigned long>,std::allocator<std::pair<unsigned long const ,SNetworkActorData> > >
_TEXT	ENDS
; Function compile flags: /Ogtp
; File D:\_m2work\txoko-m2-work\txoko-client-src\source\UserInterface\NetworkActorManager.cpp
; File C:\Program Files\Microsoft Visual Studio\2022\Community\VC\Tools\MSVC\14.44.35207\include\xtree
; File D:\_m2work\txoko-m2-work\txoko-client-src\source\UserInterface\NetworkActorManager.cpp
; File C:\Program Files\Microsoft Visual Studio\2022\Community\VC\Tools\MSVC\14.44.35207\include\xtree
; File C:\Program Files\Microsoft Visual Studio\2022\Community\VC\Tools\MSVC\14.44.35207\include\xmemory
; File D:\_m2work\txoko-m2-work\txoko-client-src\source\UserInterface\NetworkActorManager.cpp
;	COMDAT ??1CNetworkActorManager@@UAE@XZ
_TEXT	SEGMENT
??1CNetworkActorManager@@UAE@XZ PROC			; CNetworkActorManager::~CNetworkActorManager, COMDAT
; _this$ = ecx

; 132  : {

  00000	56		 push	 esi
  00001	57		 push	 edi
  00002	8b f9		 mov	 edi, ecx

; 133  : }

  00004	8d 77 18	 lea	 esi, DWORD PTR [edi+24]
; File C:\Program Files\Microsoft Visual Studio\2022\Community\VC\Tools\MSVC\14.44.35207\include\xtree

; 777  :         _Erase_tree(_Al, _Myhead->_Parent);

  00007	8b ce		 mov	 ecx, esi
; File D:\_m2work\txoko-m2-work\txoko-client-src\source\UserInterface\NetworkActorManager.cpp

; 132  : {

  00009	c7 07 00 00 00
	00		 mov	 DWORD PTR [edi], OFFSET ??_7CNetworkActorManager@@6B@
; File C:\Program Files\Microsoft Visual Studio\2022\Community\VC\Tools\MSVC\14.44.35207\include\xtree

; 777  :         _Erase_tree(_Al, _Myhead->_Parent);

  0000f	8b 06		 mov	 eax, DWORD PTR [esi]
  00011	ff 70 04	 push	 DWORD PTR [eax+4]
  00014	56		 push	 esi
  00015	e8 00 00 00 00	 call	 ??$_Erase_tree@V?$allocator@U?$_Tree_node@U?$pair@$$CBKUSNetworkActorData@@@std@@PAX@std@@@std@@@?$_Tree_val@U?$_Tree_simple_types@U?$pair@$$CBKUSNetworkActorData@@@std@@@std@@@std@@QAEXAAV?$allocator@U?$_Tree_node@U?$pair@$$CBKUSNetworkActorData@@@std@@PAX@std@@@1@PAU?$_Tree_node@U?$pair@$$CBKUSNetworkActorData@@@std@@PAX@1@@Z ; std::_Tree_val<std::_Tree_simple_types<std::pair<unsigned long const ,SNetworkActorData> > >::_Erase_tree<std::allocator<std::_Tree_node<std::pair<unsigned long const ,SNetworkActorData>,void *> > >
; File C:\Program Files\Microsoft Visual Studio\2022\Community\VC\Tools\MSVC\14.44.35207\include\xmemory

; 289  :         ::operator delete(_Ptr, _Bytes);

  0001a	68 98 00 00 00	 push	 152			; 00000098H
  0001f	ff 36		 push	 DWORD PTR [esi]
  00021	e8 00 00 00 00	 call	 ??3@YAXPAXI@Z		; operator delete
  00026	83 c4 08	 add	 esp, 8
; File D:\_m2work\txoko-m2-work\txoko-client-src\source\UserInterface\NetworkActorManager.cpp

; 133  : }

  00029	8b cf		 mov	 ecx, edi
  0002b	5f		 pop	 edi
  0002c	5e		 pop	 esi
  0002d	e9 00 00 00 00	 jmp	 ??1CReferenceObject@@UAE@XZ ; CReferenceObject::~CReferenceObject
??1CNetworkActorManager@@UAE@XZ ENDP			; CNetworkActorManager::~CNetworkActorManager
_TEXT	ENDS
; Function compile flags: /Ogtp
; File D:\_m2work\txoko-m2-work\txoko-client-src\source\UserInterface\NetworkActorManager.cpp
; File C:\Program Files\Microsoft Visual Studio\2022\Community\VC\Tools\MSVC\14.44.35207\include\xtree
; File D:\_m2work\txoko-m2-work\txoko-client-src\source\UserInterface\NetworkActorManager.cpp
; File C:\Program Files\Microsoft Visual Studio\2022\Community\VC\Tools\MSVC\14.44.35207\include\xtree
; File D:\_m2work\txoko-m2-work\txoko-client-src\source\UserInterface\NetworkActorManager.cpp
;	COMDAT ?Destroy@CNetworkActorManager@@QAEXXZ
_TEXT	SEGMENT
?Destroy@CNetworkActorManager@@QAEXXZ PROC		; CNetworkActorManager::Destroy, COMDAT
; _this$ = ecx

; 136  : {

  00000	53		 push	 ebx
  00001	56		 push	 esi
  00002	8b d9		 mov	 ebx, ecx
; File C:\Program Files\Microsoft Visual Studio\2022\Community\VC\Tools\MSVC\14.44.35207\include\xtree

; 1373 :         auto _Head = _Scary->_Myhead;

  00004	8b 73 18	 mov	 esi, DWORD PTR [ebx+24]
; File D:\_m2work\txoko-m2-work\txoko-client-src\source\UserInterface\NetworkActorManager.cpp

; 136  : {

  00007	57		 push	 edi

; 137  : 	m_kNetActorDict.clear();

  00008	8d 7b 18	 lea	 edi, DWORD PTR [ebx+24]
; File C:\Program Files\Microsoft Visual Studio\2022\Community\VC\Tools\MSVC\14.44.35207\include\xtree

; 1374 :         _Scary->_Erase_tree(_Getal(), _Head->_Parent);

  0000b	8b cf		 mov	 ecx, edi
  0000d	ff 76 04	 push	 DWORD PTR [esi+4]
  00010	57		 push	 edi
  00011	e8 00 00 00 00	 call	 ??$_Erase_tree@V?$allocator@U?$_Tree_node@U?$pair@$$CBKUSNetworkActorData@@@std@@PAX@std@@@std@@@?$_Tree_val@U?$_Tree_simple_types@U?$pair@$$CBKUSNetworkActorData@@@std@@@std@@@std@@QAEXAAV?$allocator@U?$_Tree_node@U?$pair@$$CBKUSNetworkActorData@@@std@@PAX@std@@@1@PAU?$_Tree_node@U?$pair@$$CBKUSNetworkActorData@@@std@@PAX@1@@Z ; std::_Tree_val<std::_Tree_simple_types<std::pair<unsigned long const ,SNetworkActorData> > >::_Erase_tree<std::allocator<std::_Tree_node<std::pair<unsigned long const ,SNetworkActorData>,void *> > >

; 1375 :         _Head->_Parent  = _Head;

  00016	89 76 04	 mov	 DWORD PTR [esi+4], esi

; 1376 :         _Head->_Left    = _Head;

  00019	89 36		 mov	 DWORD PTR [esi], esi

; 1377 :         _Head->_Right   = _Head;

  0001b	89 76 08	 mov	 DWORD PTR [esi+8], esi

; 1378 :         _Scary->_Mysize = 0;

  0001e	c7 47 04 00 00
	00 00		 mov	 DWORD PTR [edi+4], 0
; File D:\_m2work\txoko-m2-work\txoko-client-src\source\UserInterface\NetworkActorManager.cpp

; 141  : 	m_lMainPosY=0;

  00025	5f		 pop	 edi
  00026	5e		 pop	 esi
  00027	c7 43 0c 00 00
	00 00		 mov	 DWORD PTR [ebx+12], 0
  0002e	c7 43 10 00 00
	00 00		 mov	 DWORD PTR [ebx+16], 0
  00035	c7 43 14 00 00
	00 00		 mov	 DWORD PTR [ebx+20], 0
  0003c	5b		 pop	 ebx

; 142  : }

  0003d	c3		 ret	 0
?Destroy@CNetworkActorManager@@QAEXXZ ENDP		; CNetworkActorManager::Destroy
_TEXT	ENDS
; Function compile flags: /Ogtp
; File D:\_m2work\txoko-m2-work\txoko-client-src\source\UserInterface\NetworkActorManager.cpp
; File C:\Program Files\Microsoft Visual Studio\2022\Community\VC\Tools\MSVC\14.44.35207\include\xtree
; File D:\_m2work\txoko-m2-work\txoko-client-src\source\UserInterface\NetworkActorManager.cpp
; File C:\Program Files\Microsoft Visual Studio\2022\Community\VC\Tools\MSVC\14.44.35207\include\xtree
; File D:\_m2work\txoko-m2-work\txoko-client-src\source\UserInterface\NetworkActorManager.cpp
;	COMDAT ?SetMainActorVID@CNetworkActorManager@@QAEXK@Z
_TEXT	SEGMENT
_dwVID$ = 8						; size = 4
?SetMainActorVID@CNetworkActorManager@@QAEXK@Z PROC	; CNetworkActorManager::SetMainActorVID, COMDAT
; _this$ = ecx

; 145  : {

  00000	55		 push	 ebp
  00001	8b ec		 mov	 ebp, esp

; 146  : 	m_dwMainVID=dwVID;

  00003	8b 45 08	 mov	 eax, DWORD PTR _dwVID$[ebp]
  00006	56		 push	 esi
; File C:\Program Files\Microsoft Visual Studio\2022\Community\VC\Tools\MSVC\14.44.35207\include\xtree

; 1373 :         auto _Head = _Scary->_Myhead;

  00007	8b 71 18	 mov	 esi, DWORD PTR [ecx+24]
; File D:\_m2work\txoko-m2-work\txoko-client-src\source\UserInterface\NetworkActorManager.cpp

; 145  : {

  0000a	57		 push	 edi

; 147  : 	m_lMainPosX=0;
; 148  : 	m_lMainPosY=0;
; 149  : 
; 150  : 	m_kNetActorDict.clear();

  0000b	8d 79 18	 lea	 edi, DWORD PTR [ecx+24]
  0000e	89 41 0c	 mov	 DWORD PTR [ecx+12], eax
  00011	c7 41 10 00 00
	00 00		 mov	 DWORD PTR [ecx+16], 0
  00018	c7 41 14 00 00
	00 00		 mov	 DWORD PTR [ecx+20], 0
; File C:\Program Files\Microsoft Visual Studio\2022\Community\VC\Tools\MSVC\14.44.35207\include\xtree

; 1374 :         _Scary->_Erase_tree(_Getal(), _Head->_Parent);

  0001f	8b cf		 mov	 ecx, edi
  00021	ff 76 04	 push	 DWORD PTR [esi+4]
  00024	57		 push	 edi
  00025	e8 00 00 00 00	 call	 ??$_Erase_tree@V?$allocator@U?$_Tree_node@U?$pair@$$CBKUSNetworkActorData@@@std@@PAX@std@@@std@@@?$_Tree_val@U?$_Tree_simple_types@U?$pair@$$CBKUSNetworkActorData@@@std@@@std@@@std@@QAEXAAV?$allocator@U?$_Tree_node@U?$pair@$$CBKUSNetworkActorData@@@std@@PAX@std@@@1@PAU?$_Tree_node@U?$pair@$$CBKUSNetworkActorData@@@std@@PAX@1@@Z ; std::_Tree_val<std::_Tree_simple_types<std::pair<unsigned long const ,SNetworkActorData> > >::_Erase_tree<std::allocator<std::_Tree_node<std::pair<unsigned long const ,SNetworkActorData>,void *> > >

; 1375 :         _Head->_Parent  = _Head;

  0002a	89 76 04	 mov	 DWORD PTR [esi+4], esi

; 1376 :         _Head->_Left    = _Head;

  0002d	89 36		 mov	 DWORD PTR [esi], esi

; 1377 :         _Head->_Right   = _Head;

  0002f	89 76 08	 mov	 DWORD PTR [esi+8], esi

; 1378 :         _Scary->_Mysize = 0;

  00032	c7 47 04 00 00
	00 00		 mov	 DWORD PTR [edi+4], 0
  00039	5f		 pop	 edi
  0003a	5e		 pop	 esi
; File D:\_m2work\txoko-m2-work\txoko-client-src\source\UserInterface\NetworkActorManager.cpp

; 151  : }

  0003b	5d		 pop	 ebp
  0003c	c2 04 00	 ret	 4
?SetMainActorVID@CNetworkActorManager@@QAEXK@Z ENDP	; CNetworkActorManager::SetMainActorVID
_TEXT	ENDS
; Function compile flags: /Ogtp
; File D:\_m2work\txoko-m2-work\txoko-client-src\source\UserInterface\NetworkActorManager.cpp
;	COMDAT ?Update@CNetworkActorManager@@QAEXXZ
_TEXT	SEGMENT
?Update@CNetworkActorManager@@QAEXXZ PROC		; CNetworkActorManager::Update, COMDAT
; _this$ = ecx

; 155  : 	__OLD_Update();

  00000	e9 00 00 00 00	 jmp	 ?__OLD_Update@CNetworkActorManager@@IAEXXZ ; CNetworkActorManager::__OLD_Update
?Update@CNetworkActorManager@@QAEXXZ ENDP		; CNetworkActorManager::Update
_TEXT	ENDS
; Function compile flags: /Ogtp
; File D:\_m2work\txoko-m2-work\txoko-client-src\source\UserInterface\NetworkActorManager.cpp
; File C:\Program Files\Microsoft Visual Studio\2022\Community\VC\Tools\MSVC\14.44.35207\include\xtree
; File D:\_m2work\txoko-m2-work\txoko-client-src\source\UserInterface\NetworkActorManager.cpp
; File C:\Program Files\Microsoft Visual Studio\2022\Community\VC\Tools\MSVC\14.44.35207\include\xtree
; File D:\_m2work\txoko-m2-work\txoko-client-src\source\UserInterface\NetworkActorManager.cpp
; File C:\Program Files\Microsoft Visual Studio\2022\Community\VC\Tools\MSVC\14.44.35207\include\xtree
; File D:\_m2work\txoko-m2-work\txoko-client-src\source\UserInterface\NetworkActorManager.cpp
;	COMDAT ?__OLD_Update@CNetworkActorManager@@IAEXXZ
_TEXT	SEGMENT
_i$ = -4						; size = 4
?__OLD_Update@CNetworkActorManager@@IAEXXZ PROC		; CNetworkActorManager::__OLD_Update, COMDAT
; _this$ = ecx

; 159  : {

  00000	55		 push	 ebp
  00001	8b ec		 mov	 ebp, esp
  00003	83 e4 f8	 and	 esp, -8			; fffffff8H
  00006	51		 push	 ecx
  00007	53		 push	 ebx
  00008	56		 push	 esi
  00009	57		 push	 edi
  0000a	8b f1		 mov	 esi, ecx

; 160  : 	__UpdateMainActor();

  0000c	e8 00 00 00 00	 call	 ?__UpdateMainActor@CNetworkActorManager@@IAEXXZ ; CNetworkActorManager::__UpdateMainActor

; 161  : 
; 162  : 	CPythonCharacterManager& rkChrMgr=__GetCharacterManager();

  00011	e8 00 00 00 00	 call	 ?__GetCharacterManager@CNetworkActorManager@@IAEAAVCPythonCharacterManager@@XZ ; CNetworkActorManager::__GetCharacterManager
; File C:\Program Files\Microsoft Visual Studio\2022\Community\VC\Tools\MSVC\14.44.35207\include\xtree

; 1142 :         return iterator(_Scary->_Myhead->_Left, _Scary);

  00016	8b 4e 18	 mov	 ecx, DWORD PTR [esi+24]

; 37   :     _Tree_unchecked_const_iterator(_Nodeptr _Pnode, const _Mytree* _Plist) noexcept : _Ptr(_Pnode) {

  00019	8b 11		 mov	 edx, DWORD PTR [ecx]
; File D:\_m2work\txoko-m2-work\txoko-client-src\source\UserInterface\NetworkActorManager.cpp

; 165  : 	for (i=m_kNetActorDict.begin(); i!=m_kNetActorDict.end(); ++i)

  0001b	89 54 24 0c	 mov	 DWORD PTR _i$[esp+16], edx
; File C:\Program Files\Microsoft Visual Studio\2022\Community\VC\Tools\MSVC\14.44.35207\include\xtree

; 37   :     _Tree_unchecked_const_iterator(_Nodeptr _Pnode, const _Mytree* _Plist) noexcept : _Ptr(_Pnode) {

  0001f	3b d1		 cmp	 edx, ecx
; File D:\_m2work\txoko-m2-work\txoko-client-src\source\UserInterface\NetworkActorManager.cpp

; 165  : 	for (i=m_kNetActorDict.begin(); i!=m_kNetActorDict.end(); ++i)

  00021	74 41		 je	 SHORT $LN3@OLD_Update
  00023	8d 58 04	 lea	 ebx, DWORD PTR [eax+4]
$LL4@OLD_Update:

; 166  : 	{
; 167  : 		SNetworkActorData& rkNetActorData=i->second;

  00026	8d 7a 14	 lea	 edi, DWORD PTR [edx+20]

; 168  : 		rkNetActorData.UpdatePosition();

  00029	8b cf		 mov	 ecx, edi
  0002b	e8 00 00 00 00	 call	 ?UpdatePosition@SNetworkActorData@@QAEXXZ ; SNetworkActorData::UpdatePosition

; 169  : 
; 170  : 		CInstanceBase * pkInstFind = rkChrMgr.GetInstancePtr(rkNetActorData.m_dwVID);

  00030	8b 03		 mov	 eax, DWORD PTR [ebx]
  00032	8b cb		 mov	 ecx, ebx
  00034	ff 77 24	 push	 DWORD PTR [edi+36]
  00037	ff 50 08	 call	 DWORD PTR [eax+8]

; 171  : 		if (!pkInstFind)

  0003a	85 c0		 test	 eax, eax
  0003c	75 14		 jne	 SHORT $LN2@OLD_Update

; 172  : 		{
; 173  : 			if (__IsVisibleActor(rkNetActorData))

  0003e	57		 push	 edi
  0003f	8b ce		 mov	 ecx, esi
  00041	e8 00 00 00 00	 call	 ?__IsVisibleActor@CNetworkActorManager@@IAE_NABUSNetworkActorData@@@Z ; CNetworkActorManager::__IsVisibleActor
  00046	84 c0		 test	 al, al
  00048	74 08		 je	 SHORT $LN2@OLD_Update

; 174  : 				__AppendCharacterManagerActor(rkNetActorData);

  0004a	57		 push	 edi
  0004b	8b ce		 mov	 ecx, esi
  0004d	e8 00 00 00 00	 call	 ?__AppendCharacterManagerActor@CNetworkActorManager@@IAEPAVCInstanceBase@@AAUSNetworkActorData@@@Z ; CNetworkActorManager::__AppendCharacterManagerActor
$LN2@OLD_Update:
; File C:\Program Files\Microsoft Visual Studio\2022\Community\VC\Tools\MSVC\14.44.35207\include\xtree

; 198  :         _Mybase::operator++();

  00052	8d 4c 24 0c	 lea	 ecx, DWORD PTR _i$[esp+16]
  00056	e8 00 00 00 00	 call	 ??E?$_Tree_unchecked_const_iterator@V?$_Tree_val@U?$_Tree_simple_types@U?$pair@$$CBKUSNetworkActorData@@@std@@@std@@@std@@U_Iterator_base0@2@@std@@QAEAAV01@XZ ; std::_Tree_unchecked_const_iterator<std::_Tree_val<std::_Tree_simple_types<std::pair<unsigned long const ,SNetworkActorData> > >,std::_Iterator_base0>::operator++

; 232  :         return this->_Ptr == _Right._Ptr;

  0005b	8b 54 24 0c	 mov	 edx, DWORD PTR _i$[esp+16]
  0005f	3b 56 18	 cmp	 edx, DWORD PTR [esi+24]
; File D:\_m2work\txoko-m2-work\txoko-client-src\source\UserInterface\NetworkActorManager.cpp

; 165  : 	for (i=m_kNetActorDict.begin(); i!=m_kNetActorDict.end(); ++i)

  00062	75 c2		 jne	 SHORT $LL4@OLD_Update
$LN3@OLD_Update:

; 175  : 		}
; 176  : 	}
; 177  : }

  00064	5f		 pop	 edi
  00065	5e		 pop	 esi
  00066	5b		 pop	 ebx
  00067	8b e5		 mov	 esp, ebp
  00069	5d		 pop	 ebp
  0006a	c3		 ret	 0
?__OLD_Update@CNetworkActorManager@@IAEXXZ ENDP		; CNetworkActorManager::__OLD_Update
_TEXT	ENDS
; Function compile flags: /Ogtp
; File C:\Program Files\Microsoft Visual Studio\2022\Community\VC\Tools\MSVC\14.44.35207\include\xtree
;	COMDAT ??0?$_Tree_iterator@V?$_Tree_val@U?$_Tree_simple_types@U?$pair@$$CBKUSNetworkActorData@@@std@@@std@@@std@@@std@@QAE@XZ
_TEXT	SEGMENT
??0?$_Tree_iterator@V?$_Tree_val@U?$_Tree_simple_types@U?$pair@$$CBKUSNetworkActorData@@@std@@@std@@@std@@@std@@QAE@XZ PROC ; std::_Tree_iterator<std::_Tree_val<std::_Tree_simple_types<std::pair<unsigned long const ,SNetworkActorData> > > >::_Tree_iterator<std::_Tree_val<std::_Tree_simple_types<std::pair<unsigned long const ,SNetworkActorData> > > >, COMDAT
; _this$ = ecx

; 35   :     _Tree_unchecked_const_iterator() noexcept : _Ptr() {}

  00000	c7 01 00 00 00
	00		 mov	 DWORD PTR [ecx], 0
  00006	8b c1		 mov	 eax, ecx
  00008	c3		 ret	 0
??0?$_Tree_iterator@V?$_Tree_val@U?$_Tree_simple_types@U?$pair@$$CBKUSNetworkActorData@@@std@@@std@@@std@@@std@@QAE@XZ ENDP ; std::_Tree_iterator<std::_Tree_val<std::_Tree_simple_types<std::pair<unsigned long const ,SNetworkActorData> > > >::_Tree_iterator<std::_Tree_val<std::_Tree_simple_types<std::pair<unsigned long const ,SNetworkActorData> > > >
_TEXT	ENDS
; Function compile flags: /Ogtp
; File C:\Program Files\Microsoft Visual Studio\2022\Community\VC\Tools\MSVC\14.44.35207\include\xtree
;	COMDAT ??0?$_Tree_const_iterator@V?$_Tree_val@U?$_Tree_simple_types@U?$pair@$$CBKUSNetworkActorData@@@std@@@std@@@std@@@std@@QAE@XZ
_TEXT	SEGMENT
??0?$_Tree_const_iterator@V?$_Tree_val@U?$_Tree_simple_types@U?$pair@$$CBKUSNetworkActorData@@@std@@@std@@@std@@@std@@QAE@XZ PROC ; std::_Tree_const_iterator<std::_Tree_val<std::_Tree_simple_types<std::pair<unsigned long const ,SNetworkActorData> > > >::_Tree_const_iterator<std::_Tree_val<std::_Tree_simple_types<std::pair<unsigned long const ,SNetworkActorData> > > >, COMDAT
; _this$ = ecx

; 35   :     _Tree_unchecked_const_iterator() noexcept : _Ptr() {}

  00000	c7 01 00 00 00
	00		 mov	 DWORD PTR [ecx], 0
  00006	8b c1		 mov	 eax, ecx
  00008	c3		 ret	 0
??0?$_Tree_const_iterator@V?$_Tree_val@U?$_Tree_simple_types@U?$pair@$$CBKUSNetworkActorData@@@std@@@std@@@std@@@std@@QAE@XZ ENDP ; std::_Tree_const_iterator<std::_Tree_val<std::_Tree_simple_types<std::pair<unsigned long const ,SNetworkActorData> > > >::_Tree_const_iterator<std::_Tree_val<std::_Tree_simple_types<std::pair<unsigned long const ,SNetworkActorData> > > >
_TEXT	ENDS
; Function compile flags: /Ogtp
; File D:\_m2work\txoko-m2-work\txoko-client-src\source\UserInterface\NetworkActorManager.cpp
;	COMDAT ?__FindActor@CNetworkActorManager@@IAEPAVCInstanceBase@@AAUSNetworkActorData@@JJ@Z
_TEXT	SEGMENT
_rkNetActorData$ = 8					; size = 4
_lDstX$ = 12						; size = 4
_lDstY$ = 16						; size = 4
?__FindActor@CNetworkActorManager@@IAEPAVCInstanceBase@@AAUSNetworkActorData@@JJ@Z PROC ; CNetworkActorManager::__FindActor, COMDAT
; _this$ = ecx

; 180  : {

  00000	55		 push	 ebp
  00001	8b ec		 mov	 ebp, esp
  00003	51		 push	 ecx
  00004	56		 push	 esi
  00005	57		 push	 edi
  00006	8b f1		 mov	 esi, ecx

; 181  : 	CPythonCharacterManager& rkChrMgr=__GetCharacterManager();

  00008	e8 00 00 00 00	 call	 ?__GetCharacterManager@CNetworkActorManager@@IAEAAVCPythonCharacterManager@@XZ ; CNetworkActorManager::__GetCharacterManager

; 182  : 	CInstanceBase * pkInstFind = rkChrMgr.GetInstancePtr(rkNetActorData.m_dwVID);

  0000d	8b 7d 08	 mov	 edi, DWORD PTR _rkNetActorData$[ebp]
  00010	8d 48 04	 lea	 ecx, DWORD PTR [eax+4]
  00013	8b 01		 mov	 eax, DWORD PTR [ecx]
  00015	ff 77 24	 push	 DWORD PTR [edi+36]
  00018	ff 50 08	 call	 DWORD PTR [eax+8]

; 183  : 	if (!pkInstFind)

  0001b	85 c0		 test	 eax, eax
  0001d	75 22		 jne	 SHORT $LN1@FindActor

; 184  : 	{
; 185  : 		if (__IsVisiblePos(lDstX, lDstY))

  0001f	ff 75 10	 push	 DWORD PTR _lDstY$[ebp]
  00022	8b ce		 mov	 ecx, esi
  00024	ff 75 0c	 push	 DWORD PTR _lDstX$[ebp]
  00027	e8 00 00 00 00	 call	 ?__IsVisiblePos@CNetworkActorManager@@IAE_NJJ@Z ; CNetworkActorManager::__IsVisiblePos
  0002c	84 c0		 test	 al, al
  0002e	74 0f		 je	 SHORT $LN3@FindActor

; 186  : 			return __AppendCharacterManagerActor(rkNetActorData);

  00030	57		 push	 edi
  00031	8b ce		 mov	 ecx, esi
  00033	e8 00 00 00 00	 call	 ?__AppendCharacterManagerActor@CNetworkActorManager@@IAEPAVCInstanceBase@@AAUSNetworkActorData@@@Z ; CNetworkActorManager::__AppendCharacterManagerActor

; 189  : 	}
; 190  : 
; 191  : 	return pkInstFind;
; 192  : }

  00038	5f		 pop	 edi
  00039	5e		 pop	 esi
  0003a	59		 pop	 ecx
  0003b	5d		 pop	 ebp
  0003c	c2 0c 00	 ret	 12			; 0000000cH
$LN3@FindActor:

; 187  : 
; 188  : 		return NULL;

  0003f	33 c0		 xor	 eax, eax
$LN1@FindActor:

; 189  : 	}
; 190  : 
; 191  : 	return pkInstFind;
; 192  : }

  00041	5f		 pop	 edi
  00042	5e		 pop	 esi
  00043	59		 pop	 ecx
  00044	5d		 pop	 ebp
  00045	c2 0c 00	 ret	 12			; 0000000cH
?__FindActor@CNetworkActorManager@@IAEPAVCInstanceBase@@AAUSNetworkActorData@@JJ@Z ENDP ; CNetworkActorManager::__FindActor
_TEXT	ENDS
; Function compile flags: /Ogtp
; File D:\_m2work\txoko-m2-work\txoko-client-src\source\UserInterface\NetworkActorManager.cpp
;	COMDAT ?__FindActor@CNetworkActorManager@@IAEPAVCInstanceBase@@AAUSNetworkActorData@@@Z
_TEXT	SEGMENT
_rkNetActorData$ = 8					; size = 4
?__FindActor@CNetworkActorManager@@IAEPAVCInstanceBase@@AAUSNetworkActorData@@@Z PROC ; CNetworkActorManager::__FindActor, COMDAT
; _this$ = ecx

; 195  : {

  00000	55		 push	 ebp
  00001	8b ec		 mov	 ebp, esp
  00003	51		 push	 ecx
  00004	56		 push	 esi
  00005	57		 push	 edi
  00006	8b f9		 mov	 edi, ecx

; 196  : 	CPythonCharacterManager& rkChrMgr=__GetCharacterManager();

  00008	e8 00 00 00 00	 call	 ?__GetCharacterManager@CNetworkActorManager@@IAEAAVCPythonCharacterManager@@XZ ; CNetworkActorManager::__GetCharacterManager

; 197  : 	CInstanceBase * pkInstFind = rkChrMgr.GetInstancePtr(rkNetActorData.m_dwVID);

  0000d	8b 75 08	 mov	 esi, DWORD PTR _rkNetActorData$[ebp]
  00010	8d 48 04	 lea	 ecx, DWORD PTR [eax+4]
  00013	8b 01		 mov	 eax, DWORD PTR [ecx]
  00015	ff 76 24	 push	 DWORD PTR [esi+36]
  00018	ff 50 08	 call	 DWORD PTR [eax+8]

; 198  : 	if (!pkInstFind)

  0001b	85 c0		 test	 eax, eax
  0001d	75 1d		 jne	 SHORT $LN1@FindActor

; 199  : 	{
; 200  : 		if (__IsVisibleActor(rkNetActorData))

  0001f	56		 push	 esi
  00020	8b cf		 mov	 ecx, edi
  00022	e8 00 00 00 00	 call	 ?__IsVisibleActor@CNetworkActorManager@@IAE_NABUSNetworkActorData@@@Z ; CNetworkActorManager::__IsVisibleActor
  00027	84 c0		 test	 al, al
  00029	74 0f		 je	 SHORT $LN3@FindActor

; 201  : 			return __AppendCharacterManagerActor(rkNetActorData);

  0002b	56		 push	 esi
  0002c	8b cf		 mov	 ecx, edi
  0002e	e8 00 00 00 00	 call	 ?__AppendCharacterManagerActor@CNetworkActorManager@@IAEPAVCInstanceBase@@AAUSNetworkActorData@@@Z ; CNetworkActorManager::__AppendCharacterManagerActor

; 204  : 	}
; 205  : 
; 206  : 	return pkInstFind;
; 207  : }

  00033	5f		 pop	 edi
  00034	5e		 pop	 esi
  00035	59		 pop	 ecx
  00036	5d		 pop	 ebp
  00037	c2 04 00	 ret	 4
$LN3@FindActor:

; 202  : 
; 203  : 		return NULL;

  0003a	33 c0		 xor	 eax, eax
$LN1@FindActor:

; 204  : 	}
; 205  : 
; 206  : 	return pkInstFind;
; 207  : }

  0003c	5f		 pop	 edi
  0003d	5e		 pop	 esi
  0003e	59		 pop	 ecx
  0003f	5d		 pop	 ebp
  00040	c2 04 00	 ret	 4
?__FindActor@CNetworkActorManager@@IAEPAVCInstanceBase@@AAUSNetworkActorData@@@Z ENDP ; CNetworkActorManager::__FindActor
_TEXT	ENDS
; Function compile flags: /Ogtp
; File D:\_m2work\txoko-m2-work\txoko-client-src\source\UserInterface\NetworkActorManager.cpp
;	COMDAT ?__RemoveAllGroundItems@CNetworkActorManager@@IAEXXZ
_TEXT	SEGMENT
?__RemoveAllGroundItems@CNetworkActorManager@@IAEXXZ PROC ; CNetworkActorManager::__RemoveAllGroundItems, COMDAT
; _this$dead$ = ecx

; 211  : 	CPythonItem& rkItemMgr=CPythonItem::Instance();
; 212  : 	rkItemMgr.DeleteAllItems();

  00000	8b 0d 00 00 00
	00		 mov	 ecx, DWORD PTR ?ms_singleton@?$CSingleton@VCPythonItem@@@@0PAVCPythonItem@@A ; CSingleton<CPythonItem>::ms_singleton
  00006	e9 00 00 00 00	 jmp	 ?DeleteAllItems@CPythonItem@@QAEXXZ ; CPythonItem::DeleteAllItems
?__RemoveAllGroundItems@CNetworkActorManager@@IAEXXZ ENDP ; CNetworkActorManager::__RemoveAllGroundItems
_TEXT	ENDS
; Function compile flags: /Ogtp
; File D:\_m2work\txoko-m2-work\txoko-client-src\source\UserInterface\NetworkActorManager.cpp
; File C:\Program Files\Microsoft Visual Studio\2022\Community\VC\Tools\MSVC\14.44.35207\include\vector
; File D:\_m2work\txoko-m2-work\txoko-client-src\source\UserInterface\NetworkActorManager.cpp
; File C:\Program Files\Microsoft Visual Studio\2022\Community\VC\Tools\MSVC\14.44.35207\include\xtree
; File D:\_m2work\txoko-m2-work\txoko-client-src\source\UserInterface\PythonCharacterManager.h
; File D:\_m2work\txoko-m2-work\txoko-client-src\source\UserInterface\NetworkActorManager.cpp
; File C:\Program Files\Microsoft Visual Studio\2022\Community\VC\Tools\MSVC\14.44.35207\include\vector
; File C:\Program Files\Microsoft Visual Studio\2022\Community\VC\Tools\MSVC\14.44.35207\include\xtree
; File D:\_m2work\txoko-m2-work\txoko-client-src\source\UserInterface\PythonCharacterManager.h
; File D:\_m2work\txoko-m2-work\txoko-client-src\source\UserInterface\NetworkActorManager.cpp
; File C:\Program Files\Microsoft Visual Studio\2022\Community\VC\Tools\MSVC\14.44.35207\include\vector
; File D:\_m2work\txoko-m2-work\txoko-client-src\source\UserInterface\NetworkActorManager.cpp
; File C:\Program Files\Microsoft Visual Studio\2022\Community\VC\Tools\MSVC\14.44.35207\include\vector
; File D:\_m2work\txoko-m2-work\txoko-client-src\source\UserInterface\NetworkActorManager.cpp
; File C:\Program Files\Microsoft Visual Studio\2022\Community\VC\Tools\MSVC\14.44.35207\include\vector
; File D:\_m2work\txoko-m2-work\txoko-client-src\source\UserInterface\NetworkActorManager.cpp
; File C:\Program Files\Microsoft Visual Studio\2022\Community\VC\Tools\MSVC\14.44.35207\include\vector
; File C:\Program Files\Microsoft Visual Studio\2022\Community\VC\Tools\MSVC\14.44.35207\include\xtree
; File C:\Program Files\Microsoft Visual Studio\2022\Community\VC\Tools\MSVC\14.44.35207\include\type_traits
; File C:\Program Files\Microsoft Visual Studio\2022\Community\VC\Tools\MSVC\14.44.35207\include\xtree
; File D:\_m2work\txoko-m2-work\txoko-client-src\source\UserInterface\NetworkActorManager.cpp
; File C:\Program Files\Microsoft Visual Studio\2022\Community\VC\Tools\MSVC\14.44.35207\include\xtree
; File C:\Program Files\Microsoft Visual Studio\2022\Community\VC\Tools\MSVC\14.44.35207\include\xstring
; File C:\Program Files\Microsoft Visual Studio\2022\Community\VC\Tools\MSVC\14.44.35207\include\xmemory
; File D:\_m2work\txoko-m2-work\txoko-client-src\source\UserInterface\NetworkActorManager.cpp
; File C:\Program Files\Microsoft Visual Studio\2022\Community\VC\Tools\MSVC\14.44.35207\include\xmemory
; File D:\_m2work\txoko-m2-work\txoko-client-src\source\UserInterface\NetworkActorManager.cpp
; File C:\Program Files\Microsoft Visual Studio\2022\Community\VC\Tools\MSVC\14.44.35207\include\vector
; File D:\_m2work\txoko-m2-work\txoko-client-src\source\UserInterface\NetworkActorManager.cpp
; File C:\Program Files\Microsoft Visual Studio\2022\Community\VC\Tools\MSVC\14.44.35207\include\vector
; File D:\_m2work\txoko-m2-work\txoko-client-src\source\UserInterface\NetworkActorManager.cpp
; File C:\Program Files\Microsoft Visual Studio\2022\Community\VC\Tools\MSVC\14.44.35207\include\vector
; File D:\_m2work\txoko-m2-work\txoko-client-src\source\UserInterface\NetworkActorManager.cpp
; File C:\Program Files\Microsoft Visual Studio\2022\Community\VC\Tools\MSVC\14.44.35207\include\xtree
; File D:\_m2work\txoko-m2-work\txoko-client-src\source\UserInterface\NetworkActorManager.cpp
;	COMDAT ?__RemoveDynamicActors@CNetworkActorManager@@IAEXXZ
_TEXT	SEGMENT
__Loc$2 = -52						; size = 12
_dwCharacterVIDList$ = -40				; size = 12
_this$1$ = -28						; size = 4
$T3 = -24						; size = 4
_i$4 = -20						; size = 4
_rkChrMgr$1$ = -16					; size = 4
__$EHRec$ = -12						; size = 12
?__RemoveDynamicActors@CNetworkActorManager@@IAEXXZ PROC ; CNetworkActorManager::__RemoveDynamicActors, COMDAT
; _this$ = ecx

; 224  : {

  00000	55		 push	 ebp
  00001	8b ec		 mov	 ebp, esp
  00003	6a ff		 push	 -1
  00005	68 00 00 00 00	 push	 __ehhandler$?__RemoveDynamicActors@CNetworkActorManager@@IAEXXZ
  0000a	64 a1 00 00 00
	00		 mov	 eax, DWORD PTR fs:0
  00010	50		 push	 eax
  00011	83 ec 28	 sub	 esp, 40			; 00000028H
  00014	53		 push	 ebx
  00015	56		 push	 esi
  00016	57		 push	 edi
  00017	a1 00 00 00 00	 mov	 eax, DWORD PTR ___security_cookie
  0001c	33 c5		 xor	 eax, ebp
  0001e	50		 push	 eax
  0001f	8d 45 f4	 lea	 eax, DWORD PTR __$EHRec$[ebp]
  00022	64 a3 00 00 00
	00		 mov	 DWORD PTR fs:0, eax
  00028	89 4d e4	 mov	 DWORD PTR _this$1$[ebp], ecx
; File C:\Program Files\Microsoft Visual Studio\2022\Community\VC\Tools\MSVC\14.44.35207\include\vector

; 400  :     _CONSTEXPR20 _Vector_val() noexcept : _Myfirst(), _Mylast(), _Myend() {}

  0002b	33 d2		 xor	 edx, edx
  0002d	33 f6		 xor	 esi, esi
  0002f	89 75 d8	 mov	 DWORD PTR _dwCharacterVIDList$[ebp], esi
  00032	89 55 dc	 mov	 DWORD PTR _dwCharacterVIDList$[ebp+4], edx
  00035	89 55 e0	 mov	 DWORD PTR _dwCharacterVIDList$[ebp+8], edx
; File D:\_m2work\txoko-m2-work\txoko-client-src\source\UserInterface\NetworkActorManager.cpp

; 226  : 	std::vector<DWORD> dwCharacterVIDList;

  00038	89 55 fc	 mov	 DWORD PTR __$EHRec$[ebp+8], edx

; 227  : 
; 228  : 	CPythonCharacterManager& rkChrMgr=CPythonCharacterManager::Instance();

  0003b	8b 1d 00 00 00
	00		 mov	 ebx, DWORD PTR ?ms_singleton@?$CSingleton@VCPythonCharacterManager@@@@0PAVCPythonCharacterManager@@A ; CSingleton<CPythonCharacterManager>::ms_singleton
  00041	89 5d f0	 mov	 DWORD PTR _rkChrMgr$1$[ebp], ebx
; File C:\Program Files\Microsoft Visual Studio\2022\Community\VC\Tools\MSVC\14.44.35207\include\xtree

; 1142 :         return iterator(_Scary->_Myhead->_Left, _Scary);

  00044	8b 4b 20	 mov	 ecx, DWORD PTR [ebx+32]

; 37   :     _Tree_unchecked_const_iterator(_Nodeptr _Pnode, const _Mytree* _Plist) noexcept : _Ptr(_Pnode) {

  00047	8b 01		 mov	 eax, DWORD PTR [ecx]
; File D:\_m2work\txoko-m2-work\txoko-client-src\source\UserInterface\PythonCharacterManager.h

; 132  : 			CharacterIterator(const TCharacterInstanceMap::iterator & it) : m_it(it) {}

  00049	89 45 ec	 mov	 DWORD PTR _i$4[ebp], eax

; 162  : 				return m_it != rhs.m_it;

  0004c	3b c1		 cmp	 eax, ecx
; File D:\_m2work\txoko-m2-work\txoko-client-src\source\UserInterface\NetworkActorManager.cpp

; 229  : 	for(CPythonCharacterManager::CharacterIterator i = rkChrMgr.CharacterInstanceBegin(); i!=rkChrMgr.CharacterInstanceEnd(); ++i)

  0004e	74 2d		 je	 SHORT $LN3@RemoveDyna
$LL4@RemoveDyna:

; 230  : 	{
; 231  : 		dwCharacterVIDList.push_back( (*i)->GetVirtualID() );

  00050	8b 48 14	 mov	 ecx, DWORD PTR [eax+20]
  00053	e8 00 00 00 00	 call	 ?GetVirtualID@CInstanceBase@@QAEKXZ ; CInstanceBase::GetVirtualID
  00058	89 45 e8	 mov	 DWORD PTR $T3[ebp], eax
; File C:\Program Files\Microsoft Visual Studio\2022\Community\VC\Tools\MSVC\14.44.35207\include\vector

; 938  :         _Emplace_one_at_back(_STD move(_Val));

  0005b	8d 4d d8	 lea	 ecx, DWORD PTR _dwCharacterVIDList$[ebp]
  0005e	8d 45 e8	 lea	 eax, DWORD PTR $T3[ebp]
  00061	50		 push	 eax
  00062	e8 00 00 00 00	 call	 ??$_Emplace_one_at_back@K@?$vector@KV?$allocator@K@std@@@std@@AAEAAK$$QAK@Z ; std::vector<unsigned long,std::allocator<unsigned long> >::_Emplace_one_at_back<unsigned long>
; File C:\Program Files\Microsoft Visual Studio\2022\Community\VC\Tools\MSVC\14.44.35207\include\xtree

; 198  :         _Mybase::operator++();

  00067	8d 4d ec	 lea	 ecx, DWORD PTR _i$4[ebp]
  0006a	e8 00 00 00 00	 call	 ??E?$_Tree_unchecked_const_iterator@V?$_Tree_val@U?$_Tree_simple_types@U?$pair@$$CBKPAVCInstanceBase@@@std@@@std@@@std@@U_Iterator_base0@2@@std@@QAEAAV01@XZ ; std::_Tree_unchecked_const_iterator<std::_Tree_val<std::_Tree_simple_types<std::pair<unsigned long const ,CInstanceBase *> > >,std::_Iterator_base0>::operator++
; File D:\_m2work\txoko-m2-work\txoko-client-src\source\UserInterface\PythonCharacterManager.h

; 162  : 				return m_it != rhs.m_it;

  0006f	8b 45 ec	 mov	 eax, DWORD PTR _i$4[ebp]
  00072	3b 43 20	 cmp	 eax, DWORD PTR [ebx+32]
; File D:\_m2work\txoko-m2-work\txoko-client-src\source\UserInterface\NetworkActorManager.cpp

; 229  : 	for(CPythonCharacterManager::CharacterIterator i = rkChrMgr.CharacterInstanceBegin(); i!=rkChrMgr.CharacterInstanceEnd(); ++i)

  00075	75 d9		 jne	 SHORT $LL4@RemoveDyna
  00077	8b 55 dc	 mov	 edx, DWORD PTR _dwCharacterVIDList$[ebp+4]
  0007a	8b 75 d8	 mov	 esi, DWORD PTR _dwCharacterVIDList$[ebp]
$LN3@RemoveDyna:
; File C:\Program Files\Microsoft Visual Studio\2022\Community\VC\Tools\MSVC\14.44.35207\include\vector

; 1915 :         return static_cast<size_type>(_My_data._Mylast - _My_data._Myfirst);

  0007d	2b d6		 sub	 edx, esi
; File D:\_m2work\txoko-m2-work\txoko-client-src\source\UserInterface\NetworkActorManager.cpp

; 234  : 	for( int i = 0; i < dwCharacterVIDList.size(); ++i )

  0007f	33 ff		 xor	 edi, edi
; File C:\Program Files\Microsoft Visual Studio\2022\Community\VC\Tools\MSVC\14.44.35207\include\vector

; 1915 :         return static_cast<size_type>(_My_data._Mylast - _My_data._Myfirst);

  00081	c1 fa 02	 sar	 edx, 2
; File D:\_m2work\txoko-m2-work\txoko-client-src\source\UserInterface\NetworkActorManager.cpp

; 234  : 	for( int i = 0; i < dwCharacterVIDList.size(); ++i )

  00084	85 d2		 test	 edx, edx
  00086	0f 84 b6 00 00
	00		 je	 $LN224@RemoveDyna
  0008c	8d 4b 04	 lea	 ecx, DWORD PTR [ebx+4]
  0008f	90		 npad	 1
$LL7@RemoveDyna:

; 235  : 	{
; 236  : 		CInstanceBase*  pkInstEach = rkChrMgr.GetInstancePtr( dwCharacterVIDList[i] );

  00090	8b 01		 mov	 eax, DWORD PTR [ecx]
  00092	ff 34 be	 push	 DWORD PTR [esi+edi*4]
  00095	ff 50 08	 call	 DWORD PTR [eax+8]

; 237  : 		if( !pkInstEach )

  00098	85 c0		 test	 eax, eax
  0009a	0f 84 c3 00 00
	00		 je	 $LN231@RemoveDyna

; 238  : 			continue;
; 239  : 		
; 240  : 		CActorInstance* rkActorEach=pkInstEach->GetGraphicThingInstancePtr();

  000a0	8b c8		 mov	 ecx, eax
  000a2	e8 00 00 00 00	 call	 ?GetGraphicThingInstancePtr@CInstanceBase@@QAEPAVCActorInstance@@XZ ; CInstanceBase::GetGraphicThingInstancePtr
  000a7	8b f0		 mov	 esi, eax

; 241  : 		if( rkActorEach->IsPC() || rkActorEach->IsNPC() || rkActorEach->IsEnemy() )

  000a9	8b ce		 mov	 ecx, esi
  000ab	e8 00 00 00 00	 call	 ?IsPC@CActorInstance@@QAE_NXZ ; CActorInstance::IsPC
  000b0	84 c0		 test	 al, al
  000b2	75 1a		 jne	 SHORT $LN10@RemoveDyna
  000b4	8b ce		 mov	 ecx, esi
  000b6	e8 00 00 00 00	 call	 ?IsNPC@CActorInstance@@QAE_NXZ ; CActorInstance::IsNPC
  000bb	84 c0		 test	 al, al
  000bd	75 0f		 jne	 SHORT $LN10@RemoveDyna
  000bf	8b ce		 mov	 ecx, esi
  000c1	e8 00 00 00 00	 call	 ?IsEnemy@CActorInstance@@QAE_NXZ ; CActorInstance::IsEnemy
  000c6	84 c0		 test	 al, al
  000c8	0f 84 95 00 00
	00		 je	 $LN231@RemoveDyna
$LN10@RemoveDyna:

; 242  : 		{
; 243  : 			rkChrMgr.DeleteInstance(dwCharacterVIDList[i]);

  000ce	8b 45 d8	 mov	 eax, DWORD PTR _dwCharacterVIDList$[ebp]
  000d1	8b cb		 mov	 ecx, ebx
  000d3	ff 34 b8	 push	 DWORD PTR [eax+edi*4]
  000d6	e8 00 00 00 00	 call	 ?DeleteInstance@CPythonCharacterManager@@QAEXK@Z ; CPythonCharacterManager::DeleteInstance
; File C:\Program Files\Microsoft Visual Studio\2022\Community\VC\Tools\MSVC\14.44.35207\include\vector

; 1934 :         return _My_data._Myfirst[_Pos];

  000db	8b 75 d8	 mov	 esi, DWORD PTR _dwCharacterVIDList$[ebp]
; File D:\_m2work\txoko-m2-work\txoko-client-src\source\UserInterface\NetworkActorManager.cpp

; 244  : 			std::map<DWORD, SNetworkActorData>::iterator it =m_kNetActorDict.find(dwCharacterVIDList[i]);

  000de	8b 5d e4	 mov	 ebx, DWORD PTR _this$1$[ebp]
; File C:\Program Files\Microsoft Visual Studio\2022\Community\VC\Tools\MSVC\14.44.35207\include\vector

; 1934 :         return _My_data._Myfirst[_Pos];

  000e1	8d 04 be	 lea	 eax, DWORD PTR [esi+edi*4]
; File C:\Program Files\Microsoft Visual Studio\2022\Community\VC\Tools\MSVC\14.44.35207\include\xtree

; 1384 :         const _Tree_find_result<_Nodeptr> _Loc = _Find_lower_bound(_Keyval);

  000e4	50		 push	 eax
  000e5	8d 45 cc	 lea	 eax, DWORD PTR __Loc$2[ebp]
  000e8	50		 push	 eax
  000e9	8d 4b 18	 lea	 ecx, DWORD PTR [ebx+24]
  000ec	e8 00 00 00 00	 call	 ??$_Find_lower_bound@K@?$_Tree@V?$_Tmap_traits@KUSNetworkActorData@@U?$less@K@std@@V?$allocator@U?$pair@$$CBKUSNetworkActorData@@@std@@@3@$0A@@std@@@std@@IBE?AU?$_Tree_find_result@PAU?$_Tree_node@U?$pair@$$CBKUSNetworkActorData@@@std@@PAX@std@@@1@ABK@Z ; std::_Tree<std::_Tmap_traits<unsigned long,SNetworkActorData,std::less<unsigned long>,std::allocator<std::pair<unsigned long const ,SNetworkActorData> >,0> >::_Find_lower_bound<unsigned long>

; 1624 :         return !_Bound->_Isnil && !_DEBUG_LT_PRED(_Getcomp(), _Keyval, _Traits::_Kfn(_Bound->_Myval));

  000f1	8b 55 d4	 mov	 edx, DWORD PTR __Loc$2[ebp+8]
  000f4	80 7a 0d 00	 cmp	 BYTE PTR [edx+13], 0
  000f8	75 31		 jne	 SHORT $LN234@RemoveDyna
; File C:\Program Files\Microsoft Visual Studio\2022\Community\VC\Tools\MSVC\14.44.35207\include\type_traits

; 2380 :         return _Left < _Right;

  000fa	8b 04 be	 mov	 eax, DWORD PTR [esi+edi*4]
  000fd	3b 42 10	 cmp	 eax, DWORD PTR [edx+16]
; File C:\Program Files\Microsoft Visual Studio\2022\Community\VC\Tools\MSVC\14.44.35207\include\xtree

; 1624 :         return !_Bound->_Isnil && !_DEBUG_LT_PRED(_Getcomp(), _Keyval, _Traits::_Kfn(_Bound->_Myval));

  00100	72 29		 jb	 SHORT $LN234@RemoveDyna

; 37   :     _Tree_unchecked_const_iterator(_Nodeptr _Pnode, const _Mytree* _Plist) noexcept : _Ptr(_Pnode) {

  00102	3b 53 18	 cmp	 edx, DWORD PTR [ebx+24]
; File D:\_m2work\txoko-m2-work\txoko-client-src\source\UserInterface\NetworkActorManager.cpp

; 245  : 			if (it != m_kNetActorDict.end())

  00105	74 24		 je	 SHORT $LN234@RemoveDyna
; File C:\Program Files\Microsoft Visual Studio\2022\Community\VC\Tools\MSVC\14.44.35207\include\xtree

; 1303 :         _Nodeptr _Erasednode = _Scary->_Extract(_Where); // node to erase

  00107	52		 push	 edx
  00108	8d 4b 18	 lea	 ecx, DWORD PTR [ebx+24]
  0010b	e8 00 00 00 00	 call	 ?_Extract@?$_Tree_val@U?$_Tree_simple_types@U?$pair@$$CBKUSNetworkActorData@@@std@@@std@@@std@@QAEPAU?$_Tree_node@U?$pair@$$CBKUSNetworkActorData@@@std@@PAX@2@V?$_Tree_unchecked_const_iterator@V?$_Tree_val@U?$_Tree_simple_types@U?$pair@$$CBKUSNetworkActorData@@@std@@@std@@@std@@U_Iterator_base0@2@@2@@Z ; std::_Tree_val<std::_Tree_simple_types<std::pair<unsigned long const ,SNetworkActorData> > >::_Extract
  00110	8b f0		 mov	 esi, eax

; 381  :         allocator_traits<_Alloc>::destroy(_Al, _STD addressof(_Ptr->_Myval));

  00112	8d 4e 14	 lea	 ecx, DWORD PTR [esi+20]
; File C:\Program Files\Microsoft Visual Studio\2022\Community\VC\Tools\MSVC\14.44.35207\include\xstring

; 1383 :         _Tidy_deallocate();

  00115	e8 00 00 00 00	 call	 ?_Tidy_deallocate@?$basic_string@DU?$char_traits@D@std@@V?$allocator@D@2@@std@@AAEXXZ ; std::basic_string<char,std::char_traits<char>,std::allocator<char> >::_Tidy_deallocate
; File C:\Program Files\Microsoft Visual Studio\2022\Community\VC\Tools\MSVC\14.44.35207\include\xmemory

; 289  :         ::operator delete(_Ptr, _Bytes);

  0011a	68 98 00 00 00	 push	 152			; 00000098H
  0011f	56		 push	 esi
  00120	e8 00 00 00 00	 call	 ??3@YAXPAXI@Z		; operator delete
; File D:\_m2work\txoko-m2-work\txoko-client-src\source\UserInterface\NetworkActorManager.cpp

; 237  : 		if( !pkInstEach )

  00125	8b 75 d8	 mov	 esi, DWORD PTR _dwCharacterVIDList$[ebp]
; File C:\Program Files\Microsoft Visual Studio\2022\Community\VC\Tools\MSVC\14.44.35207\include\xmemory

; 289  :         ::operator delete(_Ptr, _Bytes);

  00128	83 c4 08	 add	 esp, 8
$LN234@RemoveDyna:
; File D:\_m2work\txoko-m2-work\txoko-client-src\source\UserInterface\NetworkActorManager.cpp

; 234  : 	for( int i = 0; i < dwCharacterVIDList.size(); ++i )

  0012b	8b 5d f0	 mov	 ebx, DWORD PTR _rkChrMgr$1$[ebp]
$LN5@RemoveDyna:
; File C:\Program Files\Microsoft Visual Studio\2022\Community\VC\Tools\MSVC\14.44.35207\include\vector

; 1915 :         return static_cast<size_type>(_My_data._Mylast - _My_data._Myfirst);

  0012e	8b 45 dc	 mov	 eax, DWORD PTR _dwCharacterVIDList$[ebp+4]
; File D:\_m2work\txoko-m2-work\txoko-client-src\source\UserInterface\NetworkActorManager.cpp

; 234  : 	for( int i = 0; i < dwCharacterVIDList.size(); ++i )

  00131	8d 4b 04	 lea	 ecx, DWORD PTR [ebx+4]
; File C:\Program Files\Microsoft Visual Studio\2022\Community\VC\Tools\MSVC\14.44.35207\include\vector

; 1915 :         return static_cast<size_type>(_My_data._Mylast - _My_data._Myfirst);

  00134	2b c6		 sub	 eax, esi
; File D:\_m2work\txoko-m2-work\txoko-client-src\source\UserInterface\NetworkActorManager.cpp

; 234  : 	for( int i = 0; i < dwCharacterVIDList.size(); ++i )

  00136	47		 inc	 edi
; File C:\Program Files\Microsoft Visual Studio\2022\Community\VC\Tools\MSVC\14.44.35207\include\vector

; 1915 :         return static_cast<size_type>(_My_data._Mylast - _My_data._Myfirst);

  00137	c1 f8 02	 sar	 eax, 2
; File D:\_m2work\txoko-m2-work\txoko-client-src\source\UserInterface\NetworkActorManager.cpp

; 234  : 	for( int i = 0; i < dwCharacterVIDList.size(); ++i )

  0013a	3b f8		 cmp	 edi, eax
  0013c	0f 82 4e ff ff
	ff		 jb	 $LL7@RemoveDyna
$LN224@RemoveDyna:

; 246  : 			{
; 247  : 				m_kNetActorDict.erase(it);
; 248  : 			}
; 249  : 		}
; 250  : 	}
; 251  : 						
; 252  : 	rkChrMgr.DestroyDeadInstanceList();

  00142	8b cb		 mov	 ecx, ebx
  00144	e8 00 00 00 00	 call	 ?DestroyDeadInstanceList@CPythonCharacterManager@@QAEXXZ ; CPythonCharacterManager::DestroyDeadInstanceList

; 253  : }

  00149	8d 4d d8	 lea	 ecx, DWORD PTR _dwCharacterVIDList$[ebp]
  0014c	e8 00 00 00 00	 call	 ??1?$vector@KV?$allocator@K@std@@@std@@QAE@XZ ; std::vector<unsigned long,std::allocator<unsigned long> >::~vector<unsigned long,std::allocator<unsigned long> >
  00151	8b 4d f4	 mov	 ecx, DWORD PTR __$EHRec$[ebp]
  00154	64 89 0d 00 00
	00 00		 mov	 DWORD PTR fs:0, ecx
  0015b	59		 pop	 ecx
  0015c	5f		 pop	 edi
  0015d	5e		 pop	 esi
  0015e	5b		 pop	 ebx
  0015f	8b e5		 mov	 esp, ebp
  00161	5d		 pop	 ebp
  00162	c3		 ret	 0
$LN231@RemoveDyna:

; 237  : 		if( !pkInstEach )

  00163	8b 75 d8	 mov	 esi, DWORD PTR _dwCharacterVIDList$[ebp]
; File C:\Program Files\Microsoft Visual Studio\2022\Community\VC\Tools\MSVC\14.44.35207\include\xtree

; 1624 :         return !_Bound->_Isnil && !_DEBUG_LT_PRED(_Getcomp(), _Keyval, _Traits::_Kfn(_Bound->_Myval));

  00166	eb c6		 jmp	 SHORT $LN5@RemoveDyna
_TEXT	ENDS
;	COMDAT text$x
text$x	SEGMENT
__unwindfunclet$?__RemoveDynamicActors@CNetworkActorManager@@IAEXXZ$0:
  00000	8d 4d d8	 lea	 ecx, DWORD PTR _dwCharacterVIDList$[ebp]
  00003	e9 00 00 00 00	 jmp	 ??1?$vector@KV?$allocator@K@std@@@std@@QAE@XZ ; std::vector<unsigned long,std::allocator<unsigned long> >::~vector<unsigned long,std::allocator<unsigned long> >
  00008	cc		 int	 3
  00009	cc		 int	 3
  0000a	cc		 int	 3
  0000b	cc		 int	 3
  0000c	cc		 int	 3
__ehhandler$?__RemoveDynamicActors@CNetworkActorManager@@IAEXXZ:
  0000d	90		 npad	 1
  0000e	90		 npad	 1
  0000f	8b 54 24 08	 mov	 edx, DWORD PTR [esp+8]
  00013	8d 42 0c	 lea	 eax, DWORD PTR [edx+12]
  00016	8b 4a c8	 mov	 ecx, DWORD PTR [edx-56]
  00019	33 c8		 xor	 ecx, eax
  0001b	e8 00 00 00 00	 call	 @__security_check_cookie@4
  00020	b8 00 00 00 00	 mov	 eax, OFFSET __ehfuncinfo$?__RemoveDynamicActors@CNetworkActorManager@@IAEXXZ
  00025	e9 00 00 00 00	 jmp	 ___CxxFrameHandler3
text$x	ENDS
?__RemoveDynamicActors@CNetworkActorManager@@IAEXXZ ENDP ; CNetworkActorManager::__RemoveDynamicActors
; Function compile flags: /Ogtp
; File D:\_m2work\txoko-m2-work\txoko-client-src\source\UserInterface\NetworkActorManager.cpp
;	COMDAT ?__UpdateMainActor@CNetworkActorManager@@IAEXXZ
_TEXT	SEGMENT
_kPPosMain$ = -12					; size = 12
?__UpdateMainActor@CNetworkActorManager@@IAEXXZ PROC	; CNetworkActorManager::__UpdateMainActor, COMDAT
; _this$ = ecx

; 256  : {

  00000	55		 push	 ebp
  00001	8b ec		 mov	 ebp, esp
  00003	83 ec 0c	 sub	 esp, 12			; 0000000cH
  00006	56		 push	 esi
  00007	8b f1		 mov	 esi, ecx

; 257  : 	CPythonCharacterManager & rkChrMgr = CPythonCharacterManager::Instance();	
; 258  : 	CInstanceBase* pkInstMain=rkChrMgr.GetMainInstancePtr();

  00009	8b 0d 00 00 00
	00		 mov	 ecx, DWORD PTR ?ms_singleton@?$CSingleton@VCPythonCharacterManager@@@@0PAVCPythonCharacterManager@@A ; CSingleton<CPythonCharacterManager>::ms_singleton
  0000f	e8 00 00 00 00	 call	 ?GetMainInstancePtr@CPythonCharacterManager@@QAEPAVCInstanceBase@@XZ ; CPythonCharacterManager::GetMainInstancePtr

; 259  : 	if (!pkInstMain)

  00014	85 c0		 test	 eax, eax
  00016	74 1b		 je	 SHORT $LN1@UpdateMain

; 260  : 		return;
; 261  : 
; 262  : 	TPixelPosition kPPosMain;
; 263  : 	pkInstMain->NEW_GetPixelPosition(&kPPosMain);

  00018	8d 4d f4	 lea	 ecx, DWORD PTR _kPPosMain$[ebp]
  0001b	51		 push	 ecx
  0001c	8b c8		 mov	 ecx, eax
  0001e	e8 00 00 00 00	 call	 ?NEW_GetPixelPosition@CInstanceBase@@QAEXPAUD3DXVECTOR3@@@Z ; CInstanceBase::NEW_GetPixelPosition

; 264  : 
; 265  : 	m_lMainPosX=LONG(kPPosMain.x);

  00023	f3 0f 2c 45 f4	 cvttss2si eax, DWORD PTR _kPPosMain$[ebp]
  00028	89 46 10	 mov	 DWORD PTR [esi+16], eax

; 266  : 	m_lMainPosY=LONG(kPPosMain.y);

  0002b	f3 0f 2c 45 f8	 cvttss2si eax, DWORD PTR _kPPosMain$[ebp+4]
  00030	89 46 14	 mov	 DWORD PTR [esi+20], eax
$LN1@UpdateMain:
  00033	5e		 pop	 esi

; 267  : }

  00034	8b e5		 mov	 esp, ebp
  00036	5d		 pop	 ebp
  00037	c3		 ret	 0
?__UpdateMainActor@CNetworkActorManager@@IAEXXZ ENDP	; CNetworkActorManager::__UpdateMainActor
_TEXT	ENDS
; Function compile flags: /Ogtp
; File D:\_m2work\txoko-m2-work\txoko-client-src\source\UserInterface\NetworkActorManager.cpp
;	COMDAT ?__IsVisibleActor@CNetworkActorManager@@IAE_NABUSNetworkActorData@@@Z
_TEXT	SEGMENT
_c_rkNetActorData$ = 8					; size = 4
?__IsVisibleActor@CNetworkActorManager@@IAE_NABUSNetworkActorData@@@Z PROC ; CNetworkActorManager::__IsVisibleActor, COMDAT
; _this$ = ecx

; 272  : {

  00000	55		 push	 ebp
  00001	8b ec		 mov	 ebp, esp
  00003	51		 push	 ecx
  00004	56		 push	 esi

; 273  : 	if (__IsMainActorVID(c_rkNetActorData.m_dwVID))

  00005	8b 75 08	 mov	 esi, DWORD PTR _c_rkNetActorData$[ebp]
  00008	57		 push	 edi
  00009	8b f9		 mov	 edi, ecx
  0000b	ff 76 24	 push	 DWORD PTR [esi+36]
  0000e	e8 00 00 00 00	 call	 ?__IsMainActorVID@CNetworkActorManager@@IAE_NK@Z ; CNetworkActorManager::__IsMainActorVID
  00013	84 c0		 test	 al, al
  00015	75 33		 jne	 SHORT $LN7@IsVisibleA

; 274  : 		return true;
; 275  : 
; 276  : 	// 2004.08.02.myevan.  
; 277  : 	if (c_rkNetActorData.m_kAffectFlags.IsSet(CInstanceBase::AFFECT_SHOW_ALWAYS))

  00017	6a 07		 push	 7
  00019	8d 4e 18	 lea	 ecx, DWORD PTR [esi+24]
  0001c	e8 00 00 00 00	 call	 ?IsSet@CAffectFlagContainer@@QBE_NI@Z ; CAffectFlagContainer::IsSet
  00021	84 c0		 test	 al, al
  00023	75 25		 jne	 SHORT $LN7@IsVisibleA

; 278  : 		return true;
; 279  : 
; 280  : 	if (__IsVisiblePos(c_rkNetActorData.m_lCurX, c_rkNetActorData.m_lCurY))

  00025	ff 76 44	 push	 DWORD PTR [esi+68]
  00028	8b cf		 mov	 ecx, edi
  0002a	ff 76 40	 push	 DWORD PTR [esi+64]
  0002d	e8 00 00 00 00	 call	 ?__IsVisiblePos@CNetworkActorManager@@IAE_NJJ@Z ; CNetworkActorManager::__IsVisiblePos
  00032	84 c0		 test	 al, al
  00034	75 14		 jne	 SHORT $LN7@IsVisibleA

; 281  : 		return true;
; 282  : 
; 283  : 	if (IsWall(c_rkNetActorData.m_dwRace))

  00036	8b 4e 30	 mov	 ecx, DWORD PTR [esi+48]
  00039	e8 00 00 00 00	 call	 ?IsWall@@YA_NI@Z	; IsWall
  0003e	84 c0		 test	 al, al
  00040	0f 95 c0	 setne	 al

; 284  : 		return true;
; 285  : 
; 286  :  	return false;
; 287  : }

  00043	5f		 pop	 edi
  00044	5e		 pop	 esi
  00045	59		 pop	 ecx
  00046	5d		 pop	 ebp
  00047	c2 04 00	 ret	 4
$LN7@IsVisibleA:
  0004a	5f		 pop	 edi
  0004b	b0 01		 mov	 al, 1
  0004d	5e		 pop	 esi
  0004e	59		 pop	 ecx
  0004f	5d		 pop	 ebp
  00050	c2 04 00	 ret	 4
?__IsVisibleActor@CNetworkActorManager@@IAE_NABUSNetworkActorData@@@Z ENDP ; CNetworkActorManager::__IsVisibleActor
_TEXT	ENDS
; Function compile flags: /Ogtp
; File D:\_m2work\txoko-m2-work\txoko-client-src\source\UserInterface\NetworkActorManager.cpp
;	COMDAT ?__IsVisiblePos@CNetworkActorManager@@IAE_NJJ@Z
_TEXT	SEGMENT
_lPosX$ = 8						; size = 4
_lPosY$ = 12						; size = 4
?__IsVisiblePos@CNetworkActorManager@@IAE_NJJ@Z PROC	; CNetworkActorManager::__IsVisiblePos, COMDAT
; _this$ = ecx

; 290  : {

  00000	55		 push	 ebp
  00001	8b ec		 mov	 ebp, esp
  00003	83 e4 f8	 and	 esp, -8			; fffffff8H

; 291  :  	LONG dx = lPosX-m_lMainPosX;

  00006	8b 55 08	 mov	 edx, DWORD PTR _lPosX$[ebp]
  00009	0f 57 c9	 xorps	 xmm1, xmm1

; 292  : 	LONG dy = lPosY-m_lMainPosY;

  0000c	8b 45 0c	 mov	 eax, DWORD PTR _lPosY$[ebp]
  0000f	2b 41 14	 sub	 eax, DWORD PTR [ecx+20]
  00012	2b 51 10	 sub	 edx, DWORD PTR [ecx+16]

; 293  : 	LONG len = (LONG)sqrt(double(dx * dx + dy * dy));

  00015	0f af c0	 imul	 eax, eax
  00018	0f af d2	 imul	 edx, edx
  0001b	03 c2		 add	 eax, edx
  0001d	66 0f 6e c0	 movd	 xmm0, eax
  00021	f3 0f e6 c0	 cvtdq2pd xmm0, xmm0
  00025	66 0f 2e c8	 ucomisd xmm1, xmm0
  00029	77 16		 ja	 SHORT $LN4@IsVisibleP
  0002b	f2 0f 51 c0	 sqrtsd	 xmm0, xmm0
  0002f	f2 0f 2c c0	 cvttsd2si eax, xmm0

; 294  : 
; 295  : 	extern int CHAR_STAGE_VIEW_BOUND;
; 296  : 	if (len < CHAR_STAGE_VIEW_BOUND) //  cm

  00033	3d 20 4e 00 00	 cmp	 eax, 20000		; 00004e20H
  00038	0f 9c c0	 setl	 al

; 297  : 		return true;
; 298  : 
; 299  : 	return false;
; 300  : }

  0003b	8b e5		 mov	 esp, ebp
  0003d	5d		 pop	 ebp
  0003e	c2 08 00	 ret	 8
$LN4@IsVisibleP:

; 293  : 	LONG len = (LONG)sqrt(double(dx * dx + dy * dy));

  00041	e8 00 00 00 00	 call	 __libm_sse2_sqrt_precise
  00046	f2 0f 2c c0	 cvttsd2si eax, xmm0

; 294  : 
; 295  : 	extern int CHAR_STAGE_VIEW_BOUND;
; 296  : 	if (len < CHAR_STAGE_VIEW_BOUND) //  cm

  0004a	3d 20 4e 00 00	 cmp	 eax, 20000		; 00004e20H
  0004f	0f 9c c0	 setl	 al

; 297  : 		return true;
; 298  : 
; 299  : 	return false;
; 300  : }

  00052	8b e5		 mov	 esp, ebp
  00054	5d		 pop	 ebp
  00055	c2 08 00	 ret	 8
?__IsVisiblePos@CNetworkActorManager@@IAE_NJJ@Z ENDP	; CNetworkActorManager::__IsVisiblePos
_TEXT	ENDS
; Function compile flags: /Ogtp
; File D:\_m2work\txoko-m2-work\txoko-client-src\source\UserInterface\NetworkActorManager.cpp
;	COMDAT ?__IsMainActorVID@CNetworkActorManager@@IAE_NK@Z
_TEXT	SEGMENT
_dwVID$ = 8						; size = 4
?__IsMainActorVID@CNetworkActorManager@@IAE_NK@Z PROC	; CNetworkActorManager::__IsMainActorVID, COMDAT
; _this$ = ecx

; 303  : {

  00000	55		 push	 ebp
  00001	8b ec		 mov	 ebp, esp

; 304  : 	if (dwVID == m_dwMainVID)

  00003	8b 45 08	 mov	 eax, DWORD PTR _dwVID$[ebp]
  00006	3b 41 0c	 cmp	 eax, DWORD PTR [ecx+12]
  00009	0f 94 c0	 sete	 al

; 305  : 		return true;
; 306  : 
; 307  : 	return false;
; 308  : }

  0000c	5d		 pop	 ebp
  0000d	c2 04 00	 ret	 4
?__IsMainActorVID@CNetworkActorManager@@IAE_NK@Z ENDP	; CNetworkActorManager::__IsMainActorVID
_TEXT	ENDS
; Function compile flags: /Ogtp
; File D:\_m2work\txoko-m2-work\txoko-client-src\source\UserInterface\NetworkActorManager.cpp
;	COMDAT ?__GetCharacterManager@CNetworkActorManager@@IAEAAVCPythonCharacterManager@@XZ
_TEXT	SEGMENT
?__GetCharacterManager@CNetworkActorManager@@IAEAAVCPythonCharacterManager@@XZ PROC ; CNetworkActorManager::__GetCharacterManager, COMDAT
; _this$dead$ = ecx

; 312  : 	return CPythonCharacterManager::Instance();

  00000	a1 00 00 00 00	 mov	 eax, DWORD PTR ?ms_singleton@?$CSingleton@VCPythonCharacterManager@@@@0PAVCPythonCharacterManager@@A ; CSingleton<CPythonCharacterManager>::ms_singleton

; 313  : }

  00005	c3		 ret	 0
?__GetCharacterManager@CNetworkActorManager@@IAEAAVCPythonCharacterManager@@XZ ENDP ; CNetworkActorManager::__GetCharacterManager
_TEXT	ENDS
; Function compile flags: /Ogtp
; File D:\_m2work\txoko-m2-work\txoko-client-src\source\UserInterface\NetworkActorManager.cpp
;	COMDAT ?__RemoveCharacterManagerActor@CNetworkActorManager@@IAEXAAUSNetworkActorData@@@Z
_TEXT	SEGMENT
_rkNetActorData$ = 8					; size = 4
?__RemoveCharacterManagerActor@CNetworkActorManager@@IAEXAAUSNetworkActorData@@@Z PROC ; CNetworkActorManager::__RemoveCharacterManagerActor, COMDAT
; _this$ = ecx

; 316  : {

  00000	55		 push	 ebp
  00001	8b ec		 mov	 ebp, esp

; 317  : 	CPythonCharacterManager & rkChrMgr = CPythonCharacterManager::Instance();	
; 318  : 
; 319  : 	if (__IsMainActorVID(rkNetActorData.m_dwVID))

  00003	8b 45 08	 mov	 eax, DWORD PTR _rkNetActorData$[ebp]
  00006	8b 50 24	 mov	 edx, DWORD PTR [eax+36]
  00009	52		 push	 edx
  0000a	e8 00 00 00 00	 call	 ?__IsMainActorVID@CNetworkActorManager@@IAE_NK@Z ; CNetworkActorManager::__IsMainActorVID
  0000f	84 c0		 test	 al, al
  00011	74 0f		 je	 SHORT $LN2@RemoveChar

; 320  : 	{
; 321  : 		rkChrMgr.DeleteInstance(rkNetActorData.m_dwVID);

  00013	89 55 08	 mov	 DWORD PTR _rkNetActorData$[ebp], edx
  00016	8b 0d 00 00 00
	00		 mov	 ecx, DWORD PTR ?ms_singleton@?$CSingleton@VCPythonCharacterManager@@@@0PAVCPythonCharacterManager@@A ; CSingleton<CPythonCharacterManager>::ms_singleton

; 326  : 	}	
; 327  : }

  0001c	5d		 pop	 ebp

; 320  : 	{
; 321  : 		rkChrMgr.DeleteInstance(rkNetActorData.m_dwVID);

  0001d	e9 00 00 00 00	 jmp	 ?DeleteInstance@CPythonCharacterManager@@QAEXK@Z ; CPythonCharacterManager::DeleteInstance
$LN2@RemoveChar:

; 322  : 	}
; 323  : 	else
; 324  : 	{
; 325  : 		rkChrMgr.DeleteInstanceByFade(rkNetActorData.m_dwVID);	

  00022	89 55 08	 mov	 DWORD PTR _rkNetActorData$[ebp], edx
  00025	8b 0d 00 00 00
	00		 mov	 ecx, DWORD PTR ?ms_singleton@?$CSingleton@VCPythonCharacterManager@@@@0PAVCPythonCharacterManager@@A ; CSingleton<CPythonCharacterManager>::ms_singleton

; 326  : 	}	
; 327  : }

  0002b	5d		 pop	 ebp

; 322  : 	}
; 323  : 	else
; 324  : 	{
; 325  : 		rkChrMgr.DeleteInstanceByFade(rkNetActorData.m_dwVID);	

  0002c	e9 00 00 00 00	 jmp	 ?DeleteInstanceByFade@CPythonCharacterManager@@QAEXK@Z ; CPythonCharacterManager::DeleteInstanceByFade
?__RemoveCharacterManagerActor@CNetworkActorManager@@IAEXAAUSNetworkActorData@@@Z ENDP ; CNetworkActorManager::__RemoveCharacterManagerActor
_TEXT	ENDS
; Function compile flags: /Ogtp
; File D:\_m2work\txoko-m2-work\txoko-client-src\source\UserInterface\NetworkActorManager.cpp
; File C:\Program Files\Microsoft Visual Studio\2022\Community\VC\Tools\MSVC\14.44.35207\include\xstring
; File D:\_m2work\txoko-m2-work\txoko-client-src\source\UserInterface\NetworkActorManager.cpp
; File C:\Program Files\Microsoft Visual Studio\2022\Community\VC\Tools\MSVC\14.44.35207\include\xstring
; File D:\_m2work\txoko-m2-work\txoko-client-src\source\UserInterface\NetworkActorManager.cpp
; File C:\Program Files\Microsoft Visual Studio\2022\Community\VC\Tools\MSVC\14.44.35207\include\xstring
; File D:\_m2work\txoko-m2-work\txoko-client-src\source\UserInterface\NetworkActorManager.cpp
; File C:\Program Files\Microsoft Visual Studio\2022\Community\VC\Tools\MSVC\14.44.35207\include\xstring
; File D:\_m2work\txoko-m2-work\txoko-client-src\source\UserInterface\NetworkActorManager.cpp
; File C:\Program Files\Microsoft Visual Studio\2022\Community\VC\Tools\MSVC\14.44.35207\include\xstring
; File C:\Program Files\Microsoft Visual Studio\2022\Community\VC\Tools\MSVC\14.44.35207\include\xmemory
; File C:\Program Files\Microsoft Visual Studio\2022\Community\VC\Tools\MSVC\14.44.35207\include\xstring
; File C:\Program Files\Microsoft Visual Studio\2022\Community\VC\Tools\MSVC\14.44.35207\include\xmemory
; File D:\_m2work\txoko-m2-work\txoko-client-src\source\UserInterface\NetworkActorManager.cpp
; File C:\Program Files\Microsoft Visual Studio\2022\Community\VC\Tools\MSVC\14.44.35207\include\xmemory
; File D:\_m2work\txoko-m2-work\txoko-client-src\source\UserInterface\NetworkActorManager.cpp
;	COMDAT ?__AppendCharacterManagerActor@CNetworkActorManager@@IAEPAVCInstanceBase@@AAUSNetworkActorData@@@Z
_TEXT	SEGMENT
_pOldInstance$1$ = -152					; size = 4
_this$GSCopy$1$ = -148					; size = 4
_dwVID$1$ = -144					; size = 4
_rkChrMgr$1$ = -140					; size = 4
_kCreateData$ = -136					; size = 104
_oldPos$2 = -32						; size = 12
_kPPosDst$3 = -32					; size = 12
__$ArrayPad$ = -20					; size = 4
__$EHRec$ = -12						; size = 12
_rkNetActorData$ = 8					; size = 4
?__AppendCharacterManagerActor@CNetworkActorManager@@IAEPAVCInstanceBase@@AAUSNetworkActorData@@@Z PROC ; CNetworkActorManager::__AppendCharacterManagerActor, COMDAT
; _this$ = ecx

; 330  : {

  00000	53		 push	 ebx
  00001	8b dc		 mov	 ebx, esp
  00003	83 ec 08	 sub	 esp, 8
  00006	83 e4 f8	 and	 esp, -8			; fffffff8H
  00009	83 c4 04	 add	 esp, 4
  0000c	55		 push	 ebp
  0000d	8b 6b 04	 mov	 ebp, DWORD PTR [ebx+4]
  00010	89 6c 24 04	 mov	 DWORD PTR [esp+4], ebp
  00014	8b ec		 mov	 ebp, esp
  00016	6a ff		 push	 -1
  00018	68 00 00 00 00	 push	 __ehhandler$?__AppendCharacterManagerActor@CNetworkActorManager@@IAEPAVCInstanceBase@@AAUSNetworkActorData@@@Z
  0001d	64 a1 00 00 00
	00		 mov	 eax, DWORD PTR fs:0
  00023	50		 push	 eax
  00024	53		 push	 ebx
  00025	81 ec 88 00 00
	00		 sub	 esp, 136		; 00000088H
  0002b	a1 00 00 00 00	 mov	 eax, DWORD PTR ___security_cookie
  00030	33 c5		 xor	 eax, ebp
  00032	89 45 ec	 mov	 DWORD PTR __$ArrayPad$[ebp], eax
  00035	56		 push	 esi
  00036	57		 push	 edi
  00037	50		 push	 eax
  00038	8d 45 f4	 lea	 eax, DWORD PTR __$EHRec$[ebp]
  0003b	64 a3 00 00 00
	00		 mov	 DWORD PTR fs:0, eax
  00041	89 8d 6c ff ff
	ff		 mov	 DWORD PTR _this$GSCopy$1$[ebp], ecx
  00047	8b 73 08	 mov	 esi, DWORD PTR _rkNetActorData$[ebx]
; File C:\Program Files\Microsoft Visual Studio\2022\Community\VC\Tools\MSVC\14.44.35207\include\xstring

; 444  :         const value_type* _Result = _Bx._Buf;

  0004a	8b c6		 mov	 eax, esi

; 453  :         return _Myres > _Small_string_capacity;

  0004c	83 7e 14 0f	 cmp	 DWORD PTR [esi+20], 15	; 0000000fH

; 445  :         if (_Large_mode_engaged()) {

  00050	76 02		 jbe	 SHORT $LN119@AppendChar

; 446  :             _Result = _Unfancy(_Bx._Ptr);

  00052	8b 06		 mov	 eax, DWORD PTR [esi]
$LN119@AppendChar:
; File D:\_m2work\txoko-m2-work\txoko-client-src\source\UserInterface\NetworkActorManager.cpp

; 331  : 	Lognf(0, "CNetworkActorManager::__AppendCharacterManagerActor(%d, %s)", rkNetActorData.m_dwVID, rkNetActorData.m_stName.c_str());

  00054	50		 push	 eax
  00055	ff 76 24	 push	 DWORD PTR [esi+36]
  00058	68 00 00 00 00	 push	 OFFSET ??_C@_0DM@DKEOKINK@CNetworkActorManager?3?3__AppendC@
  0005d	6a 00		 push	 0
  0005f	e8 00 00 00 00	 call	 ?Lognf@@YAXIPBDZZ	; Lognf

; 332  : 
; 333  : 	DWORD dwVID=rkNetActorData.m_dwVID;

  00064	8b 56 24	 mov	 edx, DWORD PTR [esi+36]
  00067	8d 4d bb	 lea	 ecx, DWORD PTR _kCreateData$[ebp+67]

; 334  : 
; 335  : 	CPythonCharacterManager & rkChrMgr = CPythonCharacterManager::Instance();

  0006a	a1 00 00 00 00	 mov	 eax, DWORD PTR ?ms_singleton@?$CSingleton@VCPythonCharacterManager@@@@0PAVCPythonCharacterManager@@A ; CSingleton<CPythonCharacterManager>::ms_singleton
  0006f	83 c4 10	 add	 esp, 16			; 00000010H
  00072	89 95 70 ff ff
	ff		 mov	 DWORD PTR _dwVID$1$[ebp], edx
  00078	89 85 74 ff ff
	ff		 mov	 DWORD PTR _rkChrMgr$1$[ebp], eax
  0007e	e8 00 00 00 00	 call	 ??0CAffectFlagContainer@@QAE@XZ ; CAffectFlagContainer::CAffectFlagContainer
  00083	0f 57 c0	 xorps	 xmm0, xmm0
; File C:\Program Files\Microsoft Visual Studio\2022\Community\VC\Tools\MSVC\14.44.35207\include\xstring

; 860  :         _My_data._Mysize = 0;

  00086	c7 45 d4 00 00
	00 00		 mov	 DWORD PTR _kCreateData$[ebp+92], 0

; 493  :         _CONSTEXPR20 _Bxty() noexcept : _Buf() {} // user-provided, for fancy pointers

  0008d	0f 11 45 c4	 movups	 XMMWORD PTR _kCreateData$[ebp+76], xmm0

; 861  :         _My_data._Myres  = _Small_string_capacity;

  00091	c7 45 d8 0f 00
	00 00		 mov	 DWORD PTR _kCreateData$[ebp+96], 15 ; 0000000fH

; 862  :         _My_data._Activate_SSO_buffer();
; 863  : 
; 864  :         // the _Traits::assign is last so the codegen doesn't think the char write can alias this
; 865  :         _Traits::assign(_My_data._Bx._Buf[0], _Elem());

  00098	c6 45 c4 00	 mov	 BYTE PTR _kCreateData$[ebp+76], 0
; File D:\_m2work\txoko-m2-work\txoko-client-src\source\UserInterface\NetworkActorManager.cpp

; 338  : 	CInstanceBase::SCreateData kCreateData;

  0009c	c7 45 fc 00 00
	00 00		 mov	 DWORD PTR __$EHRec$[ebp+8], 0

; 339  : 	kCreateData.m_bType=rkNetActorData.m_bType;

  000a3	8a 46 20	 mov	 al, BYTE PTR [esi+32]

; 345  : 	kCreateData.m_dwRace=rkNetActorData.m_dwRace;
; 346  : 	kCreateData.m_fRot=rkNetActorData.m_fRot;

  000a6	f3 0f 10 46 3c	 movss	 xmm0, DWORD PTR [esi+60]
  000ab	8b 7e 78	 mov	 edi, DWORD PTR [esi+120]
  000ae	88 85 78 ff ff
	ff		 mov	 BYTE PTR _kCreateData$[ebp], al
  000b4	8b 86 80 00 00
	00		 mov	 eax, DWORD PTR [esi+128]
  000ba	89 45 88	 mov	 DWORD PTR _kCreateData$[ebp+16], eax
  000bd	8b 46 7c	 mov	 eax, DWORD PTR [esi+124]
  000c0	89 45 84	 mov	 DWORD PTR _kCreateData$[ebp+12], eax
  000c3	8b 46 2c	 mov	 eax, DWORD PTR [esi+44]
  000c6	89 45 80	 mov	 DWORD PTR _kCreateData$[ebp+8], eax
  000c9	8b 46 24	 mov	 eax, DWORD PTR [esi+36]
  000cc	89 45 8c	 mov	 DWORD PTR _kCreateData$[ebp+20], eax
  000cf	8b 46 30	 mov	 eax, DWORD PTR [esi+48]
  000d2	89 45 90	 mov	 DWORD PTR _kCreateData$[ebp+24], eax

; 347  :  	kCreateData.m_lPosX=rkNetActorData.m_lCurX;

  000d5	8b 46 40	 mov	 eax, DWORD PTR [esi+64]
  000d8	89 45 9c	 mov	 DWORD PTR _kCreateData$[ebp+36], eax

; 348  : 	kCreateData.m_lPosY=rkNetActorData.m_lCurY;

  000db	8b 46 44	 mov	 eax, DWORD PTR [esi+68]
  000de	89 45 a0	 mov	 DWORD PTR _kCreateData$[ebp+40], eax
; File C:\Program Files\Microsoft Visual Studio\2022\Community\VC\Tools\MSVC\14.44.35207\include\xstring

; 1395 :         if (this == _STD addressof(_Right)) {

  000e1	8d 45 c4	 lea	 eax, DWORD PTR _kCreateData$[ebp+76]
; File D:\_m2work\txoko-m2-work\txoko-client-src\source\UserInterface\NetworkActorManager.cpp

; 344  : 	kCreateData.m_dwMountVnum=rkNetActorData.m_dwMountVnum;

  000e4	89 7d b4	 mov	 DWORD PTR _kCreateData$[ebp+60], edi

; 345  : 	kCreateData.m_dwRace=rkNetActorData.m_dwRace;
; 346  : 	kCreateData.m_fRot=rkNetActorData.m_fRot;

  000e7	f3 0f 11 45 a4	 movss	 DWORD PTR _kCreateData$[ebp+44], xmm0
; File C:\Program Files\Microsoft Visual Studio\2022\Community\VC\Tools\MSVC\14.44.35207\include\xstring

; 1395 :         if (this == _STD addressof(_Right)) {

  000ec	3b c6		 cmp	 eax, esi
  000ee	74 1f		 je	 SHORT $LN44@AppendChar

; 453  :         return _Myres > _Small_string_capacity;

  000f0	83 7e 14 0f	 cmp	 DWORD PTR [esi+20], 15	; 0000000fH

; 444  :         const value_type* _Result = _Bx._Buf;

  000f4	8b c6		 mov	 eax, esi

; 445  :         if (_Large_mode_engaged()) {

  000f6	76 02		 jbe	 SHORT $LN48@AppendChar

; 446  :             _Result = _Unfancy(_Bx._Ptr);

  000f8	8b 06		 mov	 eax, DWORD PTR [esi]
$LN48@AppendChar:

; 1434 :         assign(_Right._Mypair._Myval2._Myptr(), _Right._Mypair._Myval2._Mysize);

  000fa	ff 76 10	 push	 DWORD PTR [esi+16]
  000fd	8d 4d c4	 lea	 ecx, DWORD PTR _kCreateData$[ebp+76]
  00100	50		 push	 eax
  00101	e8 00 00 00 00	 call	 ?assign@?$basic_string@DU?$char_traits@D@std@@V?$allocator@D@2@@std@@QAEAAV12@QBDI@Z ; std::basic_string<char,std::char_traits<char>,std::allocator<char> >::assign
  00106	8b 7d b4	 mov	 edi, DWORD PTR _kCreateData$[ebp+60]
  00109	8b 95 70 ff ff
	ff		 mov	 edx, DWORD PTR _dwVID$1$[ebp]
$LN44@AppendChar:
; File D:\_m2work\txoko-m2-work\txoko-client-src\source\UserInterface\NetworkActorManager.cpp

; 350  : 	kCreateData.m_dwStateFlags=rkNetActorData.m_dwStateFlags;

  0010f	8b 46 28	 mov	 eax, DWORD PTR [esi+40]

; 351  : 	kCreateData.m_dwMovSpd=rkNetActorData.m_dwMovSpd;
; 352  : 	kCreateData.m_dwAtkSpd=rkNetActorData.m_dwAtkSpd;
; 353  : 	kCreateData.m_sAlignment=rkNetActorData.m_sAlignment;
; 354  : 	kCreateData.m_byPKMode=rkNetActorData.m_byPKMode;
; 355  : 	kCreateData.m_kAffectFlags=rkNetActorData.m_kAffectFlags;

  00112	8b 4e 1c	 mov	 ecx, DWORD PTR [esi+28]
  00115	89 85 7c ff ff
	ff		 mov	 DWORD PTR _kCreateData$[ebp+4], eax
  0011b	8b 46 34	 mov	 eax, DWORD PTR [esi+52]
  0011e	89 45 94	 mov	 DWORD PTR _kCreateData$[ebp+28], eax
  00121	8b 46 38	 mov	 eax, DWORD PTR [esi+56]
  00124	89 45 98	 mov	 DWORD PTR _kCreateData$[ebp+32], eax
  00127	66 8b 46 74	 mov	 ax, WORD PTR [esi+116]
  0012b	66 89 45 b8	 mov	 WORD PTR _kCreateData$[ebp+64], ax
  0012f	8a 46 76	 mov	 al, BYTE PTR [esi+118]
  00132	88 45 ba	 mov	 BYTE PTR _kCreateData$[ebp+66], al
  00135	8b 46 18	 mov	 eax, DWORD PTR [esi+24]
  00138	89 45 bb	 mov	 DWORD PTR _kCreateData$[ebp+67], eax

; 356  : 	kCreateData.m_dwArmor=rkNetActorData.m_dwArmor;

  0013b	8b 46 64	 mov	 eax, DWORD PTR [esi+100]
  0013e	89 45 a8	 mov	 DWORD PTR _kCreateData$[ebp+48], eax

; 357  : 	kCreateData.m_dwWeapon=rkNetActorData.m_dwWeapon;

  00141	8b 46 68	 mov	 eax, DWORD PTR [esi+104]
  00144	89 45 ac	 mov	 DWORD PTR _kCreateData$[ebp+52], eax

; 358  : 	kCreateData.m_dwHair=rkNetActorData.m_dwHair;

  00147	8b 46 6c	 mov	 eax, DWORD PTR [esi+108]
  0014a	89 4d bf	 mov	 DWORD PTR _kCreateData$[ebp+71], ecx

; 359  : 	kCreateData.m_isMain=__IsMainActorVID(dwVID);

  0014d	8b 8d 6c ff ff
	ff		 mov	 ecx, DWORD PTR _this$GSCopy$1$[ebp]
  00153	52		 push	 edx
  00154	89 45 b0	 mov	 DWORD PTR _kCreateData$[ebp+56], eax
  00157	e8 00 00 00 00	 call	 ?__IsMainActorVID@CNetworkActorManager@@IAE_NK@Z ; CNetworkActorManager::__IsMainActorVID

; 360  : 
; 361  : 	CInstanceBase* pOldInstance = rkChrMgr.GetInstancePtr(dwVID);

  0015c	8b 8d 74 ff ff
	ff		 mov	 ecx, DWORD PTR _rkChrMgr$1$[ebp]
  00162	83 c1 04	 add	 ecx, 4
  00165	88 45 dc	 mov	 BYTE PTR _kCreateData$[ebp+100], al
  00168	52		 push	 edx
  00169	8b 01		 mov	 eax, DWORD PTR [ecx]
  0016b	8b 40 08	 mov	 eax, DWORD PTR [eax+8]
  0016e	ff d0		 call	 eax
  00170	89 85 68 ff ff
	ff		 mov	 DWORD PTR _pOldInstance$1$[ebp], eax

; 362  : 	if (pOldInstance)

  00176	85 c0		 test	 eax, eax
  00178	74 57		 je	 SHORT $LN2@AppendChar

; 363  : 	{
; 364  : 		TPixelPosition oldPos;
; 365  : 		pOldInstance->GetGraphicThingInstancePtr()->GetPixelPosition( &oldPos );

  0017a	8d 4d e0	 lea	 ecx, DWORD PTR _oldPos$2[ebp]
  0017d	51		 push	 ecx
  0017e	8b c8		 mov	 ecx, eax
  00180	e8 00 00 00 00	 call	 ?GetGraphicThingInstancePtr@CInstanceBase@@QAEPAVCActorInstance@@XZ ; CInstanceBase::GetGraphicThingInstancePtr
  00185	8b c8		 mov	 ecx, eax
  00187	e8 00 00 00 00	 call	 ?GetPixelPosition@CActorInstance@@QAEXPAUD3DXVECTOR3@@@Z ; CActorInstance::GetPixelPosition

; 366  : 
; 367  : 		bool bIsMountingHorse = pOldInstance->IsMountingHorse();

  0018c	8b 8d 68 ff ff
	ff		 mov	 ecx, DWORD PTR _pOldInstance$1$[ebp]
  00192	e8 00 00 00 00	 call	 ?IsMountingHorse@CInstanceBase@@QAEHXZ ; CInstanceBase::IsMountingHorse

; 368  : 		if( (bIsMountingHorse && kCreateData.m_dwMountVnum == 0) ||  

  00197	85 c0		 test	 eax, eax
  00199	74 06		 je	 SHORT $LN118@AppendChar
  0019b	85 ff		 test	 edi, edi
  0019d	74 06		 je	 SHORT $LN4@AppendChar
  0019f	eb 1f		 jmp	 SHORT $LN3@AppendChar
$LN118@AppendChar:
  001a1	85 ff		 test	 edi, edi
  001a3	74 1b		 je	 SHORT $LN3@AppendChar
$LN4@AppendChar:

; 369  : 			(!bIsMountingHorse && kCreateData.m_dwMountVnum != 0) )
; 370  : 		{
; 371  : 			//Override Pos
; 372  : 			kCreateData.m_lPosX = oldPos.x;

  001a5	f3 0f 2c 45 e0	 cvttss2si eax, DWORD PTR _oldPos$2[ebp]

; 373  : 			kCreateData.m_lPosY = -oldPos.y;

  001aa	f3 0f 10 45 e4	 movss	 xmm0, DWORD PTR _oldPos$2[ebp+4]
  001af	0f 57 05 00 00
	00 00		 xorps	 xmm0, DWORD PTR __xmm@80000000800000008000000080000000
  001b6	89 45 9c	 mov	 DWORD PTR _kCreateData$[ebp+36], eax
  001b9	f3 0f 2c c0	 cvttss2si eax, xmm0
  001bd	89 45 a0	 mov	 DWORD PTR _kCreateData$[ebp+40], eax
$LN3@AppendChar:

; 374  : 		}
; 375  : 
; 376  : 		rkChrMgr.DeleteInstance(dwVID);

  001c0	ff b5 70 ff ff
	ff		 push	 DWORD PTR _dwVID$1$[ebp]
  001c6	8b 8d 74 ff ff
	ff		 mov	 ecx, DWORD PTR _rkChrMgr$1$[ebp]
  001cc	e8 00 00 00 00	 call	 ?DeleteInstance@CPythonCharacterManager@@QAEXK@Z ; CPythonCharacterManager::DeleteInstance
$LN2@AppendChar:

; 377  : 	}
; 378  : 	
; 379  : 
; 380  : 	CInstanceBase* pNewInstance = rkChrMgr.CreateInstance(kCreateData);

  001d1	8b 8d 74 ff ff
	ff		 mov	 ecx, DWORD PTR _rkChrMgr$1$[ebp]
  001d7	8d 85 78 ff ff
	ff		 lea	 eax, DWORD PTR _kCreateData$[ebp]
  001dd	50		 push	 eax
  001de	e8 00 00 00 00	 call	 ?CreateInstance@CPythonCharacterManager@@QAEPAVCInstanceBase@@ABUSCreateData@2@@Z ; CPythonCharacterManager::CreateInstance
  001e3	8b f8		 mov	 edi, eax

; 381  : 	if (!pNewInstance)

  001e5	85 ff		 test	 edi, edi
  001e7	74 73		 je	 SHORT $LN8@AppendChar
$LN6@AppendChar:

; 382  : 		return NULL;
; 383  : 
; 384  : 	if (kCreateData.m_isMain)

  001e9	80 7d dc 00	 cmp	 BYTE PTR _kCreateData$[ebp+100], 0
  001ed	74 23		 je	 SHORT $LN7@AppendChar

; 385  : 	{
; 386  : 		IAbstractPlayer & rkPlayer = IAbstractPlayer::GetSingleton();

  001ef	8b 0d 00 00 00
	00		 mov	 ecx, DWORD PTR ?ms_singleton@?$TAbstractSingleton@VIAbstractPlayer@@@@0PAVIAbstractPlayer@@A ; TAbstractSingleton<IAbstractPlayer>::ms_singleton

; 387  : 		rkPlayer.SetMainCharacterIndex(dwVID);

  001f5	ff b5 70 ff ff
	ff		 push	 DWORD PTR _dwVID$1$[ebp]
  001fb	8b 01		 mov	 eax, DWORD PTR [ecx]
  001fd	ff 50 08	 call	 DWORD PTR [eax+8]

; 388  : 
; 389  : 
; 390  : 		m_lMainPosX=rkNetActorData.m_lCurX;

  00200	8b 8d 6c ff ff
	ff		 mov	 ecx, DWORD PTR _this$GSCopy$1$[ebp]
  00206	8b 46 40	 mov	 eax, DWORD PTR [esi+64]
  00209	89 41 10	 mov	 DWORD PTR [ecx+16], eax

; 391  : 		m_lMainPosY=rkNetActorData.m_lCurY;

  0020c	8b 46 44	 mov	 eax, DWORD PTR [esi+68]
  0020f	89 41 14	 mov	 DWORD PTR [ecx+20], eax
$LN7@AppendChar:

; 392  : 	}
; 393  : 
; 394  : 	DWORD dwClientCurTime=ELTimer_GetMSec();

  00212	e8 00 00 00 00	 call	 ?ELTimer_GetMSec@@YAKXZ	; ELTimer_GetMSec
  00217	8b c8		 mov	 ecx, eax

; 395  : 	DWORD dwElapsedTime=dwClientCurTime-rkNetActorData.m_dwClientSrcTime;

  00219	2b 4e 5c	 sub	 ecx, DWORD PTR [esi+92]

; 396  : 
; 397  : 	if (dwElapsedTime<rkNetActorData.m_dwDuration)

  0021c	3b 4e 60	 cmp	 ecx, DWORD PTR [esi+96]
  0021f	73 3b		 jae	 SHORT $LN8@AppendChar

; 398  : 	{
; 399  : 		TPixelPosition kPPosDst;
; 400  : 		kPPosDst.x=float(rkNetActorData.m_lDstX);
; 401  : 		kPPosDst.y=float(rkNetActorData.m_lDstY);
; 402  : 		kPPosDst.z=0;
; 403  : 		pNewInstance->PushTCPState(rkNetActorData.m_dwServerSrcTime+dwElapsedTime, kPPosDst, rkNetActorData.m_fRot, CInstanceBase::FUNC_MOVE, 0);		

  00221	66 0f 6e 46 50	 movd	 xmm0, DWORD PTR [esi+80]
  00226	8d 45 e0	 lea	 eax, DWORD PTR _kPPosDst$3[ebp]
  00229	f3 0f 10 5e 3c	 movss	 xmm3, DWORD PTR [esi+60]
  0022e	0f 5b c0	 cvtdq2ps xmm0, xmm0
  00231	6a 00		 push	 0
  00233	6a 01		 push	 1
  00235	50		 push	 eax
  00236	8b 46 58	 mov	 eax, DWORD PTR [esi+88]
  00239	03 c1		 add	 eax, ecx
  0023b	c7 45 e8 00 00
	00 00		 mov	 DWORD PTR _kPPosDst$3[ebp+8], 0
  00242	f3 0f 11 45 e0	 movss	 DWORD PTR _kPPosDst$3[ebp], xmm0
  00247	8b cf		 mov	 ecx, edi
  00249	66 0f 6e 46 54	 movd	 xmm0, DWORD PTR [esi+84]
  0024e	0f 5b c0	 cvtdq2ps xmm0, xmm0
  00251	50		 push	 eax
  00252	f3 0f 11 45 e4	 movss	 DWORD PTR _kPPosDst$3[ebp+4], xmm0
  00257	e8 00 00 00 00	 call	 ?PushTCPState@CInstanceBase@@QAEXKABUD3DXVECTOR3@@MII@Z ; CInstanceBase::PushTCPState
$LN8@AppendChar:
; File C:\Program Files\Microsoft Visual Studio\2022\Community\VC\Tools\MSVC\14.44.35207\include\xstring

; 453  :         return _Myres > _Small_string_capacity;

  0025c	8b 4d d8	 mov	 ecx, DWORD PTR _kCreateData$[ebp+96]
  0025f	83 f9 0f	 cmp	 ecx, 15			; 0000000fH

; 3083 :         if (_My_data._Large_mode_engaged()) {

  00262	76 28		 jbe	 SHORT $LN101@AppendChar
; File C:\Program Files\Microsoft Visual Studio\2022\Community\VC\Tools\MSVC\14.44.35207\include\xmemory

; 985  :         _STD _Deallocate<_New_alignof<_Ty>>(_Ptr, sizeof(_Ty) * _Count);

  00264	8b 55 c4	 mov	 edx, DWORD PTR _kCreateData$[ebp+76]
; File C:\Program Files\Microsoft Visual Studio\2022\Community\VC\Tools\MSVC\14.44.35207\include\xstring

; 852  :         _Al.deallocate(_Old_ptr, _Capacity + 1); // +1 for null terminator

  00267	41		 inc	 ecx
; File C:\Program Files\Microsoft Visual Studio\2022\Community\VC\Tools\MSVC\14.44.35207\include\xmemory

; 985  :         _STD _Deallocate<_New_alignof<_Ty>>(_Ptr, sizeof(_Ty) * _Count);

  00268	8b c2		 mov	 eax, edx

; 284  :         if (_Bytes >= _Big_allocation_threshold) {

  0026a	81 f9 00 10 00
	00		 cmp	 ecx, 4096		; 00001000H
  00270	72 10		 jb	 SHORT $LN109@AppendChar

; 205  :     const uintptr_t _Ptr_container   = _Ptr_user[-1];

  00272	8b 50 fc	 mov	 edx, DWORD PTR [eax-4]
  00275	83 c1 23	 add	 ecx, 35			; 00000023H
  00278	2b c2		 sub	 eax, edx

; 219  :     _STL_VERIFY(_Back_shift >= _Min_back_shift && _Back_shift <= _Non_user_size, "invalid argument");

  0027a	83 c0 fc	 add	 eax, -4			; fffffffcH
  0027d	83 f8 1f	 cmp	 eax, 31			; 0000001fH
  00280	77 2c		 ja	 SHORT $LN123@AppendChar
$LN109@AppendChar:

; 289  :         ::operator delete(_Ptr, _Bytes);

  00282	51		 push	 ecx
  00283	52		 push	 edx
  00284	e8 00 00 00 00	 call	 ??3@YAXPAXI@Z		; operator delete
  00289	83 c4 08	 add	 esp, 8
$LN101@AppendChar:
; File D:\_m2work\txoko-m2-work\txoko-client-src\source\UserInterface\NetworkActorManager.cpp

; 405  : 	return pNewInstance;

  0028c	8b c7		 mov	 eax, edi

; 406  : }

  0028e	8b 4d f4	 mov	 ecx, DWORD PTR __$EHRec$[ebp]
  00291	64 89 0d 00 00
	00 00		 mov	 DWORD PTR fs:0, ecx
  00298	59		 pop	 ecx
  00299	5f		 pop	 edi
  0029a	5e		 pop	 esi
  0029b	8b 4d ec	 mov	 ecx, DWORD PTR __$ArrayPad$[ebp]
  0029e	33 cd		 xor	 ecx, ebp
  002a0	e8 00 00 00 00	 call	 @__security_check_cookie@4
  002a5	8b e5		 mov	 esp, ebp
  002a7	5d		 pop	 ebp
  002a8	8b e3		 mov	 esp, ebx
  002aa	5b		 pop	 ebx
  002ab	c2 04 00	 ret	 4
$LN123@AppendChar:
; File C:\Program Files\Microsoft Visual Studio\2022\Community\VC\Tools\MSVC\14.44.35207\include\xmemory

; 219  :     _STL_VERIFY(_Back_shift >= _Min_back_shift && _Back_shift <= _Non_user_size, "invalid argument");

  002ae	6a 00		 push	 0
  002b0	6a 00		 push	 0
  002b2	6a 00		 push	 0
  002b4	6a 00		 push	 0
  002b6	6a 00		 push	 0
  002b8	e8 00 00 00 00	 call	 __invoke_watson
$LN121@AppendChar:
  002bd	cc		 int	 3
_TEXT	ENDS
;	COMDAT text$x
text$x	SEGMENT
__unwindfunclet$?__AppendCharacterManagerActor@CNetworkActorManager@@IAEPAVCInstanceBase@@AAUSNetworkActorData@@@Z$0:
  00000	8d 8d 78 ff ff
	ff		 lea	 ecx, DWORD PTR _kCreateData$[ebp]
  00006	e9 00 00 00 00	 jmp	 ??1SCreateData@CInstanceBase@@QAE@XZ
  0000b	cc		 int	 3
  0000c	cc		 int	 3
  0000d	cc		 int	 3
  0000e	cc		 int	 3
  0000f	cc		 int	 3
__ehhandler$?__AppendCharacterManagerActor@CNetworkActorManager@@IAEPAVCInstanceBase@@AAUSNetworkActorData@@@Z:
  00010	90		 npad	 1
  00011	90		 npad	 1
  00012	8b 54 24 08	 mov	 edx, DWORD PTR [esp+8]
  00016	8d 42 0c	 lea	 eax, DWORD PTR [edx+12]
  00019	8b 8a 68 ff ff
	ff		 mov	 ecx, DWORD PTR [edx-152]
  0001f	33 c8		 xor	 ecx, eax
  00021	e8 00 00 00 00	 call	 @__security_check_cookie@4
  00026	8b 4a f8	 mov	 ecx, DWORD PTR [edx-8]
  00029	33 c8		 xor	 ecx, eax
  0002b	e8 00 00 00 00	 call	 @__security_check_cookie@4
  00030	b8 00 00 00 00	 mov	 eax, OFFSET __ehfuncinfo$?__AppendCharacterManagerActor@CNetworkActorManager@@IAEPAVCInstanceBase@@AAUSNetworkActorData@@@Z
  00035	e9 00 00 00 00	 jmp	 ___CxxFrameHandler3
text$x	ENDS
?__AppendCharacterManagerActor@CNetworkActorManager@@IAEPAVCInstanceBase@@AAUSNetworkActorData@@@Z ENDP ; CNetworkActorManager::__AppendCharacterManagerActor
; Function compile flags: /Ogtp
; File C:\Program Files\Microsoft Visual Studio\2022\Community\VC\Tools\MSVC\14.44.35207\include\xstring
;	COMDAT ??0SCreateData@CInstanceBase@@QAE@XZ
_TEXT	SEGMENT
??0SCreateData@CInstanceBase@@QAE@XZ PROC		; CInstanceBase::SCreateData::SCreateData, COMDAT
; _this$ = ecx
  00000	8b d1		 mov	 edx, ecx
  00002	8d 4a 43	 lea	 ecx, DWORD PTR [edx+67]
  00005	e8 00 00 00 00	 call	 ??0CAffectFlagContainer@@QAE@XZ ; CAffectFlagContainer::CAffectFlagContainer
  0000a	0f 57 c0	 xorps	 xmm0, xmm0
  0000d	8b c2		 mov	 eax, edx

; 493  :         _CONSTEXPR20 _Bxty() noexcept : _Buf() {} // user-provided, for fancy pointers

  0000f	0f 11 42 4c	 movups	 XMMWORD PTR [edx+76], xmm0

; 860  :         _My_data._Mysize = 0;

  00013	c7 42 5c 00 00
	00 00		 mov	 DWORD PTR [edx+92], 0

; 861  :         _My_data._Myres  = _Small_string_capacity;

  0001a	c7 42 60 0f 00
	00 00		 mov	 DWORD PTR [edx+96], 15	; 0000000fH

; 862  :         _My_data._Activate_SSO_buffer();
; 863  : 
; 864  :         // the _Traits::assign is last so the codegen doesn't think the char write can alias this
; 865  :         _Traits::assign(_My_data._Bx._Buf[0], _Elem());

  00021	c6 42 4c 00	 mov	 BYTE PTR [edx+76], 0
  00025	c3		 ret	 0
??0SCreateData@CInstanceBase@@QAE@XZ ENDP		; CInstanceBase::SCreateData::SCreateData
_TEXT	ENDS
; Function compile flags: /Ogtp
; File C:\Program Files\Microsoft Visual Studio\2022\Community\VC\Tools\MSVC\14.44.35207\include\xstring
;	COMDAT ??1SCreateData@CInstanceBase@@QAE@XZ
_TEXT	SEGMENT
??1SCreateData@CInstanceBase@@QAE@XZ PROC		; CInstanceBase::SCreateData::~SCreateData, COMDAT
; _this$ = ecx
  00000	83 c1 4c	 add	 ecx, 76			; 0000004cH

; 1383 :         _Tidy_deallocate();

  00003	e9 00 00 00 00	 jmp	 ?_Tidy_deallocate@?$basic_string@DU?$char_traits@D@std@@V?$allocator@D@2@@std@@AAEXXZ ; std::basic_string<char,std::char_traits<char>,std::allocator<char> >::_Tidy_deallocate
??1SCreateData@CInstanceBase@@QAE@XZ ENDP		; CInstanceBase::SCreateData::~SCreateData
_TEXT	ENDS
; Function compile flags: /Ogtp
; File D:\_m2work\txoko-m2-work\txoko-client-src\source\UserInterface\NetworkActorManager.cpp
; File C:\Program Files\Microsoft Visual Studio\2022\Community\VC\Tools\MSVC\14.44.35207\include\map
; File D:\_m2work\txoko-m2-work\txoko-client-src\source\UserInterface\NetworkActorManager.cpp
; File C:\Program Files\Microsoft Visual Studio\2022\Community\VC\Tools\MSVC\14.44.35207\include\map
; File C:\Program Files\Microsoft Visual Studio\2022\Community\VC\Tools\MSVC\14.44.35207\include\xtree
; File C:\Program Files\Microsoft Visual Studio\2022\Community\VC\Tools\MSVC\14.44.35207\include\type_traits
; File C:\Program Files\Microsoft Visual Studio\2022\Community\VC\Tools\MSVC\14.44.35207\include\xtree
; File C:\Program Files\Microsoft Visual Studio\2022\Community\VC\Tools\MSVC\14.44.35207\include\map
; File C:\Program Files\Microsoft Visual Studio\2022\Community\VC\Tools\MSVC\14.44.35207\include\xmemory
; File C:\Program Files\Microsoft Visual Studio\2022\Community\VC\Tools\MSVC\14.44.35207\include\xtree
; File C:\Program Files\Microsoft Visual Studio\2022\Community\VC\Tools\MSVC\14.44.35207\include\xmemory
; File C:\Program Files\Microsoft Visual Studio\2022\Community\VC\Tools\MSVC\14.44.35207\include\utility
; File C:\Program Files\Microsoft Visual Studio\2022\Community\VC\Tools\MSVC\14.44.35207\include\xtree
; File C:\Program Files\Microsoft Visual Studio\2022\Community\VC\Tools\MSVC\14.44.35207\include\utility
; File C:\Program Files\Microsoft Visual Studio\2022\Community\VC\Tools\MSVC\14.44.35207\include\map
; File C:\Program Files\Microsoft Visual Studio\2022\Community\VC\Tools\MSVC\14.44.35207\include\xtree
; File C:\Program Files\Microsoft Visual Studio\2022\Community\VC\Tools\MSVC\14.44.35207\include\map
; File C:\Program Files\Microsoft Visual Studio\2022\Community\VC\Tools\MSVC\14.44.35207\include\xtree
; File C:\Program Files\Microsoft Visual Studio\2022\Community\VC\Tools\MSVC\14.44.35207\include\map
; File C:\Program Files\Microsoft Visual Studio\2022\Community\VC\Tools\MSVC\14.44.35207\include\xtree
; File C:\Program Files\Microsoft Visual Studio\2022\Community\VC\Tools\MSVC\14.44.35207\include\map
; File D:\_m2work\txoko-m2-work\txoko-client-src\source\UserInterface\NetworkActorManager.cpp
; File C:\Program Files\Microsoft Visual Studio\2022\Community\VC\Tools\MSVC\14.44.35207\include\xtree
; File D:\_m2work\txoko-m2-work\txoko-client-src\source\UserInterface\NetworkActorManager.cpp
;	COMDAT ?AppendActor@CNetworkActorManager@@QAEXABUSNetworkActorData@@@Z
_TEXT	SEGMENT
__Loc$2 = -36						; size = 12
__Keyval$1$ = -24					; size = 4
$T3 = -20						; size = 8
$T4 = -16						; size = 4
__$EHRec$ = -12						; size = 12
_c_rkNetActorData$ = 8					; size = 4
?AppendActor@CNetworkActorManager@@QAEXABUSNetworkActorData@@@Z PROC ; CNetworkActorManager::AppendActor, COMDAT
; _this$ = ecx

; 409  : {

  00000	55		 push	 ebp
  00001	8b ec		 mov	 ebp, esp
  00003	6a ff		 push	 -1
  00005	68 00 00 00 00	 push	 __ehhandler$?AppendActor@CNetworkActorManager@@QAEXABUSNetworkActorData@@@Z
  0000a	64 a1 00 00 00
	00		 mov	 eax, DWORD PTR fs:0
  00010	50		 push	 eax
  00011	83 ec 18	 sub	 esp, 24			; 00000018H
  00014	53		 push	 ebx
  00015	56		 push	 esi
  00016	57		 push	 edi
  00017	a1 00 00 00 00	 mov	 eax, DWORD PTR ___security_cookie
  0001c	33 c5		 xor	 eax, ebp
  0001e	50		 push	 eax
  0001f	8d 45 f4	 lea	 eax, DWORD PTR __$EHRec$[ebp]
  00022	64 a3 00 00 00
	00		 mov	 DWORD PTR fs:0, eax
  00028	8b d9		 mov	 ebx, ecx

; 410  : 	if (__IsMainActorVID(c_rkNetActorData.m_dwVID))

  0002a	8b 7d 08	 mov	 edi, DWORD PTR _c_rkNetActorData$[ebp]
  0002d	8b 57 24	 mov	 edx, DWORD PTR [edi+36]
  00030	8d 47 24	 lea	 eax, DWORD PTR [edi+36]
  00033	52		 push	 edx
  00034	89 45 e8	 mov	 DWORD PTR __Keyval$1$[ebp], eax
  00037	e8 00 00 00 00	 call	 ?__IsMainActorVID@CNetworkActorManager@@IAE_NK@Z ; CNetworkActorManager::__IsMainActorVID
  0003c	84 c0		 test	 al, al
  0003e	74 37		 je	 SHORT $LN4@AppendActo

; 411  : 	{
; 412  : 		bool bChangeMountStatus = false;
; 413  : 
; 414  : 		CInstanceBase* pMainInstance = CPythonCharacterManager::Instance().GetInstancePtr(c_rkNetActorData.m_dwVID);

  00040	8b 0d 00 00 00
	00		 mov	 ecx, DWORD PTR ?ms_singleton@?$CSingleton@VCPythonCharacterManager@@@@0PAVCPythonCharacterManager@@A ; CSingleton<CPythonCharacterManager>::ms_singleton
  00046	83 c1 04	 add	 ecx, 4
  00049	52		 push	 edx
  0004a	8b 01		 mov	 eax, DWORD PTR [ecx]
  0004c	ff 50 08	 call	 DWORD PTR [eax+8]

; 415  : 		if( pMainInstance )

  0004f	85 c0		 test	 eax, eax
  00051	74 18		 je	 SHORT $LN9@AppendActo

; 416  : 		{
; 417  : 			bool bIsMountingHorse = pMainInstance->IsMountingHorse();

  00053	8b 57 78	 mov	 edx, DWORD PTR [edi+120]
  00056	8b c8		 mov	 ecx, eax
  00058	e8 00 00 00 00	 call	 ?IsMountingHorse@CInstanceBase@@QAEHXZ ; CInstanceBase::IsMountingHorse

; 418  : 			bChangeMountStatus = (bIsMountingHorse && c_rkNetActorData.m_dwMountVnum == 0) || (!bIsMountingHorse && c_rkNetActorData.m_dwMountVnum != 0);

  0005d	85 c0		 test	 eax, eax
  0005f	74 06		 je	 SHORT $LN145@AppendActo
  00061	85 d2		 test	 edx, edx
  00063	74 12		 je	 SHORT $LN4@AppendActo
  00065	eb 04		 jmp	 SHORT $LN9@AppendActo
$LN145@AppendActo:
  00067	85 d2		 test	 edx, edx
  00069	75 0c		 jne	 SHORT $LN4@AppendActo
$LN9@AppendActo:

; 419  : 		}
; 420  : 
; 421  : 		if( !bChangeMountStatus )
; 422  : 		{
; 423  : 			//__RemoveAllActors();
; 424  : 			__RemoveDynamicActors();

  0006b	8b cb		 mov	 ecx, ebx
  0006d	e8 00 00 00 00	 call	 ?__RemoveDynamicActors@CNetworkActorManager@@IAEXXZ ; CNetworkActorManager::__RemoveDynamicActors

; 425  : 			__RemoveAllGroundItems();

  00072	e8 00 00 00 00	 call	 ?__RemoveAllGroundItems@CNetworkActorManager@@IAEXXZ ; CNetworkActorManager::__RemoveAllGroundItems
$LN4@AppendActo:
; File C:\Program Files\Microsoft Visual Studio\2022\Community\VC\Tools\MSVC\14.44.35207\include\map

; 197  :         const auto _Loc = _Mybase::_Find_lower_bound(_Keyval);

  00077	8d 47 24	 lea	 eax, DWORD PTR [edi+36]
  0007a	50		 push	 eax
  0007b	8d 45 dc	 lea	 eax, DWORD PTR __Loc$2[ebp]
; File D:\_m2work\txoko-m2-work\txoko-client-src\source\UserInterface\NetworkActorManager.cpp

; 430  : 	SNetworkActorData& rkNetActorData=m_kNetActorDict[c_rkNetActorData.m_dwVID];

  0007e	8d 73 18	 lea	 esi, DWORD PTR [ebx+24]
; File C:\Program Files\Microsoft Visual Studio\2022\Community\VC\Tools\MSVC\14.44.35207\include\map

; 197  :         const auto _Loc = _Mybase::_Find_lower_bound(_Keyval);

  00081	50		 push	 eax
  00082	8b ce		 mov	 ecx, esi
  00084	e8 00 00 00 00	 call	 ??$_Find_lower_bound@K@?$_Tree@V?$_Tmap_traits@KUSNetworkActorData@@U?$less@K@std@@V?$allocator@U?$pair@$$CBKUSNetworkActorData@@@std@@@3@$0A@@std@@@std@@IBE?AU?$_Tree_find_result@PAU?$_Tree_node@U?$pair@$$CBKUSNetworkActorData@@@std@@PAX@std@@@1@ABK@Z ; std::_Tree<std::_Tmap_traits<unsigned long,SNetworkActorData,std::less<unsigned long>,std::allocator<std::pair<unsigned long const ,SNetworkActorData> >,0> >::_Find_lower_bound<unsigned long>
; File C:\Program Files\Microsoft Visual Studio\2022\Community\VC\Tools\MSVC\14.44.35207\include\xtree

; 1624 :         return !_Bound->_Isnil && !_DEBUG_LT_PRED(_Getcomp(), _Keyval, _Traits::_Kfn(_Bound->_Myval));

  00089	8b 4d e4	 mov	 ecx, DWORD PTR __Loc$2[ebp+8]
  0008c	89 4d f0	 mov	 DWORD PTR $T4[ebp], ecx
  0008f	80 79 0d 00	 cmp	 BYTE PTR [ecx+13], 0
  00093	75 08		 jne	 SHORT $LN15@AppendActo
; File C:\Program Files\Microsoft Visual Studio\2022\Community\VC\Tools\MSVC\14.44.35207\include\type_traits

; 2380 :         return _Left < _Right;

  00095	8b 47 24	 mov	 eax, DWORD PTR [edi+36]
  00098	3b 41 10	 cmp	 eax, DWORD PTR [ecx+16]
; File C:\Program Files\Microsoft Visual Studio\2022\Community\VC\Tools\MSVC\14.44.35207\include\xtree

; 1624 :         return !_Bound->_Isnil && !_DEBUG_LT_PRED(_Getcomp(), _Keyval, _Traits::_Kfn(_Bound->_Myval));

  0009b	73 78		 jae	 SHORT $LN14@AppendActo
$LN15@AppendActo:

; 1648 :         if (max_size() == _Get_scary()->_Mysize) {

  0009d	81 7e 04 6b 28
	af 01		 cmp	 DWORD PTR [esi+4], 28256363 ; 01af286bH
  000a4	0f 84 b7 00 00
	00		 je	 $LN151@AppendActo
; File C:\Program Files\Microsoft Visual Studio\2022\Community\VC\Tools\MSVC\14.44.35207\include\map

; 205  :         const auto _Inserted = _Tree_temp_node<_Alnode>(_Mybase::_Getal(), _Scary->_Myhead, piecewise_construct,

  000aa	8b 3e		 mov	 edi, DWORD PTR [esi]
; File C:\Program Files\Microsoft Visual Studio\2022\Community\VC\Tools\MSVC\14.44.35207\include\xmemory

; 1160 :     _CONSTEXPR20 explicit _Alloc_construct_ptr(_Alloc& _Al_) : _Al(_Al_), _Ptr(nullptr) {}

  000ac	89 75 ec	 mov	 DWORD PTR $T3[ebp], esi
; File C:\Program Files\Microsoft Visual Studio\2022\Community\VC\Tools\MSVC\14.44.35207\include\xtree

; 808  :     explicit _Tree_temp_node_alloc(_Alnode& _Al_) : _Alloc_construct_ptr<_Alnode>(_Al_) {

  000af	c7 45 fc 00 00
	00 00		 mov	 DWORD PTR __$EHRec$[ebp+8], 0
; File C:\Program Files\Microsoft Visual Studio\2022\Community\VC\Tools\MSVC\14.44.35207\include\xmemory

; 1168 :         _Ptr = _Al.allocate(1);

  000b6	68 98 00 00 00	 push	 152			; 00000098H
  000bb	c7 45 f0 00 00
	00 00		 mov	 DWORD PTR $T3[ebp+4], 0
  000c2	e8 00 00 00 00	 call	 ??2@YAPAXI@Z		; operator new
  000c7	8b f0		 mov	 esi, eax
  000c9	83 c4 04	 add	 esp, 4
  000cc	89 75 f0	 mov	 DWORD PTR $T3[ebp+4], esi
; File C:\Program Files\Microsoft Visual Studio\2022\Community\VC\Tools\MSVC\14.44.35207\include\utility

; 478  :         : first(_STD _Tuple_get<_Indices1>(_STD move(_Val1))...),

  000cf	8b 45 e8	 mov	 eax, DWORD PTR __Keyval$1$[ebp]
; File C:\Program Files\Microsoft Visual Studio\2022\Community\VC\Tools\MSVC\14.44.35207\include\xtree

; 829  :         : _Tree_temp_node_alloc<_Alnode>(_Al_) {

  000d2	c7 45 fc 01 00
	00 00		 mov	 DWORD PTR __$EHRec$[ebp+8], 1
; File C:\Program Files\Microsoft Visual Studio\2022\Community\VC\Tools\MSVC\14.44.35207\include\utility

; 478  :         : first(_STD _Tuple_get<_Indices1>(_STD move(_Val1))...),

  000d9	8b 08		 mov	 ecx, DWORD PTR [eax]
  000db	89 4e 10	 mov	 DWORD PTR [esi+16], ecx

; 479  :           second(_STD _Tuple_get<_Indices2>(_STD move(_Val2))...) {}

  000de	8d 4e 14	 lea	 ecx, DWORD PTR [esi+20]
  000e1	e8 00 00 00 00	 call	 ??0SNetworkActorData@@QAE@XZ ; SNetworkActorData::SNetworkActorData
; File C:\Program Files\Microsoft Visual Studio\2022\Community\VC\Tools\MSVC\14.44.35207\include\map

; 211  :         return {_Scary->_Insert_node(_Loc._Location, _Inserted), true};

  000e6	56		 push	 esi
; File C:\Program Files\Microsoft Visual Studio\2022\Community\VC\Tools\MSVC\14.44.35207\include\xtree

; 836  :     }

  000e7	c7 45 fc ff ff
	ff ff		 mov	 DWORD PTR __$EHRec$[ebp+8], -1
; File C:\Program Files\Microsoft Visual Studio\2022\Community\VC\Tools\MSVC\14.44.35207\include\map

; 211  :         return {_Scary->_Insert_node(_Loc._Location, _Inserted), true};

  000ee	8d 4b 18	 lea	 ecx, DWORD PTR [ebx+24]
  000f1	ff 75 e0	 push	 DWORD PTR __Loc$2[ebp+4]
; File C:\Program Files\Microsoft Visual Studio\2022\Community\VC\Tools\MSVC\14.44.35207\include\xtree

; 831  :         _Construct_in_place(this->_Ptr->_Left, _Myhead);

  000f4	89 3e		 mov	 DWORD PTR [esi], edi
; File C:\Program Files\Microsoft Visual Studio\2022\Community\VC\Tools\MSVC\14.44.35207\include\map

; 211  :         return {_Scary->_Insert_node(_Loc._Location, _Inserted), true};

  000f6	ff 75 dc	 push	 DWORD PTR __Loc$2[ebp]
; File C:\Program Files\Microsoft Visual Studio\2022\Community\VC\Tools\MSVC\14.44.35207\include\xtree

; 832  :         _Construct_in_place(this->_Ptr->_Parent, _Myhead);

  000f9	89 7e 04	 mov	 DWORD PTR [esi+4], edi

; 833  :         _Construct_in_place(this->_Ptr->_Right, _Myhead);

  000fc	89 7e 08	 mov	 DWORD PTR [esi+8], edi

; 834  :         this->_Ptr->_Color = _Red;

  000ff	66 c7 46 0c 00
	00		 mov	 WORD PTR [esi+12], 0
; File C:\Program Files\Microsoft Visual Studio\2022\Community\VC\Tools\MSVC\14.44.35207\include\map

; 211  :         return {_Scary->_Insert_node(_Loc._Location, _Inserted), true};

  00105	e8 00 00 00 00	 call	 ?_Insert_node@?$_Tree_val@U?$_Tree_simple_types@U?$pair@$$CBKUSNetworkActorData@@@std@@@std@@@std@@QAEPAU?$_Tree_node@U?$pair@$$CBKUSNetworkActorData@@@std@@PAX@2@U?$_Tree_id@PAU?$_Tree_node@U?$pair@$$CBKUSNetworkActorData@@@std@@PAX@std@@@2@QAU32@@Z ; std::_Tree_val<std::_Tree_simple_types<std::pair<unsigned long const ,SNetworkActorData> > >::_Insert_node
  0010a	8b 7d 08	 mov	 edi, DWORD PTR _c_rkNetActorData$[ebp]
  0010d	8d 73 18	 lea	 esi, DWORD PTR [ebx+24]
  00110	8b c8		 mov	 ecx, eax
  00112	89 4d f0	 mov	 DWORD PTR $T4[ebp], ecx
$LN14@AppendActo:

; 346  :         return _Try_emplace(_Keyval).first->_Myval.second;

  00115	8d 49 14	 lea	 ecx, DWORD PTR [ecx+20]
; File D:\_m2work\txoko-m2-work\txoko-client-src\source\UserInterface\NetworkActorManager.cpp

; 431  : 	rkNetActorData=c_rkNetActorData;

  00118	57		 push	 edi
  00119	e8 00 00 00 00	 call	 ??4SNetworkActorData@@QAEXABU0@@Z ; SNetworkActorData::operator=

; 432  : 
; 433  : 	if (__IsVisibleActor(rkNetActorData))

  0011e	8b 45 f0	 mov	 eax, DWORD PTR $T4[ebp]
  00121	8b cb		 mov	 ecx, ebx
  00123	83 c0 14	 add	 eax, 20			; 00000014H
  00126	50		 push	 eax
  00127	e8 00 00 00 00	 call	 ?__IsVisibleActor@CNetworkActorManager@@IAE_NABUSNetworkActorData@@@Z ; CNetworkActorManager::__IsVisibleActor
  0012c	84 c0		 test	 al, al
  0012e	74 1d		 je	 SHORT $LN6@AppendActo

; 434  : 	{
; 435  : 		if (!__AppendCharacterManagerActor(rkNetActorData))

  00130	8b 45 f0	 mov	 eax, DWORD PTR $T4[ebp]
  00133	8b cb		 mov	 ecx, ebx
  00135	83 c0 14	 add	 eax, 20			; 00000014H
  00138	50		 push	 eax
  00139	e8 00 00 00 00	 call	 ?__AppendCharacterManagerActor@CNetworkActorManager@@IAEPAVCInstanceBase@@AAUSNetworkActorData@@@Z ; CNetworkActorManager::__AppendCharacterManagerActor
  0013e	85 c0		 test	 eax, eax
  00140	75 0b		 jne	 SHORT $LN6@AppendActo

; 436  : 			m_kNetActorDict.erase(c_rkNetActorData.m_dwVID);

  00142	8d 47 24	 lea	 eax, DWORD PTR [edi+36]
  00145	8b ce		 mov	 ecx, esi
  00147	50		 push	 eax
  00148	e8 00 00 00 00	 call	 ?erase@?$_Tree@V?$_Tmap_traits@KUSNetworkActorData@@U?$less@K@std@@V?$allocator@U?$pair@$$CBKUSNetworkActorData@@@std@@@3@$0A@@std@@@std@@QAEIABK@Z ; std::_Tree<std::_Tmap_traits<unsigned long,SNetworkActorData,std::less<unsigned long>,std::allocator<std::pair<unsigned long const ,SNetworkActorData> >,0> >::erase
$LN6@AppendActo:

; 438  : }

  0014d	8b 4d f4	 mov	 ecx, DWORD PTR __$EHRec$[ebp]
  00150	64 89 0d 00 00
	00 00		 mov	 DWORD PTR fs:0, ecx
  00157	59		 pop	 ecx
  00158	5f		 pop	 edi
  00159	5e		 pop	 esi
  0015a	5b		 pop	 ebx
  0015b	8b e5		 mov	 esp, ebp
  0015d	5d		 pop	 ebp
  0015e	c2 04 00	 ret	 4
$LN151@AppendActo:
; File C:\Program Files\Microsoft Visual Studio\2022\Community\VC\Tools\MSVC\14.44.35207\include\xtree

; 1649 :             _Throw_tree_length_error();

  00161	e8 00 00 00 00	 call	 ?_Throw_tree_length_error@std@@YAXXZ ; std::_Throw_tree_length_error
$LN149@AppendActo:
  00166	cc		 int	 3
_TEXT	ENDS
;	COMDAT text$x
text$x	SEGMENT
__unwindfunclet$?AppendActor@CNetworkActorManager@@QAEXABUSNetworkActorData@@@Z$2:
  00000	8d 4d ec	 lea	 ecx, DWORD PTR $T3[ebp]
  00003	e9 00 00 00 00	 jmp	 ??1?$_Alloc_construct_ptr@V?$allocator@U?$_Tree_node@U?$pair@$$CBKUSNetworkActorData@@@std@@PAX@std@@@std@@@std@@QAE@XZ ; std::_Alloc_construct_ptr<std::allocator<std::_Tree_node<std::pair<unsigned long const ,SNetworkActorData>,void *> > >::~_Alloc_construct_ptr<std::allocator<std::_Tree_node<std::pair<unsigned long const ,SNetworkActorData>,void *> > >
__unwindfunclet$?AppendActor@CNetworkActorManager@@QAEXABUSNetworkActorData@@@Z$1:
  00008	8d 4d ec	 lea	 ecx, DWORD PTR $T3[ebp]
  0000b	e9 00 00 00 00	 jmp	 ??1?$_Tree_temp_node_alloc@V?$allocator@U?$_Tree_node@U?$pair@$$CBKUSNetworkActorData@@@std@@PAX@std@@@std@@@std@@QAE@XZ
  00010	cc		 int	 3
  00011	cc		 int	 3
  00012	cc		 int	 3
  00013	cc		 int	 3
  00014	cc		 int	 3
__ehhandler$?AppendActor@CNetworkActorManager@@QAEXABUSNetworkActorData@@@Z:
  00015	90		 npad	 1
  00016	90		 npad	 1
  00017	8b 54 24 08	 mov	 edx, DWORD PTR [esp+8]
  0001b	8d 42 0c	 lea	 eax, DWORD PTR [edx+12]
  0001e	8b 4a d8	 mov	 ecx, DWORD PTR [edx-40]
  00021	33 c8		 xor	 ecx, eax
  00023	e8 00 00 00 00	 call	 @__security_check_cookie@4
  00028	b8 00 00 00 00	 mov	 eax, OFFSET __ehfuncinfo$?AppendActor@CNetworkActorManager@@QAEXABUSNetworkActorData@@@Z
  0002d	e9 00 00 00 00	 jmp	 ___CxxFrameHandler3
text$x	ENDS
?AppendActor@CNetworkActorManager@@QAEXABUSNetworkActorData@@@Z ENDP ; CNetworkActorManager::AppendActor
; Function compile flags: /Ogtp
; File D:\_m2work\txoko-m2-work\txoko-client-src\source\UserInterface\NetworkActorManager.cpp
; File C:\Program Files\Microsoft Visual Studio\2022\Community\VC\Tools\MSVC\14.44.35207\include\xtree
; File C:\Program Files\Microsoft Visual Studio\2022\Community\VC\Tools\MSVC\14.44.35207\include\type_traits
; File C:\Program Files\Microsoft Visual Studio\2022\Community\VC\Tools\MSVC\14.44.35207\include\xtree
; File D:\_m2work\txoko-m2-work\txoko-client-src\source\UserInterface\NetworkActorManager.cpp
; File C:\Program Files\Microsoft Visual Studio\2022\Community\VC\Tools\MSVC\14.44.35207\include\xtree
; File C:\Program Files\Microsoft Visual Studio\2022\Community\VC\Tools\MSVC\14.44.35207\include\xstring
; File C:\Program Files\Microsoft Visual Studio\2022\Community\VC\Tools\MSVC\14.44.35207\include\xmemory
; File D:\_m2work\txoko-m2-work\txoko-client-src\source\UserInterface\NetworkActorManager.cpp
;	COMDAT ?RemoveActor@CNetworkActorManager@@QAEXK@Z
_TEXT	SEGMENT
__Loc$1 = -12						; size = 12
_dwVID$ = 8						; size = 4
?RemoveActor@CNetworkActorManager@@QAEXK@Z PROC		; CNetworkActorManager::RemoveActor, COMDAT
; _this$ = ecx

; 441  : {

  00000	55		 push	 ebp
  00001	8b ec		 mov	 ebp, esp
  00003	83 ec 0c	 sub	 esp, 12			; 0000000cH
  00006	53		 push	 ebx
  00007	56		 push	 esi
  00008	57		 push	 edi
  00009	8b d9		 mov	 ebx, ecx
; File C:\Program Files\Microsoft Visual Studio\2022\Community\VC\Tools\MSVC\14.44.35207\include\xtree

; 1384 :         const _Tree_find_result<_Nodeptr> _Loc = _Find_lower_bound(_Keyval);

  0000b	8d 45 08	 lea	 eax, DWORD PTR _dwVID$[ebp]
  0000e	50		 push	 eax
  0000f	8d 45 f4	 lea	 eax, DWORD PTR __Loc$1[ebp]
  00012	50		 push	 eax
  00013	8d 4b 18	 lea	 ecx, DWORD PTR [ebx+24]
  00016	e8 00 00 00 00	 call	 ??$_Find_lower_bound@K@?$_Tree@V?$_Tmap_traits@KUSNetworkActorData@@U?$less@K@std@@V?$allocator@U?$pair@$$CBKUSNetworkActorData@@@std@@@3@$0A@@std@@@std@@IBE?AU?$_Tree_find_result@PAU?$_Tree_node@U?$pair@$$CBKUSNetworkActorData@@@std@@PAX@std@@@1@ABK@Z ; std::_Tree<std::_Tmap_traits<unsigned long,SNetworkActorData,std::less<unsigned long>,std::allocator<std::pair<unsigned long const ,SNetworkActorData> >,0> >::_Find_lower_bound<unsigned long>

; 1624 :         return !_Bound->_Isnil && !_DEBUG_LT_PRED(_Getcomp(), _Keyval, _Traits::_Kfn(_Bound->_Myval));

  0001b	8b 75 fc	 mov	 esi, DWORD PTR __Loc$1[ebp+8]
  0001e	80 7e 0d 00	 cmp	 BYTE PTR [esi+13], 0
  00022	75 39		 jne	 SHORT $LN114@RemoveActo
; File C:\Program Files\Microsoft Visual Studio\2022\Community\VC\Tools\MSVC\14.44.35207\include\type_traits

; 2380 :         return _Left < _Right;

  00024	8b 45 08	 mov	 eax, DWORD PTR _dwVID$[ebp]
  00027	3b 46 10	 cmp	 eax, DWORD PTR [esi+16]
; File C:\Program Files\Microsoft Visual Studio\2022\Community\VC\Tools\MSVC\14.44.35207\include\xtree

; 1624 :         return !_Bound->_Isnil && !_DEBUG_LT_PRED(_Getcomp(), _Keyval, _Traits::_Kfn(_Bound->_Myval));

  0002a	72 31		 jb	 SHORT $LN114@RemoveActo

; 37   :     _Tree_unchecked_const_iterator(_Nodeptr _Pnode, const _Mytree* _Plist) noexcept : _Ptr(_Pnode) {

  0002c	39 73 18	 cmp	 DWORD PTR [ebx+24], esi
; File D:\_m2work\txoko-m2-work\txoko-client-src\source\UserInterface\NetworkActorManager.cpp

; 443  : 	if (m_kNetActorDict.end()==f)

  0002f	74 2c		 je	 SHORT $LN114@RemoveActo

; 444  : 	{
; 445  : #ifdef _DEBUG		
; 446  : 		TraceError("CNetworkActorManager::RemoveActor(dwVID=%d) - NOT EXIST VID", dwVID);
; 447  : #endif
; 448  : 		return;
; 449  : 	}
; 450  : 
; 451  : 	SNetworkActorData& rkNetActorData=f->second;

  00031	8d 46 14	 lea	 eax, DWORD PTR [esi+20]

; 452  : 	__RemoveCharacterManagerActor(rkNetActorData);

  00034	8b cb		 mov	 ecx, ebx
  00036	50		 push	 eax
  00037	e8 00 00 00 00	 call	 ?__RemoveCharacterManagerActor@CNetworkActorManager@@IAEXAAUSNetworkActorData@@@Z ; CNetworkActorManager::__RemoveCharacterManagerActor
; File C:\Program Files\Microsoft Visual Studio\2022\Community\VC\Tools\MSVC\14.44.35207\include\xtree

; 1303 :         _Nodeptr _Erasednode = _Scary->_Extract(_Where); // node to erase

  0003c	56		 push	 esi
  0003d	8d 4b 18	 lea	 ecx, DWORD PTR [ebx+24]
  00040	e8 00 00 00 00	 call	 ?_Extract@?$_Tree_val@U?$_Tree_simple_types@U?$pair@$$CBKUSNetworkActorData@@@std@@@std@@@std@@QAEPAU?$_Tree_node@U?$pair@$$CBKUSNetworkActorData@@@std@@PAX@2@V?$_Tree_unchecked_const_iterator@V?$_Tree_val@U?$_Tree_simple_types@U?$pair@$$CBKUSNetworkActorData@@@std@@@std@@@std@@U_Iterator_base0@2@@2@@Z ; std::_Tree_val<std::_Tree_simple_types<std::pair<unsigned long const ,SNetworkActorData> > >::_Extract
  00045	8b f0		 mov	 esi, eax

; 381  :         allocator_traits<_Alloc>::destroy(_Al, _STD addressof(_Ptr->_Myval));

  00047	8d 4e 14	 lea	 ecx, DWORD PTR [esi+20]
; File C:\Program Files\Microsoft Visual Studio\2022\Community\VC\Tools\MSVC\14.44.35207\include\xstring

; 1383 :         _Tidy_deallocate();

  0004a	e8 00 00 00 00	 call	 ?_Tidy_deallocate@?$basic_string@DU?$char_traits@D@std@@V?$allocator@D@2@@std@@AAEXXZ ; std::basic_string<char,std::char_traits<char>,std::allocator<char> >::_Tidy_deallocate
; File C:\Program Files\Microsoft Visual Studio\2022\Community\VC\Tools\MSVC\14.44.35207\include\xmemory

; 289  :         ::operator delete(_Ptr, _Bytes);

  0004f	68 98 00 00 00	 push	 152			; 00000098H
  00054	56		 push	 esi
  00055	e8 00 00 00 00	 call	 ??3@YAXPAXI@Z		; operator delete
  0005a	83 c4 08	 add	 esp, 8
$LN114@RemoveActo:
  0005d	5f		 pop	 edi
; File D:\_m2work\txoko-m2-work\txoko-client-src\source\UserInterface\NetworkActorManager.cpp

; 455  : }

  0005e	5e		 pop	 esi
  0005f	5b		 pop	 ebx
  00060	8b e5		 mov	 esp, ebp
  00062	5d		 pop	 ebp
  00063	c2 04 00	 ret	 4
?RemoveActor@CNetworkActorManager@@QAEXK@Z ENDP		; CNetworkActorManager::RemoveActor
_TEXT	ENDS
; Function compile flags: /Ogtp
; File D:\_m2work\txoko-m2-work\txoko-client-src\source\UserInterface\NetworkActorManager.cpp
; File C:\Program Files\Microsoft Visual Studio\2022\Community\VC\Tools\MSVC\14.44.35207\include\xtree
; File C:\Program Files\Microsoft Visual Studio\2022\Community\VC\Tools\MSVC\14.44.35207\include\type_traits
; File C:\Program Files\Microsoft Visual Studio\2022\Community\VC\Tools\MSVC\14.44.35207\include\xtree
; File D:\_m2work\txoko-m2-work\txoko-client-src\source\UserInterface\NetworkActorManager.cpp
;	COMDAT ?UpdateActor@CNetworkActorManager@@QAEXABUSNetworkUpdateActorData@@@Z
_TEXT	SEGMENT
__Loc$1 = -16						; size = 12
_this$1$ = -4						; size = 4
_c_rkNetUpdateActorData$ = 8				; size = 4
?UpdateActor@CNetworkActorManager@@QAEXABUSNetworkUpdateActorData@@@Z PROC ; CNetworkActorManager::UpdateActor, COMDAT
; _this$ = ecx

; 458  : {

  00000	55		 push	 ebp
  00001	8b ec		 mov	 ebp, esp
  00003	83 ec 10	 sub	 esp, 16			; 00000010H
  00006	53		 push	 ebx
  00007	8b c1		 mov	 eax, ecx
  00009	56		 push	 esi
  0000a	8b 75 08	 mov	 esi, DWORD PTR _c_rkNetUpdateActorData$[ebp]
  0000d	57		 push	 edi

; 459  : 	std::map<DWORD, SNetworkActorData>::iterator f=m_kNetActorDict.find(c_rkNetUpdateActorData.m_dwVID);

  0000e	8d 58 18	 lea	 ebx, DWORD PTR [eax+24]
  00011	89 45 fc	 mov	 DWORD PTR _this$1$[ebp], eax
; File C:\Program Files\Microsoft Visual Studio\2022\Community\VC\Tools\MSVC\14.44.35207\include\xtree

; 1384 :         const _Tree_find_result<_Nodeptr> _Loc = _Find_lower_bound(_Keyval);

  00014	56		 push	 esi
  00015	8d 45 f0	 lea	 eax, DWORD PTR __Loc$1[ebp]
  00018	8b cb		 mov	 ecx, ebx
  0001a	50		 push	 eax
  0001b	e8 00 00 00 00	 call	 ??$_Find_lower_bound@K@?$_Tree@V?$_Tmap_traits@KUSNetworkActorData@@U?$less@K@std@@V?$allocator@U?$pair@$$CBKUSNetworkActorData@@@std@@@3@$0A@@std@@@std@@IBE?AU?$_Tree_find_result@PAU?$_Tree_node@U?$pair@$$CBKUSNetworkActorData@@@std@@PAX@std@@@1@ABK@Z ; std::_Tree<std::_Tmap_traits<unsigned long,SNetworkActorData,std::less<unsigned long>,std::allocator<std::pair<unsigned long const ,SNetworkActorData> >,0> >::_Find_lower_bound<unsigned long>

; 1624 :         return !_Bound->_Isnil && !_DEBUG_LT_PRED(_Getcomp(), _Keyval, _Traits::_Kfn(_Bound->_Myval));

  00020	8b 7d f8	 mov	 edi, DWORD PTR __Loc$1[ebp+8]
  00023	80 7f 0d 00	 cmp	 BYTE PTR [edi+13], 0
  00027	0f 85 cf 00 00
	00		 jne	 $LN1@UpdateActo
; File C:\Program Files\Microsoft Visual Studio\2022\Community\VC\Tools\MSVC\14.44.35207\include\type_traits

; 2380 :         return _Left < _Right;

  0002d	8b 06		 mov	 eax, DWORD PTR [esi]
  0002f	3b 47 10	 cmp	 eax, DWORD PTR [edi+16]
; File C:\Program Files\Microsoft Visual Studio\2022\Community\VC\Tools\MSVC\14.44.35207\include\xtree

; 1624 :         return !_Bound->_Isnil && !_DEBUG_LT_PRED(_Getcomp(), _Keyval, _Traits::_Kfn(_Bound->_Myval));

  00032	0f 82 c4 00 00
	00		 jb	 $LN1@UpdateActo

; 37   :     _Tree_unchecked_const_iterator(_Nodeptr _Pnode, const _Mytree* _Plist) noexcept : _Ptr(_Pnode) {

  00038	39 3b		 cmp	 DWORD PTR [ebx], edi
; File D:\_m2work\txoko-m2-work\txoko-client-src\source\UserInterface\NetworkActorManager.cpp

; 460  : 	if (m_kNetActorDict.end()==f)

  0003a	0f 84 bc 00 00
	00		 je	 $LN1@UpdateActo

; 461  : 	{
; 462  : #ifdef _DEBUG
; 463  : 		TraceError("CNetworkActorManager::UpdateActor(dwVID=%d) - NOT EXIST VID", c_rkNetUpdateActorData.m_dwVID);
; 464  : #endif
; 465  : 		return;
; 466  : 	}
; 467  : 
; 468  : 	SNetworkActorData& rkNetActorData=f->second;
; 469  : 
; 470  : 	CInstanceBase* pkInstFind=__FindActor(rkNetActorData);

  00040	8b 4d fc	 mov	 ecx, DWORD PTR _this$1$[ebp]
  00043	83 c7 14	 add	 edi, 20			; 00000014H
  00046	57		 push	 edi
  00047	e8 00 00 00 00	 call	 ?__FindActor@CNetworkActorManager@@IAEPAVCInstanceBase@@AAUSNetworkActorData@@@Z ; CNetworkActorManager::__FindActor
  0004c	8b d8		 mov	 ebx, eax

; 471  : 	if (pkInstFind)

  0004e	85 db		 test	 ebx, ebx
  00050	74 69		 je	 SHORT $LN51@UpdateActo

; 472  : 	{
; 473  : 		pkInstFind->ChangeArmor(c_rkNetUpdateActorData.m_dwArmor);		

  00052	ff 76 08	 push	 DWORD PTR [esi+8]
  00055	8b cb		 mov	 ecx, ebx
  00057	e8 00 00 00 00	 call	 ?ChangeArmor@CInstanceBase@@QAE_NK@Z ; CInstanceBase::ChangeArmor

; 474  : 		pkInstFind->ChangeWeapon(c_rkNetUpdateActorData.m_dwWeapon);

  0005c	ff 76 0c	 push	 DWORD PTR [esi+12]
  0005f	8b cb		 mov	 ecx, ebx
  00061	e8 00 00 00 00	 call	 ?ChangeWeapon@CInstanceBase@@QAEXK@Z ; CInstanceBase::ChangeWeapon

; 475  : 		pkInstFind->ChangeHair(c_rkNetUpdateActorData.m_dwHair);		

  00066	ff 76 10	 push	 DWORD PTR [esi+16]
  00069	8b cb		 mov	 ecx, ebx
  0006b	e8 00 00 00 00	 call	 ?ChangeHair@CInstanceBase@@QAEXK@Z ; CInstanceBase::ChangeHair

; 476  : 		pkInstFind->ChangeGuild(c_rkNetUpdateActorData.m_dwGuildID);

  00070	ff 76 04	 push	 DWORD PTR [esi+4]
  00073	8b cb		 mov	 ecx, ebx
  00075	e8 00 00 00 00	 call	 ?ChangeGuild@CInstanceBase@@QAEXK@Z ; CInstanceBase::ChangeGuild

; 477  : 		pkInstFind->SetAffectFlagContainer(c_rkNetUpdateActorData.m_kAffectFlags);

  0007a	8d 46 28	 lea	 eax, DWORD PTR [esi+40]
  0007d	8b cb		 mov	 ecx, ebx
  0007f	50		 push	 eax
  00080	e8 00 00 00 00	 call	 ?SetAffectFlagContainer@CInstanceBase@@QAEXABVCAffectFlagContainer@@@Z ; CInstanceBase::SetAffectFlagContainer

; 478  : 		pkInstFind->SetMoveSpeed(c_rkNetUpdateActorData.m_dwMovSpd);

  00085	ff 76 14	 push	 DWORD PTR [esi+20]
  00088	8b cb		 mov	 ecx, ebx
  0008a	e8 00 00 00 00	 call	 ?SetMoveSpeed@CInstanceBase@@QAEXI@Z ; CInstanceBase::SetMoveSpeed

; 479  : 		pkInstFind->SetAttackSpeed(c_rkNetUpdateActorData.m_dwAtkSpd);

  0008f	ff 76 18	 push	 DWORD PTR [esi+24]
  00092	8b cb		 mov	 ecx, ebx
  00094	e8 00 00 00 00	 call	 ?SetAttackSpeed@CInstanceBase@@QAEXI@Z ; CInstanceBase::SetAttackSpeed

; 480  : 		pkInstFind->SetAlignment(c_rkNetUpdateActorData.m_sAlignment);

  00099	0f b7 46 1c	 movzx	 eax, WORD PTR [esi+28]
  0009d	8b cb		 mov	 ecx, ebx
  0009f	50		 push	 eax
  000a0	e8 00 00 00 00	 call	 ?SetAlignment@CInstanceBase@@QAEXF@Z ; CInstanceBase::SetAlignment

; 481  : 		pkInstFind->SetPKMode(c_rkNetUpdateActorData.m_byPKMode);

  000a5	0f b6 46 1e	 movzx	 eax, BYTE PTR [esi+30]
  000a9	8b cb		 mov	 ecx, ebx
  000ab	50		 push	 eax
  000ac	e8 00 00 00 00	 call	 ?SetPKMode@CInstanceBase@@QAEXE@Z ; CInstanceBase::SetPKMode

; 482  : 		pkInstFind->SetStateFlags(c_rkNetUpdateActorData.m_dwStateFlags);

  000b1	ff 76 24	 push	 DWORD PTR [esi+36]
  000b4	8b cb		 mov	 ecx, ebx
  000b6	e8 00 00 00 00	 call	 ?SetStateFlags@CInstanceBase@@QAEXK@Z ; CInstanceBase::SetStateFlags
$LN51@UpdateActo:

; 483  : 
; 484  : 		//if( c_rkNetUpdateActorData.m_dwMountVnum != 0 )
; 485  : 		//{
; 486  : 		//	pkInstFind->MountHorse(c_rkNetUpdateActorData.m_dwMountVnum);
; 487  : 		//}
; 488  : 		//else
; 489  : 		//{
; 490  : 		//	if( pkInstFind->IsMountingHorse() )
; 491  : 		//	{
; 492  : 		//		pkInstFind->DismountHorse();
; 493  : 		//	}
; 494  : 		//}
; 495  : 	}
; 496  : 
; 497  : 	rkNetActorData.m_kAffectFlags=c_rkNetUpdateActorData.m_kAffectFlags;

  000bb	8b 46 28	 mov	 eax, DWORD PTR [esi+40]
  000be	8d 4e 28	 lea	 ecx, DWORD PTR [esi+40]
  000c1	8b 49 04	 mov	 ecx, DWORD PTR [ecx+4]
  000c4	89 47 18	 mov	 DWORD PTR [edi+24], eax
  000c7	89 4f 1c	 mov	 DWORD PTR [edi+28], ecx

; 498  : 	rkNetActorData.m_dwGuildID=c_rkNetUpdateActorData.m_dwGuildID;

  000ca	8b 46 04	 mov	 eax, DWORD PTR [esi+4]
  000cd	89 47 7c	 mov	 DWORD PTR [edi+124], eax

; 499  : 	//rkNetActorData.m_dwLevel=c_rkNetUpdateActorData.m_dwLevel;
; 500  : 	rkNetActorData.m_dwMovSpd=c_rkNetUpdateActorData.m_dwMovSpd;

  000d0	8b 46 14	 mov	 eax, DWORD PTR [esi+20]
  000d3	89 47 34	 mov	 DWORD PTR [edi+52], eax

; 501  : 	rkNetActorData.m_dwAtkSpd=c_rkNetUpdateActorData.m_dwAtkSpd;

  000d6	8b 46 18	 mov	 eax, DWORD PTR [esi+24]
  000d9	89 47 38	 mov	 DWORD PTR [edi+56], eax

; 502  : 	rkNetActorData.m_dwArmor=c_rkNetUpdateActorData.m_dwArmor;

  000dc	8b 46 08	 mov	 eax, DWORD PTR [esi+8]
  000df	89 47 64	 mov	 DWORD PTR [edi+100], eax

; 503  : 	rkNetActorData.m_dwWeapon=c_rkNetUpdateActorData.m_dwWeapon;

  000e2	8b 46 0c	 mov	 eax, DWORD PTR [esi+12]
  000e5	89 47 68	 mov	 DWORD PTR [edi+104], eax

; 504  : 	rkNetActorData.m_dwHair=c_rkNetUpdateActorData.m_dwHair;

  000e8	8b 46 10	 mov	 eax, DWORD PTR [esi+16]
  000eb	89 47 6c	 mov	 DWORD PTR [edi+108], eax

; 505  : 	rkNetActorData.m_sAlignment=c_rkNetUpdateActorData.m_sAlignment;

  000ee	66 8b 46 1c	 mov	 ax, WORD PTR [esi+28]
  000f2	66 89 47 74	 mov	 WORD PTR [edi+116], ax

; 506  : 	rkNetActorData.m_byPKMode=c_rkNetUpdateActorData.m_byPKMode;

  000f6	8a 46 1e	 mov	 al, BYTE PTR [esi+30]
  000f9	88 47 76	 mov	 BYTE PTR [edi+118], al
$LN1@UpdateActo:

; 507  : }

  000fc	5f		 pop	 edi
  000fd	5e		 pop	 esi
  000fe	5b		 pop	 ebx
  000ff	8b e5		 mov	 esp, ebp
  00101	5d		 pop	 ebp
  00102	c2 04 00	 ret	 4
?UpdateActor@CNetworkActorManager@@QAEXABUSNetworkUpdateActorData@@@Z ENDP ; CNetworkActorManager::UpdateActor
_TEXT	ENDS
; Function compile flags: /Ogtp
; File D:\_m2work\txoko-m2-work\txoko-client-src\source\UserInterface\NetworkActorManager.cpp
; File C:\Program Files\Microsoft Visual Studio\2022\Community\VC\Tools\MSVC\14.44.35207\include\xtree
; File D:\_m2work\txoko-m2-work\txoko-client-src\source\UserInterface\NetworkActorManager.cpp
; File C:\Program Files\Microsoft Visual Studio\2022\Community\VC\Tools\MSVC\14.44.35207\include\xtree
; File C:\Program Files\Microsoft Visual Studio\2022\Community\VC\Tools\MSVC\14.44.35207\include\type_traits
; File C:\Program Files\Microsoft Visual Studio\2022\Community\VC\Tools\MSVC\14.44.35207\include\xtree
; File D:\_m2work\txoko-m2-work\txoko-client-src\source\UserInterface\NetworkActorManager.cpp
;	COMDAT ?MoveActor@CNetworkActorManager@@QAEXABUSNetworkMoveActorData@@@Z
_TEXT	SEGMENT
_kPPosDst$1 = -12					; size = 12
__Loc$2 = -12						; size = 12
_c_rkNetMoveActorData$ = 8				; size = 4
?MoveActor@CNetworkActorManager@@QAEXABUSNetworkMoveActorData@@@Z PROC ; CNetworkActorManager::MoveActor, COMDAT
; _this$ = ecx

; 510  : {

  00000	55		 push	 ebp
  00001	8b ec		 mov	 ebp, esp
  00003	83 ec 10	 sub	 esp, 16			; 00000010H
  00006	53		 push	 ebx
  00007	56		 push	 esi
  00008	8b 75 08	 mov	 esi, DWORD PTR _c_rkNetMoveActorData$[ebp]
; File C:\Program Files\Microsoft Visual Studio\2022\Community\VC\Tools\MSVC\14.44.35207\include\xtree

; 1384 :         const _Tree_find_result<_Nodeptr> _Loc = _Find_lower_bound(_Keyval);

  0000b	8d 45 f4	 lea	 eax, DWORD PTR __Loc$2[ebp]
; File D:\_m2work\txoko-m2-work\txoko-client-src\source\UserInterface\NetworkActorManager.cpp

; 510  : {

  0000e	57		 push	 edi
  0000f	8b d9		 mov	 ebx, ecx
; File C:\Program Files\Microsoft Visual Studio\2022\Community\VC\Tools\MSVC\14.44.35207\include\xtree

; 1384 :         const _Tree_find_result<_Nodeptr> _Loc = _Find_lower_bound(_Keyval);

  00011	56		 push	 esi
  00012	50		 push	 eax
  00013	8d 4b 18	 lea	 ecx, DWORD PTR [ebx+24]
  00016	e8 00 00 00 00	 call	 ??$_Find_lower_bound@K@?$_Tree@V?$_Tmap_traits@KUSNetworkActorData@@U?$less@K@std@@V?$allocator@U?$pair@$$CBKUSNetworkActorData@@@std@@@3@$0A@@std@@@std@@IBE?AU?$_Tree_find_result@PAU?$_Tree_node@U?$pair@$$CBKUSNetworkActorData@@@std@@PAX@std@@@1@ABK@Z ; std::_Tree<std::_Tmap_traits<unsigned long,SNetworkActorData,std::less<unsigned long>,std::allocator<std::pair<unsigned long const ,SNetworkActorData> >,0> >::_Find_lower_bound<unsigned long>

; 1624 :         return !_Bound->_Isnil && !_DEBUG_LT_PRED(_Getcomp(), _Keyval, _Traits::_Kfn(_Bound->_Myval));

  0001b	8b 4d fc	 mov	 ecx, DWORD PTR __Loc$2[ebp+8]
  0001e	80 79 0d 00	 cmp	 BYTE PTR [ecx+13], 0
  00022	75 74		 jne	 SHORT $LN1@MoveActor
; File C:\Program Files\Microsoft Visual Studio\2022\Community\VC\Tools\MSVC\14.44.35207\include\type_traits

; 2380 :         return _Left < _Right;

  00024	8b 06		 mov	 eax, DWORD PTR [esi]
  00026	3b 41 10	 cmp	 eax, DWORD PTR [ecx+16]
; File C:\Program Files\Microsoft Visual Studio\2022\Community\VC\Tools\MSVC\14.44.35207\include\xtree

; 1624 :         return !_Bound->_Isnil && !_DEBUG_LT_PRED(_Getcomp(), _Keyval, _Traits::_Kfn(_Bound->_Myval));

  00029	72 6d		 jb	 SHORT $LN1@MoveActor

; 37   :     _Tree_unchecked_const_iterator(_Nodeptr _Pnode, const _Mytree* _Plist) noexcept : _Ptr(_Pnode) {

  0002b	39 4b 18	 cmp	 DWORD PTR [ebx+24], ecx
; File D:\_m2work\txoko-m2-work\txoko-client-src\source\UserInterface\NetworkActorManager.cpp

; 512  : 	if (m_kNetActorDict.end()==f)

  0002e	74 68		 je	 SHORT $LN1@MoveActor

; 513  : 	{
; 514  : #ifdef _DEBUG
; 515  : 		TraceError("CNetworkActorManager::MoveActor(dwVID=%d) - NOT EXIST VID", c_rkNetMoveActorData.m_dwVID);
; 516  : #endif
; 517  : 		return;
; 518  : 	}
; 519  : 
; 520  : 	SNetworkActorData& rkNetActorData=f->second;
; 521  : 
; 522  : 	CInstanceBase* pkInstFind=__FindActor(rkNetActorData, c_rkNetMoveActorData.m_lPosX, c_rkNetMoveActorData.m_lPosY);

  00030	ff 76 0c	 push	 DWORD PTR [esi+12]
  00033	8d 79 14	 lea	 edi, DWORD PTR [ecx+20]
  00036	8b cb		 mov	 ecx, ebx
  00038	ff 76 08	 push	 DWORD PTR [esi+8]
  0003b	57		 push	 edi
  0003c	e8 00 00 00 00	 call	 ?__FindActor@CNetworkActorManager@@IAEPAVCInstanceBase@@AAUSNetworkActorData@@JJ@Z ; CNetworkActorManager::__FindActor

; 523  : 	if (pkInstFind)

  00041	85 c0		 test	 eax, eax
  00043	74 3a		 je	 SHORT $LN51@MoveActor

; 524  : 	{
; 525  : 		TPixelPosition kPPosDst;
; 526  : 		kPPosDst.x=float(c_rkNetMoveActorData.m_lPosX);
; 527  : 		kPPosDst.y=float(c_rkNetMoveActorData.m_lPosY);
; 528  : 		kPPosDst.z=0.0f;
; 529  : 
; 530  : 		pkInstFind->PushTCPState(c_rkNetMoveActorData.m_dwTime, kPPosDst, 

  00045	66 0f 6e 46 08	 movd	 xmm0, DWORD PTR [esi+8]
  0004a	8d 4d f4	 lea	 ecx, DWORD PTR _kPPosDst$1[ebp]
  0004d	ff 76 18	 push	 DWORD PTR [esi+24]
  00050	f3 0f 10 5e 10	 movss	 xmm3, DWORD PTR [esi+16]
  00055	ff 76 14	 push	 DWORD PTR [esi+20]
  00058	0f 5b c0	 cvtdq2ps xmm0, xmm0
  0005b	51		 push	 ecx
  0005c	8b c8		 mov	 ecx, eax
  0005e	c7 45 fc 00 00
	00 00		 mov	 DWORD PTR _kPPosDst$1[ebp+8], 0
  00065	ff 76 04	 push	 DWORD PTR [esi+4]
  00068	f3 0f 11 45 f4	 movss	 DWORD PTR _kPPosDst$1[ebp], xmm0
  0006d	66 0f 6e 46 0c	 movd	 xmm0, DWORD PTR [esi+12]
  00072	0f 5b c0	 cvtdq2ps xmm0, xmm0
  00075	f3 0f 11 45 f8	 movss	 DWORD PTR _kPPosDst$1[ebp+4], xmm0
  0007a	e8 00 00 00 00	 call	 ?PushTCPState@CInstanceBase@@QAEXKABUD3DXVECTOR3@@MII@Z ; CInstanceBase::PushTCPState
$LN51@MoveActor:

; 531  : 			c_rkNetMoveActorData.m_fRot, c_rkNetMoveActorData.m_dwFunc, c_rkNetMoveActorData.m_dwArg);	
; 532  : 	}
; 533  : 
; 534  : 	rkNetActorData.SetDstPosition(c_rkNetMoveActorData.m_dwTime,

  0007f	ff 76 1c	 push	 DWORD PTR [esi+28]
  00082	8b cf		 mov	 ecx, edi
  00084	ff 76 0c	 push	 DWORD PTR [esi+12]
  00087	ff 76 08	 push	 DWORD PTR [esi+8]
  0008a	ff 76 04	 push	 DWORD PTR [esi+4]
  0008d	e8 00 00 00 00	 call	 ?SetDstPosition@SNetworkActorData@@QAEXKJJK@Z ; SNetworkActorData::SetDstPosition

; 535  : 		c_rkNetMoveActorData.m_lPosX, c_rkNetMoveActorData.m_lPosY, c_rkNetMoveActorData.m_dwDuration);
; 536  : 	rkNetActorData.m_fRot=c_rkNetMoveActorData.m_fRot;		

  00092	8b 46 10	 mov	 eax, DWORD PTR [esi+16]
  00095	89 47 3c	 mov	 DWORD PTR [edi+60], eax
$LN1@MoveActor:

; 537  : }

  00098	5f		 pop	 edi
  00099	5e		 pop	 esi
  0009a	5b		 pop	 ebx
  0009b	8b e5		 mov	 esp, ebp
  0009d	5d		 pop	 ebp
  0009e	c2 04 00	 ret	 4
?MoveActor@CNetworkActorManager@@QAEXABUSNetworkMoveActorData@@@Z ENDP ; CNetworkActorManager::MoveActor
_TEXT	ENDS
; Function compile flags: /Ogtp
; File D:\_m2work\txoko-m2-work\txoko-client-src\source\UserInterface\NetworkActorManager.cpp
; File C:\Program Files\Microsoft Visual Studio\2022\Community\VC\Tools\MSVC\14.44.35207\include\xtree
; File C:\Program Files\Microsoft Visual Studio\2022\Community\VC\Tools\MSVC\14.44.35207\include\type_traits
; File C:\Program Files\Microsoft Visual Studio\2022\Community\VC\Tools\MSVC\14.44.35207\include\xtree
; File D:\_m2work\txoko-m2-work\txoko-client-src\source\UserInterface\NetworkActorManager.cpp
;	COMDAT ?SyncActor@CNetworkActorManager@@QAEXKJJ@Z
_TEXT	SEGMENT
__Loc$1 = -12						; size = 12
_dwVID$ = 8						; size = 4
_lPosX$ = 12						; size = 4
_lPosY$ = 16						; size = 4
?SyncActor@CNetworkActorManager@@QAEXKJJ@Z PROC		; CNetworkActorManager::SyncActor, COMDAT
; _this$ = ecx

; 540  : {

  00000	55		 push	 ebp
  00001	8b ec		 mov	 ebp, esp
  00003	83 ec 0c	 sub	 esp, 12			; 0000000cH
  00006	56		 push	 esi
  00007	57		 push	 edi
  00008	8b f9		 mov	 edi, ecx
; File C:\Program Files\Microsoft Visual Studio\2022\Community\VC\Tools\MSVC\14.44.35207\include\xtree

; 1384 :         const _Tree_find_result<_Nodeptr> _Loc = _Find_lower_bound(_Keyval);

  0000a	8d 45 08	 lea	 eax, DWORD PTR _dwVID$[ebp]
  0000d	50		 push	 eax
  0000e	8d 45 f4	 lea	 eax, DWORD PTR __Loc$1[ebp]
  00011	50		 push	 eax
  00012	8d 4f 18	 lea	 ecx, DWORD PTR [edi+24]
  00015	e8 00 00 00 00	 call	 ??$_Find_lower_bound@K@?$_Tree@V?$_Tmap_traits@KUSNetworkActorData@@U?$less@K@std@@V?$allocator@U?$pair@$$CBKUSNetworkActorData@@@std@@@3@$0A@@std@@@std@@IBE?AU?$_Tree_find_result@PAU?$_Tree_node@U?$pair@$$CBKUSNetworkActorData@@@std@@PAX@std@@@1@ABK@Z ; std::_Tree<std::_Tmap_traits<unsigned long,SNetworkActorData,std::less<unsigned long>,std::allocator<std::pair<unsigned long const ,SNetworkActorData> >,0> >::_Find_lower_bound<unsigned long>

; 1624 :         return !_Bound->_Isnil && !_DEBUG_LT_PRED(_Getcomp(), _Keyval, _Traits::_Kfn(_Bound->_Myval));

  0001a	8b 4d fc	 mov	 ecx, DWORD PTR __Loc$1[ebp+8]
  0001d	80 79 0d 00	 cmp	 BYTE PTR [ecx+13], 0
  00021	75 38		 jne	 SHORT $LN1@SyncActor
; File C:\Program Files\Microsoft Visual Studio\2022\Community\VC\Tools\MSVC\14.44.35207\include\type_traits

; 2380 :         return _Left < _Right;

  00023	8b 45 08	 mov	 eax, DWORD PTR _dwVID$[ebp]
  00026	3b 41 10	 cmp	 eax, DWORD PTR [ecx+16]
; File C:\Program Files\Microsoft Visual Studio\2022\Community\VC\Tools\MSVC\14.44.35207\include\xtree

; 1624 :         return !_Bound->_Isnil && !_DEBUG_LT_PRED(_Getcomp(), _Keyval, _Traits::_Kfn(_Bound->_Myval));

  00029	72 30		 jb	 SHORT $LN1@SyncActor

; 37   :     _Tree_unchecked_const_iterator(_Nodeptr _Pnode, const _Mytree* _Plist) noexcept : _Ptr(_Pnode) {

  0002b	39 4f 18	 cmp	 DWORD PTR [edi+24], ecx
; File D:\_m2work\txoko-m2-work\txoko-client-src\source\UserInterface\NetworkActorManager.cpp

; 542  : 	if (m_kNetActorDict.end()==f)

  0002e	74 2b		 je	 SHORT $LN1@SyncActor

; 543  : 	{
; 544  : #ifdef _DEBUG
; 545  : 		TraceError("CNetworkActorManager::SyncActor(dwVID=%d) - NOT EXIST VID", dwVID);
; 546  : #endif
; 547  : 		return;
; 548  : 	}
; 549  : 
; 550  : 	SNetworkActorData& rkNetActorData=f->second;

  00030	8d 71 14	 lea	 esi, DWORD PTR [ecx+20]

; 551  : 
; 552  : 	CInstanceBase* pkInstFind=__FindActor(rkNetActorData);

  00033	8b cf		 mov	 ecx, edi
  00035	56		 push	 esi
  00036	e8 00 00 00 00	 call	 ?__FindActor@CNetworkActorManager@@IAEPAVCInstanceBase@@AAUSNetworkActorData@@@Z ; CNetworkActorManager::__FindActor

; 553  : 	if (pkInstFind)

  0003b	85 c0		 test	 eax, eax
  0003d	74 0f		 je	 SHORT $LN3@SyncActor

; 554  : 	{
; 555  : 		pkInstFind->NEW_SyncPixelPosition(lPosX, lPosY);			

  0003f	8d 4d 10	 lea	 ecx, DWORD PTR _lPosY$[ebp]
  00042	51		 push	 ecx
  00043	8d 4d 0c	 lea	 ecx, DWORD PTR _lPosX$[ebp]
  00046	51		 push	 ecx
  00047	8b c8		 mov	 ecx, eax
  00049	e8 00 00 00 00	 call	 ?NEW_SyncPixelPosition@CInstanceBase@@QAEXAAJ0@Z ; CInstanceBase::NEW_SyncPixelPosition
$LN3@SyncActor:

; 556  : 	}
; 557  : 	
; 558  : 	rkNetActorData.SetPosition(lPosX, lPosY);	

  0004e	ff 75 10	 push	 DWORD PTR _lPosY$[ebp]
  00051	8b ce		 mov	 ecx, esi
  00053	ff 75 0c	 push	 DWORD PTR _lPosX$[ebp]
  00056	e8 00 00 00 00	 call	 ?SetPosition@SNetworkActorData@@QAEXJJ@Z ; SNetworkActorData::SetPosition
$LN1@SyncActor:

; 559  : }

  0005b	5f		 pop	 edi
  0005c	5e		 pop	 esi
  0005d	8b e5		 mov	 esp, ebp
  0005f	5d		 pop	 ebp
  00060	c2 0c 00	 ret	 12			; 0000000cH
?SyncActor@CNetworkActorManager@@QAEXKJJ@Z ENDP		; CNetworkActorManager::SyncActor
_TEXT	ENDS
; Function compile flags: /Ogtp
; File D:\_m2work\txoko-m2-work\txoko-client-src\source\UserInterface\NetworkActorManager.cpp
; File C:\Program Files\Microsoft Visual Studio\2022\Community\VC\Tools\MSVC\14.44.35207\include\xtree
; File C:\Program Files\Microsoft Visual Studio\2022\Community\VC\Tools\MSVC\14.44.35207\include\type_traits
; File C:\Program Files\Microsoft Visual Studio\2022\Community\VC\Tools\MSVC\14.44.35207\include\xtree
; File D:\_m2work\txoko-m2-work\txoko-client-src\source\UserInterface\NetworkActorManager.cpp
;	COMDAT ?SetActorOwner@CNetworkActorManager@@QAEXKK@Z
_TEXT	SEGMENT
__Loc$1 = -12						; size = 12
_dwOwnerVID$ = 8					; size = 4
_dwVictimVID$ = 12					; size = 4
?SetActorOwner@CNetworkActorManager@@QAEXKK@Z PROC	; CNetworkActorManager::SetActorOwner, COMDAT
; _this$ = ecx

; 562  : {

  00000	55		 push	 ebp
  00001	8b ec		 mov	 ebp, esp
  00003	83 ec 10	 sub	 esp, 16			; 00000010H
  00006	56		 push	 esi
  00007	57		 push	 edi
  00008	8b f9		 mov	 edi, ecx
; File C:\Program Files\Microsoft Visual Studio\2022\Community\VC\Tools\MSVC\14.44.35207\include\xtree

; 1384 :         const _Tree_find_result<_Nodeptr> _Loc = _Find_lower_bound(_Keyval);

  0000a	8d 45 0c	 lea	 eax, DWORD PTR _dwVictimVID$[ebp]
  0000d	50		 push	 eax
  0000e	8d 45 f4	 lea	 eax, DWORD PTR __Loc$1[ebp]
  00011	50		 push	 eax
  00012	8d 4f 18	 lea	 ecx, DWORD PTR [edi+24]
  00015	e8 00 00 00 00	 call	 ??$_Find_lower_bound@K@?$_Tree@V?$_Tmap_traits@KUSNetworkActorData@@U?$less@K@std@@V?$allocator@U?$pair@$$CBKUSNetworkActorData@@@std@@@3@$0A@@std@@@std@@IBE?AU?$_Tree_find_result@PAU?$_Tree_node@U?$pair@$$CBKUSNetworkActorData@@@std@@PAX@std@@@1@ABK@Z ; std::_Tree<std::_Tmap_traits<unsigned long,SNetworkActorData,std::less<unsigned long>,std::allocator<std::pair<unsigned long const ,SNetworkActorData> >,0> >::_Find_lower_bound<unsigned long>

; 1624 :         return !_Bound->_Isnil && !_DEBUG_LT_PRED(_Getcomp(), _Keyval, _Traits::_Kfn(_Bound->_Myval));

  0001a	8b 4d fc	 mov	 ecx, DWORD PTR __Loc$1[ebp+8]
  0001d	80 79 0d 00	 cmp	 BYTE PTR [ecx+13], 0
  00021	75 2c		 jne	 SHORT $LN3@SetActorOw
; File C:\Program Files\Microsoft Visual Studio\2022\Community\VC\Tools\MSVC\14.44.35207\include\type_traits

; 2380 :         return _Left < _Right;

  00023	8b 45 0c	 mov	 eax, DWORD PTR _dwVictimVID$[ebp]
  00026	3b 41 10	 cmp	 eax, DWORD PTR [ecx+16]
; File C:\Program Files\Microsoft Visual Studio\2022\Community\VC\Tools\MSVC\14.44.35207\include\xtree

; 1624 :         return !_Bound->_Isnil && !_DEBUG_LT_PRED(_Getcomp(), _Keyval, _Traits::_Kfn(_Bound->_Myval));

  00029	72 24		 jb	 SHORT $LN3@SetActorOw

; 37   :     _Tree_unchecked_const_iterator(_Nodeptr _Pnode, const _Mytree* _Plist) noexcept : _Ptr(_Pnode) {

  0002b	39 4f 18	 cmp	 DWORD PTR [edi+24], ecx
; File D:\_m2work\txoko-m2-work\txoko-client-src\source\UserInterface\NetworkActorManager.cpp

; 564  : 	if (m_kNetActorDict.end()==f)

  0002e	74 1f		 je	 SHORT $LN3@SetActorOw

; 565  : 	{
; 566  : #ifdef _DEBUG
; 567  : 		TraceError("CNetworkActorManager::SetActorOwner(dwOwnerVID=%d, dwVictimVID=%d) - NOT EXIST VID", dwOwnerVID, dwVictimVID);
; 568  : #endif
; 569  : 		return;
; 570  : 	}
; 571  : 
; 572  : 	SNetworkActorData& rkNetActorData=f->second;
; 573  : 	rkNetActorData.m_dwOwnerVID=dwOwnerVID;	

  00030	8b 45 08	 mov	 eax, DWORD PTR _dwOwnerVID$[ebp]
  00033	8d 71 14	 lea	 esi, DWORD PTR [ecx+20]

; 574  : 
; 575  : 	CInstanceBase* pkInstFind=__FindActor(rkNetActorData);

  00036	56		 push	 esi
  00037	8b cf		 mov	 ecx, edi
  00039	89 46 70	 mov	 DWORD PTR [esi+112], eax
  0003c	e8 00 00 00 00	 call	 ?__FindActor@CNetworkActorManager@@IAEPAVCInstanceBase@@AAUSNetworkActorData@@@Z ; CNetworkActorManager::__FindActor

; 576  : 	if (pkInstFind)

  00041	85 c0		 test	 eax, eax
  00043	74 0a		 je	 SHORT $LN3@SetActorOw

; 577  : 	{
; 578  : 		pkInstFind->NEW_SetOwner(rkNetActorData.m_dwOwnerVID);	

  00045	ff 76 70	 push	 DWORD PTR [esi+112]
  00048	8b c8		 mov	 ecx, eax
  0004a	e8 00 00 00 00	 call	 ?NEW_SetOwner@CInstanceBase@@QAEXK@Z ; CInstanceBase::NEW_SetOwner
$LN3@SetActorOw:

; 579  : 	}
; 580  : 		
; 581  : 	
; 582  : }

  0004f	5f		 pop	 edi
  00050	5e		 pop	 esi
  00051	8b e5		 mov	 esp, ebp
  00053	5d		 pop	 ebp
  00054	c2 08 00	 ret	 8
?SetActorOwner@CNetworkActorManager@@QAEXKK@Z ENDP	; CNetworkActorManager::SetActorOwner
_TEXT	ENDS
; Function compile flags: /Ogtp
; File C:\Program Files\Microsoft Visual Studio\2022\Community\VC\Tools\MSVC\14.44.35207\include\xtree
; File C:\Program Files\Microsoft Visual Studio\2022\Community\VC\Tools\MSVC\14.44.35207\include\xstring
; File C:\Program Files\Microsoft Visual Studio\2022\Community\VC\Tools\MSVC\14.44.35207\include\xmemory
; File C:\Program Files\Microsoft Visual Studio\2022\Community\VC\Tools\MSVC\14.44.35207\include\xtree
; File C:\Program Files\Microsoft Visual Studio\2022\Community\VC\Tools\MSVC\14.44.35207\include\xmemory
; File C:\Program Files\Microsoft Visual Studio\2022\Community\VC\Tools\MSVC\14.44.35207\include\xtree
;	COMDAT ??$erase@V?$_Tree_iterator@V?$_Tree_val@U?$_Tree_simple_types@U?$pair@$$CBKUSNetworkActorData@@@std@@@std@@@std@@@std@@$0A@@?$_Tree@V?$_Tmap_traits@KUSNetworkActorData@@U?$less@K@std@@V?$allocator@U?$pair@$$CBKUSNetworkActorData@@@std@@@3@$0A@@std@@@std@@QAE?AV?$_Tree_iterator@V?$_Tree_val@U?$_Tree_simple_types@U?$pair@$$CBKUSNetworkActorData@@@std@@@std@@@std@@@1@V21@@Z
_TEXT	SEGMENT
__Successor$1 = -4					; size = 4
___$ReturnUdt$ = 8					; size = 4
__Where$ = 12						; size = 4
??$erase@V?$_Tree_iterator@V?$_Tree_val@U?$_Tree_simple_types@U?$pair@$$CBKUSNetworkActorData@@@std@@@std@@@std@@@std@@$0A@@?$_Tree@V?$_Tmap_traits@KUSNetworkActorData@@U?$less@K@std@@V?$allocator@U?$pair@$$CBKUSNetworkActorData@@@std@@@3@$0A@@std@@@std@@QAE?AV?$_Tree_iterator@V?$_Tree_val@U?$_Tree_simple_types@U?$pair@$$CBKUSNetworkActorData@@@std@@@std@@@std@@@1@V21@@Z PROC ; std::_Tree<std::_Tmap_traits<unsigned long,SNetworkActorData,std::less<unsigned long>,std::allocator<std::pair<unsigned long const ,SNetworkActorData> >,0> >::erase<std::_Tree_iterator<std::_Tree_val<std::_Tree_simple_types<std::pair<unsigned long const ,SNetworkActorData> > > >,0>, COMDAT
; _this$ = ecx

; 1335 :     iterator erase(iterator _Where) noexcept /* strengthened */ {

  00000	55		 push	 ebp
  00001	8b ec		 mov	 ebp, esp
  00003	51		 push	 ecx
  00004	56		 push	 esi

; 1301 :         _Unchecked_const_iterator _Successor = _Where;

  00005	8b 75 0c	 mov	 esi, DWORD PTR __Where$[ebp]

; 1335 :     iterator erase(iterator _Where) noexcept /* strengthened */ {

  00008	57		 push	 edi
  00009	8b f9		 mov	 edi, ecx

; 1301 :         _Unchecked_const_iterator _Successor = _Where;

  0000b	89 75 fc	 mov	 DWORD PTR __Successor$1[ebp], esi

; 1302 :         ++_Successor; // save successor iterator for return

  0000e	8d 4d fc	 lea	 ecx, DWORD PTR __Successor$1[ebp]
  00011	e8 00 00 00 00	 call	 ??E?$_Tree_unchecked_const_iterator@V?$_Tree_val@U?$_Tree_simple_types@U?$pair@$$CBKUSNetworkActorData@@@std@@@std@@@std@@U_Iterator_base0@2@@std@@QAEAAV01@XZ ; std::_Tree_unchecked_const_iterator<std::_Tree_val<std::_Tree_simple_types<std::pair<unsigned long const ,SNetworkActorData> > >,std::_Iterator_base0>::operator++

; 1303 :         _Nodeptr _Erasednode = _Scary->_Extract(_Where); // node to erase

  00016	56		 push	 esi
  00017	8b cf		 mov	 ecx, edi
  00019	e8 00 00 00 00	 call	 ?_Extract@?$_Tree_val@U?$_Tree_simple_types@U?$pair@$$CBKUSNetworkActorData@@@std@@@std@@@std@@QAEPAU?$_Tree_node@U?$pair@$$CBKUSNetworkActorData@@@std@@PAX@2@V?$_Tree_unchecked_const_iterator@V?$_Tree_val@U?$_Tree_simple_types@U?$pair@$$CBKUSNetworkActorData@@@std@@@std@@@std@@U_Iterator_base0@2@@2@@Z ; std::_Tree_val<std::_Tree_simple_types<std::pair<unsigned long const ,SNetworkActorData> > >::_Extract
  0001e	8b f0		 mov	 esi, eax

; 381  :         allocator_traits<_Alloc>::destroy(_Al, _STD addressof(_Ptr->_Myval));

  00020	8d 4e 14	 lea	 ecx, DWORD PTR [esi+20]
; File C:\Program Files\Microsoft Visual Studio\2022\Community\VC\Tools\MSVC\14.44.35207\include\xstring

; 1383 :         _Tidy_deallocate();

  00023	e8 00 00 00 00	 call	 ?_Tidy_deallocate@?$basic_string@DU?$char_traits@D@std@@V?$allocator@D@2@@std@@AAEXXZ ; std::basic_string<char,std::char_traits<char>,std::allocator<char> >::_Tidy_deallocate
; File C:\Program Files\Microsoft Visual Studio\2022\Community\VC\Tools\MSVC\14.44.35207\include\xmemory

; 289  :         ::operator delete(_Ptr, _Bytes);

  00028	68 98 00 00 00	 push	 152			; 00000098H
  0002d	56		 push	 esi
  0002e	e8 00 00 00 00	 call	 ??3@YAXPAXI@Z		; operator delete
; File C:\Program Files\Microsoft Visual Studio\2022\Community\VC\Tools\MSVC\14.44.35207\include\xtree

; 37   :     _Tree_unchecked_const_iterator(_Nodeptr _Pnode, const _Mytree* _Plist) noexcept : _Ptr(_Pnode) {

  00033	8b 45 08	 mov	 eax, DWORD PTR ___$ReturnUdt$[ebp]
; File C:\Program Files\Microsoft Visual Studio\2022\Community\VC\Tools\MSVC\14.44.35207\include\xmemory

; 289  :         ::operator delete(_Ptr, _Bytes);

  00036	83 c4 08	 add	 esp, 8
; File C:\Program Files\Microsoft Visual Studio\2022\Community\VC\Tools\MSVC\14.44.35207\include\xtree

; 37   :     _Tree_unchecked_const_iterator(_Nodeptr _Pnode, const _Mytree* _Plist) noexcept : _Ptr(_Pnode) {

  00039	8b 4d fc	 mov	 ecx, DWORD PTR __Successor$1[ebp]

; 1336 :         const auto _Scary = _Get_scary();
; 1337 : #if _ITERATOR_DEBUG_LEVEL == 2
; 1338 :         _STL_VERIFY(_Where._Getcont() == _Scary, "map/set erase iterator from incorrect container");
; 1339 :         _STL_VERIFY(!_Where._Ptr->_Isnil, "cannot erase map/set end() iterator");
; 1340 : #endif // _ITERATOR_DEBUG_LEVEL == 2
; 1341 :         return iterator(_Erase_unchecked(_Where._Unwrapped()), _Scary);

  0003c	5f		 pop	 edi

; 37   :     _Tree_unchecked_const_iterator(_Nodeptr _Pnode, const _Mytree* _Plist) noexcept : _Ptr(_Pnode) {

  0003d	89 08		 mov	 DWORD PTR [eax], ecx

; 1336 :         const auto _Scary = _Get_scary();
; 1337 : #if _ITERATOR_DEBUG_LEVEL == 2
; 1338 :         _STL_VERIFY(_Where._Getcont() == _Scary, "map/set erase iterator from incorrect container");
; 1339 :         _STL_VERIFY(!_Where._Ptr->_Isnil, "cannot erase map/set end() iterator");
; 1340 : #endif // _ITERATOR_DEBUG_LEVEL == 2
; 1341 :         return iterator(_Erase_unchecked(_Where._Unwrapped()), _Scary);

  0003f	5e		 pop	 esi

; 1342 :     }

  00040	8b e5		 mov	 esp, ebp
  00042	5d		 pop	 ebp
  00043	c2 08 00	 ret	 8
??$erase@V?$_Tree_iterator@V?$_Tree_val@U?$_Tree_simple_types@U?$pair@$$CBKUSNetworkActorData@@@std@@@std@@@std@@@std@@$0A@@?$_Tree@V?$_Tmap_traits@KUSNetworkActorData@@U?$less@K@std@@V?$allocator@U?$pair@$$CBKUSNetworkActorData@@@std@@@3@$0A@@std@@@std@@QAE?AV?$_Tree_iterator@V?$_Tree_val@U?$_Tree_simple_types@U?$pair@$$CBKUSNetworkActorData@@@std@@@std@@@std@@@1@V21@@Z ENDP ; std::_Tree<std::_Tmap_traits<unsigned long,SNetworkActorData,std::less<unsigned long>,std::allocator<std::pair<unsigned long const ,SNetworkActorData> >,0> >::erase<std::_Tree_iterator<std::_Tree_val<std::_Tree_simple_types<std::pair<unsigned long const ,SNetworkActorData> > > >,0>
_TEXT	ENDS
; Function compile flags: /Ogtp
; File D:\_m2work\txoko-m2-work\txoko-client-src\source\eterBase\Singleton.h
;	COMDAT ?Instance@?$CSingleton@VCPythonItem@@@@SAAAVCPythonItem@@XZ
_TEXT	SEGMENT
?Instance@?$CSingleton@VCPythonItem@@@@SAAAVCPythonItem@@XZ PROC ; CSingleton<CPythonItem>::Instance, COMDAT

; 26   : 		assert(ms_singleton);
; 27   : 		return (*ms_singleton);

  00000	a1 00 00 00 00	 mov	 eax, DWORD PTR ?ms_singleton@?$CSingleton@VCPythonItem@@@@0PAVCPythonItem@@A ; CSingleton<CPythonItem>::ms_singleton

; 28   : 	}

  00005	c3		 ret	 0
?Instance@?$CSingleton@VCPythonItem@@@@SAAAVCPythonItem@@XZ ENDP ; CSingleton<CPythonItem>::Instance
_TEXT	ENDS
; Function compile flags: /Ogtp
; File C:\Program Files\Microsoft Visual Studio\2022\Community\VC\Tools\MSVC\14.44.35207\include\xtree
;	COMDAT ??0?$_Tree_unchecked_const_iterator@V?$_Tree_val@U?$_Tree_simple_types@U?$pair@$$CBKUSNetworkActorData@@@std@@@std@@@std@@U_Iterator_base0@2@@std@@QAE@XZ
_TEXT	SEGMENT
??0?$_Tree_unchecked_const_iterator@V?$_Tree_val@U?$_Tree_simple_types@U?$pair@$$CBKUSNetworkActorData@@@std@@@std@@@std@@U_Iterator_base0@2@@std@@QAE@XZ PROC ; std::_Tree_unchecked_const_iterator<std::_Tree_val<std::_Tree_simple_types<std::pair<unsigned long const ,SNetworkActorData> > >,std::_Iterator_base0>::_Tree_unchecked_const_iterator<std::_Tree_val<std::_Tree_simple_types<std::pair<unsigned long const ,SNetworkActorData> > >,std::_Iterator_base0>, COMDAT
; _this$ = ecx

; 35   :     _Tree_unchecked_const_iterator() noexcept : _Ptr() {}

  00000	c7 01 00 00 00
	00		 mov	 DWORD PTR [ecx], 0
  00006	8b c1		 mov	 eax, ecx
  00008	c3		 ret	 0
??0?$_Tree_unchecked_const_iterator@V?$_Tree_val@U?$_Tree_simple_types@U?$pair@$$CBKUSNetworkActorData@@@std@@@std@@@std@@U_Iterator_base0@2@@std@@QAE@XZ ENDP ; std::_Tree_unchecked_const_iterator<std::_Tree_val<std::_Tree_simple_types<std::pair<unsigned long const ,SNetworkActorData> > >,std::_Iterator_base0>::_Tree_unchecked_const_iterator<std::_Tree_val<std::_Tree_simple_types<std::pair<unsigned long const ,SNetworkActorData> > >,std::_Iterator_base0>
_TEXT	ENDS
; Function compile flags: /Ogtp
; File C:\Program Files\Microsoft Visual Studio\2022\Community\VC\Tools\MSVC\14.44.35207\include\xtree
;	COMDAT ??E?$_Tree_iterator@V?$_Tree_val@U?$_Tree_simple_types@U?$pair@$$CBKUSNetworkActorData@@@std@@@std@@@std@@@std@@QAEAAV01@XZ
_TEXT	SEGMENT
??E?$_Tree_iterator@V?$_Tree_val@U?$_Tree_simple_types@U?$pair@$$CBKUSNetworkActorData@@@std@@@std@@@std@@@std@@QAEAAV01@XZ PROC ; std::_Tree_iterator<std::_Tree_val<std::_Tree_simple_types<std::pair<unsigned long const ,SNetworkActorData> > > >::operator++, COMDAT
; _this$ = ecx

; 281  :     _Tree_iterator& operator++() noexcept {

  00000	56		 push	 esi
  00001	8b f1		 mov	 esi, ecx

; 198  :         _Mybase::operator++();

  00003	e8 00 00 00 00	 call	 ??E?$_Tree_unchecked_const_iterator@V?$_Tree_val@U?$_Tree_simple_types@U?$pair@$$CBKUSNetworkActorData@@@std@@@std@@@std@@U_Iterator_base0@2@@std@@QAEAAV01@XZ ; std::_Tree_unchecked_const_iterator<std::_Tree_val<std::_Tree_simple_types<std::pair<unsigned long const ,SNetworkActorData> > >,std::_Iterator_base0>::operator++

; 282  :         _Mybase::operator++();
; 283  :         return *this;

  00008	8b c6		 mov	 eax, esi
  0000a	5e		 pop	 esi

; 284  :     }

  0000b	c3		 ret	 0
??E?$_Tree_iterator@V?$_Tree_val@U?$_Tree_simple_types@U?$pair@$$CBKUSNetworkActorData@@@std@@@std@@@std@@@std@@QAEAAV01@XZ ENDP ; std::_Tree_iterator<std::_Tree_val<std::_Tree_simple_types<std::pair<unsigned long const ,SNetworkActorData> > > >::operator++
_TEXT	ENDS
; Function compile flags: /Ogtp
; File C:\Program Files\Microsoft Visual Studio\2022\Community\VC\Tools\MSVC\14.44.35207\include\xtree
;	COMDAT ??C?$_Tree_iterator@V?$_Tree_val@U?$_Tree_simple_types@U?$pair@$$CBKUSNetworkActorData@@@std@@@std@@@std@@@std@@QBEPAU?$pair@$$CBKUSNetworkActorData@@@1@XZ
_TEXT	SEGMENT
??C?$_Tree_iterator@V?$_Tree_val@U?$_Tree_simple_types@U?$pair@$$CBKUSNetworkActorData@@@std@@@std@@@std@@@std@@QBEPAU?$pair@$$CBKUSNetworkActorData@@@1@XZ PROC ; std::_Tree_iterator<std::_Tree_val<std::_Tree_simple_types<std::pair<unsigned long const ,SNetworkActorData> > > >::operator->, COMDAT
; _this$ = ecx

; 185  :         return this->_Ptr->_Myval;

  00000	8b 01		 mov	 eax, DWORD PTR [ecx]
  00002	83 c0 10	 add	 eax, 16			; 00000010H

; 278  :         return pointer_traits<pointer>::pointer_to(**this);
; 279  :     }

  00005	c3		 ret	 0
??C?$_Tree_iterator@V?$_Tree_val@U?$_Tree_simple_types@U?$pair@$$CBKUSNetworkActorData@@@std@@@std@@@std@@@std@@QBEPAU?$pair@$$CBKUSNetworkActorData@@@1@XZ ENDP ; std::_Tree_iterator<std::_Tree_val<std::_Tree_simple_types<std::pair<unsigned long const ,SNetworkActorData> > > >::operator->
_TEXT	ENDS
; Function compile flags: /Ogtp
; File C:\Program Files\Microsoft Visual Studio\2022\Community\VC\Tools\MSVC\14.44.35207\include\xtree
;	COMDAT ??8?$_Tree_const_iterator@V?$_Tree_val@U?$_Tree_simple_types@U?$pair@$$CBKUSNetworkActorData@@@std@@@std@@@std@@@std@@QBE_NABV01@@Z
_TEXT	SEGMENT
__Right$ = 8						; size = 4
??8?$_Tree_const_iterator@V?$_Tree_val@U?$_Tree_simple_types@U?$pair@$$CBKUSNetworkActorData@@@std@@@std@@@std@@@std@@QBE_NABV01@@Z PROC ; std::_Tree_const_iterator<std::_Tree_val<std::_Tree_simple_types<std::pair<unsigned long const ,SNetworkActorData> > > >::operator==, COMDAT
; _this$ = ecx

; 227  :     _NODISCARD bool operator==(const _Tree_const_iterator& _Right) const noexcept {

  00000	55		 push	 ebp
  00001	8b ec		 mov	 ebp, esp

; 228  : #if _ITERATOR_DEBUG_LEVEL == 2
; 229  :         _STL_VERIFY(this->_Getcont() == _Right._Getcont(), "map/set iterators incompatible");
; 230  : #endif // _ITERATOR_DEBUG_LEVEL == 2
; 231  : 
; 232  :         return this->_Ptr == _Right._Ptr;

  00003	8b 45 08	 mov	 eax, DWORD PTR __Right$[ebp]
  00006	8b 09		 mov	 ecx, DWORD PTR [ecx]
  00008	3b 08		 cmp	 ecx, DWORD PTR [eax]
  0000a	0f 94 c0	 sete	 al

; 233  :     }

  0000d	5d		 pop	 ebp
  0000e	c2 04 00	 ret	 4
??8?$_Tree_const_iterator@V?$_Tree_val@U?$_Tree_simple_types@U?$pair@$$CBKUSNetworkActorData@@@std@@@std@@@std@@@std@@QBE_NABV01@@Z ENDP ; std::_Tree_const_iterator<std::_Tree_val<std::_Tree_simple_types<std::pair<unsigned long const ,SNetworkActorData> > > >::operator==
_TEXT	ENDS
; Function compile flags: /Ogtp
; File C:\Program Files\Microsoft Visual Studio\2022\Community\VC\Tools\MSVC\14.44.35207\include\xtree
; File C:\Program Files\Microsoft Visual Studio\2022\Community\VC\Tools\MSVC\14.44.35207\include\type_traits
; File C:\Program Files\Microsoft Visual Studio\2022\Community\VC\Tools\MSVC\14.44.35207\include\xtree
;	COMDAT ?find@?$_Tree@V?$_Tmap_traits@KUSNetworkActorData@@U?$less@K@std@@V?$allocator@U?$pair@$$CBKUSNetworkActorData@@@std@@@3@$0A@@std@@@std@@QAE?AV?$_Tree_iterator@V?$_Tree_val@U?$_Tree_simple_types@U?$pair@$$CBKUSNetworkActorData@@@std@@@std@@@std@@@2@ABK@Z
_TEXT	SEGMENT
__Loc$1 = -12						; size = 12
___$ReturnUdt$ = 8					; size = 4
__Keyval$ = 12						; size = 4
?find@?$_Tree@V?$_Tmap_traits@KUSNetworkActorData@@U?$less@K@std@@V?$allocator@U?$pair@$$CBKUSNetworkActorData@@@std@@@3@$0A@@std@@@std@@QAE?AV?$_Tree_iterator@V?$_Tree_val@U?$_Tree_simple_types@U?$pair@$$CBKUSNetworkActorData@@@std@@@std@@@std@@@2@ABK@Z PROC ; std::_Tree<std::_Tmap_traits<unsigned long,SNetworkActorData,std::less<unsigned long>,std::allocator<std::pair<unsigned long const ,SNetworkActorData> >,0> >::find, COMDAT
; _this$ = ecx

; 1393 :     _NODISCARD iterator find(const key_type& _Keyval) {

  00000	55		 push	 ebp
  00001	8b ec		 mov	 ebp, esp
  00003	83 ec 0c	 sub	 esp, 12			; 0000000cH
  00006	56		 push	 esi

; 1384 :         const _Tree_find_result<_Nodeptr> _Loc = _Find_lower_bound(_Keyval);

  00007	8b 75 0c	 mov	 esi, DWORD PTR __Keyval$[ebp]
  0000a	8d 45 f4	 lea	 eax, DWORD PTR __Loc$1[ebp]

; 1393 :     _NODISCARD iterator find(const key_type& _Keyval) {

  0000d	57		 push	 edi

; 1384 :         const _Tree_find_result<_Nodeptr> _Loc = _Find_lower_bound(_Keyval);

  0000e	56		 push	 esi
  0000f	50		 push	 eax

; 1393 :     _NODISCARD iterator find(const key_type& _Keyval) {

  00010	8b f9		 mov	 edi, ecx

; 1384 :         const _Tree_find_result<_Nodeptr> _Loc = _Find_lower_bound(_Keyval);

  00012	e8 00 00 00 00	 call	 ??$_Find_lower_bound@K@?$_Tree@V?$_Tmap_traits@KUSNetworkActorData@@U?$less@K@std@@V?$allocator@U?$pair@$$CBKUSNetworkActorData@@@std@@@3@$0A@@std@@@std@@IBE?AU?$_Tree_find_result@PAU?$_Tree_node@U?$pair@$$CBKUSNetworkActorData@@@std@@PAX@std@@@1@ABK@Z ; std::_Tree<std::_Tmap_traits<unsigned long,SNetworkActorData,std::less<unsigned long>,std::allocator<std::pair<unsigned long const ,SNetworkActorData> >,0> >::_Find_lower_bound<unsigned long>

; 1624 :         return !_Bound->_Isnil && !_DEBUG_LT_PRED(_Getcomp(), _Keyval, _Traits::_Kfn(_Bound->_Myval));

  00017	8b 55 fc	 mov	 edx, DWORD PTR __Loc$1[ebp+8]
  0001a	80 7a 0d 00	 cmp	 BYTE PTR [edx+13], 0
  0001e	75 14		 jne	 SHORT $LN4@find
; File C:\Program Files\Microsoft Visual Studio\2022\Community\VC\Tools\MSVC\14.44.35207\include\type_traits

; 2380 :         return _Left < _Right;

  00020	8b 06		 mov	 eax, DWORD PTR [esi]
  00022	3b 42 10	 cmp	 eax, DWORD PTR [edx+16]
; File C:\Program Files\Microsoft Visual Studio\2022\Community\VC\Tools\MSVC\14.44.35207\include\xtree

; 1624 :         return !_Bound->_Isnil && !_DEBUG_LT_PRED(_Getcomp(), _Keyval, _Traits::_Kfn(_Bound->_Myval));

  00025	72 0d		 jb	 SHORT $LN4@find

; 37   :     _Tree_unchecked_const_iterator(_Nodeptr _Pnode, const _Mytree* _Plist) noexcept : _Ptr(_Pnode) {

  00027	8b 45 08	 mov	 eax, DWORD PTR ___$ReturnUdt$[ebp]
  0002a	5f		 pop	 edi

; 1394 :         return iterator(_Find(_Keyval), _Get_scary());
; 1395 :     }

  0002b	5e		 pop	 esi

; 37   :     _Tree_unchecked_const_iterator(_Nodeptr _Pnode, const _Mytree* _Plist) noexcept : _Ptr(_Pnode) {

  0002c	89 10		 mov	 DWORD PTR [eax], edx

; 1394 :         return iterator(_Find(_Keyval), _Get_scary());
; 1395 :     }

  0002e	8b e5		 mov	 esp, ebp
  00030	5d		 pop	 ebp
  00031	c2 08 00	 ret	 8
$LN4@find:

; 37   :     _Tree_unchecked_const_iterator(_Nodeptr _Pnode, const _Mytree* _Plist) noexcept : _Ptr(_Pnode) {

  00034	8b 45 08	 mov	 eax, DWORD PTR ___$ReturnUdt$[ebp]

; 1389 :         return _Get_scary()->_Myhead;

  00037	8b 0f		 mov	 ecx, DWORD PTR [edi]
  00039	5f		 pop	 edi

; 1394 :         return iterator(_Find(_Keyval), _Get_scary());
; 1395 :     }

  0003a	5e		 pop	 esi

; 37   :     _Tree_unchecked_const_iterator(_Nodeptr _Pnode, const _Mytree* _Plist) noexcept : _Ptr(_Pnode) {

  0003b	89 08		 mov	 DWORD PTR [eax], ecx

; 1394 :         return iterator(_Find(_Keyval), _Get_scary());
; 1395 :     }

  0003d	8b e5		 mov	 esp, ebp
  0003f	5d		 pop	 ebp
  00040	c2 08 00	 ret	 8
?find@?$_Tree@V?$_Tmap_traits@KUSNetworkActorData@@U?$less@K@std@@V?$allocator@U?$pair@$$CBKUSNetworkActorData@@@std@@@3@$0A@@std@@@std@@QAE?AV?$_Tree_iterator@V?$_Tree_val@U?$_Tree_simple_types@U?$pair@$$CBKUSNetworkActorData@@@std@@@std@@@std@@@2@ABK@Z ENDP ; std::_Tree<std::_Tmap_traits<unsigned long,SNetworkActorData,std::less<unsigned long>,std::allocator<std::pair<unsigned long const ,SNetworkActorData> >,0> >::find
_TEXT	ENDS
; Function compile flags: /Ogtp
; File C:\Program Files\Microsoft Visual Studio\2022\Community\VC\Tools\MSVC\14.44.35207\include\xtree
;	COMDAT ?clear@?$_Tree@V?$_Tmap_traits@KUSNetworkActorData@@U?$less@K@std@@V?$allocator@U?$pair@$$CBKUSNetworkActorData@@@std@@@3@$0A@@std@@@std@@QAEXXZ
_TEXT	SEGMENT
?clear@?$_Tree@V?$_Tmap_traits@KUSNetworkActorData@@U?$less@K@std@@V?$allocator@U?$pair@$$CBKUSNetworkActorData@@@std@@@3@$0A@@std@@@std@@QAEXXZ PROC ; std::_Tree<std::_Tmap_traits<unsigned long,SNetworkActorData,std::less<unsigned long>,std::allocator<std::pair<unsigned long const ,SNetworkActorData> >,0> >::clear, COMDAT
; _this$ = ecx

; 1370 :     void clear() noexcept {

  00000	56		 push	 esi
  00001	57		 push	 edi
  00002	8b f9		 mov	 edi, ecx

; 1371 :         const auto _Scary = _Get_scary();
; 1372 :         _Scary->_Orphan_ptr(nullptr);
; 1373 :         auto _Head = _Scary->_Myhead;

  00004	8b 37		 mov	 esi, DWORD PTR [edi]

; 1374 :         _Scary->_Erase_tree(_Getal(), _Head->_Parent);

  00006	ff 76 04	 push	 DWORD PTR [esi+4]
  00009	57		 push	 edi
  0000a	e8 00 00 00 00	 call	 ??$_Erase_tree@V?$allocator@U?$_Tree_node@U?$pair@$$CBKUSNetworkActorData@@@std@@PAX@std@@@std@@@?$_Tree_val@U?$_Tree_simple_types@U?$pair@$$CBKUSNetworkActorData@@@std@@@std@@@std@@QAEXAAV?$allocator@U?$_Tree_node@U?$pair@$$CBKUSNetworkActorData@@@std@@PAX@std@@@1@PAU?$_Tree_node@U?$pair@$$CBKUSNetworkActorData@@@std@@PAX@1@@Z ; std::_Tree_val<std::_Tree_simple_types<std::pair<unsigned long const ,SNetworkActorData> > >::_Erase_tree<std::allocator<std::_Tree_node<std::pair<unsigned long const ,SNetworkActorData>,void *> > >

; 1375 :         _Head->_Parent  = _Head;

  0000f	89 76 04	 mov	 DWORD PTR [esi+4], esi

; 1376 :         _Head->_Left    = _Head;

  00012	89 36		 mov	 DWORD PTR [esi], esi

; 1377 :         _Head->_Right   = _Head;

  00014	89 76 08	 mov	 DWORD PTR [esi+8], esi

; 1378 :         _Scary->_Mysize = 0;

  00017	c7 47 04 00 00
	00 00		 mov	 DWORD PTR [edi+4], 0
  0001e	5f		 pop	 edi
  0001f	5e		 pop	 esi

; 1379 :     }

  00020	c3		 ret	 0
?clear@?$_Tree@V?$_Tmap_traits@KUSNetworkActorData@@U?$less@K@std@@V?$allocator@U?$pair@$$CBKUSNetworkActorData@@@std@@@3@$0A@@std@@@std@@QAEXXZ ENDP ; std::_Tree<std::_Tmap_traits<unsigned long,SNetworkActorData,std::less<unsigned long>,std::allocator<std::pair<unsigned long const ,SNetworkActorData> >,0> >::clear
_TEXT	ENDS
; Function compile flags: /Ogtp
; File C:\Program Files\Microsoft Visual Studio\2022\Community\VC\Tools\MSVC\14.44.35207\include\xtree
; File C:\Program Files\Microsoft Visual Studio\2022\Community\VC\Tools\MSVC\14.44.35207\include\type_traits
; File C:\Program Files\Microsoft Visual Studio\2022\Community\VC\Tools\MSVC\14.44.35207\include\xtree
; File C:\Program Files\Microsoft Visual Studio\2022\Community\VC\Tools\MSVC\14.44.35207\include\type_traits
; File C:\Program Files\Microsoft Visual Studio\2022\Community\VC\Tools\MSVC\14.44.35207\include\xtree
; File C:\Program Files\Microsoft Visual Studio\2022\Community\VC\Tools\MSVC\14.44.35207\include\type_traits
; File C:\Program Files\Microsoft Visual Studio\2022\Community\VC\Tools\MSVC\14.44.35207\include\xtree
; File C:\Program Files\Microsoft Visual Studio\2022\Community\VC\Tools\MSVC\14.44.35207\include\xutility
; File C:\Program Files\Microsoft Visual Studio\2022\Community\VC\Tools\MSVC\14.44.35207\include\xtree
; File C:\Program Files\Microsoft Visual Studio\2022\Community\VC\Tools\MSVC\14.44.35207\include\xutility
; File C:\Program Files\Microsoft Visual Studio\2022\Community\VC\Tools\MSVC\14.44.35207\include\xtree
; File C:\Program Files\Microsoft Visual Studio\2022\Community\VC\Tools\MSVC\14.44.35207\include\xutility
; File C:\Program Files\Microsoft Visual Studio\2022\Community\VC\Tools\MSVC\14.44.35207\include\xtree
; File C:\Program Files\Microsoft Visual Studio\2022\Community\VC\Tools\MSVC\14.44.35207\include\xutility
; File C:\Program Files\Microsoft Visual Studio\2022\Community\VC\Tools\MSVC\14.44.35207\include\xtree
; File C:\Program Files\Microsoft Visual Studio\2022\Community\VC\Tools\MSVC\14.44.35207\include\xstring
; File C:\Program Files\Microsoft Visual Studio\2022\Community\VC\Tools\MSVC\14.44.35207\include\xmemory
; File C:\Program Files\Microsoft Visual Studio\2022\Community\VC\Tools\MSVC\14.44.35207\include\xtree
; File C:\Program Files\Microsoft Visual Studio\2022\Community\VC\Tools\MSVC\14.44.35207\include\xmemory
; File C:\Program Files\Microsoft Visual Studio\2022\Community\VC\Tools\MSVC\14.44.35207\include\xtree
;	COMDAT ?erase@?$_Tree@V?$_Tmap_traits@KUSNetworkActorData@@U?$less@K@std@@V?$allocator@U?$pair@$$CBKUSNetworkActorData@@@std@@@3@$0A@@std@@@std@@QAEIABK@Z
_TEXT	SEGMENT
__Off$1$ = -12						; size = 4
tv759 = -12						; size = 4
_this$1$ = -8						; size = 4
__Head$1$ = -4						; size = 4
__Keyval$ = 8						; size = 4
__First$ = 8						; size = 4
?erase@?$_Tree@V?$_Tmap_traits@KUSNetworkActorData@@U?$less@K@std@@V?$allocator@U?$pair@$$CBKUSNetworkActorData@@@std@@@3@$0A@@std@@@std@@QAEIABK@Z PROC ; std::_Tree<std::_Tmap_traits<unsigned long,SNetworkActorData,std::less<unsigned long>,std::allocator<std::pair<unsigned long const ,SNetworkActorData> >,0> >::erase, COMDAT
; _this$ = ecx

; 1357 :     size_type erase(const key_type& _Keyval) noexcept(noexcept(_Eqrange(_Keyval))) /* strengthened */ {

  00000	55		 push	 ebp
  00001	8b ec		 mov	 ebp, esp
  00003	83 ec 0c	 sub	 esp, 12			; 0000000cH
  00006	8b c1		 mov	 eax, ecx
  00008	53		 push	 ebx

; 1713 :         while (!_Pnode->_Isnil) {

  00009	8b 5d 08	 mov	 ebx, DWORD PTR __Keyval$[ebp]

; 1357 :     size_type erase(const key_type& _Keyval) noexcept(noexcept(_Eqrange(_Keyval))) /* strengthened */ {

  0000c	89 45 f8	 mov	 DWORD PTR _this$1$[ebp], eax

; 1709 :         _Nodeptr _Pnode   = _Scary->_Myhead->_Parent;

  0000f	8b 08		 mov	 ecx, DWORD PTR [eax]

; 1357 :     size_type erase(const key_type& _Keyval) noexcept(noexcept(_Eqrange(_Keyval))) /* strengthened */ {

  00011	56		 push	 esi
  00012	57		 push	 edi

; 1709 :         _Nodeptr _Pnode   = _Scary->_Myhead->_Parent;

  00013	89 4d fc	 mov	 DWORD PTR __Head$1$[ebp], ecx

; 1710 :         _Nodeptr _Lonode  = _Scary->_Myhead; // end() if search fails

  00016	8b f9		 mov	 edi, ecx
  00018	8b 51 04	 mov	 edx, DWORD PTR [ecx+4]

; 1711 :         _Nodeptr _Hinode  = _Scary->_Myhead; // end() if search fails

  0001b	8b f1		 mov	 esi, ecx
  0001d	8b c2		 mov	 eax, edx
  0001f	89 55 f4	 mov	 DWORD PTR tv759[ebp], edx

; 1712 : 
; 1713 :         while (!_Pnode->_Isnil) {

  00022	80 78 0d 00	 cmp	 BYTE PTR [eax+13], 0
  00026	75 2c		 jne	 SHORT $LN6@erase
; File C:\Program Files\Microsoft Visual Studio\2022\Community\VC\Tools\MSVC\14.44.35207\include\type_traits

; 2380 :         return _Left < _Right;

  00028	8b 13		 mov	 edx, DWORD PTR [ebx]
  0002a	66 0f 1f 44 00
	00		 npad	 6
$LL5@erase:
  00030	8b 48 10	 mov	 ecx, DWORD PTR [eax+16]
  00033	3b ca		 cmp	 ecx, edx
; File C:\Program Files\Microsoft Visual Studio\2022\Community\VC\Tools\MSVC\14.44.35207\include\xtree

; 1715 :             if (_DEBUG_LT_PRED(_Comp, _Nodekey, _Keyval)) {

  00035	73 05		 jae	 SHORT $LN9@erase

; 1716 :                 _Pnode = _Pnode->_Right; // descend right subtree

  00037	8b 40 08	 mov	 eax, DWORD PTR [eax+8]

; 1717 :             } else { // _Pnode not less than _Keyval, remember it

  0003a	eb 0f		 jmp	 SHORT $LN10@erase
$LN9@erase:

; 1718 :                 if (_Hinode->_Isnil && _DEBUG_LT_PRED(_Comp, _Keyval, _Nodekey)) {

  0003c	80 7e 0d 00	 cmp	 BYTE PTR [esi+13], 0
  00040	74 05		 je	 SHORT $LN11@erase
; File C:\Program Files\Microsoft Visual Studio\2022\Community\VC\Tools\MSVC\14.44.35207\include\type_traits

; 2380 :         return _Left < _Right;

  00042	3b d1		 cmp	 edx, ecx
; File C:\Program Files\Microsoft Visual Studio\2022\Community\VC\Tools\MSVC\14.44.35207\include\xtree

; 1718 :                 if (_Hinode->_Isnil && _DEBUG_LT_PRED(_Comp, _Keyval, _Nodekey)) {

  00044	0f 42 f0	 cmovb	 esi, eax
$LN11@erase:

; 1719 :                     _Hinode = _Pnode; // _Pnode greater, remember it
; 1720 :                 }
; 1721 : 
; 1722 :                 _Lonode = _Pnode;

  00047	8b f8		 mov	 edi, eax

; 1723 :                 _Pnode  = _Pnode->_Left; // descend left subtree

  00049	8b 00		 mov	 eax, DWORD PTR [eax]
$LN10@erase:

; 1712 : 
; 1713 :         while (!_Pnode->_Isnil) {

  0004b	80 78 0d 00	 cmp	 BYTE PTR [eax+13], 0
  0004f	74 df		 je	 SHORT $LL5@erase
  00051	8b 55 f4	 mov	 edx, DWORD PTR tv759[ebp]
$LN6@erase:

; 1724 :             }
; 1725 :         }
; 1726 : 
; 1727 :         _Pnode = _Hinode->_Isnil ? _Scary->_Myhead->_Parent : _Hinode->_Left; // continue scan for upper bound

  00054	80 7e 0d 00	 cmp	 BYTE PTR [esi+13], 0
  00058	8b c2		 mov	 eax, edx
  0005a	75 02		 jne	 SHORT $LN16@erase
  0005c	8b 06		 mov	 eax, DWORD PTR [esi]
$LN16@erase:

; 1728 :         while (!_Pnode->_Isnil) {

  0005e	80 78 0d 00	 cmp	 BYTE PTR [eax+13], 0
  00062	75 16		 jne	 SHORT $LN8@erase
; File C:\Program Files\Microsoft Visual Studio\2022\Community\VC\Tools\MSVC\14.44.35207\include\type_traits

; 2380 :         return _Left < _Right;

  00064	8b 0b		 mov	 ecx, DWORD PTR [ebx]
$LL7@erase:
  00066	3b 48 10	 cmp	 ecx, DWORD PTR [eax+16]
; File C:\Program Files\Microsoft Visual Studio\2022\Community\VC\Tools\MSVC\14.44.35207\include\xtree

; 1729 :             if (_DEBUG_LT_PRED(_Getcomp(), _Keyval, _Traits::_Kfn(_Pnode->_Myval))) {

  00069	73 06		 jae	 SHORT $LN12@erase

; 1730 :                 // _Pnode greater than _Keyval, remember it
; 1731 :                 _Hinode = _Pnode;

  0006b	8b f0		 mov	 esi, eax

; 1732 :                 _Pnode  = _Pnode->_Left; // descend left subtree

  0006d	8b 00		 mov	 eax, DWORD PTR [eax]

; 1733 :             } else {

  0006f	eb 03		 jmp	 SHORT $LN13@erase
$LN12@erase:

; 1734 :                 _Pnode = _Pnode->_Right; // descend right subtree

  00071	8b 40 08	 mov	 eax, DWORD PTR [eax+8]
$LN13@erase:

; 1728 :         while (!_Pnode->_Isnil) {

  00074	80 78 0d 00	 cmp	 BYTE PTR [eax+13], 0
  00078	74 ec		 je	 SHORT $LL7@erase
$LN8@erase:
; File C:\Program Files\Microsoft Visual Studio\2022\Community\VC\Tools\MSVC\14.44.35207\include\xutility

; 1665 :         auto _UFirst             = _STD _Get_unwrapped(_First);

  0007a	8b c7		 mov	 eax, edi

; 1666 :         const auto _ULast        = _STD _Get_unwrapped(_Last);
; 1667 :         _Iter_diff_t<_InIt> _Off = 0;

  0007c	33 db		 xor	 ebx, ebx
  0007e	89 5d f4	 mov	 DWORD PTR __Off$1$[ebp], ebx
; File C:\Program Files\Microsoft Visual Studio\2022\Community\VC\Tools\MSVC\14.44.35207\include\xtree

; 96   :         return _Ptr == _Right._Ptr;

  00081	3b c6		 cmp	 eax, esi
; File C:\Program Files\Microsoft Visual Studio\2022\Community\VC\Tools\MSVC\14.44.35207\include\xutility

; 1668 :         for (; _UFirst != _ULast; ++_UFirst) {

  00083	74 44		 je	 SHORT $LN41@erase
$LL42@erase:
; File C:\Program Files\Microsoft Visual Studio\2022\Community\VC\Tools\MSVC\14.44.35207\include\xtree

; 50   :         if (_Ptr->_Right->_Isnil) { // climb looking for right subtree

  00085	8b 48 08	 mov	 ecx, DWORD PTR [eax+8]
; File C:\Program Files\Microsoft Visual Studio\2022\Community\VC\Tools\MSVC\14.44.35207\include\xutility

; 1669 :             ++_Off;

  00088	43		 inc	 ebx
; File C:\Program Files\Microsoft Visual Studio\2022\Community\VC\Tools\MSVC\14.44.35207\include\xtree

; 50   :         if (_Ptr->_Right->_Isnil) { // climb looking for right subtree

  00089	80 79 0d 00	 cmp	 BYTE PTR [ecx+13], 0
  0008d	74 1d		 je	 SHORT $LN47@erase

; 51   :             _Nodeptr _Pnode;
; 52   :             while (!(_Pnode = _Ptr->_Parent)->_Isnil && _Ptr == _Pnode->_Right) {

  0008f	8b 48 04	 mov	 ecx, DWORD PTR [eax+4]
  00092	80 79 0d 00	 cmp	 BYTE PTR [ecx+13], 0
  00096	75 10		 jne	 SHORT $LN46@erase
$LL45@erase:
  00098	3b 41 08	 cmp	 eax, DWORD PTR [ecx+8]
  0009b	75 0b		 jne	 SHORT $LN46@erase

; 53   :                 _Ptr = _Pnode; // ==> parent while right subtree

  0009d	8b c1		 mov	 eax, ecx
  0009f	8b 49 04	 mov	 ecx, DWORD PTR [ecx+4]
  000a2	80 79 0d 00	 cmp	 BYTE PTR [ecx+13], 0
  000a6	74 f0		 je	 SHORT $LL45@erase
$LN46@erase:

; 54   :             }
; 55   : 
; 56   :             _Ptr = _Pnode; // ==> parent (head if end())

  000a8	8b c1		 mov	 eax, ecx

; 57   :         } else {

  000aa	eb 16		 jmp	 SHORT $LN165@erase
$LN47@erase:

; 58   :             _Ptr = _Mytree::_Min(_Ptr->_Right); // ==> smallest of right subtree

  000ac	8b c1		 mov	 eax, ecx

; 476  :         while (!_Pnode->_Left->_Isnil) {

  000ae	8b 10		 mov	 edx, DWORD PTR [eax]
  000b0	80 7a 0d 00	 cmp	 BYTE PTR [edx+13], 0
  000b4	75 0c		 jne	 SHORT $LN165@erase
$LL52@erase:
  000b6	8b 0a		 mov	 ecx, DWORD PTR [edx]

; 477  :             _Pnode = _Pnode->_Left;

  000b8	8b c2		 mov	 eax, edx
  000ba	8b d1		 mov	 edx, ecx
  000bc	80 79 0d 00	 cmp	 BYTE PTR [ecx+13], 0
  000c0	74 f4		 je	 SHORT $LL52@erase
$LN165@erase:

; 96   :         return _Ptr == _Right._Ptr;

  000c2	3b c6		 cmp	 eax, esi
; File C:\Program Files\Microsoft Visual Studio\2022\Community\VC\Tools\MSVC\14.44.35207\include\xutility

; 1668 :         for (; _UFirst != _ULast; ++_UFirst) {

  000c4	75 bf		 jne	 SHORT $LL42@erase
  000c6	89 5d f4	 mov	 DWORD PTR __Off$1$[ebp], ebx
$LN41@erase:
; File C:\Program Files\Microsoft Visual Studio\2022\Community\VC\Tools\MSVC\14.44.35207\include\xtree

; 96   :         return _Ptr == _Right._Ptr;

  000c9	8b 45 fc	 mov	 eax, DWORD PTR __Head$1$[ebp]

; 1329 :         _Erase_unchecked(_First, _Last);

  000cc	89 7d 08	 mov	 DWORD PTR __First$[ebp], edi

; 96   :         return _Ptr == _Right._Ptr;

  000cf	3b 38		 cmp	 edi, DWORD PTR [eax]

; 1311 :         if (_First == _Begin && _Last._Ptr->_Isnil) {

  000d1	75 31		 jne	 SHORT $LN160@erase
  000d3	80 7e 0d 00	 cmp	 BYTE PTR [esi+13], 0
  000d7	74 2b		 je	 SHORT $LN160@erase

; 1374 :         _Scary->_Erase_tree(_Getal(), _Head->_Parent);

  000d9	ff 70 04	 push	 DWORD PTR [eax+4]
  000dc	8b 75 f8	 mov	 esi, DWORD PTR _this$1$[ebp]
  000df	8b ce		 mov	 ecx, esi
  000e1	56		 push	 esi
  000e2	e8 00 00 00 00	 call	 ??$_Erase_tree@V?$allocator@U?$_Tree_node@U?$pair@$$CBKUSNetworkActorData@@@std@@PAX@std@@@std@@@?$_Tree_val@U?$_Tree_simple_types@U?$pair@$$CBKUSNetworkActorData@@@std@@@std@@@std@@QAEXAAV?$allocator@U?$_Tree_node@U?$pair@$$CBKUSNetworkActorData@@@std@@PAX@std@@@1@PAU?$_Tree_node@U?$pair@$$CBKUSNetworkActorData@@@std@@PAX@1@@Z ; std::_Tree_val<std::_Tree_simple_types<std::pair<unsigned long const ,SNetworkActorData> > >::_Erase_tree<std::allocator<std::_Tree_node<std::pair<unsigned long const ,SNetworkActorData>,void *> > >

; 1375 :         _Head->_Parent  = _Head;

  000e7	8b 45 fc	 mov	 eax, DWORD PTR __Head$1$[ebp]
  000ea	89 40 04	 mov	 DWORD PTR [eax+4], eax

; 1376 :         _Head->_Left    = _Head;

  000ed	89 00		 mov	 DWORD PTR [eax], eax

; 1377 :         _Head->_Right   = _Head;

  000ef	89 40 08	 mov	 DWORD PTR [eax+8], eax

; 1378 :         _Scary->_Mysize = 0;

  000f2	c7 46 04 00 00
	00 00		 mov	 DWORD PTR [esi+4], 0
$LN179@erase:

; 1358 :         return _Erase(_Eqrange(_Keyval));
; 1359 :     }

  000f9	8b c3		 mov	 eax, ebx
  000fb	5f		 pop	 edi
  000fc	5e		 pop	 esi
  000fd	5b		 pop	 ebx
  000fe	8b e5		 mov	 esp, ebp
  00100	5d		 pop	 ebp
  00101	c2 04 00	 ret	 4
$LN160@erase:

; 96   :         return _Ptr == _Right._Ptr;

  00104	3b fe		 cmp	 edi, esi

; 1318 :         while (_First != _Last) {

  00106	74 f1		 je	 SHORT $LN179@erase
  00108	8b 5d f8	 mov	 ebx, DWORD PTR _this$1$[ebp]
  0010b	0f 1f 44 00 00	 npad	 5
$LL60@erase:

; 66   :         ++*this;

  00110	8d 4d 08	 lea	 ecx, DWORD PTR __First$[ebp]
  00113	e8 00 00 00 00	 call	 ??E?$_Tree_unchecked_const_iterator@V?$_Tree_val@U?$_Tree_simple_types@U?$pair@$$CBKUSNetworkActorData@@@std@@@std@@@std@@U_Iterator_base0@2@@std@@QAEAAV01@XZ ; std::_Tree_unchecked_const_iterator<std::_Tree_val<std::_Tree_simple_types<std::pair<unsigned long const ,SNetworkActorData> > >,std::_Iterator_base0>::operator++

; 1303 :         _Nodeptr _Erasednode = _Scary->_Extract(_Where); // node to erase

  00118	57		 push	 edi
  00119	8b cb		 mov	 ecx, ebx
  0011b	e8 00 00 00 00	 call	 ?_Extract@?$_Tree_val@U?$_Tree_simple_types@U?$pair@$$CBKUSNetworkActorData@@@std@@@std@@@std@@QAEPAU?$_Tree_node@U?$pair@$$CBKUSNetworkActorData@@@std@@PAX@2@V?$_Tree_unchecked_const_iterator@V?$_Tree_val@U?$_Tree_simple_types@U?$pair@$$CBKUSNetworkActorData@@@std@@@std@@@std@@U_Iterator_base0@2@@2@@Z ; std::_Tree_val<std::_Tree_simple_types<std::pair<unsigned long const ,SNetworkActorData> > >::_Extract
  00120	8b f8		 mov	 edi, eax

; 381  :         allocator_traits<_Alloc>::destroy(_Al, _STD addressof(_Ptr->_Myval));

  00122	8d 4f 14	 lea	 ecx, DWORD PTR [edi+20]
; File C:\Program Files\Microsoft Visual Studio\2022\Community\VC\Tools\MSVC\14.44.35207\include\xstring

; 1383 :         _Tidy_deallocate();

  00125	e8 00 00 00 00	 call	 ?_Tidy_deallocate@?$basic_string@DU?$char_traits@D@std@@V?$allocator@D@2@@std@@AAEXXZ ; std::basic_string<char,std::char_traits<char>,std::allocator<char> >::_Tidy_deallocate
; File C:\Program Files\Microsoft Visual Studio\2022\Community\VC\Tools\MSVC\14.44.35207\include\xmemory

; 289  :         ::operator delete(_Ptr, _Bytes);

  0012a	68 98 00 00 00	 push	 152			; 00000098H
  0012f	57		 push	 edi
