; Listing generated by Microsoft (R) Optimizing Compiler Version 19.44.35217.0 

	TITLE	d:\_m2work\txoko-m2-work\txoko-client-src\vs_files\userinterface\distribute\pythonapplicationprocedure.obj
	.686P
	.XMM
	include listing.inc
	.model	flat

INCLUDELIB OLDNAMES

EXTRN	?ResizeBackBuffer@CGraphicDevice@@QAE_NII@Z:PROC ; CGraphicDevice::ResizeBackBuffer
EXTRN	?WindowProcedure@CMSApplication@@MAEJPAUHWND__@@IIJ@Z:PROC ; CMSApplication::WindowProcedure
EXTRN	?RunMouseMiddleButtonUp@CWindowManager@UI@@QAEXJJ@Z:PROC ; UI::CWindowManager::RunMouseMiddleButtonUp
EXTRN	_WebBrowser_IsVisible:PROC
EXTRN	?RunMouseMiddleButtonDown@CWindowManager@UI@@QAEXJJ@Z:PROC ; UI::CWindowManager::RunMouseMiddleButtonDown
EXTRN	__imp__GetCapture@0:PROC
EXTRN	?WMChar@CIME@@QAEJPAUHWND__@@IIJ@Z:PROC		; CIME::WMChar
EXTRN	?WMEndComposition@CIME@@QAEJPAUHWND__@@IIJ@Z:PROC ; CIME::WMEndComposition
EXTRN	?WMNotify@CIME@@QAEJPAUHWND__@@IIJ@Z:PROC	; CIME::WMNotify
EXTRN	?WMStartComposition@CIME@@QAEJPAUHWND__@@IIJ@Z:PROC ; CIME::WMStartComposition
EXTRN	?WMComposition@CIME@@QAEJPAUHWND__@@IIJ@Z:PROC	; CIME::WMComposition
EXTRN	?SaveVolume@CSoundManager@@QAEXXZ:PROC		; CSoundManager::SaveVolume
EXTRN	?WMInputLanguage@CIME@@QAEJPAUHWND__@@IIJ@Z:PROC ; CIME::WMInputLanguage
EXTRN	?RestoreVolume@CSoundManager@@QAEXXZ:PROC	; CSoundManager::RestoreVolume
EXTRN	__imp__ShowWindow@8:PROC
EXTRN	__imp__ChangeDisplaySettingsA@8:PROC
EXTRN	__imp__ReleaseCapture@0:PROC
EXTRN	__imp__SetCapture@4:PROC
;	COMDAT ?s_yDownPosition@?1??WindowProcedure@CPythonApplication@@MAEJPAUHWND__@@IIJ@Z@4HA
_BSS	SEGMENT
?s_yDownPosition@?1??WindowProcedure@CPythonApplication@@MAEJPAUHWND__@@IIJ@Z@4HA DD 01H DUP (?) ; `CPythonApplication::WindowProcedure'::`2'::s_yDownPosition
_BSS	ENDS
;	COMDAT ?s_xDownPosition@?1??WindowProcedure@CPythonApplication@@MAEJPAUHWND__@@IIJ@Z@4HA
_BSS	SEGMENT
?s_xDownPosition@?1??WindowProcedure@CPythonApplication@@MAEJPAUHWND__@@IIJ@Z@4HA DD 01H DUP (?) ; `CPythonApplication::WindowProcedure'::`2'::s_xDownPosition
_BSS	ENDS
PUBLIC	?__MinimizeFullScreenWindow@CPythonApplication@@IAEXPAUHWND__@@KK@Z ; CPythonApplication::__MinimizeFullScreenWindow
PUBLIC	?SafeReleaseCapture@CPythonApplication@@QAEXXZ	; CPythonApplication::SafeReleaseCapture
PUBLIC	?SafeSetCapture@CPythonApplication@@QAEXXZ	; CPythonApplication::SafeSetCapture
PUBLIC	?__SetFullScreenWindow@CPythonApplication@@IAEXPAUHWND__@@KKK@Z ; CPythonApplication::__SetFullScreenWindow
PUBLIC	?WindowProcedure@CPythonApplication@@MAEJPAUHWND__@@IIJ@Z ; CPythonApplication::WindowProcedure
?gs_nMouseCaptureRef@@3HA DD 01H DUP (?)		; gs_nMouseCaptureRef
_BSS	ENDS
; Function compile flags: /Ogtp
; File D:\_m2work\txoko-m2-work\txoko-client-src\source\UserInterface\PythonApplicationProcedure.cpp
;	COMDAT ?WindowProcedure@CPythonApplication@@MAEJPAUHWND__@@IIJ@Z
_TEXT	SEGMENT
_rcWnd$1 = -20						; size = 16
_rcWnd$2 = -20						; size = 16
__$ArrayPad$ = -4					; size = 4
_hWnd$ = 8						; size = 4
_uiMsg$ = 12						; size = 4
_wParam$ = 16						; size = 4
_lParam$ = 20						; size = 4
?WindowProcedure@CPythonApplication@@MAEJPAUHWND__@@IIJ@Z PROC ; CPythonApplication::WindowProcedure, COMDAT
; _this$ = ecx

; 50   : {

  00000	55		 push	 ebp
  00001	8b ec		 mov	 ebp, esp
  00003	83 ec 14	 sub	 esp, 20			; 00000014H
  00006	a1 00 00 00 00	 mov	 eax, DWORD PTR ___security_cookie
  0000b	33 c5		 xor	 eax, ebp
  0000d	89 45 fc	 mov	 DWORD PTR __$ArrayPad$[ebp], eax
  00010	53		 push	 ebx
  00011	8b 5d 08	 mov	 ebx, DWORD PTR _hWnd$[ebp]
  00014	56		 push	 esi

; 51   : 	const int c_DoubleClickTime = 300;
; 52   : 	const int c_DoubleClickBox = 5;
; 53   : 	static int s_xDownPosition = 0;
; 54   : 	static int s_yDownPosition = 0;	
; 55   : 
; 56   : 	switch (uiMsg)

  00015	8b 75 0c	 mov	 esi, DWORD PTR _uiMsg$[ebp]
  00018	57		 push	 edi
  00019	8b f9		 mov	 edi, ecx
  0001b	83 fe 1c	 cmp	 esi, 28			; 0000001cH
  0001e	0f 87 01 01 00
	00		 ja	 $LN58@WindowProc
  00024	74 7a		 je	 SHORT $LN10@WindowProc
  00026	8b c6		 mov	 eax, esi
  00028	83 e8 02	 sub	 eax, 2
  0002b	0f 84 88 04 00
	00		 je	 $LN33@WindowProc
  00031	83 e8 03	 sub	 eax, 3
  00034	74 23		 je	 SHORT $LN37@WindowProc
  00036	83 e8 0b	 sub	 eax, 11			; 0000000bH
  00039	0f 85 c9 04 00
	00		 jne	 $LN82@WindowProc

; 260  : 					return 0;
; 261  : 				}
; 262  : 			}
; 263  : 			break;
; 264  : 
; 265  : 		case WM_CLOSE:
; 266  : #ifdef _DEBUG
; 267  : 			PostQuitMessage(0);
; 268  : #else	
; 269  : 			RunPressExitKey();

  0003f	e8 00 00 00 00	 call	 ?RunPressExitKey@CPythonApplication@@QAEXXZ ; CPythonApplication::RunPressExitKey
  00044	5f		 pop	 edi

; 281  : }

  00045	5e		 pop	 esi
  00046	33 c0		 xor	 eax, eax
  00048	5b		 pop	 ebx
  00049	8b 4d fc	 mov	 ecx, DWORD PTR __$ArrayPad$[ebp]
  0004c	33 cd		 xor	 ecx, ebp
  0004e	e8 00 00 00 00	 call	 @__security_check_cookie@4
  00053	8b e5		 mov	 esp, ebp
  00055	5d		 pop	 ebp
  00056	c2 10 00	 ret	 16			; 00000010H
$LN37@WindowProc:

; 192  : 
; 193  : 		case WM_SIZE:
; 194  : 			switch (wParam)

  00059	8b 45 10	 mov	 eax, DWORD PTR _wParam$[ebp]
  0005c	8b c8		 mov	 ecx, eax
  0005e	83 e9 00	 sub	 ecx, 0
  00061	74 05		 je	 SHORT $LN38@WindowProc
  00063	83 e9 02	 sub	 ecx, 2
  00066	75 27		 jne	 SHORT $LN4@WindowProc
$LN38@WindowProc:

; 195  : 			{
; 196  : 				case SIZE_RESTORED:
; 197  : 				case SIZE_MAXIMIZED:
; 198  : 					{
; 199  : 						RECT rcWnd; 
; 200  : 						GetClientRect(&rcWnd); 

  00068	8d 45 ec	 lea	 eax, DWORD PTR _rcWnd$1[ebp]
  0006b	8b cf		 mov	 ecx, edi
  0006d	50		 push	 eax
  0006e	e8 00 00 00 00	 call	 ?GetClientRect@CMSWindow@@QAEXPAUtagRECT@@@Z ; CMSWindow::GetClientRect

; 201  : 				
; 202  : 						UINT uWidth=rcWnd.right-rcWnd.left; 
; 203  : 						UINT uHeight=rcWnd.bottom-rcWnd.left; 

  00073	8b 45 f8	 mov	 eax, DWORD PTR _rcWnd$1[ebp+12]

; 204  : 						m_grpDevice.ResizeBackBuffer(uWidth, uHeight);				

  00076	8d 8f 70 d6 01
	00		 lea	 ecx, DWORD PTR [edi+120432]
  0007c	2b 45 ec	 sub	 eax, DWORD PTR _rcWnd$1[ebp]
  0007f	50		 push	 eax
  00080	8b 45 f4	 mov	 eax, DWORD PTR _rcWnd$1[ebp+8]
  00083	2b 45 ec	 sub	 eax, DWORD PTR _rcWnd$1[ebp]
  00086	50		 push	 eax
  00087	e8 00 00 00 00	 call	 ?ResizeBackBuffer@CGraphicDevice@@QAE_NII@Z ; CGraphicDevice::ResizeBackBuffer
  0008c	8b 45 10	 mov	 eax, DWORD PTR _wParam$[ebp]
$LN4@WindowProc:

; 205  : 					}
; 206  : 					break;
; 207  : 			}
; 208  : 
; 209  : 			if (wParam==SIZE_MINIMIZED)
; 210  : 				m_isMinimizedWnd=true;
; 211  : 			else
; 212  : 				m_isMinimizedWnd=false;
; 213  : 
; 214  : 			OnSizeChange(short(LOWORD(lParam)), short(HIWORD(lParam)));
; 215  : 
; 216  : 			break;

  0008f	83 f8 01	 cmp	 eax, 1
  00092	0f 94 c0	 sete	 al
  00095	88 87 cc fe 01
	00		 mov	 BYTE PTR [edi+130764], al
  0009b	e9 68 04 00 00	 jmp	 $LN82@WindowProc
$LN10@WindowProc:

; 57   : 	{
; 58   : 		case WM_ACTIVATEAPP:
; 59   : 			{
; 60   : 				m_isActivateWnd = (wParam == WA_ACTIVE) || (wParam == WA_CLICKACTIVE);

  000a0	8b 45 10	 mov	 eax, DWORD PTR _wParam$[ebp]
  000a3	83 f8 01	 cmp	 eax, 1
  000a6	74 3b		 je	 SHORT $LN56@WindowProc
  000a8	83 f8 02	 cmp	 eax, 2
  000ab	74 36		 je	 SHORT $LN56@WindowProc
  000ad	8d 8f e8 00 00
	00		 lea	 ecx, DWORD PTR [edi+232]
  000b3	c6 87 cd fe 01
	00 00		 mov	 BYTE PTR [edi+130765], 0

; 73   : 				else
; 74   : 				{
; 75   : 					m_SoundManager.SaveVolume();

  000ba	e8 00 00 00 00	 call	 ?SaveVolume@CSoundManager@@QAEXXZ ; CSoundManager::SaveVolume

; 76   : 
; 77   : 					//////////////////
; 78   : 
; 79   : 					if (m_isWindowFullScreenEnable)

  000bf	83 bf d0 fe 01
	00 00		 cmp	 DWORD PTR [edi+130768], 0
  000c6	0f 84 3c 04 00
	00		 je	 $LN82@WindowProc

; 80   : 					{
; 81   : 						__MinimizeFullScreenWindow(hWnd, m_dwWidth, m_dwHeight);

  000cc	ff b7 a4 fd 01
	00		 push	 DWORD PTR [edi+130468]
  000d2	ff b7 a0 fd 01
	00		 push	 DWORD PTR [edi+130464]
  000d8	53		 push	 ebx
  000d9	e8 00 00 00 00	 call	 ?__MinimizeFullScreenWindow@CPythonApplication@@IAEXPAUHWND__@@KK@Z ; CPythonApplication::__MinimizeFullScreenWindow

; 82   : 					}
; 83   : 				}
; 84   : 			}
; 85   : 			break;

  000de	e9 25 04 00 00	 jmp	 $LN82@WindowProc
$LN56@WindowProc:

; 57   : 	{
; 58   : 		case WM_ACTIVATEAPP:
; 59   : 			{
; 60   : 				m_isActivateWnd = (wParam == WA_ACTIVE) || (wParam == WA_CLICKACTIVE);

  000e3	8d 8f e8 00 00
	00		 lea	 ecx, DWORD PTR [edi+232]
  000e9	c6 87 cd fe 01
	00 01		 mov	 BYTE PTR [edi+130765], 1

; 61   : 
; 62   : 				if (m_isActivateWnd)
; 63   : 				{
; 64   : 					m_SoundManager.RestoreVolume();

  000f0	e8 00 00 00 00	 call	 ?RestoreVolume@CSoundManager@@QAEXXZ ; CSoundManager::RestoreVolume

; 65   : 
; 66   : 					//////////////////
; 67   : 
; 68   : 					if (m_isWindowFullScreenEnable)

  000f5	83 bf d0 fe 01
	00 00		 cmp	 DWORD PTR [edi+130768], 0
  000fc	0f 84 06 04 00
	00		 je	 $LN82@WindowProc

; 69   : 					{
; 70   : 						__SetFullScreenWindow(hWnd, m_dwWidth, m_dwHeight, m_pySystem.GetBPP());

  00102	8d 8f 8c d6 01
	00		 lea	 ecx, DWORD PTR [edi+120460]
  00108	e8 00 00 00 00	 call	 ?GetBPP@CPythonSystem@@QAEKXZ ; CPythonSystem::GetBPP
  0010d	50		 push	 eax
  0010e	ff b7 a4 fd 01
	00		 push	 DWORD PTR [edi+130468]
  00114	ff b7 a0 fd 01
	00		 push	 DWORD PTR [edi+130464]
  0011a	51		 push	 ecx
  0011b	e8 00 00 00 00	 call	 ?__SetFullScreenWindow@CPythonApplication@@IAEXPAUHWND__@@KKK@Z ; CPythonApplication::__SetFullScreenWindow

; 71   : 					}
; 72   : 				}

  00120	e9 e3 03 00 00	 jmp	 $LN82@WindowProc
$LN58@WindowProc:

; 51   : 	const int c_DoubleClickTime = 300;
; 52   : 	const int c_DoubleClickBox = 5;
; 53   : 	static int s_xDownPosition = 0;
; 54   : 	static int s_yDownPosition = 0;	
; 55   : 
; 56   : 	switch (uiMsg)

  00125	81 fe 0d 01 00
	00		 cmp	 esi, 269		; 0000010dH
  0012b	0f 87 1d 01 00
	00		 ja	 $LN59@WindowProc
  00131	0f 84 ee 00 00
	00		 je	 $LN16@WindowProc
  00137	8d 46 e0	 lea	 eax, DWORD PTR [esi-32]
  0013a	3d e5 00 00 00	 cmp	 eax, 229		; 000000e5H
  0013f	0f 87 c3 03 00
	00		 ja	 $LN82@WindowProc
  00145	0f b6 80 00 00
	00 00		 movzx	 eax, BYTE PTR $LN67@WindowProc[eax]
  0014c	ff 24 85 00 00
	00 00		 jmp	 DWORD PTR $LN68@WindowProc[eax*4]
$LN15@WindowProc:

; 86   : 
; 87   : 		case WM_INPUTLANGCHANGE:
; 88   : 			return CPythonIME::Instance().WMInputLanguage(hWnd, uiMsg, wParam, lParam);

  00153	ff 75 14	 push	 DWORD PTR _lParam$[ebp]
  00156	8b 0d 00 00 00
	00		 mov	 ecx, DWORD PTR ?ms_singleton@?$CSingleton@VCPythonIME@@@@0PAVCPythonIME@@A ; CSingleton<CPythonIME>::ms_singleton
  0015c	ff 75 10	 push	 DWORD PTR _wParam$[ebp]
  0015f	56		 push	 esi
  00160	8d 49 04	 lea	 ecx, DWORD PTR [ecx+4]
  00163	53		 push	 ebx
  00164	e8 00 00 00 00	 call	 ?WMInputLanguage@CIME@@QAEJPAUHWND__@@IIJ@Z ; CIME::WMInputLanguage
  00169	5f		 pop	 edi

; 281  : }

  0016a	5e		 pop	 esi
  0016b	5b		 pop	 ebx
  0016c	8b 4d fc	 mov	 ecx, DWORD PTR __$ArrayPad$[ebp]
  0016f	33 cd		 xor	 ecx, ebp
  00171	e8 00 00 00 00	 call	 @__security_check_cookie@4
  00176	8b e5		 mov	 esp, ebp
  00178	5d		 pop	 ebp
  00179	c2 10 00	 ret	 16			; 00000010H
$LN21@WindowProc:

; 110  : 
; 111  : 		case WM_CHAR:
; 112  : 			return CPythonIME::Instance().WMChar(hWnd, uiMsg, wParam, lParam);

  0017c	ff 75 14	 push	 DWORD PTR _lParam$[ebp]
  0017f	8b 0d 00 00 00
	00		 mov	 ecx, DWORD PTR ?ms_singleton@?$CSingleton@VCPythonIME@@@@0PAVCPythonIME@@A ; CSingleton<CPythonIME>::ms_singleton
  00185	ff 75 10	 push	 DWORD PTR _wParam$[ebp]
  00188	56		 push	 esi
  00189	8d 49 04	 lea	 ecx, DWORD PTR [ecx+4]
  0018c	53		 push	 ebx
  0018d	e8 00 00 00 00	 call	 ?WMChar@CIME@@QAEJPAUHWND__@@IIJ@Z ; CIME::WMChar
  00192	5f		 pop	 edi

; 281  : }

  00193	5e		 pop	 esi
  00194	5b		 pop	 ebx
  00195	8b 4d fc	 mov	 ecx, DWORD PTR __$ArrayPad$[ebp]
  00198	33 cd		 xor	 ecx, ebp
  0019a	e8 00 00 00 00	 call	 @__security_check_cookie@4
  0019f	8b e5		 mov	 esp, ebp
  001a1	5d		 pop	 ebp
  001a2	c2 10 00	 ret	 16			; 00000010H
$LN22@WindowProc:

; 113  : 			break;
; 114  : 
; 115  : 		case WM_KEYDOWN:
; 116  : 			OnIMEKeyDown(LOWORD(wParam));

  001a5	8b 45 10	 mov	 eax, DWORD PTR _wParam$[ebp]
  001a8	0f b7 c0	 movzx	 eax, ax
  001ab	50		 push	 eax
  001ac	e8 00 00 00 00	 call	 ?OnIMEKeyDown@CPythonApplication@@IAEXH@Z ; CPythonApplication::OnIMEKeyDown

; 117  : 			break;

  001b1	e9 52 03 00 00	 jmp	 $LN82@WindowProc
$LN45@WindowProc:

; 226  : 				OnSizeChange(short(LOWORD(lParam)), short(HIWORD(lParam)));
; 227  : 			}
; 228  : 			break; 
; 229  : 
; 230  : 		case WM_SYSKEYDOWN:
; 231  : 			switch (LOWORD(wParam))
; 232  : 			{
; 233  : 				case VK_F10:
; 234  : 					break;
; 235  : 			}
; 236  : 			break;
; 237  : 
; 238  : 		case WM_SYSKEYUP:
; 239  : 			switch(LOWORD(wParam))

  001b6	8b 45 10	 mov	 eax, DWORD PTR _wParam$[ebp]
  001b9	66 83 f8 12	 cmp	 ax, 18			; 00000012H
  001bd	0f 84 f6 02 00
	00		 je	 $LN33@WindowProc
  001c3	e9 43 03 00 00	 jmp	 $LN71@WindowProc
$LN48@WindowProc:

; 240  : 			{
; 241  : 				case 18:
; 242  : 					return FALSE;
; 243  : 					break;
; 244  : 				case VK_F10:
; 245  : 					break;
; 246  : 			}
; 247  : 			break;
; 248  : 
; 249  : 		case WM_SETCURSOR:
; 250  : 			if (IsActive())

  001c8	e8 00 00 00 00	 call	 ?IsActive@CMSWindow@@QAE_NXZ ; CMSWindow::IsActive
  001cd	84 c0		 test	 al, al
  001cf	0f 84 33 03 00
	00		 je	 $LN82@WindowProc

; 251  : 			{
; 252  : 				if (m_bCursorVisible && CURSOR_MODE_HARDWARE == m_iCursorMode)

  001d5	83 bf a0 fe 01
	00 00		 cmp	 DWORD PTR [edi+130720], 0
  001dc	74 2a		 je	 SHORT $LN50@WindowProc
  001de	83 bf a8 fe 01
	00 00		 cmp	 DWORD PTR [edi+130728], 0
  001e5	75 21		 jne	 SHORT $LN50@WindowProc

; 253  : 				{
; 254  : 					SetCursor((HCURSOR) m_hCurrentCursor);

  001e7	ff b7 9c fe 01
	00		 push	 DWORD PTR [edi+130716]
  001ed	ff 15 00 00 00
	00		 call	 DWORD PTR __imp__SetCursor@4
  001f3	5f		 pop	 edi

; 281  : }

  001f4	5e		 pop	 esi
  001f5	33 c0		 xor	 eax, eax
  001f7	5b		 pop	 ebx
  001f8	8b 4d fc	 mov	 ecx, DWORD PTR __$ArrayPad$[ebp]
  001fb	33 cd		 xor	 ecx, ebp
  001fd	e8 00 00 00 00	 call	 @__security_check_cookie@4
  00202	8b e5		 mov	 esp, ebp
  00204	5d		 pop	 ebp
  00205	c2 10 00	 ret	 16			; 00000010H
$LN50@WindowProc:

; 255  : 					return 0;
; 256  : 				}
; 257  : 				else
; 258  : 				{
; 259  : 					SetCursor(NULL);

  00208	6a 00		 push	 0
  0020a	ff 15 00 00 00
	00		 call	 DWORD PTR __imp__SetCursor@4
  00210	5f		 pop	 edi

; 281  : }

  00211	5e		 pop	 esi
  00212	33 c0		 xor	 eax, eax
  00214	5b		 pop	 ebx
  00215	8b 4d fc	 mov	 ecx, DWORD PTR __$ArrayPad$[ebp]
  00218	33 cd		 xor	 ecx, ebp
  0021a	e8 00 00 00 00	 call	 @__security_check_cookie@4
  0021f	8b e5		 mov	 esp, ebp
  00221	5d		 pop	 ebp
  00222	c2 10 00	 ret	 16			; 00000010H
$LN16@WindowProc:

; 89   : 			break;
; 90   : 
; 91   : 		case WM_IME_STARTCOMPOSITION:
; 92   : 			return CPythonIME::Instance().WMStartComposition(hWnd, uiMsg, wParam, lParam);

  00225	ff 75 14	 push	 DWORD PTR _lParam$[ebp]
  00228	8b 0d 00 00 00
	00		 mov	 ecx, DWORD PTR ?ms_singleton@?$CSingleton@VCPythonIME@@@@0PAVCPythonIME@@A ; CSingleton<CPythonIME>::ms_singleton
  0022e	ff 75 10	 push	 DWORD PTR _wParam$[ebp]
  00231	56		 push	 esi
  00232	8d 49 04	 lea	 ecx, DWORD PTR [ecx+4]
  00235	53		 push	 ebx
  00236	e8 00 00 00 00	 call	 ?WMStartComposition@CIME@@QAEJPAUHWND__@@IIJ@Z ; CIME::WMStartComposition
  0023b	5f		 pop	 edi

; 281  : }

  0023c	5e		 pop	 esi
  0023d	5b		 pop	 ebx
  0023e	8b 4d fc	 mov	 ecx, DWORD PTR __$ArrayPad$[ebp]
  00241	33 cd		 xor	 ecx, ebp
  00243	e8 00 00 00 00	 call	 @__security_check_cookie@4
  00248	8b e5		 mov	 esp, ebp
  0024a	5d		 pop	 ebp
  0024b	c2 10 00	 ret	 16			; 00000010H
$LN59@WindowProc:

; 51   : 	const int c_DoubleClickTime = 300;
; 52   : 	const int c_DoubleClickBox = 5;
; 53   : 	static int s_xDownPosition = 0;
; 54   : 	static int s_yDownPosition = 0;	
; 55   : 
; 56   : 	switch (uiMsg)

  0024e	81 fe 01 02 00
	00		 cmp	 esi, 513		; 00000201H
  00254	0f 87 0d 01 00
	00		 ja	 $LN60@WindowProc
  0025a	74 64		 je	 SHORT $LN23@WindowProc
  0025c	8b c6		 mov	 eax, esi
  0025e	2d 0e 01 00 00	 sub	 eax, 270		; 0000010eH
  00263	74 32		 je	 SHORT $LN18@WindowProc
  00265	83 e8 01	 sub	 eax, 1
  00268	0f 85 9a 02 00
	00		 jne	 $LN82@WindowProc

; 93   : 			break;
; 94   : 
; 95   : 		case WM_IME_COMPOSITION:
; 96   : 			return CPythonIME::Instance().WMComposition(hWnd, uiMsg, wParam, lParam);

  0026e	ff 75 14	 push	 DWORD PTR _lParam$[ebp]
  00271	8b 0d 00 00 00
	00		 mov	 ecx, DWORD PTR ?ms_singleton@?$CSingleton@VCPythonIME@@@@0PAVCPythonIME@@A ; CSingleton<CPythonIME>::ms_singleton
  00277	ff 75 10	 push	 DWORD PTR _wParam$[ebp]
  0027a	56		 push	 esi
  0027b	8d 49 04	 lea	 ecx, DWORD PTR [ecx+4]
  0027e	53		 push	 ebx
  0027f	e8 00 00 00 00	 call	 ?WMComposition@CIME@@QAEJPAUHWND__@@IIJ@Z ; CIME::WMComposition
  00284	5f		 pop	 edi

; 281  : }

  00285	5e		 pop	 esi
  00286	5b		 pop	 ebx
  00287	8b 4d fc	 mov	 ecx, DWORD PTR __$ArrayPad$[ebp]
  0028a	33 cd		 xor	 ecx, ebp
  0028c	e8 00 00 00 00	 call	 @__security_check_cookie@4
  00291	8b e5		 mov	 esp, ebp
  00293	5d		 pop	 ebp
  00294	c2 10 00	 ret	 16			; 00000010H
$LN18@WindowProc:

; 97   : 			break;
; 98   : 
; 99   : 		case WM_IME_ENDCOMPOSITION:
; 100  : 			return CPythonIME::Instance().WMEndComposition(hWnd, uiMsg, wParam, lParam);

  00297	ff 75 14	 push	 DWORD PTR _lParam$[ebp]
  0029a	8b 0d 00 00 00
	00		 mov	 ecx, DWORD PTR ?ms_singleton@?$CSingleton@VCPythonIME@@@@0PAVCPythonIME@@A ; CSingleton<CPythonIME>::ms_singleton
  002a0	ff 75 10	 push	 DWORD PTR _wParam$[ebp]
  002a3	56		 push	 esi
  002a4	8d 49 04	 lea	 ecx, DWORD PTR [ecx+4]
  002a7	53		 push	 ebx
  002a8	e8 00 00 00 00	 call	 ?WMEndComposition@CIME@@QAEJPAUHWND__@@IIJ@Z ; CIME::WMEndComposition
  002ad	5f		 pop	 edi

; 281  : }

  002ae	5e		 pop	 esi
  002af	5b		 pop	 ebx
  002b0	8b 4d fc	 mov	 ecx, DWORD PTR __$ArrayPad$[ebp]
  002b3	33 cd		 xor	 ecx, ebp
  002b5	e8 00 00 00 00	 call	 @__security_check_cookie@4
  002ba	8b e5		 mov	 esp, ebp
  002bc	5d		 pop	 ebp
  002bd	c2 10 00	 ret	 16			; 00000010H
$LN23@WindowProc:

; 118  : 
; 119  : 		case WM_LBUTTONDOWN:
; 120  : 			SafeSetCapture();

  002c0	e8 00 00 00 00	 call	 ?SafeSetCapture@CPythonApplication@@QAEXXZ ; CPythonApplication::SafeSetCapture

; 121  : 
; 122  : 			if (ELTimer_GetMSec() - m_dwLButtonDownTime < c_DoubleClickTime &&
; 123  : 				abs(LOWORD(lParam) - s_xDownPosition) < c_DoubleClickBox &&

  002c5	8b b7 8c fe 01
	00		 mov	 esi, DWORD PTR [edi+130700]
  002cb	e8 00 00 00 00	 call	 ?ELTimer_GetMSec@@YAKXZ	; ELTimer_GetMSec
  002d0	2b c6		 sub	 eax, esi
  002d2	3d 2c 01 00 00	 cmp	 eax, 300		; 0000012cH
  002d7	73 46		 jae	 SHORT $LN24@WindowProc
  002d9	8b 75 14	 mov	 esi, DWORD PTR _lParam$[ebp]
  002dc	0f b7 de	 movzx	 ebx, si
  002df	8b c3		 mov	 eax, ebx
  002e1	2b 05 00 00 00
	00		 sub	 eax, DWORD PTR ?s_xDownPosition@?1??WindowProcedure@CPythonApplication@@MAEJPAUHWND__@@IIJ@Z@4HA
  002e7	99		 cdq
  002e8	33 c2		 xor	 eax, edx
  002ea	2b c2		 sub	 eax, edx
  002ec	83 f8 05	 cmp	 eax, 5
  002ef	7d 2e		 jge	 SHORT $LN24@WindowProc
  002f1	c1 ee 10	 shr	 esi, 16			; 00000010H
  002f4	8b c6		 mov	 eax, esi
  002f6	2b 05 00 00 00
	00		 sub	 eax, DWORD PTR ?s_yDownPosition@?1??WindowProcedure@CPythonApplication@@MAEJPAUHWND__@@IIJ@Z@4HA
  002fc	99		 cdq
  002fd	33 c2		 xor	 eax, edx
  002ff	2b c2		 sub	 eax, edx
  00301	83 f8 05	 cmp	 eax, 5
  00304	7d 19		 jge	 SHORT $LN24@WindowProc

; 124  : 				abs(HIWORD(lParam) - s_yDownPosition) < c_DoubleClickBox)
; 125  : 			{
; 126  : 				m_dwLButtonDownTime = 0;
; 127  : 
; 128  : 				OnMouseLeftButtonDoubleClick(short(LOWORD(lParam)), short(HIWORD(lParam)));

  00306	0f bf c6	 movsx	 eax, si
  00309	50		 push	 eax
  0030a	0f bf c3	 movsx	 eax, bx
  0030d	50		 push	 eax
  0030e	c7 87 8c fe 01
	00 00 00 00 00	 mov	 DWORD PTR [edi+130700], 0
  00318	e8 00 00 00 00	 call	 ?OnMouseLeftButtonDoubleClick@CPythonApplication@@IAEXHH@Z ; CPythonApplication::OnMouseLeftButtonDoubleClick

; 129  : 			}

  0031d	eb 23		 jmp	 SHORT $LN25@WindowProc
$LN24@WindowProc:

; 130  : 			else
; 131  : 			{
; 132  : 				m_dwLButtonDownTime = ELTimer_GetMSec();

  0031f	e8 00 00 00 00	 call	 ?ELTimer_GetMSec@@YAKXZ	; ELTimer_GetMSec
  00324	89 87 8c fe 01
	00		 mov	 DWORD PTR [edi+130700], eax

; 133  : 
; 134  : 				OnMouseLeftButtonDown(short(LOWORD(lParam)), short(HIWORD(lParam)));

  0032a	8b 45 14	 mov	 eax, DWORD PTR _lParam$[ebp]
  0032d	8b f0		 mov	 esi, eax
  0032f	c1 ee 10	 shr	 esi, 16			; 00000010H
  00332	0f b7 d8	 movzx	 ebx, ax
  00335	0f bf c6	 movsx	 eax, si
  00338	50		 push	 eax
  00339	0f bf c3	 movsx	 eax, bx
  0033c	50		 push	 eax
  0033d	e8 00 00 00 00	 call	 ?OnMouseLeftButtonDown@CPythonApplication@@IAEXHH@Z ; CPythonApplication::OnMouseLeftButtonDown
$LN25@WindowProc:

; 135  : 			}
; 136  : 
; 137  : 			s_xDownPosition = LOWORD(lParam);

  00342	0f b7 c3	 movzx	 eax, bx
  00345	a3 00 00 00 00	 mov	 DWORD PTR ?s_xDownPosition@?1??WindowProcedure@CPythonApplication@@MAEJPAUHWND__@@IIJ@Z@4HA, eax

; 138  : 			s_yDownPosition = HIWORD(lParam);

  0034a	0f b7 c6	 movzx	 eax, si
  0034d	5f		 pop	 edi

; 281  : }

  0034e	5e		 pop	 esi
  0034f	a3 00 00 00 00	 mov	 DWORD PTR ?s_yDownPosition@?1??WindowProcedure@CPythonApplication@@MAEJPAUHWND__@@IIJ@Z@4HA, eax
  00354	33 c0		 xor	 eax, eax
  00356	5b		 pop	 ebx
  00357	8b 4d fc	 mov	 ecx, DWORD PTR __$ArrayPad$[ebp]
  0035a	33 cd		 xor	 ecx, ebp
  0035c	e8 00 00 00 00	 call	 @__security_check_cookie@4
  00361	8b e5		 mov	 esp, ebp
  00363	5d		 pop	 ebp
  00364	c2 10 00	 ret	 16			; 00000010H
$LN60@WindowProc:

; 51   : 	const int c_DoubleClickTime = 300;
; 52   : 	const int c_DoubleClickBox = 5;
; 53   : 	static int s_xDownPosition = 0;
; 54   : 	static int s_yDownPosition = 0;	
; 55   : 
; 56   : 	switch (uiMsg)

  00367	8d 86 fe fd ff
	ff		 lea	 eax, DWORD PTR [esi-514]
  0036d	3d 80 00 00 00	 cmp	 eax, 128		; 00000080H
  00372	0f 87 90 01 00
	00		 ja	 $LN82@WindowProc
  00378	0f b6 80 00 00
	00 00		 movzx	 eax, BYTE PTR $LN69@WindowProc[eax]
  0037f	ff 24 85 00 00
	00 00		 jmp	 DWORD PTR $LN70@WindowProc[eax*4]
$LN19@WindowProc:

; 101  : 			break;
; 102  : 
; 103  : 		case WM_IME_NOTIFY:
; 104  : 			return CPythonIME::Instance().WMNotify(hWnd, uiMsg, wParam, lParam);

  00386	ff 75 14	 push	 DWORD PTR _lParam$[ebp]
  00389	8b 0d 00 00 00
	00		 mov	 ecx, DWORD PTR ?ms_singleton@?$CSingleton@VCPythonIME@@@@0PAVCPythonIME@@A ; CSingleton<CPythonIME>::ms_singleton
  0038f	ff 75 10	 push	 DWORD PTR _wParam$[ebp]
  00392	56		 push	 esi
  00393	8d 49 04	 lea	 ecx, DWORD PTR [ecx+4]
  00396	53		 push	 ebx
  00397	e8 00 00 00 00	 call	 ?WMNotify@CIME@@QAEJPAUHWND__@@IIJ@Z ; CIME::WMNotify
  0039c	5f		 pop	 edi

; 281  : }

  0039d	5e		 pop	 esi
  0039e	5b		 pop	 ebx
  0039f	8b 4d fc	 mov	 ecx, DWORD PTR __$ArrayPad$[ebp]
  003a2	33 cd		 xor	 ecx, ebp
  003a4	e8 00 00 00 00	 call	 @__security_check_cookie@4
  003a9	8b e5		 mov	 esp, ebp
  003ab	5d		 pop	 ebp
  003ac	c2 10 00	 ret	 16			; 00000010H
$LN20@WindowProc:

; 105  : 			break;
; 106  : 
; 107  : 		case WM_IME_SETCONTEXT:
; 108  : 			lParam &= ~(ISC_SHOWUICOMPOSITIONWINDOW | ISC_SHOWUIALLCANDIDATEWINDOW);

  003af	81 65 14 f0 ff
	ff 7f		 and	 DWORD PTR _lParam$[ebp], 2147483632 ; 7ffffff0H

; 109  : 			break;

  003b6	e9 4d 01 00 00	 jmp	 $LN82@WindowProc
$LN26@WindowProc:

; 139  : 			return 0;
; 140  : 
; 141  : 		case WM_LBUTTONUP:
; 142  : 			m_dwLButtonUpTime = ELTimer_GetMSec();

  003bb	e8 00 00 00 00	 call	 ?ELTimer_GetMSec@@YAKXZ	; ELTimer_GetMSec
  003c0	89 87 90 fe 01
	00		 mov	 DWORD PTR [edi+130704], eax

; 143  : 
; 144  : 			if (hWnd == GetCapture())

  003c6	ff 15 00 00 00
	00		 call	 DWORD PTR __imp__GetCapture@0
  003cc	3b d8		 cmp	 ebx, eax
  003ce	0f 85 e5 00 00
	00		 jne	 $LN33@WindowProc

; 145  : 			{
; 146  : 				SafeReleaseCapture();

  003d4	e8 00 00 00 00	 call	 ?SafeReleaseCapture@CPythonApplication@@QAEXXZ ; CPythonApplication::SafeReleaseCapture

; 147  : 				OnMouseLeftButtonUp(short(LOWORD(lParam)), short(HIWORD(lParam)));

  003d9	8b 45 14	 mov	 eax, DWORD PTR _lParam$[ebp]
  003dc	8b d0		 mov	 edx, eax
  003de	c1 ea 10	 shr	 edx, 16			; 00000010H
  003e1	0f b7 c8	 movzx	 ecx, ax
  003e4	0f bf c2	 movsx	 eax, dx
  003e7	50		 push	 eax
  003e8	0f bf c1	 movsx	 eax, cx
  003eb	50		 push	 eax
  003ec	e8 00 00 00 00	 call	 ?OnMouseLeftButtonUp@CPythonApplication@@IAEXHH@Z ; CPythonApplication::OnMouseLeftButtonUp
  003f1	5f		 pop	 edi

; 281  : }

  003f2	5e		 pop	 esi
  003f3	33 c0		 xor	 eax, eax
  003f5	5b		 pop	 ebx
  003f6	8b 4d fc	 mov	 ecx, DWORD PTR __$ArrayPad$[ebp]
  003f9	33 cd		 xor	 ecx, ebp
  003fb	e8 00 00 00 00	 call	 @__security_check_cookie@4
  00400	8b e5		 mov	 esp, ebp
  00402	5d		 pop	 ebp
  00403	c2 10 00	 ret	 16			; 00000010H
$LN28@WindowProc:

; 148  : 			}
; 149  : 			return 0;
; 150  : 
; 151  : 		case WM_MBUTTONDOWN:
; 152  : 			SafeSetCapture();

  00406	e8 00 00 00 00	 call	 ?SafeSetCapture@CPythonApplication@@QAEXXZ ; CPythonApplication::SafeSetCapture

; 153  : 
; 154  : 			UI::CWindowManager::Instance().RunMouseMiddleButtonDown(short(LOWORD(lParam)), short(HIWORD(lParam)));

  0040b	8b 4d 14	 mov	 ecx, DWORD PTR _lParam$[ebp]
  0040e	8b c1		 mov	 eax, ecx
  00410	c1 e8 10	 shr	 eax, 16			; 00000010H
  00413	98		 cwde
  00414	0f b7 c9	 movzx	 ecx, cx
  00417	50		 push	 eax
  00418	0f bf c1	 movsx	 eax, cx
  0041b	8b 0d 00 00 00
	00		 mov	 ecx, DWORD PTR ?ms_singleton@?$CSingleton@VCWindowManager@UI@@@@0PAVCWindowManager@UI@@A ; CSingleton<UI::CWindowManager>::ms_singleton
  00421	50		 push	 eax
  00422	e8 00 00 00 00	 call	 ?RunMouseMiddleButtonDown@CWindowManager@UI@@QAEXJJ@Z ; UI::CWindowManager::RunMouseMiddleButtonDown

; 155  : //			OnMouseMiddleButtonDown(short(LOWORD(lParam)), short(HIWORD(lParam)));
; 156  : 			break;

  00427	e9 dc 00 00 00	 jmp	 $LN82@WindowProc
$LN29@WindowProc:

; 157  : 
; 158  : 		case WM_MBUTTONUP:
; 159  : 			if (GetCapture() == hWnd)

  0042c	ff 15 00 00 00
	00		 call	 DWORD PTR __imp__GetCapture@0
  00432	3b c3		 cmp	 eax, ebx
  00434	0f 85 ce 00 00
	00		 jne	 $LN82@WindowProc

; 160  : 			{
; 161  : 				SafeReleaseCapture();

  0043a	e8 00 00 00 00	 call	 ?SafeReleaseCapture@CPythonApplication@@QAEXXZ ; CPythonApplication::SafeReleaseCapture

; 162  : 
; 163  : 				UI::CWindowManager::Instance().RunMouseMiddleButtonUp(short(LOWORD(lParam)), short(HIWORD(lParam)));

  0043f	8b 4d 14	 mov	 ecx, DWORD PTR _lParam$[ebp]
  00442	8b c1		 mov	 eax, ecx
  00444	c1 e8 10	 shr	 eax, 16			; 00000010H
  00447	98		 cwde
  00448	0f b7 c9	 movzx	 ecx, cx
  0044b	50		 push	 eax
  0044c	0f bf c1	 movsx	 eax, cx
  0044f	8b 0d 00 00 00
	00		 mov	 ecx, DWORD PTR ?ms_singleton@?$CSingleton@VCWindowManager@UI@@@@0PAVCWindowManager@UI@@A ; CSingleton<UI::CWindowManager>::ms_singleton
  00455	50		 push	 eax
  00456	e8 00 00 00 00	 call	 ?RunMouseMiddleButtonUp@CWindowManager@UI@@QAEXJJ@Z ; UI::CWindowManager::RunMouseMiddleButtonUp

; 164  : //				OnMouseMiddleButtonUp(short(LOWORD(lParam)), short(HIWORD(lParam)));
; 165  : 			}
; 166  : 			break;

  0045b	e9 a8 00 00 00	 jmp	 $LN82@WindowProc
$LN31@WindowProc:

; 167  : 
; 168  : 		case WM_RBUTTONDOWN:
; 169  : 			SafeSetCapture();

  00460	e8 00 00 00 00	 call	 ?SafeSetCapture@CPythonApplication@@QAEXXZ ; CPythonApplication::SafeSetCapture

; 170  : 			OnMouseRightButtonDown(short(LOWORD(lParam)), short(HIWORD(lParam)));

  00465	8b 45 14	 mov	 eax, DWORD PTR _lParam$[ebp]
  00468	8b d0		 mov	 edx, eax
  0046a	c1 ea 10	 shr	 edx, 16			; 00000010H
  0046d	0f b7 c8	 movzx	 ecx, ax
  00470	0f bf c2	 movsx	 eax, dx
  00473	50		 push	 eax
  00474	0f bf c1	 movsx	 eax, cx
  00477	50		 push	 eax
  00478	e8 00 00 00 00	 call	 ?OnMouseRightButtonDown@CPythonApplication@@IAEXHH@Z ; CPythonApplication::OnMouseRightButtonDown
  0047d	5f		 pop	 edi

; 281  : }

  0047e	5e		 pop	 esi
  0047f	33 c0		 xor	 eax, eax
  00481	5b		 pop	 ebx
  00482	8b 4d fc	 mov	 ecx, DWORD PTR __$ArrayPad$[ebp]
  00485	33 cd		 xor	 ecx, ebp
  00487	e8 00 00 00 00	 call	 @__security_check_cookie@4
  0048c	8b e5		 mov	 esp, ebp
  0048e	5d		 pop	 ebp
  0048f	c2 10 00	 ret	 16			; 00000010H
$LN32@WindowProc:

; 171  : 			return 0;
; 172  : 
; 173  : 		case WM_RBUTTONUP:
; 174  : 			if (hWnd == GetCapture()) 

  00492	ff 15 00 00 00
	00		 call	 DWORD PTR __imp__GetCapture@0
  00498	3b d8		 cmp	 ebx, eax
  0049a	75 1d		 jne	 SHORT $LN33@WindowProc

; 175  : 			{
; 176  : 				SafeReleaseCapture();

  0049c	e8 00 00 00 00	 call	 ?SafeReleaseCapture@CPythonApplication@@QAEXXZ ; CPythonApplication::SafeReleaseCapture

; 177  : 
; 178  : 				OnMouseRightButtonUp(short(LOWORD(lParam)), short(HIWORD(lParam)));

  004a1	8b 45 14	 mov	 eax, DWORD PTR _lParam$[ebp]
  004a4	8b d0		 mov	 edx, eax
  004a6	c1 ea 10	 shr	 edx, 16			; 00000010H
  004a9	0f b7 c8	 movzx	 ecx, ax
  004ac	0f bf c2	 movsx	 eax, dx
  004af	50		 push	 eax
  004b0	0f bf c1	 movsx	 eax, cx
  004b3	50		 push	 eax
  004b4	e8 00 00 00 00	 call	 ?OnMouseRightButtonUp@CPythonApplication@@IAEXHH@Z ; CPythonApplication::OnMouseRightButtonUp
$LN33@WindowProc:

; 281  : }

  004b9	5f		 pop	 edi
  004ba	5e		 pop	 esi
  004bb	33 c0		 xor	 eax, eax
  004bd	5b		 pop	 ebx
  004be	8b 4d fc	 mov	 ecx, DWORD PTR __$ArrayPad$[ebp]
  004c1	33 cd		 xor	 ecx, ebp
  004c3	e8 00 00 00 00	 call	 @__security_check_cookie@4
  004c8	8b e5		 mov	 esp, ebp
  004ca	5d		 pop	 ebp
  004cb	c2 10 00	 ret	 16			; 00000010H
$LN34@WindowProc:

; 179  : 			}
; 180  : 			return 0;
; 181  : 
; 182  : 		case 0x20a:
; 183  : 			if (WebBrowser_IsVisible())

  004ce	e8 00 00 00 00	 call	 _WebBrowser_IsVisible
  004d3	85 c0		 test	 eax, eax
  004d5	8b 45 10	 mov	 eax, DWORD PTR _wParam$[ebp]
  004d8	75 31		 jne	 SHORT $LN71@WindowProc

; 184  : 			{
; 185  : 				// 웹브라우저 상태일때는 휠 작동 안되도록 처리
; 186  : 			}
; 187  : 			else
; 188  : 			{
; 189  : 				OnMouseWheel(short(HIWORD(wParam)));

  004da	c1 e8 10	 shr	 eax, 16			; 00000010H
  004dd	98		 cwde
  004de	50		 push	 eax
  004df	e8 00 00 00 00	 call	 ?OnMouseWheel@CPythonApplication@@IAEXH@Z ; CPythonApplication::OnMouseWheel

; 190  : 			}
; 191  : 			break;

  004e4	eb 22		 jmp	 SHORT $LN82@WindowProc
$LN42@WindowProc:

; 217  : 
; 218  : 		case WM_EXITSIZEMOVE:    
; 219  : 			{
; 220  : 				RECT rcWnd; 
; 221  : 				GetClientRect(&rcWnd); 

  004e6	8d 45 ec	 lea	 eax, DWORD PTR _rcWnd$2[ebp]
  004e9	50		 push	 eax
  004ea	e8 00 00 00 00	 call	 ?GetClientRect@CMSWindow@@QAEXPAUtagRECT@@@Z ; CMSWindow::GetClientRect

; 222  : 				
; 223  : 				UINT uWidth=rcWnd.right-rcWnd.left; 
; 224  : 				UINT uHeight=rcWnd.bottom-rcWnd.left; 

  004ef	8b 45 f8	 mov	 eax, DWORD PTR _rcWnd$2[ebp+12]

; 225  : 				m_grpDevice.ResizeBackBuffer(uWidth, uHeight);				

  004f2	8d 8f 70 d6 01
	00		 lea	 ecx, DWORD PTR [edi+120432]
  004f8	2b 45 ec	 sub	 eax, DWORD PTR _rcWnd$2[ebp]
  004fb	50		 push	 eax
  004fc	8b 45 f4	 mov	 eax, DWORD PTR _rcWnd$2[ebp+8]
  004ff	2b 45 ec	 sub	 eax, DWORD PTR _rcWnd$2[ebp]
  00502	50		 push	 eax
  00503	e8 00 00 00 00	 call	 ?ResizeBackBuffer@CGraphicDevice@@QAE_NII@Z ; CGraphicDevice::ResizeBackBuffer
$LN82@WindowProc:

; 270  : #endif
; 271  : 			return 0;
; 272  : 
; 273  : 		case WM_DESTROY:
; 274  : 			return 0;
; 275  : 		default:
; 276  : 			//Tracenf("%x msg %x", timeGetTime(), uiMsg);
; 277  : 			break;
; 278  : 	}	
; 279  : 
; 280  : 	return CMSApplication::WindowProcedure(hWnd, uiMsg, wParam, lParam);

  00508	8b 45 10	 mov	 eax, DWORD PTR _wParam$[ebp]
$LN71@WindowProc:
  0050b	ff 75 14	 push	 DWORD PTR _lParam$[ebp]
  0050e	8b cf		 mov	 ecx, edi
  00510	50		 push	 eax
  00511	56		 push	 esi
  00512	53		 push	 ebx
  00513	e8 00 00 00 00	 call	 ?WindowProcedure@CMSApplication@@MAEJPAUHWND__@@IIJ@Z ; CMSApplication::WindowProcedure

; 281  : }

  00518	8b 4d fc	 mov	 ecx, DWORD PTR __$ArrayPad$[ebp]
  0051b	5f		 pop	 edi
  0051c	5e		 pop	 esi
  0051d	33 cd		 xor	 ecx, ebp
  0051f	5b		 pop	 ebx
  00520	e8 00 00 00 00	 call	 @__security_check_cookie@4
  00525	8b e5		 mov	 esp, ebp
  00527	5d		 pop	 ebp
  00528	c2 10 00	 ret	 16			; 00000010H
  0052b	90		 npad	 1
$LN68@WindowProc:
  0052c	00 00 00 00	 DD	 $LN48@WindowProc
  00530	00 00 00 00	 DD	 $LN15@WindowProc
  00534	00 00 00 00	 DD	 $LN22@WindowProc
  00538	00 00 00 00	 DD	 $LN21@WindowProc
  0053c	00 00 00 00	 DD	 $LN82@WindowProc
  00540	00 00 00 00	 DD	 $LN45@WindowProc
  00544	00 00 00 00	 DD	 $LN82@WindowProc
$LN67@WindowProc:
  00548	00		 DB	 0
  00549	06		 DB	 6
  0054a	06		 DB	 6
  0054b	06		 DB	 6
  0054c	06		 DB	 6
  0054d	06		 DB	 6
  0054e	06		 DB	 6
  0054f	06		 DB	 6
  00550	06		 DB	 6
  00551	06		 DB	 6
  00552	06		 DB	 6
  00553	06		 DB	 6
  00554	06		 DB	 6
  00555	06		 DB	 6
  00556	06		 DB	 6
  00557	06		 DB	 6
  00558	06		 DB	 6
  00559	06		 DB	 6
  0055a	06		 DB	 6
  0055b	06		 DB	 6
  0055c	06		 DB	 6
  0055d	06		 DB	 6
  0055e	06		 DB	 6
  0055f	06		 DB	 6
  00560	06		 DB	 6
  00561	06		 DB	 6
  00562	06		 DB	 6
  00563	06		 DB	 6
  00564	06		 DB	 6
  00565	06		 DB	 6
  00566	06		 DB	 6
  00567	06		 DB	 6
  00568	06		 DB	 6
  00569	06		 DB	 6
  0056a	06		 DB	 6
  0056b	06		 DB	 6
  0056c	06		 DB	 6
  0056d	06		 DB	 6
  0056e	06		 DB	 6
  0056f	06		 DB	 6
  00570	06		 DB	 6
  00571	06		 DB	 6
  00572	06		 DB	 6
  00573	06		 DB	 6
  00574	06		 DB	 6
  00575	06		 DB	 6
  00576	06		 DB	 6
  00577	06		 DB	 6
  00578	06		 DB	 6
  00579	01		 DB	 1
  0057a	06		 DB	 6
  0057b	06		 DB	 6
  0057c	06		 DB	 6
  0057d	06		 DB	 6
  0057e	06		 DB	 6
  0057f	06		 DB	 6
  00580	06		 DB	 6
  00581	06		 DB	 6
  00582	06		 DB	 6
  00583	06		 DB	 6
  00584	06		 DB	 6
  00585	06		 DB	 6
  00586	06		 DB	 6
  00587	06		 DB	 6
  00588	06		 DB	 6
  00589	06		 DB	 6
  0058a	06		 DB	 6
  0058b	06		 DB	 6
  0058c	06		 DB	 6
  0058d	06		 DB	 6
  0058e	06		 DB	 6
  0058f	06		 DB	 6
  00590	06		 DB	 6
  00591	06		 DB	 6
  00592	06		 DB	 6
  00593	06		 DB	 6
  00594	06		 DB	 6
  00595	06		 DB	 6
  00596	06		 DB	 6
  00597	06		 DB	 6
  00598	06		 DB	 6
  00599	06		 DB	 6
  0059a	06		 DB	 6
  0059b	06		 DB	 6
  0059c	06		 DB	 6
  0059d	06		 DB	 6
  0059e	06		 DB	 6
  0059f	06		 DB	 6
  005a0	06		 DB	 6
  005a1	06		 DB	 6
  005a2	06		 DB	 6
  005a3	06		 DB	 6
  005a4	06		 DB	 6
  005a5	06		 DB	 6
  005a6	06		 DB	 6
  005a7	06		 DB	 6
  005a8	06		 DB	 6
  005a9	06		 DB	 6
  005aa	06		 DB	 6
  005ab	06		 DB	 6
  005ac	06		 DB	 6
  005ad	06		 DB	 6
  005ae	06		 DB	 6
  005af	06		 DB	 6
  005b0	06		 DB	 6
  005b1	06		 DB	 6
  005b2	06		 DB	 6
  005b3	06		 DB	 6
  005b4	06		 DB	 6
  005b5	06		 DB	 6
  005b6	06		 DB	 6
  005b7	06		 DB	 6
  005b8	06		 DB	 6
  005b9	06		 DB	 6
  005ba	06		 DB	 6
  005bb	06		 DB	 6
  005bc	06		 DB	 6
  005bd	06		 DB	 6
  005be	06		 DB	 6
  005bf	06		 DB	 6
  005c0	06		 DB	 6
  005c1	06		 DB	 6
  005c2	06		 DB	 6
  005c3	06		 DB	 6
  005c4	06		 DB	 6
  005c5	06		 DB	 6
  005c6	06		 DB	 6
  005c7	06		 DB	 6
  005c8	06		 DB	 6
  005c9	06		 DB	 6
  005ca	06		 DB	 6
  005cb	06		 DB	 6
  005cc	06		 DB	 6
  005cd	06		 DB	 6
  005ce	06		 DB	 6
  005cf	06		 DB	 6
  005d0	06		 DB	 6
  005d1	06		 DB	 6
  005d2	06		 DB	 6
  005d3	06		 DB	 6
  005d4	06		 DB	 6
  005d5	06		 DB	 6
  005d6	06		 DB	 6
  005d7	06		 DB	 6
  005d8	06		 DB	 6
  005d9	06		 DB	 6
  005da	06		 DB	 6
  005db	06		 DB	 6
  005dc	06		 DB	 6
  005dd	06		 DB	 6
  005de	06		 DB	 6
  005df	06		 DB	 6
  005e0	06		 DB	 6
  005e1	06		 DB	 6
  005e2	06		 DB	 6
  005e3	06		 DB	 6
  005e4	06		 DB	 6
  005e5	06		 DB	 6
  005e6	06		 DB	 6
  005e7	06		 DB	 6
  005e8	06		 DB	 6
  005e9	06		 DB	 6
  005ea	06		 DB	 6
  005eb	06		 DB	 6
  005ec	06		 DB	 6
  005ed	06		 DB	 6
  005ee	06		 DB	 6
  005ef	06		 DB	 6
  005f0	06		 DB	 6
  005f1	06		 DB	 6
  005f2	06		 DB	 6
  005f3	06		 DB	 6
  005f4	06		 DB	 6
  005f5	06		 DB	 6
  005f6	06		 DB	 6
  005f7	06		 DB	 6
  005f8	06		 DB	 6
  005f9	06		 DB	 6
  005fa	06		 DB	 6
  005fb	06		 DB	 6
  005fc	06		 DB	 6
  005fd	06		 DB	 6
  005fe	06		 DB	 6
  005ff	06		 DB	 6
  00600	06		 DB	 6
  00601	06		 DB	 6
  00602	06		 DB	 6
  00603	06		 DB	 6
  00604	06		 DB	 6
  00605	06		 DB	 6
  00606	06		 DB	 6
  00607	06		 DB	 6
  00608	06		 DB	 6
  00609	06		 DB	 6
  0060a	06		 DB	 6
  0060b	06		 DB	 6
  0060c	06		 DB	 6
  0060d	06		 DB	 6
  0060e	06		 DB	 6
  0060f	06		 DB	 6
  00610	06		 DB	 6
  00611	06		 DB	 6
  00612	06		 DB	 6
  00613	06		 DB	 6
  00614	06		 DB	 6
  00615	06		 DB	 6
  00616	06		 DB	 6
  00617	06		 DB	 6
  00618	06		 DB	 6
  00619	06		 DB	 6
  0061a	06		 DB	 6
  0061b	06		 DB	 6
  0061c	06		 DB	 6
  0061d	06		 DB	 6
  0061e	06		 DB	 6
  0061f	06		 DB	 6
  00620	06		 DB	 6
  00621	06		 DB	 6
  00622	06		 DB	 6
  00623	06		 DB	 6
  00624	06		 DB	 6
  00625	06		 DB	 6
  00626	06		 DB	 6
  00627	06		 DB	 6
  00628	02		 DB	 2
  00629	06		 DB	 6
  0062a	03		 DB	 3
  0062b	06		 DB	 6
  0062c	04		 DB	 4
  0062d	05		 DB	 5
  0062e	66 90		 npad	 2
$LN70@WindowProc:
  00630	00 00 00 00	 DD	 $LN26@WindowProc
  00634	00 00 00 00	 DD	 $LN31@WindowProc
  00638	00 00 00 00	 DD	 $LN32@WindowProc
  0063c	00 00 00 00	 DD	 $LN28@WindowProc
  00640	00 00 00 00	 DD	 $LN29@WindowProc
  00644	00 00 00 00	 DD	 $LN34@WindowProc
  00648	00 00 00 00	 DD	 $LN42@WindowProc
  0064c	00 00 00 00	 DD	 $LN20@WindowProc
  00650	00 00 00 00	 DD	 $LN19@WindowProc
  00654	00 00 00 00	 DD	 $LN82@WindowProc
$LN69@WindowProc:
  00658	00		 DB	 0
  00659	09		 DB	 9
  0065a	01		 DB	 1
  0065b	02		 DB	 2
  0065c	09		 DB	 9
  0065d	03		 DB	 3
  0065e	04		 DB	 4
  0065f	09		 DB	 9
  00660	05		 DB	 5
  00661	09		 DB	 9
  00662	09		 DB	 9
  00663	09		 DB	 9
  00664	09		 DB	 9
  00665	09		 DB	 9
  00666	09		 DB	 9
  00667	09		 DB	 9
  00668	09		 DB	 9
  00669	09		 DB	 9
  0066a	09		 DB	 9
  0066b	09		 DB	 9
  0066c	09		 DB	 9
  0066d	09		 DB	 9
  0066e	09		 DB	 9
  0066f	09		 DB	 9
  00670	09		 DB	 9
  00671	09		 DB	 9
  00672	09		 DB	 9
  00673	09		 DB	 9
  00674	09		 DB	 9
  00675	09		 DB	 9
  00676	09		 DB	 9
  00677	09		 DB	 9
  00678	09		 DB	 9
  00679	09		 DB	 9
  0067a	09		 DB	 9
  0067b	09		 DB	 9
  0067c	09		 DB	 9
  0067d	09		 DB	 9
  0067e	09		 DB	 9
  0067f	09		 DB	 9
  00680	09		 DB	 9
  00681	09		 DB	 9
  00682	09		 DB	 9
  00683	09		 DB	 9
  00684	09		 DB	 9
  00685	09		 DB	 9
  00686	09		 DB	 9
  00687	09		 DB	 9
  00688	06		 DB	 6
  00689	09		 DB	 9
  0068a	09		 DB	 9
  0068b	09		 DB	 9
  0068c	09		 DB	 9
  0068d	09		 DB	 9
  0068e	09		 DB	 9
  0068f	09		 DB	 9
  00690	09		 DB	 9
  00691	09		 DB	 9
  00692	09		 DB	 9
  00693	09		 DB	 9
  00694	09		 DB	 9
  00695	09		 DB	 9
  00696	09		 DB	 9
  00697	09		 DB	 9
  00698	09		 DB	 9
  00699	09		 DB	 9
  0069a	09		 DB	 9
  0069b	09		 DB	 9
  0069c	09		 DB	 9
  0069d	09		 DB	 9
  0069e	09		 DB	 9
  0069f	09		 DB	 9
  006a0	09		 DB	 9
  006a1	09		 DB	 9
  006a2	09		 DB	 9
  006a3	09		 DB	 9
  006a4	09		 DB	 9
  006a5	09		 DB	 9
  006a6	09		 DB	 9
  006a7	09		 DB	 9
  006a8	09		 DB	 9
  006a9	09		 DB	 9
  006aa	09		 DB	 9
  006ab	09		 DB	 9
  006ac	09		 DB	 9
  006ad	09		 DB	 9
  006ae	09		 DB	 9
  006af	09		 DB	 9
  006b0	09		 DB	 9
  006b1	09		 DB	 9
  006b2	09		 DB	 9
  006b3	09		 DB	 9
  006b4	09		 DB	 9
  006b5	09		 DB	 9
  006b6	09		 DB	 9
  006b7	09		 DB	 9
  006b8	09		 DB	 9
  006b9	09		 DB	 9
  006ba	09		 DB	 9
  006bb	09		 DB	 9
  006bc	09		 DB	 9
  006bd	09		 DB	 9
  006be	09		 DB	 9
  006bf	09		 DB	 9
  006c0	09		 DB	 9
  006c1	09		 DB	 9
  006c2	09		 DB	 9
  006c3	09		 DB	 9
  006c4	09		 DB	 9
  006c5	09		 DB	 9
  006c6	09		 DB	 9
  006c7	09		 DB	 9
  006c8	09		 DB	 9
  006c9	09		 DB	 9
  006ca	09		 DB	 9
  006cb	09		 DB	 9
  006cc	09		 DB	 9
  006cd	09		 DB	 9
  006ce	09		 DB	 9
  006cf	09		 DB	 9
  006d0	09		 DB	 9
  006d1	09		 DB	 9
  006d2	09		 DB	 9
  006d3	09		 DB	 9
  006d4	09		 DB	 9
  006d5	09		 DB	 9
  006d6	09		 DB	 9
  006d7	07		 DB	 7
  006d8	08		 DB	 8
?WindowProcedure@CPythonApplication@@MAEJPAUHWND__@@IIJ@Z ENDP ; CPythonApplication::WindowProcedure
_TEXT	ENDS
; Function compile flags: /Ogtp
; File D:\_m2work\txoko-m2-work\txoko-client-src\source\UserInterface\PythonApplicationProcedure.cpp
;	COMDAT ?__SetFullScreenWindow@CPythonApplication@@IAEXPAUHWND__@@KKK@Z
_TEXT	SEGMENT
_DevMode$ = -160					; size = 156
__$ArrayPad$ = -4					; size = 4
_hWnd$dead$ = 8						; size = 4
_dwWidth$ = 12						; size = 4
_dwHeight$ = 16						; size = 4
_dwBPP$ = 20						; size = 4
?__SetFullScreenWindow@CPythonApplication@@IAEXPAUHWND__@@KKK@Z PROC ; CPythonApplication::__SetFullScreenWindow, COMDAT
; _this$dead$ = ecx

; 24   : {

  00000	55		 push	 ebp
  00001	8b ec		 mov	 ebp, esp
  00003	81 ec a0 00 00
	00		 sub	 esp, 160		; 000000a0H
  00009	a1 00 00 00 00	 mov	 eax, DWORD PTR ___security_cookie
  0000e	33 c5		 xor	 eax, ebp
  00010	89 45 fc	 mov	 DWORD PTR __$ArrayPad$[ebp], eax

; 25   : 	DEVMODE DevMode;
; 26   : 	DevMode.dmSize = sizeof(DevMode);

  00013	b8 9c 00 00 00	 mov	 eax, 156		; 0000009cH

; 27   : 	DevMode.dmBitsPerPel = dwBPP;
; 28   : 	DevMode.dmPelsWidth = dwWidth;
; 29   : 	DevMode.dmPelsHeight = dwHeight;
; 30   : 	DevMode.dmFields = DM_BITSPERPEL | DM_PELSWIDTH | DM_PELSHEIGHT;

  00018	c7 45 88 00 00
	1c 00		 mov	 DWORD PTR _DevMode$[ebp+40], 1835008 ; 001c0000H
  0001f	66 89 45 84	 mov	 WORD PTR _DevMode$[ebp+36], ax
  00023	8b 45 14	 mov	 eax, DWORD PTR _dwBPP$[ebp]
  00026	89 45 c8	 mov	 DWORD PTR _DevMode$[ebp+104], eax
  00029	8b 45 0c	 mov	 eax, DWORD PTR _dwWidth$[ebp]
  0002c	89 45 cc	 mov	 DWORD PTR _DevMode$[ebp+108], eax
  0002f	8b 45 10	 mov	 eax, DWORD PTR _dwHeight$[ebp]
  00032	89 45 d0	 mov	 DWORD PTR _DevMode$[ebp+112], eax

; 31   : 
; 32   : 	LONG Error = ChangeDisplaySettings(&DevMode, CDS_FULLSCREEN);

  00035	8d 85 60 ff ff
	ff		 lea	 eax, DWORD PTR _DevMode$[ebp]
  0003b	6a 04		 push	 4
  0003d	50		 push	 eax
  0003e	ff 15 00 00 00
	00		 call	 DWORD PTR __imp__ChangeDisplaySettingsA@8

; 33   : 	if(Error == DISP_CHANGE_RESTART)

  00044	83 f8 01	 cmp	 eax, 1
  00047	75 0a		 jne	 SHORT $LN2@SetFullScr

; 34   : 	{
; 35   : 		ChangeDisplaySettings(0,0);

  00049	6a 00		 push	 0
  0004b	6a 00		 push	 0
  0004d	ff 15 00 00 00
	00		 call	 DWORD PTR __imp__ChangeDisplaySettingsA@8
$LN2@SetFullScr:

; 36   : 	}
; 37   : }

  00053	8b 4d fc	 mov	 ecx, DWORD PTR __$ArrayPad$[ebp]
  00056	33 cd		 xor	 ecx, ebp
  00058	e8 00 00 00 00	 call	 @__security_check_cookie@4
  0005d	8b e5		 mov	 esp, ebp
  0005f	5d		 pop	 ebp
  00060	c2 10 00	 ret	 16			; 00000010H
?__SetFullScreenWindow@CPythonApplication@@IAEXPAUHWND__@@KKK@Z ENDP ; CPythonApplication::__SetFullScreenWindow
_TEXT	ENDS
; Function compile flags: /Ogtp
; File D:\_m2work\txoko-m2-work\txoko-client-src\source\UserInterface\PythonApplicationProcedure.cpp
;	COMDAT ?SafeSetCapture@CPythonApplication@@QAEXXZ
_TEXT	SEGMENT
?SafeSetCapture@CPythonApplication@@QAEXXZ PROC		; CPythonApplication::SafeSetCapture, COMDAT
; _this$ = ecx

; 12   : 	SetCapture(m_hWnd);

  00000	ff 71 04	 push	 DWORD PTR [ecx+4]
  00003	ff 15 00 00 00
	00		 call	 DWORD PTR __imp__SetCapture@4

; 13   : 	gs_nMouseCaptureRef++;

  00009	ff 05 00 00 00
	00		 inc	 DWORD PTR ?gs_nMouseCaptureRef@@3HA

; 14   : }

  0000f	c3		 ret	 0
?SafeSetCapture@CPythonApplication@@QAEXXZ ENDP		; CPythonApplication::SafeSetCapture
_TEXT	ENDS
; Function compile flags: /Ogtp
; File D:\_m2work\txoko-m2-work\txoko-client-src\source\UserInterface\PythonApplicationProcedure.cpp
;	COMDAT ?SafeReleaseCapture@CPythonApplication@@QAEXXZ
_TEXT	SEGMENT
tv128 = -4						; size = 4
?SafeReleaseCapture@CPythonApplication@@QAEXXZ PROC	; CPythonApplication::SafeReleaseCapture, COMDAT
; _this$dead$ = ecx

; 17   : {

  00000	55		 push	 ebp
  00001	8b ec		 mov	 ebp, esp
  00003	51		 push	 ecx

; 18   : 	gs_nMouseCaptureRef--;

  00004	a1 00 00 00 00	 mov	 eax, DWORD PTR ?gs_nMouseCaptureRef@@3HA
  00009	83 e8 01	 sub	 eax, 1
  0000c	a3 00 00 00 00	 mov	 DWORD PTR ?gs_nMouseCaptureRef@@3HA, eax

; 19   : 	if (gs_nMouseCaptureRef==0)

  00011	75 06		 jne	 SHORT $LN2@SafeReleas

; 20   : 		ReleaseCapture();

  00013	ff 15 00 00 00
	00		 call	 DWORD PTR __imp__ReleaseCapture@0
$LN2@SafeReleas:

; 21   : }

  00019	8b e5		 mov	 esp, ebp
  0001b	5d		 pop	 ebp
  0001c	c3		 ret	 0
?SafeReleaseCapture@CPythonApplication@@QAEXXZ ENDP	; CPythonApplication::SafeReleaseCapture
_TEXT	ENDS
; Function compile flags: /Ogtp
; File D:\_m2work\txoko-m2-work\txoko-client-src\source\UserInterface\PythonApplicationProcedure.cpp
;	COMDAT ?__MinimizeFullScreenWindow@CPythonApplication@@IAEXPAUHWND__@@KK@Z
_TEXT	SEGMENT
_hWnd$ = 8						; size = 4
_dwWidth$ = 12						; size = 4
_dwHeight$ = 16						; size = 4
?__MinimizeFullScreenWindow@CPythonApplication@@IAEXPAUHWND__@@KK@Z PROC ; CPythonApplication::__MinimizeFullScreenWindow, COMDAT
; _this$dead$ = ecx

; 40   : {

  00000	55		 push	 ebp
  00001	8b ec		 mov	 ebp, esp

; 41   : 	ChangeDisplaySettings(0, 0);

  00003	6a 00		 push	 0
  00005	6a 00		 push	 0
  00007	ff 15 00 00 00
	00		 call	 DWORD PTR __imp__ChangeDisplaySettingsA@8

; 42   : 	SetWindowPos(hWnd, 0, 0, 0,

  0000d	6a 40		 push	 64			; 00000040H
  0000f	ff 75 10	 push	 DWORD PTR _dwHeight$[ebp]
  00012	ff 75 0c	 push	 DWORD PTR _dwWidth$[ebp]
  00015	6a 00		 push	 0
  00017	6a 00		 push	 0
  00019	6a 00		 push	 0
  0001b	ff 75 08	 push	 DWORD PTR _hWnd$[ebp]
  0001e	ff 15 00 00 00
	00		 call	 DWORD PTR __imp__SetWindowPos@28

; 43   : 				 dwWidth,
; 44   : 				 dwHeight,
; 45   : 				 SWP_SHOWWINDOW);
; 46   : 	ShowWindow(hWnd, SW_MINIMIZE);

  00024	6a 06		 push	 6
  00026	ff 75 08	 push	 DWORD PTR _hWnd$[ebp]
  00029	ff 15 00 00 00
	00		 call	 DWORD PTR __imp__ShowWindow@8

; 47   : }

  0002f	5d		 pop	 ebp
  00030	c2 0c 00	 ret	 12			; 0000000cH
?__MinimizeFullScreenWindow@CPythonApplication@@IAEXPAUHWND__@@KK@Z ENDP ; CPythonApplication::__MinimizeFullScreenWindow
_TEXT	ENDS
END
