; Listing generated by Microsoft (R) Optimizing Compiler Version 19.44.35217.0 

	TITLE	d:\_m2work\txoko-m2-work\txoko-client-src\vs_files\userinterface\distribute\pythonsystemmodule.obj
	.686P
	.XMM
	include listing.inc
	.model	flat

INCLUDELIB OLDNAMES

PUBLIC	??_C@_08DGHCLNGO@iiiiiiii@			; `string'
PUBLIC	??_C@_05EAPDINDK@iiiii@				; `string'
PUBLIC	??_C@_0BE@LHLPPLCA@SetInterfaceHandler@		; `string'
PUBLIC	??_C@_08OMBILDHM@GetWidth@			; `string'
PUBLIC	??_C@_0BA@DGMEINM@ReserveResource@		; `string'
PUBLIC	??_C@_0BI@NBDOAHCB@DestroyInterfaceHandler@	; `string'
PUBLIC	??_C@_0BB@DOCGKHHO@SaveWindowStatus@		; `string'
PUBLIC	??_C@_0BC@GGDBAEOO@isInterfaceConfig@		; `string'
PUBLIC	??_C@_0BD@PNJEEMA@GetResolutionCount@		; `string'
PUBLIC	??_C@_0BA@OIPDIACO@GetWindowStatus@		; `string'
PUBLIC	??_C@_0BF@GJHGOKBH@GetCurrentResolution@	; `string'
PUBLIC	??_C@_0BC@MMLDLJCA@GetFrequencyCount@		; `string'
PUBLIC	??_C@_0N@DEDCKOKK@GetFrequency@			; `string'
PUBLIC	??_C@_0O@MCJGAEI@GetResolution@			; `string'
PUBLIC	??_C@_09KJAMEPBE@SetConfig@			; `string'
PUBLIC	??_C@_0M@PHHLFDDI@ApplyConfig@			; `string'
PUBLIC	??_C@_09IHEJGOIG@GetConfig@			; `string'
PUBLIC	??_C@_0L@IJAHDAKP@SaveConfig@			; `string'
PUBLIC	??_C@_08ILEIELBI@isSaveID@			; `string'
PUBLIC	??_C@_09DABJPAIG@SetSaveID@			; `string'
PUBLIC	??_C@_0P@HIIHPFML@GetMusicVolume@		; `string'
PUBLIC	??_C@_09BOFMNBBE@GetSaveID@			; `string'
PUBLIC	??_C@_0BB@BFMNFHIM@IsSoftwareCursor@		; `string'
PUBLIC	??_C@_0P@LCENEDPB@GetSoundVolume@		; `string'
PUBLIC	??_C@_0L@MGMBGKCF@IsViewChat@			; `string'
PUBLIC	??_C@_0BA@MFKECAML@SetViewChatFlag@		; `string'
PUBLIC	??_C@_0BB@NKNDCIFA@IsAlwaysShowName@		; `string'
PUBLIC	??_C@_0BG@GMBDCOC@SetAlwaysShowNameFlag@	; `string'
PUBLIC	??_C@_0N@FLKCLECP@IsShowDamage@			; `string'
PUBLIC	??_C@_0BC@JHKGLKC@SetShowDamageFlag@		; `string'
PUBLIC	??_C@_0BA@GPLIEFHC@IsShowSalesText@		; `string'
PUBLIC	??_C@_0BF@IKKCKDDD@SetShowSalesTextFlag@	; `string'
PUBLIC	??_C@_0O@LCPLIAAE@systemSetting@		; `string'
PUBLIC	??_C@_0P@FFPBIDPG@GetShadowLevel@		; `string'
PUBLIC	??_C@_0BB@CHCHLBGG@WINDOW_INVENTORY@		; `string'
PUBLIC	??_C@_0O@EDOCFBFG@WINDOW_STATUS@		; `string'
PUBLIC	??_C@_0P@MAFILJL@WINDOW_SOCIETY@		; `string'
PUBLIC	??_C@_0P@HAOBMPKD@WINDOW_ABILITY@		; `string'
PUBLIC	??_C@_0P@NOILKAON@WINDOW_COMMAND@		; `string'
PUBLIC	??_C@_0P@FHBHOGAA@WINDOW_JOURNAL@		; `string'
PUBLIC	??_C@_0N@MCEEKLOJ@WINDOW_GAUGE@			; `string'
PUBLIC	??_C@_0N@BOOBGFI@WINDOW_QUICK@			; `string'
PUBLIC	??_C@_0M@GHKKFINH@WINDOW_CHAT@			; `string'
PUBLIC	??_C@_0P@LEOBHMFL@WINDOW_MINIMAP@		; `string'
EXTRN	?PushBackgroundLoadingSet@CResourceManager@@QAEXAAV?$set@V?$basic_string@DU?$char_traits@D@std@@V?$allocator@D@2@@std@@U?$less@V?$basic_string@DU?$char_traits@D@std@@V?$allocator@D@2@@std@@@2@V?$allocator@V?$basic_string@DU?$char_traits@D@std@@V?$allocator@D@2@@std@@@2@@std@@@Z:PROC ; CResourceManager::PushBackgroundLoadingSet
;	COMDAT ?s_methods@?1??initsystem@@YAXXZ@4PAUPyMethodDef@@A
_DATA	SEGMENT
?s_methods@?1??initsystem@@YAXXZ@4PAUPyMethodDef@@A DD FLAT:??_C@_08OMBILDHM@GetWidth@ ; `initsystem'::`2'::s_methods
	DD	FLAT:?systemGetWidth@@YAPAU_object@@PAU1@0@Z
	DD	01H
	ORG $+4
	DD	FLAT:??_C@_09EOGEIJMK@GetHeight@
	DD	FLAT:?systemGetHeight@@YAPAU_object@@PAU1@0@Z
	DD	01H
	ORG $+4
	DD	FLAT:??_C@_0BE@LHLPPLCA@SetInterfaceHandler@
	DD	FLAT:?systemSetInterfaceHandler@@YAPAU_object@@PAU1@0@Z
	DD	01H
	ORG $+4
	DD	FLAT:??_C@_0BI@NBDOAHCB@DestroyInterfaceHandler@
	DD	FLAT:?systemDestroyInterfaceHandler@@YAPAU_object@@PAU1@0@Z
	DD	01H
	ORG $+4
	DD	FLAT:??_C@_0BA@DGMEINM@ReserveResource@
	DD	FLAT:?systemReserveResource@@YAPAU_object@@PAU1@0@Z
	DD	01H
	ORG $+4
	DD	FLAT:??_C@_0BC@GGDBAEOO@isInterfaceConfig@
	DD	FLAT:?systemisInterfaceConfig@@YAPAU_object@@PAU1@0@Z
	DD	01H
	ORG $+4
	DD	FLAT:??_C@_0BB@DOCGKHHO@SaveWindowStatus@
	DD	FLAT:?systemSaveWindowStatus@@YAPAU_object@@PAU1@0@Z
	DD	01H
	ORG $+4
	DD	FLAT:??_C@_0BA@OIPDIACO@GetWindowStatus@
	DD	FLAT:?systemGetWindowStatus@@YAPAU_object@@PAU1@0@Z
	DD	01H
	ORG $+4
	DD	FLAT:??_C@_0BD@PNJEEMA@GetResolutionCount@
	DD	FLAT:?systemGetResolutionCount@@YAPAU_object@@PAU1@0@Z
	DD	01H
	ORG $+4
	DD	FLAT:??_C@_0BC@MMLDLJCA@GetFrequencyCount@
	DD	FLAT:?systemGetFrequencyCount@@YAPAU_object@@PAU1@0@Z
	DD	01H
	ORG $+4
	DD	FLAT:??_C@_0BF@GJHGOKBH@GetCurrentResolution@
	DD	FLAT:?systemGetCurrentResolution@@YAPAU_object@@PAU1@0@Z
	DD	01H
	ORG $+4
	DD	FLAT:??_C@_0O@MCJGAEI@GetResolution@
	DD	FLAT:?systemGetResolution@@YAPAU_object@@PAU1@0@Z
	DD	01H
	ORG $+4
	DD	FLAT:??_C@_0N@DEDCKOKK@GetFrequency@
	DD	FLAT:?systemGetFrequency@@YAPAU_object@@PAU1@0@Z
	DD	01H
	ORG $+4
	DD	FLAT:??_C@_0M@PHHLFDDI@ApplyConfig@
	DD	FLAT:?systemApplyConfig@@YAPAU_object@@PAU1@0@Z
	DD	01H
	ORG $+4
	DD	FLAT:??_C@_09KJAMEPBE@SetConfig@
	DD	FLAT:?systemSetConfig@@YAPAU_object@@PAU1@0@Z
	DD	01H
	ORG $+4
	DD	FLAT:??_C@_0L@IJAHDAKP@SaveConfig@
	DD	FLAT:?systemSaveConfig@@YAPAU_object@@PAU1@0@Z
	DD	01H
	ORG $+4
	DD	FLAT:??_C@_09IHEJGOIG@GetConfig@
	DD	FLAT:?systemGetConfig@@YAPAU_object@@PAU1@0@Z
	DD	01H
	ORG $+4
	DD	FLAT:??_C@_09DABJPAIG@SetSaveID@
	DD	FLAT:?systemSetSaveID@@YAPAU_object@@PAU1@0@Z
	DD	01H
	ORG $+4
	DD	FLAT:??_C@_08ILEIELBI@isSaveID@
	DD	FLAT:?systemisSaveID@@YAPAU_object@@PAU1@0@Z
	DD	01H
	ORG $+4
	DD	FLAT:??_C@_09BOFMNBBE@GetSaveID@
	DD	FLAT:?systemGetSaveID@@YAPAU_object@@PAU1@0@Z
	DD	01H
	ORG $+4
	DD	FLAT:??_C@_0P@HIIHPFML@GetMusicVolume@
	DD	FLAT:?systemGetMusicVolume@@YAPAU_object@@PAU1@0@Z
	DD	01H
	ORG $+4
	DD	FLAT:??_C@_0P@LCENEDPB@GetSoundVolume@
	DD	FLAT:?systemGetSoundVolume@@YAPAU_object@@PAU1@0@Z
	DD	01H
	ORG $+4
	DD	FLAT:??_C@_0P@LGJJAPOH@SetMusicVolume@
	DD	FLAT:?systemSetMusicVolume@@YAPAU_object@@PAU1@0@Z
	DD	01H
	ORG $+4
	DD	FLAT:??_C@_0BA@MLLJDBPB@SetSoundVolumef@
	DD	FLAT:?systemSetSoundVolumef@@YAPAU_object@@PAU1@0@Z
	DD	01H
	ORG $+4
	DD	FLAT:??_C@_0BB@BFMNFHIM@IsSoftwareCursor@
	DD	FLAT:?systemIsSoftwareCursor@@YAPAU_object@@PAU1@0@Z
	DD	01H
	ORG $+4
	DD	FLAT:??_C@_0BA@MFKECAML@SetViewChatFlag@
	DD	FLAT:?systemSetViewChatFlag@@YAPAU_object@@PAU1@0@Z
	DD	01H
	ORG $+4
	DD	FLAT:??_C@_0L@MGMBGKCF@IsViewChat@
	DD	FLAT:?systemIsViewChat@@YAPAU_object@@PAU1@0@Z
	DD	01H
	ORG $+4
	DD	FLAT:??_C@_0BG@GMBDCOC@SetAlwaysShowNameFlag@
	DD	FLAT:?systemSetAlwaysShowNameFlag@@YAPAU_object@@PAU1@0@Z
	DD	01H
	ORG $+4
	DD	FLAT:??_C@_0BB@NKNDCIFA@IsAlwaysShowName@
	DD	FLAT:?systemIsAlwaysShowName@@YAPAU_object@@PAU1@0@Z
	DD	01H
	ORG $+4
	DD	FLAT:??_C@_0BC@JHKGLKC@SetShowDamageFlag@
	DD	FLAT:?systemSetShowDamageFlag@@YAPAU_object@@PAU1@0@Z
	DD	01H
	ORG $+4
	DD	FLAT:??_C@_0N@FLKCLECP@IsShowDamage@
	DD	FLAT:?systemIsShowDamage@@YAPAU_object@@PAU1@0@Z
	DD	01H
	ORG $+4
	DD	FLAT:??_C@_0BF@IKKCKDDD@SetShowSalesTextFlag@
	DD	FLAT:?systemSetShowSalesTextFlag@@YAPAU_object@@PAU1@0@Z
	DD	01H
	ORG $+4
	DD	FLAT:??_C@_0BA@GPLIEFHC@IsShowSalesText@
	DD	FLAT:?systemIsShowSalesText@@YAPAU_object@@PAU1@0@Z
	DD	01H
	ORG $+4
	DD	FLAT:??_C@_0P@FFPBIDPG@GetShadowLevel@
	DD	FLAT:?systemGetShadowLevel@@YAPAU_object@@PAU1@0@Z
	DD	01H
	ORG $+4
	DD	FLAT:??_C@_0P@JLOPHJNK@SetShadowLevel@
	DD	FLAT:?systemSetShadowLevel@@YAPAU_object@@PAU1@0@Z
	DD	01H
	ORG $+4
	DD	00H
	DD	00H
	DD	00H
	ORG $+4
_DATA	ENDS
;	COMDAT ??_C@_0P@LEOBHMFL@WINDOW_MINIMAP@
CONST	SEGMENT
??_C@_0P@LEOBHMFL@WINDOW_MINIMAP@ DB 'WINDOW_MINIMAP', 00H ; `string'
CONST	ENDS
;	COMDAT ??_C@_0M@GHKKFINH@WINDOW_CHAT@
CONST	SEGMENT
??_C@_0M@GHKKFINH@WINDOW_CHAT@ DB 'WINDOW_CHAT', 00H	; `string'
CONST	ENDS
;	COMDAT ??_C@_0N@BOOBGFI@WINDOW_QUICK@
CONST	SEGMENT
??_C@_0N@BOOBGFI@WINDOW_QUICK@ DB 'WINDOW_QUICK', 00H	; `string'
CONST	ENDS
;	COMDAT ??_C@_0N@MCEEKLOJ@WINDOW_GAUGE@
CONST	SEGMENT
??_C@_0N@MCEEKLOJ@WINDOW_GAUGE@ DB 'WINDOW_GAUGE', 00H	; `string'
CONST	ENDS
;	COMDAT ??_C@_0P@FHBHOGAA@WINDOW_JOURNAL@
CONST	SEGMENT
??_C@_0P@FHBHOGAA@WINDOW_JOURNAL@ DB 'WINDOW_JOURNAL', 00H ; `string'
CONST	ENDS
;	COMDAT ??_C@_0P@NOILKAON@WINDOW_COMMAND@
CONST	SEGMENT
??_C@_0P@NOILKAON@WINDOW_COMMAND@ DB 'WINDOW_COMMAND', 00H ; `string'
CONST	ENDS
;	COMDAT ??_C@_0P@HAOBMPKD@WINDOW_ABILITY@
CONST	SEGMENT
??_C@_0P@HAOBMPKD@WINDOW_ABILITY@ DB 'WINDOW_ABILITY', 00H ; `string'
CONST	ENDS
;	COMDAT ??_C@_0P@MAFILJL@WINDOW_SOCIETY@
CONST	SEGMENT
??_C@_0P@MAFILJL@WINDOW_SOCIETY@ DB 'WINDOW_SOCIETY', 00H ; `string'
CONST	ENDS
;	COMDAT ??_C@_0O@EDOCFBFG@WINDOW_STATUS@
CONST	SEGMENT
??_C@_0O@EDOCFBFG@WINDOW_STATUS@ DB 'WINDOW_STATUS', 00H ; `string'
CONST	ENDS
;	COMDAT ??_C@_0BB@CHCHLBGG@WINDOW_INVENTORY@
CONST	SEGMENT
??_C@_0BB@CHCHLBGG@WINDOW_INVENTORY@ DB 'WINDOW_INVENTORY', 00H ; `string'
CONST	ENDS
;	COMDAT ??_C@_0P@FFPBIDPG@GetShadowLevel@
CONST	SEGMENT
??_C@_0P@FFPBIDPG@GetShadowLevel@ DB 'GetShadowLevel', 00H ; `string'
CONST	ENDS
;	COMDAT ??_C@_0O@LCPLIAAE@systemSetting@
CONST	SEGMENT
??_C@_0O@LCPLIAAE@systemSetting@ DB 'systemSetting', 00H ; `string'
CONST	ENDS
;	COMDAT ??_C@_0BF@IKKCKDDD@SetShowSalesTextFlag@
CONST	SEGMENT
??_C@_0BF@IKKCKDDD@SetShowSalesTextFlag@ DB 'SetShowSalesTextFlag', 00H ; `string'
CONST	ENDS
;	COMDAT ??_C@_0BA@GPLIEFHC@IsShowSalesText@
CONST	SEGMENT
??_C@_0BA@GPLIEFHC@IsShowSalesText@ DB 'IsShowSalesText', 00H ; `string'
CONST	ENDS
;	COMDAT ??_C@_0BC@JHKGLKC@SetShowDamageFlag@
CONST	SEGMENT
??_C@_0BC@JHKGLKC@SetShowDamageFlag@ DB 'SetShowDamageFlag', 00H ; `string'
CONST	ENDS
;	COMDAT ??_C@_0N@FLKCLECP@IsShowDamage@
CONST	SEGMENT
??_C@_0N@FLKCLECP@IsShowDamage@ DB 'IsShowDamage', 00H	; `string'
CONST	ENDS
;	COMDAT ??_C@_0BG@GMBDCOC@SetAlwaysShowNameFlag@
CONST	SEGMENT
??_C@_0BG@GMBDCOC@SetAlwaysShowNameFlag@ DB 'SetAlwaysShowNameFlag', 00H ; `string'
CONST	ENDS
;	COMDAT ??_C@_0BB@NKNDCIFA@IsAlwaysShowName@
CONST	SEGMENT
??_C@_0BB@NKNDCIFA@IsAlwaysShowName@ DB 'IsAlwaysShowName', 00H ; `string'
CONST	ENDS
;	COMDAT ??_C@_0BA@MFKECAML@SetViewChatFlag@
CONST	SEGMENT
??_C@_0BA@MFKECAML@SetViewChatFlag@ DB 'SetViewChatFlag', 00H ; `string'
CONST	ENDS
;	COMDAT ??_C@_0L@MGMBGKCF@IsViewChat@
CONST	SEGMENT
??_C@_0L@MGMBGKCF@IsViewChat@ DB 'IsViewChat', 00H	; `string'
CONST	ENDS
;	COMDAT ??_C@_0P@LCENEDPB@GetSoundVolume@
CONST	SEGMENT
??_C@_0P@LCENEDPB@GetSoundVolume@ DB 'GetSoundVolume', 00H ; `string'
CONST	ENDS
;	COMDAT ??_C@_0BB@BFMNFHIM@IsSoftwareCursor@
CONST	SEGMENT
??_C@_0BB@BFMNFHIM@IsSoftwareCursor@ DB 'IsSoftwareCursor', 00H ; `string'
CONST	ENDS
;	COMDAT ??_C@_09BOFMNBBE@GetSaveID@
CONST	SEGMENT
??_C@_09BOFMNBBE@GetSaveID@ DB 'GetSaveID', 00H		; `string'
CONST	ENDS
;	COMDAT ??_C@_0P@HIIHPFML@GetMusicVolume@
CONST	SEGMENT
??_C@_0P@HIIHPFML@GetMusicVolume@ DB 'GetMusicVolume', 00H ; `string'
CONST	ENDS
;	COMDAT ??_C@_09DABJPAIG@SetSaveID@
CONST	SEGMENT
??_C@_09DABJPAIG@SetSaveID@ DB 'SetSaveID', 00H		; `string'
CONST	ENDS
;	COMDAT ??_C@_08ILEIELBI@isSaveID@
CONST	SEGMENT
??_C@_08ILEIELBI@isSaveID@ DB 'isSaveID', 00H		; `string'
CONST	ENDS
;	COMDAT ??_C@_0L@IJAHDAKP@SaveConfig@
CONST	SEGMENT
??_C@_0L@IJAHDAKP@SaveConfig@ DB 'SaveConfig', 00H	; `string'
CONST	ENDS
;	COMDAT ??_C@_09IHEJGOIG@GetConfig@
CONST	SEGMENT
??_C@_09IHEJGOIG@GetConfig@ DB 'GetConfig', 00H		; `string'
CONST	ENDS
;	COMDAT ??_C@_0M@PHHLFDDI@ApplyConfig@
CONST	SEGMENT
??_C@_0M@PHHLFDDI@ApplyConfig@ DB 'ApplyConfig', 00H	; `string'
CONST	ENDS
;	COMDAT ??_C@_09KJAMEPBE@SetConfig@
CONST	SEGMENT
??_C@_09KJAMEPBE@SetConfig@ DB 'SetConfig', 00H		; `string'
CONST	ENDS
;	COMDAT ??_C@_0O@MCJGAEI@GetResolution@
CONST	SEGMENT
??_C@_0O@MCJGAEI@GetResolution@ DB 'GetResolution', 00H	; `string'
CONST	ENDS
;	COMDAT ??_C@_0N@DEDCKOKK@GetFrequency@
CONST	SEGMENT
??_C@_0N@DEDCKOKK@GetFrequency@ DB 'GetFrequency', 00H	; `string'
CONST	ENDS
;	COMDAT ??_C@_0BC@MMLDLJCA@GetFrequencyCount@
CONST	SEGMENT
??_C@_0BC@MMLDLJCA@GetFrequencyCount@ DB 'GetFrequencyCount', 00H ; `string'
CONST	ENDS
;	COMDAT ??_C@_0BF@GJHGOKBH@GetCurrentResolution@
CONST	SEGMENT
??_C@_0BF@GJHGOKBH@GetCurrentResolution@ DB 'GetCurrentResolution', 00H ; `string'
CONST	ENDS
;	COMDAT ??_C@_0BA@OIPDIACO@GetWindowStatus@
CONST	SEGMENT
??_C@_0BA@OIPDIACO@GetWindowStatus@ DB 'GetWindowStatus', 00H ; `string'
CONST	ENDS
;	COMDAT ??_C@_0BD@PNJEEMA@GetResolutionCount@
CONST	SEGMENT
??_C@_0BD@PNJEEMA@GetResolutionCount@ DB 'GetResolutionCount', 00H ; `string'
CONST	ENDS
;	COMDAT ??_C@_0BC@GGDBAEOO@isInterfaceConfig@
CONST	SEGMENT
??_C@_0BC@GGDBAEOO@isInterfaceConfig@ DB 'isInterfaceConfig', 00H ; `string'
CONST	ENDS
;	COMDAT ??_C@_0BB@DOCGKHHO@SaveWindowStatus@
CONST	SEGMENT
??_C@_0BB@DOCGKHHO@SaveWindowStatus@ DB 'SaveWindowStatus', 00H ; `string'
CONST	ENDS
;	COMDAT ??_C@_0BI@NBDOAHCB@DestroyInterfaceHandler@
CONST	SEGMENT
??_C@_0BI@NBDOAHCB@DestroyInterfaceHandler@ DB 'DestroyInterfaceHandler', 00H ; `string'
CONST	ENDS
;	COMDAT ??_C@_0BA@DGMEINM@ReserveResource@
CONST	SEGMENT
??_C@_0BA@DGMEINM@ReserveResource@ DB 'ReserveResource', 00H ; `string'
CONST	ENDS
;	COMDAT ??_C@_08OMBILDHM@GetWidth@
CONST	SEGMENT
??_C@_08OMBILDHM@GetWidth@ DB 'GetWidth', 00H		; `string'
CONST	ENDS
;	COMDAT ??_C@_0BE@LHLPPLCA@SetInterfaceHandler@
CONST	SEGMENT
??_C@_0BE@LHLPPLCA@SetInterfaceHandler@ DB 'SetInterfaceHandler', 00H ; `string'
CONST	ENDS
;	COMDAT ??_C@_05EAPDINDK@iiiii@
CONST	SEGMENT
??_C@_05EAPDINDK@iiiii@ DB 'iiiii', 00H			; `string'
CONST	ENDS
;	COMDAT ??_C@_08DGHCLNGO@iiiiiiii@
CONST	SEGMENT
??_C@_08DGHCLNGO@iiiiiiii@ DB 'iiiiiiii', 00H		; `string'
PUBLIC	?initsystem@@YAXXZ				; initsystem
PUBLIC	?systemSetShadowLevel@@YAPAU_object@@PAU1@0@Z	; systemSetShadowLevel
PUBLIC	?systemGetShadowLevel@@YAPAU_object@@PAU1@0@Z	; systemGetShadowLevel
PUBLIC	?systemGetFrequency@@YAPAU_object@@PAU1@0@Z	; systemGetFrequency
PUBLIC	?systemGetCurrentResolution@@YAPAU_object@@PAU1@0@Z ; systemGetCurrentResolution
PUBLIC	?systemGetResolution@@YAPAU_object@@PAU1@0@Z	; systemGetResolution
PUBLIC	?systemGetFrequencyCount@@YAPAU_object@@PAU1@0@Z ; systemGetFrequencyCount
PUBLIC	?systemGetResolutionCount@@YAPAU_object@@PAU1@0@Z ; systemGetResolutionCount
PUBLIC	?systemSaveConfig@@YAPAU_object@@PAU1@0@Z	; systemSaveConfig
PUBLIC	?systemApplyConfig@@YAPAU_object@@PAU1@0@Z	; systemApplyConfig
PUBLIC	?systemSetConfig@@YAPAU_object@@PAU1@0@Z	; systemSetConfig
PUBLIC	?systemIsShowSalesText@@YAPAU_object@@PAU1@0@Z	; systemIsShowSalesText
PUBLIC	?systemIsShowDamage@@YAPAU_object@@PAU1@0@Z	; systemIsShowDamage
PUBLIC	?systemIsAlwaysShowName@@YAPAU_object@@PAU1@0@Z	; systemIsAlwaysShowName
PUBLIC	?systemSetShowSalesTextFlag@@YAPAU_object@@PAU1@0@Z ; systemSetShowSalesTextFlag
PUBLIC	?systemSetShowDamageFlag@@YAPAU_object@@PAU1@0@Z ; systemSetShowDamageFlag
PUBLIC	?systemSetAlwaysShowNameFlag@@YAPAU_object@@PAU1@0@Z ; systemSetAlwaysShowNameFlag
PUBLIC	?systemIsViewChat@@YAPAU_object@@PAU1@0@Z	; systemIsViewChat
PUBLIC	?systemSetViewChatFlag@@YAPAU_object@@PAU1@0@Z	; systemSetViewChatFlag
PUBLIC	?systemIsSoftwareCursor@@YAPAU_object@@PAU1@0@Z	; systemIsSoftwareCursor
PUBLIC	?systemSetSoundVolumef@@YAPAU_object@@PAU1@0@Z	; systemSetSoundVolumef
PUBLIC	?systemSetMusicVolume@@YAPAU_object@@PAU1@0@Z	; systemSetMusicVolume
PUBLIC	?systemGetSoundVolume@@YAPAU_object@@PAU1@0@Z	; systemGetSoundVolume
PUBLIC	?systemGetMusicVolume@@YAPAU_object@@PAU1@0@Z	; systemGetMusicVolume
PUBLIC	?systemGetSaveID@@YAPAU_object@@PAU1@0@Z	; systemGetSaveID
PUBLIC	?systemisSaveID@@YAPAU_object@@PAU1@0@Z		; systemisSaveID
PUBLIC	?systemSetSaveID@@YAPAU_object@@PAU1@0@Z	; systemSetSaveID
PUBLIC	?systemGetConfig@@YAPAU_object@@PAU1@0@Z	; systemGetConfig
PUBLIC	?systemGetWindowStatus@@YAPAU_object@@PAU1@0@Z	; systemGetWindowStatus
PUBLIC	?systemSaveWindowStatus@@YAPAU_object@@PAU1@0@Z	; systemSaveWindowStatus
PUBLIC	?systemisInterfaceConfig@@YAPAU_object@@PAU1@0@Z ; systemisInterfaceConfig
PUBLIC	?systemReserveResource@@YAPAU_object@@PAU1@0@Z	; systemReserveResource
PUBLIC	?systemDestroyInterfaceHandler@@YAPAU_object@@PAU1@0@Z ; systemDestroyInterfaceHandler
PUBLIC	?systemSetInterfaceHandler@@YAPAU_object@@PAU1@0@Z ; systemSetInterfaceHandler
PUBLIC	?systemGetHeight@@YAPAU_object@@PAU1@0@Z	; systemGetHeight
PUBLIC	?systemGetWidth@@YAPAU_object@@PAU1@0@Z		; systemGetWidth
;	COMDAT xdata$x
xdata$x	SEGMENT
__ehfuncinfo$?systemReserveResource@@YAPAU_object@@PAU1@0@Z DD 019930522H
	DD	01H
	DD	FLAT:__unwindtable$?systemReserveResource@@YAPAU_object@@PAU1@0@Z
	DD	2 DUP(00H)
	DD	2 DUP(00H)
	DD	00H
	DD	01H
__unwindtable$?systemReserveResource@@YAPAU_object@@PAU1@0@Z DD 0ffffffffH
	DD	FLAT:__unwindfunclet$?systemReserveResource@@YAPAU_object@@PAU1@0@Z$0
; Function compile flags: /Ogtp
; File D:\_m2work\txoko-m2-work\txoko-client-src\source\UserInterface\PythonSystemModule.cpp
;	COMDAT ?systemGetWidth@@YAPAU_object@@PAU1@0@Z
_TEXT	SEGMENT
_poSelf$ = 8						; size = 4
_poArgs$ = 12						; size = 4
?systemGetWidth@@YAPAU_object@@PAU1@0@Z PROC		; systemGetWidth, COMDAT

; 6    : 	return Py_BuildValue("i", CPythonSystem::Instance().GetWidth());

  00000	8b 0d 00 00 00
	00		 mov	 ecx, DWORD PTR ?ms_singleton@?$CSingleton@VCPythonSystem@@@@0PAVCPythonSystem@@A ; CSingleton<CPythonSystem>::ms_singleton
  00006	e8 00 00 00 00	 call	 ?GetWidth@CPythonSystem@@QAEKXZ ; CPythonSystem::GetWidth
  0000b	50		 push	 eax
  0000c	68 00 00 00 00	 push	 OFFSET ??_C@_01KBJDNOO@i@
  00011	ff 15 00 00 00
	00		 call	 DWORD PTR __imp__Py_BuildValue
  00017	83 c4 08	 add	 esp, 8

; 7    : }

  0001a	c3		 ret	 0
?systemGetWidth@@YAPAU_object@@PAU1@0@Z ENDP		; systemGetWidth
_TEXT	ENDS
; Function compile flags: /Ogtp
; File D:\_m2work\txoko-m2-work\txoko-client-src\source\UserInterface\PythonSystemModule.cpp
;	COMDAT ?systemGetHeight@@YAPAU_object@@PAU1@0@Z
_TEXT	SEGMENT
_poSelf$ = 8						; size = 4
_poArgs$ = 12						; size = 4
?systemGetHeight@@YAPAU_object@@PAU1@0@Z PROC		; systemGetHeight, COMDAT

; 11   : 	return Py_BuildValue("i", CPythonSystem::Instance().GetHeight());

  00000	8b 0d 00 00 00
	00		 mov	 ecx, DWORD PTR ?ms_singleton@?$CSingleton@VCPythonSystem@@@@0PAVCPythonSystem@@A ; CSingleton<CPythonSystem>::ms_singleton
  00006	e8 00 00 00 00	 call	 ?GetHeight@CPythonSystem@@QAEKXZ ; CPythonSystem::GetHeight
  0000b	50		 push	 eax
  0000c	68 00 00 00 00	 push	 OFFSET ??_C@_01KBJDNOO@i@
  00011	ff 15 00 00 00
	00		 call	 DWORD PTR __imp__Py_BuildValue
  00017	83 c4 08	 add	 esp, 8

; 12   : }

  0001a	c3		 ret	 0
?systemGetHeight@@YAPAU_object@@PAU1@0@Z ENDP		; systemGetHeight
_TEXT	ENDS
; Function compile flags: /Ogtp
; File D:\_m2work\txoko-m2-work\txoko-client-src\source\UserInterface\PythonSystemModule.cpp
;	COMDAT ?systemSetInterfaceHandler@@YAPAU_object@@PAU1@0@Z
_TEXT	SEGMENT
_poHandler$ = -4					; size = 4
_poSelf$ = 8						; size = 4
_poArgs$ = 12						; size = 4
?systemSetInterfaceHandler@@YAPAU_object@@PAU1@0@Z PROC	; systemSetInterfaceHandler, COMDAT

; 15   : {

  00000	55		 push	 ebp
  00001	8b ec		 mov	 ebp, esp
  00003	51		 push	 ecx

; 16   : 	PyObject* poHandler;
; 17   : 	if (!PyTuple_GetObject(poArgs, 0, &poHandler))

  00004	8d 45 fc	 lea	 eax, DWORD PTR _poHandler$[ebp]
  00007	50		 push	 eax
  00008	6a 00		 push	 0
  0000a	ff 75 0c	 push	 DWORD PTR _poArgs$[ebp]
  0000d	e8 00 00 00 00	 call	 ?PyTuple_GetObject@@YA_NPAU_object@@HPAPAU1@@Z ; PyTuple_GetObject
  00012	83 c4 0c	 add	 esp, 12			; 0000000cH
  00015	84 c0		 test	 al, al
  00017	75 0e		 jne	 SHORT $LN2@systemSetI

; 18   : 		return Py_BuildException();

  00019	6a 00		 push	 0
  0001b	e8 00 00 00 00	 call	 ?Py_BuildException@@YAPAU_object@@PBDZZ ; Py_BuildException
  00020	83 c4 04	 add	 esp, 4

; 22   : }

  00023	8b e5		 mov	 esp, ebp
  00025	5d		 pop	 ebp
  00026	c3		 ret	 0
$LN2@systemSetI:

; 19   : 
; 20   : 	CPythonSystem::Instance().SetInterfaceHandler(poHandler);

  00027	ff 75 fc	 push	 DWORD PTR _poHandler$[ebp]
  0002a	8b 0d 00 00 00
	00		 mov	 ecx, DWORD PTR ?ms_singleton@?$CSingleton@VCPythonSystem@@@@0PAVCPythonSystem@@A ; CSingleton<CPythonSystem>::ms_singleton
  00030	e8 00 00 00 00	 call	 ?SetInterfaceHandler@CPythonSystem@@QAEXPAU_object@@@Z ; CPythonSystem::SetInterfaceHandler

; 21   : 	return Py_BuildNone();

  00035	e8 00 00 00 00	 call	 ?Py_BuildNone@@YAPAU_object@@XZ ; Py_BuildNone

; 22   : }

  0003a	8b e5		 mov	 esp, ebp
  0003c	5d		 pop	 ebp
  0003d	c3		 ret	 0
?systemSetInterfaceHandler@@YAPAU_object@@PAU1@0@Z ENDP	; systemSetInterfaceHandler
_TEXT	ENDS
; Function compile flags: /Ogtp
; File D:\_m2work\txoko-m2-work\txoko-client-src\source\UserInterface\PythonSystemModule.cpp
;	COMDAT ?systemDestroyInterfaceHandler@@YAPAU_object@@PAU1@0@Z
_TEXT	SEGMENT
_poSelf$ = 8						; size = 4
_poArgs$ = 12						; size = 4
?systemDestroyInterfaceHandler@@YAPAU_object@@PAU1@0@Z PROC ; systemDestroyInterfaceHandler, COMDAT

; 26   : 	CPythonSystem::Instance().DestroyInterfaceHandler();

  00000	8b 0d 00 00 00
	00		 mov	 ecx, DWORD PTR ?ms_singleton@?$CSingleton@VCPythonSystem@@@@0PAVCPythonSystem@@A ; CSingleton<CPythonSystem>::ms_singleton
  00006	e8 00 00 00 00	 call	 ?DestroyInterfaceHandler@CPythonSystem@@QAEXXZ ; CPythonSystem::DestroyInterfaceHandler

; 27   : 	return Py_BuildNone();

  0000b	e9 00 00 00 00	 jmp	 ?Py_BuildNone@@YAPAU_object@@XZ ; Py_BuildNone
?systemDestroyInterfaceHandler@@YAPAU_object@@PAU1@0@Z ENDP ; systemDestroyInterfaceHandler
_TEXT	ENDS
; Function compile flags: /Ogtp
; File D:\_m2work\txoko-m2-work\txoko-client-src\source\UserInterface\PythonSystemModule.cpp
; File C:\Program Files\Microsoft Visual Studio\2022\Community\VC\Tools\MSVC\14.44.35207\include\xtree
; File D:\_m2work\txoko-m2-work\txoko-client-src\source\UserInterface\PythonSystemModule.cpp
; File C:\Program Files\Microsoft Visual Studio\2022\Community\VC\Tools\MSVC\14.44.35207\include\xtree
; File D:\_m2work\txoko-m2-work\txoko-client-src\source\UserInterface\PythonSystemModule.cpp
; File C:\Program Files\Microsoft Visual Studio\2022\Community\VC\Tools\MSVC\14.44.35207\include\xtree
; File C:\Program Files\Microsoft Visual Studio\2022\Community\VC\Tools\MSVC\14.44.35207\include\xmemory
; File D:\_m2work\txoko-m2-work\txoko-client-src\source\UserInterface\PythonSystemModule.cpp
;	COMDAT ?systemReserveResource@@YAPAU_object@@PAU1@0@Z
_TEXT	SEGMENT
_ResourceSet$ = -20					; size = 8
__$EHRec$ = -12						; size = 12
_poSelf$ = 8						; size = 4
_poArgs$ = 12						; size = 4
?systemReserveResource@@YAPAU_object@@PAU1@0@Z PROC	; systemReserveResource, COMDAT

; 31   : {

  00000	55		 push	 ebp
  00001	8b ec		 mov	 ebp, esp
  00003	6a ff		 push	 -1
  00005	68 00 00 00 00	 push	 __ehhandler$?systemReserveResource@@YAPAU_object@@PAU1@0@Z
  0000a	64 a1 00 00 00
	00		 mov	 eax, DWORD PTR fs:0
  00010	50		 push	 eax
  00011	83 ec 08	 sub	 esp, 8
  00014	56		 push	 esi
  00015	a1 00 00 00 00	 mov	 eax, DWORD PTR ___security_cookie
  0001a	33 c5		 xor	 eax, ebp
  0001c	50		 push	 eax
  0001d	8d 45 f4	 lea	 eax, DWORD PTR __$EHRec$[ebp]
  00020	64 a3 00 00 00
	00		 mov	 DWORD PTR fs:0, eax
; File C:\Program Files\Microsoft Visual Studio\2022\Community\VC\Tools\MSVC\14.44.35207\include\xtree

; 345  :         const auto _Pnode = _Al.allocate(1);

  00026	6a 28		 push	 40			; 00000028H

; 450  :     _Tree_val() noexcept : _Myhead(), _Mysize(0) {}

  00028	c7 45 ec 00 00
	00 00		 mov	 DWORD PTR _ResourceSet$[ebp], 0
  0002f	c7 45 f0 00 00
	00 00		 mov	 DWORD PTR _ResourceSet$[ebp+4], 0

; 345  :         const auto _Pnode = _Al.allocate(1);

  00036	e8 00 00 00 00	 call	 ??2@YAPAXI@Z		; operator new
  0003b	83 c4 04	 add	 esp, 4

; 346  :         _Construct_in_place(_Pnode->_Left, _Pnode);

  0003e	89 00		 mov	 DWORD PTR [eax], eax

; 347  :         _Construct_in_place(_Pnode->_Parent, _Pnode);

  00040	89 40 04	 mov	 DWORD PTR [eax+4], eax

; 348  :         _Construct_in_place(_Pnode->_Right, _Pnode);

  00043	89 40 08	 mov	 DWORD PTR [eax+8], eax

; 349  :         _Pnode->_Color = _Black;

  00046	66 c7 40 0c 01
	01		 mov	 WORD PTR [eax+12], 257	; 00000101H

; 1957 :         _Scary->_Myhead = _Node::_Buyheadnode(_Getal());

  0004c	89 45 ec	 mov	 DWORD PTR _ResourceSet$[ebp], eax
; File D:\_m2work\txoko-m2-work\txoko-client-src\source\UserInterface\PythonSystemModule.cpp

; 33   : 	CResourceManager::Instance().PushBackgroundLoadingSet(ResourceSet);

  0004f	8d 45 ec	 lea	 eax, DWORD PTR _ResourceSet$[ebp]
  00052	c7 45 fc 00 00
	00 00		 mov	 DWORD PTR __$EHRec$[ebp+8], 0
  00059	8b 0d 00 00 00
	00		 mov	 ecx, DWORD PTR ?ms_singleton@?$CSingleton@VCResourceManager@@@@0PAVCResourceManager@@A ; CSingleton<CResourceManager>::ms_singleton
  0005f	50		 push	 eax
  00060	e8 00 00 00 00	 call	 ?PushBackgroundLoadingSet@CResourceManager@@QAEXAAV?$set@V?$basic_string@DU?$char_traits@D@std@@V?$allocator@D@2@@std@@U?$less@V?$basic_string@DU?$char_traits@D@std@@V?$allocator@D@2@@std@@@2@V?$allocator@V?$basic_string@DU?$char_traits@D@std@@V?$allocator@D@2@@std@@@2@@std@@@Z ; CResourceManager::PushBackgroundLoadingSet

; 34   : 	return Py_BuildNone();

  00065	e8 00 00 00 00	 call	 ?Py_BuildNone@@YAPAU_object@@XZ ; Py_BuildNone
; File C:\Program Files\Microsoft Visual Studio\2022\Community\VC\Tools\MSVC\14.44.35207\include\xtree

; 777  :         _Erase_tree(_Al, _Myhead->_Parent);

  0006a	8b 4d ec	 mov	 ecx, DWORD PTR _ResourceSet$[ebp]
; File D:\_m2work\txoko-m2-work\txoko-client-src\source\UserInterface\PythonSystemModule.cpp

; 34   : 	return Py_BuildNone();

  0006d	8b f0		 mov	 esi, eax
; File C:\Program Files\Microsoft Visual Studio\2022\Community\VC\Tools\MSVC\14.44.35207\include\xtree

; 777  :         _Erase_tree(_Al, _Myhead->_Parent);

  0006f	8d 45 ec	 lea	 eax, DWORD PTR _ResourceSet$[ebp]
  00072	ff 71 04	 push	 DWORD PTR [ecx+4]
  00075	8b c8		 mov	 ecx, eax
  00077	50		 push	 eax
  00078	e8 00 00 00 00	 call	 ??$_Erase_tree@V?$allocator@U?$_Tree_node@V?$basic_string@DU?$char_traits@D@std@@V?$allocator@D@2@@std@@PAX@std@@@std@@@?$_Tree_val@U?$_Tree_simple_types@V?$basic_string@DU?$char_traits@D@std@@V?$allocator@D@2@@std@@@std@@@std@@QAEXAAV?$allocator@U?$_Tree_node@V?$basic_string@DU?$char_traits@D@std@@V?$allocator@D@2@@std@@PAX@std@@@1@PAU?$_Tree_node@V?$basic_string@DU?$char_traits@D@std@@V?$allocator@D@2@@std@@PAX@1@@Z ; std::_Tree_val<std::_Tree_simple_types<std::basic_string<char,std::char_traits<char>,std::allocator<char> > > >::_Erase_tree<std::allocator<std::_Tree_node<std::basic_string<char,std::char_traits<char>,std::allocator<char> >,void *> > >
; File C:\Program Files\Microsoft Visual Studio\2022\Community\VC\Tools\MSVC\14.44.35207\include\xmemory

; 289  :         ::operator delete(_Ptr, _Bytes);

  0007d	6a 28		 push	 40			; 00000028H
  0007f	ff 75 ec	 push	 DWORD PTR _ResourceSet$[ebp]
  00082	e8 00 00 00 00	 call	 ??3@YAXPAXI@Z		; operator delete
  00087	83 c4 08	 add	 esp, 8
; File D:\_m2work\txoko-m2-work\txoko-client-src\source\UserInterface\PythonSystemModule.cpp

; 34   : 	return Py_BuildNone();

  0008a	8b c6		 mov	 eax, esi

; 35   : }

  0008c	8b 4d f4	 mov	 ecx, DWORD PTR __$EHRec$[ebp]
  0008f	64 89 0d 00 00
	00 00		 mov	 DWORD PTR fs:0, ecx
  00096	59		 pop	 ecx
  00097	5e		 pop	 esi
  00098	8b e5		 mov	 esp, ebp
  0009a	5d		 pop	 ebp
  0009b	c3		 ret	 0
_TEXT	ENDS
;	COMDAT text$x
text$x	SEGMENT
__unwindfunclet$?systemReserveResource@@YAPAU_object@@PAU1@0@Z$0:
  00000	8d 4d ec	 lea	 ecx, DWORD PTR _ResourceSet$[ebp]
  00003	e9 00 00 00 00	 jmp	 ??1?$set@V?$basic_string@DU?$char_traits@D@std@@V?$allocator@D@2@@std@@U?$less@V?$basic_string@DU?$char_traits@D@std@@V?$allocator@D@2@@std@@@2@V?$allocator@V?$basic_string@DU?$char_traits@D@std@@V?$allocator@D@2@@std@@@2@@std@@QAE@XZ
  00008	cc		 int	 3
  00009	cc		 int	 3
  0000a	cc		 int	 3
  0000b	cc		 int	 3
  0000c	cc		 int	 3
__ehhandler$?systemReserveResource@@YAPAU_object@@PAU1@0@Z:
  0000d	90		 npad	 1
  0000e	90		 npad	 1
  0000f	8b 54 24 08	 mov	 edx, DWORD PTR [esp+8]
  00013	8d 42 0c	 lea	 eax, DWORD PTR [edx+12]
  00016	8b 4a f0	 mov	 ecx, DWORD PTR [edx-16]
  00019	33 c8		 xor	 ecx, eax
  0001b	e8 00 00 00 00	 call	 @__security_check_cookie@4
  00020	b8 00 00 00 00	 mov	 eax, OFFSET __ehfuncinfo$?systemReserveResource@@YAPAU_object@@PAU1@0@Z
  00025	e9 00 00 00 00	 jmp	 ___CxxFrameHandler3
text$x	ENDS
?systemReserveResource@@YAPAU_object@@PAU1@0@Z ENDP	; systemReserveResource
; Function compile flags: /Ogtp
; File D:\_m2work\txoko-m2-work\txoko-client-src\source\UserInterface\PythonSystemModule.cpp
;	COMDAT ?systemisInterfaceConfig@@YAPAU_object@@PAU1@0@Z
_TEXT	SEGMENT
_poSelf$ = 8						; size = 4
_poArgs$ = 12						; size = 4
?systemisInterfaceConfig@@YAPAU_object@@PAU1@0@Z PROC	; systemisInterfaceConfig, COMDAT

; 39   : 	int isInterfaceConfig = CPythonSystem::Instance().isInterfaceConfig();

  00000	8b 0d 00 00 00
	00		 mov	 ecx, DWORD PTR ?ms_singleton@?$CSingleton@VCPythonSystem@@@@0PAVCPythonSystem@@A ; CSingleton<CPythonSystem>::ms_singleton
  00006	e8 00 00 00 00	 call	 ?isInterfaceConfig@CPythonSystem@@QAE_NXZ ; CPythonSystem::isInterfaceConfig
  0000b	0f b6 c0	 movzx	 eax, al

; 40   : 	return Py_BuildValue("i", isInterfaceConfig);

  0000e	50		 push	 eax
  0000f	68 00 00 00 00	 push	 OFFSET ??_C@_01KBJDNOO@i@
  00014	ff 15 00 00 00
	00		 call	 DWORD PTR __imp__Py_BuildValue
  0001a	83 c4 08	 add	 esp, 8

; 41   : }

  0001d	c3		 ret	 0
?systemisInterfaceConfig@@YAPAU_object@@PAU1@0@Z ENDP	; systemisInterfaceConfig
_TEXT	ENDS
; Function compile flags: /Ogtp
; File D:\_m2work\txoko-m2-work\txoko-client-src\source\UserInterface\PythonSystemModule.cpp
;	COMDAT ?systemSaveWindowStatus@@YAPAU_object@@PAU1@0@Z
_TEXT	SEGMENT
_iIndex$ = -24						; size = 4
_iVisible$ = -20					; size = 4
_iMinimized$ = -16					; size = 4
_ix$ = -12						; size = 4
_iy$ = -8						; size = 4
_iHeight$ = -4						; size = 4
_poSelf$ = 8						; size = 4
_poArgs$ = 12						; size = 4
?systemSaveWindowStatus@@YAPAU_object@@PAU1@0@Z PROC	; systemSaveWindowStatus, COMDAT

; 44   : {

  00000	55		 push	 ebp
  00001	8b ec		 mov	 ebp, esp
  00003	83 ec 18	 sub	 esp, 24			; 00000018H

; 45   : 	int iIndex;
; 46   : 	if (!PyTuple_GetInteger(poArgs, 0, &iIndex))

  00006	8d 45 e8	 lea	 eax, DWORD PTR _iIndex$[ebp]
  00009	56		 push	 esi
  0000a	8b 75 0c	 mov	 esi, DWORD PTR _poArgs$[ebp]
  0000d	50		 push	 eax
  0000e	6a 00		 push	 0
  00010	56		 push	 esi
  00011	e8 00 00 00 00	 call	 ?PyTuple_GetInteger@@YA_NPAU_object@@HPAH@Z ; PyTuple_GetInteger
  00016	83 c4 0c	 add	 esp, 12			; 0000000cH
  00019	84 c0		 test	 al, al
  0001b	75 0f		 jne	 SHORT $LN2@systemSave
$LN15@systemSave:

; 71   : }

  0001d	6a 00		 push	 0
  0001f	e8 00 00 00 00	 call	 ?Py_BuildException@@YAPAU_object@@PBDZZ ; Py_BuildException
  00024	83 c4 04	 add	 esp, 4
  00027	5e		 pop	 esi
  00028	8b e5		 mov	 esp, ebp
  0002a	5d		 pop	 ebp
  0002b	c3		 ret	 0
$LN2@systemSave:

; 47   : 		return Py_BuildException();
; 48   : 
; 49   : 	int iVisible;
; 50   : 	if (!PyTuple_GetInteger(poArgs, 1, &iVisible))

  0002c	8d 45 ec	 lea	 eax, DWORD PTR _iVisible$[ebp]
  0002f	50		 push	 eax
  00030	6a 01		 push	 1
  00032	56		 push	 esi
  00033	e8 00 00 00 00	 call	 ?PyTuple_GetInteger@@YA_NPAU_object@@HPAH@Z ; PyTuple_GetInteger
  00038	83 c4 0c	 add	 esp, 12			; 0000000cH
  0003b	84 c0		 test	 al, al
  0003d	74 de		 je	 SHORT $LN15@systemSave

; 51   : 		return Py_BuildException();
; 52   : 
; 53   : 	int iMinimized;
; 54   : 	if (!PyTuple_GetInteger(poArgs, 2, &iMinimized))

  0003f	8d 45 f0	 lea	 eax, DWORD PTR _iMinimized$[ebp]
  00042	50		 push	 eax
  00043	6a 02		 push	 2
  00045	56		 push	 esi
  00046	e8 00 00 00 00	 call	 ?PyTuple_GetInteger@@YA_NPAU_object@@HPAH@Z ; PyTuple_GetInteger
  0004b	83 c4 0c	 add	 esp, 12			; 0000000cH
  0004e	84 c0		 test	 al, al
  00050	74 cb		 je	 SHORT $LN15@systemSave

; 55   : 		return Py_BuildException();
; 56   : 
; 57   : 	int ix;
; 58   : 	if (!PyTuple_GetInteger(poArgs, 3, &ix))

  00052	8d 45 f4	 lea	 eax, DWORD PTR _ix$[ebp]
  00055	50		 push	 eax
  00056	6a 03		 push	 3
  00058	56		 push	 esi
  00059	e8 00 00 00 00	 call	 ?PyTuple_GetInteger@@YA_NPAU_object@@HPAH@Z ; PyTuple_GetInteger
  0005e	83 c4 0c	 add	 esp, 12			; 0000000cH
  00061	84 c0		 test	 al, al
  00063	74 b8		 je	 SHORT $LN15@systemSave

; 59   : 		return Py_BuildException();
; 60   : 
; 61   : 	int iy;
; 62   : 	if (!PyTuple_GetInteger(poArgs, 4, &iy))

  00065	8d 45 f8	 lea	 eax, DWORD PTR _iy$[ebp]
  00068	50		 push	 eax
  00069	6a 04		 push	 4
  0006b	56		 push	 esi
  0006c	e8 00 00 00 00	 call	 ?PyTuple_GetInteger@@YA_NPAU_object@@HPAH@Z ; PyTuple_GetInteger
  00071	83 c4 0c	 add	 esp, 12			; 0000000cH
  00074	84 c0		 test	 al, al
  00076	74 a5		 je	 SHORT $LN15@systemSave

; 63   : 		return Py_BuildException();
; 64   : 
; 65   : 	int iHeight;
; 66   : 	if (!PyTuple_GetInteger(poArgs, 5, &iHeight))

  00078	8d 45 fc	 lea	 eax, DWORD PTR _iHeight$[ebp]
  0007b	50		 push	 eax
  0007c	6a 05		 push	 5
  0007e	56		 push	 esi
  0007f	e8 00 00 00 00	 call	 ?PyTuple_GetInteger@@YA_NPAU_object@@HPAH@Z ; PyTuple_GetInteger
  00084	83 c4 0c	 add	 esp, 12			; 0000000cH
  00087	84 c0		 test	 al, al
  00089	74 92		 je	 SHORT $LN15@systemSave

; 67   : 		return Py_BuildException();
; 68   : 
; 69   : 	CPythonSystem::Instance().SaveWindowStatus(iIndex, iVisible, iMinimized, ix, iy, iHeight);

  0008b	ff 75 fc	 push	 DWORD PTR _iHeight$[ebp]
  0008e	8b 0d 00 00 00
	00		 mov	 ecx, DWORD PTR ?ms_singleton@?$CSingleton@VCPythonSystem@@@@0PAVCPythonSystem@@A ; CSingleton<CPythonSystem>::ms_singleton
  00094	ff 75 f8	 push	 DWORD PTR _iy$[ebp]
  00097	ff 75 f4	 push	 DWORD PTR _ix$[ebp]
  0009a	ff 75 f0	 push	 DWORD PTR _iMinimized$[ebp]
  0009d	ff 75 ec	 push	 DWORD PTR _iVisible$[ebp]
  000a0	ff 75 e8	 push	 DWORD PTR _iIndex$[ebp]
  000a3	e8 00 00 00 00	 call	 ?SaveWindowStatus@CPythonSystem@@QAEXHHHHHH@Z ; CPythonSystem::SaveWindowStatus

; 70   : 	return Py_BuildNone();

  000a8	e8 00 00 00 00	 call	 ?Py_BuildNone@@YAPAU_object@@XZ ; Py_BuildNone
  000ad	5e		 pop	 esi

; 71   : }

  000ae	8b e5		 mov	 esp, ebp
  000b0	5d		 pop	 ebp
  000b1	c3		 ret	 0
?systemSaveWindowStatus@@YAPAU_object@@PAU1@0@Z ENDP	; systemSaveWindowStatus
_TEXT	ENDS
; Function compile flags: /Ogtp
; File D:\_m2work\txoko-m2-work\txoko-client-src\source\UserInterface\PythonSystemModule.cpp
;	COMDAT ?systemGetWindowStatus@@YAPAU_object@@PAU1@0@Z
_TEXT	SEGMENT
_iIndex$ = -4						; size = 4
_poSelf$ = 8						; size = 4
_poArgs$ = 12						; size = 4
?systemGetWindowStatus@@YAPAU_object@@PAU1@0@Z PROC	; systemGetWindowStatus, COMDAT

; 74   : {

  00000	55		 push	 ebp
  00001	8b ec		 mov	 ebp, esp
  00003	51		 push	 ecx

; 75   : 	int iIndex;
; 76   : 	if (!PyTuple_GetInteger(poArgs, 0, &iIndex))

  00004	8d 45 fc	 lea	 eax, DWORD PTR _iIndex$[ebp]
  00007	50		 push	 eax
  00008	6a 00		 push	 0
  0000a	ff 75 0c	 push	 DWORD PTR _poArgs$[ebp]
  0000d	e8 00 00 00 00	 call	 ?PyTuple_GetInteger@@YA_NPAU_object@@HPAH@Z ; PyTuple_GetInteger
  00012	83 c4 0c	 add	 esp, 12			; 0000000cH
  00015	84 c0		 test	 al, al
  00017	75 0e		 jne	 SHORT $LN2@systemGetW

; 77   : 		return Py_BuildException();

  00019	6a 00		 push	 0
  0001b	e8 00 00 00 00	 call	 ?Py_BuildException@@YAPAU_object@@PBDZZ ; Py_BuildException
  00020	83 c4 04	 add	 esp, 4

; 81   : 								  c_rWindowStatus.isMinimized,
; 82   : 								  c_rWindowStatus.ixPosition,
; 83   : 								  c_rWindowStatus.iyPosition,
; 84   : 								  c_rWindowStatus.iHeight);
; 85   : }

  00023	8b e5		 mov	 esp, ebp
  00025	5d		 pop	 ebp
  00026	c3		 ret	 0
$LN2@systemGetW:

; 78   : 
; 79   : 	const CPythonSystem::TWindowStatus & c_rWindowStatus = CPythonSystem::Instance().GetWindowStatusReference(iIndex);

  00027	ff 75 fc	 push	 DWORD PTR _iIndex$[ebp]
  0002a	8b 0d 00 00 00
	00		 mov	 ecx, DWORD PTR ?ms_singleton@?$CSingleton@VCPythonSystem@@@@0PAVCPythonSystem@@A ; CSingleton<CPythonSystem>::ms_singleton
  00030	e8 00 00 00 00	 call	 ?GetWindowStatusReference@CPythonSystem@@QAEABUSWindowStatus@1@H@Z ; CPythonSystem::GetWindowStatusReference

; 80   : 	return Py_BuildValue("iiiii", c_rWindowStatus.isVisible,

  00035	ff 70 10	 push	 DWORD PTR [eax+16]
  00038	ff 70 0c	 push	 DWORD PTR [eax+12]
  0003b	ff 70 08	 push	 DWORD PTR [eax+8]
  0003e	ff 70 04	 push	 DWORD PTR [eax+4]
  00041	ff 30		 push	 DWORD PTR [eax]
  00043	68 00 00 00 00	 push	 OFFSET ??_C@_05EAPDINDK@iiiii@
  00048	ff 15 00 00 00
	00		 call	 DWORD PTR __imp__Py_BuildValue
  0004e	83 c4 18	 add	 esp, 24			; 00000018H

; 81   : 								  c_rWindowStatus.isMinimized,
; 82   : 								  c_rWindowStatus.ixPosition,
; 83   : 								  c_rWindowStatus.iyPosition,
; 84   : 								  c_rWindowStatus.iHeight);
; 85   : }

  00051	8b e5		 mov	 esp, ebp
  00053	5d		 pop	 ebp
  00054	c3		 ret	 0
?systemGetWindowStatus@@YAPAU_object@@PAU1@0@Z ENDP	; systemGetWindowStatus
_TEXT	ENDS
; Function compile flags: /Ogtp
; File D:\_m2work\txoko-m2-work\txoko-client-src\source\UserInterface\PythonSystemModule.cpp
;	COMDAT ?systemGetConfig@@YAPAU_object@@PAU1@0@Z
_TEXT	SEGMENT
_poSelf$ = 8						; size = 4
_poArgs$ = 12						; size = 4
?systemGetConfig@@YAPAU_object@@PAU1@0@Z PROC		; systemGetConfig, COMDAT

; 88   : {

  00000	53		 push	 ebx
  00001	56		 push	 esi

; 89   : 	CPythonSystem::TConfig *tmp = CPythonSystem::Instance().GetConfig();

  00002	8b 35 00 00 00
	00		 mov	 esi, DWORD PTR ?ms_singleton@?$CSingleton@VCPythonSystem@@@@0PAVCPythonSystem@@A ; CSingleton<CPythonSystem>::ms_singleton
  00008	8b ce		 mov	 ecx, esi
  0000a	57		 push	 edi
  0000b	e8 00 00 00 00	 call	 ?GetConfig@CPythonSystem@@QAEPAUSConfig@1@XZ ; CPythonSystem::GetConfig
  00010	8b d8		 mov	 ebx, eax

; 90   : 
; 91   : 	int iRes = CPythonSystem::Instance().GetResolutionIndex(tmp->width, tmp->height, tmp->bpp);

  00012	ff 73 08	 push	 DWORD PTR [ebx+8]
  00015	ff 73 04	 push	 DWORD PTR [ebx+4]
  00018	ff 33		 push	 DWORD PTR [ebx]
  0001a	e8 00 00 00 00	 call	 ?GetResolutionIndex@CPythonSystem@@QAEHKKK@Z ; CPythonSystem::GetResolutionIndex

; 92   : 	int iFrequency = CPythonSystem::Instance().GetFrequencyIndex(iRes, tmp->frequency);

  0001f	ff 73 0c	 push	 DWORD PTR [ebx+12]
  00022	8b f8		 mov	 edi, eax
  00024	8b ce		 mov	 ecx, esi
  00026	57		 push	 edi
  00027	e8 00 00 00 00	 call	 ?GetFrequencyIndex@CPythonSystem@@QAEHHK@Z ; CPythonSystem::GetFrequencyIndex

; 93   : 
; 94   : 	return Py_BuildValue("iiiiiiii",  iRes,

  0002c	ff 73 14	 push	 DWORD PTR [ebx+20]
  0002f	f3 0f 10 43 1c	 movss	 xmm0, DWORD PTR [ebx+28]
  00034	8b d0		 mov	 edx, eax
  00036	ff 73 24	 push	 DWORD PTR [ebx+36]
  00039	0f b6 4b 20	 movzx	 ecx, BYTE PTR [ebx+32]
  0003d	0f b6 43 11	 movzx	 eax, BYTE PTR [ebx+17]
  00041	51		 push	 ecx
  00042	83 ec 08	 sub	 esp, 8
  00045	0f 5a c0	 cvtps2pd xmm0, xmm0
  00048	f2 0f 11 04 24	 movsd	 QWORD PTR [esp], xmm0
  0004d	50		 push	 eax
  0004e	0f b6 43 10	 movzx	 eax, BYTE PTR [ebx+16]
  00052	50		 push	 eax
  00053	52		 push	 edx
  00054	57		 push	 edi
  00055	68 00 00 00 00	 push	 OFFSET ??_C@_08DGHCLNGO@iiiiiiii@
  0005a	ff 15 00 00 00
	00		 call	 DWORD PTR __imp__Py_BuildValue
  00060	83 c4 28	 add	 esp, 40			; 00000028H
  00063	5f		 pop	 edi
  00064	5e		 pop	 esi
  00065	5b		 pop	 ebx

; 95   : 									  iFrequency,
; 96   : 									  tmp->is_software_cursor,
; 97   : 									  tmp->is_object_culling,
; 98   : 									  tmp->music_volume,
; 99   : 									  tmp->voice_volume,
; 100  : 									  tmp->gamma,
; 101  : 									  tmp->iDistance);
; 102  : }

  00066	c3		 ret	 0
?systemGetConfig@@YAPAU_object@@PAU1@0@Z ENDP		; systemGetConfig
_TEXT	ENDS
; Function compile flags: /Ogtp
; File D:\_m2work\txoko-m2-work\txoko-client-src\source\UserInterface\PythonSystemModule.cpp
;	COMDAT ?systemSetSaveID@@YAPAU_object@@PAU1@0@Z
_TEXT	SEGMENT
_iValue$ = -8						; size = 4
_szSaveID$ = -4						; size = 4
_poSelf$ = 8						; size = 4
_poArgs$ = 12						; size = 4
?systemSetSaveID@@YAPAU_object@@PAU1@0@Z PROC		; systemSetSaveID, COMDAT

; 105  : {

  00000	55		 push	 ebp
  00001	8b ec		 mov	 ebp, esp
  00003	83 ec 08	 sub	 esp, 8

; 106  : 	int iValue;
; 107  : 	if (!PyTuple_GetInteger(poArgs, 0, &iValue))

  00006	8d 45 f8	 lea	 eax, DWORD PTR _iValue$[ebp]
  00009	50		 push	 eax
  0000a	6a 00		 push	 0
  0000c	ff 75 0c	 push	 DWORD PTR _poArgs$[ebp]
  0000f	e8 00 00 00 00	 call	 ?PyTuple_GetInteger@@YA_NPAU_object@@HPAH@Z ; PyTuple_GetInteger
  00014	83 c4 0c	 add	 esp, 12			; 0000000cH
  00017	84 c0		 test	 al, al
  00019	75 0e		 jne	 SHORT $LN2@systemSetS
$LN5@systemSetS:

; 116  : }

  0001b	6a 00		 push	 0
  0001d	e8 00 00 00 00	 call	 ?Py_BuildException@@YAPAU_object@@PBDZZ ; Py_BuildException
  00022	83 c4 04	 add	 esp, 4
  00025	8b e5		 mov	 esp, ebp
  00027	5d		 pop	 ebp
  00028	c3		 ret	 0
$LN2@systemSetS:

; 108  : 		return Py_BuildException();
; 109  : 
; 110  : 	char * szSaveID;
; 111  : 	if (!PyTuple_GetString(poArgs, 1, &szSaveID))

  00029	8d 45 fc	 lea	 eax, DWORD PTR _szSaveID$[ebp]
  0002c	50		 push	 eax
  0002d	6a 01		 push	 1
  0002f	ff 75 0c	 push	 DWORD PTR _poArgs$[ebp]
  00032	e8 00 00 00 00	 call	 ?PyTuple_GetString@@YA_NPAU_object@@HPAPAD@Z ; PyTuple_GetString
  00037	83 c4 0c	 add	 esp, 12			; 0000000cH
  0003a	84 c0		 test	 al, al
  0003c	74 dd		 je	 SHORT $LN5@systemSetS

; 112  : 		return Py_BuildException();
; 113  : 
; 114  : 	CPythonSystem::Instance().SetSaveID(iValue, szSaveID);

  0003e	ff 75 fc	 push	 DWORD PTR _szSaveID$[ebp]
  00041	8b 0d 00 00 00
	00		 mov	 ecx, DWORD PTR ?ms_singleton@?$CSingleton@VCPythonSystem@@@@0PAVCPythonSystem@@A ; CSingleton<CPythonSystem>::ms_singleton
  00047	ff 75 f8	 push	 DWORD PTR _iValue$[ebp]
  0004a	e8 00 00 00 00	 call	 ?SetSaveID@CPythonSystem@@QAEXHPBD@Z ; CPythonSystem::SetSaveID

; 115  : 	return Py_BuildNone();

  0004f	e8 00 00 00 00	 call	 ?Py_BuildNone@@YAPAU_object@@XZ ; Py_BuildNone

; 116  : }

  00054	8b e5		 mov	 esp, ebp
  00056	5d		 pop	 ebp
  00057	c3		 ret	 0
?systemSetSaveID@@YAPAU_object@@PAU1@0@Z ENDP		; systemSetSaveID
_TEXT	ENDS
; Function compile flags: /Ogtp
; File D:\_m2work\txoko-m2-work\txoko-client-src\source\UserInterface\PythonSystemModule.cpp
;	COMDAT ?systemisSaveID@@YAPAU_object@@PAU1@0@Z
_TEXT	SEGMENT
_poSelf$ = 8						; size = 4
_poArgs$ = 12						; size = 4
?systemisSaveID@@YAPAU_object@@PAU1@0@Z PROC		; systemisSaveID, COMDAT

; 120  : 	int value = CPythonSystem::Instance().IsSaveID();

  00000	8b 0d 00 00 00
	00		 mov	 ecx, DWORD PTR ?ms_singleton@?$CSingleton@VCPythonSystem@@@@0PAVCPythonSystem@@A ; CSingleton<CPythonSystem>::ms_singleton
  00006	e8 00 00 00 00	 call	 ?IsSaveID@CPythonSystem@@QAEHXZ ; CPythonSystem::IsSaveID

; 121  : 	return Py_BuildValue("i", value);

  0000b	50		 push	 eax
  0000c	68 00 00 00 00	 push	 OFFSET ??_C@_01KBJDNOO@i@
  00011	ff 15 00 00 00
	00		 call	 DWORD PTR __imp__Py_BuildValue
  00017	83 c4 08	 add	 esp, 8

; 122  : }

  0001a	c3		 ret	 0
?systemisSaveID@@YAPAU_object@@PAU1@0@Z ENDP		; systemisSaveID
_TEXT	ENDS
; Function compile flags: /Ogtp
; File D:\_m2work\txoko-m2-work\txoko-client-src\source\UserInterface\PythonSystemModule.cpp
;	COMDAT ?systemGetSaveID@@YAPAU_object@@PAU1@0@Z
_TEXT	SEGMENT
_poSelf$ = 8						; size = 4
_poArgs$ = 12						; size = 4
?systemGetSaveID@@YAPAU_object@@PAU1@0@Z PROC		; systemGetSaveID, COMDAT

; 126  : 	const char * c_szSaveID = CPythonSystem::Instance().GetSaveID();

  00000	8b 0d 00 00 00
	00		 mov	 ecx, DWORD PTR ?ms_singleton@?$CSingleton@VCPythonSystem@@@@0PAVCPythonSystem@@A ; CSingleton<CPythonSystem>::ms_singleton
  00006	e8 00 00 00 00	 call	 ?GetSaveID@CPythonSystem@@QAEPBDXZ ; CPythonSystem::GetSaveID

; 127  : 	return Py_BuildValue("s", c_szSaveID);

  0000b	50		 push	 eax
  0000c	68 00 00 00 00	 push	 OFFSET ??_C@_01LKDEMHDF@s@
  00011	ff 15 00 00 00
	00		 call	 DWORD PTR __imp__Py_BuildValue
  00017	83 c4 08	 add	 esp, 8

; 128  : }

  0001a	c3		 ret	 0
?systemGetSaveID@@YAPAU_object@@PAU1@0@Z ENDP		; systemGetSaveID
_TEXT	ENDS
; Function compile flags: /Ogtp
; File D:\_m2work\txoko-m2-work\txoko-client-src\source\UserInterface\PythonSystemModule.cpp
;	COMDAT ?systemGetMusicVolume@@YAPAU_object@@PAU1@0@Z
_TEXT	SEGMENT
_poSelf$ = 8						; size = 4
_poArgs$ = 12						; size = 4
?systemGetMusicVolume@@YAPAU_object@@PAU1@0@Z PROC	; systemGetMusicVolume, COMDAT

; 132  : 	return Py_BuildValue("f", CPythonSystem::Instance().GetMusicVolume());

  00000	8b 0d 00 00 00
	00		 mov	 ecx, DWORD PTR ?ms_singleton@?$CSingleton@VCPythonSystem@@@@0PAVCPythonSystem@@A ; CSingleton<CPythonSystem>::ms_singleton
  00006	e8 00 00 00 00	 call	 ?GetMusicVolume@CPythonSystem@@QAEMXZ ; CPythonSystem::GetMusicVolume
  0000b	f3 0f 5a c0	 cvtss2sd xmm0, xmm0
  0000f	83 ec 08	 sub	 esp, 8
  00012	f2 0f 11 04 24	 movsd	 QWORD PTR [esp], xmm0
  00017	68 00 00 00 00	 push	 OFFSET ??_C@_01INIBCBCB@f@
  0001c	ff 15 00 00 00
	00		 call	 DWORD PTR __imp__Py_BuildValue
  00022	83 c4 0c	 add	 esp, 12			; 0000000cH

; 133  : }

  00025	c3		 ret	 0
?systemGetMusicVolume@@YAPAU_object@@PAU1@0@Z ENDP	; systemGetMusicVolume
_TEXT	ENDS
; Function compile flags: /Ogtp
; File D:\_m2work\txoko-m2-work\txoko-client-src\source\UserInterface\PythonSystemModule.cpp
;	COMDAT ?systemGetSoundVolume@@YAPAU_object@@PAU1@0@Z
_TEXT	SEGMENT
_poSelf$ = 8						; size = 4
_poArgs$ = 12						; size = 4
?systemGetSoundVolume@@YAPAU_object@@PAU1@0@Z PROC	; systemGetSoundVolume, COMDAT

; 137  : 	return Py_BuildValue("i", CPythonSystem::Instance().GetSoundVolume());

  00000	8b 0d 00 00 00
	00		 mov	 ecx, DWORD PTR ?ms_singleton@?$CSingleton@VCPythonSystem@@@@0PAVCPythonSystem@@A ; CSingleton<CPythonSystem>::ms_singleton
  00006	e8 00 00 00 00	 call	 ?GetSoundVolume@CPythonSystem@@QAEHXZ ; CPythonSystem::GetSoundVolume
  0000b	50		 push	 eax
  0000c	68 00 00 00 00	 push	 OFFSET ??_C@_01KBJDNOO@i@
  00011	ff 15 00 00 00
	00		 call	 DWORD PTR __imp__Py_BuildValue
  00017	83 c4 08	 add	 esp, 8

; 138  : }

  0001a	c3		 ret	 0
?systemGetSoundVolume@@YAPAU_object@@PAU1@0@Z ENDP	; systemGetSoundVolume
_TEXT	ENDS
; Function compile flags: /Ogtp
; File D:\_m2work\txoko-m2-work\txoko-client-src\source\UserInterface\PythonSystemModule.cpp
;	COMDAT ?systemSetMusicVolume@@YAPAU_object@@PAU1@0@Z
_TEXT	SEGMENT
_fVolume$ = -4						; size = 4
_poSelf$ = 8						; size = 4
_poArgs$ = 12						; size = 4
?systemSetMusicVolume@@YAPAU_object@@PAU1@0@Z PROC	; systemSetMusicVolume, COMDAT

; 141  : {

  00000	55		 push	 ebp
  00001	8b ec		 mov	 ebp, esp
  00003	51		 push	 ecx

; 142  : 	float fVolume;
; 143  : 	if (!PyTuple_GetFloat(poArgs, 0, &fVolume))

  00004	8d 45 fc	 lea	 eax, DWORD PTR _fVolume$[ebp]
  00007	50		 push	 eax
  00008	6a 00		 push	 0
  0000a	ff 75 0c	 push	 DWORD PTR _poArgs$[ebp]
  0000d	e8 00 00 00 00	 call	 ?PyTuple_GetFloat@@YA_NPAU_object@@HPAM@Z ; PyTuple_GetFloat
  00012	83 c4 0c	 add	 esp, 12			; 0000000cH
  00015	84 c0		 test	 al, al
  00017	75 0e		 jne	 SHORT $LN2@systemSetM

; 144  : 		return Py_BuildException();

  00019	6a 00		 push	 0
  0001b	e8 00 00 00 00	 call	 ?Py_BuildException@@YAPAU_object@@PBDZZ ; Py_BuildException
  00020	83 c4 04	 add	 esp, 4

; 148  : }

  00023	8b e5		 mov	 esp, ebp
  00025	5d		 pop	 ebp
  00026	c3		 ret	 0
$LN2@systemSetM:

; 145  : 
; 146  : 	CPythonSystem::Instance().SetMusicVolume(fVolume);

  00027	f3 0f 10 4d fc	 movss	 xmm1, DWORD PTR _fVolume$[ebp]
  0002c	8b 0d 00 00 00
	00		 mov	 ecx, DWORD PTR ?ms_singleton@?$CSingleton@VCPythonSystem@@@@0PAVCPythonSystem@@A ; CSingleton<CPythonSystem>::ms_singleton
  00032	e8 00 00 00 00	 call	 ?SetMusicVolume@CPythonSystem@@QAEXM@Z ; CPythonSystem::SetMusicVolume

; 147  : 	return Py_BuildNone();

  00037	e8 00 00 00 00	 call	 ?Py_BuildNone@@YAPAU_object@@XZ ; Py_BuildNone

; 148  : }

  0003c	8b e5		 mov	 esp, ebp
  0003e	5d		 pop	 ebp
  0003f	c3		 ret	 0
?systemSetMusicVolume@@YAPAU_object@@PAU1@0@Z ENDP	; systemSetMusicVolume
_TEXT	ENDS
; Function compile flags: /Ogtp
; File D:\_m2work\txoko-m2-work\txoko-client-src\source\UserInterface\PythonSystemModule.cpp
;	COMDAT ?systemSetSoundVolumef@@YAPAU_object@@PAU1@0@Z
_TEXT	SEGMENT
_fVolume$ = -4						; size = 4
_poSelf$ = 8						; size = 4
_poArgs$ = 12						; size = 4
?systemSetSoundVolumef@@YAPAU_object@@PAU1@0@Z PROC	; systemSetSoundVolumef, COMDAT

; 151  : {

  00000	55		 push	 ebp
  00001	8b ec		 mov	 ebp, esp
  00003	51		 push	 ecx

; 152  : 	float fVolume;
; 153  : 	if (!PyTuple_GetFloat(poArgs, 0, &fVolume))

  00004	8d 45 fc	 lea	 eax, DWORD PTR _fVolume$[ebp]
  00007	50		 push	 eax
  00008	6a 00		 push	 0
  0000a	ff 75 0c	 push	 DWORD PTR _poArgs$[ebp]
  0000d	e8 00 00 00 00	 call	 ?PyTuple_GetFloat@@YA_NPAU_object@@HPAM@Z ; PyTuple_GetFloat
  00012	83 c4 0c	 add	 esp, 12			; 0000000cH
  00015	84 c0		 test	 al, al
  00017	75 0e		 jne	 SHORT $LN2@systemSetS

; 154  : 		return Py_BuildException();

  00019	6a 00		 push	 0
  0001b	e8 00 00 00 00	 call	 ?Py_BuildException@@YAPAU_object@@PBDZZ ; Py_BuildException
  00020	83 c4 04	 add	 esp, 4

; 158  : }

  00023	8b e5		 mov	 esp, ebp
  00025	5d		 pop	 ebp
  00026	c3		 ret	 0
$LN2@systemSetS:

; 155  : 
; 156  : 	CPythonSystem::Instance().SetSoundVolumef(fVolume);

  00027	f3 0f 10 4d fc	 movss	 xmm1, DWORD PTR _fVolume$[ebp]
  0002c	8b 0d 00 00 00
	00		 mov	 ecx, DWORD PTR ?ms_singleton@?$CSingleton@VCPythonSystem@@@@0PAVCPythonSystem@@A ; CSingleton<CPythonSystem>::ms_singleton
  00032	e8 00 00 00 00	 call	 ?SetSoundVolumef@CPythonSystem@@QAEXM@Z ; CPythonSystem::SetSoundVolumef

; 157  : 	return Py_BuildNone();

  00037	e8 00 00 00 00	 call	 ?Py_BuildNone@@YAPAU_object@@XZ ; Py_BuildNone

; 158  : }

  0003c	8b e5		 mov	 esp, ebp
  0003e	5d		 pop	 ebp
  0003f	c3		 ret	 0
?systemSetSoundVolumef@@YAPAU_object@@PAU1@0@Z ENDP	; systemSetSoundVolumef
_TEXT	ENDS
; Function compile flags: /Ogtp
; File D:\_m2work\txoko-m2-work\txoko-client-src\source\UserInterface\PythonSystemModule.cpp
;	COMDAT ?systemIsSoftwareCursor@@YAPAU_object@@PAU1@0@Z
_TEXT	SEGMENT
_poSelf$ = 8						; size = 4
_poArgs$ = 12						; size = 4
?systemIsSoftwareCursor@@YAPAU_object@@PAU1@0@Z PROC	; systemIsSoftwareCursor, COMDAT

; 162  : 	return Py_BuildValue("i", CPythonSystem::Instance().IsSoftwareCursor());

  00000	8b 0d 00 00 00
	00		 mov	 ecx, DWORD PTR ?ms_singleton@?$CSingleton@VCPythonSystem@@@@0PAVCPythonSystem@@A ; CSingleton<CPythonSystem>::ms_singleton
  00006	e8 00 00 00 00	 call	 ?IsSoftwareCursor@CPythonSystem@@QAE_NXZ ; CPythonSystem::IsSoftwareCursor
  0000b	0f b6 c0	 movzx	 eax, al
  0000e	50		 push	 eax
  0000f	68 00 00 00 00	 push	 OFFSET ??_C@_01KBJDNOO@i@
  00014	ff 15 00 00 00
	00		 call	 DWORD PTR __imp__Py_BuildValue
  0001a	83 c4 08	 add	 esp, 8

; 163  : }

  0001d	c3		 ret	 0
?systemIsSoftwareCursor@@YAPAU_object@@PAU1@0@Z ENDP	; systemIsSoftwareCursor
_TEXT	ENDS
; Function compile flags: /Ogtp
; File D:\_m2work\txoko-m2-work\txoko-client-src\source\UserInterface\PythonSystemModule.cpp
;	COMDAT ?systemSetViewChatFlag@@YAPAU_object@@PAU1@0@Z
_TEXT	SEGMENT
_iFlag$ = -4						; size = 4
_poSelf$ = 8						; size = 4
_poArgs$ = 12						; size = 4
?systemSetViewChatFlag@@YAPAU_object@@PAU1@0@Z PROC	; systemSetViewChatFlag, COMDAT

; 166  : {

  00000	55		 push	 ebp
  00001	8b ec		 mov	 ebp, esp
  00003	51		 push	 ecx

; 167  : 	int iFlag;
; 168  : 	if (!PyTuple_GetInteger(poArgs, 0, &iFlag))

  00004	8d 45 fc	 lea	 eax, DWORD PTR _iFlag$[ebp]
  00007	50		 push	 eax
  00008	6a 00		 push	 0
  0000a	ff 75 0c	 push	 DWORD PTR _poArgs$[ebp]
  0000d	e8 00 00 00 00	 call	 ?PyTuple_GetInteger@@YA_NPAU_object@@HPAH@Z ; PyTuple_GetInteger
  00012	83 c4 0c	 add	 esp, 12			; 0000000cH
  00015	84 c0		 test	 al, al
  00017	75 0e		 jne	 SHORT $LN2@systemSetV

; 169  : 		return Py_BuildException();

  00019	6a 00		 push	 0
  0001b	e8 00 00 00 00	 call	 ?Py_BuildException@@YAPAU_object@@PBDZZ ; Py_BuildException
  00020	83 c4 04	 add	 esp, 4

; 174  : }

  00023	8b e5		 mov	 esp, ebp
  00025	5d		 pop	 ebp
  00026	c3		 ret	 0
$LN2@systemSetV:

; 170  : 
; 171  : 	CPythonSystem::Instance().SetViewChatFlag(iFlag);

  00027	ff 75 fc	 push	 DWORD PTR _iFlag$[ebp]
  0002a	8b 0d 00 00 00
	00		 mov	 ecx, DWORD PTR ?ms_singleton@?$CSingleton@VCPythonSystem@@@@0PAVCPythonSystem@@A ; CSingleton<CPythonSystem>::ms_singleton
  00030	e8 00 00 00 00	 call	 ?SetViewChatFlag@CPythonSystem@@QAEXH@Z ; CPythonSystem::SetViewChatFlag

; 172  : 
; 173  : 	return Py_BuildNone();

  00035	e8 00 00 00 00	 call	 ?Py_BuildNone@@YAPAU_object@@XZ ; Py_BuildNone

; 174  : }

  0003a	8b e5		 mov	 esp, ebp
  0003c	5d		 pop	 ebp
  0003d	c3		 ret	 0
?systemSetViewChatFlag@@YAPAU_object@@PAU1@0@Z ENDP	; systemSetViewChatFlag
_TEXT	ENDS
; Function compile flags: /Ogtp
; File D:\_m2work\txoko-m2-work\txoko-client-src\source\UserInterface\PythonSystemModule.cpp
;	COMDAT ?systemIsViewChat@@YAPAU_object@@PAU1@0@Z
_TEXT	SEGMENT
_poSelf$ = 8						; size = 4
_poArgs$ = 12						; size = 4
?systemIsViewChat@@YAPAU_object@@PAU1@0@Z PROC		; systemIsViewChat, COMDAT

; 178  : 	return Py_BuildValue("i", CPythonSystem::Instance().IsViewChat());

  00000	8b 0d 00 00 00
	00		 mov	 ecx, DWORD PTR ?ms_singleton@?$CSingleton@VCPythonSystem@@@@0PAVCPythonSystem@@A ; CSingleton<CPythonSystem>::ms_singleton
  00006	e8 00 00 00 00	 call	 ?IsViewChat@CPythonSystem@@QAE_NXZ ; CPythonSystem::IsViewChat
  0000b	0f b6 c0	 movzx	 eax, al
  0000e	50		 push	 eax
  0000f	68 00 00 00 00	 push	 OFFSET ??_C@_01KBJDNOO@i@
  00014	ff 15 00 00 00
	00		 call	 DWORD PTR __imp__Py_BuildValue
  0001a	83 c4 08	 add	 esp, 8

; 179  : }

  0001d	c3		 ret	 0
?systemIsViewChat@@YAPAU_object@@PAU1@0@Z ENDP		; systemIsViewChat
_TEXT	ENDS
; Function compile flags: /Ogtp
; File D:\_m2work\txoko-m2-work\txoko-client-src\source\UserInterface\PythonSystemModule.cpp
;	COMDAT ?systemSetAlwaysShowNameFlag@@YAPAU_object@@PAU1@0@Z
_TEXT	SEGMENT
_iFlag$ = -4						; size = 4
_poSelf$ = 8						; size = 4
_poArgs$ = 12						; size = 4
?systemSetAlwaysShowNameFlag@@YAPAU_object@@PAU1@0@Z PROC ; systemSetAlwaysShowNameFlag, COMDAT

; 182  : {

  00000	55		 push	 ebp
  00001	8b ec		 mov	 ebp, esp
  00003	51		 push	 ecx

; 183  : 	int iFlag;
; 184  : 	if (!PyTuple_GetInteger(poArgs, 0, &iFlag))

  00004	8d 45 fc	 lea	 eax, DWORD PTR _iFlag$[ebp]
  00007	50		 push	 eax
  00008	6a 00		 push	 0
  0000a	ff 75 0c	 push	 DWORD PTR _poArgs$[ebp]
  0000d	e8 00 00 00 00	 call	 ?PyTuple_GetInteger@@YA_NPAU_object@@HPAH@Z ; PyTuple_GetInteger
  00012	83 c4 0c	 add	 esp, 12			; 0000000cH
  00015	84 c0		 test	 al, al
  00017	75 0e		 jne	 SHORT $LN2@systemSetA

; 185  : 		return Py_BuildException();

  00019	6a 00		 push	 0
  0001b	e8 00 00 00 00	 call	 ?Py_BuildException@@YAPAU_object@@PBDZZ ; Py_BuildException
  00020	83 c4 04	 add	 esp, 4

; 190  : }

  00023	8b e5		 mov	 esp, ebp
  00025	5d		 pop	 ebp
  00026	c3		 ret	 0
$LN2@systemSetA:

; 186  : 
; 187  : 	CPythonSystem::Instance().SetAlwaysShowNameFlag(iFlag);

  00027	ff 75 fc	 push	 DWORD PTR _iFlag$[ebp]
  0002a	8b 0d 00 00 00
	00		 mov	 ecx, DWORD PTR ?ms_singleton@?$CSingleton@VCPythonSystem@@@@0PAVCPythonSystem@@A ; CSingleton<CPythonSystem>::ms_singleton
  00030	e8 00 00 00 00	 call	 ?SetAlwaysShowNameFlag@CPythonSystem@@QAEXH@Z ; CPythonSystem::SetAlwaysShowNameFlag

; 188  : 
; 189  : 	return Py_BuildNone();

  00035	e8 00 00 00 00	 call	 ?Py_BuildNone@@YAPAU_object@@XZ ; Py_BuildNone

; 190  : }

  0003a	8b e5		 mov	 esp, ebp
  0003c	5d		 pop	 ebp
  0003d	c3		 ret	 0
?systemSetAlwaysShowNameFlag@@YAPAU_object@@PAU1@0@Z ENDP ; systemSetAlwaysShowNameFlag
_TEXT	ENDS
; Function compile flags: /Ogtp
; File D:\_m2work\txoko-m2-work\txoko-client-src\source\UserInterface\PythonSystemModule.cpp
;	COMDAT ?systemSetShowDamageFlag@@YAPAU_object@@PAU1@0@Z
_TEXT	SEGMENT
_iFlag$ = -4						; size = 4
_poSelf$ = 8						; size = 4
_poArgs$ = 12						; size = 4
?systemSetShowDamageFlag@@YAPAU_object@@PAU1@0@Z PROC	; systemSetShowDamageFlag, COMDAT

; 193  : {

  00000	55		 push	 ebp
  00001	8b ec		 mov	 ebp, esp
  00003	51		 push	 ecx

; 194  : 	int iFlag;
; 195  : 	if (!PyTuple_GetInteger(poArgs, 0, &iFlag))

  00004	8d 45 fc	 lea	 eax, DWORD PTR _iFlag$[ebp]
  00007	50		 push	 eax
  00008	6a 00		 push	 0
  0000a	ff 75 0c	 push	 DWORD PTR _poArgs$[ebp]
  0000d	e8 00 00 00 00	 call	 ?PyTuple_GetInteger@@YA_NPAU_object@@HPAH@Z ; PyTuple_GetInteger
  00012	83 c4 0c	 add	 esp, 12			; 0000000cH
  00015	84 c0		 test	 al, al
  00017	75 0e		 jne	 SHORT $LN2@systemSetS

; 196  : 		return Py_BuildException();

  00019	6a 00		 push	 0
  0001b	e8 00 00 00 00	 call	 ?Py_BuildException@@YAPAU_object@@PBDZZ ; Py_BuildException
  00020	83 c4 04	 add	 esp, 4

; 201  : }

  00023	8b e5		 mov	 esp, ebp
  00025	5d		 pop	 ebp
  00026	c3		 ret	 0
$LN2@systemSetS:

; 197  : 
; 198  : 	CPythonSystem::Instance().SetShowDamageFlag(iFlag);

  00027	ff 75 fc	 push	 DWORD PTR _iFlag$[ebp]
  0002a	8b 0d 00 00 00
	00		 mov	 ecx, DWORD PTR ?ms_singleton@?$CSingleton@VCPythonSystem@@@@0PAVCPythonSystem@@A ; CSingleton<CPythonSystem>::ms_singleton
  00030	e8 00 00 00 00	 call	 ?SetShowDamageFlag@CPythonSystem@@QAEXH@Z ; CPythonSystem::SetShowDamageFlag

; 199  : 
; 200  : 	return Py_BuildNone();

  00035	e8 00 00 00 00	 call	 ?Py_BuildNone@@YAPAU_object@@XZ ; Py_BuildNone

; 201  : }

  0003a	8b e5		 mov	 esp, ebp
  0003c	5d		 pop	 ebp
  0003d	c3		 ret	 0
?systemSetShowDamageFlag@@YAPAU_object@@PAU1@0@Z ENDP	; systemSetShowDamageFlag
_TEXT	ENDS
; Function compile flags: /Ogtp
; File D:\_m2work\txoko-m2-work\txoko-client-src\source\UserInterface\PythonSystemModule.cpp
;	COMDAT ?systemSetShowSalesTextFlag@@YAPAU_object@@PAU1@0@Z
_TEXT	SEGMENT
_iFlag$ = -4						; size = 4
_poSelf$ = 8						; size = 4
_poArgs$ = 12						; size = 4
?systemSetShowSalesTextFlag@@YAPAU_object@@PAU1@0@Z PROC ; systemSetShowSalesTextFlag, COMDAT

; 204  : {

  00000	55		 push	 ebp
  00001	8b ec		 mov	 ebp, esp
  00003	51		 push	 ecx

; 205  : 	int iFlag;
; 206  : 	if (!PyTuple_GetInteger(poArgs, 0, &iFlag))

  00004	8d 45 fc	 lea	 eax, DWORD PTR _iFlag$[ebp]
  00007	50		 push	 eax
  00008	6a 00		 push	 0
  0000a	ff 75 0c	 push	 DWORD PTR _poArgs$[ebp]
  0000d	e8 00 00 00 00	 call	 ?PyTuple_GetInteger@@YA_NPAU_object@@HPAH@Z ; PyTuple_GetInteger
  00012	83 c4 0c	 add	 esp, 12			; 0000000cH
  00015	84 c0		 test	 al, al
  00017	75 0e		 jne	 SHORT $LN2@systemSetS

; 207  : 		return Py_BuildException();

  00019	6a 00		 push	 0
  0001b	e8 00 00 00 00	 call	 ?Py_BuildException@@YAPAU_object@@PBDZZ ; Py_BuildException
  00020	83 c4 04	 add	 esp, 4

; 212  : }

  00023	8b e5		 mov	 esp, ebp
  00025	5d		 pop	 ebp
  00026	c3		 ret	 0
$LN2@systemSetS:

; 208  : 
; 209  : 	CPythonSystem::Instance().SetShowSalesTextFlag(iFlag);

  00027	ff 75 fc	 push	 DWORD PTR _iFlag$[ebp]
  0002a	8b 0d 00 00 00
	00		 mov	 ecx, DWORD PTR ?ms_singleton@?$CSingleton@VCPythonSystem@@@@0PAVCPythonSystem@@A ; CSingleton<CPythonSystem>::ms_singleton
  00030	e8 00 00 00 00	 call	 ?SetShowSalesTextFlag@CPythonSystem@@QAEXH@Z ; CPythonSystem::SetShowSalesTextFlag

; 210  : 
; 211  : 	return Py_BuildNone();

  00035	e8 00 00 00 00	 call	 ?Py_BuildNone@@YAPAU_object@@XZ ; Py_BuildNone

; 212  : }

  0003a	8b e5		 mov	 esp, ebp
  0003c	5d		 pop	 ebp
  0003d	c3		 ret	 0
?systemSetShowSalesTextFlag@@YAPAU_object@@PAU1@0@Z ENDP ; systemSetShowSalesTextFlag
_TEXT	ENDS
; Function compile flags: /Ogtp
; File D:\_m2work\txoko-m2-work\txoko-client-src\source\UserInterface\PythonSystemModule.cpp
;	COMDAT ?systemIsAlwaysShowName@@YAPAU_object@@PAU1@0@Z
_TEXT	SEGMENT
_poSelf$ = 8						; size = 4
_poArgs$ = 12						; size = 4
?systemIsAlwaysShowName@@YAPAU_object@@PAU1@0@Z PROC	; systemIsAlwaysShowName, COMDAT

; 216  : 	return Py_BuildValue("i", CPythonSystem::Instance().IsAlwaysShowName());

  00000	8b 0d 00 00 00
	00		 mov	 ecx, DWORD PTR ?ms_singleton@?$CSingleton@VCPythonSystem@@@@0PAVCPythonSystem@@A ; CSingleton<CPythonSystem>::ms_singleton
  00006	e8 00 00 00 00	 call	 ?IsAlwaysShowName@CPythonSystem@@QAE_NXZ ; CPythonSystem::IsAlwaysShowName
  0000b	0f b6 c0	 movzx	 eax, al
  0000e	50		 push	 eax
  0000f	68 00 00 00 00	 push	 OFFSET ??_C@_01KBJDNOO@i@
  00014	ff 15 00 00 00
	00		 call	 DWORD PTR __imp__Py_BuildValue
  0001a	83 c4 08	 add	 esp, 8

; 217  : }

  0001d	c3		 ret	 0
?systemIsAlwaysShowName@@YAPAU_object@@PAU1@0@Z ENDP	; systemIsAlwaysShowName
_TEXT	ENDS
; Function compile flags: /Ogtp
; File D:\_m2work\txoko-m2-work\txoko-client-src\source\UserInterface\PythonSystemModule.cpp
;	COMDAT ?systemIsShowDamage@@YAPAU_object@@PAU1@0@Z
_TEXT	SEGMENT
_poSelf$ = 8						; size = 4
_poArgs$ = 12						; size = 4
?systemIsShowDamage@@YAPAU_object@@PAU1@0@Z PROC	; systemIsShowDamage, COMDAT

; 221  : 	return Py_BuildValue("i", CPythonSystem::Instance().IsShowDamage());

  00000	8b 0d 00 00 00
	00		 mov	 ecx, DWORD PTR ?ms_singleton@?$CSingleton@VCPythonSystem@@@@0PAVCPythonSystem@@A ; CSingleton<CPythonSystem>::ms_singleton
  00006	e8 00 00 00 00	 call	 ?IsShowDamage@CPythonSystem@@QAE_NXZ ; CPythonSystem::IsShowDamage
  0000b	0f b6 c0	 movzx	 eax, al
  0000e	50		 push	 eax
  0000f	68 00 00 00 00	 push	 OFFSET ??_C@_01KBJDNOO@i@
  00014	ff 15 00 00 00
	00		 call	 DWORD PTR __imp__Py_BuildValue
  0001a	83 c4 08	 add	 esp, 8

; 222  : }

  0001d	c3		 ret	 0
?systemIsShowDamage@@YAPAU_object@@PAU1@0@Z ENDP	; systemIsShowDamage
_TEXT	ENDS
; Function compile flags: /Ogtp
; File D:\_m2work\txoko-m2-work\txoko-client-src\source\UserInterface\PythonSystemModule.cpp
;	COMDAT ?systemIsShowSalesText@@YAPAU_object@@PAU1@0@Z
_TEXT	SEGMENT
_poSelf$ = 8						; size = 4
_poArgs$ = 12						; size = 4
?systemIsShowSalesText@@YAPAU_object@@PAU1@0@Z PROC	; systemIsShowSalesText, COMDAT

; 226  : 	return Py_BuildValue("i", CPythonSystem::Instance().IsShowSalesText());

  00000	8b 0d 00 00 00
	00		 mov	 ecx, DWORD PTR ?ms_singleton@?$CSingleton@VCPythonSystem@@@@0PAVCPythonSystem@@A ; CSingleton<CPythonSystem>::ms_singleton
  00006	e8 00 00 00 00	 call	 ?IsShowSalesText@CPythonSystem@@QAE_NXZ ; CPythonSystem::IsShowSalesText
  0000b	0f b6 c0	 movzx	 eax, al
  0000e	50		 push	 eax
  0000f	68 00 00 00 00	 push	 OFFSET ??_C@_01KBJDNOO@i@
  00014	ff 15 00 00 00
	00		 call	 DWORD PTR __imp__Py_BuildValue
  0001a	83 c4 08	 add	 esp, 8

; 227  : }

  0001d	c3		 ret	 0
?systemIsShowSalesText@@YAPAU_object@@PAU1@0@Z ENDP	; systemIsShowSalesText
_TEXT	ENDS
; Function compile flags: /Ogtp
; File D:\_m2work\txoko-m2-work\txoko-client-src\source\UserInterface\PythonSystemModule.cpp
;	COMDAT ?systemSetConfig@@YAPAU_object@@PAU1@0@Z
_TEXT	SEGMENT
_tmp$ = -128						; size = 76
_shadow$ = -52						; size = 4
_distance$ = -48					; size = 4
_gamma$ = -44						; size = 4
_voice_volume$ = -40					; size = 4
_music_volume$ = -36					; size = 4
_object_culling$ = -32					; size = 4
_software_cursor$ = -28					; size = 4
_frequency$ = -24					; size = 4
_bpp$ = -20						; size = 4
_height$ = -16						; size = 4
_width$ = -12						; size = 4
_frequency_index$ = -8					; size = 4
_res_index$ = -4					; size = 4
_poSelf$ = 8						; size = 4
_poArgs$ = 12						; size = 4
?systemSetConfig@@YAPAU_object@@PAU1@0@Z PROC		; systemSetConfig, COMDAT

; 230  : {

  00000	55		 push	 ebp
  00001	8b ec		 mov	 ebp, esp
  00003	81 ec 80 00 00
	00		 sub	 esp, 128		; 00000080H

; 231  : 	int res_index;
; 232  : 	int width;
; 233  : 	int height;
; 234  : 	int bpp;
; 235  : 	int frequency_index;
; 236  : 	int frequency;
; 237  : 	int software_cursor;
; 238  : 	int shadow;
; 239  : 	int object_culling;
; 240  : 	int music_volume;
; 241  : 	int voice_volume;
; 242  : 	int gamma;
; 243  : 	int distance;
; 244  : 
; 245  : 	if (!PyTuple_GetInteger(poArgs, 0, &res_index))

  00009	8d 45 fc	 lea	 eax, DWORD PTR _res_index$[ebp]
  0000c	56		 push	 esi
  0000d	8b 75 0c	 mov	 esi, DWORD PTR _poArgs$[ebp]
  00010	50		 push	 eax
  00011	6a 00		 push	 0
  00013	56		 push	 esi
  00014	e8 00 00 00 00	 call	 ?PyTuple_GetInteger@@YA_NPAU_object@@HPAH@Z ; PyTuple_GetInteger
  00019	83 c4 0c	 add	 esp, 12			; 0000000cH
  0001c	84 c0		 test	 al, al
  0001e	75 0f		 jne	 SHORT $LN2@systemSetC
$LN26@systemSetC:

; 294  : 	return Py_BuildNone();
; 295  : }

  00020	6a 00		 push	 0
  00022	e8 00 00 00 00	 call	 ?Py_BuildException@@YAPAU_object@@PBDZZ ; Py_BuildException
  00027	83 c4 04	 add	 esp, 4
  0002a	5e		 pop	 esi
  0002b	8b e5		 mov	 esp, ebp
  0002d	5d		 pop	 ebp
  0002e	c3		 ret	 0
$LN2@systemSetC:

; 246  : 		return Py_BuildException();
; 247  : 
; 248  : 	if (!PyTuple_GetInteger(poArgs, 1, &frequency_index))

  0002f	8d 45 f8	 lea	 eax, DWORD PTR _frequency_index$[ebp]
  00032	50		 push	 eax
  00033	6a 01		 push	 1
  00035	56		 push	 esi
  00036	e8 00 00 00 00	 call	 ?PyTuple_GetInteger@@YA_NPAU_object@@HPAH@Z ; PyTuple_GetInteger
  0003b	83 c4 0c	 add	 esp, 12			; 0000000cH
  0003e	84 c0		 test	 al, al
  00040	74 de		 je	 SHORT $LN26@systemSetC

; 249  : 		return Py_BuildException();
; 250  : 
; 251  : 	if (!PyTuple_GetInteger(poArgs, 2, &software_cursor))

  00042	8d 45 e4	 lea	 eax, DWORD PTR _software_cursor$[ebp]
  00045	50		 push	 eax
  00046	6a 02		 push	 2
  00048	56		 push	 esi
  00049	e8 00 00 00 00	 call	 ?PyTuple_GetInteger@@YA_NPAU_object@@HPAH@Z ; PyTuple_GetInteger
  0004e	83 c4 0c	 add	 esp, 12			; 0000000cH
  00051	84 c0		 test	 al, al
  00053	74 cb		 je	 SHORT $LN26@systemSetC

; 252  : 		return Py_BuildException();
; 253  : 
; 254  : 	if (!PyTuple_GetInteger(poArgs, 3, &shadow))

  00055	8d 45 cc	 lea	 eax, DWORD PTR _shadow$[ebp]
  00058	50		 push	 eax
  00059	6a 03		 push	 3
  0005b	56		 push	 esi
  0005c	e8 00 00 00 00	 call	 ?PyTuple_GetInteger@@YA_NPAU_object@@HPAH@Z ; PyTuple_GetInteger
  00061	83 c4 0c	 add	 esp, 12			; 0000000cH
  00064	84 c0		 test	 al, al
  00066	74 b8		 je	 SHORT $LN26@systemSetC

; 255  : 		return Py_BuildException();
; 256  : 
; 257  : 	if (!PyTuple_GetInteger(poArgs, 4, &object_culling))

  00068	8d 45 e0	 lea	 eax, DWORD PTR _object_culling$[ebp]
  0006b	50		 push	 eax
  0006c	6a 04		 push	 4
  0006e	56		 push	 esi
  0006f	e8 00 00 00 00	 call	 ?PyTuple_GetInteger@@YA_NPAU_object@@HPAH@Z ; PyTuple_GetInteger
  00074	83 c4 0c	 add	 esp, 12			; 0000000cH
  00077	84 c0		 test	 al, al
  00079	74 a5		 je	 SHORT $LN26@systemSetC

; 258  : 		return Py_BuildException();
; 259  : 
; 260  : 	if (!PyTuple_GetInteger(poArgs, 5, &music_volume))

  0007b	8d 45 dc	 lea	 eax, DWORD PTR _music_volume$[ebp]
  0007e	50		 push	 eax
  0007f	6a 05		 push	 5
  00081	56		 push	 esi
  00082	e8 00 00 00 00	 call	 ?PyTuple_GetInteger@@YA_NPAU_object@@HPAH@Z ; PyTuple_GetInteger
  00087	83 c4 0c	 add	 esp, 12			; 0000000cH
  0008a	84 c0		 test	 al, al
  0008c	74 92		 je	 SHORT $LN26@systemSetC

; 261  : 		return Py_BuildException();
; 262  : 
; 263  : 	if (!PyTuple_GetInteger(poArgs, 6, &voice_volume))

  0008e	8d 45 d8	 lea	 eax, DWORD PTR _voice_volume$[ebp]
  00091	50		 push	 eax
  00092	6a 06		 push	 6
  00094	56		 push	 esi
  00095	e8 00 00 00 00	 call	 ?PyTuple_GetInteger@@YA_NPAU_object@@HPAH@Z ; PyTuple_GetInteger
  0009a	83 c4 0c	 add	 esp, 12			; 0000000cH
  0009d	84 c0		 test	 al, al
  0009f	0f 84 7b ff ff
	ff		 je	 $LN26@systemSetC

; 264  : 		return Py_BuildException();
; 265  : 
; 266  : 	if (!PyTuple_GetInteger(poArgs, 7, &gamma))

  000a5	8d 45 d4	 lea	 eax, DWORD PTR _gamma$[ebp]
  000a8	50		 push	 eax
  000a9	6a 07		 push	 7
  000ab	56		 push	 esi
  000ac	e8 00 00 00 00	 call	 ?PyTuple_GetInteger@@YA_NPAU_object@@HPAH@Z ; PyTuple_GetInteger
  000b1	83 c4 0c	 add	 esp, 12			; 0000000cH
  000b4	84 c0		 test	 al, al
  000b6	0f 84 64 ff ff
	ff		 je	 $LN26@systemSetC

; 267  : 		return Py_BuildException();
; 268  : 
; 269  : 	if (!PyTuple_GetInteger(poArgs, 8, &distance))

  000bc	8d 45 d0	 lea	 eax, DWORD PTR _distance$[ebp]
  000bf	50		 push	 eax
  000c0	6a 08		 push	 8
  000c2	56		 push	 esi
  000c3	e8 00 00 00 00	 call	 ?PyTuple_GetInteger@@YA_NPAU_object@@HPAH@Z ; PyTuple_GetInteger
  000c8	83 c4 0c	 add	 esp, 12			; 0000000cH
  000cb	84 c0		 test	 al, al
  000cd	0f 84 4d ff ff
	ff		 je	 $LN26@systemSetC

; 270  : 		return Py_BuildException();
; 271  : 
; 272  : 	if (!CPythonSystem::Instance().GetResolution(res_index, (DWORD *) &width, (DWORD *) &height, (DWORD *) &bpp))

  000d3	8b 35 00 00 00
	00		 mov	 esi, DWORD PTR ?ms_singleton@?$CSingleton@VCPythonSystem@@@@0PAVCPythonSystem@@A ; CSingleton<CPythonSystem>::ms_singleton
  000d9	8d 45 ec	 lea	 eax, DWORD PTR _bpp$[ebp]
  000dc	50		 push	 eax
  000dd	8d 45 f0	 lea	 eax, DWORD PTR _height$[ebp]
  000e0	8b ce		 mov	 ecx, esi
  000e2	50		 push	 eax
  000e3	8d 45 f4	 lea	 eax, DWORD PTR _width$[ebp]
  000e6	50		 push	 eax
  000e7	ff 75 fc	 push	 DWORD PTR _res_index$[ebp]
  000ea	e8 00 00 00 00	 call	 ?GetResolution@CPythonSystem@@QAE_NHPAK00@Z ; CPythonSystem::GetResolution
  000ef	84 c0		 test	 al, al
  000f1	0f 84 a2 00 00
	00		 je	 $LN25@systemSetC

; 273  : 		return Py_BuildNone();
; 274  : 
; 275  : 	if (!CPythonSystem::Instance().GetFrequency(res_index,frequency_index, (DWORD *) &frequency))

  000f7	8d 45 e8	 lea	 eax, DWORD PTR _frequency$[ebp]
  000fa	8b ce		 mov	 ecx, esi
  000fc	50		 push	 eax
  000fd	ff 75 f8	 push	 DWORD PTR _frequency_index$[ebp]
  00100	ff 75 fc	 push	 DWORD PTR _res_index$[ebp]
  00103	e8 00 00 00 00	 call	 ?GetFrequency@CPythonSystem@@QAE_NHHPAK@Z ; CPythonSystem::GetFrequency
  00108	84 c0		 test	 al, al
  0010a	0f 84 89 00 00
	00		 je	 $LN25@systemSetC

; 276  : 		return Py_BuildNone();
; 277  : 
; 278  : 	CPythonSystem::TConfig tmp;
; 279  : 
; 280  : 	memcpy(&tmp, CPythonSystem::Instance().GetConfig(), sizeof(tmp));

  00110	8b ce		 mov	 ecx, esi
  00112	e8 00 00 00 00	 call	 ?GetConfig@CPythonSystem@@QAEPAUSConfig@1@XZ ; CPythonSystem::GetConfig

; 281  : 
; 282  : 	tmp.width				= width;
; 283  : 	tmp.height				= height;
; 284  : 	tmp.bpp					= bpp;
; 285  : 	tmp.frequency			= frequency;
; 286  : 	tmp.is_software_cursor	= software_cursor ? true : false;

  00117	83 7d e4 00	 cmp	 DWORD PTR _software_cursor$[ebp], 0
  0011b	0f 10 00	 movups	 xmm0, XMMWORD PTR [eax]
  0011e	0f 11 45 80	 movups	 XMMWORD PTR _tmp$[ebp], xmm0
  00122	0f 10 40 10	 movups	 xmm0, XMMWORD PTR [eax+16]
  00126	0f 11 45 90	 movups	 XMMWORD PTR _tmp$[ebp+16], xmm0
  0012a	0f 10 40 20	 movups	 xmm0, XMMWORD PTR [eax+32]
  0012e	0f 95 45 90	 setne	 BYTE PTR _tmp$[ebp+16]

; 287  : 	tmp.is_object_culling	= object_culling ? true : false;

  00132	83 7d e0 00	 cmp	 DWORD PTR _object_culling$[ebp], 0
  00136	0f 11 45 a0	 movups	 XMMWORD PTR _tmp$[ebp+32], xmm0
  0013a	0f 10 40 30	 movups	 xmm0, XMMWORD PTR [eax+48]
  0013e	0f 95 45 91	 setne	 BYTE PTR _tmp$[ebp+17]
  00142	0f 11 45 b0	 movups	 XMMWORD PTR _tmp$[ebp+48], xmm0
  00146	f3 0f 7e 40 40	 movq	 xmm0, QWORD PTR [eax+64]
  0014b	8b 40 48	 mov	 eax, DWORD PTR [eax+72]
  0014e	89 45 c8	 mov	 DWORD PTR _tmp$[ebp+72], eax
  00151	8b 45 f4	 mov	 eax, DWORD PTR _width$[ebp]
  00154	89 45 80	 mov	 DWORD PTR _tmp$[ebp], eax
  00157	8b 45 f0	 mov	 eax, DWORD PTR _height$[ebp]
  0015a	89 45 84	 mov	 DWORD PTR _tmp$[ebp+4], eax
  0015d	8b 45 ec	 mov	 eax, DWORD PTR _bpp$[ebp]
  00160	89 45 88	 mov	 DWORD PTR _tmp$[ebp+8], eax
  00163	8b 45 e8	 mov	 eax, DWORD PTR _frequency$[ebp]
  00166	89 45 8c	 mov	 DWORD PTR _tmp$[ebp+12], eax

; 288  : 	tmp.music_volume		= (char) music_volume;

  00169	0f be 45 dc	 movsx	 eax, BYTE PTR _music_volume$[ebp]
  0016d	66 0f d6 45 c0	 movq	 QWORD PTR _tmp$[ebp+64], xmm0
  00172	66 0f 6e c0	 movd	 xmm0, eax

; 289  : 	tmp.voice_volume		= (char) voice_volume;

  00176	8a 45 d8	 mov	 al, BYTE PTR _voice_volume$[ebp]
  00179	88 45 a0	 mov	 BYTE PTR _tmp$[ebp+32], al

; 290  : 	tmp.gamma				= gamma;

  0017c	8b 45 d4	 mov	 eax, DWORD PTR _gamma$[ebp]
  0017f	0f 5b c0	 cvtdq2ps xmm0, xmm0
  00182	89 45 a4	 mov	 DWORD PTR _tmp$[ebp+36], eax

; 291  : 	tmp.iDistance			= distance;

  00185	8b 45 d0	 mov	 eax, DWORD PTR _distance$[ebp]
  00188	89 45 94	 mov	 DWORD PTR _tmp$[ebp+20], eax

; 292  : 
; 293  : 	CPythonSystem::Instance().SetConfig(&tmp);

  0018b	8d 45 80	 lea	 eax, DWORD PTR _tmp$[ebp]
  0018e	50		 push	 eax
  0018f	f3 0f 11 45 9c	 movss	 DWORD PTR _tmp$[ebp+28], xmm0
  00194	e8 00 00 00 00	 call	 ?SetConfig@CPythonSystem@@QAEXPAUSConfig@1@@Z ; CPythonSystem::SetConfig
$LN25@systemSetC:

; 294  : 	return Py_BuildNone();
; 295  : }

  00199	e8 00 00 00 00	 call	 ?Py_BuildNone@@YAPAU_object@@XZ ; Py_BuildNone
  0019e	5e		 pop	 esi
  0019f	8b e5		 mov	 esp, ebp
  001a1	5d		 pop	 ebp
  001a2	c3		 ret	 0
?systemSetConfig@@YAPAU_object@@PAU1@0@Z ENDP		; systemSetConfig
_TEXT	ENDS
; Function compile flags: /Ogtp
; File D:\_m2work\txoko-m2-work\txoko-client-src\source\UserInterface\PythonSystemModule.cpp
;	COMDAT ?systemApplyConfig@@YAPAU_object@@PAU1@0@Z
_TEXT	SEGMENT
_poSelf$ = 8						; size = 4
_poArgs$ = 12						; size = 4
?systemApplyConfig@@YAPAU_object@@PAU1@0@Z PROC		; systemApplyConfig, COMDAT

; 299  : 	CPythonSystem::Instance().ApplyConfig();

  00000	8b 0d 00 00 00
	00		 mov	 ecx, DWORD PTR ?ms_singleton@?$CSingleton@VCPythonSystem@@@@0PAVCPythonSystem@@A ; CSingleton<CPythonSystem>::ms_singleton
  00006	e8 00 00 00 00	 call	 ?ApplyConfig@CPythonSystem@@QAEXXZ ; CPythonSystem::ApplyConfig

; 300  : 	return Py_BuildNone();

  0000b	e9 00 00 00 00	 jmp	 ?Py_BuildNone@@YAPAU_object@@XZ ; Py_BuildNone
?systemApplyConfig@@YAPAU_object@@PAU1@0@Z ENDP		; systemApplyConfig
_TEXT	ENDS
; Function compile flags: /Ogtp
; File D:\_m2work\txoko-m2-work\txoko-client-src\source\UserInterface\PythonSystemModule.cpp
;	COMDAT ?systemSaveConfig@@YAPAU_object@@PAU1@0@Z
_TEXT	SEGMENT
_poSelf$ = 8						; size = 4
_poArgs$ = 12						; size = 4
?systemSaveConfig@@YAPAU_object@@PAU1@0@Z PROC		; systemSaveConfig, COMDAT

; 305  : 	int ret = CPythonSystem::Instance().SaveConfig();

  00000	8b 0d 00 00 00
	00		 mov	 ecx, DWORD PTR ?ms_singleton@?$CSingleton@VCPythonSystem@@@@0PAVCPythonSystem@@A ; CSingleton<CPythonSystem>::ms_singleton
  00006	e8 00 00 00 00	 call	 ?SaveConfig@CPythonSystem@@QAE_NXZ ; CPythonSystem::SaveConfig
  0000b	0f b6 c0	 movzx	 eax, al

; 306  : 	return Py_BuildValue("i", ret);

  0000e	50		 push	 eax
  0000f	68 00 00 00 00	 push	 OFFSET ??_C@_01KBJDNOO@i@
  00014	ff 15 00 00 00
	00		 call	 DWORD PTR __imp__Py_BuildValue
  0001a	83 c4 08	 add	 esp, 8

; 307  : }

  0001d	c3		 ret	 0
?systemSaveConfig@@YAPAU_object@@PAU1@0@Z ENDP		; systemSaveConfig
_TEXT	ENDS
; Function compile flags: /Ogtp
; File D:\_m2work\txoko-m2-work\txoko-client-src\source\UserInterface\PythonSystemModule.cpp
;	COMDAT ?systemGetResolutionCount@@YAPAU_object@@PAU1@0@Z
_TEXT	SEGMENT
_poSelf$ = 8						; size = 4
_poArgs$ = 12						; size = 4
?systemGetResolutionCount@@YAPAU_object@@PAU1@0@Z PROC	; systemGetResolutionCount, COMDAT

; 311  : 	return Py_BuildValue("i", CPythonSystem::Instance().GetResolutionCount());

  00000	8b 0d 00 00 00
	00		 mov	 ecx, DWORD PTR ?ms_singleton@?$CSingleton@VCPythonSystem@@@@0PAVCPythonSystem@@A ; CSingleton<CPythonSystem>::ms_singleton
  00006	e8 00 00 00 00	 call	 ?GetResolutionCount@CPythonSystem@@QAEHXZ ; CPythonSystem::GetResolutionCount
  0000b	50		 push	 eax
  0000c	68 00 00 00 00	 push	 OFFSET ??_C@_01KBJDNOO@i@
  00011	ff 15 00 00 00
	00		 call	 DWORD PTR __imp__Py_BuildValue
  00017	83 c4 08	 add	 esp, 8

; 312  : }

  0001a	c3		 ret	 0
?systemGetResolutionCount@@YAPAU_object@@PAU1@0@Z ENDP	; systemGetResolutionCount
_TEXT	ENDS
; Function compile flags: /Ogtp
; File D:\_m2work\txoko-m2-work\txoko-client-src\source\UserInterface\PythonSystemModule.cpp
;	COMDAT ?systemGetFrequencyCount@@YAPAU_object@@PAU1@0@Z
_TEXT	SEGMENT
_index$ = -4						; size = 4
_poSelf$ = 8						; size = 4
_poArgs$ = 12						; size = 4
?systemGetFrequencyCount@@YAPAU_object@@PAU1@0@Z PROC	; systemGetFrequencyCount, COMDAT

; 315  : {

  00000	55		 push	 ebp
  00001	8b ec		 mov	 ebp, esp
  00003	51		 push	 ecx

; 316  : 	int	index;
; 317  : 
; 318  : 	if (!PyTuple_GetInteger(poArgs, 0, &index))

  00004	8d 45 fc	 lea	 eax, DWORD PTR _index$[ebp]
  00007	50		 push	 eax
  00008	6a 00		 push	 0
  0000a	ff 75 0c	 push	 DWORD PTR _poArgs$[ebp]
  0000d	e8 00 00 00 00	 call	 ?PyTuple_GetInteger@@YA_NPAU_object@@HPAH@Z ; PyTuple_GetInteger
  00012	83 c4 0c	 add	 esp, 12			; 0000000cH
  00015	84 c0		 test	 al, al
  00017	75 0e		 jne	 SHORT $LN2@systemGetF

; 319  : 		return Py_BuildException();

  00019	6a 00		 push	 0
  0001b	e8 00 00 00 00	 call	 ?Py_BuildException@@YAPAU_object@@PBDZZ ; Py_BuildException
  00020	83 c4 04	 add	 esp, 4

; 322  : }

  00023	8b e5		 mov	 esp, ebp
  00025	5d		 pop	 ebp
  00026	c3		 ret	 0
$LN2@systemGetF:

; 320  : 
; 321  : 	return Py_BuildValue("i", CPythonSystem::Instance().GetFrequencyCount(index));

  00027	ff 75 fc	 push	 DWORD PTR _index$[ebp]
  0002a	8b 0d 00 00 00
	00		 mov	 ecx, DWORD PTR ?ms_singleton@?$CSingleton@VCPythonSystem@@@@0PAVCPythonSystem@@A ; CSingleton<CPythonSystem>::ms_singleton
  00030	e8 00 00 00 00	 call	 ?GetFrequencyCount@CPythonSystem@@QAEHH@Z ; CPythonSystem::GetFrequencyCount
  00035	50		 push	 eax
  00036	68 00 00 00 00	 push	 OFFSET ??_C@_01KBJDNOO@i@
  0003b	ff 15 00 00 00
	00		 call	 DWORD PTR __imp__Py_BuildValue
  00041	83 c4 08	 add	 esp, 8

; 322  : }

  00044	8b e5		 mov	 esp, ebp
  00046	5d		 pop	 ebp
  00047	c3		 ret	 0
?systemGetFrequencyCount@@YAPAU_object@@PAU1@0@Z ENDP	; systemGetFrequencyCount
_TEXT	ENDS
; Function compile flags: /Ogtp
; File D:\_m2work\txoko-m2-work\txoko-client-src\source\UserInterface\PythonSystemModule.cpp
;	COMDAT ?systemGetResolution@@YAPAU_object@@PAU1@0@Z
_TEXT	SEGMENT
_index$ = -16						; size = 4
_width$ = -12						; size = 4
_height$ = -8						; size = 4
_bpp$ = -4						; size = 4
_poSelf$ = 8						; size = 4
_poArgs$ = 12						; size = 4
?systemGetResolution@@YAPAU_object@@PAU1@0@Z PROC	; systemGetResolution, COMDAT

; 325  : {

  00000	55		 push	 ebp
  00001	8b ec		 mov	 ebp, esp
  00003	83 ec 10	 sub	 esp, 16			; 00000010H

; 326  : 	int	index;
; 327  : 	DWORD width = 0, height = 0, bpp = 0;
; 328  : 
; 329  : 	if (!PyTuple_GetInteger(poArgs, 0, &index))

  00006	8d 45 f0	 lea	 eax, DWORD PTR _index$[ebp]
  00009	c7 45 f4 00 00
	00 00		 mov	 DWORD PTR _width$[ebp], 0
  00010	50		 push	 eax
  00011	6a 00		 push	 0
  00013	ff 75 0c	 push	 DWORD PTR _poArgs$[ebp]
  00016	c7 45 f8 00 00
	00 00		 mov	 DWORD PTR _height$[ebp], 0
  0001d	c7 45 fc 00 00
	00 00		 mov	 DWORD PTR _bpp$[ebp], 0
  00024	e8 00 00 00 00	 call	 ?PyTuple_GetInteger@@YA_NPAU_object@@HPAH@Z ; PyTuple_GetInteger
  00029	83 c4 0c	 add	 esp, 12			; 0000000cH
  0002c	84 c0		 test	 al, al
  0002e	75 0e		 jne	 SHORT $LN2@systemGetR

; 330  : 		return Py_BuildException();

  00030	6a 00		 push	 0
  00032	e8 00 00 00 00	 call	 ?Py_BuildException@@YAPAU_object@@PBDZZ ; Py_BuildException
  00037	83 c4 04	 add	 esp, 4

; 334  : }

  0003a	8b e5		 mov	 esp, ebp
  0003c	5d		 pop	 ebp
  0003d	c3		 ret	 0
$LN2@systemGetR:

; 331  : 
; 332  : 	CPythonSystem::Instance().GetResolution(index, &width, &height, &bpp);

  0003e	8b 0d 00 00 00
	00		 mov	 ecx, DWORD PTR ?ms_singleton@?$CSingleton@VCPythonSystem@@@@0PAVCPythonSystem@@A ; CSingleton<CPythonSystem>::ms_singleton
  00044	8d 45 fc	 lea	 eax, DWORD PTR _bpp$[ebp]
  00047	50		 push	 eax
  00048	8d 45 f8	 lea	 eax, DWORD PTR _height$[ebp]
  0004b	50		 push	 eax
  0004c	8d 45 f4	 lea	 eax, DWORD PTR _width$[ebp]
  0004f	50		 push	 eax
  00050	ff 75 f0	 push	 DWORD PTR _index$[ebp]
  00053	e8 00 00 00 00	 call	 ?GetResolution@CPythonSystem@@QAE_NHPAK00@Z ; CPythonSystem::GetResolution

; 333  : 	return Py_BuildValue("iii", width, height, bpp);

  00058	ff 75 fc	 push	 DWORD PTR _bpp$[ebp]
  0005b	ff 75 f8	 push	 DWORD PTR _height$[ebp]
  0005e	ff 75 f4	 push	 DWORD PTR _width$[ebp]
  00061	68 00 00 00 00	 push	 OFFSET ??_C@_03GLKMLICL@iii@
  00066	ff 15 00 00 00
	00		 call	 DWORD PTR __imp__Py_BuildValue
  0006c	83 c4 10	 add	 esp, 16			; 00000010H

; 334  : }

  0006f	8b e5		 mov	 esp, ebp
  00071	5d		 pop	 ebp
  00072	c3		 ret	 0
?systemGetResolution@@YAPAU_object@@PAU1@0@Z ENDP	; systemGetResolution
_TEXT	ENDS
; Function compile flags: /Ogtp
; File D:\_m2work\txoko-m2-work\txoko-client-src\source\UserInterface\PythonSystemModule.cpp
;	COMDAT ?systemGetCurrentResolution@@YAPAU_object@@PAU1@0@Z
_TEXT	SEGMENT
_poSelf$ = 8						; size = 4
_poArgs$ = 12						; size = 4
?systemGetCurrentResolution@@YAPAU_object@@PAU1@0@Z PROC ; systemGetCurrentResolution, COMDAT

; 338  : 	CPythonSystem::TConfig *tmp = CPythonSystem::Instance().GetConfig();

  00000	8b 0d 00 00 00
	00		 mov	 ecx, DWORD PTR ?ms_singleton@?$CSingleton@VCPythonSystem@@@@0PAVCPythonSystem@@A ; CSingleton<CPythonSystem>::ms_singleton
  00006	e8 00 00 00 00	 call	 ?GetConfig@CPythonSystem@@QAEPAUSConfig@1@XZ ; CPythonSystem::GetConfig

; 339  : 	return Py_BuildValue("iii", tmp->width, tmp->height, tmp->bpp);

  0000b	ff 70 08	 push	 DWORD PTR [eax+8]
  0000e	ff 70 04	 push	 DWORD PTR [eax+4]
  00011	ff 30		 push	 DWORD PTR [eax]
  00013	68 00 00 00 00	 push	 OFFSET ??_C@_03GLKMLICL@iii@
  00018	ff 15 00 00 00
	00		 call	 DWORD PTR __imp__Py_BuildValue
  0001e	83 c4 10	 add	 esp, 16			; 00000010H

; 340  : }

  00021	c3		 ret	 0
?systemGetCurrentResolution@@YAPAU_object@@PAU1@0@Z ENDP ; systemGetCurrentResolution
_TEXT	ENDS
; Function compile flags: /Ogtp
; File D:\_m2work\txoko-m2-work\txoko-client-src\source\UserInterface\PythonSystemModule.cpp
;	COMDAT ?systemGetFrequency@@YAPAU_object@@PAU1@0@Z
_TEXT	SEGMENT
_index$ = -12						; size = 4
_frequency_index$ = -8					; size = 4
_frequency$ = -4					; size = 4
_poSelf$ = 8						; size = 4
_poArgs$ = 12						; size = 4
?systemGetFrequency@@YAPAU_object@@PAU1@0@Z PROC	; systemGetFrequency, COMDAT

; 343  : {

  00000	55		 push	 ebp
  00001	8b ec		 mov	 ebp, esp
  00003	83 ec 0c	 sub	 esp, 12			; 0000000cH

; 344  : 	int	index, frequency_index;
; 345  : 	DWORD frequency = 0;
; 346  : 
; 347  : 	if (!PyTuple_GetInteger(poArgs, 0, &index))

  00006	8d 45 f4	 lea	 eax, DWORD PTR _index$[ebp]
  00009	c7 45 fc 00 00
	00 00		 mov	 DWORD PTR _frequency$[ebp], 0
  00010	50		 push	 eax
  00011	6a 00		 push	 0
  00013	ff 75 0c	 push	 DWORD PTR _poArgs$[ebp]
  00016	e8 00 00 00 00	 call	 ?PyTuple_GetInteger@@YA_NPAU_object@@HPAH@Z ; PyTuple_GetInteger
  0001b	83 c4 0c	 add	 esp, 12			; 0000000cH
  0001e	84 c0		 test	 al, al
  00020	75 0e		 jne	 SHORT $LN2@systemGetF
$LN5@systemGetF:

; 355  : }

  00022	6a 00		 push	 0
  00024	e8 00 00 00 00	 call	 ?Py_BuildException@@YAPAU_object@@PBDZZ ; Py_BuildException
  00029	83 c4 04	 add	 esp, 4
  0002c	8b e5		 mov	 esp, ebp
  0002e	5d		 pop	 ebp
  0002f	c3		 ret	 0
$LN2@systemGetF:

; 348  : 		return Py_BuildException();
; 349  : 
; 350  : 	if (!PyTuple_GetInteger(poArgs, 1, &frequency_index))

  00030	8d 45 f8	 lea	 eax, DWORD PTR _frequency_index$[ebp]
  00033	50		 push	 eax
  00034	6a 01		 push	 1
  00036	ff 75 0c	 push	 DWORD PTR _poArgs$[ebp]
  00039	e8 00 00 00 00	 call	 ?PyTuple_GetInteger@@YA_NPAU_object@@HPAH@Z ; PyTuple_GetInteger
  0003e	83 c4 0c	 add	 esp, 12			; 0000000cH
  00041	84 c0		 test	 al, al
  00043	74 dd		 je	 SHORT $LN5@systemGetF

; 351  : 		return Py_BuildException();
; 352  : 
; 353  : 	CPythonSystem::Instance().GetFrequency(index, frequency_index, &frequency);

  00045	8b 0d 00 00 00
	00		 mov	 ecx, DWORD PTR ?ms_singleton@?$CSingleton@VCPythonSystem@@@@0PAVCPythonSystem@@A ; CSingleton<CPythonSystem>::ms_singleton
  0004b	8d 45 fc	 lea	 eax, DWORD PTR _frequency$[ebp]
  0004e	50		 push	 eax
  0004f	ff 75 f8	 push	 DWORD PTR _frequency_index$[ebp]
  00052	ff 75 f4	 push	 DWORD PTR _index$[ebp]
  00055	e8 00 00 00 00	 call	 ?GetFrequency@CPythonSystem@@QAE_NHHPAK@Z ; CPythonSystem::GetFrequency

; 354  : 	return Py_BuildValue("i", frequency);

  0005a	ff 75 fc	 push	 DWORD PTR _frequency$[ebp]
  0005d	68 00 00 00 00	 push	 OFFSET ??_C@_01KBJDNOO@i@
  00062	ff 15 00 00 00
	00		 call	 DWORD PTR __imp__Py_BuildValue
  00068	83 c4 08	 add	 esp, 8

; 355  : }

  0006b	8b e5		 mov	 esp, ebp
  0006d	5d		 pop	 ebp
  0006e	c3		 ret	 0
?systemGetFrequency@@YAPAU_object@@PAU1@0@Z ENDP	; systemGetFrequency
_TEXT	ENDS
; Function compile flags: /Ogtp
; File D:\_m2work\txoko-m2-work\txoko-client-src\source\UserInterface\PythonSystemModule.cpp
;	COMDAT ?systemGetShadowLevel@@YAPAU_object@@PAU1@0@Z
_TEXT	SEGMENT
_poSelf$ = 8						; size = 4
_poArgs$ = 12						; size = 4
?systemGetShadowLevel@@YAPAU_object@@PAU1@0@Z PROC	; systemGetShadowLevel, COMDAT

; 359  : 	return Py_BuildValue("i", CPythonSystem::Instance().GetShadowLevel());

  00000	8b 0d 00 00 00
	00		 mov	 ecx, DWORD PTR ?ms_singleton@?$CSingleton@VCPythonSystem@@@@0PAVCPythonSystem@@A ; CSingleton<CPythonSystem>::ms_singleton
  00006	e8 00 00 00 00	 call	 ?GetShadowLevel@CPythonSystem@@QAEHXZ ; CPythonSystem::GetShadowLevel
  0000b	50		 push	 eax
  0000c	68 00 00 00 00	 push	 OFFSET ??_C@_01KBJDNOO@i@
  00011	ff 15 00 00 00
	00		 call	 DWORD PTR __imp__Py_BuildValue
  00017	83 c4 08	 add	 esp, 8

; 360  : }

  0001a	c3		 ret	 0
?systemGetShadowLevel@@YAPAU_object@@PAU1@0@Z ENDP	; systemGetShadowLevel
_TEXT	ENDS
; Function compile flags: /Ogtp
; File D:\_m2work\txoko-m2-work\txoko-client-src\source\UserInterface\PythonSystemModule.cpp
;	COMDAT ?systemSetShadowLevel@@YAPAU_object@@PAU1@0@Z
_TEXT	SEGMENT
_level$ = -4						; size = 4
_poSelf$ = 8						; size = 4
_poArgs$ = 12						; size = 4
?systemSetShadowLevel@@YAPAU_object@@PAU1@0@Z PROC	; systemSetShadowLevel, COMDAT

; 363  : {

  00000	55		 push	 ebp
  00001	8b ec		 mov	 ebp, esp
  00003	51		 push	 ecx

; 364  : 	int level;
; 365  : 
; 366  : 	if (!PyTuple_GetInteger(poArgs, 0, &level))

  00004	8d 45 fc	 lea	 eax, DWORD PTR _level$[ebp]
  00007	50		 push	 eax
  00008	6a 00		 push	 0
  0000a	ff 75 0c	 push	 DWORD PTR _poArgs$[ebp]
  0000d	e8 00 00 00 00	 call	 ?PyTuple_GetInteger@@YA_NPAU_object@@HPAH@Z ; PyTuple_GetInteger
  00012	83 c4 0c	 add	 esp, 12			; 0000000cH
  00015	84 c0		 test	 al, al
  00017	75 0e		 jne	 SHORT $LN2@systemSetS

; 367  : 		return Py_BuildException();

  00019	6a 00		 push	 0
  0001b	e8 00 00 00 00	 call	 ?Py_BuildException@@YAPAU_object@@PBDZZ ; Py_BuildException
  00020	83 c4 04	 add	 esp, 4

; 373  : }

  00023	8b e5		 mov	 esp, ebp
  00025	5d		 pop	 ebp
  00026	c3		 ret	 0
$LN2@systemSetS:

; 368  : 
; 369  : 	if (level > 0)

  00027	8b 45 fc	 mov	 eax, DWORD PTR _level$[ebp]
  0002a	85 c0		 test	 eax, eax
  0002c	7e 0c		 jle	 SHORT $LN3@systemSetS

; 370  : 		CPythonSystem::Instance().SetShadowLevel(level);

  0002e	8b 0d 00 00 00
	00		 mov	 ecx, DWORD PTR ?ms_singleton@?$CSingleton@VCPythonSystem@@@@0PAVCPythonSystem@@A ; CSingleton<CPythonSystem>::ms_singleton
  00034	50		 push	 eax
  00035	e8 00 00 00 00	 call	 ?SetShadowLevel@CPythonSystem@@QAEXI@Z ; CPythonSystem::SetShadowLevel
$LN3@systemSetS:

; 371  : 
; 372  : 	return Py_BuildNone();

  0003a	e8 00 00 00 00	 call	 ?Py_BuildNone@@YAPAU_object@@XZ ; Py_BuildNone

; 373  : }

  0003f	8b e5		 mov	 esp, ebp
  00041	5d		 pop	 ebp
  00042	c3		 ret	 0
?systemSetShadowLevel@@YAPAU_object@@PAU1@0@Z ENDP	; systemSetShadowLevel
_TEXT	ENDS
; Function compile flags: /Ogtp
; File D:\_m2work\txoko-m2-work\txoko-client-src\source\UserInterface\PythonSystemModule.cpp
;	COMDAT ?initsystem@@YAXXZ
_TEXT	SEGMENT
?initsystem@@YAXXZ PROC					; initsystem, COMDAT

; 376  : {

  00000	56		 push	 esi
  00001	57		 push	 edi

; 377  : 	static PyMethodDef s_methods[] =
; 378  : 	{
; 379  : 		{ "GetWidth",					systemGetWidth,					METH_VARARGS },
; 380  : 		{ "GetHeight",					systemGetHeight,				METH_VARARGS },
; 381  : 
; 382  : 		{ "SetInterfaceHandler",		systemSetInterfaceHandler,		METH_VARARGS },
; 383  : 		{ "DestroyInterfaceHandler",	systemDestroyInterfaceHandler,	METH_VARARGS },
; 384  : 		{ "ReserveResource",			systemReserveResource,			METH_VARARGS },
; 385  : 
; 386  : 		{ "isInterfaceConfig",			systemisInterfaceConfig,		METH_VARARGS },
; 387  : 		{ "SaveWindowStatus",			systemSaveWindowStatus,			METH_VARARGS },
; 388  : 		{ "GetWindowStatus",			systemGetWindowStatus,			METH_VARARGS },
; 389  : 
; 390  : 		{ "GetResolutionCount",			systemGetResolutionCount,		METH_VARARGS },
; 391  : 		{ "GetFrequencyCount",			systemGetFrequencyCount,		METH_VARARGS },
; 392  : 
; 393  : 		{ "GetCurrentResolution",		systemGetCurrentResolution,		METH_VARARGS },
; 394  : 
; 395  : 		{ "GetResolution",				systemGetResolution,			METH_VARARGS },
; 396  : 		{ "GetFrequency",				systemGetFrequency,				METH_VARARGS },
; 397  : 
; 398  : 		{ "ApplyConfig",				systemApplyConfig,				METH_VARARGS },
; 399  : 		{ "SetConfig",					systemSetConfig,				METH_VARARGS },
; 400  : 		{ "SaveConfig",					systemSaveConfig,				METH_VARARGS },
; 401  : 		{ "GetConfig",					systemGetConfig,				METH_VARARGS },
; 402  : 
; 403  : 		{ "SetSaveID",					systemSetSaveID,				METH_VARARGS },
; 404  : 		{ "isSaveID",					systemisSaveID,					METH_VARARGS },
; 405  : 		{ "GetSaveID",					systemGetSaveID,				METH_VARARGS },
; 406  : 
; 407  : 		{ "GetMusicVolume",				systemGetMusicVolume,			METH_VARARGS },
; 408  : 		{ "GetSoundVolume",				systemGetSoundVolume,			METH_VARARGS },
; 409  : 
; 410  : 		{ "SetMusicVolume",				systemSetMusicVolume,			METH_VARARGS },
; 411  : 		{ "SetSoundVolumef",			systemSetSoundVolumef,			METH_VARARGS },
; 412  : 		{ "IsSoftwareCursor",			systemIsSoftwareCursor,			METH_VARARGS },
; 413  : 
; 414  : 		{ "SetViewChatFlag",			systemSetViewChatFlag,			METH_VARARGS },
; 415  : 		{ "IsViewChat",					systemIsViewChat,				METH_VARARGS },
; 416  : 
; 417  : 		{ "SetAlwaysShowNameFlag",		systemSetAlwaysShowNameFlag,	METH_VARARGS },
; 418  : 		{ "IsAlwaysShowName",			systemIsAlwaysShowName,			METH_VARARGS },
; 419  : 
; 420  : 		{ "SetShowDamageFlag",			systemSetShowDamageFlag,		METH_VARARGS },
; 421  : 		{ "IsShowDamage",				systemIsShowDamage,				METH_VARARGS },
; 422  : 
; 423  : 		{ "SetShowSalesTextFlag",		systemSetShowSalesTextFlag,		METH_VARARGS },
; 424  : 		{ "IsShowSalesText",			systemIsShowSalesText,			METH_VARARGS },
; 425  : 
; 426  : 		{ "GetShadowLevel",				systemGetShadowLevel,			METH_VARARGS },
; 427  : 		{ "SetShadowLevel",				systemSetShadowLevel,			METH_VARARGS },
; 428  : 
; 429  : 		{ NULL,							NULL,							NULL }
; 430  : 	};
; 431  : 
; 432  : 	PyObject * poModule = Py_InitModule("systemSetting", s_methods);

  00002	68 f5 03 00 00	 push	 1013			; 000003f5H
  00007	6a 00		 push	 0
  00009	6a 00		 push	 0
  0000b	68 00 00 00 00	 push	 OFFSET ?s_methods@?1??initsystem@@YAXXZ@4PAUPyMethodDef@@A
  00010	68 00 00 00 00	 push	 OFFSET ??_C@_0O@LCPLIAAE@systemSetting@
  00015	ff 15 00 00 00
	00		 call	 DWORD PTR __imp__Py_InitModule4

; 433  : 
; 434  : 	PyModule_AddIntConstant(poModule, "WINDOW_STATUS",		CPythonSystem::WINDOW_STATUS);

  0001b	8b 35 00 00 00
	00		 mov	 esi, DWORD PTR __imp__PyModule_AddIntConstant
  00021	8b f8		 mov	 edi, eax
  00023	6a 00		 push	 0
  00025	68 00 00 00 00	 push	 OFFSET ??_C@_0O@EDOCFBFG@WINDOW_STATUS@
  0002a	57		 push	 edi
  0002b	ff d6		 call	 esi

; 435  : 	PyModule_AddIntConstant(poModule, "WINDOW_INVENTORY",	CPythonSystem::WINDOW_INVENTORY);

  0002d	6a 01		 push	 1
  0002f	68 00 00 00 00	 push	 OFFSET ??_C@_0BB@CHCHLBGG@WINDOW_INVENTORY@
  00034	57		 push	 edi
  00035	ff d6		 call	 esi

; 436  : 	PyModule_AddIntConstant(poModule, "WINDOW_ABILITY",		CPythonSystem::WINDOW_ABILITY);

  00037	6a 02		 push	 2
  00039	68 00 00 00 00	 push	 OFFSET ??_C@_0P@HAOBMPKD@WINDOW_ABILITY@
  0003e	57		 push	 edi
  0003f	ff d6		 call	 esi

; 437  : 	PyModule_AddIntConstant(poModule, "WINDOW_SOCIETY",		CPythonSystem::WINDOW_SOCIETY);

  00041	6a 03		 push	 3
  00043	68 00 00 00 00	 push	 OFFSET ??_C@_0P@MAFILJL@WINDOW_SOCIETY@
  00048	57		 push	 edi
  00049	ff d6		 call	 esi
  0004b	83 c4 44	 add	 esp, 68			; 00000044H

; 438  : 	PyModule_AddIntConstant(poModule, "WINDOW_JOURNAL",		CPythonSystem::WINDOW_JOURNAL);

  0004e	6a 04		 push	 4
  00050	68 00 00 00 00	 push	 OFFSET ??_C@_0P@FHBHOGAA@WINDOW_JOURNAL@
  00055	57		 push	 edi
  00056	ff d6		 call	 esi

; 439  : 	PyModule_AddIntConstant(poModule, "WINDOW_COMMAND",		CPythonSystem::WINDOW_COMMAND);

  00058	6a 05		 push	 5
  0005a	68 00 00 00 00	 push	 OFFSET ??_C@_0P@NOILKAON@WINDOW_COMMAND@
  0005f	57		 push	 edi
  00060	ff d6		 call	 esi

; 440  : 
; 441  : 	PyModule_AddIntConstant(poModule, "WINDOW_QUICK",		CPythonSystem::WINDOW_QUICK);

  00062	6a 06		 push	 6
  00064	68 00 00 00 00	 push	 OFFSET ??_C@_0N@BOOBGFI@WINDOW_QUICK@
  00069	57		 push	 edi
  0006a	ff d6		 call	 esi

; 442  : 	PyModule_AddIntConstant(poModule, "WINDOW_GAUGE",		CPythonSystem::WINDOW_GAUGE);

  0006c	6a 07		 push	 7
  0006e	68 00 00 00 00	 push	 OFFSET ??_C@_0N@MCEEKLOJ@WINDOW_GAUGE@
  00073	57		 push	 edi
  00074	ff d6		 call	 esi

; 443  : 	PyModule_AddIntConstant(poModule, "WINDOW_MINIMAP",		CPythonSystem::WINDOW_MINIMAP);

  00076	6a 08		 push	 8
  00078	68 00 00 00 00	 push	 OFFSET ??_C@_0P@LEOBHMFL@WINDOW_MINIMAP@
  0007d	57		 push	 edi
  0007e	ff d6		 call	 esi

; 444  : 	PyModule_AddIntConstant(poModule, "WINDOW_CHAT",		CPythonSystem::WINDOW_CHAT);

  00080	6a 09		 push	 9
  00082	68 00 00 00 00	 push	 OFFSET ??_C@_0M@GHKKFINH@WINDOW_CHAT@
  00087	57		 push	 edi
  00088	ff d6		 call	 esi
  0008a	83 c4 48	 add	 esp, 72			; 00000048H
  0008d	5f		 pop	 edi
  0008e	5e		 pop	 esi

; 445  : }

  0008f	c3		 ret	 0
?initsystem@@YAXXZ ENDP					; initsystem
_TEXT	ENDS
END
