; Listing generated by Microsoft (R) Optimizing Compiler Version 19.44.35217.0 

	TITLE	d:\_m2work\server client tmp4\clientvs22\vs_files\userinterface\distribute\pythonitem.obj
	.686P
	.XMM
	include listing.inc
	.model	flat

INCLUDELIB OLDNAMES

PUBLIC	??_C@_0BH@BBCPOMJB@Item?3?5Inst?5?$CFd?0?5Pool?5?$CFd@ ; `string'
PUBLIC	??_C@_0BJ@CMCGILDJ@SetDropSoundFile?5?$CFd?5?3?5?$CFs@ ; `string'
PUBLIC	??_C@_0CO@ILCHIEAM@d?3?1ymir?5work?1effect?1etc?1dropite@ ; `string'
PUBLIC	??_C@_0CC@LIGJBHKC@CDynamicPool?$DMTGroundItemInstanc@ ; `string'
PUBLIC	??_R2?$CDynamicPool@USGroundItemInstance@CPythonItem@@@@8 ; CDynamicPool<CPythonItem::SGroundItemInstance>::`RTTI Base Class Array'
PUBLIC	??_R2SGroundItemInstance@CPythonItem@@8		; CPythonItem::SGroundItemInstance::`RTTI Base Class Array'
PUBLIC	??_R2CPythonItem@@8				; CPythonItem::`RTTI Base Class Array'
PUBLIC	??_R2?$CSingleton@VCPythonItem@@@@8		; CSingleton<CPythonItem>::`RTTI Base Class Array'
PUBLIC	??_R1A@?0A@EA@?$CDynamicPool@USGroundItemInstance@CPythonItem@@@@8 ; CDynamicPool<CPythonItem::SGroundItemInstance>::`RTTI Base Class Descriptor at (0,-1,0,64)'
PUBLIC	??_R1A@?0A@EA@SGroundItemInstance@CPythonItem@@8 ; CPythonItem::SGroundItemInstance::`RTTI Base Class Descriptor at (0,-1,0,64)'
PUBLIC	??_R1A@?0A@EA@CPythonItem@@8			; CPythonItem::`RTTI Base Class Descriptor at (0,-1,0,64)'
PUBLIC	??_R1A@?0A@EA@?$CSingleton@VCPythonItem@@@@8	; CSingleton<CPythonItem>::`RTTI Base Class Descriptor at (0,-1,0,64)'
PUBLIC	??_R3?$CDynamicPool@USGroundItemInstance@CPythonItem@@@@8 ; CDynamicPool<CPythonItem::SGroundItemInstance>::`RTTI Class Hierarchy Descriptor'
PUBLIC	??_R0?AV?$CDynamicPool@USGroundItemInstance@CPythonItem@@@@@8 ; CDynamicPool<CPythonItem::SGroundItemInstance> `RTTI Type Descriptor'
PUBLIC	??_R3SGroundItemInstance@CPythonItem@@8		; CPythonItem::SGroundItemInstance::`RTTI Class Hierarchy Descriptor'
PUBLIC	??_R0?AUSGroundItemInstance@CPythonItem@@@8	; CPythonItem::SGroundItemInstance `RTTI Type Descriptor'
PUBLIC	??_R3?$CSingleton@VCPythonItem@@@@8		; CSingleton<CPythonItem>::`RTTI Class Hierarchy Descriptor'
PUBLIC	??_R0?AV?$CSingleton@VCPythonItem@@@@@8		; CSingleton<CPythonItem> `RTTI Type Descriptor'
PUBLIC	??_R3CPythonItem@@8				; CPythonItem::`RTTI Class Hierarchy Descriptor'
PUBLIC	??_R0?AVCPythonItem@@@8				; CPythonItem `RTTI Type Descriptor'
PUBLIC	??_R4?$CDynamicPool@USGroundItemInstance@CPythonItem@@@@6B@ ; CDynamicPool<CPythonItem::SGroundItemInstance>::`RTTI Complete Object Locator'
PUBLIC	??_R4SGroundItemInstance@CPythonItem@@6B@	; CPythonItem::SGroundItemInstance::`RTTI Complete Object Locator'
PUBLIC	??_R4?$CSingleton@VCPythonItem@@@@6B@		; CSingleton<CPythonItem>::`RTTI Complete Object Locator'
PUBLIC	??_R4CPythonItem@@6B@				; CPythonItem::`RTTI Complete Object Locator'
PUBLIC	?unordered@partial_ordering@std@@2U12@B		; std::partial_ordering::unordered
PUBLIC	?equivalent@partial_ordering@std@@2U12@B	; std::partial_ordering::equivalent
PUBLIC	?greater@partial_ordering@std@@2U12@B		; std::partial_ordering::greater
PUBLIC	?less@partial_ordering@std@@2U12@B		; std::partial_ordering::less
PUBLIC	?ms_singleton@?$CSingleton@VCSoundManager@@@@0PAVCSoundManager@@A ; CSingleton<CSoundManager>::ms_singleton
PUBLIC	??_7?$CSingleton@VCPythonItem@@@@6B@		; CSingleton<CPythonItem>::`vftable'
PUBLIC	??_7?$CDynamicPool@USGroundItemInstance@CPythonItem@@@@6B@ ; CDynamicPool<CPythonItem::SGroundItemInstance>::`vftable'
PUBLIC	??_7CPythonItem@@6B@				; CPythonItem::`vftable'
PUBLIC	??_7SGroundItemInstance@CPythonItem@@6B@	; CPythonItem::SGroundItemInstance::`vftable'
EXTRN	??_L@YGXPAXIIP6EX0@Z1@Z:PROC			; `eh vector constructor iterator'
EXTRN	?Show@CGraphicObjectInstance@@QAEXXZ:PROC	; CGraphicObjectInstance::Show
EXTRN	_D3DXMatrixRotationQuaternion@8:PROC
EXTRN	?random@@YAKXZ:PROC				; random
EXTRN	?SetModelInstance@CGraphicThingInstance@@QAE_NHHHH@Z:PROC ; CGraphicThingInstance::SetModelInstance
EXTRN	?Update@CGraphicObjectInstance@@QAEXXZ:PROC	; CGraphicObjectInstance::Update
EXTRN	?ReserveModelInstance@CGraphicThingInstance@@QAEXH@Z:PROC ; CGraphicThingInstance::ReserveModelInstance
EXTRN	?RegisterModelThing@CGraphicThingInstance@@QAEXHPAVCGraphicThing@@@Z:PROC ; CGraphicThingInstance::RegisterModelThing
EXTRN	?GetNormal@CMapManager@@QAE_NHHPAUD3DXVECTOR3@@@Z:PROC ; CMapManager::GetNormal
EXTRN	?ReserveModelThing@CGraphicThingInstance@@QAEXH@Z:PROC ; CGraphicThingInstance::ReserveModelThing
EXTRN	?GetDropModelThing@CItemData@@QAEPAVCGraphicThing@@XZ:PROC ; CItemData::GetDropModelThing
EXTRN	?PlaySound2D@CSoundManager@@QAEXPBD@Z:PROC	; CSoundManager::PlaySound2D
EXTRN	?BlendRender@CGraphicObjectInstance@@QAEXXZ:PROC ; CGraphicObjectInstance::BlendRender
EXTRN	?Deform@CGraphicObjectInstance@@QAEXXZ:PROC	; CGraphicObjectInstance::Deform
EXTRN	?SetDiffuseOperation@CScreen@@QAEXXZ:PROC	; CScreen::SetDiffuseOperation
EXTRN	_D3DXQuaternionRotationAxis@12:PROC
EXTRN	?Transform@CGraphicObjectInstance@@QAEXXZ:PROC	; CGraphicObjectInstance::Transform
EXTRN	_D3DXQuaternionMultiply@12:PROC
EXTRN	?SetPosition@CGraphicObjectInstance@@QAEXMMM@Z:PROC ; CGraphicObjectInstance::SetPosition
EXTRN	?PlaySound3D@CSoundManager@@QAEXMMMPBDH@Z:PROC	; CSoundManager::PlaySound3D
EXTRN	?SetRotationQuaternion@CGraphicObjectInstance@@QAEXABUD3DXQUATERNION@@@Z:PROC ; CGraphicObjectInstance::SetRotationQuaternion
EXTRN	??0CGraphicThingInstance@@QAE@XZ:PROC		; CGraphicThingInstance::CGraphicThingInstance
EXTRN	??1CGraphicThingInstance@@UAE@XZ:PROC		; CGraphicThingInstance::~CGraphicThingInstance
EXTRN	?Clear@CGraphicObjectInstance@@QAEXXZ:PROC	; CGraphicObjectInstance::Clear
;	COMDAT ?ms_singleton@?$CSingleton@VCSoundManager@@@@0PAVCSoundManager@@A
_BSS	SEGMENT
?ms_singleton@?$CSingleton@VCSoundManager@@@@0PAVCSoundManager@@A DD 01H DUP (?) ; CSingleton<CSoundManager>::ms_singleton
_BSS	ENDS
;	COMDAT ??_7SGroundItemInstance@CPythonItem@@6B@
CONST	SEGMENT
??_7SGroundItemInstance@CPythonItem@@6B@ DD FLAT:??_R4SGroundItemInstance@CPythonItem@@6B@ ; CPythonItem::SGroundItemInstance::`vftable'
	DD	FLAT:??_ESGroundItemInstance@CPythonItem@@UAEPAXI@Z
CONST	ENDS
;	COMDAT ??_7CPythonItem@@6B@
CONST	SEGMENT
??_7CPythonItem@@6B@ DD FLAT:??_R4CPythonItem@@6B@	; CPythonItem::`vftable'
	DD	FLAT:??_ECPythonItem@@UAEPAXI@Z
CONST	ENDS
;	COMDAT ??_7?$CDynamicPool@USGroundItemInstance@CPythonItem@@@@6B@
CONST	SEGMENT
??_7?$CDynamicPool@USGroundItemInstance@CPythonItem@@@@6B@ DD FLAT:??_R4?$CDynamicPool@USGroundItemInstance@CPythonItem@@@@6B@ ; CDynamicPool<CPythonItem::SGroundItemInstance>::`vftable'
	DD	FLAT:??_E?$CDynamicPool@USGroundItemInstance@CPythonItem@@@@UAEPAXI@Z
CONST	ENDS
;	COMDAT ??_7?$CSingleton@VCPythonItem@@@@6B@
CONST	SEGMENT
??_7?$CSingleton@VCPythonItem@@@@6B@ DD FLAT:??_R4?$CSingleton@VCPythonItem@@@@6B@ ; CSingleton<CPythonItem>::`vftable'
	DD	FLAT:??_E?$CSingleton@VCPythonItem@@@@UAEPAXI@Z
CONST	ENDS
;	COMDAT ?less@partial_ordering@std@@2U12@B
CONST	SEGMENT
?less@partial_ordering@std@@2U12@B DB 0ffH		; std::partial_ordering::less
CONST	ENDS
;	COMDAT ?greater@partial_ordering@std@@2U12@B
CONST	SEGMENT
?greater@partial_ordering@std@@2U12@B DB 01H		; std::partial_ordering::greater
CONST	ENDS
;	COMDAT ?equivalent@partial_ordering@std@@2U12@B
CONST	SEGMENT
?equivalent@partial_ordering@std@@2U12@B DB 00H		; std::partial_ordering::equivalent
CONST	ENDS
;	COMDAT ?unordered@partial_ordering@std@@2U12@B
CONST	SEGMENT
?unordered@partial_ordering@std@@2U12@B DB 080H		; std::partial_ordering::unordered
CONST	ENDS
;	COMDAT ??_R4CPythonItem@@6B@
rdata$r	SEGMENT
??_R4CPythonItem@@6B@ DD 00H				; CPythonItem::`RTTI Complete Object Locator'
	DD	00H
	DD	00H
	DD	FLAT:??_R0?AVCPythonItem@@@8
	DD	FLAT:??_R3CPythonItem@@8
rdata$r	ENDS
;	COMDAT ??_R4?$CSingleton@VCPythonItem@@@@6B@
rdata$r	SEGMENT
??_R4?$CSingleton@VCPythonItem@@@@6B@ DD 00H		; CSingleton<CPythonItem>::`RTTI Complete Object Locator'
	DD	00H
	DD	00H
	DD	FLAT:??_R0?AV?$CSingleton@VCPythonItem@@@@@8
	DD	FLAT:??_R3?$CSingleton@VCPythonItem@@@@8
rdata$r	ENDS
;	COMDAT ??_R4SGroundItemInstance@CPythonItem@@6B@
rdata$r	SEGMENT
??_R4SGroundItemInstance@CPythonItem@@6B@ DD 00H	; CPythonItem::SGroundItemInstance::`RTTI Complete Object Locator'
	DD	00H
	DD	00H
	DD	FLAT:??_R0?AUSGroundItemInstance@CPythonItem@@@8
	DD	FLAT:??_R3SGroundItemInstance@CPythonItem@@8
rdata$r	ENDS
;	COMDAT ??_R4?$CDynamicPool@USGroundItemInstance@CPythonItem@@@@6B@
rdata$r	SEGMENT
??_R4?$CDynamicPool@USGroundItemInstance@CPythonItem@@@@6B@ DD 00H ; CDynamicPool<CPythonItem::SGroundItemInstance>::`RTTI Complete Object Locator'
	DD	00H
	DD	00H
	DD	FLAT:??_R0?AV?$CDynamicPool@USGroundItemInstance@CPythonItem@@@@@8
	DD	FLAT:??_R3?$CDynamicPool@USGroundItemInstance@CPythonItem@@@@8
rdata$r	ENDS
;	COMDAT ??_R0?AVCPythonItem@@@8
data$rs	SEGMENT
??_R0?AVCPythonItem@@@8 DD FLAT:??_7type_info@@6B@	; CPythonItem `RTTI Type Descriptor'
	DD	00H
	DB	'.?AVCPythonItem@@', 00H
data$rs	ENDS
;	COMDAT ??_R3CPythonItem@@8
rdata$r	SEGMENT
??_R3CPythonItem@@8 DD 00H				; CPythonItem::`RTTI Class Hierarchy Descriptor'
	DD	00H
	DD	02H
	DD	FLAT:??_R2CPythonItem@@8
rdata$r	ENDS
;	COMDAT ??_R0?AV?$CSingleton@VCPythonItem@@@@@8
data$rs	SEGMENT
??_R0?AV?$CSingleton@VCPythonItem@@@@@8 DD FLAT:??_7type_info@@6B@ ; CSingleton<CPythonItem> `RTTI Type Descriptor'
	DD	00H
	DB	'.?AV?$CSingleton@VCPythonItem@@@@', 00H
data$rs	ENDS
;	COMDAT ??_R3?$CSingleton@VCPythonItem@@@@8
rdata$r	SEGMENT
??_R3?$CSingleton@VCPythonItem@@@@8 DD 00H		; CSingleton<CPythonItem>::`RTTI Class Hierarchy Descriptor'
	DD	00H
	DD	01H
	DD	FLAT:??_R2?$CSingleton@VCPythonItem@@@@8
rdata$r	ENDS
;	COMDAT ??_R0?AUSGroundItemInstance@CPythonItem@@@8
data$rs	SEGMENT
??_R0?AUSGroundItemInstance@CPythonItem@@@8 DD FLAT:??_7type_info@@6B@ ; CPythonItem::SGroundItemInstance `RTTI Type Descriptor'
	DD	00H
	DB	'.?AUSGroundItemInstance@CPythonItem@@', 00H
data$rs	ENDS
;	COMDAT ??_R3SGroundItemInstance@CPythonItem@@8
rdata$r	SEGMENT
??_R3SGroundItemInstance@CPythonItem@@8 DD 00H		; CPythonItem::SGroundItemInstance::`RTTI Class Hierarchy Descriptor'
	DD	00H
	DD	01H
	DD	FLAT:??_R2SGroundItemInstance@CPythonItem@@8
rdata$r	ENDS
;	COMDAT ??_R0?AV?$CDynamicPool@USGroundItemInstance@CPythonItem@@@@@8
data$rs	SEGMENT
??_R0?AV?$CDynamicPool@USGroundItemInstance@CPythonItem@@@@@8 DD FLAT:??_7type_info@@6B@ ; CDynamicPool<CPythonItem::SGroundItemInstance> `RTTI Type Descriptor'
	DD	00H
	DB	'.?AV?$CDynamicPool@USGroundItemInstance@CPythonItem@@@@', 00H
data$rs	ENDS
;	COMDAT ??_R3?$CDynamicPool@USGroundItemInstance@CPythonItem@@@@8
rdata$r	SEGMENT
??_R3?$CDynamicPool@USGroundItemInstance@CPythonItem@@@@8 DD 00H ; CDynamicPool<CPythonItem::SGroundItemInstance>::`RTTI Class Hierarchy Descriptor'
	DD	00H
	DD	01H
	DD	FLAT:??_R2?$CDynamicPool@USGroundItemInstance@CPythonItem@@@@8
rdata$r	ENDS
;	COMDAT ??_R1A@?0A@EA@?$CSingleton@VCPythonItem@@@@8
rdata$r	SEGMENT
??_R1A@?0A@EA@?$CSingleton@VCPythonItem@@@@8 DD FLAT:??_R0?AV?$CSingleton@VCPythonItem@@@@@8 ; CSingleton<CPythonItem>::`RTTI Base Class Descriptor at (0,-1,0,64)'
	DD	00H
	DD	00H
	DD	0ffffffffH
	DD	00H
	DD	040H
	DD	FLAT:??_R3?$CSingleton@VCPythonItem@@@@8
rdata$r	ENDS
;	COMDAT ??_R1A@?0A@EA@CPythonItem@@8
rdata$r	SEGMENT
??_R1A@?0A@EA@CPythonItem@@8 DD FLAT:??_R0?AVCPythonItem@@@8 ; CPythonItem::`RTTI Base Class Descriptor at (0,-1,0,64)'
	DD	01H
	DD	00H
	DD	0ffffffffH
	DD	00H
	DD	040H
	DD	FLAT:??_R3CPythonItem@@8
rdata$r	ENDS
;	COMDAT ??_R1A@?0A@EA@SGroundItemInstance@CPythonItem@@8
rdata$r	SEGMENT
??_R1A@?0A@EA@SGroundItemInstance@CPythonItem@@8 DD FLAT:??_R0?AUSGroundItemInstance@CPythonItem@@@8 ; CPythonItem::SGroundItemInstance::`RTTI Base Class Descriptor at (0,-1,0,64)'
	DD	00H
	DD	00H
	DD	0ffffffffH
	DD	00H
	DD	040H
	DD	FLAT:??_R3SGroundItemInstance@CPythonItem@@8
rdata$r	ENDS
;	COMDAT ??_R1A@?0A@EA@?$CDynamicPool@USGroundItemInstance@CPythonItem@@@@8
rdata$r	SEGMENT
??_R1A@?0A@EA@?$CDynamicPool@USGroundItemInstance@CPythonItem@@@@8 DD FLAT:??_R0?AV?$CDynamicPool@USGroundItemInstance@CPythonItem@@@@@8 ; CDynamicPool<CPythonItem::SGroundItemInstance>::`RTTI Base Class Descriptor at (0,-1,0,64)'
	DD	00H
	DD	00H
	DD	0ffffffffH
	DD	00H
	DD	040H
	DD	FLAT:??_R3?$CDynamicPool@USGroundItemInstance@CPythonItem@@@@8
rdata$r	ENDS
;	COMDAT ??_R2?$CSingleton@VCPythonItem@@@@8
rdata$r	SEGMENT
??_R2?$CSingleton@VCPythonItem@@@@8 DD FLAT:??_R1A@?0A@EA@?$CSingleton@VCPythonItem@@@@8 ; CSingleton<CPythonItem>::`RTTI Base Class Array'
rdata$r	ENDS
;	COMDAT ??_R2CPythonItem@@8
rdata$r	SEGMENT
??_R2CPythonItem@@8 DD FLAT:??_R1A@?0A@EA@CPythonItem@@8 ; CPythonItem::`RTTI Base Class Array'
	DD	FLAT:??_R1A@?0A@EA@?$CSingleton@VCPythonItem@@@@8
rdata$r	ENDS
;	COMDAT ??_R2SGroundItemInstance@CPythonItem@@8
rdata$r	SEGMENT
??_R2SGroundItemInstance@CPythonItem@@8 DD FLAT:??_R1A@?0A@EA@SGroundItemInstance@CPythonItem@@8 ; CPythonItem::SGroundItemInstance::`RTTI Base Class Array'
rdata$r	ENDS
;	COMDAT ??_R2?$CDynamicPool@USGroundItemInstance@CPythonItem@@@@8
rdata$r	SEGMENT
??_R2?$CDynamicPool@USGroundItemInstance@CPythonItem@@@@8 DD FLAT:??_R1A@?0A@EA@?$CDynamicPool@USGroundItemInstance@CPythonItem@@@@8 ; CDynamicPool<CPythonItem::SGroundItemInstance>::`RTTI Base Class Array'
rdata$r	ENDS
;	COMDAT ??_C@_0CC@LIGJBHKC@CDynamicPool?$DMTGroundItemInstanc@
CONST	SEGMENT
??_C@_0CC@LIGJBHKC@CDynamicPool?$DMTGroundItemInstanc@ DB 'CDynamicPool<T'
	DB	'GroundItemInstance>', 00H			; `string'
CONST	ENDS
;	COMDAT ??_C@_0CO@ILCHIEAM@d?3?1ymir?5work?1effect?1etc?1dropite@
CONST	SEGMENT
??_C@_0CO@ILCHIEAM@d?3?1ymir?5work?1effect?1etc?1dropite@ DB 'd:/ymir wor'
	DB	'k/effect/etc/dropitem/dropitem.mse', 00H	; `string'
CONST	ENDS
;	COMDAT ??_C@_0BJ@CMCGILDJ@SetDropSoundFile?5?$CFd?5?3?5?$CFs@
CONST	SEGMENT
??_C@_0BJ@CMCGILDJ@SetDropSoundFile?5?$CFd?5?3?5?$CFs@ DB 'SetDropSoundFi'
	DB	'le %d : %s', 00H				; `string'
CONST	ENDS
;	COMDAT ??_C@_0BH@BBCPOMJB@Item?3?5Inst?5?$CFd?0?5Pool?5?$CFd@
CONST	SEGMENT
??_C@_0BH@BBCPOMJB@Item?3?5Inst?5?$CFd?0?5Pool?5?$CFd@ DB 'Item: Inst %d,'
	DB	' Pool %d', 00H				; `string'
PUBLIC	??0D3DXQUATERNION@@QAE@MMMM@Z			; D3DXQUATERNION::D3DXQUATERNION
PUBLIC	??GD3DXVECTOR3@@QBE?AU0@XZ			; D3DXVECTOR3::operator-
PUBLIC	??0D3DXQUATERNION@@QAE@XZ			; D3DXQUATERNION::D3DXQUATERNION
PUBLIC	?D3DXQuaternionConjugate@@YAPAUD3DXQUATERNION@@PAU1@PBU1@@Z ; D3DXQuaternionConjugate
PUBLIC	_sinf
PUBLIC	_cosf
PUBLIC	??Mstd@@YA_NUpartial_ordering@0@U_Literal_zero@0@@Z ; std::operator<
PUBLIC	??8std@@YA_NUpartial_ordering@0@U_Literal_zero@0@@Z ; std::operator==
PUBLIC	??Bstrong_ordering@std@@QBE?AUpartial_ordering@1@XZ ; std::strong_ordering::operator std::partial_ordering
PUBLIC	??$swap@H$0A@@std@@YAXAAH0@Z			; std::swap<int,0>
PUBLIC	??$construct_at@PAUSGroundItemInstance@CPythonItem@@PAU12@@std@@YAPAPAUSGroundItemInstance@CPythonItem@@QAPAU12@$$QAPAU12@@Z ; std::construct_at<CPythonItem::SGroundItemInstance *,CPythonItem::SGroundItemInstance *>
PUBLIC	??$move@AAM@std@@YA$$QAMAAM@Z			; std::move<float &>
PUBLIC	?_Get_first@?$_Compressed_pair@V?$allocator@PAUSGroundItemInstance@CPythonItem@@@std@@V?$_Vector_val@U?$_Simple_types@PAUSGroundItemInstance@CPythonItem@@@std@@@2@$00@std@@QBEABV?$allocator@PAUSGroundItemInstance@CPythonItem@@@2@XZ ; std::_Compressed_pair<std::allocator<CPythonItem::SGroundItemInstance *>,std::_Vector_val<std::_Simple_types<CPythonItem::SGroundItemInstance *> >,1>::_Get_first
PUBLIC	??$construct@PAUSGroundItemInstance@CPythonItem@@PAU12@@?$_Default_allocator_traits@V?$allocator@PAUSGroundItemInstance@CPythonItem@@@std@@@std@@SAXAAV?$allocator@PAUSGroundItemInstance@CPythonItem@@@1@QAPAUSGroundItemInstance@CPythonItem@@$$QAPAU34@@Z ; std::_Default_allocator_traits<std::allocator<CPythonItem::SGroundItemInstance *> >::construct<CPythonItem::SGroundItemInstance *,CPythonItem::SGroundItemInstance *>
PUBLIC	??$forward@PAUSGroundItemInstance@CPythonItem@@@std@@YA$$QAPAUSGroundItemInstance@CPythonItem@@AAPAU12@@Z ; std::forward<CPythonItem::SGroundItemInstance *>
PUBLIC	??$_Copy_memmove_tail@PAPAUSGroundItemInstance@CPythonItem@@@std@@YAPAPAUSGroundItemInstance@CPythonItem@@QBDQAPAU12@II@Z ; std::_Copy_memmove_tail<CPythonItem::SGroundItemInstance * *>
PUBLIC	??$move@AAPAPAUSGroundItemInstance@CPythonItem@@@std@@YA$$QAPAPAUSGroundItemInstance@CPythonItem@@AAPAPAU12@@Z ; std::move<CPythonItem::SGroundItemInstance * * &>
PUBLIC	??$to_address@PAUSGroundItemInstance@CPythonItem@@@std@@YAPAPAUSGroundItemInstance@CPythonItem@@QAPAU12@@Z ; std::to_address<CPythonItem::SGroundItemInstance *>
PUBLIC	??$swap@M$0A@@std@@YAXAAM0@Z			; std::swap<float,0>
PUBLIC	?_Get_first@?$_Compressed_pair@V?$allocator@U?$_Tree_node@U?$pair@$$CBKPAUSGroundItemInstance@CPythonItem@@@std@@PAX@std@@@std@@V?$_Tree_val@U?$_Tree_simple_types@U?$pair@$$CBKPAUSGroundItemInstance@CPythonItem@@@std@@@std@@@2@$00@std@@QBEABV?$allocator@U?$_Tree_node@U?$pair@$$CBKPAUSGroundItemInstance@CPythonItem@@@std@@PAX@std@@@2@XZ ; std::_Compressed_pair<std::allocator<std::_Tree_node<std::pair<unsigned long const ,CPythonItem::SGroundItemInstance *>,void *> >,std::_Tree_val<std::_Tree_simple_types<std::pair<unsigned long const ,CPythonItem::SGroundItemInstance *> > >,1>::_Get_first
PUBLIC	?allocate@?$allocator@PAUSGroundItemInstance@CPythonItem@@@std@@QAEPAPAUSGroundItemInstance@CPythonItem@@I@Z ; std::allocator<CPythonItem::SGroundItemInstance *>::allocate
PUBLIC	?capacity@?$vector@PAUSGroundItemInstance@CPythonItem@@V?$allocator@PAUSGroundItemInstance@CPythonItem@@@std@@@std@@QBEIXZ ; std::vector<CPythonItem::SGroundItemInstance *,std::allocator<CPythonItem::SGroundItemInstance *> >::capacity
PUBLIC	?_Getal@?$vector@PAUSGroundItemInstance@CPythonItem@@V?$allocator@PAUSGroundItemInstance@CPythonItem@@@std@@@std@@ABEABV?$allocator@PAUSGroundItemInstance@CPythonItem@@@2@XZ ; std::vector<CPythonItem::SGroundItemInstance *,std::allocator<CPythonItem::SGroundItemInstance *> >::_Getal
PUBLIC	?max_size@?$_Default_allocator_traits@V?$allocator@PAUSGroundItemInstance@CPythonItem@@@std@@@std@@SAIABV?$allocator@PAUSGroundItemInstance@CPythonItem@@@2@@Z ; std::_Default_allocator_traits<std::allocator<CPythonItem::SGroundItemInstance *> >::max_size
PUBLIC	?swap@?$pair@MH@std@@QAEXAAU12@@Z		; std::pair<float,int>::swap
PUBLIC	??0?$_Uninitialized_backout_al@V?$allocator@PAUSGroundItemInstance@CPythonItem@@@std@@@std@@QAE@PAPAUSGroundItemInstance@CPythonItem@@AAV?$allocator@PAUSGroundItemInstance@CPythonItem@@@1@@Z ; std::_Uninitialized_backout_al<std::allocator<CPythonItem::SGroundItemInstance *> >::_Uninitialized_backout_al<std::allocator<CPythonItem::SGroundItemInstance *> >
PUBLIC	??1?$_Uninitialized_backout_al@V?$allocator@PAUSGroundItemInstance@CPythonItem@@@std@@@std@@QAE@XZ ; std::_Uninitialized_backout_al<std::allocator<CPythonItem::SGroundItemInstance *> >::~_Uninitialized_backout_al<std::allocator<CPythonItem::SGroundItemInstance *> >
PUBLIC	?_Release@?$_Uninitialized_backout_al@V?$allocator@PAUSGroundItemInstance@CPythonItem@@@std@@@std@@QAEPAPAUSGroundItemInstance@CPythonItem@@XZ ; std::_Uninitialized_backout_al<std::allocator<CPythonItem::SGroundItemInstance *> >::_Release
PUBLIC	??$construct_at@PAU?$_Tree_node@U?$pair@$$CBKPAUSGroundItemInstance@CPythonItem@@@std@@PAX@std@@ABQAU12@@std@@YAPAPAU?$_Tree_node@U?$pair@$$CBKPAUSGroundItemInstance@CPythonItem@@@std@@PAX@0@QAPAU10@ABQAU10@@Z ; std::construct_at<std::_Tree_node<std::pair<unsigned long const ,CPythonItem::SGroundItemInstance *>,void *> *,std::_Tree_node<std::pair<unsigned long const ,CPythonItem::SGroundItemInstance *>,void *> * const &>
PUBLIC	??$forward@ABQAU?$_Tree_node@U?$pair@$$CBKPAUSGroundItemInstance@CPythonItem@@@std@@PAX@std@@@std@@YAABQAU?$_Tree_node@U?$pair@$$CBKPAUSGroundItemInstance@CPythonItem@@@std@@PAX@0@ABQAU10@@Z ; std::forward<std::_Tree_node<std::pair<unsigned long const ,CPythonItem::SGroundItemInstance *>,void *> * const &>
PUBLIC	??$_Emplace_back@PAUSGroundItemInstance@CPythonItem@@@?$_Uninitialized_backout_al@V?$allocator@PAUSGroundItemInstance@CPythonItem@@@std@@@std@@QAEX$$QAPAUSGroundItemInstance@CPythonItem@@@Z ; std::_Uninitialized_backout_al<std::allocator<CPythonItem::SGroundItemInstance *> >::_Emplace_back<CPythonItem::SGroundItemInstance *>
PUBLIC	??$_To_address@PAPAUSGroundItemInstance@CPythonItem@@@std@@YA?A_PABQAPAUSGroundItemInstance@CPythonItem@@@Z ; std::_To_address<CPythonItem::SGroundItemInstance * *>
PUBLIC	??$_Copy_memmove@PAPAUSGroundItemInstance@CPythonItem@@PAPAU12@@std@@YAPAPAUSGroundItemInstance@CPythonItem@@PAPAU12@00@Z ; std::_Copy_memmove<CPythonItem::SGroundItemInstance * *,CPythonItem::SGroundItemInstance * *>
PUBLIC	??$move@AAPAUSGroundItemInstance@CPythonItem@@@std@@YA$$QAPAUSGroundItemInstance@CPythonItem@@AAPAU12@@Z ; std::move<CPythonItem::SGroundItemInstance * &>
PUBLIC	??$construct_at@PAUSGroundItemInstance@CPythonItem@@ABQAU12@@std@@YAPAPAUSGroundItemInstance@CPythonItem@@QAPAU12@ABQAU12@@Z ; std::construct_at<CPythonItem::SGroundItemInstance *,CPythonItem::SGroundItemInstance * const &>
PUBLIC	??$addressof@PAUSGroundItemInstance@CPythonItem@@@std@@YAPAPAUSGroundItemInstance@CPythonItem@@AAPAU12@@Z ; std::addressof<CPythonItem::SGroundItemInstance *>
PUBLIC	??$forward@AAPAU?$pair@MH@std@@@std@@YAAAPAU?$pair@MH@0@AAPAU10@@Z ; std::forward<std::pair<float,int> * &>
PUBLIC	??$_Med3_unchecked@PAU?$pair@MH@std@@U?$less@X@2@@std@@YAXPAU?$pair@MH@0@00U?$less@X@0@@Z ; std::_Med3_unchecked<std::pair<float,int> *,std::less<void> >
PUBLIC	??$_Pop_heap_hole_unchecked@PAU?$pair@MH@std@@U12@U?$less@X@2@@std@@YAXPAU?$pair@MH@0@00$$QAU10@U?$less@X@0@@Z ; std::_Pop_heap_hole_unchecked<std::pair<float,int> *,std::pair<float,int>,std::less<void> >
PUBLIC	??$_Push_heap_by_index@PAU?$pair@MH@std@@U12@U?$less@X@2@@std@@YAXPAU?$pair@MH@0@HH$$QAU10@U?$less@X@0@@Z ; std::_Push_heap_by_index<std::pair<float,int> *,std::pair<float,int>,std::less<void> >
PUBLIC	??$forward@U?$pair@MH@std@@@std@@YA$$QAU?$pair@MH@0@AAU10@@Z ; std::forward<std::pair<float,int> >
PUBLIC	??$?__MMHMH@std@@YA?AUpartial_ordering@0@ABU?$pair@MH@0@0@Z ; std::operator<=><float,int,float,int>
PUBLIC	?_Getal@?$_Tree@V?$_Tmap_traits@KPAUSGroundItemInstance@CPythonItem@@U?$less@K@std@@V?$allocator@U?$pair@$$CBKPAUSGroundItemInstance@CPythonItem@@@std@@@4@$0A@@std@@@std@@IBEABV?$allocator@U?$_Tree_node@U?$pair@$$CBKPAUSGroundItemInstance@CPythonItem@@@std@@PAX@std@@@2@XZ ; std::_Tree<std::_Tmap_traits<unsigned long,CPythonItem::SGroundItemInstance *,std::less<unsigned long>,std::allocator<std::pair<unsigned long const ,CPythonItem::SGroundItemInstance *> >,0> >::_Getal
PUBLIC	??0?$allocator@U?$_Tree_node@U?$pair@$$CBKPAUSGroundItemInstance@CPythonItem@@@std@@PAX@std@@@std@@QAE@XZ ; std::allocator<std::_Tree_node<std::pair<unsigned long const ,CPythonItem::SGroundItemInstance *>,void *> >::allocator<std::_Tree_node<std::pair<unsigned long const ,CPythonItem::SGroundItemInstance *>,void *> >
PUBLIC	?deallocate@?$allocator@U?$_Tree_node@U?$pair@$$CBKPAUSGroundItemInstance@CPythonItem@@@std@@PAX@std@@@std@@QAEXQAU?$_Tree_node@U?$pair@$$CBKPAUSGroundItemInstance@CPythonItem@@@std@@PAX@2@I@Z ; std::allocator<std::_Tree_node<std::pair<unsigned long const ,CPythonItem::SGroundItemInstance *>,void *> >::deallocate
PUBLIC	?allocate@?$allocator@U?$_Tree_node@U?$pair@$$CBKPAUSGroundItemInstance@CPythonItem@@@std@@PAX@std@@@std@@QAEPAU?$_Tree_node@U?$pair@$$CBKPAUSGroundItemInstance@CPythonItem@@@std@@PAX@2@I@Z ; std::allocator<std::_Tree_node<std::pair<unsigned long const ,CPythonItem::SGroundItemInstance *>,void *> >::allocate
PUBLIC	?max_size@?$_Default_allocator_traits@V?$allocator@U?$_Tree_node@U?$pair@$$CBKPAUSGroundItemInstance@CPythonItem@@@std@@PAX@std@@@std@@@std@@SAIABV?$allocator@U?$_Tree_node@U?$pair@$$CBKPAUSGroundItemInstance@CPythonItem@@@std@@PAX@std@@@2@@Z ; std::_Default_allocator_traits<std::allocator<std::_Tree_node<std::pair<unsigned long const ,CPythonItem::SGroundItemInstance *>,void *> > >::max_size
PUBLIC	??0?$_Tree_val@U?$_Tree_simple_types@U?$pair@$$CBKPAUSGroundItemInstance@CPythonItem@@@std@@@std@@@std@@QAE@XZ ; std::_Tree_val<std::_Tree_simple_types<std::pair<unsigned long const ,CPythonItem::SGroundItemInstance *> > >::_Tree_val<std::_Tree_simple_types<std::pair<unsigned long const ,CPythonItem::SGroundItemInstance *> > >
PUBLIC	?_Get_first@?$_Compressed_pair@U?$less@K@std@@V?$_Compressed_pair@V?$allocator@U?$_Tree_node@U?$pair@$$CBKPAUSGroundItemInstance@CPythonItem@@@std@@PAX@std@@@std@@V?$_Tree_val@U?$_Tree_simple_types@U?$pair@$$CBKPAUSGroundItemInstance@CPythonItem@@@std@@@std@@@2@$00@2@$00@std@@QBEABU?$less@K@2@XZ ; std::_Compressed_pair<std::less<unsigned long>,std::_Compressed_pair<std::allocator<std::_Tree_node<std::pair<unsigned long const ,CPythonItem::SGroundItemInstance *>,void *> >,std::_Tree_val<std::_Tree_simple_types<std::pair<unsigned long const ,CPythonItem::SGroundItemInstance *> > >,1>,1>::_Get_first
PUBLIC	?max_size@?$vector@PAUSGroundItemInstance@CPythonItem@@V?$allocator@PAUSGroundItemInstance@CPythonItem@@@std@@@std@@QBEIXZ ; std::vector<CPythonItem::SGroundItemInstance *,std::allocator<CPythonItem::SGroundItemInstance *> >::max_size
PUBLIC	?_Calculate_growth@?$vector@PAUSGroundItemInstance@CPythonItem@@V?$allocator@PAUSGroundItemInstance@CPythonItem@@@std@@@std@@ABEII@Z ; std::vector<CPythonItem::SGroundItemInstance *,std::allocator<CPythonItem::SGroundItemInstance *> >::_Calculate_growth
PUBLIC	?_Change_array@?$vector@PAUSGroundItemInstance@CPythonItem@@V?$allocator@PAUSGroundItemInstance@CPythonItem@@@std@@@std@@AAEXQAPAUSGroundItemInstance@CPythonItem@@II@Z ; std::vector<CPythonItem::SGroundItemInstance *,std::allocator<CPythonItem::SGroundItemInstance *> >::_Change_array
PUBLIC	?_Xlength@?$vector@PAUSGroundItemInstance@CPythonItem@@V?$allocator@PAUSGroundItemInstance@CPythonItem@@@std@@@std@@CAXXZ ; std::vector<CPythonItem::SGroundItemInstance *,std::allocator<CPythonItem::SGroundItemInstance *> >::_Xlength
PUBLIC	??1_Reallocation_guard@?$vector@PAUSGroundItemInstance@CPythonItem@@V?$allocator@PAUSGroundItemInstance@CPythonItem@@@std@@@std@@QAE@XZ ; std::vector<CPythonItem::SGroundItemInstance *,std::allocator<CPythonItem::SGroundItemInstance *> >::_Reallocation_guard::~_Reallocation_guard
PUBLIC	??0?$_Alloc_construct_ptr@V?$allocator@U?$_Tree_node@U?$pair@$$CBKPAUSGroundItemInstance@CPythonItem@@@std@@PAX@std@@@std@@@std@@QAE@AAV?$allocator@U?$_Tree_node@U?$pair@$$CBKPAUSGroundItemInstance@CPythonItem@@@std@@PAX@std@@@1@@Z ; std::_Alloc_construct_ptr<std::allocator<std::_Tree_node<std::pair<unsigned long const ,CPythonItem::SGroundItemInstance *>,void *> > >::_Alloc_construct_ptr<std::allocator<std::_Tree_node<std::pair<unsigned long const ,CPythonItem::SGroundItemInstance *>,void *> > >
PUBLIC	?_Allocate@?$_Alloc_construct_ptr@V?$allocator@U?$_Tree_node@U?$pair@$$CBKPAUSGroundItemInstance@CPythonItem@@@std@@PAX@std@@@std@@@std@@QAEXXZ ; std::_Alloc_construct_ptr<std::allocator<std::_Tree_node<std::pair<unsigned long const ,CPythonItem::SGroundItemInstance *>,void *> > >::_Allocate
PUBLIC	??$_Construct_in_place@PAU?$_Tree_node@U?$pair@$$CBKPAUSGroundItemInstance@CPythonItem@@@std@@PAX@std@@ABQAU12@@std@@YAXAAPAU?$_Tree_node@U?$pair@$$CBKPAUSGroundItemInstance@CPythonItem@@@std@@PAX@0@ABQAU10@@Z ; std::_Construct_in_place<std::_Tree_node<std::pair<unsigned long const ,CPythonItem::SGroundItemInstance *>,void *> *,std::_Tree_node<std::pair<unsigned long const ,CPythonItem::SGroundItemInstance *>,void *> * const &>
PUBLIC	??$_Uninitialized_move@PAPAUSGroundItemInstance@CPythonItem@@V?$allocator@PAUSGroundItemInstance@CPythonItem@@@std@@@std@@YAPAPAUSGroundItemInstance@CPythonItem@@QAPAU12@0PAPAU12@AAV?$allocator@PAUSGroundItemInstance@CPythonItem@@@0@@Z ; std::_Uninitialized_move<CPythonItem::SGroundItemInstance * *,std::allocator<CPythonItem::SGroundItemInstance *> >
PUBLIC	??$_Get_unwrapped@ABQAPAUSGroundItemInstance@CPythonItem@@@std@@YA?A_TABQAPAUSGroundItemInstance@CPythonItem@@@Z ; std::_Get_unwrapped<CPythonItem::SGroundItemInstance * * const &>
PUBLIC	??$construct@PAUSGroundItemInstance@CPythonItem@@ABQAU12@@?$_Default_allocator_traits@V?$allocator@PAUSGroundItemInstance@CPythonItem@@@std@@@std@@SAXAAV?$allocator@PAUSGroundItemInstance@CPythonItem@@@1@QAPAUSGroundItemInstance@CPythonItem@@ABQAU34@@Z ; std::_Default_allocator_traits<std::allocator<CPythonItem::SGroundItemInstance *> >::construct<CPythonItem::SGroundItemInstance *,CPythonItem::SGroundItemInstance * const &>
PUBLIC	??$_Allocate_at_least_helper@V?$allocator@PAUSGroundItemInstance@CPythonItem@@@std@@@std@@YAPAPAUSGroundItemInstance@CPythonItem@@AAV?$allocator@PAUSGroundItemInstance@CPythonItem@@@0@AAI@Z ; std::_Allocate_at_least_helper<std::allocator<CPythonItem::SGroundItemInstance *> >
PUBLIC	??$_Construct_in_place@PAUSGroundItemInstance@CPythonItem@@ABQAU12@@std@@YAXAAPAUSGroundItemInstance@CPythonItem@@ABQAU12@@Z ; std::_Construct_in_place<CPythonItem::SGroundItemInstance *,CPythonItem::SGroundItemInstance * const &>
PUBLIC	??$destroy_at@U?$pair@$$CBKPAUSGroundItemInstance@CPythonItem@@@std@@@std@@YAXQAU?$pair@$$CBKPAUSGroundItemInstance@CPythonItem@@@0@@Z ; std::destroy_at<std::pair<unsigned long const ,CPythonItem::SGroundItemInstance *> >
PUBLIC	??$construct_at@PAU?$_Tree_node@U?$pair@$$CBKPAUSGroundItemInstance@CPythonItem@@@std@@PAX@std@@AAPAU12@@std@@YAPAPAU?$_Tree_node@U?$pair@$$CBKPAUSGroundItemInstance@CPythonItem@@@std@@PAX@0@QAPAU10@AAPAU10@@Z ; std::construct_at<std::_Tree_node<std::pair<unsigned long const ,CPythonItem::SGroundItemInstance *>,void *> *,std::_Tree_node<std::pair<unsigned long const ,CPythonItem::SGroundItemInstance *>,void *> * &>
PUBLIC	??$addressof@PAU?$_Tree_node@U?$pair@$$CBKPAUSGroundItemInstance@CPythonItem@@@std@@PAX@std@@@std@@YAPAPAU?$_Tree_node@U?$pair@$$CBKPAUSGroundItemInstance@CPythonItem@@@std@@PAX@0@AAPAU10@@Z ; std::addressof<std::_Tree_node<std::pair<unsigned long const ,CPythonItem::SGroundItemInstance *>,void *> *>
PUBLIC	??$construct_at@U?$pair@$$CBKPAUSGroundItemInstance@CPythonItem@@@std@@U12@@std@@YAPAU?$pair@$$CBKPAUSGroundItemInstance@CPythonItem@@@0@QAU10@$$QAU10@@Z ; std::construct_at<std::pair<unsigned long const ,CPythonItem::SGroundItemInstance *>,std::pair<unsigned long const ,CPythonItem::SGroundItemInstance *> >
PUBLIC	??$?0AAPAU?$pair@MH@std@@AAPAU01@$0A@@?$pair@PAU?$pair@MH@std@@PAU12@@std@@QAE@AAPAU?$pair@MH@1@0@Z ; std::pair<std::pair<float,int> *,std::pair<float,int> *>::pair<std::pair<float,int> *,std::pair<float,int> *><std::pair<float,int> * &,std::pair<float,int> * &,0>
PUBLIC	??$swap@MH$0A@@std@@YAXAAU?$pair@MH@0@0@Z	; std::swap<float,int,0>
PUBLIC	??$_Next_iter@PAU?$pair@MH@std@@@std@@YAPAU?$pair@MH@0@PAU10@@Z ; std::_Next_iter<std::pair<float,int> *>
PUBLIC	??$_Guess_median_unchecked@PAU?$pair@MH@std@@U?$less@X@2@@std@@YAXPAU?$pair@MH@0@00U?$less@X@0@@Z ; std::_Guess_median_unchecked<std::pair<float,int> *,std::less<void> >
PUBLIC	??$_Prev_iter@PAU?$pair@MH@std@@@std@@YAPAU?$pair@MH@0@PAU10@@Z ; std::_Prev_iter<std::pair<float,int> *>
PUBLIC	??$_Pop_heap_unchecked@PAU?$pair@MH@std@@U?$less@X@2@@std@@YAXPAU?$pair@MH@0@0U?$less@X@0@@Z ; std::_Pop_heap_unchecked<std::pair<float,int> *,std::less<void> >
PUBLIC	??$_Pop_heap_hole_by_index@PAU?$pair@MH@std@@U12@U?$less@X@2@@std@@YAXPAU?$pair@MH@0@HH$$QAU10@U?$less@X@0@@Z ; std::_Pop_heap_hole_by_index<std::pair<float,int> *,std::pair<float,int>,std::less<void> >
PUBLIC	??$?4U?$pair@MH@std@@$0A@@?$pair@MH@std@@QAEAAU01@$$QAU01@@Z ; std::pair<float,int>::operator=<std::pair<float,int>,0>
PUBLIC	??$_Move_backward_unchecked@PAU?$pair@MH@std@@PAU12@@std@@YAPAU?$pair@MH@0@PAU10@00@Z ; std::_Move_backward_unchecked<std::pair<float,int> *,std::pair<float,int> *>
PUBLIC	??$?RAAU?$pair@MH@std@@AAU01@@?$less@X@std@@QBE_NAAU?$pair@MH@1@0@Z ; std::less<void>::operator()<std::pair<float,int> &,std::pair<float,int> &>
PUBLIC	??$move@AAU?$pair@MH@std@@@std@@YA$$QAU?$pair@MH@0@AAU10@@Z ; std::move<std::pair<float,int> &>
PUBLIC	?_Get_first@?$_Compressed_pair@V?$allocator@PAVCItemData@@@std@@V?$_Vector_val@U?$_Simple_types@PAVCItemData@@@std@@@2@$00@std@@QAEAAV?$allocator@PAVCItemData@@@2@XZ ; std::_Compressed_pair<std::allocator<CItemData *>,std::_Vector_val<std::_Simple_types<CItemData *> >,1>::_Get_first
PUBLIC	?max_size@?$_Tree@V?$_Tmap_traits@KPAUSGroundItemInstance@CPythonItem@@U?$less@K@std@@V?$allocator@U?$pair@$$CBKPAUSGroundItemInstance@CPythonItem@@@std@@@4@$0A@@std@@@std@@QBEIXZ ; std::_Tree<std::_Tmap_traits<unsigned long,CPythonItem::SGroundItemInstance *,std::less<unsigned long>,std::allocator<std::pair<unsigned long const ,CPythonItem::SGroundItemInstance *> >,0> >::max_size
PUBLIC	?_Getcomp@?$_Tree@V?$_Tmap_traits@KPAUSGroundItemInstance@CPythonItem@@U?$less@K@std@@V?$allocator@U?$pair@$$CBKPAUSGroundItemInstance@CPythonItem@@@std@@@4@$0A@@std@@@std@@IBEABU?$less@K@2@XZ ; std::_Tree<std::_Tmap_traits<unsigned long,CPythonItem::SGroundItemInstance *,std::less<unsigned long>,std::allocator<std::pair<unsigned long const ,CPythonItem::SGroundItemInstance *> >,0> >::_Getcomp
PUBLIC	?deallocate@?$_Default_allocator_traits@V?$allocator@U?$_Tree_node@U?$pair@$$CBKPAUSGroundItemInstance@CPythonItem@@@std@@PAX@std@@@std@@@std@@SAXAAV?$allocator@U?$_Tree_node@U?$pair@$$CBKPAUSGroundItemInstance@CPythonItem@@@std@@PAX@std@@@2@QAU?$_Tree_node@U?$pair@$$CBKPAUSGroundItemInstance@CPythonItem@@@std@@PAX@2@I@Z ; std::_Default_allocator_traits<std::allocator<std::_Tree_node<std::pair<unsigned long const ,CPythonItem::SGroundItemInstance *>,void *> > >::deallocate
PUBLIC	?_Max@?$_Tree_val@U?$_Tree_simple_types@U?$pair@$$CBKPAUSGroundItemInstance@CPythonItem@@@std@@@std@@@std@@SAPAU?$_Tree_node@U?$pair@$$CBKPAUSGroundItemInstance@CPythonItem@@@std@@PAX@2@PAU32@@Z ; std::_Tree_val<std::_Tree_simple_types<std::pair<unsigned long const ,CPythonItem::SGroundItemInstance *> > >::_Max
PUBLIC	?_Min@?$_Tree_val@U?$_Tree_simple_types@U?$pair@$$CBKPAUSGroundItemInstance@CPythonItem@@@std@@@std@@@std@@SAPAU?$_Tree_node@U?$pair@$$CBKPAUSGroundItemInstance@CPythonItem@@@std@@PAX@2@PAU32@@Z ; std::_Tree_val<std::_Tree_simple_types<std::pair<unsigned long const ,CPythonItem::SGroundItemInstance *> > >::_Min
PUBLIC	?_Lrotate@?$_Tree_val@U?$_Tree_simple_types@U?$pair@$$CBKPAUSGroundItemInstance@CPythonItem@@@std@@@std@@@std@@QAEXPAU?$_Tree_node@U?$pair@$$CBKPAUSGroundItemInstance@CPythonItem@@@std@@PAX@2@@Z ; std::_Tree_val<std::_Tree_simple_types<std::pair<unsigned long const ,CPythonItem::SGroundItemInstance *> > >::_Lrotate
PUBLIC	?_Rrotate@?$_Tree_val@U?$_Tree_simple_types@U?$pair@$$CBKPAUSGroundItemInstance@CPythonItem@@@std@@@std@@@std@@QAEXPAU?$_Tree_node@U?$pair@$$CBKPAUSGroundItemInstance@CPythonItem@@@std@@PAX@2@@Z ; std::_Tree_val<std::_Tree_simple_types<std::pair<unsigned long const ,CPythonItem::SGroundItemInstance *> > >::_Rrotate
PUBLIC	??0?$allocator@PAUSGroundItemInstance@CPythonItem@@@std@@QAE@XZ ; std::allocator<CPythonItem::SGroundItemInstance *>::allocator<CPythonItem::SGroundItemInstance *>
PUBLIC	?deallocate@?$allocator@PAUSGroundItemInstance@CPythonItem@@@std@@QAEXQAPAUSGroundItemInstance@CPythonItem@@I@Z ; std::allocator<CPythonItem::SGroundItemInstance *>::deallocate
PUBLIC	??0?$_Vector_val@U?$_Simple_types@PAUSGroundItemInstance@CPythonItem@@@std@@@std@@QAE@XZ ; std::_Vector_val<std::_Simple_types<CPythonItem::SGroundItemInstance *> >::_Vector_val<std::_Simple_types<CPythonItem::SGroundItemInstance *> >
PUBLIC	?_Get_first@?$_Compressed_pair@V?$allocator@PAUSGroundItemInstance@CPythonItem@@@std@@V?$_Vector_val@U?$_Simple_types@PAUSGroundItemInstance@CPythonItem@@@std@@@2@$00@std@@QAEAAV?$allocator@PAUSGroundItemInstance@CPythonItem@@@2@XZ ; std::_Compressed_pair<std::allocator<CPythonItem::SGroundItemInstance *>,std::_Vector_val<std::_Simple_types<CPythonItem::SGroundItemInstance *> >,1>::_Get_first
PUBLIC	??0?$_Tree_temp_node_alloc@V?$allocator@U?$_Tree_node@U?$pair@$$CBKPAUSGroundItemInstance@CPythonItem@@@std@@PAX@std@@@std@@@std@@QAE@AAV?$allocator@U?$_Tree_node@U?$pair@$$CBKPAUSGroundItemInstance@CPythonItem@@@std@@PAX@std@@@1@@Z ; std::_Tree_temp_node_alloc<std::allocator<std::_Tree_node<std::pair<unsigned long const ,CPythonItem::SGroundItemInstance *>,void *> > >::_Tree_temp_node_alloc<std::allocator<std::_Tree_node<std::pair<unsigned long const ,CPythonItem::SGroundItemInstance *>,void *> > >
PUBLIC	??1?$_Alloc_construct_ptr@V?$allocator@U?$_Tree_node@U?$pair@$$CBKPAUSGroundItemInstance@CPythonItem@@@std@@PAX@std@@@std@@@std@@QAE@XZ ; std::_Alloc_construct_ptr<std::allocator<std::_Tree_node<std::pair<unsigned long const ,CPythonItem::SGroundItemInstance *>,void *> > >::~_Alloc_construct_ptr<std::allocator<std::_Tree_node<std::pair<unsigned long const ,CPythonItem::SGroundItemInstance *>,void *> > >
PUBLIC	??$_Buyheadnode@V?$allocator@U?$_Tree_node@U?$pair@$$CBKPAUSGroundItemInstance@CPythonItem@@@std@@PAX@std@@@std@@@?$_Tree_node@U?$pair@$$CBKPAUSGroundItemInstance@CPythonItem@@@std@@PAX@std@@SAPAU01@AAV?$allocator@U?$_Tree_node@U?$pair@$$CBKPAUSGroundItemInstance@CPythonItem@@@std@@PAX@std@@@1@@Z ; std::_Tree_node<std::pair<unsigned long const ,CPythonItem::SGroundItemInstance *>,void *>::_Buyheadnode<std::allocator<std::_Tree_node<std::pair<unsigned long const ,CPythonItem::SGroundItemInstance *>,void *> > >
PUBLIC	??$_Unfancy_maybe_null@PAUSGroundItemInstance@CPythonItem@@@std@@YAPAPAUSGroundItemInstance@CPythonItem@@PAPAU12@@Z ; std::_Unfancy_maybe_null<CPythonItem::SGroundItemInstance *>
PUBLIC	??$_Destroy_range@V?$allocator@PAUSGroundItemInstance@CPythonItem@@@std@@@std@@YAXPAPAUSGroundItemInstance@CPythonItem@@QAPAU12@AAV?$allocator@PAUSGroundItemInstance@CPythonItem@@@0@@Z ; std::_Destroy_range<std::allocator<CPythonItem::SGroundItemInstance *> >
PUBLIC	??$exchange@PAU?$_Tree_node@U?$pair@$$CBKPAUSGroundItemInstance@CPythonItem@@@std@@PAX@std@@$$T@std@@YAPAU?$_Tree_node@U?$pair@$$CBKPAUSGroundItemInstance@CPythonItem@@@std@@PAX@0@AAPAU10@$$QA$$T@Z ; std::exchange<std::_Tree_node<std::pair<unsigned long const ,CPythonItem::SGroundItemInstance *>,void *> *,std::nullptr_t>
PUBLIC	??$_Emplace_reallocate@ABQAUSGroundItemInstance@CPythonItem@@@?$vector@PAUSGroundItemInstance@CPythonItem@@V?$allocator@PAUSGroundItemInstance@CPythonItem@@@std@@@std@@AAEPAPAUSGroundItemInstance@CPythonItem@@QAPAU23@ABQAU23@@Z ; std::vector<CPythonItem::SGroundItemInstance *,std::allocator<CPythonItem::SGroundItemInstance *> >::_Emplace_reallocate<CPythonItem::SGroundItemInstance * const &>
PUBLIC	??$_Emplace_back_with_unused_capacity@ABQAUSGroundItemInstance@CPythonItem@@@?$vector@PAUSGroundItemInstance@CPythonItem@@V?$allocator@PAUSGroundItemInstance@CPythonItem@@@std@@@std@@AAEAAPAUSGroundItemInstance@CPythonItem@@ABQAU23@@Z ; std::vector<CPythonItem::SGroundItemInstance *,std::allocator<CPythonItem::SGroundItemInstance *> >::_Emplace_back_with_unused_capacity<CPythonItem::SGroundItemInstance * const &>
PUBLIC	??$forward@ABQAUSGroundItemInstance@CPythonItem@@@std@@YAABQAUSGroundItemInstance@CPythonItem@@ABQAU12@@Z ; std::forward<CPythonItem::SGroundItemInstance * const &>
PUBLIC	??$destroy_at@PAUSGroundItemInstance@CPythonItem@@@std@@YAXQAPAUSGroundItemInstance@CPythonItem@@@Z ; std::destroy_at<CPythonItem::SGroundItemInstance *>
PUBLIC	??$_Destroy_in_place@PAU?$_Tree_node@U?$pair@$$CBKPAUSGroundItemInstance@CPythonItem@@@std@@PAX@std@@@std@@YAXAAPAU?$_Tree_node@U?$pair@$$CBKPAUSGroundItemInstance@CPythonItem@@@std@@PAX@0@@Z ; std::_Destroy_in_place<std::_Tree_node<std::pair<unsigned long const ,CPythonItem::SGroundItemInstance *>,void *> *>
PUBLIC	??$destroy@U?$pair@$$CBKPAUSGroundItemInstance@CPythonItem@@@std@@@?$_Default_allocator_traits@V?$allocator@U?$_Tree_node@U?$pair@$$CBKPAUSGroundItemInstance@CPythonItem@@@std@@PAX@std@@@std@@@std@@SAXAAV?$allocator@U?$_Tree_node@U?$pair@$$CBKPAUSGroundItemInstance@CPythonItem@@@std@@PAX@std@@@1@QAU?$pair@$$CBKPAUSGroundItemInstance@CPythonItem@@@1@@Z ; std::_Default_allocator_traits<std::allocator<std::_Tree_node<std::pair<unsigned long const ,CPythonItem::SGroundItemInstance *>,void *> > >::destroy<std::pair<unsigned long const ,CPythonItem::SGroundItemInstance *> >
PUBLIC	??$forward@PAU?$_Tree_node@U?$pair@$$CBKPAUSGroundItemInstance@CPythonItem@@@std@@PAX@std@@@std@@YA$$QAPAU?$_Tree_node@U?$pair@$$CBKPAUSGroundItemInstance@CPythonItem@@@std@@PAX@0@AAPAU10@@Z ; std::forward<std::_Tree_node<std::pair<unsigned long const ,CPythonItem::SGroundItemInstance *>,void *> *>
PUBLIC	??$forward@AAPAU?$_Tree_node@U?$pair@$$CBKPAUSGroundItemInstance@CPythonItem@@@std@@PAX@std@@@std@@YAAAPAU?$_Tree_node@U?$pair@$$CBKPAUSGroundItemInstance@CPythonItem@@@std@@PAX@0@AAPAU10@@Z ; std::forward<std::_Tree_node<std::pair<unsigned long const ,CPythonItem::SGroundItemInstance *>,void *> * &>
PUBLIC	??$_Construct_in_place@PAU?$_Tree_node@U?$pair@$$CBKPAUSGroundItemInstance@CPythonItem@@@std@@PAX@std@@AAPAU12@@std@@YAXAAPAU?$_Tree_node@U?$pair@$$CBKPAUSGroundItemInstance@CPythonItem@@@std@@PAX@0@0@Z ; std::_Construct_in_place<std::_Tree_node<std::pair<unsigned long const ,CPythonItem::SGroundItemInstance *>,void *> *,std::_Tree_node<std::pair<unsigned long const ,CPythonItem::SGroundItemInstance *>,void *> * &>
PUBLIC	??$construct@U?$pair@$$CBKPAUSGroundItemInstance@CPythonItem@@@std@@U12@@?$_Default_allocator_traits@V?$allocator@U?$_Tree_node@U?$pair@$$CBKPAUSGroundItemInstance@CPythonItem@@@std@@PAX@std@@@std@@@std@@SAXAAV?$allocator@U?$_Tree_node@U?$pair@$$CBKPAUSGroundItemInstance@CPythonItem@@@std@@PAX@std@@@1@QAU?$pair@$$CBKPAUSGroundItemInstance@CPythonItem@@@1@$$QAU31@@Z ; std::_Default_allocator_traits<std::allocator<std::_Tree_node<std::pair<unsigned long const ,CPythonItem::SGroundItemInstance *>,void *> > >::construct<std::pair<unsigned long const ,CPythonItem::SGroundItemInstance *>,std::pair<unsigned long const ,CPythonItem::SGroundItemInstance *> >
PUBLIC	??$_Kfn@$$CBKPAUSGroundItemInstance@CPythonItem@@@?$_Tmap_traits@KPAUSGroundItemInstance@CPythonItem@@U?$less@K@std@@V?$allocator@U?$pair@$$CBKPAUSGroundItemInstance@CPythonItem@@@std@@@4@$0A@@std@@SAABKABU?$pair@$$CBKPAUSGroundItemInstance@CPythonItem@@@1@@Z ; std::_Tmap_traits<unsigned long,CPythonItem::SGroundItemInstance *,std::less<unsigned long>,std::allocator<std::pair<unsigned long const ,CPythonItem::SGroundItemInstance *> >,0>::_Kfn<unsigned long const ,CPythonItem::SGroundItemInstance *>
PUBLIC	??$_Partition_by_median_guess_unchecked@PAU?$pair@MH@std@@U?$less@X@2@@std@@YA?AU?$pair@PAU?$pair@MH@std@@PAU12@@0@PAU?$pair@MH@0@0U?$less@X@0@@Z ; std::_Partition_by_median_guess_unchecked<std::pair<float,int> *,std::less<void> >
PUBLIC	??$_Sort_heap_unchecked@PAU?$pair@MH@std@@U?$less@X@2@@std@@YAXPAU?$pair@MH@0@0U?$less@X@0@@Z ; std::_Sort_heap_unchecked<std::pair<float,int> *,std::less<void> >
PUBLIC	??$_Make_heap_unchecked@PAU?$pair@MH@std@@U?$less@X@2@@std@@YAXPAU?$pair@MH@0@0U?$less@X@0@@Z ; std::_Make_heap_unchecked<std::pair<float,int> *,std::less<void> >
PUBLIC	??$?RHH@_Synth_three_way@std@@SA?A_PABH0@Z	; std::_Synth_three_way::operator()<int,int>
PUBLIC	??$?RMM@_Synth_three_way@std@@SA?A_PABM0@Z	; std::_Synth_three_way::operator()<float,float>
PUBLIC	??$_Insertion_sort_unchecked@PAU?$pair@MH@std@@U?$less@X@2@@std@@YAPAU?$pair@MH@0@QAU10@0U?$less@X@0@@Z ; std::_Insertion_sort_unchecked<std::pair<float,int> *,std::less<void> >
PUBLIC	??$?0$$V@?$_Compressed_pair@V?$allocator@U?$_Tree_node@U?$pair@$$CBKPAUSGroundItemInstance@CPythonItem@@@std@@PAX@std@@@std@@V?$_Tree_val@U?$_Tree_simple_types@U?$pair@$$CBKPAUSGroundItemInstance@CPythonItem@@@std@@@std@@@2@$00@std@@QAE@U_Zero_then_variadic_args_t@1@@Z ; std::_Compressed_pair<std::allocator<std::_Tree_node<std::pair<unsigned long const ,CPythonItem::SGroundItemInstance *>,void *> >,std::_Tree_val<std::_Tree_simple_types<std::pair<unsigned long const ,CPythonItem::SGroundItemInstance *> > >,1>::_Compressed_pair<std::allocator<std::_Tree_node<std::pair<unsigned long const ,CPythonItem::SGroundItemInstance *>,void *> >,std::_Tree_val<std::_Tree_simple_types<std::pair<unsigned long const ,CPythonItem::SGroundItemInstance *> > >,1><>
PUBLIC	??1?$_Tree_temp_node_alloc@V?$allocator@U?$_Tree_node@U?$pair@$$CBKPAUSGroundItemInstance@CPythonItem@@@std@@PAX@std@@@std@@@std@@QAE@XZ ; std::_Tree_temp_node_alloc<std::allocator<std::_Tree_node<std::pair<unsigned long const ,CPythonItem::SGroundItemInstance *>,void *> > >::~_Tree_temp_node_alloc<std::allocator<std::_Tree_node<std::pair<unsigned long const ,CPythonItem::SGroundItemInstance *>,void *> > >
PUBLIC	??0?$allocator@PAVCItemData@@@std@@QAE@XZ	; std::allocator<CItemData *>::allocator<CItemData *>
PUBLIC	?deallocate@?$allocator@PAVCItemData@@@std@@QAEXQAPAVCItemData@@I@Z ; std::allocator<CItemData *>::deallocate
PUBLIC	?_Getal@?$vector@PAVCItemData@@V?$allocator@PAVCItemData@@@std@@@std@@AAEAAV?$allocator@PAVCItemData@@@2@XZ ; std::vector<CItemData *,std::allocator<CItemData *> >::_Getal
PUBLIC	??0?$_Vector_val@U?$_Simple_types@PAVCItemData@@@std@@@std@@QAE@XZ ; std::_Vector_val<std::_Simple_types<CItemData *> >::_Vector_val<std::_Simple_types<CItemData *> >
PUBLIC	?_Check_grow_by_1@?$_Tree@V?$_Tmap_traits@KPAUSGroundItemInstance@CPythonItem@@U?$less@K@std@@V?$allocator@U?$pair@$$CBKPAUSGroundItemInstance@CPythonItem@@@std@@@4@$0A@@std@@@std@@IAEXXZ ; std::_Tree<std::_Tmap_traits<unsigned long,CPythonItem::SGroundItemInstance *,std::less<unsigned long>,std::allocator<std::pair<unsigned long const ,CPythonItem::SGroundItemInstance *> >,0> >::_Check_grow_by_1
PUBLIC	?_Alloc_sentinel_and_proxy@?$_Tree@V?$_Tmap_traits@KPAUSGroundItemInstance@CPythonItem@@U?$less@K@std@@V?$allocator@U?$pair@$$CBKPAUSGroundItemInstance@CPythonItem@@@std@@@4@$0A@@std@@@std@@IAEXXZ ; std::_Tree<std::_Tmap_traits<unsigned long,CPythonItem::SGroundItemInstance *,std::less<unsigned long>,std::allocator<std::pair<unsigned long const ,CPythonItem::SGroundItemInstance *> >,0> >::_Alloc_sentinel_and_proxy
PUBLIC	?_Extract@?$_Tree_val@U?$_Tree_simple_types@U?$pair@$$CBKPAUSGroundItemInstance@CPythonItem@@@std@@@std@@@std@@QAEPAU?$_Tree_node@U?$pair@$$CBKPAUSGroundItemInstance@CPythonItem@@@std@@PAX@2@V?$_Tree_unchecked_const_iterator@V?$_Tree_val@U?$_Tree_simple_types@U?$pair@$$CBKPAUSGroundItemInstance@CPythonItem@@@std@@@std@@@std@@U_Iterator_base0@2@@2@@Z ; std::_Tree_val<std::_Tree_simple_types<std::pair<unsigned long const ,CPythonItem::SGroundItemInstance *> > >::_Extract
PUBLIC	?_Insert_node@?$_Tree_val@U?$_Tree_simple_types@U?$pair@$$CBKPAUSGroundItemInstance@CPythonItem@@@std@@@std@@@std@@QAEPAU?$_Tree_node@U?$pair@$$CBKPAUSGroundItemInstance@CPythonItem@@@std@@PAX@2@U?$_Tree_id@PAU?$_Tree_node@U?$pair@$$CBKPAUSGroundItemInstance@CPythonItem@@@std@@PAX@std@@@2@QAU32@@Z ; std::_Tree_val<std::_Tree_simple_types<std::pair<unsigned long const ,CPythonItem::SGroundItemInstance *> > >::_Insert_node
PUBLIC	??D?$_Tree_const_iterator@V?$_Tree_val@U?$_Tree_simple_types@U?$pair@$$CBKPAUSGroundItemInstance@CPythonItem@@@std@@@std@@@std@@@std@@QBEABU?$pair@$$CBKPAUSGroundItemInstance@CPythonItem@@@1@XZ ; std::_Tree_const_iterator<std::_Tree_val<std::_Tree_simple_types<std::pair<unsigned long const ,CPythonItem::SGroundItemInstance *> > > >::operator*
PUBLIC	??E?$_Tree_unchecked_const_iterator@V?$_Tree_val@U?$_Tree_simple_types@U?$pair@$$CBKPAUSGroundItemInstance@CPythonItem@@@std@@@std@@@std@@U_Iterator_base0@2@@std@@QAEAAV01@XZ ; std::_Tree_unchecked_const_iterator<std::_Tree_val<std::_Tree_simple_types<std::pair<unsigned long const ,CPythonItem::SGroundItemInstance *> > >,std::_Iterator_base0>::operator++
PUBLIC	?_Get_first@?$_Compressed_pair@V?$allocator@U?$_Tree_node@U?$pair@$$CBKPAUSGroundItemInstance@CPythonItem@@@std@@PAX@std@@@std@@V?$_Tree_val@U?$_Tree_simple_types@U?$pair@$$CBKPAUSGroundItemInstance@CPythonItem@@@std@@@std@@@2@$00@std@@QAEAAV?$allocator@U?$_Tree_node@U?$pair@$$CBKPAUSGroundItemInstance@CPythonItem@@@std@@PAX@std@@@2@XZ ; std::_Compressed_pair<std::allocator<std::_Tree_node<std::pair<unsigned long const ,CPythonItem::SGroundItemInstance *>,void *> >,std::_Tree_val<std::_Tree_simple_types<std::pair<unsigned long const ,CPythonItem::SGroundItemInstance *> > >,1>::_Get_first
PUBLIC	?Delete@?$CDynamicPool@USGroundItemInstance@CPythonItem@@@@KAXPAUSGroundItemInstance@CPythonItem@@@Z ; CDynamicPool<CPythonItem::SGroundItemInstance>::Delete
PUBLIC	?clear@?$vector@PAUSGroundItemInstance@CPythonItem@@V?$allocator@PAUSGroundItemInstance@CPythonItem@@@std@@@std@@QAEXXZ ; std::vector<CPythonItem::SGroundItemInstance *,std::allocator<CPythonItem::SGroundItemInstance *> >::clear
PUBLIC	?_Unchecked_begin@?$vector@PAUSGroundItemInstance@CPythonItem@@V?$allocator@PAUSGroundItemInstance@CPythonItem@@@std@@@std@@QAEPAPAUSGroundItemInstance@CPythonItem@@XZ ; std::vector<CPythonItem::SGroundItemInstance *,std::allocator<CPythonItem::SGroundItemInstance *> >::_Unchecked_begin
PUBLIC	?_Unchecked_end@?$vector@PAUSGroundItemInstance@CPythonItem@@V?$allocator@PAUSGroundItemInstance@CPythonItem@@@std@@@std@@QAEPAPAUSGroundItemInstance@CPythonItem@@XZ ; std::vector<CPythonItem::SGroundItemInstance *,std::allocator<CPythonItem::SGroundItemInstance *> >::_Unchecked_end
PUBLIC	?_Tidy@?$vector@PAUSGroundItemInstance@CPythonItem@@V?$allocator@PAUSGroundItemInstance@CPythonItem@@@std@@@std@@AAEXXZ ; std::vector<CPythonItem::SGroundItemInstance *,std::allocator<CPythonItem::SGroundItemInstance *> >::_Tidy
PUBLIC	?_Orphan_range@?$vector@PAUSGroundItemInstance@CPythonItem@@V?$allocator@PAUSGroundItemInstance@CPythonItem@@@std@@@std@@ABEXPAPAUSGroundItemInstance@CPythonItem@@0@Z ; std::vector<CPythonItem::SGroundItemInstance *,std::allocator<CPythonItem::SGroundItemInstance *> >::_Orphan_range
PUBLIC	?_Getal@?$vector@PAUSGroundItemInstance@CPythonItem@@V?$allocator@PAUSGroundItemInstance@CPythonItem@@@std@@@std@@AAEAAV?$allocator@PAUSGroundItemInstance@CPythonItem@@@2@XZ ; std::vector<CPythonItem::SGroundItemInstance *,std::allocator<CPythonItem::SGroundItemInstance *> >::_Getal
PUBLIC	?_Extract@?$_In_place_key_extract_map_impl@KU?$pair@$$CBKPAUSGroundItemInstance@CPythonItem@@@std@@@std@@SAABKABU?$pair@$$CBKPAUSGroundItemInstance@CPythonItem@@@2@@Z ; std::_In_place_key_extract_map_impl<unsigned long,std::pair<unsigned long const ,CPythonItem::SGroundItemInstance *> >::_Extract
PUBLIC	??1?$_Tree_temp_node@V?$allocator@U?$_Tree_node@U?$pair@$$CBKPAUSGroundItemInstance@CPythonItem@@@std@@PAX@std@@@std@@@std@@QAE@XZ ; std::_Tree_temp_node<std::allocator<std::_Tree_node<std::pair<unsigned long const ,CPythonItem::SGroundItemInstance *>,void *> > >::~_Tree_temp_node<std::allocator<std::_Tree_node<std::pair<unsigned long const ,CPythonItem::SGroundItemInstance *>,void *> > >
PUBLIC	?_Release@?$_Alloc_construct_ptr@V?$allocator@U?$_Tree_node@U?$pair@$$CBKPAUSGroundItemInstance@CPythonItem@@@std@@PAX@std@@@std@@@std@@QAEPAU?$_Tree_node@U?$pair@$$CBKPAUSGroundItemInstance@CPythonItem@@@std@@PAX@2@XZ ; std::_Alloc_construct_ptr<std::allocator<std::_Tree_node<std::pair<unsigned long const ,CPythonItem::SGroundItemInstance *>,void *> > >::_Release
PUBLIC	??$_Destroy_range@V?$allocator@PAVCItemData@@@std@@@std@@YAXPAPAVCItemData@@QAPAV1@AAV?$allocator@PAVCItemData@@@0@@Z ; std::_Destroy_range<std::allocator<CItemData *> >
PUBLIC	??$?0ABU?$less@K@std@@U_Zero_then_variadic_args_t@1@@?$_Compressed_pair@U?$less@K@std@@V?$_Compressed_pair@V?$allocator@U?$_Tree_node@U?$pair@$$CBKPAUSGroundItemInstance@CPythonItem@@@std@@PAX@std@@@std@@V?$_Tree_val@U?$_Tree_simple_types@U?$pair@$$CBKPAUSGroundItemInstance@CPythonItem@@@std@@@std@@@2@$00@2@$00@std@@QAE@U_One_then_variadic_args_t@1@ABU?$less@K@1@$$QAU_Zero_then_variadic_args_t@1@@Z ; std::_Compressed_pair<std::less<unsigned long>,std::_Compressed_pair<std::allocator<std::_Tree_node<std::pair<unsigned long const ,CPythonItem::SGroundItemInstance *>,void *> >,std::_Tree_val<std::_Tree_simple_types<std::pair<unsigned long const ,CPythonItem::SGroundItemInstance *> > >,1>,1>::_Compressed_pair<std::less<unsigned long>,std::_Compressed_pair<std::allocator<std::_Tree_node<std::pair<unsigned long const ,CPythonItem::SGroundItemInstance *>,void *> >,std::_Tree_val<std::_Tree_simple_types<std::pair<unsigned long const ,CPythonItem::SGroundItemInstance *> > >,1>,1><std::less<unsigned long> const &,std::_Zero_then_variadic_args_t>
PUBLIC	??$addressof@V?$_Tree_val@U?$_Tree_simple_types@U?$pair@$$CBKPAUSGroundItemInstance@CPythonItem@@@std@@@std@@@std@@@std@@YAPAV?$_Tree_val@U?$_Tree_simple_types@U?$pair@$$CBKPAUSGroundItemInstance@CPythonItem@@@std@@@std@@@0@AAV10@@Z ; std::addressof<std::_Tree_val<std::_Tree_simple_types<std::pair<unsigned long const ,CPythonItem::SGroundItemInstance *> > > >
PUBLIC	??$addressof@$$CBV?$_Tree_val@U?$_Tree_simple_types@U?$pair@$$CBKPAUSGroundItemInstance@CPythonItem@@@std@@@std@@@std@@@std@@YAPBV?$_Tree_val@U?$_Tree_simple_types@U?$pair@$$CBKPAUSGroundItemInstance@CPythonItem@@@std@@@std@@@0@ABV10@@Z ; std::addressof<std::_Tree_val<std::_Tree_simple_types<std::pair<unsigned long const ,CPythonItem::SGroundItemInstance *> > > const >
PUBLIC	??$?0$$V@?$_Compressed_pair@V?$allocator@PAUSGroundItemInstance@CPythonItem@@@std@@V?$_Vector_val@U?$_Simple_types@PAUSGroundItemInstance@CPythonItem@@@std@@@2@$00@std@@QAE@U_Zero_then_variadic_args_t@1@@Z ; std::_Compressed_pair<std::allocator<CPythonItem::SGroundItemInstance *>,std::_Vector_val<std::_Simple_types<CPythonItem::SGroundItemInstance *> >,1>::_Compressed_pair<std::allocator<CPythonItem::SGroundItemInstance *>,std::_Vector_val<std::_Simple_types<CPythonItem::SGroundItemInstance *> >,1><>
PUBLIC	??$_Emplace_one_at_back@ABQAUSGroundItemInstance@CPythonItem@@@?$vector@PAUSGroundItemInstance@CPythonItem@@V?$allocator@PAUSGroundItemInstance@CPythonItem@@@std@@@std@@AAEAAPAUSGroundItemInstance@CPythonItem@@ABQAU23@@Z ; std::vector<CPythonItem::SGroundItemInstance *,std::allocator<CPythonItem::SGroundItemInstance *> >::_Emplace_one_at_back<CPythonItem::SGroundItemInstance * const &>
PUBLIC	??$destroy@PAUSGroundItemInstance@CPythonItem@@@?$_Default_allocator_traits@V?$allocator@PAUSGroundItemInstance@CPythonItem@@@std@@@std@@SAXAAV?$allocator@PAUSGroundItemInstance@CPythonItem@@@1@QAPAUSGroundItemInstance@CPythonItem@@@Z ; std::_Default_allocator_traits<std::allocator<CPythonItem::SGroundItemInstance *> >::destroy<CPythonItem::SGroundItemInstance *>
PUBLIC	??$_Unfancy@PAUSGroundItemInstance@CPythonItem@@@std@@YAPAPAUSGroundItemInstance@CPythonItem@@PAPAU12@@Z ; std::_Unfancy<CPythonItem::SGroundItemInstance *>
PUBLIC	??$addressof@U?$pair@$$CBKPAUSGroundItemInstance@CPythonItem@@@std@@@std@@YAPAU?$pair@$$CBKPAUSGroundItemInstance@CPythonItem@@@0@AAU10@@Z ; std::addressof<std::pair<unsigned long const ,CPythonItem::SGroundItemInstance *> >
PUBLIC	??$_Freenode0@V?$allocator@U?$_Tree_node@U?$pair@$$CBKPAUSGroundItemInstance@CPythonItem@@@std@@PAX@std@@@std@@@?$_Tree_node@U?$pair@$$CBKPAUSGroundItemInstance@CPythonItem@@@std@@PAX@std@@SAXAAV?$allocator@U?$_Tree_node@U?$pair@$$CBKPAUSGroundItemInstance@CPythonItem@@@std@@PAX@std@@@1@PAU01@@Z ; std::_Tree_node<std::pair<unsigned long const ,CPythonItem::SGroundItemInstance *>,void *>::_Freenode0<std::allocator<std::_Tree_node<std::pair<unsigned long const ,CPythonItem::SGroundItemInstance *>,void *> > >
PUBLIC	??$_Freenode@V?$allocator@U?$_Tree_node@U?$pair@$$CBKPAUSGroundItemInstance@CPythonItem@@@std@@PAX@std@@@std@@@?$_Tree_node@U?$pair@$$CBKPAUSGroundItemInstance@CPythonItem@@@std@@PAX@std@@SAXAAV?$allocator@U?$_Tree_node@U?$pair@$$CBKPAUSGroundItemInstance@CPythonItem@@@std@@PAX@std@@@1@PAU01@@Z ; std::_Tree_node<std::pair<unsigned long const ,CPythonItem::SGroundItemInstance *>,void *>::_Freenode<std::allocator<std::_Tree_node<std::pair<unsigned long const ,CPythonItem::SGroundItemInstance *>,void *> > >
PUBLIC	??$exchange@PAU?$_Tree_node@U?$pair@$$CBKPAUSGroundItemInstance@CPythonItem@@@std@@PAX@std@@AAPAU12@@std@@YAPAU?$_Tree_node@U?$pair@$$CBKPAUSGroundItemInstance@CPythonItem@@@std@@PAX@0@AAPAU10@0@Z ; std::exchange<std::_Tree_node<std::pair<unsigned long const ,CPythonItem::SGroundItemInstance *>,void *> *,std::_Tree_node<std::pair<unsigned long const ,CPythonItem::SGroundItemInstance *>,void *> * &>
PUBLIC	??$forward@V?$_Tree_iterator@V?$_Tree_val@U?$_Tree_simple_types@U?$pair@$$CBKPAUSGroundItemInstance@CPythonItem@@@std@@@std@@@std@@@std@@@std@@YA$$QAV?$_Tree_iterator@V?$_Tree_val@U?$_Tree_simple_types@U?$pair@$$CBKPAUSGroundItemInstance@CPythonItem@@@std@@@std@@@std@@@0@AAV10@@Z ; std::forward<std::_Tree_iterator<std::_Tree_val<std::_Tree_simple_types<std::pair<unsigned long const ,CPythonItem::SGroundItemInstance *> > > > >
PUBLIC	??$?0PAU?$_Tree_node@U?$pair@$$CBKPAUSGroundItemInstance@CPythonItem@@@std@@PAX@std@@_N$0A@@?$pair@PAU?$_Tree_node@U?$pair@$$CBKPAUSGroundItemInstance@CPythonItem@@@std@@PAX@std@@_N@std@@QAE@$$QAPAU?$_Tree_node@U?$pair@$$CBKPAUSGroundItemInstance@CPythonItem@@@std@@PAX@1@$$QA_N@Z ; std::pair<std::_Tree_node<std::pair<unsigned long const ,CPythonItem::SGroundItemInstance *>,void *> *,bool>::pair<std::_Tree_node<std::pair<unsigned long const ,CPythonItem::SGroundItemInstance *>,void *> *,bool><std::_Tree_node<std::pair<unsigned long const ,CPythonItem::SGroundItemInstance *>,void *> *,bool,0>
PUBLIC	??$?0AAPAU?$_Tree_node@U?$pair@$$CBKPAUSGroundItemInstance@CPythonItem@@@std@@PAX@std@@_N$0A@@?$pair@PAU?$_Tree_node@U?$pair@$$CBKPAUSGroundItemInstance@CPythonItem@@@std@@PAX@std@@_N@std@@QAE@AAPAU?$_Tree_node@U?$pair@$$CBKPAUSGroundItemInstance@CPythonItem@@@std@@PAX@1@$$QA_N@Z ; std::pair<std::_Tree_node<std::pair<unsigned long const ,CPythonItem::SGroundItemInstance *>,void *> *,bool>::pair<std::_Tree_node<std::pair<unsigned long const ,CPythonItem::SGroundItemInstance *>,void *> *,bool><std::_Tree_node<std::pair<unsigned long const ,CPythonItem::SGroundItemInstance *>,void *> * &,bool,0>
PUBLIC	??$?0U?$pair@$$CBKPAUSGroundItemInstance@CPythonItem@@@std@@@?$_Tree_temp_node@V?$allocator@U?$_Tree_node@U?$pair@$$CBKPAUSGroundItemInstance@CPythonItem@@@std@@PAX@std@@@std@@@std@@QAE@AAV?$allocator@U?$_Tree_node@U?$pair@$$CBKPAUSGroundItemInstance@CPythonItem@@@std@@PAX@std@@@1@PAU?$_Tree_node@U?$pair@$$CBKPAUSGroundItemInstance@CPythonItem@@@std@@PAX@1@$$QAU?$pair@$$CBKPAUSGroundItemInstance@CPythonItem@@@1@@Z ; std::_Tree_temp_node<std::allocator<std::_Tree_node<std::pair<unsigned long const ,CPythonItem::SGroundItemInstance *>,void *> > >::_Tree_temp_node<std::allocator<std::_Tree_node<std::pair<unsigned long const ,CPythonItem::SGroundItemInstance *>,void *> > ><std::pair<unsigned long const ,CPythonItem::SGroundItemInstance *> >
PUBLIC	??$forward@U?$pair@$$CBKPAUSGroundItemInstance@CPythonItem@@@std@@@std@@YA$$QAU?$pair@$$CBKPAUSGroundItemInstance@CPythonItem@@@0@AAU10@@Z ; std::forward<std::pair<unsigned long const ,CPythonItem::SGroundItemInstance *> >
PUBLIC	??$_Lower_bound_duplicate@K@?$_Tree@V?$_Tmap_traits@KPAUSGroundItemInstance@CPythonItem@@U?$less@K@std@@V?$allocator@U?$pair@$$CBKPAUSGroundItemInstance@CPythonItem@@@std@@@4@$0A@@std@@@std@@IBE_NQAU?$_Tree_node@U?$pair@$$CBKPAUSGroundItemInstance@CPythonItem@@@std@@PAX@1@ABK@Z ; std::_Tree<std::_Tmap_traits<unsigned long,CPythonItem::SGroundItemInstance *,std::less<unsigned long>,std::allocator<std::pair<unsigned long const ,CPythonItem::SGroundItemInstance *> >,0> >::_Lower_bound_duplicate<unsigned long>
PUBLIC	??$_Find_lower_bound@K@?$_Tree@V?$_Tmap_traits@KPAUSGroundItemInstance@CPythonItem@@U?$less@K@std@@V?$allocator@U?$pair@$$CBKPAUSGroundItemInstance@CPythonItem@@@std@@@4@$0A@@std@@@std@@IBE?AU?$_Tree_find_result@PAU?$_Tree_node@U?$pair@$$CBKPAUSGroundItemInstance@CPythonItem@@@std@@PAX@std@@@1@ABK@Z ; std::_Tree<std::_Tmap_traits<unsigned long,CPythonItem::SGroundItemInstance *,std::less<unsigned long>,std::allocator<std::pair<unsigned long const ,CPythonItem::SGroundItemInstance *> >,0> >::_Find_lower_bound<unsigned long>
PUBLIC	??$_Sort_unchecked@PAU?$pair@MH@std@@U?$less@X@2@@std@@YAXPAU?$pair@MH@0@0HU?$less@X@0@@Z ; std::_Sort_unchecked<std::pair<float,int> *,std::less<void> >
PUBLIC	??$_Adl_verify_range@PAU?$pair@MH@std@@PAU12@@std@@YAXABQAU?$pair@MH@0@0@Z ; std::_Adl_verify_range<std::pair<float,int> *,std::pair<float,int> *>
PUBLIC	??0?$_Tree_unchecked_iterator@V?$_Tree_val@U?$_Tree_simple_types@U?$pair@$$CBKPAUSGroundItemInstance@CPythonItem@@@std@@@std@@@std@@@std@@QAE@PAU?$_Tree_node@U?$pair@$$CBKPAUSGroundItemInstance@CPythonItem@@@std@@PAX@1@PBV?$_Tree_val@U?$_Tree_simple_types@U?$pair@$$CBKPAUSGroundItemInstance@CPythonItem@@@std@@@std@@@1@@Z ; std::_Tree_unchecked_iterator<std::_Tree_val<std::_Tree_simple_types<std::pair<unsigned long const ,CPythonItem::SGroundItemInstance *> > > >::_Tree_unchecked_iterator<std::_Tree_val<std::_Tree_simple_types<std::pair<unsigned long const ,CPythonItem::SGroundItemInstance *> > > >
PUBLIC	?_Tidy@?$vector@PAVCItemData@@V?$allocator@PAVCItemData@@@std@@@std@@AAEXXZ ; std::vector<CItemData *,std::allocator<CItemData *> >::_Tidy
PUBLIC	??0?$_Tree@V?$_Tmap_traits@KPAUSGroundItemInstance@CPythonItem@@U?$less@K@std@@V?$allocator@U?$pair@$$CBKPAUSGroundItemInstance@CPythonItem@@@std@@@4@$0A@@std@@@std@@QAE@ABU?$less@K@1@@Z ; std::_Tree<std::_Tmap_traits<unsigned long,CPythonItem::SGroundItemInstance *,std::less<unsigned long>,std::allocator<std::pair<unsigned long const ,CPythonItem::SGroundItemInstance *> >,0> >::_Tree<std::_Tmap_traits<unsigned long,CPythonItem::SGroundItemInstance *,std::less<unsigned long>,std::allocator<std::pair<unsigned long const ,CPythonItem::SGroundItemInstance *> >,0> >
PUBLIC	?_Erase_unchecked@?$_Tree@V?$_Tmap_traits@KPAUSGroundItemInstance@CPythonItem@@U?$less@K@std@@V?$allocator@U?$pair@$$CBKPAUSGroundItemInstance@CPythonItem@@@std@@@4@$0A@@std@@@std@@AAEPAU?$_Tree_node@U?$pair@$$CBKPAUSGroundItemInstance@CPythonItem@@@std@@PAX@2@V?$_Tree_unchecked_const_iterator@V?$_Tree_val@U?$_Tree_simple_types@U?$pair@$$CBKPAUSGroundItemInstance@CPythonItem@@@std@@@std@@@std@@U_Iterator_base0@2@@2@@Z ; std::_Tree<std::_Tmap_traits<unsigned long,CPythonItem::SGroundItemInstance *,std::less<unsigned long>,std::allocator<std::pair<unsigned long const ,CPythonItem::SGroundItemInstance *> >,0> >::_Erase_unchecked
PUBLIC	?_Getal@?$_Tree@V?$_Tmap_traits@KPAUSGroundItemInstance@CPythonItem@@U?$less@K@std@@V?$allocator@U?$pair@$$CBKPAUSGroundItemInstance@CPythonItem@@@std@@@4@$0A@@std@@@std@@IAEAAV?$allocator@U?$_Tree_node@U?$pair@$$CBKPAUSGroundItemInstance@CPythonItem@@@std@@PAX@std@@@2@XZ ; std::_Tree<std::_Tmap_traits<unsigned long,CPythonItem::SGroundItemInstance *,std::less<unsigned long>,std::allocator<std::pair<unsigned long const ,CPythonItem::SGroundItemInstance *> >,0> >::_Getal
PUBLIC	?_Get_scary@?$_Tree@V?$_Tmap_traits@KPAUSGroundItemInstance@CPythonItem@@U?$less@K@std@@V?$allocator@U?$pair@$$CBKPAUSGroundItemInstance@CPythonItem@@@std@@@4@$0A@@std@@@std@@IAEPAV?$_Tree_val@U?$_Tree_simple_types@U?$pair@$$CBKPAUSGroundItemInstance@CPythonItem@@@std@@@std@@@2@XZ ; std::_Tree<std::_Tmap_traits<unsigned long,CPythonItem::SGroundItemInstance *,std::less<unsigned long>,std::allocator<std::pair<unsigned long const ,CPythonItem::SGroundItemInstance *> >,0> >::_Get_scary
PUBLIC	?_Get_scary@?$_Tree@V?$_Tmap_traits@KPAUSGroundItemInstance@CPythonItem@@U?$less@K@std@@V?$allocator@U?$pair@$$CBKPAUSGroundItemInstance@CPythonItem@@@std@@@4@$0A@@std@@@std@@IBEPBV?$_Tree_val@U?$_Tree_simple_types@U?$pair@$$CBKPAUSGroundItemInstance@CPythonItem@@@std@@@std@@@2@XZ ; std::_Tree<std::_Tmap_traits<unsigned long,CPythonItem::SGroundItemInstance *,std::less<unsigned long>,std::allocator<std::pair<unsigned long const ,CPythonItem::SGroundItemInstance *> >,0> >::_Get_scary
PUBLIC	?_Orphan_ptr@?$_Tree_val@U?$_Tree_simple_types@U?$pair@$$CBKPAUSGroundItemInstance@CPythonItem@@@std@@@std@@@std@@QAEXQAU?$_Tree_node@U?$pair@$$CBKPAUSGroundItemInstance@CPythonItem@@@std@@PAX@2@@Z ; std::_Tree_val<std::_Tree_simple_types<std::pair<unsigned long const ,CPythonItem::SGroundItemInstance *> > >::_Orphan_ptr
PUBLIC	??E?$_Tree_const_iterator@V?$_Tree_val@U?$_Tree_simple_types@U?$pair@$$CBKPAUSGroundItemInstance@CPythonItem@@@std@@@std@@@std@@@std@@QAEAAV01@XZ ; std::_Tree_const_iterator<std::_Tree_val<std::_Tree_simple_types<std::pair<unsigned long const ,CPythonItem::SGroundItemInstance *> > > >::operator++
PUBLIC	??D?$_Tree_iterator@V?$_Tree_val@U?$_Tree_simple_types@U?$pair@$$CBKPAUSGroundItemInstance@CPythonItem@@@std@@@std@@@std@@@std@@QBEAAU?$pair@$$CBKPAUSGroundItemInstance@CPythonItem@@@1@XZ ; std::_Tree_iterator<std::_Tree_val<std::_Tree_simple_types<std::pair<unsigned long const ,CPythonItem::SGroundItemInstance *> > > >::operator*
PUBLIC	?_Unwrapped@?$_Tree_iterator@V?$_Tree_val@U?$_Tree_simple_types@U?$pair@$$CBKPAUSGroundItemInstance@CPythonItem@@@std@@@std@@@std@@@std@@QBE?AV?$_Tree_unchecked_iterator@V?$_Tree_val@U?$_Tree_simple_types@U?$pair@$$CBKPAUSGroundItemInstance@CPythonItem@@@std@@@std@@@std@@@2@XZ ; std::_Tree_iterator<std::_Tree_val<std::_Tree_simple_types<std::pair<unsigned long const ,CPythonItem::SGroundItemInstance *> > > >::_Unwrapped
PUBLIC	??0?$_Tree_unchecked_const_iterator@V?$_Tree_val@U?$_Tree_simple_types@U?$pair@$$CBKPAUSGroundItemInstance@CPythonItem@@@std@@@std@@@std@@U_Iterator_base0@2@@std@@QAE@PAU?$_Tree_node@U?$pair@$$CBKPAUSGroundItemInstance@CPythonItem@@@std@@PAX@1@PBV?$_Tree_val@U?$_Tree_simple_types@U?$pair@$$CBKPAUSGroundItemInstance@CPythonItem@@@std@@@std@@@1@@Z ; std::_Tree_unchecked_const_iterator<std::_Tree_val<std::_Tree_simple_types<std::pair<unsigned long const ,CPythonItem::SGroundItemInstance *> > >,std::_Iterator_base0>::_Tree_unchecked_const_iterator<std::_Tree_val<std::_Tree_simple_types<std::pair<unsigned long const ,CPythonItem::SGroundItemInstance *> > >,std::_Iterator_base0>
PUBLIC	?Destroy@?$CDynamicPool@USGroundItemInstance@CPythonItem@@@@QAEXXZ ; CDynamicPool<CPythonItem::SGroundItemInstance>::Destroy
PUBLIC	??0?$vector@PAUSGroundItemInstance@CPythonItem@@V?$allocator@PAUSGroundItemInstance@CPythonItem@@@std@@@std@@QAE@XZ ; std::vector<CPythonItem::SGroundItemInstance *,std::allocator<CPythonItem::SGroundItemInstance *> >::vector<CPythonItem::SGroundItemInstance *,std::allocator<CPythonItem::SGroundItemInstance *> >
PUBLIC	??1?$vector@PAUSGroundItemInstance@CPythonItem@@V?$allocator@PAUSGroundItemInstance@CPythonItem@@@std@@@std@@QAE@XZ ; std::vector<CPythonItem::SGroundItemInstance *,std::allocator<CPythonItem::SGroundItemInstance *> >::~vector<CPythonItem::SGroundItemInstance *,std::allocator<CPythonItem::SGroundItemInstance *> >
PUBLIC	?push_back@?$vector@PAUSGroundItemInstance@CPythonItem@@V?$allocator@PAUSGroundItemInstance@CPythonItem@@@std@@@std@@QAEXABQAUSGroundItemInstance@CPythonItem@@@Z ; std::vector<CPythonItem::SGroundItemInstance *,std::allocator<CPythonItem::SGroundItemInstance *> >::push_back
PUBLIC	?pop_back@?$vector@PAUSGroundItemInstance@CPythonItem@@V?$allocator@PAUSGroundItemInstance@CPythonItem@@@std@@@std@@QAEXXZ ; std::vector<CPythonItem::SGroundItemInstance *,std::allocator<CPythonItem::SGroundItemInstance *> >::pop_back
PUBLIC	?empty@?$vector@PAUSGroundItemInstance@CPythonItem@@V?$allocator@PAUSGroundItemInstance@CPythonItem@@@std@@@std@@QBE_NXZ ; std::vector<CPythonItem::SGroundItemInstance *,std::allocator<CPythonItem::SGroundItemInstance *> >::empty
PUBLIC	?size@?$vector@PAUSGroundItemInstance@CPythonItem@@V?$allocator@PAUSGroundItemInstance@CPythonItem@@@std@@@std@@QBEIXZ ; std::vector<CPythonItem::SGroundItemInstance *,std::allocator<CPythonItem::SGroundItemInstance *> >::size
PUBLIC	?back@?$vector@PAUSGroundItemInstance@CPythonItem@@V?$allocator@PAUSGroundItemInstance@CPythonItem@@@std@@@std@@QAEAAPAUSGroundItemInstance@CPythonItem@@XZ ; std::vector<CPythonItem::SGroundItemInstance *,std::allocator<CPythonItem::SGroundItemInstance *> >::back
PUBLIC	?pointer_to@?$pointer_traits@PAU?$pair@$$CBKPAUSGroundItemInstance@CPythonItem@@@std@@@std@@SAPAU?$pair@$$CBKPAUSGroundItemInstance@CPythonItem@@@2@AAU32@@Z ; std::pointer_traits<std::pair<unsigned long const ,CPythonItem::SGroundItemInstance *> *>::pointer_to
PUBLIC	??$?0$$V@?$_Compressed_pair@V?$allocator@PAVCItemData@@@std@@V?$_Vector_val@U?$_Simple_types@PAVCItemData@@@std@@@2@$00@std@@QAE@U_Zero_then_variadic_args_t@1@@Z ; std::_Compressed_pair<std::allocator<CItemData *>,std::_Vector_val<std::_Simple_types<CItemData *> >,1>::_Compressed_pair<std::allocator<CItemData *>,std::_Vector_val<std::_Simple_types<CItemData *> >,1><>
PUBLIC	??$_Erase_head@V?$allocator@U?$_Tree_node@U?$pair@$$CBKPAUSGroundItemInstance@CPythonItem@@@std@@PAX@std@@@std@@@?$_Tree_val@U?$_Tree_simple_types@U?$pair@$$CBKPAUSGroundItemInstance@CPythonItem@@@std@@@std@@@std@@QAEXAAV?$allocator@U?$_Tree_node@U?$pair@$$CBKPAUSGroundItemInstance@CPythonItem@@@std@@PAX@std@@@1@@Z ; std::_Tree_val<std::_Tree_simple_types<std::pair<unsigned long const ,CPythonItem::SGroundItemInstance *> > >::_Erase_head<std::allocator<std::_Tree_node<std::pair<unsigned long const ,CPythonItem::SGroundItemInstance *>,void *> > >
PUBLIC	??$_Erase_tree@V?$allocator@U?$_Tree_node@U?$pair@$$CBKPAUSGroundItemInstance@CPythonItem@@@std@@PAX@std@@@std@@@?$_Tree_val@U?$_Tree_simple_types@U?$pair@$$CBKPAUSGroundItemInstance@CPythonItem@@@std@@@std@@@std@@QAEXAAV?$allocator@U?$_Tree_node@U?$pair@$$CBKPAUSGroundItemInstance@CPythonItem@@@std@@PAX@std@@@1@PAU?$_Tree_node@U?$pair@$$CBKPAUSGroundItemInstance@CPythonItem@@@std@@PAX@1@@Z ; std::_Tree_val<std::_Tree_simple_types<std::pair<unsigned long const ,CPythonItem::SGroundItemInstance *> > >::_Erase_tree<std::allocator<std::_Tree_node<std::pair<unsigned long const ,CPythonItem::SGroundItemInstance *>,void *> > >
PUBLIC	??$_Find@K@?$_Tree@V?$_Tmap_traits@KPAUSGroundItemInstance@CPythonItem@@U?$less@K@std@@V?$allocator@U?$pair@$$CBKPAUSGroundItemInstance@CPythonItem@@@std@@@4@$0A@@std@@@std@@ABEPAU?$_Tree_node@U?$pair@$$CBKPAUSGroundItemInstance@CPythonItem@@@std@@PAX@1@ABK@Z ; std::_Tree<std::_Tmap_traits<unsigned long,CPythonItem::SGroundItemInstance *,std::less<unsigned long>,std::allocator<std::pair<unsigned long const ,CPythonItem::SGroundItemInstance *> >,0> >::_Find<unsigned long>
PUBLIC	??$?0V?$_Tree_iterator@V?$_Tree_val@U?$_Tree_simple_types@U?$pair@$$CBKPAUSGroundItemInstance@CPythonItem@@@std@@@std@@@std@@@std@@AB_N$0A@@?$pair@V?$_Tree_iterator@V?$_Tree_val@U?$_Tree_simple_types@U?$pair@$$CBKPAUSGroundItemInstance@CPythonItem@@@std@@@std@@@std@@@std@@_N@std@@QAE@$$QAV?$_Tree_iterator@V?$_Tree_val@U?$_Tree_simple_types@U?$pair@$$CBKPAUSGroundItemInstance@CPythonItem@@@std@@@std@@@std@@@1@AB_N@Z ; std::pair<std::_Tree_iterator<std::_Tree_val<std::_Tree_simple_types<std::pair<unsigned long const ,CPythonItem::SGroundItemInstance *> > > >,bool>::pair<std::_Tree_iterator<std::_Tree_val<std::_Tree_simple_types<std::pair<unsigned long const ,CPythonItem::SGroundItemInstance *> > > >,bool><std::_Tree_iterator<std::_Tree_val<std::_Tree_simple_types<std::pair<unsigned long const ,CPythonItem::SGroundItemInstance *> > > >,bool const &,0>
PUBLIC	??$_Emplace@U?$pair@$$CBKPAUSGroundItemInstance@CPythonItem@@@std@@@?$_Tree@V?$_Tmap_traits@KPAUSGroundItemInstance@CPythonItem@@U?$less@K@std@@V?$allocator@U?$pair@$$CBKPAUSGroundItemInstance@CPythonItem@@@std@@@4@$0A@@std@@@std@@IAE?AU?$pair@PAU?$_Tree_node@U?$pair@$$CBKPAUSGroundItemInstance@CPythonItem@@@std@@PAX@std@@_N@1@$$QAU?$pair@$$CBKPAUSGroundItemInstance@CPythonItem@@@1@@Z ; std::_Tree<std::_Tmap_traits<unsigned long,CPythonItem::SGroundItemInstance *,std::less<unsigned long>,std::allocator<std::pair<unsigned long const ,CPythonItem::SGroundItemInstance *> >,0> >::_Emplace<std::pair<unsigned long const ,CPythonItem::SGroundItemInstance *> >
PUBLIC	??$move@AAU?$pair@$$CBKPAUSGroundItemInstance@CPythonItem@@@std@@@std@@YA$$QAU?$pair@$$CBKPAUSGroundItemInstance@CPythonItem@@@0@AAU10@@Z ; std::move<std::pair<unsigned long const ,CPythonItem::SGroundItemInstance *> &>
PUBLIC	??$forward@AAPAUSGroundItemInstance@CPythonItem@@@std@@YAAAPAUSGroundItemInstance@CPythonItem@@AAPAU12@@Z ; std::forward<CPythonItem::SGroundItemInstance * &>
PUBLIC	??$_Pass_fn@U?$less@X@std@@@std@@YA?A_PAAU?$less@X@0@@Z ; std::_Pass_fn<std::less<void> >
PUBLIC	??$_Get_unwrapped@ABQAU?$pair@MH@std@@@std@@YA?A_TABQAU?$pair@MH@0@@Z ; std::_Get_unwrapped<std::pair<float,int> * const &>
PUBLIC	??$sort@PAU?$pair@MH@std@@U?$less@X@2@@std@@YAXQAU?$pair@MH@0@0U?$less@X@0@@Z ; std::sort<std::pair<float,int> *,std::less<void> >
PUBLIC	??$?0MH$0A@@?$pair@MH@std@@QAE@$$QAM$$QAH@Z	; std::pair<float,int>::pair<float,int><float,int,0>
PUBLIC	??0?$_Tree_const_iterator@V?$_Tree_val@U?$_Tree_simple_types@U?$pair@$$CBKPAUSGroundItemInstance@CPythonItem@@@std@@@std@@@std@@@std@@QAE@PAU?$_Tree_node@U?$pair@$$CBKPAUSGroundItemInstance@CPythonItem@@@std@@PAX@1@PBV?$_Tree_val@U?$_Tree_simple_types@U?$pair@$$CBKPAUSGroundItemInstance@CPythonItem@@@std@@@std@@@1@@Z ; std::_Tree_const_iterator<std::_Tree_val<std::_Tree_simple_types<std::pair<unsigned long const ,CPythonItem::SGroundItemInstance *> > > >::_Tree_const_iterator<std::_Tree_val<std::_Tree_simple_types<std::pair<unsigned long const ,CPythonItem::SGroundItemInstance *> > > >
PUBLIC	??_G?$CSingleton@VCPythonItem@@@@UAEPAXI@Z	; CSingleton<CPythonItem>::`scalar deleting destructor'
PUBLIC	??_G?$CDynamicPool@USGroundItemInstance@CPythonItem@@@@UAEPAXI@Z ; CDynamicPool<CPythonItem::SGroundItemInstance>::`scalar deleting destructor'
PUBLIC	??0?$_Tree_iterator@V?$_Tree_val@U?$_Tree_simple_types@U?$pair@$$CBKPAUSGroundItemInstance@CPythonItem@@@std@@@std@@@std@@@std@@QAE@PAU?$_Tree_node@U?$pair@$$CBKPAUSGroundItemInstance@CPythonItem@@@std@@PAX@1@PBV?$_Tree_val@U?$_Tree_simple_types@U?$pair@$$CBKPAUSGroundItemInstance@CPythonItem@@@std@@@std@@@1@@Z ; std::_Tree_iterator<std::_Tree_val<std::_Tree_simple_types<std::pair<unsigned long const ,CPythonItem::SGroundItemInstance *> > > >::_Tree_iterator<std::_Tree_val<std::_Tree_simple_types<std::pair<unsigned long const ,CPythonItem::SGroundItemInstance *> > > >
PUBLIC	?Instance@?$CSingleton@VCSoundManager@@@@SAAAVCSoundManager@@XZ ; CSingleton<CSoundManager>::Instance
PUBLIC	??0?$vector@PAVCItemData@@V?$allocator@PAVCItemData@@@std@@@std@@QAE@XZ ; std::vector<CItemData *,std::allocator<CItemData *> >::vector<CItemData *,std::allocator<CItemData *> >
PUBLIC	??1?$vector@PAVCItemData@@V?$allocator@PAVCItemData@@@std@@@std@@QAE@XZ ; std::vector<CItemData *,std::allocator<CItemData *> >::~vector<CItemData *,std::allocator<CItemData *> >
PUBLIC	??0?$CSingleton@VCPythonItem@@@@QAE@XZ		; CSingleton<CPythonItem>::CSingleton<CPythonItem>
PUBLIC	??1?$CSingleton@VCPythonItem@@@@UAE@XZ		; CSingleton<CPythonItem>::~CSingleton<CPythonItem>
PUBLIC	??0?$map@KPAUSGroundItemInstance@CPythonItem@@U?$less@K@std@@V?$allocator@U?$pair@$$CBKPAUSGroundItemInstance@CPythonItem@@@std@@@4@@std@@QAE@XZ ; std::map<unsigned long,CPythonItem::SGroundItemInstance *,std::less<unsigned long>,std::allocator<std::pair<unsigned long const ,CPythonItem::SGroundItemInstance *> > >::map<unsigned long,CPythonItem::SGroundItemInstance *,std::less<unsigned long>,std::allocator<std::pair<unsigned long const ,CPythonItem::SGroundItemInstance *> > >
PUBLIC	??1?$_Tree@V?$_Tmap_traits@KPAUSGroundItemInstance@CPythonItem@@U?$less@K@std@@V?$allocator@U?$pair@$$CBKPAUSGroundItemInstance@CPythonItem@@@std@@@4@$0A@@std@@@std@@QAE@XZ ; std::_Tree<std::_Tmap_traits<unsigned long,CPythonItem::SGroundItemInstance *,std::less<unsigned long>,std::allocator<std::pair<unsigned long const ,CPythonItem::SGroundItemInstance *> >,0> >::~_Tree<std::_Tmap_traits<unsigned long,CPythonItem::SGroundItemInstance *,std::less<unsigned long>,std::allocator<std::pair<unsigned long const ,CPythonItem::SGroundItemInstance *> >,0> >
PUBLIC	?begin@?$_Tree@V?$_Tmap_traits@KPAUSGroundItemInstance@CPythonItem@@U?$less@K@std@@V?$allocator@U?$pair@$$CBKPAUSGroundItemInstance@CPythonItem@@@std@@@4@$0A@@std@@@std@@QAE?AV?$_Tree_iterator@V?$_Tree_val@U?$_Tree_simple_types@U?$pair@$$CBKPAUSGroundItemInstance@CPythonItem@@@std@@@std@@@std@@@2@XZ ; std::_Tree<std::_Tmap_traits<unsigned long,CPythonItem::SGroundItemInstance *,std::less<unsigned long>,std::allocator<std::pair<unsigned long const ,CPythonItem::SGroundItemInstance *> >,0> >::begin
PUBLIC	?end@?$_Tree@V?$_Tmap_traits@KPAUSGroundItemInstance@CPythonItem@@U?$less@K@std@@V?$allocator@U?$pair@$$CBKPAUSGroundItemInstance@CPythonItem@@@std@@@4@$0A@@std@@@std@@QAE?AV?$_Tree_iterator@V?$_Tree_val@U?$_Tree_simple_types@U?$pair@$$CBKPAUSGroundItemInstance@CPythonItem@@@std@@@std@@@std@@@2@XZ ; std::_Tree<std::_Tmap_traits<unsigned long,CPythonItem::SGroundItemInstance *,std::less<unsigned long>,std::allocator<std::pair<unsigned long const ,CPythonItem::SGroundItemInstance *> >,0> >::end
PUBLIC	?size@?$_Tree@V?$_Tmap_traits@KPAUSGroundItemInstance@CPythonItem@@U?$less@K@std@@V?$allocator@U?$pair@$$CBKPAUSGroundItemInstance@CPythonItem@@@std@@@4@$0A@@std@@@std@@QBEIXZ ; std::_Tree<std::_Tmap_traits<unsigned long,CPythonItem::SGroundItemInstance *,std::less<unsigned long>,std::allocator<std::pair<unsigned long const ,CPythonItem::SGroundItemInstance *> >,0> >::size
PUBLIC	?clear@?$_Tree@V?$_Tmap_traits@KPAUSGroundItemInstance@CPythonItem@@U?$less@K@std@@V?$allocator@U?$pair@$$CBKPAUSGroundItemInstance@CPythonItem@@@std@@@4@$0A@@std@@@std@@QAEXXZ ; std::_Tree<std::_Tmap_traits<unsigned long,CPythonItem::SGroundItemInstance *,std::less<unsigned long>,std::allocator<std::pair<unsigned long const ,CPythonItem::SGroundItemInstance *> >,0> >::clear
PUBLIC	?find@?$_Tree@V?$_Tmap_traits@KPAUSGroundItemInstance@CPythonItem@@U?$less@K@std@@V?$allocator@U?$pair@$$CBKPAUSGroundItemInstance@CPythonItem@@@std@@@4@$0A@@std@@@std@@QAE?AV?$_Tree_iterator@V?$_Tree_val@U?$_Tree_simple_types@U?$pair@$$CBKPAUSGroundItemInstance@CPythonItem@@@std@@@std@@@std@@@2@ABK@Z ; std::_Tree<std::_Tmap_traits<unsigned long,CPythonItem::SGroundItemInstance *,std::less<unsigned long>,std::allocator<std::pair<unsigned long const ,CPythonItem::SGroundItemInstance *> >,0> >::find
PUBLIC	??8?$_Tree_const_iterator@V?$_Tree_val@U?$_Tree_simple_types@U?$pair@$$CBKPAUSGroundItemInstance@CPythonItem@@@std@@@std@@@std@@@std@@QBE_NABV01@@Z ; std::_Tree_const_iterator<std::_Tree_val<std::_Tree_simple_types<std::pair<unsigned long const ,CPythonItem::SGroundItemInstance *> > > >::operator==
PUBLIC	??C?$_Tree_iterator@V?$_Tree_val@U?$_Tree_simple_types@U?$pair@$$CBKPAUSGroundItemInstance@CPythonItem@@@std@@@std@@@std@@@std@@QBEPAU?$pair@$$CBKPAUSGroundItemInstance@CPythonItem@@@1@XZ ; std::_Tree_iterator<std::_Tree_val<std::_Tree_simple_types<std::pair<unsigned long const ,CPythonItem::SGroundItemInstance *> > > >::operator->
PUBLIC	??E?$_Tree_iterator@V?$_Tree_val@U?$_Tree_simple_types@U?$pair@$$CBKPAUSGroundItemInstance@CPythonItem@@@std@@@std@@@std@@@std@@QAEAAV01@XZ ; std::_Tree_iterator<std::_Tree_val<std::_Tree_simple_types<std::pair<unsigned long const ,CPythonItem::SGroundItemInstance *> > > >::operator++
PUBLIC	??0?$_Tree_unchecked_const_iterator@V?$_Tree_val@U?$_Tree_simple_types@U?$pair@$$CBKPAUSGroundItemInstance@CPythonItem@@@std@@@std@@@std@@U_Iterator_base0@2@@std@@QAE@XZ ; std::_Tree_unchecked_const_iterator<std::_Tree_val<std::_Tree_simple_types<std::pair<unsigned long const ,CPythonItem::SGroundItemInstance *> > >,std::_Iterator_base0>::_Tree_unchecked_const_iterator<std::_Tree_val<std::_Tree_simple_types<std::pair<unsigned long const ,CPythonItem::SGroundItemInstance *> > >,std::_Iterator_base0>
PUBLIC	??0?$CDynamicPool@USGroundItemInstance@CPythonItem@@@@QAE@XZ ; CDynamicPool<CPythonItem::SGroundItemInstance>::CDynamicPool<CPythonItem::SGroundItemInstance>
PUBLIC	??1?$CDynamicPool@USGroundItemInstance@CPythonItem@@@@UAE@XZ ; CDynamicPool<CPythonItem::SGroundItemInstance>::~CDynamicPool<CPythonItem::SGroundItemInstance>
PUBLIC	?SetName@?$CDynamicPool@USGroundItemInstance@CPythonItem@@@@QAEXPBD@Z ; CDynamicPool<CPythonItem::SGroundItemInstance>::SetName
PUBLIC	?Clear@?$CDynamicPool@USGroundItemInstance@CPythonItem@@@@QAEXXZ ; CDynamicPool<CPythonItem::SGroundItemInstance>::Clear
PUBLIC	?Alloc@?$CDynamicPool@USGroundItemInstance@CPythonItem@@@@QAEPAUSGroundItemInstance@CPythonItem@@XZ ; CDynamicPool<CPythonItem::SGroundItemInstance>::Alloc
PUBLIC	?Free@?$CDynamicPool@USGroundItemInstance@CPythonItem@@@@QAEXPAUSGroundItemInstance@CPythonItem@@@Z ; CDynamicPool<CPythonItem::SGroundItemInstance>::Free
PUBLIC	?GetCapacity@?$CDynamicPool@USGroundItemInstance@CPythonItem@@@@QAEKXZ ; CDynamicPool<CPythonItem::SGroundItemInstance>::GetCapacity
PUBLIC	??$erase@V?$_Tree_iterator@V?$_Tree_val@U?$_Tree_simple_types@U?$pair@$$CBKPAUSGroundItemInstance@CPythonItem@@@std@@@std@@@std@@@std@@$0A@@?$_Tree@V?$_Tmap_traits@KPAUSGroundItemInstance@CPythonItem@@U?$less@K@std@@V?$allocator@U?$pair@$$CBKPAUSGroundItemInstance@CPythonItem@@@std@@@4@$0A@@std@@@std@@QAE?AV?$_Tree_iterator@V?$_Tree_val@U?$_Tree_simple_types@U?$pair@$$CBKPAUSGroundItemInstance@CPythonItem@@@std@@@std@@@std@@@1@V21@@Z ; std::_Tree<std::_Tmap_traits<unsigned long,CPythonItem::SGroundItemInstance *,std::less<unsigned long>,std::allocator<std::pair<unsigned long const ,CPythonItem::SGroundItemInstance *> >,0> >::erase<std::_Tree_iterator<std::_Tree_val<std::_Tree_simple_types<std::pair<unsigned long const ,CPythonItem::SGroundItemInstance *> > > >,0>
PUBLIC	??$insert@$0A@$0A@@?$_Tree@V?$_Tmap_traits@KPAUSGroundItemInstance@CPythonItem@@U?$less@K@std@@V?$allocator@U?$pair@$$CBKPAUSGroundItemInstance@CPythonItem@@@std@@@4@$0A@@std@@@std@@QAE?AU?$pair@V?$_Tree_iterator@V?$_Tree_val@U?$_Tree_simple_types@U?$pair@$$CBKPAUSGroundItemInstance@CPythonItem@@@std@@@std@@@std@@@std@@_N@1@$$QAU?$pair@$$CBKPAUSGroundItemInstance@CPythonItem@@@1@@Z ; std::_Tree<std::_Tmap_traits<unsigned long,CPythonItem::SGroundItemInstance *,std::less<unsigned long>,std::allocator<std::pair<unsigned long const ,CPythonItem::SGroundItemInstance *> >,0> >::insert<0,0>
PUBLIC	??$?0AAKAAPAUSGroundItemInstance@CPythonItem@@$0A@@?$pair@$$CBKPAUSGroundItemInstance@CPythonItem@@@std@@QAE@AAKAAPAUSGroundItemInstance@CPythonItem@@@Z ; std::pair<unsigned long const ,CPythonItem::SGroundItemInstance *>::pair<unsigned long const ,CPythonItem::SGroundItemInstance *><unsigned long &,CPythonItem::SGroundItemInstance * &,0>
PUBLIC	??$sort@PAU?$pair@MH@std@@@std@@YAXQAU?$pair@MH@0@0@Z ; std::sort<std::pair<float,int> *>
PUBLIC	??$make_pair@MH@std@@YA?AU?$pair@MH@0@$$QAM$$QAH@Z ; std::make_pair<float,int>
PUBLIC	??1?$map@KPAUSGroundItemInstance@CPythonItem@@U?$less@K@std@@V?$allocator@U?$pair@$$CBKPAUSGroundItemInstance@CPythonItem@@@std@@@4@@std@@QAE@XZ ; std::map<unsigned long,CPythonItem::SGroundItemInstance *,std::less<unsigned long>,std::allocator<std::pair<unsigned long const ,CPythonItem::SGroundItemInstance *> > >::~map<unsigned long,CPythonItem::SGroundItemInstance *,std::less<unsigned long>,std::allocator<std::pair<unsigned long const ,CPythonItem::SGroundItemInstance *> > >
PUBLIC	??_GCPythonItem@@UAEPAXI@Z			; CPythonItem::`scalar deleting destructor'
PUBLIC	?GetVirtualNumberOfGroundItem@CPythonItem@@QAEKK@Z ; CPythonItem::GetVirtualNumberOfGroundItem
PUBLIC	?GetPickedItemID@CPythonItem@@QAE_NPAK@Z	; CPythonItem::GetPickedItemID
PUBLIC	?__Pick@CPythonItem@@IAEKABUtagPOINT@@@Z	; CPythonItem::__Pick
PUBLIC	?GetGroundItemPosition@CPythonItem@@QAEHKPAUD3DXVECTOR3@@@Z ; CPythonItem::GetGroundItemPosition
PUBLIC	?GetCloseItem@CPythonItem@@QAE_NABUD3DXVECTOR3@@PAKK@Z ; CPythonItem::GetCloseItem
PUBLIC	?DISTANCE_APPROX@@YAHHH@Z			; DISTANCE_APPROX
PUBLIC	?DeleteItem@CPythonItem@@QAEXK@Z		; CPythonItem::DeleteItem
PUBLIC	??0?$_Tree_const_iterator@V?$_Tree_val@U?$_Tree_simple_types@U?$pair@$$CBKPAUSGroundItemInstance@CPythonItem@@@std@@@std@@@std@@@std@@QAE@XZ ; std::_Tree_const_iterator<std::_Tree_val<std::_Tree_simple_types<std::pair<unsigned long const ,CPythonItem::SGroundItemInstance *> > > >::_Tree_const_iterator<std::_Tree_val<std::_Tree_simple_types<std::pair<unsigned long const ,CPythonItem::SGroundItemInstance *> > > >
PUBLIC	??0?$_Tree_iterator@V?$_Tree_val@U?$_Tree_simple_types@U?$pair@$$CBKPAUSGroundItemInstance@CPythonItem@@@std@@@std@@@std@@@std@@QAE@XZ ; std::_Tree_iterator<std::_Tree_val<std::_Tree_simple_types<std::pair<unsigned long const ,CPythonItem::SGroundItemInstance *> > > >::_Tree_iterator<std::_Tree_val<std::_Tree_simple_types<std::pair<unsigned long const ,CPythonItem::SGroundItemInstance *> > > >
PUBLIC	?GetOwnership@CPythonItem@@QAE_NKPAPBD@Z	; CPythonItem::GetOwnership
PUBLIC	?SetOwnership@CPythonItem@@QAEXKPBD@Z		; CPythonItem::SetOwnership
PUBLIC	?CreateItem@CPythonItem@@QAEXKKMMM_N@Z		; CPythonItem::CreateItem
PUBLIC	?__GetUseSoundType@CPythonItem@@IAEKABVCItemData@@@Z ; CPythonItem::__GetUseSoundType
PUBLIC	?__GetDropSoundType@CPythonItem@@IAEKABVCItemData@@@Z ; CPythonItem::__GetDropSoundType
PUBLIC	?PlayUsePotionSound@CPythonItem@@QAEXXZ		; CPythonItem::PlayUsePotionSound
PUBLIC	?PlayDropSound@CPythonItem@@QAEXK@Z		; CPythonItem::PlayDropSound
PUBLIC	?PlayUseSound@CPythonItem@@QAEXK@Z		; CPythonItem::PlayUseSound
PUBLIC	?SetDropSoundFileName@CPythonItem@@QAEXKABV?$basic_string@DU?$char_traits@D@std@@V?$allocator@D@2@@std@@@Z ; CPythonItem::SetDropSoundFileName
PUBLIC	?SetUseSoundFileName@CPythonItem@@QAEXKABV?$basic_string@DU?$char_traits@D@std@@V?$allocator@D@2@@std@@@Z ; CPythonItem::SetUseSoundFileName
PUBLIC	?Update@SGroundItemInstance@CPythonItem@@QAE_NXZ ; CPythonItem::SGroundItemInstance::Update
PUBLIC	?__PlayDropSound@SGroundItemInstance@CPythonItem@@SAXKABUD3DXVECTOR3@@@Z ; CPythonItem::SGroundItemInstance::__PlayDropSound
PUBLIC	?Clear@SGroundItemInstance@CPythonItem@@QAEXXZ	; CPythonItem::SGroundItemInstance::Clear
PUBLIC	??_GSGroundItemInstance@CPythonItem@@UAEPAXI@Z	; CPythonItem::SGroundItemInstance::`scalar deleting destructor'
PUBLIC	??1SGroundItemInstance@CPythonItem@@UAE@XZ	; CPythonItem::SGroundItemInstance::~SGroundItemInstance
PUBLIC	??0SGroundItemInstance@CPythonItem@@QAE@XZ	; CPythonItem::SGroundItemInstance::SGroundItemInstance
PUBLIC	?RotationArc@@YA?AUD3DXQUATERNION@@ABUD3DXVECTOR3@@0@Z ; RotationArc
PUBLIC	?RotationNormalizedArc@@YA?AUD3DXQUATERNION@@ABUD3DXVECTOR3@@0@Z ; RotationNormalizedArc
PUBLIC	??0CPythonItem@@QAE@XZ				; CPythonItem::CPythonItem
PUBLIC	??1CPythonItem@@UAE@XZ				; CPythonItem::~CPythonItem
PUBLIC	?GetInfo@CPythonItem@@QAEXPAV?$basic_string@DU?$char_traits@D@std@@V?$allocator@D@2@@std@@@Z ; CPythonItem::GetInfo
PUBLIC	?Render@CPythonItem@@QAEXXZ			; CPythonItem::Render
PUBLIC	?Update@CPythonItem@@QAEXABUtagPOINT@@@Z	; CPythonItem::Update
PUBLIC	?Create@CPythonItem@@QAEXXZ			; CPythonItem::Create
PUBLIC	?Destroy@CPythonItem@@QAEXXZ			; CPythonItem::Destroy
PUBLIC	?DeleteAllItems@CPythonItem@@QAEXXZ		; CPythonItem::DeleteAllItems
PUBLIC	?ms_astDropSoundFileName@SGroundItemInstance@CPythonItem@@2PAV?$basic_string@DU?$char_traits@D@std@@V?$allocator@D@2@@std@@A ; CPythonItem::SGroundItemInstance::ms_astDropSoundFileName
EXTRN	??_ECPythonItem@@UAEPAXI@Z:PROC			; CPythonItem::`vector deleting destructor'
EXTRN	??_E?$CSingleton@VCPythonItem@@@@UAEPAXI@Z:PROC	; CSingleton<CPythonItem>::`vector deleting destructor'
EXTRN	??_ESGroundItemInstance@CPythonItem@@UAEPAXI@Z:PROC ; CPythonItem::SGroundItemInstance::`vector deleting destructor'
EXTRN	??_E?$CDynamicPool@USGroundItemInstance@CPythonItem@@@@UAEPAXI@Z:PROC ; CDynamicPool<CPythonItem::SGroundItemInstance>::`vector deleting destructor'
;	COMDAT xdata$x
xdata$x	SEGMENT
__ehfuncinfo$??1CPythonItem@@UAE@XZ DD 019930522H
	DD	00H
	DD	00H
	DD	2 DUP(00H)
	DD	2 DUP(00H)
	DD	00H
	DD	05H
xdata$x	ENDS
;	COMDAT xdata$x
xdata$x	SEGMENT
__ehfuncinfo$??0CPythonItem@@QAE@XZ DD 019930522H
	DD	03H
	DD	FLAT:__unwindtable$??0CPythonItem@@QAE@XZ
	DD	2 DUP(00H)
	DD	2 DUP(00H)
	DD	00H
	DD	01H
__unwindtable$??0CPythonItem@@QAE@XZ DD 0ffffffffH
	DD	FLAT:__unwindfunclet$??0CPythonItem@@QAE@XZ$0
	DD	00H
	DD	FLAT:__unwindfunclet$??0CPythonItem@@QAE@XZ$1
	DD	01H
	DD	FLAT:__unwindfunclet$??0CPythonItem@@QAE@XZ$2
xdata$x	ENDS
;	COMDAT xdata$x
xdata$x	SEGMENT
__ehfuncinfo$?CreateItem@CPythonItem@@QAEXKKMMM_N@Z DD 019930522H
	DD	02H
	DD	FLAT:__unwindtable$?CreateItem@CPythonItem@@QAEXKKMMM_N@Z
	DD	2 DUP(00H)
	DD	2 DUP(00H)
	DD	00H
	DD	01H
__unwindtable$?CreateItem@CPythonItem@@QAEXKKMMM_N@Z DD 0ffffffffH
	DD	FLAT:__unwindfunclet$?CreateItem@CPythonItem@@QAEXKKMMM_N@Z$0
	DD	0ffffffffH
	DD	FLAT:__unwindfunclet$?CreateItem@CPythonItem@@QAEXKKMMM_N@Z$8
xdata$x	ENDS
;	COMDAT xdata$x
xdata$x	SEGMENT
__ehfuncinfo$??$insert@$0A@$0A@@?$_Tree@V?$_Tmap_traits@KPAUSGroundItemInstance@CPythonItem@@U?$less@K@std@@V?$allocator@U?$pair@$$CBKPAUSGroundItemInstance@CPythonItem@@@std@@@4@$0A@@std@@@std@@QAE?AU?$pair@V?$_Tree_iterator@V?$_Tree_val@U?$_Tree_simple_types@U?$pair@$$CBKPAUSGroundItemInstance@CPythonItem@@@std@@@std@@@std@@@std@@_N@1@$$QAU?$pair@$$CBKPAUSGroundItemInstance@CPythonItem@@@1@@Z DD 019930522H
	DD	01H
	DD	FLAT:__unwindtable$??$insert@$0A@$0A@@?$_Tree@V?$_Tmap_traits@KPAUSGroundItemInstance@CPythonItem@@U?$less@K@std@@V?$allocator@U?$pair@$$CBKPAUSGroundItemInstance@CPythonItem@@@std@@@4@$0A@@std@@@std@@QAE?AU?$pair@V?$_Tree_iterator@V?$_Tree_val@U?$_Tree_simple_types@U?$pair@$$CBKPAUSGroundItemInstance@CPythonItem@@@std@@@std@@@std@@@std@@_N@1@$$QAU?$pair@$$CBKPAUSGroundItemInstance@CPythonItem@@@1@@Z
	DD	2 DUP(00H)
	DD	2 DUP(00H)
	DD	00H
	DD	01H
__unwindtable$??$insert@$0A@$0A@@?$_Tree@V?$_Tmap_traits@KPAUSGroundItemInstance@CPythonItem@@U?$less@K@std@@V?$allocator@U?$pair@$$CBKPAUSGroundItemInstance@CPythonItem@@@std@@@4@$0A@@std@@@std@@QAE?AU?$pair@V?$_Tree_iterator@V?$_Tree_val@U?$_Tree_simple_types@U?$pair@$$CBKPAUSGroundItemInstance@CPythonItem@@@std@@@std@@@std@@@std@@_N@1@$$QAU?$pair@$$CBKPAUSGroundItemInstance@CPythonItem@@@1@@Z DD 0ffffffffH
	DD	FLAT:__unwindfunclet$??$insert@$0A@$0A@@?$_Tree@V?$_Tmap_traits@KPAUSGroundItemInstance@CPythonItem@@U?$less@K@std@@V?$allocator@U?$pair@$$CBKPAUSGroundItemInstance@CPythonItem@@@std@@@4@$0A@@std@@@std@@QAE?AU?$pair@V?$_Tree_iterator@V?$_Tree_val@U?$_Tree_simple_types@U?$pair@$$CBKPAUSGroundItemInstance@CPythonItem@@@std@@@std@@@std@@@std@@_N@1@$$QAU?$pair@$$CBKPAUSGroundItemInstance@CPythonItem@@@1@@Z$2
xdata$x	ENDS
;	COMDAT xdata$x
xdata$x	SEGMENT
__ehfuncinfo$?Alloc@?$CDynamicPool@USGroundItemInstance@CPythonItem@@@@QAEPAUSGroundItemInstance@CPythonItem@@XZ DD 019930522H
	DD	01H
	DD	FLAT:__unwindtable$?Alloc@?$CDynamicPool@USGroundItemInstance@CPythonItem@@@@QAEPAUSGroundItemInstance@CPythonItem@@XZ
	DD	2 DUP(00H)
	DD	2 DUP(00H)
	DD	00H
	DD	01H
__unwindtable$?Alloc@?$CDynamicPool@USGroundItemInstance@CPythonItem@@@@QAEPAUSGroundItemInstance@CPythonItem@@XZ DD 0ffffffffH
	DD	FLAT:__unwindfunclet$?Alloc@?$CDynamicPool@USGroundItemInstance@CPythonItem@@@@QAEPAUSGroundItemInstance@CPythonItem@@XZ$0
xdata$x	ENDS
;	COMDAT xdata$x
xdata$x	SEGMENT
__ehfuncinfo$??$_Emplace@U?$pair@$$CBKPAUSGroundItemInstance@CPythonItem@@@std@@@?$_Tree@V?$_Tmap_traits@KPAUSGroundItemInstance@CPythonItem@@U?$less@K@std@@V?$allocator@U?$pair@$$CBKPAUSGroundItemInstance@CPythonItem@@@std@@@4@$0A@@std@@@std@@IAE?AU?$pair@PAU?$_Tree_node@U?$pair@$$CBKPAUSGroundItemInstance@CPythonItem@@@std@@PAX@std@@_N@1@$$QAU?$pair@$$CBKPAUSGroundItemInstance@CPythonItem@@@1@@Z DD 019930522H
	DD	01H
	DD	FLAT:__unwindtable$??$_Emplace@U?$pair@$$CBKPAUSGroundItemInstance@CPythonItem@@@std@@@?$_Tree@V?$_Tmap_traits@KPAUSGroundItemInstance@CPythonItem@@U?$less@K@std@@V?$allocator@U?$pair@$$CBKPAUSGroundItemInstance@CPythonItem@@@std@@@4@$0A@@std@@@std@@IAE?AU?$pair@PAU?$_Tree_node@U?$pair@$$CBKPAUSGroundItemInstance@CPythonItem@@@std@@PAX@std@@_N@1@$$QAU?$pair@$$CBKPAUSGroundItemInstance@CPythonItem@@@1@@Z
	DD	2 DUP(00H)
	DD	2 DUP(00H)
	DD	00H
	DD	01H
__unwindtable$??$_Emplace@U?$pair@$$CBKPAUSGroundItemInstance@CPythonItem@@@std@@@?$_Tree@V?$_Tmap_traits@KPAUSGroundItemInstance@CPythonItem@@U?$less@K@std@@V?$allocator@U?$pair@$$CBKPAUSGroundItemInstance@CPythonItem@@@std@@@4@$0A@@std@@@std@@IAE?AU?$pair@PAU?$_Tree_node@U?$pair@$$CBKPAUSGroundItemInstance@CPythonItem@@@std@@PAX@std@@_N@1@$$QAU?$pair@$$CBKPAUSGroundItemInstance@CPythonItem@@@1@@Z DD 0ffffffffH
	DD	FLAT:__unwindfunclet$??$_Emplace@U?$pair@$$CBKPAUSGroundItemInstance@CPythonItem@@@std@@@?$_Tree@V?$_Tmap_traits@KPAUSGroundItemInstance@CPythonItem@@U?$less@K@std@@V?$allocator@U?$pair@$$CBKPAUSGroundItemInstance@CPythonItem@@@std@@@4@$0A@@std@@@std@@IAE?AU?$pair@PAU?$_Tree_node@U?$pair@$$CBKPAUSGroundItemInstance@CPythonItem@@@std@@PAX@std@@_N@1@$$QAU?$pair@$$CBKPAUSGroundItemInstance@CPythonItem@@@1@@Z$2
xdata$x	ENDS
;	COMDAT xdata$x
xdata$x	SEGMENT
__ehfuncinfo$??$?0U?$pair@$$CBKPAUSGroundItemInstance@CPythonItem@@@std@@@?$_Tree_temp_node@V?$allocator@U?$_Tree_node@U?$pair@$$CBKPAUSGroundItemInstance@CPythonItem@@@std@@PAX@std@@@std@@@std@@QAE@AAV?$allocator@U?$_Tree_node@U?$pair@$$CBKPAUSGroundItemInstance@CPythonItem@@@std@@PAX@std@@@1@PAU?$_Tree_node@U?$pair@$$CBKPAUSGroundItemInstance@CPythonItem@@@std@@PAX@1@$$QAU?$pair@$$CBKPAUSGroundItemInstance@CPythonItem@@@1@@Z DD 019930522H
	DD	01H
	DD	FLAT:__unwindtable$??$?0U?$pair@$$CBKPAUSGroundItemInstance@CPythonItem@@@std@@@?$_Tree_temp_node@V?$allocator@U?$_Tree_node@U?$pair@$$CBKPAUSGroundItemInstance@CPythonItem@@@std@@PAX@std@@@std@@@std@@QAE@AAV?$allocator@U?$_Tree_node@U?$pair@$$CBKPAUSGroundItemInstance@CPythonItem@@@std@@PAX@std@@@1@PAU?$_Tree_node@U?$pair@$$CBKPAUSGroundItemInstance@CPythonItem@@@std@@PAX@1@$$QAU?$pair@$$CBKPAUSGroundItemInstance@CPythonItem@@@1@@Z
	DD	2 DUP(00H)
	DD	2 DUP(00H)
	DD	00H
	DD	01H
__unwindtable$??$?0U?$pair@$$CBKPAUSGroundItemInstance@CPythonItem@@@std@@@?$_Tree_temp_node@V?$allocator@U?$_Tree_node@U?$pair@$$CBKPAUSGroundItemInstance@CPythonItem@@@std@@PAX@std@@@std@@@std@@QAE@AAV?$allocator@U?$_Tree_node@U?$pair@$$CBKPAUSGroundItemInstance@CPythonItem@@@std@@PAX@std@@@1@PAU?$_Tree_node@U?$pair@$$CBKPAUSGroundItemInstance@CPythonItem@@@std@@PAX@1@$$QAU?$pair@$$CBKPAUSGroundItemInstance@CPythonItem@@@1@@Z DD 0ffffffffH
	DD	FLAT:__unwindfunclet$??$?0U?$pair@$$CBKPAUSGroundItemInstance@CPythonItem@@@std@@@?$_Tree_temp_node@V?$allocator@U?$_Tree_node@U?$pair@$$CBKPAUSGroundItemInstance@CPythonItem@@@std@@PAX@std@@@std@@@std@@QAE@AAV?$allocator@U?$_Tree_node@U?$pair@$$CBKPAUSGroundItemInstance@CPythonItem@@@std@@PAX@std@@@1@PAU?$_Tree_node@U?$pair@$$CBKPAUSGroundItemInstance@CPythonItem@@@std@@PAX@1@$$QAU?$pair@$$CBKPAUSGroundItemInstance@CPythonItem@@@1@@Z$1
xdata$x	ENDS
;	COMDAT xdata$x
xdata$x	SEGMENT
__ehfuncinfo$??0?$_Tree_temp_node_alloc@V?$allocator@U?$_Tree_node@U?$pair@$$CBKPAUSGroundItemInstance@CPythonItem@@@std@@PAX@std@@@std@@@std@@QAE@AAV?$allocator@U?$_Tree_node@U?$pair@$$CBKPAUSGroundItemInstance@CPythonItem@@@std@@PAX@std@@@1@@Z DD 019930522H
	DD	01H
	DD	FLAT:__unwindtable$??0?$_Tree_temp_node_alloc@V?$allocator@U?$_Tree_node@U?$pair@$$CBKPAUSGroundItemInstance@CPythonItem@@@std@@PAX@std@@@std@@@std@@QAE@AAV?$allocator@U?$_Tree_node@U?$pair@$$CBKPAUSGroundItemInstance@CPythonItem@@@std@@PAX@std@@@1@@Z
	DD	2 DUP(00H)
	DD	2 DUP(00H)
	DD	00H
	DD	01H
__unwindtable$??0?$_Tree_temp_node_alloc@V?$allocator@U?$_Tree_node@U?$pair@$$CBKPAUSGroundItemInstance@CPythonItem@@@std@@PAX@std@@@std@@@std@@QAE@AAV?$allocator@U?$_Tree_node@U?$pair@$$CBKPAUSGroundItemInstance@CPythonItem@@@std@@PAX@std@@@1@@Z DD 0ffffffffH
	DD	FLAT:__unwindfunclet$??0?$_Tree_temp_node_alloc@V?$allocator@U?$_Tree_node@U?$pair@$$CBKPAUSGroundItemInstance@CPythonItem@@@std@@PAX@std@@@std@@@std@@QAE@AAV?$allocator@U?$_Tree_node@U?$pair@$$CBKPAUSGroundItemInstance@CPythonItem@@@std@@PAX@std@@@1@@Z$0
	ORG $+4
?ms_astDropSoundFileName@SGroundItemInstance@CPythonItem@@2PAV?$basic_string@DU?$char_traits@D@std@@V?$allocator@D@2@@std@@A DB 00H ; CPythonItem::SGroundItemInstance::ms_astDropSoundFileName
	DB	00H
	DB	00H
	DB	00H
	DB	00H
	DB	00H
	DB	00H
	DB	00H
	DB	00H
	DB	00H
	DB	00H
	DB	00H
	DB	00H
	DB	00H
	DB	00H
	DB	00H
	DD	00H
	DD	0fH
	DB	00H
	DB	00H
	DB	00H
	DB	00H
	DB	00H
	DB	00H
	DB	00H
	DB	00H
	DB	00H
	DB	00H
	DB	00H
	DB	00H
	DB	00H
	DB	00H
	DB	00H
	DB	00H
	DD	00H
	DD	0fH
	DB	00H
	DB	00H
	DB	00H
	DB	00H
	DB	00H
	DB	00H
	DB	00H
	DB	00H
	DB	00H
	DB	00H
	DB	00H
	DB	00H
	DB	00H
	DB	00H
	DB	00H
	DB	00H
	DD	00H
	DD	0fH
	DB	00H
	DB	00H
	DB	00H
	DB	00H
	DB	00H
	DB	00H
	DB	00H
	DB	00H
	DB	00H
	DB	00H
	DB	00H
	DB	00H
	DB	00H
	DB	00H
	DB	00H
	DB	00H
	DD	00H
	DD	0fH
	DB	00H
	DB	00H
	DB	00H
	DB	00H
	DB	00H
	DB	00H
	DB	00H
	DB	00H
	DB	00H
	DB	00H
	DB	00H
	DB	00H
	DB	00H
	DB	00H
	DB	00H
	DB	00H
	DD	00H
	DD	0fH
??ms_astDropSoundFileName$initializer$@SGroundItemInstance@CPythonItem@@2P6AXXZA@@3P6AXXZA DD FLAT:??__E?ms_astDropSoundFileName@SGroundItemInstance@CPythonItem@@2PAV?$basic_string@DU?$char_traits@D@std@@V?$allocator@D@2@@std@@A@@YAXXZ ; ??ms_astDropSoundFileName$initializer$@SGroundItemInstance@CPythonItem@@2P6AXXZA@@3P6AXXZA
; Function compile flags: /Ogtp
; File D:\_m2work\Server Client TMP4\ClientVS22\source\UserInterface\PythonItem.cpp
; File C:\Program Files\Microsoft Visual Studio\2022\Community\VC\Tools\MSVC\14.44.35207\include\xtree
; File D:\_m2work\Server Client TMP4\ClientVS22\source\UserInterface\PythonItem.cpp
; File C:\Program Files\Microsoft Visual Studio\2022\Community\VC\Tools\MSVC\14.44.35207\include\xtree
; File D:\_m2work\Server Client TMP4\ClientVS22\source\UserInterface\PythonItem.cpp
; File C:\Program Files\Microsoft Visual Studio\2022\Community\VC\Tools\MSVC\14.44.35207\include\vector
; File D:\_m2work\Server Client TMP4\ClientVS22\source\UserInterface\PythonItem.cpp
; File C:\Program Files\Microsoft Visual Studio\2022\Community\VC\Tools\MSVC\14.44.35207\include\vector
; File C:\Program Files\Microsoft Visual Studio\2022\Community\VC\Tools\MSVC\14.44.35207\include\xtree
; File D:\_m2work\Server Client TMP4\ClientVS22\source\UserInterface\PythonItem.cpp
; File C:\Program Files\Microsoft Visual Studio\2022\Community\VC\Tools\MSVC\14.44.35207\include\xtree
; File D:\_m2work\Server Client TMP4\ClientVS22\source\UserInterface\PythonItem.cpp
; File C:\Program Files\Microsoft Visual Studio\2022\Community\VC\Tools\MSVC\14.44.35207\include\xtree
; File D:\_m2work\Server Client TMP4\ClientVS22\source\UserInterface\PythonItem.cpp
;	COMDAT ?DeleteAllItems@CPythonItem@@QAEXXZ
_TEXT	SEGMENT
_rkTextTail$1$ = -12					; size = 4
_pkData$ = -8						; size = 4
_i$ = -4						; size = 4
?DeleteAllItems@CPythonItem@@QAEXXZ PROC		; CPythonItem::DeleteAllItems, COMDAT
; _this$ = ecx

; 510  : {

  00000	55		 push	 ebp
  00001	8b ec		 mov	 ebp, esp
  00003	83 ec 0c	 sub	 esp, 12			; 0000000cH

; 511  : 	CPythonTextTail& rkTextTail=CPythonTextTail::Instance();

  00006	8b 15 00 00 00
	00		 mov	 edx, DWORD PTR ?ms_singleton@?$CSingleton@VCPythonTextTail@@@@0PAVCPythonTextTail@@A ; CSingleton<CPythonTextTail>::ms_singleton
  0000c	53		 push	 ebx
  0000d	56		 push	 esi
  0000e	57		 push	 edi
  0000f	8b f9		 mov	 edi, ecx
  00011	89 55 f4	 mov	 DWORD PTR _rkTextTail$1$[ebp], edx
; File C:\Program Files\Microsoft Visual Studio\2022\Community\VC\Tools\MSVC\14.44.35207\include\xtree

; 1142 :         return iterator(_Scary->_Myhead->_Left, _Scary);

  00014	8b 77 04	 mov	 esi, DWORD PTR [edi+4]
  00017	8d 5f 04	 lea	 ebx, DWORD PTR [edi+4]

; 37   :     _Tree_unchecked_const_iterator(_Nodeptr _Pnode, const _Mytree* _Plist) noexcept : _Ptr(_Pnode) {

  0001a	8b 06		 mov	 eax, DWORD PTR [esi]
; File D:\_m2work\Server Client TMP4\ClientVS22\source\UserInterface\PythonItem.cpp

; 514  : 	for (i= m_GroundItemInstanceMap.begin(); i!=m_GroundItemInstanceMap.end(); ++i)

  0001c	89 45 fc	 mov	 DWORD PTR _i$[ebp], eax
; File C:\Program Files\Microsoft Visual Studio\2022\Community\VC\Tools\MSVC\14.44.35207\include\xtree

; 37   :     _Tree_unchecked_const_iterator(_Nodeptr _Pnode, const _Mytree* _Plist) noexcept : _Ptr(_Pnode) {

  0001f	3b c6		 cmp	 eax, esi
; File D:\_m2work\Server Client TMP4\ClientVS22\source\UserInterface\PythonItem.cpp

; 514  : 	for (i= m_GroundItemInstanceMap.begin(); i!=m_GroundItemInstanceMap.end(); ++i)

  00021	74 48		 je	 SHORT $LN3@DeleteAllI
$LL4@DeleteAllI:

; 515  : 	{
; 516  : 		TGroundItemInstance* pGroundItemInst=i->second;
; 517  : 		rkTextTail.DeleteItemTextTail(i->first);

  00023	ff 70 10	 push	 DWORD PTR [eax+16]
  00026	8b 70 14	 mov	 esi, DWORD PTR [eax+20]
  00029	8b ca		 mov	 ecx, edx
  0002b	e8 00 00 00 00	 call	 ?DeleteItemTextTail@CPythonTextTail@@QAEXK@Z ; CPythonTextTail::DeleteItemTextTail

; 518  : 		pGroundItemInst->Clear();

  00030	8b ce		 mov	 ecx, esi
  00032	e8 00 00 00 00	 call	 ?Clear@SGroundItemInstance@CPythonItem@@QAEXXZ ; CPythonItem::SGroundItemInstance::Clear
; File C:\Program Files\Microsoft Visual Studio\2022\Community\VC\Tools\MSVC\14.44.35207\include\vector

; 844  :         if (_Mylast != _My_data._Myend) {

  00037	8b 47 20	 mov	 eax, DWORD PTR [edi+32]
; File D:\_m2work\Server Client TMP4\ClientVS22\source\UserInterface\PythonItem.cpp

; 519  : 		m_GroundItemInstancePool.Free(pGroundItemInst);

  0003a	89 75 f8	 mov	 DWORD PTR _pkData$[ebp], esi
; File C:\Program Files\Microsoft Visual Studio\2022\Community\VC\Tools\MSVC\14.44.35207\include\vector

; 844  :         if (_Mylast != _My_data._Myend) {

  0003d	3b 47 24	 cmp	 eax, DWORD PTR [edi+36]
  00040	74 08		 je	 SHORT $LN71@DeleteAllI

; 860  :             _STD _Construct_in_place(*_Mylast, _STD forward<_Valty>(_Val)...);

  00042	89 30		 mov	 DWORD PTR [eax], esi

; 861  :         } else {
; 862  :             _ASAN_VECTOR_EXTEND_GUARD(static_cast<size_type>(_Mylast - _My_data._Myfirst) + 1);
; 863  :             _Alty_traits::construct(_Getal(), _Unfancy(_Mylast), _STD forward<_Valty>(_Val)...);
; 864  :             _ASAN_VECTOR_RELEASE_GUARD;
; 865  :         }
; 866  : 
; 867  :         _Orphan_range(_Mylast, _Mylast);
; 868  :         _Ty& _Result = *_Mylast;
; 869  :         ++_Mylast;

  00044	83 47 20 04	 add	 DWORD PTR [edi+32], 4

; 845  :             return _Emplace_back_with_unused_capacity(_STD forward<_Valty>(_Val)...);

  00048	eb 0d		 jmp	 SHORT $LN2@DeleteAllI
$LN71@DeleteAllI:

; 846  :         }
; 847  : 
; 848  :         return *_Emplace_reallocate(_Mylast, _STD forward<_Valty>(_Val)...);

  0004a	8d 4d f8	 lea	 ecx, DWORD PTR _pkData$[ebp]
  0004d	51		 push	 ecx
  0004e	50		 push	 eax
  0004f	8d 4f 1c	 lea	 ecx, DWORD PTR [edi+28]
  00052	e8 00 00 00 00	 call	 ??$_Emplace_reallocate@ABQAUSGroundItemInstance@CPythonItem@@@?$vector@PAUSGroundItemInstance@CPythonItem@@V?$allocator@PAUSGroundItemInstance@CPythonItem@@@std@@@std@@AAEPAPAUSGroundItemInstance@CPythonItem@@QAPAU23@ABQAU23@@Z ; std::vector<CPythonItem::SGroundItemInstance *,std::allocator<CPythonItem::SGroundItemInstance *> >::_Emplace_reallocate<CPythonItem::SGroundItemInstance * const &>
$LN2@DeleteAllI:
; File C:\Program Files\Microsoft Visual Studio\2022\Community\VC\Tools\MSVC\14.44.35207\include\xtree

; 198  :         _Mybase::operator++();

  00057	8d 4d fc	 lea	 ecx, DWORD PTR _i$[ebp]
  0005a	e8 00 00 00 00	 call	 ??E?$_Tree_unchecked_const_iterator@V?$_Tree_val@U?$_Tree_simple_types@U?$pair@$$CBKPAUSGroundItemInstance@CPythonItem@@@std@@@std@@@std@@U_Iterator_base0@2@@std@@QAEAAV01@XZ ; std::_Tree_unchecked_const_iterator<std::_Tree_val<std::_Tree_simple_types<std::pair<unsigned long const ,CPythonItem::SGroundItemInstance *> > >,std::_Iterator_base0>::operator++

; 37   :     _Tree_unchecked_const_iterator(_Nodeptr _Pnode, const _Mytree* _Plist) noexcept : _Ptr(_Pnode) {

  0005f	8b 33		 mov	 esi, DWORD PTR [ebx]

; 232  :         return this->_Ptr == _Right._Ptr;

  00061	8b 45 fc	 mov	 eax, DWORD PTR _i$[ebp]
; File D:\_m2work\Server Client TMP4\ClientVS22\source\UserInterface\PythonItem.cpp

; 514  : 	for (i= m_GroundItemInstanceMap.begin(); i!=m_GroundItemInstanceMap.end(); ++i)

  00064	8b 55 f4	 mov	 edx, DWORD PTR _rkTextTail$1$[ebp]
; File C:\Program Files\Microsoft Visual Studio\2022\Community\VC\Tools\MSVC\14.44.35207\include\xtree

; 232  :         return this->_Ptr == _Right._Ptr;

  00067	3b c6		 cmp	 eax, esi
; File D:\_m2work\Server Client TMP4\ClientVS22\source\UserInterface\PythonItem.cpp

; 514  : 	for (i= m_GroundItemInstanceMap.begin(); i!=m_GroundItemInstanceMap.end(); ++i)

  00069	75 b8		 jne	 SHORT $LL4@DeleteAllI
$LN3@DeleteAllI:
; File C:\Program Files\Microsoft Visual Studio\2022\Community\VC\Tools\MSVC\14.44.35207\include\xtree

; 1374 :         _Scary->_Erase_tree(_Getal(), _Head->_Parent);

  0006b	ff 76 04	 push	 DWORD PTR [esi+4]
  0006e	8b cb		 mov	 ecx, ebx
  00070	53		 push	 ebx
  00071	e8 00 00 00 00	 call	 ??$_Erase_tree@V?$allocator@U?$_Tree_node@U?$pair@$$CBKPAUSGroundItemInstance@CPythonItem@@@std@@PAX@std@@@std@@@?$_Tree_val@U?$_Tree_simple_types@U?$pair@$$CBKPAUSGroundItemInstance@CPythonItem@@@std@@@std@@@std@@QAEXAAV?$allocator@U?$_Tree_node@U?$pair@$$CBKPAUSGroundItemInstance@CPythonItem@@@std@@PAX@std@@@1@PAU?$_Tree_node@U?$pair@$$CBKPAUSGroundItemInstance@CPythonItem@@@std@@PAX@1@@Z ; std::_Tree_val<std::_Tree_simple_types<std::pair<unsigned long const ,CPythonItem::SGroundItemInstance *> > >::_Erase_tree<std::allocator<std::_Tree_node<std::pair<unsigned long const ,CPythonItem::SGroundItemInstance *>,void *> > >

; 1375 :         _Head->_Parent  = _Head;
; 1376 :         _Head->_Left    = _Head;
; 1377 :         _Head->_Right   = _Head;
; 1378 :         _Scary->_Mysize = 0;

  00076	5f		 pop	 edi
  00077	89 76 04	 mov	 DWORD PTR [esi+4], esi
  0007a	89 36		 mov	 DWORD PTR [esi], esi
  0007c	89 76 08	 mov	 DWORD PTR [esi+8], esi
  0007f	5e		 pop	 esi
  00080	c7 43 04 00 00
	00 00		 mov	 DWORD PTR [ebx+4], 0
  00087	5b		 pop	 ebx
; File D:\_m2work\Server Client TMP4\ClientVS22\source\UserInterface\PythonItem.cpp

; 522  : }

  00088	8b e5		 mov	 esp, ebp
  0008a	5d		 pop	 ebp
  0008b	c3		 ret	 0
?DeleteAllItems@CPythonItem@@QAEXXZ ENDP		; CPythonItem::DeleteAllItems
_TEXT	ENDS
; Function compile flags: /Ogtp
; File D:\_m2work\Server Client TMP4\ClientVS22\source\UserInterface\PythonItem.cpp
; File D:\_m2work\Server Client TMP4\ClientVS22\source\eterLib\Pool.h
; File C:\Program Files\Microsoft Visual Studio\2022\Community\VC\Tools\MSVC\14.44.35207\include\vector
; File D:\_m2work\Server Client TMP4\ClientVS22\source\UserInterface\PythonItem.cpp
;	COMDAT ?Destroy@CPythonItem@@QAEXXZ
_TEXT	SEGMENT
?Destroy@CPythonItem@@QAEXXZ PROC			; CPythonItem::Destroy, COMDAT
; _this$ = ecx

; 744  : {

  00000	53		 push	 ebx
  00001	56		 push	 esi
  00002	57		 push	 edi
  00003	8b f9		 mov	 edi, ecx

; 745  : 	DeleteAllItems();

  00005	e8 00 00 00 00	 call	 ?DeleteAllItems@CPythonItem@@QAEXXZ ; CPythonItem::DeleteAllItems
; File D:\_m2work\Server Client TMP4\ClientVS22\source\eterLib\Pool.h

; 50   : 			for (auto v : m_kVct_pkData)

  0000a	8b 5f 14	 mov	 ebx, DWORD PTR [edi+20]
  0000d	8b 77 10	 mov	 esi, DWORD PTR [edi+16]
  00010	3b f3		 cmp	 esi, ebx
  00012	74 13		 je	 SHORT $LN7@Destroy
$LL8@Destroy:

; 111  : 			delete pkData;

  00014	8b 0e		 mov	 ecx, DWORD PTR [esi]
  00016	85 c9		 test	 ecx, ecx
  00018	74 06		 je	 SHORT $LN6@Destroy
  0001a	8b 01		 mov	 eax, DWORD PTR [ecx]
  0001c	6a 01		 push	 1
  0001e	ff 10		 call	 DWORD PTR [eax]
$LN6@Destroy:

; 50   : 			for (auto v : m_kVct_pkData)

  00020	83 c6 04	 add	 esi, 4
  00023	3b f3		 cmp	 esi, ebx
  00025	75 ed		 jne	 SHORT $LL8@Destroy
$LN7@Destroy:
; File C:\Program Files\Microsoft Visual Studio\2022\Community\VC\Tools\MSVC\14.44.35207\include\vector

; 1812 :         if (_Myfirst == _Mylast) { // already empty, nothing to do

  00027	8b 47 10	 mov	 eax, DWORD PTR [edi+16]
  0002a	3b 47 14	 cmp	 eax, DWORD PTR [edi+20]
  0002d	74 03		 je	 SHORT $LN14@Destroy

; 1813 :             // This is an optimization for debug mode: we can avoid taking the debug lock to invalidate iterators.
; 1814 :             // Note that when clearing an empty vector, this will preserve past-the-end iterators, which is allowed by
; 1815 :             // N4950 [sequence.reqmts]/54 "a.clear() [...] may invalidate the past-the-end iterator".
; 1816 :             return;
; 1817 :         }
; 1818 : 
; 1819 :         _My_data._Orphan_all();
; 1820 :         _Destroy_range(_Myfirst, _Mylast, _Getal());
; 1821 :         _ASAN_VECTOR_MODIFY(static_cast<difference_type>(_Myfirst - _Mylast)); // negative when destroying elements
; 1822 :         _Mylast = _Myfirst;

  0002f	89 47 14	 mov	 DWORD PTR [edi+20], eax
$LN14@Destroy:

; 1812 :         if (_Myfirst == _Mylast) { // already empty, nothing to do

  00032	8b 47 1c	 mov	 eax, DWORD PTR [edi+28]
  00035	3b 47 20	 cmp	 eax, DWORD PTR [edi+32]
  00038	74 03		 je	 SHORT $LN18@Destroy

; 1813 :             // This is an optimization for debug mode: we can avoid taking the debug lock to invalidate iterators.
; 1814 :             // Note that when clearing an empty vector, this will preserve past-the-end iterators, which is allowed by
; 1815 :             // N4950 [sequence.reqmts]/54 "a.clear() [...] may invalidate the past-the-end iterator".
; 1816 :             return;
; 1817 :         }
; 1818 : 
; 1819 :         _My_data._Orphan_all();
; 1820 :         _Destroy_range(_Myfirst, _Mylast, _Getal());
; 1821 :         _ASAN_VECTOR_MODIFY(static_cast<difference_type>(_Myfirst - _Mylast)); // negative when destroying elements
; 1822 :         _Mylast = _Myfirst;

  0003a	89 47 20	 mov	 DWORD PTR [edi+32], eax
$LN18@Destroy:
  0003d	5f		 pop	 edi
; File D:\_m2work\Server Client TMP4\ClientVS22\source\UserInterface\PythonItem.cpp

; 747  : }

  0003e	5e		 pop	 esi
  0003f	5b		 pop	 ebx
  00040	c3		 ret	 0
?Destroy@CPythonItem@@QAEXXZ ENDP			; CPythonItem::Destroy
_TEXT	ENDS
; Function compile flags: /Ogtp
; File D:\_m2work\Server Client TMP4\ClientVS22\source\UserInterface\PythonItem.cpp
;	COMDAT ?Create@CPythonItem@@QAEXXZ
_TEXT	SEGMENT
?Create@CPythonItem@@QAEXXZ PROC			; CPythonItem::Create, COMDAT
; _this$ = ecx

; 751  : 	CEffectManager::Instance().RegisterEffect2("d:/ymir work/effect/etc/dropitem/dropitem.mse", &m_dwDropItemEffectID);

  00000	6a 00		 push	 0
  00002	8d 41 30	 lea	 eax, DWORD PTR [ecx+48]
  00005	8b 0d 00 00 00
	00		 mov	 ecx, DWORD PTR ?ms_singleton@?$CSingleton@VCEffectManager@@@@0PAVCEffectManager@@A ; CSingleton<CEffectManager>::ms_singleton
  0000b	50		 push	 eax
  0000c	68 00 00 00 00	 push	 OFFSET ??_C@_0CO@ILCHIEAM@d?3?1ymir?5work?1effect?1etc?1dropite@
  00011	e8 00 00 00 00	 call	 ?RegisterEffect2@CEffectManager@@QAEHPBDPAK_N@Z ; CEffectManager::RegisterEffect2

; 752  : }

  00016	c3		 ret	 0
?Create@CPythonItem@@QAEXXZ ENDP			; CPythonItem::Create
_TEXT	ENDS
; Function compile flags: /Ogtp
; File D:\_m2work\Server Client TMP4\ClientVS22\source\UserInterface\PythonItem.cpp
; File C:\Program Files\Microsoft Visual Studio\2022\Community\VC\Tools\MSVC\14.44.35207\include\xtree
; File D:\_m2work\Server Client TMP4\ClientVS22\source\UserInterface\PythonItem.cpp
; File C:\Program Files\Microsoft Visual Studio\2022\Community\VC\Tools\MSVC\14.44.35207\include\xtree
; File D:\_m2work\Server Client TMP4\ClientVS22\source\UserInterface\PythonItem.cpp
;	COMDAT ?Update@CPythonItem@@QAEXABUtagPOINT@@@Z
_TEXT	SEGMENT
_itor$ = -4						; size = 4
_c_rkPtMouse$ = 8					; size = 4
?Update@CPythonItem@@QAEXABUtagPOINT@@@Z PROC		; CPythonItem::Update, COMDAT
; _this$ = ecx

; 111  : {

  00000	55		 push	 ebp
  00001	8b ec		 mov	 ebp, esp
  00003	83 e4 f8	 and	 esp, -8			; fffffff8H
  00006	51		 push	 ecx
  00007	56		 push	 esi
  00008	8b f1		 mov	 esi, ecx
; File C:\Program Files\Microsoft Visual Studio\2022\Community\VC\Tools\MSVC\14.44.35207\include\xtree

; 1142 :         return iterator(_Scary->_Myhead->_Left, _Scary);

  0000a	8b 56 04	 mov	 edx, DWORD PTR [esi+4]

; 37   :     _Tree_unchecked_const_iterator(_Nodeptr _Pnode, const _Mytree* _Plist) noexcept : _Ptr(_Pnode) {

  0000d	8b 02		 mov	 eax, DWORD PTR [edx]
  0000f	89 44 24 04	 mov	 DWORD PTR _itor$[esp+8], eax
  00013	3b c2		 cmp	 eax, edx
; File D:\_m2work\Server Client TMP4\ClientVS22\source\UserInterface\PythonItem.cpp

; 113  : 	for(; itor != m_GroundItemInstanceMap.end(); ++itor)

  00015	74 1a		 je	 SHORT $LN3@Update
$LL4@Update:

; 114  : 	{
; 115  : 		itor->second->Update();

  00017	8b 48 14	 mov	 ecx, DWORD PTR [eax+20]
  0001a	e8 00 00 00 00	 call	 ?Update@SGroundItemInstance@CPythonItem@@QAE_NXZ ; CPythonItem::SGroundItemInstance::Update
; File C:\Program Files\Microsoft Visual Studio\2022\Community\VC\Tools\MSVC\14.44.35207\include\xtree

; 198  :         _Mybase::operator++();

  0001f	8d 4c 24 04	 lea	 ecx, DWORD PTR _itor$[esp+8]
  00023	e8 00 00 00 00	 call	 ??E?$_Tree_unchecked_const_iterator@V?$_Tree_val@U?$_Tree_simple_types@U?$pair@$$CBKPAUSGroundItemInstance@CPythonItem@@@std@@@std@@@std@@U_Iterator_base0@2@@std@@QAEAAV01@XZ ; std::_Tree_unchecked_const_iterator<std::_Tree_val<std::_Tree_simple_types<std::pair<unsigned long const ,CPythonItem::SGroundItemInstance *> > >,std::_Iterator_base0>::operator++

; 232  :         return this->_Ptr == _Right._Ptr;

  00028	8b 44 24 04	 mov	 eax, DWORD PTR _itor$[esp+8]
  0002c	3b 46 04	 cmp	 eax, DWORD PTR [esi+4]
; File D:\_m2work\Server Client TMP4\ClientVS22\source\UserInterface\PythonItem.cpp

; 113  : 	for(; itor != m_GroundItemInstanceMap.end(); ++itor)

  0002f	75 e6		 jne	 SHORT $LL4@Update
$LN3@Update:

; 116  : 	}
; 117  : 
; 118  : 	m_dwPickedItemID=__Pick(c_rkPtMouse);

  00031	ff 75 08	 push	 DWORD PTR _c_rkPtMouse$[ebp]
  00034	8b ce		 mov	 ecx, esi
  00036	e8 00 00 00 00	 call	 ?__Pick@CPythonItem@@IAEKABUtagPOINT@@@Z ; CPythonItem::__Pick
  0003b	89 46 34	 mov	 DWORD PTR [esi+52], eax

; 119  : }

  0003e	5e		 pop	 esi
  0003f	8b e5		 mov	 esp, ebp
  00041	5d		 pop	 ebp
  00042	c2 04 00	 ret	 4
?Update@CPythonItem@@QAEXABUtagPOINT@@@Z ENDP		; CPythonItem::Update
_TEXT	ENDS
; Function compile flags: /Ogtp
; File D:\_m2work\Server Client TMP4\ClientVS22\source\UserInterface\PythonItem.cpp
; File C:\Program Files\Microsoft Visual Studio\2022\Community\VC\Tools\MSVC\14.44.35207\include\xtree
; File D:\_m2work\Server Client TMP4\ClientVS22\source\UserInterface\PythonItem.cpp
; File C:\Program Files\Microsoft Visual Studio\2022\Community\VC\Tools\MSVC\14.44.35207\include\xtree
; File D:\_m2work\Server Client TMP4\ClientVS22\source\UserInterface\PythonItem.cpp
;	COMDAT ?Render@CPythonItem@@QAEXXZ
_TEXT	SEGMENT
_itor$ = -4						; size = 4
?Render@CPythonItem@@QAEXXZ PROC			; CPythonItem::Render, COMDAT
; _this$ = ecx

; 122  : {

  00000	55		 push	 ebp
  00001	8b ec		 mov	 ebp, esp
  00003	51		 push	 ecx
  00004	57		 push	 edi
  00005	8b f9		 mov	 edi, ecx

; 123  : 	CPythonGraphic::Instance().SetDiffuseOperation();

  00007	8b 0d 00 00 00
	00		 mov	 ecx, DWORD PTR ?ms_singleton@?$CSingleton@VCPythonGraphic@@@@0PAVCPythonGraphic@@A ; CSingleton<CPythonGraphic>::ms_singleton
  0000d	e8 00 00 00 00	 call	 ?SetDiffuseOperation@CScreen@@QAEXXZ ; CScreen::SetDiffuseOperation
; File C:\Program Files\Microsoft Visual Studio\2022\Community\VC\Tools\MSVC\14.44.35207\include\xtree

; 1142 :         return iterator(_Scary->_Myhead->_Left, _Scary);

  00012	8b 57 04	 mov	 edx, DWORD PTR [edi+4]

; 37   :     _Tree_unchecked_const_iterator(_Nodeptr _Pnode, const _Mytree* _Plist) noexcept : _Ptr(_Pnode) {

  00015	8b 02		 mov	 eax, DWORD PTR [edx]
  00017	89 45 fc	 mov	 DWORD PTR _itor$[ebp], eax
  0001a	3b c2		 cmp	 eax, edx
; File D:\_m2work\Server Client TMP4\ClientVS22\source\UserInterface\PythonItem.cpp

; 125  : 	for (; itor != m_GroundItemInstanceMap.end(); ++itor)

  0001c	74 26		 je	 SHORT $LN3@Render
  0001e	56		 push	 esi
  0001f	90		 npad	 1
$LL4@Render:

; 126  : 	{
; 127  : 		CGraphicThingInstance & rInstance = itor->second->ThingInstance;

  00020	8b 70 14	 mov	 esi, DWORD PTR [eax+20]

; 128  : 		//rInstance.Update();
; 129  : 		rInstance.Render();

  00023	8d 4e 3c	 lea	 ecx, DWORD PTR [esi+60]
  00026	e8 00 00 00 00	 call	 ?Render@CGraphicObjectInstance@@QAE_NXZ ; CGraphicObjectInstance::Render

; 130  : 		rInstance.BlendRender();

  0002b	8d 4e 3c	 lea	 ecx, DWORD PTR [esi+60]
  0002e	e8 00 00 00 00	 call	 ?BlendRender@CGraphicObjectInstance@@QAEXXZ ; CGraphicObjectInstance::BlendRender
; File C:\Program Files\Microsoft Visual Studio\2022\Community\VC\Tools\MSVC\14.44.35207\include\xtree

; 198  :         _Mybase::operator++();

  00033	8d 4d fc	 lea	 ecx, DWORD PTR _itor$[ebp]
  00036	e8 00 00 00 00	 call	 ??E?$_Tree_unchecked_const_iterator@V?$_Tree_val@U?$_Tree_simple_types@U?$pair@$$CBKPAUSGroundItemInstance@CPythonItem@@@std@@@std@@@std@@U_Iterator_base0@2@@std@@QAEAAV01@XZ ; std::_Tree_unchecked_const_iterator<std::_Tree_val<std::_Tree_simple_types<std::pair<unsigned long const ,CPythonItem::SGroundItemInstance *> > >,std::_Iterator_base0>::operator++

; 232  :         return this->_Ptr == _Right._Ptr;

  0003b	8b 45 fc	 mov	 eax, DWORD PTR _itor$[ebp]
  0003e	3b 47 04	 cmp	 eax, DWORD PTR [edi+4]
; File D:\_m2work\Server Client TMP4\ClientVS22\source\UserInterface\PythonItem.cpp

; 125  : 	for (; itor != m_GroundItemInstanceMap.end(); ++itor)

  00041	75 dd		 jne	 SHORT $LL4@Render
  00043	5e		 pop	 esi
$LN3@Render:
  00044	5f		 pop	 edi

; 131  : 	}
; 132  : }

  00045	8b e5		 mov	 esp, ebp
  00047	5d		 pop	 ebp
  00048	c3		 ret	 0
?Render@CPythonItem@@QAEXXZ ENDP			; CPythonItem::Render
_TEXT	ENDS
; Function compile flags: /Ogtp
; File D:\_m2work\Server Client TMP4\ClientVS22\source\UserInterface\PythonItem.cpp
; File C:\Program Files\Microsoft Visual Studio\2022\Community\VC\Tools\MSVC\14.44.35207\include\vector
; File D:\_m2work\Server Client TMP4\ClientVS22\source\UserInterface\PythonItem.cpp
; File C:\Program Files\Microsoft Visual Studio\2022\Community\VC\Tools\MSVC\14.44.35207\include\vector
; File D:\_m2work\Server Client TMP4\ClientVS22\source\UserInterface\PythonItem.cpp
; File C:\Program Files\Microsoft Visual Studio\2022\Community\VC\Tools\MSVC\14.44.35207\include\__msvc_string_view.hpp
; File D:\_m2work\Server Client TMP4\ClientVS22\source\UserInterface\PythonItem.cpp
; File C:\Program Files\Microsoft Visual Studio\2022\Community\VC\Tools\MSVC\14.44.35207\include\__msvc_string_view.hpp
; File C:\Program Files\Microsoft Visual Studio\2022\Community\VC\Tools\MSVC\14.44.35207\include\xstring
; File D:\_m2work\Server Client TMP4\ClientVS22\source\UserInterface\PythonItem.cpp
; File C:\Program Files\Microsoft Visual Studio\2022\Community\VC\Tools\MSVC\14.44.35207\include\xstring
; File D:\_m2work\Server Client TMP4\ClientVS22\source\UserInterface\PythonItem.cpp
;	COMDAT ?GetInfo@CPythonItem@@QAEXPAV?$basic_string@DU?$char_traits@D@std@@V?$allocator@D@2@@std@@@Z
_TEXT	SEGMENT
_szInfo$ = -260						; size = 256
__$ArrayPad$ = -4					; size = 4
_pstInfo$ = 8						; size = 4
?GetInfo@CPythonItem@@QAEXPAV?$basic_string@DU?$char_traits@D@std@@V?$allocator@D@2@@std@@@Z PROC ; CPythonItem::GetInfo, COMDAT
; _this$ = ecx

; 16   : {

  00000	55		 push	 ebp
  00001	8b ec		 mov	 ebp, esp
  00003	81 ec 04 01 00
	00		 sub	 esp, 260		; 00000104H
  00009	a1 00 00 00 00	 mov	 eax, DWORD PTR ___security_cookie
  0000e	33 c5		 xor	 eax, ebp
  00010	89 45 fc	 mov	 DWORD PTR __$ArrayPad$[ebp], eax
; File C:\Program Files\Microsoft Visual Studio\2022\Community\VC\Tools\MSVC\14.44.35207\include\vector

; 1915 :         return static_cast<size_type>(_My_data._Mylast - _My_data._Myfirst);

  00013	8b 41 14	 mov	 eax, DWORD PTR [ecx+20]
  00016	2b 41 10	 sub	 eax, DWORD PTR [ecx+16]
; File D:\_m2work\Server Client TMP4\ClientVS22\source\UserInterface\PythonItem.cpp

; 16   : {

  00019	56		 push	 esi
  0001a	8b 75 08	 mov	 esi, DWORD PTR _pstInfo$[ebp]
; File C:\Program Files\Microsoft Visual Studio\2022\Community\VC\Tools\MSVC\14.44.35207\include\vector

; 1915 :         return static_cast<size_type>(_My_data._Mylast - _My_data._Myfirst);

  0001d	c1 f8 02	 sar	 eax, 2
; File D:\_m2work\Server Client TMP4\ClientVS22\source\UserInterface\PythonItem.cpp

; 18   : 	sprintf(szInfo, "Item: Inst %d, Pool %d", m_GroundItemInstanceMap.size(), m_GroundItemInstancePool.GetCapacity());

  00020	50		 push	 eax
  00021	ff 71 08	 push	 DWORD PTR [ecx+8]
  00024	8d 85 fc fe ff
	ff		 lea	 eax, DWORD PTR _szInfo$[ebp]
  0002a	68 00 00 00 00	 push	 OFFSET ??_C@_0BH@BBCPOMJB@Item?3?5Inst?5?$CFd?0?5Pool?5?$CFd@
  0002f	50		 push	 eax
  00030	e8 00 00 00 00	 call	 _sprintf
; File C:\Program Files\Microsoft Visual Studio\2022\Community\VC\Tools\MSVC\14.44.35207\include\__msvc_string_view.hpp

; 456  :             return __builtin_strlen(_First);

  00035	8d 85 fc fe ff
	ff		 lea	 eax, DWORD PTR _szInfo$[ebp]
; File D:\_m2work\Server Client TMP4\ClientVS22\source\UserInterface\PythonItem.cpp

; 18   : 	sprintf(szInfo, "Item: Inst %d, Pool %d", m_GroundItemInstanceMap.size(), m_GroundItemInstancePool.GetCapacity());

  0003b	83 c4 10	 add	 esp, 16			; 00000010H
; File C:\Program Files\Microsoft Visual Studio\2022\Community\VC\Tools\MSVC\14.44.35207\include\__msvc_string_view.hpp

; 456  :             return __builtin_strlen(_First);

  0003e	8d 50 01	 lea	 edx, DWORD PTR [eax+1]
$LL13@GetInfo:
  00041	8a 08		 mov	 cl, BYTE PTR [eax]
  00043	40		 inc	 eax
  00044	84 c9		 test	 cl, cl
  00046	75 f9		 jne	 SHORT $LL13@GetInfo
  00048	2b c2		 sub	 eax, edx
; File C:\Program Files\Microsoft Visual Studio\2022\Community\VC\Tools\MSVC\14.44.35207\include\xstring

; 1534 :         return append(_Ptr, _Convert_size<size_type>(_Traits::length(_Ptr)));

  0004a	8b ce		 mov	 ecx, esi
  0004c	50		 push	 eax
  0004d	8d 85 fc fe ff
	ff		 lea	 eax, DWORD PTR _szInfo$[ebp]
  00053	50		 push	 eax
  00054	e8 00 00 00 00	 call	 ?append@?$basic_string@DU?$char_traits@D@std@@V?$allocator@D@2@@std@@QAEAAV12@QBDI@Z ; std::basic_string<char,std::char_traits<char>,std::allocator<char> >::append
; File D:\_m2work\Server Client TMP4\ClientVS22\source\UserInterface\PythonItem.cpp

; 21   : }

  00059	8b 4d fc	 mov	 ecx, DWORD PTR __$ArrayPad$[ebp]
  0005c	33 cd		 xor	 ecx, ebp
; File C:\Program Files\Microsoft Visual Studio\2022\Community\VC\Tools\MSVC\14.44.35207\include\xstring

; 1534 :         return append(_Ptr, _Convert_size<size_type>(_Traits::length(_Ptr)));

  0005e	5e		 pop	 esi
; File D:\_m2work\Server Client TMP4\ClientVS22\source\UserInterface\PythonItem.cpp

; 21   : }

  0005f	e8 00 00 00 00	 call	 @__security_check_cookie@4
  00064	8b e5		 mov	 esp, ebp
  00066	5d		 pop	 ebp
  00067	c2 04 00	 ret	 4
?GetInfo@CPythonItem@@QAEXPAV?$basic_string@DU?$char_traits@D@std@@V?$allocator@D@2@@std@@@Z ENDP ; CPythonItem::GetInfo
_TEXT	ENDS
; Function compile flags: /Ogtp
; File D:\_m2work\Server Client TMP4\ClientVS22\source\UserInterface\PythonItem.cpp
; File D:\_m2work\Server Client TMP4\ClientVS22\source\eterLib\Pool.h
; File C:\Program Files\Microsoft Visual Studio\2022\Community\VC\Tools\MSVC\14.44.35207\include\xtree
; File D:\_m2work\Server Client TMP4\ClientVS22\source\UserInterface\PythonItem.cpp
; File C:\Program Files\Microsoft Visual Studio\2022\Community\VC\Tools\MSVC\14.44.35207\include\xtree
; File C:\Program Files\Microsoft Visual Studio\2022\Community\VC\Tools\MSVC\14.44.35207\include\xmemory
; File D:\_m2work\Server Client TMP4\ClientVS22\source\eterBase\Singleton.h
; File D:\_m2work\Server Client TMP4\ClientVS22\source\UserInterface\PythonItem.cpp
;	COMDAT ??1CPythonItem@@UAE@XZ
_TEXT	SEGMENT
__$EHRec$ = -12						; size = 12
??1CPythonItem@@UAE@XZ PROC				; CPythonItem::~CPythonItem, COMDAT
; _this$ = ecx

; 761  : {

  00000	55		 push	 ebp
  00001	8b ec		 mov	 ebp, esp
  00003	6a ff		 push	 -1
  00005	68 00 00 00 00	 push	 __ehhandler$??1CPythonItem@@UAE@XZ
  0000a	64 a1 00 00 00
	00		 mov	 eax, DWORD PTR fs:0
  00010	50		 push	 eax
  00011	56		 push	 esi
  00012	57		 push	 edi
  00013	a1 00 00 00 00	 mov	 eax, DWORD PTR ___security_cookie
  00018	33 c5		 xor	 eax, ebp
  0001a	50		 push	 eax
  0001b	8d 45 f4	 lea	 eax, DWORD PTR __$EHRec$[ebp]
  0001e	64 a3 00 00 00
	00		 mov	 DWORD PTR fs:0, eax
  00024	8b f9		 mov	 edi, ecx

; 763  : }

  00026	8d 8f 00 01 00
	00		 lea	 ecx, DWORD PTR [edi+256]
  0002c	c7 07 00 00 00
	00		 mov	 DWORD PTR [edi], OFFSET ??_7CPythonItem@@6B@
  00032	e8 00 00 00 00	 call	 ??1?$vector@PAVCItemData@@V?$allocator@PAVCItemData@@@std@@@std@@QAE@XZ ; std::vector<CItemData *,std::allocator<CItemData *> >::~vector<CItemData *,std::allocator<CItemData *> >
  00037	68 00 00 00 00	 push	 OFFSET ??1?$basic_string@DU?$char_traits@D@std@@V?$allocator@D@2@@std@@QAE@XZ ; std::basic_string<char,std::char_traits<char>,std::allocator<char> >::~basic_string<char,std::char_traits<char>,std::allocator<char> >
  0003c	6a 08		 push	 8
  0003e	6a 18		 push	 24			; 00000018H
  00040	8d 47 40	 lea	 eax, DWORD PTR [edi+64]
  00043	50		 push	 eax
  00044	e8 00 00 00 00	 call	 ??_M@YGXPAXIIP6EX0@Z@Z
; File D:\_m2work\Server Client TMP4\ClientVS22\source\eterLib\Pool.h

; 26   : 		}

  00049	8d 4f 1c	 lea	 ecx, DWORD PTR [edi+28]
  0004c	c7 47 0c 00 00
	00 00		 mov	 DWORD PTR [edi+12], OFFSET ??_7?$CDynamicPool@USGroundItemInstance@CPythonItem@@@@6B@
  00053	e8 00 00 00 00	 call	 ??1?$vector@PAUSGroundItemInstance@CPythonItem@@V?$allocator@PAUSGroundItemInstance@CPythonItem@@@std@@@std@@QAE@XZ ; std::vector<CPythonItem::SGroundItemInstance *,std::allocator<CPythonItem::SGroundItemInstance *> >::~vector<CPythonItem::SGroundItemInstance *,std::allocator<CPythonItem::SGroundItemInstance *> >
  00058	8d 4f 10	 lea	 ecx, DWORD PTR [edi+16]
  0005b	e8 00 00 00 00	 call	 ??1?$vector@PAUSGroundItemInstance@CPythonItem@@V?$allocator@PAUSGroundItemInstance@CPythonItem@@@std@@@std@@QAE@XZ ; std::vector<CPythonItem::SGroundItemInstance *,std::allocator<CPythonItem::SGroundItemInstance *> >::~vector<CPythonItem::SGroundItemInstance *,std::allocator<CPythonItem::SGroundItemInstance *> >
; File C:\Program Files\Microsoft Visual Studio\2022\Community\VC\Tools\MSVC\14.44.35207\include\xtree

; 777  :         _Erase_tree(_Al, _Myhead->_Parent);

  00060	8b 47 04	 mov	 eax, DWORD PTR [edi+4]
; File D:\_m2work\Server Client TMP4\ClientVS22\source\UserInterface\PythonItem.cpp

; 763  : }

  00063	8d 77 04	 lea	 esi, DWORD PTR [edi+4]
; File C:\Program Files\Microsoft Visual Studio\2022\Community\VC\Tools\MSVC\14.44.35207\include\xtree

; 777  :         _Erase_tree(_Al, _Myhead->_Parent);

  00066	8b ce		 mov	 ecx, esi
  00068	ff 70 04	 push	 DWORD PTR [eax+4]
  0006b	56		 push	 esi
  0006c	e8 00 00 00 00	 call	 ??$_Erase_tree@V?$allocator@U?$_Tree_node@U?$pair@$$CBKPAUSGroundItemInstance@CPythonItem@@@std@@PAX@std@@@std@@@?$_Tree_val@U?$_Tree_simple_types@U?$pair@$$CBKPAUSGroundItemInstance@CPythonItem@@@std@@@std@@@std@@QAEXAAV?$allocator@U?$_Tree_node@U?$pair@$$CBKPAUSGroundItemInstance@CPythonItem@@@std@@PAX@std@@@1@PAU?$_Tree_node@U?$pair@$$CBKPAUSGroundItemInstance@CPythonItem@@@std@@PAX@1@@Z ; std::_Tree_val<std::_Tree_simple_types<std::pair<unsigned long const ,CPythonItem::SGroundItemInstance *> > >::_Erase_tree<std::allocator<std::_Tree_node<std::pair<unsigned long const ,CPythonItem::SGroundItemInstance *>,void *> > >
; File C:\Program Files\Microsoft Visual Studio\2022\Community\VC\Tools\MSVC\14.44.35207\include\xmemory

; 289  :         ::operator delete(_Ptr, _Bytes);

  00071	6a 18		 push	 24			; 00000018H
  00073	ff 36		 push	 DWORD PTR [esi]
  00075	e8 00 00 00 00	 call	 ??3@YAXPAXI@Z		; operator delete
  0007a	83 c4 08	 add	 esp, 8
; File D:\_m2work\Server Client TMP4\ClientVS22\source\eterBase\Singleton.h

; 19   : 	{ 

  0007d	c7 07 00 00 00
	00		 mov	 DWORD PTR [edi], OFFSET ??_7?$CSingleton@VCPythonItem@@@@6B@

; 20   : 		assert(ms_singleton);
; 21   : 		ms_singleton = 0; 

  00083	c7 05 00 00 00
	00 00 00 00 00	 mov	 DWORD PTR ?ms_singleton@?$CSingleton@VCPythonItem@@@@0PAVCPythonItem@@A, 0 ; CSingleton<CPythonItem>::ms_singleton
; File D:\_m2work\Server Client TMP4\ClientVS22\source\UserInterface\PythonItem.cpp

; 763  : }

  0008d	8b 4d f4	 mov	 ecx, DWORD PTR __$EHRec$[ebp]
  00090	64 89 0d 00 00
	00 00		 mov	 DWORD PTR fs:0, ecx
  00097	59		 pop	 ecx
  00098	5f		 pop	 edi
  00099	5e		 pop	 esi
  0009a	8b e5		 mov	 esp, ebp
  0009c	5d		 pop	 ebp
  0009d	c3		 ret	 0
  0009e	cc		 int	 3
  0009f	cc		 int	 3
  000a0	cc		 int	 3
  000a1	cc		 int	 3
  000a2	cc		 int	 3
_TEXT	ENDS
;	COMDAT text$x
text$x	SEGMENT
__ehhandler$??1CPythonItem@@UAE@XZ:
  00000	90		 npad	 1
  00001	90		 npad	 1
  00002	8b 54 24 08	 mov	 edx, DWORD PTR [esp+8]
  00006	8d 42 0c	 lea	 eax, DWORD PTR [edx+12]
  00009	8b 4a f4	 mov	 ecx, DWORD PTR [edx-12]
  0000c	33 c8		 xor	 ecx, eax
  0000e	e8 00 00 00 00	 call	 @__security_check_cookie@4
  00013	b8 00 00 00 00	 mov	 eax, OFFSET __ehfuncinfo$??1CPythonItem@@UAE@XZ
  00018	e9 00 00 00 00	 jmp	 ___CxxFrameHandler3
text$x	ENDS
??1CPythonItem@@UAE@XZ ENDP				; CPythonItem::~CPythonItem
; Function compile flags: /Ogtp
; File D:\_m2work\Server Client TMP4\ClientVS22\source\UserInterface\PythonItem.cpp
; File D:\_m2work\Server Client TMP4\ClientVS22\source\eterBase\Singleton.h
; File D:\_m2work\Server Client TMP4\ClientVS22\source\UserInterface\PythonItem.cpp
; File C:\Program Files\Microsoft Visual Studio\2022\Community\VC\Tools\MSVC\14.44.35207\include\xmemory
; File D:\_m2work\Server Client TMP4\ClientVS22\source\UserInterface\PythonItem.cpp
; File C:\Program Files\Microsoft Visual Studio\2022\Community\VC\Tools\MSVC\14.44.35207\include\xtree
; File C:\Program Files\Microsoft Visual Studio\2022\Community\VC\Tools\MSVC\14.44.35207\include\xmemory
; File C:\Program Files\Microsoft Visual Studio\2022\Community\VC\Tools\MSVC\14.44.35207\include\xtree
; File D:\_m2work\Server Client TMP4\ClientVS22\source\eterLib\Pool.h
; File C:\Program Files\Microsoft Visual Studio\2022\Community\VC\Tools\MSVC\14.44.35207\include\vector
; File D:\_m2work\Server Client TMP4\ClientVS22\source\eterLib\Pool.h
; File D:\_m2work\Server Client TMP4\ClientVS22\source\UserInterface\PythonItem.cpp
; File C:\Program Files\Microsoft Visual Studio\2022\Community\VC\Tools\MSVC\14.44.35207\include\vector
; File D:\_m2work\Server Client TMP4\ClientVS22\source\UserInterface\PythonItem.cpp
; File C:\Program Files\Microsoft Visual Studio\2022\Community\VC\Tools\MSVC\14.44.35207\include\vector
; File D:\_m2work\Server Client TMP4\ClientVS22\source\UserInterface\PythonItem.cpp
;	COMDAT ??0CPythonItem@@QAE@XZ
_TEXT	SEGMENT
_this$ = -20						; size = 4
_this$ = -16						; size = 4
__$EHRec$ = -12						; size = 12
??0CPythonItem@@QAE@XZ PROC				; CPythonItem::CPythonItem, COMDAT
; _this$ = ecx

; 755  : {

  00000	55		 push	 ebp
  00001	8b ec		 mov	 ebp, esp
  00003	6a ff		 push	 -1
  00005	68 00 00 00 00	 push	 __ehhandler$??0CPythonItem@@QAE@XZ
  0000a	64 a1 00 00 00
	00		 mov	 eax, DWORD PTR fs:0
  00010	50		 push	 eax
  00011	83 ec 08	 sub	 esp, 8
  00014	56		 push	 esi
  00015	57		 push	 edi
  00016	a1 00 00 00 00	 mov	 eax, DWORD PTR ___security_cookie
  0001b	33 c5		 xor	 eax, ebp
  0001d	50		 push	 eax
  0001e	8d 45 f4	 lea	 eax, DWORD PTR __$EHRec$[ebp]
  00021	64 a3 00 00 00
	00		 mov	 DWORD PTR fs:0, eax
  00027	8b f9		 mov	 edi, ecx
  00029	89 7d f0	 mov	 DWORD PTR _this$[ebp], edi
; File D:\_m2work\Server Client TMP4\ClientVS22\source\eterBase\Singleton.h

; 15   : 		ms_singleton = (T*) ((int) this + offset);

  0002c	89 3d 00 00 00
	00		 mov	 DWORD PTR ?ms_singleton@?$CSingleton@VCPythonItem@@@@0PAVCPythonItem@@A, edi ; CSingleton<CPythonItem>::ms_singleton
; File D:\_m2work\Server Client TMP4\ClientVS22\source\UserInterface\PythonItem.cpp

; 755  : {

  00032	c7 45 fc 00 00
	00 00		 mov	 DWORD PTR __$EHRec$[ebp+8], 0
  00039	8d 77 04	 lea	 esi, DWORD PTR [edi+4]
  0003c	c7 07 00 00 00
	00		 mov	 DWORD PTR [edi], OFFSET ??_7CPythonItem@@6B@
; File C:\Program Files\Microsoft Visual Studio\2022\Community\VC\Tools\MSVC\14.44.35207\include\xmemory

; 136  :         return ::operator new(_Bytes);

  00042	6a 18		 push	 24			; 00000018H
; File D:\_m2work\Server Client TMP4\ClientVS22\source\UserInterface\PythonItem.cpp

; 755  : {

  00044	89 75 ec	 mov	 DWORD PTR _this$[ebp], esi
; File C:\Program Files\Microsoft Visual Studio\2022\Community\VC\Tools\MSVC\14.44.35207\include\xtree

; 450  :     _Tree_val() noexcept : _Myhead(), _Mysize(0) {}

  00047	c7 06 00 00 00
	00		 mov	 DWORD PTR [esi], 0
  0004d	c7 46 04 00 00
	00 00		 mov	 DWORD PTR [esi+4], 0
; File C:\Program Files\Microsoft Visual Studio\2022\Community\VC\Tools\MSVC\14.44.35207\include\xmemory

; 136  :         return ::operator new(_Bytes);

  00054	e8 00 00 00 00	 call	 ??2@YAPAXI@Z		; operator new
  00059	83 c4 04	 add	 esp, 4
; File C:\Program Files\Microsoft Visual Studio\2022\Community\VC\Tools\MSVC\14.44.35207\include\xtree

; 346  :         _Construct_in_place(_Pnode->_Left, _Pnode);

  0005c	89 00		 mov	 DWORD PTR [eax], eax

; 347  :         _Construct_in_place(_Pnode->_Parent, _Pnode);

  0005e	89 40 04	 mov	 DWORD PTR [eax+4], eax

; 348  :         _Construct_in_place(_Pnode->_Right, _Pnode);

  00061	89 40 08	 mov	 DWORD PTR [eax+8], eax

; 349  :         _Pnode->_Color = _Black;

  00064	66 c7 40 0c 01
	01		 mov	 WORD PTR [eax+12], 257	; 00000101H

; 1957 :         _Scary->_Myhead = _Node::_Buyheadnode(_Getal());

  0006a	89 06		 mov	 DWORD PTR [esi], eax
; File D:\_m2work\Server Client TMP4\ClientVS22\source\eterLib\Pool.h

; 12   : 		{

  0006c	c7 47 0c 00 00
	00 00		 mov	 DWORD PTR [edi+12], OFFSET ??_7?$CDynamicPool@USGroundItemInstance@CPythonItem@@@@6B@
; File C:\Program Files\Microsoft Visual Studio\2022\Community\VC\Tools\MSVC\14.44.35207\include\vector

; 400  :     _CONSTEXPR20 _Vector_val() noexcept : _Myfirst(), _Mylast(), _Myend() {}

  00073	c7 47 10 00 00
	00 00		 mov	 DWORD PTR [edi+16], 0
  0007a	c7 47 14 00 00
	00 00		 mov	 DWORD PTR [edi+20], 0
  00081	c7 47 18 00 00
	00 00		 mov	 DWORD PTR [edi+24], 0
  00088	c7 47 1c 00 00
	00 00		 mov	 DWORD PTR [edi+28], 0
  0008f	c7 47 20 00 00
	00 00		 mov	 DWORD PTR [edi+32], 0
  00096	c7 47 24 00 00
	00 00		 mov	 DWORD PTR [edi+36], 0
; File D:\_m2work\Server Client TMP4\ClientVS22\source\eterLib\Pool.h

; 14   : 			m_uInitCapacity=0;

  0009d	c7 47 28 00 00
	00 00		 mov	 DWORD PTR [edi+40], 0

; 15   : 			m_uUsedCapacity=0;

  000a4	c7 47 2c 00 00
	00 00		 mov	 DWORD PTR [edi+44], 0
; File D:\_m2work\Server Client TMP4\ClientVS22\source\UserInterface\PythonItem.cpp

; 755  : {

  000ab	68 00 00 00 00	 push	 OFFSET ??1?$basic_string@DU?$char_traits@D@std@@V?$allocator@D@2@@std@@QAE@XZ ; std::basic_string<char,std::char_traits<char>,std::allocator<char> >::~basic_string<char,std::char_traits<char>,std::allocator<char> >
  000b0	68 00 00 00 00	 push	 OFFSET ??0?$basic_string@DU?$char_traits@D@std@@V?$allocator@D@2@@std@@QAE@XZ ; std::basic_string<char,std::char_traits<char>,std::allocator<char> >::basic_string<char,std::char_traits<char>,std::allocator<char> >
  000b5	6a 08		 push	 8
  000b7	6a 18		 push	 24			; 00000018H
  000b9	8d 47 40	 lea	 eax, DWORD PTR [edi+64]
  000bc	c6 45 fc 02	 mov	 BYTE PTR __$EHRec$[ebp+8], 2
  000c0	50		 push	 eax
  000c1	e8 00 00 00 00	 call	 ??_L@YGXPAXIIP6EX0@Z1@Z
; File C:\Program Files\Microsoft Visual Studio\2022\Community\VC\Tools\MSVC\14.44.35207\include\vector

; 400  :     _CONSTEXPR20 _Vector_val() noexcept : _Myfirst(), _Mylast(), _Myend() {}

  000c6	c7 87 00 01 00
	00 00 00 00 00	 mov	 DWORD PTR [edi+256], 0
; File D:\_m2work\Server Client TMP4\ClientVS22\source\UserInterface\PythonItem.cpp

; 758  : }

  000d0	8b c7		 mov	 eax, edi
; File C:\Program Files\Microsoft Visual Studio\2022\Community\VC\Tools\MSVC\14.44.35207\include\vector

; 400  :     _CONSTEXPR20 _Vector_val() noexcept : _Myfirst(), _Mylast(), _Myend() {}

  000d2	c7 87 04 01 00
	00 00 00 00 00	 mov	 DWORD PTR [edi+260], 0
  000dc	c7 87 08 01 00
	00 00 00 00 00	 mov	 DWORD PTR [edi+264], 0
; File D:\_m2work\Server Client TMP4\ClientVS22\source\UserInterface\PythonItem.cpp

; 757  : 	m_dwPickedItemID = INVALID_ID;

  000e6	c7 47 34 ff ff
	ff ff		 mov	 DWORD PTR [edi+52], -1

; 758  : }

  000ed	8b 4d f4	 mov	 ecx, DWORD PTR __$EHRec$[ebp]
  000f0	64 89 0d 00 00
	00 00		 mov	 DWORD PTR fs:0, ecx
  000f7	59		 pop	 ecx
  000f8	5f		 pop	 edi
  000f9	5e		 pop	 esi
  000fa	8b e5		 mov	 esp, ebp
  000fc	5d		 pop	 ebp
  000fd	c3		 ret	 0
_TEXT	ENDS
;	COMDAT text$x
text$x	SEGMENT
__unwindfunclet$??0CPythonItem@@QAE@XZ$0:
  00000	8b 4d f0	 mov	 ecx, DWORD PTR _this$[ebp]
  00003	e9 00 00 00 00	 jmp	 ??1?$CSingleton@VCPythonItem@@@@UAE@XZ ; CSingleton<CPythonItem>::~CSingleton<CPythonItem>
__unwindfunclet$??0CPythonItem@@QAE@XZ$1:
  00008	8b 4d f0	 mov	 ecx, DWORD PTR _this$[ebp]
  0000b	83 c1 04	 add	 ecx, 4
  0000e	e9 00 00 00 00	 jmp	 ??1?$map@KPAUSGroundItemInstance@CPythonItem@@U?$less@K@std@@V?$allocator@U?$pair@$$CBKPAUSGroundItemInstance@CPythonItem@@@std@@@4@@std@@QAE@XZ
__unwindfunclet$??0CPythonItem@@QAE@XZ$2:
  00013	8b 4d f0	 mov	 ecx, DWORD PTR _this$[ebp]
  00016	83 c1 0c	 add	 ecx, 12			; 0000000cH
  00019	e9 00 00 00 00	 jmp	 ??1?$CDynamicPool@USGroundItemInstance@CPythonItem@@@@UAE@XZ ; CDynamicPool<CPythonItem::SGroundItemInstance>::~CDynamicPool<CPythonItem::SGroundItemInstance>
  0001e	cc		 int	 3
  0001f	cc		 int	 3
  00020	cc		 int	 3
  00021	cc		 int	 3
  00022	cc		 int	 3
__ehhandler$??0CPythonItem@@QAE@XZ:
  00023	90		 npad	 1
  00024	90		 npad	 1
  00025	8b 54 24 08	 mov	 edx, DWORD PTR [esp+8]
  00029	8d 42 0c	 lea	 eax, DWORD PTR [edx+12]
  0002c	8b 4a ec	 mov	 ecx, DWORD PTR [edx-20]
  0002f	33 c8		 xor	 ecx, eax
  00031	e8 00 00 00 00	 call	 @__security_check_cookie@4
  00036	b8 00 00 00 00	 mov	 eax, OFFSET __ehfuncinfo$??0CPythonItem@@QAE@XZ
  0003b	e9 00 00 00 00	 jmp	 ___CxxFrameHandler3
text$x	ENDS
??0CPythonItem@@QAE@XZ ENDP				; CPythonItem::CPythonItem
; Function compile flags: /Ogtp
; File D:\_m2work\Server Client TMP4\ClientVS22\source\eterLib\GrpMath.h
; File D:\_m2work\Server Client TMP4\ClientVS22\extern\include\d3dx8math.inl
; File D:\_m2work\Server Client TMP4\ClientVS22\source\eterLib\GrpMath.h
; File D:\_m2work\Server Client TMP4\ClientVS22\extern\include\d3dx8math.inl
; File D:\_m2work\Server Client TMP4\ClientVS22\source\eterLib\GrpMath.h
; File C:\Program Files (x86)\Windows Kits\10\Include\10.0.26100.0\ucrt\corecrt_math.h
; File D:\_m2work\Server Client TMP4\ClientVS22\extern\include\d3dx8math.inl
; File C:\Program Files (x86)\Windows Kits\10\Include\10.0.26100.0\ucrt\corecrt_math.h
; File D:\_m2work\Server Client TMP4\ClientVS22\extern\include\d3dx8math.inl
; File D:\_m2work\Server Client TMP4\ClientVS22\source\eterLib\GrpMath.h
; File C:\Program Files (x86)\Windows Kits\10\Include\10.0.26100.0\ucrt\corecrt_math.h
; File D:\_m2work\Server Client TMP4\ClientVS22\extern\include\d3dx8math.inl
; File D:\_m2work\Server Client TMP4\ClientVS22\source\eterLib\GrpMath.h
; File D:\_m2work\Server Client TMP4\ClientVS22\extern\include\d3dx8math.inl
; File D:\_m2work\Server Client TMP4\ClientVS22\source\eterLib\GrpMath.h
; File D:\_m2work\Server Client TMP4\ClientVS22\extern\include\d3dx8math.inl
; File D:\_m2work\Server Client TMP4\ClientVS22\source\eterLib\GrpMath.h
; File D:\_m2work\Server Client TMP4\ClientVS22\extern\include\d3dx8math.inl
; File D:\_m2work\Server Client TMP4\ClientVS22\source\eterLib\GrpMath.h
; File D:\_m2work\Server Client TMP4\ClientVS22\extern\include\d3dx8math.inl
; File D:\_m2work\Server Client TMP4\ClientVS22\source\eterLib\GrpMath.h
;	COMDAT ?RotationNormalizedArc@@YA?AUD3DXQUATERNION@@ABUD3DXVECTOR3@@0@Z
_TEXT	SEGMENT
_vTo$ = 8						; size = 4
?RotationNormalizedArc@@YA?AUD3DXQUATERNION@@ABUD3DXVECTOR3@@0@Z PROC ; RotationNormalizedArc, COMDAT
; ___$ReturnUdt$ = ecx
; _vFrom$ = edx

; 63   : {

  00000	55		 push	 ebp
  00001	8b ec		 mov	 ebp, esp
  00003	83 e4 f8	 and	 esp, -8			; fffffff8H
  00006	51		 push	 ecx
  00007	53		 push	 ebx
  00008	56		 push	 esi
; File D:\_m2work\Server Client TMP4\ClientVS22\extern\include\d3dx8math.inl

; 1277 :     v.x = pV1->y * pV2->z - pV1->z * pV2->y;

  00009	8b 75 08	 mov	 esi, DWORD PTR _vTo$[ebp]
; File D:\_m2work\Server Client TMP4\ClientVS22\source\eterLib\GrpMath.h

; 63   : {

  0000c	8b d9		 mov	 ebx, ecx
  0000e	57		 push	 edi
  0000f	8b fa		 mov	 edi, edx
; File D:\_m2work\Server Client TMP4\ClientVS22\extern\include\d3dx8math.inl

; 1264 :     return pV1->x * pV2->x + pV1->y * pV2->y + pV1->z * pV2->z;

  00011	f3 0f 10 46 04	 movss	 xmm0, DWORD PTR [esi+4]
  00016	f3 0f 10 0f	 movss	 xmm1, DWORD PTR [edi]
  0001a	f3 0f 59 0e	 mulss	 xmm1, DWORD PTR [esi]
  0001e	f3 0f 59 47 04	 mulss	 xmm0, DWORD PTR [edi+4]
  00023	f3 0f 58 c8	 addss	 xmm1, xmm0
  00027	f3 0f 10 47 08	 movss	 xmm0, DWORD PTR [edi+8]
  0002c	f3 0f 59 46 08	 mulss	 xmm0, DWORD PTR [esi+8]
  00031	f3 0f 58 c8	 addss	 xmm1, xmm0
; File D:\_m2work\Server Client TMP4\ClientVS22\source\eterLib\GrpMath.h

; 67   : 	float s = sqrtf((1+d)*2);

  00035	f3 0f 58 0d 00
	00 00 00	 addss	 xmm1, DWORD PTR __real@3f800000
  0003d	f3 0f 58 c9	 addss	 xmm1, xmm1
; File C:\Program Files (x86)\Windows Kits\10\Include\10.0.26100.0\ucrt\corecrt_math.h

; 799  :             return (float)sqrt(_X);

  00041	0f 5a c1	 cvtps2pd xmm0, xmm1
  00044	0f 57 c9	 xorps	 xmm1, xmm1
  00047	66 0f 2e c8	 ucomisd xmm1, xmm0
  0004b	77 06		 ja	 SHORT $LN11@RotationNo
  0004d	f2 0f 51 c0	 sqrtsd	 xmm0, xmm0
  00051	eb 05		 jmp	 SHORT $LN12@RotationNo
$LN11@RotationNo:
  00053	e8 00 00 00 00	 call	 __libm_sse2_sqrt_precise
$LN12@RotationNo:
; File D:\_m2work\Server Client TMP4\ClientVS22\extern\include\d3dx8math.inl

; 1277 :     v.x = pV1->y * pV2->z - pV1->z * pV2->y;

  00058	f3 0f 10 4e 08	 movss	 xmm1, DWORD PTR [esi+8]
; File C:\Program Files (x86)\Windows Kits\10\Include\10.0.26100.0\ucrt\corecrt_math.h

; 799  :             return (float)sqrt(_X);

  0005d	0f 57 d2	 xorps	 xmm2, xmm2
; File D:\_m2work\Server Client TMP4\ClientVS22\extern\include\d3dx8math.inl

; 1277 :     v.x = pV1->y * pV2->z - pV1->z * pV2->y;

  00060	f3 0f 59 4f 04	 mulss	 xmm1, DWORD PTR [edi+4]
; File D:\_m2work\Server Client TMP4\ClientVS22\source\eterLib\GrpMath.h

; 69   : 	return D3DXQUATERNION(c.x/s,c.y/s,c.z/s,s*0.5f);

  00065	8b c3		 mov	 eax, ebx
; File C:\Program Files (x86)\Windows Kits\10\Include\10.0.26100.0\ucrt\corecrt_math.h

; 799  :             return (float)sqrt(_X);

  00067	f2 0f 5a d0	 cvtsd2ss xmm2, xmm0
; File D:\_m2work\Server Client TMP4\ClientVS22\extern\include\d3dx8math.inl

; 1277 :     v.x = pV1->y * pV2->z - pV1->z * pV2->y;

  0006b	f3 0f 10 46 04	 movss	 xmm0, DWORD PTR [esi+4]
  00070	f3 0f 59 47 08	 mulss	 xmm0, DWORD PTR [edi+8]

; 1278 :     v.y = pV1->z * pV2->x - pV1->x * pV2->z;

  00075	f3 0f 10 36	 movss	 xmm6, DWORD PTR [esi]
  00079	f3 0f 10 1f	 movss	 xmm3, DWORD PTR [edi]
  0007d	f3 0f 5c c8	 subss	 xmm1, xmm0
  00081	0f 28 c3	 movaps	 xmm0, xmm3

; 1279 :     v.z = pV1->x * pV2->y - pV1->y * pV2->x;

  00084	f3 0f 59 5e 04	 mulss	 xmm3, DWORD PTR [esi+4]
  00089	f3 0f 59 46 08	 mulss	 xmm0, DWORD PTR [esi+8]
; File D:\_m2work\Server Client TMP4\ClientVS22\source\eterLib\GrpMath.h

; 67   : 	float s = sqrtf((1+d)*2);

  0008e	f3 0f 5e ca	 divss	 xmm1, xmm2
; File D:\_m2work\Server Client TMP4\ClientVS22\extern\include\d3dx8math.inl

; 667  :     x = fx;

  00092	f3 0f 11 0b	 movss	 DWORD PTR [ebx], xmm1

; 1278 :     v.y = pV1->z * pV2->x - pV1->x * pV2->z;

  00096	0f 28 ce	 movaps	 xmm1, xmm6
  00099	f3 0f 59 4f 08	 mulss	 xmm1, DWORD PTR [edi+8]

; 1279 :     v.z = pV1->x * pV2->y - pV1->y * pV2->x;

  0009e	f3 0f 59 77 04	 mulss	 xmm6, DWORD PTR [edi+4]
; File D:\_m2work\Server Client TMP4\ClientVS22\source\eterLib\GrpMath.h

; 70   : }

  000a3	5f		 pop	 edi
; File D:\_m2work\Server Client TMP4\ClientVS22\extern\include\d3dx8math.inl

; 1278 :     v.y = pV1->z * pV2->x - pV1->x * pV2->z;

  000a4	f3 0f 5c c8	 subss	 xmm1, xmm0
; File D:\_m2work\Server Client TMP4\ClientVS22\source\eterLib\GrpMath.h

; 70   : }

  000a8	5e		 pop	 esi
; File D:\_m2work\Server Client TMP4\ClientVS22\extern\include\d3dx8math.inl

; 1279 :     v.z = pV1->x * pV2->y - pV1->y * pV2->x;

  000a9	f3 0f 5c de	 subss	 xmm3, xmm6

; 667  :     x = fx;

  000ad	f3 0f 5e ca	 divss	 xmm1, xmm2

; 668  :     y = fy;

  000b1	f3 0f 5e da	 divss	 xmm3, xmm2
; File D:\_m2work\Server Client TMP4\ClientVS22\source\eterLib\GrpMath.h

; 69   : 	return D3DXQUATERNION(c.x/s,c.y/s,c.z/s,s*0.5f);

  000b5	f3 0f 59 15 00
	00 00 00	 mulss	 xmm2, DWORD PTR __real@3f000000
; File D:\_m2work\Server Client TMP4\ClientVS22\extern\include\d3dx8math.inl

; 668  :     y = fy;

  000bd	f3 0f 11 4b 04	 movss	 DWORD PTR [ebx+4], xmm1

; 669  :     z = fz;

  000c2	f3 0f 11 5b 08	 movss	 DWORD PTR [ebx+8], xmm3

; 670  :     w = fw;

  000c7	f3 0f 11 53 0c	 movss	 DWORD PTR [ebx+12], xmm2
; File D:\_m2work\Server Client TMP4\ClientVS22\source\eterLib\GrpMath.h

; 70   : }

  000cc	5b		 pop	 ebx
  000cd	8b e5		 mov	 esp, ebp
  000cf	5d		 pop	 ebp
  000d0	c3		 ret	 0
?RotationNormalizedArc@@YA?AUD3DXQUATERNION@@ABUD3DXVECTOR3@@0@Z ENDP ; RotationNormalizedArc
_TEXT	ENDS
; Function compile flags: /Ogtp
; File D:\_m2work\Server Client TMP4\ClientVS22\source\eterLib\GrpMath.h
; File D:\_m2work\Server Client TMP4\ClientVS22\extern\include\d3dx8math.inl
; File D:\_m2work\Server Client TMP4\ClientVS22\source\eterLib\GrpMath.h
; File C:\Program Files (x86)\Windows Kits\10\Include\10.0.26100.0\ucrt\corecrt_math.h
; File D:\_m2work\Server Client TMP4\ClientVS22\extern\include\d3dx8math.inl
; File C:\Program Files (x86)\Windows Kits\10\Include\10.0.26100.0\ucrt\corecrt_math.h
; File D:\_m2work\Server Client TMP4\ClientVS22\extern\include\d3dx8math.inl
; File D:\_m2work\Server Client TMP4\ClientVS22\source\eterLib\GrpMath.h
; File D:\_m2work\Server Client TMP4\ClientVS22\extern\include\d3dx8math.inl
; File D:\_m2work\Server Client TMP4\ClientVS22\source\eterLib\GrpMath.h
; File C:\Program Files (x86)\Windows Kits\10\Include\10.0.26100.0\ucrt\corecrt_math.h
; File D:\_m2work\Server Client TMP4\ClientVS22\extern\include\d3dx8math.inl
; File D:\_m2work\Server Client TMP4\ClientVS22\source\eterLib\GrpMath.h
; File D:\_m2work\Server Client TMP4\ClientVS22\extern\include\d3dx8math.inl
; File D:\_m2work\Server Client TMP4\ClientVS22\source\eterLib\GrpMath.h
; File D:\_m2work\Server Client TMP4\ClientVS22\extern\include\d3dx8math.inl
; File D:\_m2work\Server Client TMP4\ClientVS22\source\eterLib\GrpMath.h
;	COMDAT ?RotationArc@@YA?AUD3DXQUATERNION@@ABUD3DXVECTOR3@@0@Z
_TEXT	SEGMENT
_vnTo$ = -28						; size = 12
_vnFrom$ = -16						; size = 12
__$ArrayPad$ = -4					; size = 4
_vTo$ = 8						; size = 4
?RotationArc@@YA?AUD3DXQUATERNION@@ABUD3DXVECTOR3@@0@Z PROC ; RotationArc, COMDAT
; ___$ReturnUdt$ = ecx
; _vFrom$ = edx

; 73   : {

  00000	55		 push	 ebp
  00001	8b ec		 mov	 ebp, esp
  00003	83 e4 f8	 and	 esp, -8			; fffffff8H
  00006	83 ec 20	 sub	 esp, 32			; 00000020H
  00009	a1 00 00 00 00	 mov	 eax, DWORD PTR ___security_cookie
  0000e	33 c4		 xor	 eax, esp
  00010	89 44 24 1c	 mov	 DWORD PTR __$ArrayPad$[esp+32], eax
  00014	56		 push	 esi
  00015	8b 75 08	 mov	 esi, DWORD PTR _vTo$[ebp]

; 74   : 	D3DXVECTOR3 vnFrom, vnTo;
; 75   : 	D3DXVec3Normalize(&vnFrom, &vFrom);

  00018	8d 44 24 14	 lea	 eax, DWORD PTR _vnFrom$[esp+36]
  0001c	57		 push	 edi
  0001d	52		 push	 edx
  0001e	50		 push	 eax
  0001f	8b f9		 mov	 edi, ecx
  00021	e8 00 00 00 00	 call	 _D3DXVec3Normalize@8

; 76   : 	D3DXVec3Normalize(&vnTo, &vTo);

  00026	56		 push	 esi
  00027	8d 44 24 10	 lea	 eax, DWORD PTR _vnTo$[esp+44]
  0002b	50		 push	 eax
  0002c	e8 00 00 00 00	 call	 _D3DXVec3Normalize@8
; File D:\_m2work\Server Client TMP4\ClientVS22\extern\include\d3dx8math.inl

; 1264 :     return pV1->x * pV2->x + pV1->y * pV2->y + pV1->z * pV2->z;

  00031	f3 0f 10 4c 24
	10		 movss	 xmm1, DWORD PTR _vnTo$[esp+44]
  00037	f3 0f 59 4c 24
	1c		 mulss	 xmm1, DWORD PTR _vnFrom$[esp+44]
  0003d	f3 0f 10 44 24
	18		 movss	 xmm0, DWORD PTR _vnFrom$[esp+40]
  00043	f3 0f 59 44 24
	0c		 mulss	 xmm0, DWORD PTR _vnTo$[esp+40]
  00049	f3 0f 58 c8	 addss	 xmm1, xmm0
  0004d	f3 0f 10 44 24
	20		 movss	 xmm0, DWORD PTR _vnFrom$[esp+48]
  00053	f3 0f 59 44 24
	14		 mulss	 xmm0, DWORD PTR _vnTo$[esp+48]
  00059	f3 0f 58 c8	 addss	 xmm1, xmm0
; File D:\_m2work\Server Client TMP4\ClientVS22\source\eterLib\GrpMath.h

; 67   : 	float s = sqrtf((1+d)*2);

  0005d	f3 0f 58 0d 00
	00 00 00	 addss	 xmm1, DWORD PTR __real@3f800000
  00065	f3 0f 58 c9	 addss	 xmm1, xmm1
; File C:\Program Files (x86)\Windows Kits\10\Include\10.0.26100.0\ucrt\corecrt_math.h

; 799  :             return (float)sqrt(_X);

  00069	0f 5a c1	 cvtps2pd xmm0, xmm1
  0006c	0f 57 c9	 xorps	 xmm1, xmm1
  0006f	66 0f 2e c8	 ucomisd xmm1, xmm0
  00073	77 06		 ja	 SHORT $LN13@RotationAr
  00075	f2 0f 51 c0	 sqrtsd	 xmm0, xmm0
  00079	eb 05		 jmp	 SHORT $LN14@RotationAr
$LN13@RotationAr:
  0007b	e8 00 00 00 00	 call	 __libm_sse2_sqrt_precise
$LN14@RotationAr:
; File D:\_m2work\Server Client TMP4\ClientVS22\extern\include\d3dx8math.inl

; 1277 :     v.x = pV1->y * pV2->z - pV1->z * pV2->y;

  00080	f3 0f 10 54 24
	14		 movss	 xmm2, DWORD PTR _vnTo$[esp+48]
; File C:\Program Files (x86)\Windows Kits\10\Include\10.0.26100.0\ucrt\corecrt_math.h

; 799  :             return (float)sqrt(_X);

  00086	0f 57 db	 xorps	 xmm3, xmm3
; File D:\_m2work\Server Client TMP4\ClientVS22\extern\include\d3dx8math.inl

; 1277 :     v.x = pV1->y * pV2->z - pV1->z * pV2->y;

  00089	f3 0f 10 74 24
	10		 movss	 xmm6, DWORD PTR _vnTo$[esp+44]
  0008f	0f 28 ca	 movaps	 xmm1, xmm2
  00092	f3 0f 10 6c 24
	1c		 movss	 xmm5, DWORD PTR _vnFrom$[esp+44]
; File D:\_m2work\Server Client TMP4\ClientVS22\source\eterLib\GrpMath.h

; 77   : 	return RotationNormalizedArc(vnFrom, vnTo);

  00098	8b c7		 mov	 eax, edi
; File D:\_m2work\Server Client TMP4\ClientVS22\extern\include\d3dx8math.inl

; 1277 :     v.x = pV1->y * pV2->z - pV1->z * pV2->y;

  0009a	f3 0f 10 64 24
	20		 movss	 xmm4, DWORD PTR _vnFrom$[esp+48]

; 1278 :     v.y = pV1->z * pV2->x - pV1->x * pV2->z;

  000a0	f3 0f 59 54 24
	18		 mulss	 xmm2, DWORD PTR _vnFrom$[esp+40]
; File D:\_m2work\Server Client TMP4\ClientVS22\source\eterLib\GrpMath.h

; 78   : }

  000a6	8b 4c 24 24	 mov	 ecx, DWORD PTR __$ArrayPad$[esp+40]
; File C:\Program Files (x86)\Windows Kits\10\Include\10.0.26100.0\ucrt\corecrt_math.h

; 799  :             return (float)sqrt(_X);

  000aa	f2 0f 5a d8	 cvtsd2ss xmm3, xmm0
; File D:\_m2work\Server Client TMP4\ClientVS22\extern\include\d3dx8math.inl

; 1277 :     v.x = pV1->y * pV2->z - pV1->z * pV2->y;

  000ae	0f 28 c6	 movaps	 xmm0, xmm6
  000b1	f3 0f 59 cd	 mulss	 xmm1, xmm5

; 1279 :     v.z = pV1->x * pV2->y - pV1->y * pV2->x;

  000b5	f3 0f 59 74 24
	18		 mulss	 xmm6, DWORD PTR _vnFrom$[esp+40]
  000bb	f3 0f 59 6c 24
	0c		 mulss	 xmm5, DWORD PTR _vnTo$[esp+40]
  000c1	f3 0f 59 c4	 mulss	 xmm0, xmm4
  000c5	f3 0f 59 64 24
	0c		 mulss	 xmm4, DWORD PTR _vnTo$[esp+40]
  000cb	f3 0f 5c f5	 subss	 xmm6, xmm5
  000cf	f3 0f 5c c8	 subss	 xmm1, xmm0
  000d3	f3 0f 5c e2	 subss	 xmm4, xmm2

; 668  :     y = fy;

  000d7	f3 0f 5e f3	 divss	 xmm6, xmm3
; File D:\_m2work\Server Client TMP4\ClientVS22\source\eterLib\GrpMath.h

; 67   : 	float s = sqrtf((1+d)*2);

  000db	f3 0f 5e cb	 divss	 xmm1, xmm3
; File D:\_m2work\Server Client TMP4\ClientVS22\extern\include\d3dx8math.inl

; 667  :     x = fx;

  000df	f3 0f 5e e3	 divss	 xmm4, xmm3
; File D:\_m2work\Server Client TMP4\ClientVS22\source\eterLib\GrpMath.h

; 69   : 	return D3DXQUATERNION(c.x/s,c.y/s,c.z/s,s*0.5f);

  000e3	f3 0f 59 1d 00
	00 00 00	 mulss	 xmm3, DWORD PTR __real@3f000000
; File D:\_m2work\Server Client TMP4\ClientVS22\extern\include\d3dx8math.inl

; 667  :     x = fx;

  000eb	f3 0f 11 0f	 movss	 DWORD PTR [edi], xmm1

; 668  :     y = fy;

  000ef	f3 0f 11 67 04	 movss	 DWORD PTR [edi+4], xmm4

; 669  :     z = fz;

  000f4	f3 0f 11 77 08	 movss	 DWORD PTR [edi+8], xmm6

; 670  :     w = fw;

  000f9	f3 0f 11 5f 0c	 movss	 DWORD PTR [edi+12], xmm3
; File D:\_m2work\Server Client TMP4\ClientVS22\source\eterLib\GrpMath.h

; 78   : }

  000fe	5f		 pop	 edi
  000ff	5e		 pop	 esi
  00100	33 cc		 xor	 ecx, esp
  00102	e8 00 00 00 00	 call	 @__security_check_cookie@4
  00107	8b e5		 mov	 esp, ebp
  00109	5d		 pop	 ebp
  0010a	c3		 ret	 0
?RotationArc@@YA?AUD3DXQUATERNION@@ABUD3DXVECTOR3@@0@Z ENDP ; RotationArc
_TEXT	ENDS
; Function compile flags: /Ogtp
; File D:\_m2work\Server Client TMP4\ClientVS22\source\UserInterface\PythonItem.h
; File C:\Program Files\Microsoft Visual Studio\2022\Community\VC\Tools\MSVC\14.44.35207\include\xstring
; File D:\_m2work\Server Client TMP4\ClientVS22\source\UserInterface\PythonItem.h
;	COMDAT ??0SGroundItemInstance@CPythonItem@@QAE@XZ
_TEXT	SEGMENT
_this$ = -4						; size = 4
??0SGroundItemInstance@CPythonItem@@QAE@XZ PROC		; CPythonItem::SGroundItemInstance::SGroundItemInstance, COMDAT
; _this$ = ecx

; 71   : 			SGroundItemInstance() {}

  00000	55		 push	 ebp
  00001	8b ec		 mov	 ebp, esp
  00003	51		 push	 ecx
  00004	56		 push	 esi
  00005	8b f1		 mov	 esi, ecx
  00007	89 75 fc	 mov	 DWORD PTR _this$[ebp], esi
  0000a	8d 4e 3c	 lea	 ecx, DWORD PTR [esi+60]
  0000d	c7 06 00 00 00
	00		 mov	 DWORD PTR [esi], OFFSET ??_7SGroundItemInstance@CPythonItem@@6B@
  00013	e8 00 00 00 00	 call	 ??0CGraphicThingInstance@@QAE@XZ ; CGraphicThingInstance::CGraphicThingInstance
  00018	0f 57 c0	 xorps	 xmm0, xmm0
  0001b	8b c6		 mov	 eax, esi
; File C:\Program Files\Microsoft Visual Studio\2022\Community\VC\Tools\MSVC\14.44.35207\include\xstring

; 493  :         _CONSTEXPR20 _Bxty() noexcept : _Buf() {} // user-provided, for fancy pointers

  0001d	0f 11 86 2c 02
	00 00		 movups	 XMMWORD PTR [esi+556], xmm0

; 860  :         _My_data._Mysize = 0;

  00024	c7 86 3c 02 00
	00 00 00 00 00	 mov	 DWORD PTR [esi+572], 0

; 861  :         _My_data._Myres  = _Small_string_capacity;

  0002e	c7 86 40 02 00
	00 0f 00 00 00	 mov	 DWORD PTR [esi+576], 15	; 0000000fH

; 862  :         _My_data._Activate_SSO_buffer();
; 863  : 
; 864  :         // the _Traits::assign is last so the codegen doesn't think the char write can alias this
; 865  :         _Traits::assign(_My_data._Bx._Buf[0], _Elem());

  00038	c6 86 2c 02 00
	00 00		 mov	 BYTE PTR [esi+556], 0
; File D:\_m2work\Server Client TMP4\ClientVS22\source\UserInterface\PythonItem.h

; 71   : 			SGroundItemInstance() {}

  0003f	5e		 pop	 esi
  00040	8b e5		 mov	 esp, ebp
  00042	5d		 pop	 ebp
  00043	c3		 ret	 0
??0SGroundItemInstance@CPythonItem@@QAE@XZ ENDP		; CPythonItem::SGroundItemInstance::SGroundItemInstance
_TEXT	ENDS
; Function compile flags: /Ogtp
; File D:\_m2work\Server Client TMP4\ClientVS22\source\UserInterface\PythonItem.h
; File C:\Program Files\Microsoft Visual Studio\2022\Community\VC\Tools\MSVC\14.44.35207\include\xstring
; File D:\_m2work\Server Client TMP4\ClientVS22\source\UserInterface\PythonItem.h
;	COMDAT ??1SGroundItemInstance@CPythonItem@@UAE@XZ
_TEXT	SEGMENT
??1SGroundItemInstance@CPythonItem@@UAE@XZ PROC		; CPythonItem::SGroundItemInstance::~SGroundItemInstance, COMDAT
; _this$ = ecx

; 72   : 			virtual ~SGroundItemInstance() {}

  00000	56		 push	 esi
  00001	8b f1		 mov	 esi, ecx
  00003	8d 8e 2c 02 00
	00		 lea	 ecx, DWORD PTR [esi+556]
  00009	c7 06 00 00 00
	00		 mov	 DWORD PTR [esi], OFFSET ??_7SGroundItemInstance@CPythonItem@@6B@
; File C:\Program Files\Microsoft Visual Studio\2022\Community\VC\Tools\MSVC\14.44.35207\include\xstring

; 1383 :         _Tidy_deallocate();

  0000f	e8 00 00 00 00	 call	 ?_Tidy_deallocate@?$basic_string@DU?$char_traits@D@std@@V?$allocator@D@2@@std@@AAEXXZ ; std::basic_string<char,std::char_traits<char>,std::allocator<char> >::_Tidy_deallocate
; File D:\_m2work\Server Client TMP4\ClientVS22\source\UserInterface\PythonItem.h

; 72   : 			virtual ~SGroundItemInstance() {}

  00014	8d 4e 3c	 lea	 ecx, DWORD PTR [esi+60]
  00017	5e		 pop	 esi
  00018	e9 00 00 00 00	 jmp	 ??1CGraphicThingInstance@@UAE@XZ ; CGraphicThingInstance::~CGraphicThingInstance
??1SGroundItemInstance@CPythonItem@@UAE@XZ ENDP		; CPythonItem::SGroundItemInstance::~SGroundItemInstance
_TEXT	ENDS
; Function compile flags: /Ogtp
; File D:\_m2work\Server Client TMP4\ClientVS22\source\UserInterface\PythonItem.h
; File C:\Program Files\Microsoft Visual Studio\2022\Community\VC\Tools\MSVC\14.44.35207\include\xstring
; File D:\_m2work\Server Client TMP4\ClientVS22\source\UserInterface\PythonItem.h
;	COMDAT ??_GSGroundItemInstance@CPythonItem@@UAEPAXI@Z
_TEXT	SEGMENT
___flags$ = 8						; size = 4
??_GSGroundItemInstance@CPythonItem@@UAEPAXI@Z PROC	; CPythonItem::SGroundItemInstance::`scalar deleting destructor', COMDAT
; _this$ = ecx
  00000	55		 push	 ebp
  00001	8b ec		 mov	 ebp, esp

; 72   : 			virtual ~SGroundItemInstance() {}

  00003	56		 push	 esi
  00004	8b f1		 mov	 esi, ecx
  00006	8d 8e 2c 02 00
	00		 lea	 ecx, DWORD PTR [esi+556]
  0000c	c7 06 00 00 00
	00		 mov	 DWORD PTR [esi], OFFSET ??_7SGroundItemInstance@CPythonItem@@6B@
; File C:\Program Files\Microsoft Visual Studio\2022\Community\VC\Tools\MSVC\14.44.35207\include\xstring

; 1383 :         _Tidy_deallocate();

  00012	e8 00 00 00 00	 call	 ?_Tidy_deallocate@?$basic_string@DU?$char_traits@D@std@@V?$allocator@D@2@@std@@AAEXXZ ; std::basic_string<char,std::char_traits<char>,std::allocator<char> >::_Tidy_deallocate
; File D:\_m2work\Server Client TMP4\ClientVS22\source\UserInterface\PythonItem.h

; 72   : 			virtual ~SGroundItemInstance() {}

  00017	8d 4e 3c	 lea	 ecx, DWORD PTR [esi+60]
  0001a	e8 00 00 00 00	 call	 ??1CGraphicThingInstance@@UAE@XZ ; CGraphicThingInstance::~CGraphicThingInstance
  0001f	f6 45 08 01	 test	 BYTE PTR ___flags$[ebp], 1
  00023	74 0e		 je	 SHORT $LN15@scalar
  00025	68 44 02 00 00	 push	 580			; 00000244H
  0002a	56		 push	 esi
  0002b	e8 00 00 00 00	 call	 ??3@YAXPAXI@Z		; operator delete
  00030	83 c4 08	 add	 esp, 8
$LN15@scalar:
  00033	8b c6		 mov	 eax, esi
  00035	5e		 pop	 esi
  00036	5d		 pop	 ebp
  00037	c2 04 00	 ret	 4
??_GSGroundItemInstance@CPythonItem@@UAEPAXI@Z ENDP	; CPythonItem::SGroundItemInstance::`scalar deleting destructor'
_TEXT	ENDS
; Function compile flags: /Ogtp
; File D:\_m2work\Server Client TMP4\ClientVS22\source\UserInterface\PythonItem.cpp
;	COMDAT ??__E?ms_astDropSoundFileName@SGroundItemInstance@CPythonItem@@2PAV?$basic_string@DU?$char_traits@D@std@@V?$allocator@D@2@@std@@A@@YAXXZ
text$di	SEGMENT
??__E?ms_astDropSoundFileName@SGroundItemInstance@CPythonItem@@2PAV?$basic_string@DU?$char_traits@D@std@@V?$allocator@D@2@@std@@A@@YAXXZ PROC ; `dynamic initializer for 'CPythonItem::SGroundItemInstance::ms_astDropSoundFileName'', COMDAT

; 13   : std::string CPythonItem::TGroundItemInstance::ms_astDropSoundFileName[DROPSOUND_NUM];

  00000	68 00 00 00 00	 push	 OFFSET ??__F?ms_astDropSoundFileName@SGroundItemInstance@CPythonItem@@2PAV?$basic_string@DU?$char_traits@D@std@@V?$allocator@D@2@@std@@A@@YAXXZ ; `dynamic atexit destructor for 'CPythonItem::SGroundItemInstance::ms_astDropSoundFileName''
  00005	e8 00 00 00 00	 call	 _atexit
  0000a	59		 pop	 ecx
  0000b	c3		 ret	 0
??__E?ms_astDropSoundFileName@SGroundItemInstance@CPythonItem@@2PAV?$basic_string@DU?$char_traits@D@std@@V?$allocator@D@2@@std@@A@@YAXXZ ENDP ; `dynamic initializer for 'CPythonItem::SGroundItemInstance::ms_astDropSoundFileName''
text$di	ENDS
; Function compile flags: /Ogtp
;	COMDAT ??__F?ms_astDropSoundFileName@SGroundItemInstance@CPythonItem@@2PAV?$basic_string@DU?$char_traits@D@std@@V?$allocator@D@2@@std@@A@@YAXXZ
text$yd	SEGMENT
??__F?ms_astDropSoundFileName@SGroundItemInstance@CPythonItem@@2PAV?$basic_string@DU?$char_traits@D@std@@V?$allocator@D@2@@std@@A@@YAXXZ PROC ; `dynamic atexit destructor for 'CPythonItem::SGroundItemInstance::ms_astDropSoundFileName'', COMDAT
  00000	68 00 00 00 00	 push	 OFFSET ??1?$basic_string@DU?$char_traits@D@std@@V?$allocator@D@2@@std@@QAE@XZ ; std::basic_string<char,std::char_traits<char>,std::allocator<char> >::~basic_string<char,std::char_traits<char>,std::allocator<char> >
  00005	6a 05		 push	 5
  00007	6a 18		 push	 24			; 00000018H
  00009	68 00 00 00 00	 push	 OFFSET ?ms_astDropSoundFileName@SGroundItemInstance@CPythonItem@@2PAV?$basic_string@DU?$char_traits@D@std@@V?$allocator@D@2@@std@@A ; CPythonItem::SGroundItemInstance::ms_astDropSoundFileName
  0000e	e8 00 00 00 00	 call	 ??_M@YGXPAXIIP6EX0@Z@Z
  00013	c3		 ret	 0
??__F?ms_astDropSoundFileName@SGroundItemInstance@CPythonItem@@2PAV?$basic_string@DU?$char_traits@D@std@@V?$allocator@D@2@@std@@A@@YAXXZ ENDP ; `dynamic atexit destructor for 'CPythonItem::SGroundItemInstance::ms_astDropSoundFileName''
text$yd	ENDS
; Function compile flags: /Ogtp
; File D:\_m2work\Server Client TMP4\ClientVS22\source\UserInterface\PythonItem.cpp
; File C:\Program Files\Microsoft Visual Studio\2022\Community\VC\Tools\MSVC\14.44.35207\include\xstring
; File D:\_m2work\Server Client TMP4\ClientVS22\source\UserInterface\PythonItem.cpp
; File C:\Program Files\Microsoft Visual Studio\2022\Community\VC\Tools\MSVC\14.44.35207\include\xstring
; File D:\_m2work\Server Client TMP4\ClientVS22\source\UserInterface\PythonItem.cpp
;	COMDAT ?Clear@SGroundItemInstance@CPythonItem@@QAEXXZ
_TEXT	SEGMENT
?Clear@SGroundItemInstance@CPythonItem@@QAEXXZ PROC	; CPythonItem::SGroundItemInstance::Clear, COMDAT
; _this$ = ecx

; 24   : {

  00000	56		 push	 esi
  00001	8b f1		 mov	 esi, ecx
; File C:\Program Files\Microsoft Visual Studio\2022\Community\VC\Tools\MSVC\14.44.35207\include\xstring

; 1638 :         return assign(_Ptr, _Convert_size<size_type>(_Traits::length(_Ptr)));

  00003	6a 00		 push	 0
  00005	68 00 00 00 00	 push	 OFFSET ??_C@_00CNPNBAHC@@
; File D:\_m2work\Server Client TMP4\ClientVS22\source\UserInterface\PythonItem.cpp

; 25   : 	stOwnership = "";

  0000a	8d 8e 2c 02 00
	00		 lea	 ecx, DWORD PTR [esi+556]
; File C:\Program Files\Microsoft Visual Studio\2022\Community\VC\Tools\MSVC\14.44.35207\include\xstring

; 1638 :         return assign(_Ptr, _Convert_size<size_type>(_Traits::length(_Ptr)));

  00010	e8 00 00 00 00	 call	 ?assign@?$basic_string@DU?$char_traits@D@std@@V?$allocator@D@2@@std@@QAEAAV12@QBDI@Z ; std::basic_string<char,std::char_traits<char>,std::allocator<char> >::assign
; File D:\_m2work\Server Client TMP4\ClientVS22\source\UserInterface\PythonItem.cpp

; 26   : 	ThingInstance.Clear();

  00015	8d 4e 3c	 lea	 ecx, DWORD PTR [esi+60]
  00018	e8 00 00 00 00	 call	 ?Clear@CGraphicObjectInstance@@QAEXXZ ; CGraphicObjectInstance::Clear

; 27   : 	CEffectManager::Instance().DestroyEffectInstance(dwEffectInstanceIndex);

  0001d	ff b6 28 02 00
	00		 push	 DWORD PTR [esi+552]
  00023	8b 0d 00 00 00
	00		 mov	 ecx, DWORD PTR ?ms_singleton@?$CSingleton@VCEffectManager@@@@0PAVCEffectManager@@A ; CSingleton<CEffectManager>::ms_singleton
  00029	e8 00 00 00 00	 call	 ?DestroyEffectInstance@CEffectManager@@QAE_NK@Z ; CEffectManager::DestroyEffectInstance
  0002e	5e		 pop	 esi

; 28   : }

  0002f	c3		 ret	 0
?Clear@SGroundItemInstance@CPythonItem@@QAEXXZ ENDP	; CPythonItem::SGroundItemInstance::Clear
_TEXT	ENDS
; Function compile flags: /Ogtp
; File D:\_m2work\Server Client TMP4\ClientVS22\source\UserInterface\PythonItem.cpp
; File C:\Program Files\Microsoft Visual Studio\2022\Community\VC\Tools\MSVC\14.44.35207\include\xstring
; File D:\_m2work\Server Client TMP4\ClientVS22\source\UserInterface\PythonItem.cpp
;	COMDAT ?__PlayDropSound@SGroundItemInstance@CPythonItem@@SAXKABUD3DXVECTOR3@@@Z
_TEXT	SEGMENT
?__PlayDropSound@SGroundItemInstance@CPythonItem@@SAXKABUD3DXVECTOR3@@@Z PROC ; CPythonItem::SGroundItemInstance::__PlayDropSound, COMDAT
; _eItemType$ = ecx
; _c_rv3Pos$ = edx

; 32   : 	if (eItemType>=DROPSOUND_NUM)

  00000	83 f9 05	 cmp	 ecx, 5
  00003	73 46		 jae	 SHORT $LN1@PlayDropSo

; 35   : 	CSoundManager::Instance().PlaySound3D(c_rv3Pos.x, c_rv3Pos.y, c_rv3Pos.z, ms_astDropSoundFileName[eItemType].c_str());

  00005	8d 04 49	 lea	 eax, DWORD PTR [ecx+ecx*2]
; File C:\Program Files\Microsoft Visual Studio\2022\Community\VC\Tools\MSVC\14.44.35207\include\xstring

; 453  :         return _Myres > _Small_string_capacity;

  00008	83 3c c5 14 00
	00 00 0f	 cmp	 DWORD PTR ?ms_astDropSoundFileName@SGroundItemInstance@CPythonItem@@2PAV?$basic_string@DU?$char_traits@D@std@@V?$allocator@D@2@@std@@A[eax*8+20], 15 ; 0000000fH

; 2356 :         return _Mypair._Myval2._Myptr();

  00010	8d 04 c5 00 00
	00 00		 lea	 eax, DWORD PTR ?ms_astDropSoundFileName@SGroundItemInstance@CPythonItem@@2PAV?$basic_string@DU?$char_traits@D@std@@V?$allocator@D@2@@std@@A[eax*8]

; 445  :         if (_Large_mode_engaged()) {

  00017	76 02		 jbe	 SHORT $LN8@PlayDropSo

; 446  :             _Result = _Unfancy(_Bx._Ptr);

  00019	8b 00		 mov	 eax, DWORD PTR [eax]
$LN8@PlayDropSo:
; File D:\_m2work\Server Client TMP4\ClientVS22\source\UserInterface\PythonItem.cpp

; 35   : 	CSoundManager::Instance().PlaySound3D(c_rv3Pos.x, c_rv3Pos.y, c_rv3Pos.z, ms_astDropSoundFileName[eItemType].c_str());

  0001b	f3 0f 10 42 08	 movss	 xmm0, DWORD PTR [edx+8]
  00020	8b 0d 00 00 00
	00		 mov	 ecx, DWORD PTR ?ms_singleton@?$CSingleton@VCSoundManager@@@@0PAVCSoundManager@@A ; CSingleton<CSoundManager>::ms_singleton
  00026	6a 01		 push	 1
  00028	50		 push	 eax
  00029	83 ec 0c	 sub	 esp, 12			; 0000000cH
  0002c	f3 0f 11 44 24
	08		 movss	 DWORD PTR [esp+8], xmm0
  00032	f3 0f 10 42 04	 movss	 xmm0, DWORD PTR [edx+4]
  00037	f3 0f 11 44 24
	04		 movss	 DWORD PTR [esp+4], xmm0
  0003d	f3 0f 10 02	 movss	 xmm0, DWORD PTR [edx]
  00041	f3 0f 11 04 24	 movss	 DWORD PTR [esp], xmm0
  00046	e8 00 00 00 00	 call	 ?PlaySound3D@CSoundManager@@QAEXMMMPBDH@Z ; CSoundManager::PlaySound3D
$LN1@PlayDropSo:

; 36   : }

  0004b	c3		 ret	 0
?__PlayDropSound@SGroundItemInstance@CPythonItem@@SAXKABUD3DXVECTOR3@@@Z ENDP ; CPythonItem::SGroundItemInstance::__PlayDropSound
_TEXT	ENDS
; Function compile flags: /Ogtp
; File D:\_m2work\Server Client TMP4\ClientVS22\source\UserInterface\PythonItem.cpp
; File D:\_m2work\Server Client TMP4\ClientVS22\extern\include\d3dx8math.inl
; File D:\_m2work\Server Client TMP4\ClientVS22\source\UserInterface\PythonItem.cpp
; File D:\_m2work\Server Client TMP4\ClientVS22\extern\include\d3dx8math.inl
; File D:\_m2work\Server Client TMP4\ClientVS22\source\UserInterface\PythonItem.cpp
; File D:\_m2work\Server Client TMP4\ClientVS22\extern\include\d3dx8math.inl
; File D:\_m2work\Server Client TMP4\ClientVS22\source\UserInterface\PythonItem.cpp
; File D:\_m2work\Server Client TMP4\ClientVS22\extern\include\d3dx8math.inl
; File D:\_m2work\Server Client TMP4\ClientVS22\source\UserInterface\PythonItem.cpp
; File D:\_m2work\Server Client TMP4\ClientVS22\extern\include\d3dx8math.inl
; File D:\_m2work\Server Client TMP4\ClientVS22\source\UserInterface\PythonItem.cpp
; File D:\_m2work\Server Client TMP4\ClientVS22\extern\include\d3dx8math.inl
; File D:\_m2work\Server Client TMP4\ClientVS22\source\UserInterface\PythonItem.cpp
; File D:\_m2work\Server Client TMP4\ClientVS22\extern\include\d3dx8math.inl
; File D:\_m2work\Server Client TMP4\ClientVS22\source\UserInterface\PythonItem.cpp
; File D:\_m2work\Server Client TMP4\ClientVS22\extern\include\d3dx8math.inl
; File D:\_m2work\Server Client TMP4\ClientVS22\source\UserInterface\PythonItem.cpp
; File D:\_m2work\Server Client TMP4\ClientVS22\extern\include\d3dx8math.inl
; File D:\_m2work\Server Client TMP4\ClientVS22\source\UserInterface\PythonItem.cpp
; File D:\_m2work\Server Client TMP4\ClientVS22\extern\include\d3dx8math.inl
; File D:\_m2work\Server Client TMP4\ClientVS22\source\UserInterface\PythonItem.cpp
;	COMDAT ?Update@SGroundItemInstance@CPythonItem@@QAE_NXZ
_TEXT	SEGMENT
_qc$1 = -72						; size = 16
_qc$2 = -56						; size = 16
_q$3 = -56						; size = 16
_qAdjust$4 = -40					; size = 16
_qAdjust$5 = -24					; size = 16
_v3NewPosition$6 = -20					; size = 12
tv456 = -8						; size = 4
_this$1$ = -4						; size = 4
_rate$1$ = -4						; size = 4
?Update@SGroundItemInstance@CPythonItem@@QAE_NXZ PROC	; CPythonItem::SGroundItemInstance::Update, COMDAT
; _this$ = ecx

; 39   : {

  00000	53		 push	 ebx
  00001	8b dc		 mov	 ebx, esp
  00003	83 ec 08	 sub	 esp, 8
  00006	83 e4 f8	 and	 esp, -8			; fffffff8H
  00009	83 c4 04	 add	 esp, 4
  0000c	55		 push	 ebp
  0000d	8b 6b 04	 mov	 ebp, DWORD PTR [ebx+4]
  00010	89 6c 24 04	 mov	 DWORD PTR [esp+4], ebp
  00014	8b ec		 mov	 ebp, esp
  00016	83 ec 48	 sub	 esp, 72			; 00000048H
  00019	56		 push	 esi
  0001a	57		 push	 edi
  0001b	8b f9		 mov	 edi, ecx
  0001d	89 7d fc	 mov	 DWORD PTR _this$1$[ebp], edi

; 40   : 	if (bAnimEnded)

  00020	80 bf 24 02 00
	00 00		 cmp	 BYTE PTR [edi+548], 0
  00027	74 0b		 je	 SHORT $LN2@Update

; 41   : 		return false;

  00029	32 c0		 xor	 al, al

; 108  : }

  0002b	5f		 pop	 edi
  0002c	5e		 pop	 esi
  0002d	8b e5		 mov	 esp, ebp
  0002f	5d		 pop	 ebp
  00030	8b e3		 mov	 esp, ebx
  00032	5b		 pop	 ebx
  00033	c3		 ret	 0
$LN2@Update:

; 42   : 	if (dwEndTime < CTimer::Instance().GetCurrentMillisecond())

  00034	8b 0d 00 00 00
	00		 mov	 ecx, DWORD PTR ?ms_singleton@?$CSingleton@VCTimer@@@@0PAVCTimer@@A ; CSingleton<CTimer>::ms_singleton
  0003a	e8 00 00 00 00	 call	 ?GetCurrentMillisecond@CTimer@@QAEKXZ ; CTimer::GetCurrentMillisecond
  0003f	8d 77 20	 lea	 esi, DWORD PTR [edi+32]
  00042	8d 4f 3c	 lea	 ecx, DWORD PTR [edi+60]
  00045	39 87 1c 02 00
	00		 cmp	 DWORD PTR [edi+540], eax
  0004b	0f 83 df 00 00
	00		 jae	 $LN3@Update

; 43   : 	{
; 44   : 		ThingInstance.SetRotationQuaternion(qEnd);

  00051	56		 push	 esi
  00052	e8 00 00 00 00	 call	 ?SetRotationQuaternion@CGraphicObjectInstance@@QAEXABUD3DXQUATERNION@@@Z ; CGraphicObjectInstance::SetRotationQuaternion

; 54   : 		D3DXQUATERNION qAdjust(-v3Center.x, -v3Center.y, -v3Center.z, 0.0f);

  00057	f3 0f 10 0d 00
	00 00 00	 movss	 xmm1, DWORD PTR __xmm@80000000800000008000000080000000

; 57   : 		D3DXQuaternionMultiply(&qAdjust,&qAdjust,&qEnd);

  0005f	8d 45 e8	 lea	 eax, DWORD PTR _qAdjust$5[ebp]
  00062	f3 0f 10 47 30	 movss	 xmm0, DWORD PTR [edi+48]
  00067	0f 57 c1	 xorps	 xmm0, xmm1
; File D:\_m2work\Server Client TMP4\ClientVS22\extern\include\d3dx8math.inl

; 670  :     w = fw;

  0006a	c7 45 f4 00 00
	00 00		 mov	 DWORD PTR _qAdjust$5[ebp+12], 0
  00071	f3 0f 11 45 e8	 movss	 DWORD PTR _qAdjust$5[ebp], xmm0
; File D:\_m2work\Server Client TMP4\ClientVS22\source\UserInterface\PythonItem.cpp

; 54   : 		D3DXQUATERNION qAdjust(-v3Center.x, -v3Center.y, -v3Center.z, 0.0f);

  00076	f3 0f 10 47 34	 movss	 xmm0, DWORD PTR [edi+52]
  0007b	0f 57 c1	 xorps	 xmm0, xmm1
; File D:\_m2work\Server Client TMP4\ClientVS22\extern\include\d3dx8math.inl

; 668  :     y = fy;

  0007e	f3 0f 11 45 ec	 movss	 DWORD PTR _qAdjust$5[ebp+4], xmm0
; File D:\_m2work\Server Client TMP4\ClientVS22\source\UserInterface\PythonItem.cpp

; 54   : 		D3DXQUATERNION qAdjust(-v3Center.x, -v3Center.y, -v3Center.z, 0.0f);

  00083	f3 0f 10 47 38	 movss	 xmm0, DWORD PTR [edi+56]
  00088	0f 57 c1	 xorps	 xmm0, xmm1
; File D:\_m2work\Server Client TMP4\ClientVS22\extern\include\d3dx8math.inl

; 669  :     z = fz;

  0008b	f3 0f 11 45 f0	 movss	 DWORD PTR _qAdjust$5[ebp+8], xmm0

; 1616 :     pOut->x = -pQ->x;

  00090	f3 0f 10 06	 movss	 xmm0, DWORD PTR [esi]
  00094	0f 57 c1	 xorps	 xmm0, xmm1
  00097	f3 0f 11 45 c8	 movss	 DWORD PTR _qc$2[ebp], xmm0

; 1617 :     pOut->y = -pQ->y;

  0009c	f3 0f 10 46 04	 movss	 xmm0, DWORD PTR [esi+4]
  000a1	0f 57 c1	 xorps	 xmm0, xmm1
  000a4	f3 0f 11 45 cc	 movss	 DWORD PTR _qc$2[ebp+4], xmm0

; 1618 :     pOut->z = -pQ->z;

  000a9	f3 0f 10 46 08	 movss	 xmm0, DWORD PTR [esi+8]
  000ae	0f 57 c1	 xorps	 xmm0, xmm1
; File D:\_m2work\Server Client TMP4\ClientVS22\source\UserInterface\PythonItem.cpp

; 57   : 		D3DXQuaternionMultiply(&qAdjust,&qAdjust,&qEnd);

  000b1	56		 push	 esi
; File D:\_m2work\Server Client TMP4\ClientVS22\extern\include\d3dx8math.inl

; 1618 :     pOut->z = -pQ->z;

  000b2	f3 0f 11 45 d0	 movss	 DWORD PTR _qc$2[ebp+8], xmm0

; 1619 :     pOut->w =  pQ->w;

  000b7	f3 0f 10 46 0c	 movss	 xmm0, DWORD PTR [esi+12]
; File D:\_m2work\Server Client TMP4\ClientVS22\source\UserInterface\PythonItem.cpp

; 57   : 		D3DXQuaternionMultiply(&qAdjust,&qAdjust,&qEnd);

  000bc	50		 push	 eax
  000bd	50		 push	 eax
; File D:\_m2work\Server Client TMP4\ClientVS22\extern\include\d3dx8math.inl

; 1619 :     pOut->w =  pQ->w;

  000be	f3 0f 11 45 d4	 movss	 DWORD PTR _qc$2[ebp+12], xmm0
; File D:\_m2work\Server Client TMP4\ClientVS22\source\UserInterface\PythonItem.cpp

; 57   : 		D3DXQuaternionMultiply(&qAdjust,&qAdjust,&qEnd);

  000c3	e8 00 00 00 00	 call	 _D3DXQuaternionMultiply@12

; 58   : 		D3DXQuaternionMultiply(&qAdjust,&qc,&qAdjust);

  000c8	8d 45 e8	 lea	 eax, DWORD PTR _qAdjust$5[ebp]
  000cb	50		 push	 eax
  000cc	8d 45 c8	 lea	 eax, DWORD PTR _qc$2[ebp]
  000cf	50		 push	 eax
  000d0	8d 45 e8	 lea	 eax, DWORD PTR _qAdjust$5[ebp]
  000d3	50		 push	 eax
  000d4	e8 00 00 00 00	 call	 _D3DXQuaternionMultiply@12

; 59   : 
; 60   : 		ThingInstance.SetPosition(v3EndPosition.x+qAdjust.x, 

  000d9	f3 0f 10 45 f0	 movss	 xmm0, DWORD PTR _qAdjust$5[ebp+8]
  000de	8d 4f 3c	 lea	 ecx, DWORD PTR [edi+60]
  000e1	f3 0f 58 47 10	 addss	 xmm0, DWORD PTR [edi+16]
  000e6	83 ec 0c	 sub	 esp, 12			; 0000000cH
  000e9	f3 0f 11 44 24
	08		 movss	 DWORD PTR [esp+8], xmm0
  000ef	f3 0f 10 45 ec	 movss	 xmm0, DWORD PTR _qAdjust$5[ebp+4]
  000f4	f3 0f 58 47 0c	 addss	 xmm0, DWORD PTR [edi+12]
  000f9	f3 0f 11 44 24
	04		 movss	 DWORD PTR [esp+4], xmm0
  000ff	f3 0f 10 45 e8	 movss	 xmm0, DWORD PTR _qAdjust$5[ebp]
  00104	f3 0f 58 47 08	 addss	 xmm0, DWORD PTR [edi+8]
  00109	f3 0f 11 04 24	 movss	 DWORD PTR [esp], xmm0
  0010e	e8 00 00 00 00	 call	 ?SetPosition@CGraphicObjectInstance@@QAEXMMM@Z ; CGraphicObjectInstance::SetPosition

; 61   : 			v3EndPosition.y+qAdjust.y,
; 62   : 			v3EndPosition.z+qAdjust.z);
; 63   : 		//ThingInstance.Update();
; 64   : 		bAnimEnded = true;
; 65   : 
; 66   : 		__PlayDropSound(eDropSoundType, v3EndPosition);

  00113	8b 8f 20 02 00
	00		 mov	 ecx, DWORD PTR [edi+544]
  00119	8d 57 08	 lea	 edx, DWORD PTR [edi+8]
  0011c	c6 87 24 02 00
	00 01		 mov	 BYTE PTR [edi+548], 1
  00123	e8 00 00 00 00	 call	 ?__PlayDropSound@SGroundItemInstance@CPythonItem@@SAXKABUD3DXVECTOR3@@@Z ; CPythonItem::SGroundItemInstance::__PlayDropSound

; 67   : 	}

  00128	8d 77 3c	 lea	 esi, DWORD PTR [edi+60]
  0012b	e9 d5 01 00 00	 jmp	 $LN4@Update
$LN3@Update:

; 68   : 	else
; 69   : 	{
; 70   : 		DWORD time = CTimer::Instance().GetCurrentMillisecond() - dwStartTime;

  00130	8b 0d 00 00 00
	00		 mov	 ecx, DWORD PTR ?ms_singleton@?$CSingleton@VCTimer@@@@0PAVCTimer@@A ; CSingleton<CTimer>::ms_singleton
  00136	8b b7 18 02 00
	00		 mov	 esi, DWORD PTR [edi+536]
  0013c	e8 00 00 00 00	 call	 ?GetCurrentMillisecond@CTimer@@QAEKXZ ; CTimer::GetCurrentMillisecond

; 71   : 		DWORD etime = dwEndTime - CTimer::Instance().GetCurrentMillisecond();

  00141	8b 0d 00 00 00
	00		 mov	 ecx, DWORD PTR ?ms_singleton@?$CSingleton@VCTimer@@@@0PAVCTimer@@A ; CSingleton<CTimer>::ms_singleton
  00147	8b f8		 mov	 edi, eax
  00149	2b fe		 sub	 edi, esi
  0014b	8b 75 fc	 mov	 esi, DWORD PTR _this$1$[ebp]
  0014e	8b b6 1c 02 00
	00		 mov	 esi, DWORD PTR [esi+540]
  00154	e8 00 00 00 00	 call	 ?GetCurrentMillisecond@CTimer@@QAEKXZ ; CTimer::GetCurrentMillisecond
  00159	66 0f 6e c7	 movd	 xmm0, edi
  0015d	8b ce		 mov	 ecx, esi

; 72   : 		float rate = time * 1.0f / (dwEndTime - dwStartTime);

  0015f	f3 0f e6 c0	 cvtdq2pd xmm0, xmm0
  00163	c1 ef 1f	 shr	 edi, 31			; 0000001fH
  00166	2b c8		 sub	 ecx, eax
  00168	f2 0f 58 04 fd
	00 00 00 00	 addsd	 xmm0, QWORD PTR __xmm@41f00000000000000000000000000000[edi*8]
  00171	8b 7d fc	 mov	 edi, DWORD PTR _this$1$[ebp]
  00174	2b b7 18 02 00
	00		 sub	 esi, DWORD PTR [edi+536]
  0017a	66 0f 5a d0	 cvtpd2ps xmm2, xmm0

; 73   : 
; 74   : 		D3DXVECTOR3 v3NewPosition=v3EndPosition;// = rate*(v3EndPosition - v3StartPosition) + v3StartPosition;

  0017e	8b 47 10	 mov	 eax, DWORD PTR [edi+16]
  00181	89 45 f4	 mov	 DWORD PTR _v3NewPosition$6[ebp+8], eax

; 75   : 		v3NewPosition.z += 100-100*rate*(3*rate-2);//-100*(rate-1)*(3*rate+2);
; 76   : 
; 77   : 		D3DXQUATERNION q;
; 78   : 		D3DXQuaternionRotationAxis(&q, &v3RotationAxis, etime * 0.03f *(-1+rate*(3*rate-2)));

  00184	8d 47 14	 lea	 eax, DWORD PTR [edi+20]
  00187	66 0f 6e c6	 movd	 xmm0, esi
  0018b	f3 0f e6 c0	 cvtdq2pd xmm0, xmm0
  0018f	c1 ee 1f	 shr	 esi, 31			; 0000001fH
  00192	f2 0f 58 04 f5
	00 00 00 00	 addsd	 xmm0, QWORD PTR __xmm@41f00000000000000000000000000000[esi*8]
  0019b	66 0f 5a c0	 cvtpd2ps xmm0, xmm0
  0019f	f3 0f 5e d0	 divss	 xmm2, xmm0
  001a3	f3 0f 7e 47 08	 movq	 xmm0, QWORD PTR [edi+8]
  001a8	66 0f d6 45 ec	 movq	 QWORD PTR _v3NewPosition$6[ebp], xmm0
  001ad	0f 28 c2	 movaps	 xmm0, xmm2
  001b0	f3 0f 59 05 00
	00 00 00	 mulss	 xmm0, DWORD PTR __real@40400000
  001b8	f3 0f 11 55 fc	 movss	 DWORD PTR _rate$1$[ebp], xmm2
  001bd	f3 0f 5c 05 00
	00 00 00	 subss	 xmm0, DWORD PTR __real@40000000
  001c5	0f 28 c8	 movaps	 xmm1, xmm0
  001c8	f3 0f 11 45 f8	 movss	 DWORD PTR tv456[ebp], xmm0
  001cd	66 0f 6e c1	 movd	 xmm0, ecx
  001d1	f3 0f e6 c0	 cvtdq2pd xmm0, xmm0
  001d5	c1 e9 1f	 shr	 ecx, 31			; 0000001fH
  001d8	51		 push	 ecx
  001d9	f3 0f 59 ca	 mulss	 xmm1, xmm2
  001dd	f2 0f 58 04 cd
	00 00 00 00	 addsd	 xmm0, QWORD PTR __xmm@41f00000000000000000000000000000[ecx*8]
  001e6	f3 0f 5c 0d 00
	00 00 00	 subss	 xmm1, DWORD PTR __real@3f800000
  001ee	66 0f 5a c0	 cvtpd2ps xmm0, xmm0
  001f2	f3 0f 59 05 00
	00 00 00	 mulss	 xmm0, DWORD PTR __real@3cf5c28f
  001fa	f3 0f 59 c8	 mulss	 xmm1, xmm0
  001fe	f3 0f 11 0c 24	 movss	 DWORD PTR [esp], xmm1
  00203	50		 push	 eax
  00204	8d 45 c8	 lea	 eax, DWORD PTR _q$3[ebp]
  00207	50		 push	 eax
  00208	e8 00 00 00 00	 call	 _D3DXQuaternionRotationAxis@12

; 79   : 		//ThingInstance.SetRotation(rEnd.y + etime*rStart.y, rEnd.x + etime*rStart.x, rEnd.z + etime*rStart.z);
; 80   : 		D3DXQuaternionMultiply(&q,&qEnd,&q);

  0020d	8d 45 c8	 lea	 eax, DWORD PTR _q$3[ebp]
  00210	50		 push	 eax
  00211	8d 47 20	 lea	 eax, DWORD PTR [edi+32]
  00214	50		 push	 eax
  00215	8d 45 c8	 lea	 eax, DWORD PTR _q$3[ebp]
  00218	50		 push	 eax
  00219	e8 00 00 00 00	 call	 _D3DXQuaternionMultiply@12

; 81   : 
; 82   : 		ThingInstance.SetRotationQuaternion(q);

  0021e	8d 45 c8	 lea	 eax, DWORD PTR _q$3[ebp]
  00221	8d 77 3c	 lea	 esi, DWORD PTR [edi+60]
  00224	50		 push	 eax
  00225	8b ce		 mov	 ecx, esi
  00227	e8 00 00 00 00	 call	 ?SetRotationQuaternion@CGraphicObjectInstance@@QAEXABUD3DXQUATERNION@@@Z ; CGraphicObjectInstance::SetRotationQuaternion

; 83   : 		D3DXQUATERNION qAdjust(-v3Center.x, -v3Center.y, -v3Center.z, 0.0f);

  0022c	f3 0f 10 0d 00
	00 00 00	 movss	 xmm1, DWORD PTR __xmm@80000000800000008000000080000000
  00234	f3 0f 10 47 30	 movss	 xmm0, DWORD PTR [edi+48]
  00239	0f 57 c1	 xorps	 xmm0, xmm1
; File D:\_m2work\Server Client TMP4\ClientVS22\extern\include\d3dx8math.inl

; 670  :     w = fw;

  0023c	c7 45 e4 00 00
	00 00		 mov	 DWORD PTR _qAdjust$4[ebp+12], 0
  00243	f3 0f 11 45 d8	 movss	 DWORD PTR _qAdjust$4[ebp], xmm0
; File D:\_m2work\Server Client TMP4\ClientVS22\source\UserInterface\PythonItem.cpp

; 83   : 		D3DXQUATERNION qAdjust(-v3Center.x, -v3Center.y, -v3Center.z, 0.0f);

  00248	f3 0f 10 47 34	 movss	 xmm0, DWORD PTR [edi+52]
  0024d	0f 57 c1	 xorps	 xmm0, xmm1
; File D:\_m2work\Server Client TMP4\ClientVS22\extern\include\d3dx8math.inl

; 668  :     y = fy;

  00250	f3 0f 11 45 dc	 movss	 DWORD PTR _qAdjust$4[ebp+4], xmm0
; File D:\_m2work\Server Client TMP4\ClientVS22\source\UserInterface\PythonItem.cpp

; 83   : 		D3DXQUATERNION qAdjust(-v3Center.x, -v3Center.y, -v3Center.z, 0.0f);

  00255	f3 0f 10 47 38	 movss	 xmm0, DWORD PTR [edi+56]
  0025a	0f 57 c1	 xorps	 xmm0, xmm1
; File D:\_m2work\Server Client TMP4\ClientVS22\extern\include\d3dx8math.inl

; 669  :     z = fz;

  0025d	f3 0f 11 45 e0	 movss	 DWORD PTR _qAdjust$4[ebp+8], xmm0

; 1616 :     pOut->x = -pQ->x;

  00262	f3 0f 10 45 c8	 movss	 xmm0, DWORD PTR _q$3[ebp]
  00267	0f 57 c1	 xorps	 xmm0, xmm1
  0026a	f3 0f 11 45 b8	 movss	 DWORD PTR _qc$1[ebp], xmm0

; 1617 :     pOut->y = -pQ->y;

  0026f	f3 0f 10 45 cc	 movss	 xmm0, DWORD PTR _q$3[ebp+4]
  00274	0f 57 c1	 xorps	 xmm0, xmm1
  00277	f3 0f 11 45 bc	 movss	 DWORD PTR _qc$1[ebp+4], xmm0

; 1618 :     pOut->z = -pQ->z;

  0027c	f3 0f 10 45 d0	 movss	 xmm0, DWORD PTR _q$3[ebp+8]
  00281	0f 57 c1	 xorps	 xmm0, xmm1
; File D:\_m2work\Server Client TMP4\ClientVS22\source\UserInterface\PythonItem.cpp

; 86   : 		D3DXQuaternionMultiply(&qAdjust,&qAdjust,&q);

  00284	8d 45 c8	 lea	 eax, DWORD PTR _q$3[ebp]
; File D:\_m2work\Server Client TMP4\ClientVS22\extern\include\d3dx8math.inl

; 1618 :     pOut->z = -pQ->z;

  00287	f3 0f 11 45 c0	 movss	 DWORD PTR _qc$1[ebp+8], xmm0

; 1619 :     pOut->w =  pQ->w;

  0028c	f3 0f 10 45 d4	 movss	 xmm0, DWORD PTR _q$3[ebp+12]
; File D:\_m2work\Server Client TMP4\ClientVS22\source\UserInterface\PythonItem.cpp

; 86   : 		D3DXQuaternionMultiply(&qAdjust,&qAdjust,&q);

  00291	50		 push	 eax
  00292	8d 45 d8	 lea	 eax, DWORD PTR _qAdjust$4[ebp]
; File D:\_m2work\Server Client TMP4\ClientVS22\extern\include\d3dx8math.inl

; 1619 :     pOut->w =  pQ->w;

  00295	f3 0f 11 45 c4	 movss	 DWORD PTR _qc$1[ebp+12], xmm0
; File D:\_m2work\Server Client TMP4\ClientVS22\source\UserInterface\PythonItem.cpp

; 86   : 		D3DXQuaternionMultiply(&qAdjust,&qAdjust,&q);

  0029a	50		 push	 eax
  0029b	50		 push	 eax
  0029c	e8 00 00 00 00	 call	 _D3DXQuaternionMultiply@12

; 87   : 		D3DXQuaternionMultiply(&qAdjust,&qc,&qAdjust);

  002a1	8d 45 d8	 lea	 eax, DWORD PTR _qAdjust$4[ebp]
  002a4	50		 push	 eax
  002a5	8d 45 b8	 lea	 eax, DWORD PTR _qc$1[ebp]
  002a8	50		 push	 eax
  002a9	8d 45 d8	 lea	 eax, DWORD PTR _qAdjust$4[ebp]
  002ac	50		 push	 eax
  002ad	e8 00 00 00 00	 call	 _D3DXQuaternionMultiply@12
  002b2	f3 0f 10 05 00
	00 00 00	 movss	 xmm0, DWORD PTR __real@42c80000

; 88   : 		
; 89   : 		ThingInstance.SetPosition(v3NewPosition.x+qAdjust.x, 

  002ba	83 ec 0c	 sub	 esp, 12			; 0000000cH
  002bd	f3 0f 10 4d fc	 movss	 xmm1, DWORD PTR _rate$1$[ebp]
  002c2	8b ce		 mov	 ecx, esi
  002c4	f3 0f 59 c8	 mulss	 xmm1, xmm0
  002c8	f3 0f 59 4d f8	 mulss	 xmm1, DWORD PTR tv456[ebp]
  002cd	f3 0f 5c c1	 subss	 xmm0, xmm1
  002d1	f3 0f 58 45 f4	 addss	 xmm0, DWORD PTR _v3NewPosition$6[ebp+8]
  002d6	f3 0f 58 45 e0	 addss	 xmm0, DWORD PTR _qAdjust$4[ebp+8]
  002db	f3 0f 11 44 24
	08		 movss	 DWORD PTR [esp+8], xmm0
  002e1	f3 0f 10 45 dc	 movss	 xmm0, DWORD PTR _qAdjust$4[ebp+4]
  002e6	f3 0f 58 45 f0	 addss	 xmm0, DWORD PTR _v3NewPosition$6[ebp+4]
  002eb	f3 0f 11 44 24
	04		 movss	 DWORD PTR [esp+4], xmm0
  002f1	f3 0f 10 45 d8	 movss	 xmm0, DWORD PTR _qAdjust$4[ebp]
  002f6	f3 0f 58 45 ec	 addss	 xmm0, DWORD PTR _v3NewPosition$6[ebp]
  002fb	f3 0f 11 04 24	 movss	 DWORD PTR [esp], xmm0
  00300	e8 00 00 00 00	 call	 ?SetPosition@CGraphicObjectInstance@@QAEXMMM@Z ; CGraphicObjectInstance::SetPosition
$LN4@Update:

; 90   : 			v3NewPosition.y+qAdjust.y,
; 91   : 			v3NewPosition.z+qAdjust.z);
; 92   : 		
; 93   : 		/*D3DXVECTOR3 v3Adjust = -v3Center;
; 94   : 		D3DXMATRIX mat;
; 95   : 		D3DXMatrixRotationYawPitchRoll(&mat, 
; 96   : 		D3DXToRadian(rEnd.y + etime*rStart.y), 
; 97   : 		D3DXToRadian(rEnd.x + etime*rStart.x), 
; 98   : 		D3DXToRadian(rEnd.z + etime*rStart.z));
; 99   : 						
; 100  : 		D3DXVec3TransformCoord(&v3Adjust,&v3Adjust,&mat);
; 101  : 		//Tracef("%f %f %f\n",v3Adjust.x,v3Adjust.y,v3Adjust.z);
; 102  : 		v3NewPosition += v3Adjust;
; 103  : 		ThingInstance.SetPosition(v3NewPosition.x, v3NewPosition.y, v3NewPosition.z);*/
; 104  : 	}
; 105  : 	ThingInstance.Transform();

  00305	8b ce		 mov	 ecx, esi
  00307	e8 00 00 00 00	 call	 ?Transform@CGraphicObjectInstance@@QAEXXZ ; CGraphicObjectInstance::Transform

; 106  : 	ThingInstance.Deform();				

  0030c	8b ce		 mov	 ecx, esi
  0030e	e8 00 00 00 00	 call	 ?Deform@CGraphicObjectInstance@@QAEXXZ ; CGraphicObjectInstance::Deform

; 107  : 	return !bAnimEnded;

  00313	80 bf 24 02 00
	00 00		 cmp	 BYTE PTR [edi+548], 0

; 108  : }

  0031a	5f		 pop	 edi
  0031b	0f 94 c0	 sete	 al
  0031e	5e		 pop	 esi
  0031f	8b e5		 mov	 esp, ebp
  00321	5d		 pop	 ebp
  00322	8b e3		 mov	 esp, ebx
  00324	5b		 pop	 ebx
  00325	c3		 ret	 0
?Update@SGroundItemInstance@CPythonItem@@QAE_NXZ ENDP	; CPythonItem::SGroundItemInstance::Update
_TEXT	ENDS
; Function compile flags: /Ogtp
; File D:\_m2work\Server Client TMP4\ClientVS22\source\UserInterface\PythonItem.cpp
; File C:\Program Files\Microsoft Visual Studio\2022\Community\VC\Tools\MSVC\14.44.35207\include\xstring
; File D:\_m2work\Server Client TMP4\ClientVS22\source\UserInterface\PythonItem.cpp
; File C:\Program Files\Microsoft Visual Studio\2022\Community\VC\Tools\MSVC\14.44.35207\include\xstring
; File D:\_m2work\Server Client TMP4\ClientVS22\source\UserInterface\PythonItem.cpp
; File C:\Program Files\Microsoft Visual Studio\2022\Community\VC\Tools\MSVC\14.44.35207\include\xstring
; File D:\_m2work\Server Client TMP4\ClientVS22\source\UserInterface\PythonItem.cpp
;	COMDAT ?SetUseSoundFileName@CPythonItem@@QAEXKABV?$basic_string@DU?$char_traits@D@std@@V?$allocator@D@2@@std@@@Z
_TEXT	SEGMENT
_eItemType$ = 8						; size = 4
_c_rstFileName$ = 12					; size = 4
?SetUseSoundFileName@CPythonItem@@QAEXKABV?$basic_string@DU?$char_traits@D@std@@V?$allocator@D@2@@std@@@Z PROC ; CPythonItem::SetUseSoundFileName, COMDAT
; _this$ = ecx

; 135  : {

  00000	55		 push	 ebp
  00001	8b ec		 mov	 ebp, esp

; 136  : 	if (eItemType>=USESOUND_NUM)

  00003	8b 45 08	 mov	 eax, DWORD PTR _eItemType$[ebp]
  00006	83 f8 08	 cmp	 eax, 8
  00009	73 27		 jae	 SHORT $LN4@SetUseSoun

; 141  : 	m_astUseSoundFileName[eItemType]=c_rstFileName;	

  0000b	8d 04 40	 lea	 eax, DWORD PTR [eax+eax*2]
  0000e	8d 0c c1	 lea	 ecx, DWORD PTR [ecx+eax*8]
; File C:\Program Files\Microsoft Visual Studio\2022\Community\VC\Tools\MSVC\14.44.35207\include\xstring

; 1395 :         if (this == _STD addressof(_Right)) {

  00011	8b 45 0c	 mov	 eax, DWORD PTR _c_rstFileName$[ebp]
; File D:\_m2work\Server Client TMP4\ClientVS22\source\UserInterface\PythonItem.cpp

; 141  : 	m_astUseSoundFileName[eItemType]=c_rstFileName;	

  00014	83 c1 40	 add	 ecx, 64			; 00000040H
; File C:\Program Files\Microsoft Visual Studio\2022\Community\VC\Tools\MSVC\14.44.35207\include\xstring

; 1395 :         if (this == _STD addressof(_Right)) {

  00017	3b c8		 cmp	 ecx, eax
  00019	74 17		 je	 SHORT $LN4@SetUseSoun

; 453  :         return _Myres > _Small_string_capacity;

  0001b	83 78 14 0f	 cmp	 DWORD PTR [eax+20], 15	; 0000000fH

; 1434 :         assign(_Right._Mypair._Myval2._Myptr(), _Right._Mypair._Myval2._Mysize);

  0001f	8b 50 10	 mov	 edx, DWORD PTR [eax+16]

; 445  :         if (_Large_mode_engaged()) {

  00022	76 02		 jbe	 SHORT $LN8@SetUseSoun

; 446  :             _Result = _Unfancy(_Bx._Ptr);

  00024	8b 00		 mov	 eax, DWORD PTR [eax]
$LN8@SetUseSoun:

; 1434 :         assign(_Right._Mypair._Myval2._Myptr(), _Right._Mypair._Myval2._Mysize);

  00026	89 55 0c	 mov	 DWORD PTR _c_rstFileName$[ebp], edx
  00029	89 45 08	 mov	 DWORD PTR _eItemType$[ebp], eax
; File D:\_m2work\Server Client TMP4\ClientVS22\source\UserInterface\PythonItem.cpp

; 142  : }

  0002c	5d		 pop	 ebp
; File C:\Program Files\Microsoft Visual Studio\2022\Community\VC\Tools\MSVC\14.44.35207\include\xstring

; 1434 :         assign(_Right._Mypair._Myval2._Myptr(), _Right._Mypair._Myval2._Mysize);

  0002d	e9 00 00 00 00	 jmp	 ?assign@?$basic_string@DU?$char_traits@D@std@@V?$allocator@D@2@@std@@QAEAAV12@QBDI@Z ; std::basic_string<char,std::char_traits<char>,std::allocator<char> >::assign
$LN4@SetUseSoun:
; File D:\_m2work\Server Client TMP4\ClientVS22\source\UserInterface\PythonItem.cpp

; 142  : }

  00032	5d		 pop	 ebp
  00033	c2 08 00	 ret	 8
?SetUseSoundFileName@CPythonItem@@QAEXKABV?$basic_string@DU?$char_traits@D@std@@V?$allocator@D@2@@std@@@Z ENDP ; CPythonItem::SetUseSoundFileName
_TEXT	ENDS
; Function compile flags: /Ogtp
; File D:\_m2work\Server Client TMP4\ClientVS22\source\UserInterface\PythonItem.cpp
; File C:\Program Files\Microsoft Visual Studio\2022\Community\VC\Tools\MSVC\14.44.35207\include\xstring
; File D:\_m2work\Server Client TMP4\ClientVS22\source\UserInterface\PythonItem.cpp
; File C:\Program Files\Microsoft Visual Studio\2022\Community\VC\Tools\MSVC\14.44.35207\include\xstring
; File D:\_m2work\Server Client TMP4\ClientVS22\source\UserInterface\PythonItem.cpp
;	COMDAT ?SetDropSoundFileName@CPythonItem@@QAEXKABV?$basic_string@DU?$char_traits@D@std@@V?$allocator@D@2@@std@@@Z
_TEXT	SEGMENT
_eItemType$ = 8						; size = 4
_c_rstFileName$ = 12					; size = 4
?SetDropSoundFileName@CPythonItem@@QAEXKABV?$basic_string@DU?$char_traits@D@std@@V?$allocator@D@2@@std@@@Z PROC ; CPythonItem::SetDropSoundFileName, COMDAT
; _this$dead$ = ecx

; 145  : {

  00000	55		 push	 ebp
  00001	8b ec		 mov	 ebp, esp
  00003	57		 push	 edi

; 146  : 	if (eItemType>=DROPSOUND_NUM)

  00004	8b 7d 08	 mov	 edi, DWORD PTR _eItemType$[ebp]
  00007	83 ff 05	 cmp	 edi, 5
  0000a	73 3e		 jae	 SHORT $LN14@SetDropSou
  0000c	56		 push	 esi
; File C:\Program Files\Microsoft Visual Studio\2022\Community\VC\Tools\MSVC\14.44.35207\include\xstring

; 444  :         const value_type* _Result = _Bx._Buf;

  0000d	8b 75 0c	 mov	 esi, DWORD PTR _c_rstFileName$[ebp]
  00010	8b c6		 mov	 eax, esi

; 453  :         return _Myres > _Small_string_capacity;

  00012	83 7e 14 0f	 cmp	 DWORD PTR [esi+20], 15	; 0000000fH

; 445  :         if (_Large_mode_engaged()) {

  00016	76 02		 jbe	 SHORT $LN25@SetDropSou

; 446  :             _Result = _Unfancy(_Bx._Ptr);

  00018	8b 06		 mov	 eax, DWORD PTR [esi]
$LN25@SetDropSou:
; File D:\_m2work\Server Client TMP4\ClientVS22\source\UserInterface\PythonItem.cpp

; 149  : 	Tracenf("SetDropSoundFile %d : %s", eItemType, c_rstFileName.c_str());

  0001a	50		 push	 eax
  0001b	57		 push	 edi
  0001c	68 00 00 00 00	 push	 OFFSET ??_C@_0BJ@CMCGILDJ@SetDropSoundFile?5?$CFd?5?3?5?$CFs@
  00021	e8 00 00 00 00	 call	 ?Tracenf@@YAXPBDZZ	; Tracenf

; 150  : 
; 151  : 	SGroundItemInstance::ms_astDropSoundFileName[eItemType]=c_rstFileName;

  00026	8d 04 7f	 lea	 eax, DWORD PTR [edi+edi*2]
  00029	83 c4 0c	 add	 esp, 12			; 0000000cH
  0002c	8d 0c c5 00 00
	00 00		 lea	 ecx, DWORD PTR ?ms_astDropSoundFileName@SGroundItemInstance@CPythonItem@@2PAV?$basic_string@DU?$char_traits@D@std@@V?$allocator@D@2@@std@@A[eax*8]
; File C:\Program Files\Microsoft Visual Studio\2022\Community\VC\Tools\MSVC\14.44.35207\include\xstring

; 1395 :         if (this == _STD addressof(_Right)) {

  00033	3b ce		 cmp	 ecx, esi
  00035	74 12		 je	 SHORT $LN30@SetDropSou

; 453  :         return _Myres > _Small_string_capacity;

  00037	83 7e 14 0f	 cmp	 DWORD PTR [esi+20], 15	; 0000000fH

; 1434 :         assign(_Right._Mypair._Myval2._Myptr(), _Right._Mypair._Myval2._Mysize);

  0003b	8b 46 10	 mov	 eax, DWORD PTR [esi+16]

; 445  :         if (_Large_mode_engaged()) {

  0003e	76 02		 jbe	 SHORT $LN18@SetDropSou

; 446  :             _Result = _Unfancy(_Bx._Ptr);

  00040	8b 36		 mov	 esi, DWORD PTR [esi]
$LN18@SetDropSou:

; 1434 :         assign(_Right._Mypair._Myval2._Myptr(), _Right._Mypair._Myval2._Mysize);

  00042	50		 push	 eax
  00043	56		 push	 esi
  00044	e8 00 00 00 00	 call	 ?assign@?$basic_string@DU?$char_traits@D@std@@V?$allocator@D@2@@std@@QAEAAV12@QBDI@Z ; std::basic_string<char,std::char_traits<char>,std::allocator<char> >::assign
$LN30@SetDropSou:
  00049	5e		 pop	 esi
$LN14@SetDropSou:
  0004a	5f		 pop	 edi
; File D:\_m2work\Server Client TMP4\ClientVS22\source\UserInterface\PythonItem.cpp

; 152  : }

  0004b	5d		 pop	 ebp
  0004c	c2 08 00	 ret	 8
?SetDropSoundFileName@CPythonItem@@QAEXKABV?$basic_string@DU?$char_traits@D@std@@V?$allocator@D@2@@std@@@Z ENDP ; CPythonItem::SetDropSoundFileName
_TEXT	ENDS
; Function compile flags: /Ogtp
; File D:\_m2work\Server Client TMP4\ClientVS22\source\UserInterface\PythonItem.cpp
; File C:\Program Files\Microsoft Visual Studio\2022\Community\VC\Tools\MSVC\14.44.35207\include\xstring
; File D:\_m2work\Server Client TMP4\ClientVS22\source\UserInterface\PythonItem.cpp
;	COMDAT ?PlayUseSound@CPythonItem@@QAEXK@Z
_TEXT	SEGMENT
_pkItemData$ = -4					; size = 4
_dwItemID$ = 8						; size = 4
?PlayUseSound@CPythonItem@@QAEXK@Z PROC			; CPythonItem::PlayUseSound, COMDAT
; _this$ = ecx

; 155  : {

  00000	55		 push	 ebp
  00001	8b ec		 mov	 ebp, esp
  00003	51		 push	 ecx
  00004	56		 push	 esi

; 156  : 	//CItemManager& rkItemMgr=CItemManager::Instance();
; 157  : 
; 158  : 	CItemData* pkItemData;
; 159  : 	if (!CItemManager::Instance().GetItemDataPointer(dwItemID, &pkItemData))

  00005	8d 45 fc	 lea	 eax, DWORD PTR _pkItemData$[ebp]
  00008	8b f1		 mov	 esi, ecx
  0000a	8b 0d 00 00 00
	00		 mov	 ecx, DWORD PTR ?ms_singleton@?$CSingleton@VCItemManager@@@@0PAVCItemManager@@A ; CSingleton<CItemManager>::ms_singleton
  00010	50		 push	 eax
  00011	ff 75 08	 push	 DWORD PTR _dwItemID$[ebp]
  00014	e8 00 00 00 00	 call	 ?GetItemDataPointer@CItemManager@@QAEHKPAPAVCItemData@@@Z ; CItemManager::GetItemDataPointer
  00019	85 c0		 test	 eax, eax
  0001b	74 2f		 je	 SHORT $LN1@PlayUseSou

; 160  : 		return;
; 161  : 
; 162  : 	DWORD eItemType=__GetUseSoundType(*pkItemData);

  0001d	ff 75 fc	 push	 DWORD PTR _pkItemData$[ebp]
  00020	e8 00 00 00 00	 call	 ?__GetUseSoundType@CPythonItem@@IAEKABVCItemData@@@Z ; CPythonItem::__GetUseSoundType

; 163  : 	if (eItemType==USESOUND_NONE)

  00025	85 c0		 test	 eax, eax
  00027	74 23		 je	 SHORT $LN1@PlayUseSou

; 164  : 		return;
; 165  : 	if (eItemType>=USESOUND_NUM)

  00029	83 f8 08	 cmp	 eax, 8
  0002c	73 1e		 jae	 SHORT $LN1@PlayUseSou

; 168  : 	CSoundManager::Instance().PlaySound2D(m_astUseSoundFileName[eItemType].c_str());

  0002e	8d 04 40	 lea	 eax, DWORD PTR [eax+eax*2]
; File C:\Program Files\Microsoft Visual Studio\2022\Community\VC\Tools\MSVC\14.44.35207\include\xstring

; 2356 :         return _Mypair._Myval2._Myptr();

  00031	8d 40 08	 lea	 eax, DWORD PTR [eax+8]

; 453  :         return _Myres > _Small_string_capacity;

  00034	83 7c c6 14 0f	 cmp	 DWORD PTR [esi+eax*8+20], 15 ; 0000000fH

; 2356 :         return _Mypair._Myval2._Myptr();

  00039	8d 04 c6	 lea	 eax, DWORD PTR [esi+eax*8]

; 445  :         if (_Large_mode_engaged()) {

  0003c	76 02		 jbe	 SHORT $LN10@PlayUseSou

; 446  :             _Result = _Unfancy(_Bx._Ptr);

  0003e	8b 00		 mov	 eax, DWORD PTR [eax]
$LN10@PlayUseSou:
; File D:\_m2work\Server Client TMP4\ClientVS22\source\UserInterface\PythonItem.cpp

; 168  : 	CSoundManager::Instance().PlaySound2D(m_astUseSoundFileName[eItemType].c_str());

  00040	8b 0d 00 00 00
	00		 mov	 ecx, DWORD PTR ?ms_singleton@?$CSingleton@VCSoundManager@@@@0PAVCSoundManager@@A ; CSingleton<CSoundManager>::ms_singleton
  00046	50		 push	 eax
  00047	e8 00 00 00 00	 call	 ?PlaySound2D@CSoundManager@@QAEXPBD@Z ; CSoundManager::PlaySound2D
$LN1@PlayUseSou:
  0004c	5e		 pop	 esi

; 169  : }

  0004d	8b e5		 mov	 esp, ebp
  0004f	5d		 pop	 ebp
  00050	c2 04 00	 ret	 4
?PlayUseSound@CPythonItem@@QAEXK@Z ENDP			; CPythonItem::PlayUseSound
_TEXT	ENDS
; Function compile flags: /Ogtp
; File D:\_m2work\Server Client TMP4\ClientVS22\source\UserInterface\PythonItem.cpp
; File C:\Program Files\Microsoft Visual Studio\2022\Community\VC\Tools\MSVC\14.44.35207\include\xstring
; File D:\_m2work\Server Client TMP4\ClientVS22\source\UserInterface\PythonItem.cpp
;	COMDAT ?PlayDropSound@CPythonItem@@QAEXK@Z
_TEXT	SEGMENT
_pkItemData$ = -4					; size = 4
_dwItemID$ = 8						; size = 4
?PlayDropSound@CPythonItem@@QAEXK@Z PROC		; CPythonItem::PlayDropSound, COMDAT
; _this$dead$ = ecx

; 173  : {

  00000	55		 push	 ebp
  00001	8b ec		 mov	 ebp, esp
  00003	51		 push	 ecx

; 174  : 	//CItemManager& rkItemMgr=CItemManager::Instance();
; 175  : 
; 176  : 	CItemData* pkItemData;
; 177  : 	if (!CItemManager::Instance().GetItemDataPointer(dwItemID, &pkItemData))

  00004	8b 0d 00 00 00
	00		 mov	 ecx, DWORD PTR ?ms_singleton@?$CSingleton@VCItemManager@@@@0PAVCItemManager@@A ; CSingleton<CItemManager>::ms_singleton
  0000a	8d 45 fc	 lea	 eax, DWORD PTR _pkItemData$[ebp]
  0000d	50		 push	 eax
  0000e	ff 75 08	 push	 DWORD PTR _dwItemID$[ebp]
  00011	e8 00 00 00 00	 call	 ?GetItemDataPointer@CItemManager@@QAEHKPAPAVCItemData@@@Z ; CItemManager::GetItemDataPointer
  00016	85 c0		 test	 eax, eax
  00018	74 2f		 je	 SHORT $LN1@PlayDropSo

; 178  : 		return;
; 179  : 
; 180  : 	DWORD eItemType=__GetDropSoundType(*pkItemData);

  0001a	ff 75 fc	 push	 DWORD PTR _pkItemData$[ebp]
  0001d	e8 00 00 00 00	 call	 ?__GetDropSoundType@CPythonItem@@IAEKABVCItemData@@@Z ; CPythonItem::__GetDropSoundType

; 181  : 	if (eItemType>=DROPSOUND_NUM)

  00022	83 f8 05	 cmp	 eax, 5
  00025	73 22		 jae	 SHORT $LN1@PlayDropSo

; 184  : 	CSoundManager::Instance().PlaySound2D(SGroundItemInstance::ms_astDropSoundFileName[eItemType].c_str());

  00027	8d 04 40	 lea	 eax, DWORD PTR [eax+eax*2]
; File C:\Program Files\Microsoft Visual Studio\2022\Community\VC\Tools\MSVC\14.44.35207\include\xstring

; 453  :         return _Myres > _Small_string_capacity;

  0002a	83 3c c5 14 00
	00 00 0f	 cmp	 DWORD PTR ?ms_astDropSoundFileName@SGroundItemInstance@CPythonItem@@2PAV?$basic_string@DU?$char_traits@D@std@@V?$allocator@D@2@@std@@A[eax*8+20], 15 ; 0000000fH

; 2356 :         return _Mypair._Myval2._Myptr();

  00032	8d 04 c5 00 00
	00 00		 lea	 eax, DWORD PTR ?ms_astDropSoundFileName@SGroundItemInstance@CPythonItem@@2PAV?$basic_string@DU?$char_traits@D@std@@V?$allocator@D@2@@std@@A[eax*8]

; 445  :         if (_Large_mode_engaged()) {

  00039	76 02		 jbe	 SHORT $LN9@PlayDropSo

; 446  :             _Result = _Unfancy(_Bx._Ptr);

  0003b	8b 00		 mov	 eax, DWORD PTR [eax]
$LN9@PlayDropSo:
; File D:\_m2work\Server Client TMP4\ClientVS22\source\UserInterface\PythonItem.cpp

; 184  : 	CSoundManager::Instance().PlaySound2D(SGroundItemInstance::ms_astDropSoundFileName[eItemType].c_str());

  0003d	8b 0d 00 00 00
	00		 mov	 ecx, DWORD PTR ?ms_singleton@?$CSingleton@VCSoundManager@@@@0PAVCSoundManager@@A ; CSingleton<CSoundManager>::ms_singleton
  00043	50		 push	 eax
  00044	e8 00 00 00 00	 call	 ?PlaySound2D@CSoundManager@@QAEXPBD@Z ; CSoundManager::PlaySound2D
$LN1@PlayDropSo:

; 185  : }

  00049	8b e5		 mov	 esp, ebp
  0004b	5d		 pop	 ebp
  0004c	c2 04 00	 ret	 4
?PlayDropSound@CPythonItem@@QAEXK@Z ENDP		; CPythonItem::PlayDropSound
_TEXT	ENDS
; Function compile flags: /Ogtp
; File D:\_m2work\Server Client TMP4\ClientVS22\source\UserInterface\PythonItem.cpp
; File C:\Program Files\Microsoft Visual Studio\2022\Community\VC\Tools\MSVC\14.44.35207\include\xstring
; File D:\_m2work\Server Client TMP4\ClientVS22\source\UserInterface\PythonItem.cpp
;	COMDAT ?PlayUsePotionSound@CPythonItem@@QAEXXZ
_TEXT	SEGMENT
?PlayUsePotionSound@CPythonItem@@QAEXXZ PROC		; CPythonItem::PlayUsePotionSound, COMDAT
; _this$ = ecx
; File C:\Program Files\Microsoft Visual Studio\2022\Community\VC\Tools\MSVC\14.44.35207\include\xstring

; 2356 :         return _Mypair._Myval2._Myptr();

  00000	81 c1 d0 00 00
	00		 add	 ecx, 208		; 000000d0H

; 453  :         return _Myres > _Small_string_capacity;

  00006	83 79 14 0f	 cmp	 DWORD PTR [ecx+20], 15	; 0000000fH

; 445  :         if (_Large_mode_engaged()) {

  0000a	76 02		 jbe	 SHORT $LN7@PlayUsePot

; 446  :             _Result = _Unfancy(_Bx._Ptr);

  0000c	8b 09		 mov	 ecx, DWORD PTR [ecx]
$LN7@PlayUsePot:
; File D:\_m2work\Server Client TMP4\ClientVS22\source\UserInterface\PythonItem.cpp

; 189  : 	CSoundManager::Instance().PlaySound2D(m_astUseSoundFileName[USESOUND_POTION].c_str());

  0000e	51		 push	 ecx
  0000f	8b 0d 00 00 00
	00		 mov	 ecx, DWORD PTR ?ms_singleton@?$CSingleton@VCSoundManager@@@@0PAVCSoundManager@@A ; CSingleton<CSoundManager>::ms_singleton
  00015	e8 00 00 00 00	 call	 ?PlaySound2D@CSoundManager@@QAEXPBD@Z ; CSoundManager::PlaySound2D

; 190  : }

  0001a	c3		 ret	 0
?PlayUsePotionSound@CPythonItem@@QAEXXZ ENDP		; CPythonItem::PlayUsePotionSound
_TEXT	ENDS
; Function compile flags: /Ogtp
; File D:\_m2work\Server Client TMP4\ClientVS22\source\UserInterface\PythonItem.cpp
;	COMDAT ?__GetDropSoundType@CPythonItem@@IAEKABVCItemData@@@Z
_TEXT	SEGMENT
_c_rkItemData$ = 8					; size = 4
?__GetDropSoundType@CPythonItem@@IAEKABVCItemData@@@Z PROC ; CPythonItem::__GetDropSoundType, COMDAT
; _this$dead$ = ecx

; 193  : {

  00000	55		 push	 ebp
  00001	8b ec		 mov	 ebp, esp
  00003	56		 push	 esi

; 194  : 	switch (c_rkItemData.GetType())

  00004	8b 75 08	 mov	 esi, DWORD PTR _c_rkItemData$[ebp]
  00007	8b ce		 mov	 ecx, esi
  00009	e8 00 00 00 00	 call	 ?GetType@CItemData@@QBEEXZ ; CItemData::GetType
  0000e	0f b6 c0	 movzx	 eax, al
  00011	83 e8 01	 sub	 eax, 1
  00014	74 32		 je	 SHORT $LN8@GetDropSou
  00016	83 e8 01	 sub	 eax, 1
  00019	75 48		 jne	 SHORT $LN10@GetDropSou

; 207  : 					break;
; 208  : 			}
; 209  : 			break;
; 210  : 		case CItemData::ITEM_TYPE_ARMOR:
; 211  : 			switch (c_rkItemData.GetSubType())

  0001b	8b ce		 mov	 ecx, esi
  0001d	e8 00 00 00 00	 call	 ?GetSubType@CItemData@@QBEEXZ ; CItemData::GetSubType
  00022	0f b6 c0	 movzx	 eax, al
  00025	83 e8 00	 sub	 eax, 0
  00028	74 14		 je	 SHORT $LN15@GetDropSou
  0002a	83 e8 05	 sub	 eax, 5
  0002d	74 05		 je	 SHORT $LN13@GetDropSou
  0002f	83 e8 01	 sub	 eax, 1
  00032	75 2f		 jne	 SHORT $LN10@GetDropSou
$LN13@GetDropSou:

; 212  : 			{
; 213  : 				case CItemData::ARMOR_NECK:
; 214  : 				case CItemData::ARMOR_EAR:
; 215  : 					return DROPSOUND_ACCESSORY;

  00034	b8 04 00 00 00	 mov	 eax, 4
  00039	5e		 pop	 esi

; 219  : 				default:
; 220  : 					return DROPSOUND_DEFAULT;		
; 221  : 					break;
; 222  : 			}
; 223  : 			break;	
; 224  : 		default:
; 225  : 			return DROPSOUND_DEFAULT;
; 226  : 			break;
; 227  : 	}
; 228  : 
; 229  : 	return DROPSOUND_DEFAULT;
; 230  : }

  0003a	5d		 pop	 ebp
  0003b	c2 04 00	 ret	 4
$LN15@GetDropSou:

; 216  : 					break;
; 217  : 				case CItemData::ARMOR_BODY:
; 218  : 					return DROPSOUND_ARMOR;

  0003e	b8 01 00 00 00	 mov	 eax, 1
  00043	5e		 pop	 esi

; 219  : 				default:
; 220  : 					return DROPSOUND_DEFAULT;		
; 221  : 					break;
; 222  : 			}
; 223  : 			break;	
; 224  : 		default:
; 225  : 			return DROPSOUND_DEFAULT;
; 226  : 			break;
; 227  : 	}
; 228  : 
; 229  : 	return DROPSOUND_DEFAULT;
; 230  : }

  00044	5d		 pop	 ebp
  00045	c2 04 00	 ret	 4
$LN8@GetDropSou:

; 195  : 	{
; 196  : 		case CItemData::ITEM_TYPE_WEAPON:
; 197  : 			switch (c_rkItemData.GetWeaponType())

  00048	8b ce		 mov	 ecx, esi
  0004a	e8 00 00 00 00	 call	 ?GetWeaponType@CItemData@@QBEKXZ ; CItemData::GetWeaponType
  0004f	83 e8 02	 sub	 eax, 2
  00052	74 16		 je	 SHORT $LN9@GetDropSou
  00054	83 e8 04	 sub	 eax, 4
  00057	74 0a		 je	 SHORT $LN10@GetDropSou

; 204  : 					break;
; 205  : 				default:
; 206  : 					return DROPSOUND_WEAPON;

  00059	b8 02 00 00 00	 mov	 eax, 2
  0005e	5e		 pop	 esi

; 219  : 				default:
; 220  : 					return DROPSOUND_DEFAULT;		
; 221  : 					break;
; 222  : 			}
; 223  : 			break;	
; 224  : 		default:
; 225  : 			return DROPSOUND_DEFAULT;
; 226  : 			break;
; 227  : 	}
; 228  : 
; 229  : 	return DROPSOUND_DEFAULT;
; 230  : }

  0005f	5d		 pop	 ebp
  00060	c2 04 00	 ret	 4
$LN10@GetDropSou:

; 201  : 					break;
; 202  : 				case CItemData::WEAPON_ARROW:
; 203  : 					return DROPSOUND_DEFAULT;

  00063	33 c0		 xor	 eax, eax
  00065	5e		 pop	 esi

; 219  : 				default:
; 220  : 					return DROPSOUND_DEFAULT;		
; 221  : 					break;
; 222  : 			}
; 223  : 			break;	
; 224  : 		default:
; 225  : 			return DROPSOUND_DEFAULT;
; 226  : 			break;
; 227  : 	}
; 228  : 
; 229  : 	return DROPSOUND_DEFAULT;
; 230  : }

  00066	5d		 pop	 ebp
  00067	c2 04 00	 ret	 4
$LN9@GetDropSou:

; 198  : 			{
; 199  : 				case CItemData::WEAPON_BOW:
; 200  : 					return DROPSOUND_BOW;

  0006a	b8 03 00 00 00	 mov	 eax, 3
  0006f	5e		 pop	 esi

; 219  : 				default:
; 220  : 					return DROPSOUND_DEFAULT;		
; 221  : 					break;
; 222  : 			}
; 223  : 			break;	
; 224  : 		default:
; 225  : 			return DROPSOUND_DEFAULT;
; 226  : 			break;
; 227  : 	}
; 228  : 
; 229  : 	return DROPSOUND_DEFAULT;
; 230  : }

  00070	5d		 pop	 ebp
  00071	c2 04 00	 ret	 4
?__GetDropSoundType@CPythonItem@@IAEKABVCItemData@@@Z ENDP ; CPythonItem::__GetDropSoundType
_TEXT	ENDS
; Function compile flags: /Ogtp
; File D:\_m2work\Server Client TMP4\ClientVS22\source\UserInterface\PythonItem.cpp
;	COMDAT ?__GetUseSoundType@CPythonItem@@IAEKABVCItemData@@@Z
_TEXT	SEGMENT
_c_rkItemData$ = 8					; size = 4
?__GetUseSoundType@CPythonItem@@IAEKABVCItemData@@@Z PROC ; CPythonItem::__GetUseSoundType, COMDAT
; _this$dead$ = ecx

; 234  : {

  00000	55		 push	 ebp
  00001	8b ec		 mov	 ebp, esp
  00003	56		 push	 esi

; 235  : 	switch (c_rkItemData.GetType())

  00004	8b 75 08	 mov	 esi, DWORD PTR _c_rkItemData$[ebp]
  00007	8b ce		 mov	 ecx, esi
  00009	e8 00 00 00 00	 call	 ?GetType@CItemData@@QBEEXZ ; CItemData::GetType
  0000e	0f b6 c0	 movzx	 eax, al
  00011	83 e8 01	 sub	 eax, 1
  00014	74 6b		 je	 SHORT $LN10@GetUseSoun
  00016	83 e8 01	 sub	 eax, 1
  00019	74 39		 je	 SHORT $LN14@GetUseSoun
  0001b	83 e8 01	 sub	 eax, 1
  0001e	75 7c		 jne	 SHORT $LN12@GetUseSoun

; 260  : 				default:
; 261  : 					return USESOUND_DEFAULT;		
; 262  : 					break;
; 263  : 			}
; 264  : 			break;
; 265  : 		case CItemData::ITEM_TYPE_USE:
; 266  : 			switch (c_rkItemData.GetSubType())

  00020	8b ce		 mov	 ecx, esi
  00022	e8 00 00 00 00	 call	 ?GetSubType@CItemData@@QBEEXZ ; CItemData::GetSubType
  00027	0f b6 c0	 movzx	 eax, al
  0002a	83 e8 00	 sub	 eax, 0
  0002d	74 1e		 je	 SHORT $LN21@GetUseSoun
  0002f	83 e8 01	 sub	 eax, 1
  00032	74 0f		 je	 SHORT $LN22@GetUseSoun
  00034	83 e8 06	 sub	 eax, 6
  00037	75 63		 jne	 SHORT $LN12@GetUseSoun

; 267  : 			{
; 268  : 				case CItemData::USE_ABILITY_UP:
; 269  : 					return USESOUND_POTION;

  00039	b8 06 00 00 00	 mov	 eax, 6
  0003e	5e		 pop	 esi

; 276  : 					break;
; 277  : 				default:
; 278  : 					return USESOUND_DEFAULT;		
; 279  : 					break;
; 280  : 			}
; 281  : 			break;			
; 282  : 		default:
; 283  : 			return USESOUND_DEFAULT;
; 284  : 			break;
; 285  : 	}
; 286  : 
; 287  : 	return USESOUND_DEFAULT;
; 288  : }

  0003f	5d		 pop	 ebp
  00040	c2 04 00	 ret	 4
$LN22@GetUseSoun:

; 273  : 					break;
; 274  : 				case CItemData::USE_TALISMAN:
; 275  : 					return USESOUND_PORTAL;

  00043	b8 07 00 00 00	 mov	 eax, 7
  00048	5e		 pop	 esi

; 276  : 					break;
; 277  : 				default:
; 278  : 					return USESOUND_DEFAULT;		
; 279  : 					break;
; 280  : 			}
; 281  : 			break;			
; 282  : 		default:
; 283  : 			return USESOUND_DEFAULT;
; 284  : 			break;
; 285  : 	}
; 286  : 
; 287  : 	return USESOUND_DEFAULT;
; 288  : }

  00049	5d		 pop	 ebp
  0004a	c2 04 00	 ret	 4
$LN21@GetUseSoun:

; 270  : 					break;
; 271  : 				case CItemData::USE_POTION:
; 272  : 					return USESOUND_NONE;

  0004d	33 c0		 xor	 eax, eax
  0004f	5e		 pop	 esi

; 276  : 					break;
; 277  : 				default:
; 278  : 					return USESOUND_DEFAULT;		
; 279  : 					break;
; 280  : 			}
; 281  : 			break;			
; 282  : 		default:
; 283  : 			return USESOUND_DEFAULT;
; 284  : 			break;
; 285  : 	}
; 286  : 
; 287  : 	return USESOUND_DEFAULT;
; 288  : }

  00050	5d		 pop	 ebp
  00051	c2 04 00	 ret	 4
$LN14@GetUseSoun:

; 248  : 					break;
; 249  : 			}
; 250  : 			break;
; 251  : 		case CItemData::ITEM_TYPE_ARMOR:
; 252  : 			switch (c_rkItemData.GetSubType())

  00054	8b ce		 mov	 ecx, esi
  00056	e8 00 00 00 00	 call	 ?GetSubType@CItemData@@QBEEXZ ; CItemData::GetSubType
  0005b	0f b6 c0	 movzx	 eax, al
  0005e	83 e8 00	 sub	 eax, 0
  00061	74 14		 je	 SHORT $LN17@GetUseSoun
  00063	83 e8 05	 sub	 eax, 5
  00066	74 05		 je	 SHORT $LN15@GetUseSoun
  00068	83 e8 01	 sub	 eax, 1
  0006b	75 2f		 jne	 SHORT $LN12@GetUseSoun
$LN15@GetUseSoun:

; 253  : 			{
; 254  : 				case CItemData::ARMOR_NECK:
; 255  : 				case CItemData::ARMOR_EAR:
; 256  : 					return USESOUND_ACCESSORY;

  0006d	b8 05 00 00 00	 mov	 eax, 5
  00072	5e		 pop	 esi

; 276  : 					break;
; 277  : 				default:
; 278  : 					return USESOUND_DEFAULT;		
; 279  : 					break;
; 280  : 			}
; 281  : 			break;			
; 282  : 		default:
; 283  : 			return USESOUND_DEFAULT;
; 284  : 			break;
; 285  : 	}
; 286  : 
; 287  : 	return USESOUND_DEFAULT;
; 288  : }

  00073	5d		 pop	 ebp
  00074	c2 04 00	 ret	 4
$LN17@GetUseSoun:

; 257  : 					break;
; 258  : 				case CItemData::ARMOR_BODY:
; 259  : 					return USESOUND_ARMOR;

  00077	b8 02 00 00 00	 mov	 eax, 2
  0007c	5e		 pop	 esi

; 276  : 					break;
; 277  : 				default:
; 278  : 					return USESOUND_DEFAULT;		
; 279  : 					break;
; 280  : 			}
; 281  : 			break;			
; 282  : 		default:
; 283  : 			return USESOUND_DEFAULT;
; 284  : 			break;
; 285  : 	}
; 286  : 
; 287  : 	return USESOUND_DEFAULT;
; 288  : }

  0007d	5d		 pop	 ebp
  0007e	c2 04 00	 ret	 4
$LN10@GetUseSoun:

; 236  : 	{
; 237  : 		case CItemData::ITEM_TYPE_WEAPON:
; 238  : 			switch (c_rkItemData.GetWeaponType())

  00081	8b ce		 mov	 ecx, esi
  00083	e8 00 00 00 00	 call	 ?GetWeaponType@CItemData@@QBEKXZ ; CItemData::GetWeaponType
  00088	83 e8 02	 sub	 eax, 2
  0008b	74 19		 je	 SHORT $LN11@GetUseSoun
  0008d	83 e8 04	 sub	 eax, 4
  00090	74 0a		 je	 SHORT $LN12@GetUseSoun

; 245  : 					break;
; 246  : 				default:
; 247  : 					return USESOUND_WEAPON;

  00092	b8 03 00 00 00	 mov	 eax, 3
  00097	5e		 pop	 esi

; 276  : 					break;
; 277  : 				default:
; 278  : 					return USESOUND_DEFAULT;		
; 279  : 					break;
; 280  : 			}
; 281  : 			break;			
; 282  : 		default:
; 283  : 			return USESOUND_DEFAULT;
; 284  : 			break;
; 285  : 	}
; 286  : 
; 287  : 	return USESOUND_DEFAULT;
; 288  : }

  00098	5d		 pop	 ebp
  00099	c2 04 00	 ret	 4
$LN12@GetUseSoun:

; 242  : 					break;
; 243  : 				case CItemData::WEAPON_ARROW:
; 244  : 					return USESOUND_DEFAULT;

  0009c	b8 01 00 00 00	 mov	 eax, 1
  000a1	5e		 pop	 esi

; 276  : 					break;
; 277  : 				default:
; 278  : 					return USESOUND_DEFAULT;		
; 279  : 					break;
; 280  : 			}
; 281  : 			break;			
; 282  : 		default:
; 283  : 			return USESOUND_DEFAULT;
; 284  : 			break;
; 285  : 	}
; 286  : 
; 287  : 	return USESOUND_DEFAULT;
; 288  : }

  000a2	5d		 pop	 ebp
  000a3	c2 04 00	 ret	 4
$LN11@GetUseSoun:

; 239  : 			{
; 240  : 				case CItemData::WEAPON_BOW:
; 241  : 					return USESOUND_BOW;

  000a6	b8 04 00 00 00	 mov	 eax, 4
  000ab	5e		 pop	 esi

; 276  : 					break;
; 277  : 				default:
; 278  : 					return USESOUND_DEFAULT;		
; 279  : 					break;
; 280  : 			}
; 281  : 			break;			
; 282  : 		default:
; 283  : 			return USESOUND_DEFAULT;
; 284  : 			break;
; 285  : 	}
; 286  : 
; 287  : 	return USESOUND_DEFAULT;
; 288  : }

  000ac	5d		 pop	 ebp
  000ad	c2 04 00	 ret	 4
?__GetUseSoundType@CPythonItem@@IAEKABVCItemData@@@Z ENDP ; CPythonItem::__GetUseSoundType
_TEXT	ENDS
; Function compile flags: /Ogtp
; File D:\_m2work\Server Client TMP4\ClientVS22\source\UserInterface\PythonItem.cpp
; File C:\Program Files\Microsoft Visual Studio\2022\Community\VC\Tools\MSVC\14.44.35207\include\vector
; File D:\_m2work\Server Client TMP4\ClientVS22\source\eterLib\Pool.h
; File D:\_m2work\Server Client TMP4\ClientVS22\source\UserInterface\PythonItem.h
; File D:\_m2work\Server Client TMP4\ClientVS22\source\eterLib\Pool.h
; File C:\Program Files\Microsoft Visual Studio\2022\Community\VC\Tools\MSVC\14.44.35207\include\xstring
; File D:\_m2work\Server Client TMP4\ClientVS22\source\eterLib\Pool.h
; File C:\Program Files\Microsoft Visual Studio\2022\Community\VC\Tools\MSVC\14.44.35207\include\xstring
; File C:\Program Files\Microsoft Visual Studio\2022\Community\VC\Tools\MSVC\14.44.35207\include\vector
; File D:\_m2work\Server Client TMP4\ClientVS22\source\eterLib\Pool.h
; File C:\Program Files\Microsoft Visual Studio\2022\Community\VC\Tools\MSVC\14.44.35207\include\vector
; File D:\_m2work\Server Client TMP4\ClientVS22\source\eterLib\Pool.h
; File C:\Program Files\Microsoft Visual Studio\2022\Community\VC\Tools\MSVC\14.44.35207\include\vector
; File D:\_m2work\Server Client TMP4\ClientVS22\source\eterLib\Pool.h
; File C:\Program Files\Microsoft Visual Studio\2022\Community\VC\Tools\MSVC\14.44.35207\include\vector
; File D:\_m2work\Server Client TMP4\ClientVS22\source\UserInterface\PythonItem.cpp
; File D:\_m2work\Server Client TMP4\ClientVS22\extern\include\d3dx8math.inl
; File D:\_m2work\Server Client TMP4\ClientVS22\source\UserInterface\PythonItem.cpp
; File D:\_m2work\Server Client TMP4\ClientVS22\extern\include\d3dx8math.inl
; File D:\_m2work\Server Client TMP4\ClientVS22\source\UserInterface\PythonItem.cpp
; File D:\_m2work\Server Client TMP4\ClientVS22\extern\include\d3dx8math.inl
; File D:\_m2work\Server Client TMP4\ClientVS22\source\UserInterface\PythonItem.cpp
; File D:\_m2work\Server Client TMP4\ClientVS22\extern\include\d3dx8math.inl
; File D:\_m2work\Server Client TMP4\ClientVS22\source\UserInterface\PythonItem.cpp
; File D:\_m2work\Server Client TMP4\ClientVS22\extern\include\d3dx8math.inl
; File D:\_m2work\Server Client TMP4\ClientVS22\source\UserInterface\PythonItem.cpp
; File D:\_m2work\Server Client TMP4\ClientVS22\extern\include\d3dx8math.inl
; File C:\Program Files\Microsoft Visual Studio\2022\Community\VC\Tools\MSVC\14.44.35207\include\algorithm
; File D:\_m2work\Server Client TMP4\ClientVS22\extern\include\d3dx8math.inl
; File C:\Program Files\Microsoft Visual Studio\2022\Community\VC\Tools\MSVC\14.44.35207\include\algorithm
; File D:\_m2work\Server Client TMP4\ClientVS22\extern\include\d3dx8math.inl
; File D:\_m2work\Server Client TMP4\ClientVS22\source\UserInterface\PythonItem.cpp
; File D:\_m2work\Server Client TMP4\ClientVS22\extern\include\d3dx8math.inl
; File C:\Program Files\Microsoft Visual Studio\2022\Community\VC\Tools\MSVC\14.44.35207\include\algorithm
; File D:\_m2work\Server Client TMP4\ClientVS22\extern\include\d3dx8math.inl
; File C:\Program Files\Microsoft Visual Studio\2022\Community\VC\Tools\MSVC\14.44.35207\include\algorithm
; File D:\_m2work\Server Client TMP4\ClientVS22\extern\include\d3dx8math.inl
; File C:\Program Files\Microsoft Visual Studio\2022\Community\VC\Tools\MSVC\14.44.35207\include\utility
; File D:\_m2work\Server Client TMP4\ClientVS22\source\UserInterface\PythonItem.cpp
; File D:\_m2work\Server Client TMP4\ClientVS22\extern\include\d3dx8math.inl
; File D:\_m2work\Server Client TMP4\ClientVS22\source\UserInterface\PythonItem.cpp
; File C:\Program Files\Microsoft Visual Studio\2022\Community\VC\Tools\MSVC\14.44.35207\include\utility
; File C:\Program Files\Microsoft Visual Studio\2022\Community\VC\Tools\MSVC\14.44.35207\include\algorithm
; File D:\_m2work\Server Client TMP4\ClientVS22\source\UserInterface\PythonItem.cpp
; File C:\Program Files\Microsoft Visual Studio\2022\Community\VC\Tools\MSVC\14.44.35207\include\algorithm
; File D:\_m2work\Server Client TMP4\ClientVS22\source\UserInterface\PythonItem.cpp
; File D:\_m2work\Server Client TMP4\ClientVS22\extern\include\d3dx8math.inl
; File D:\_m2work\Server Client TMP4\ClientVS22\source\UserInterface\PythonItem.cpp
; File D:\_m2work\Server Client TMP4\ClientVS22\extern\include\d3dx8math.inl
; File D:\_m2work\Server Client TMP4\ClientVS22\source\UserInterface\PythonItem.cpp
; File D:\_m2work\Server Client TMP4\ClientVS22\extern\include\d3dx8math.inl
; File D:\_m2work\Server Client TMP4\ClientVS22\source\UserInterface\PythonItem.cpp
; File D:\_m2work\Server Client TMP4\ClientVS22\extern\include\d3dx8math.inl
; File D:\_m2work\Server Client TMP4\ClientVS22\source\UserInterface\PythonItem.cpp
; File C:\Program Files (x86)\Windows Kits\10\Include\10.0.26100.0\ucrt\corecrt_math.h
; File D:\_m2work\Server Client TMP4\ClientVS22\source\UserInterface\PythonItem.cpp
; File D:\_m2work\Server Client TMP4\ClientVS22\extern\include\d3dx8math.inl
; File D:\_m2work\Server Client TMP4\ClientVS22\source\UserInterface\PythonItem.cpp
; File D:\_m2work\Server Client TMP4\ClientVS22\extern\include\d3dx8math.inl
; File D:\_m2work\Server Client TMP4\ClientVS22\source\UserInterface\PythonItem.cpp
; File D:\_m2work\Server Client TMP4\ClientVS22\extern\include\d3dx8math.inl
; File D:\_m2work\Server Client TMP4\ClientVS22\source\UserInterface\PythonItem.cpp
; File D:\_m2work\Server Client TMP4\ClientVS22\extern\include\d3dx8math.inl
; File D:\_m2work\Server Client TMP4\ClientVS22\source\UserInterface\PythonItem.cpp
; File D:\_m2work\Server Client TMP4\ClientVS22\extern\include\d3dx8math.inl
; File D:\_m2work\Server Client TMP4\ClientVS22\source\UserInterface\PythonItem.cpp
; File D:\_m2work\Server Client TMP4\ClientVS22\extern\include\d3dx8math.inl
; File D:\_m2work\Server Client TMP4\ClientVS22\source\UserInterface\PythonItem.cpp
; File C:\Program Files (x86)\Windows Kits\10\Include\10.0.26100.0\ucrt\corecrt_math.h
; File D:\_m2work\Server Client TMP4\ClientVS22\source\UserInterface\PythonItem.cpp
; File C:\Program Files (x86)\Windows Kits\10\Include\10.0.26100.0\ucrt\corecrt_math.h
; File D:\_m2work\Server Client TMP4\ClientVS22\extern\include\d3dx8math.inl
; File D:\_m2work\Server Client TMP4\ClientVS22\source\UserInterface\PythonItem.cpp
; File C:\Program Files (x86)\Windows Kits\10\Include\10.0.26100.0\ucrt\corecrt_math.h
; File D:\_m2work\Server Client TMP4\ClientVS22\source\UserInterface\PythonItem.cpp
; File D:\_m2work\Server Client TMP4\ClientVS22\extern\include\d3dx8math.inl
; File D:\_m2work\Server Client TMP4\ClientVS22\source\UserInterface\PythonItem.cpp
; File C:\Program Files\Microsoft Visual Studio\2022\Community\VC\Tools\MSVC\14.44.35207\include\utility
; File D:\_m2work\Server Client TMP4\ClientVS22\source\UserInterface\PythonItem.cpp
; File C:\Program Files\Microsoft Visual Studio\2022\Community\VC\Tools\MSVC\14.44.35207\include\utility
; File D:\_m2work\Server Client TMP4\ClientVS22\source\UserInterface\PythonItem.cpp
; File C:\Program Files\Microsoft Visual Studio\2022\Community\VC\Tools\MSVC\14.44.35207\include\xtree
; File D:\_m2work\Server Client TMP4\ClientVS22\source\UserInterface\PythonItem.cpp
; File C:\Program Files\Microsoft Visual Studio\2022\Community\VC\Tools\MSVC\14.44.35207\include\xtree
; File C:\Program Files\Microsoft Visual Studio\2022\Community\VC\Tools\MSVC\14.44.35207\include\utility
; File C:\Program Files\Microsoft Visual Studio\2022\Community\VC\Tools\MSVC\14.44.35207\include\xtree
; File C:\Program Files\Microsoft Visual Studio\2022\Community\VC\Tools\MSVC\14.44.35207\include\type_traits
; File C:\Program Files\Microsoft Visual Studio\2022\Community\VC\Tools\MSVC\14.44.35207\include\xtree
; File C:\Program Files\Microsoft Visual Studio\2022\Community\VC\Tools\MSVC\14.44.35207\include\xmemory
; File C:\Program Files\Microsoft Visual Studio\2022\Community\VC\Tools\MSVC\14.44.35207\include\xtree
; File C:\Program Files\Microsoft Visual Studio\2022\Community\VC\Tools\MSVC\14.44.35207\include\xmemory
; File C:\Program Files\Microsoft Visual Studio\2022\Community\VC\Tools\MSVC\14.44.35207\include\xtree
; File C:\Program Files\Microsoft Visual Studio\2022\Community\VC\Tools\MSVC\14.44.35207\include\xmemory
; File C:\Program Files\Microsoft Visual Studio\2022\Community\VC\Tools\MSVC\14.44.35207\include\xtree
; File C:\Program Files\Microsoft Visual Studio\2022\Community\VC\Tools\MSVC\14.44.35207\include\xmemory
; File C:\Program Files\Microsoft Visual Studio\2022\Community\VC\Tools\MSVC\14.44.35207\include\xtree
; File D:\_m2work\Server Client TMP4\ClientVS22\source\UserInterface\PythonItem.cpp
; File C:\Program Files\Microsoft Visual Studio\2022\Community\VC\Tools\MSVC\14.44.35207\include\xtree
; File D:\_m2work\Server Client TMP4\ClientVS22\source\UserInterface\PythonItem.cpp
;	COMDAT ?CreateItem@CPythonItem@@QAEXKKMMM_N@Z
_TEXT	SEGMENT
$T3 = -256						; size = 16
$T4 = -256						; size = 16
_q$5 = -240						; size = 16
tv1979 = -240						; size = 16
$T6 = -212						; size = 8
$T7 = -212						; size = 8
_this$GSCopy$1$ = -208					; size = 4
$T8 = -204						; size = 4
_pItemData$ = -200					; size = 4
tv1788 = -196						; size = 4
_rot$9 = -196						; size = 4
_y$GSCopy$1$ = -196					; size = 4
_z$GSCopy$ = -192					; size = 4
$T10 = -192						; size = 4
_pkNewData$11 = -192					; size = 4
$T12 = -192						; size = 4
__Scary$1$ = -192					; size = 4
tv2324 = -192						; size = 4
tv1799 = -192						; size = 4
tv1789 = -192						; size = 4
tv1825 = -188						; size = 4
tv1846 = -188						; size = 4
tv1874 = -188						; size = 4
tv2084 = -188						; size = 4
tv2128 = -188						; size = 4
tv2171 = -188						; size = 4
tv2321 = -188						; size = 4
_pItemModel$1$ = -188					; size = 4
_rot$1$ = -188						; size = 4
$T13 = -188						; size = 1
tv1800 = -188						; size = 4
tv1812 = -188						; size = 4
_mat$14 = -184						; size = 64
_normal$ = -116						; size = 12
_vMax$15 = -104						; size = 12
$T16 = -92						; size = 12
_v3Adjust$17 = -92					; size = 12
$T18 = -80						; size = 12
_vMin$19 = -80						; size = 12
$T20 = -68						; size = 12
$T21 = -68						; size = 12
$T22 = -68						; size = 12
$T23 = -68						; size = 12
$T24 = -56						; size = 12
__Loc$25 = -56						; size = 12
$T26 = -56						; size = 12
$T27 = -56						; size = 12
$T28 = -56						; size = 12
$T29 = -56						; size = 12
$T30 = -56						; size = 12
$T31 = -56						; size = 12
_f$32 = -44						; size = 24
__$ArrayPad$ = -20					; size = 4
__$EHRec$ = -12						; size = 12
_dwVirtualID$ = 8					; size = 4
_dwVirtualNumber$ = 12					; size = 4
_y$ = 16						; size = 4
_z$ = 20						; size = 4
_bDrop$ = 24						; size = 1
?CreateItem@CPythonItem@@QAEXKKMMM_N@Z PROC		; CPythonItem::CreateItem, COMDAT
; _this$ = ecx
; _x$ = xmm3s

; 291  : {

  00000	53		 push	 ebx
  00001	8b dc		 mov	 ebx, esp
  00003	83 ec 08	 sub	 esp, 8
  00006	83 e4 f0	 and	 esp, -16		; fffffff0H
  00009	83 c4 04	 add	 esp, 4
  0000c	55		 push	 ebp
  0000d	8b 6b 04	 mov	 ebp, DWORD PTR [ebx+4]
  00010	89 6c 24 04	 mov	 DWORD PTR [esp+4], ebp
  00014	8b ec		 mov	 ebp, esp
  00016	6a ff		 push	 -1
  00018	68 00 00 00 00	 push	 __ehhandler$?CreateItem@CPythonItem@@QAEXKKMMM_N@Z
  0001d	64 a1 00 00 00
	00		 mov	 eax, DWORD PTR fs:0
  00023	50		 push	 eax
  00024	53		 push	 ebx
  00025	81 ec f8 00 00
	00		 sub	 esp, 248		; 000000f8H
  0002b	a1 00 00 00 00	 mov	 eax, DWORD PTR ___security_cookie
  00030	33 c5		 xor	 eax, ebp
  00032	89 45 ec	 mov	 DWORD PTR __$ArrayPad$[ebp], eax
  00035	56		 push	 esi
  00036	57		 push	 edi
  00037	50		 push	 eax
  00038	8d 45 f4	 lea	 eax, DWORD PTR __$EHRec$[ebp]
  0003b	64 a3 00 00 00
	00		 mov	 DWORD PTR fs:0, eax
  00041	f3 0f 11 9d 10
	ff ff ff	 movss	 DWORD PTR tv1979[ebp], xmm3
  00049	8b f1		 mov	 esi, ecx
  0004b	89 b5 30 ff ff
	ff		 mov	 DWORD PTR _this$GSCopy$1$[ebp], esi
  00051	f3 0f 10 43 10	 movss	 xmm0, DWORD PTR _y$[ebx]

; 292  : 	//CItemManager& rkItemMgr=CItemManager::Instance();
; 293  : 
; 294  : 	CItemData * pItemData;
; 295  : 	if (!CItemManager::Instance().GetItemDataPointer(dwVirtualNumber, &pItemData))

  00056	8d 85 38 ff ff
	ff		 lea	 eax, DWORD PTR _pItemData$[ebp]
  0005c	8b 0d 00 00 00
	00		 mov	 ecx, DWORD PTR ?ms_singleton@?$CSingleton@VCItemManager@@@@0PAVCItemManager@@A ; CSingleton<CItemManager>::ms_singleton
  00062	50		 push	 eax
  00063	ff 73 0c	 push	 DWORD PTR _dwVirtualNumber$[ebx]
  00066	f3 0f 11 85 3c
	ff ff ff	 movss	 DWORD PTR _y$GSCopy$1$[ebp], xmm0
  0006e	f3 0f 10 43 14	 movss	 xmm0, DWORD PTR _z$[ebx]
  00073	f3 0f 11 85 34
	ff ff ff	 movss	 DWORD PTR $T8[ebp], xmm0
  0007b	e8 00 00 00 00	 call	 ?GetItemDataPointer@CItemManager@@QAEHKPAPAVCItemData@@@Z ; CItemManager::GetItemDataPointer
  00080	85 c0		 test	 eax, eax
  00082	0f 84 45 08 00
	00		 je	 $LN1@CreateItem

; 296  : 		return;
; 297  : 
; 298  : 	CGraphicThing* pItemModel = pItemData->GetDropModelThing();

  00088	8b 8d 38 ff ff
	ff		 mov	 ecx, DWORD PTR _pItemData$[ebp]
  0008e	e8 00 00 00 00	 call	 ?GetDropModelThing@CItemData@@QAEPAVCGraphicThing@@XZ ; CItemData::GetDropModelThing
  00093	89 85 44 ff ff
	ff		 mov	 DWORD PTR _pItemModel$1$[ebp], eax
; File C:\Program Files\Microsoft Visual Studio\2022\Community\VC\Tools\MSVC\14.44.35207\include\vector

; 1910 :         return _My_data._Myfirst == _My_data._Mylast;

  00099	8b 46 20	 mov	 eax, DWORD PTR [esi+32]
  0009c	39 46 1c	 cmp	 DWORD PTR [esi+28], eax
; File D:\_m2work\Server Client TMP4\ClientVS22\source\eterLib\Pool.h

; 64   : 			if (m_kVct_pkFree.empty())

  0009f	0f 85 84 00 00
	00		 jne	 $LN23@CreateItem

; 66   : 				T* pkNewData=new T;

  000a5	68 44 02 00 00	 push	 580			; 00000244H
  000aa	e8 00 00 00 00	 call	 ??2@YAPAXI@Z		; operator new
  000af	8b f8		 mov	 edi, eax
  000b1	83 c4 04	 add	 esp, 4
  000b4	89 bd 40 ff ff
	ff		 mov	 DWORD PTR $T10[ebp], edi
  000ba	c7 45 fc 00 00
	00 00		 mov	 DWORD PTR __$EHRec$[ebp+8], 0
; File D:\_m2work\Server Client TMP4\ClientVS22\source\UserInterface\PythonItem.h

; 71   : 			SGroundItemInstance() {}

  000c1	8d 4f 3c	 lea	 ecx, DWORD PTR [edi+60]
  000c4	c7 07 00 00 00
	00		 mov	 DWORD PTR [edi], OFFSET ??_7SGroundItemInstance@CPythonItem@@6B@
  000ca	e8 00 00 00 00	 call	 ??0CGraphicThingInstance@@QAE@XZ ; CGraphicThingInstance::CGraphicThingInstance
  000cf	0f 57 c0	 xorps	 xmm0, xmm0
; File D:\_m2work\Server Client TMP4\ClientVS22\source\eterLib\Pool.h

; 66   : 				T* pkNewData=new T;

  000d2	c7 45 fc ff ff
	ff ff		 mov	 DWORD PTR __$EHRec$[ebp+8], -1
; File C:\Program Files\Microsoft Visual Studio\2022\Community\VC\Tools\MSVC\14.44.35207\include\xstring

; 493  :         _CONSTEXPR20 _Bxty() noexcept : _Buf() {} // user-provided, for fancy pointers

  000d9	0f 11 87 2c 02
	00 00		 movups	 XMMWORD PTR [edi+556], xmm0

; 860  :         _My_data._Mysize = 0;

  000e0	c7 87 3c 02 00
	00 00 00 00 00	 mov	 DWORD PTR [edi+572], 0
; File D:\_m2work\Server Client TMP4\ClientVS22\source\eterLib\Pool.h

; 67   : 				m_kVct_pkData.push_back(pkNewData);

  000ea	8d 4e 10	 lea	 ecx, DWORD PTR [esi+16]
; File C:\Program Files\Microsoft Visual Studio\2022\Community\VC\Tools\MSVC\14.44.35207\include\xstring

; 861  :         _My_data._Myres  = _Small_string_capacity;

  000ed	c7 87 40 02 00
	00 0f 00 00 00	 mov	 DWORD PTR [edi+576], 15	; 0000000fH

; 862  :         _My_data._Activate_SSO_buffer();
; 863  : 
; 864  :         // the _Traits::assign is last so the codegen doesn't think the char write can alias this
; 865  :         _Traits::assign(_My_data._Bx._Buf[0], _Elem());

  000f7	c6 87 2c 02 00
	00 00		 mov	 BYTE PTR [edi+556], 0
; File C:\Program Files\Microsoft Visual Studio\2022\Community\VC\Tools\MSVC\14.44.35207\include\vector

; 844  :         if (_Mylast != _My_data._Myend) {

  000fe	8b 41 04	 mov	 eax, DWORD PTR [ecx+4]
; File D:\_m2work\Server Client TMP4\ClientVS22\source\eterLib\Pool.h

; 66   : 				T* pkNewData=new T;

  00101	89 bd 40 ff ff
	ff		 mov	 DWORD PTR _pkNewData$11[ebp], edi
; File C:\Program Files\Microsoft Visual Studio\2022\Community\VC\Tools\MSVC\14.44.35207\include\vector

; 844  :         if (_Mylast != _My_data._Myend) {

  00107	3b 41 08	 cmp	 eax, DWORD PTR [ecx+8]
  0010a	74 0b		 je	 SHORT $LN58@CreateItem

; 860  :             _STD _Construct_in_place(*_Mylast, _STD forward<_Valty>(_Val)...);

  0010c	89 38		 mov	 DWORD PTR [eax], edi

; 861  :         } else {
; 862  :             _ASAN_VECTOR_EXTEND_GUARD(static_cast<size_type>(_Mylast - _My_data._Myfirst) + 1);
; 863  :             _Alty_traits::construct(_Getal(), _Unfancy(_Mylast), _STD forward<_Valty>(_Val)...);
; 864  :             _ASAN_VECTOR_RELEASE_GUARD;
; 865  :         }
; 866  : 
; 867  :         _Orphan_range(_Mylast, _Mylast);
; 868  :         _Ty& _Result = *_Mylast;
; 869  :         ++_Mylast;

  0010e	83 41 04 04	 add	 DWORD PTR [ecx+4], 4
; File D:\_m2work\Server Client TMP4\ClientVS22\source\eterLib\Pool.h

; 68   : 				++m_uUsedCapacity;

  00112	ff 46 2c	 inc	 DWORD PTR [esi+44]

; 69   : 				return pkNewData;

  00115	eb 1b		 jmp	 SHORT $LN22@CreateItem
$LN58@CreateItem:
; File C:\Program Files\Microsoft Visual Studio\2022\Community\VC\Tools\MSVC\14.44.35207\include\vector

; 848  :         return *_Emplace_reallocate(_Mylast, _STD forward<_Valty>(_Val)...);

  00117	8d 95 40 ff ff
	ff		 lea	 edx, DWORD PTR _pkNewData$11[ebp]
  0011d	52		 push	 edx
  0011e	50		 push	 eax
  0011f	e8 00 00 00 00	 call	 ??$_Emplace_reallocate@ABQAUSGroundItemInstance@CPythonItem@@@?$vector@PAUSGroundItemInstance@CPythonItem@@V?$allocator@PAUSGroundItemInstance@CPythonItem@@@std@@@std@@AAEPAPAUSGroundItemInstance@CPythonItem@@QAPAU23@ABQAU23@@Z ; std::vector<CPythonItem::SGroundItemInstance *,std::allocator<CPythonItem::SGroundItemInstance *> >::_Emplace_reallocate<CPythonItem::SGroundItemInstance * const &>
; File D:\_m2work\Server Client TMP4\ClientVS22\source\eterLib\Pool.h

; 68   : 				++m_uUsedCapacity;

  00124	ff 46 2c	 inc	 DWORD PTR [esi+44]

; 69   : 				return pkNewData;

  00127	eb 09		 jmp	 SHORT $LN22@CreateItem
$LN23@CreateItem:

; 70   : 			}
; 71   : 
; 72   : 			T* pkFreeData=m_kVct_pkFree.back();

  00129	8b 78 fc	 mov	 edi, DWORD PTR [eax-4]
; File C:\Program Files\Microsoft Visual Studio\2022\Community\VC\Tools\MSVC\14.44.35207\include\vector

; 1759 :         --_Mylast;

  0012c	83 c0 fc	 add	 eax, -4			; fffffffcH
  0012f	89 46 20	 mov	 DWORD PTR [esi+32], eax
$LN22@CreateItem:
; File D:\_m2work\Server Client TMP4\ClientVS22\source\UserInterface\PythonItem.cpp

; 305  : 	if (bDrop)

  00132	80 7b 18 00	 cmp	 BYTE PTR _bDrop$[ebx], 0
  00136	8b 43 0c	 mov	 eax, DWORD PTR _dwVirtualNumber$[ebx]
  00139	89 47 04	 mov	 DWORD PTR [edi+4], eax
  0013c	74 71		 je	 SHORT $LN3@CreateItem

; 306  : 	{
; 307  : 		z = CPythonBackground::Instance().GetHeight(x, y) + 10.0f;

  0013e	f3 0f 10 85 3c
	ff ff ff	 movss	 xmm0, DWORD PTR _y$GSCopy$1$[ebp]
  00146	83 ec 08	 sub	 esp, 8
  00149	8b 0d 00 00 00
	00		 mov	 ecx, DWORD PTR ?ms_singleton@?$CSingleton@VCPythonBackground@@@@0PAVCPythonBackground@@A ; CSingleton<CPythonBackground>::ms_singleton
  0014f	f3 0f 11 44 24
	04		 movss	 DWORD PTR [esp+4], xmm0
  00155	0f 28 85 10 ff
	ff ff		 movaps	 xmm0, XMMWORD PTR tv1979[ebp]
  0015c	f3 0f 11 04 24	 movss	 DWORD PTR [esp], xmm0
  00161	e8 00 00 00 00	 call	 ?GetHeight@CMapManager@@QAEMMM@Z ; CMapManager::GetHeight
  00166	d8 05 00 00 00
	00		 fadd	 DWORD PTR __real@41200000

; 308  : 
; 309  : 		if (pItemData->GetType()==CItemData::ITEM_TYPE_WEAPON && 

  0016c	8b 8d 38 ff ff
	ff		 mov	 ecx, DWORD PTR _pItemData$[ebp]
  00172	d9 9d 40 ff ff
	ff		 fstp	 DWORD PTR _z$GSCopy$[ebp]
  00178	e8 00 00 00 00	 call	 ?GetType@CItemData@@QBEEXZ ; CItemData::GetType
  0017d	3c 01		 cmp	 al, 1
  0017f	75 1a		 jne	 SHORT $LN6@CreateItem
  00181	8b 8d 38 ff ff
	ff		 mov	 ecx, DWORD PTR _pItemData$[ebp]
  00187	e8 00 00 00 00	 call	 ?GetWeaponType@CItemData@@QBEKXZ ; CItemData::GetWeaponType
  0018c	85 c0		 test	 eax, eax
  0018e	74 0b		 je	 SHORT $LN6@CreateItem
  00190	8b 8d 38 ff ff
	ff		 mov	 ecx, DWORD PTR _pItemData$[ebp]
  00196	e8 00 00 00 00	 call	 ?GetWeaponType@CItemData@@QBEKXZ ; CItemData::GetWeaponType
$LN6@CreateItem:

; 310  : 			(pItemData->GetWeaponType() == CItemData::WEAPON_SWORD || 
; 311  : 			 pItemData->GetWeaponType() == CItemData::WEAPON_ARROW))
; 312  : 			bStabGround = true;
; 313  : 
; 314  : 		bStabGround = false;
; 315  : 		pGroundItemInstance->bAnimEnded = false;
; 316  : 	}

  0019b	f3 0f 10 85 40
	ff ff ff	 movss	 xmm0, DWORD PTR _z$GSCopy$[ebp]
  001a3	32 c0		 xor	 al, al
  001a5	f3 0f 11 85 34
	ff ff ff	 movss	 DWORD PTR $T8[ebp], xmm0
  001ad	eb 02		 jmp	 SHORT $LN245@CreateItem
$LN3@CreateItem:

; 317  : 	else
; 318  : 	{
; 319  : 		pGroundItemInstance->bAnimEnded = true;

  001af	b0 01		 mov	 al, 1
$LN245@CreateItem:

; 320  : 	}
; 321  : 
; 322  : 	{
; 323  : 		// attaching effect
; 324  : 		CEffectManager & rem =CEffectManager::Instance();

  001b1	ba 24 02 00 00	 mov	 edx, 548		; 00000224H
  001b6	8b cf		 mov	 ecx, edi
  001b8	88 04 11	 mov	 BYTE PTR [ecx+edx], al

; 325  : 		pGroundItemInstance->dwEffectInstanceIndex = 

  001bb	8d 45 a4	 lea	 eax, DWORD PTR $T16[ebp]
; File D:\_m2work\Server Client TMP4\ClientVS22\extern\include\d3dx8math.inl

; 180  :     x = fx;

  001be	0f 28 85 10 ff
	ff ff		 movaps	 xmm0, XMMWORD PTR tv1979[ebp]
; File D:\_m2work\Server Client TMP4\ClientVS22\source\UserInterface\PythonItem.cpp

; 325  : 		pGroundItemInstance->dwEffectInstanceIndex = 

  001c5	8b 0d 00 00 00
	00		 mov	 ecx, DWORD PTR ?ms_singleton@?$CSingleton@VCEffectManager@@@@0PAVCEffectManager@@A ; CSingleton<CEffectManager>::ms_singleton
; File D:\_m2work\Server Client TMP4\ClientVS22\extern\include\d3dx8math.inl

; 180  :     x = fx;

  001cb	f3 0f 11 45 b0	 movss	 DWORD PTR $T18[ebp], xmm0
; File D:\_m2work\Server Client TMP4\ClientVS22\source\UserInterface\PythonItem.cpp

; 325  : 		pGroundItemInstance->dwEffectInstanceIndex = 

  001d0	f3 0f 10 85 3c
	ff ff ff	 movss	 xmm0, DWORD PTR _y$GSCopy$1$[ebp]
  001d8	0f 57 05 00 00
	00 00		 xorps	 xmm0, DWORD PTR __xmm@80000000800000008000000080000000
  001df	50		 push	 eax
  001e0	8d 45 b0	 lea	 eax, DWORD PTR $T18[ebp]
  001e3	f3 0f 11 85 40
	ff ff ff	 movss	 DWORD PTR $T12[ebp], xmm0
  001eb	50		 push	 eax
  001ec	ff 76 30	 push	 DWORD PTR [esi+48]
; File D:\_m2work\Server Client TMP4\ClientVS22\extern\include\d3dx8math.inl

; 181  :     y = fy;

  001ef	f3 0f 11 45 b4	 movss	 DWORD PTR $T18[ebp+4], xmm0

; 182  :     z = fz;

  001f4	f3 0f 10 85 34
	ff ff ff	 movss	 xmm0, DWORD PTR $T8[ebp]

; 180  :     x = fx;

  001fc	c7 45 a4 00 00
	00 00		 mov	 DWORD PTR $T16[ebp], 0

; 181  :     y = fy;

  00203	c7 45 a8 00 00
	00 00		 mov	 DWORD PTR $T16[ebp+4], 0

; 182  :     z = fz;

  0020a	c7 45 ac 00 00
	00 00		 mov	 DWORD PTR $T16[ebp+8], 0
  00211	f3 0f 11 45 b8	 movss	 DWORD PTR $T18[ebp+8], xmm0
; File D:\_m2work\Server Client TMP4\ClientVS22\source\UserInterface\PythonItem.cpp

; 325  : 		pGroundItemInstance->dwEffectInstanceIndex = 

  00216	e8 00 00 00 00	 call	 ?CreateEffect@CEffectManager@@QAEHKABUD3DXVECTOR3@@0@Z ; CEffectManager::CreateEffect
  0021b	89 87 28 02 00
	00		 mov	 DWORD PTR [edi+552], eax

; 326  : 		rem.CreateEffect(m_dwDropItemEffectID, D3DXVECTOR3(x, -y, z), D3DXVECTOR3(0,0,0));		
; 327  : 
; 328  : 		pGroundItemInstance->eDropSoundType=__GetDropSoundType(*pItemData);

  00221	ff b5 38 ff ff
	ff		 push	 DWORD PTR _pItemData$[ebp]
  00227	e8 00 00 00 00	 call	 ?__GetDropSoundType@CPythonItem@@IAEKABVCItemData@@@Z ; CPythonItem::__GetDropSoundType

; 329  : 	}
; 330  : 
; 331  : 
; 332  : 	D3DXVECTOR3 normal;
; 333  : 	if (!CPythonBackground::Instance().GetNormal(int(x),int(y),&normal))

  0022c	8b 0d 00 00 00
	00		 mov	 ecx, DWORD PTR ?ms_singleton@?$CSingleton@VCPythonBackground@@@@0PAVCPythonBackground@@A ; CSingleton<CPythonBackground>::ms_singleton
  00232	89 87 20 02 00
	00		 mov	 DWORD PTR [edi+544], eax
  00238	8d 45 8c	 lea	 eax, DWORD PTR _normal$[ebp]
  0023b	50		 push	 eax
  0023c	f3 0f 2c 85 3c
	ff ff ff	 cvttss2si eax, DWORD PTR _y$GSCopy$1$[ebp]
  00244	50		 push	 eax
  00245	f3 0f 2c 85 10
	ff ff ff	 cvttss2si eax, DWORD PTR tv1979[ebp]
  0024d	50		 push	 eax
  0024e	e8 00 00 00 00	 call	 ?GetNormal@CMapManager@@QAE_NHHPAUD3DXVECTOR3@@@Z ; CMapManager::GetNormal
  00253	84 c0		 test	 al, al
  00255	75 1b		 jne	 SHORT $LN7@CreateItem
  00257	0f 57 c9	 xorps	 xmm1, xmm1
; File D:\_m2work\Server Client TMP4\ClientVS22\extern\include\d3dx8math.inl

; 182  :     z = fz;

  0025a	c7 45 d0 00 00
	80 3f		 mov	 DWORD PTR $T24[ebp+8], 1065353216 ; 3f800000H
; File D:\_m2work\Server Client TMP4\ClientVS22\source\UserInterface\PythonItem.cpp

; 334  : 		normal = D3DXVECTOR3(0.0f,0.0f,1.0f);

  00261	8b 45 d0	 mov	 eax, DWORD PTR $T24[ebp+8]
  00264	0f 57 c0	 xorps	 xmm0, xmm0
  00267	0f 14 c1	 unpcklps xmm0, xmm1
  0026a	66 0f d6 45 8c	 movq	 QWORD PTR _normal$[ebp], xmm0
  0026f	89 45 94	 mov	 DWORD PTR _normal$[ebp+8], eax
$LN7@CreateItem:

; 335  : 
; 336  : 	pGroundItemInstance->ThingInstance.Clear();

  00272	8d 4f 3c	 lea	 ecx, DWORD PTR [edi+60]
  00275	e8 00 00 00 00	 call	 ?Clear@CGraphicObjectInstance@@QAEXXZ ; CGraphicObjectInstance::Clear

; 337  : 	pGroundItemInstance->ThingInstance.ReserveModelThing(1);

  0027a	6a 01		 push	 1
  0027c	8d 4f 3c	 lea	 ecx, DWORD PTR [edi+60]
  0027f	e8 00 00 00 00	 call	 ?ReserveModelThing@CGraphicThingInstance@@QAEXH@Z ; CGraphicThingInstance::ReserveModelThing

; 338  : 	pGroundItemInstance->ThingInstance.ReserveModelInstance(1);

  00284	6a 01		 push	 1
  00286	8d 4f 3c	 lea	 ecx, DWORD PTR [edi+60]
  00289	e8 00 00 00 00	 call	 ?ReserveModelInstance@CGraphicThingInstance@@QAEXH@Z ; CGraphicThingInstance::ReserveModelInstance

; 339  : 	pGroundItemInstance->ThingInstance.RegisterModelThing(0, pItemModel);

  0028e	ff b5 44 ff ff
	ff		 push	 DWORD PTR _pItemModel$1$[ebp]
  00294	8d 4f 3c	 lea	 ecx, DWORD PTR [edi+60]
  00297	6a 00		 push	 0
  00299	e8 00 00 00 00	 call	 ?RegisterModelThing@CGraphicThingInstance@@QAEXHPAVCGraphicThing@@@Z ; CGraphicThingInstance::RegisterModelThing

; 340  : 	pGroundItemInstance->ThingInstance.SetModelInstance(0, 0, 0);

  0029e	6a ff		 push	 -1
  002a0	6a 00		 push	 0
  002a2	6a 00		 push	 0
  002a4	6a 00		 push	 0
  002a6	8d 4f 3c	 lea	 ecx, DWORD PTR [edi+60]
  002a9	e8 00 00 00 00	 call	 ?SetModelInstance@CGraphicThingInstance@@QAE_NHHHH@Z ; CGraphicThingInstance::SetModelInstance

; 341  : 	if (bDrop)

  002ae	80 7b 18 00	 cmp	 BYTE PTR _bDrop$[ebx], 0
  002b2	f3 0f 10 8d 40
	ff ff ff	 movss	 xmm1, DWORD PTR $T12[ebp]
  002ba	74 2d		 je	 SHORT $LN8@CreateItem
; File D:\_m2work\Server Client TMP4\ClientVS22\extern\include\d3dx8math.inl

; 182  :     z = fz;

  002bc	f3 0f 10 85 34
	ff ff ff	 movss	 xmm0, DWORD PTR $T8[ebp]
  002c4	0f 57 d2	 xorps	 xmm2, xmm2
  002c7	f3 0f 11 45 d0	 movss	 DWORD PTR $T31[ebp+8], xmm0
; File D:\_m2work\Server Client TMP4\ClientVS22\source\UserInterface\PythonItem.cpp

; 343  : 		pGroundItemInstance->v3EndPosition = D3DXVECTOR3(x,-y,z);

  002cc	0f 28 85 10 ff
	ff ff		 movaps	 xmm0, XMMWORD PTR tv1979[ebp]
  002d3	8b 45 d0	 mov	 eax, DWORD PTR $T31[ebp+8]
  002d6	0f 14 c1	 unpcklps xmm0, xmm1
  002d9	0f 57 c9	 xorps	 xmm1, xmm1
  002dc	66 0f d6 47 08	 movq	 QWORD PTR [edi+8], xmm0
  002e1	0f 57 c0	 xorps	 xmm0, xmm0
  002e4	89 47 10	 mov	 DWORD PTR [edi+16], eax

; 344  : 		pGroundItemInstance->ThingInstance.SetPosition(0,0,0);
; 345  : 	}

  002e7	eb 0f		 jmp	 SHORT $LN9@CreateItem
$LN8@CreateItem:
  002e9	0f 28 85 10 ff
	ff ff		 movaps	 xmm0, XMMWORD PTR tv1979[ebp]
  002f0	f3 0f 10 95 34
	ff ff ff	 movss	 xmm2, DWORD PTR $T8[ebp]
$LN9@CreateItem:

; 346  : 	else
; 347  : 		pGroundItemInstance->ThingInstance.SetPosition(x, -y, z);
; 348  : 
; 349  : 	pGroundItemInstance->ThingInstance.Update();

  002f8	83 ec 0c	 sub	 esp, 12			; 0000000cH
  002fb	8d 4f 3c	 lea	 ecx, DWORD PTR [edi+60]
  002fe	f3 0f 11 54 24
	08		 movss	 DWORD PTR [esp+8], xmm2
  00304	f3 0f 11 4c 24
	04		 movss	 DWORD PTR [esp+4], xmm1
  0030a	f3 0f 11 04 24	 movss	 DWORD PTR [esp], xmm0
  0030f	e8 00 00 00 00	 call	 ?SetPosition@CGraphicObjectInstance@@QAEXMMM@Z ; CGraphicObjectInstance::SetPosition
  00314	8d 4f 3c	 lea	 ecx, DWORD PTR [edi+60]
  00317	e8 00 00 00 00	 call	 ?Update@CGraphicObjectInstance@@QAEXXZ ; CGraphicObjectInstance::Update

; 350  : 	pGroundItemInstance->ThingInstance.Transform();

  0031c	8d 4f 3c	 lea	 ecx, DWORD PTR [edi+60]
  0031f	e8 00 00 00 00	 call	 ?Transform@CGraphicObjectInstance@@QAEXXZ ; CGraphicObjectInstance::Transform

; 351  : 	pGroundItemInstance->ThingInstance.Deform();

  00324	8d 4f 3c	 lea	 ecx, DWORD PTR [edi+60]
  00327	e8 00 00 00 00	 call	 ?Deform@CGraphicObjectInstance@@QAEXXZ ; CGraphicObjectInstance::Deform

; 352  : 
; 353  : 	if (bDrop)

  0032c	80 7b 18 00	 cmp	 BYTE PTR _bDrop$[ebx], 0
  00330	0f 84 bf 04 00
	00		 je	 $LN10@CreateItem

; 354  : 	{
; 355  : 		D3DXVECTOR3 vMin, vMax;
; 356  : 		pGroundItemInstance->ThingInstance.GetBoundBox(&vMin,&vMax);

  00336	8d 45 98	 lea	 eax, DWORD PTR _vMax$15[ebp]
  00339	50		 push	 eax
  0033a	8d 45 b0	 lea	 eax, DWORD PTR _vMin$19[ebp]
  0033d	50		 push	 eax
  0033e	8d 4f 3c	 lea	 ecx, DWORD PTR [edi+60]
  00341	e8 00 00 00 00	 call	 ?GetBoundBox@CGraphicThingInstance@@QAEXPAUD3DXVECTOR3@@0@Z ; CGraphicThingInstance::GetBoundBox
; File D:\_m2work\Server Client TMP4\ClientVS22\extern\include\d3dx8math.inl

; 257  :     return D3DXVECTOR3(x + v.x, y + v.y, z + v.z);

  00346	f3 0f 10 5d b0	 movss	 xmm3, DWORD PTR _vMin$19[ebp]
; File C:\Program Files\Microsoft Visual Studio\2022\Community\VC\Tools\MSVC\14.44.35207\include\algorithm

; 8403 :     _STD _Sort_unchecked(_UFirst, _ULast, _ULast - _UFirst, _STD _Pass_fn(_Pred));

  0034b	8d 55 ec	 lea	 edx, DWORD PTR _f$32[ebp+24]
; File D:\_m2work\Server Client TMP4\ClientVS22\extern\include\d3dx8math.inl

; 257  :     return D3DXVECTOR3(x + v.x, y + v.y, z + v.z);

  0034e	f3 0f 10 7d 98	 movss	 xmm7, DWORD PTR _vMax$15[ebp]
; File C:\Program Files\Microsoft Visual Studio\2022\Community\VC\Tools\MSVC\14.44.35207\include\algorithm

; 8403 :     _STD _Sort_unchecked(_UFirst, _ULast, _ULast - _UFirst, _STD _Pass_fn(_Pred));

  00353	8d 4d d4	 lea	 ecx, DWORD PTR _f$32[ebp]
; File D:\_m2work\Server Client TMP4\ClientVS22\extern\include\d3dx8math.inl

; 257  :     return D3DXVECTOR3(x + v.x, y + v.y, z + v.z);

  00356	f3 0f 10 6d 9c	 movss	 xmm5, DWORD PTR _vMax$15[ebp+4]
  0035b	f3 0f 58 df	 addss	 xmm3, xmm7
  0035f	f3 0f 10 55 b4	 movss	 xmm2, DWORD PTR _vMin$19[ebp+4]
  00364	f3 0f 10 65 a0	 movss	 xmm4, DWORD PTR _vMax$15[ebp+8]
  00369	f3 0f 58 d5	 addss	 xmm2, xmm5
  0036d	f3 0f 10 4d b8	 movss	 xmm1, DWORD PTR _vMin$19[ebp+8]

; 269  :     return D3DXVECTOR3(x * f, y * f, z * f);

  00372	f3 0f 10 05 00
	00 00 00	 movss	 xmm0, DWORD PTR __real@3f000000

; 257  :     return D3DXVECTOR3(x + v.x, y + v.y, z + v.z);

  0037a	f3 0f 58 cc	 addss	 xmm1, xmm4
; File D:\_m2work\Server Client TMP4\ClientVS22\source\UserInterface\PythonItem.cpp

; 361  : 				std::make_pair(vMax.x - vMin.x,0),

  0037e	f3 0f 5c 7d b0	 subss	 xmm7, DWORD PTR _vMin$19[ebp]

; 362  : 				std::make_pair(vMax.y - vMin.y,1),

  00383	f3 0f 5c 6d b4	 subss	 xmm5, DWORD PTR _vMin$19[ebp+4]

; 363  : 				std::make_pair(vMax.z - vMin.z,2)

  00388	f3 0f 5c 65 b8	 subss	 xmm4, DWORD PTR _vMin$19[ebp+8]
; File D:\_m2work\Server Client TMP4\ClientVS22\extern\include\d3dx8math.inl

; 269  :     return D3DXVECTOR3(x * f, y * f, z * f);

  0038d	f3 0f 59 d8	 mulss	 xmm3, xmm0
; File C:\Program Files\Microsoft Visual Studio\2022\Community\VC\Tools\MSVC\14.44.35207\include\algorithm

; 8403 :     _STD _Sort_unchecked(_UFirst, _ULast, _ULast - _UFirst, _STD _Pass_fn(_Pred));

  00391	c6 85 44 ff ff
	ff 00		 mov	 BYTE PTR $T13[ebp], 0
  00398	ff b5 44 ff ff
	ff		 push	 DWORD PTR $T13[ebp]
; File D:\_m2work\Server Client TMP4\ClientVS22\extern\include\d3dx8math.inl

; 269  :     return D3DXVECTOR3(x * f, y * f, z * f);

  0039e	f3 0f 59 d0	 mulss	 xmm2, xmm0
; File C:\Program Files\Microsoft Visual Studio\2022\Community\VC\Tools\MSVC\14.44.35207\include\algorithm

; 8403 :     _STD _Sort_unchecked(_UFirst, _ULast, _ULast - _UFirst, _STD _Pass_fn(_Pred));

  003a2	6a 03		 push	 3
; File D:\_m2work\Server Client TMP4\ClientVS22\extern\include\d3dx8math.inl

; 269  :     return D3DXVECTOR3(x * f, y * f, z * f);

  003a4	f3 0f 59 c8	 mulss	 xmm1, xmm0
; File C:\Program Files\Microsoft Visual Studio\2022\Community\VC\Tools\MSVC\14.44.35207\include\utility

; 274  :         : first(_STD forward<_Other1>(_Val1)), second(_STD forward<_Other2>(_Val2)) {

  003a8	c7 45 d8 00 00
	00 00		 mov	 DWORD PTR _f$32[ebp+4], 0
; File D:\_m2work\Server Client TMP4\ClientVS22\source\UserInterface\PythonItem.cpp

; 357  : 		pGroundItemInstance->v3Center = (vMin + vMax) * 0.5f;

  003af	0f 14 da	 unpcklps xmm3, xmm2
  003b2	66 0f d6 5f 30	 movq	 QWORD PTR [edi+48], xmm3
; File D:\_m2work\Server Client TMP4\ClientVS22\extern\include\d3dx8math.inl

; 182  :     z = fz;

  003b7	f3 0f 11 4d d0	 movss	 DWORD PTR $T29[ebp+8], xmm1
; File D:\_m2work\Server Client TMP4\ClientVS22\source\UserInterface\PythonItem.cpp

; 357  : 		pGroundItemInstance->v3Center = (vMin + vMax) * 0.5f;

  003bc	8b 45 d0	 mov	 eax, DWORD PTR $T29[ebp+8]
  003bf	89 47 38	 mov	 DWORD PTR [edi+56], eax
; File C:\Program Files\Microsoft Visual Studio\2022\Community\VC\Tools\MSVC\14.44.35207\include\utility

; 274  :         : first(_STD forward<_Other1>(_Val1)), second(_STD forward<_Other2>(_Val2)) {

  003c2	f3 0f 11 7d d4	 movss	 DWORD PTR _f$32[ebp], xmm7
  003c7	f3 0f 11 6d dc	 movss	 DWORD PTR _f$32[ebp+8], xmm5
  003cc	c7 45 e0 01 00
	00 00		 mov	 DWORD PTR _f$32[ebp+12], 1
  003d3	f3 0f 11 65 e4	 movss	 DWORD PTR _f$32[ebp+16], xmm4
  003d8	c7 45 e8 02 00
	00 00		 mov	 DWORD PTR _f$32[ebp+20], 2
; File C:\Program Files\Microsoft Visual Studio\2022\Community\VC\Tools\MSVC\14.44.35207\include\algorithm

; 8403 :     _STD _Sort_unchecked(_UFirst, _ULast, _ULast - _UFirst, _STD _Pass_fn(_Pred));

  003df	e8 00 00 00 00	 call	 ??$_Sort_unchecked@PAU?$pair@MH@std@@U?$less@X@2@@std@@YAXPAU?$pair@MH@0@0HU?$less@X@0@@Z ; std::_Sort_unchecked<std::pair<float,int> *,std::less<void> >
; File D:\_m2work\Server Client TMP4\ClientVS22\source\UserInterface\PythonItem.cpp

; 398  : 			if (f[0].second == 0)

  003e4	8b 45 d8	 mov	 eax, DWORD PTR _f$32[ebp+4]
; File C:\Program Files\Microsoft Visual Studio\2022\Community\VC\Tools\MSVC\14.44.35207\include\algorithm

; 8403 :     _STD _Sort_unchecked(_UFirst, _ULast, _ULast - _UFirst, _STD _Pass_fn(_Pred));

  003e7	83 c4 08	 add	 esp, 8
; File D:\_m2work\Server Client TMP4\ClientVS22\source\UserInterface\PythonItem.cpp

; 398  : 			if (f[0].second == 0)

  003ea	85 c0		 test	 eax, eax
  003ec	0f 85 d2 00 00
	00		 jne	 $LN17@CreateItem

; 401  : 				pGroundItemInstance->qEnd = 

  003f2	83 ec 08	 sub	 esp, 8
; File D:\_m2work\Server Client TMP4\ClientVS22\extern\include\d3dx8math.inl

; 180  :     x = fx;

  003f5	89 45 bc	 mov	 DWORD PTR $T23[ebp], eax

; 181  :     y = fy;

  003f8	89 45 c0	 mov	 DWORD PTR $T23[ebp+4], eax

; 182  :     z = fz;

  003fb	c7 45 c4 00 00
	80 3f		 mov	 DWORD PTR $T23[ebp+8], 1065353216 ; 3f800000H
; File D:\_m2work\Server Client TMP4\ClientVS22\source\UserInterface\PythonItem.cpp

; 401  : 				pGroundItemInstance->qEnd = 

  00402	c7 44 24 04 cd
	cc cc 3d	 mov	 DWORD PTR [esp+4], 1036831949 ; 3dcccccdH
  0040a	c7 04 24 cd cc
	cc bd		 mov	 DWORD PTR [esp], -1110651699 ; bdcccccdH
  00411	e8 00 00 00 00	 call	 ?frandom@@YAMMM@Z	; frandom
  00416	d9 ee		 fldz
  00418	de c1		 faddp	 ST(1), ST(0)
  0041a	c7 44 24 04 cd
	cc cc 3d	 mov	 DWORD PTR [esp+4], 1036831949 ; 3dcccccdH
  00422	c7 04 24 cd cc
	cc bd		 mov	 DWORD PTR [esp], -1110651699 ; bdcccccdH
  00429	d9 9d 3c ff ff
	ff		 fstp	 DWORD PTR tv1788[ebp]
  0042f	e8 00 00 00 00	 call	 ?frandom@@YAMMM@Z	; frandom
  00434	d9 ee		 fldz
  00436	de c1		 faddp	 ST(1), ST(0)
  00438	d9 9d 40 ff ff
	ff		 fstp	 DWORD PTR tv1789[ebp]
  0043e	e8 00 00 00 00	 call	 ?random@@YAKXZ		; random
  00443	83 e0 01	 and	 eax, 1
  00446	66 0f 6e c0	 movd	 xmm0, eax
  0044a	f3 0f e6 c0	 cvtdq2pd xmm0, xmm0
  0044e	c1 e8 1f	 shr	 eax, 31			; 0000001fH
  00451	f2 0f 58 04 c5
	00 00 00 00	 addsd	 xmm0, QWORD PTR __xmm@41f00000000000000000000000000000[eax*8]
  0045a	c7 44 24 04 cd
	cc cc 3d	 mov	 DWORD PTR [esp+4], 1036831949 ; 3dcccccdH
  00462	c7 04 24 cd cc
	cc bd		 mov	 DWORD PTR [esp], -1110651699 ; bdcccccdH
  00469	66 0f 5a c0	 cvtpd2ps xmm0, xmm0
  0046d	f3 0f 11 85 44
	ff ff ff	 movss	 DWORD PTR tv1800[ebp], xmm0
  00475	e8 00 00 00 00	 call	 ?frandom@@YAMMM@Z	; frandom
  0047a	f3 0f 10 85 44
	ff ff ff	 movss	 xmm0, DWORD PTR tv1800[ebp]
  00482	8d 45 bc	 lea	 eax, DWORD PTR $T23[ebp]
  00485	f3 0f 58 c0	 addss	 xmm0, xmm0
  00489	8d 55 c8	 lea	 edx, DWORD PTR $T27[ebp]
  0048c	f3 0f 5c 05 00
	00 00 00	 subss	 xmm0, DWORD PTR __real@3f800000
  00494	f3 0f 11 85 44
	ff ff ff	 movss	 DWORD PTR tv2171[ebp], xmm0
  0049c	d8 85 44 ff ff
	ff		 fadd	 DWORD PTR tv2171[ebp]
; File D:\_m2work\Server Client TMP4\ClientVS22\extern\include\d3dx8math.inl

; 181  :     y = fy;

  004a2	f3 0f 10 85 40
	ff ff ff	 movss	 xmm0, DWORD PTR tv1789[ebp]
  004aa	f3 0f 11 45 cc	 movss	 DWORD PTR $T27[ebp+4], xmm0

; 182  :     z = fz;

  004af	f3 0f 10 85 3c
	ff ff ff	 movss	 xmm0, DWORD PTR tv1788[ebp]
  004b7	d9 5d c8	 fstp	 DWORD PTR $T27[ebp]
  004ba	f3 0f 11 45 d0	 movss	 DWORD PTR $T27[ebp+8], xmm0
; File D:\_m2work\Server Client TMP4\ClientVS22\source\UserInterface\PythonItem.cpp

; 408  : 			}

  004bf	e9 91 01 00 00	 jmp	 $LN246@CreateItem
$LN17@CreateItem:

; 409  : 			else if (f[0].second == 1)

  004c4	c7 45 c8 00 00
	00 00		 mov	 DWORD PTR $T30[ebp], 0
  004cb	c7 45 cc 00 00
	00 00		 mov	 DWORD PTR $T30[ebp+4], 0
  004d2	c7 45 d0 00 00
	80 3f		 mov	 DWORD PTR $T30[ebp+8], 1065353216 ; 3f800000H
  004d9	83 f8 01	 cmp	 eax, 1
  004dc	0f 85 b3 00 00
	00		 jne	 $LN19@CreateItem

; 410  : 			{
; 411  : 				pGroundItemInstance->qEnd = 

  004e2	83 ec 08	 sub	 esp, 8
  004e5	c7 44 24 04 cd
	cc cc 3d	 mov	 DWORD PTR [esp+4], 1036831949 ; 3dcccccdH
  004ed	c7 04 24 cd cc
	cc bd		 mov	 DWORD PTR [esp], -1110651699 ; bdcccccdH
  004f4	e8 00 00 00 00	 call	 ?frandom@@YAMMM@Z	; frandom
  004f9	d9 ee		 fldz
  004fb	de c1		 faddp	 ST(1), ST(0)
  004fd	d9 9d 40 ff ff
	ff		 fstp	 DWORD PTR tv1799[ebp]
  00503	e8 00 00 00 00	 call	 ?random@@YAKXZ		; random
  00508	83 e0 01	 and	 eax, 1
  0050b	66 0f 6e c0	 movd	 xmm0, eax
  0050f	f3 0f e6 c0	 cvtdq2pd xmm0, xmm0
  00513	c1 e8 1f	 shr	 eax, 31			; 0000001fH
  00516	f2 0f 58 04 c5
	00 00 00 00	 addsd	 xmm0, QWORD PTR __xmm@41f00000000000000000000000000000[eax*8]
  0051f	c7 44 24 04 cd
	cc cc 3d	 mov	 DWORD PTR [esp+4], 1036831949 ; 3dcccccdH
  00527	c7 04 24 cd cc
	cc bd		 mov	 DWORD PTR [esp], -1110651699 ; bdcccccdH
  0052e	66 0f 5a c0	 cvtpd2ps xmm0, xmm0
  00532	f3 0f 11 85 44
	ff ff ff	 movss	 DWORD PTR tv1825[ebp], xmm0
  0053a	e8 00 00 00 00	 call	 ?frandom@@YAMMM@Z	; frandom
  0053f	f3 0f 10 85 44
	ff ff ff	 movss	 xmm0, DWORD PTR tv1825[ebp]
  00547	f3 0f 58 c0	 addss	 xmm0, xmm0
  0054b	c7 44 24 04 cd
	cc cc 3d	 mov	 DWORD PTR [esp+4], 1036831949 ; 3dcccccdH
  00553	c7 04 24 cd cc
	cc bd		 mov	 DWORD PTR [esp], -1110651699 ; bdcccccdH
  0055a	f3 0f 5c 05 00
	00 00 00	 subss	 xmm0, DWORD PTR __real@3f800000
  00562	f3 0f 11 85 44
	ff ff ff	 movss	 DWORD PTR tv2128[ebp], xmm0
  0056a	d8 85 44 ff ff
	ff		 fadd	 DWORD PTR tv2128[ebp]
  00570	d9 9d 44 ff ff
	ff		 fstp	 DWORD PTR tv2321[ebp]
  00576	e8 00 00 00 00	 call	 ?frandom@@YAMMM@Z	; frandom
; File D:\_m2work\Server Client TMP4\ClientVS22\extern\include\d3dx8math.inl

; 181  :     y = fy;

  0057b	f3 0f 10 85 44
	ff ff ff	 movss	 xmm0, DWORD PTR tv2321[ebp]
  00583	f3 0f 11 45 c0	 movss	 DWORD PTR $T22[ebp+4], xmm0

; 182  :     z = fz;

  00588	f3 0f 10 85 40
	ff ff ff	 movss	 xmm0, DWORD PTR tv1799[ebp]
; File D:\_m2work\Server Client TMP4\ClientVS22\source\UserInterface\PythonItem.cpp

; 418  : 			}

