; Listing generated by Microsoft (R) Optimizing Compiler Version 19.44.35217.0 

	TITLE	d:\_m2work\server client tmp4\clientvs22\vs_files\userinterface\distribute\pythonbackgroundmodule.obj
	.686P
	.XMM
	include listing.inc
	.model	flat

INCLUDELIB OLDNAMES

PUBLIC	??_C@_0EI@HLELLDPI@background?4RegisterEnvironmentD@ ; `string'
PUBLIC	??_C@_03LPALPDIP@fff@				; `string'
PUBLIC	??_C@_03JDANDILB@?$CFd?5@			; `string'
PUBLIC	??_C@_04KDJJDIPA@iifs@				; `string'
PUBLIC	??_C@_0CC@JHPGFABG@ePart?$CI?$CFd?$CJ?$DMbackground?4PART_NUM?$CI?$CF@ ; `string'
PUBLIC	??_C@_0CL@HHHOJMJN@background?4SetSplatLimit?$CIiSplat@ ; `string'
PUBLIC	??_C@_04MMEPMOLC@ifff@				; `string'
PUBLIC	??_C@_03FEAIAPNA@sii@				; `string'
PUBLIC	??_C@_0BB@BFKDCFBH@IsSoftwareTiling@		; `string'
PUBLIC	??_C@_0BF@ODLMFADE@EnableSoftwareTiling@	; `string'
PUBLIC	??_C@_0L@LGAPBDCD@EnableSnow@			; `string'
PUBLIC	??_C@_0BO@OIANPCLB@GlobalPositionToLocalPosition@ ; `string'
PUBLIC	??_C@_0BI@NCKBLOGC@GlobalPositionToMapInfo@	; `string'
PUBLIC	??_C@_0BE@LMGPCAD@GetRenderShadowTime@		; `string'
PUBLIC	??_C@_07DJFPJOEL@LoadMap@			; `string'
PUBLIC	??_C@_07BDCAJABG@Destroy@			; `string'
PUBLIC	??_C@_0BI@CHPHFBLI@RegisterEnvironmentData@	; `string'
PUBLIC	??_C@_0BD@BHFOHELP@SetEnvironmentData@		; `string'
PUBLIC	??_C@_0BC@DINKEDB@GetCurrentMapName@		; `string'
PUBLIC	??_C@_0BA@DNJBOOGC@GetPickingPoint@		; `string'
PUBLIC	??_C@_0BB@JHBDNCLO@BeginEnvironment@		; `string'
PUBLIC	??_C@_0P@DMJMMGKP@EndEnvironment@		; `string'
PUBLIC	??_C@_0BF@DFKOLKBM@SetCharacterDirLight@	; `string'
PUBLIC	??_C@_0BG@PNPLCIKE@SetBackgroundDirLight@	; `string'
PUBLIC	??_C@_0L@KIAPHAEH@Initialize@			; `string'
PUBLIC	??_C@_0BA@FDBALAKK@RenderPCBlocker@		; `string'
PUBLIC	??_C@_0BA@OAOAOPAN@RenderCollision@		; `string'
PUBLIC	??_C@_09LFBELEBM@RenderSky@			; `string'
PUBLIC	??_C@_0M@LNFEENAM@RenderCloud@			; `string'
PUBLIC	??_C@_0M@FKCFAPAJ@RenderWater@			; `string'
PUBLIC	??_C@_0N@NIFFJBKD@RenderEffect@			; `string'
PUBLIC	??_C@_0BG@FMKIIHNL@RenderBeforeLensFlare@	; `string'
PUBLIC	??_C@_0BF@IFHDODFN@RenderAfterLensFlare@	; `string'
PUBLIC	??_C@_0BP@HPJLNAG@RenderCharacterShadowToTexture@ ; `string'
PUBLIC	??_C@_0O@INGOKFGH@RenderDungeon@		; `string'
PUBLIC	??_C@_09EOGEIJMK@GetHeight@			; `string'
PUBLIC	??_C@_0P@JLOPHJNK@SetShadowLevel@		; `string'
PUBLIC	??_C@_0P@PBNEJLOP@SetVisiblePart@		; `string'
PUBLIC	??_C@_0BC@CCJLGKJP@GetShadowMapColor@		; `string'
PUBLIC	??_C@_0O@MBDLBPAA@SetSplatLimit@		; `string'
PUBLIC	??_C@_0BE@OLLMHPAP@GetRenderedSplatNum@		; `string'
PUBLIC	??_C@_0CD@KCFKJMJJ@GetRenderedGraphicThingInstance@ ; `string'
PUBLIC	??_C@_0BG@HJLACBME@SelectViewDistanceNum@	; `string'
PUBLIC	??_C@_0BD@MAFLMANF@SetViewDistanceSet@		; `string'
PUBLIC	??_C@_0L@HDMJNMBI@GetFarClip@			; `string'
PUBLIC	??_C@_0BD@DLMMDNAG@GetDistanceSetInfo@		; `string'
PUBLIC	??_C@_0N@BIHACEOH@SetBGLoading@			; `string'
PUBLIC	??_C@_0O@JBGHJBE@SetRenderSort@			; `string'
PUBLIC	??_C@_0BD@FPJHLEBA@SetTransparentTree@		; `string'
PUBLIC	??_C@_0M@JALIDFKN@SetXMasTree@			; `string'
PUBLIC	??_C@_0BH@MNHHOIMG@RegisterDungeonMapName@	; `string'
PUBLIC	??_C@_0BB@CIANHCAN@VisibleGuildArea@		; `string'
PUBLIC	??_C@_0BB@NIDJGFIB@DisableGuildArea@		; `string'
PUBLIC	??_C@_08LPNOKPMJ@WarpTest@			; `string'
PUBLIC	??_C@_0L@EGCKCJDC@background@			; `string'
PUBLIC	??_C@_08NJILKGEB@PART_SKY@			; `string'
PUBLIC	??_C@_09GABNPPB@PART_TREE@			; `string'
PUBLIC	??_C@_0L@OMDBBBIA@PART_CLOUD@			; `string'
PUBLIC	??_C@_0L@LEAFDIF@PART_WATER@			; `string'
PUBLIC	??_C@_0M@FDJPOPAP@PART_OBJECT@			; `string'
PUBLIC	??_C@_0N@JJNCMAMK@PART_TERRAIN@			; `string'
PUBLIC	??_C@_0BI@KFLFFAKF@SKY_RENDER_MODE_DEFAULT@	; `string'
PUBLIC	??_C@_0BI@JEJGCBJM@SKY_RENDER_MODE_DIFFUSE@	; `string'
PUBLIC	??_C@_0BI@NLDLHPN@SKY_RENDER_MODE_TEXTURE@	; `string'
PUBLIC	??_C@_0BJ@IGDGIPGO@SKY_RENDER_MODE_MODULATE@	; `string'
PUBLIC	??_C@_0BL@NDPELIAM@SKY_RENDER_MODE_MODULATE2X@	; `string'
PUBLIC	??_C@_0BL@NHHJMELO@SKY_RENDER_MODE_MODULATE4X@	; `string'
PUBLIC	??_C@_0M@GJOLHPMA@SHADOW_NONE@			; `string'
PUBLIC	??_C@_0O@KCPINCHK@SHADOW_GROUND@		; `string'
PUBLIC	??_C@_0BH@GACINHHJ@SHADOW_GROUND_AND_SOLO@	; `string'
PUBLIC	??_C@_0L@IDBIEHAB@SHADOW_ALL@			; `string'
PUBLIC	??_C@_0BA@HAKJACB@SHADOW_ALL_HIGH@		; `string'
PUBLIC	??_C@_0P@OLMEFOLC@SHADOW_ALL_MAX@		; `string'
PUBLIC	??_C@_09PGFHANGE@DISTANCE0@			; `string'
PUBLIC	??_C@_09OPEMDMCF@DISTANCE1@			; `string'
PUBLIC	??_C@_09MEGBGPOG@DISTANCE2@			; `string'
PUBLIC	??_C@_09NNHKFOKH@DISTANCE3@			; `string'
PUBLIC	??_C@_09JCDLMIGA@DISTANCE4@			; `string'
PUBLIC	??_C@_0O@OJDBENMM@DISTANCE_SORT@		; `string'
PUBLIC	??_C@_0N@CKPMLBKJ@TEXTURE_SORT@			; `string'
EXTRN	?SetTerrainRenderSort@CMapManager@@QAEXW4ETerrainRenderSort@CMapOutdoor@@@Z:PROC ; CMapManager::SetTerrainRenderSort
EXTRN	?SetTransparentTree@CMapManager@@QAEX_N@Z:PROC	; CMapManager::SetTransparentTree
EXTRN	?PyTuple_GetBoolean@@YA_NPAU_object@@HPA_N@Z:PROC ; PyTuple_GetBoolean
EXTRN	?GetRenderedSplatNum@CMapManager@@QAEAAV?$vector@HV?$allocator@H@std@@@std@@PAH0PAM@Z:PROC ; CMapManager::GetRenderedSplatNum
EXTRN	?GetRenderedGraphicThingInstanceNum@CMapManager@@QAEAAV?$vector@USCRCWithNumber@CArea@@V?$allocator@USCRCWithNumber@CArea@@@std@@@std@@PAK0@Z:PROC ; CMapManager::GetRenderedGraphicThingInstanceNum
EXTRN	?GetEnvironmentData@CMapManager@@QAE_NKPAPBUSEnvironmentData@@@Z:PROC ; CMapManager::GetEnvironmentData
EXTRN	?ResetEnvironmentDataPtr@CMapManager@@QAEXPBUSEnvironmentData@@@Z:PROC ; CMapManager::ResetEnvironmentDataPtr
EXTRN	?RegisterEnvironmentData@CMapManager@@QAE_NKPBD@Z:PROC ; CMapManager::RegisterEnvironmentData
EXTRN	?IsSoftwareTilingEnable@CMapManager@@QAE_NXZ:PROC ; CMapManager::IsSoftwareTilingEnable
EXTRN	?Py_BadArgument@@YAPAU_object@@XZ:PROC		; Py_BadArgument
;	COMDAT ?s_methods@?1??initBackground@@YAXXZ@4PAUPyMethodDef@@A
_DATA	SEGMENT
?s_methods@?1??initBackground@@YAXXZ@4PAUPyMethodDef@@A DD FLAT:??_C@_0BB@BFKDCFBH@IsSoftwareTiling@ ; `initBackground'::`2'::s_methods
	DD	FLAT:?backgroundIsSoftwareTiling@@YAPAU_object@@PAU1@0@Z
	DD	01H
	ORG $+4
	DD	FLAT:??_C@_0BF@ODLMFADE@EnableSoftwareTiling@
	DD	FLAT:?backgroundEnableSoftwareTiling@@YAPAU_object@@PAU1@0@Z
	DD	01H
	ORG $+4
	DD	FLAT:??_C@_0L@LGAPBDCD@EnableSnow@
	DD	FLAT:?backgroundEnableSnow@@YAPAU_object@@PAU1@0@Z
	DD	01H
	ORG $+4
	DD	FLAT:??_C@_0BO@OIANPCLB@GlobalPositionToLocalPosition@
	DD	FLAT:?backgroundGlobalPositionToLocalPosition@@YAPAU_object@@PAU1@0@Z
	DD	01H
	ORG $+4
	DD	FLAT:??_C@_0BI@NCKBLOGC@GlobalPositionToMapInfo@
	DD	FLAT:?backgroundGlobalPositionToMapInfo@@YAPAU_object@@PAU1@0@Z
	DD	01H
	ORG $+4
	DD	FLAT:??_C@_0BE@LMGPCAD@GetRenderShadowTime@
	DD	FLAT:?backgroundGetRenderShadowTime@@YAPAU_object@@PAU1@0@Z
	DD	01H
	ORG $+4
	DD	FLAT:??_C@_07DJFPJOEL@LoadMap@
	DD	FLAT:?backgroundLoadMap@@YAPAU_object@@PAU1@0@Z
	DD	01H
	ORG $+4
	DD	FLAT:??_C@_07BDCAJABG@Destroy@
	DD	FLAT:?backgroundDestroy@@YAPAU_object@@PAU1@0@Z
	DD	01H
	ORG $+4
	DD	FLAT:??_C@_0BI@CHPHFBLI@RegisterEnvironmentData@
	DD	FLAT:?backgroundRegisterEnvironmentData@@YAPAU_object@@PAU1@0@Z
	DD	01H
	ORG $+4
	DD	FLAT:??_C@_0BD@BHFOHELP@SetEnvironmentData@
	DD	FLAT:?backgroundSetEnvironmentData@@YAPAU_object@@PAU1@0@Z
	DD	01H
	ORG $+4
	DD	FLAT:??_C@_0BC@DINKEDB@GetCurrentMapName@
	DD	FLAT:?backgroundGetCurrentMapName@@YAPAU_object@@PAU1@0@Z
	DD	01H
	ORG $+4
	DD	FLAT:??_C@_0BA@DNJBOOGC@GetPickingPoint@
	DD	FLAT:?backgroundGetPickingPoint@@YAPAU_object@@PAU1@0@Z
	DD	01H
	ORG $+4
	DD	FLAT:??_C@_0BB@JHBDNCLO@BeginEnvironment@
	DD	FLAT:?backgroundBeginEnvironment@@YAPAU_object@@PAU1@0@Z
	DD	01H
	ORG $+4
	DD	FLAT:??_C@_0P@DMJMMGKP@EndEnvironment@
	DD	FLAT:?backgroundEndEnvironemt@@YAPAU_object@@PAU1@0@Z
	DD	01H
	ORG $+4
	DD	FLAT:??_C@_0BF@DFKOLKBM@SetCharacterDirLight@
	DD	FLAT:?backgroundSetCharacterDirLight@@YAPAU_object@@PAU1@0@Z
	DD	01H
	ORG $+4
	DD	FLAT:??_C@_0BG@PNPLCIKE@SetBackgroundDirLight@
	DD	FLAT:?backgroundSetBackgroundDirLight@@YAPAU_object@@PAU1@0@Z
	DD	01H
	ORG $+4
	DD	FLAT:??_C@_0L@KIAPHAEH@Initialize@
	DD	FLAT:?backgroundInitialize@@YAPAU_object@@PAU1@0@Z
	DD	01H
	ORG $+4
	DD	FLAT:??_C@_06LMAGPFNF@Update@
	DD	FLAT:?backgroundUpdate@@YAPAU_object@@PAU1@0@Z
	DD	01H
	ORG $+4
	DD	FLAT:??_C@_06EPLDPNDB@Render@
	DD	FLAT:?backgroundRender@@YAPAU_object@@PAU1@0@Z
	DD	01H
	ORG $+4
	DD	FLAT:??_C@_0BA@FDBALAKK@RenderPCBlocker@
	DD	FLAT:?backgroundRenderPCBlocker@@YAPAU_object@@PAU1@0@Z
	DD	01H
	ORG $+4
	DD	FLAT:??_C@_0BA@OAOAOPAN@RenderCollision@
	DD	FLAT:?backgroundRenderCollision@@YAPAU_object@@PAU1@0@Z
	DD	01H
	ORG $+4
	DD	FLAT:??_C@_09LFBELEBM@RenderSky@
	DD	FLAT:?backgroundRenderSky@@YAPAU_object@@PAU1@0@Z
	DD	01H
	ORG $+4
	DD	FLAT:??_C@_0M@LNFEENAM@RenderCloud@
	DD	FLAT:?backgroundRenderCloud@@YAPAU_object@@PAU1@0@Z
	DD	01H
	ORG $+4
	DD	FLAT:??_C@_0M@FKCFAPAJ@RenderWater@
	DD	FLAT:?backgroundRenderWater@@YAPAU_object@@PAU1@0@Z
	DD	01H
	ORG $+4
	DD	FLAT:??_C@_0N@NIFFJBKD@RenderEffect@
	DD	FLAT:?backgroundRenderEffect@@YAPAU_object@@PAU1@0@Z
	DD	01H
	ORG $+4
	DD	FLAT:??_C@_0BG@FMKIIHNL@RenderBeforeLensFlare@
	DD	FLAT:?backgroundRenderBeforeLensFlare@@YAPAU_object@@PAU1@0@Z
	DD	01H
	ORG $+4
	DD	FLAT:??_C@_0BF@IFHDODFN@RenderAfterLensFlare@
	DD	FLAT:?backgroundRenderAfterLensFlare@@YAPAU_object@@PAU1@0@Z
	DD	01H
	ORG $+4
	DD	FLAT:??_C@_0BP@HPJLNAG@RenderCharacterShadowToTexture@
	DD	FLAT:?backgroundRenderCharacterShadowToTexture@@YAPAU_object@@PAU1@0@Z
	DD	01H
	ORG $+4
	DD	FLAT:??_C@_0O@INGOKFGH@RenderDungeon@
	DD	FLAT:?backgroundRenderDungeon@@YAPAU_object@@PAU1@0@Z
	DD	01H
	ORG $+4
	DD	FLAT:??_C@_09EOGEIJMK@GetHeight@
	DD	FLAT:?backgroundGetHeight@@YAPAU_object@@PAU1@0@Z
	DD	01H
	ORG $+4
	DD	FLAT:??_C@_0P@JLOPHJNK@SetShadowLevel@
	DD	FLAT:?backgroundSetShadowLevel@@YAPAU_object@@PAU1@0@Z
	DD	01H
	ORG $+4
	DD	FLAT:??_C@_0P@PBNEJLOP@SetVisiblePart@
	DD	FLAT:?backgroundSetVisiblePart@@YAPAU_object@@PAU1@0@Z
	DD	01H
	ORG $+4
	DD	FLAT:??_C@_0BC@CCJLGKJP@GetShadowMapColor@
	DD	FLAT:?backgroundGetShadowMapcolor@@YAPAU_object@@PAU1@0@Z
	DD	01H
	ORG $+4
	DD	FLAT:??_C@_0O@MBDLBPAA@SetSplatLimit@
	DD	FLAT:?backgroundSetSpaltLimit@@YAPAU_object@@PAU1@0@Z
	DD	01H
	ORG $+4
	DD	FLAT:??_C@_0BE@OLLMHPAP@GetRenderedSplatNum@
	DD	FLAT:?backgroundGetRenderedSplatNum@@YAPAU_object@@PAU1@0@Z
	DD	01H
	ORG $+4
	DD	FLAT:??_C@_0CD@KCFKJMJJ@GetRenderedGraphicThingInstance@
	DD	FLAT:?backgroundGetRenderedGTINum@@YAPAU_object@@PAU1@0@Z
	DD	01H
	ORG $+4
	DD	FLAT:??_C@_0BG@HJLACBME@SelectViewDistanceNum@
	DD	FLAT:?backgroundSelectViewDistanceNum@@YAPAU_object@@PAU1@0@Z
	DD	01H
	ORG $+4
	DD	FLAT:??_C@_0BD@MAFLMANF@SetViewDistanceSet@
	DD	FLAT:?backgroundSetViewDistanceSet@@YAPAU_object@@PAU1@0@Z
	DD	01H
	ORG $+4
	DD	FLAT:??_C@_0L@HDMJNMBI@GetFarClip@
	DD	FLAT:?backgroundGetFarClip@@YAPAU_object@@PAU1@0@Z
	DD	01H
	ORG $+4
	DD	FLAT:??_C@_0BD@DLMMDNAG@GetDistanceSetInfo@
	DD	FLAT:?backgroundGetDistanceSetInfo@@YAPAU_object@@PAU1@0@Z
	DD	01H
	ORG $+4
	DD	FLAT:??_C@_0N@BIHACEOH@SetBGLoading@
	DD	FLAT:?backgroundSetBGLoading@@YAPAU_object@@PAU1@0@Z
	DD	01H
	ORG $+4
	DD	FLAT:??_C@_0O@JBGHJBE@SetRenderSort@
	DD	FLAT:?backgroundSetRenderSort@@YAPAU_object@@PAU1@0@Z
	DD	01H
	ORG $+4
	DD	FLAT:??_C@_0BD@FPJHLEBA@SetTransparentTree@
	DD	FLAT:?backgroundSetTransparentTree@@YAPAU_object@@PAU1@0@Z
	DD	01H
	ORG $+4
	DD	FLAT:??_C@_0M@JALIDFKN@SetXMasTree@
	DD	FLAT:?backgroundSetXMasTree@@YAPAU_object@@PAU1@0@Z
	DD	01H
	ORG $+4
	DD	FLAT:??_C@_0BH@MNHHOIMG@RegisterDungeonMapName@
	DD	FLAT:?backgroundRegisterDungeonMapName@@YAPAU_object@@PAU1@0@Z
	DD	01H
	ORG $+4
	DD	FLAT:??_C@_0BB@CIANHCAN@VisibleGuildArea@
	DD	FLAT:?backgroundVisibleGuildArea@@YAPAU_object@@PAU1@0@Z
	DD	01H
	ORG $+4
	DD	FLAT:??_C@_0BB@NIDJGFIB@DisableGuildArea@
	DD	FLAT:?backgroundDisableGuildArea@@YAPAU_object@@PAU1@0@Z
	DD	01H
	ORG $+4
	DD	FLAT:??_C@_08LPNOKPMJ@WarpTest@
	DD	FLAT:?backgroundWarpTest@@YAPAU_object@@PAU1@0@Z
	DD	01H
	ORG $+4
	DD	00H
	DD	00H
	DD	00H
	ORG $+4
_DATA	ENDS
;	COMDAT ??_C@_0N@CKPMLBKJ@TEXTURE_SORT@
CONST	SEGMENT
??_C@_0N@CKPMLBKJ@TEXTURE_SORT@ DB 'TEXTURE_SORT', 00H	; `string'
CONST	ENDS
;	COMDAT ??_C@_0O@OJDBENMM@DISTANCE_SORT@
CONST	SEGMENT
??_C@_0O@OJDBENMM@DISTANCE_SORT@ DB 'DISTANCE_SORT', 00H ; `string'
CONST	ENDS
;	COMDAT ??_C@_09JCDLMIGA@DISTANCE4@
CONST	SEGMENT
??_C@_09JCDLMIGA@DISTANCE4@ DB 'DISTANCE4', 00H		; `string'
CONST	ENDS
;	COMDAT ??_C@_09NNHKFOKH@DISTANCE3@
CONST	SEGMENT
??_C@_09NNHKFOKH@DISTANCE3@ DB 'DISTANCE3', 00H		; `string'
CONST	ENDS
;	COMDAT ??_C@_09MEGBGPOG@DISTANCE2@
CONST	SEGMENT
??_C@_09MEGBGPOG@DISTANCE2@ DB 'DISTANCE2', 00H		; `string'
CONST	ENDS
;	COMDAT ??_C@_09OPEMDMCF@DISTANCE1@
CONST	SEGMENT
??_C@_09OPEMDMCF@DISTANCE1@ DB 'DISTANCE1', 00H		; `string'
CONST	ENDS
;	COMDAT ??_C@_09PGFHANGE@DISTANCE0@
CONST	SEGMENT
??_C@_09PGFHANGE@DISTANCE0@ DB 'DISTANCE0', 00H		; `string'
CONST	ENDS
;	COMDAT ??_C@_0P@OLMEFOLC@SHADOW_ALL_MAX@
CONST	SEGMENT
??_C@_0P@OLMEFOLC@SHADOW_ALL_MAX@ DB 'SHADOW_ALL_MAX', 00H ; `string'
CONST	ENDS
;	COMDAT ??_C@_0BA@HAKJACB@SHADOW_ALL_HIGH@
CONST	SEGMENT
??_C@_0BA@HAKJACB@SHADOW_ALL_HIGH@ DB 'SHADOW_ALL_HIGH', 00H ; `string'
CONST	ENDS
;	COMDAT ??_C@_0L@IDBIEHAB@SHADOW_ALL@
CONST	SEGMENT
??_C@_0L@IDBIEHAB@SHADOW_ALL@ DB 'SHADOW_ALL', 00H	; `string'
CONST	ENDS
;	COMDAT ??_C@_0BH@GACINHHJ@SHADOW_GROUND_AND_SOLO@
CONST	SEGMENT
??_C@_0BH@GACINHHJ@SHADOW_GROUND_AND_SOLO@ DB 'SHADOW_GROUND_AND_SOLO', 00H ; `string'
CONST	ENDS
;	COMDAT ??_C@_0O@KCPINCHK@SHADOW_GROUND@
CONST	SEGMENT
??_C@_0O@KCPINCHK@SHADOW_GROUND@ DB 'SHADOW_GROUND', 00H ; `string'
CONST	ENDS
;	COMDAT ??_C@_0M@GJOLHPMA@SHADOW_NONE@
CONST	SEGMENT
??_C@_0M@GJOLHPMA@SHADOW_NONE@ DB 'SHADOW_NONE', 00H	; `string'
CONST	ENDS
;	COMDAT ??_C@_0BL@NHHJMELO@SKY_RENDER_MODE_MODULATE4X@
CONST	SEGMENT
??_C@_0BL@NHHJMELO@SKY_RENDER_MODE_MODULATE4X@ DB 'SKY_RENDER_MODE_MODULA'
	DB	'TE4X', 00H					; `string'
CONST	ENDS
;	COMDAT ??_C@_0BL@NDPELIAM@SKY_RENDER_MODE_MODULATE2X@
CONST	SEGMENT
??_C@_0BL@NDPELIAM@SKY_RENDER_MODE_MODULATE2X@ DB 'SKY_RENDER_MODE_MODULA'
	DB	'TE2X', 00H					; `string'
CONST	ENDS
;	COMDAT ??_C@_0BJ@IGDGIPGO@SKY_RENDER_MODE_MODULATE@
CONST	SEGMENT
??_C@_0BJ@IGDGIPGO@SKY_RENDER_MODE_MODULATE@ DB 'SKY_RENDER_MODE_MODULATE'
	DB	00H						; `string'
CONST	ENDS
;	COMDAT ??_C@_0BI@NLDLHPN@SKY_RENDER_MODE_TEXTURE@
CONST	SEGMENT
??_C@_0BI@NLDLHPN@SKY_RENDER_MODE_TEXTURE@ DB 'SKY_RENDER_MODE_TEXTURE', 00H ; `string'
CONST	ENDS
;	COMDAT ??_C@_0BI@JEJGCBJM@SKY_RENDER_MODE_DIFFUSE@
CONST	SEGMENT
??_C@_0BI@JEJGCBJM@SKY_RENDER_MODE_DIFFUSE@ DB 'SKY_RENDER_MODE_DIFFUSE', 00H ; `string'
CONST	ENDS
;	COMDAT ??_C@_0BI@KFLFFAKF@SKY_RENDER_MODE_DEFAULT@
CONST	SEGMENT
??_C@_0BI@KFLFFAKF@SKY_RENDER_MODE_DEFAULT@ DB 'SKY_RENDER_MODE_DEFAULT', 00H ; `string'
CONST	ENDS
;	COMDAT ??_C@_0N@JJNCMAMK@PART_TERRAIN@
CONST	SEGMENT
??_C@_0N@JJNCMAMK@PART_TERRAIN@ DB 'PART_TERRAIN', 00H	; `string'
CONST	ENDS
;	COMDAT ??_C@_0M@FDJPOPAP@PART_OBJECT@
CONST	SEGMENT
??_C@_0M@FDJPOPAP@PART_OBJECT@ DB 'PART_OBJECT', 00H	; `string'
CONST	ENDS
;	COMDAT ??_C@_0L@LEAFDIF@PART_WATER@
CONST	SEGMENT
??_C@_0L@LEAFDIF@PART_WATER@ DB 'PART_WATER', 00H	; `string'
CONST	ENDS
;	COMDAT ??_C@_0L@OMDBBBIA@PART_CLOUD@
CONST	SEGMENT
??_C@_0L@OMDBBBIA@PART_CLOUD@ DB 'PART_CLOUD', 00H	; `string'
CONST	ENDS
;	COMDAT ??_C@_09GABNPPB@PART_TREE@
CONST	SEGMENT
??_C@_09GABNPPB@PART_TREE@ DB 'PART_TREE', 00H		; `string'
CONST	ENDS
;	COMDAT ??_C@_08NJILKGEB@PART_SKY@
CONST	SEGMENT
??_C@_08NJILKGEB@PART_SKY@ DB 'PART_SKY', 00H		; `string'
CONST	ENDS
;	COMDAT ??_C@_0L@EGCKCJDC@background@
CONST	SEGMENT
??_C@_0L@EGCKCJDC@background@ DB 'background', 00H	; `string'
CONST	ENDS
;	COMDAT ??_C@_08LPNOKPMJ@WarpTest@
CONST	SEGMENT
??_C@_08LPNOKPMJ@WarpTest@ DB 'WarpTest', 00H		; `string'
CONST	ENDS
;	COMDAT ??_C@_0BB@NIDJGFIB@DisableGuildArea@
CONST	SEGMENT
??_C@_0BB@NIDJGFIB@DisableGuildArea@ DB 'DisableGuildArea', 00H ; `string'
CONST	ENDS
;	COMDAT ??_C@_0BB@CIANHCAN@VisibleGuildArea@
CONST	SEGMENT
??_C@_0BB@CIANHCAN@VisibleGuildArea@ DB 'VisibleGuildArea', 00H ; `string'
CONST	ENDS
;	COMDAT ??_C@_0BH@MNHHOIMG@RegisterDungeonMapName@
CONST	SEGMENT
??_C@_0BH@MNHHOIMG@RegisterDungeonMapName@ DB 'RegisterDungeonMapName', 00H ; `string'
CONST	ENDS
;	COMDAT ??_C@_0M@JALIDFKN@SetXMasTree@
CONST	SEGMENT
??_C@_0M@JALIDFKN@SetXMasTree@ DB 'SetXMasTree', 00H	; `string'
CONST	ENDS
;	COMDAT ??_C@_0BD@FPJHLEBA@SetTransparentTree@
CONST	SEGMENT
??_C@_0BD@FPJHLEBA@SetTransparentTree@ DB 'SetTransparentTree', 00H ; `string'
CONST	ENDS
;	COMDAT ??_C@_0O@JBGHJBE@SetRenderSort@
CONST	SEGMENT
??_C@_0O@JBGHJBE@SetRenderSort@ DB 'SetRenderSort', 00H	; `string'
CONST	ENDS
;	COMDAT ??_C@_0N@BIHACEOH@SetBGLoading@
CONST	SEGMENT
??_C@_0N@BIHACEOH@SetBGLoading@ DB 'SetBGLoading', 00H	; `string'
CONST	ENDS
;	COMDAT ??_C@_0BD@DLMMDNAG@GetDistanceSetInfo@
CONST	SEGMENT
??_C@_0BD@DLMMDNAG@GetDistanceSetInfo@ DB 'GetDistanceSetInfo', 00H ; `string'
CONST	ENDS
;	COMDAT ??_C@_0L@HDMJNMBI@GetFarClip@
CONST	SEGMENT
??_C@_0L@HDMJNMBI@GetFarClip@ DB 'GetFarClip', 00H	; `string'
CONST	ENDS
;	COMDAT ??_C@_0BD@MAFLMANF@SetViewDistanceSet@
CONST	SEGMENT
??_C@_0BD@MAFLMANF@SetViewDistanceSet@ DB 'SetViewDistanceSet', 00H ; `string'
CONST	ENDS
;	COMDAT ??_C@_0BG@HJLACBME@SelectViewDistanceNum@
CONST	SEGMENT
??_C@_0BG@HJLACBME@SelectViewDistanceNum@ DB 'SelectViewDistanceNum', 00H ; `string'
CONST	ENDS
;	COMDAT ??_C@_0CD@KCFKJMJJ@GetRenderedGraphicThingInstance@
CONST	SEGMENT
??_C@_0CD@KCFKJMJJ@GetRenderedGraphicThingInstance@ DB 'GetRenderedGraphi'
	DB	'cThingInstanceNum', 00H			; `string'
CONST	ENDS
;	COMDAT ??_C@_0BE@OLLMHPAP@GetRenderedSplatNum@
CONST	SEGMENT
??_C@_0BE@OLLMHPAP@GetRenderedSplatNum@ DB 'GetRenderedSplatNum', 00H ; `string'
CONST	ENDS
;	COMDAT ??_C@_0O@MBDLBPAA@SetSplatLimit@
CONST	SEGMENT
??_C@_0O@MBDLBPAA@SetSplatLimit@ DB 'SetSplatLimit', 00H ; `string'
CONST	ENDS
;	COMDAT ??_C@_0BC@CCJLGKJP@GetShadowMapColor@
CONST	SEGMENT
??_C@_0BC@CCJLGKJP@GetShadowMapColor@ DB 'GetShadowMapColor', 00H ; `string'
CONST	ENDS
;	COMDAT ??_C@_0P@PBNEJLOP@SetVisiblePart@
CONST	SEGMENT
??_C@_0P@PBNEJLOP@SetVisiblePart@ DB 'SetVisiblePart', 00H ; `string'
CONST	ENDS
;	COMDAT ??_C@_0P@JLOPHJNK@SetShadowLevel@
CONST	SEGMENT
??_C@_0P@JLOPHJNK@SetShadowLevel@ DB 'SetShadowLevel', 00H ; `string'
CONST	ENDS
;	COMDAT ??_C@_09EOGEIJMK@GetHeight@
CONST	SEGMENT
??_C@_09EOGEIJMK@GetHeight@ DB 'GetHeight', 00H		; `string'
CONST	ENDS
;	COMDAT ??_C@_0O@INGOKFGH@RenderDungeon@
CONST	SEGMENT
??_C@_0O@INGOKFGH@RenderDungeon@ DB 'RenderDungeon', 00H ; `string'
CONST	ENDS
;	COMDAT ??_C@_0BP@HPJLNAG@RenderCharacterShadowToTexture@
CONST	SEGMENT
??_C@_0BP@HPJLNAG@RenderCharacterShadowToTexture@ DB 'RenderCharacterShad'
	DB	'owToTexture', 00H				; `string'
CONST	ENDS
;	COMDAT ??_C@_0BF@IFHDODFN@RenderAfterLensFlare@
CONST	SEGMENT
??_C@_0BF@IFHDODFN@RenderAfterLensFlare@ DB 'RenderAfterLensFlare', 00H ; `string'
CONST	ENDS
;	COMDAT ??_C@_0BG@FMKIIHNL@RenderBeforeLensFlare@
CONST	SEGMENT
??_C@_0BG@FMKIIHNL@RenderBeforeLensFlare@ DB 'RenderBeforeLensFlare', 00H ; `string'
CONST	ENDS
;	COMDAT ??_C@_0N@NIFFJBKD@RenderEffect@
CONST	SEGMENT
??_C@_0N@NIFFJBKD@RenderEffect@ DB 'RenderEffect', 00H	; `string'
CONST	ENDS
;	COMDAT ??_C@_0M@FKCFAPAJ@RenderWater@
CONST	SEGMENT
??_C@_0M@FKCFAPAJ@RenderWater@ DB 'RenderWater', 00H	; `string'
CONST	ENDS
;	COMDAT ??_C@_0M@LNFEENAM@RenderCloud@
CONST	SEGMENT
??_C@_0M@LNFEENAM@RenderCloud@ DB 'RenderCloud', 00H	; `string'
CONST	ENDS
;	COMDAT ??_C@_09LFBELEBM@RenderSky@
CONST	SEGMENT
??_C@_09LFBELEBM@RenderSky@ DB 'RenderSky', 00H		; `string'
CONST	ENDS
;	COMDAT ??_C@_0BA@OAOAOPAN@RenderCollision@
CONST	SEGMENT
??_C@_0BA@OAOAOPAN@RenderCollision@ DB 'RenderCollision', 00H ; `string'
CONST	ENDS
;	COMDAT ??_C@_0BA@FDBALAKK@RenderPCBlocker@
CONST	SEGMENT
??_C@_0BA@FDBALAKK@RenderPCBlocker@ DB 'RenderPCBlocker', 00H ; `string'
CONST	ENDS
;	COMDAT ??_C@_0L@KIAPHAEH@Initialize@
CONST	SEGMENT
??_C@_0L@KIAPHAEH@Initialize@ DB 'Initialize', 00H	; `string'
CONST	ENDS
;	COMDAT ??_C@_0BG@PNPLCIKE@SetBackgroundDirLight@
CONST	SEGMENT
??_C@_0BG@PNPLCIKE@SetBackgroundDirLight@ DB 'SetBackgroundDirLight', 00H ; `string'
CONST	ENDS
;	COMDAT ??_C@_0BF@DFKOLKBM@SetCharacterDirLight@
CONST	SEGMENT
??_C@_0BF@DFKOLKBM@SetCharacterDirLight@ DB 'SetCharacterDirLight', 00H ; `string'
CONST	ENDS
;	COMDAT ??_C@_0P@DMJMMGKP@EndEnvironment@
CONST	SEGMENT
??_C@_0P@DMJMMGKP@EndEnvironment@ DB 'EndEnvironment', 00H ; `string'
CONST	ENDS
;	COMDAT ??_C@_0BB@JHBDNCLO@BeginEnvironment@
CONST	SEGMENT
??_C@_0BB@JHBDNCLO@BeginEnvironment@ DB 'BeginEnvironment', 00H ; `string'
CONST	ENDS
;	COMDAT ??_C@_0BA@DNJBOOGC@GetPickingPoint@
CONST	SEGMENT
??_C@_0BA@DNJBOOGC@GetPickingPoint@ DB 'GetPickingPoint', 00H ; `string'
CONST	ENDS
;	COMDAT ??_C@_0BC@DINKEDB@GetCurrentMapName@
CONST	SEGMENT
??_C@_0BC@DINKEDB@GetCurrentMapName@ DB 'GetCurrentMapName', 00H ; `string'
CONST	ENDS
;	COMDAT ??_C@_0BD@BHFOHELP@SetEnvironmentData@
CONST	SEGMENT
??_C@_0BD@BHFOHELP@SetEnvironmentData@ DB 'SetEnvironmentData', 00H ; `string'
CONST	ENDS
;	COMDAT ??_C@_0BI@CHPHFBLI@RegisterEnvironmentData@
CONST	SEGMENT
??_C@_0BI@CHPHFBLI@RegisterEnvironmentData@ DB 'RegisterEnvironmentData', 00H ; `string'
CONST	ENDS
;	COMDAT ??_C@_07BDCAJABG@Destroy@
CONST	SEGMENT
??_C@_07BDCAJABG@Destroy@ DB 'Destroy', 00H		; `string'
CONST	ENDS
;	COMDAT ??_C@_07DJFPJOEL@LoadMap@
CONST	SEGMENT
??_C@_07DJFPJOEL@LoadMap@ DB 'LoadMap', 00H		; `string'
CONST	ENDS
;	COMDAT ??_C@_0BE@LMGPCAD@GetRenderShadowTime@
CONST	SEGMENT
??_C@_0BE@LMGPCAD@GetRenderShadowTime@ DB 'GetRenderShadowTime', 00H ; `string'
CONST	ENDS
;	COMDAT ??_C@_0BI@NCKBLOGC@GlobalPositionToMapInfo@
CONST	SEGMENT
??_C@_0BI@NCKBLOGC@GlobalPositionToMapInfo@ DB 'GlobalPositionToMapInfo', 00H ; `string'
CONST	ENDS
;	COMDAT ??_C@_0BO@OIANPCLB@GlobalPositionToLocalPosition@
CONST	SEGMENT
??_C@_0BO@OIANPCLB@GlobalPositionToLocalPosition@ DB 'GlobalPositionToLoc'
	DB	'alPosition', 00H				; `string'
CONST	ENDS
;	COMDAT ??_C@_0L@LGAPBDCD@EnableSnow@
CONST	SEGMENT
??_C@_0L@LGAPBDCD@EnableSnow@ DB 'EnableSnow', 00H	; `string'
CONST	ENDS
;	COMDAT ??_C@_0BF@ODLMFADE@EnableSoftwareTiling@
CONST	SEGMENT
??_C@_0BF@ODLMFADE@EnableSoftwareTiling@ DB 'EnableSoftwareTiling', 00H ; `string'
CONST	ENDS
;	COMDAT ??_C@_0BB@BFKDCFBH@IsSoftwareTiling@
CONST	SEGMENT
??_C@_0BB@BFKDCFBH@IsSoftwareTiling@ DB 'IsSoftwareTiling', 00H ; `string'
CONST	ENDS
;	COMDAT ??_C@_03FEAIAPNA@sii@
CONST	SEGMENT
??_C@_03FEAIAPNA@sii@ DB 'sii', 00H			; `string'
CONST	ENDS
;	COMDAT ??_C@_04MMEPMOLC@ifff@
CONST	SEGMENT
??_C@_04MMEPMOLC@ifff@ DB 'ifff', 00H			; `string'
CONST	ENDS
;	COMDAT ??_C@_0CL@HHHOJMJN@background?4SetSplatLimit?$CIiSplat@
CONST	SEGMENT
??_C@_0CL@HHHOJMJN@background?4SetSplatLimit?$CIiSplat@ DB 'background.Se'
	DB	'tSplatLimit(iSplatNum(%d)>=0)', 00H		; `string'
CONST	ENDS
;	COMDAT ??_C@_0CC@JHPGFABG@ePart?$CI?$CFd?$CJ?$DMbackground?4PART_NUM?$CI?$CF@
CONST	SEGMENT
??_C@_0CC@JHPGFABG@ePart?$CI?$CFd?$CJ?$DMbackground?4PART_NUM?$CI?$CF@ DB 'e'
	DB	'Part(%d)<background.PART_NUM(%d)', 00H	; `string'
CONST	ENDS
;	COMDAT ??_C@_04KDJJDIPA@iifs@
CONST	SEGMENT
??_C@_04KDJJDIPA@iifs@ DB 'iifs', 00H			; `string'
CONST	ENDS
;	COMDAT ??_C@_03JDANDILB@?$CFd?5@
CONST	SEGMENT
??_C@_03JDANDILB@?$CFd?5@ DB '%d ', 00H			; `string'
CONST	ENDS
;	COMDAT ??_C@_03LPALPDIP@fff@
CONST	SEGMENT
??_C@_03LPALPDIP@fff@ DB 'fff', 00H			; `string'
CONST	ENDS
;	COMDAT ??_C@_0EI@HLELLDPI@background?4RegisterEnvironmentD@
CONST	SEGMENT
??_C@_0EI@HLELLDPI@background?4RegisterEnvironmentD@ DB 'background.Regis'
	DB	'terEnvironmentData(iIndex=%d, szEnvironmentFileName=%s)', 00H ; `string'
PUBLIC	??0?$_Vector_const_iterator@V?$_Vector_val@U?$_Simple_types@H@std@@@std@@@std@@QAE@PAHPBU_Container_base0@1@@Z ; std::_Vector_const_iterator<std::_Vector_val<std::_Simple_types<int> > >::_Vector_const_iterator<std::_Vector_val<std::_Simple_types<int> > >
PUBLIC	??D?$_Vector_const_iterator@V?$_Vector_val@U?$_Simple_types@H@std@@@std@@@std@@QBEABHXZ ; std::_Vector_const_iterator<std::_Vector_val<std::_Simple_types<int> > >::operator*
PUBLIC	??E?$_Vector_const_iterator@V?$_Vector_val@U?$_Simple_types@H@std@@@std@@@std@@QAEAAV01@XZ ; std::_Vector_const_iterator<std::_Vector_val<std::_Simple_types<int> > >::operator++
PUBLIC	?_Compat@?$_Vector_const_iterator@V?$_Vector_val@U?$_Simple_types@H@std@@@std@@@std@@QBEXABV12@@Z ; std::_Vector_const_iterator<std::_Vector_val<std::_Simple_types<int> > >::_Compat
PUBLIC	??$addressof@V?$_Vector_val@U?$_Simple_types@H@std@@@std@@@std@@YAPAV?$_Vector_val@U?$_Simple_types@H@std@@@0@AAV10@@Z ; std::addressof<std::_Vector_val<std::_Simple_types<int> > >
PUBLIC	?begin@?$vector@HV?$allocator@H@std@@@std@@QAE?AV?$_Vector_iterator@V?$_Vector_val@U?$_Simple_types@H@std@@@std@@@2@XZ ; std::vector<int,std::allocator<int> >::begin
PUBLIC	??0?$_Vector_iterator@V?$_Vector_val@U?$_Simple_types@H@std@@@std@@@std@@QAE@PAHPBU_Container_base0@1@@Z ; std::_Vector_iterator<std::_Vector_val<std::_Simple_types<int> > >::_Vector_iterator<std::_Vector_val<std::_Simple_types<int> > >
PUBLIC	?end@?$vector@HV?$allocator@H@std@@@std@@QAE?AV?$_Vector_iterator@V?$_Vector_val@U?$_Simple_types@H@std@@@std@@@2@XZ ; std::vector<int,std::allocator<int> >::end
PUBLIC	??D?$_Vector_iterator@V?$_Vector_val@U?$_Simple_types@H@std@@@std@@@std@@QBEAAHXZ ; std::_Vector_iterator<std::_Vector_val<std::_Simple_types<int> > >::operator*
PUBLIC	??E?$_Vector_iterator@V?$_Vector_val@U?$_Simple_types@H@std@@@std@@@std@@QAE?AV01@H@Z ; std::_Vector_iterator<std::_Vector_val<std::_Simple_types<int> > >::operator++
PUBLIC	??8?$_Vector_const_iterator@V?$_Vector_val@U?$_Simple_types@H@std@@@std@@@std@@QBE_NABV01@@Z ; std::_Vector_const_iterator<std::_Vector_val<std::_Simple_types<int> > >::operator==
PUBLIC	?initBackground@@YAXXZ				; initBackground
PUBLIC	?backgroundDisableGuildArea@@YAPAU_object@@PAU1@0@Z ; backgroundDisableGuildArea
PUBLIC	?backgroundVisibleGuildArea@@YAPAU_object@@PAU1@0@Z ; backgroundVisibleGuildArea
PUBLIC	?backgroundRegisterDungeonMapName@@YAPAU_object@@PAU1@0@Z ; backgroundRegisterDungeonMapName
PUBLIC	?backgroundSetXMasTree@@YAPAU_object@@PAU1@0@Z	; backgroundSetXMasTree
PUBLIC	?backgroundWarpTest@@YAPAU_object@@PAU1@0@Z	; backgroundWarpTest
PUBLIC	?backgroundGlobalPositionToMapInfo@@YAPAU_object@@PAU1@0@Z ; backgroundGlobalPositionToMapInfo
PUBLIC	?backgroundGlobalPositionToLocalPosition@@YAPAU_object@@PAU1@0@Z ; backgroundGlobalPositionToLocalPosition
PUBLIC	?backgroundSetTransparentTree@@YAPAU_object@@PAU1@0@Z ; backgroundSetTransparentTree
PUBLIC	?backgroundSetRenderSort@@YAPAU_object@@PAU1@0@Z ; backgroundSetRenderSort
PUBLIC	?backgroundSetBGLoading@@YAPAU_object@@PAU1@0@Z	; backgroundSetBGLoading
PUBLIC	?backgroundGetDistanceSetInfo@@YAPAU_object@@PAU1@0@Z ; backgroundGetDistanceSetInfo
PUBLIC	?backgroundGetFarClip@@YAPAU_object@@PAU1@0@Z	; backgroundGetFarClip
PUBLIC	?backgroundSetViewDistanceSet@@YAPAU_object@@PAU1@0@Z ; backgroundSetViewDistanceSet
PUBLIC	?backgroundSelectViewDistanceNum@@YAPAU_object@@PAU1@0@Z ; backgroundSelectViewDistanceNum
PUBLIC	?backgroundSetSpaltLimit@@YAPAU_object@@PAU1@0@Z ; backgroundSetSpaltLimit
PUBLIC	?backgroundSetVisiblePart@@YAPAU_object@@PAU1@0@Z ; backgroundSetVisiblePart
PUBLIC	?backgroundSetShadowLevel@@YAPAU_object@@PAU1@0@Z ; backgroundSetShadowLevel
PUBLIC	?backgroundGetShadowMapcolor@@YAPAU_object@@PAU1@0@Z ; backgroundGetShadowMapcolor
PUBLIC	?backgroundGetRenderShadowTime@@YAPAU_object@@PAU1@0@Z ; backgroundGetRenderShadowTime
PUBLIC	?backgroundGetRenderedGTINum@@YAPAU_object@@PAU1@0@Z ; backgroundGetRenderedGTINum
PUBLIC	?backgroundGetRenderedSplatNum@@YAPAU_object@@PAU1@0@Z ; backgroundGetRenderedSplatNum
PUBLIC	?backgroundGetHeight@@YAPAU_object@@PAU1@0@Z	; backgroundGetHeight
PUBLIC	?backgroundRenderDungeon@@YAPAU_object@@PAU1@0@Z ; backgroundRenderDungeon
PUBLIC	?backgroundRenderCharacterShadowToTexture@@YAPAU_object@@PAU1@0@Z ; backgroundRenderCharacterShadowToTexture
PUBLIC	?backgroundRenderAfterLensFlare@@YAPAU_object@@PAU1@0@Z ; backgroundRenderAfterLensFlare
PUBLIC	?backgroundRenderBeforeLensFlare@@YAPAU_object@@PAU1@0@Z ; backgroundRenderBeforeLensFlare
PUBLIC	?backgroundRenderEffect@@YAPAU_object@@PAU1@0@Z	; backgroundRenderEffect
PUBLIC	?backgroundRenderWater@@YAPAU_object@@PAU1@0@Z	; backgroundRenderWater
PUBLIC	?backgroundRenderCloud@@YAPAU_object@@PAU1@0@Z	; backgroundRenderCloud
PUBLIC	?backgroundRenderSky@@YAPAU_object@@PAU1@0@Z	; backgroundRenderSky
PUBLIC	?backgroundRenderCollision@@YAPAU_object@@PAU1@0@Z ; backgroundRenderCollision
PUBLIC	?backgroundRenderPCBlocker@@YAPAU_object@@PAU1@0@Z ; backgroundRenderPCBlocker
PUBLIC	?backgroundRender@@YAPAU_object@@PAU1@0@Z	; backgroundRender
PUBLIC	?backgroundUpdate@@YAPAU_object@@PAU1@0@Z	; backgroundUpdate
PUBLIC	?backgroundInitialize@@YAPAU_object@@PAU1@0@Z	; backgroundInitialize
PUBLIC	?backgroundSetBackgroundDirLight@@YAPAU_object@@PAU1@0@Z ; backgroundSetBackgroundDirLight
PUBLIC	?backgroundSetCharacterDirLight@@YAPAU_object@@PAU1@0@Z ; backgroundSetCharacterDirLight
PUBLIC	?backgroundEndEnvironemt@@YAPAU_object@@PAU1@0@Z ; backgroundEndEnvironemt
PUBLIC	?backgroundBeginEnvironment@@YAPAU_object@@PAU1@0@Z ; backgroundBeginEnvironment
PUBLIC	?backgroundGetPickingPoint@@YAPAU_object@@PAU1@0@Z ; backgroundGetPickingPoint
PUBLIC	?backgroundGetCurrentMapName@@YAPAU_object@@PAU1@0@Z ; backgroundGetCurrentMapName
PUBLIC	?backgroundSetEnvironmentData@@YAPAU_object@@PAU1@0@Z ; backgroundSetEnvironmentData
PUBLIC	?backgroundRegisterEnvironmentData@@YAPAU_object@@PAU1@0@Z ; backgroundRegisterEnvironmentData
PUBLIC	?backgroundDestroy@@YAPAU_object@@PAU1@0@Z	; backgroundDestroy
PUBLIC	?backgroundLoadMap@@YAPAU_object@@PAU1@0@Z	; backgroundLoadMap
PUBLIC	?backgroundEnableSnow@@YAPAU_object@@PAU1@0@Z	; backgroundEnableSnow
PUBLIC	?backgroundEnableSoftwareTiling@@YAPAU_object@@PAU1@0@Z ; backgroundEnableSoftwareTiling
PUBLIC	?backgroundIsSoftwareTiling@@YAPAU_object@@PAU1@0@Z ; backgroundIsSoftwareTiling
;	COMDAT xdata$x
xdata$x	SEGMENT
__ehfuncinfo$?backgroundLoadMap@@YAPAU_object@@PAU1@0@Z DD 019930522H
	DD	01H
	DD	FLAT:__unwindtable$?backgroundLoadMap@@YAPAU_object@@PAU1@0@Z
	DD	2 DUP(00H)
	DD	2 DUP(00H)
	DD	00H
	DD	01H
__unwindtable$?backgroundLoadMap@@YAPAU_object@@PAU1@0@Z DD 0ffffffffH
	DD	FLAT:__unwindfunclet$?backgroundLoadMap@@YAPAU_object@@PAU1@0@Z$0
; Function compile flags: /Ogtp
; File D:\_m2work\Server Client TMP4\ClientVS22\source\UserInterface\PythonBackgroundModule.cpp
;	COMDAT ?backgroundIsSoftwareTiling@@YAPAU_object@@PAU1@0@Z
_TEXT	SEGMENT
_poSelf$ = 8						; size = 4
_poArgs$ = 12						; size = 4
?backgroundIsSoftwareTiling@@YAPAU_object@@PAU1@0@Z PROC ; backgroundIsSoftwareTiling, COMDAT

; 9    : 	CPythonBackground& rkBG=CPythonBackground::Instance();
; 10   : 	return Py_BuildValue("i", rkBG.IsSoftwareTilingEnable());

  00000	8b 0d 00 00 00
	00		 mov	 ecx, DWORD PTR ?ms_singleton@?$CSingleton@VCPythonBackground@@@@0PAVCPythonBackground@@A ; CSingleton<CPythonBackground>::ms_singleton
  00006	e8 00 00 00 00	 call	 ?IsSoftwareTilingEnable@CMapManager@@QAE_NXZ ; CMapManager::IsSoftwareTilingEnable
  0000b	0f b6 c0	 movzx	 eax, al
  0000e	50		 push	 eax
  0000f	68 00 00 00 00	 push	 OFFSET ??_C@_01KBJDNOO@i@
  00014	ff 15 00 00 00
	00		 call	 DWORD PTR __imp__Py_BuildValue
  0001a	83 c4 08	 add	 esp, 8

; 11   : }

  0001d	c3		 ret	 0
?backgroundIsSoftwareTiling@@YAPAU_object@@PAU1@0@Z ENDP ; backgroundIsSoftwareTiling
_TEXT	ENDS
; Function compile flags: /Ogtp
; File D:\_m2work\Server Client TMP4\ClientVS22\source\UserInterface\PythonBackgroundModule.cpp
;	COMDAT ?backgroundEnableSoftwareTiling@@YAPAU_object@@PAU1@0@Z
_TEXT	SEGMENT
_nIsEnable$ = -8					; size = 4
_isEnable$ = -4						; size = 1
_poSelf$ = 8						; size = 4
_poArgs$ = 12						; size = 4
?backgroundEnableSoftwareTiling@@YAPAU_object@@PAU1@0@Z PROC ; backgroundEnableSoftwareTiling, COMDAT

; 14   : {

  00000	55		 push	 ebp
  00001	8b ec		 mov	 ebp, esp
  00003	83 ec 08	 sub	 esp, 8

; 15   : 	int nIsEnable;
; 16   : 	if (!PyTuple_GetInteger(poArgs, 0, &nIsEnable))

  00006	8d 45 f8	 lea	 eax, DWORD PTR _nIsEnable$[ebp]
  00009	50		 push	 eax
  0000a	6a 00		 push	 0
  0000c	ff 75 0c	 push	 DWORD PTR _poArgs$[ebp]
  0000f	e8 00 00 00 00	 call	 ?PyTuple_GetInteger@@YA_NPAU_object@@HPAH@Z ; PyTuple_GetInteger
  00014	83 c4 0c	 add	 esp, 12			; 0000000cH
  00017	84 c0		 test	 al, al
  00019	75 09		 jne	 SHORT $LN2@background

; 17   : 		return Py_BadArgument();

  0001b	e8 00 00 00 00	 call	 ?Py_BadArgument@@YAPAU_object@@XZ ; Py_BadArgument

; 27   : }

  00020	8b e5		 mov	 esp, ebp
  00022	5d		 pop	 ebp
  00023	c3		 ret	 0
$LN2@background:

; 18   : 
; 19   : 	bool isEnable=nIsEnable ? true : false;

  00024	83 7d f8 00	 cmp	 DWORD PTR _nIsEnable$[ebp], 0

; 20   : 
; 21   : 	CPythonBackground& rkBG=CPythonBackground::Instance();
; 22   : 	rkBG.ReserveSoftwareTilingEnable(isEnable);

  00028	8b 0d 00 00 00
	00		 mov	 ecx, DWORD PTR ?ms_singleton@?$CSingleton@VCPythonBackground@@@@0PAVCPythonBackground@@A ; CSingleton<CPythonBackground>::ms_singleton
  0002e	0f 95 45 fc	 setne	 BYTE PTR _isEnable$[ebp]
  00032	ff 75 fc	 push	 DWORD PTR _isEnable$[ebp]
  00035	e8 00 00 00 00	 call	 ?ReserveSoftwareTilingEnable@CMapManager@@QAEX_N@Z ; CMapManager::ReserveSoftwareTilingEnable

; 23   : 
; 24   : 	CPythonSystem& rkSystem=CPythonSystem::Instance();
; 25   : 	rkSystem.SetSoftwareTiling(isEnable);

  0003a	ff 75 fc	 push	 DWORD PTR _isEnable$[ebp]
  0003d	8b 0d 00 00 00
	00		 mov	 ecx, DWORD PTR ?ms_singleton@?$CSingleton@VCPythonSystem@@@@0PAVCPythonSystem@@A ; CSingleton<CPythonSystem>::ms_singleton
  00043	e8 00 00 00 00	 call	 ?SetSoftwareTiling@CPythonSystem@@QAEX_N@Z ; CPythonSystem::SetSoftwareTiling

; 26   : 	return Py_BuildNone();

  00048	e8 00 00 00 00	 call	 ?Py_BuildNone@@YAPAU_object@@XZ ; Py_BuildNone

; 27   : }

  0004d	8b e5		 mov	 esp, ebp
  0004f	5d		 pop	 ebp
  00050	c3		 ret	 0
?backgroundEnableSoftwareTiling@@YAPAU_object@@PAU1@0@Z ENDP ; backgroundEnableSoftwareTiling
_TEXT	ENDS
; Function compile flags: /Ogtp
; File D:\_m2work\Server Client TMP4\ClientVS22\source\UserInterface\PythonBackgroundModule.cpp
;	COMDAT ?backgroundEnableSnow@@YAPAU_object@@PAU1@0@Z
_TEXT	SEGMENT
_nIsEnable$ = -4					; size = 4
_poSelf$ = 8						; size = 4
_poArgs$ = 12						; size = 4
?backgroundEnableSnow@@YAPAU_object@@PAU1@0@Z PROC	; backgroundEnableSnow, COMDAT

; 30   : {

  00000	55		 push	 ebp
  00001	8b ec		 mov	 ebp, esp
  00003	51		 push	 ecx

; 31   : 	int nIsEnable;
; 32   : 	if (!PyTuple_GetInteger(poArgs, 0, &nIsEnable))

  00004	8d 45 fc	 lea	 eax, DWORD PTR _nIsEnable$[ebp]
  00007	50		 push	 eax
  00008	6a 00		 push	 0
  0000a	ff 75 0c	 push	 DWORD PTR _poArgs$[ebp]
  0000d	e8 00 00 00 00	 call	 ?PyTuple_GetInteger@@YA_NPAU_object@@HPAH@Z ; PyTuple_GetInteger
  00012	83 c4 0c	 add	 esp, 12			; 0000000cH
  00015	84 c0		 test	 al, al
  00017	75 09		 jne	 SHORT $LN2@background

; 33   : 		return Py_BadArgument();

  00019	e8 00 00 00 00	 call	 ?Py_BadArgument@@YAPAU_object@@XZ ; Py_BadArgument

; 42   : }

  0001e	8b e5		 mov	 esp, ebp
  00020	5d		 pop	 ebp
  00021	c3		 ret	 0
$LN2@background:

; 34   : 
; 35   : 	CPythonBackground& rkBG=CPythonBackground::Instance();
; 36   : 	if (nIsEnable)

  00022	83 7d fc 00	 cmp	 DWORD PTR _nIsEnable$[ebp], 0
  00026	8b 0d 00 00 00
	00		 mov	 ecx, DWORD PTR ?ms_singleton@?$CSingleton@VCPythonBackground@@@@0PAVCPythonBackground@@A ; CSingleton<CPythonBackground>::ms_singleton
  0002c	74 0e		 je	 SHORT $LN3@background

; 37   : 		rkBG.EnableSnowEnvironment();

  0002e	e8 00 00 00 00	 call	 ?EnableSnowEnvironment@CPythonBackground@@QAEXXZ ; CPythonBackground::EnableSnowEnvironment

; 40   : 
; 41   : 	return Py_BuildNone();

  00033	e8 00 00 00 00	 call	 ?Py_BuildNone@@YAPAU_object@@XZ ; Py_BuildNone

; 42   : }

  00038	8b e5		 mov	 esp, ebp
  0003a	5d		 pop	 ebp
  0003b	c3		 ret	 0
$LN3@background:

; 38   : 	else
; 39   : 		rkBG.DisableSnowEnvironment();

  0003c	e8 00 00 00 00	 call	 ?DisableSnowEnvironment@CPythonBackground@@QAEXXZ ; CPythonBackground::DisableSnowEnvironment

; 40   : 
; 41   : 	return Py_BuildNone();

  00041	e8 00 00 00 00	 call	 ?Py_BuildNone@@YAPAU_object@@XZ ; Py_BuildNone

; 42   : }

  00046	8b e5		 mov	 esp, ebp
  00048	5d		 pop	 ebp
  00049	c3		 ret	 0
?backgroundEnableSnow@@YAPAU_object@@PAU1@0@Z ENDP	; backgroundEnableSnow
_TEXT	ENDS
; Function compile flags: /Ogtp
; File D:\_m2work\Server Client TMP4\ClientVS22\source\UserInterface\PythonBackgroundModule.cpp
; File C:\Program Files\Microsoft Visual Studio\2022\Community\VC\Tools\MSVC\14.44.35207\include\xstring
; File D:\_m2work\Server Client TMP4\ClientVS22\source\UserInterface\PythonBackgroundModule.cpp
; File C:\Program Files\Microsoft Visual Studio\2022\Community\VC\Tools\MSVC\14.44.35207\include\xstring
; File D:\_m2work\Server Client TMP4\ClientVS22\source\UserInterface\PythonBackgroundModule.cpp
;	COMDAT ?backgroundLoadMap@@YAPAU_object@@PAU1@0@Z
_TEXT	SEGMENT
tv157 = -68						; size = 4
tv158 = -64						; size = 4
tv159 = -60						; size = 4
_pszMapPathName$ = -56					; size = 4
_x$ = -52						; size = 4
_y$ = -48						; size = 4
_z$ = -44						; size = 4
$T2 = -40						; size = 24
__$ArrayPad$ = -16					; size = 4
__$EHRec$ = -12						; size = 12
_poSelf$ = 8						; size = 4
_poArgs$ = 12						; size = 4
?backgroundLoadMap@@YAPAU_object@@PAU1@0@Z PROC		; backgroundLoadMap, COMDAT

; 45   : {

  00000	55		 push	 ebp
  00001	8b ec		 mov	 ebp, esp
  00003	6a ff		 push	 -1
  00005	68 00 00 00 00	 push	 __ehhandler$?backgroundLoadMap@@YAPAU_object@@PAU1@0@Z
  0000a	64 a1 00 00 00
	00		 mov	 eax, DWORD PTR fs:0
  00010	50		 push	 eax
  00011	83 ec 38	 sub	 esp, 56			; 00000038H
  00014	a1 00 00 00 00	 mov	 eax, DWORD PTR ___security_cookie
  00019	33 c5		 xor	 eax, ebp
  0001b	89 45 f0	 mov	 DWORD PTR __$ArrayPad$[ebp], eax
  0001e	56		 push	 esi
  0001f	57		 push	 edi
  00020	50		 push	 eax
  00021	8d 45 f4	 lea	 eax, DWORD PTR __$EHRec$[ebp]
  00024	64 a3 00 00 00
	00		 mov	 DWORD PTR fs:0, eax
  0002a	8b 75 0c	 mov	 esi, DWORD PTR _poArgs$[ebp]

; 46   : 	char * pszMapPathName;
; 47   : 
; 48   : 	if (!PyTuple_GetString(poArgs, 0, &pszMapPathName))

  0002d	8d 45 c8	 lea	 eax, DWORD PTR _pszMapPathName$[ebp]
  00030	50		 push	 eax
  00031	6a 00		 push	 0
  00033	56		 push	 esi
  00034	e8 00 00 00 00	 call	 ?PyTuple_GetString@@YA_NPAU_object@@HPAPAD@Z ; PyTuple_GetString
  00039	83 c4 0c	 add	 esp, 12			; 0000000cH
  0003c	84 c0		 test	 al, al
  0003e	75 0a		 jne	 SHORT $LN2@background
$LN14@background:

; 72   : }

  00040	e8 00 00 00 00	 call	 ?Py_BadArgument@@YAPAU_object@@XZ ; Py_BadArgument
  00045	e9 b3 00 00 00	 jmp	 $LN1@background
$LN2@background:

; 49   : 		return Py_BadArgument();
; 50   : 
; 51   : 	float x, y, z;
; 52   : 
; 53   : 	if (!PyTuple_GetFloat(poArgs, 1, &x))

  0004a	8d 45 cc	 lea	 eax, DWORD PTR _x$[ebp]
  0004d	50		 push	 eax
  0004e	6a 01		 push	 1
  00050	56		 push	 esi
  00051	e8 00 00 00 00	 call	 ?PyTuple_GetFloat@@YA_NPAU_object@@HPAM@Z ; PyTuple_GetFloat
  00056	83 c4 0c	 add	 esp, 12			; 0000000cH
  00059	84 c0		 test	 al, al
  0005b	74 e3		 je	 SHORT $LN14@background

; 54   : 		return Py_BadArgument();
; 55   : 
; 56   : 	if (!PyTuple_GetFloat(poArgs, 2, &y))

  0005d	8d 45 d0	 lea	 eax, DWORD PTR _y$[ebp]
  00060	50		 push	 eax
  00061	6a 02		 push	 2
  00063	56		 push	 esi
  00064	e8 00 00 00 00	 call	 ?PyTuple_GetFloat@@YA_NPAU_object@@HPAM@Z ; PyTuple_GetFloat
  00069	83 c4 0c	 add	 esp, 12			; 0000000cH
  0006c	84 c0		 test	 al, al
  0006e	74 d0		 je	 SHORT $LN14@background

; 57   : 		return Py_BadArgument();
; 58   : 
; 59   : 	if (!PyTuple_GetFloat(poArgs, 3, &z))

  00070	8d 45 d4	 lea	 eax, DWORD PTR _z$[ebp]
  00073	50		 push	 eax
  00074	6a 03		 push	 3
  00076	56		 push	 esi
  00077	e8 00 00 00 00	 call	 ?PyTuple_GetFloat@@YA_NPAU_object@@HPAM@Z ; PyTuple_GetFloat
  0007c	83 c4 0c	 add	 esp, 12			; 0000000cH
  0007f	84 c0		 test	 al, al
  00081	74 bd		 je	 SHORT $LN14@background

; 60   : 		return Py_BadArgument();
; 61   : 
; 62   : 	CPythonBackground& rkBG=CPythonBackground::Instance();

  00083	8b 3d 00 00 00
	00		 mov	 edi, DWORD PTR ?ms_singleton@?$CSingleton@VCPythonBackground@@@@0PAVCPythonBackground@@A ; CSingleton<CPythonBackground>::ms_singleton

; 63   : 	rkBG.LoadMap(pszMapPathName, x, y, z);

  00089	8d 4d d8	 lea	 ecx, DWORD PTR $T2[ebp]
  0008c	f3 0f 10 45 d4	 movss	 xmm0, DWORD PTR _z$[ebp]
  00091	ff 75 c8	 push	 DWORD PTR _pszMapPathName$[ebp]
  00094	f3 0f 11 45 c4	 movss	 DWORD PTR tv159[ebp], xmm0
  00099	f3 0f 10 45 d0	 movss	 xmm0, DWORD PTR _y$[ebp]
  0009e	8b 07		 mov	 eax, DWORD PTR [edi]
  000a0	f3 0f 11 45 c0	 movss	 DWORD PTR tv158[ebp], xmm0
  000a5	f3 0f 10 45 cc	 movss	 xmm0, DWORD PTR _x$[ebp]
  000aa	f3 0f 11 45 bc	 movss	 DWORD PTR tv157[ebp], xmm0
  000af	8b 70 0c	 mov	 esi, DWORD PTR [eax+12]
  000b2	e8 00 00 00 00	 call	 ??0?$basic_string@DU?$char_traits@D@std@@V?$allocator@D@2@@std@@QAE@QBD@Z ; std::basic_string<char,std::char_traits<char>,std::allocator<char> >::basic_string<char,std::char_traits<char>,std::allocator<char> >
  000b7	f3 0f 10 45 c4	 movss	 xmm0, DWORD PTR tv159[ebp]
  000bc	8d 45 d8	 lea	 eax, DWORD PTR $T2[ebp]
  000bf	83 ec 0c	 sub	 esp, 12			; 0000000cH
  000c2	c7 45 fc 00 00
	00 00		 mov	 DWORD PTR __$EHRec$[ebp+8], 0
  000c9	8b cf		 mov	 ecx, edi
  000cb	f3 0f 11 44 24
	08		 movss	 DWORD PTR [esp+8], xmm0
  000d1	f3 0f 10 45 c0	 movss	 xmm0, DWORD PTR tv158[ebp]
  000d6	f3 0f 11 44 24
	04		 movss	 DWORD PTR [esp+4], xmm0
  000dc	f3 0f 10 45 bc	 movss	 xmm0, DWORD PTR tv157[ebp]
  000e1	f3 0f 11 04 24	 movss	 DWORD PTR [esp], xmm0
  000e6	50		 push	 eax
  000e7	ff d6		 call	 esi
; File C:\Program Files\Microsoft Visual Studio\2022\Community\VC\Tools\MSVC\14.44.35207\include\xstring

; 1383 :         _Tidy_deallocate();

  000e9	8d 4d d8	 lea	 ecx, DWORD PTR $T2[ebp]
; File D:\_m2work\Server Client TMP4\ClientVS22\source\UserInterface\PythonBackgroundModule.cpp

; 63   : 	rkBG.LoadMap(pszMapPathName, x, y, z);

  000ec	c7 45 fc ff ff
	ff ff		 mov	 DWORD PTR __$EHRec$[ebp+8], -1
; File C:\Program Files\Microsoft Visual Studio\2022\Community\VC\Tools\MSVC\14.44.35207\include\xstring

; 1383 :         _Tidy_deallocate();

  000f3	e8 00 00 00 00	 call	 ?_Tidy_deallocate@?$basic_string@DU?$char_traits@D@std@@V?$allocator@D@2@@std@@AAEXXZ ; std::basic_string<char,std::char_traits<char>,std::allocator<char> >::_Tidy_deallocate
; File D:\_m2work\Server Client TMP4\ClientVS22\source\UserInterface\PythonBackgroundModule.cpp

; 71   : 	return Py_BuildNone();

  000f8	e8 00 00 00 00	 call	 ?Py_BuildNone@@YAPAU_object@@XZ ; Py_BuildNone
$LN1@background:

; 72   : }

  000fd	8b 4d f4	 mov	 ecx, DWORD PTR __$EHRec$[ebp]
  00100	64 89 0d 00 00
	00 00		 mov	 DWORD PTR fs:0, ecx
  00107	59		 pop	 ecx
  00108	5f		 pop	 edi
  00109	5e		 pop	 esi
  0010a	8b 4d f0	 mov	 ecx, DWORD PTR __$ArrayPad$[ebp]
  0010d	33 cd		 xor	 ecx, ebp
  0010f	e8 00 00 00 00	 call	 @__security_check_cookie@4
  00114	8b e5		 mov	 esp, ebp
  00116	5d		 pop	 ebp
  00117	c3		 ret	 0
_TEXT	ENDS
;	COMDAT text$x
text$x	SEGMENT
__unwindfunclet$?backgroundLoadMap@@YAPAU_object@@PAU1@0@Z$0:
  00000	8d 4d d8	 lea	 ecx, DWORD PTR $T2[ebp]
  00003	e9 00 00 00 00	 jmp	 ??1?$basic_string@DU?$char_traits@D@std@@V?$allocator@D@2@@std@@QAE@XZ ; std::basic_string<char,std::char_traits<char>,std::allocator<char> >::~basic_string<char,std::char_traits<char>,std::allocator<char> >
  00008	cc		 int	 3
  00009	cc		 int	 3
  0000a	cc		 int	 3
  0000b	cc		 int	 3
  0000c	cc		 int	 3
__ehhandler$?backgroundLoadMap@@YAPAU_object@@PAU1@0@Z:
  0000d	90		 npad	 1
  0000e	90		 npad	 1
  0000f	8b 54 24 08	 mov	 edx, DWORD PTR [esp+8]
  00013	8d 42 0c	 lea	 eax, DWORD PTR [edx+12]
  00016	8b 4a bc	 mov	 ecx, DWORD PTR [edx-68]
  00019	33 c8		 xor	 ecx, eax
  0001b	e8 00 00 00 00	 call	 @__security_check_cookie@4
  00020	8b 4a fc	 mov	 ecx, DWORD PTR [edx-4]
  00023	33 c8		 xor	 ecx, eax
  00025	e8 00 00 00 00	 call	 @__security_check_cookie@4
  0002a	b8 00 00 00 00	 mov	 eax, OFFSET __ehfuncinfo$?backgroundLoadMap@@YAPAU_object@@PAU1@0@Z
  0002f	e9 00 00 00 00	 jmp	 ___CxxFrameHandler3
text$x	ENDS
?backgroundLoadMap@@YAPAU_object@@PAU1@0@Z ENDP		; backgroundLoadMap
; Function compile flags: /Ogtp
; File D:\_m2work\Server Client TMP4\ClientVS22\source\UserInterface\PythonBackgroundModule.cpp
;	COMDAT ?backgroundDestroy@@YAPAU_object@@PAU1@0@Z
_TEXT	SEGMENT
_poSelf$ = 8						; size = 4
_poArgs$ = 12						; size = 4
?backgroundDestroy@@YAPAU_object@@PAU1@0@Z PROC		; backgroundDestroy, COMDAT

; 75   : {

  00000	56		 push	 esi

; 76   : 	CPythonBackground& rkBG=CPythonBackground::Instance();

  00001	8b 35 00 00 00
	00		 mov	 esi, DWORD PTR ?ms_singleton@?$CSingleton@VCPythonBackground@@@@0PAVCPythonBackground@@A ; CSingleton<CPythonBackground>::ms_singleton

; 77   : 	rkBG.SetShadowLevel(CPythonBackground::SHADOW_NONE);

  00007	8b ce		 mov	 ecx, esi
  00009	6a 00		 push	 0
  0000b	e8 00 00 00 00	 call	 ?SetShadowLevel@CPythonBackground@@QAE_NH@Z ; CPythonBackground::SetShadowLevel

; 78   : 	rkBG.Destroy();

  00010	8b ce		 mov	 ecx, esi
  00012	e8 00 00 00 00	 call	 ?Destroy@CPythonBackground@@QAEXXZ ; CPythonBackground::Destroy

; 79   : 	return Py_BuildNone();

  00017	5e		 pop	 esi
  00018	e9 00 00 00 00	 jmp	 ?Py_BuildNone@@YAPAU_object@@XZ ; Py_BuildNone
?backgroundDestroy@@YAPAU_object@@PAU1@0@Z ENDP		; backgroundDestroy
_TEXT	ENDS
; Function compile flags: /Ogtp
; File D:\_m2work\Server Client TMP4\ClientVS22\source\UserInterface\PythonBackgroundModule.cpp
;	COMDAT ?backgroundRegisterEnvironmentData@@YAPAU_object@@PAU1@0@Z
_TEXT	SEGMENT
_iIndex$ = -8						; size = 4
_pszEnvironmentFileName$ = -4				; size = 4
_poSelf$ = 8						; size = 4
_poArgs$ = 12						; size = 4
?backgroundRegisterEnvironmentData@@YAPAU_object@@PAU1@0@Z PROC ; backgroundRegisterEnvironmentData, COMDAT

; 83   : {

  00000	55		 push	 ebp
  00001	8b ec		 mov	 ebp, esp
  00003	83 ec 08	 sub	 esp, 8

; 84   : 	int iIndex;
; 85   : 	if (!PyTuple_GetInteger(poArgs, 0, &iIndex))

  00006	8d 45 f8	 lea	 eax, DWORD PTR _iIndex$[ebp]
  00009	50		 push	 eax
  0000a	6a 00		 push	 0
  0000c	ff 75 0c	 push	 DWORD PTR _poArgs$[ebp]
  0000f	e8 00 00 00 00	 call	 ?PyTuple_GetInteger@@YA_NPAU_object@@HPAH@Z ; PyTuple_GetInteger
  00014	83 c4 0c	 add	 esp, 12			; 0000000cH
  00017	84 c0		 test	 al, al
  00019	75 09		 jne	 SHORT $LN2@background
$LN6@background:

; 102  : }

  0001b	e8 00 00 00 00	 call	 ?Py_BadArgument@@YAPAU_object@@XZ ; Py_BadArgument
  00020	8b e5		 mov	 esp, ebp
  00022	5d		 pop	 ebp
  00023	c3		 ret	 0
$LN2@background:

; 86   : 		return Py_BadArgument();
; 87   : 
; 88   : 	char * pszEnvironmentFileName;
; 89   : 	if (!PyTuple_GetString(poArgs, 1, &pszEnvironmentFileName))

  00024	8d 45 fc	 lea	 eax, DWORD PTR _pszEnvironmentFileName$[ebp]
  00027	50		 push	 eax
  00028	6a 01		 push	 1
  0002a	ff 75 0c	 push	 DWORD PTR _poArgs$[ebp]
  0002d	e8 00 00 00 00	 call	 ?PyTuple_GetString@@YA_NPAU_object@@HPAPAD@Z ; PyTuple_GetString
  00032	83 c4 0c	 add	 esp, 12			; 0000000cH
  00035	84 c0		 test	 al, al
  00037	74 e2		 je	 SHORT $LN6@background

; 90   : 		return Py_BadArgument();
; 91   : 
; 92   : 	CPythonBackground& rkBG=CPythonBackground::Instance();
; 93   :  	if (!rkBG.RegisterEnvironmentData(iIndex, pszEnvironmentFileName))

  00039	ff 75 fc	 push	 DWORD PTR _pszEnvironmentFileName$[ebp]
  0003c	8b 0d 00 00 00
	00		 mov	 ecx, DWORD PTR ?ms_singleton@?$CSingleton@VCPythonBackground@@@@0PAVCPythonBackground@@A ; CSingleton<CPythonBackground>::ms_singleton
  00042	ff 75 f8	 push	 DWORD PTR _iIndex$[ebp]
  00045	e8 00 00 00 00	 call	 ?RegisterEnvironmentData@CMapManager@@QAE_NKPBD@Z ; CMapManager::RegisterEnvironmentData
  0004a	84 c0		 test	 al, al
  0004c	75 13		 jne	 SHORT $LN4@background

; 94   : 	{
; 95   : 		TraceError("background.RegisterEnvironmentData(iIndex=%d, szEnvironmentFileName=%s)", iIndex, pszEnvironmentFileName);

  0004e	ff 75 fc	 push	 DWORD PTR _pszEnvironmentFileName$[ebp]
  00051	ff 75 f8	 push	 DWORD PTR _iIndex$[ebp]
  00054	68 00 00 00 00	 push	 OFFSET ??_C@_0EI@HLELLDPI@background?4RegisterEnvironmentD@
  00059	e8 00 00 00 00	 call	 ?TraceError@@YAXPBDZZ	; TraceError
  0005e	83 c4 0c	 add	 esp, 12			; 0000000cH
$LN4@background:

; 96   : 
; 97   : 		// TODO:
; 98   : 		// 디폴트 환경 설정 작업을 해주자
; 99   : 	}
; 100  : 
; 101  : 	return Py_BuildNone();

  00061	e8 00 00 00 00	 call	 ?Py_BuildNone@@YAPAU_object@@XZ ; Py_BuildNone

; 102  : }

  00066	8b e5		 mov	 esp, ebp
  00068	5d		 pop	 ebp
  00069	c3		 ret	 0
?backgroundRegisterEnvironmentData@@YAPAU_object@@PAU1@0@Z ENDP ; backgroundRegisterEnvironmentData
_TEXT	ENDS
; Function compile flags: /Ogtp
; File D:\_m2work\Server Client TMP4\ClientVS22\source\UserInterface\PythonBackgroundModule.cpp
;	COMDAT ?backgroundSetEnvironmentData@@YAPAU_object@@PAU1@0@Z
_TEXT	SEGMENT
_c_pEnvironmenData$ = -8				; size = 4
_iIndex$ = -4						; size = 4
_poSelf$ = 8						; size = 4
_poArgs$ = 12						; size = 4
?backgroundSetEnvironmentData@@YAPAU_object@@PAU1@0@Z PROC ; backgroundSetEnvironmentData, COMDAT

; 105  : {

  00000	55		 push	 ebp
  00001	8b ec		 mov	 ebp, esp
  00003	83 ec 08	 sub	 esp, 8

; 106  : 	int iIndex;
; 107  : 	if (!PyTuple_GetInteger(poArgs, 0, &iIndex))

  00006	8d 45 fc	 lea	 eax, DWORD PTR _iIndex$[ebp]
  00009	50		 push	 eax
  0000a	6a 00		 push	 0
  0000c	ff 75 0c	 push	 DWORD PTR _poArgs$[ebp]
  0000f	e8 00 00 00 00	 call	 ?PyTuple_GetInteger@@YA_NPAU_object@@HPAH@Z ; PyTuple_GetInteger
  00014	83 c4 0c	 add	 esp, 12			; 0000000cH
  00017	84 c0		 test	 al, al
  00019	75 09		 jne	 SHORT $LN2@background

; 108  : 		return Py_BadArgument();

  0001b	e8 00 00 00 00	 call	 ?Py_BadArgument@@YAPAU_object@@XZ ; Py_BadArgument

; 117  : }

  00020	8b e5		 mov	 esp, ebp
  00022	5d		 pop	 ebp
  00023	c3		 ret	 0
$LN2@background:
  00024	56		 push	 esi

; 109  : 
; 110  : 	const TEnvironmentData * c_pEnvironmenData;
; 111  : 
; 112  : 	CPythonBackground& rkBG=CPythonBackground::Instance();

  00025	8b 35 00 00 00
	00		 mov	 esi, DWORD PTR ?ms_singleton@?$CSingleton@VCPythonBackground@@@@0PAVCPythonBackground@@A ; CSingleton<CPythonBackground>::ms_singleton

; 113  : 	if (rkBG.GetEnvironmentData(iIndex, &c_pEnvironmenData))

  0002b	8d 45 f8	 lea	 eax, DWORD PTR _c_pEnvironmenData$[ebp]
  0002e	50		 push	 eax
  0002f	ff 75 fc	 push	 DWORD PTR _iIndex$[ebp]
  00032	8b ce		 mov	 ecx, esi
  00034	e8 00 00 00 00	 call	 ?GetEnvironmentData@CMapManager@@QAE_NKPAPBUSEnvironmentData@@@Z ; CMapManager::GetEnvironmentData
  00039	84 c0		 test	 al, al
  0003b	74 0a		 je	 SHORT $LN3@background

; 114  : 		rkBG.ResetEnvironmentDataPtr(c_pEnvironmenData);

  0003d	ff 75 f8	 push	 DWORD PTR _c_pEnvironmenData$[ebp]
  00040	8b ce		 mov	 ecx, esi
  00042	e8 00 00 00 00	 call	 ?ResetEnvironmentDataPtr@CMapManager@@QAEXPBUSEnvironmentData@@@Z ; CMapManager::ResetEnvironmentDataPtr
$LN3@background:

; 115  : 
; 116  : 	return Py_BuildNone();

  00047	e8 00 00 00 00	 call	 ?Py_BuildNone@@YAPAU_object@@XZ ; Py_BuildNone
  0004c	5e		 pop	 esi

; 117  : }

  0004d	8b e5		 mov	 esp, ebp
  0004f	5d		 pop	 ebp
  00050	c3		 ret	 0
?backgroundSetEnvironmentData@@YAPAU_object@@PAU1@0@Z ENDP ; backgroundSetEnvironmentData
_TEXT	ENDS
; Function compile flags: /Ogtp
; File D:\_m2work\Server Client TMP4\ClientVS22\source\UserInterface\PythonBackgroundModule.cpp
;	COMDAT ?backgroundGetCurrentMapName@@YAPAU_object@@PAU1@0@Z
_TEXT	SEGMENT
_poSelf$ = 8						; size = 4
_poArgs$ = 12						; size = 4
?backgroundGetCurrentMapName@@YAPAU_object@@PAU1@0@Z PROC ; backgroundGetCurrentMapName, COMDAT

; 121  : 	CPythonBackground& rkBG=CPythonBackground::Instance();
; 122  : 	return Py_BuildValue("s", rkBG.GetWarpMapName());

  00000	8b 0d 00 00 00
	00		 mov	 ecx, DWORD PTR ?ms_singleton@?$CSingleton@VCPythonBackground@@@@0PAVCPythonBackground@@A ; CSingleton<CPythonBackground>::ms_singleton
  00006	e8 00 00 00 00	 call	 ?GetWarpMapName@CPythonBackground@@QAEPBDXZ ; CPythonBackground::GetWarpMapName
  0000b	50		 push	 eax
  0000c	68 00 00 00 00	 push	 OFFSET ??_C@_01LKDEMHDF@s@
  00011	ff 15 00 00 00
	00		 call	 DWORD PTR __imp__Py_BuildValue
  00017	83 c4 08	 add	 esp, 8

; 123  : }

  0001a	c3		 ret	 0
?backgroundGetCurrentMapName@@YAPAU_object@@PAU1@0@Z ENDP ; backgroundGetCurrentMapName
_TEXT	ENDS
; Function compile flags: /Ogtp
; File D:\_m2work\Server Client TMP4\ClientVS22\source\UserInterface\PythonBackgroundModule.cpp
; File D:\_m2work\Server Client TMP4\ClientVS22\extern\include\d3dx8math.inl
; File D:\_m2work\Server Client TMP4\ClientVS22\source\UserInterface\PythonBackgroundModule.cpp
;	COMDAT ?backgroundGetPickingPoint@@YAPAU_object@@PAU1@0@Z
_TEXT	SEGMENT
_kPPosPicked$ = -16					; size = 12
__$ArrayPad$ = -4					; size = 4
_poSelf$ = 8						; size = 4
_poArgs$ = 12						; size = 4
?backgroundGetPickingPoint@@YAPAU_object@@PAU1@0@Z PROC	; backgroundGetPickingPoint, COMDAT

; 126  : {

  00000	55		 push	 ebp
  00001	8b ec		 mov	 ebp, esp
  00003	83 e4 f8	 and	 esp, -8			; fffffff8H
  00006	83 ec 10	 sub	 esp, 16			; 00000010H
  00009	a1 00 00 00 00	 mov	 eax, DWORD PTR ___security_cookie
  0000e	33 c4		 xor	 eax, esp
  00010	89 44 24 0c	 mov	 DWORD PTR __$ArrayPad$[esp+16], eax

; 129  : 	if (rkBG.GetPickingPoint(&kPPosPicked))

  00014	8b 0d 00 00 00
	00		 mov	 ecx, DWORD PTR ?ms_singleton@?$CSingleton@VCPythonBackground@@@@0PAVCPythonBackground@@A ; CSingleton<CPythonBackground>::ms_singleton
  0001a	8d 04 24	 lea	 eax, DWORD PTR _kPPosPicked$[esp+16]
  0001d	50		 push	 eax
; File D:\_m2work\Server Client TMP4\ClientVS22\extern\include\d3dx8math.inl

; 180  :     x = fx;

  0001e	c7 44 24 04 00
	00 00 00	 mov	 DWORD PTR _kPPosPicked$[esp+20], 0

; 181  :     y = fy;

  00026	c7 44 24 08 00
	00 00 00	 mov	 DWORD PTR _kPPosPicked$[esp+24], 0

; 182  :     z = fz;

  0002e	c7 44 24 0c 00
	00 00 00	 mov	 DWORD PTR _kPPosPicked$[esp+28], 0
; File D:\_m2work\Server Client TMP4\ClientVS22\source\UserInterface\PythonBackgroundModule.cpp

; 129  : 	if (rkBG.GetPickingPoint(&kPPosPicked))

  00036	e8 00 00 00 00	 call	 ?GetPickingPoint@CPythonBackground@@QAE_NPAUD3DXVECTOR3@@@Z ; CPythonBackground::GetPickingPoint
  0003b	f3 0f 10 4c 24
	04		 movss	 xmm1, DWORD PTR _kPPosPicked$[esp+20]
  00041	84 c0		 test	 al, al
  00043	74 0d		 je	 SHORT $LN2@background

; 130  : 	{
; 131  : 		kPPosPicked.y=-kPPosPicked.y;

  00045	0f 57 0d 00 00
	00 00		 xorps	 xmm1, DWORD PTR __xmm@80000000800000008000000080000000
  0004c	f3 0f 11 4c 24
	04		 movss	 DWORD PTR _kPPosPicked$[esp+20], xmm1
$LN2@background:

; 132  : 	}
; 133  : 	return Py_BuildValue("fff", kPPosPicked.x, kPPosPicked.y, kPPosPicked.z);

  00052	f3 0f 10 44 24
	08		 movss	 xmm0, DWORD PTR _kPPosPicked$[esp+24]
  00058	83 ec 18	 sub	 esp, 24			; 00000018H
  0005b	0f 5a c0	 cvtps2pd xmm0, xmm0
  0005e	f2 0f 11 44 24
	10		 movsd	 QWORD PTR [esp+16], xmm0
  00064	0f 57 c0	 xorps	 xmm0, xmm0
  00067	f3 0f 5a c1	 cvtss2sd xmm0, xmm1
  0006b	f2 0f 11 44 24
	08		 movsd	 QWORD PTR [esp+8], xmm0
  00071	f3 0f 10 44 24
	18		 movss	 xmm0, DWORD PTR _kPPosPicked$[esp+40]
  00077	0f 5a c0	 cvtps2pd xmm0, xmm0
  0007a	f2 0f 11 04 24	 movsd	 QWORD PTR [esp], xmm0
  0007f	68 00 00 00 00	 push	 OFFSET ??_C@_03LPALPDIP@fff@
  00084	ff 15 00 00 00
	00		 call	 DWORD PTR __imp__Py_BuildValue

; 134  : }

  0008a	8b 4c 24 28	 mov	 ecx, DWORD PTR __$ArrayPad$[esp+44]
  0008e	83 c4 1c	 add	 esp, 28			; 0000001cH
  00091	33 cc		 xor	 ecx, esp
  00093	e8 00 00 00 00	 call	 @__security_check_cookie@4
  00098	8b e5		 mov	 esp, ebp
  0009a	5d		 pop	 ebp
  0009b	c3		 ret	 0
?backgroundGetPickingPoint@@YAPAU_object@@PAU1@0@Z ENDP	; backgroundGetPickingPoint
_TEXT	ENDS
; Function compile flags: /Ogtp
; File D:\_m2work\Server Client TMP4\ClientVS22\source\UserInterface\PythonBackgroundModule.cpp
;	COMDAT ?backgroundBeginEnvironment@@YAPAU_object@@PAU1@0@Z
_TEXT	SEGMENT
_poSelf$ = 8						; size = 4
_poArgs$ = 12						; size = 4
?backgroundBeginEnvironment@@YAPAU_object@@PAU1@0@Z PROC ; backgroundBeginEnvironment, COMDAT

; 138  : 	CPythonBackground& rkBG=CPythonBackground::Instance();
; 139  : 	rkBG.BeginEnvironment();

  00000	8b 0d 00 00 00
	00		 mov	 ecx, DWORD PTR ?ms_singleton@?$CSingleton@VCPythonBackground@@@@0PAVCPythonBackground@@A ; CSingleton<CPythonBackground>::ms_singleton
  00006	e8 00 00 00 00	 call	 ?BeginEnvironment@CMapManager@@QAEXXZ ; CMapManager::BeginEnvironment

; 140  : 	return Py_BuildNone();

  0000b	e9 00 00 00 00	 jmp	 ?Py_BuildNone@@YAPAU_object@@XZ ; Py_BuildNone
?backgroundBeginEnvironment@@YAPAU_object@@PAU1@0@Z ENDP ; backgroundBeginEnvironment
_TEXT	ENDS
; Function compile flags: /Ogtp
; File D:\_m2work\Server Client TMP4\ClientVS22\source\UserInterface\PythonBackgroundModule.cpp
;	COMDAT ?backgroundEndEnvironemt@@YAPAU_object@@PAU1@0@Z
_TEXT	SEGMENT
_poSelf$ = 8						; size = 4
_poArgs$ = 12						; size = 4
?backgroundEndEnvironemt@@YAPAU_object@@PAU1@0@Z PROC	; backgroundEndEnvironemt, COMDAT

; 145  : 	CPythonBackground& rkBG=CPythonBackground::Instance();
; 146  : 	rkBG.EndEnvironment();

  00000	8b 0d 00 00 00
	00		 mov	 ecx, DWORD PTR ?ms_singleton@?$CSingleton@VCPythonBackground@@@@0PAVCPythonBackground@@A ; CSingleton<CPythonBackground>::ms_singleton
  00006	e8 00 00 00 00	 call	 ?EndEnvironment@CMapManager@@QAEXXZ ; CMapManager::EndEnvironment

; 147  : 	return Py_BuildNone();

  0000b	e9 00 00 00 00	 jmp	 ?Py_BuildNone@@YAPAU_object@@XZ ; Py_BuildNone
?backgroundEndEnvironemt@@YAPAU_object@@PAU1@0@Z ENDP	; backgroundEndEnvironemt
_TEXT	ENDS
; Function compile flags: /Ogtp
; File D:\_m2work\Server Client TMP4\ClientVS22\source\UserInterface\PythonBackgroundModule.cpp
;	COMDAT ?backgroundSetCharacterDirLight@@YAPAU_object@@PAU1@0@Z
_TEXT	SEGMENT
_poSelf$ = 8						; size = 4
_poArgs$ = 12						; size = 4
?backgroundSetCharacterDirLight@@YAPAU_object@@PAU1@0@Z PROC ; backgroundSetCharacterDirLight, COMDAT

; 152  : 	CPythonBackground& rkBG = CPythonBackground::Instance();
; 153  : 	rkBG.SetCharacterDirLight();

  00000	8b 0d 00 00 00
	00		 mov	 ecx, DWORD PTR ?ms_singleton@?$CSingleton@VCPythonBackground@@@@0PAVCPythonBackground@@A ; CSingleton<CPythonBackground>::ms_singleton
  00006	e8 00 00 00 00	 call	 ?SetCharacterDirLight@CPythonBackground@@QAEXXZ ; CPythonBackground::SetCharacterDirLight

; 154  : 	return Py_BuildNone();

  0000b	e9 00 00 00 00	 jmp	 ?Py_BuildNone@@YAPAU_object@@XZ ; Py_BuildNone
?backgroundSetCharacterDirLight@@YAPAU_object@@PAU1@0@Z ENDP ; backgroundSetCharacterDirLight
_TEXT	ENDS
; Function compile flags: /Ogtp
; File D:\_m2work\Server Client TMP4\ClientVS22\source\UserInterface\PythonBackgroundModule.cpp
;	COMDAT ?backgroundSetBackgroundDirLight@@YAPAU_object@@PAU1@0@Z
_TEXT	SEGMENT
_poSelf$ = 8						; size = 4
_poArgs$ = 12						; size = 4
?backgroundSetBackgroundDirLight@@YAPAU_object@@PAU1@0@Z PROC ; backgroundSetBackgroundDirLight, COMDAT

; 159  : 	CPythonBackground& rkBG = CPythonBackground::Instance();
; 160  : 	rkBG.SetBackgroundDirLight();

  00000	8b 0d 00 00 00
	00		 mov	 ecx, DWORD PTR ?ms_singleton@?$CSingleton@VCPythonBackground@@@@0PAVCPythonBackground@@A ; CSingleton<CPythonBackground>::ms_singleton
  00006	e8 00 00 00 00	 call	 ?SetBackgroundDirLight@CPythonBackground@@QAEXXZ ; CPythonBackground::SetBackgroundDirLight

; 161  : 	return Py_BuildNone();

  0000b	e9 00 00 00 00	 jmp	 ?Py_BuildNone@@YAPAU_object@@XZ ; Py_BuildNone
?backgroundSetBackgroundDirLight@@YAPAU_object@@PAU1@0@Z ENDP ; backgroundSetBackgroundDirLight
_TEXT	ENDS
; Function compile flags: /Ogtp
; File D:\_m2work\Server Client TMP4\ClientVS22\source\UserInterface\PythonBackgroundModule.cpp
;	COMDAT ?backgroundInitialize@@YAPAU_object@@PAU1@0@Z
_TEXT	SEGMENT
_poSelf$ = 8						; size = 4
_poArgs$ = 12						; size = 4
?backgroundInitialize@@YAPAU_object@@PAU1@0@Z PROC	; backgroundInitialize, COMDAT

; 166  : 	CPythonBackground& rkBG=CPythonBackground::Instance();
; 167  : 	rkBG.Create();

  00000	8b 0d 00 00 00
	00		 mov	 ecx, DWORD PTR ?ms_singleton@?$CSingleton@VCPythonBackground@@@@0PAVCPythonBackground@@A ; CSingleton<CPythonBackground>::ms_singleton
  00006	e8 00 00 00 00	 call	 ?Create@CPythonBackground@@QAEXXZ ; CPythonBackground::Create

; 168  : 	return Py_BuildNone();

  0000b	e9 00 00 00 00	 jmp	 ?Py_BuildNone@@YAPAU_object@@XZ ; Py_BuildNone
?backgroundInitialize@@YAPAU_object@@PAU1@0@Z ENDP	; backgroundInitialize
_TEXT	ENDS
; Function compile flags: /Ogtp
; File D:\_m2work\Server Client TMP4\ClientVS22\source\UserInterface\PythonBackgroundModule.cpp
;	COMDAT ?backgroundUpdate@@YAPAU_object@@PAU1@0@Z
_TEXT	SEGMENT
_fCameraX$ = -12					; size = 4
_fCameraY$ = -8						; size = 4
_fCameraZ$ = -4						; size = 4
_poSelf$ = 8						; size = 4
_poArgs$ = 12						; size = 4
?backgroundUpdate@@YAPAU_object@@PAU1@0@Z PROC		; backgroundUpdate, COMDAT

; 172  : {

  00000	55		 push	 ebp
  00001	8b ec		 mov	 ebp, esp
  00003	83 ec 0c	 sub	 esp, 12			; 0000000cH

; 173  : 	float fCameraX;
; 174  : 	if (!PyTuple_GetFloat(poArgs, 0, &fCameraX))

  00006	8d 45 f4	 lea	 eax, DWORD PTR _fCameraX$[ebp]
  00009	56		 push	 esi
  0000a	8b 75 0c	 mov	 esi, DWORD PTR _poArgs$[ebp]
  0000d	50		 push	 eax
  0000e	6a 00		 push	 0
  00010	56		 push	 esi
  00011	e8 00 00 00 00	 call	 ?PyTuple_GetFloat@@YA_NPAU_object@@HPAM@Z ; PyTuple_GetFloat
  00016	83 c4 0c	 add	 esp, 12			; 0000000cH
  00019	84 c0		 test	 al, al
  0001b	75 0a		 jne	 SHORT $LN2@background
$LN9@background:

; 187  : }

  0001d	e8 00 00 00 00	 call	 ?Py_BadArgument@@YAPAU_object@@XZ ; Py_BadArgument
  00022	5e		 pop	 esi
  00023	8b e5		 mov	 esp, ebp
  00025	5d		 pop	 ebp
  00026	c3		 ret	 0
$LN2@background:

; 175  : 		return Py_BadArgument();
; 176  : 
; 177  : 	float fCameraY;
; 178  : 	if (!PyTuple_GetFloat(poArgs, 1, &fCameraY))

  00027	8d 45 f8	 lea	 eax, DWORD PTR _fCameraY$[ebp]
  0002a	50		 push	 eax
  0002b	6a 01		 push	 1
  0002d	56		 push	 esi
  0002e	e8 00 00 00 00	 call	 ?PyTuple_GetFloat@@YA_NPAU_object@@HPAM@Z ; PyTuple_GetFloat
  00033	83 c4 0c	 add	 esp, 12			; 0000000cH
  00036	84 c0		 test	 al, al
  00038	74 e3		 je	 SHORT $LN9@background

; 179  : 		return Py_BadArgument();
; 180  : 
; 181  : 	float fCameraZ;
; 182  : 	if (!PyTuple_GetFloat(poArgs, 2, &fCameraZ))

  0003a	8d 45 fc	 lea	 eax, DWORD PTR _fCameraZ$[ebp]
  0003d	50		 push	 eax
  0003e	6a 02		 push	 2
  00040	56		 push	 esi
  00041	e8 00 00 00 00	 call	 ?PyTuple_GetFloat@@YA_NPAU_object@@HPAM@Z ; PyTuple_GetFloat
  00046	83 c4 0c	 add	 esp, 12			; 0000000cH
  00049	84 c0		 test	 al, al
  0004b	74 d0		 je	 SHORT $LN9@background

; 183  : 		return Py_BadArgument();
; 184  : 
; 185  : 	CPythonBackground::Instance().Update(fCameraX, fCameraY, fCameraZ);

  0004d	f3 0f 10 5d fc	 movss	 xmm3, DWORD PTR _fCameraZ$[ebp]
  00052	f3 0f 10 55 f8	 movss	 xmm2, DWORD PTR _fCameraY$[ebp]
  00057	f3 0f 10 4d f4	 movss	 xmm1, DWORD PTR _fCameraX$[ebp]
  0005c	8b 0d 00 00 00
	00		 mov	 ecx, DWORD PTR ?ms_singleton@?$CSingleton@VCPythonBackground@@@@0PAVCPythonBackground@@A ; CSingleton<CPythonBackground>::ms_singleton
  00062	e8 00 00 00 00	 call	 ?Update@CPythonBackground@@QAEXMMM@Z ; CPythonBackground::Update

; 186  : 	return Py_BuildNone();

  00067	e8 00 00 00 00	 call	 ?Py_BuildNone@@YAPAU_object@@XZ ; Py_BuildNone
  0006c	5e		 pop	 esi

; 187  : }

  0006d	8b e5		 mov	 esp, ebp
  0006f	5d		 pop	 ebp
  00070	c3		 ret	 0
?backgroundUpdate@@YAPAU_object@@PAU1@0@Z ENDP		; backgroundUpdate
_TEXT	ENDS
; Function compile flags: /Ogtp
; File D:\_m2work\Server Client TMP4\ClientVS22\source\UserInterface\PythonBackgroundModule.cpp
;	COMDAT ?backgroundRender@@YAPAU_object@@PAU1@0@Z
_TEXT	SEGMENT
_poSelf$ = 8						; size = 4
_poArgs$ = 12						; size = 4
?backgroundRender@@YAPAU_object@@PAU1@0@Z PROC		; backgroundRender, COMDAT

; 191  : 	CPythonBackground::Instance().Render();

  00000	8b 0d 00 00 00
	00		 mov	 ecx, DWORD PTR ?ms_singleton@?$CSingleton@VCPythonBackground@@@@0PAVCPythonBackground@@A ; CSingleton<CPythonBackground>::ms_singleton
  00006	e8 00 00 00 00	 call	 ?Render@CPythonBackground@@QAEXXZ ; CPythonBackground::Render

; 192  : 	return Py_BuildNone();

  0000b	e9 00 00 00 00	 jmp	 ?Py_BuildNone@@YAPAU_object@@XZ ; Py_BuildNone
?backgroundRender@@YAPAU_object@@PAU1@0@Z ENDP		; backgroundRender
_TEXT	ENDS
; Function compile flags: /Ogtp
; File D:\_m2work\Server Client TMP4\ClientVS22\source\UserInterface\PythonBackgroundModule.cpp
;	COMDAT ?backgroundRenderPCBlocker@@YAPAU_object@@PAU1@0@Z
_TEXT	SEGMENT
_poSelf$ = 8						; size = 4
_poArgs$ = 12						; size = 4
?backgroundRenderPCBlocker@@YAPAU_object@@PAU1@0@Z PROC	; backgroundRenderPCBlocker, COMDAT

; 197  : 	CPythonBackground::Instance().RenderPCBlocker();

  00000	8b 0d 00 00 00
	00		 mov	 ecx, DWORD PTR ?ms_singleton@?$CSingleton@VCPythonBackground@@@@0PAVCPythonBackground@@A ; CSingleton<CPythonBackground>::ms_singleton
  00006	e8 00 00 00 00	 call	 ?RenderPCBlocker@CPythonBackground@@QAEXXZ ; CPythonBackground::RenderPCBlocker

; 198  : 	return Py_BuildNone();

  0000b	e9 00 00 00 00	 jmp	 ?Py_BuildNone@@YAPAU_object@@XZ ; Py_BuildNone
?backgroundRenderPCBlocker@@YAPAU_object@@PAU1@0@Z ENDP	; backgroundRenderPCBlocker
_TEXT	ENDS
; Function compile flags: /Ogtp
; File D:\_m2work\Server Client TMP4\ClientVS22\source\UserInterface\PythonBackgroundModule.cpp
;	COMDAT ?backgroundRenderCollision@@YAPAU_object@@PAU1@0@Z
_TEXT	SEGMENT
_poSelf$ = 8						; size = 4
_poArgs$ = 12						; size = 4
?backgroundRenderCollision@@YAPAU_object@@PAU1@0@Z PROC	; backgroundRenderCollision, COMDAT

; 203  : 	CPythonBackground::Instance().RenderCollision();

  00000	8b 0d 00 00 00
	00		 mov	 ecx, DWORD PTR ?ms_singleton@?$CSingleton@VCPythonBackground@@@@0PAVCPythonBackground@@A ; CSingleton<CPythonBackground>::ms_singleton
  00006	e8 00 00 00 00	 call	 ?RenderCollision@CPythonBackground@@QAEXXZ ; CPythonBackground::RenderCollision

; 204  : 	return Py_BuildNone();

  0000b	e9 00 00 00 00	 jmp	 ?Py_BuildNone@@YAPAU_object@@XZ ; Py_BuildNone
?backgroundRenderCollision@@YAPAU_object@@PAU1@0@Z ENDP	; backgroundRenderCollision
_TEXT	ENDS
; Function compile flags: /Ogtp
; File D:\_m2work\Server Client TMP4\ClientVS22\source\UserInterface\PythonBackgroundModule.cpp
;	COMDAT ?backgroundRenderSky@@YAPAU_object@@PAU1@0@Z
_TEXT	SEGMENT
_poSelf$ = 8						; size = 4
_poArgs$ = 12						; size = 4
?backgroundRenderSky@@YAPAU_object@@PAU1@0@Z PROC	; backgroundRenderSky, COMDAT

; 209  : 	CPythonBackground::Instance().RenderSky();

  00000	8b 0d 00 00 00
	00		 mov	 ecx, DWORD PTR ?ms_singleton@?$CSingleton@VCPythonBackground@@@@0PAVCPythonBackground@@A ; CSingleton<CPythonBackground>::ms_singleton
  00006	e8 00 00 00 00	 call	 ?RenderSky@CPythonBackground@@QAEXXZ ; CPythonBackground::RenderSky

; 210  : 	return Py_BuildNone();

  0000b	e9 00 00 00 00	 jmp	 ?Py_BuildNone@@YAPAU_object@@XZ ; Py_BuildNone
?backgroundRenderSky@@YAPAU_object@@PAU1@0@Z ENDP	; backgroundRenderSky
_TEXT	ENDS
; Function compile flags: /Ogtp
; File D:\_m2work\Server Client TMP4\ClientVS22\source\UserInterface\PythonBackgroundModule.cpp
;	COMDAT ?backgroundRenderCloud@@YAPAU_object@@PAU1@0@Z
_TEXT	SEGMENT
_poSelf$ = 8						; size = 4
_poArgs$ = 12						; size = 4
?backgroundRenderCloud@@YAPAU_object@@PAU1@0@Z PROC	; backgroundRenderCloud, COMDAT

; 215  : 	CPythonBackground::Instance().RenderCloud();

  00000	8b 0d 00 00 00
	00		 mov	 ecx, DWORD PTR ?ms_singleton@?$CSingleton@VCPythonBackground@@@@0PAVCPythonBackground@@A ; CSingleton<CPythonBackground>::ms_singleton
  00006	e8 00 00 00 00	 call	 ?RenderCloud@CPythonBackground@@QAEXXZ ; CPythonBackground::RenderCloud

; 216  : 	return Py_BuildNone();

  0000b	e9 00 00 00 00	 jmp	 ?Py_BuildNone@@YAPAU_object@@XZ ; Py_BuildNone
?backgroundRenderCloud@@YAPAU_object@@PAU1@0@Z ENDP	; backgroundRenderCloud
_TEXT	ENDS
; Function compile flags: /Ogtp
; File D:\_m2work\Server Client TMP4\ClientVS22\source\UserInterface\PythonBackgroundModule.cpp
;	COMDAT ?backgroundRenderWater@@YAPAU_object@@PAU1@0@Z
_TEXT	SEGMENT
_poSelf$ = 8						; size = 4
_poArgs$ = 12						; size = 4
?backgroundRenderWater@@YAPAU_object@@PAU1@0@Z PROC	; backgroundRenderWater, COMDAT

; 221  : 	CPythonBackground::Instance().RenderWater();

  00000	8b 0d 00 00 00
	00		 mov	 ecx, DWORD PTR ?ms_singleton@?$CSingleton@VCPythonBackground@@@@0PAVCPythonBackground@@A ; CSingleton<CPythonBackground>::ms_singleton
  00006	e8 00 00 00 00	 call	 ?RenderWater@CPythonBackground@@QAEXXZ ; CPythonBackground::RenderWater

; 222  : 	return Py_BuildNone();

  0000b	e9 00 00 00 00	 jmp	 ?Py_BuildNone@@YAPAU_object@@XZ ; Py_BuildNone
?backgroundRenderWater@@YAPAU_object@@PAU1@0@Z ENDP	; backgroundRenderWater
_TEXT	ENDS
; Function compile flags: /Ogtp
; File D:\_m2work\Server Client TMP4\ClientVS22\source\UserInterface\PythonBackgroundModule.cpp
;	COMDAT ?backgroundRenderEffect@@YAPAU_object@@PAU1@0@Z
_TEXT	SEGMENT
_poSelf$ = 8						; size = 4
_poArgs$ = 12						; size = 4
?backgroundRenderEffect@@YAPAU_object@@PAU1@0@Z PROC	; backgroundRenderEffect, COMDAT

; 227  : 	CPythonBackground::Instance().RenderEffect();

  00000	8b 0d 00 00 00
	00		 mov	 ecx, DWORD PTR ?ms_singleton@?$CSingleton@VCPythonBackground@@@@0PAVCPythonBackground@@A ; CSingleton<CPythonBackground>::ms_singleton
  00006	e8 00 00 00 00	 call	 ?RenderEffect@CPythonBackground@@QAEXXZ ; CPythonBackground::RenderEffect

; 228  : 	return Py_BuildNone();

  0000b	e9 00 00 00 00	 jmp	 ?Py_BuildNone@@YAPAU_object@@XZ ; Py_BuildNone
?backgroundRenderEffect@@YAPAU_object@@PAU1@0@Z ENDP	; backgroundRenderEffect
_TEXT	ENDS
; Function compile flags: /Ogtp
; File D:\_m2work\Server Client TMP4\ClientVS22\source\UserInterface\PythonBackgroundModule.cpp
;	COMDAT ?backgroundRenderBeforeLensFlare@@YAPAU_object@@PAU1@0@Z
_TEXT	SEGMENT
_poSelf$ = 8						; size = 4
_poArgs$ = 12						; size = 4
?backgroundRenderBeforeLensFlare@@YAPAU_object@@PAU1@0@Z PROC ; backgroundRenderBeforeLensFlare, COMDAT

; 233  : 	CPythonBackground::Instance().RenderBeforeLensFlare();

  00000	8b 0d 00 00 00
	00		 mov	 ecx, DWORD PTR ?ms_singleton@?$CSingleton@VCPythonBackground@@@@0PAVCPythonBackground@@A ; CSingleton<CPythonBackground>::ms_singleton
  00006	e8 00 00 00 00	 call	 ?RenderBeforeLensFlare@CPythonBackground@@QAEXXZ ; CPythonBackground::RenderBeforeLensFlare

; 234  : 	return Py_BuildNone();

  0000b	e9 00 00 00 00	 jmp	 ?Py_BuildNone@@YAPAU_object@@XZ ; Py_BuildNone
?backgroundRenderBeforeLensFlare@@YAPAU_object@@PAU1@0@Z ENDP ; backgroundRenderBeforeLensFlare
_TEXT	ENDS
; Function compile flags: /Ogtp
; File D:\_m2work\Server Client TMP4\ClientVS22\source\UserInterface\PythonBackgroundModule.cpp
;	COMDAT ?backgroundRenderAfterLensFlare@@YAPAU_object@@PAU1@0@Z
_TEXT	SEGMENT
_poSelf$ = 8						; size = 4
_poArgs$ = 12						; size = 4
?backgroundRenderAfterLensFlare@@YAPAU_object@@PAU1@0@Z PROC ; backgroundRenderAfterLensFlare, COMDAT

; 239  : 	CPythonBackground::Instance().RenderAfterLensFlare();

  00000	8b 0d 00 00 00
	00		 mov	 ecx, DWORD PTR ?ms_singleton@?$CSingleton@VCPythonBackground@@@@0PAVCPythonBackground@@A ; CSingleton<CPythonBackground>::ms_singleton
  00006	e8 00 00 00 00	 call	 ?RenderAfterLensFlare@CPythonBackground@@QAEXXZ ; CPythonBackground::RenderAfterLensFlare

; 240  : 	return Py_BuildNone();

  0000b	e9 00 00 00 00	 jmp	 ?Py_BuildNone@@YAPAU_object@@XZ ; Py_BuildNone
?backgroundRenderAfterLensFlare@@YAPAU_object@@PAU1@0@Z ENDP ; backgroundRenderAfterLensFlare
_TEXT	ENDS
; Function compile flags: /Ogtp
; File D:\_m2work\Server Client TMP4\ClientVS22\source\UserInterface\PythonBackgroundModule.cpp
;	COMDAT ?backgroundRenderCharacterShadowToTexture@@YAPAU_object@@PAU1@0@Z
_TEXT	SEGMENT
_poSelf$ = 8						; size = 4
_poArgs$ = 12						; size = 4
?backgroundRenderCharacterShadowToTexture@@YAPAU_object@@PAU1@0@Z PROC ; backgroundRenderCharacterShadowToTexture, COMDAT

; 245  : 	CPythonBackground::Instance().RenderCharacterShadowToTexture();

  00000	8b 0d 00 00 00
	00		 mov	 ecx, DWORD PTR ?ms_singleton@?$CSingleton@VCPythonBackground@@@@0PAVCPythonBackground@@A ; CSingleton<CPythonBackground>::ms_singleton
  00006	e8 00 00 00 00	 call	 ?RenderCharacterShadowToTexture@CPythonBackground@@QAEXXZ ; CPythonBackground::RenderCharacterShadowToTexture

; 246  : 	return Py_BuildNone();

  0000b	e9 00 00 00 00	 jmp	 ?Py_BuildNone@@YAPAU_object@@XZ ; Py_BuildNone
?backgroundRenderCharacterShadowToTexture@@YAPAU_object@@PAU1@0@Z ENDP ; backgroundRenderCharacterShadowToTexture
_TEXT	ENDS
; Function compile flags: /Ogtp
; File D:\_m2work\Server Client TMP4\ClientVS22\source\UserInterface\PythonBackgroundModule.cpp
;	COMDAT ?backgroundRenderDungeon@@YAPAU_object@@PAU1@0@Z
_TEXT	SEGMENT
_poSelf$ = 8						; size = 4
_poArgs$ = 12						; size = 4
?backgroundRenderDungeon@@YAPAU_object@@PAU1@0@Z PROC	; backgroundRenderDungeon, COMDAT

; 251  : 	assert(!"background.RenderDungeon() - 사용하지 않는 함수입니다 - [levites]");
; 252  : 	return Py_BuildNone();

  00000	e9 00 00 00 00	 jmp	 ?Py_BuildNone@@YAPAU_object@@XZ ; Py_BuildNone
?backgroundRenderDungeon@@YAPAU_object@@PAU1@0@Z ENDP	; backgroundRenderDungeon
_TEXT	ENDS
; Function compile flags: /Ogtp
; File D:\_m2work\Server Client TMP4\ClientVS22\source\UserInterface\PythonBackgroundModule.cpp
;	COMDAT ?backgroundGetHeight@@YAPAU_object@@PAU1@0@Z
_TEXT	SEGMENT
_fz$ = -12						; size = 4
_fx$ = -8						; size = 4
_fy$ = -4						; size = 4
_poSelf$ = 8						; size = 4
_poArgs$ = 12						; size = 4
?backgroundGetHeight@@YAPAU_object@@PAU1@0@Z PROC	; backgroundGetHeight, COMDAT

; 256  : {

  00000	55		 push	 ebp
  00001	8b ec		 mov	 ebp, esp
  00003	83 ec 0c	 sub	 esp, 12			; 0000000cH

; 257  : 	float fx;
; 258  : 	if (!PyTuple_GetFloat(poArgs, 0, &fx))

  00006	8d 45 f8	 lea	 eax, DWORD PTR _fx$[ebp]
  00009	50		 push	 eax
  0000a	6a 00		 push	 0
  0000c	ff 75 0c	 push	 DWORD PTR _poArgs$[ebp]
  0000f	e8 00 00 00 00	 call	 ?PyTuple_GetFloat@@YA_NPAU_object@@HPAM@Z ; PyTuple_GetFloat
  00014	83 c4 0c	 add	 esp, 12			; 0000000cH
  00017	84 c0		 test	 al, al
  00019	75 09		 jne	 SHORT $LN2@background
$LN5@background:

; 267  : }

  0001b	e8 00 00 00 00	 call	 ?Py_BadArgument@@YAPAU_object@@XZ ; Py_BadArgument
  00020	8b e5		 mov	 esp, ebp
  00022	5d		 pop	 ebp
  00023	c3		 ret	 0
$LN2@background:

; 259  : 		return Py_BadArgument();
; 260  : 
; 261  : 	float fy;
; 262  : 	if (!PyTuple_GetFloat(poArgs, 1, &fy))

  00024	8d 45 fc	 lea	 eax, DWORD PTR _fy$[ebp]
  00027	50		 push	 eax
  00028	6a 01		 push	 1
  0002a	ff 75 0c	 push	 DWORD PTR _poArgs$[ebp]
  0002d	e8 00 00 00 00	 call	 ?PyTuple_GetFloat@@YA_NPAU_object@@HPAM@Z ; PyTuple_GetFloat
  00032	83 c4 0c	 add	 esp, 12			; 0000000cH
  00035	84 c0		 test	 al, al
  00037	74 e2		 je	 SHORT $LN5@background

; 263  : 		return Py_BadArgument();
; 264  : 
; 265  : 	float fz = CPythonBackground::Instance().GetHeight(fx, fy);

  00039	f3 0f 10 45 fc	 movss	 xmm0, DWORD PTR _fy$[ebp]
  0003e	83 ec 08	 sub	 esp, 8
  00041	f3 0f 10 4d f8	 movss	 xmm1, DWORD PTR _fx$[ebp]
  00046	8b 0d 00 00 00
	00		 mov	 ecx, DWORD PTR ?ms_singleton@?$CSingleton@VCPythonBackground@@@@0PAVCPythonBackground@@A ; CSingleton<CPythonBackground>::ms_singleton
  0004c	f3 0f 11 44 24
	04		 movss	 DWORD PTR [esp+4], xmm0
  00052	f3 0f 11 0c 24	 movss	 DWORD PTR [esp], xmm1
  00057	e8 00 00 00 00	 call	 ?GetHeight@CMapManager@@QAEMMM@Z ; CMapManager::GetHeight
  0005c	d9 5d f4	 fstp	 DWORD PTR _fz$[ebp]
  0005f	f3 0f 10 45 f4	 movss	 xmm0, DWORD PTR _fz$[ebp]

; 266  : 	return Py_BuildValue("f", fz);

  00064	83 ec 08	 sub	 esp, 8
  00067	0f 5a c0	 cvtps2pd xmm0, xmm0
  0006a	f2 0f 11 04 24	 movsd	 QWORD PTR [esp], xmm0
  0006f	68 00 00 00 00	 push	 OFFSET ??_C@_01INIBCBCB@f@
  00074	ff 15 00 00 00
	00		 call	 DWORD PTR __imp__Py_BuildValue
  0007a	83 c4 0c	 add	 esp, 12			; 0000000cH

; 267  : }

  0007d	8b e5		 mov	 esp, ebp
  0007f	5d		 pop	 ebp
  00080	c3		 ret	 0
?backgroundGetHeight@@YAPAU_object@@PAU1@0@Z ENDP	; backgroundGetHeight
_TEXT	ENDS
; Function compile flags: /Ogtp
; File D:\_m2work\Server Client TMP4\ClientVS22\source\UserInterface\PythonBackgroundModule.cpp
; File C:\Program Files\Microsoft Visual Studio\2022\Community\VC\Tools\MSVC\14.44.35207\include\vector
; File D:\_m2work\Server Client TMP4\ClientVS22\source\UserInterface\PythonBackgroundModule.cpp
; File C:\Program Files\Microsoft Visual Studio\2022\Community\VC\Tools\MSVC\14.44.35207\include\vector
; File D:\_m2work\Server Client TMP4\ClientVS22\source\UserInterface\PythonBackgroundModule.cpp
; File C:\Program Files\Microsoft Visual Studio\2022\Community\VC\Tools\MSVC\14.44.35207\include\vector
; File D:\_m2work\Server Client TMP4\ClientVS22\source\UserInterface\PythonBackgroundModule.cpp
; File C:\Program Files\Microsoft Visual Studio\2022\Community\VC\Tools\MSVC\14.44.35207\include\vector
; File D:\_m2work\Server Client TMP4\ClientVS22\source\UserInterface\PythonBackgroundModule.cpp
;	COMDAT ?backgroundGetRenderedSplatNum@@YAPAU_object@@PAU1@0@Z
_TEXT	SEGMENT
_fSplatRatio$ = -284					; size = 4
_iSplat$ = -280						; size = 4
_iPatch$ = -276						; size = 4
_szOutput$ = -272					; size = 260
__$ArrayPad$ = -4					; size = 4
_poSelf$ = 8						; size = 4
_poArgs$ = 12						; size = 4
?backgroundGetRenderedSplatNum@@YAPAU_object@@PAU1@0@Z PROC ; backgroundGetRenderedSplatNum, COMDAT

; 270  : {

  00000	55		 push	 ebp
  00001	8b ec		 mov	 ebp, esp
  00003	83 e4 c0	 and	 esp, -64		; ffffffc0H
  00006	81 ec 34 01 00
	00		 sub	 esp, 308		; 00000134H
  0000c	a1 00 00 00 00	 mov	 eax, DWORD PTR ___security_cookie
  00011	33 c4		 xor	 eax, esp
  00013	89 84 24 30 01
	00 00		 mov	 DWORD PTR __$ArrayPad$[esp+308], eax

; 271  : 	int iPatch;
; 272  : 	int iSplat;
; 273  : 	float fSplatRatio;
; 274  : 
; 275  : 	std::vector<int> & aTextureNumVector = CPythonBackground::Instance().GetRenderedSplatNum(&iPatch, &iSplat, &fSplatRatio);

  0001a	8b 0d 00 00 00
	00		 mov	 ecx, DWORD PTR ?ms_singleton@?$CSingleton@VCPythonBackground@@@@0PAVCPythonBackground@@A ; CSingleton<CPythonBackground>::ms_singleton
  00020	8d 44 24 18	 lea	 eax, DWORD PTR _fSplatRatio$[esp+308]
  00024	53		 push	 ebx
  00025	56		 push	 esi
  00026	57		 push	 edi
  00027	50		 push	 eax
  00028	8d 44 24 2c	 lea	 eax, DWORD PTR _iSplat$[esp+324]
  0002c	50		 push	 eax
  0002d	8d 44 24 34	 lea	 eax, DWORD PTR _iPatch$[esp+328]
  00031	50		 push	 eax
  00032	e8 00 00 00 00	 call	 ?GetRenderedSplatNum@CMapManager@@QAEAAV?$vector@HV?$allocator@H@std@@@std@@PAH0PAM@Z ; CMapManager::GetRenderedSplatNum

; 277  : 	char szOutput[MAX_PATH] = "";

  00037	68 03 01 00 00	 push	 259			; 00000103H
  0003c	8b d8		 mov	 ebx, eax
  0003e	c6 44 24 34 00	 mov	 BYTE PTR _szOutput$[esp+324], 0
  00043	8d 44 24 35	 lea	 eax, DWORD PTR _szOutput$[esp+325]
  00047	6a 00		 push	 0
  00049	50		 push	 eax
  0004a	e8 00 00 00 00	 call	 _memset
; File C:\Program Files\Microsoft Visual Studio\2022\Community\VC\Tools\MSVC\14.44.35207\include\vector

; 46   :     _CONSTEXPR20 _Vector_const_iterator(_Tptr _Parg, const _Container_base* _Pvector) noexcept : _Ptr(_Parg) {

  0004f	8b 33		 mov	 esi, DWORD PTR [ebx]
; File D:\_m2work\Server Client TMP4\ClientVS22\source\UserInterface\PythonBackgroundModule.cpp

; 277  : 	char szOutput[MAX_PATH] = "";

  00051	83 c4 0c	 add	 esp, 12			; 0000000cH

; 278  : 	int iOutput = 0;

  00054	33 ff		 xor	 edi, edi
; File C:\Program Files\Microsoft Visual Studio\2022\Community\VC\Tools\MSVC\14.44.35207\include\vector

; 46   :     _CONSTEXPR20 _Vector_const_iterator(_Tptr _Parg, const _Container_base* _Pvector) noexcept : _Ptr(_Parg) {

  00056	3b 73 04	 cmp	 esi, DWORD PTR [ebx+4]
; File D:\_m2work\Server Client TMP4\ClientVS22\source\UserInterface\PythonBackgroundModule.cpp

; 279  : 	for( std::vector<int>::iterator it = aTextureNumVector.begin(); it != aTextureNumVector.end(); it++ ) {

  00059	74 2d		 je	 SHORT $LN3@background
  0005b	0f 1f 44 00 00	 npad	 5
$LL4@background:

; 280  : 		iOutput += snprintf(szOutput + iOutput, sizeof(szOutput) - iOutput, "%d ", *it);

  00060	ff 36		 push	 DWORD PTR [esi]
  00062	b8 04 01 00 00	 mov	 eax, 260		; 00000104H
  00067	2b c7		 sub	 eax, edi
  00069	68 00 00 00 00	 push	 OFFSET ??_C@_03JDANDILB@?$CFd?5@
  0006e	50		 push	 eax
  0006f	8d 44 24 3c	 lea	 eax, DWORD PTR _szOutput$[esp+332]
  00073	03 c7		 add	 eax, edi
  00075	50		 push	 eax
  00076	e8 00 00 00 00	 call	 __snprintf
; File C:\Program Files\Microsoft Visual Studio\2022\Community\VC\Tools\MSVC\14.44.35207\include\vector

; 82   :         ++_Ptr;

  0007b	83 c6 04	 add	 esi, 4
; File D:\_m2work\Server Client TMP4\ClientVS22\source\UserInterface\PythonBackgroundModule.cpp

; 280  : 		iOutput += snprintf(szOutput + iOutput, sizeof(szOutput) - iOutput, "%d ", *it);

  0007e	83 c4 10	 add	 esp, 16			; 00000010H
  00081	03 f8		 add	 edi, eax
; File C:\Program Files\Microsoft Visual Studio\2022\Community\VC\Tools\MSVC\14.44.35207\include\vector

; 166  :         return _Ptr == _Right._Ptr;

  00083	3b 73 04	 cmp	 esi, DWORD PTR [ebx+4]
; File D:\_m2work\Server Client TMP4\ClientVS22\source\UserInterface\PythonBackgroundModule.cpp

; 279  : 	for( std::vector<int>::iterator it = aTextureNumVector.begin(); it != aTextureNumVector.end(); it++ ) {

  00086	75 d8		 jne	 SHORT $LL4@background
$LN3@background:
  00088	f3 0f 10 44 24
	24		 movss	 xmm0, DWORD PTR _fSplatRatio$[esp+320]

; 281  : 	}
; 282  : 	//std::copy(aTextureNumVector.begin(),aTextureNumVector.end(),std::ostream_iterator<int>(ostr," "));
; 283  : 
; 284  : 	return Py_BuildValue("iifs", iPatch, iSplat, fSplatRatio, szOutput);

  0008e	8d 44 24 30	 lea	 eax, DWORD PTR _szOutput$[esp+320]
  00092	50		 push	 eax
  00093	0f 5a c0	 cvtps2pd xmm0, xmm0
  00096	83 ec 08	 sub	 esp, 8
  00099	f2 0f 11 04 24	 movsd	 QWORD PTR [esp], xmm0
  0009e	ff 74 24 34	 push	 DWORD PTR _iSplat$[esp+332]
  000a2	ff 74 24 3c	 push	 DWORD PTR _iPatch$[esp+336]
  000a6	68 00 00 00 00	 push	 OFFSET ??_C@_04KDJJDIPA@iifs@
  000ab	ff 15 00 00 00
	00		 call	 DWORD PTR __imp__Py_BuildValue

; 285  : }

  000b1	8b 8c 24 54 01
	00 00		 mov	 ecx, DWORD PTR __$ArrayPad$[esp+344]
  000b8	83 c4 18	 add	 esp, 24			; 00000018H
  000bb	5f		 pop	 edi
  000bc	5e		 pop	 esi
  000bd	5b		 pop	 ebx
  000be	33 cc		 xor	 ecx, esp
  000c0	e8 00 00 00 00	 call	 @__security_check_cookie@4
  000c5	8b e5		 mov	 esp, ebp
  000c7	5d		 pop	 ebp
  000c8	c3		 ret	 0
?backgroundGetRenderedSplatNum@@YAPAU_object@@PAU1@0@Z ENDP ; backgroundGetRenderedSplatNum
_TEXT	ENDS
; Function compile flags: /Ogtp
; File D:\_m2work\Server Client TMP4\ClientVS22\source\UserInterface\PythonBackgroundModule.cpp
;	COMDAT ?backgroundGetRenderedGTINum@@YAPAU_object@@PAU1@0@Z
_TEXT	SEGMENT
_dwGraphicThingInstanceNum$ = -8			; size = 4
_dwCRCNum$ = -4						; size = 4
_poSelf$ = 8						; size = 4
_poArgs$ = 12						; size = 4
?backgroundGetRenderedGTINum@@YAPAU_object@@PAU1@0@Z PROC ; backgroundGetRenderedGTINum, COMDAT

; 288  : {

  00000	55		 push	 ebp
  00001	8b ec		 mov	 ebp, esp
  00003	83 ec 08	 sub	 esp, 8

; 289  : 	DWORD dwGraphicThingInstanceNum;
; 290  : 	DWORD dwCRCNum;
; 291  : 
; 292  : 	/*CArea::TCRCWithNumberVector & rCRCWithNumberVector = */
; 293  : 	CPythonBackground::Instance().GetRenderedGraphicThingInstanceNum(&dwGraphicThingInstanceNum, &dwCRCNum);

  00006	8b 0d 00 00 00
	00		 mov	 ecx, DWORD PTR ?ms_singleton@?$CSingleton@VCPythonBackground@@@@0PAVCPythonBackground@@A ; CSingleton<CPythonBackground>::ms_singleton
  0000c	8d 45 fc	 lea	 eax, DWORD PTR _dwCRCNum$[ebp]
  0000f	50		 push	 eax
  00010	8d 45 f8	 lea	 eax, DWORD PTR _dwGraphicThingInstanceNum$[ebp]
  00013	50		 push	 eax
  00014	e8 00 00 00 00	 call	 ?GetRenderedGraphicThingInstanceNum@CMapManager@@QAEAAV?$vector@USCRCWithNumber@CArea@@V?$allocator@USCRCWithNumber@CArea@@@std@@@std@@PAK0@Z ; CMapManager::GetRenderedGraphicThingInstanceNum

; 294  : 
; 295  : /*
; 296  : 	std::ostringstream ostr;
; 297  : 
; 298  : 	std::for_each(rCRCWithNumberVector.begin(),rCRCWithNumberVector.end(),std::ostream_iterator<CArea::TCRCWithNumberVector>(ostr," "));
; 299  : */
; 300  : 
; 301  : 	return Py_BuildValue("ii", dwGraphicThingInstanceNum, dwCRCNum);

  00019	ff 75 fc	 push	 DWORD PTR _dwCRCNum$[ebp]
  0001c	ff 75 f8	 push	 DWORD PTR _dwGraphicThingInstanceNum$[ebp]
  0001f	68 00 00 00 00	 push	 OFFSET ??_C@_02PDIHAGKM@ii@
  00024	ff 15 00 00 00
	00		 call	 DWORD PTR __imp__Py_BuildValue
  0002a	83 c4 0c	 add	 esp, 12			; 0000000cH

; 302  : }

  0002d	8b e5		 mov	 esp, ebp
  0002f	5d		 pop	 ebp
  00030	c3		 ret	 0
?backgroundGetRenderedGTINum@@YAPAU_object@@PAU1@0@Z ENDP ; backgroundGetRenderedGTINum
_TEXT	ENDS
; Function compile flags: /Ogtp
; File D:\_m2work\Server Client TMP4\ClientVS22\source\UserInterface\PythonBackgroundModule.cpp
;	COMDAT ?backgroundGetRenderShadowTime@@YAPAU_object@@PAU1@0@Z
_TEXT	SEGMENT
_poSelf$ = 8						; size = 4
_poArgs$ = 12						; size = 4
?backgroundGetRenderShadowTime@@YAPAU_object@@PAU1@0@Z PROC ; backgroundGetRenderShadowTime, COMDAT

; 306  : 	CPythonBackground& rkBG=CPythonBackground::Instance();
; 307  : 	return Py_BuildValue("i", rkBG.GetRenderShadowTime());

  00000	8b 0d 00 00 00
	00		 mov	 ecx, DWORD PTR ?ms_singleton@?$CSingleton@VCPythonBackground@@@@0PAVCPythonBackground@@A ; CSingleton<CPythonBackground>::ms_singleton
  00006	e8 00 00 00 00	 call	 ?GetRenderShadowTime@CPythonBackground@@QAEKXZ ; CPythonBackground::GetRenderShadowTime
  0000b	50		 push	 eax
  0000c	68 00 00 00 00	 push	 OFFSET ??_C@_01KBJDNOO@i@
  00011	ff 15 00 00 00
	00		 call	 DWORD PTR __imp__Py_BuildValue
  00017	83 c4 08	 add	 esp, 8

; 308  : }

  0001a	c3		 ret	 0
?backgroundGetRenderShadowTime@@YAPAU_object@@PAU1@0@Z ENDP ; backgroundGetRenderShadowTime
_TEXT	ENDS
; Function compile flags: /Ogtp
; File D:\_m2work\Server Client TMP4\ClientVS22\source\UserInterface\PythonBackgroundModule.cpp
;	COMDAT ?backgroundGetShadowMapcolor@@YAPAU_object@@PAU1@0@Z
_TEXT	SEGMENT
_fx$ = -8						; size = 4
_fy$ = -4						; size = 4
_poSelf$ = 8						; size = 4
_poArgs$ = 12						; size = 4
?backgroundGetShadowMapcolor@@YAPAU_object@@PAU1@0@Z PROC ; backgroundGetShadowMapcolor, COMDAT

; 311  : {

  00000	55		 push	 ebp
  00001	8b ec		 mov	 ebp, esp
  00003	83 ec 08	 sub	 esp, 8

; 312  : 	float fx;
; 313  : 	if (!PyTuple_GetFloat(poArgs, 0, &fx))

  00006	8d 45 f8	 lea	 eax, DWORD PTR _fx$[ebp]
  00009	50		 push	 eax
  0000a	6a 00		 push	 0
  0000c	ff 75 0c	 push	 DWORD PTR _poArgs$[ebp]
  0000f	e8 00 00 00 00	 call	 ?PyTuple_GetFloat@@YA_NPAU_object@@HPAM@Z ; PyTuple_GetFloat
  00014	83 c4 0c	 add	 esp, 12			; 0000000cH
  00017	84 c0		 test	 al, al
  00019	75 09		 jne	 SHORT $LN2@background
$LN5@background:

; 322  : }

  0001b	e8 00 00 00 00	 call	 ?Py_BadArgument@@YAPAU_object@@XZ ; Py_BadArgument
  00020	8b e5		 mov	 esp, ebp
  00022	5d		 pop	 ebp
  00023	c3		 ret	 0
$LN2@background:

; 314  : 		return Py_BadArgument();
; 315  : 
; 316  : 	float fy;
; 317  : 	if (!PyTuple_GetFloat(poArgs, 1, &fy))

  00024	8d 45 fc	 lea	 eax, DWORD PTR _fy$[ebp]
  00027	50		 push	 eax
  00028	6a 01		 push	 1
  0002a	ff 75 0c	 push	 DWORD PTR _poArgs$[ebp]
  0002d	e8 00 00 00 00	 call	 ?PyTuple_GetFloat@@YA_NPAU_object@@HPAM@Z ; PyTuple_GetFloat
  00032	83 c4 0c	 add	 esp, 12			; 0000000cH
  00035	84 c0		 test	 al, al
  00037	74 e2		 je	 SHORT $LN5@background

; 318  : 		return Py_BadArgument();
; 319  : 
; 320  : 	DWORD dwColor = CPythonBackground::Instance().GetShadowMapColor(fx, fy);

  00039	f3 0f 10 45 fc	 movss	 xmm0, DWORD PTR _fy$[ebp]
  0003e	83 ec 08	 sub	 esp, 8
  00041	f3 0f 10 4d f8	 movss	 xmm1, DWORD PTR _fx$[ebp]
  00046	8b 0d 00 00 00
	00		 mov	 ecx, DWORD PTR ?ms_singleton@?$CSingleton@VCPythonBackground@@@@0PAVCPythonBackground@@A ; CSingleton<CPythonBackground>::ms_singleton
  0004c	f3 0f 11 44 24
	04		 movss	 DWORD PTR [esp+4], xmm0
  00052	f3 0f 11 0c 24	 movss	 DWORD PTR [esp], xmm1
  00057	e8 00 00 00 00	 call	 ?GetShadowMapColor@CMapManager@@QAEKMM@Z ; CMapManager::GetShadowMapColor

; 321  : 	return Py_BuildValue("i", dwColor);

  0005c	50		 push	 eax
  0005d	68 00 00 00 00	 push	 OFFSET ??_C@_01KBJDNOO@i@
  00062	ff 15 00 00 00
	00		 call	 DWORD PTR __imp__Py_BuildValue
  00068	83 c4 08	 add	 esp, 8

; 322  : }

  0006b	8b e5		 mov	 esp, ebp
  0006d	5d		 pop	 ebp
  0006e	c3		 ret	 0
?backgroundGetShadowMapcolor@@YAPAU_object@@PAU1@0@Z ENDP ; backgroundGetShadowMapcolor
_TEXT	ENDS
; Function compile flags: /Ogtp
; File D:\_m2work\Server Client TMP4\ClientVS22\source\UserInterface\PythonBackgroundModule.cpp
;	COMDAT ?backgroundSetShadowLevel@@YAPAU_object@@PAU1@0@Z
_TEXT	SEGMENT
_iLevel$ = -4						; size = 4
_poSelf$ = 8						; size = 4
_poArgs$ = 12						; size = 4
?backgroundSetShadowLevel@@YAPAU_object@@PAU1@0@Z PROC	; backgroundSetShadowLevel, COMDAT

; 325  : {

  00000	55		 push	 ebp
  00001	8b ec		 mov	 ebp, esp
  00003	51		 push	 ecx

; 326  : 	int iLevel;
; 327  : 
; 328  : 	if (!PyTuple_GetInteger(poArgs, 0, &iLevel))

  00004	8d 45 fc	 lea	 eax, DWORD PTR _iLevel$[ebp]
  00007	50		 push	 eax
  00008	6a 00		 push	 0
  0000a	ff 75 0c	 push	 DWORD PTR _poArgs$[ebp]
  0000d	e8 00 00 00 00	 call	 ?PyTuple_GetInteger@@YA_NPAU_object@@HPAH@Z ; PyTuple_GetInteger
  00012	83 c4 0c	 add	 esp, 12			; 0000000cH
  00015	84 c0		 test	 al, al
  00017	75 09		 jne	 SHORT $LN2@background

; 329  : 		return Py_BadArgument();

  00019	e8 00 00 00 00	 call	 ?Py_BadArgument@@YAPAU_object@@XZ ; Py_BadArgument

; 334  : }

  0001e	8b e5		 mov	 esp, ebp
  00020	5d		 pop	 ebp
  00021	c3		 ret	 0
$LN2@background:

; 330  : 
; 331  : 	CPythonBackground& rkBG = CPythonBackground::Instance();
; 332  : 	rkBG.SetShadowLevel(iLevel);

  00022	ff 75 fc	 push	 DWORD PTR _iLevel$[ebp]
  00025	8b 0d 00 00 00
	00		 mov	 ecx, DWORD PTR ?ms_singleton@?$CSingleton@VCPythonBackground@@@@0PAVCPythonBackground@@A ; CSingleton<CPythonBackground>::ms_singleton
  0002b	e8 00 00 00 00	 call	 ?SetShadowLevel@CPythonBackground@@QAE_NH@Z ; CPythonBackground::SetShadowLevel

; 333  : 	return Py_BuildNone();

  00030	e8 00 00 00 00	 call	 ?Py_BuildNone@@YAPAU_object@@XZ ; Py_BuildNone

; 334  : }

  00035	8b e5		 mov	 esp, ebp
  00037	5d		 pop	 ebp
  00038	c3		 ret	 0
?backgroundSetShadowLevel@@YAPAU_object@@PAU1@0@Z ENDP	; backgroundSetShadowLevel
_TEXT	ENDS
; Function compile flags: /Ogtp
; File D:\_m2work\Server Client TMP4\ClientVS22\source\UserInterface\PythonBackgroundModule.cpp
;	COMDAT ?backgroundSetVisiblePart@@YAPAU_object@@PAU1@0@Z
_TEXT	SEGMENT
_isVisible$ = -8					; size = 4
_ePart$ = -4						; size = 4
_poSelf$ = 8						; size = 4
_poArgs$ = 12						; size = 4
?backgroundSetVisiblePart@@YAPAU_object@@PAU1@0@Z PROC	; backgroundSetVisiblePart, COMDAT

; 337  : {

  00000	55		 push	 ebp
  00001	8b ec		 mov	 ebp, esp
  00003	83 ec 08	 sub	 esp, 8

; 338  : 	int ePart;
; 339  : 	if (!PyTuple_GetInteger(poArgs, 0, &ePart))

  00006	8d 45 fc	 lea	 eax, DWORD PTR _ePart$[ebp]
  00009	50		 push	 eax
  0000a	6a 00		 push	 0
  0000c	ff 75 0c	 push	 DWORD PTR _poArgs$[ebp]
  0000f	e8 00 00 00 00	 call	 ?PyTuple_GetInteger@@YA_NPAU_object@@HPAH@Z ; PyTuple_GetInteger
  00014	83 c4 0c	 add	 esp, 12			; 0000000cH
  00017	84 c0		 test	 al, al
  00019	75 09		 jne	 SHORT $LN2@background
$LN6@background:

; 353  : }

  0001b	e8 00 00 00 00	 call	 ?Py_BadArgument@@YAPAU_object@@XZ ; Py_BadArgument
  00020	8b e5		 mov	 esp, ebp
  00022	5d		 pop	 ebp
  00023	c3		 ret	 0
$LN2@background:

; 340  : 		return Py_BadArgument();
; 341  : 
; 342  : 	int isVisible;
; 343  : 	if (!PyTuple_GetInteger(poArgs, 1, &isVisible))

  00024	8d 45 f8	 lea	 eax, DWORD PTR _isVisible$[ebp]
  00027	50		 push	 eax
  00028	6a 01		 push	 1
  0002a	ff 75 0c	 push	 DWORD PTR _poArgs$[ebp]
  0002d	e8 00 00 00 00	 call	 ?PyTuple_GetInteger@@YA_NPAU_object@@HPAH@Z ; PyTuple_GetInteger
  00032	83 c4 0c	 add	 esp, 12			; 0000000cH
  00035	84 c0		 test	 al, al
  00037	74 e2		 je	 SHORT $LN6@background

; 344  : 		return Py_BadArgument();
; 345  : 
; 346  : 	if (ePart>=CMapOutdoor::PART_NUM)

  00039	8b 4d fc	 mov	 ecx, DWORD PTR _ePart$[ebp]
  0003c	83 f9 06	 cmp	 ecx, 6
  0003f	7c 14		 jl	 SHORT $LN4@background

; 347  : 		return Py_BuildException("ePart(%d)<background.PART_NUM(%d)", ePart, CMapOutdoor::PART_NUM);

  00041	6a 06		 push	 6
  00043	51		 push	 ecx
  00044	68 00 00 00 00	 push	 OFFSET ??_C@_0CC@JHPGFABG@ePart?$CI?$CFd?$CJ?$DMbackground?4PART_NUM?$CI?$CF@
  00049	e8 00 00 00 00	 call	 ?Py_BuildException@@YAPAU_object@@PBDZZ ; Py_BuildException
  0004e	83 c4 0c	 add	 esp, 12			; 0000000cH

; 353  : }

  00051	8b e5		 mov	 esp, ebp
  00053	5d		 pop	 ebp
  00054	c3		 ret	 0
$LN4@background:

; 348  : 
; 349  : 	CPythonBackground& rkBG=CPythonBackground::Instance();
; 350  : 	rkBG.SetVisiblePart(ePart, isVisible ? true : false);

  00055	83 7d f8 00	 cmp	 DWORD PTR _isVisible$[ebp], 0
  00059	0f 95 c0	 setne	 al
  0005c	0f b6 c0	 movzx	 eax, al
  0005f	50		 push	 eax
  00060	51		 push	 ecx
  00061	8b 0d 00 00 00
	00		 mov	 ecx, DWORD PTR ?ms_singleton@?$CSingleton@VCPythonBackground@@@@0PAVCPythonBackground@@A ; CSingleton<CPythonBackground>::ms_singleton
  00067	e8 00 00 00 00	 call	 ?SetVisiblePart@CPythonBackground@@QAE_NH_N@Z ; CPythonBackground::SetVisiblePart

; 351  : 
; 352  : 	return Py_BuildNone();

  0006c	e8 00 00 00 00	 call	 ?Py_BuildNone@@YAPAU_object@@XZ ; Py_BuildNone

; 353  : }

  00071	8b e5		 mov	 esp, ebp
  00073	5d		 pop	 ebp
  00074	c3		 ret	 0
?backgroundSetVisiblePart@@YAPAU_object@@PAU1@0@Z ENDP	; backgroundSetVisiblePart
_TEXT	ENDS
; Function compile flags: /Ogtp
; File D:\_m2work\Server Client TMP4\ClientVS22\source\UserInterface\PythonBackgroundModule.cpp
;	COMDAT ?backgroundSetSpaltLimit@@YAPAU_object@@PAU1@0@Z
_TEXT	SEGMENT
_iSplatNum$ = -4					; size = 4
_poSelf$ = 8						; size = 4
_poArgs$ = 12						; size = 4
?backgroundSetSpaltLimit@@YAPAU_object@@PAU1@0@Z PROC	; backgroundSetSpaltLimit, COMDAT

; 356  : {

  00000	55		 push	 ebp
  00001	8b ec		 mov	 ebp, esp
  00003	51		 push	 ecx

; 357  : 	int iSplatNum;
; 358  : 	if (!PyTuple_GetInteger(poArgs, 0, &iSplatNum))

  00004	8d 45 fc	 lea	 eax, DWORD PTR _iSplatNum$[ebp]
  00007	50		 push	 eax
  00008	6a 00		 push	 0
  0000a	ff 75 0c	 push	 DWORD PTR _poArgs$[ebp]
  0000d	e8 00 00 00 00	 call	 ?PyTuple_GetInteger@@YA_NPAU_object@@HPAH@Z ; PyTuple_GetInteger
  00012	83 c4 0c	 add	 esp, 12			; 0000000cH
  00015	84 c0		 test	 al, al
  00017	75 09		 jne	 SHORT $LN2@background

; 359  : 		return Py_BadArgument();

  00019	e8 00 00 00 00	 call	 ?Py_BadArgument@@YAPAU_object@@XZ ; Py_BadArgument

; 368  : }

  0001e	8b e5		 mov	 esp, ebp
  00020	5d		 pop	 ebp
  00021	c3		 ret	 0
$LN2@background:

; 360  : 
; 361  : 	if (iSplatNum<0)

  00022	8b 45 fc	 mov	 eax, DWORD PTR _iSplatNum$[ebp]
  00025	50		 push	 eax
  00026	85 c0		 test	 eax, eax
  00028	79 11		 jns	 SHORT $LN3@background

; 362  : 		return Py_BuildException("background.SetSplatLimit(iSplatNum(%d)>=0)", iSplatNum);

  0002a	68 00 00 00 00	 push	 OFFSET ??_C@_0CL@HHHOJMJN@background?4SetSplatLimit?$CIiSplat@
  0002f	e8 00 00 00 00	 call	 ?Py_BuildException@@YAPAU_object@@PBDZZ ; Py_BuildException
  00034	83 c4 08	 add	 esp, 8

; 368  : }

  00037	8b e5		 mov	 esp, ebp
  00039	5d		 pop	 ebp
  0003a	c3		 ret	 0
$LN3@background:

; 363  : 
; 364  : 	CPythonBackground& rkBG=CPythonBackground::Instance();
; 365  : 	rkBG.SetSplatLimit(iSplatNum);

  0003b	8b 0d 00 00 00
	00		 mov	 ecx, DWORD PTR ?ms_singleton@?$CSingleton@VCPythonBackground@@@@0PAVCPythonBackground@@A ; CSingleton<CPythonBackground>::ms_singleton
  00041	e8 00 00 00 00	 call	 ?SetSplatLimit@CPythonBackground@@QAE_NH@Z ; CPythonBackground::SetSplatLimit

; 366  : 
; 367  : 	return Py_BuildNone();

  00046	e8 00 00 00 00	 call	 ?Py_BuildNone@@YAPAU_object@@XZ ; Py_BuildNone

; 368  : }

  0004b	8b e5		 mov	 esp, ebp
  0004d	5d		 pop	 ebp
  0004e	c3		 ret	 0
?backgroundSetSpaltLimit@@YAPAU_object@@PAU1@0@Z ENDP	; backgroundSetSpaltLimit
_TEXT	ENDS
; Function compile flags: /Ogtp
; File D:\_m2work\Server Client TMP4\ClientVS22\source\UserInterface\PythonBackgroundModule.cpp
;	COMDAT ?backgroundSelectViewDistanceNum@@YAPAU_object@@PAU1@0@Z
_TEXT	SEGMENT
_iNum$ = -4						; size = 4
_poSelf$ = 8						; size = 4
_poArgs$ = 12						; size = 4
?backgroundSelectViewDistanceNum@@YAPAU_object@@PAU1@0@Z PROC ; backgroundSelectViewDistanceNum, COMDAT

; 371  : {

  00000	55		 push	 ebp
  00001	8b ec		 mov	 ebp, esp
  00003	51		 push	 ecx

; 372  : 	int iNum;
; 373  : 
; 374  : 	if (!PyTuple_GetInteger(poArgs, 0, &iNum))

  00004	8d 45 fc	 lea	 eax, DWORD PTR _iNum$[ebp]
  00007	50		 push	 eax
  00008	6a 00		 push	 0
  0000a	ff 75 0c	 push	 DWORD PTR _poArgs$[ebp]
  0000d	e8 00 00 00 00	 call	 ?PyTuple_GetInteger@@YA_NPAU_object@@HPAH@Z ; PyTuple_GetInteger
  00012	83 c4 0c	 add	 esp, 12			; 0000000cH
  00015	84 c0		 test	 al, al
  00017	75 09		 jne	 SHORT $LN2@background

; 375  : 		return Py_BadArgument();

  00019	e8 00 00 00 00	 call	 ?Py_BadArgument@@YAPAU_object@@XZ ; Py_BadArgument

; 381  : }

  0001e	8b e5		 mov	 esp, ebp
  00020	5d		 pop	 ebp
  00021	c3		 ret	 0
$LN2@background:

; 376  : 
; 377  : 	CPythonBackground& rkBG=CPythonBackground::Instance();
; 378  : 	rkBG.SelectViewDistanceNum(iNum);

  00022	ff 75 fc	 push	 DWORD PTR _iNum$[ebp]
  00025	8b 0d 00 00 00
	00		 mov	 ecx, DWORD PTR ?ms_singleton@?$CSingleton@VCPythonBackground@@@@0PAVCPythonBackground@@A ; CSingleton<CPythonBackground>::ms_singleton
  0002b	e8 00 00 00 00	 call	 ?SelectViewDistanceNum@CPythonBackground@@QAEXH@Z ; CPythonBackground::SelectViewDistanceNum

; 379  : 
; 380  : 	return Py_BuildNone();

  00030	e8 00 00 00 00	 call	 ?Py_BuildNone@@YAPAU_object@@XZ ; Py_BuildNone

; 381  : }

  00035	8b e5		 mov	 esp, ebp
  00037	5d		 pop	 ebp
  00038	c3		 ret	 0
?backgroundSelectViewDistanceNum@@YAPAU_object@@PAU1@0@Z ENDP ; backgroundSelectViewDistanceNum
_TEXT	ENDS
; Function compile flags: /Ogtp
; File D:\_m2work\Server Client TMP4\ClientVS22\source\UserInterface\PythonBackgroundModule.cpp
;	COMDAT ?backgroundSetViewDistanceSet@@YAPAU_object@@PAU1@0@Z
_TEXT	SEGMENT
_fFarClip$ = -8						; size = 4
_iNum$ = -4						; size = 4
_poSelf$ = 8						; size = 4
_poArgs$ = 12						; size = 4
?backgroundSetViewDistanceSet@@YAPAU_object@@PAU1@0@Z PROC ; backgroundSetViewDistanceSet, COMDAT

; 384  : {

  00000	55		 push	 ebp
  00001	8b ec		 mov	 ebp, esp
  00003	83 ec 08	 sub	 esp, 8

; 385  : 	int iNum;
; 386  : 	if (!PyTuple_GetInteger(poArgs, 0, &iNum))

  00006	8d 45 fc	 lea	 eax, DWORD PTR _iNum$[ebp]
  00009	50		 push	 eax
  0000a	6a 00		 push	 0
  0000c	ff 75 0c	 push	 DWORD PTR _poArgs$[ebp]
  0000f	e8 00 00 00 00	 call	 ?PyTuple_GetInteger@@YA_NPAU_object@@HPAH@Z ; PyTuple_GetInteger
  00014	83 c4 0c	 add	 esp, 12			; 0000000cH
  00017	84 c0		 test	 al, al
  00019	75 09		 jne	 SHORT $LN2@background
$LN5@background:

; 396  : }

  0001b	e8 00 00 00 00	 call	 ?Py_BadArgument@@YAPAU_object@@XZ ; Py_BadArgument
  00020	8b e5		 mov	 esp, ebp
  00022	5d		 pop	 ebp
  00023	c3		 ret	 0
$LN2@background:

; 387  : 		return Py_BadArgument();
; 388  : 
; 389  : 	float fFarClip;
; 390  : 	if (!PyTuple_GetFloat(poArgs, 1, &fFarClip))

  00024	8d 45 f8	 lea	 eax, DWORD PTR _fFarClip$[ebp]
  00027	50		 push	 eax
  00028	6a 01		 push	 1
  0002a	ff 75 0c	 push	 DWORD PTR _poArgs$[ebp]
  0002d	e8 00 00 00 00	 call	 ?PyTuple_GetFloat@@YA_NPAU_object@@HPAM@Z ; PyTuple_GetFloat
  00032	83 c4 0c	 add	 esp, 12			; 0000000cH
  00035	84 c0		 test	 al, al
  00037	74 e2		 je	 SHORT $LN5@background

; 391  : 		return Py_BadArgument();
; 392  : 
; 393  : 	CPythonBackground& rkBG=CPythonBackground::Instance();
; 394  : 	rkBG.SetViewDistanceSet(iNum, fFarClip);

  00039	ff 75 fc	 push	 DWORD PTR _iNum$[ebp]
  0003c	f3 0f 10 55 f8	 movss	 xmm2, DWORD PTR _fFarClip$[ebp]
  00041	8b 0d 00 00 00
	00		 mov	 ecx, DWORD PTR ?ms_singleton@?$CSingleton@VCPythonBackground@@@@0PAVCPythonBackground@@A ; CSingleton<CPythonBackground>::ms_singleton
  00047	e8 00 00 00 00	 call	 ?SetViewDistanceSet@CPythonBackground@@QAEXHM@Z ; CPythonBackground::SetViewDistanceSet

; 395  : 	return Py_BuildNone();

  0004c	e8 00 00 00 00	 call	 ?Py_BuildNone@@YAPAU_object@@XZ ; Py_BuildNone

; 396  : }

  00051	8b e5		 mov	 esp, ebp
  00053	5d		 pop	 ebp
  00054	c3		 ret	 0
?backgroundSetViewDistanceSet@@YAPAU_object@@PAU1@0@Z ENDP ; backgroundSetViewDistanceSet
_TEXT	ENDS
; Function compile flags: /Ogtp
; File D:\_m2work\Server Client TMP4\ClientVS22\source\UserInterface\PythonBackgroundModule.cpp
;	COMDAT ?backgroundGetFarClip@@YAPAU_object@@PAU1@0@Z
_TEXT	SEGMENT
_poSelf$ = 8						; size = 4
_poArgs$ = 12						; size = 4
?backgroundGetFarClip@@YAPAU_object@@PAU1@0@Z PROC	; backgroundGetFarClip, COMDAT

; 400  : 	float fFarClip = CPythonBackground::Instance().GetFarClip();

  00000	8b 0d 00 00 00
	00		 mov	 ecx, DWORD PTR ?ms_singleton@?$CSingleton@VCPythonBackground@@@@0PAVCPythonBackground@@A ; CSingleton<CPythonBackground>::ms_singleton
  00006	e8 00 00 00 00	 call	 ?GetFarClip@CPythonBackground@@QAEMXZ ; CPythonBackground::GetFarClip

; 401  : 	return Py_BuildValue("f", fFarClip);

  0000b	f3 0f 5a c0	 cvtss2sd xmm0, xmm0
  0000f	83 ec 08	 sub	 esp, 8
  00012	f2 0f 11 04 24	 movsd	 QWORD PTR [esp], xmm0
  00017	68 00 00 00 00	 push	 OFFSET ??_C@_01INIBCBCB@f@
  0001c	ff 15 00 00 00
	00		 call	 DWORD PTR __imp__Py_BuildValue
  00022	83 c4 0c	 add	 esp, 12			; 0000000cH

; 402  : }

  00025	c3		 ret	 0
?backgroundGetFarClip@@YAPAU_object@@PAU1@0@Z ENDP	; backgroundGetFarClip
_TEXT	ENDS
; Function compile flags: /Ogtp
; File D:\_m2work\Server Client TMP4\ClientVS22\source\UserInterface\PythonBackgroundModule.cpp
;	COMDAT ?backgroundGetDistanceSetInfo@@YAPAU_object@@PAU1@0@Z
_TEXT	SEGMENT
_fFarClip$ = -16					; size = 4
_fEnd$ = -12						; size = 4
_fStart$ = -8						; size = 4
_iNum$ = -4						; size = 4
_poSelf$ = 8						; size = 4
_poArgs$ = 12						; size = 4
?backgroundGetDistanceSetInfo@@YAPAU_object@@PAU1@0@Z PROC ; backgroundGetDistanceSetInfo, COMDAT

; 405  : {

  00000	55		 push	 ebp
  00001	8b ec		 mov	 ebp, esp
  00003	83 e4 c0	 and	 esp, -64		; ffffffc0H
  00006	83 ec 40	 sub	 esp, 64			; 00000040H

; 406  : 	int iNum;
; 407  : 	float fStart, fEnd, fFarClip;
; 408  : 	CPythonBackground::Instance().GetDistanceSetInfo(&iNum, &fStart, &fEnd, &fFarClip);

  00009	8b 0d 00 00 00
	00		 mov	 ecx, DWORD PTR ?ms_singleton@?$CSingleton@VCPythonBackground@@@@0PAVCPythonBackground@@A ; CSingleton<CPythonBackground>::ms_singleton
  0000f	8d 44 24 30	 lea	 eax, DWORD PTR _fFarClip$[esp+64]
  00013	50		 push	 eax
  00014	8d 44 24 38	 lea	 eax, DWORD PTR _fEnd$[esp+68]
  00018	50		 push	 eax
  00019	8d 44 24 40	 lea	 eax, DWORD PTR _fStart$[esp+72]
  0001d	50		 push	 eax
  0001e	8d 44 24 48	 lea	 eax, DWORD PTR _iNum$[esp+76]
  00022	50		 push	 eax
  00023	e8 00 00 00 00	 call	 ?GetDistanceSetInfo@CPythonBackground@@QAEXPAHPAM11@Z ; CPythonBackground::GetDistanceSetInfo
  00028	f3 0f 10 44 24
	30		 movss	 xmm0, DWORD PTR _fFarClip$[esp+64]

; 409  : 	return Py_BuildValue("ifff", iNum, fStart, fEnd, fFarClip);

  0002e	83 ec 18	 sub	 esp, 24			; 00000018H
  00031	0f 5a c0	 cvtps2pd xmm0, xmm0
  00034	f2 0f 11 44 24
	10		 movsd	 QWORD PTR [esp+16], xmm0
  0003a	f3 0f 10 44 24
	4c		 movss	 xmm0, DWORD PTR _fEnd$[esp+88]
  00040	0f 5a c0	 cvtps2pd xmm0, xmm0
  00043	f2 0f 11 44 24
	08		 movsd	 QWORD PTR [esp+8], xmm0
  00049	f3 0f 10 44 24
	50		 movss	 xmm0, DWORD PTR _fStart$[esp+88]
  0004f	0f 5a c0	 cvtps2pd xmm0, xmm0
  00052	f2 0f 11 04 24	 movsd	 QWORD PTR [esp], xmm0
  00057	ff 74 24 54	 push	 DWORD PTR _iNum$[esp+88]
  0005b	68 00 00 00 00	 push	 OFFSET ??_C@_04MMEPMOLC@ifff@
  00060	ff 15 00 00 00
	00		 call	 DWORD PTR __imp__Py_BuildValue
  00066	83 c4 20	 add	 esp, 32			; 00000020H

; 410  : }

  00069	8b e5		 mov	 esp, ebp
  0006b	5d		 pop	 ebp
  0006c	c3		 ret	 0
?backgroundGetDistanceSetInfo@@YAPAU_object@@PAU1@0@Z ENDP ; backgroundGetDistanceSetInfo
_TEXT	ENDS
; Function compile flags: /Ogtp
; File D:\_m2work\Server Client TMP4\ClientVS22\source\UserInterface\PythonBackgroundModule.cpp
;	COMDAT ?backgroundSetBGLoading@@YAPAU_object@@PAU1@0@Z
_TEXT	SEGMENT
_bBGLoading$ = -1					; size = 1
_poSelf$ = 8						; size = 4
_poArgs$ = 12						; size = 4
?backgroundSetBGLoading@@YAPAU_object@@PAU1@0@Z PROC	; backgroundSetBGLoading, COMDAT

; 413  : {

  00000	55		 push	 ebp
  00001	8b ec		 mov	 ebp, esp
  00003	51		 push	 ecx

; 414  : 	bool bBGLoading;
; 415  : 	if (!PyTuple_GetBoolean(poArgs, 0, &bBGLoading))

  00004	8d 45 ff	 lea	 eax, DWORD PTR _bBGLoading$[ebp]
  00007	50		 push	 eax
  00008	6a 00		 push	 0
  0000a	ff 75 0c	 push	 DWORD PTR _poArgs$[ebp]
  0000d	e8 00 00 00 00	 call	 ?PyTuple_GetBoolean@@YA_NPAU_object@@HPA_N@Z ; PyTuple_GetBoolean
  00012	83 c4 0c	 add	 esp, 12			; 0000000cH
  00015	84 c0		 test	 al, al
  00017	75 09		 jne	 SHORT $LN2@background

; 416  : 		return Py_BadArgument();

  00019	e8 00 00 00 00	 call	 ?Py_BadArgument@@YAPAU_object@@XZ ; Py_BadArgument

; 420  : }

  0001e	8b e5		 mov	 esp, ebp
  00020	5d		 pop	 ebp
  00021	c3		 ret	 0
$LN2@background:

; 417  : 
; 418  : 	//CPythonBackground::Instance().BGLoadingEnable(bBGLoading);
; 419  : 	return Py_BuildNone();

  00022	e8 00 00 00 00	 call	 ?Py_BuildNone@@YAPAU_object@@XZ ; Py_BuildNone

; 420  : }

  00027	8b e5		 mov	 esp, ebp
  00029	5d		 pop	 ebp
  0002a	c3		 ret	 0
?backgroundSetBGLoading@@YAPAU_object@@PAU1@0@Z ENDP	; backgroundSetBGLoading
_TEXT	ENDS
; Function compile flags: /Ogtp
; File D:\_m2work\Server Client TMP4\ClientVS22\source\UserInterface\PythonBackgroundModule.cpp
;	COMDAT ?backgroundSetRenderSort@@YAPAU_object@@PAU1@0@Z
_TEXT	SEGMENT
_eSort$ = -4						; size = 4
_poSelf$ = 8						; size = 4
_poArgs$ = 12						; size = 4
?backgroundSetRenderSort@@YAPAU_object@@PAU1@0@Z PROC	; backgroundSetRenderSort, COMDAT

; 423  : {

  00000	55		 push	 ebp
  00001	8b ec		 mov	 ebp, esp
  00003	51		 push	 ecx

; 424  : 	int eSort;
; 425  : 	if (!PyTuple_GetInteger(poArgs, 0, &eSort))

  00004	8d 45 fc	 lea	 eax, DWORD PTR _eSort$[ebp]
  00007	50		 push	 eax
  00008	6a 00		 push	 0
  0000a	ff 75 0c	 push	 DWORD PTR _poArgs$[ebp]
  0000d	e8 00 00 00 00	 call	 ?PyTuple_GetInteger@@YA_NPAU_object@@HPAH@Z ; PyTuple_GetInteger
  00012	83 c4 0c	 add	 esp, 12			; 0000000cH
  00015	84 c0		 test	 al, al
  00017	75 09		 jne	 SHORT $LN2@background

; 426  : 		return Py_BadArgument();

  00019	e8 00 00 00 00	 call	 ?Py_BadArgument@@YAPAU_object@@XZ ; Py_BadArgument

; 430  : }

  0001e	8b e5		 mov	 esp, ebp
  00020	5d		 pop	 ebp
  00021	c3		 ret	 0
$LN2@background:

; 427  : 
; 428  : 	CPythonBackground::Instance().SetTerrainRenderSort((CMapOutdoor::ETerrainRenderSort) eSort);

  00022	ff 75 fc	 push	 DWORD PTR _eSort$[ebp]
  00025	8b 0d 00 00 00
	00		 mov	 ecx, DWORD PTR ?ms_singleton@?$CSingleton@VCPythonBackground@@@@0PAVCPythonBackground@@A ; CSingleton<CPythonBackground>::ms_singleton
  0002b	e8 00 00 00 00	 call	 ?SetTerrainRenderSort@CMapManager@@QAEXW4ETerrainRenderSort@CMapOutdoor@@@Z ; CMapManager::SetTerrainRenderSort

; 429  : 	return Py_BuildNone();

  00030	e8 00 00 00 00	 call	 ?Py_BuildNone@@YAPAU_object@@XZ ; Py_BuildNone

; 430  : }

  00035	8b e5		 mov	 esp, ebp
  00037	5d		 pop	 ebp
  00038	c3		 ret	 0
?backgroundSetRenderSort@@YAPAU_object@@PAU1@0@Z ENDP	; backgroundSetRenderSort
_TEXT	ENDS
; Function compile flags: /Ogtp
; File D:\_m2work\Server Client TMP4\ClientVS22\source\UserInterface\PythonBackgroundModule.cpp
;	COMDAT ?backgroundSetTransparentTree@@YAPAU_object@@PAU1@0@Z
_TEXT	SEGMENT
_bTransparent$ = -4					; size = 4
_poSelf$ = 8						; size = 4
_poArgs$ = 12						; size = 4
?backgroundSetTransparentTree@@YAPAU_object@@PAU1@0@Z PROC ; backgroundSetTransparentTree, COMDAT

; 433  : {

  00000	55		 push	 ebp
  00001	8b ec		 mov	 ebp, esp
  00003	51		 push	 ecx

; 434  : 	int bTransparent;
; 435  : 	if (!PyTuple_GetInteger(poArgs, 0, &bTransparent))

  00004	8d 45 fc	 lea	 eax, DWORD PTR _bTransparent$[ebp]
  00007	50		 push	 eax
  00008	6a 00		 push	 0
  0000a	ff 75 0c	 push	 DWORD PTR _poArgs$[ebp]
  0000d	e8 00 00 00 00	 call	 ?PyTuple_GetInteger@@YA_NPAU_object@@HPAH@Z ; PyTuple_GetInteger
  00012	83 c4 0c	 add	 esp, 12			; 0000000cH
  00015	84 c0		 test	 al, al
  00017	75 09		 jne	 SHORT $LN2@background

; 436  : 		return Py_BadArgument();

  00019	e8 00 00 00 00	 call	 ?Py_BadArgument@@YAPAU_object@@XZ ; Py_BadArgument

; 440  : }

  0001e	8b e5		 mov	 esp, ebp
  00020	5d		 pop	 ebp
  00021	c3		 ret	 0
$LN2@background:

; 437  : 
; 438  : 	CPythonBackground::Instance().SetTransparentTree(bTransparent ? true : false);

  00022	83 7d fc 00	 cmp	 DWORD PTR _bTransparent$[ebp], 0
  00026	8b 0d 00 00 00
	00		 mov	 ecx, DWORD PTR ?ms_singleton@?$CSingleton@VCPythonBackground@@@@0PAVCPythonBackground@@A ; CSingleton<CPythonBackground>::ms_singleton
  0002c	0f 95 c0	 setne	 al
  0002f	0f b6 c0	 movzx	 eax, al
  00032	50		 push	 eax
  00033	e8 00 00 00 00	 call	 ?SetTransparentTree@CMapManager@@QAEX_N@Z ; CMapManager::SetTransparentTree

; 439  : 	return Py_BuildNone();

  00038	e8 00 00 00 00	 call	 ?Py_BuildNone@@YAPAU_object@@XZ ; Py_BuildNone

; 440  : }

  0003d	8b e5		 mov	 esp, ebp
  0003f	5d		 pop	 ebp
  00040	c3		 ret	 0
?backgroundSetTransparentTree@@YAPAU_object@@PAU1@0@Z ENDP ; backgroundSetTransparentTree
_TEXT	ENDS
; Function compile flags: /Ogtp
; File D:\_m2work\Server Client TMP4\ClientVS22\source\UserInterface\PythonBackgroundModule.cpp
;	COMDAT ?backgroundGlobalPositionToLocalPosition@@YAPAU_object@@PAU1@0@Z
_TEXT	SEGMENT
_iY$ = -16						; size = 4
_iX$ = -12						; size = 4
_lX$ = -8						; size = 4
_lY$ = -4						; size = 4
_poSelf$ = 8						; size = 4
_poArgs$ = 12						; size = 4
?backgroundGlobalPositionToLocalPosition@@YAPAU_object@@PAU1@0@Z PROC ; backgroundGlobalPositionToLocalPosition, COMDAT

; 443  : {

  00000	55		 push	 ebp
  00001	8b ec		 mov	 ebp, esp
  00003	83 ec 10	 sub	 esp, 16			; 00000010H

; 444  : 	int iX;
; 445  : 	if (!PyTuple_GetInteger(poArgs, 0, &iX))

  00006	8d 45 f4	 lea	 eax, DWORD PTR _iX$[ebp]
  00009	50		 push	 eax
  0000a	6a 00		 push	 0
  0000c	ff 75 0c	 push	 DWORD PTR _poArgs$[ebp]
  0000f	e8 00 00 00 00	 call	 ?PyTuple_GetInteger@@YA_NPAU_object@@HPAH@Z ; PyTuple_GetInteger
  00014	83 c4 0c	 add	 esp, 12			; 0000000cH
  00017	84 c0		 test	 al, al
  00019	75 09		 jne	 SHORT $LN2@background
$LN5@background:

; 458  : }

  0001b	e8 00 00 00 00	 call	 ?Py_BadArgument@@YAPAU_object@@XZ ; Py_BadArgument
  00020	8b e5		 mov	 esp, ebp
  00022	5d		 pop	 ebp
  00023	c3		 ret	 0
$LN2@background:

; 446  : 		return Py_BadArgument();
; 447  : 
; 448  : 	int iY;
; 449  : 	if (!PyTuple_GetInteger(poArgs, 1, &iY))

  00024	8d 45 f0	 lea	 eax, DWORD PTR _iY$[ebp]
  00027	50		 push	 eax
  00028	6a 01		 push	 1
  0002a	ff 75 0c	 push	 DWORD PTR _poArgs$[ebp]
  0002d	e8 00 00 00 00	 call	 ?PyTuple_GetInteger@@YA_NPAU_object@@HPAH@Z ; PyTuple_GetInteger
  00032	83 c4 0c	 add	 esp, 12			; 0000000cH
  00035	84 c0		 test	 al, al
  00037	74 e2		 je	 SHORT $LN5@background

; 450  : 		return Py_BadArgument();
; 451  : 
; 452  : 	LONG lX=iX;

  00039	8b 45 f4	 mov	 eax, DWORD PTR _iX$[ebp]

; 453  : 	LONG lY=iY;	
; 454  : 	CPythonBackground& rkBG=CPythonBackground::Instance();
; 455  : 	rkBG.GlobalPositionToLocalPosition(lX, lY);

  0003c	8b 0d 00 00 00
	00		 mov	 ecx, DWORD PTR ?ms_singleton@?$CSingleton@VCPythonBackground@@@@0PAVCPythonBackground@@A ; CSingleton<CPythonBackground>::ms_singleton
  00042	89 45 f8	 mov	 DWORD PTR _lX$[ebp], eax
  00045	8b 45 f0	 mov	 eax, DWORD PTR _iY$[ebp]
  00048	89 45 fc	 mov	 DWORD PTR _lY$[ebp], eax
  0004b	8d 45 fc	 lea	 eax, DWORD PTR _lY$[ebp]
  0004e	50		 push	 eax
  0004f	8d 45 f8	 lea	 eax, DWORD PTR _lX$[ebp]
  00052	50		 push	 eax
  00053	e8 00 00 00 00	 call	 ?GlobalPositionToLocalPosition@CPythonBackground@@QAEXAAJ0@Z ; CPythonBackground::GlobalPositionToLocalPosition

; 456  : 
; 457  : 	return Py_BuildValue("ii", lX, lY);

  00058	ff 75 fc	 push	 DWORD PTR _lY$[ebp]
  0005b	ff 75 f8	 push	 DWORD PTR _lX$[ebp]
  0005e	68 00 00 00 00	 push	 OFFSET ??_C@_02PDIHAGKM@ii@
  00063	ff 15 00 00 00
	00		 call	 DWORD PTR __imp__Py_BuildValue
  00069	83 c4 0c	 add	 esp, 12			; 0000000cH

; 458  : }

  0006c	8b e5		 mov	 esp, ebp
  0006e	5d		 pop	 ebp
  0006f	c3		 ret	 0
?backgroundGlobalPositionToLocalPosition@@YAPAU_object@@PAU1@0@Z ENDP ; backgroundGlobalPositionToLocalPosition
_TEXT	ENDS
; Function compile flags: /Ogtp
; File D:\_m2work\Server Client TMP4\ClientVS22\source\UserInterface\PythonBackgroundModule.cpp
; File C:\Program Files\Microsoft Visual Studio\2022\Community\VC\Tools\MSVC\14.44.35207\include\xstring
; File D:\_m2work\Server Client TMP4\ClientVS22\source\UserInterface\PythonBackgroundModule.cpp
; File C:\Program Files\Microsoft Visual Studio\2022\Community\VC\Tools\MSVC\14.44.35207\include\xstring
; File D:\_m2work\Server Client TMP4\ClientVS22\source\UserInterface\PythonBackgroundModule.cpp
;	COMDAT ?backgroundGlobalPositionToMapInfo@@YAPAU_object@@PAU1@0@Z
_TEXT	SEGMENT
_iX$ = -8						; size = 4
_iY$ = -4						; size = 4
_poSelf$ = 8						; size = 4
_poArgs$ = 12						; size = 4
?backgroundGlobalPositionToMapInfo@@YAPAU_object@@PAU1@0@Z PROC ; backgroundGlobalPositionToMapInfo, COMDAT

; 461  : {

  00000	55		 push	 ebp
  00001	8b ec		 mov	 ebp, esp
  00003	83 ec 08	 sub	 esp, 8

; 462  : 	int iX;
; 463  : 	if (!PyTuple_GetInteger(poArgs, 0, &iX))

  00006	8d 45 f8	 lea	 eax, DWORD PTR _iX$[ebp]
  00009	50		 push	 eax
  0000a	6a 00		 push	 0
  0000c	ff 75 0c	 push	 DWORD PTR _poArgs$[ebp]
  0000f	e8 00 00 00 00	 call	 ?PyTuple_GetInteger@@YA_NPAU_object@@HPAH@Z ; PyTuple_GetInteger
  00014	83 c4 0c	 add	 esp, 12			; 0000000cH
  00017	84 c0		 test	 al, al
  00019	75 09		 jne	 SHORT $LN2@background
$LN18@background:

; 477  : }

  0001b	e8 00 00 00 00	 call	 ?Py_BadArgument@@YAPAU_object@@XZ ; Py_BadArgument
  00020	8b e5		 mov	 esp, ebp
  00022	5d		 pop	 ebp
  00023	c3		 ret	 0
$LN2@background:

; 464  : 		return Py_BadArgument();
; 465  : 
; 466  : 	int iY;
; 467  : 	if (!PyTuple_GetInteger(poArgs, 1, &iY))

  00024	8d 45 fc	 lea	 eax, DWORD PTR _iY$[ebp]
  00027	50		 push	 eax
  00028	6a 01		 push	 1
  0002a	ff 75 0c	 push	 DWORD PTR _poArgs$[ebp]
  0002d	e8 00 00 00 00	 call	 ?PyTuple_GetInteger@@YA_NPAU_object@@HPAH@Z ; PyTuple_GetInteger
  00032	83 c4 0c	 add	 esp, 12			; 0000000cH
  00035	84 c0		 test	 al, al
  00037	74 e2		 je	 SHORT $LN18@background

; 468  : 		return Py_BadArgument();
; 469  : 
; 470  : 	CPythonBackground& rkBG=CPythonBackground::Instance();
; 471  : 	CPythonBackground::TMapInfo* pkMapInfo=rkBG.GlobalPositionToMapInfo(iX, iY);

  00039	ff 75 fc	 push	 DWORD PTR _iY$[ebp]
  0003c	8b 0d 00 00 00
	00		 mov	 ecx, DWORD PTR ?ms_singleton@?$CSingleton@VCPythonBackground@@@@0PAVCPythonBackground@@A ; CSingleton<CPythonBackground>::ms_singleton
  00042	ff 75 f8	 push	 DWORD PTR _iX$[ebp]
  00045	e8 00 00 00 00	 call	 ?GlobalPositionToMapInfo@CPythonBackground@@QAEPAUTMapInfo@CMapManager@@KK@Z ; CPythonBackground::GlobalPositionToMapInfo

; 472  : 	
; 473  : 	if (pkMapInfo)

  0004a	85 c0		 test	 eax, eax
  0004c	74 23		 je	 SHORT $LN4@background
; File C:\Program Files\Microsoft Visual Studio\2022\Community\VC\Tools\MSVC\14.44.35207\include\xstring

; 453  :         return _Myres > _Small_string_capacity;

  0004e	83 78 14 0f	 cmp	 DWORD PTR [eax+20], 15	; 0000000fH
; File D:\_m2work\Server Client TMP4\ClientVS22\source\UserInterface\PythonBackgroundModule.cpp

; 474  : 		return Py_BuildValue("sii", pkMapInfo->m_strName.c_str(), pkMapInfo->m_dwBaseX, pkMapInfo->m_dwBaseY);

  00052	8b 48 1c	 mov	 ecx, DWORD PTR [eax+28]
  00055	8b 50 18	 mov	 edx, DWORD PTR [eax+24]
; File C:\Program Files\Microsoft Visual Studio\2022\Community\VC\Tools\MSVC\14.44.35207\include\xstring

; 445  :         if (_Large_mode_engaged()) {

  00058	76 02		 jbe	 SHORT $LN11@background

; 446  :             _Result = _Unfancy(_Bx._Ptr);

  0005a	8b 00		 mov	 eax, DWORD PTR [eax]
$LN11@background:
; File D:\_m2work\Server Client TMP4\ClientVS22\source\UserInterface\PythonBackgroundModule.cpp

; 474  : 		return Py_BuildValue("sii", pkMapInfo->m_strName.c_str(), pkMapInfo->m_dwBaseX, pkMapInfo->m_dwBaseY);

  0005c	51		 push	 ecx
  0005d	52		 push	 edx
  0005e	50		 push	 eax

; 477  : }

  0005f	68 00 00 00 00	 push	 OFFSET ??_C@_03FEAIAPNA@sii@
  00064	ff 15 00 00 00
	00		 call	 DWORD PTR __imp__Py_BuildValue
  0006a	83 c4 10	 add	 esp, 16			; 00000010H
  0006d	8b e5		 mov	 esp, ebp
  0006f	5d		 pop	 ebp
  00070	c3		 ret	 0
$LN4@background:

; 475  : 	else
; 476  : 		return Py_BuildValue("sii", "", 0, 0);

  00071	6a 00		 push	 0
  00073	6a 00		 push	 0
  00075	68 00 00 00 00	 push	 OFFSET ??_C@_00CNPNBAHC@@

; 477  : }

  0007a	68 00 00 00 00	 push	 OFFSET ??_C@_03FEAIAPNA@sii@
  0007f	ff 15 00 00 00
	00		 call	 DWORD PTR __imp__Py_BuildValue
  00085	83 c4 10	 add	 esp, 16			; 00000010H
  00088	8b e5		 mov	 esp, ebp
  0008a	5d		 pop	 ebp
  0008b	c3		 ret	 0
?backgroundGlobalPositionToMapInfo@@YAPAU_object@@PAU1@0@Z ENDP ; backgroundGlobalPositionToMapInfo
_TEXT	ENDS
; Function compile flags: /Ogtp
; File D:\_m2work\Server Client TMP4\ClientVS22\source\UserInterface\PythonBackgroundModule.cpp
;	COMDAT ?backgroundWarpTest@@YAPAU_object@@PAU1@0@Z
_TEXT	SEGMENT
_iX$ = -8						; size = 4
_iY$ = -4						; size = 4
_poSelf$ = 8						; size = 4
_poArgs$ = 12						; size = 4
?backgroundWarpTest@@YAPAU_object@@PAU1@0@Z PROC	; backgroundWarpTest, COMDAT

; 481  : {

  00000	55		 push	 ebp
  00001	8b ec		 mov	 ebp, esp
  00003	83 ec 08	 sub	 esp, 8

; 482  : 	int iX;
; 483  : 	if (!PyTuple_GetInteger(poArgs, 0, &iX))

  00006	8d 45 f8	 lea	 eax, DWORD PTR _iX$[ebp]
  00009	50		 push	 eax
  0000a	6a 00		 push	 0
  0000c	ff 75 0c	 push	 DWORD PTR _poArgs$[ebp]
  0000f	e8 00 00 00 00	 call	 ?PyTuple_GetInteger@@YA_NPAU_object@@HPAH@Z ; PyTuple_GetInteger
  00014	83 c4 0c	 add	 esp, 12			; 0000000cH
  00017	84 c0		 test	 al, al
  00019	75 09		 jne	 SHORT $LN2@background
$LN5@background:

; 492  : }

  0001b	e8 00 00 00 00	 call	 ?Py_BadArgument@@YAPAU_object@@XZ ; Py_BadArgument
  00020	8b e5		 mov	 esp, ebp
  00022	5d		 pop	 ebp
  00023	c3		 ret	 0
$LN2@background:

; 484  : 		return Py_BadArgument();
; 485  : 
; 486  : 	int iY;
; 487  : 	if (!PyTuple_GetInteger(poArgs, 1, &iY))

  00024	8d 45 fc	 lea	 eax, DWORD PTR _iY$[ebp]
  00027	50		 push	 eax
  00028	6a 01		 push	 1
  0002a	ff 75 0c	 push	 DWORD PTR _poArgs$[ebp]
  0002d	e8 00 00 00 00	 call	 ?PyTuple_GetInteger@@YA_NPAU_object@@HPAH@Z ; PyTuple_GetInteger
  00032	83 c4 0c	 add	 esp, 12			; 0000000cH
  00035	84 c0		 test	 al, al
  00037	74 e2		 je	 SHORT $LN5@background

; 488  : 		return Py_BadArgument();
; 489  : 
; 490  : 	CPythonBackground::Instance().Warp((DWORD)iX * 100 , (DWORD)iY * 100);

  00039	6b 45 fc 64	 imul	 eax, DWORD PTR _iY$[ebp], 100
  0003d	8b 0d 00 00 00
	00		 mov	 ecx, DWORD PTR ?ms_singleton@?$CSingleton@VCPythonBackground@@@@0PAVCPythonBackground@@A ; CSingleton<CPythonBackground>::ms_singleton
  00043	50		 push	 eax
  00044	6b 45 f8 64	 imul	 eax, DWORD PTR _iX$[ebp], 100
  00048	50		 push	 eax
  00049	e8 00 00 00 00	 call	 ?Warp@CPythonBackground@@QAEXKK@Z ; CPythonBackground::Warp

; 491  : 	return Py_BuildNone();

  0004e	e8 00 00 00 00	 call	 ?Py_BuildNone@@YAPAU_object@@XZ ; Py_BuildNone

; 492  : }

  00053	8b e5		 mov	 esp, ebp
  00055	5d		 pop	 ebp
  00056	c3		 ret	 0
?backgroundWarpTest@@YAPAU_object@@PAU1@0@Z ENDP	; backgroundWarpTest
_TEXT	ENDS
; Function compile flags: /Ogtp
; File D:\_m2work\Server Client TMP4\ClientVS22\source\UserInterface\PythonBackgroundModule.cpp
;	COMDAT ?backgroundSetXMasTree@@YAPAU_object@@PAU1@0@Z
_TEXT	SEGMENT
_iGrade$ = -4						; size = 4
_poSelf$ = 8						; size = 4
_poArgs$ = 12						; size = 4
?backgroundSetXMasTree@@YAPAU_object@@PAU1@0@Z PROC	; backgroundSetXMasTree, COMDAT

; 495  : {

  00000	55		 push	 ebp
  00001	8b ec		 mov	 ebp, esp
  00003	51		 push	 ecx

; 496  : 	int iGrade;
; 497  : 	if (!PyTuple_GetInteger(poArgs, 0, &iGrade))

  00004	8d 45 fc	 lea	 eax, DWORD PTR _iGrade$[ebp]
  00007	50		 push	 eax
  00008	6a 00		 push	 0
  0000a	ff 75 0c	 push	 DWORD PTR _poArgs$[ebp]
  0000d	e8 00 00 00 00	 call	 ?PyTuple_GetInteger@@YA_NPAU_object@@HPAH@Z ; PyTuple_GetInteger
  00012	83 c4 0c	 add	 esp, 12			; 0000000cH
  00015	84 c0		 test	 al, al
  00017	75 09		 jne	 SHORT $LN2@background

; 498  : 		return Py_BadArgument();

  00019	e8 00 00 00 00	 call	 ?Py_BadArgument@@YAPAU_object@@XZ ; Py_BadArgument

; 502  : }

  0001e	8b e5		 mov	 esp, ebp
  00020	5d		 pop	 ebp
  00021	c3		 ret	 0
$LN2@background:

; 499  : 
; 500  : 	CPythonBackground::Instance().SetXMaxTree(iGrade);

  00022	ff 75 fc	 push	 DWORD PTR _iGrade$[ebp]
  00025	8b 0d 00 00 00
	00		 mov	 ecx, DWORD PTR ?ms_singleton@?$CSingleton@VCPythonBackground@@@@0PAVCPythonBackground@@A ; CSingleton<CPythonBackground>::ms_singleton
  0002b	e8 00 00 00 00	 call	 ?SetXMaxTree@CPythonBackground@@QAEXH@Z ; CPythonBackground::SetXMaxTree

; 501  : 	return Py_BuildNone();

  00030	e8 00 00 00 00	 call	 ?Py_BuildNone@@YAPAU_object@@XZ ; Py_BuildNone

; 502  : }

  00035	8b e5		 mov	 esp, ebp
  00037	5d		 pop	 ebp
  00038	c3		 ret	 0
?backgroundSetXMasTree@@YAPAU_object@@PAU1@0@Z ENDP	; backgroundSetXMasTree
_TEXT	ENDS
; Function compile flags: /Ogtp
; File D:\_m2work\Server Client TMP4\ClientVS22\source\UserInterface\PythonBackgroundModule.cpp
;	COMDAT ?backgroundRegisterDungeonMapName@@YAPAU_object@@PAU1@0@Z
_TEXT	SEGMENT
_szName$ = -4						; size = 4
_poSelf$ = 8						; size = 4
_poArgs$ = 12						; size = 4
?backgroundRegisterDungeonMapName@@YAPAU_object@@PAU1@0@Z PROC ; backgroundRegisterDungeonMapName, COMDAT

; 505  : {

  00000	55		 push	 ebp
  00001	8b ec		 mov	 ebp, esp
  00003	51		 push	 ecx

; 506  : 	char * szName;
; 507  : 	if (!PyTuple_GetString(poArgs, 0, &szName))

  00004	8d 45 fc	 lea	 eax, DWORD PTR _szName$[ebp]
  00007	50		 push	 eax
  00008	6a 00		 push	 0
  0000a	ff 75 0c	 push	 DWORD PTR _poArgs$[ebp]
  0000d	e8 00 00 00 00	 call	 ?PyTuple_GetString@@YA_NPAU_object@@HPAPAD@Z ; PyTuple_GetString
  00012	83 c4 0c	 add	 esp, 12			; 0000000cH
  00015	84 c0		 test	 al, al
  00017	75 09		 jne	 SHORT $LN2@background

; 508  : 		return Py_BadArgument();

  00019	e8 00 00 00 00	 call	 ?Py_BadArgument@@YAPAU_object@@XZ ; Py_BadArgument

; 512  : }

  0001e	8b e5		 mov	 esp, ebp
  00020	5d		 pop	 ebp
  00021	c3		 ret	 0
$LN2@background:

; 509  : 
; 510  : 	CPythonBackground::Instance().RegisterDungeonMapName(szName);

  00022	ff 75 fc	 push	 DWORD PTR _szName$[ebp]
  00025	8b 0d 00 00 00
	00		 mov	 ecx, DWORD PTR ?ms_singleton@?$CSingleton@VCPythonBackground@@@@0PAVCPythonBackground@@A ; CSingleton<CPythonBackground>::ms_singleton
  0002b	e8 00 00 00 00	 call	 ?RegisterDungeonMapName@CPythonBackground@@QAEXPBD@Z ; CPythonBackground::RegisterDungeonMapName

; 511  : 	return Py_BuildNone();

  00030	e8 00 00 00 00	 call	 ?Py_BuildNone@@YAPAU_object@@XZ ; Py_BuildNone

; 512  : }

  00035	8b e5		 mov	 esp, ebp
  00037	5d		 pop	 ebp
  00038	c3		 ret	 0
?backgroundRegisterDungeonMapName@@YAPAU_object@@PAU1@0@Z ENDP ; backgroundRegisterDungeonMapName
_TEXT	ENDS
; Function compile flags: /Ogtp
; File D:\_m2work\Server Client TMP4\ClientVS22\source\UserInterface\PythonBackgroundModule.cpp
;	COMDAT ?backgroundVisibleGuildArea@@YAPAU_object@@PAU1@0@Z
_TEXT	SEGMENT
_poSelf$ = 8						; size = 4
_poArgs$ = 12						; size = 4
?backgroundVisibleGuildArea@@YAPAU_object@@PAU1@0@Z PROC ; backgroundVisibleGuildArea, COMDAT

; 516  : 	CPythonBackground::Instance().VisibleGuildArea();

  00000	8b 0d 00 00 00
	00		 mov	 ecx, DWORD PTR ?ms_singleton@?$CSingleton@VCPythonBackground@@@@0PAVCPythonBackground@@A ; CSingleton<CPythonBackground>::ms_singleton
  00006	e8 00 00 00 00	 call	 ?VisibleGuildArea@CPythonBackground@@QAEXXZ ; CPythonBackground::VisibleGuildArea

; 517  : 	return Py_BuildNone();

  0000b	e9 00 00 00 00	 jmp	 ?Py_BuildNone@@YAPAU_object@@XZ ; Py_BuildNone
?backgroundVisibleGuildArea@@YAPAU_object@@PAU1@0@Z ENDP ; backgroundVisibleGuildArea
_TEXT	ENDS
; Function compile flags: /Ogtp
; File D:\_m2work\Server Client TMP4\ClientVS22\source\UserInterface\PythonBackgroundModule.cpp
;	COMDAT ?backgroundDisableGuildArea@@YAPAU_object@@PAU1@0@Z
_TEXT	SEGMENT
_poSelf$ = 8						; size = 4
_poArgs$ = 12						; size = 4
?backgroundDisableGuildArea@@YAPAU_object@@PAU1@0@Z PROC ; backgroundDisableGuildArea, COMDAT

; 522  : 	CPythonBackground::Instance().DisableGuildArea();

  00000	8b 0d 00 00 00
	00		 mov	 ecx, DWORD PTR ?ms_singleton@?$CSingleton@VCPythonBackground@@@@0PAVCPythonBackground@@A ; CSingleton<CPythonBackground>::ms_singleton
  00006	e8 00 00 00 00	 call	 ?DisableGuildArea@CPythonBackground@@QAEXXZ ; CPythonBackground::DisableGuildArea

; 523  : 	return Py_BuildNone();

  0000b	e9 00 00 00 00	 jmp	 ?Py_BuildNone@@YAPAU_object@@XZ ; Py_BuildNone
?backgroundDisableGuildArea@@YAPAU_object@@PAU1@0@Z ENDP ; backgroundDisableGuildArea
_TEXT	ENDS
; Function compile flags: /Ogtp
; File D:\_m2work\Server Client TMP4\ClientVS22\source\UserInterface\PythonBackgroundModule.cpp
;	COMDAT ?initBackground@@YAXXZ
_TEXT	SEGMENT
?initBackground@@YAXXZ PROC				; initBackground, COMDAT

; 527  : {

  00000	56		 push	 esi
  00001	57		 push	 edi

; 528  : 	static PyMethodDef s_methods[] =
; 529  : 	{
; 530  : 		{ "IsSoftwareTiling",					backgroundIsSoftwareTiling,					METH_VARARGS }, 
; 531  : 		{ "EnableSoftwareTiling",				backgroundEnableSoftwareTiling,				METH_VARARGS }, 
; 532  : 		{ "EnableSnow",							backgroundEnableSnow,						METH_VARARGS }, 
; 533  : 		{ "GlobalPositionToLocalPosition",		backgroundGlobalPositionToLocalPosition,	METH_VARARGS }, 
; 534  : 		{ "GlobalPositionToMapInfo",			backgroundGlobalPositionToMapInfo,			METH_VARARGS }, 
; 535  : 		{ "GetRenderShadowTime",				backgroundGetRenderShadowTime,				METH_VARARGS },
; 536  : 		{ "LoadMap",							backgroundLoadMap,							METH_VARARGS },
; 537  : 		{ "Destroy",							backgroundDestroy,							METH_VARARGS },
; 538  : 		{ "RegisterEnvironmentData",			backgroundRegisterEnvironmentData,			METH_VARARGS },
; 539  : 		{ "SetEnvironmentData",					backgroundSetEnvironmentData,				METH_VARARGS },
; 540  : 		{ "GetCurrentMapName",					backgroundGetCurrentMapName,				METH_VARARGS },
; 541  : 		{ "GetPickingPoint",					backgroundGetPickingPoint,					METH_VARARGS },
; 542  : 
; 543  : 		{ "BeginEnvironment",					backgroundBeginEnvironment,					METH_VARARGS },
; 544  : 		{ "EndEnvironment",						backgroundEndEnvironemt,					METH_VARARGS },
; 545  : 		{ "SetCharacterDirLight",				backgroundSetCharacterDirLight,				METH_VARARGS },
; 546  : 		{ "SetBackgroundDirLight",				backgroundSetBackgroundDirLight,			METH_VARARGS },
; 547  : 
; 548  : 		{ "Initialize",							backgroundInitialize,						METH_VARARGS },
; 549  : 		{ "Update",								backgroundUpdate,							METH_VARARGS },
; 550  : 		{ "Render",								backgroundRender,							METH_VARARGS },
; 551  : 		{ "RenderPCBlocker",					backgroundRenderPCBlocker,					METH_VARARGS },
; 552  : 		{ "RenderCollision",					backgroundRenderCollision,					METH_VARARGS },
; 553  : 		{ "RenderSky",							backgroundRenderSky,						METH_VARARGS },
; 554  : 		{ "RenderCloud",						backgroundRenderCloud,						METH_VARARGS },
; 555  : 		{ "RenderWater",						backgroundRenderWater,						METH_VARARGS },
; 556  : 		{ "RenderEffect",						backgroundRenderEffect,						METH_VARARGS },
; 557  : 		{ "RenderBeforeLensFlare",				backgroundRenderBeforeLensFlare,			METH_VARARGS },
; 558  : 		{ "RenderAfterLensFlare",				backgroundRenderAfterLensFlare,				METH_VARARGS },
; 559  : 		{ "RenderCharacterShadowToTexture",		backgroundRenderCharacterShadowToTexture,	METH_VARARGS },
; 560  : 		{ "RenderDungeon",						backgroundRenderDungeon,					METH_VARARGS },
; 561  : 		{ "GetHeight",							backgroundGetHeight,						METH_VARARGS },
; 562  : 		
; 563  : 		{ "SetShadowLevel",						backgroundSetShadowLevel,					METH_VARARGS },
; 564  : 
; 565  : 		{ "SetVisiblePart",						backgroundSetVisiblePart,					METH_VARARGS },
; 566  : 		{ "GetShadowMapColor",					backgroundGetShadowMapcolor,				METH_VARARGS },
; 567  : 		{ "SetSplatLimit",						backgroundSetSpaltLimit,					METH_VARARGS },
; 568  : 		{ "GetRenderedSplatNum",				backgroundGetRenderedSplatNum,				METH_VARARGS },
; 569  : 		{ "GetRenderedGraphicThingInstanceNum",	backgroundGetRenderedGTINum,				METH_VARARGS },
; 570  : 		{ "SelectViewDistanceNum",				backgroundSelectViewDistanceNum,			METH_VARARGS },
; 571  : 		{ "SetViewDistanceSet",					backgroundSetViewDistanceSet,				METH_VARARGS },
; 572  : 		{ "GetFarClip",							backgroundGetFarClip,						METH_VARARGS },
; 573  : 		{ "GetDistanceSetInfo",					backgroundGetDistanceSetInfo,				METH_VARARGS },
; 574  : 		{ "SetBGLoading",						backgroundSetBGLoading,						METH_VARARGS },
; 575  : 		{ "SetRenderSort",						backgroundSetRenderSort,					METH_VARARGS },
; 576  : 		{ "SetTransparentTree",					backgroundSetTransparentTree,				METH_VARARGS },
; 577  : 		{ "SetXMasTree",						backgroundSetXMasTree,						METH_VARARGS },
; 578  : 		{ "RegisterDungeonMapName",				backgroundRegisterDungeonMapName,			METH_VARARGS },
; 579  : 
; 580  : 		{ "VisibleGuildArea",					backgroundVisibleGuildArea,					METH_VARARGS },
; 581  : 		{ "DisableGuildArea",					backgroundDisableGuildArea,					METH_VARARGS },
; 582  : 
; 583  : 		{ "WarpTest",							backgroundWarpTest,							METH_VARARGS },
; 584  : 
; 585  : 		{ NULL, NULL, NULL },
; 586  : 	};
; 587  : 
; 588  : 	PyObject * poModule = Py_InitModule("background", s_methods);

  00002	68 f5 03 00 00	 push	 1013			; 000003f5H
  00007	6a 00		 push	 0
  00009	6a 00		 push	 0
  0000b	68 00 00 00 00	 push	 OFFSET ?s_methods@?1??initBackground@@YAXXZ@4PAUPyMethodDef@@A
  00010	68 00 00 00 00	 push	 OFFSET ??_C@_0L@EGCKCJDC@background@
  00015	ff 15 00 00 00
	00		 call	 DWORD PTR __imp__Py_InitModule4

; 589  : 
; 590  : 	PyModule_AddIntConstant(poModule, "PART_SKY",				CMapOutdoor::PART_SKY);

  0001b	8b 35 00 00 00
	00		 mov	 esi, DWORD PTR __imp__PyModule_AddIntConstant
  00021	8b f8		 mov	 edi, eax
  00023	6a 05		 push	 5
  00025	68 00 00 00 00	 push	 OFFSET ??_C@_08NJILKGEB@PART_SKY@
  0002a	57		 push	 edi
  0002b	ff d6		 call	 esi

; 591  : 	PyModule_AddIntConstant(poModule, "PART_TREE",				CMapOutdoor::PART_TREE);

  0002d	6a 04		 push	 4
  0002f	68 00 00 00 00	 push	 OFFSET ??_C@_09GABNPPB@PART_TREE@
  00034	57		 push	 edi
  00035	ff d6		 call	 esi

; 592  : 	PyModule_AddIntConstant(poModule, "PART_CLOUD",				CMapOutdoor::PART_CLOUD);

  00037	6a 02		 push	 2
  00039	68 00 00 00 00	 push	 OFFSET ??_C@_0L@OMDBBBIA@PART_CLOUD@
  0003e	57		 push	 edi
  0003f	ff d6		 call	 esi

; 593  : 	PyModule_AddIntConstant(poModule, "PART_WATER",				CMapOutdoor::PART_WATER);

  00041	6a 03		 push	 3
  00043	68 00 00 00 00	 push	 OFFSET ??_C@_0L@LEAFDIF@PART_WATER@
  00048	57		 push	 edi
  00049	ff d6		 call	 esi
  0004b	83 c4 44	 add	 esp, 68			; 00000044H

; 594  : 	PyModule_AddIntConstant(poModule, "PART_OBJECT",			CMapOutdoor::PART_OBJECT);	

  0004e	6a 01		 push	 1
  00050	68 00 00 00 00	 push	 OFFSET ??_C@_0M@FDJPOPAP@PART_OBJECT@
  00055	57		 push	 edi
  00056	ff d6		 call	 esi

; 595  : 	PyModule_AddIntConstant(poModule, "PART_TERRAIN",			CMapOutdoor::PART_TERRAIN);	

  00058	6a 00		 push	 0
  0005a	68 00 00 00 00	 push	 OFFSET ??_C@_0N@JJNCMAMK@PART_TERRAIN@
  0005f	57		 push	 edi
  00060	ff d6		 call	 esi

; 596  : 
; 597  : 	PyModule_AddIntConstant(poModule, "SKY_RENDER_MODE_DEFAULT",			CSkyObject::SKY_RENDER_MODE_DEFAULT);

  00062	6a 00		 push	 0
  00064	68 00 00 00 00	 push	 OFFSET ??_C@_0BI@KFLFFAKF@SKY_RENDER_MODE_DEFAULT@
  00069	57		 push	 edi
  0006a	ff d6		 call	 esi

; 598  : 	PyModule_AddIntConstant(poModule, "SKY_RENDER_MODE_DIFFUSE",			CSkyObject::SKY_RENDER_MODE_DIFFUSE);

  0006c	6a 01		 push	 1
  0006e	68 00 00 00 00	 push	 OFFSET ??_C@_0BI@JEJGCBJM@SKY_RENDER_MODE_DIFFUSE@
  00073	57		 push	 edi
  00074	ff d6		 call	 esi

; 599  : 	PyModule_AddIntConstant(poModule, "SKY_RENDER_MODE_TEXTURE",			CSkyObject::SKY_RENDER_MODE_TEXTURE);

  00076	6a 02		 push	 2
  00078	68 00 00 00 00	 push	 OFFSET ??_C@_0BI@NLDLHPN@SKY_RENDER_MODE_TEXTURE@
  0007d	57		 push	 edi
  0007e	ff d6		 call	 esi

; 600  : 	PyModule_AddIntConstant(poModule, "SKY_RENDER_MODE_MODULATE",			CSkyObject::SKY_RENDER_MODE_MODULATE);

  00080	6a 03		 push	 3
  00082	68 00 00 00 00	 push	 OFFSET ??_C@_0BJ@IGDGIPGO@SKY_RENDER_MODE_MODULATE@
  00087	57		 push	 edi
  00088	ff d6		 call	 esi
  0008a	83 c4 48	 add	 esp, 72			; 00000048H

; 601  : 	PyModule_AddIntConstant(poModule, "SKY_RENDER_MODE_MODULATE2X",			CSkyObject::SKY_RENDER_MODE_MODULATE2X);

  0008d	6a 04		 push	 4
  0008f	68 00 00 00 00	 push	 OFFSET ??_C@_0BL@NDPELIAM@SKY_RENDER_MODE_MODULATE2X@
  00094	57		 push	 edi
  00095	ff d6		 call	 esi

; 602  : 	PyModule_AddIntConstant(poModule, "SKY_RENDER_MODE_MODULATE4X",			CSkyObject::SKY_RENDER_MODE_MODULATE4X);

  00097	6a 05		 push	 5
  00099	68 00 00 00 00	 push	 OFFSET ??_C@_0BL@NHHJMELO@SKY_RENDER_MODE_MODULATE4X@
  0009e	57		 push	 edi
  0009f	ff d6		 call	 esi

; 603  : 
; 604  : 	PyModule_AddIntConstant(poModule, "SHADOW_NONE", CPythonBackground::SHADOW_NONE);

  000a1	6a 00		 push	 0
  000a3	68 00 00 00 00	 push	 OFFSET ??_C@_0M@GJOLHPMA@SHADOW_NONE@
  000a8	57		 push	 edi
  000a9	ff d6		 call	 esi

; 605  : 	PyModule_AddIntConstant(poModule, "SHADOW_GROUND", CPythonBackground::SHADOW_GROUND);

  000ab	6a 01		 push	 1
  000ad	68 00 00 00 00	 push	 OFFSET ??_C@_0O@KCPINCHK@SHADOW_GROUND@
  000b2	57		 push	 edi
  000b3	ff d6		 call	 esi

; 606  : 	PyModule_AddIntConstant(poModule, "SHADOW_GROUND_AND_SOLO", CPythonBackground::SHADOW_GROUND_AND_SOLO);

  000b5	6a 02		 push	 2
  000b7	68 00 00 00 00	 push	 OFFSET ??_C@_0BH@GACINHHJ@SHADOW_GROUND_AND_SOLO@
  000bc	57		 push	 edi
  000bd	ff d6		 call	 esi

; 607  : 	PyModule_AddIntConstant(poModule, "SHADOW_ALL", CPythonBackground::SHADOW_ALL);

  000bf	6a 03		 push	 3
  000c1	68 00 00 00 00	 push	 OFFSET ??_C@_0L@IDBIEHAB@SHADOW_ALL@
  000c6	57		 push	 edi
  000c7	ff d6		 call	 esi
  000c9	83 c4 48	 add	 esp, 72			; 00000048H

; 608  : 	PyModule_AddIntConstant(poModule, "SHADOW_ALL_HIGH", CPythonBackground::SHADOW_ALL_HIGH);

  000cc	6a 04		 push	 4
  000ce	68 00 00 00 00	 push	 OFFSET ??_C@_0BA@HAKJACB@SHADOW_ALL_HIGH@
  000d3	57		 push	 edi
  000d4	ff d6		 call	 esi

; 609  : 	PyModule_AddIntConstant(poModule, "SHADOW_ALL_MAX", CPythonBackground::SHADOW_ALL_MAX);

  000d6	6a 05		 push	 5
  000d8	68 00 00 00 00	 push	 OFFSET ??_C@_0P@OLMEFOLC@SHADOW_ALL_MAX@
  000dd	57		 push	 edi
  000de	ff d6		 call	 esi

; 610  : 
; 611  : 	PyModule_AddIntConstant(poModule, "DISTANCE0", CPythonBackground::DISTANCE0);

  000e0	6a 00		 push	 0
  000e2	68 00 00 00 00	 push	 OFFSET ??_C@_09PGFHANGE@DISTANCE0@
  000e7	57		 push	 edi
  000e8	ff d6		 call	 esi

; 612  : 	PyModule_AddIntConstant(poModule, "DISTANCE1", CPythonBackground::DISTANCE1);

  000ea	6a 01		 push	 1
  000ec	68 00 00 00 00	 push	 OFFSET ??_C@_09OPEMDMCF@DISTANCE1@
  000f1	57		 push	 edi
  000f2	ff d6		 call	 esi

; 613  : 	PyModule_AddIntConstant(poModule, "DISTANCE2", CPythonBackground::DISTANCE2);

  000f4	6a 02		 push	 2
  000f6	68 00 00 00 00	 push	 OFFSET ??_C@_09MEGBGPOG@DISTANCE2@
  000fb	57		 push	 edi
  000fc	ff d6		 call	 esi

; 614  : 	PyModule_AddIntConstant(poModule, "DISTANCE3", CPythonBackground::DISTANCE3);

  000fe	6a 03		 push	 3
  00100	68 00 00 00 00	 push	 OFFSET ??_C@_09NNHKFOKH@DISTANCE3@
  00105	57		 push	 edi
  00106	ff d6		 call	 esi
  00108	83 c4 48	 add	 esp, 72			; 00000048H

; 615  : 	PyModule_AddIntConstant(poModule, "DISTANCE4", CPythonBackground::DISTANCE4);

  0010b	6a 04		 push	 4
  0010d	68 00 00 00 00	 push	 OFFSET ??_C@_09JCDLMIGA@DISTANCE4@
  00112	57		 push	 edi
  00113	ff d6		 call	 esi

; 616  : 
; 617  : 	PyModule_AddIntConstant(poModule, "DISTANCE_SORT", CMapOutdoor::DISTANCE_SORT);

  00115	6a 00		 push	 0
  00117	68 00 00 00 00	 push	 OFFSET ??_C@_0O@OJDBENMM@DISTANCE_SORT@
  0011c	57		 push	 edi
  0011d	ff d6		 call	 esi

; 618  : 	PyModule_AddIntConstant(poModule, "TEXTURE_SORT", CMapOutdoor::TEXTURE_SORT);

  0011f	6a 01		 push	 1
  00121	68 00 00 00 00	 push	 OFFSET ??_C@_0N@CKPMLBKJ@TEXTURE_SORT@
  00126	57		 push	 edi
  00127	ff d6		 call	 esi
  00129	83 c4 24	 add	 esp, 36			; 00000024H
  0012c	5f		 pop	 edi
  0012d	5e		 pop	 esi

; 619  : }

  0012e	c3		 ret	 0
?initBackground@@YAXXZ ENDP				; initBackground
_TEXT	ENDS
; Function compile flags: /Ogtp
; File C:\Program Files\Microsoft Visual Studio\2022\Community\VC\Tools\MSVC\14.44.35207\include\vector
;	COMDAT ??8?$_Vector_const_iterator@V?$_Vector_val@U?$_Simple_types@H@std@@@std@@@std@@QBE_NABV01@@Z
_TEXT	SEGMENT
__Right$ = 8						; size = 4
??8?$_Vector_const_iterator@V?$_Vector_val@U?$_Simple_types@H@std@@@std@@@std@@QBE_NABV01@@Z PROC ; std::_Vector_const_iterator<std::_Vector_val<std::_Simple_types<int> > >::operator==, COMDAT
; _this$ = ecx

; 164  :     _NODISCARD _CONSTEXPR20 bool operator==(const _Vector_const_iterator& _Right) const noexcept {

  00000	55		 push	 ebp
  00001	8b ec		 mov	 ebp, esp

; 165  :         _Compat(_Right);
; 166  :         return _Ptr == _Right._Ptr;

  00003	8b 45 08	 mov	 eax, DWORD PTR __Right$[ebp]
  00006	8b 09		 mov	 ecx, DWORD PTR [ecx]
  00008	3b 08		 cmp	 ecx, DWORD PTR [eax]
  0000a	0f 94 c0	 sete	 al

; 167  :     }

  0000d	5d		 pop	 ebp
  0000e	c2 04 00	 ret	 4
??8?$_Vector_const_iterator@V?$_Vector_val@U?$_Simple_types@H@std@@@std@@@std@@QBE_NABV01@@Z ENDP ; std::_Vector_const_iterator<std::_Vector_val<std::_Simple_types<int> > >::operator==
_TEXT	ENDS
; Function compile flags: /Ogtp
; File C:\Program Files\Microsoft Visual Studio\2022\Community\VC\Tools\MSVC\14.44.35207\include\vector
;	COMDAT ??E?$_Vector_iterator@V?$_Vector_val@U?$_Simple_types@H@std@@@std@@@std@@QAE?AV01@H@Z
_TEXT	SEGMENT
___$ReturnUdt$ = 8					; size = 4
___formal$dead$ = 12					; size = 4
??E?$_Vector_iterator@V?$_Vector_val@U?$_Simple_types@H@std@@@std@@@std@@QAE?AV01@H@Z PROC ; std::_Vector_iterator<std::_Vector_val<std::_Simple_types<int> > >::operator++, COMDAT
; _this$ = ecx

; 291  :     _CONSTEXPR20 _Vector_iterator operator++(int) noexcept {

  00000	55		 push	 ebp
  00001	8b ec		 mov	 ebp, esp

; 292  :         _Vector_iterator _Tmp = *this;

  00003	8b 45 08	 mov	 eax, DWORD PTR ___$ReturnUdt$[ebp]
  00006	8b 11		 mov	 edx, DWORD PTR [ecx]
  00008	89 10		 mov	 DWORD PTR [eax], edx

; 82   :         ++_Ptr;

  0000a	83 c2 04	 add	 edx, 4
  0000d	89 11		 mov	 DWORD PTR [ecx], edx

; 293  :         _Mybase::operator++();
; 294  :         return _Tmp;
; 295  :     }

  0000f	5d		 pop	 ebp
  00010	c2 08 00	 ret	 8
??E?$_Vector_iterator@V?$_Vector_val@U?$_Simple_types@H@std@@@std@@@std@@QAE?AV01@H@Z ENDP ; std::_Vector_iterator<std::_Vector_val<std::_Simple_types<int> > >::operator++
_TEXT	ENDS
; Function compile flags: /Ogtp
; File C:\Program Files\Microsoft Visual Studio\2022\Community\VC\Tools\MSVC\14.44.35207\include\vector
;	COMDAT ??D?$_Vector_iterator@V?$_Vector_val@U?$_Simple_types@H@std@@@std@@@std@@QBEAAHXZ
_TEXT	SEGMENT
??D?$_Vector_iterator@V?$_Vector_val@U?$_Simple_types@H@std@@@std@@@std@@QBEAAHXZ PROC ; std::_Vector_iterator<std::_Vector_val<std::_Simple_types<int> > >::operator*, COMDAT
; _this$ = ecx

; 271  :         return const_cast<reference>(_Mybase::operator*());

  00000	8b 01		 mov	 eax, DWORD PTR [ecx]

; 272  :     }

  00002	c3		 ret	 0
??D?$_Vector_iterator@V?$_Vector_val@U?$_Simple_types@H@std@@@std@@@std@@QBEAAHXZ ENDP ; std::_Vector_iterator<std::_Vector_val<std::_Simple_types<int> > >::operator*
_TEXT	ENDS
; Function compile flags: /Ogtp
; File C:\Program Files\Microsoft Visual Studio\2022\Community\VC\Tools\MSVC\14.44.35207\include\vector
;	COMDAT ?end@?$vector@HV?$allocator@H@std@@@std@@QAE?AV?$_Vector_iterator@V?$_Vector_val@U?$_Simple_types@H@std@@@std@@@2@XZ
_TEXT	SEGMENT
___$ReturnUdt$ = 8					; size = 4
?end@?$vector@HV?$allocator@H@std@@@std@@QAE?AV?$_Vector_iterator@V?$_Vector_val@U?$_Simple_types@H@std@@@std@@@2@XZ PROC ; std::vector<int,std::allocator<int> >::end, COMDAT
; _this$ = ecx

; 1850 :     _NODISCARD _CONSTEXPR20 iterator end() noexcept {

  00000	55		 push	 ebp
  00001	8b ec		 mov	 ebp, esp

; 46   :     _CONSTEXPR20 _Vector_const_iterator(_Tptr _Parg, const _Container_base* _Pvector) noexcept : _Ptr(_Parg) {

  00003	8b 45 08	 mov	 eax, DWORD PTR ___$ReturnUdt$[ebp]
  00006	8b 49 04	 mov	 ecx, DWORD PTR [ecx+4]
  00009	89 08		 mov	 DWORD PTR [eax], ecx

; 1851 :         auto& _My_data = _Mypair._Myval2;
; 1852 :         return iterator(_My_data._Mylast, _STD addressof(_My_data));
; 1853 :     }

  0000b	5d		 pop	 ebp
  0000c	c2 04 00	 ret	 4
?end@?$vector@HV?$allocator@H@std@@@std@@QAE?AV?$_Vector_iterator@V?$_Vector_val@U?$_Simple_types@H@std@@@std@@@2@XZ ENDP ; std::vector<int,std::allocator<int> >::end
_TEXT	ENDS
; Function compile flags: /Ogtp
; File C:\Program Files\Microsoft Visual Studio\2022\Community\VC\Tools\MSVC\14.44.35207\include\vector
;	COMDAT ??0?$_Vector_iterator@V?$_Vector_val@U?$_Simple_types@H@std@@@std@@@std@@QAE@PAHPBU_Container_base0@1@@Z
_TEXT	SEGMENT
___param0$ = 8						; size = 4
___param1$dead$ = 12					; size = 4
??0?$_Vector_iterator@V?$_Vector_val@U?$_Simple_types@H@std@@@std@@@std@@QAE@PAHPBU_Container_base0@1@@Z PROC ; std::_Vector_iterator<std::_Vector_val<std::_Simple_types<int> > >::_Vector_iterator<std::_Vector_val<std::_Simple_types<int> > >, COMDAT
; _this$ = ecx
  00000	55		 push	 ebp
  00001	8b ec		 mov	 ebp, esp

; 46   :     _CONSTEXPR20 _Vector_const_iterator(_Tptr _Parg, const _Container_base* _Pvector) noexcept : _Ptr(_Parg) {

  00003	8b 45 08	 mov	 eax, DWORD PTR ___param0$[ebp]
  00006	89 01		 mov	 DWORD PTR [ecx], eax
  00008	8b c1		 mov	 eax, ecx
  0000a	5d		 pop	 ebp
  0000b	c2 08 00	 ret	 8
??0?$_Vector_iterator@V?$_Vector_val@U?$_Simple_types@H@std@@@std@@@std@@QAE@PAHPBU_Container_base0@1@@Z ENDP ; std::_Vector_iterator<std::_Vector_val<std::_Simple_types<int> > >::_Vector_iterator<std::_Vector_val<std::_Simple_types<int> > >
_TEXT	ENDS
; Function compile flags: /Ogtp
; File C:\Program Files\Microsoft Visual Studio\2022\Community\VC\Tools\MSVC\14.44.35207\include\vector
;	COMDAT ?begin@?$vector@HV?$allocator@H@std@@@std@@QAE?AV?$_Vector_iterator@V?$_Vector_val@U?$_Simple_types@H@std@@@std@@@2@XZ
_TEXT	SEGMENT
___$ReturnUdt$ = 8					; size = 4
?begin@?$vector@HV?$allocator@H@std@@@std@@QAE?AV?$_Vector_iterator@V?$_Vector_val@U?$_Simple_types@H@std@@@std@@@2@XZ PROC ; std::vector<int,std::allocator<int> >::begin, COMDAT
; _this$ = ecx

; 1840 :     _NODISCARD _CONSTEXPR20 iterator begin() noexcept {

  00000	55		 push	 ebp
  00001	8b ec		 mov	 ebp, esp

; 46   :     _CONSTEXPR20 _Vector_const_iterator(_Tptr _Parg, const _Container_base* _Pvector) noexcept : _Ptr(_Parg) {

  00003	8b 45 08	 mov	 eax, DWORD PTR ___$ReturnUdt$[ebp]
  00006	8b 09		 mov	 ecx, DWORD PTR [ecx]
  00008	89 08		 mov	 DWORD PTR [eax], ecx

; 1841 :         auto& _My_data = _Mypair._Myval2;
; 1842 :         return iterator(_My_data._Myfirst, _STD addressof(_My_data));
; 1843 :     }

  0000a	5d		 pop	 ebp
  0000b	c2 04 00	 ret	 4
?begin@?$vector@HV?$allocator@H@std@@@std@@QAE?AV?$_Vector_iterator@V?$_Vector_val@U?$_Simple_types@H@std@@@std@@@2@XZ ENDP ; std::vector<int,std::allocator<int> >::begin
_TEXT	ENDS
; Function compile flags: /Ogtp
; File C:\Program Files\Microsoft Visual Studio\2022\Community\VC\Tools\MSVC\14.44.35207\include\type_traits
;	COMDAT ??$addressof@V?$_Vector_val@U?$_Simple_types@H@std@@@std@@@std@@YAPAV?$_Vector_val@U?$_Simple_types@H@std@@@0@AAV10@@Z
_TEXT	SEGMENT
??$addressof@V?$_Vector_val@U?$_Simple_types@H@std@@@std@@@std@@YAPAV?$_Vector_val@U?$_Simple_types@H@std@@@0@AAV10@@Z PROC ; std::addressof<std::_Vector_val<std::_Simple_types<int> > >, COMDAT
; __Val$ = ecx

; 1525 :     return __builtin_addressof(_Val);

  00000	8b c1		 mov	 eax, ecx

; 1526 : }

  00002	c3		 ret	 0
??$addressof@V?$_Vector_val@U?$_Simple_types@H@std@@@std@@@std@@YAPAV?$_Vector_val@U?$_Simple_types@H@std@@@0@AAV10@@Z ENDP ; std::addressof<std::_Vector_val<std::_Simple_types<int> > >
_TEXT	ENDS
; Function compile flags: /Ogtp
; File C:\Program Files\Microsoft Visual Studio\2022\Community\VC\Tools\MSVC\14.44.35207\include\vector
;	COMDAT ?_Compat@?$_Vector_const_iterator@V?$_Vector_val@U?$_Simple_types@H@std@@@std@@@std@@QBEXABV12@@Z
_TEXT	SEGMENT
__Right$dead$ = 8					; size = 4
?_Compat@?$_Vector_const_iterator@V?$_Vector_val@U?$_Simple_types@H@std@@@std@@@std@@QBEXABV12@@Z PROC ; std::_Vector_const_iterator<std::_Vector_val<std::_Simple_types<int> > >::_Compat, COMDAT
; _this$dead$ = ecx

; 198  :         // test for compatible iterator pair
; 199  : #if _ITERATOR_DEBUG_LEVEL == 0
; 200  :         (void) _Right;
; 201  : #else // ^^^ _ITERATOR_DEBUG_LEVEL == 0 / _ITERATOR_DEBUG_LEVEL != 0 vvv
; 202  :         _STL_VERIFY(this->_Getcont() == _Right._Getcont(), "vector iterators incompatible");
; 203  : #endif // ^^^ _ITERATOR_DEBUG_LEVEL != 0 ^^^
; 204  :     }

  00000	c2 04 00	 ret	 4
?_Compat@?$_Vector_const_iterator@V?$_Vector_val@U?$_Simple_types@H@std@@@std@@@std@@QBEXABV12@@Z ENDP ; std::_Vector_const_iterator<std::_Vector_val<std::_Simple_types<int> > >::_Compat
_TEXT	ENDS
; Function compile flags: /Ogtp
; File C:\Program Files\Microsoft Visual Studio\2022\Community\VC\Tools\MSVC\14.44.35207\include\vector
;	COMDAT ??E?$_Vector_const_iterator@V?$_Vector_val@U?$_Simple_types@H@std@@@std@@@std@@QAEAAV01@XZ
_TEXT	SEGMENT
??E?$_Vector_const_iterator@V?$_Vector_val@U?$_Simple_types@H@std@@@std@@@std@@QAEAAV01@XZ PROC ; std::_Vector_const_iterator<std::_Vector_val<std::_Simple_types<int> > >::operator++, COMDAT
; _this$ = ecx

; 75   : #if _ITERATOR_DEBUG_LEVEL != 0
; 76   :         const auto _Mycont = static_cast<const _Myvec*>(this->_Getcont());
; 77   :         _STL_VERIFY(_Ptr, "can't increment value-initialized vector iterator");
; 78   :         _STL_VERIFY(_Mycont, "can't increment invalidated vector iterator");
; 79   :         _STL_VERIFY(_Ptr < _Mycont->_Mylast, "can't increment vector iterator past end");
; 80   : #endif // _ITERATOR_DEBUG_LEVEL != 0
; 81   : 
; 82   :         ++_Ptr;

  00000	83 01 04	 add	 DWORD PTR [ecx], 4

; 83   :         return *this;

  00003	8b c1		 mov	 eax, ecx

; 84   :     }

  00005	c3		 ret	 0
??E?$_Vector_const_iterator@V?$_Vector_val@U?$_Simple_types@H@std@@@std@@@std@@QAEAAV01@XZ ENDP ; std::_Vector_const_iterator<std::_Vector_val<std::_Simple_types<int> > >::operator++
_TEXT	ENDS
; Function compile flags: /Ogtp
; File C:\Program Files\Microsoft Visual Studio\2022\Community\VC\Tools\MSVC\14.44.35207\include\vector
;	COMDAT ??D?$_Vector_const_iterator@V?$_Vector_val@U?$_Simple_types@H@std@@@std@@@std@@QBEABHXZ
_TEXT	SEGMENT
??D?$_Vector_const_iterator@V?$_Vector_val@U?$_Simple_types@H@std@@@std@@@std@@QBEABHXZ PROC ; std::_Vector_const_iterator<std::_Vector_val<std::_Simple_types<int> > >::operator*, COMDAT
; _this$ = ecx

; 51   : #if _ITERATOR_DEBUG_LEVEL != 0
; 52   :         const auto _Mycont = static_cast<const _Myvec*>(this->_Getcont());
; 53   :         _STL_VERIFY(_Ptr, "can't dereference value-initialized vector iterator");
; 54   :         _STL_VERIFY(_Mycont, "can't dereference invalidated vector iterator");
; 55   :         _STL_VERIFY(
; 56   :             _Mycont->_Myfirst <= _Ptr && _Ptr < _Mycont->_Mylast, "can't dereference out of range vector iterator");
; 57   : #endif // _ITERATOR_DEBUG_LEVEL != 0
; 58   : 
; 59   :         return *_Ptr;

  00000	8b 01		 mov	 eax, DWORD PTR [ecx]

; 60   :     }

  00002	c3		 ret	 0
??D?$_Vector_const_iterator@V?$_Vector_val@U?$_Simple_types@H@std@@@std@@@std@@QBEABHXZ ENDP ; std::_Vector_const_iterator<std::_Vector_val<std::_Simple_types<int> > >::operator*
_TEXT	ENDS
; Function compile flags: /Ogtp
; File C:\Program Files\Microsoft Visual Studio\2022\Community\VC\Tools\MSVC\14.44.35207\include\vector
;	COMDAT ??0?$_Vector_const_iterator@V?$_Vector_val@U?$_Simple_types@H@std@@@std@@@std@@QAE@PAHPBU_Container_base0@1@@Z
_TEXT	SEGMENT
__Parg$ = 8						; size = 4
__Pvector$dead$ = 12					; size = 4
??0?$_Vector_const_iterator@V?$_Vector_val@U?$_Simple_types@H@std@@@std@@@std@@QAE@PAHPBU_Container_base0@1@@Z PROC ; std::_Vector_const_iterator<std::_Vector_val<std::_Simple_types<int> > >::_Vector_const_iterator<std::_Vector_val<std::_Simple_types<int> > >, COMDAT
; _this$ = ecx

; 46   :     _CONSTEXPR20 _Vector_const_iterator(_Tptr _Parg, const _Container_base* _Pvector) noexcept : _Ptr(_Parg) {

  00000	55		 push	 ebp
  00001	8b ec		 mov	 ebp, esp
  00003	8b 45 08	 mov	 eax, DWORD PTR __Parg$[ebp]
  00006	89 01		 mov	 DWORD PTR [ecx], eax

; 47   :         this->_Adopt(_Pvector);
; 48   :     }

  00008	8b c1		 mov	 eax, ecx
  0000a	5d		 pop	 ebp
  0000b	c2 08 00	 ret	 8
??0?$_Vector_const_iterator@V?$_Vector_val@U?$_Simple_types@H@std@@@std@@@std@@QAE@PAHPBU_Container_base0@1@@Z ENDP ; std::_Vector_const_iterator<std::_Vector_val<std::_Simple_types<int> > >::_Vector_const_iterator<std::_Vector_val<std::_Simple_types<int> > >
_TEXT	ENDS
END
