; Listing generated by Microsoft (R) Optimizing Compiler Version 19.44.35217.0 

	TITLE	d:\_m2work\txoko-m2-work\txoko-client-src\vs_files\userinterface\distribute\pythonminimapmodule.obj
	.686P
	.XMM
	include listing.inc
	.model	flat

INCLUDELIB OLDNAMES

PUBLIC	??_C@_0CO@JOBACLFH@CPythonMiniMap?3?3Instance?$CI?$CJ?4Load@ ; `string'
PUBLIC	??_C@_05BHNEPGFM@isiil@				; `string'
PUBLIC	??_C@_03LMKNDPCK@bii@				; `string'
PUBLIC	??_C@_06NGPFBJMH@isiili@			; `string'
PUBLIC	??_C@_07CNPAFGOE@ScaleUp@			; `string'
PUBLIC	??_C@_08FMFAIGAB@SetScale@			; `string'
PUBLIC	??_C@_0P@JDEKHKMA@SetMiniMapSize@		; `string'
PUBLIC	??_C@_09EHCACONO@ScaleDown@			; `string'
PUBLIC	??_C@_09IMDAKKFO@LoadAtlas@			; `string'
PUBLIC	??_C@_06FDNPFPAD@isShow@			; `string'
PUBLIC	??_C@_0M@KMBFBAJA@RenderAtlas@			; `string'
PUBLIC	??_C@_0M@EIPBNHOF@UpdateAtlas@			; `string'
PUBLIC	??_C@_09BIFGHGHO@HideAtlas@			; `string'
PUBLIC	??_C@_09HNEIIJJD@ShowAtlas@			; `string'
PUBLIC	??_C@_07IFCOGPLJ@IsAtlas@			; `string'
PUBLIC	??_C@_0M@DHCMEFOB@isShowAtlas@			; `string'
PUBLIC	??_C@_0N@ENAKBIJM@GetAtlasSize@			; `string'
PUBLIC	??_C@_0N@BFFOBNJI@GetAtlasInfo@			; `string'
PUBLIC	??_C@_0P@BPFHEFHK@RemoveWayPoint@		; `string'
PUBLIC	??_C@_0M@DMLHJAOH@AddWayPoint@			; `string'
PUBLIC	??_C@_0BG@BMPPHBMB@UnregisterAtlasWindow@	; `string'
PUBLIC	??_C@_0BE@DJCJPBHI@RegisterAtlasWindow@		; `string'
PUBLIC	??_C@_07GGJFLPNN@miniMap@			; `string'
PUBLIC	??_C@_0P@JOOPKKLO@GetGuildAreaID@		; `string'
PUBLIC	??_C@_0M@KBKKLFCC@TYPE_OPCPVP@			; `string'
PUBLIC	??_C@_08MOLNEDKJ@TYPE_OPC@			; `string'
PUBLIC	??_C@_08HGABCEMM@TYPE_NPC@			; `string'
PUBLIC	??_C@_0BA@DAENBNGA@TYPE_OPCPVPSELF@		; `string'
PUBLIC	??_C@_09LAKONOKF@TYPE_WARP@			; `string'
PUBLIC	??_C@_0N@MFCFPPMD@TYPE_MONSTER@			; `string'
PUBLIC	??_C@_0L@NHHJIHMA@TYPE_PARTY@			; `string'
PUBLIC	??_C@_0O@JMCMGHKJ@TYPE_WAYPOINT@		; `string'
PUBLIC	??_C@_0M@IAHPEAKG@TYPE_EMPIRE@			; `string'
EXTRN	?PR_FCNV@@3MA:DWORD				; PR_FCNV
EXTRN	?PR_ICNV@@3JA:DWORD				; PR_ICNV
;	COMDAT ?s_methods@?1??initMiniMap@@YAXXZ@4PAUPyMethodDef@@A
_DATA	SEGMENT
?s_methods@?1??initMiniMap@@YAXXZ@4PAUPyMethodDef@@A DD FLAT:??_C@_08FMFAIGAB@SetScale@ ; `initMiniMap'::`2'::s_methods
	DD	FLAT:?miniMapSetScale@@YAPAU_object@@PAU1@0@Z
	DD	01H
	ORG $+4
	DD	FLAT:??_C@_07CNPAFGOE@ScaleUp@
	DD	FLAT:?miniMapScaleUp@@YAPAU_object@@PAU1@0@Z
	DD	01H
	ORG $+4
	DD	FLAT:??_C@_09EHCACONO@ScaleDown@
	DD	FLAT:?miniMapScaleDown@@YAPAU_object@@PAU1@0@Z
	DD	01H
	ORG $+4
	DD	FLAT:??_C@_0P@JDEKHKMA@SetMiniMapSize@
	DD	FLAT:?miniMapSetMiniMapSize@@YAPAU_object@@PAU1@0@Z
	DD	01H
	ORG $+4
	DD	FLAT:??_C@_0BC@MCKFCFLJ@SetCenterPosition@
	DD	FLAT:?miniMapSetCenterPosition@@YAPAU_object@@PAU1@0@Z
	DD	01H
	ORG $+4
	DD	FLAT:??_C@_07BDCAJABG@Destroy@
	DD	FLAT:?miniMapDestroy@@YAPAU_object@@PAU1@0@Z
	DD	01H
	ORG $+4
	DD	FLAT:??_C@_06MIKANEJK@Create@
	DD	FLAT:?miniMapCreate@@YAPAU_object@@PAU1@0@Z
	DD	01H
	ORG $+4
	DD	FLAT:??_C@_06LMAGPFNF@Update@
	DD	FLAT:?miniMapUpdate@@YAPAU_object@@PAU1@0@Z
	DD	01H
	ORG $+4
	DD	FLAT:??_C@_06EPLDPNDB@Render@
	DD	FLAT:?miniMapRender@@YAPAU_object@@PAU1@0@Z
	DD	01H
	ORG $+4
	DD	FLAT:??_C@_04JLAJABDJ@Show@
	DD	FLAT:?miniMapShow@@YAPAU_object@@PAU1@0@Z
	DD	01H
	ORG $+4
	DD	FLAT:??_C@_04EACEFPPN@Hide@
	DD	FLAT:?miniMapHide@@YAPAU_object@@PAU1@0@Z
	DD	01H
	ORG $+4
	DD	FLAT:??_C@_06FDNPFPAD@isShow@
	DD	FLAT:?miniMapisShow@@YAPAU_object@@PAU1@0@Z
	DD	01H
	ORG $+4
	DD	FLAT:??_C@_07NAJNLNAF@GetInfo@
	DD	FLAT:?miniMapGetInfo@@YAPAU_object@@PAU1@0@Z
	DD	01H
	ORG $+4
	DD	FLAT:??_C@_09IMDAKKFO@LoadAtlas@
	DD	FLAT:?miniMapLoadAtlas@@YAPAU_object@@PAU1@0@Z
	DD	01H
	ORG $+4
	DD	FLAT:??_C@_0M@EIPBNHOF@UpdateAtlas@
	DD	FLAT:?miniMapUpdateAtlas@@YAPAU_object@@PAU1@0@Z
	DD	01H
	ORG $+4
	DD	FLAT:??_C@_0M@KMBFBAJA@RenderAtlas@
	DD	FLAT:?miniMapRenderAtlas@@YAPAU_object@@PAU1@0@Z
	DD	01H
	ORG $+4
	DD	FLAT:??_C@_09HNEIIJJD@ShowAtlas@
	DD	FLAT:?miniMapShowAtlas@@YAPAU_object@@PAU1@0@Z
	DD	01H
	ORG $+4
	DD	FLAT:??_C@_09BIFGHGHO@HideAtlas@
	DD	FLAT:?miniMapHideAtlas@@YAPAU_object@@PAU1@0@Z
	DD	01H
	ORG $+4
	DD	FLAT:??_C@_0M@DHCMEFOB@isShowAtlas@
	DD	FLAT:?miniMapisShowAtlas@@YAPAU_object@@PAU1@0@Z
	DD	01H
	ORG $+4
	DD	FLAT:??_C@_07IFCOGPLJ@IsAtlas@
	DD	FLAT:?miniMapIsAtlas@@YAPAU_object@@PAU1@0@Z
	DD	01H
	ORG $+4
	DD	FLAT:??_C@_0N@BFFOBNJI@GetAtlasInfo@
	DD	FLAT:?miniMapGetAtlasInfo@@YAPAU_object@@PAU1@0@Z
	DD	01H
	ORG $+4
	DD	FLAT:??_C@_0N@ENAKBIJM@GetAtlasSize@
	DD	FLAT:?miniMapGetAtlasSize@@YAPAU_object@@PAU1@0@Z
	DD	01H
	ORG $+4
	DD	FLAT:??_C@_0M@DMLHJAOH@AddWayPoint@
	DD	FLAT:?miniMapAddWayPoint@@YAPAU_object@@PAU1@0@Z
	DD	01H
	ORG $+4
	DD	FLAT:??_C@_0P@BPFHEFHK@RemoveWayPoint@
	DD	FLAT:?miniMapRemoveWayPoint@@YAPAU_object@@PAU1@0@Z
	DD	01H
	ORG $+4
	DD	FLAT:??_C@_0BE@DJCJPBHI@RegisterAtlasWindow@
	DD	FLAT:?miniMapRegisterAtlasWindow@@YAPAU_object@@PAU1@0@Z
	DD	01H
	ORG $+4
	DD	FLAT:??_C@_0BG@BMPPHBMB@UnregisterAtlasWindow@
	DD	FLAT:?miniMapUnregisterAtlasWindow@@YAPAU_object@@PAU1@0@Z
	DD	01H
	ORG $+4
	DD	FLAT:??_C@_0P@JOOPKKLO@GetGuildAreaID@
	DD	FLAT:?miniMapGetGuildAreaID@@YAPAU_object@@PAU1@0@Z
	DD	01H
	ORG $+4
	DD	00H
	DD	00H
	ORG $+8
_DATA	ENDS
;	COMDAT ??_C@_0M@IAHPEAKG@TYPE_EMPIRE@
CONST	SEGMENT
??_C@_0M@IAHPEAKG@TYPE_EMPIRE@ DB 'TYPE_EMPIRE', 00H	; `string'
CONST	ENDS
;	COMDAT ??_C@_0O@JMCMGHKJ@TYPE_WAYPOINT@
CONST	SEGMENT
??_C@_0O@JMCMGHKJ@TYPE_WAYPOINT@ DB 'TYPE_WAYPOINT', 00H ; `string'
CONST	ENDS
;	COMDAT ??_C@_0L@NHHJIHMA@TYPE_PARTY@
CONST	SEGMENT
??_C@_0L@NHHJIHMA@TYPE_PARTY@ DB 'TYPE_PARTY', 00H	; `string'
CONST	ENDS
;	COMDAT ??_C@_0N@MFCFPPMD@TYPE_MONSTER@
CONST	SEGMENT
??_C@_0N@MFCFPPMD@TYPE_MONSTER@ DB 'TYPE_MONSTER', 00H	; `string'
CONST	ENDS
;	COMDAT ??_C@_09LAKONOKF@TYPE_WARP@
CONST	SEGMENT
??_C@_09LAKONOKF@TYPE_WARP@ DB 'TYPE_WARP', 00H		; `string'
CONST	ENDS
;	COMDAT ??_C@_0BA@DAENBNGA@TYPE_OPCPVPSELF@
CONST	SEGMENT
??_C@_0BA@DAENBNGA@TYPE_OPCPVPSELF@ DB 'TYPE_OPCPVPSELF', 00H ; `string'
CONST	ENDS
;	COMDAT ??_C@_08HGABCEMM@TYPE_NPC@
CONST	SEGMENT
??_C@_08HGABCEMM@TYPE_NPC@ DB 'TYPE_NPC', 00H		; `string'
CONST	ENDS
;	COMDAT ??_C@_08MOLNEDKJ@TYPE_OPC@
CONST	SEGMENT
??_C@_08MOLNEDKJ@TYPE_OPC@ DB 'TYPE_OPC', 00H		; `string'
CONST	ENDS
;	COMDAT ??_C@_0M@KBKKLFCC@TYPE_OPCPVP@
CONST	SEGMENT
??_C@_0M@KBKKLFCC@TYPE_OPCPVP@ DB 'TYPE_OPCPVP', 00H	; `string'
CONST	ENDS
;	COMDAT ??_C@_0P@JOOPKKLO@GetGuildAreaID@
CONST	SEGMENT
??_C@_0P@JOOPKKLO@GetGuildAreaID@ DB 'GetGuildAreaID', 00H ; `string'
CONST	ENDS
;	COMDAT ??_C@_07GGJFLPNN@miniMap@
CONST	SEGMENT
??_C@_07GGJFLPNN@miniMap@ DB 'miniMap', 00H		; `string'
CONST	ENDS
;	COMDAT ??_C@_0BE@DJCJPBHI@RegisterAtlasWindow@
CONST	SEGMENT
??_C@_0BE@DJCJPBHI@RegisterAtlasWindow@ DB 'RegisterAtlasWindow', 00H ; `string'
CONST	ENDS
;	COMDAT ??_C@_0BG@BMPPHBMB@UnregisterAtlasWindow@
CONST	SEGMENT
??_C@_0BG@BMPPHBMB@UnregisterAtlasWindow@ DB 'UnregisterAtlasWindow', 00H ; `string'
CONST	ENDS
;	COMDAT ??_C@_0M@DMLHJAOH@AddWayPoint@
CONST	SEGMENT
??_C@_0M@DMLHJAOH@AddWayPoint@ DB 'AddWayPoint', 00H	; `string'
CONST	ENDS
;	COMDAT ??_C@_0P@BPFHEFHK@RemoveWayPoint@
CONST	SEGMENT
??_C@_0P@BPFHEFHK@RemoveWayPoint@ DB 'RemoveWayPoint', 00H ; `string'
CONST	ENDS
;	COMDAT ??_C@_0N@BFFOBNJI@GetAtlasInfo@
CONST	SEGMENT
??_C@_0N@BFFOBNJI@GetAtlasInfo@ DB 'GetAtlasInfo', 00H	; `string'
CONST	ENDS
;	COMDAT ??_C@_0N@ENAKBIJM@GetAtlasSize@
CONST	SEGMENT
??_C@_0N@ENAKBIJM@GetAtlasSize@ DB 'GetAtlasSize', 00H	; `string'
CONST	ENDS
;	COMDAT ??_C@_0M@DHCMEFOB@isShowAtlas@
CONST	SEGMENT
??_C@_0M@DHCMEFOB@isShowAtlas@ DB 'isShowAtlas', 00H	; `string'
CONST	ENDS
;	COMDAT ??_C@_07IFCOGPLJ@IsAtlas@
CONST	SEGMENT
??_C@_07IFCOGPLJ@IsAtlas@ DB 'IsAtlas', 00H		; `string'
CONST	ENDS
;	COMDAT ??_C@_09HNEIIJJD@ShowAtlas@
CONST	SEGMENT
??_C@_09HNEIIJJD@ShowAtlas@ DB 'ShowAtlas', 00H		; `string'
CONST	ENDS
;	COMDAT ??_C@_09BIFGHGHO@HideAtlas@
CONST	SEGMENT
??_C@_09BIFGHGHO@HideAtlas@ DB 'HideAtlas', 00H		; `string'
CONST	ENDS
;	COMDAT ??_C@_0M@EIPBNHOF@UpdateAtlas@
CONST	SEGMENT
??_C@_0M@EIPBNHOF@UpdateAtlas@ DB 'UpdateAtlas', 00H	; `string'
CONST	ENDS
;	COMDAT ??_C@_0M@KMBFBAJA@RenderAtlas@
CONST	SEGMENT
??_C@_0M@KMBFBAJA@RenderAtlas@ DB 'RenderAtlas', 00H	; `string'
CONST	ENDS
;	COMDAT ??_C@_06FDNPFPAD@isShow@
CONST	SEGMENT
??_C@_06FDNPFPAD@isShow@ DB 'isShow', 00H		; `string'
CONST	ENDS
;	COMDAT ??_C@_09IMDAKKFO@LoadAtlas@
CONST	SEGMENT
??_C@_09IMDAKKFO@LoadAtlas@ DB 'LoadAtlas', 00H		; `string'
CONST	ENDS
;	COMDAT ??_C@_09EHCACONO@ScaleDown@
CONST	SEGMENT
??_C@_09EHCACONO@ScaleDown@ DB 'ScaleDown', 00H		; `string'
CONST	ENDS
;	COMDAT ??_C@_0P@JDEKHKMA@SetMiniMapSize@
CONST	SEGMENT
??_C@_0P@JDEKHKMA@SetMiniMapSize@ DB 'SetMiniMapSize', 00H ; `string'
CONST	ENDS
;	COMDAT ??_C@_08FMFAIGAB@SetScale@
CONST	SEGMENT
??_C@_08FMFAIGAB@SetScale@ DB 'SetScale', 00H		; `string'
CONST	ENDS
;	COMDAT ??_C@_07CNPAFGOE@ScaleUp@
CONST	SEGMENT
??_C@_07CNPAFGOE@ScaleUp@ DB 'ScaleUp', 00H		; `string'
CONST	ENDS
;	COMDAT ??_C@_06NGPFBJMH@isiili@
CONST	SEGMENT
??_C@_06NGPFBJMH@isiili@ DB 'isiili', 00H		; `string'
CONST	ENDS
;	COMDAT ??_C@_03LMKNDPCK@bii@
CONST	SEGMENT
??_C@_03LMKNDPCK@bii@ DB 'bii', 00H			; `string'
CONST	ENDS
;	COMDAT ??_C@_05BHNEPGFM@isiil@
CONST	SEGMENT
??_C@_05BHNEPGFM@isiil@ DB 'isiil', 00H			; `string'
CONST	ENDS
;	COMDAT ??_C@_0CO@JOBACLFH@CPythonMiniMap?3?3Instance?$CI?$CJ?4Load@
CONST	SEGMENT
??_C@_0CO@JOBACLFH@CPythonMiniMap?3?3Instance?$CI?$CJ?4Load@ DB 'CPythonM'
	DB	'iniMap::Instance().LoadAtlas() Failed', 00H	; `string'
PUBLIC	?initMiniMap@@YAXXZ				; initMiniMap
PUBLIC	?miniMapGetGuildAreaID@@YAPAU_object@@PAU1@0@Z	; miniMapGetGuildAreaID
PUBLIC	?miniMapUnregisterAtlasWindow@@YAPAU_object@@PAU1@0@Z ; miniMapUnregisterAtlasWindow
PUBLIC	?miniMapRegisterAtlasWindow@@YAPAU_object@@PAU1@0@Z ; miniMapRegisterAtlasWindow
PUBLIC	?miniMapRemoveWayPoint@@YAPAU_object@@PAU1@0@Z	; miniMapRemoveWayPoint
PUBLIC	?miniMapAddWayPoint@@YAPAU_object@@PAU1@0@Z	; miniMapAddWayPoint
PUBLIC	?miniMapGetAtlasSize@@YAPAU_object@@PAU1@0@Z	; miniMapGetAtlasSize
PUBLIC	?miniMapGetAtlasInfo@@YAPAU_object@@PAU1@0@Z	; miniMapGetAtlasInfo
PUBLIC	?miniMapIsAtlas@@YAPAU_object@@PAU1@0@Z		; miniMapIsAtlas
PUBLIC	?miniMapisShowAtlas@@YAPAU_object@@PAU1@0@Z	; miniMapisShowAtlas
PUBLIC	?miniMapHideAtlas@@YAPAU_object@@PAU1@0@Z	; miniMapHideAtlas
PUBLIC	?miniMapShowAtlas@@YAPAU_object@@PAU1@0@Z	; miniMapShowAtlas
PUBLIC	?miniMapRenderAtlas@@YAPAU_object@@PAU1@0@Z	; miniMapRenderAtlas
PUBLIC	?miniMapUpdateAtlas@@YAPAU_object@@PAU1@0@Z	; miniMapUpdateAtlas
PUBLIC	?miniMapLoadAtlas@@YAPAU_object@@PAU1@0@Z	; miniMapLoadAtlas
PUBLIC	?miniMapGetInfo@@YAPAU_object@@PAU1@0@Z		; miniMapGetInfo
PUBLIC	?miniMapScaleDown@@YAPAU_object@@PAU1@0@Z	; miniMapScaleDown
PUBLIC	?miniMapScaleUp@@YAPAU_object@@PAU1@0@Z		; miniMapScaleUp
PUBLIC	?miniMapisShow@@YAPAU_object@@PAU1@0@Z		; miniMapisShow
PUBLIC	?miniMapHide@@YAPAU_object@@PAU1@0@Z		; miniMapHide
PUBLIC	?miniMapShow@@YAPAU_object@@PAU1@0@Z		; miniMapShow
PUBLIC	?miniMapRender@@YAPAU_object@@PAU1@0@Z		; miniMapRender
PUBLIC	?miniMapUpdate@@YAPAU_object@@PAU1@0@Z		; miniMapUpdate
PUBLIC	?miniMapCreate@@YAPAU_object@@PAU1@0@Z		; miniMapCreate
PUBLIC	?miniMapDestroy@@YAPAU_object@@PAU1@0@Z		; miniMapDestroy
PUBLIC	?miniMapSetMiniMapSize@@YAPAU_object@@PAU1@0@Z	; miniMapSetMiniMapSize
PUBLIC	?miniMapSetCenterPosition@@YAPAU_object@@PAU1@0@Z ; miniMapSetCenterPosition
PUBLIC	?miniMapSetScale@@YAPAU_object@@PAU1@0@Z	; miniMapSetScale
;	COMDAT xdata$x
xdata$x	SEGMENT
__ehfuncinfo$?miniMapGetInfo@@YAPAU_object@@PAU1@0@Z DD 019930522H
	DD	01H
	DD	FLAT:__unwindtable$?miniMapGetInfo@@YAPAU_object@@PAU1@0@Z
	DD	2 DUP(00H)
	DD	2 DUP(00H)
	DD	00H
	DD	01H
__unwindtable$?miniMapGetInfo@@YAPAU_object@@PAU1@0@Z DD 0ffffffffH
	DD	FLAT:__unwindfunclet$?miniMapGetInfo@@YAPAU_object@@PAU1@0@Z$0
xdata$x	ENDS
;	COMDAT xdata$x
xdata$x	SEGMENT
__ehfuncinfo$?miniMapGetAtlasInfo@@YAPAU_object@@PAU1@0@Z DD 019930522H
	DD	01H
	DD	FLAT:__unwindtable$?miniMapGetAtlasInfo@@YAPAU_object@@PAU1@0@Z
	DD	2 DUP(00H)
	DD	2 DUP(00H)
	DD	00H
	DD	01H
__unwindtable$?miniMapGetAtlasInfo@@YAPAU_object@@PAU1@0@Z DD 0ffffffffH
	DD	FLAT:__unwindfunclet$?miniMapGetAtlasInfo@@YAPAU_object@@PAU1@0@Z$0
; Function compile flags: /Ogtp
; File D:\_m2work\txoko-m2-work\txoko-client-src\source\UserInterface\PythonMiniMapModule.cpp
;	COMDAT ?miniMapSetScale@@YAPAU_object@@PAU1@0@Z
_TEXT	SEGMENT
_fScale$ = -4						; size = 4
_poSelf$ = 8						; size = 4
_poArgs$ = 12						; size = 4
?miniMapSetScale@@YAPAU_object@@PAU1@0@Z PROC		; miniMapSetScale, COMDAT

; 5    : {

  00000	55		 push	 ebp
  00001	8b ec		 mov	 ebp, esp
  00003	51		 push	 ecx

; 6    : 	float fScale;
; 7    : 	if (!PyTuple_GetFloat(poArgs, 0, &fScale))

  00004	8d 45 fc	 lea	 eax, DWORD PTR _fScale$[ebp]
  00007	50		 push	 eax
  00008	6a 00		 push	 0
  0000a	ff 75 0c	 push	 DWORD PTR _poArgs$[ebp]
  0000d	e8 00 00 00 00	 call	 ?PyTuple_GetFloat@@YA_NPAU_object@@HPAM@Z ; PyTuple_GetFloat
  00012	83 c4 0c	 add	 esp, 12			; 0000000cH
  00015	84 c0		 test	 al, al
  00017	75 0e		 jne	 SHORT $LN2@miniMapSet

; 8    : 		return Py_BuildException();

  00019	6a 00		 push	 0
  0001b	e8 00 00 00 00	 call	 ?Py_BuildException@@YAPAU_object@@PBDZZ ; Py_BuildException
  00020	83 c4 04	 add	 esp, 4

; 12   : }

  00023	8b e5		 mov	 esp, ebp
  00025	5d		 pop	 ebp
  00026	c3		 ret	 0
$LN2@miniMapSet:

; 9    : 
; 10   : 	CPythonMiniMap::Instance().SetScale(fScale);

  00027	f3 0f 10 4d fc	 movss	 xmm1, DWORD PTR _fScale$[ebp]
  0002c	8b 0d 00 00 00
	00		 mov	 ecx, DWORD PTR ?ms_singleton@?$CSingleton@VCPythonMiniMap@@@@0PAVCPythonMiniMap@@A ; CSingleton<CPythonMiniMap>::ms_singleton
  00032	e8 00 00 00 00	 call	 ?SetScale@CPythonMiniMap@@QAEXM@Z ; CPythonMiniMap::SetScale

; 11   : 	return Py_BuildNone();

  00037	e8 00 00 00 00	 call	 ?Py_BuildNone@@YAPAU_object@@XZ ; Py_BuildNone

; 12   : }

  0003c	8b e5		 mov	 esp, ebp
  0003e	5d		 pop	 ebp
  0003f	c3		 ret	 0
?miniMapSetScale@@YAPAU_object@@PAU1@0@Z ENDP		; miniMapSetScale
_TEXT	ENDS
; Function compile flags: /Ogtp
; File D:\_m2work\txoko-m2-work\txoko-client-src\source\UserInterface\PythonMiniMapModule.cpp
;	COMDAT ?miniMapSetCenterPosition@@YAPAU_object@@PAU1@0@Z
_TEXT	SEGMENT
_fCenterX$ = -8						; size = 4
_fCenterY$ = -4						; size = 4
_poSelf$ = 8						; size = 4
_poArgs$ = 12						; size = 4
?miniMapSetCenterPosition@@YAPAU_object@@PAU1@0@Z PROC	; miniMapSetCenterPosition, COMDAT

; 15   : {

  00000	55		 push	 ebp
  00001	8b ec		 mov	 ebp, esp
  00003	83 ec 08	 sub	 esp, 8

; 16   : 	float fCenterX;
; 17   : 	if (!PyTuple_GetFloat(poArgs, 0, &fCenterX))

  00006	8d 45 f8	 lea	 eax, DWORD PTR _fCenterX$[ebp]
  00009	50		 push	 eax
  0000a	6a 00		 push	 0
  0000c	ff 75 0c	 push	 DWORD PTR _poArgs$[ebp]
  0000f	e8 00 00 00 00	 call	 ?PyTuple_GetFloat@@YA_NPAU_object@@HPAM@Z ; PyTuple_GetFloat
  00014	83 c4 0c	 add	 esp, 12			; 0000000cH
  00017	84 c0		 test	 al, al
  00019	75 0e		 jne	 SHORT $LN2@miniMapSet
$LN5@miniMapSet:

; 26   : }

  0001b	6a 00		 push	 0
  0001d	e8 00 00 00 00	 call	 ?Py_BuildException@@YAPAU_object@@PBDZZ ; Py_BuildException
  00022	83 c4 04	 add	 esp, 4
  00025	8b e5		 mov	 esp, ebp
  00027	5d		 pop	 ebp
  00028	c3		 ret	 0
$LN2@miniMapSet:

; 18   : 		return Py_BuildException();
; 19   : 	
; 20   : 	float fCenterY;
; 21   : 	if (!PyTuple_GetFloat(poArgs, 1, &fCenterY))

  00029	8d 45 fc	 lea	 eax, DWORD PTR _fCenterY$[ebp]
  0002c	50		 push	 eax
  0002d	6a 01		 push	 1
  0002f	ff 75 0c	 push	 DWORD PTR _poArgs$[ebp]
  00032	e8 00 00 00 00	 call	 ?PyTuple_GetFloat@@YA_NPAU_object@@HPAM@Z ; PyTuple_GetFloat
  00037	83 c4 0c	 add	 esp, 12			; 0000000cH
  0003a	84 c0		 test	 al, al
  0003c	74 dd		 je	 SHORT $LN5@miniMapSet

; 22   : 		return Py_BuildException();
; 23   : 	
; 24   : 	CPythonMiniMap::Instance().SetCenterPosition(fCenterX, fCenterY);

  0003e	f3 0f 10 55 fc	 movss	 xmm2, DWORD PTR _fCenterY$[ebp]
  00043	f3 0f 10 4d f8	 movss	 xmm1, DWORD PTR _fCenterX$[ebp]
  00048	8b 0d 00 00 00
	00		 mov	 ecx, DWORD PTR ?ms_singleton@?$CSingleton@VCPythonMiniMap@@@@0PAVCPythonMiniMap@@A ; CSingleton<CPythonMiniMap>::ms_singleton
  0004e	e8 00 00 00 00	 call	 ?SetCenterPosition@CPythonMiniMap@@QAEXMM@Z ; CPythonMiniMap::SetCenterPosition

; 25   : 	return Py_BuildNone();

  00053	e8 00 00 00 00	 call	 ?Py_BuildNone@@YAPAU_object@@XZ ; Py_BuildNone

; 26   : }

  00058	8b e5		 mov	 esp, ebp
  0005a	5d		 pop	 ebp
  0005b	c3		 ret	 0
?miniMapSetCenterPosition@@YAPAU_object@@PAU1@0@Z ENDP	; miniMapSetCenterPosition
_TEXT	ENDS
; Function compile flags: /Ogtp
; File D:\_m2work\txoko-m2-work\txoko-client-src\source\UserInterface\PythonMiniMapModule.cpp
;	COMDAT ?miniMapSetMiniMapSize@@YAPAU_object@@PAU1@0@Z
_TEXT	SEGMENT
_fWidth$ = -8						; size = 4
_fHeight$ = -4						; size = 4
_poSelf$ = 8						; size = 4
_poArgs$ = 12						; size = 4
?miniMapSetMiniMapSize@@YAPAU_object@@PAU1@0@Z PROC	; miniMapSetMiniMapSize, COMDAT

; 30   : {

  00000	55		 push	 ebp
  00001	8b ec		 mov	 ebp, esp
  00003	83 ec 08	 sub	 esp, 8

; 31   : 	float fWidth;
; 32   : 	if (!PyTuple_GetFloat(poArgs, 0, &fWidth))

  00006	8d 45 f8	 lea	 eax, DWORD PTR _fWidth$[ebp]
  00009	50		 push	 eax
  0000a	6a 00		 push	 0
  0000c	ff 75 0c	 push	 DWORD PTR _poArgs$[ebp]
  0000f	e8 00 00 00 00	 call	 ?PyTuple_GetFloat@@YA_NPAU_object@@HPAM@Z ; PyTuple_GetFloat
  00014	83 c4 0c	 add	 esp, 12			; 0000000cH
  00017	84 c0		 test	 al, al
  00019	75 0e		 jne	 SHORT $LN2@miniMapSet
$LN5@miniMapSet:

; 41   : }

  0001b	6a 00		 push	 0
  0001d	e8 00 00 00 00	 call	 ?Py_BuildException@@YAPAU_object@@PBDZZ ; Py_BuildException
  00022	83 c4 04	 add	 esp, 4
  00025	8b e5		 mov	 esp, ebp
  00027	5d		 pop	 ebp
  00028	c3		 ret	 0
$LN2@miniMapSet:

; 33   : 		return Py_BuildException();
; 34   : 
; 35   : 	float fHeight;
; 36   : 	if (!PyTuple_GetFloat(poArgs, 1, &fHeight))

  00029	8d 45 fc	 lea	 eax, DWORD PTR _fHeight$[ebp]
  0002c	50		 push	 eax
  0002d	6a 01		 push	 1
  0002f	ff 75 0c	 push	 DWORD PTR _poArgs$[ebp]
  00032	e8 00 00 00 00	 call	 ?PyTuple_GetFloat@@YA_NPAU_object@@HPAM@Z ; PyTuple_GetFloat
  00037	83 c4 0c	 add	 esp, 12			; 0000000cH
  0003a	84 c0		 test	 al, al
  0003c	74 dd		 je	 SHORT $LN5@miniMapSet

; 37   : 		return Py_BuildException();
; 38   : 
; 39   : 	CPythonMiniMap::Instance().SetMiniMapSize(fWidth, fHeight);

  0003e	f3 0f 10 55 fc	 movss	 xmm2, DWORD PTR _fHeight$[ebp]
  00043	f3 0f 10 4d f8	 movss	 xmm1, DWORD PTR _fWidth$[ebp]
  00048	8b 0d 00 00 00
	00		 mov	 ecx, DWORD PTR ?ms_singleton@?$CSingleton@VCPythonMiniMap@@@@0PAVCPythonMiniMap@@A ; CSingleton<CPythonMiniMap>::ms_singleton
  0004e	e8 00 00 00 00	 call	 ?SetMiniMapSize@CPythonMiniMap@@QAEXMM@Z ; CPythonMiniMap::SetMiniMapSize

; 40   : 	return Py_BuildNone();

  00053	e8 00 00 00 00	 call	 ?Py_BuildNone@@YAPAU_object@@XZ ; Py_BuildNone

; 41   : }

  00058	8b e5		 mov	 esp, ebp
  0005a	5d		 pop	 ebp
  0005b	c3		 ret	 0
?miniMapSetMiniMapSize@@YAPAU_object@@PAU1@0@Z ENDP	; miniMapSetMiniMapSize
_TEXT	ENDS
; Function compile flags: /Ogtp
; File D:\_m2work\txoko-m2-work\txoko-client-src\source\UserInterface\PythonMiniMapModule.cpp
;	COMDAT ?miniMapDestroy@@YAPAU_object@@PAU1@0@Z
_TEXT	SEGMENT
_poSelf$ = 8						; size = 4
_poArgs$ = 12						; size = 4
?miniMapDestroy@@YAPAU_object@@PAU1@0@Z PROC		; miniMapDestroy, COMDAT

; 45   : 	CPythonMiniMap::Instance().Destroy();

  00000	8b 0d 00 00 00
	00		 mov	 ecx, DWORD PTR ?ms_singleton@?$CSingleton@VCPythonMiniMap@@@@0PAVCPythonMiniMap@@A ; CSingleton<CPythonMiniMap>::ms_singleton
  00006	e8 00 00 00 00	 call	 ?Destroy@CPythonMiniMap@@QAEXXZ ; CPythonMiniMap::Destroy

; 46   : 	return Py_BuildNone();

  0000b	e9 00 00 00 00	 jmp	 ?Py_BuildNone@@YAPAU_object@@XZ ; Py_BuildNone
?miniMapDestroy@@YAPAU_object@@PAU1@0@Z ENDP		; miniMapDestroy
_TEXT	ENDS
; Function compile flags: /Ogtp
; File D:\_m2work\txoko-m2-work\txoko-client-src\source\UserInterface\PythonMiniMapModule.cpp
;	COMDAT ?miniMapCreate@@YAPAU_object@@PAU1@0@Z
_TEXT	SEGMENT
_poSelf$ = 8						; size = 4
_poArgs$ = 12						; size = 4
?miniMapCreate@@YAPAU_object@@PAU1@0@Z PROC		; miniMapCreate, COMDAT

; 51   : 	CPythonMiniMap::Instance().Create();

  00000	8b 0d 00 00 00
	00		 mov	 ecx, DWORD PTR ?ms_singleton@?$CSingleton@VCPythonMiniMap@@@@0PAVCPythonMiniMap@@A ; CSingleton<CPythonMiniMap>::ms_singleton
  00006	e8 00 00 00 00	 call	 ?Create@CPythonMiniMap@@QAE_NXZ ; CPythonMiniMap::Create

; 52   : 	return Py_BuildNone();

  0000b	e9 00 00 00 00	 jmp	 ?Py_BuildNone@@YAPAU_object@@XZ ; Py_BuildNone
?miniMapCreate@@YAPAU_object@@PAU1@0@Z ENDP		; miniMapCreate
_TEXT	ENDS
; Function compile flags: /Ogtp
; File D:\_m2work\txoko-m2-work\txoko-client-src\source\UserInterface\PythonMiniMapModule.cpp
;	COMDAT ?miniMapUpdate@@YAPAU_object@@PAU1@0@Z
_TEXT	SEGMENT
_fCenterX$ = -8						; size = 4
_fCenterY$ = -4						; size = 4
_poSelf$ = 8						; size = 4
_poArgs$ = 12						; size = 4
?miniMapUpdate@@YAPAU_object@@PAU1@0@Z PROC		; miniMapUpdate, COMDAT

; 56   : {

  00000	55		 push	 ebp
  00001	8b ec		 mov	 ebp, esp
  00003	83 ec 08	 sub	 esp, 8

; 57   : 	float fCenterX;
; 58   : 	if (!PyTuple_GetFloat(poArgs, 0, &fCenterX))

  00006	8d 45 f8	 lea	 eax, DWORD PTR _fCenterX$[ebp]
  00009	50		 push	 eax
  0000a	6a 00		 push	 0
  0000c	ff 75 0c	 push	 DWORD PTR _poArgs$[ebp]
  0000f	e8 00 00 00 00	 call	 ?PyTuple_GetFloat@@YA_NPAU_object@@HPAM@Z ; PyTuple_GetFloat
  00014	83 c4 0c	 add	 esp, 12			; 0000000cH
  00017	84 c0		 test	 al, al
  00019	75 0e		 jne	 SHORT $LN2@miniMapUpd
$LN5@miniMapUpd:

; 67   : }

  0001b	6a 00		 push	 0
  0001d	e8 00 00 00 00	 call	 ?Py_BuildException@@YAPAU_object@@PBDZZ ; Py_BuildException
  00022	83 c4 04	 add	 esp, 4
  00025	8b e5		 mov	 esp, ebp
  00027	5d		 pop	 ebp
  00028	c3		 ret	 0
$LN2@miniMapUpd:

; 59   : 		return Py_BuildException();
; 60   : 
; 61   : 	float fCenterY;
; 62   : 	if (!PyTuple_GetFloat(poArgs, 1, &fCenterY))

  00029	8d 45 fc	 lea	 eax, DWORD PTR _fCenterY$[ebp]
  0002c	50		 push	 eax
  0002d	6a 01		 push	 1
  0002f	ff 75 0c	 push	 DWORD PTR _poArgs$[ebp]
  00032	e8 00 00 00 00	 call	 ?PyTuple_GetFloat@@YA_NPAU_object@@HPAM@Z ; PyTuple_GetFloat
  00037	83 c4 0c	 add	 esp, 12			; 0000000cH
  0003a	84 c0		 test	 al, al
  0003c	74 dd		 je	 SHORT $LN5@miniMapUpd

; 63   : 		return Py_BuildException();
; 64   : 
; 65   : 	CPythonMiniMap::Instance().Update(fCenterX, fCenterY);

  0003e	f3 0f 10 55 fc	 movss	 xmm2, DWORD PTR _fCenterY$[ebp]
  00043	f3 0f 10 4d f8	 movss	 xmm1, DWORD PTR _fCenterX$[ebp]
  00048	8b 0d 00 00 00
	00		 mov	 ecx, DWORD PTR ?ms_singleton@?$CSingleton@VCPythonMiniMap@@@@0PAVCPythonMiniMap@@A ; CSingleton<CPythonMiniMap>::ms_singleton
  0004e	e8 00 00 00 00	 call	 ?Update@CPythonMiniMap@@QAEXMM@Z ; CPythonMiniMap::Update

; 66   : 	return Py_BuildNone();

  00053	e8 00 00 00 00	 call	 ?Py_BuildNone@@YAPAU_object@@XZ ; Py_BuildNone

; 67   : }

  00058	8b e5		 mov	 esp, ebp
  0005a	5d		 pop	 ebp
  0005b	c3		 ret	 0
?miniMapUpdate@@YAPAU_object@@PAU1@0@Z ENDP		; miniMapUpdate
_TEXT	ENDS
; Function compile flags: /Ogtp
; File D:\_m2work\txoko-m2-work\txoko-client-src\source\UserInterface\PythonMiniMapModule.cpp
;	COMDAT ?miniMapRender@@YAPAU_object@@PAU1@0@Z
_TEXT	SEGMENT
_fScrrenX$ = -8						; size = 4
_fScrrenY$ = -4						; size = 4
_poSelf$ = 8						; size = 4
_poArgs$ = 12						; size = 4
?miniMapRender@@YAPAU_object@@PAU1@0@Z PROC		; miniMapRender, COMDAT

; 70   : {

  00000	55		 push	 ebp
  00001	8b ec		 mov	 ebp, esp
  00003	83 ec 08	 sub	 esp, 8

; 71   : 	float fScrrenX;
; 72   : 	if (!PyTuple_GetFloat(poArgs, 0, &fScrrenX))

  00006	8d 45 f8	 lea	 eax, DWORD PTR _fScrrenX$[ebp]
  00009	50		 push	 eax
  0000a	6a 00		 push	 0
  0000c	ff 75 0c	 push	 DWORD PTR _poArgs$[ebp]
  0000f	e8 00 00 00 00	 call	 ?PyTuple_GetFloat@@YA_NPAU_object@@HPAM@Z ; PyTuple_GetFloat
  00014	83 c4 0c	 add	 esp, 12			; 0000000cH
  00017	84 c0		 test	 al, al
  00019	75 0e		 jne	 SHORT $LN2@miniMapRen
$LN5@miniMapRen:

; 81   : }

  0001b	6a 00		 push	 0
  0001d	e8 00 00 00 00	 call	 ?Py_BuildException@@YAPAU_object@@PBDZZ ; Py_BuildException
  00022	83 c4 04	 add	 esp, 4
  00025	8b e5		 mov	 esp, ebp
  00027	5d		 pop	 ebp
  00028	c3		 ret	 0
$LN2@miniMapRen:

; 73   : 		return Py_BuildException();
; 74   : 
; 75   : 	float fScrrenY;
; 76   : 	if (!PyTuple_GetFloat(poArgs, 1, &fScrrenY))

  00029	8d 45 fc	 lea	 eax, DWORD PTR _fScrrenY$[ebp]
  0002c	50		 push	 eax
  0002d	6a 01		 push	 1
  0002f	ff 75 0c	 push	 DWORD PTR _poArgs$[ebp]
  00032	e8 00 00 00 00	 call	 ?PyTuple_GetFloat@@YA_NPAU_object@@HPAM@Z ; PyTuple_GetFloat
  00037	83 c4 0c	 add	 esp, 12			; 0000000cH
  0003a	84 c0		 test	 al, al
  0003c	74 dd		 je	 SHORT $LN5@miniMapRen

; 77   : 		return Py_BuildException();
; 78   : 
; 79   : 	CPythonMiniMap::Instance().Render(fScrrenX, fScrrenY);

  0003e	f3 0f 10 55 fc	 movss	 xmm2, DWORD PTR _fScrrenY$[ebp]
  00043	f3 0f 10 4d f8	 movss	 xmm1, DWORD PTR _fScrrenX$[ebp]
  00048	8b 0d 00 00 00
	00		 mov	 ecx, DWORD PTR ?ms_singleton@?$CSingleton@VCPythonMiniMap@@@@0PAVCPythonMiniMap@@A ; CSingleton<CPythonMiniMap>::ms_singleton
  0004e	e8 00 00 00 00	 call	 ?Render@CPythonMiniMap@@QAEXMM@Z ; CPythonMiniMap::Render

; 80   : 	return Py_BuildNone();

  00053	e8 00 00 00 00	 call	 ?Py_BuildNone@@YAPAU_object@@XZ ; Py_BuildNone

; 81   : }

  00058	8b e5		 mov	 esp, ebp
  0005a	5d		 pop	 ebp
  0005b	c3		 ret	 0
?miniMapRender@@YAPAU_object@@PAU1@0@Z ENDP		; miniMapRender
_TEXT	ENDS
; Function compile flags: /Ogtp
; File D:\_m2work\txoko-m2-work\txoko-client-src\source\UserInterface\PythonMiniMapModule.cpp
;	COMDAT ?miniMapShow@@YAPAU_object@@PAU1@0@Z
_TEXT	SEGMENT
_poSelf$ = 8						; size = 4
_poArgs$ = 12						; size = 4
?miniMapShow@@YAPAU_object@@PAU1@0@Z PROC		; miniMapShow, COMDAT

; 85   : 	CPythonMiniMap::Instance().Show();

  00000	8b 0d 00 00 00
	00		 mov	 ecx, DWORD PTR ?ms_singleton@?$CSingleton@VCPythonMiniMap@@@@0PAVCPythonMiniMap@@A ; CSingleton<CPythonMiniMap>::ms_singleton
  00006	e8 00 00 00 00	 call	 ?Show@CPythonMiniMap@@QAEXXZ ; CPythonMiniMap::Show

; 86   : 	return Py_BuildNone();

  0000b	e9 00 00 00 00	 jmp	 ?Py_BuildNone@@YAPAU_object@@XZ ; Py_BuildNone
?miniMapShow@@YAPAU_object@@PAU1@0@Z ENDP		; miniMapShow
_TEXT	ENDS
; Function compile flags: /Ogtp
; File D:\_m2work\txoko-m2-work\txoko-client-src\source\UserInterface\PythonMiniMapModule.cpp
;	COMDAT ?miniMapHide@@YAPAU_object@@PAU1@0@Z
_TEXT	SEGMENT
_poSelf$ = 8						; size = 4
_poArgs$ = 12						; size = 4
?miniMapHide@@YAPAU_object@@PAU1@0@Z PROC		; miniMapHide, COMDAT

; 91   : 	CPythonMiniMap::Instance().Hide();

  00000	8b 0d 00 00 00
	00		 mov	 ecx, DWORD PTR ?ms_singleton@?$CSingleton@VCPythonMiniMap@@@@0PAVCPythonMiniMap@@A ; CSingleton<CPythonMiniMap>::ms_singleton
  00006	e8 00 00 00 00	 call	 ?Hide@CPythonMiniMap@@QAEXXZ ; CPythonMiniMap::Hide

; 92   : 	return Py_BuildNone();

  0000b	e9 00 00 00 00	 jmp	 ?Py_BuildNone@@YAPAU_object@@XZ ; Py_BuildNone
?miniMapHide@@YAPAU_object@@PAU1@0@Z ENDP		; miniMapHide
_TEXT	ENDS
; Function compile flags: /Ogtp
; File D:\_m2work\txoko-m2-work\txoko-client-src\source\UserInterface\PythonMiniMapModule.cpp
;	COMDAT ?miniMapisShow@@YAPAU_object@@PAU1@0@Z
_TEXT	SEGMENT
_poSelf$ = 8						; size = 4
_poArgs$ = 12						; size = 4
?miniMapisShow@@YAPAU_object@@PAU1@0@Z PROC		; miniMapisShow, COMDAT

; 97   : 	bool bShow = CPythonMiniMap::Instance().CanShow();

  00000	8b 0d 00 00 00
	00		 mov	 ecx, DWORD PTR ?ms_singleton@?$CSingleton@VCPythonMiniMap@@@@0PAVCPythonMiniMap@@A ; CSingleton<CPythonMiniMap>::ms_singleton
  00006	e8 00 00 00 00	 call	 ?CanShow@CPythonMiniMap@@QAE_NXZ ; CPythonMiniMap::CanShow

; 98   : 	return Py_BuildValue("b", bShow);

  0000b	0f b6 c0	 movzx	 eax, al
  0000e	50		 push	 eax
  0000f	68 00 00 00 00	 push	 OFFSET ??_C@_01OJONOECF@b@
  00014	ff 15 00 00 00
	00		 call	 DWORD PTR __imp__Py_BuildValue
  0001a	83 c4 08	 add	 esp, 8

; 99   : }

  0001d	c3		 ret	 0
?miniMapisShow@@YAPAU_object@@PAU1@0@Z ENDP		; miniMapisShow
_TEXT	ENDS
; Function compile flags: /Ogtp
; File D:\_m2work\txoko-m2-work\txoko-client-src\source\UserInterface\PythonMiniMapModule.cpp
;	COMDAT ?miniMapScaleUp@@YAPAU_object@@PAU1@0@Z
_TEXT	SEGMENT
_poSelf$ = 8						; size = 4
_poArgs$ = 12						; size = 4
?miniMapScaleUp@@YAPAU_object@@PAU1@0@Z PROC		; miniMapScaleUp, COMDAT

; 103  : 	CPythonMiniMap::Instance().ScaleUp();

  00000	8b 0d 00 00 00
	00		 mov	 ecx, DWORD PTR ?ms_singleton@?$CSingleton@VCPythonMiniMap@@@@0PAVCPythonMiniMap@@A ; CSingleton<CPythonMiniMap>::ms_singleton
  00006	e8 00 00 00 00	 call	 ?ScaleUp@CPythonMiniMap@@QAEXXZ ; CPythonMiniMap::ScaleUp

; 104  : 	return Py_BuildNone();

  0000b	e9 00 00 00 00	 jmp	 ?Py_BuildNone@@YAPAU_object@@XZ ; Py_BuildNone
?miniMapScaleUp@@YAPAU_object@@PAU1@0@Z ENDP		; miniMapScaleUp
_TEXT	ENDS
; Function compile flags: /Ogtp
; File D:\_m2work\txoko-m2-work\txoko-client-src\source\UserInterface\PythonMiniMapModule.cpp
;	COMDAT ?miniMapScaleDown@@YAPAU_object@@PAU1@0@Z
_TEXT	SEGMENT
_poSelf$ = 8						; size = 4
_poArgs$ = 12						; size = 4
?miniMapScaleDown@@YAPAU_object@@PAU1@0@Z PROC		; miniMapScaleDown, COMDAT

; 109  : 	CPythonMiniMap::Instance().ScaleDown();

  00000	8b 0d 00 00 00
	00		 mov	 ecx, DWORD PTR ?ms_singleton@?$CSingleton@VCPythonMiniMap@@@@0PAVCPythonMiniMap@@A ; CSingleton<CPythonMiniMap>::ms_singleton
  00006	e8 00 00 00 00	 call	 ?ScaleDown@CPythonMiniMap@@QAEXXZ ; CPythonMiniMap::ScaleDown

; 110  : 	return Py_BuildNone();

  0000b	e9 00 00 00 00	 jmp	 ?Py_BuildNone@@YAPAU_object@@XZ ; Py_BuildNone
?miniMapScaleDown@@YAPAU_object@@PAU1@0@Z ENDP		; miniMapScaleDown
_TEXT	ENDS
; Function compile flags: /Ogtp
; File D:\_m2work\txoko-m2-work\txoko-client-src\source\UserInterface\PythonMiniMapModule.cpp
; File C:\Program Files\Microsoft Visual Studio\2022\Community\VC\Tools\MSVC\14.44.35207\include\xstring
; File D:\_m2work\txoko-m2-work\txoko-client-src\source\UserInterface\PythonMiniMapModule.cpp
; File C:\Program Files\Microsoft Visual Studio\2022\Community\VC\Tools\MSVC\14.44.35207\include\xstring
; File D:\_m2work\txoko-m2-work\txoko-client-src\source\UserInterface\PythonMiniMapModule.cpp
; File C:\Program Files\Microsoft Visual Studio\2022\Community\VC\Tools\MSVC\14.44.35207\include\xstring
; File D:\_m2work\txoko-m2-work\txoko-client-src\source\UserInterface\PythonMiniMapModule.cpp
; File C:\Program Files\Microsoft Visual Studio\2022\Community\VC\Tools\MSVC\14.44.35207\include\xstring
; File D:\_m2work\txoko-m2-work\txoko-client-src\source\UserInterface\PythonMiniMapModule.cpp
; File C:\Program Files\Microsoft Visual Studio\2022\Community\VC\Tools\MSVC\14.44.35207\include\xstring
; File D:\_m2work\txoko-m2-work\txoko-client-src\source\UserInterface\PythonMiniMapModule.cpp
; File C:\Program Files\Microsoft Visual Studio\2022\Community\VC\Tools\MSVC\14.44.35207\include\xstring
; File C:\Program Files\Microsoft Visual Studio\2022\Community\VC\Tools\MSVC\14.44.35207\include\xmemory
; File C:\Program Files\Microsoft Visual Studio\2022\Community\VC\Tools\MSVC\14.44.35207\include\xstring
; File C:\Program Files\Microsoft Visual Studio\2022\Community\VC\Tools\MSVC\14.44.35207\include\xmemory
; File D:\_m2work\txoko-m2-work\txoko-client-src\source\UserInterface\PythonMiniMapModule.cpp
; File C:\Program Files\Microsoft Visual Studio\2022\Community\VC\Tools\MSVC\14.44.35207\include\xmemory
; File D:\_m2work\txoko-m2-work\txoko-client-src\source\UserInterface\PythonMiniMapModule.cpp
;	COMDAT ?miniMapGetInfo@@YAPAU_object@@PAU1@0@Z
_TEXT	SEGMENT
_dwTextColor$ = -64					; size = 4
_fPosY$ = -60						; size = 4
_fPosX$ = -56						; size = 4
_fScrrenX$ = -52					; size = 4
_fScrrenY$ = -48					; size = 4
_bFind$1$ = -41						; size = 1
_aString$ = -40						; size = 24
__$ArrayPad$ = -16					; size = 4
__$EHRec$ = -12						; size = 12
_poSelf$ = 8						; size = 4
_poArgs$ = 12						; size = 4
?miniMapGetInfo@@YAPAU_object@@PAU1@0@Z PROC		; miniMapGetInfo, COMDAT

; 114  : {

  00000	55		 push	 ebp
  00001	8b ec		 mov	 ebp, esp
  00003	6a ff		 push	 -1
  00005	68 00 00 00 00	 push	 __ehhandler$?miniMapGetInfo@@YAPAU_object@@PAU1@0@Z
  0000a	64 a1 00 00 00
	00		 mov	 eax, DWORD PTR fs:0
  00010	50		 push	 eax
  00011	83 ec 34	 sub	 esp, 52			; 00000034H
  00014	a1 00 00 00 00	 mov	 eax, DWORD PTR ___security_cookie
  00019	33 c5		 xor	 eax, ebp
  0001b	89 45 f0	 mov	 DWORD PTR __$ArrayPad$[ebp], eax
  0001e	56		 push	 esi
  0001f	50		 push	 eax
  00020	8d 45 f4	 lea	 eax, DWORD PTR __$EHRec$[ebp]
  00023	64 a3 00 00 00
	00		 mov	 DWORD PTR fs:0, eax
  00029	8b 75 0c	 mov	 esi, DWORD PTR _poArgs$[ebp]

; 115  : 	float fScrrenX;
; 116  : 	if (!PyTuple_GetFloat(poArgs, 0, &fScrrenX))

  0002c	8d 45 cc	 lea	 eax, DWORD PTR _fScrrenX$[ebp]
  0002f	50		 push	 eax
  00030	6a 00		 push	 0
  00032	56		 push	 esi
  00033	e8 00 00 00 00	 call	 ?PyTuple_GetFloat@@YA_NPAU_object@@HPAM@Z ; PyTuple_GetFloat
  00038	83 c4 0c	 add	 esp, 12			; 0000000cH
  0003b	84 c0		 test	 al, al
  0003d	75 0f		 jne	 SHORT $LN2@miniMapGet
$LN75@miniMapGet:

; 133  : }

  0003f	6a 00		 push	 0
  00041	e8 00 00 00 00	 call	 ?Py_BuildException@@YAPAU_object@@PBDZZ ; Py_BuildException
  00046	83 c4 04	 add	 esp, 4
  00049	e9 35 01 00 00	 jmp	 $LN1@miniMapGet
$LN2@miniMapGet:

; 117  : 		return Py_BuildException();
; 118  : 	
; 119  : 	float fScrrenY;
; 120  : 	if (!PyTuple_GetFloat(poArgs, 1, &fScrrenY))

  0004e	8d 45 d0	 lea	 eax, DWORD PTR _fScrrenY$[ebp]
  00051	50		 push	 eax
  00052	6a 01		 push	 1
  00054	56		 push	 esi
  00055	e8 00 00 00 00	 call	 ?PyTuple_GetFloat@@YA_NPAU_object@@HPAM@Z ; PyTuple_GetFloat
  0005a	83 c4 0c	 add	 esp, 12			; 0000000cH
  0005d	84 c0		 test	 al, al
  0005f	74 de		 je	 SHORT $LN75@miniMapGet
  00061	0f 57 c0	 xorps	 xmm0, xmm0
; File C:\Program Files\Microsoft Visual Studio\2022\Community\VC\Tools\MSVC\14.44.35207\include\xstring

; 860  :         _My_data._Mysize = 0;

  00064	c7 45 e8 00 00
	00 00		 mov	 DWORD PTR _aString$[ebp+16], 0

; 493  :         _CONSTEXPR20 _Bxty() noexcept : _Buf() {} // user-provided, for fancy pointers

  0006b	0f 11 45 d8	 movups	 XMMWORD PTR _aString$[ebp], xmm0

; 861  :         _My_data._Myres  = _Small_string_capacity;

  0006f	c7 45 ec 0f 00
	00 00		 mov	 DWORD PTR _aString$[ebp+20], 15 ; 0000000fH

; 862  :         _My_data._Activate_SSO_buffer();
; 863  : 
; 864  :         // the _Traits::assign is last so the codegen doesn't think the char write can alias this
; 865  :         _Traits::assign(_My_data._Bx._Buf[0], _Elem());

  00076	c6 45 d8 00	 mov	 BYTE PTR _aString$[ebp], 0
; File D:\_m2work\txoko-m2-work\txoko-client-src\source\UserInterface\PythonMiniMapModule.cpp

; 126  : 	bool bFind = CPythonMiniMap::Instance().GetPickedInstanceInfo(fScrrenX, fScrrenY, aString, &fPosX, &fPosY, &dwTextColor);

  0007a	8d 45 c0	 lea	 eax, DWORD PTR _dwTextColor$[ebp]
  0007d	c7 45 fc 00 00
	00 00		 mov	 DWORD PTR __$EHRec$[ebp+8], 0
  00084	f3 0f 10 55 d0	 movss	 xmm2, DWORD PTR _fScrrenY$[ebp]
  00089	f3 0f 10 4d cc	 movss	 xmm1, DWORD PTR _fScrrenX$[ebp]
  0008e	8b 0d 00 00 00
	00		 mov	 ecx, DWORD PTR ?ms_singleton@?$CSingleton@VCPythonMiniMap@@@@0PAVCPythonMiniMap@@A ; CSingleton<CPythonMiniMap>::ms_singleton
  00094	50		 push	 eax
  00095	8d 45 c4	 lea	 eax, DWORD PTR _fPosY$[ebp]
  00098	50		 push	 eax
  00099	8d 45 c8	 lea	 eax, DWORD PTR _fPosX$[ebp]
  0009c	50		 push	 eax
  0009d	8d 45 d8	 lea	 eax, DWORD PTR _aString$[ebp]
  000a0	50		 push	 eax
  000a1	e8 00 00 00 00	 call	 ?GetPickedInstanceInfo@CPythonMiniMap@@QAE_NMMAAV?$basic_string@DU?$char_traits@D@std@@V?$allocator@D@2@@std@@PAM1PAK@Z ; CPythonMiniMap::GetPickedInstanceInfo

; 127  : 	int iPosX, iPosY;
; 128  : 	PR_FLOAT_TO_INT(fPosX, iPosX);

  000a6	f3 0f 10 45 c8	 movss	 xmm0, DWORD PTR _fPosX$[ebp]
  000ab	88 45 d7	 mov	 BYTE PTR _bFind$1$[ebp], al
  000ae	f3 0f 11 05 00
	00 00 00	 movss	 DWORD PTR ?PR_FCNV@@3MA, xmm0
  000b6	d9 05 00 00 00
	00		 fld	 DWORD PTR ?PR_FCNV@@3MA	; PR_FCNV
  000bc	db 1d 00 00 00
	00		 fistp	 DWORD PTR ?PR_ICNV@@3JA
  000c2	8b 15 00 00 00
	00		 mov	 edx, DWORD PTR ?PR_ICNV@@3JA ; PR_ICNV
  000c8	66 0f 6e c2	 movd	 xmm0, edx
  000cc	0f 5b c0	 cvtdq2ps xmm0, xmm0
  000cf	0f 2f 05 00 00
	00 00		 comiss	 xmm0, DWORD PTR ?PR_FCNV@@3MA
  000d6	76 01		 jbe	 SHORT $LN5@miniMapGet
  000d8	4a		 dec	 edx
$LN5@miniMapGet:

; 129  : 	PR_FLOAT_TO_INT(fPosY, iPosY);

  000d9	f3 0f 10 45 c4	 movss	 xmm0, DWORD PTR _fPosY$[ebp]
  000de	f3 0f 11 05 00
	00 00 00	 movss	 DWORD PTR ?PR_FCNV@@3MA, xmm0
  000e6	d9 05 00 00 00
	00		 fld	 DWORD PTR ?PR_FCNV@@3MA	; PR_FCNV
  000ec	db 1d 00 00 00
	00		 fistp	 DWORD PTR ?PR_ICNV@@3JA
  000f2	8b 0d 00 00 00
	00		 mov	 ecx, DWORD PTR ?PR_ICNV@@3JA ; PR_ICNV
  000f8	66 0f 6e c1	 movd	 xmm0, ecx
  000fc	0f 5b c0	 cvtdq2ps xmm0, xmm0
  000ff	0f 2f 05 00 00
	00 00		 comiss	 xmm0, DWORD PTR ?PR_FCNV@@3MA
  00106	76 01		 jbe	 SHORT $LN7@miniMapGet
  00108	49		 dec	 ecx
$LN7@miniMapGet:

; 132  : 	return Py_BuildValue("isiil", (int)bFind, aString.c_str(), iPosX, iPosY, (signed) dwTextColor);

  00109	ff 75 c0	 push	 DWORD PTR _dwTextColor$[ebp]
  0010c	b8 1f 85 eb 51	 mov	 eax, 1374389535		; 51eb851fH
  00111	f7 ea		 imul	 edx
  00113	b8 1f 85 eb 51	 mov	 eax, 1374389535		; 51eb851fH
  00118	c1 fa 05	 sar	 edx, 5
  0011b	8b f2		 mov	 esi, edx
  0011d	c1 ee 1f	 shr	 esi, 31			; 0000001fH
  00120	03 f2		 add	 esi, edx
  00122	f7 e9		 imul	 ecx
; File C:\Program Files\Microsoft Visual Studio\2022\Community\VC\Tools\MSVC\14.44.35207\include\xstring

; 444  :         const value_type* _Result = _Bx._Buf;

  00124	8d 45 d8	 lea	 eax, DWORD PTR _aString$[ebp]
; File D:\_m2work\txoko-m2-work\txoko-client-src\source\UserInterface\PythonMiniMapModule.cpp

; 131  : 	iPosY /= 100;

  00127	c1 fa 05	 sar	 edx, 5
  0012a	8b ca		 mov	 ecx, edx
  0012c	c1 e9 1f	 shr	 ecx, 31			; 0000001fH
  0012f	03 ca		 add	 ecx, edx
; File C:\Program Files\Microsoft Visual Studio\2022\Community\VC\Tools\MSVC\14.44.35207\include\xstring

; 453  :         return _Myres > _Small_string_capacity;

  00131	83 7d ec 0f	 cmp	 DWORD PTR _aString$[ebp+20], 15 ; 0000000fH
; File D:\_m2work\txoko-m2-work\txoko-client-src\source\UserInterface\PythonMiniMapModule.cpp

; 132  : 	return Py_BuildValue("isiil", (int)bFind, aString.c_str(), iPosX, iPosY, (signed) dwTextColor);

  00135	51		 push	 ecx
; File C:\Program Files\Microsoft Visual Studio\2022\Community\VC\Tools\MSVC\14.44.35207\include\xstring

; 445  :         if (_Large_mode_engaged()) {

  00136	0f 47 45 d8	 cmova	 eax, DWORD PTR _aString$[ebp]
; File D:\_m2work\txoko-m2-work\txoko-client-src\source\UserInterface\PythonMiniMapModule.cpp

; 132  : 	return Py_BuildValue("isiil", (int)bFind, aString.c_str(), iPosX, iPosY, (signed) dwTextColor);

  0013a	56		 push	 esi
  0013b	50		 push	 eax
  0013c	0f b6 45 d7	 movzx	 eax, BYTE PTR _bFind$1$[ebp]
  00140	50		 push	 eax
  00141	68 00 00 00 00	 push	 OFFSET ??_C@_05BHNEPGFM@isiil@
  00146	ff 15 00 00 00
	00		 call	 DWORD PTR __imp__Py_BuildValue
; File C:\Program Files\Microsoft Visual Studio\2022\Community\VC\Tools\MSVC\14.44.35207\include\xstring

; 453  :         return _Myres > _Small_string_capacity;

  0014c	8b 4d ec	 mov	 ecx, DWORD PTR _aString$[ebp+20]
; File D:\_m2work\txoko-m2-work\txoko-client-src\source\UserInterface\PythonMiniMapModule.cpp

; 132  : 	return Py_BuildValue("isiil", (int)bFind, aString.c_str(), iPosX, iPosY, (signed) dwTextColor);

  0014f	83 c4 18	 add	 esp, 24			; 00000018H
  00152	8b f0		 mov	 esi, eax
; File C:\Program Files\Microsoft Visual Studio\2022\Community\VC\Tools\MSVC\14.44.35207\include\xstring

; 453  :         return _Myres > _Small_string_capacity;

  00154	83 f9 0f	 cmp	 ecx, 15			; 0000000fH

; 3083 :         if (_My_data._Large_mode_engaged()) {

  00157	76 28		 jbe	 SHORT $LN58@miniMapGet
; File C:\Program Files\Microsoft Visual Studio\2022\Community\VC\Tools\MSVC\14.44.35207\include\xmemory

; 985  :         _STD _Deallocate<_New_alignof<_Ty>>(_Ptr, sizeof(_Ty) * _Count);

  00159	8b 55 d8	 mov	 edx, DWORD PTR _aString$[ebp]
; File C:\Program Files\Microsoft Visual Studio\2022\Community\VC\Tools\MSVC\14.44.35207\include\xstring

; 852  :         _Al.deallocate(_Old_ptr, _Capacity + 1); // +1 for null terminator

  0015c	41		 inc	 ecx
; File C:\Program Files\Microsoft Visual Studio\2022\Community\VC\Tools\MSVC\14.44.35207\include\xmemory

; 985  :         _STD _Deallocate<_New_alignof<_Ty>>(_Ptr, sizeof(_Ty) * _Count);

  0015d	8b c2		 mov	 eax, edx

; 284  :         if (_Bytes >= _Big_allocation_threshold) {

  0015f	81 f9 00 10 00
	00		 cmp	 ecx, 4096		; 00001000H
  00165	72 10		 jb	 SHORT $LN66@miniMapGet

; 205  :     const uintptr_t _Ptr_container   = _Ptr_user[-1];

  00167	8b 50 fc	 mov	 edx, DWORD PTR [eax-4]
  0016a	83 c1 23	 add	 ecx, 35			; 00000023H
  0016d	2b c2		 sub	 eax, edx

; 219  :     _STL_VERIFY(_Back_shift >= _Min_back_shift && _Back_shift <= _Non_user_size, "invalid argument");

  0016f	83 c0 fc	 add	 eax, -4			; fffffffcH
  00172	83 f8 1f	 cmp	 eax, 31			; 0000001fH
  00175	77 26		 ja	 SHORT $LN77@miniMapGet
$LN66@miniMapGet:

; 289  :         ::operator delete(_Ptr, _Bytes);

  00177	51		 push	 ecx
  00178	52		 push	 edx
  00179	e8 00 00 00 00	 call	 ??3@YAXPAXI@Z		; operator delete
  0017e	83 c4 08	 add	 esp, 8
$LN58@miniMapGet:
; File D:\_m2work\txoko-m2-work\txoko-client-src\source\UserInterface\PythonMiniMapModule.cpp

; 132  : 	return Py_BuildValue("isiil", (int)bFind, aString.c_str(), iPosX, iPosY, (signed) dwTextColor);

  00181	8b c6		 mov	 eax, esi
$LN1@miniMapGet:

; 133  : }

  00183	8b 4d f4	 mov	 ecx, DWORD PTR __$EHRec$[ebp]
  00186	64 89 0d 00 00
	00 00		 mov	 DWORD PTR fs:0, ecx
  0018d	59		 pop	 ecx
  0018e	5e		 pop	 esi
  0018f	8b 4d f0	 mov	 ecx, DWORD PTR __$ArrayPad$[ebp]
  00192	33 cd		 xor	 ecx, ebp
  00194	e8 00 00 00 00	 call	 @__security_check_cookie@4
  00199	8b e5		 mov	 esp, ebp
  0019b	5d		 pop	 ebp
  0019c	c3		 ret	 0
$LN77@miniMapGet:
; File C:\Program Files\Microsoft Visual Studio\2022\Community\VC\Tools\MSVC\14.44.35207\include\xmemory

; 219  :     _STL_VERIFY(_Back_shift >= _Min_back_shift && _Back_shift <= _Non_user_size, "invalid argument");

  0019d	6a 00		 push	 0
  0019f	6a 00		 push	 0
  001a1	6a 00		 push	 0
  001a3	6a 00		 push	 0
  001a5	6a 00		 push	 0
  001a7	e8 00 00 00 00	 call	 __invoke_watson
$LN74@miniMapGet:
  001ac	cc		 int	 3
_TEXT	ENDS
;	COMDAT text$x
text$x	SEGMENT
__unwindfunclet$?miniMapGetInfo@@YAPAU_object@@PAU1@0@Z$0:
  00000	8d 4d d8	 lea	 ecx, DWORD PTR _aString$[ebp]
  00003	e9 00 00 00 00	 jmp	 ??1?$basic_string@DU?$char_traits@D@std@@V?$allocator@D@2@@std@@QAE@XZ ; std::basic_string<char,std::char_traits<char>,std::allocator<char> >::~basic_string<char,std::char_traits<char>,std::allocator<char> >
  00008	cc		 int	 3
  00009	cc		 int	 3
  0000a	cc		 int	 3
  0000b	cc		 int	 3
  0000c	cc		 int	 3
__ehhandler$?miniMapGetInfo@@YAPAU_object@@PAU1@0@Z:
  0000d	90		 npad	 1
  0000e	90		 npad	 1
  0000f	8b 54 24 08	 mov	 edx, DWORD PTR [esp+8]
  00013	8d 42 0c	 lea	 eax, DWORD PTR [edx+12]
  00016	8b 4a c4	 mov	 ecx, DWORD PTR [edx-60]
  00019	33 c8		 xor	 ecx, eax
  0001b	e8 00 00 00 00	 call	 @__security_check_cookie@4
  00020	8b 4a fc	 mov	 ecx, DWORD PTR [edx-4]
  00023	33 c8		 xor	 ecx, eax
  00025	e8 00 00 00 00	 call	 @__security_check_cookie@4
  0002a	b8 00 00 00 00	 mov	 eax, OFFSET __ehfuncinfo$?miniMapGetInfo@@YAPAU_object@@PAU1@0@Z
  0002f	e9 00 00 00 00	 jmp	 ___CxxFrameHandler3
text$x	ENDS
?miniMapGetInfo@@YAPAU_object@@PAU1@0@Z ENDP		; miniMapGetInfo
; Function compile flags: /Ogtp
; File D:\_m2work\txoko-m2-work\txoko-client-src\source\UserInterface\PythonMiniMapModule.cpp
;	COMDAT ?miniMapLoadAtlas@@YAPAU_object@@PAU1@0@Z
_TEXT	SEGMENT
_poSelf$ = 8						; size = 4
_poArgs$ = 12						; size = 4
?miniMapLoadAtlas@@YAPAU_object@@PAU1@0@Z PROC		; miniMapLoadAtlas, COMDAT

; 139  : 	if (!CPythonMiniMap::Instance().LoadAtlas())

  00000	8b 0d 00 00 00
	00		 mov	 ecx, DWORD PTR ?ms_singleton@?$CSingleton@VCPythonMiniMap@@@@0PAVCPythonMiniMap@@A ; CSingleton<CPythonMiniMap>::ms_singleton
  00006	e8 00 00 00 00	 call	 ?LoadAtlas@CPythonMiniMap@@QAE_NXZ ; CPythonMiniMap::LoadAtlas
  0000b	84 c0		 test	 al, al
  0000d	75 0d		 jne	 SHORT $LN2@miniMapLoa

; 140  : 		TraceError("CPythonMiniMap::Instance().LoadAtlas() Failed");

  0000f	68 00 00 00 00	 push	 OFFSET ??_C@_0CO@JOBACLFH@CPythonMiniMap?3?3Instance?$CI?$CJ?4Load@
  00014	e8 00 00 00 00	 call	 ?TraceError@@YAXPBDZZ	; TraceError
  00019	83 c4 04	 add	 esp, 4
$LN2@miniMapLoa:

; 141  : 	return Py_BuildNone();

  0001c	e9 00 00 00 00	 jmp	 ?Py_BuildNone@@YAPAU_object@@XZ ; Py_BuildNone
?miniMapLoadAtlas@@YAPAU_object@@PAU1@0@Z ENDP		; miniMapLoadAtlas
_TEXT	ENDS
; Function compile flags: /Ogtp
; File D:\_m2work\txoko-m2-work\txoko-client-src\source\UserInterface\PythonMiniMapModule.cpp
;	COMDAT ?miniMapUpdateAtlas@@YAPAU_object@@PAU1@0@Z
_TEXT	SEGMENT
_poSelf$ = 8						; size = 4
_poArgs$ = 12						; size = 4
?miniMapUpdateAtlas@@YAPAU_object@@PAU1@0@Z PROC	; miniMapUpdateAtlas, COMDAT

; 146  : 	CPythonMiniMap::Instance().UpdateAtlas();

  00000	8b 0d 00 00 00
	00		 mov	 ecx, DWORD PTR ?ms_singleton@?$CSingleton@VCPythonMiniMap@@@@0PAVCPythonMiniMap@@A ; CSingleton<CPythonMiniMap>::ms_singleton
  00006	e8 00 00 00 00	 call	 ?UpdateAtlas@CPythonMiniMap@@QAEXXZ ; CPythonMiniMap::UpdateAtlas

; 147  : 	return Py_BuildNone();

  0000b	e9 00 00 00 00	 jmp	 ?Py_BuildNone@@YAPAU_object@@XZ ; Py_BuildNone
?miniMapUpdateAtlas@@YAPAU_object@@PAU1@0@Z ENDP	; miniMapUpdateAtlas
_TEXT	ENDS
; Function compile flags: /Ogtp
; File D:\_m2work\txoko-m2-work\txoko-client-src\source\UserInterface\PythonMiniMapModule.cpp
;	COMDAT ?miniMapRenderAtlas@@YAPAU_object@@PAU1@0@Z
_TEXT	SEGMENT
_fScrrenX$ = -8						; size = 4
_fScrrenY$ = -4						; size = 4
_poSelf$ = 8						; size = 4
_poArgs$ = 12						; size = 4
?miniMapRenderAtlas@@YAPAU_object@@PAU1@0@Z PROC	; miniMapRenderAtlas, COMDAT

; 151  : {

  00000	55		 push	 ebp
  00001	8b ec		 mov	 ebp, esp
  00003	83 ec 08	 sub	 esp, 8

; 152  : 	float fScrrenX;
; 153  : 	if (!PyTuple_GetFloat(poArgs, 0, &fScrrenX))

  00006	8d 45 f8	 lea	 eax, DWORD PTR _fScrrenX$[ebp]
  00009	50		 push	 eax
  0000a	6a 00		 push	 0
  0000c	ff 75 0c	 push	 DWORD PTR _poArgs$[ebp]
  0000f	e8 00 00 00 00	 call	 ?PyTuple_GetFloat@@YA_NPAU_object@@HPAM@Z ; PyTuple_GetFloat
  00014	83 c4 0c	 add	 esp, 12			; 0000000cH
  00017	84 c0		 test	 al, al
  00019	75 0e		 jne	 SHORT $LN2@miniMapRen
$LN5@miniMapRen:

; 162  : }

  0001b	6a 00		 push	 0
  0001d	e8 00 00 00 00	 call	 ?Py_BuildException@@YAPAU_object@@PBDZZ ; Py_BuildException
  00022	83 c4 04	 add	 esp, 4
  00025	8b e5		 mov	 esp, ebp
  00027	5d		 pop	 ebp
  00028	c3		 ret	 0
$LN2@miniMapRen:

; 154  : 		return Py_BuildException();
; 155  : 	
; 156  : 	float fScrrenY;
; 157  : 	if (!PyTuple_GetFloat(poArgs, 1, &fScrrenY))

  00029	8d 45 fc	 lea	 eax, DWORD PTR _fScrrenY$[ebp]
  0002c	50		 push	 eax
  0002d	6a 01		 push	 1
  0002f	ff 75 0c	 push	 DWORD PTR _poArgs$[ebp]
  00032	e8 00 00 00 00	 call	 ?PyTuple_GetFloat@@YA_NPAU_object@@HPAM@Z ; PyTuple_GetFloat
  00037	83 c4 0c	 add	 esp, 12			; 0000000cH
  0003a	84 c0		 test	 al, al
  0003c	74 dd		 je	 SHORT $LN5@miniMapRen

; 158  : 		return Py_BuildException();
; 159  : 	
; 160  : 	CPythonMiniMap::Instance().RenderAtlas(fScrrenX, fScrrenY);

  0003e	f3 0f 10 55 fc	 movss	 xmm2, DWORD PTR _fScrrenY$[ebp]
  00043	f3 0f 10 4d f8	 movss	 xmm1, DWORD PTR _fScrrenX$[ebp]
  00048	8b 0d 00 00 00
	00		 mov	 ecx, DWORD PTR ?ms_singleton@?$CSingleton@VCPythonMiniMap@@@@0PAVCPythonMiniMap@@A ; CSingleton<CPythonMiniMap>::ms_singleton
  0004e	e8 00 00 00 00	 call	 ?RenderAtlas@CPythonMiniMap@@QAEXMM@Z ; CPythonMiniMap::RenderAtlas

; 161  : 	return Py_BuildNone();

  00053	e8 00 00 00 00	 call	 ?Py_BuildNone@@YAPAU_object@@XZ ; Py_BuildNone

; 162  : }

  00058	8b e5		 mov	 esp, ebp
  0005a	5d		 pop	 ebp
  0005b	c3		 ret	 0
?miniMapRenderAtlas@@YAPAU_object@@PAU1@0@Z ENDP	; miniMapRenderAtlas
_TEXT	ENDS
; Function compile flags: /Ogtp
; File D:\_m2work\txoko-m2-work\txoko-client-src\source\UserInterface\PythonMiniMapModule.cpp
;	COMDAT ?miniMapShowAtlas@@YAPAU_object@@PAU1@0@Z
_TEXT	SEGMENT
_poSelf$ = 8						; size = 4
_poArgs$ = 12						; size = 4
?miniMapShowAtlas@@YAPAU_object@@PAU1@0@Z PROC		; miniMapShowAtlas, COMDAT

; 166  : 	CPythonMiniMap::Instance().ShowAtlas();

  00000	8b 0d 00 00 00
	00		 mov	 ecx, DWORD PTR ?ms_singleton@?$CSingleton@VCPythonMiniMap@@@@0PAVCPythonMiniMap@@A ; CSingleton<CPythonMiniMap>::ms_singleton
  00006	e8 00 00 00 00	 call	 ?ShowAtlas@CPythonMiniMap@@QAEXXZ ; CPythonMiniMap::ShowAtlas

; 167  : 	return Py_BuildNone();

  0000b	e9 00 00 00 00	 jmp	 ?Py_BuildNone@@YAPAU_object@@XZ ; Py_BuildNone
?miniMapShowAtlas@@YAPAU_object@@PAU1@0@Z ENDP		; miniMapShowAtlas
_TEXT	ENDS
; Function compile flags: /Ogtp
; File D:\_m2work\txoko-m2-work\txoko-client-src\source\UserInterface\PythonMiniMapModule.cpp
;	COMDAT ?miniMapHideAtlas@@YAPAU_object@@PAU1@0@Z
_TEXT	SEGMENT
_poSelf$ = 8						; size = 4
_poArgs$ = 12						; size = 4
?miniMapHideAtlas@@YAPAU_object@@PAU1@0@Z PROC		; miniMapHideAtlas, COMDAT

; 172  : 	CPythonMiniMap::Instance().HideAtlas();

  00000	8b 0d 00 00 00
	00		 mov	 ecx, DWORD PTR ?ms_singleton@?$CSingleton@VCPythonMiniMap@@@@0PAVCPythonMiniMap@@A ; CSingleton<CPythonMiniMap>::ms_singleton
  00006	e8 00 00 00 00	 call	 ?HideAtlas@CPythonMiniMap@@QAEXXZ ; CPythonMiniMap::HideAtlas

; 173  : 	return Py_BuildNone();

  0000b	e9 00 00 00 00	 jmp	 ?Py_BuildNone@@YAPAU_object@@XZ ; Py_BuildNone
?miniMapHideAtlas@@YAPAU_object@@PAU1@0@Z ENDP		; miniMapHideAtlas
_TEXT	ENDS
; Function compile flags: /Ogtp
; File D:\_m2work\txoko-m2-work\txoko-client-src\source\UserInterface\PythonMiniMapModule.cpp
;	COMDAT ?miniMapisShowAtlas@@YAPAU_object@@PAU1@0@Z
_TEXT	SEGMENT
_poSelf$ = 8						; size = 4
_poArgs$ = 12						; size = 4
?miniMapisShowAtlas@@YAPAU_object@@PAU1@0@Z PROC	; miniMapisShowAtlas, COMDAT

; 178  : 	bool bShow = CPythonMiniMap::Instance().CanShowAtlas();

  00000	8b 0d 00 00 00
	00		 mov	 ecx, DWORD PTR ?ms_singleton@?$CSingleton@VCPythonMiniMap@@@@0PAVCPythonMiniMap@@A ; CSingleton<CPythonMiniMap>::ms_singleton
  00006	e8 00 00 00 00	 call	 ?CanShowAtlas@CPythonMiniMap@@QAE_NXZ ; CPythonMiniMap::CanShowAtlas

; 179  : 	return Py_BuildValue("b", bShow);

  0000b	0f b6 c0	 movzx	 eax, al
  0000e	50		 push	 eax
  0000f	68 00 00 00 00	 push	 OFFSET ??_C@_01OJONOECF@b@
  00014	ff 15 00 00 00
	00		 call	 DWORD PTR __imp__Py_BuildValue
  0001a	83 c4 08	 add	 esp, 8

; 180  : }

  0001d	c3		 ret	 0
?miniMapisShowAtlas@@YAPAU_object@@PAU1@0@Z ENDP	; miniMapisShowAtlas
_TEXT	ENDS
; Function compile flags: /Ogtp
; File D:\_m2work\txoko-m2-work\txoko-client-src\source\UserInterface\PythonMiniMapModule.cpp
;	COMDAT ?miniMapIsAtlas@@YAPAU_object@@PAU1@0@Z
_TEXT	SEGMENT
_poSelf$ = 8						; size = 4
_poArgs$ = 12						; size = 4
?miniMapIsAtlas@@YAPAU_object@@PAU1@0@Z PROC		; miniMapIsAtlas, COMDAT

; 184  : 	bool isData = CPythonMiniMap::Instance().IsAtlas();

  00000	8b 0d 00 00 00
	00		 mov	 ecx, DWORD PTR ?ms_singleton@?$CSingleton@VCPythonMiniMap@@@@0PAVCPythonMiniMap@@A ; CSingleton<CPythonMiniMap>::ms_singleton
  00006	e8 00 00 00 00	 call	 ?IsAtlas@CPythonMiniMap@@QAE_NXZ ; CPythonMiniMap::IsAtlas

; 185  : 	return Py_BuildValue("b", isData);

  0000b	0f b6 c0	 movzx	 eax, al
  0000e	50		 push	 eax
  0000f	68 00 00 00 00	 push	 OFFSET ??_C@_01OJONOECF@b@
  00014	ff 15 00 00 00
	00		 call	 DWORD PTR __imp__Py_BuildValue
  0001a	83 c4 08	 add	 esp, 8

; 186  : }

  0001d	c3		 ret	 0
?miniMapIsAtlas@@YAPAU_object@@PAU1@0@Z ENDP		; miniMapIsAtlas
_TEXT	ENDS
; Function compile flags: /Ogtp
; File D:\_m2work\txoko-m2-work\txoko-client-src\source\UserInterface\PythonMiniMapModule.cpp
; File C:\Program Files\Microsoft Visual Studio\2022\Community\VC\Tools\MSVC\14.44.35207\include\xstring
; File D:\_m2work\txoko-m2-work\txoko-client-src\source\UserInterface\PythonMiniMapModule.cpp
; File C:\Program Files\Microsoft Visual Studio\2022\Community\VC\Tools\MSVC\14.44.35207\include\xstring
; File D:\_m2work\txoko-m2-work\txoko-client-src\source\UserInterface\PythonMiniMapModule.cpp
; File C:\Program Files\Microsoft Visual Studio\2022\Community\VC\Tools\MSVC\14.44.35207\include\xstring
; File D:\_m2work\txoko-m2-work\txoko-client-src\source\UserInterface\PythonMiniMapModule.cpp
; File C:\Program Files\Microsoft Visual Studio\2022\Community\VC\Tools\MSVC\14.44.35207\include\xstring
; File D:\_m2work\txoko-m2-work\txoko-client-src\source\UserInterface\PythonMiniMapModule.cpp
; File C:\Program Files\Microsoft Visual Studio\2022\Community\VC\Tools\MSVC\14.44.35207\include\xstring
; File D:\_m2work\txoko-m2-work\txoko-client-src\source\UserInterface\PythonMiniMapModule.cpp
; File C:\Program Files\Microsoft Visual Studio\2022\Community\VC\Tools\MSVC\14.44.35207\include\xstring
; File C:\Program Files\Microsoft Visual Studio\2022\Community\VC\Tools\MSVC\14.44.35207\include\xmemory
; File C:\Program Files\Microsoft Visual Studio\2022\Community\VC\Tools\MSVC\14.44.35207\include\xstring
; File C:\Program Files\Microsoft Visual Studio\2022\Community\VC\Tools\MSVC\14.44.35207\include\xmemory
; File D:\_m2work\txoko-m2-work\txoko-client-src\source\UserInterface\PythonMiniMapModule.cpp
; File C:\Program Files\Microsoft Visual Studio\2022\Community\VC\Tools\MSVC\14.44.35207\include\xmemory
; File D:\_m2work\txoko-m2-work\txoko-client-src\source\UserInterface\PythonMiniMapModule.cpp
;	COMDAT ?miniMapGetAtlasInfo@@YAPAU_object@@PAU1@0@Z
_TEXT	SEGMENT
_fScrrenX$ = -68					; size = 4
_fScrrenY$ = -64					; size = 4
_dwTextColor$ = -60					; size = 4
_dwGuildID$ = -56					; size = 4
_fPosY$ = -52						; size = 4
_fPosX$ = -48						; size = 4
_bFind$1$ = -41						; size = 1
_aString$ = -40						; size = 24
__$ArrayPad$ = -16					; size = 4
__$EHRec$ = -12						; size = 12
_poSelf$ = 8						; size = 4
_poArgs$ = 12						; size = 4
?miniMapGetAtlasInfo@@YAPAU_object@@PAU1@0@Z PROC	; miniMapGetAtlasInfo, COMDAT

; 190  : {

  00000	55		 push	 ebp
  00001	8b ec		 mov	 ebp, esp
  00003	6a ff		 push	 -1
  00005	68 00 00 00 00	 push	 __ehhandler$?miniMapGetAtlasInfo@@YAPAU_object@@PAU1@0@Z
  0000a	64 a1 00 00 00
	00		 mov	 eax, DWORD PTR fs:0
  00010	50		 push	 eax
  00011	83 ec 38	 sub	 esp, 56			; 00000038H
  00014	a1 00 00 00 00	 mov	 eax, DWORD PTR ___security_cookie
  00019	33 c5		 xor	 eax, ebp
  0001b	89 45 f0	 mov	 DWORD PTR __$ArrayPad$[ebp], eax
  0001e	56		 push	 esi
  0001f	50		 push	 eax
  00020	8d 45 f4	 lea	 eax, DWORD PTR __$EHRec$[ebp]
  00023	64 a3 00 00 00
	00		 mov	 DWORD PTR fs:0, eax
  00029	8b 75 0c	 mov	 esi, DWORD PTR _poArgs$[ebp]

; 191  : 	float fScrrenX;
; 192  : 	if (!PyTuple_GetFloat(poArgs, 0, &fScrrenX))

  0002c	8d 45 bc	 lea	 eax, DWORD PTR _fScrrenX$[ebp]
  0002f	50		 push	 eax
  00030	6a 00		 push	 0
  00032	56		 push	 esi
  00033	e8 00 00 00 00	 call	 ?PyTuple_GetFloat@@YA_NPAU_object@@HPAM@Z ; PyTuple_GetFloat
  00038	83 c4 0c	 add	 esp, 12			; 0000000cH
  0003b	84 c0		 test	 al, al
  0003d	75 0f		 jne	 SHORT $LN2@miniMapGet
$LN135@miniMapGet:

; 210  : }

  0003f	6a 00		 push	 0
  00041	e8 00 00 00 00	 call	 ?Py_BuildException@@YAPAU_object@@PBDZZ ; Py_BuildException
  00046	83 c4 04	 add	 esp, 4
  00049	e9 58 01 00 00	 jmp	 $LN1@miniMapGet
$LN2@miniMapGet:

; 193  : 		return Py_BuildException();
; 194  : 	float fScrrenY;
; 195  : 	if (!PyTuple_GetFloat(poArgs, 1, &fScrrenY))

  0004e	8d 45 c0	 lea	 eax, DWORD PTR _fScrrenY$[ebp]
  00051	50		 push	 eax
  00052	6a 01		 push	 1
  00054	56		 push	 esi
  00055	e8 00 00 00 00	 call	 ?PyTuple_GetFloat@@YA_NPAU_object@@HPAM@Z ; PyTuple_GetFloat
  0005a	83 c4 0c	 add	 esp, 12			; 0000000cH
  0005d	84 c0		 test	 al, al
  0005f	74 de		 je	 SHORT $LN135@miniMapGet
  00061	0f 57 c0	 xorps	 xmm0, xmm0
; File C:\Program Files\Microsoft Visual Studio\2022\Community\VC\Tools\MSVC\14.44.35207\include\xstring

; 890  :             _My_data._Mysize = _Count;

  00064	c7 45 e8 00 00
	00 00		 mov	 DWORD PTR _aString$[ebp+16], 0

; 493  :         _CONSTEXPR20 _Bxty() noexcept : _Buf() {} // user-provided, for fancy pointers

  0006b	0f 11 45 d8	 movups	 XMMWORD PTR _aString$[ebp], xmm0

; 891  :             _My_data._Myres  = _Small_string_capacity;

  0006f	c7 45 ec 0f 00
	00 00		 mov	 DWORD PTR _aString$[ebp+20], 15 ; 0000000fH

; 892  : 
; 893  :             if constexpr (_Strat == _Construct_strategy::_From_char) {
; 894  :                 _Traits::assign(_My_data._Bx._Buf, _Count, _Arg);
; 895  :                 _Traits::assign(_My_data._Bx._Buf[_Count], _Elem());
; 896  :             } else if constexpr (_Strat == _Construct_strategy::_From_ptr) {
; 897  :                 _Traits::copy(_My_data._Bx._Buf, _Arg, _Count);
; 898  :                 _Traits::assign(_My_data._Bx._Buf[_Count], _Elem());

  00076	c6 45 d8 00	 mov	 BYTE PTR _aString$[ebp], 0
; File D:\_m2work\txoko-m2-work\txoko-client-src\source\UserInterface\PythonMiniMapModule.cpp

; 203  : 	bool bFind = CPythonMiniMap::Instance().GetAtlasInfo(fScrrenX, fScrrenY, aString, &fPosX, &fPosY, &dwTextColor, &dwGuildID);

  0007a	8d 45 c8	 lea	 eax, DWORD PTR _dwGuildID$[ebp]
  0007d	c7 45 fc 00 00
	00 00		 mov	 DWORD PTR __$EHRec$[ebp+8], 0
  00084	f3 0f 10 55 c0	 movss	 xmm2, DWORD PTR _fScrrenY$[ebp]
  00089	f3 0f 10 4d bc	 movss	 xmm1, DWORD PTR _fScrrenX$[ebp]
  0008e	8b 0d 00 00 00
	00		 mov	 ecx, DWORD PTR ?ms_singleton@?$CSingleton@VCPythonMiniMap@@@@0PAVCPythonMiniMap@@A ; CSingleton<CPythonMiniMap>::ms_singleton
  00094	50		 push	 eax
  00095	8d 45 c4	 lea	 eax, DWORD PTR _dwTextColor$[ebp]
  00098	c7 45 d0 00 00
	00 00		 mov	 DWORD PTR _fPosX$[ebp], 0
  0009f	50		 push	 eax
  000a0	8d 45 cc	 lea	 eax, DWORD PTR _fPosY$[ebp]
  000a3	c7 45 cc 00 00
	00 00		 mov	 DWORD PTR _fPosY$[ebp], 0
  000aa	50		 push	 eax
  000ab	8d 45 d0	 lea	 eax, DWORD PTR _fPosX$[ebp]
  000ae	c7 45 c4 00 00
	00 00		 mov	 DWORD PTR _dwTextColor$[ebp], 0
  000b5	50		 push	 eax
  000b6	8d 45 d8	 lea	 eax, DWORD PTR _aString$[ebp]
  000b9	c7 45 c8 00 00
	00 00		 mov	 DWORD PTR _dwGuildID$[ebp], 0
  000c0	50		 push	 eax
  000c1	e8 00 00 00 00	 call	 ?GetAtlasInfo@CPythonMiniMap@@QAE_NMMAAV?$basic_string@DU?$char_traits@D@std@@V?$allocator@D@2@@std@@PAM1PAK2@Z ; CPythonMiniMap::GetAtlasInfo

; 204  : 	int iPosX, iPosY;
; 205  : 	PR_FLOAT_TO_INT(fPosX, iPosX);

  000c6	f3 0f 10 45 d0	 movss	 xmm0, DWORD PTR _fPosX$[ebp]
  000cb	88 45 d7	 mov	 BYTE PTR _bFind$1$[ebp], al
  000ce	f3 0f 11 05 00
	00 00 00	 movss	 DWORD PTR ?PR_FCNV@@3MA, xmm0
  000d6	d9 05 00 00 00
	00		 fld	 DWORD PTR ?PR_FCNV@@3MA	; PR_FCNV
  000dc	db 1d 00 00 00
	00		 fistp	 DWORD PTR ?PR_ICNV@@3JA
  000e2	8b 15 00 00 00
	00		 mov	 edx, DWORD PTR ?PR_ICNV@@3JA ; PR_ICNV
  000e8	66 0f 6e c2	 movd	 xmm0, edx
  000ec	0f 5b c0	 cvtdq2ps xmm0, xmm0
  000ef	0f 2f 05 00 00
	00 00		 comiss	 xmm0, DWORD PTR ?PR_FCNV@@3MA
  000f6	76 01		 jbe	 SHORT $LN5@miniMapGet
  000f8	4a		 dec	 edx
$LN5@miniMapGet:

; 206  : 	PR_FLOAT_TO_INT(fPosY, iPosY);

  000f9	f3 0f 10 45 cc	 movss	 xmm0, DWORD PTR _fPosY$[ebp]
  000fe	f3 0f 11 05 00
	00 00 00	 movss	 DWORD PTR ?PR_FCNV@@3MA, xmm0
  00106	d9 05 00 00 00
	00		 fld	 DWORD PTR ?PR_FCNV@@3MA	; PR_FCNV
  0010c	db 1d 00 00 00
	00		 fistp	 DWORD PTR ?PR_ICNV@@3JA
  00112	8b 0d 00 00 00
	00		 mov	 ecx, DWORD PTR ?PR_ICNV@@3JA ; PR_ICNV
  00118	66 0f 6e c1	 movd	 xmm0, ecx
  0011c	0f 5b c0	 cvtdq2ps xmm0, xmm0
  0011f	0f 2f 05 00 00
	00 00		 comiss	 xmm0, DWORD PTR ?PR_FCNV@@3MA
  00126	76 01		 jbe	 SHORT $LN7@miniMapGet
  00128	49		 dec	 ecx
$LN7@miniMapGet:

; 209  : 	return Py_BuildValue("isiili", (int)bFind, aString.c_str(), iPosX, iPosY, (signed) dwTextColor, dwGuildID);

  00129	ff 75 c8	 push	 DWORD PTR _dwGuildID$[ebp]
  0012c	b8 1f 85 eb 51	 mov	 eax, 1374389535		; 51eb851fH
  00131	ff 75 c4	 push	 DWORD PTR _dwTextColor$[ebp]
  00134	f7 ea		 imul	 edx
  00136	b8 1f 85 eb 51	 mov	 eax, 1374389535		; 51eb851fH
  0013b	c1 fa 05	 sar	 edx, 5
  0013e	8b f2		 mov	 esi, edx
  00140	c1 ee 1f	 shr	 esi, 31			; 0000001fH
  00143	03 f2		 add	 esi, edx
  00145	f7 e9		 imul	 ecx
; File C:\Program Files\Microsoft Visual Studio\2022\Community\VC\Tools\MSVC\14.44.35207\include\xstring

; 444  :         const value_type* _Result = _Bx._Buf;

  00147	8d 45 d8	 lea	 eax, DWORD PTR _aString$[ebp]
; File D:\_m2work\txoko-m2-work\txoko-client-src\source\UserInterface\PythonMiniMapModule.cpp

; 208  : 	iPosY /= 100;

  0014a	c1 fa 05	 sar	 edx, 5
  0014d	8b ca		 mov	 ecx, edx
  0014f	c1 e9 1f	 shr	 ecx, 31			; 0000001fH
  00152	03 ca		 add	 ecx, edx
; File C:\Program Files\Microsoft Visual Studio\2022\Community\VC\Tools\MSVC\14.44.35207\include\xstring

; 453  :         return _Myres > _Small_string_capacity;

  00154	83 7d ec 0f	 cmp	 DWORD PTR _aString$[ebp+20], 15 ; 0000000fH
; File D:\_m2work\txoko-m2-work\txoko-client-src\source\UserInterface\PythonMiniMapModule.cpp

; 209  : 	return Py_BuildValue("isiili", (int)bFind, aString.c_str(), iPosX, iPosY, (signed) dwTextColor, dwGuildID);

  00158	51		 push	 ecx
; File C:\Program Files\Microsoft Visual Studio\2022\Community\VC\Tools\MSVC\14.44.35207\include\xstring

; 445  :         if (_Large_mode_engaged()) {

  00159	0f 47 45 d8	 cmova	 eax, DWORD PTR _aString$[ebp]
; File D:\_m2work\txoko-m2-work\txoko-client-src\source\UserInterface\PythonMiniMapModule.cpp

; 209  : 	return Py_BuildValue("isiili", (int)bFind, aString.c_str(), iPosX, iPosY, (signed) dwTextColor, dwGuildID);

  0015d	56		 push	 esi
  0015e	50		 push	 eax
  0015f	0f b6 45 d7	 movzx	 eax, BYTE PTR _bFind$1$[ebp]
  00163	50		 push	 eax
  00164	68 00 00 00 00	 push	 OFFSET ??_C@_06NGPFBJMH@isiili@
  00169	ff 15 00 00 00
	00		 call	 DWORD PTR __imp__Py_BuildValue
; File C:\Program Files\Microsoft Visual Studio\2022\Community\VC\Tools\MSVC\14.44.35207\include\xstring

; 453  :         return _Myres > _Small_string_capacity;

  0016f	8b 4d ec	 mov	 ecx, DWORD PTR _aString$[ebp+20]
; File D:\_m2work\txoko-m2-work\txoko-client-src\source\UserInterface\PythonMiniMapModule.cpp

; 209  : 	return Py_BuildValue("isiili", (int)bFind, aString.c_str(), iPosX, iPosY, (signed) dwTextColor, dwGuildID);

  00172	83 c4 1c	 add	 esp, 28			; 0000001cH
  00175	8b f0		 mov	 esi, eax
; File C:\Program Files\Microsoft Visual Studio\2022\Community\VC\Tools\MSVC\14.44.35207\include\xstring

; 453  :         return _Myres > _Small_string_capacity;

  00177	83 f9 0f	 cmp	 ecx, 15			; 0000000fH

; 3083 :         if (_My_data._Large_mode_engaged()) {

  0017a	76 28		 jbe	 SHORT $LN106@miniMapGet
; File C:\Program Files\Microsoft Visual Studio\2022\Community\VC\Tools\MSVC\14.44.35207\include\xmemory

; 985  :         _STD _Deallocate<_New_alignof<_Ty>>(_Ptr, sizeof(_Ty) * _Count);

  0017c	8b 55 d8	 mov	 edx, DWORD PTR _aString$[ebp]
; File C:\Program Files\Microsoft Visual Studio\2022\Community\VC\Tools\MSVC\14.44.35207\include\xstring

; 852  :         _Al.deallocate(_Old_ptr, _Capacity + 1); // +1 for null terminator

  0017f	41		 inc	 ecx
; File C:\Program Files\Microsoft Visual Studio\2022\Community\VC\Tools\MSVC\14.44.35207\include\xmemory

; 985  :         _STD _Deallocate<_New_alignof<_Ty>>(_Ptr, sizeof(_Ty) * _Count);

  00180	8b c2		 mov	 eax, edx

; 284  :         if (_Bytes >= _Big_allocation_threshold) {

  00182	81 f9 00 10 00
	00		 cmp	 ecx, 4096		; 00001000H
  00188	72 10		 jb	 SHORT $LN114@miniMapGet

; 205  :     const uintptr_t _Ptr_container   = _Ptr_user[-1];

  0018a	8b 50 fc	 mov	 edx, DWORD PTR [eax-4]
  0018d	83 c1 23	 add	 ecx, 35			; 00000023H
  00190	2b c2		 sub	 eax, edx

; 219  :     _STL_VERIFY(_Back_shift >= _Min_back_shift && _Back_shift <= _Non_user_size, "invalid argument");

  00192	83 c0 fc	 add	 eax, -4			; fffffffcH
  00195	83 f8 1f	 cmp	 eax, 31			; 0000001fH
  00198	77 26		 ja	 SHORT $LN137@miniMapGet
$LN114@miniMapGet:

; 289  :         ::operator delete(_Ptr, _Bytes);

  0019a	51		 push	 ecx
  0019b	52		 push	 edx
  0019c	e8 00 00 00 00	 call	 ??3@YAXPAXI@Z		; operator delete
  001a1	83 c4 08	 add	 esp, 8
$LN106@miniMapGet:
; File D:\_m2work\txoko-m2-work\txoko-client-src\source\UserInterface\PythonMiniMapModule.cpp

; 209  : 	return Py_BuildValue("isiili", (int)bFind, aString.c_str(), iPosX, iPosY, (signed) dwTextColor, dwGuildID);

  001a4	8b c6		 mov	 eax, esi
$LN1@miniMapGet:

; 210  : }

  001a6	8b 4d f4	 mov	 ecx, DWORD PTR __$EHRec$[ebp]
  001a9	64 89 0d 00 00
	00 00		 mov	 DWORD PTR fs:0, ecx
  001b0	59		 pop	 ecx
  001b1	5e		 pop	 esi
  001b2	8b 4d f0	 mov	 ecx, DWORD PTR __$ArrayPad$[ebp]
  001b5	33 cd		 xor	 ecx, ebp
  001b7	e8 00 00 00 00	 call	 @__security_check_cookie@4
  001bc	8b e5		 mov	 esp, ebp
  001be	5d		 pop	 ebp
  001bf	c3		 ret	 0
$LN137@miniMapGet:
; File C:\Program Files\Microsoft Visual Studio\2022\Community\VC\Tools\MSVC\14.44.35207\include\xmemory

; 219  :     _STL_VERIFY(_Back_shift >= _Min_back_shift && _Back_shift <= _Non_user_size, "invalid argument");

  001c0	6a 00		 push	 0
  001c2	6a 00		 push	 0
  001c4	6a 00		 push	 0
  001c6	6a 00		 push	 0
  001c8	6a 00		 push	 0
  001ca	e8 00 00 00 00	 call	 __invoke_watson
$LN134@miniMapGet:
  001cf	cc		 int	 3
_TEXT	ENDS
;	COMDAT text$x
text$x	SEGMENT
__unwindfunclet$?miniMapGetAtlasInfo@@YAPAU_object@@PAU1@0@Z$0:
  00000	8d 4d d8	 lea	 ecx, DWORD PTR _aString$[ebp]
  00003	e9 00 00 00 00	 jmp	 ??1?$basic_string@DU?$char_traits@D@std@@V?$allocator@D@2@@std@@QAE@XZ ; std::basic_string<char,std::char_traits<char>,std::allocator<char> >::~basic_string<char,std::char_traits<char>,std::allocator<char> >
  00008	cc		 int	 3
  00009	cc		 int	 3
  0000a	cc		 int	 3
  0000b	cc		 int	 3
  0000c	cc		 int	 3
__ehhandler$?miniMapGetAtlasInfo@@YAPAU_object@@PAU1@0@Z:
  0000d	90		 npad	 1
  0000e	90		 npad	 1
  0000f	8b 54 24 08	 mov	 edx, DWORD PTR [esp+8]
  00013	8d 42 0c	 lea	 eax, DWORD PTR [edx+12]
  00016	8b 4a c0	 mov	 ecx, DWORD PTR [edx-64]
  00019	33 c8		 xor	 ecx, eax
  0001b	e8 00 00 00 00	 call	 @__security_check_cookie@4
  00020	8b 4a fc	 mov	 ecx, DWORD PTR [edx-4]
  00023	33 c8		 xor	 ecx, eax
  00025	e8 00 00 00 00	 call	 @__security_check_cookie@4
  0002a	b8 00 00 00 00	 mov	 eax, OFFSET __ehfuncinfo$?miniMapGetAtlasInfo@@YAPAU_object@@PAU1@0@Z
  0002f	e9 00 00 00 00	 jmp	 ___CxxFrameHandler3
text$x	ENDS
?miniMapGetAtlasInfo@@YAPAU_object@@PAU1@0@Z ENDP	; miniMapGetAtlasInfo
; Function compile flags: /Ogtp
; File D:\_m2work\txoko-m2-work\txoko-client-src\source\UserInterface\PythonMiniMapModule.cpp
;	COMDAT ?miniMapGetAtlasSize@@YAPAU_object@@PAU1@0@Z
_TEXT	SEGMENT
_fSizeY$ = -8						; size = 4
_fSizeX$ = -4						; size = 4
_poSelf$ = 8						; size = 4
_poArgs$ = 12						; size = 4
?miniMapGetAtlasSize@@YAPAU_object@@PAU1@0@Z PROC	; miniMapGetAtlasSize, COMDAT

; 213  : {

  00000	55		 push	 ebp
  00001	8b ec		 mov	 ebp, esp
  00003	83 ec 08	 sub	 esp, 8

; 214  : 	float fSizeX, fSizeY;
; 215  : 	bool bGet = CPythonMiniMap::Instance().GetAtlasSize(&fSizeX, &fSizeY);

  00006	8b 0d 00 00 00
	00		 mov	 ecx, DWORD PTR ?ms_singleton@?$CSingleton@VCPythonMiniMap@@@@0PAVCPythonMiniMap@@A ; CSingleton<CPythonMiniMap>::ms_singleton
  0000c	8d 45 f8	 lea	 eax, DWORD PTR _fSizeY$[ebp]
  0000f	50		 push	 eax
  00010	8d 45 fc	 lea	 eax, DWORD PTR _fSizeX$[ebp]
  00013	50		 push	 eax
  00014	e8 00 00 00 00	 call	 ?GetAtlasSize@CPythonMiniMap@@QAE_NPAM0@Z ; CPythonMiniMap::GetAtlasSize

; 216  : 
; 217  : /*
; 218  : 	float fSizeXoo256 = fSizeX / 256.0f;
; 219  : 	float fSizeYoo256 = fSizeY / 256.0f;
; 220  : 
; 221  : 	if (fSizeXoo256 >= fSizeYoo256)
; 222  : 	{
; 223  : 		fSizeX /= fSizeYoo256;
; 224  : 		fSizeY = 256.0f;
; 225  : 	}
; 226  : 	else
; 227  : 	{
; 228  : 		fSizeX = 256.0f;
; 229  : 		fSizeY /= fSizeXoo256;
; 230  : 	}
; 231  : */
; 232  : 
; 233  : 	int iSizeX, iSizeY;
; 234  : 	PR_FLOAT_TO_INT(fSizeX, iSizeX);

  00019	f3 0f 10 45 fc	 movss	 xmm0, DWORD PTR _fSizeX$[ebp]
  0001e	8a d0		 mov	 dl, al
  00020	f3 0f 11 05 00
	00 00 00	 movss	 DWORD PTR ?PR_FCNV@@3MA, xmm0
  00028	d9 05 00 00 00
	00		 fld	 DWORD PTR ?PR_FCNV@@3MA	; PR_FCNV
  0002e	db 1d 00 00 00
	00		 fistp	 DWORD PTR ?PR_ICNV@@3JA
  00034	8b 0d 00 00 00
	00		 mov	 ecx, DWORD PTR ?PR_ICNV@@3JA ; PR_ICNV
  0003a	66 0f 6e c1	 movd	 xmm0, ecx
  0003e	0f 5b c0	 cvtdq2ps xmm0, xmm0
  00041	0f 2f 05 00 00
	00 00		 comiss	 xmm0, DWORD PTR ?PR_FCNV@@3MA
  00048	76 01		 jbe	 SHORT $LN3@miniMapGet
  0004a	49		 dec	 ecx
$LN3@miniMapGet:

; 235  : 	PR_FLOAT_TO_INT(fSizeY, iSizeY);

  0004b	f3 0f 10 45 f8	 movss	 xmm0, DWORD PTR _fSizeY$[ebp]
  00050	f3 0f 11 05 00
	00 00 00	 movss	 DWORD PTR ?PR_FCNV@@3MA, xmm0
  00058	d9 05 00 00 00
	00		 fld	 DWORD PTR ?PR_FCNV@@3MA	; PR_FCNV
  0005e	db 1d 00 00 00
	00		 fistp	 DWORD PTR ?PR_ICNV@@3JA
  00064	a1 00 00 00 00	 mov	 eax, DWORD PTR ?PR_ICNV@@3JA ; PR_ICNV
  00069	66 0f 6e c0	 movd	 xmm0, eax
  0006d	0f 5b c0	 cvtdq2ps xmm0, xmm0
  00070	0f 2f 05 00 00
	00 00		 comiss	 xmm0, DWORD PTR ?PR_FCNV@@3MA
  00077	76 01		 jbe	 SHORT $LN5@miniMapGet
  00079	48		 dec	 eax
$LN5@miniMapGet:

; 236  : 
; 237  : 	return Py_BuildValue("bii", (int)bGet, iSizeX, iSizeY);

  0007a	50		 push	 eax
  0007b	51		 push	 ecx
  0007c	0f b6 c2	 movzx	 eax, dl
  0007f	50		 push	 eax
  00080	68 00 00 00 00	 push	 OFFSET ??_C@_03LMKNDPCK@bii@
  00085	ff 15 00 00 00
	00		 call	 DWORD PTR __imp__Py_BuildValue
  0008b	83 c4 10	 add	 esp, 16			; 00000010H

; 238  : }

  0008e	8b e5		 mov	 esp, ebp
  00090	5d		 pop	 ebp
  00091	c3		 ret	 0
?miniMapGetAtlasSize@@YAPAU_object@@PAU1@0@Z ENDP	; miniMapGetAtlasSize
_TEXT	ENDS
; Function compile flags: /Ogtp
; File D:\_m2work\txoko-m2-work\txoko-client-src\source\UserInterface\PythonMiniMapModule.cpp
;	COMDAT ?miniMapAddWayPoint@@YAPAU_object@@PAU1@0@Z
_TEXT	SEGMENT
tv166 = -24						; size = 4
tv168 = -20						; size = 4
_buf$ = -16						; size = 4
_iID$ = -12						; size = 4
_fX$ = -8						; size = 4
_fY$ = -4						; size = 4
_poSelf$ = 8						; size = 4
_poArgs$ = 12						; size = 4
?miniMapAddWayPoint@@YAPAU_object@@PAU1@0@Z PROC	; miniMapAddWayPoint, COMDAT

; 241  : {

  00000	55		 push	 ebp
  00001	8b ec		 mov	 ebp, esp
  00003	83 ec 1c	 sub	 esp, 28			; 0000001cH

; 242  : 	int iID;
; 243  : 	if (!PyTuple_GetInteger(poArgs, 0, &iID))

  00006	8d 45 f4	 lea	 eax, DWORD PTR _iID$[ebp]
  00009	56		 push	 esi
  0000a	8b 75 0c	 mov	 esi, DWORD PTR _poArgs$[ebp]
  0000d	57		 push	 edi
  0000e	50		 push	 eax
  0000f	6a 00		 push	 0
  00011	56		 push	 esi
  00012	e8 00 00 00 00	 call	 ?PyTuple_GetInteger@@YA_NPAU_object@@HPAH@Z ; PyTuple_GetInteger
  00017	83 c4 0c	 add	 esp, 12			; 0000000cH
  0001a	84 c0		 test	 al, al
  0001c	75 10		 jne	 SHORT $LN2@miniMapAdd
$LN8@miniMapAdd:

; 261  : }

  0001e	6a 00		 push	 0
$LN9@miniMapAdd:
  00020	e8 00 00 00 00	 call	 ?Py_BuildException@@YAPAU_object@@PBDZZ ; Py_BuildException
  00025	83 c4 04	 add	 esp, 4
  00028	5f		 pop	 edi
  00029	5e		 pop	 esi
  0002a	8b e5		 mov	 esp, ebp
  0002c	5d		 pop	 ebp
  0002d	c3		 ret	 0
$LN2@miniMapAdd:

; 244  : 		return Py_BuildException();
; 245  : 	
; 246  : 	float fX;
; 247  : 	if (!PyTuple_GetFloat(poArgs, 1, &fX))

  0002e	8d 45 f8	 lea	 eax, DWORD PTR _fX$[ebp]
  00031	50		 push	 eax
  00032	6a 01		 push	 1
  00034	56		 push	 esi
  00035	e8 00 00 00 00	 call	 ?PyTuple_GetFloat@@YA_NPAU_object@@HPAM@Z ; PyTuple_GetFloat
  0003a	83 c4 0c	 add	 esp, 12			; 0000000cH
  0003d	84 c0		 test	 al, al
  0003f	74 dd		 je	 SHORT $LN8@miniMapAdd

; 248  : 		return Py_BuildException();
; 249  : 	
; 250  : 	float fY;
; 251  : 	if (!PyTuple_GetFloat(poArgs, 2, &fY))

  00041	8d 45 fc	 lea	 eax, DWORD PTR _fY$[ebp]
  00044	50		 push	 eax
  00045	6a 02		 push	 2
  00047	56		 push	 esi
  00048	e8 00 00 00 00	 call	 ?PyTuple_GetFloat@@YA_NPAU_object@@HPAM@Z ; PyTuple_GetFloat
  0004d	83 c4 0c	 add	 esp, 12			; 0000000cH
  00050	84 c0		 test	 al, al
  00052	74 ca		 je	 SHORT $LN8@miniMapAdd

; 252  : 		return Py_BuildException();
; 253  : 
; 254  : 	char * buf;
; 255  : 	if (!PyTuple_GetString(poArgs, 3, &buf))

  00054	8d 45 f0	 lea	 eax, DWORD PTR _buf$[ebp]
  00057	50		 push	 eax
  00058	6a 03		 push	 3
  0005a	56		 push	 esi
  0005b	e8 00 00 00 00	 call	 ?PyTuple_GetString@@YA_NPAU_object@@HPAPAD@Z ; PyTuple_GetString
  00060	83 c4 0c	 add	 esp, 12			; 0000000cH
  00063	6a 00		 push	 0
  00065	84 c0		 test	 al, al
  00067	74 b7		 je	 SHORT $LN9@miniMapAdd

; 256  : 		return Py_BuildException();
; 257  : 
; 258  : 	CPythonMiniMap::Instance().AddWayPoint(CPythonMiniMap::TYPE_WAYPOINT, (DWORD)iID, fX, fY, buf);

  00069	f3 0f 10 45 fc	 movss	 xmm0, DWORD PTR _fY$[ebp]
  0006e	83 ec 18	 sub	 esp, 24			; 00000018H
  00071	8b 3d 00 00 00
	00		 mov	 edi, DWORD PTR ?ms_singleton@?$CSingleton@VCPythonMiniMap@@@@0PAVCPythonMiniMap@@A ; CSingleton<CPythonMiniMap>::ms_singleton
  00077	8b cc		 mov	 ecx, esp
  00079	8b 75 f4	 mov	 esi, DWORD PTR _iID$[ebp]
  0007c	f3 0f 11 45 ec	 movss	 DWORD PTR tv168[ebp], xmm0
  00081	f3 0f 10 45 f8	 movss	 xmm0, DWORD PTR _fX$[ebp]
  00086	ff 75 f0	 push	 DWORD PTR _buf$[ebp]
  00089	f3 0f 11 45 e8	 movss	 DWORD PTR tv166[ebp], xmm0
  0008e	e8 00 00 00 00	 call	 ??0?$basic_string@DU?$char_traits@D@std@@V?$allocator@D@2@@std@@QAE@QBD@Z ; std::basic_string<char,std::char_traits<char>,std::allocator<char> >::basic_string<char,std::char_traits<char>,std::allocator<char> >
  00093	f3 0f 10 45 ec	 movss	 xmm0, DWORD PTR tv168[ebp]
  00098	f3 0f 10 5d e8	 movss	 xmm3, DWORD PTR tv166[ebp]
  0009d	51		 push	 ecx
  0009e	f3 0f 11 04 24	 movss	 DWORD PTR [esp], xmm0
  000a3	8b cf		 mov	 ecx, edi
  000a5	56		 push	 esi
  000a6	6a 06		 push	 6
  000a8	e8 00 00 00 00	 call	 ?AddWayPoint@CPythonMiniMap@@QAEXEKMMV?$basic_string@DU?$char_traits@D@std@@V?$allocator@D@2@@std@@K@Z ; CPythonMiniMap::AddWayPoint

; 259  : 	
; 260  : 	return Py_BuildNone();

  000ad	e8 00 00 00 00	 call	 ?Py_BuildNone@@YAPAU_object@@XZ ; Py_BuildNone

; 261  : }

  000b2	5f		 pop	 edi
  000b3	5e		 pop	 esi
  000b4	8b e5		 mov	 esp, ebp
  000b6	5d		 pop	 ebp
  000b7	c3		 ret	 0
?miniMapAddWayPoint@@YAPAU_object@@PAU1@0@Z ENDP	; miniMapAddWayPoint
_TEXT	ENDS
; Function compile flags: /Ogtp
; File D:\_m2work\txoko-m2-work\txoko-client-src\source\UserInterface\PythonMiniMapModule.cpp
;	COMDAT ?miniMapRemoveWayPoint@@YAPAU_object@@PAU1@0@Z
_TEXT	SEGMENT
_iID$ = -4						; size = 4
_poSelf$ = 8						; size = 4
_poArgs$ = 12						; size = 4
?miniMapRemoveWayPoint@@YAPAU_object@@PAU1@0@Z PROC	; miniMapRemoveWayPoint, COMDAT

; 264  : {

  00000	55		 push	 ebp
  00001	8b ec		 mov	 ebp, esp
  00003	51		 push	 ecx

; 265  : 	int iID;
; 266  : 	if (!PyTuple_GetInteger(poArgs, 0, &iID))

  00004	8d 45 fc	 lea	 eax, DWORD PTR _iID$[ebp]
  00007	50		 push	 eax
  00008	6a 00		 push	 0
  0000a	ff 75 0c	 push	 DWORD PTR _poArgs$[ebp]
  0000d	e8 00 00 00 00	 call	 ?PyTuple_GetInteger@@YA_NPAU_object@@HPAH@Z ; PyTuple_GetInteger
  00012	83 c4 0c	 add	 esp, 12			; 0000000cH
  00015	84 c0		 test	 al, al
  00017	75 0e		 jne	 SHORT $LN2@miniMapRem

; 267  : 		return Py_BuildException();

  00019	6a 00		 push	 0
  0001b	e8 00 00 00 00	 call	 ?Py_BuildException@@YAPAU_object@@PBDZZ ; Py_BuildException
  00020	83 c4 04	 add	 esp, 4

; 272  : }

  00023	8b e5		 mov	 esp, ebp
  00025	5d		 pop	 ebp
  00026	c3		 ret	 0
$LN2@miniMapRem:

; 268  : 	
; 269  : 	CPythonMiniMap::Instance().RemoveWayPoint((DWORD)iID);

  00027	ff 75 fc	 push	 DWORD PTR _iID$[ebp]
  0002a	8b 0d 00 00 00
	00		 mov	 ecx, DWORD PTR ?ms_singleton@?$CSingleton@VCPythonMiniMap@@@@0PAVCPythonMiniMap@@A ; CSingleton<CPythonMiniMap>::ms_singleton
  00030	e8 00 00 00 00	 call	 ?RemoveWayPoint@CPythonMiniMap@@QAEXK@Z ; CPythonMiniMap::RemoveWayPoint

; 270  : 	
; 271  : 	return Py_BuildNone();

  00035	e8 00 00 00 00	 call	 ?Py_BuildNone@@YAPAU_object@@XZ ; Py_BuildNone

; 272  : }

  0003a	8b e5		 mov	 esp, ebp
  0003c	5d		 pop	 ebp
  0003d	c3		 ret	 0
?miniMapRemoveWayPoint@@YAPAU_object@@PAU1@0@Z ENDP	; miniMapRemoveWayPoint
_TEXT	ENDS
; Function compile flags: /Ogtp
; File D:\_m2work\txoko-m2-work\txoko-client-src\source\UserInterface\PythonMiniMapModule.cpp
;	COMDAT ?miniMapRegisterAtlasWindow@@YAPAU_object@@PAU1@0@Z
_TEXT	SEGMENT
_poHandler$ = -4					; size = 4
_poSelf$ = 8						; size = 4
_poArgs$ = 12						; size = 4
?miniMapRegisterAtlasWindow@@YAPAU_object@@PAU1@0@Z PROC ; miniMapRegisterAtlasWindow, COMDAT

; 275  : {

  00000	55		 push	 ebp
  00001	8b ec		 mov	 ebp, esp
  00003	51		 push	 ecx

; 276  : 	PyObject * poHandler;
; 277  : 	if (!PyTuple_GetObject(poArgs, 0, &poHandler))

  00004	8d 45 fc	 lea	 eax, DWORD PTR _poHandler$[ebp]
  00007	50		 push	 eax
  00008	6a 00		 push	 0
  0000a	ff 75 0c	 push	 DWORD PTR _poArgs$[ebp]
  0000d	e8 00 00 00 00	 call	 ?PyTuple_GetObject@@YA_NPAU_object@@HPAPAU1@@Z ; PyTuple_GetObject
  00012	83 c4 0c	 add	 esp, 12			; 0000000cH
  00015	84 c0		 test	 al, al
  00017	75 0e		 jne	 SHORT $LN2@miniMapReg

; 278  : 		return Py_BuildException();

  00019	6a 00		 push	 0
  0001b	e8 00 00 00 00	 call	 ?Py_BuildException@@YAPAU_object@@PBDZZ ; Py_BuildException
  00020	83 c4 04	 add	 esp, 4

; 281  : }

  00023	8b e5		 mov	 esp, ebp
  00025	5d		 pop	 ebp
  00026	c3		 ret	 0
$LN2@miniMapReg:

; 279  : 	CPythonMiniMap::Instance().RegisterAtlasWindow(poHandler);

  00027	ff 75 fc	 push	 DWORD PTR _poHandler$[ebp]
  0002a	8b 0d 00 00 00
	00		 mov	 ecx, DWORD PTR ?ms_singleton@?$CSingleton@VCPythonMiniMap@@@@0PAVCPythonMiniMap@@A ; CSingleton<CPythonMiniMap>::ms_singleton
  00030	e8 00 00 00 00	 call	 ?RegisterAtlasWindow@CPythonMiniMap@@QAEXPAU_object@@@Z ; CPythonMiniMap::RegisterAtlasWindow

; 280  : 	return Py_BuildNone();

  00035	e8 00 00 00 00	 call	 ?Py_BuildNone@@YAPAU_object@@XZ ; Py_BuildNone

; 281  : }

  0003a	8b e5		 mov	 esp, ebp
  0003c	5d		 pop	 ebp
  0003d	c3		 ret	 0
?miniMapRegisterAtlasWindow@@YAPAU_object@@PAU1@0@Z ENDP ; miniMapRegisterAtlasWindow
_TEXT	ENDS
; Function compile flags: /Ogtp
; File D:\_m2work\txoko-m2-work\txoko-client-src\source\UserInterface\PythonMiniMapModule.cpp
;	COMDAT ?miniMapUnregisterAtlasWindow@@YAPAU_object@@PAU1@0@Z
_TEXT	SEGMENT
_poSelf$ = 8						; size = 4
_poArgs$ = 12						; size = 4
?miniMapUnregisterAtlasWindow@@YAPAU_object@@PAU1@0@Z PROC ; miniMapUnregisterAtlasWindow, COMDAT

; 285  : 	CPythonMiniMap::Instance().UnregisterAtlasWindow();

  00000	8b 0d 00 00 00
	00		 mov	 ecx, DWORD PTR ?ms_singleton@?$CSingleton@VCPythonMiniMap@@@@0PAVCPythonMiniMap@@A ; CSingleton<CPythonMiniMap>::ms_singleton
  00006	e8 00 00 00 00	 call	 ?UnregisterAtlasWindow@CPythonMiniMap@@QAEXXZ ; CPythonMiniMap::UnregisterAtlasWindow

; 286  : 	return Py_BuildNone();

  0000b	e9 00 00 00 00	 jmp	 ?Py_BuildNone@@YAPAU_object@@XZ ; Py_BuildNone
?miniMapUnregisterAtlasWindow@@YAPAU_object@@PAU1@0@Z ENDP ; miniMapUnregisterAtlasWindow
_TEXT	ENDS
; Function compile flags: /Ogtp
; File D:\_m2work\txoko-m2-work\txoko-client-src\source\UserInterface\PythonMiniMapModule.cpp
;	COMDAT ?miniMapGetGuildAreaID@@YAPAU_object@@PAU1@0@Z
_TEXT	SEGMENT
_fx$ = -8						; size = 4
_fy$ = -4						; size = 4
_poSelf$ = 8						; size = 4
_poArgs$ = 12						; size = 4
?miniMapGetGuildAreaID@@YAPAU_object@@PAU1@0@Z PROC	; miniMapGetGuildAreaID, COMDAT

; 290  : {

  00000	55		 push	 ebp
  00001	8b ec		 mov	 ebp, esp
  00003	83 ec 08	 sub	 esp, 8

; 291  : 	float fx;
; 292  : 	if (!PyTuple_GetFloat(poArgs, 0, &fx))

  00006	8d 45 f8	 lea	 eax, DWORD PTR _fx$[ebp]
  00009	50		 push	 eax
  0000a	6a 00		 push	 0
  0000c	ff 75 0c	 push	 DWORD PTR _poArgs$[ebp]
  0000f	e8 00 00 00 00	 call	 ?PyTuple_GetFloat@@YA_NPAU_object@@HPAM@Z ; PyTuple_GetFloat
  00014	83 c4 0c	 add	 esp, 12			; 0000000cH
  00017	84 c0		 test	 al, al
  00019	75 0e		 jne	 SHORT $LN2@miniMapGet
$LN5@miniMapGet:

; 300  : }

  0001b	6a 00		 push	 0
  0001d	e8 00 00 00 00	 call	 ?Py_BuildException@@YAPAU_object@@PBDZZ ; Py_BuildException
  00022	83 c4 04	 add	 esp, 4
  00025	8b e5		 mov	 esp, ebp
  00027	5d		 pop	 ebp
  00028	c3		 ret	 0
$LN2@miniMapGet:

; 293  : 		return Py_BuildException();
; 294  : 	float fy;
; 295  : 	if (!PyTuple_GetFloat(poArgs, 1, &fy))

  00029	8d 45 fc	 lea	 eax, DWORD PTR _fy$[ebp]
  0002c	50		 push	 eax
  0002d	6a 01		 push	 1
  0002f	ff 75 0c	 push	 DWORD PTR _poArgs$[ebp]
  00032	e8 00 00 00 00	 call	 ?PyTuple_GetFloat@@YA_NPAU_object@@HPAM@Z ; PyTuple_GetFloat
  00037	83 c4 0c	 add	 esp, 12			; 0000000cH
  0003a	84 c0		 test	 al, al
  0003c	74 dd		 je	 SHORT $LN5@miniMapGet

; 296  : 		return Py_BuildException();
; 297  : 
; 298  : 	DWORD dwGuildID = CPythonMiniMap::Instance().GetGuildAreaID(fx, fy);

  0003e	f3 0f 10 45 fc	 movss	 xmm0, DWORD PTR _fy$[ebp]
  00043	e8 00 00 00 00	 call	 __ftol3
  00048	f3 0f 10 45 f8	 movss	 xmm0, DWORD PTR _fx$[ebp]
  0004d	50		 push	 eax
  0004e	e8 00 00 00 00	 call	 __ftol3
  00053	8b 0d 00 00 00
	00		 mov	 ecx, DWORD PTR ?ms_singleton@?$CSingleton@VCPythonMiniMap@@@@0PAVCPythonMiniMap@@A ; CSingleton<CPythonMiniMap>::ms_singleton
  00059	50		 push	 eax
  0005a	e8 00 00 00 00	 call	 ?GetGuildAreaID@CPythonMiniMap@@QAEKKK@Z ; CPythonMiniMap::GetGuildAreaID

; 299  : 	return Py_BuildValue("i", dwGuildID);

  0005f	50		 push	 eax
  00060	68 00 00 00 00	 push	 OFFSET ??_C@_01KBJDNOO@i@
  00065	ff 15 00 00 00
	00		 call	 DWORD PTR __imp__Py_BuildValue
  0006b	83 c4 08	 add	 esp, 8

; 300  : }

  0006e	8b e5		 mov	 esp, ebp
  00070	5d		 pop	 ebp
  00071	c3		 ret	 0
?miniMapGetGuildAreaID@@YAPAU_object@@PAU1@0@Z ENDP	; miniMapGetGuildAreaID
_TEXT	ENDS
; Function compile flags: /Ogtp
; File D:\_m2work\txoko-m2-work\txoko-client-src\source\UserInterface\PythonMiniMapModule.cpp
;	COMDAT ?initMiniMap@@YAXXZ
_TEXT	SEGMENT
?initMiniMap@@YAXXZ PROC				; initMiniMap, COMDAT

; 303  : {

  00000	56		 push	 esi
  00001	57		 push	 edi

; 304  : 	static PyMethodDef s_methods[] = 
; 305  : 	{
; 306  : 		{ "SetScale",						miniMapSetScale,								METH_VARARGS },
; 307  : 		{ "ScaleUp",						miniMapScaleUp,									METH_VARARGS },
; 308  : 		{ "ScaleDown",						miniMapScaleDown,								METH_VARARGS },
; 309  : 		{ "SetMiniMapSize",					miniMapSetMiniMapSize,							METH_VARARGS },
; 310  : 
; 311  : 		{ "SetCenterPosition",				miniMapSetCenterPosition,						METH_VARARGS },
; 312  : 
; 313  : 		{ "Destroy",						miniMapDestroy,									METH_VARARGS },
; 314  : 		{ "Create",							miniMapCreate,									METH_VARARGS },
; 315  : 		{ "Update",							miniMapUpdate,									METH_VARARGS },
; 316  : 		{ "Render",							miniMapRender,									METH_VARARGS },
; 317  : 
; 318  : 		{ "Show",							miniMapShow,									METH_VARARGS },
; 319  : 		{ "Hide",							miniMapHide,									METH_VARARGS },
; 320  : 
; 321  : 		{ "isShow",							miniMapisShow,									METH_VARARGS },
; 322  : 
; 323  : 		{ "GetInfo",						miniMapGetInfo,									METH_VARARGS },
; 324  : 
; 325  : 		{ "LoadAtlas",						miniMapLoadAtlas,								METH_VARARGS },
; 326  : 		{ "UpdateAtlas",					miniMapUpdateAtlas,								METH_VARARGS },
; 327  : 		{ "RenderAtlas",					miniMapRenderAtlas,								METH_VARARGS },
; 328  : 		{ "ShowAtlas",						miniMapShowAtlas,								METH_VARARGS },
; 329  : 		{ "HideAtlas",						miniMapHideAtlas,								METH_VARARGS },
; 330  : 		{ "isShowAtlas",					miniMapisShowAtlas,								METH_VARARGS },
; 331  : 		{ "IsAtlas",						miniMapIsAtlas,									METH_VARARGS },
; 332  : 		{ "GetAtlasInfo",					miniMapGetAtlasInfo,							METH_VARARGS },
; 333  : 		{ "GetAtlasSize",					miniMapGetAtlasSize,							METH_VARARGS },
; 334  : 
; 335  : 		{ "AddWayPoint",					miniMapAddWayPoint,								METH_VARARGS },
; 336  : 		{ "RemoveWayPoint",					miniMapRemoveWayPoint,							METH_VARARGS },
; 337  : 
; 338  : 		{ "RegisterAtlasWindow",			miniMapRegisterAtlasWindow,						METH_VARARGS },
; 339  : 		{ "UnregisterAtlasWindow",			miniMapUnregisterAtlasWindow,					METH_VARARGS },
; 340  : 
; 341  : 		{ "GetGuildAreaID",					miniMapGetGuildAreaID,							METH_VARARGS },
; 342  : 
; 343  : 		{ NULL, NULL },
; 344  : 	};
; 345  : 
; 346  : 	PyObject * poModule = Py_InitModule("miniMap", s_methods);

  00002	68 f5 03 00 00	 push	 1013			; 000003f5H
  00007	6a 00		 push	 0
  00009	6a 00		 push	 0
  0000b	68 00 00 00 00	 push	 OFFSET ?s_methods@?1??initMiniMap@@YAXXZ@4PAUPyMethodDef@@A
  00010	68 00 00 00 00	 push	 OFFSET ??_C@_07GGJFLPNN@miniMap@
  00015	ff 15 00 00 00
	00		 call	 DWORD PTR __imp__Py_InitModule4

; 347  : 	
; 348  : 	PyModule_AddIntConstant(poModule, "TYPE_OPC",			CPythonMiniMap::TYPE_OPC);

  0001b	8b 35 00 00 00
	00		 mov	 esi, DWORD PTR __imp__PyModule_AddIntConstant
  00021	8b f8		 mov	 edi, eax
  00023	6a 00		 push	 0
  00025	68 00 00 00 00	 push	 OFFSET ??_C@_08MOLNEDKJ@TYPE_OPC@
  0002a	57		 push	 edi
  0002b	ff d6		 call	 esi

; 349  : 	PyModule_AddIntConstant(poModule, "TYPE_OPCPVP",		CPythonMiniMap::TYPE_OPCPVP);

  0002d	6a 01		 push	 1
  0002f	68 00 00 00 00	 push	 OFFSET ??_C@_0M@KBKKLFCC@TYPE_OPCPVP@
  00034	57		 push	 edi
  00035	ff d6		 call	 esi

; 350  : 	PyModule_AddIntConstant(poModule, "TYPE_OPCPVPSELF",	CPythonMiniMap::TYPE_OPCPVPSELF);

  00037	6a 02		 push	 2
  00039	68 00 00 00 00	 push	 OFFSET ??_C@_0BA@DAENBNGA@TYPE_OPCPVPSELF@
  0003e	57		 push	 edi
  0003f	ff d6		 call	 esi

; 351  : 	PyModule_AddIntConstant(poModule, "TYPE_NPC",			CPythonMiniMap::TYPE_NPC);

  00041	6a 03		 push	 3
  00043	68 00 00 00 00	 push	 OFFSET ??_C@_08HGABCEMM@TYPE_NPC@
  00048	57		 push	 edi
  00049	ff d6		 call	 esi
  0004b	83 c4 44	 add	 esp, 68			; 00000044H

; 352  : 	PyModule_AddIntConstant(poModule, "TYPE_MONSTER",		CPythonMiniMap::TYPE_MONSTER);

  0004e	6a 04		 push	 4
  00050	68 00 00 00 00	 push	 OFFSET ??_C@_0N@MFCFPPMD@TYPE_MONSTER@
  00055	57		 push	 edi
  00056	ff d6		 call	 esi

; 353  : 	PyModule_AddIntConstant(poModule, "TYPE_WARP",			CPythonMiniMap::TYPE_WARP);

  00058	6a 05		 push	 5
  0005a	68 00 00 00 00	 push	 OFFSET ??_C@_09LAKONOKF@TYPE_WARP@
  0005f	57		 push	 edi
  00060	ff d6		 call	 esi

; 354  : 	PyModule_AddIntConstant(poModule, "TYPE_WAYPOINT",		CPythonMiniMap::TYPE_WAYPOINT);

  00062	6a 06		 push	 6
  00064	68 00 00 00 00	 push	 OFFSET ??_C@_0O@JMCMGHKJ@TYPE_WAYPOINT@
  00069	57		 push	 edi
  0006a	ff d6		 call	 esi

; 355  : 	PyModule_AddIntConstant(poModule, "TYPE_PARTY",		CPythonMiniMap::TYPE_PARTY);

  0006c	6a 07		 push	 7
  0006e	68 00 00 00 00	 push	 OFFSET ??_C@_0L@NHHJIHMA@TYPE_PARTY@
  00073	57		 push	 edi
  00074	ff d6		 call	 esi

; 356  : 	PyModule_AddIntConstant(poModule, "TYPE_EMPIRE",		CPythonMiniMap::TYPE_EMPIRE);

  00076	6a 08		 push	 8
  00078	68 00 00 00 00	 push	 OFFSET ??_C@_0M@IAHPEAKG@TYPE_EMPIRE@
  0007d	57		 push	 edi
  0007e	ff d6		 call	 esi
  00080	83 c4 3c	 add	 esp, 60			; 0000003cH
  00083	5f		 pop	 edi
  00084	5e		 pop	 esi

; 357  : }

  00085	c3		 ret	 0
?initMiniMap@@YAXXZ ENDP				; initMiniMap
_TEXT	ENDS
END
