; Listing generated by Microsoft (R) Optimizing Compiler Version 19.44.35217.0 

	TITLE	d:\_m2work\server client tmp4\clientvs22\vs_files\userinterface\distribute\pythonnetworkstreamphaseloading.obj
	.686P
	.XMM
	include listing.inc
	.model	flat

INCLUDELIB OLDNAMES

PUBLIC	??_C@_07BINAGFIJ@Loading@			; `string'
PUBLIC	??_C@_08JHMIFHMN@LoadData@			; `string'
PUBLIC	??_C@_0BO@GPONOGFJ@?$CD?$CD?5Network?5?9?5Loading?5Phase?5?$CD?$CD@ ; `string'
PUBLIC	??_C@_0BK@DINNAMGH@Send?5EnterFrontGamePacket@	; `string'
EXTRN	?DeleteAllInstances@CEffectManager@@QAEXXZ:PROC	; CEffectManager::DeleteAllInstances
EXTRN	?DeleteAllInstances@CFlyingManager@@QAEXXZ:PROC	; CFlyingManager::DeleteAllInstances
;	COMDAT ??_C@_0BK@DINNAMGH@Send?5EnterFrontGamePacket@
CONST	SEGMENT
??_C@_0BK@DINNAMGH@Send?5EnterFrontGamePacket@ DB 'Send EnterFrontGamePac'
	DB	'ket', 00H					; `string'
CONST	ENDS
;	COMDAT ??_C@_0BO@GPONOGFJ@?$CD?$CD?5Network?5?9?5Loading?5Phase?5?$CD?$CD@
CONST	SEGMENT
??_C@_0BO@GPONOGFJ@?$CD?$CD?5Network?5?9?5Loading?5Phase?5?$CD?$CD@ DB '#'
	DB	'# Network - Loading Phase ##', 00H		; `string'
CONST	ENDS
;	COMDAT ??_C@_08JHMIFHMN@LoadData@
CONST	SEGMENT
??_C@_08JHMIFHMN@LoadData@ DB 'LoadData', 00H		; `string'
CONST	ENDS
;	COMDAT ??_C@_07BINAGFIJ@Loading@
CONST	SEGMENT
??_C@_07BINAGFIJ@Loading@ DB 'Loading', 00H		; `string'
PUBLIC	?__SetFieldMusicFileInfo@CPythonNetworkStream@@IAEXPBDM@Z ; CPythonNetworkStream::__SetFieldMusicFileInfo
PUBLIC	?__SetFieldMusicFileName@CPythonNetworkStream@@IAEXPBD@Z ; CPythonNetworkStream::__SetFieldMusicFileName
PUBLIC	?RecvMainCharacter4_BGM_VOL@CPythonNetworkStream@@IAE_NXZ ; CPythonNetworkStream::RecvMainCharacter4_BGM_VOL
PUBLIC	?RecvMainCharacter3_BGM@CPythonNetworkStream@@IAE_NXZ ; CPythonNetworkStream::RecvMainCharacter3_BGM
PUBLIC	?RecvMainCharacter2_EMPIRE@CPythonNetworkStream@@IAE_NXZ ; CPythonNetworkStream::RecvMainCharacter2_EMPIRE
PUBLIC	?RecvMainCharacter@CPythonNetworkStream@@IAE_NXZ ; CPythonNetworkStream::RecvMainCharacter
PUBLIC	?LoadingPhase@CPythonNetworkStream@@IAEXXZ	; CPythonNetworkStream::LoadingPhase
PUBLIC	?__LeaveLoadingPhase@CPythonNetworkStream@@IAEXXZ ; CPythonNetworkStream::__LeaveLoadingPhase
PUBLIC	?__RecvPlayerPoints@CPythonNetworkStream@@IAE_NXZ ; CPythonNetworkStream::__RecvPlayerPoints
PUBLIC	?__FilterInsult@CPythonNetworkStream@@IAEXPADI@Z ; CPythonNetworkStream::__FilterInsult
PUBLIC	?StartGame@CPythonNetworkStream@@QAEXXZ		; CPythonNetworkStream::StartGame
PUBLIC	?GetFieldMusicFileName@CPythonNetworkStream@@QAEPBDXZ ; CPythonNetworkStream::GetFieldMusicFileName
PUBLIC	?GetFieldMusicVolume@CPythonNetworkStream@@QAEMXZ ; CPythonNetworkStream::GetFieldMusicVolume
PUBLIC	?EnableChatInsultFilter@CPythonNetworkStream@@QAEX_N@Z ; CPythonNetworkStream::EnableChatInsultFilter
PUBLIC	?IsChatInsultIn@CPythonNetworkStream@@QAE_NPBD@Z ; CPythonNetworkStream::IsChatInsultIn
PUBLIC	?IsInsultIn@CPythonNetworkStream@@QAE_NPBD@Z	; CPythonNetworkStream::IsInsultIn
PUBLIC	?SendEnterGame@CPythonNetworkStream@@QAE_NXZ	; CPythonNetworkStream::SendEnterGame
PUBLIC	?SetLoadingPhase@CPythonNetworkStream@@QAEXXZ	; CPythonNetworkStream::SetLoadingPhase
PUBLIC	?LoadInsultList@CPythonNetworkStream@@QAE_NPBD@Z ; CPythonNetworkStream::LoadInsultList
PUBLIC	?LoadConvertTable@CPythonNetworkStream@@QAE_NKPBD@Z ; CPythonNetworkStream::LoadConvertTable
;	COMDAT xdata$x
xdata$x	SEGMENT
__ehfuncinfo$?LoadConvertTable@CPythonNetworkStream@@QAE_NKPBD@Z DD 019930522H
	DD	01H
	DD	FLAT:__unwindtable$?LoadConvertTable@CPythonNetworkStream@@QAE_NKPBD@Z
	DD	2 DUP(00H)
	DD	2 DUP(00H)
	DD	00H
	DD	01H
__unwindtable$?LoadConvertTable@CPythonNetworkStream@@QAE_NKPBD@Z DD 0ffffffffH
	DD	FLAT:__unwindfunclet$?LoadConvertTable@CPythonNetworkStream@@QAE_NKPBD@Z$0
xdata$x	ENDS
;	COMDAT xdata$x
xdata$x	SEGMENT
__ehfuncinfo$?LoadInsultList@CPythonNetworkStream@@QAE_NPBD@Z DD 019930522H
	DD	02H
	DD	FLAT:__unwindtable$?LoadInsultList@CPythonNetworkStream@@QAE_NPBD@Z
	DD	2 DUP(00H)
	DD	2 DUP(00H)
	DD	00H
	DD	01H
__unwindtable$?LoadInsultList@CPythonNetworkStream@@QAE_NPBD@Z DD 0ffffffffH
	DD	FLAT:__unwindfunclet$?LoadInsultList@CPythonNetworkStream@@QAE_NPBD@Z$0
	DD	00H
	DD	FLAT:__unwindfunclet$?LoadInsultList@CPythonNetworkStream@@QAE_NPBD@Z$1
?gs_fieldMusic_volume@@3MA DD 03ca3d70br	; 0.02	; gs_fieldMusic_volume
?gs_fieldMusic_fileName@@3V?$basic_string@DU?$char_traits@D@std@@V?$allocator@D@2@@std@@A DB 00H ; gs_fieldMusic_fileName
	DB	00H
	DB	00H
	DB	00H
	DB	00H
	DB	00H
	DB	00H
	DB	00H
	DB	00H
	DB	00H
	DB	00H
	DB	00H
	DB	00H
	DB	00H
	DB	00H
	DB	00H
	DD	00H
	DD	0fH
?gs_fieldMusic_fileName$initializer$@@3P6AXXZA DD FLAT:??__Egs_fieldMusic_fileName@@YAXXZ ; gs_fieldMusic_fileName$initializer$
; Function compile flags: /Ogtp
; File D:\_m2work\Server Client TMP4\ClientVS22\source\UserInterface\PythonNetworkStreamPhaseLoading.cpp
;	COMDAT ?LoadConvertTable@CPythonNetworkStream@@QAE_NKPBD@Z
_TEXT	SEGMENT
_pvData$ = -352						; size = 4
_this$GSCopy$1$ = -348					; size = 4
$T2 = -341						; size = 1
_file$ = -340						; size = 324
__$ArrayPad$ = -16					; size = 4
__$EHRec$ = -12						; size = 12
_dwEmpireID$ = 8					; size = 4
_c_szFileName$ = 12					; size = 4
?LoadConvertTable@CPythonNetworkStream@@QAE_NKPBD@Z PROC ; CPythonNetworkStream::LoadConvertTable, COMDAT
; _this$ = ecx

; 54   : {

  00000	55		 push	 ebp
  00001	8b ec		 mov	 ebp, esp
  00003	6a ff		 push	 -1
  00005	68 00 00 00 00	 push	 __ehhandler$?LoadConvertTable@CPythonNetworkStream@@QAE_NKPBD@Z
  0000a	64 a1 00 00 00
	00		 mov	 eax, DWORD PTR fs:0
  00010	50		 push	 eax
  00011	81 ec 54 01 00
	00		 sub	 esp, 340		; 00000154H
  00017	a1 00 00 00 00	 mov	 eax, DWORD PTR ___security_cookie
  0001c	33 c5		 xor	 eax, ebp
  0001e	89 45 f0	 mov	 DWORD PTR __$ArrayPad$[ebp], eax
  00021	56		 push	 esi
  00022	57		 push	 edi
  00023	50		 push	 eax
  00024	8d 45 f4	 lea	 eax, DWORD PTR __$EHRec$[ebp]
  00027	64 a3 00 00 00
	00		 mov	 DWORD PTR fs:0, eax
  0002d	89 8d a4 fe ff
	ff		 mov	 DWORD PTR _this$GSCopy$1$[ebp], ecx
  00033	8b 75 08	 mov	 esi, DWORD PTR _dwEmpireID$[ebp]
  00036	8b 7d 0c	 mov	 edi, DWORD PTR _c_szFileName$[ebp]

; 55   : 	if (dwEmpireID<1 || dwEmpireID>=4)

  00039	8d 46 ff	 lea	 eax, DWORD PTR [esi-1]
  0003c	83 f8 02	 cmp	 eax, 2
  0003f	0f 87 ed 00 00
	00		 ja	 $LN3@LoadConver

; 57   : 
; 58   : 	CMappedFile file;

  00045	8d 8d ac fe ff
	ff		 lea	 ecx, DWORD PTR _file$[ebp]
  0004b	e8 00 00 00 00	 call	 ??0CMappedFile@@QAE@XZ	; CMappedFile::CMappedFile

; 59   : 	const VOID* pvData;
; 60   : 	if (!CEterPackManager::Instance().Get(file, c_szFileName, &pvData))

  00050	8d 85 a0 fe ff
	ff		 lea	 eax, DWORD PTR _pvData$[ebp]
  00056	c7 45 fc 00 00
	00 00		 mov	 DWORD PTR __$EHRec$[ebp+8], 0
  0005d	8b 0d 00 00 00
	00		 mov	 ecx, DWORD PTR ?ms_singleton@?$CSingleton@VCEterPackManager@@@@0PAVCEterPackManager@@A ; CSingleton<CEterPackManager>::ms_singleton
  00063	50		 push	 eax
  00064	57		 push	 edi
  00065	8d 85 ac fe ff
	ff		 lea	 eax, DWORD PTR _file$[ebp]
  0006b	50		 push	 eax
  0006c	e8 00 00 00 00	 call	 ?Get@CEterPackManager@@QAE_NAAVCMappedFile@@PBDPAPBX@Z ; CEterPackManager::Get
  00071	84 c0		 test	 al, al
  00073	0f 84 9f 00 00
	00		 je	 $LN8@LoadConver

; 61   : 		return false;
; 62   : 
; 63   : 	DWORD dwEngCount=26;
; 64   : 	DWORD dwHanCount=(0xc8-0xb0+1)*(0xfe-0xa1+1);
; 65   : 	DWORD dwHanSize=dwHanCount*2;
; 66   : 	DWORD dwFileSize=dwEngCount*2+dwHanSize;
; 67   : 
; 68   : 	if (file.Size()<dwFileSize)

  00079	8d 8d ac fe ff
	ff		 lea	 ecx, DWORD PTR _file$[ebp]
  0007f	e8 00 00 00 00	 call	 ?Size@CMappedFile@@QAEKXZ ; CMappedFile::Size
  00084	3d 90 12 00 00	 cmp	 eax, 4752		; 00001290H
  00089	0f 82 89 00 00
	00		 jb	 $LN8@LoadConver

; 69   : 		return false;
; 70   : 
; 71   : 	char* pcData=(char*)pvData;
; 72   : 
; 73   : 	STextConvertTable& rkTextConvTable=m_aTextConvTable[dwEmpireID-1];		
; 74   : 	memcpy(rkTextConvTable.acUpper, pcData, dwEngCount);pcData+=dwEngCount;

  0008f	8b 8d a0 fe ff
	ff		 mov	 ecx, DWORD PTR _pvData$[ebp]
  00095	69 d6 44 27 00
	00		 imul	 edx, esi, 10052

; 75   : 	memcpy(rkTextConvTable.acLower, pcData, dwEngCount);pcData+=dwEngCount;
; 76   : 	memcpy(rkTextConvTable.aacHan, pcData, dwHanSize);

  0009b	68 5c 12 00 00	 push	 4700			; 0000125cH
  000a0	0f 10 01	 movups	 xmm0, XMMWORD PTR [ecx]
  000a3	03 95 a4 fe ff
	ff		 add	 edx, DWORD PTR _this$GSCopy$1$[ebp]
  000a9	0f 11 82 e8 db
	ff ff		 movups	 XMMWORD PTR [edx-9240], xmm0
  000b0	f3 0f 7e 41 10	 movq	 xmm0, QWORD PTR [ecx+16]
  000b5	66 0f d6 82 f8
	db ff ff	 movq	 QWORD PTR [edx-9224], xmm0
  000bd	0f b7 41 18	 movzx	 eax, WORD PTR [ecx+24]
  000c1	66 89 82 00 dc
	ff ff		 mov	 WORD PTR [edx-9216], ax
  000c8	0f 10 41 1a	 movups	 xmm0, XMMWORD PTR [ecx+26]
  000cc	0f 11 82 02 dc
	ff ff		 movups	 XMMWORD PTR [edx-9214], xmm0
  000d3	f3 0f 7e 41 2a	 movq	 xmm0, QWORD PTR [ecx+42]
  000d8	66 0f d6 82 12
	dc ff ff	 movq	 QWORD PTR [edx-9198], xmm0
  000e0	0f b7 41 32	 movzx	 eax, WORD PTR [ecx+50]
  000e4	66 89 82 1a dc
	ff ff		 mov	 WORD PTR [edx-9190], ax
  000eb	8d 41 34	 lea	 eax, DWORD PTR [ecx+52]
  000ee	50		 push	 eax
  000ef	8d 82 1c dc ff
	ff		 lea	 eax, DWORD PTR [edx-9188]
  000f5	50		 push	 eax
  000f6	e8 00 00 00 00	 call	 _memcpy
  000fb	83 c4 0c	 add	 esp, 12			; 0000000cH

; 77   : 
; 78   : 	return true;

  000fe	c6 85 ab fe ff
	ff 01		 mov	 BYTE PTR $T2[ebp], 1
  00105	8d 8d ac fe ff
	ff		 lea	 ecx, DWORD PTR _file$[ebp]
  0010b	e8 00 00 00 00	 call	 ??1CMappedFile@@UAE@XZ	; CMappedFile::~CMappedFile
  00110	8a 85 ab fe ff
	ff		 mov	 al, BYTE PTR $T2[ebp]
  00116	eb 1c		 jmp	 SHORT $LN1@LoadConver
$LN8@LoadConver:
  00118	8d 8d ac fe ff
	ff		 lea	 ecx, DWORD PTR _file$[ebp]
  0011e	c6 85 ab fe ff
	ff 00		 mov	 BYTE PTR $T2[ebp], 0
  00125	e8 00 00 00 00	 call	 ??1CMappedFile@@UAE@XZ	; CMappedFile::~CMappedFile
  0012a	8a 85 ab fe ff
	ff		 mov	 al, BYTE PTR $T2[ebp]
  00130	eb 02		 jmp	 SHORT $LN1@LoadConver
$LN3@LoadConver:

; 56   : 		return false;

  00132	32 c0		 xor	 al, al
$LN1@LoadConver:

; 79   : }

  00134	8b 4d f4	 mov	 ecx, DWORD PTR __$EHRec$[ebp]
  00137	64 89 0d 00 00
	00 00		 mov	 DWORD PTR fs:0, ecx
  0013e	59		 pop	 ecx
  0013f	5f		 pop	 edi
  00140	5e		 pop	 esi
  00141	8b 4d f0	 mov	 ecx, DWORD PTR __$ArrayPad$[ebp]
  00144	33 cd		 xor	 ecx, ebp
  00146	e8 00 00 00 00	 call	 @__security_check_cookie@4
  0014b	8b e5		 mov	 esp, ebp
  0014d	5d		 pop	 ebp
  0014e	c2 08 00	 ret	 8
_TEXT	ENDS
;	COMDAT text$x
text$x	SEGMENT
__unwindfunclet$?LoadConvertTable@CPythonNetworkStream@@QAE_NKPBD@Z$0:
  00000	8d 8d ac fe ff
	ff		 lea	 ecx, DWORD PTR _file$[ebp]
  00006	e9 00 00 00 00	 jmp	 ??1CMappedFile@@UAE@XZ	; CMappedFile::~CMappedFile
  0000b	cc		 int	 3
  0000c	cc		 int	 3
  0000d	cc		 int	 3
  0000e	cc		 int	 3
  0000f	cc		 int	 3
__ehhandler$?LoadConvertTable@CPythonNetworkStream@@QAE_NKPBD@Z:
  00010	90		 npad	 1
  00011	90		 npad	 1
  00012	8b 54 24 08	 mov	 edx, DWORD PTR [esp+8]
  00016	8d 42 0c	 lea	 eax, DWORD PTR [edx+12]
  00019	8b 8a a0 fe ff
	ff		 mov	 ecx, DWORD PTR [edx-352]
  0001f	33 c8		 xor	 ecx, eax
  00021	e8 00 00 00 00	 call	 @__security_check_cookie@4
  00026	8b 4a fc	 mov	 ecx, DWORD PTR [edx-4]
  00029	33 c8		 xor	 ecx, eax
  0002b	e8 00 00 00 00	 call	 @__security_check_cookie@4
  00030	b8 00 00 00 00	 mov	 eax, OFFSET __ehfuncinfo$?LoadConvertTable@CPythonNetworkStream@@QAE_NKPBD@Z
  00035	e9 00 00 00 00	 jmp	 ___CxxFrameHandler3
text$x	ENDS
?LoadConvertTable@CPythonNetworkStream@@QAE_NKPBD@Z ENDP ; CPythonNetworkStream::LoadConvertTable
; Function compile flags: /Ogtp
; File D:\_m2work\Server Client TMP4\ClientVS22\source\UserInterface\PythonNetworkStreamPhaseLoading.cpp
;	COMDAT ?LoadInsultList@CPythonNetworkStream@@QAE_NPBD@Z
_TEXT	SEGMENT
_kMemTextFileLoader$ = -360				; size = 16
_pvData$ = -344						; size = 4
_file$ = -340						; size = 324
__$ArrayPad$ = -16					; size = 4
__$EHRec$ = -12						; size = 12
_c_szInsultListFileName$ = 8				; size = 4
?LoadInsultList@CPythonNetworkStream@@QAE_NPBD@Z PROC	; CPythonNetworkStream::LoadInsultList, COMDAT
; _this$ = ecx

; 35   : {

  00000	55		 push	 ebp
  00001	8b ec		 mov	 ebp, esp
  00003	6a ff		 push	 -1
  00005	68 00 00 00 00	 push	 __ehhandler$?LoadInsultList@CPythonNetworkStream@@QAE_NPBD@Z
  0000a	64 a1 00 00 00
	00		 mov	 eax, DWORD PTR fs:0
  00010	50		 push	 eax
  00011	81 ec 5c 01 00
	00		 sub	 esp, 348		; 0000015cH
  00017	a1 00 00 00 00	 mov	 eax, DWORD PTR ___security_cookie
  0001c	33 c5		 xor	 eax, ebp
  0001e	89 45 f0	 mov	 DWORD PTR __$ArrayPad$[ebp], eax
  00021	53		 push	 ebx
  00022	56		 push	 esi
  00023	57		 push	 edi
  00024	50		 push	 eax
  00025	8d 45 f4	 lea	 eax, DWORD PTR __$EHRec$[ebp]
  00028	64 a3 00 00 00
	00		 mov	 DWORD PTR fs:0, eax
  0002e	8b f9		 mov	 edi, ecx
  00030	8b 75 08	 mov	 esi, DWORD PTR _c_szInsultListFileName$[ebp]

; 36   : 	CMappedFile file;

  00033	8d 8d ac fe ff
	ff		 lea	 ecx, DWORD PTR _file$[ebp]
  00039	e8 00 00 00 00	 call	 ??0CMappedFile@@QAE@XZ	; CMappedFile::CMappedFile

; 37   : 	const VOID* pvData;
; 38   : 	if (!CEterPackManager::Instance().Get(file, c_szInsultListFileName, &pvData))

  0003e	8d 85 a8 fe ff
	ff		 lea	 eax, DWORD PTR _pvData$[ebp]
  00044	c7 45 fc 00 00
	00 00		 mov	 DWORD PTR __$EHRec$[ebp+8], 0
  0004b	8b 0d 00 00 00
	00		 mov	 ecx, DWORD PTR ?ms_singleton@?$CSingleton@VCEterPackManager@@@@0PAVCEterPackManager@@A ; CSingleton<CEterPackManager>::ms_singleton
  00051	50		 push	 eax
  00052	56		 push	 esi
  00053	8d 85 ac fe ff
	ff		 lea	 eax, DWORD PTR _file$[ebp]
  00059	50		 push	 eax
  0005a	e8 00 00 00 00	 call	 ?Get@CEterPackManager@@QAE_NAAVCMappedFile@@PBDPAPBX@Z ; CEterPackManager::Get
  0005f	84 c0		 test	 al, al
  00061	75 04		 jne	 SHORT $LN5@LoadInsult
  00063	32 db		 xor	 bl, bl
  00065	eb 7e		 jmp	 SHORT $LN9@LoadInsult
$LN5@LoadInsult:

; 39   : 		return false;
; 40   : 
; 41   : 	CMemoryTextFileLoader kMemTextFileLoader;

  00067	8d 8d 98 fe ff
	ff		 lea	 ecx, DWORD PTR _kMemTextFileLoader$[ebp]
  0006d	e8 00 00 00 00	 call	 ??0CMemoryTextFileLoader@@QAE@XZ ; CMemoryTextFileLoader::CMemoryTextFileLoader
  00072	c6 45 fc 01	 mov	 BYTE PTR __$EHRec$[ebp+8], 1

; 42   : 	kMemTextFileLoader.Bind(file.Size(), pvData);

  00076	8d 8d ac fe ff
	ff		 lea	 ecx, DWORD PTR _file$[ebp]
  0007c	8b b5 a8 fe ff
	ff		 mov	 esi, DWORD PTR _pvData$[ebp]
  00082	e8 00 00 00 00	 call	 ?Size@CMappedFile@@QAEKXZ ; CMappedFile::Size
  00087	56		 push	 esi
  00088	50		 push	 eax
  00089	8d 8d 98 fe ff
	ff		 lea	 ecx, DWORD PTR _kMemTextFileLoader$[ebp]
  0008f	e8 00 00 00 00	 call	 ?Bind@CMemoryTextFileLoader@@QAEXHPBX@Z ; CMemoryTextFileLoader::Bind

; 43   : 
; 44   : 	m_kInsultChecker.Clear();

  00094	8d 8f 14 79 00
	00		 lea	 ecx, DWORD PTR [edi+30996]
  0009a	e8 00 00 00 00	 call	 ?Clear@CInsultChecker@@QAEXXZ ; CInsultChecker::Clear

; 45   : 	for (DWORD dwLineIndex=0; dwLineIndex<kMemTextFileLoader.GetLineCount(); ++dwLineIndex)

  0009f	8d 8d 98 fe ff
	ff		 lea	 ecx, DWORD PTR _kMemTextFileLoader$[ebp]
  000a5	33 f6		 xor	 esi, esi
  000a7	e8 00 00 00 00	 call	 ?GetLineCount@CMemoryTextFileLoader@@QAEKXZ ; CMemoryTextFileLoader::GetLineCount
  000ac	85 c0		 test	 eax, eax
  000ae	74 28		 je	 SHORT $LN3@LoadInsult
$LL4@LoadInsult:

; 46   : 	{
; 47   : 		const std::string& c_rstLine=kMemTextFileLoader.GetLineString(dwLineIndex);		

  000b0	56		 push	 esi
  000b1	8d 8d 98 fe ff
	ff		 lea	 ecx, DWORD PTR _kMemTextFileLoader$[ebp]
  000b7	e8 00 00 00 00	 call	 ?GetLineString@CMemoryTextFileLoader@@QAEABV?$basic_string@DU?$char_traits@D@std@@V?$allocator@D@2@@std@@K@Z ; CMemoryTextFileLoader::GetLineString

; 48   : 		m_kInsultChecker.AppendInsult(c_rstLine);

  000bc	50		 push	 eax
  000bd	8d 8f 14 79 00
	00		 lea	 ecx, DWORD PTR [edi+30996]
  000c3	e8 00 00 00 00	 call	 ?AppendInsult@CInsultChecker@@QAEXABV?$basic_string@DU?$char_traits@D@std@@V?$allocator@D@2@@std@@@Z ; CInsultChecker::AppendInsult
  000c8	8d 8d 98 fe ff
	ff		 lea	 ecx, DWORD PTR _kMemTextFileLoader$[ebp]
  000ce	46		 inc	 esi
  000cf	e8 00 00 00 00	 call	 ?GetLineCount@CMemoryTextFileLoader@@QAEKXZ ; CMemoryTextFileLoader::GetLineCount
  000d4	3b f0		 cmp	 esi, eax
  000d6	72 d8		 jb	 SHORT $LL4@LoadInsult
$LN3@LoadInsult:

; 49   : 	}
; 50   : 	return true;

  000d8	8d 8d 98 fe ff
	ff		 lea	 ecx, DWORD PTR _kMemTextFileLoader$[ebp]
  000de	b3 01		 mov	 bl, 1
  000e0	e8 00 00 00 00	 call	 ??1CMemoryTextFileLoader@@UAE@XZ ; CMemoryTextFileLoader::~CMemoryTextFileLoader
$LN9@LoadInsult:
  000e5	8d 8d ac fe ff
	ff		 lea	 ecx, DWORD PTR _file$[ebp]
  000eb	e8 00 00 00 00	 call	 ??1CMappedFile@@UAE@XZ	; CMappedFile::~CMappedFile
  000f0	8a c3		 mov	 al, bl

; 51   : }

  000f2	8b 4d f4	 mov	 ecx, DWORD PTR __$EHRec$[ebp]
  000f5	64 89 0d 00 00
	00 00		 mov	 DWORD PTR fs:0, ecx
  000fc	59		 pop	 ecx
  000fd	5f		 pop	 edi
  000fe	5e		 pop	 esi
  000ff	5b		 pop	 ebx
  00100	8b 4d f0	 mov	 ecx, DWORD PTR __$ArrayPad$[ebp]
  00103	33 cd		 xor	 ecx, ebp
  00105	e8 00 00 00 00	 call	 @__security_check_cookie@4
  0010a	8b e5		 mov	 esp, ebp
  0010c	5d		 pop	 ebp
  0010d	c2 04 00	 ret	 4
_TEXT	ENDS
;	COMDAT text$x
text$x	SEGMENT
__unwindfunclet$?LoadInsultList@CPythonNetworkStream@@QAE_NPBD@Z$0:
  00000	8d 8d ac fe ff
	ff		 lea	 ecx, DWORD PTR _file$[ebp]
  00006	e9 00 00 00 00	 jmp	 ??1CMappedFile@@UAE@XZ	; CMappedFile::~CMappedFile
__unwindfunclet$?LoadInsultList@CPythonNetworkStream@@QAE_NPBD@Z$1:
  0000b	8d 8d 98 fe ff
	ff		 lea	 ecx, DWORD PTR _kMemTextFileLoader$[ebp]
  00011	e9 00 00 00 00	 jmp	 ??1CMemoryTextFileLoader@@UAE@XZ ; CMemoryTextFileLoader::~CMemoryTextFileLoader
  00016	cc		 int	 3
  00017	cc		 int	 3
  00018	cc		 int	 3
  00019	cc		 int	 3
  0001a	cc		 int	 3
__ehhandler$?LoadInsultList@CPythonNetworkStream@@QAE_NPBD@Z:
  0001b	90		 npad	 1
  0001c	90		 npad	 1
  0001d	8b 54 24 08	 mov	 edx, DWORD PTR [esp+8]
  00021	8d 42 0c	 lea	 eax, DWORD PTR [edx+12]
  00024	8b 8a 94 fe ff
	ff		 mov	 ecx, DWORD PTR [edx-364]
  0002a	33 c8		 xor	 ecx, eax
  0002c	e8 00 00 00 00	 call	 @__security_check_cookie@4
  00031	8b 4a fc	 mov	 ecx, DWORD PTR [edx-4]
  00034	33 c8		 xor	 ecx, eax
  00036	e8 00 00 00 00	 call	 @__security_check_cookie@4
  0003b	b8 00 00 00 00	 mov	 eax, OFFSET __ehfuncinfo$?LoadInsultList@CPythonNetworkStream@@QAE_NPBD@Z
  00040	e9 00 00 00 00	 jmp	 ___CxxFrameHandler3
text$x	ENDS
?LoadInsultList@CPythonNetworkStream@@QAE_NPBD@Z ENDP	; CPythonNetworkStream::LoadInsultList
; Function compile flags: /Ogtp
; File D:\_m2work\Server Client TMP4\ClientVS22\source\UserInterface\PythonNetworkStreamPhaseLoading.cpp
; File D:\_m2work\Server Client TMP4\ClientVS22\source\EterLib\FuncObject.h
; File D:\_m2work\Server Client TMP4\ClientVS22\source\UserInterface\PythonNetworkStreamPhaseLoading.cpp
; File C:\Program Files\Microsoft Visual Studio\2022\Community\VC\Tools\MSVC\14.44.35207\include\xstring
; File D:\_m2work\Server Client TMP4\ClientVS22\source\UserInterface\PythonNetworkStreamPhaseLoading.cpp
; File D:\_m2work\Server Client TMP4\ClientVS22\source\EterLib\FuncObject.h
; File D:\_m2work\Server Client TMP4\ClientVS22\source\UserInterface\PythonNetworkStreamPhaseLoading.cpp
;	COMDAT ?SetLoadingPhase@CPythonNetworkStream@@QAEXXZ
_TEXT	SEGMENT
?SetLoadingPhase@CPythonNetworkStream@@QAEXXZ PROC	; CPythonNetworkStream::SetLoadingPhase, COMDAT
; _this$ = ecx

; 170  : {

  00000	51		 push	 ecx
  00001	56		 push	 esi
  00002	8b f1		 mov	 esi, ecx
  00004	57		 push	 edi

; 171  : 	if ("Loading"!=m_strPhase)

  00005	68 00 00 00 00	 push	 OFFSET ??_C@_07BINAGFIJ@Loading@
  0000a	8d be 0c 01 00
	00		 lea	 edi, DWORD PTR [esi+268]
  00010	57		 push	 edi
  00011	e8 00 00 00 00	 call	 ??$?8DU?$char_traits@D@std@@V?$allocator@D@1@@std@@YA_NABV?$basic_string@DU?$char_traits@D@std@@V?$allocator@D@2@@0@QBD@Z ; std::operator==<char,std::char_traits<char>,std::allocator<char> >
  00016	83 c4 08	 add	 esp, 8
  00019	84 c0		 test	 al, al
  0001b	75 1e		 jne	 SHORT $LN6@SetLoading
; File D:\_m2work\Server Client TMP4\ClientVS22\source\EterLib\FuncObject.h

; 41   : 			if (m_pSelfObject)

  0001d	8b 86 68 01 00
	00		 mov	 eax, DWORD PTR [esi+360]
  00023	85 c0		 test	 eax, eax
  00025	74 14		 je	 SHORT $LN6@SetLoading

; 42   : 				if (m_pFuncObject)

  00027	8b 96 70 01 00
	00		 mov	 edx, DWORD PTR [esi+368]
  0002d	85 d2		 test	 edx, edx
  0002f	74 0a		 je	 SHORT $LN6@SetLoading

; 43   : 					(m_pSelfObject->*m_pFuncObject)();

  00031	8b 8e 74 01 00
	00		 mov	 ecx, DWORD PTR [esi+372]
  00037	03 c8		 add	 ecx, eax
  00039	ff d2		 call	 edx
$LN6@SetLoading:
; File D:\_m2work\Server Client TMP4\ClientVS22\source\UserInterface\PythonNetworkStreamPhaseLoading.cpp

; 174  : 	Tracen("");

  0003b	68 00 00 00 00	 push	 OFFSET ??_C@_00CNPNBAHC@@
  00040	e8 00 00 00 00	 call	 ?Tracen@@YAXPBD@Z	; Tracen
  00045	83 c4 04	 add	 esp, 4

; 175  : 	Tracen("## Network - Loading Phase ##");

  00048	68 00 00 00 00	 push	 OFFSET ??_C@_0BO@GPONOGFJ@?$CD?$CD?5Network?5?9?5Loading?5Phase?5?$CD?$CD@
  0004d	e8 00 00 00 00	 call	 ?Tracen@@YAXPBD@Z	; Tracen
  00052	83 c4 04	 add	 esp, 4

; 176  : 	Tracen("");

  00055	68 00 00 00 00	 push	 OFFSET ??_C@_00CNPNBAHC@@
  0005a	e8 00 00 00 00	 call	 ?Tracen@@YAXPBD@Z	; Tracen
  0005f	83 c4 04	 add	 esp, 4
; File C:\Program Files\Microsoft Visual Studio\2022\Community\VC\Tools\MSVC\14.44.35207\include\xstring

; 1638 :         return assign(_Ptr, _Convert_size<size_type>(_Traits::length(_Ptr)));

  00062	8b cf		 mov	 ecx, edi
  00064	6a 07		 push	 7
  00066	68 00 00 00 00	 push	 OFFSET ??_C@_07BINAGFIJ@Loading@
  0006b	e8 00 00 00 00	 call	 ?assign@?$basic_string@DU?$char_traits@D@std@@V?$allocator@D@2@@std@@QAEAAV12@QBDI@Z ; std::basic_string<char,std::char_traits<char>,std::allocator<char> >::assign
; File D:\_m2work\Server Client TMP4\ClientVS22\source\UserInterface\PythonNetworkStreamPhaseLoading.cpp

; 180  : 	m_dwChangingPhaseTime = ELTimer_GetMSec();

  00070	e8 00 00 00 00	 call	 ?ELTimer_GetMSec@@YAKXZ	; ELTimer_GetMSec

; 185  : 	rkPlayer.Clear();

  00075	8b 0d 00 00 00
	00		 mov	 ecx, DWORD PTR ?ms_singleton@?$CSingleton@VCPythonPlayer@@@@0PAVCPythonPlayer@@A ; CSingleton<CPythonPlayer>::ms_singleton
  0007b	89 86 90 00 00
	00		 mov	 DWORD PTR [esi+144], eax
; File D:\_m2work\Server Client TMP4\ClientVS22\source\EterLib\FuncObject.h

; 24   : 			m_pSelfObject = pSelfObject;

  00081	89 b6 50 01 00
	00		 mov	 DWORD PTR [esi+336], esi

; 25   : 			m_pFuncObject = pFuncObject;

  00087	c7 86 58 01 00
	00 00 00 00 00	 mov	 DWORD PTR [esi+344], OFFSET ?LoadingPhase@CPythonNetworkStream@@IAEXXZ ; CPythonNetworkStream::LoadingPhase
  00091	c7 86 5c 01 00
	00 00 00 00 00	 mov	 DWORD PTR [esi+348], 0

; 24   : 			m_pSelfObject = pSelfObject;

  0009b	89 b6 68 01 00
	00		 mov	 DWORD PTR [esi+360], esi

; 25   : 			m_pFuncObject = pFuncObject;

  000a1	c7 86 70 01 00
	00 00 00 00 00	 mov	 DWORD PTR [esi+368], OFFSET ?__LeaveLoadingPhase@CPythonNetworkStream@@IAEXXZ ; CPythonNetworkStream::__LeaveLoadingPhase
  000ab	c7 86 74 01 00
	00 00 00 00 00	 mov	 DWORD PTR [esi+372], 0
; File D:\_m2work\Server Client TMP4\ClientVS22\source\UserInterface\PythonNetworkStreamPhaseLoading.cpp

; 185  : 	rkPlayer.Clear();

  000b5	e8 00 00 00 00	 call	 ?Clear@CPythonPlayer@@QAEXXZ ; CPythonPlayer::Clear

; 186  : 
; 187  : 	CFlyingManager::Instance().DeleteAllInstances();

  000ba	8b 0d 00 00 00
	00		 mov	 ecx, DWORD PTR ?ms_singleton@?$CSingleton@VCFlyingManager@@@@0PAVCFlyingManager@@A ; CSingleton<CFlyingManager>::ms_singleton
  000c0	e8 00 00 00 00	 call	 ?DeleteAllInstances@CFlyingManager@@QAEXXZ ; CFlyingManager::DeleteAllInstances

; 188  : 	CEffectManager::Instance().DeleteAllInstances();

  000c5	8b 0d 00 00 00
	00		 mov	 ecx, DWORD PTR ?ms_singleton@?$CSingleton@VCEffectManager@@@@0PAVCEffectManager@@A ; CSingleton<CEffectManager>::ms_singleton
  000cb	e8 00 00 00 00	 call	 ?DeleteAllInstances@CEffectManager@@QAEXXZ ; CEffectManager::DeleteAllInstances

; 189  : 
; 190  : 	__DirectEnterMode_Initialize();

  000d0	8b ce		 mov	 ecx, esi
  000d2	e8 00 00 00 00	 call	 ?__DirectEnterMode_Initialize@CPythonNetworkStream@@AAEXXZ ; CPythonNetworkStream::__DirectEnterMode_Initialize

; 191  : }

  000d7	5f		 pop	 edi
  000d8	5e		 pop	 esi
  000d9	59		 pop	 ecx
  000da	c3		 ret	 0
?SetLoadingPhase@CPythonNetworkStream@@QAEXXZ ENDP	; CPythonNetworkStream::SetLoadingPhase
_TEXT	ENDS
; Function compile flags: /Ogtp
; File D:\_m2work\Server Client TMP4\ClientVS22\source\UserInterface\PythonNetworkStreamPhaseLoading.cpp
;	COMDAT ?SendEnterGame@CPythonNetworkStream@@QAE_NXZ
_TEXT	SEGMENT
_EnterFrontGamePacket$ = -1				; size = 1
?SendEnterGame@CPythonNetworkStream@@QAE_NXZ PROC	; CPythonNetworkStream::SendEnterGame, COMDAT
; _this$ = ecx

; 345  : {

  00000	55		 push	 ebp
  00001	8b ec		 mov	 ebp, esp
  00003	51		 push	 ecx
  00004	56		 push	 esi

; 346  : 	TPacketCGEnterFrontGame EnterFrontGamePacket;
; 347  : 
; 348  : 	EnterFrontGamePacket.header = HEADER_CG_ENTERGAME;
; 349  : 
; 350  : 	if (!Send(sizeof(EnterFrontGamePacket), &EnterFrontGamePacket))

  00005	8d 45 ff	 lea	 eax, DWORD PTR _EnterFrontGamePacket$[ebp]
  00008	c6 45 ff 0a	 mov	 BYTE PTR _EnterFrontGamePacket$[ebp], 10 ; 0000000aH
  0000c	50		 push	 eax
  0000d	6a 01		 push	 1
  0000f	8b f1		 mov	 esi, ecx
  00011	e8 00 00 00 00	 call	 ?Send@CNetworkStream@@QAE_NHPBX@Z ; CNetworkStream::Send
  00016	84 c0		 test	 al, al
  00018	75 14		 jne	 SHORT $LN2@SendEnterG

; 351  : 	{
; 352  : 		Tracen("Send EnterFrontGamePacket");

  0001a	68 00 00 00 00	 push	 OFFSET ??_C@_0BK@DINNAMGH@Send?5EnterFrontGamePacket@
  0001f	e8 00 00 00 00	 call	 ?Tracen@@YAXPBD@Z	; Tracen
  00024	83 c4 04	 add	 esp, 4
$LN7@SendEnterG:

; 361  : }

  00027	32 c0		 xor	 al, al
  00029	5e		 pop	 esi
  0002a	8b e5		 mov	 esp, ebp
  0002c	5d		 pop	 ebp
  0002d	c3		 ret	 0
$LN2@SendEnterG:

; 353  : 		return false;
; 354  : 	}
; 355  : 
; 356  : 	if (!SendSequence())

  0002e	8b ce		 mov	 ecx, esi
  00030	e8 00 00 00 00	 call	 ?SendSequence@CNetworkStream@@QAE_NXZ ; CNetworkStream::SendSequence
  00035	84 c0		 test	 al, al
  00037	74 ee		 je	 SHORT $LN7@SendEnterG

; 357  : 		return false;
; 358  : 
; 359  : 	__SendInternalBuffer();

  00039	8b ce		 mov	 ecx, esi
  0003b	e8 00 00 00 00	 call	 ?__SendInternalBuffer@CNetworkStream@@IAE_NXZ ; CNetworkStream::__SendInternalBuffer

; 360  : 	return true;

  00040	b0 01		 mov	 al, 1
  00042	5e		 pop	 esi

; 361  : }

  00043	8b e5		 mov	 esp, ebp
  00045	5d		 pop	 ebp
  00046	c3		 ret	 0
?SendEnterGame@CPythonNetworkStream@@QAE_NXZ ENDP	; CPythonNetworkStream::SendEnterGame
_TEXT	ENDS
; Function compile flags: /Ogtp
; File D:\_m2work\Server Client TMP4\ClientVS22\source\UserInterface\PythonNetworkStreamPhaseLoading.cpp
;	COMDAT ?IsInsultIn@CPythonNetworkStream@@QAE_NPBD@Z
_TEXT	SEGMENT
_c_szMsg$ = 8						; size = 4
?IsInsultIn@CPythonNetworkStream@@QAE_NPBD@Z PROC	; CPythonNetworkStream::IsInsultIn, COMDAT
; _this$ = ecx

; 30   : {

  00000	55		 push	 ebp
  00001	8b ec		 mov	 ebp, esp

; 31   : 	return m_kInsultChecker.IsInsultIn(c_szMsg, strlen(c_szMsg));

  00003	8b 55 08	 mov	 edx, DWORD PTR _c_szMsg$[ebp]
  00006	8b c2		 mov	 eax, edx
  00008	56		 push	 esi
  00009	57		 push	 edi
  0000a	8b f1		 mov	 esi, ecx
  0000c	8d 78 01	 lea	 edi, DWORD PTR [eax+1]
  0000f	90		 npad	 1
$LL3@IsInsultIn:
  00010	8a 08		 mov	 cl, BYTE PTR [eax]
  00012	40		 inc	 eax
  00013	84 c9		 test	 cl, cl
  00015	75 f9		 jne	 SHORT $LL3@IsInsultIn
  00017	2b c7		 sub	 eax, edi
  00019	8d 8e 14 79 00
	00		 lea	 ecx, DWORD PTR [esi+30996]
  0001f	50		 push	 eax
  00020	52		 push	 edx
  00021	e8 00 00 00 00	 call	 ?IsInsultIn@CInsultChecker@@QAE_NPBDI@Z ; CInsultChecker::IsInsultIn
  00026	5f		 pop	 edi
  00027	5e		 pop	 esi

; 32   : }

  00028	5d		 pop	 ebp
  00029	c2 04 00	 ret	 4
?IsInsultIn@CPythonNetworkStream@@QAE_NPBD@Z ENDP	; CPythonNetworkStream::IsInsultIn
_TEXT	ENDS
; Function compile flags: /Ogtp
; File D:\_m2work\Server Client TMP4\ClientVS22\source\UserInterface\PythonNetworkStreamPhaseLoading.cpp
;	COMDAT ?IsChatInsultIn@CPythonNetworkStream@@QAE_NPBD@Z
_TEXT	SEGMENT
_c_szMsg$ = 8						; size = 4
?IsChatInsultIn@CPythonNetworkStream@@QAE_NPBD@Z PROC	; CPythonNetworkStream::IsChatInsultIn, COMDAT
; _this$ = ecx

; 22   : {

  00000	55		 push	 ebp
  00001	8b ec		 mov	 ebp, esp

; 23   : 	if (m_isEnableChatInsultFilter)

  00003	80 b9 20 79 00
	00 00		 cmp	 BYTE PTR [ecx+31008], 0
  0000a	74 06		 je	 SHORT $LN2@IsChatInsu

; 24   : 		return false;

  0000c	32 c0		 xor	 al, al

; 27   : }

  0000e	5d		 pop	 ebp
  0000f	c2 04 00	 ret	 4
$LN2@IsChatInsu:
  00012	5d		 pop	 ebp

; 25   : 
; 26   : 	return IsInsultIn(c_szMsg);

  00013	e9 00 00 00 00	 jmp	 ?IsInsultIn@CPythonNetworkStream@@QAE_NPBD@Z ; CPythonNetworkStream::IsInsultIn
?IsChatInsultIn@CPythonNetworkStream@@QAE_NPBD@Z ENDP	; CPythonNetworkStream::IsChatInsultIn
_TEXT	ENDS
; Function compile flags: /Ogtp
; File D:\_m2work\Server Client TMP4\ClientVS22\source\UserInterface\PythonNetworkStreamPhaseLoading.cpp
;	COMDAT ?EnableChatInsultFilter@CPythonNetworkStream@@QAEX_N@Z
_TEXT	SEGMENT
_isEnable$ = 8						; size = 1
?EnableChatInsultFilter@CPythonNetworkStream@@QAEX_N@Z PROC ; CPythonNetworkStream::EnableChatInsultFilter, COMDAT
; _this$ = ecx

; 12   : {

  00000	55		 push	 ebp
  00001	8b ec		 mov	 ebp, esp

; 13   : 	m_isEnableChatInsultFilter=isEnable;

  00003	8a 45 08	 mov	 al, BYTE PTR _isEnable$[ebp]
  00006	88 81 20 79 00
	00		 mov	 BYTE PTR [ecx+31008], al

; 14   : }

  0000c	5d		 pop	 ebp
  0000d	c2 04 00	 ret	 4
?EnableChatInsultFilter@CPythonNetworkStream@@QAEX_N@Z ENDP ; CPythonNetworkStream::EnableChatInsultFilter
_TEXT	ENDS
; Function compile flags: /Ogtp
; File D:\_m2work\Server Client TMP4\ClientVS22\source\UserInterface\PythonNetworkStreamPhaseLoading.cpp
;	COMDAT ?GetFieldMusicVolume@CPythonNetworkStream@@QAEMXZ
_TEXT	SEGMENT
?GetFieldMusicVolume@CPythonNetworkStream@@QAEMXZ PROC	; CPythonNetworkStream::GetFieldMusicVolume, COMDAT
; _this$dead$ = ecx

; 320  : 	return gs_fieldMusic_volume;

  00000	f3 0f 10 05 00
	00 00 00	 movss	 xmm0, DWORD PTR ?gs_fieldMusic_volume@@3MA

; 321  : }

  00008	c3		 ret	 0
?GetFieldMusicVolume@CPythonNetworkStream@@QAEMXZ ENDP	; CPythonNetworkStream::GetFieldMusicVolume
_TEXT	ENDS
; Function compile flags: /Ogtp
; File D:\_m2work\Server Client TMP4\ClientVS22\source\UserInterface\PythonNetworkStreamPhaseLoading.cpp
; File C:\Program Files\Microsoft Visual Studio\2022\Community\VC\Tools\MSVC\14.44.35207\include\xstring
; File D:\_m2work\Server Client TMP4\ClientVS22\source\UserInterface\PythonNetworkStreamPhaseLoading.cpp
;	COMDAT ?GetFieldMusicFileName@CPythonNetworkStream@@QAEPBDXZ
_TEXT	SEGMENT
?GetFieldMusicFileName@CPythonNetworkStream@@QAEPBDXZ PROC ; CPythonNetworkStream::GetFieldMusicFileName, COMDAT
; _this$dead$ = ecx
; File C:\Program Files\Microsoft Visual Studio\2022\Community\VC\Tools\MSVC\14.44.35207\include\xstring

; 453  :         return _Myres > _Small_string_capacity;

  00000	83 3d 14 00 00
	00 0f		 cmp	 DWORD PTR ?gs_fieldMusic_fileName@@3V?$basic_string@DU?$char_traits@D@std@@V?$allocator@D@2@@std@@A+20, 15 ; 0000000fH

; 444  :         const value_type* _Result = _Bx._Buf;

  00007	b8 00 00 00 00	 mov	 eax, OFFSET ?gs_fieldMusic_fileName@@3V?$basic_string@DU?$char_traits@D@std@@V?$allocator@D@2@@std@@A

; 445  :         if (_Large_mode_engaged()) {

  0000c	0f 47 05 00 00
	00 00		 cmova	 eax, DWORD PTR ?gs_fieldMusic_fileName@@3V?$basic_string@DU?$char_traits@D@std@@V?$allocator@D@2@@std@@A
; File D:\_m2work\Server Client TMP4\ClientVS22\source\UserInterface\PythonNetworkStreamPhaseLoading.cpp

; 316  : }

  00013	c3		 ret	 0
?GetFieldMusicFileName@CPythonNetworkStream@@QAEPBDXZ ENDP ; CPythonNetworkStream::GetFieldMusicFileName
_TEXT	ENDS
; Function compile flags: /Ogtp
; File D:\_m2work\Server Client TMP4\ClientVS22\source\UserInterface\PythonNetworkStreamPhaseLoading.cpp
;	COMDAT ?StartGame@CPythonNetworkStream@@QAEXXZ
_TEXT	SEGMENT
?StartGame@CPythonNetworkStream@@QAEXXZ PROC		; CPythonNetworkStream::StartGame, COMDAT
; _this$ = ecx

; 341  : 	m_isStartGame=TRUE;

  00000	c7 81 ac 00 00
	00 01 00 00 00	 mov	 DWORD PTR [ecx+172], 1

; 342  : }

  0000a	c3		 ret	 0
?StartGame@CPythonNetworkStream@@QAEXXZ ENDP		; CPythonNetworkStream::StartGame
_TEXT	ENDS
; Function compile flags: /Ogtp
; File D:\_m2work\Server Client TMP4\ClientVS22\source\UserInterface\PythonNetworkStreamPhaseLoading.cpp
;	COMDAT ?__FilterInsult@CPythonNetworkStream@@IAEXPADI@Z
_TEXT	SEGMENT
_szLine$ = 8						; size = 4
_uLineLen$ = 12						; size = 4
?__FilterInsult@CPythonNetworkStream@@IAEXPADI@Z PROC	; CPythonNetworkStream::__FilterInsult, COMDAT
; _this$ = ecx

; 17   : {

  00000	55		 push	 ebp
  00001	8b ec		 mov	 ebp, esp

; 18   : 	m_kInsultChecker.FilterInsult(szLine, uLineLen);

  00003	81 c1 14 79 00
	00		 add	 ecx, 30996		; 00007914H

; 19   : }

  00009	5d		 pop	 ebp

; 18   : 	m_kInsultChecker.FilterInsult(szLine, uLineLen);

  0000a	e9 00 00 00 00	 jmp	 ?FilterInsult@CInsultChecker@@QAEXPADI@Z ; CInsultChecker::FilterInsult
?__FilterInsult@CPythonNetworkStream@@IAEXPADI@Z ENDP	; CPythonNetworkStream::__FilterInsult
_TEXT	ENDS
; Function compile flags: /Ogtp
; File D:\_m2work\Server Client TMP4\ClientVS22\source\UserInterface\PythonNetworkStreamPhaseLoading.cpp
;	COMDAT ?__RecvPlayerPoints@CPythonNetworkStream@@IAE_NXZ
_TEXT	SEGMENT
_PointsPacket$ = -1028					; size = 1021
__$ArrayPad$ = -4					; size = 4
?__RecvPlayerPoints@CPythonNetworkStream@@IAE_NXZ PROC	; CPythonNetworkStream::__RecvPlayerPoints, COMDAT
; _this$ = ecx

; 326  : {

  00000	55		 push	 ebp
  00001	8b ec		 mov	 ebp, esp
  00003	81 ec 04 04 00
	00		 sub	 esp, 1028		; 00000404H
  00009	a1 00 00 00 00	 mov	 eax, DWORD PTR ___security_cookie
  0000e	33 c5		 xor	 eax, ebp
  00010	89 45 fc	 mov	 DWORD PTR __$ArrayPad$[ebp], eax
  00013	57		 push	 edi

; 327  : 	TPacketGCPoints PointsPacket;
; 328  : 
; 329  : 	if (!Recv(sizeof(TPacketGCPoints), &PointsPacket))

  00014	8d 85 fc fb ff
	ff		 lea	 eax, DWORD PTR _PointsPacket$[ebp]
  0001a	8b f9		 mov	 edi, ecx
  0001c	50		 push	 eax
  0001d	68 fd 03 00 00	 push	 1021			; 000003fdH
  00022	e8 00 00 00 00	 call	 ?Recv@CNetworkStream@@QAE_NHPAX@Z ; CNetworkStream::Recv
  00027	84 c0		 test	 al, al
  00029	75 0f		 jne	 SHORT $LN5@RecvPlayer
  0002b	5f		 pop	 edi

; 336  : 	return true;
; 337  : }

  0002c	8b 4d fc	 mov	 ecx, DWORD PTR __$ArrayPad$[ebp]
  0002f	33 cd		 xor	 ecx, ebp
  00031	e8 00 00 00 00	 call	 @__security_check_cookie@4
  00036	8b e5		 mov	 esp, ebp
  00038	5d		 pop	 ebp
  00039	c3		 ret	 0
$LN5@RecvPlayer:
  0003a	56		 push	 esi

; 330  : 		return false;
; 331  : 
; 332  : 	for (DWORD i = 0; i < POINT_MAX_NUM; ++i)

  0003b	33 f6		 xor	 esi, esi
  0003d	0f 1f 00	 npad	 3
$LL4@RecvPlayer:

; 333  : 		CPythonPlayer::Instance().SetStatus(i, PointsPacket.points[i]);

  00040	ff b4 b5 fd fb
	ff ff		 push	 DWORD PTR _PointsPacket$[ebp+esi*4+1]
  00047	8b 0d 00 00 00
	00		 mov	 ecx, DWORD PTR ?ms_singleton@?$CSingleton@VCPythonPlayer@@@@0PAVCPythonPlayer@@A ; CSingleton<CPythonPlayer>::ms_singleton
  0004d	56		 push	 esi
  0004e	e8 00 00 00 00	 call	 ?SetStatus@CPythonPlayer@@QAEXKJ@Z ; CPythonPlayer::SetStatus
  00053	46		 inc	 esi
  00054	81 fe ff 00 00
	00		 cmp	 esi, 255		; 000000ffH
  0005a	72 e4		 jb	 SHORT $LL4@RecvPlayer

; 334  : 
; 335  : 	PyCallClassMemberFunc(m_apoPhaseWnd[PHASE_WINDOW_GAME], "RefreshStatus", Py_BuildValue("()"));

  0005c	5e		 pop	 esi
  0005d	68 00 00 00 00	 push	 OFFSET ??_C@_02HCKGKOFO@?$CI?$CJ@
  00062	ff 15 00 00 00
	00		 call	 DWORD PTR __imp__Py_BuildValue
  00068	50		 push	 eax
  00069	68 00 00 00 00	 push	 OFFSET ??_C@_0O@PDJLBMPA@RefreshStatus@
  0006e	ff b7 90 01 00
	00		 push	 DWORD PTR [edi+400]
  00074	e8 00 00 00 00	 call	 ?PyCallClassMemberFunc@@YA_NPAU_object@@PBD0@Z ; PyCallClassMemberFunc

; 336  : 	return true;
; 337  : }

  00079	8b 4d fc	 mov	 ecx, DWORD PTR __$ArrayPad$[ebp]
  0007c	83 c4 10	 add	 esp, 16			; 00000010H
  0007f	33 cd		 xor	 ecx, ebp
  00081	b0 01		 mov	 al, 1
  00083	5f		 pop	 edi
  00084	e8 00 00 00 00	 call	 @__security_check_cookie@4
  00089	8b e5		 mov	 esp, ebp
  0008b	5d		 pop	 ebp
  0008c	c3		 ret	 0
?__RecvPlayerPoints@CPythonNetworkStream@@IAE_NXZ ENDP	; CPythonNetworkStream::__RecvPlayerPoints
_TEXT	ENDS
; Function compile flags: /Ogtp
; File D:\_m2work\Server Client TMP4\ClientVS22\source\UserInterface\PythonNetworkStream.h
;	COMDAT ?__LeaveLoadingPhase@CPythonNetworkStream@@IAEXXZ
_TEXT	SEGMENT
?__LeaveLoadingPhase@CPythonNetworkStream@@IAEXXZ PROC	; CPythonNetworkStream::__LeaveLoadingPhase, COMDAT
; _this$ = ecx

; 598  : 		void __LeaveLoadingPhase() {}

  00000	c2 00 00	 ret	 0
?__LeaveLoadingPhase@CPythonNetworkStream@@IAEXXZ ENDP	; CPythonNetworkStream::__LeaveLoadingPhase
_TEXT	ENDS
; Function compile flags: /Ogtp
; File D:\_m2work\Server Client TMP4\ClientVS22\source\UserInterface\PythonNetworkStreamPhaseLoading.cpp
;	COMDAT ?LoadingPhase@CPythonNetworkStream@@IAEXXZ
_TEXT	SEGMENT
_header$ = -1						; size = 1
?LoadingPhase@CPythonNetworkStream@@IAEXXZ PROC		; CPythonNetworkStream::LoadingPhase, COMDAT
; _this$ = ecx

; 83   : {

  00000	55		 push	 ebp
  00001	8b ec		 mov	 ebp, esp
  00003	83 ec 08	 sub	 esp, 8

; 84   : 	TPacketHeader header;
; 85   : 
; 86   : 	if (!CheckPacket(&header))

  00006	8d 45 ff	 lea	 eax, DWORD PTR _header$[ebp]
  00009	56		 push	 esi
  0000a	57		 push	 edi
  0000b	50		 push	 eax
  0000c	8b f1		 mov	 esi, ecx
  0000e	e8 00 00 00 00	 call	 ?CheckPacket@CPythonNetworkStream@@IAE_NPAE@Z ; CPythonNetworkStream::CheckPacket
  00013	84 c0		 test	 al, al
  00015	0f 84 b4 00 00
	00		 je	 $LN1@LoadingPha

; 87   : 		return;
; 88   : 
; 89   : 	switch (header)

  0001b	0f b6 7d ff	 movzx	 edi, BYTE PTR _header$[ebp]
  0001f	8d 47 f1	 lea	 eax, DWORD PTR [edi-15]
  00022	3d ee 00 00 00	 cmp	 eax, 238		; 000000eeH
  00027	0f 87 9b 00 00
	00		 ja	 $LN29@LoadingPha
  0002d	0f b6 80 00 00
	00 00		 movzx	 eax, BYTE PTR $LN31@LoadingPha[eax]
  00034	ff 24 85 00 00
	00 00		 jmp	 DWORD PTR $LN32@LoadingPha[eax*4]
$LN5@LoadingPha:

; 90   : 	{
; 91   : 		case HEADER_GC_PHASE:
; 92   : 			if (RecvPhasePacket())

  0003b	8b ce		 mov	 ecx, esi
  0003d	e8 00 00 00 00	 call	 ?RecvPhasePacket@CPythonNetworkStream@@IAE_NXZ ; CPythonNetworkStream::RecvPhasePacket

; 93   : 				return;
; 94   : 			break;

  00042	eb 58		 jmp	 SHORT $LN34@LoadingPha
$LN7@LoadingPha:

; 95   : 
; 96   : 		case HEADER_GC_MAIN_CHARACTER:
; 97   : 			if (RecvMainCharacter())

  00044	8b ce		 mov	 ecx, esi
  00046	e8 00 00 00 00	 call	 ?RecvMainCharacter@CPythonNetworkStream@@IAE_NXZ ; CPythonNetworkStream::RecvMainCharacter

; 98   : 				return;
; 99   : 			break;

  0004b	eb 4f		 jmp	 SHORT $LN34@LoadingPha
$LN9@LoadingPha:

; 100  : 
; 101  : 		// SUPPORT_BGM
; 102  : 		case HEADER_GC_MAIN_CHARACTER2_EMPIRE:
; 103  : 			if (RecvMainCharacter2_EMPIRE())

  0004d	8b ce		 mov	 ecx, esi
  0004f	e8 00 00 00 00	 call	 ?RecvMainCharacter2_EMPIRE@CPythonNetworkStream@@IAE_NXZ ; CPythonNetworkStream::RecvMainCharacter2_EMPIRE

; 104  : 				return;
; 105  : 			break;

  00054	eb 46		 jmp	 SHORT $LN34@LoadingPha
$LN11@LoadingPha:

; 106  : 
; 107  : 		case HEADER_GC_MAIN_CHARACTER3_BGM:
; 108  : 			if (RecvMainCharacter3_BGM())

  00056	8b ce		 mov	 ecx, esi
  00058	e8 00 00 00 00	 call	 ?RecvMainCharacter3_BGM@CPythonNetworkStream@@IAE_NXZ ; CPythonNetworkStream::RecvMainCharacter3_BGM

; 109  : 				return;
; 110  : 			break;

  0005d	eb 3d		 jmp	 SHORT $LN34@LoadingPha
$LN13@LoadingPha:

; 111  : 
; 112  : 		case HEADER_GC_MAIN_CHARACTER4_BGM_VOL:
; 113  : 			if (RecvMainCharacter4_BGM_VOL())

  0005f	8b ce		 mov	 ecx, esi
  00061	e8 00 00 00 00	 call	 ?RecvMainCharacter4_BGM_VOL@CPythonNetworkStream@@IAE_NXZ ; CPythonNetworkStream::RecvMainCharacter4_BGM_VOL

; 114  : 				return;
; 115  : 			break;

  00066	eb 34		 jmp	 SHORT $LN34@LoadingPha
$LN15@LoadingPha:

; 116  : 
; 117  : 		// END_OF_SUPPORT_BGM
; 118  : 
; 119  : 		case HEADER_GC_CHARACTER_UPDATE:
; 120  : 			if (RecvCharacterUpdatePacket())

  00068	8b ce		 mov	 ecx, esi
  0006a	e8 00 00 00 00	 call	 ?RecvCharacterUpdatePacket@CPythonNetworkStream@@IAE_NXZ ; CPythonNetworkStream::RecvCharacterUpdatePacket

; 121  : 				return;
; 122  : 			break;

  0006f	eb 2b		 jmp	 SHORT $LN34@LoadingPha
$LN17@LoadingPha:

; 123  : 
; 124  : 		case HEADER_GC_PLAYER_POINTS:
; 125  : 			if (__RecvPlayerPoints())

  00071	8b ce		 mov	 ecx, esi
  00073	e8 00 00 00 00	 call	 ?__RecvPlayerPoints@CPythonNetworkStream@@IAE_NXZ ; CPythonNetworkStream::__RecvPlayerPoints

; 126  : 				return;
; 127  : 			break;

  00078	eb 22		 jmp	 SHORT $LN34@LoadingPha
$LN19@LoadingPha:

; 128  : 
; 129  : 		case HEADER_GC_PLAYER_POINT_CHANGE:
; 130  : 			if (RecvPointChange())

  0007a	8b ce		 mov	 ecx, esi
  0007c	e8 00 00 00 00	 call	 ?RecvPointChange@CPythonNetworkStream@@IAE_NXZ ; CPythonNetworkStream::RecvPointChange

; 131  : 				return;
; 132  : 			break;

  00081	eb 19		 jmp	 SHORT $LN34@LoadingPha
$LN21@LoadingPha:

; 133  : 
; 134  : 		case HEADER_GC_ITEM_SET:
; 135  : 			if (RecvItemSetPacket())

  00083	8b ce		 mov	 ecx, esi
  00085	e8 00 00 00 00	 call	 ?RecvItemSetPacket@CPythonNetworkStream@@IAE_NXZ ; CPythonNetworkStream::RecvItemSetPacket

; 136  : 				return;
; 137  : 			break;

  0008a	eb 10		 jmp	 SHORT $LN34@LoadingPha
$LN23@LoadingPha:

; 138  : 
; 139  : 		case HEADER_GC_PING:
; 140  : 			if (RecvPingPacket())

  0008c	8b ce		 mov	 ecx, esi
  0008e	e8 00 00 00 00	 call	 ?RecvPingPacket@CPythonNetworkStream@@IAE_NXZ ; CPythonNetworkStream::RecvPingPacket

; 141  : 				return;
; 142  : 			break;

  00093	eb 07		 jmp	 SHORT $LN34@LoadingPha
$LN25@LoadingPha:

; 143  : 
; 144  : 		case HEADER_GC_QUICKSLOT_ADD:
; 145  : 			if (RecvQuickSlotAddPacket())

  00095	8b ce		 mov	 ecx, esi
  00097	e8 00 00 00 00	 call	 ?RecvQuickSlotAddPacket@CPythonNetworkStream@@IAE_NXZ ; CPythonNetworkStream::RecvQuickSlotAddPacket
$LN34@LoadingPha:

; 162  : 			return;
; 163  : 			break;
; 164  : 	}
; 165  : 
; 166  : 	RecvErrorPacket(header);

  0009c	84 c0		 test	 al, al
  0009e	75 2f		 jne	 SHORT $LN1@LoadingPha
  000a0	57		 push	 edi
  000a1	8b ce		 mov	 ecx, esi
  000a3	e8 00 00 00 00	 call	 ?RecvErrorPacket@CPythonNetworkStream@@IAE_NH@Z ; CPythonNetworkStream::RecvErrorPacket

; 167  : }

  000a8	5f		 pop	 edi
  000a9	5e		 pop	 esi
  000aa	8b e5		 mov	 esp, ebp
  000ac	5d		 pop	 ebp
  000ad	c3		 ret	 0
$LN27@LoadingPha:

; 146  : 				return;
; 147  : 			break;
; 148  : 
; 149  : 		case HEADER_GC_HYBRIDCRYPT_KEYS:
; 150  : 			RecvHybridCryptKeyPacket();

  000ae	8b ce		 mov	 ecx, esi
  000b0	e8 00 00 00 00	 call	 ?RecvHybridCryptKeyPacket@CPythonNetworkStream@@QAE_NXZ ; CPythonNetworkStream::RecvHybridCryptKeyPacket

; 167  : }

  000b5	5f		 pop	 edi
  000b6	5e		 pop	 esi
  000b7	8b e5		 mov	 esp, ebp
  000b9	5d		 pop	 ebp
  000ba	c3		 ret	 0
$LN28@LoadingPha:

; 151  : 			return;
; 152  : 			break;
; 153  : 
; 154  : 		case HEADER_GC_HYBRIDCRYPT_SDB:
; 155  : 			RecvHybridCryptSDBPacket();

  000bb	8b ce		 mov	 ecx, esi
  000bd	e8 00 00 00 00	 call	 ?RecvHybridCryptSDBPacket@CPythonNetworkStream@@QAE_NXZ ; CPythonNetworkStream::RecvHybridCryptSDBPacket

; 167  : }

  000c2	5f		 pop	 edi
  000c3	5e		 pop	 esi
  000c4	8b e5		 mov	 esp, ebp
  000c6	5d		 pop	 ebp
  000c7	c3		 ret	 0
$LN29@LoadingPha:

; 156  : 			return;
; 157  : 			break;
; 158  : 
; 159  : 
; 160  : 		default:
; 161  : 			GamePhase();

  000c8	8b ce		 mov	 ecx, esi
  000ca	e8 00 00 00 00	 call	 ?GamePhase@CPythonNetworkStream@@IAEXXZ ; CPythonNetworkStream::GamePhase
$LN1@LoadingPha:

; 167  : }

  000cf	5f		 pop	 edi
  000d0	5e		 pop	 esi
  000d1	8b e5		 mov	 esp, ebp
  000d3	5d		 pop	 ebp
  000d4	c3		 ret	 0
  000d5	0f 1f 00	 npad	 3
$LN32@LoadingPha:
  000d8	00 00 00 00	 DD	 $LN7@LoadingPha
  000dc	00 00 00 00	 DD	 $LN17@LoadingPha
  000e0	00 00 00 00	 DD	 $LN19@LoadingPha
  000e4	00 00 00 00	 DD	 $LN15@LoadingPha
  000e8	00 00 00 00	 DD	 $LN21@LoadingPha
  000ec	00 00 00 00	 DD	 $LN25@LoadingPha
  000f0	00 00 00 00	 DD	 $LN23@LoadingPha
  000f4	00 00 00 00	 DD	 $LN9@LoadingPha
  000f8	00 00 00 00	 DD	 $LN11@LoadingPha
  000fc	00 00 00 00	 DD	 $LN13@LoadingPha
  00100	00 00 00 00	 DD	 $LN27@LoadingPha
  00104	00 00 00 00	 DD	 $LN28@LoadingPha
  00108	00 00 00 00	 DD	 $LN5@LoadingPha
  0010c	00 00 00 00	 DD	 $LN29@LoadingPha
$LN31@LoadingPha:
  00110	00		 DB	 0
  00111	01		 DB	 1
  00112	02		 DB	 2
  00113	0d		 DB	 13			; 0000000dH
  00114	03		 DB	 3
  00115	04		 DB	 4
  00116	0d		 DB	 13			; 0000000dH
  00117	0d		 DB	 13			; 0000000dH
  00118	0d		 DB	 13			; 0000000dH
  00119	0d		 DB	 13			; 0000000dH
  0011a	0d		 DB	 13			; 0000000dH
  0011b	0d		 DB	 13			; 0000000dH
  0011c	0d		 DB	 13			; 0000000dH
  0011d	05		 DB	 5
  0011e	0d		 DB	 13			; 0000000dH
  0011f	0d		 DB	 13			; 0000000dH
  00120	0d		 DB	 13			; 0000000dH
  00121	0d		 DB	 13			; 0000000dH
  00122	0d		 DB	 13			; 0000000dH
  00123	0d		 DB	 13			; 0000000dH
  00124	0d		 DB	 13			; 0000000dH
  00125	0d		 DB	 13			; 0000000dH
  00126	0d		 DB	 13			; 0000000dH
  00127	0d		 DB	 13			; 0000000dH
  00128	0d		 DB	 13			; 0000000dH
  00129	0d		 DB	 13			; 0000000dH
  0012a	0d		 DB	 13			; 0000000dH
  0012b	0d		 DB	 13			; 0000000dH
  0012c	0d		 DB	 13			; 0000000dH
  0012d	06		 DB	 6
  0012e	0d		 DB	 13			; 0000000dH
  0012f	0d		 DB	 13			; 0000000dH
  00130	0d		 DB	 13			; 0000000dH
  00131	0d		 DB	 13			; 0000000dH
  00132	0d		 DB	 13			; 0000000dH
  00133	0d		 DB	 13			; 0000000dH
  00134	0d		 DB	 13			; 0000000dH
  00135	0d		 DB	 13			; 0000000dH
  00136	0d		 DB	 13			; 0000000dH
  00137	0d		 DB	 13			; 0000000dH
  00138	0d		 DB	 13			; 0000000dH
  00139	0d		 DB	 13			; 0000000dH
  0013a	0d		 DB	 13			; 0000000dH
  0013b	0d		 DB	 13			; 0000000dH
  0013c	0d		 DB	 13			; 0000000dH
  0013d	0d		 DB	 13			; 0000000dH
  0013e	0d		 DB	 13			; 0000000dH
  0013f	0d		 DB	 13			; 0000000dH
  00140	0d		 DB	 13			; 0000000dH
  00141	0d		 DB	 13			; 0000000dH
  00142	0d		 DB	 13			; 0000000dH
  00143	0d		 DB	 13			; 0000000dH
  00144	0d		 DB	 13			; 0000000dH
  00145	0d		 DB	 13			; 0000000dH
  00146	0d		 DB	 13			; 0000000dH
  00147	0d		 DB	 13			; 0000000dH
  00148	0d		 DB	 13			; 0000000dH
  00149	0d		 DB	 13			; 0000000dH
  0014a	0d		 DB	 13			; 0000000dH
  0014b	0d		 DB	 13			; 0000000dH
  0014c	0d		 DB	 13			; 0000000dH
  0014d	0d		 DB	 13			; 0000000dH
  0014e	0d		 DB	 13			; 0000000dH
  0014f	0d		 DB	 13			; 0000000dH
  00150	0d		 DB	 13			; 0000000dH
  00151	0d		 DB	 13			; 0000000dH
  00152	0d		 DB	 13			; 0000000dH
  00153	0d		 DB	 13			; 0000000dH
  00154	0d		 DB	 13			; 0000000dH
  00155	0d		 DB	 13			; 0000000dH
  00156	0d		 DB	 13			; 0000000dH
  00157	0d		 DB	 13			; 0000000dH
  00158	0d		 DB	 13			; 0000000dH
  00159	0d		 DB	 13			; 0000000dH
  0015a	0d		 DB	 13			; 0000000dH
  0015b	0d		 DB	 13			; 0000000dH
  0015c	0d		 DB	 13			; 0000000dH
  0015d	0d		 DB	 13			; 0000000dH
  0015e	0d		 DB	 13			; 0000000dH
  0015f	0d		 DB	 13			; 0000000dH
  00160	0d		 DB	 13			; 0000000dH
  00161	0d		 DB	 13			; 0000000dH
  00162	0d		 DB	 13			; 0000000dH
  00163	0d		 DB	 13			; 0000000dH
  00164	0d		 DB	 13			; 0000000dH
  00165	0d		 DB	 13			; 0000000dH
  00166	0d		 DB	 13			; 0000000dH
  00167	0d		 DB	 13			; 0000000dH
  00168	0d		 DB	 13			; 0000000dH
  00169	0d		 DB	 13			; 0000000dH
  0016a	0d		 DB	 13			; 0000000dH
  0016b	0d		 DB	 13			; 0000000dH
  0016c	0d		 DB	 13			; 0000000dH
  0016d	0d		 DB	 13			; 0000000dH
  0016e	0d		 DB	 13			; 0000000dH
  0016f	0d		 DB	 13			; 0000000dH
  00170	0d		 DB	 13			; 0000000dH
  00171	0d		 DB	 13			; 0000000dH
  00172	07		 DB	 7
  00173	0d		 DB	 13			; 0000000dH
  00174	0d		 DB	 13			; 0000000dH
  00175	0d		 DB	 13			; 0000000dH
  00176	0d		 DB	 13			; 0000000dH
  00177	0d		 DB	 13			; 0000000dH
  00178	0d		 DB	 13			; 0000000dH
  00179	0d		 DB	 13			; 0000000dH
  0017a	0d		 DB	 13			; 0000000dH
  0017b	0d		 DB	 13			; 0000000dH
  0017c	0d		 DB	 13			; 0000000dH
  0017d	0d		 DB	 13			; 0000000dH
  0017e	0d		 DB	 13			; 0000000dH
  0017f	0d		 DB	 13			; 0000000dH
  00180	0d		 DB	 13			; 0000000dH
  00181	0d		 DB	 13			; 0000000dH
  00182	0d		 DB	 13			; 0000000dH
  00183	0d		 DB	 13			; 0000000dH
  00184	0d		 DB	 13			; 0000000dH
  00185	0d		 DB	 13			; 0000000dH
  00186	0d		 DB	 13			; 0000000dH
  00187	0d		 DB	 13			; 0000000dH
  00188	0d		 DB	 13			; 0000000dH
  00189	0d		 DB	 13			; 0000000dH
  0018a	08		 DB	 8
  0018b	09		 DB	 9
  0018c	0d		 DB	 13			; 0000000dH
  0018d	0d		 DB	 13			; 0000000dH
  0018e	0d		 DB	 13			; 0000000dH
  0018f	0d		 DB	 13			; 0000000dH
  00190	0d		 DB	 13			; 0000000dH
  00191	0d		 DB	 13			; 0000000dH
  00192	0d		 DB	 13			; 0000000dH
  00193	0d		 DB	 13			; 0000000dH
  00194	0d		 DB	 13			; 0000000dH
  00195	0d		 DB	 13			; 0000000dH
  00196	0d		 DB	 13			; 0000000dH
  00197	0d		 DB	 13			; 0000000dH
  00198	0d		 DB	 13			; 0000000dH
  00199	0a		 DB	 10			; 0000000aH
  0019a	0b		 DB	 11			; 0000000bH
  0019b	0d		 DB	 13			; 0000000dH
  0019c	0d		 DB	 13			; 0000000dH
  0019d	0d		 DB	 13			; 0000000dH
  0019e	0d		 DB	 13			; 0000000dH
  0019f	0d		 DB	 13			; 0000000dH
  001a0	0d		 DB	 13			; 0000000dH
  001a1	0d		 DB	 13			; 0000000dH
  001a2	0d		 DB	 13			; 0000000dH
  001a3	0d		 DB	 13			; 0000000dH
  001a4	0d		 DB	 13			; 0000000dH
  001a5	0d		 DB	 13			; 0000000dH
  001a6	0d		 DB	 13			; 0000000dH
  001a7	0d		 DB	 13			; 0000000dH
  001a8	0d		 DB	 13			; 0000000dH
  001a9	0d		 DB	 13			; 0000000dH
  001aa	0d		 DB	 13			; 0000000dH
  001ab	0d		 DB	 13			; 0000000dH
  001ac	0d		 DB	 13			; 0000000dH
  001ad	0d		 DB	 13			; 0000000dH
  001ae	0d		 DB	 13			; 0000000dH
  001af	0d		 DB	 13			; 0000000dH
  001b0	0d		 DB	 13			; 0000000dH
  001b1	0d		 DB	 13			; 0000000dH
  001b2	0d		 DB	 13			; 0000000dH
  001b3	0d		 DB	 13			; 0000000dH
  001b4	0d		 DB	 13			; 0000000dH
  001b5	0d		 DB	 13			; 0000000dH
  001b6	0d		 DB	 13			; 0000000dH
  001b7	0d		 DB	 13			; 0000000dH
  001b8	0d		 DB	 13			; 0000000dH
  001b9	0d		 DB	 13			; 0000000dH
  001ba	0d		 DB	 13			; 0000000dH
  001bb	0d		 DB	 13			; 0000000dH
  001bc	0d		 DB	 13			; 0000000dH
  001bd	0d		 DB	 13			; 0000000dH
  001be	0d		 DB	 13			; 0000000dH
  001bf	0d		 DB	 13			; 0000000dH
  001c0	0d		 DB	 13			; 0000000dH
  001c1	0d		 DB	 13			; 0000000dH
  001c2	0d		 DB	 13			; 0000000dH
  001c3	0d		 DB	 13			; 0000000dH
  001c4	0d		 DB	 13			; 0000000dH
  001c5	0d		 DB	 13			; 0000000dH
  001c6	0d		 DB	 13			; 0000000dH
  001c7	0d		 DB	 13			; 0000000dH
  001c8	0d		 DB	 13			; 0000000dH
  001c9	0d		 DB	 13			; 0000000dH
  001ca	0d		 DB	 13			; 0000000dH
  001cb	0d		 DB	 13			; 0000000dH
  001cc	0d		 DB	 13			; 0000000dH
  001cd	0d		 DB	 13			; 0000000dH
  001ce	0d		 DB	 13			; 0000000dH
  001cf	0d		 DB	 13			; 0000000dH
  001d0	0d		 DB	 13			; 0000000dH
  001d1	0d		 DB	 13			; 0000000dH
  001d2	0d		 DB	 13			; 0000000dH
  001d3	0d		 DB	 13			; 0000000dH
  001d4	0d		 DB	 13			; 0000000dH
  001d5	0d		 DB	 13			; 0000000dH
  001d6	0d		 DB	 13			; 0000000dH
  001d7	0d		 DB	 13			; 0000000dH
  001d8	0d		 DB	 13			; 0000000dH
  001d9	0d		 DB	 13			; 0000000dH
  001da	0d		 DB	 13			; 0000000dH
  001db	0d		 DB	 13			; 0000000dH
  001dc	0d		 DB	 13			; 0000000dH
  001dd	0d		 DB	 13			; 0000000dH
  001de	0d		 DB	 13			; 0000000dH
  001df	0d		 DB	 13			; 0000000dH
  001e0	0d		 DB	 13			; 0000000dH
  001e1	0d		 DB	 13			; 0000000dH
  001e2	0d		 DB	 13			; 0000000dH
  001e3	0d		 DB	 13			; 0000000dH
  001e4	0d		 DB	 13			; 0000000dH
  001e5	0d		 DB	 13			; 0000000dH
  001e6	0d		 DB	 13			; 0000000dH
  001e7	0d		 DB	 13			; 0000000dH
  001e8	0d		 DB	 13			; 0000000dH
  001e9	0d		 DB	 13			; 0000000dH
  001ea	0d		 DB	 13			; 0000000dH
  001eb	0d		 DB	 13			; 0000000dH
  001ec	0d		 DB	 13			; 0000000dH
  001ed	0d		 DB	 13			; 0000000dH
  001ee	0d		 DB	 13			; 0000000dH
  001ef	0d		 DB	 13			; 0000000dH
  001f0	0d		 DB	 13			; 0000000dH
  001f1	0d		 DB	 13			; 0000000dH
  001f2	0d		 DB	 13			; 0000000dH
  001f3	0d		 DB	 13			; 0000000dH
  001f4	0d		 DB	 13			; 0000000dH
  001f5	0d		 DB	 13			; 0000000dH
  001f6	0d		 DB	 13			; 0000000dH
  001f7	0d		 DB	 13			; 0000000dH
  001f8	0d		 DB	 13			; 0000000dH
  001f9	0d		 DB	 13			; 0000000dH
  001fa	0d		 DB	 13			; 0000000dH
  001fb	0d		 DB	 13			; 0000000dH
  001fc	0d		 DB	 13			; 0000000dH
  001fd	0d		 DB	 13			; 0000000dH
  001fe	0c		 DB	 12			; 0000000cH
?LoadingPhase@CPythonNetworkStream@@IAEXXZ ENDP		; CPythonNetworkStream::LoadingPhase
_TEXT	ENDS
; Function compile flags: /Ogtp
; File D:\_m2work\Server Client TMP4\ClientVS22\source\UserInterface\PythonNetworkStreamPhaseLoading.cpp
;	COMDAT ?RecvMainCharacter@CPythonNetworkStream@@IAE_NXZ
_TEXT	SEGMENT
_MainChrPacket$ = -52					; size = 45
__$ArrayPad$ = -4					; size = 4
?RecvMainCharacter@CPythonNetworkStream@@IAE_NXZ PROC	; CPythonNetworkStream::RecvMainCharacter, COMDAT
; _this$ = ecx

; 194  : {

  00000	55		 push	 ebp
  00001	8b ec		 mov	 ebp, esp
  00003	83 ec 38	 sub	 esp, 56			; 00000038H
  00006	a1 00 00 00 00	 mov	 eax, DWORD PTR ___security_cookie
  0000b	33 c5		 xor	 eax, ebp
  0000d	89 45 fc	 mov	 DWORD PTR __$ArrayPad$[ebp], eax
  00010	56		 push	 esi
  00011	57		 push	 edi

; 195  : 	TPacketGCMainCharacter MainChrPacket;
; 196  : 	if (!Recv(sizeof(TPacketGCMainCharacter), &MainChrPacket))

  00012	8d 45 cc	 lea	 eax, DWORD PTR _MainChrPacket$[ebp]
  00015	8b f9		 mov	 edi, ecx
  00017	50		 push	 eax
  00018	6a 2d		 push	 45			; 0000002dH
  0001a	e8 00 00 00 00	 call	 ?Recv@CNetworkStream@@QAE_NHPAX@Z ; CNetworkStream::Recv
  0001f	84 c0		 test	 al, al
  00021	75 10		 jne	 SHORT $LN2@RecvMainCh

; 215  : 	return true;
; 216  : }

  00023	5f		 pop	 edi
  00024	5e		 pop	 esi
  00025	8b 4d fc	 mov	 ecx, DWORD PTR __$ArrayPad$[ebp]
  00028	33 cd		 xor	 ecx, ebp
  0002a	e8 00 00 00 00	 call	 @__security_check_cookie@4
  0002f	8b e5		 mov	 esp, ebp
  00031	5d		 pop	 ebp
  00032	c3		 ret	 0
$LN2@RecvMainCh:

; 197  : 		return false;
; 198  : 
; 199  : 	m_dwMainActorVID = MainChrPacket.dwVID;
; 200  : 	m_dwMainActorRace = MainChrPacket.wRaceNum;

  00033	0f b7 45 d1	 movzx	 eax, WORD PTR _MainChrPacket$[ebp+5]
  00037	8b 4d cd	 mov	 ecx, DWORD PTR _MainChrPacket$[ebp+1]
  0003a	89 87 9c 00 00
	00		 mov	 DWORD PTR [edi+156], eax

; 201  : 	m_dwMainActorEmpire = 0;
; 202  : 	m_dwMainActorSkillGroup = MainChrPacket.bySkillGroup;

  00040	0f b6 45 f8	 movzx	 eax, BYTE PTR _MainChrPacket$[ebp+44]
  00044	89 8f 98 00 00
	00		 mov	 DWORD PTR [edi+152], ecx

; 203  : 
; 204  : 	m_rokNetActorMgr->SetMainActorVID(m_dwMainActorVID);

  0004a	51		 push	 ecx
  0004b	8b 8f 0c 03 00
	00		 mov	 ecx, DWORD PTR [edi+780]
  00051	c7 87 a0 00 00
	00 00 00 00 00	 mov	 DWORD PTR [edi+160], 0
  0005b	89 87 a4 00 00
	00		 mov	 DWORD PTR [edi+164], eax
  00061	e8 00 00 00 00	 call	 ?SetMainActorVID@CNetworkActorManager@@QAEXK@Z ; CNetworkActorManager::SetMainActorVID

; 205  : 
; 206  : 	CPythonPlayer& rkPlayer=CPythonPlayer::Instance();

  00066	8b 35 00 00 00
	00		 mov	 esi, DWORD PTR ?ms_singleton@?$CSingleton@VCPythonPlayer@@@@0PAVCPythonPlayer@@A ; CSingleton<CPythonPlayer>::ms_singleton

; 207  : 	rkPlayer.SetName(MainChrPacket.szName);

  0006c	8d 45 d3	 lea	 eax, DWORD PTR _MainChrPacket$[ebp+7]
  0006f	50		 push	 eax
  00070	8b ce		 mov	 ecx, esi
  00072	e8 00 00 00 00	 call	 ?SetName@CPythonPlayer@@QAEXPBD@Z ; CPythonPlayer::SetName

; 208  : 	rkPlayer.SetMainCharacterIndex(GetMainActorVID());

  00077	8b cf		 mov	 ecx, edi
  00079	e8 00 00 00 00	 call	 ?GetMainActorVID@CPythonNetworkStream@@QAEKXZ ; CPythonNetworkStream::GetMainActorVID
  0007e	8b 56 04	 mov	 edx, DWORD PTR [esi+4]
  00081	8d 4e 04	 lea	 ecx, DWORD PTR [esi+4]
  00084	50		 push	 eax
  00085	ff 52 08	 call	 DWORD PTR [edx+8]

; 209  : 
; 210  : 	PyCallClassMemberFunc(m_apoPhaseWnd[PHASE_WINDOW_LOAD], "LoadData", Py_BuildValue("(ii)", MainChrPacket.lX, MainChrPacket.lY));

  00088	ff 75 f0	 push	 DWORD PTR _MainChrPacket$[ebp+36]
  0008b	ff 75 ec	 push	 DWORD PTR _MainChrPacket$[ebp+32]
  0008e	68 00 00 00 00	 push	 OFFSET ??_C@_04INACLLOK@?$CIii?$CJ@
  00093	ff 15 00 00 00
	00		 call	 DWORD PTR __imp__Py_BuildValue
  00099	83 c4 0c	 add	 esp, 12			; 0000000cH
  0009c	50		 push	 eax
  0009d	68 00 00 00 00	 push	 OFFSET ??_C@_08JHMIFHMN@LoadData@
  000a2	ff b7 8c 01 00
	00		 push	 DWORD PTR [edi+396]
  000a8	e8 00 00 00 00	 call	 ?PyCallClassMemberFunc@@YA_NPAU_object@@PBD0@Z ; PyCallClassMemberFunc
  000ad	83 c4 0c	 add	 esp, 12			; 0000000cH

; 211  : 
; 212  : 	//Tracef(" >> RecvMainCharacter\n");
; 213  : 
; 214  : 	SendClientVersionPacket();

  000b0	8b cf		 mov	 ecx, edi
  000b2	e8 00 00 00 00	 call	 ?SendClientVersionPacket@CPythonNetworkStream@@QAE_NXZ ; CPythonNetworkStream::SendClientVersionPacket

; 215  : 	return true;
; 216  : }

  000b7	8b 4d fc	 mov	 ecx, DWORD PTR __$ArrayPad$[ebp]
  000ba	b0 01		 mov	 al, 1
  000bc	5f		 pop	 edi
  000bd	33 cd		 xor	 ecx, ebp
  000bf	5e		 pop	 esi
  000c0	e8 00 00 00 00	 call	 @__security_check_cookie@4
  000c5	8b e5		 mov	 esp, ebp
  000c7	5d		 pop	 ebp
  000c8	c3		 ret	 0
?RecvMainCharacter@CPythonNetworkStream@@IAE_NXZ ENDP	; CPythonNetworkStream::RecvMainCharacter
_TEXT	ENDS
; Function compile flags: /Ogtp
; File D:\_m2work\Server Client TMP4\ClientVS22\source\UserInterface\PythonNetworkStreamPhaseLoading.cpp
;	COMDAT ?RecvMainCharacter2_EMPIRE@CPythonNetworkStream@@IAE_NXZ
_TEXT	SEGMENT
_mainChrPacket$ = -52					; size = 46
__$ArrayPad$ = -4					; size = 4
?RecvMainCharacter2_EMPIRE@CPythonNetworkStream@@IAE_NXZ PROC ; CPythonNetworkStream::RecvMainCharacter2_EMPIRE, COMDAT
; _this$ = ecx

; 220  : {

  00000	55		 push	 ebp
  00001	8b ec		 mov	 ebp, esp
  00003	83 ec 38	 sub	 esp, 56			; 00000038H
  00006	a1 00 00 00 00	 mov	 eax, DWORD PTR ___security_cookie
  0000b	33 c5		 xor	 eax, ebp
  0000d	89 45 fc	 mov	 DWORD PTR __$ArrayPad$[ebp], eax
  00010	56		 push	 esi
  00011	57		 push	 edi

; 221  : 	TPacketGCMainCharacter2_EMPIRE mainChrPacket;
; 222  : 	if (!Recv(sizeof(mainChrPacket), &mainChrPacket))

  00012	8d 45 cc	 lea	 eax, DWORD PTR _mainChrPacket$[ebp]
  00015	8b f9		 mov	 edi, ecx
  00017	50		 push	 eax
  00018	6a 2e		 push	 46			; 0000002eH
  0001a	e8 00 00 00 00	 call	 ?Recv@CNetworkStream@@QAE_NHPAX@Z ; CNetworkStream::Recv
  0001f	84 c0		 test	 al, al
  00021	75 10		 jne	 SHORT $LN2@RecvMainCh

; 241  : 	return true;
; 242  : }

  00023	5f		 pop	 edi
  00024	5e		 pop	 esi
  00025	8b 4d fc	 mov	 ecx, DWORD PTR __$ArrayPad$[ebp]
  00028	33 cd		 xor	 ecx, ebp
  0002a	e8 00 00 00 00	 call	 @__security_check_cookie@4
  0002f	8b e5		 mov	 esp, ebp
  00031	5d		 pop	 ebp
  00032	c3		 ret	 0
$LN2@RecvMainCh:

; 223  : 		return false;
; 224  : 
; 225  : 	m_dwMainActorVID = mainChrPacket.dwVID;
; 226  : 	m_dwMainActorRace = mainChrPacket.wRaceNum;

  00033	0f b7 45 d1	 movzx	 eax, WORD PTR _mainChrPacket$[ebp+5]
  00037	8b 4d cd	 mov	 ecx, DWORD PTR _mainChrPacket$[ebp+1]
  0003a	89 87 9c 00 00
	00		 mov	 DWORD PTR [edi+156], eax

; 227  : 	m_dwMainActorEmpire = mainChrPacket.byEmpire;

  00040	0f b6 45 f8	 movzx	 eax, BYTE PTR _mainChrPacket$[ebp+44]
  00044	89 87 a0 00 00
	00		 mov	 DWORD PTR [edi+160], eax

; 228  : 	m_dwMainActorSkillGroup = mainChrPacket.bySkillGroup;

  0004a	0f b6 45 f9	 movzx	 eax, BYTE PTR _mainChrPacket$[ebp+45]
  0004e	89 8f 98 00 00
	00		 mov	 DWORD PTR [edi+152], ecx

; 229  : 
; 230  : 	m_rokNetActorMgr->SetMainActorVID(m_dwMainActorVID);

  00054	51		 push	 ecx
  00055	8b 8f 0c 03 00
	00		 mov	 ecx, DWORD PTR [edi+780]
  0005b	89 87 a4 00 00
	00		 mov	 DWORD PTR [edi+164], eax
  00061	e8 00 00 00 00	 call	 ?SetMainActorVID@CNetworkActorManager@@QAEXK@Z ; CNetworkActorManager::SetMainActorVID

; 231  : 
; 232  : 	CPythonPlayer& rkPlayer=CPythonPlayer::Instance();

  00066	8b 35 00 00 00
	00		 mov	 esi, DWORD PTR ?ms_singleton@?$CSingleton@VCPythonPlayer@@@@0PAVCPythonPlayer@@A ; CSingleton<CPythonPlayer>::ms_singleton

; 233  : 	rkPlayer.SetName(mainChrPacket.szName);

  0006c	8d 45 d3	 lea	 eax, DWORD PTR _mainChrPacket$[ebp+7]
  0006f	50		 push	 eax
  00070	8b ce		 mov	 ecx, esi
  00072	e8 00 00 00 00	 call	 ?SetName@CPythonPlayer@@QAEXPBD@Z ; CPythonPlayer::SetName

; 234  : 	rkPlayer.SetMainCharacterIndex(GetMainActorVID());

  00077	8b cf		 mov	 ecx, edi
  00079	e8 00 00 00 00	 call	 ?GetMainActorVID@CPythonNetworkStream@@QAEKXZ ; CPythonNetworkStream::GetMainActorVID
  0007e	8b 56 04	 mov	 edx, DWORD PTR [esi+4]
  00081	8d 4e 04	 lea	 ecx, DWORD PTR [esi+4]
  00084	50		 push	 eax
  00085	ff 52 08	 call	 DWORD PTR [edx+8]

; 235  : 
; 236  : 	PyCallClassMemberFunc(m_apoPhaseWnd[PHASE_WINDOW_LOAD], "LoadData", Py_BuildValue("(ii)", mainChrPacket.lX, mainChrPacket.lY));

  00088	ff 75 f0	 push	 DWORD PTR _mainChrPacket$[ebp+36]
  0008b	ff 75 ec	 push	 DWORD PTR _mainChrPacket$[ebp+32]
  0008e	68 00 00 00 00	 push	 OFFSET ??_C@_04INACLLOK@?$CIii?$CJ@
  00093	ff 15 00 00 00
	00		 call	 DWORD PTR __imp__Py_BuildValue
  00099	83 c4 0c	 add	 esp, 12			; 0000000cH
  0009c	50		 push	 eax
  0009d	68 00 00 00 00	 push	 OFFSET ??_C@_08JHMIFHMN@LoadData@
  000a2	ff b7 8c 01 00
	00		 push	 DWORD PTR [edi+396]
  000a8	e8 00 00 00 00	 call	 ?PyCallClassMemberFunc@@YA_NPAU_object@@PBD0@Z ; PyCallClassMemberFunc
  000ad	83 c4 0c	 add	 esp, 12			; 0000000cH

; 237  : 
; 238  : 	//Tracef(" >> RecvMainCharacterNew : %d\n", m_dwMainActorEmpire);
; 239  : 
; 240  : 	SendClientVersionPacket();

  000b0	8b cf		 mov	 ecx, edi
  000b2	e8 00 00 00 00	 call	 ?SendClientVersionPacket@CPythonNetworkStream@@QAE_NXZ ; CPythonNetworkStream::SendClientVersionPacket

; 241  : 	return true;
; 242  : }

  000b7	8b 4d fc	 mov	 ecx, DWORD PTR __$ArrayPad$[ebp]
  000ba	b0 01		 mov	 al, 1
  000bc	5f		 pop	 edi
  000bd	33 cd		 xor	 ecx, ebp
  000bf	5e		 pop	 esi
  000c0	e8 00 00 00 00	 call	 @__security_check_cookie@4
  000c5	8b e5		 mov	 esp, ebp
  000c7	5d		 pop	 ebp
  000c8	c3		 ret	 0
?RecvMainCharacter2_EMPIRE@CPythonNetworkStream@@IAE_NXZ ENDP ; CPythonNetworkStream::RecvMainCharacter2_EMPIRE
_TEXT	ENDS
; Function compile flags: /Ogtp
; File D:\_m2work\Server Client TMP4\ClientVS22\source\UserInterface\PythonNetworkStreamPhaseLoading.cpp
;	COMDAT ?RecvMainCharacter3_BGM@CPythonNetworkStream@@IAE_NXZ
_TEXT	SEGMENT
_mainChrPacket$ = -80					; size = 71
__$ArrayPad$ = -4					; size = 4
?RecvMainCharacter3_BGM@CPythonNetworkStream@@IAE_NXZ PROC ; CPythonNetworkStream::RecvMainCharacter3_BGM, COMDAT
; _this$ = ecx

; 245  : {

  00000	55		 push	 ebp
  00001	8b ec		 mov	 ebp, esp
  00003	83 ec 50	 sub	 esp, 80			; 00000050H
  00006	a1 00 00 00 00	 mov	 eax, DWORD PTR ___security_cookie
  0000b	33 c5		 xor	 eax, ebp
  0000d	89 45 fc	 mov	 DWORD PTR __$ArrayPad$[ebp], eax
  00010	56		 push	 esi
  00011	57		 push	 edi

; 246  : 	TPacketGCMainCharacter3_BGM mainChrPacket;
; 247  : 	if (!Recv(sizeof(mainChrPacket), &mainChrPacket))

  00012	8d 45 b0	 lea	 eax, DWORD PTR _mainChrPacket$[ebp]
  00015	8b f9		 mov	 edi, ecx
  00017	50		 push	 eax
  00018	6a 47		 push	 71			; 00000047H
  0001a	e8 00 00 00 00	 call	 ?Recv@CNetworkStream@@QAE_NHPAX@Z ; CNetworkStream::Recv
  0001f	84 c0		 test	 al, al
  00021	75 10		 jne	 SHORT $LN2@RecvMainCh

; 268  : 	return true;
; 269  : }

  00023	5f		 pop	 edi
  00024	5e		 pop	 esi
  00025	8b 4d fc	 mov	 ecx, DWORD PTR __$ArrayPad$[ebp]
  00028	33 cd		 xor	 ecx, ebp
  0002a	e8 00 00 00 00	 call	 @__security_check_cookie@4
  0002f	8b e5		 mov	 esp, ebp
  00031	5d		 pop	 ebp
  00032	c3		 ret	 0
$LN2@RecvMainCh:

; 248  : 		return false;
; 249  : 
; 250  : 	m_dwMainActorVID = mainChrPacket.dwVID;
; 251  : 	m_dwMainActorRace = mainChrPacket.wRaceNum;

  00033	0f b7 45 b5	 movzx	 eax, WORD PTR _mainChrPacket$[ebp+5]
  00037	8b 4d b1	 mov	 ecx, DWORD PTR _mainChrPacket$[ebp+1]
  0003a	89 87 9c 00 00
	00		 mov	 DWORD PTR [edi+156], eax

; 252  : 	m_dwMainActorEmpire = mainChrPacket.byEmpire;

  00040	0f b6 45 f5	 movzx	 eax, BYTE PTR _mainChrPacket$[ebp+69]
  00044	89 87 a0 00 00
	00		 mov	 DWORD PTR [edi+160], eax

; 253  : 	m_dwMainActorSkillGroup = mainChrPacket.bySkillGroup;

  0004a	0f b6 45 f6	 movzx	 eax, BYTE PTR _mainChrPacket$[ebp+70]
  0004e	89 8f 98 00 00
	00		 mov	 DWORD PTR [edi+152], ecx

; 254  : 
; 255  : 	m_rokNetActorMgr->SetMainActorVID(m_dwMainActorVID);

  00054	51		 push	 ecx
  00055	8b 8f 0c 03 00
	00		 mov	 ecx, DWORD PTR [edi+780]
  0005b	89 87 a4 00 00
	00		 mov	 DWORD PTR [edi+164], eax
  00061	e8 00 00 00 00	 call	 ?SetMainActorVID@CNetworkActorManager@@QAEXK@Z ; CNetworkActorManager::SetMainActorVID

; 256  : 
; 257  : 	CPythonPlayer& rkPlayer=CPythonPlayer::Instance();

  00066	8b 35 00 00 00
	00		 mov	 esi, DWORD PTR ?ms_singleton@?$CSingleton@VCPythonPlayer@@@@0PAVCPythonPlayer@@A ; CSingleton<CPythonPlayer>::ms_singleton

; 258  : 	rkPlayer.SetName(mainChrPacket.szUserName);

  0006c	8d 45 b7	 lea	 eax, DWORD PTR _mainChrPacket$[ebp+7]
  0006f	50		 push	 eax
  00070	8b ce		 mov	 ecx, esi
  00072	e8 00 00 00 00	 call	 ?SetName@CPythonPlayer@@QAEXPBD@Z ; CPythonPlayer::SetName

; 259  : 	rkPlayer.SetMainCharacterIndex(GetMainActorVID());

  00077	8b cf		 mov	 ecx, edi
  00079	e8 00 00 00 00	 call	 ?GetMainActorVID@CPythonNetworkStream@@QAEKXZ ; CPythonNetworkStream::GetMainActorVID
  0007e	8b 56 04	 mov	 edx, DWORD PTR [esi+4]
  00081	8d 4e 04	 lea	 ecx, DWORD PTR [esi+4]
  00084	50		 push	 eax
  00085	ff 52 08	 call	 DWORD PTR [edx+8]

; 260  : 
; 261  : 	__SetFieldMusicFileName(mainChrPacket.szBGMName);

  00088	8d 45 d0	 lea	 eax, DWORD PTR _mainChrPacket$[ebp+32]
  0008b	50		 push	 eax
  0008c	e8 00 00 00 00	 call	 ?__SetFieldMusicFileName@CPythonNetworkStream@@IAEXPBD@Z ; CPythonNetworkStream::__SetFieldMusicFileName

; 262  : 
; 263  : 	PyCallClassMemberFunc(m_apoPhaseWnd[PHASE_WINDOW_LOAD], "LoadData", Py_BuildValue("(ii)", mainChrPacket.lX, mainChrPacket.lY));

  00091	ff 75 ed	 push	 DWORD PTR _mainChrPacket$[ebp+61]
  00094	ff 75 e9	 push	 DWORD PTR _mainChrPacket$[ebp+57]
  00097	68 00 00 00 00	 push	 OFFSET ??_C@_04INACLLOK@?$CIii?$CJ@
  0009c	ff 15 00 00 00
	00		 call	 DWORD PTR __imp__Py_BuildValue
  000a2	83 c4 0c	 add	 esp, 12			; 0000000cH
  000a5	50		 push	 eax
  000a6	68 00 00 00 00	 push	 OFFSET ??_C@_08JHMIFHMN@LoadData@
  000ab	ff b7 8c 01 00
	00		 push	 DWORD PTR [edi+396]
  000b1	e8 00 00 00 00	 call	 ?PyCallClassMemberFunc@@YA_NPAU_object@@PBD0@Z ; PyCallClassMemberFunc
  000b6	83 c4 0c	 add	 esp, 12			; 0000000cH

; 264  : 
; 265  : 	//Tracef(" >> RecvMainCharacterNew : %d\n", m_dwMainActorEmpire);
; 266  : 
; 267  : 	SendClientVersionPacket();

  000b9	8b cf		 mov	 ecx, edi
  000bb	e8 00 00 00 00	 call	 ?SendClientVersionPacket@CPythonNetworkStream@@QAE_NXZ ; CPythonNetworkStream::SendClientVersionPacket

; 268  : 	return true;
; 269  : }

  000c0	8b 4d fc	 mov	 ecx, DWORD PTR __$ArrayPad$[ebp]
  000c3	b0 01		 mov	 al, 1
  000c5	5f		 pop	 edi
  000c6	33 cd		 xor	 ecx, ebp
  000c8	5e		 pop	 esi
  000c9	e8 00 00 00 00	 call	 @__security_check_cookie@4
  000ce	8b e5		 mov	 esp, ebp
  000d0	5d		 pop	 ebp
  000d1	c3		 ret	 0
?RecvMainCharacter3_BGM@CPythonNetworkStream@@IAE_NXZ ENDP ; CPythonNetworkStream::RecvMainCharacter3_BGM
_TEXT	ENDS
; Function compile flags: /Ogtp
; File D:\_m2work\Server Client TMP4\ClientVS22\source\UserInterface\PythonNetworkStreamPhaseLoading.cpp
;	COMDAT ?RecvMainCharacter4_BGM_VOL@CPythonNetworkStream@@IAE_NXZ
_TEXT	SEGMENT
_mainChrPacket$ = -88					; size = 75
__$ArrayPad$ = -4					; size = 4
?RecvMainCharacter4_BGM_VOL@CPythonNetworkStream@@IAE_NXZ PROC ; CPythonNetworkStream::RecvMainCharacter4_BGM_VOL, COMDAT
; _this$ = ecx

; 272  : {

  00000	55		 push	 ebp
  00001	8b ec		 mov	 ebp, esp
  00003	83 ec 58	 sub	 esp, 88			; 00000058H
  00006	a1 00 00 00 00	 mov	 eax, DWORD PTR ___security_cookie
  0000b	33 c5		 xor	 eax, ebp
  0000d	89 45 fc	 mov	 DWORD PTR __$ArrayPad$[ebp], eax
  00010	56		 push	 esi
  00011	57		 push	 edi

; 273  : 	TPacketGCMainCharacter4_BGM_VOL mainChrPacket;
; 274  : 	if (!Recv(sizeof(mainChrPacket), &mainChrPacket))

  00012	8d 45 a8	 lea	 eax, DWORD PTR _mainChrPacket$[ebp]
  00015	8b f9		 mov	 edi, ecx
  00017	50		 push	 eax
  00018	6a 4b		 push	 75			; 0000004bH
  0001a	e8 00 00 00 00	 call	 ?Recv@CNetworkStream@@QAE_NHPAX@Z ; CNetworkStream::Recv
  0001f	84 c0		 test	 al, al
  00021	75 10		 jne	 SHORT $LN2@RecvMainCh

; 295  : 	return true;
; 296  : }

  00023	5f		 pop	 edi
  00024	5e		 pop	 esi
  00025	8b 4d fc	 mov	 ecx, DWORD PTR __$ArrayPad$[ebp]
  00028	33 cd		 xor	 ecx, ebp
  0002a	e8 00 00 00 00	 call	 @__security_check_cookie@4
  0002f	8b e5		 mov	 esp, ebp
  00031	5d		 pop	 ebp
  00032	c3		 ret	 0
$LN2@RecvMainCh:

; 275  : 		return false;
; 276  : 
; 277  : 	m_dwMainActorVID = mainChrPacket.dwVID;
; 278  : 	m_dwMainActorRace = mainChrPacket.wRaceNum;

  00033	0f b7 45 ad	 movzx	 eax, WORD PTR _mainChrPacket$[ebp+5]
  00037	8b 4d a9	 mov	 ecx, DWORD PTR _mainChrPacket$[ebp+1]
  0003a	89 87 9c 00 00
	00		 mov	 DWORD PTR [edi+156], eax

; 279  : 	m_dwMainActorEmpire = mainChrPacket.byEmpire;

  00040	0f b6 45 f1	 movzx	 eax, BYTE PTR _mainChrPacket$[ebp+73]
  00044	89 87 a0 00 00
	00		 mov	 DWORD PTR [edi+160], eax

; 280  : 	m_dwMainActorSkillGroup = mainChrPacket.bySkillGroup;

  0004a	0f b6 45 f2	 movzx	 eax, BYTE PTR _mainChrPacket$[ebp+74]
  0004e	89 8f 98 00 00
	00		 mov	 DWORD PTR [edi+152], ecx

; 281  : 
; 282  : 	m_rokNetActorMgr->SetMainActorVID(m_dwMainActorVID);

  00054	51		 push	 ecx
  00055	8b 8f 0c 03 00
	00		 mov	 ecx, DWORD PTR [edi+780]
  0005b	89 87 a4 00 00
	00		 mov	 DWORD PTR [edi+164], eax
  00061	e8 00 00 00 00	 call	 ?SetMainActorVID@CNetworkActorManager@@QAEXK@Z ; CNetworkActorManager::SetMainActorVID

; 283  : 
; 284  : 	CPythonPlayer& rkPlayer=CPythonPlayer::Instance();

  00066	8b 35 00 00 00
	00		 mov	 esi, DWORD PTR ?ms_singleton@?$CSingleton@VCPythonPlayer@@@@0PAVCPythonPlayer@@A ; CSingleton<CPythonPlayer>::ms_singleton

; 285  : 	rkPlayer.SetName(mainChrPacket.szUserName);

  0006c	8d 45 af	 lea	 eax, DWORD PTR _mainChrPacket$[ebp+7]
  0006f	50		 push	 eax
  00070	8b ce		 mov	 ecx, esi
  00072	e8 00 00 00 00	 call	 ?SetName@CPythonPlayer@@QAEXPBD@Z ; CPythonPlayer::SetName

; 286  : 	rkPlayer.SetMainCharacterIndex(GetMainActorVID());

  00077	8b cf		 mov	 ecx, edi
  00079	e8 00 00 00 00	 call	 ?GetMainActorVID@CPythonNetworkStream@@QAEKXZ ; CPythonNetworkStream::GetMainActorVID
  0007e	8b 56 04	 mov	 edx, DWORD PTR [esi+4]
  00081	8d 4e 04	 lea	 ecx, DWORD PTR [esi+4]
  00084	50		 push	 eax
  00085	ff 52 08	 call	 DWORD PTR [edx+8]

; 287  : 
; 288  : 	__SetFieldMusicFileInfo(mainChrPacket.szBGMName, mainChrPacket.fBGMVol);

  00088	f3 0f 10 55 e1	 movss	 xmm2, DWORD PTR _mainChrPacket$[ebp+57]
  0008d	8d 45 c8	 lea	 eax, DWORD PTR _mainChrPacket$[ebp+32]
  00090	50		 push	 eax
  00091	e8 00 00 00 00	 call	 ?__SetFieldMusicFileInfo@CPythonNetworkStream@@IAEXPBDM@Z ; CPythonNetworkStream::__SetFieldMusicFileInfo

; 289  : 
; 290  : 	PyCallClassMemberFunc(m_apoPhaseWnd[PHASE_WINDOW_LOAD], "LoadData", Py_BuildValue("(ii)", mainChrPacket.lX, mainChrPacket.lY));

  00096	ff 75 e9	 push	 DWORD PTR _mainChrPacket$[ebp+65]
  00099	ff 75 e5	 push	 DWORD PTR _mainChrPacket$[ebp+61]
  0009c	68 00 00 00 00	 push	 OFFSET ??_C@_04INACLLOK@?$CIii?$CJ@
  000a1	ff 15 00 00 00
	00		 call	 DWORD PTR __imp__Py_BuildValue
  000a7	83 c4 0c	 add	 esp, 12			; 0000000cH
  000aa	50		 push	 eax
  000ab	68 00 00 00 00	 push	 OFFSET ??_C@_08JHMIFHMN@LoadData@
  000b0	ff b7 8c 01 00
	00		 push	 DWORD PTR [edi+396]
  000b6	e8 00 00 00 00	 call	 ?PyCallClassMemberFunc@@YA_NPAU_object@@PBD0@Z ; PyCallClassMemberFunc
  000bb	83 c4 0c	 add	 esp, 12			; 0000000cH

; 291  : 
; 292  : 	//Tracef(" >> RecvMainCharacterNew : %d\n", m_dwMainActorEmpire);
; 293  : 
; 294  : 	SendClientVersionPacket();

  000be	8b cf		 mov	 ecx, edi
  000c0	e8 00 00 00 00	 call	 ?SendClientVersionPacket@CPythonNetworkStream@@QAE_NXZ ; CPythonNetworkStream::SendClientVersionPacket

; 295  : 	return true;
; 296  : }

  000c5	8b 4d fc	 mov	 ecx, DWORD PTR __$ArrayPad$[ebp]
  000c8	b0 01		 mov	 al, 1
  000ca	5f		 pop	 edi
  000cb	33 cd		 xor	 ecx, ebp
  000cd	5e		 pop	 esi
  000ce	e8 00 00 00 00	 call	 @__security_check_cookie@4
  000d3	8b e5		 mov	 esp, ebp
  000d5	5d		 pop	 ebp
  000d6	c3		 ret	 0
?RecvMainCharacter4_BGM_VOL@CPythonNetworkStream@@IAE_NXZ ENDP ; CPythonNetworkStream::RecvMainCharacter4_BGM_VOL
_TEXT	ENDS
; Function compile flags: /Ogtp
; File D:\_m2work\Server Client TMP4\ClientVS22\source\UserInterface\PythonNetworkStreamPhaseLoading.cpp
;	COMDAT ??__Egs_fieldMusic_fileName@@YAXXZ
text$di	SEGMENT
??__Egs_fieldMusic_fileName@@YAXXZ PROC			; `dynamic initializer for 'gs_fieldMusic_fileName'', COMDAT

; 299  : static std::string	gs_fieldMusic_fileName;

  00000	68 00 00 00 00	 push	 OFFSET ??__Fgs_fieldMusic_fileName@@YAXXZ ; `dynamic atexit destructor for 'gs_fieldMusic_fileName''
  00005	e8 00 00 00 00	 call	 _atexit
  0000a	59		 pop	 ecx
  0000b	c3		 ret	 0
??__Egs_fieldMusic_fileName@@YAXXZ ENDP			; `dynamic initializer for 'gs_fieldMusic_fileName''
text$di	ENDS
; Function compile flags: /Ogtp
; File C:\Program Files\Microsoft Visual Studio\2022\Community\VC\Tools\MSVC\14.44.35207\include\xstring
;	COMDAT ??__Fgs_fieldMusic_fileName@@YAXXZ
text$yd	SEGMENT
??__Fgs_fieldMusic_fileName@@YAXXZ PROC			; `dynamic atexit destructor for 'gs_fieldMusic_fileName'', COMDAT

; 1383 :         _Tidy_deallocate();

  00000	b9 00 00 00 00	 mov	 ecx, OFFSET ?gs_fieldMusic_fileName@@3V?$basic_string@DU?$char_traits@D@std@@V?$allocator@D@2@@std@@A
  00005	e9 00 00 00 00	 jmp	 ?_Tidy_deallocate@?$basic_string@DU?$char_traits@D@std@@V?$allocator@D@2@@std@@AAEXXZ ; std::basic_string<char,std::char_traits<char>,std::allocator<char> >::_Tidy_deallocate
??__Fgs_fieldMusic_fileName@@YAXXZ ENDP			; `dynamic atexit destructor for 'gs_fieldMusic_fileName''
text$yd	ENDS
; Function compile flags: /Ogtp
; File D:\_m2work\Server Client TMP4\ClientVS22\source\UserInterface\PythonNetworkStreamPhaseLoading.cpp
; File C:\Program Files\Microsoft Visual Studio\2022\Community\VC\Tools\MSVC\14.44.35207\include\__msvc_string_view.hpp
; File D:\_m2work\Server Client TMP4\ClientVS22\source\UserInterface\PythonNetworkStreamPhaseLoading.cpp
; File C:\Program Files\Microsoft Visual Studio\2022\Community\VC\Tools\MSVC\14.44.35207\include\__msvc_string_view.hpp
; File C:\Program Files\Microsoft Visual Studio\2022\Community\VC\Tools\MSVC\14.44.35207\include\xstring
; File D:\_m2work\Server Client TMP4\ClientVS22\source\UserInterface\PythonNetworkStreamPhaseLoading.cpp
;	COMDAT ?__SetFieldMusicFileName@CPythonNetworkStream@@IAEXPBD@Z
_TEXT	SEGMENT
_musicName$ = 8						; size = 4
?__SetFieldMusicFileName@CPythonNetworkStream@@IAEXPBD@Z PROC ; CPythonNetworkStream::__SetFieldMusicFileName, COMDAT
; _this$dead$ = ecx

; 303  : {

  00000	55		 push	 ebp
  00001	8b ec		 mov	 ebp, esp
; File C:\Program Files\Microsoft Visual Studio\2022\Community\VC\Tools\MSVC\14.44.35207\include\__msvc_string_view.hpp

; 456  :             return __builtin_strlen(_First);

  00003	8b 55 08	 mov	 edx, DWORD PTR _musicName$[ebp]
  00006	8b c2		 mov	 eax, edx
; File D:\_m2work\Server Client TMP4\ClientVS22\source\UserInterface\PythonNetworkStreamPhaseLoading.cpp

; 303  : {

  00008	56		 push	 esi
; File C:\Program Files\Microsoft Visual Studio\2022\Community\VC\Tools\MSVC\14.44.35207\include\__msvc_string_view.hpp

; 456  :             return __builtin_strlen(_First);

  00009	8d 70 01	 lea	 esi, DWORD PTR [eax+1]
  0000c	0f 1f 40 00	 npad	 4
$LL10@SetFieldMu:
  00010	8a 08		 mov	 cl, BYTE PTR [eax]
  00012	40		 inc	 eax
  00013	84 c9		 test	 cl, cl
  00015	75 f9		 jne	 SHORT $LL10@SetFieldMu
  00017	2b c6		 sub	 eax, esi
; File C:\Program Files\Microsoft Visual Studio\2022\Community\VC\Tools\MSVC\14.44.35207\include\xstring

; 1638 :         return assign(_Ptr, _Convert_size<size_type>(_Traits::length(_Ptr)));

  00019	b9 00 00 00 00	 mov	 ecx, OFFSET ?gs_fieldMusic_fileName@@3V?$basic_string@DU?$char_traits@D@std@@V?$allocator@D@2@@std@@A
  0001e	50		 push	 eax
  0001f	52		 push	 edx
  00020	e8 00 00 00 00	 call	 ?assign@?$basic_string@DU?$char_traits@D@std@@V?$allocator@D@2@@std@@QAEAAV12@QBDI@Z ; std::basic_string<char,std::char_traits<char>,std::allocator<char> >::assign
  00025	5e		 pop	 esi
; File D:\_m2work\Server Client TMP4\ClientVS22\source\UserInterface\PythonNetworkStreamPhaseLoading.cpp

; 305  : }

  00026	5d		 pop	 ebp
  00027	c2 04 00	 ret	 4
?__SetFieldMusicFileName@CPythonNetworkStream@@IAEXPBD@Z ENDP ; CPythonNetworkStream::__SetFieldMusicFileName
_TEXT	ENDS
; Function compile flags: /Ogtp
; File D:\_m2work\Server Client TMP4\ClientVS22\source\UserInterface\PythonNetworkStreamPhaseLoading.cpp
; File C:\Program Files\Microsoft Visual Studio\2022\Community\VC\Tools\MSVC\14.44.35207\include\__msvc_string_view.hpp
; File D:\_m2work\Server Client TMP4\ClientVS22\source\UserInterface\PythonNetworkStreamPhaseLoading.cpp
; File C:\Program Files\Microsoft Visual Studio\2022\Community\VC\Tools\MSVC\14.44.35207\include\__msvc_string_view.hpp
; File C:\Program Files\Microsoft Visual Studio\2022\Community\VC\Tools\MSVC\14.44.35207\include\xstring
; File D:\_m2work\Server Client TMP4\ClientVS22\source\UserInterface\PythonNetworkStreamPhaseLoading.cpp
;	COMDAT ?__SetFieldMusicFileInfo@CPythonNetworkStream@@IAEXPBDM@Z
_TEXT	SEGMENT
_vol$1$ = -4						; size = 4
_musicName$ = 8						; size = 4
?__SetFieldMusicFileInfo@CPythonNetworkStream@@IAEXPBDM@Z PROC ; CPythonNetworkStream::__SetFieldMusicFileInfo, COMDAT
; _this$dead$ = ecx
; _vol$ = xmm2s

; 308  : {

  00000	55		 push	 ebp
  00001	8b ec		 mov	 ebp, esp
  00003	51		 push	 ecx
; File C:\Program Files\Microsoft Visual Studio\2022\Community\VC\Tools\MSVC\14.44.35207\include\__msvc_string_view.hpp

; 456  :             return __builtin_strlen(_First);

  00004	8b 55 08	 mov	 edx, DWORD PTR _musicName$[ebp]
  00007	8b ca		 mov	 ecx, edx
; File D:\_m2work\Server Client TMP4\ClientVS22\source\UserInterface\PythonNetworkStreamPhaseLoading.cpp

; 308  : {

  00009	56		 push	 esi
  0000a	f3 0f 11 55 fc	 movss	 DWORD PTR _vol$1$[ebp], xmm2
; File C:\Program Files\Microsoft Visual Studio\2022\Community\VC\Tools\MSVC\14.44.35207\include\__msvc_string_view.hpp

; 456  :             return __builtin_strlen(_First);

  0000f	8d 71 01	 lea	 esi, DWORD PTR [ecx+1]
$LL10@SetFieldMu:
  00012	8a 01		 mov	 al, BYTE PTR [ecx]
  00014	41		 inc	 ecx
  00015	84 c0		 test	 al, al
  00017	75 f9		 jne	 SHORT $LL10@SetFieldMu
  00019	2b ce		 sub	 ecx, esi
; File C:\Program Files\Microsoft Visual Studio\2022\Community\VC\Tools\MSVC\14.44.35207\include\xstring

; 1638 :         return assign(_Ptr, _Convert_size<size_type>(_Traits::length(_Ptr)));

  0001b	51		 push	 ecx
  0001c	52		 push	 edx
  0001d	b9 00 00 00 00	 mov	 ecx, OFFSET ?gs_fieldMusic_fileName@@3V?$basic_string@DU?$char_traits@D@std@@V?$allocator@D@2@@std@@A
  00022	e8 00 00 00 00	 call	 ?assign@?$basic_string@DU?$char_traits@D@std@@V?$allocator@D@2@@std@@QAEAAV12@QBDI@Z ; std::basic_string<char,std::char_traits<char>,std::allocator<char> >::assign
; File D:\_m2work\Server Client TMP4\ClientVS22\source\UserInterface\PythonNetworkStreamPhaseLoading.cpp

; 310  : 	gs_fieldMusic_volume = vol;

  00027	f3 0f 10 45 fc	 movss	 xmm0, DWORD PTR _vol$1$[ebp]
  0002c	f3 0f 11 05 00
	00 00 00	 movss	 DWORD PTR ?gs_fieldMusic_volume@@3MA, xmm0
  00034	5e		 pop	 esi

; 311  : }

  00035	8b e5		 mov	 esp, ebp
  00037	5d		 pop	 ebp
  00038	c2 04 00	 ret	 4
?__SetFieldMusicFileInfo@CPythonNetworkStream@@IAEXPBDM@Z ENDP ; CPythonNetworkStream::__SetFieldMusicFileInfo
_TEXT	ENDS
END
