; Listing generated by Microsoft (R) Optimizing Compiler Version 19.44.35217.0 

	TITLE	d:\_m2work\server client tmp4\clientvs22\vs_files\userinterface\distribute\pythonnetworkstreamcommand.obj
	.686P
	.XMM
	include listing.inc
	.model	flat

INCLUDELIB OLDNAMES

PUBLIC	??_C@_01BJJEKLCA@?$CC@				; `string'
PUBLIC	??_C@_02KEGNLNML@?0?5@				; `string'
PUBLIC	??_C@_0BJ@GKNJMEFC@BINARY_ServerCommand_Run@	; `string'
PUBLIC	??_C@_0O@NGPLKLCI@ConsoleEnable@		; `string'
PUBLIC	??_C@_0N@JEPOMHGB@BettingMoney@			; `string'
PUBLIC	??_C@_04KNNLNNGO@quit@				; `string'
PUBLIC	??_C@_04FDOIBAFG@gift@				; `string'
PUBLIC	??_C@_0FD@MGEFFJHF@CPythonNetworkStream?3?3ServerCom@ ; `string'
PUBLIC	??_C@_04OIHHNFHN@cube@				; `string'
PUBLIC	??_C@_09MBHMFCFC@Gift_Show@			; `string'
PUBLIC	??_C@_0BB@OJMMNJOG@BINARY_Cube_Open@		; `string'
PUBLIC	??_C@_04PMOCAHAA@open@				; `string'
PUBLIC	??_C@_0BC@PIJLHOMJ@BINARY_Cube_Close@		; `string'
PUBLIC	??_C@_05LBOHBHFK@close@				; `string'
PUBLIC	??_C@_05HEIOBLPG@?$CIiii?$CJ@			; `string'
PUBLIC	??_C@_04NIDJFNBE@info@				; `string'
PUBLIC	??_C@_07IPNMCAN@success@			; `string'
PUBLIC	??_C@_0BH@DMGJNFKF@BINARY_Cube_UpdateInfo@	; `string'
PUBLIC	??_C@_04CCHLMOGN@fail@				; `string'
PUBLIC	??_C@_0BE@HLNHNAAA@BINARY_Cube_Succeed@		; `string'
PUBLIC	??_C@_06ODLEBDJP@r_list@			; `string'
PUBLIC	??_C@_0BD@IKENMBNJ@BINARY_Cube_Failed@		; `string'
PUBLIC	??_C@_0BH@JONCIELM@BINARY_Cube_ResultList@	; `string'
PUBLIC	??_C@_0FD@MDMGNNOD@CPythonNetworkStream?3?3ServerCom@ ; `string'
PUBLIC	??_C@_0BJ@DLFAEHHE@BINARY_Cube_MaterialInfo@	; `string'
PUBLIC	??_C@_06JEMOOCHA@m_info@			; `string'
PUBLIC	??_C@_0CL@MFEDAABM@BINARY_BettingGuildWar_UpdateOb@ ; `string'
PUBLIC	??_C@_0O@HADNNBFL@ObserverCount@		; `string'
PUBLIC	??_C@_0CH@OENJEHPK@BINARY_BettingGuildWar_SetObser@ ; `string'
PUBLIC	??_C@_0N@EBGNMPMN@ObserverMode@			; `string'
PUBLIC	??_C@_0M@EEGHHMDP@StoneDetect@			; `string'
PUBLIC	??_C@_0BB@MALBLMJA@ObserverTeamInfo@		; `string'
PUBLIC	??_C@_0EJ@MCLCAHNB@CPythonNetworkStream?3?3ServerCom@ ; `string'
PUBLIC	??_C@_0DD@COMEEBAO@StoneDetect?5?$FLVID?3?$CFd?$FN?5?$FLDistance?3@ ; `string'
PUBLIC	??_C@_0DB@KDMGCNFI@d?3?1ymir?5work?1effect?1etc?1compass@ ; `string'
PUBLIC	??_C@_0DB@CJFLAJFC@d?3?1ymir?5work?1effect?1etc?1firecra@ ; `string'
PUBLIC	??_C@_0DB@EEGLDHND@d?3?1ymir?5work?1effect?1etc?1compass@ ; `string'
PUBLIC	??_C@_0DC@MDCBLGBM@d?3?1ymir?5work?1effect?1etc?1compass@ ; `string'
PUBLIC	??_C@_0BE@FMEJBOHN@StartStaminaConsume@		; `string'
PUBLIC	??_C@_0EH@NKAADCPI@CPythonNetworkStream?3?3ServerCom@ ; `string'
PUBLIC	??_C@_03ODCMFNNH@sms@				; `string'
PUBLIC	??_C@_0BD@IEDOLMCO@StopStaminaConsume@		; `string'
PUBLIC	??_C@_0M@HBFEJGNO@mobile_auth@			; `string'
PUBLIC	??_C@_05FKDGKNNO@nosms@				; `string'
PUBLIC	??_C@_0P@EGMHBKG@messenger_auth@		; `string'
PUBLIC	??_C@_0BC@PFMPDKEI@OnMobileAuthority@		; `string'
PUBLIC	??_C@_05LLEFIEMM@combo@				; `string'
PUBLIC	??_C@_0BN@HFJFNDOJ@OnMessengerAddFriendQuestion@ ; `string'
PUBLIC	??_C@_0M@KBLDJFEH@OnBlockMode@			; `string'
PUBLIC	??_C@_0N@OCOPIGOC@setblockmode@			; `string'
PUBLIC	??_C@_04MDLEAKAL@kiss@				; `string'
PUBLIC	??_C@_0M@KHOIJDFJ@french_kiss@			; `string'
PUBLIC	??_C@_04PAJFJFCF@clap@				; `string'
PUBLIC	??_C@_04JAHFACKH@slap@				; `string'
PUBLIC	??_C@_06NLEFOMIN@cheer2@			; `string'
PUBLIC	??_C@_06PAGILPEO@cheer1@			; `string'
PUBLIC	??_C@_06HCDPFIPD@dance2@			; `string'
PUBLIC	??_C@_06FJBCALDA@dance1@			; `string'
PUBLIC	??_C@_06GLCEGJLC@dance3@			; `string'
PUBLIC	??_C@_0L@MMJCNAM@dig_motion@			; `string'
PUBLIC	??_C@_06DNHOMODE@dance5@			; `string'
PUBLIC	??_C@_06CEGFPPHF@dance4@			; `string'
PUBLIC	??_C@_0P@KFFKPMLJ@congratulation@		; `string'
PUBLIC	??_C@_06BGFDJNPH@dance6@			; `string'
PUBLIC	??_C@_05KEOOPKLE@angry@				; `string'
PUBLIC	??_C@_07JCIHIBLI@forgive@			; `string'
PUBLIC	??_C@_03OPLFCACF@sad@				; `string'
PUBLIC	??_C@_0L@BIJBGJBO@attractive@			; `string'
PUBLIC	??_C@_07MJDIFIMC@cheerup@			; `string'
PUBLIC	??_C@_03BPAIHHLG@shy@				; `string'
PUBLIC	??_C@_03DHFGHJCG@joy@				; `string'
PUBLIC	??_C@_06CMFIENOK@banter@			; `string'
PUBLIC	??_C@_0BP@HJIPKFJO@Unknown?5Server?5Command?5?$CFs?5?$HM?5?$CFs@ ; `string'
PUBLIC	??_C@_0BI@CFPLBAOH@invalid?5string?5position@	; `string'
EXTRN	?PyCallClassMemberFunc@@YA_NPAU_object@@PBD0PA_N@Z:PROC ; PyCallClassMemberFunc
EXTRN	__strcmpi:PROC
EXTRN	_isspace:PROC
;	COMDAT ?s_isFirst@?NE@??ServerCommand@CPythonNetworkStream@@QAEXPAD@Z@4_NA
_DATA	SEGMENT
?s_isFirst@?NE@??ServerCommand@CPythonNetworkStream@@QAEXPAD@Z@4_NA DB 01H ; `CPythonNetworkStream::ServerCommand'::`212'::s_isFirst
_DATA	ENDS
;	COMDAT ??_C@_0BI@CFPLBAOH@invalid?5string?5position@
CONST	SEGMENT
??_C@_0BI@CFPLBAOH@invalid?5string?5position@ DB 'invalid string position'
	DB	00H						; `string'
CONST	ENDS
;	COMDAT ??_C@_0BP@HJIPKFJO@Unknown?5Server?5Command?5?$CFs?5?$HM?5?$CFs@
CONST	SEGMENT
??_C@_0BP@HJIPKFJO@Unknown?5Server?5Command?5?$CFs?5?$HM?5?$CFs@ DB 'Unkn'
	DB	'own Server Command %s | %s', 00H		; `string'
CONST	ENDS
;	COMDAT ??_C@_06CMFIENOK@banter@
CONST	SEGMENT
??_C@_06CMFIENOK@banter@ DB 'banter', 00H		; `string'
CONST	ENDS
;	COMDAT ??_C@_03DHFGHJCG@joy@
CONST	SEGMENT
??_C@_03DHFGHJCG@joy@ DB 'joy', 00H			; `string'
CONST	ENDS
;	COMDAT ??_C@_03BPAIHHLG@shy@
CONST	SEGMENT
??_C@_03BPAIHHLG@shy@ DB 'shy', 00H			; `string'
CONST	ENDS
;	COMDAT ??_C@_07MJDIFIMC@cheerup@
CONST	SEGMENT
??_C@_07MJDIFIMC@cheerup@ DB 'cheerup', 00H		; `string'
CONST	ENDS
;	COMDAT ??_C@_0L@BIJBGJBO@attractive@
CONST	SEGMENT
??_C@_0L@BIJBGJBO@attractive@ DB 'attractive', 00H	; `string'
CONST	ENDS
;	COMDAT ??_C@_03OPLFCACF@sad@
CONST	SEGMENT
??_C@_03OPLFCACF@sad@ DB 'sad', 00H			; `string'
CONST	ENDS
;	COMDAT ??_C@_07JCIHIBLI@forgive@
CONST	SEGMENT
??_C@_07JCIHIBLI@forgive@ DB 'forgive', 00H		; `string'
CONST	ENDS
;	COMDAT ??_C@_05KEOOPKLE@angry@
CONST	SEGMENT
??_C@_05KEOOPKLE@angry@ DB 'angry', 00H			; `string'
CONST	ENDS
;	COMDAT ??_C@_06BGFDJNPH@dance6@
CONST	SEGMENT
??_C@_06BGFDJNPH@dance6@ DB 'dance6', 00H		; `string'
CONST	ENDS
;	COMDAT ??_C@_0P@KFFKPMLJ@congratulation@
CONST	SEGMENT
??_C@_0P@KFFKPMLJ@congratulation@ DB 'congratulation', 00H ; `string'
CONST	ENDS
;	COMDAT ??_C@_06CEGFPPHF@dance4@
CONST	SEGMENT
??_C@_06CEGFPPHF@dance4@ DB 'dance4', 00H		; `string'
CONST	ENDS
;	COMDAT ??_C@_06DNHOMODE@dance5@
CONST	SEGMENT
??_C@_06DNHOMODE@dance5@ DB 'dance5', 00H		; `string'
CONST	ENDS
;	COMDAT ??_C@_0L@MMJCNAM@dig_motion@
CONST	SEGMENT
??_C@_0L@MMJCNAM@dig_motion@ DB 'dig_motion', 00H	; `string'
CONST	ENDS
;	COMDAT ??_C@_06GLCEGJLC@dance3@
CONST	SEGMENT
??_C@_06GLCEGJLC@dance3@ DB 'dance3', 00H		; `string'
CONST	ENDS
;	COMDAT ??_C@_06FJBCALDA@dance1@
CONST	SEGMENT
??_C@_06FJBCALDA@dance1@ DB 'dance1', 00H		; `string'
CONST	ENDS
;	COMDAT ??_C@_06HCDPFIPD@dance2@
CONST	SEGMENT
??_C@_06HCDPFIPD@dance2@ DB 'dance2', 00H		; `string'
CONST	ENDS
;	COMDAT ??_C@_06PAGILPEO@cheer1@
CONST	SEGMENT
??_C@_06PAGILPEO@cheer1@ DB 'cheer1', 00H		; `string'
CONST	ENDS
;	COMDAT ??_C@_06NLEFOMIN@cheer2@
CONST	SEGMENT
??_C@_06NLEFOMIN@cheer2@ DB 'cheer2', 00H		; `string'
CONST	ENDS
;	COMDAT ??_C@_04JAHFACKH@slap@
CONST	SEGMENT
??_C@_04JAHFACKH@slap@ DB 'slap', 00H			; `string'
CONST	ENDS
;	COMDAT ??_C@_04PAJFJFCF@clap@
CONST	SEGMENT
??_C@_04PAJFJFCF@clap@ DB 'clap', 00H			; `string'
CONST	ENDS
;	COMDAT ??_C@_0M@KHOIJDFJ@french_kiss@
CONST	SEGMENT
??_C@_0M@KHOIJDFJ@french_kiss@ DB 'french_kiss', 00H	; `string'
CONST	ENDS
;	COMDAT ??_C@_04MDLEAKAL@kiss@
CONST	SEGMENT
??_C@_04MDLEAKAL@kiss@ DB 'kiss', 00H			; `string'
CONST	ENDS
;	COMDAT ??_C@_0N@OCOPIGOC@setblockmode@
CONST	SEGMENT
??_C@_0N@OCOPIGOC@setblockmode@ DB 'setblockmode', 00H	; `string'
CONST	ENDS
;	COMDAT ??_C@_0M@KBLDJFEH@OnBlockMode@
CONST	SEGMENT
??_C@_0M@KBLDJFEH@OnBlockMode@ DB 'OnBlockMode', 00H	; `string'
CONST	ENDS
;	COMDAT ??_C@_0BN@HFJFNDOJ@OnMessengerAddFriendQuestion@
CONST	SEGMENT
??_C@_0BN@HFJFNDOJ@OnMessengerAddFriendQuestion@ DB 'OnMessengerAddFriend'
	DB	'Question', 00H				; `string'
CONST	ENDS
;	COMDAT ??_C@_05LLEFIEMM@combo@
CONST	SEGMENT
??_C@_05LLEFIEMM@combo@ DB 'combo', 00H			; `string'
CONST	ENDS
;	COMDAT ??_C@_0BC@PFMPDKEI@OnMobileAuthority@
CONST	SEGMENT
??_C@_0BC@PFMPDKEI@OnMobileAuthority@ DB 'OnMobileAuthority', 00H ; `string'
CONST	ENDS
;	COMDAT ??_C@_0P@EGMHBKG@messenger_auth@
CONST	SEGMENT
??_C@_0P@EGMHBKG@messenger_auth@ DB 'messenger_auth', 00H ; `string'
CONST	ENDS
;	COMDAT ??_C@_05FKDGKNNO@nosms@
CONST	SEGMENT
??_C@_05FKDGKNNO@nosms@ DB 'nosms', 00H			; `string'
CONST	ENDS
;	COMDAT ??_C@_0M@HBFEJGNO@mobile_auth@
CONST	SEGMENT
??_C@_0M@HBFEJGNO@mobile_auth@ DB 'mobile_auth', 00H	; `string'
CONST	ENDS
;	COMDAT ??_C@_0BD@IEDOLMCO@StopStaminaConsume@
CONST	SEGMENT
??_C@_0BD@IEDOLMCO@StopStaminaConsume@ DB 'StopStaminaConsume', 00H ; `string'
CONST	ENDS
;	COMDAT ??_C@_03ODCMFNNH@sms@
CONST	SEGMENT
??_C@_03ODCMFNNH@sms@ DB 'sms', 00H			; `string'
CONST	ENDS
;	COMDAT ??_C@_0EH@NKAADCPI@CPythonNetworkStream?3?3ServerCom@
CONST	SEGMENT
??_C@_0EH@NKAADCPI@CPythonNetworkStream?3?3ServerCom@ DB 'CPythonNetworkS'
	DB	'tream::ServerCommand(c_szCommand=%s) - Strange Distance', 00H ; `string'
CONST	ENDS
;	COMDAT ??_C@_0BE@FMEJBOHN@StartStaminaConsume@
CONST	SEGMENT
??_C@_0BE@FMEJBOHN@StartStaminaConsume@ DB 'StartStaminaConsume', 00H ; `string'
CONST	ENDS
;	COMDAT ??_C@_0DC@MDCBLGBM@d?3?1ymir?5work?1effect?1etc?1compass@
CONST	SEGMENT
??_C@_0DC@MDCBLGBM@d?3?1ymir?5work?1effect?1etc?1compass@ DB 'd:/ymir wor'
	DB	'k/effect/etc/compass/appear_middle.mse', 00H ; `string'
CONST	ENDS
;	COMDAT ??_C@_0DB@EEGLDHND@d?3?1ymir?5work?1effect?1etc?1compass@
CONST	SEGMENT
??_C@_0DB@EEGLDHND@d?3?1ymir?5work?1effect?1etc?1compass@ DB 'd:/ymir wor'
	DB	'k/effect/etc/compass/appear_large.mse', 00H	; `string'
CONST	ENDS
;	COMDAT ??_C@_0DB@CJFLAJFC@d?3?1ymir?5work?1effect?1etc?1firecra@
CONST	SEGMENT
??_C@_0DB@CJFLAJFC@d?3?1ymir?5work?1effect?1etc?1firecra@ DB 'd:/ymir wor'
	DB	'k/effect/etc/firecracker/find_out.mse', 00H	; `string'
CONST	ENDS
;	COMDAT ??_C@_0DB@KDMGCNFI@d?3?1ymir?5work?1effect?1etc?1compass@
CONST	SEGMENT
??_C@_0DB@KDMGCNFI@d?3?1ymir?5work?1effect?1etc?1compass@ DB 'd:/ymir wor'
	DB	'k/effect/etc/compass/appear_small.mse', 00H	; `string'
CONST	ENDS
;	COMDAT ??_C@_0DD@COMEEBAO@StoneDetect?5?$FLVID?3?$CFd?$FN?5?$FLDistance?3@
CONST	SEGMENT
??_C@_0DD@COMEEBAO@StoneDetect?5?$FLVID?3?$CFd?$FN?5?$FLDistance?3@ DB 'S'
	DB	'toneDetect [VID:%d] [Distance:%d] [Angle:%d->%f]', 0aH, 00H ; `string'
CONST	ENDS
;	COMDAT ??_C@_0EJ@MCLCAHNB@CPythonNetworkStream?3?3ServerCom@
CONST	SEGMENT
??_C@_0EJ@MCLCAHNB@CPythonNetworkStream?3?3ServerCom@ DB 'CPythonNetworkS'
	DB	'tream::ServerCommand(c_szCommand=%s) - Not Exist Instance', 00H ; `string'
CONST	ENDS
;	COMDAT ??_C@_0BB@MALBLMJA@ObserverTeamInfo@
CONST	SEGMENT
??_C@_0BB@MALBLMJA@ObserverTeamInfo@ DB 'ObserverTeamInfo', 00H ; `string'
CONST	ENDS
;	COMDAT ??_C@_0M@EEGHHMDP@StoneDetect@
CONST	SEGMENT
??_C@_0M@EEGHHMDP@StoneDetect@ DB 'StoneDetect', 00H	; `string'
CONST	ENDS
;	COMDAT ??_C@_0N@EBGNMPMN@ObserverMode@
CONST	SEGMENT
??_C@_0N@EBGNMPMN@ObserverMode@ DB 'ObserverMode', 00H	; `string'
CONST	ENDS
;	COMDAT ??_C@_0CH@OENJEHPK@BINARY_BettingGuildWar_SetObser@
CONST	SEGMENT
??_C@_0CH@OENJEHPK@BINARY_BettingGuildWar_SetObser@ DB 'BINARY_BettingGui'
	DB	'ldWar_SetObserverMode', 00H			; `string'
CONST	ENDS
;	COMDAT ??_C@_0O@HADNNBFL@ObserverCount@
CONST	SEGMENT
??_C@_0O@HADNNBFL@ObserverCount@ DB 'ObserverCount', 00H ; `string'
CONST	ENDS
;	COMDAT ??_C@_0CL@MFEDAABM@BINARY_BettingGuildWar_UpdateOb@
CONST	SEGMENT
??_C@_0CL@MFEDAABM@BINARY_BettingGuildWar_UpdateOb@ DB 'BINARY_BettingGui'
	DB	'ldWar_UpdateObserverCount', 00H		; `string'
CONST	ENDS
;	COMDAT ??_C@_06JEMOOCHA@m_info@
CONST	SEGMENT
??_C@_06JEMOOCHA@m_info@ DB 'm_info', 00H		; `string'
CONST	ENDS
;	COMDAT ??_C@_0BJ@DLFAEHHE@BINARY_Cube_MaterialInfo@
CONST	SEGMENT
??_C@_0BJ@DLFAEHHE@BINARY_Cube_MaterialInfo@ DB 'BINARY_Cube_MaterialInfo'
	DB	00H						; `string'
CONST	ENDS
;	COMDAT ??_C@_0FD@MDMGNNOD@CPythonNetworkStream?3?3ServerCom@
CONST	SEGMENT
??_C@_0FD@MDMGNNOD@CPythonNetworkStream?3?3ServerCom@ DB 'CPythonNetworkS'
	DB	'tream::ServerCommand(c_szCommand=%s) - Strange Parameter Coun'
	DB	't : %d', 00H				; `string'
CONST	ENDS
;	COMDAT ??_C@_0BH@JONCIELM@BINARY_Cube_ResultList@
CONST	SEGMENT
??_C@_0BH@JONCIELM@BINARY_Cube_ResultList@ DB 'BINARY_Cube_ResultList', 00H ; `string'
CONST	ENDS
;	COMDAT ??_C@_0BD@IKENMBNJ@BINARY_Cube_Failed@
CONST	SEGMENT
??_C@_0BD@IKENMBNJ@BINARY_Cube_Failed@ DB 'BINARY_Cube_Failed', 00H ; `string'
CONST	ENDS
;	COMDAT ??_C@_06ODLEBDJP@r_list@
CONST	SEGMENT
??_C@_06ODLEBDJP@r_list@ DB 'r_list', 00H		; `string'
CONST	ENDS
;	COMDAT ??_C@_0BE@HLNHNAAA@BINARY_Cube_Succeed@
CONST	SEGMENT
??_C@_0BE@HLNHNAAA@BINARY_Cube_Succeed@ DB 'BINARY_Cube_Succeed', 00H ; `string'
CONST	ENDS
;	COMDAT ??_C@_04CCHLMOGN@fail@
CONST	SEGMENT
??_C@_04CCHLMOGN@fail@ DB 'fail', 00H			; `string'
CONST	ENDS
;	COMDAT ??_C@_0BH@DMGJNFKF@BINARY_Cube_UpdateInfo@
CONST	SEGMENT
??_C@_0BH@DMGJNFKF@BINARY_Cube_UpdateInfo@ DB 'BINARY_Cube_UpdateInfo', 00H ; `string'
CONST	ENDS
;	COMDAT ??_C@_07IPNMCAN@success@
CONST	SEGMENT
??_C@_07IPNMCAN@success@ DB 'success', 00H		; `string'
CONST	ENDS
;	COMDAT ??_C@_04NIDJFNBE@info@
CONST	SEGMENT
??_C@_04NIDJFNBE@info@ DB 'info', 00H			; `string'
CONST	ENDS
;	COMDAT ??_C@_05HEIOBLPG@?$CIiii?$CJ@
CONST	SEGMENT
??_C@_05HEIOBLPG@?$CIiii?$CJ@ DB '(iii)', 00H		; `string'
CONST	ENDS
;	COMDAT ??_C@_05LBOHBHFK@close@
CONST	SEGMENT
??_C@_05LBOHBHFK@close@ DB 'close', 00H			; `string'
CONST	ENDS
;	COMDAT ??_C@_0BC@PIJLHOMJ@BINARY_Cube_Close@
CONST	SEGMENT
??_C@_0BC@PIJLHOMJ@BINARY_Cube_Close@ DB 'BINARY_Cube_Close', 00H ; `string'
CONST	ENDS
;	COMDAT ??_C@_04PMOCAHAA@open@
CONST	SEGMENT
??_C@_04PMOCAHAA@open@ DB 'open', 00H			; `string'
CONST	ENDS
;	COMDAT ??_C@_0BB@OJMMNJOG@BINARY_Cube_Open@
CONST	SEGMENT
??_C@_0BB@OJMMNJOG@BINARY_Cube_Open@ DB 'BINARY_Cube_Open', 00H ; `string'
CONST	ENDS
;	COMDAT ??_C@_09MBHMFCFC@Gift_Show@
CONST	SEGMENT
??_C@_09MBHMFCFC@Gift_Show@ DB 'Gift_Show', 00H		; `string'
CONST	ENDS
;	COMDAT ??_C@_04OIHHNFHN@cube@
CONST	SEGMENT
??_C@_04OIHHNFHN@cube@ DB 'cube', 00H			; `string'
CONST	ENDS
;	COMDAT ??_C@_0FD@MGEFFJHF@CPythonNetworkStream?3?3ServerCom@
CONST	SEGMENT
??_C@_0FD@MGEFFJHF@CPythonNetworkStream?3?3ServerCom@ DB 'CPythonNetworkS'
	DB	'tream::ServerCommand(c_szCommand=%s) - Strange Parameter Coun'
	DB	't : %s', 00H				; `string'
CONST	ENDS
;	COMDAT ??_C@_04FDOIBAFG@gift@
CONST	SEGMENT
??_C@_04FDOIBAFG@gift@ DB 'gift', 00H			; `string'
CONST	ENDS
;	COMDAT ??_C@_04KNNLNNGO@quit@
CONST	SEGMENT
??_C@_04KNNLNNGO@quit@ DB 'quit', 00H			; `string'
CONST	ENDS
;	COMDAT ??_C@_0N@JEPOMHGB@BettingMoney@
CONST	SEGMENT
??_C@_0N@JEPOMHGB@BettingMoney@ DB 'BettingMoney', 00H	; `string'
CONST	ENDS
;	COMDAT ??_C@_0O@NGPLKLCI@ConsoleEnable@
CONST	SEGMENT
??_C@_0O@NGPLKLCI@ConsoleEnable@ DB 'ConsoleEnable', 00H ; `string'
CONST	ENDS
;	COMDAT ??_C@_0BJ@GKNJMEFC@BINARY_ServerCommand_Run@
CONST	SEGMENT
??_C@_0BJ@GKNJMEFC@BINARY_ServerCommand_Run@ DB 'BINARY_ServerCommand_Run'
	DB	00H						; `string'
CONST	ENDS
;	COMDAT ??_C@_02KEGNLNML@?0?5@
CONST	SEGMENT
??_C@_02KEGNLNML@?0?5@ DB ', ', 00H			; `string'
CONST	ENDS
;	COMDAT ??_C@_01BJJEKLCA@?$CC@
CONST	SEGMENT
??_C@_01BJJEKLCA@?$CC@ DB '"', 00H			; `string'
PUBLIC	??0?$basic_string@DU?$char_traits@D@std@@V?$allocator@D@2@@std@@QAE@ABV01@IIABV?$allocator@D@1@@Z ; std::basic_string<char,std::char_traits<char>,std::allocator<char> >::basic_string<char,std::char_traits<char>,std::allocator<char> >
PUBLIC	?_Clamp_suffix_size@?$_String_val@U?$_Simple_types@D@std@@@std@@QBEIII@Z ; std::_String_val<std::_Simple_types<char> >::_Clamp_suffix_size
PUBLIC	?_Check_offset@?$_String_val@U?$_Simple_types@D@std@@@std@@QBEXI@Z ; std::_String_val<std::_Simple_types<char> >::_Check_offset
PUBLIC	?_Xran@?$_String_val@U?$_Simple_types@D@std@@@std@@SAXXZ ; std::_String_val<std::_Simple_types<char> >::_Xran
PUBLIC	??$?0ABV?$allocator@D@std@@$$V@?$_Compressed_pair@V?$allocator@D@std@@V?$_String_val@U?$_Simple_types@D@std@@@2@$00@std@@QAE@U_One_then_variadic_args_t@1@ABV?$allocator@D@1@@Z ; std::_Compressed_pair<std::allocator<char>,std::_String_val<std::_Simple_types<char> >,1>::_Compressed_pair<std::allocator<char>,std::_String_val<std::_Simple_types<char> >,1><std::allocator<char> const &>
PUBLIC	??$forward@ABV?$allocator@D@std@@@std@@YAABV?$allocator@D@0@ABV10@@Z ; std::forward<std::allocator<char> const &>
PUBLIC	??1_Simple_reallocation_guard@?$vector@V?$basic_string@DU?$char_traits@D@std@@V?$allocator@D@2@@std@@V?$allocator@V?$basic_string@DU?$char_traits@D@std@@V?$allocator@D@2@@std@@@2@@std@@QAE@XZ ; std::vector<std::basic_string<char,std::char_traits<char>,std::allocator<char> >,std::allocator<std::basic_string<char,std::char_traits<char>,std::allocator<char> > > >::_Simple_reallocation_guard::~_Simple_reallocation_guard
PUBLIC	??$_Traits_find_first_not_of@U?$char_traits@D@std@@@std@@YAIQBDII0I@Z ; std::_Traits_find_first_not_of<std::char_traits<char> >
PUBLIC	??$_Reallocate@$0A@@?$vector@V?$basic_string@DU?$char_traits@D@std@@V?$allocator@D@2@@std@@V?$allocator@V?$basic_string@DU?$char_traits@D@std@@V?$allocator@D@2@@std@@@2@@std@@AAEXAAI@Z ; std::vector<std::basic_string<char,std::char_traits<char>,std::allocator<char> >,std::allocator<std::basic_string<char,std::char_traits<char>,std::allocator<char> > > >::_Reallocate<0>
PUBLIC	?find_first_not_of@?$basic_string@DU?$char_traits@D@std@@V?$allocator@D@2@@std@@QBEIQBDI@Z ; std::basic_string<char,std::char_traits<char>,std::allocator<char> >::find_first_not_of
PUBLIC	?substr@?$basic_string@DU?$char_traits@D@std@@V?$allocator@D@2@@std@@QGBE?AV12@II@Z ; std::basic_string<char,std::char_traits<char>,std::allocator<char> >::substr
PUBLIC	?reserve@?$vector@V?$basic_string@DU?$char_traits@D@std@@V?$allocator@D@2@@std@@V?$allocator@V?$basic_string@DU?$char_traits@D@std@@V?$allocator@D@2@@std@@@2@@std@@QAEXI@Z ; std::vector<std::basic_string<char,std::char_traits<char>,std::allocator<char> >,std::allocator<std::basic_string<char,std::char_traits<char>,std::allocator<char> > > >::reserve
PUBLIC	?empty@?$vector@V?$basic_string@DU?$char_traits@D@std@@V?$allocator@D@2@@std@@V?$allocator@V?$basic_string@DU?$char_traits@D@std@@V?$allocator@D@2@@std@@@2@@std@@QBE_NXZ ; std::vector<std::basic_string<char,std::char_traits<char>,std::allocator<char> >,std::allocator<std::basic_string<char,std::char_traits<char>,std::allocator<char> > > >::empty
PUBLIC	?GetSingleton@?$TAbstractSingleton@VIAbstractCharacterManager@@@@SAAAVIAbstractCharacterManager@@XZ ; TAbstractSingleton<IAbstractCharacterManager>::GetSingleton
PUBLIC	?ServerCommand@CPythonNetworkStream@@QAEXPAD@Z	; CPythonNetworkStream::ServerCommand
PUBLIC	?SplitToken@@YA_NPBDPAV?$vector@V?$basic_string@DU?$char_traits@D@std@@V?$allocator@D@2@@std@@V?$allocator@V?$basic_string@DU?$char_traits@D@std@@V?$allocator@D@2@@std@@@2@@std@@0@Z ; SplitToken
PUBLIC	?ClientCommand@CPythonNetworkStream@@QAE_NPBD@Z	; CPythonNetworkStream::ClientCommand
;	COMDAT ?$TSS0@?NE@??ServerCommand@CPythonNetworkStream@@QAEXPAD@Z@4HA
_BSS	SEGMENT
?$TSS0@?NE@??ServerCommand@CPythonNetworkStream@@QAEXPAD@Z@4HA DD 01H DUP (?) ; `CPythonNetworkStream::ServerCommand'::`212'::$TSS0
_BSS	ENDS
;	COMDAT ?s_emotionDict@?NE@??ServerCommand@CPythonNetworkStream@@QAEXPAD@Z@4V?$map@V?$basic_string@DU?$char_traits@D@std@@V?$allocator@D@2@@std@@HU?$less@V?$basic_string@DU?$char_traits@D@std@@V?$allocator@D@2@@std@@@2@V?$allocator@U?$pair@$$CBV?$basic_string@DU?$char_traits@D@std@@V?$allocator@D@2@@std@@H@std@@@2@@std@@A
_BSS	SEGMENT
?s_emotionDict@?NE@??ServerCommand@CPythonNetworkStream@@QAEXPAD@Z@4V?$map@V?$basic_string@DU?$char_traits@D@std@@V?$allocator@D@2@@std@@HU?$less@V?$basic_string@DU?$char_traits@D@std@@V?$allocator@D@2@@std@@@2@V?$allocator@U?$pair@$$CBV?$basic_string@DU?$char_traits@D@std@@V?$allocator@D@2@@std@@H@std@@@2@@std@@A DQ 01H DUP (?) ; `CPythonNetworkStream::ServerCommand'::`212'::s_emotionDict
_BSS	ENDS
;	COMDAT xdata$x
xdata$x	SEGMENT
__ehfuncinfo$?SplitToken@@YA_NPBDPAV?$vector@V?$basic_string@DU?$char_traits@D@std@@V?$allocator@D@2@@std@@V?$allocator@V?$basic_string@DU?$char_traits@D@std@@V?$allocator@D@2@@std@@@2@@std@@0@Z DD 019930522H
	DD	03H
	DD	FLAT:__unwindtable$?SplitToken@@YA_NPBDPAV?$vector@V?$basic_string@DU?$char_traits@D@std@@V?$allocator@D@2@@std@@V?$allocator@V?$basic_string@DU?$char_traits@D@std@@V?$allocator@D@2@@std@@@2@@std@@0@Z
	DD	2 DUP(00H)
	DD	2 DUP(00H)
	DD	00H
	DD	01H
__unwindtable$?SplitToken@@YA_NPBDPAV?$vector@V?$basic_string@DU?$char_traits@D@std@@V?$allocator@D@2@@std@@V?$allocator@V?$basic_string@DU?$char_traits@D@std@@V?$allocator@D@2@@std@@@2@@std@@0@Z DD 0ffffffffH
	DD	FLAT:__unwindfunclet$?SplitToken@@YA_NPBDPAV?$vector@V?$basic_string@DU?$char_traits@D@std@@V?$allocator@D@2@@std@@V?$allocator@V?$basic_string@DU?$char_traits@D@std@@V?$allocator@D@2@@std@@@2@@std@@0@Z$0
	DD	00H
	DD	FLAT:__unwindfunclet$?SplitToken@@YA_NPBDPAV?$vector@V?$basic_string@DU?$char_traits@D@std@@V?$allocator@D@2@@std@@V?$allocator@V?$basic_string@DU?$char_traits@D@std@@V?$allocator@D@2@@std@@@2@@std@@0@Z$1
	DD	01H
	DD	FLAT:__unwindfunclet$?SplitToken@@YA_NPBDPAV?$vector@V?$basic_string@DU?$char_traits@D@std@@V?$allocator@D@2@@std@@V?$allocator@V?$basic_string@DU?$char_traits@D@std@@V?$allocator@D@2@@std@@@2@@std@@0@Z$2
xdata$x	ENDS
;	COMDAT xdata$x
xdata$x	SEGMENT
__ehfuncinfo$?ServerCommand@CPythonNetworkStream@@QAEXPAD@Z DD 019930522H
	DD	010H
	DD	FLAT:__unwindtable$?ServerCommand@CPythonNetworkStream@@QAEXPAD@Z
	DD	2 DUP(00H)
	DD	2 DUP(00H)
	DD	00H
	DD	01H
	ORG $+4
__unwindtable$?ServerCommand@CPythonNetworkStream@@QAEXPAD@Z DD 0ffffffffH
	DD	FLAT:__unwindfunclet$?ServerCommand@CPythonNetworkStream@@QAEXPAD@Z$0
	DD	00H
	DD	FLAT:__unwindfunclet$?ServerCommand@CPythonNetworkStream@@QAEXPAD@Z$1
	DD	00H
	DD	FLAT:__unwindfunclet$?ServerCommand@CPythonNetworkStream@@QAEXPAD@Z$2
	DD	00H
	DD	FLAT:__unwindfunclet$?ServerCommand@CPythonNetworkStream@@QAEXPAD@Z$3
	DD	00H
	DD	FLAT:__unwindfunclet$?ServerCommand@CPythonNetworkStream@@QAEXPAD@Z$4
	DD	00H
	DD	FLAT:__unwindfunclet$?ServerCommand@CPythonNetworkStream@@QAEXPAD@Z$5
	DD	00H
	DD	FLAT:__unwindfunclet$?ServerCommand@CPythonNetworkStream@@QAEXPAD@Z$6
	DD	00H
	DD	FLAT:__unwindfunclet$?ServerCommand@CPythonNetworkStream@@QAEXPAD@Z$7
	DD	00H
	DD	FLAT:__unwindfunclet$?ServerCommand@CPythonNetworkStream@@QAEXPAD@Z$8
	DD	00H
	DD	FLAT:__unwindfunclet$?ServerCommand@CPythonNetworkStream@@QAEXPAD@Z$9
	DD	00H
	DD	FLAT:__unwindfunclet$?ServerCommand@CPythonNetworkStream@@QAEXPAD@Z$10
	DD	00H
	DD	FLAT:__unwindfunclet$?ServerCommand@CPythonNetworkStream@@QAEXPAD@Z$11
	DD	00H
	DD	FLAT:__unwindfunclet$?ServerCommand@CPythonNetworkStream@@QAEXPAD@Z$12
	DD	00H
	DD	FLAT:__unwindfunclet$?ServerCommand@CPythonNetworkStream@@QAEXPAD@Z$13
	DD	00H
	DD	FLAT:__unwindfunclet$?ServerCommand@CPythonNetworkStream@@QAEXPAD@Z$14
	DD	00H
	DD	FLAT:__unwindfunclet$?ServerCommand@CPythonNetworkStream@@QAEXPAD@Z$15
; Function compile flags: /Ogtp
; File D:\_m2work\Server Client TMP4\ClientVS22\source\UserInterface\PythonNetworkStreamCommand.cpp
;	COMDAT ?ClientCommand@CPythonNetworkStream@@QAE_NPBD@Z
_TEXT	SEGMENT
_c_szCommand$dead$ = 8					; size = 4
?ClientCommand@CPythonNetworkStream@@QAE_NPBD@Z PROC	; CPythonNetworkStream::ClientCommand, COMDAT
; _this$dead$ = ecx

; 85   : 	return false;

  00000	32 c0		 xor	 al, al

; 86   : }

  00002	c2 04 00	 ret	 4
?ClientCommand@CPythonNetworkStream@@QAE_NPBD@Z ENDP	; CPythonNetworkStream::ClientCommand
_TEXT	ENDS
; Function compile flags: /Ogtp
; File D:\_m2work\Server Client TMP4\ClientVS22\source\UserInterface\PythonNetworkStreamCommand.cpp
; File C:\Program Files\Microsoft Visual Studio\2022\Community\VC\Tools\MSVC\14.44.35207\include\vector
; File C:\Program Files\Microsoft Visual Studio\2022\Community\VC\Tools\MSVC\14.44.35207\include\xstring
; File C:\Program Files\Microsoft Visual Studio\2022\Community\VC\Tools\MSVC\14.44.35207\include\xmemory
; File C:\Program Files\Microsoft Visual Studio\2022\Community\VC\Tools\MSVC\14.44.35207\include\vector
; File C:\Program Files\Microsoft Visual Studio\2022\Community\VC\Tools\MSVC\14.44.35207\include\xstring
; File C:\Program Files\Microsoft Visual Studio\2022\Community\VC\Tools\MSVC\14.44.35207\include\__msvc_string_view.hpp
; File D:\_m2work\Server Client TMP4\ClientVS22\source\UserInterface\PythonNetworkStreamCommand.cpp
; File C:\Program Files\Microsoft Visual Studio\2022\Community\VC\Tools\MSVC\14.44.35207\include\xstring
; File C:\Program Files\Microsoft Visual Studio\2022\Community\VC\Tools\MSVC\14.44.35207\include\__msvc_string_view.hpp
; File C:\Program Files\Microsoft Visual Studio\2022\Community\VC\Tools\MSVC\14.44.35207\include\xstring
; File D:\_m2work\Server Client TMP4\ClientVS22\source\UserInterface\PythonNetworkStreamCommand.cpp
; File C:\Program Files\Microsoft Visual Studio\2022\Community\VC\Tools\MSVC\14.44.35207\include\xstring
; File D:\_m2work\Server Client TMP4\ClientVS22\source\UserInterface\PythonNetworkStreamCommand.cpp
; File C:\Program Files\Microsoft Visual Studio\2022\Community\VC\Tools\MSVC\14.44.35207\include\xstring
; File D:\_m2work\Server Client TMP4\ClientVS22\source\UserInterface\PythonNetworkStreamCommand.cpp
; File C:\Program Files\Microsoft Visual Studio\2022\Community\VC\Tools\MSVC\14.44.35207\include\xstring
; File D:\_m2work\Server Client TMP4\ClientVS22\source\UserInterface\PythonNetworkStreamCommand.cpp
; File C:\Program Files\Microsoft Visual Studio\2022\Community\VC\Tools\MSVC\14.44.35207\include\xstring
; File D:\_m2work\Server Client TMP4\ClientVS22\source\UserInterface\PythonNetworkStreamCommand.cpp
; File C:\Program Files\Microsoft Visual Studio\2022\Community\VC\Tools\MSVC\14.44.35207\include\xstring
; File D:\_m2work\Server Client TMP4\ClientVS22\source\UserInterface\PythonNetworkStreamCommand.cpp
; File C:\Program Files\Microsoft Visual Studio\2022\Community\VC\Tools\MSVC\14.44.35207\include\xstring
; File D:\_m2work\Server Client TMP4\ClientVS22\source\UserInterface\PythonNetworkStreamCommand.cpp
; File C:\Program Files\Microsoft Visual Studio\2022\Community\VC\Tools\MSVC\14.44.35207\include\xstring
; File D:\_m2work\Server Client TMP4\ClientVS22\source\UserInterface\PythonNetworkStreamCommand.cpp
; File C:\Program Files\Microsoft Visual Studio\2022\Community\VC\Tools\MSVC\14.44.35207\include\xstring
; File D:\_m2work\Server Client TMP4\ClientVS22\source\UserInterface\PythonNetworkStreamCommand.cpp
; File C:\Program Files\Microsoft Visual Studio\2022\Community\VC\Tools\MSVC\14.44.35207\include\xstring
; File D:\_m2work\Server Client TMP4\ClientVS22\source\UserInterface\PythonNetworkStreamCommand.cpp
; File C:\Program Files\Microsoft Visual Studio\2022\Community\VC\Tools\MSVC\14.44.35207\include\xstring
; File D:\_m2work\Server Client TMP4\ClientVS22\source\UserInterface\PythonNetworkStreamCommand.cpp
; File C:\Program Files\Microsoft Visual Studio\2022\Community\VC\Tools\MSVC\14.44.35207\include\xstring
; File C:\Program Files\Microsoft Visual Studio\2022\Community\VC\Tools\MSVC\14.44.35207\include\vector
; File D:\_m2work\Server Client TMP4\ClientVS22\source\UserInterface\PythonNetworkStreamCommand.cpp
; File C:\Program Files\Microsoft Visual Studio\2022\Community\VC\Tools\MSVC\14.44.35207\include\vector
; File C:\Program Files\Microsoft Visual Studio\2022\Community\VC\Tools\MSVC\14.44.35207\include\xstring
; File C:\Program Files\Microsoft Visual Studio\2022\Community\VC\Tools\MSVC\14.44.35207\include\vector
; File D:\_m2work\Server Client TMP4\ClientVS22\source\UserInterface\PythonNetworkStreamCommand.cpp
; File C:\Program Files\Microsoft Visual Studio\2022\Community\VC\Tools\MSVC\14.44.35207\include\xstring
; File C:\Program Files\Microsoft Visual Studio\2022\Community\VC\Tools\MSVC\14.44.35207\include\xmemory
; File C:\Program Files\Microsoft Visual Studio\2022\Community\VC\Tools\MSVC\14.44.35207\include\xstring
; File C:\Program Files\Microsoft Visual Studio\2022\Community\VC\Tools\MSVC\14.44.35207\include\xmemory
; File C:\Program Files\Microsoft Visual Studio\2022\Community\VC\Tools\MSVC\14.44.35207\include\xstring
; File D:\_m2work\Server Client TMP4\ClientVS22\source\UserInterface\PythonNetworkStreamCommand.cpp
; File C:\Program Files\Microsoft Visual Studio\2022\Community\VC\Tools\MSVC\14.44.35207\include\xstring
; File C:\Program Files\Microsoft Visual Studio\2022\Community\VC\Tools\MSVC\14.44.35207\include\xmemory
; File D:\_m2work\Server Client TMP4\ClientVS22\source\UserInterface\PythonNetworkStreamCommand.cpp
; File C:\Program Files\Microsoft Visual Studio\2022\Community\VC\Tools\MSVC\14.44.35207\include\xmemory
; File C:\Program Files\Microsoft Visual Studio\2022\Community\VC\Tools\MSVC\14.44.35207\include\xstring
; File D:\_m2work\Server Client TMP4\ClientVS22\source\UserInterface\PythonNetworkStreamCommand.cpp
;	COMDAT ?SplitToken@@YA_NPBDPAV?$vector@V?$basic_string@DU?$char_traits@D@std@@V?$allocator@D@2@@std@@V?$allocator@V?$basic_string@DU?$char_traits@D@std@@V?$allocator@D@2@@std@@@2@@std@@0@Z
_TEXT	SEGMENT
_stToken$ = -108					; size = 24
_c_szLine$GSCopy$1$ = -84				; size = 4
_pstTokenVector$GSCopy$1$ = -80				; size = 4
_basePos$1$ = -76					; size = 4
$T2 = -69						; size = 1
$T3 = -68						; size = 24
_strLine$ = -44						; size = 24
__$ArrayPad$ = -20					; size = 4
__$EHRec$ = -12						; size = 12
_c_szDelimeter$dead$ = 8				; size = 4
?SplitToken@@YA_NPBDPAV?$vector@V?$basic_string@DU?$char_traits@D@std@@V?$allocator@D@2@@std@@V?$allocator@V?$basic_string@DU?$char_traits@D@std@@V?$allocator@D@2@@std@@@2@@std@@0@Z PROC ; SplitToken, COMDAT
; _c_szLine$ = ecx
; _pstTokenVector$ = edx

; 89   : {

  00000	53		 push	 ebx
  00001	8b dc		 mov	 ebx, esp
  00003	83 ec 08	 sub	 esp, 8
  00006	83 e4 f8	 and	 esp, -8			; fffffff8H
  00009	83 c4 04	 add	 esp, 4
  0000c	55		 push	 ebp
  0000d	8b 6b 04	 mov	 ebp, DWORD PTR [ebx+4]
  00010	89 6c 24 04	 mov	 DWORD PTR [esp+4], ebp
  00014	8b ec		 mov	 ebp, esp
  00016	6a ff		 push	 -1
  00018	68 00 00 00 00	 push	 __ehhandler$?SplitToken@@YA_NPBDPAV?$vector@V?$basic_string@DU?$char_traits@D@std@@V?$allocator@D@2@@std@@V?$allocator@V?$basic_string@DU?$char_traits@D@std@@V?$allocator@D@2@@std@@@2@@std@@0@Z
  0001d	64 a1 00 00 00
	00		 mov	 eax, DWORD PTR fs:0
  00023	50		 push	 eax
  00024	53		 push	 ebx
  00025	83 ec 60	 sub	 esp, 96			; 00000060H
  00028	a1 00 00 00 00	 mov	 eax, DWORD PTR ___security_cookie
  0002d	33 c5		 xor	 eax, ebp
  0002f	89 45 ec	 mov	 DWORD PTR __$ArrayPad$[ebp], eax
  00032	56		 push	 esi
  00033	57		 push	 edi
  00034	50		 push	 eax
  00035	8d 45 f4	 lea	 eax, DWORD PTR __$EHRec$[ebp]
  00038	64 a3 00 00 00
	00		 mov	 DWORD PTR fs:0, eax
  0003e	8b fa		 mov	 edi, edx
  00040	89 7d b0	 mov	 DWORD PTR _pstTokenVector$GSCopy$1$[ebp], edi
  00043	89 4d ac	 mov	 DWORD PTR _c_szLine$GSCopy$1$[ebp], ecx

; 90   : 	pstTokenVector->reserve(10);

  00046	6a 0a		 push	 10			; 0000000aH
  00048	8b cf		 mov	 ecx, edi
  0004a	e8 00 00 00 00	 call	 ?reserve@?$vector@V?$basic_string@DU?$char_traits@D@std@@V?$allocator@D@2@@std@@V?$allocator@V?$basic_string@DU?$char_traits@D@std@@V?$allocator@D@2@@std@@@2@@std@@QAEXI@Z ; std::vector<std::basic_string<char,std::char_traits<char>,std::allocator<char> >,std::allocator<std::basic_string<char,std::char_traits<char>,std::allocator<char> > > >::reserve
; File C:\Program Files\Microsoft Visual Studio\2022\Community\VC\Tools\MSVC\14.44.35207\include\vector

; 1812 :         if (_Myfirst == _Mylast) { // already empty, nothing to do

  0004f	8b 37		 mov	 esi, DWORD PTR [edi]
  00051	8b 47 04	 mov	 eax, DWORD PTR [edi+4]
  00054	3b f0		 cmp	 esi, eax
  00056	74 1e		 je	 SHORT $LN351@SplitToken
  00058	8b f8		 mov	 edi, eax
  0005a	66 0f 1f 44 00
	00		 npad	 6
$LL358@SplitToken:
; File C:\Program Files\Microsoft Visual Studio\2022\Community\VC\Tools\MSVC\14.44.35207\include\xstring

; 1383 :         _Tidy_deallocate();

  00060	8b ce		 mov	 ecx, esi
  00062	e8 00 00 00 00	 call	 ?_Tidy_deallocate@?$basic_string@DU?$char_traits@D@std@@V?$allocator@D@2@@std@@AAEXXZ ; std::basic_string<char,std::char_traits<char>,std::allocator<char> >::_Tidy_deallocate
; File C:\Program Files\Microsoft Visual Studio\2022\Community\VC\Tools\MSVC\14.44.35207\include\xmemory

; 1102 :         for (; _First != _Last; ++_First) {

  00067	83 c6 18	 add	 esi, 24			; 00000018H
  0006a	3b f7		 cmp	 esi, edi
  0006c	75 f2		 jne	 SHORT $LL358@SplitToken
; File C:\Program Files\Microsoft Visual Studio\2022\Community\VC\Tools\MSVC\14.44.35207\include\vector

; 1822 :         _Mylast = _Myfirst;

  0006e	8b 7d b0	 mov	 edi, DWORD PTR _pstTokenVector$GSCopy$1$[ebp]
  00071	8b 07		 mov	 eax, DWORD PTR [edi]
  00073	89 47 04	 mov	 DWORD PTR [edi+4], eax
$LN351@SplitToken:
  00076	0f 57 c0	 xorps	 xmm0, xmm0
; File C:\Program Files\Microsoft Visual Studio\2022\Community\VC\Tools\MSVC\14.44.35207\include\xstring

; 860  :         _My_data._Mysize = 0;

  00079	c7 45 a4 00 00
	00 00		 mov	 DWORD PTR _stToken$[ebp+16], 0

; 493  :         _CONSTEXPR20 _Bxty() noexcept : _Buf() {} // user-provided, for fancy pointers

  00080	0f 11 45 94	 movups	 XMMWORD PTR _stToken$[ebp], xmm0

; 861  :         _My_data._Myres  = _Small_string_capacity;

  00084	c7 45 a8 0f 00
	00 00		 mov	 DWORD PTR _stToken$[ebp+20], 15 ; 0000000fH

; 862  :         _My_data._Activate_SSO_buffer();
; 863  : 
; 864  :         // the _Traits::assign is last so the codegen doesn't think the char write can alias this
; 865  :         _Traits::assign(_My_data._Bx._Buf[0], _Elem());

  0008b	c6 45 94 00	 mov	 BYTE PTR _stToken$[ebp], 0
; File C:\Program Files\Microsoft Visual Studio\2022\Community\VC\Tools\MSVC\14.44.35207\include\__msvc_string_view.hpp

; 456  :             return __builtin_strlen(_First);

  0008f	8b 55 ac	 mov	 edx, DWORD PTR _c_szLine$GSCopy$1$[ebp]
  00092	8b ca		 mov	 ecx, edx
; File D:\_m2work\Server Client TMP4\ClientVS22\source\UserInterface\PythonNetworkStreamCommand.cpp

; 93   : 	std::string stToken;

  00094	c7 45 fc 00 00
	00 00		 mov	 DWORD PTR __$EHRec$[ebp+8], 0
; File C:\Program Files\Microsoft Visual Studio\2022\Community\VC\Tools\MSVC\14.44.35207\include\xstring

; 493  :         _CONSTEXPR20 _Bxty() noexcept : _Buf() {} // user-provided, for fancy pointers

  0009b	0f 11 45 d4	 movups	 XMMWORD PTR _strLine$[ebp], xmm0

; 517  :     size_type _Mysize = 0; // current length of string (size)

  0009f	c7 45 e4 00 00
	00 00		 mov	 DWORD PTR _strLine$[ebp+16], 0

; 518  :     size_type _Myres  = 0; // current storage reserved for string (capacity)

  000a6	c7 45 e8 00 00
	00 00		 mov	 DWORD PTR _strLine$[ebp+20], 0
; File C:\Program Files\Microsoft Visual Studio\2022\Community\VC\Tools\MSVC\14.44.35207\include\__msvc_string_view.hpp

; 456  :             return __builtin_strlen(_First);

  000ad	8d 71 01	 lea	 esi, DWORD PTR [ecx+1]
$LL583@SplitToken:
  000b0	8a 01		 mov	 al, BYTE PTR [ecx]
  000b2	41		 inc	 ecx
  000b3	84 c0		 test	 al, al
  000b5	75 f9		 jne	 SHORT $LL583@SplitToken
  000b7	2b ce		 sub	 ecx, esi
; File C:\Program Files\Microsoft Visual Studio\2022\Community\VC\Tools\MSVC\14.44.35207\include\xstring

; 769  :         _Construct<_Construct_strategy::_From_ptr>(_Ptr, _Convert_size<size_type>(_Traits::length(_Ptr)));

  000b9	51		 push	 ecx
  000ba	52		 push	 edx
  000bb	8d 4d d4	 lea	 ecx, DWORD PTR _strLine$[ebp]
  000be	e8 00 00 00 00	 call	 ??$_Construct@$00PBD@?$basic_string@DU?$char_traits@D@std@@V?$allocator@D@2@@std@@AAEXQBDI@Z ; std::basic_string<char,std::char_traits<char>,std::allocator<char> >::_Construct<1,char const *>
; File D:\_m2work\Server Client TMP4\ClientVS22\source\UserInterface\PythonNetworkStreamCommand.cpp

; 94   : 	std::string strLine = c_szLine;

  000c3	c6 45 fc 01	 mov	 BYTE PTR __$EHRec$[ebp+8], 1

; 95   : 
; 96   : 	DWORD basePos = 0;

  000c7	33 d2		 xor	 edx, edx
  000c9	8b 7d d4	 mov	 edi, DWORD PTR _strLine$[ebp]
  000cc	8b 75 e8	 mov	 esi, DWORD PTR _strLine$[ebp+20]
  000cf	8b 45 e4	 mov	 eax, DWORD PTR _strLine$[ebp+16]
$LL4@SplitToken:
; File C:\Program Files\Microsoft Visual Studio\2022\Community\VC\Tools\MSVC\14.44.35207\include\xstring

; 2773 :         return static_cast<size_type>(_Traits_find_first_not_of<_Traits>(

  000d2	6a 01		 push	 1

; 453  :         return _Myres > _Small_string_capacity;

  000d4	83 fe 0f	 cmp	 esi, 15			; 0000000fH

; 444  :         const value_type* _Result = _Bx._Buf;

  000d7	8d 4d d4	 lea	 ecx, DWORD PTR _strLine$[ebp]

; 2773 :         return static_cast<size_type>(_Traits_find_first_not_of<_Traits>(

  000da	68 00 00 00 00	 push	 OFFSET ??_C@_01CLKCMJKC@?5@
  000df	52		 push	 edx

; 445  :         if (_Large_mode_engaged()) {

  000e0	0f 47 cf	 cmova	 ecx, edi

; 2773 :         return static_cast<size_type>(_Traits_find_first_not_of<_Traits>(

  000e3	8b d0		 mov	 edx, eax
  000e5	e8 00 00 00 00	 call	 ??$_Traits_find_first_not_of@U?$char_traits@D@std@@@std@@YAIQBDII0I@Z ; std::_Traits_find_first_not_of<std::char_traits<char> >
; File D:\_m2work\Server Client TMP4\ClientVS22\source\UserInterface\PythonNetworkStreamCommand.cpp

; 100  : 		int beginPos = strLine.find_first_not_of(c_szDelimeter, basePos);

  000ea	8b f0		 mov	 esi, eax
; File C:\Program Files\Microsoft Visual Studio\2022\Community\VC\Tools\MSVC\14.44.35207\include\xstring

; 2773 :         return static_cast<size_type>(_Traits_find_first_not_of<_Traits>(

  000ec	83 c4 0c	 add	 esp, 12			; 0000000cH
; File D:\_m2work\Server Client TMP4\ClientVS22\source\UserInterface\PythonNetworkStreamCommand.cpp

; 101  : 		if (beginPos < 0)

  000ef	85 f6		 test	 esi, esi
  000f1	0f 88 4c 01 00
	00		 js	 $LN557@SplitToken
; File C:\Program Files\Microsoft Visual Studio\2022\Community\VC\Tools\MSVC\14.44.35207\include\xstring

; 453  :         return _Myres > _Small_string_capacity;

  000f7	8b 45 e8	 mov	 eax, DWORD PTR _strLine$[ebp+20]

; 435  :         value_type* _Result = _Bx._Buf;

  000fa	8d 4d d4	 lea	 ecx, DWORD PTR _strLine$[ebp]
; File D:\_m2work\Server Client TMP4\ClientVS22\source\UserInterface\PythonNetworkStreamCommand.cpp

; 106  : 		if (strLine[beginPos] == '"')

  000fd	8b 55 e4	 mov	 edx, DWORD PTR _strLine$[ebp+16]
; File C:\Program Files\Microsoft Visual Studio\2022\Community\VC\Tools\MSVC\14.44.35207\include\xstring

; 453  :         return _Myres > _Small_string_capacity;

  00100	83 f8 0f	 cmp	 eax, 15			; 0000000fH
; File D:\_m2work\Server Client TMP4\ClientVS22\source\UserInterface\PythonNetworkStreamCommand.cpp

; 106  : 		if (strLine[beginPos] == '"')

  00103	6a 01		 push	 1
; File C:\Program Files\Microsoft Visual Studio\2022\Community\VC\Tools\MSVC\14.44.35207\include\xstring

; 436  :         if (_Large_mode_engaged()) {

  00105	0f 47 cf	 cmova	 ecx, edi
; File D:\_m2work\Server Client TMP4\ClientVS22\source\UserInterface\PythonNetworkStreamCommand.cpp

; 106  : 		if (strLine[beginPos] == '"')

  00108	80 3c 31 22	 cmp	 BYTE PTR [ecx+esi], 34	; 00000022H
  0010c	8d 4d d4	 lea	 ecx, DWORD PTR _strLine$[ebp]
  0010f	75 27		 jne	 SHORT $LN6@SplitToken

; 107  : 		{
; 108  : 			++beginPos;

  00111	46		 inc	 esi
; File C:\Program Files\Microsoft Visual Studio\2022\Community\VC\Tools\MSVC\14.44.35207\include\xstring

; 453  :         return _Myres > _Small_string_capacity;

  00112	83 f8 0f	 cmp	 eax, 15			; 0000000fH

; 2697 :         return static_cast<size_type>(_Traits_find_first_of<_Traits>(

  00115	68 00 00 00 00	 push	 OFFSET ??_C@_01BJJEKLCA@?$CC@

; 445  :         if (_Large_mode_engaged()) {

  0011a	0f 47 cf	 cmova	 ecx, edi

; 2697 :         return static_cast<size_type>(_Traits_find_first_of<_Traits>(

  0011d	56		 push	 esi
  0011e	e8 00 00 00 00	 call	 ??$_Traits_find_first_of@U?$char_traits@D@std@@@std@@YAIQBDII0I@Z ; std::_Traits_find_first_of<std::char_traits<char> >
; File D:\_m2work\Server Client TMP4\ClientVS22\source\UserInterface\PythonNetworkStreamCommand.cpp

; 109  : 			endPos = strLine.find_first_of("\"", beginPos);

  00123	8b c8		 mov	 ecx, eax
; File C:\Program Files\Microsoft Visual Studio\2022\Community\VC\Tools\MSVC\14.44.35207\include\xstring

; 2697 :         return static_cast<size_type>(_Traits_find_first_of<_Traits>(

  00125	83 c4 0c	 add	 esp, 12			; 0000000cH
; File D:\_m2work\Server Client TMP4\ClientVS22\source\UserInterface\PythonNetworkStreamCommand.cpp

; 111  : 			if (endPos < 0)

  00128	85 c9		 test	 ecx, ecx
  0012a	0f 88 10 01 00
	00		 js	 $LN584@SplitToken

; 112  : 				return false;
; 113  : 			
; 114  : 			basePos = endPos + 1;

  00130	8d 41 01	 lea	 eax, DWORD PTR [ecx+1]
  00133	89 45 b4	 mov	 DWORD PTR _basePos$1$[ebp], eax

; 115  : 		}

  00136	eb 19		 jmp	 SHORT $LN7@SplitToken
$LN6@SplitToken:
; File C:\Program Files\Microsoft Visual Studio\2022\Community\VC\Tools\MSVC\14.44.35207\include\xstring

; 453  :         return _Myres > _Small_string_capacity;

  00138	83 f8 0f	 cmp	 eax, 15			; 0000000fH

; 2697 :         return static_cast<size_type>(_Traits_find_first_of<_Traits>(

  0013b	68 00 00 00 00	 push	 OFFSET ??_C@_01CLKCMJKC@?5@

; 445  :         if (_Large_mode_engaged()) {

  00140	0f 47 cf	 cmova	 ecx, edi

; 2697 :         return static_cast<size_type>(_Traits_find_first_of<_Traits>(

  00143	56		 push	 esi
  00144	e8 00 00 00 00	 call	 ??$_Traits_find_first_of@U?$char_traits@D@std@@@std@@YAIQBDII0I@Z ; std::_Traits_find_first_of<std::char_traits<char> >
; File D:\_m2work\Server Client TMP4\ClientVS22\source\UserInterface\PythonNetworkStreamCommand.cpp

; 118  : 			endPos = strLine.find_first_of(c_szDelimeter, beginPos);

  00149	8b c8		 mov	 ecx, eax
; File C:\Program Files\Microsoft Visual Studio\2022\Community\VC\Tools\MSVC\14.44.35207\include\xstring

; 2697 :         return static_cast<size_type>(_Traits_find_first_of<_Traits>(

  0014b	83 c4 0c	 add	 esp, 12			; 0000000cH
; File D:\_m2work\Server Client TMP4\ClientVS22\source\UserInterface\PythonNetworkStreamCommand.cpp

; 119  : 			basePos = endPos;

  0014e	89 4d b4	 mov	 DWORD PTR _basePos$1$[ebp], ecx
$LN7@SplitToken:
; File C:\Program Files\Microsoft Visual Studio\2022\Community\VC\Tools\MSVC\14.44.35207\include\xstring

; 469  :         if (_Mysize < _Off) {

  00151	8b 45 e4	 mov	 eax, DWORD PTR _strLine$[ebp+16]
  00154	0f 57 c0	 xorps	 xmm0, xmm0

; 517  :     size_type _Mysize = 0; // current length of string (size)

  00157	c7 45 cc 00 00
	00 00		 mov	 DWORD PTR $T3[ebp+16], 0

; 518  :     size_type _Myres  = 0; // current storage reserved for string (capacity)

  0015e	c7 45 d0 00 00
	00 00		 mov	 DWORD PTR $T3[ebp+20], 0

; 493  :         _CONSTEXPR20 _Bxty() noexcept : _Buf() {} // user-provided, for fancy pointers

  00165	0f 11 45 bc	 movups	 XMMWORD PTR $T3[ebp], xmm0

; 469  :         if (_Mysize < _Off) {

  00169	3b c6		 cmp	 eax, esi
  0016b	0f 82 35 01 00
	00		 jb	 $LN559@SplitToken

; 487  :         return (_STD min)(_Size, _Mysize - _Off);

  00171	2b c6		 sub	 eax, esi
; File D:\_m2work\Server Client TMP4\ClientVS22\source\UserInterface\PythonNetworkStreamCommand.cpp

; 122  : 		pstTokenVector->push_back(strLine.substr(beginPos, endPos - beginPos));

  00173	2b ce		 sub	 ecx, esi
; File C:\Program Files\Microsoft Visual Studio\2022\Community\VC\Tools\MSVC\14.44.35207\include\xstring

; 487  :         return (_STD min)(_Size, _Mysize - _Off);

  00175	3b c1		 cmp	 eax, ecx
  00177	0f 42 c8	 cmovb	 ecx, eax

; 453  :         return _Myres > _Small_string_capacity;

  0017a	83 7d e8 0f	 cmp	 DWORD PTR _strLine$[ebp+20], 15 ; 0000000fH

; 444  :         const value_type* _Result = _Bx._Buf;

  0017e	8d 45 d4	 lea	 eax, DWORD PTR _strLine$[ebp]

; 445  :         if (_Large_mode_engaged()) {

  00181	0f 47 45 d4	 cmova	 eax, DWORD PTR _strLine$[ebp]

; 737  :         _Construct<_Construct_strategy::_From_ptr>(

  00185	51		 push	 ecx
  00186	03 c6		 add	 eax, esi
  00188	8d 4d bc	 lea	 ecx, DWORD PTR $T3[ebp]
  0018b	50		 push	 eax
  0018c	e8 00 00 00 00	 call	 ??$_Construct@$00PBD@?$basic_string@DU?$char_traits@D@std@@V?$allocator@D@2@@std@@AAEXQBDI@Z ; std::basic_string<char,std::char_traits<char>,std::allocator<char> >::_Construct<1,char const *>
; File C:\Program Files\Microsoft Visual Studio\2022\Community\VC\Tools\MSVC\14.44.35207\include\vector

; 844  :         if (_Mylast != _My_data._Myend) {

  00191	8b 45 b0	 mov	 eax, DWORD PTR _pstTokenVector$GSCopy$1$[ebp]
; File D:\_m2work\Server Client TMP4\ClientVS22\source\UserInterface\PythonNetworkStreamCommand.cpp

; 122  : 		pstTokenVector->push_back(strLine.substr(beginPos, endPos - beginPos));

  00194	c6 45 fc 02	 mov	 BYTE PTR __$EHRec$[ebp+8], 2
; File C:\Program Files\Microsoft Visual Studio\2022\Community\VC\Tools\MSVC\14.44.35207\include\vector

; 844  :         if (_Mylast != _My_data._Myend) {

  00198	8b 48 04	 mov	 ecx, DWORD PTR [eax+4]
  0019b	3b 48 08	 cmp	 ecx, DWORD PTR [eax+8]
  0019e	74 20		 je	 SHORT $LN108@SplitToken
; File C:\Program Files\Microsoft Visual Studio\2022\Community\VC\Tools\MSVC\14.44.35207\include\xstring

; 1286 :                 _CSTD memcpy(_My_data_mem, _Right_data_mem, _Memcpy_val_size);

  001a0	0f 10 45 bc	 movups	 xmm0, XMMWORD PTR $T3[ebp]

; 1287 : 
; 1288 :                 _Right_data._Mysize = 0;
; 1289 :                 _Right_data._Myres  = _Small_string_capacity;
; 1290 :                 _Right_data._Activate_SSO_buffer();
; 1291 :                 _Traits::assign(_Right_data._Bx._Buf[0], _Elem());

  001a4	c6 45 bc 00	 mov	 BYTE PTR $T3[ebp], 0
  001a8	0f 11 01	 movups	 XMMWORD PTR [ecx], xmm0
  001ab	f3 0f 7e 45 cc	 movq	 xmm0, QWORD PTR $T3[ebp+16]
  001b0	66 0f d6 41 10	 movq	 QWORD PTR [ecx+16], xmm0
  001b5	b9 0f 00 00 00	 mov	 ecx, 15			; 0000000fH
; File C:\Program Files\Microsoft Visual Studio\2022\Community\VC\Tools\MSVC\14.44.35207\include\vector

; 869  :         ++_Mylast;

  001ba	83 40 04 18	 add	 DWORD PTR [eax+4], 24	; 00000018H

; 845  :             return _Emplace_back_with_unused_capacity(_STD forward<_Valty>(_Val)...);

  001be	eb 0f		 jmp	 SHORT $LN107@SplitToken
$LN108@SplitToken:

; 846  :         }
; 847  : 
; 848  :         return *_Emplace_reallocate(_Mylast, _STD forward<_Valty>(_Val)...);

  001c0	8d 55 bc	 lea	 edx, DWORD PTR $T3[ebp]
  001c3	52		 push	 edx
  001c4	51		 push	 ecx
  001c5	8b c8		 mov	 ecx, eax
  001c7	e8 00 00 00 00	 call	 ??$_Emplace_reallocate@V?$basic_string@DU?$char_traits@D@std@@V?$allocator@D@2@@std@@@?$vector@V?$basic_string@DU?$char_traits@D@std@@V?$allocator@D@2@@std@@V?$allocator@V?$basic_string@DU?$char_traits@D@std@@V?$allocator@D@2@@std@@@2@@std@@AAEPAV?$basic_string@DU?$char_traits@D@std@@V?$allocator@D@2@@1@QAV21@$$QAV21@@Z ; std::vector<std::basic_string<char,std::char_traits<char>,std::allocator<char> >,std::allocator<std::basic_string<char,std::char_traits<char>,std::allocator<char> > > >::_Emplace_reallocate<std::basic_string<char,std::char_traits<char>,std::allocator<char> > >
  001cc	8b 4d d0	 mov	 ecx, DWORD PTR $T3[ebp+20]
$LN107@SplitToken:
; File D:\_m2work\Server Client TMP4\ClientVS22\source\UserInterface\PythonNetworkStreamCommand.cpp

; 122  : 		pstTokenVector->push_back(strLine.substr(beginPos, endPos - beginPos));

  001cf	c6 45 fc 01	 mov	 BYTE PTR __$EHRec$[ebp+8], 1
; File C:\Program Files\Microsoft Visual Studio\2022\Community\VC\Tools\MSVC\14.44.35207\include\xstring

; 453  :         return _Myres > _Small_string_capacity;

  001d3	83 f9 0f	 cmp	 ecx, 15			; 0000000fH

; 3083 :         if (_My_data._Large_mode_engaged()) {

  001d6	76 2c		 jbe	 SHORT $LN206@SplitToken
; File C:\Program Files\Microsoft Visual Studio\2022\Community\VC\Tools\MSVC\14.44.35207\include\xmemory

; 985  :         _STD _Deallocate<_New_alignof<_Ty>>(_Ptr, sizeof(_Ty) * _Count);

  001d8	8b 55 bc	 mov	 edx, DWORD PTR $T3[ebp]
; File C:\Program Files\Microsoft Visual Studio\2022\Community\VC\Tools\MSVC\14.44.35207\include\xstring

; 852  :         _Al.deallocate(_Old_ptr, _Capacity + 1); // +1 for null terminator

  001db	41		 inc	 ecx
; File C:\Program Files\Microsoft Visual Studio\2022\Community\VC\Tools\MSVC\14.44.35207\include\xmemory

; 985  :         _STD _Deallocate<_New_alignof<_Ty>>(_Ptr, sizeof(_Ty) * _Count);

  001dc	8b c2		 mov	 eax, edx

; 284  :         if (_Bytes >= _Big_allocation_threshold) {

  001de	81 f9 00 10 00
	00		 cmp	 ecx, 4096		; 00001000H
  001e4	72 14		 jb	 SHORT $LN214@SplitToken

; 205  :     const uintptr_t _Ptr_container   = _Ptr_user[-1];

  001e6	8b 50 fc	 mov	 edx, DWORD PTR [eax-4]
  001e9	83 c1 23	 add	 ecx, 35			; 00000023H
  001ec	2b c2		 sub	 eax, edx

; 219  :     _STL_VERIFY(_Back_shift >= _Min_back_shift && _Back_shift <= _Non_user_size, "invalid argument");

  001ee	83 c0 fc	 add	 eax, -4			; fffffffcH
  001f1	83 f8 1f	 cmp	 eax, 31			; 0000001fH
  001f4	0f 87 9d 00 00
	00		 ja	 $LN438@SplitToken
$LN214@SplitToken:

; 289  :         ::operator delete(_Ptr, _Bytes);

  001fa	51		 push	 ecx
  001fb	52		 push	 edx
  001fc	e8 00 00 00 00	 call	 ??3@YAXPAXI@Z		; operator delete
  00201	83 c4 08	 add	 esp, 8
$LN206@SplitToken:
; File C:\Program Files\Microsoft Visual Studio\2022\Community\VC\Tools\MSVC\14.44.35207\include\xstring

; 453  :         return _Myres > _Small_string_capacity;

  00204	8b 75 e8	 mov	 esi, DWORD PTR _strLine$[ebp+20]

; 444  :         const value_type* _Result = _Bx._Buf;

  00207	8d 4d d4	 lea	 ecx, DWORD PTR _strLine$[ebp]

; 445  :         if (_Large_mode_engaged()) {

  0020a	8b 7d d4	 mov	 edi, DWORD PTR _strLine$[ebp]

; 453  :         return _Myres > _Small_string_capacity;

  0020d	83 fe 0f	 cmp	 esi, 15			; 0000000fH

; 2773 :         return static_cast<size_type>(_Traits_find_first_not_of<_Traits>(

  00210	8b 55 e4	 mov	 edx, DWORD PTR _strLine$[ebp+16]
  00213	6a 01		 push	 1
  00215	68 00 00 00 00	 push	 OFFSET ??_C@_01CLKCMJKC@?5@
  0021a	ff 75 b4	 push	 DWORD PTR _basePos$1$[ebp]

; 445  :         if (_Large_mode_engaged()) {

  0021d	0f 47 cf	 cmova	 ecx, edi

; 2773 :         return static_cast<size_type>(_Traits_find_first_not_of<_Traits>(

  00220	e8 00 00 00 00	 call	 ??$_Traits_find_first_not_of@U?$char_traits@D@std@@@std@@YAIQBDII0I@Z ; std::_Traits_find_first_not_of<std::char_traits<char> >
  00225	83 c4 0c	 add	 esp, 12			; 0000000cH
; File D:\_m2work\Server Client TMP4\ClientVS22\source\UserInterface\PythonNetworkStreamCommand.cpp

; 125  : 		if (int(strLine.find_first_not_of(c_szDelimeter, basePos)) < 0)

  00228	85 c0		 test	 eax, eax
  0022a	78 0e		 js	 SHORT $LN3@SplitToken

; 126  : 			break;
; 127  : 	} while (basePos < strLine.length());

  0022c	8b 45 e4	 mov	 eax, DWORD PTR _strLine$[ebp+16]
  0022f	8b 55 b4	 mov	 edx, DWORD PTR _basePos$1$[ebp]
  00232	3b d0		 cmp	 edx, eax
  00234	0f 82 98 fe ff
	ff		 jb	 $LL4@SplitToken
$LN3@SplitToken:

; 129  : 	return true;

  0023a	c6 45 bb 01	 mov	 BYTE PTR $T2[ebp], 1
  0023e	eb 07		 jmp	 SHORT $LN15@SplitToken
$LN584@SplitToken:

; 111  : 			if (endPos < 0)

  00240	8b 7d d4	 mov	 edi, DWORD PTR _strLine$[ebp]
$LN557@SplitToken:
  00243	c6 45 bb 00	 mov	 BYTE PTR $T2[ebp], 0
$LN15@SplitToken:
; File C:\Program Files\Microsoft Visual Studio\2022\Community\VC\Tools\MSVC\14.44.35207\include\xstring

; 453  :         return _Myres > _Small_string_capacity;

  00247	8b 45 e8	 mov	 eax, DWORD PTR _strLine$[ebp+20]
  0024a	83 f8 0f	 cmp	 eax, 15			; 0000000fH

; 3083 :         if (_My_data._Large_mode_engaged()) {

  0024d	76 27		 jbe	 SHORT $LN431@SplitToken

; 852  :         _Al.deallocate(_Old_ptr, _Capacity + 1); // +1 for null terminator

  0024f	8d 48 01	 lea	 ecx, DWORD PTR [eax+1]
; File C:\Program Files\Microsoft Visual Studio\2022\Community\VC\Tools\MSVC\14.44.35207\include\xmemory

; 985  :         _STD _Deallocate<_New_alignof<_Ty>>(_Ptr, sizeof(_Ty) * _Count);

  00252	8b c7		 mov	 eax, edi

; 284  :         if (_Bytes >= _Big_allocation_threshold) {

  00254	81 f9 00 10 00
	00		 cmp	 ecx, 4096		; 00001000H
  0025a	72 10		 jb	 SHORT $LN439@SplitToken

; 205  :     const uintptr_t _Ptr_container   = _Ptr_user[-1];

  0025c	8b 78 fc	 mov	 edi, DWORD PTR [eax-4]
  0025f	83 c1 23	 add	 ecx, 35			; 00000023H
  00262	2b c7		 sub	 eax, edi

; 219  :     _STL_VERIFY(_Back_shift >= _Min_back_shift && _Back_shift <= _Non_user_size, "invalid argument");

  00264	83 c0 fc	 add	 eax, -4			; fffffffcH
  00267	83 f8 1f	 cmp	 eax, 31			; 0000001fH
  0026a	77 2b		 ja	 SHORT $LN438@SplitToken
$LN439@SplitToken:

; 289  :         ::operator delete(_Ptr, _Bytes);

  0026c	51		 push	 ecx
  0026d	57		 push	 edi
  0026e	e8 00 00 00 00	 call	 ??3@YAXPAXI@Z		; operator delete
  00273	83 c4 08	 add	 esp, 8
$LN431@SplitToken:
; File D:\_m2work\Server Client TMP4\ClientVS22\source\UserInterface\PythonNetworkStreamCommand.cpp

; 129  : 	return true;

  00276	8a 45 bb	 mov	 al, BYTE PTR $T2[ebp]

; 130  : }

  00279	8b 4d f4	 mov	 ecx, DWORD PTR __$EHRec$[ebp]
  0027c	64 89 0d 00 00
	00 00		 mov	 DWORD PTR fs:0, ecx
  00283	59		 pop	 ecx
  00284	5f		 pop	 edi
  00285	5e		 pop	 esi
  00286	8b 4d ec	 mov	 ecx, DWORD PTR __$ArrayPad$[ebp]
  00289	33 cd		 xor	 ecx, ebp
  0028b	e8 00 00 00 00	 call	 @__security_check_cookie@4
  00290	8b e5		 mov	 esp, ebp
  00292	5d		 pop	 ebp
  00293	8b e3		 mov	 esp, ebx
  00295	5b		 pop	 ebx
  00296	c3		 ret	 0
$LN438@SplitToken:
; File C:\Program Files\Microsoft Visual Studio\2022\Community\VC\Tools\MSVC\14.44.35207\include\xmemory

; 219  :     _STL_VERIFY(_Back_shift >= _Min_back_shift && _Back_shift <= _Non_user_size, "invalid argument");

  00297	6a 00		 push	 0
  00299	6a 00		 push	 0
  0029b	6a 00		 push	 0
  0029d	6a 00		 push	 0
  0029f	6a 00		 push	 0
  002a1	e8 00 00 00 00	 call	 __invoke_watson
$LN559@SplitToken:
; File C:\Program Files\Microsoft Visual Studio\2022\Community\VC\Tools\MSVC\14.44.35207\include\xstring

; 470  :             _Xran();

  002a6	e8 00 00 00 00	 call	 ?_Xran@?$_String_val@U?$_Simple_types@D@std@@@std@@SAXXZ ; std::_String_val<std::_Simple_types<char> >::_Xran
$LN586@SplitToken:
  002ab	cc		 int	 3
_TEXT	ENDS
;	COMDAT text$x
text$x	SEGMENT
__unwindfunclet$?SplitToken@@YA_NPBDPAV?$vector@V?$basic_string@DU?$char_traits@D@std@@V?$allocator@D@2@@std@@V?$allocator@V?$basic_string@DU?$char_traits@D@std@@V?$allocator@D@2@@std@@@2@@std@@0@Z$0:
  00000	8d 4d 94	 lea	 ecx, DWORD PTR _stToken$[ebp]
  00003	e9 00 00 00 00	 jmp	 ??1?$basic_string@DU?$char_traits@D@std@@V?$allocator@D@2@@std@@QAE@XZ ; std::basic_string<char,std::char_traits<char>,std::allocator<char> >::~basic_string<char,std::char_traits<char>,std::allocator<char> >
__unwindfunclet$?SplitToken@@YA_NPBDPAV?$vector@V?$basic_string@DU?$char_traits@D@std@@V?$allocator@D@2@@std@@V?$allocator@V?$basic_string@DU?$char_traits@D@std@@V?$allocator@D@2@@std@@@2@@std@@0@Z$1:
  00008	8d 4d d4	 lea	 ecx, DWORD PTR _strLine$[ebp]
  0000b	e9 00 00 00 00	 jmp	 ??1?$basic_string@DU?$char_traits@D@std@@V?$allocator@D@2@@std@@QAE@XZ ; std::basic_string<char,std::char_traits<char>,std::allocator<char> >::~basic_string<char,std::char_traits<char>,std::allocator<char> >
__unwindfunclet$?SplitToken@@YA_NPBDPAV?$vector@V?$basic_string@DU?$char_traits@D@std@@V?$allocator@D@2@@std@@V?$allocator@V?$basic_string@DU?$char_traits@D@std@@V?$allocator@D@2@@std@@@2@@std@@0@Z$2:
  00010	8d 4d bc	 lea	 ecx, DWORD PTR $T3[ebp]
  00013	e9 00 00 00 00	 jmp	 ??1?$basic_string@DU?$char_traits@D@std@@V?$allocator@D@2@@std@@QAE@XZ ; std::basic_string<char,std::char_traits<char>,std::allocator<char> >::~basic_string<char,std::char_traits<char>,std::allocator<char> >
  00018	cc		 int	 3
  00019	cc		 int	 3
  0001a	cc		 int	 3
  0001b	cc		 int	 3
  0001c	cc		 int	 3
__ehhandler$?SplitToken@@YA_NPBDPAV?$vector@V?$basic_string@DU?$char_traits@D@std@@V?$allocator@D@2@@std@@V?$allocator@V?$basic_string@DU?$char_traits@D@std@@V?$allocator@D@2@@std@@@2@@std@@0@Z:
  0001d	90		 npad	 1
  0001e	90		 npad	 1
  0001f	8b 54 24 08	 mov	 edx, DWORD PTR [esp+8]
  00023	8d 42 0c	 lea	 eax, DWORD PTR [edx+12]
  00026	8b 4a 90	 mov	 ecx, DWORD PTR [edx-112]
  00029	33 c8		 xor	 ecx, eax
  0002b	e8 00 00 00 00	 call	 @__security_check_cookie@4
  00030	8b 4a f8	 mov	 ecx, DWORD PTR [edx-8]
  00033	33 c8		 xor	 ecx, eax
  00035	e8 00 00 00 00	 call	 @__security_check_cookie@4
  0003a	b8 00 00 00 00	 mov	 eax, OFFSET __ehfuncinfo$?SplitToken@@YA_NPBDPAV?$vector@V?$basic_string@DU?$char_traits@D@std@@V?$allocator@D@2@@std@@V?$allocator@V?$basic_string@DU?$char_traits@D@std@@V?$allocator@D@2@@std@@@2@@std@@0@Z
  0003f	e9 00 00 00 00	 jmp	 ___CxxFrameHandler3
text$x	ENDS
?SplitToken@@YA_NPBDPAV?$vector@V?$basic_string@DU?$char_traits@D@std@@V?$allocator@D@2@@std@@V?$allocator@V?$basic_string@DU?$char_traits@D@std@@V?$allocator@D@2@@std@@@2@@std@@0@Z ENDP ; SplitToken
; Function compile flags: /Ogtp
; File D:\_m2work\Server Client TMP4\ClientVS22\source\UserInterface\PythonNetworkStreamCommand.cpp
; File C:\Program Files\Microsoft Visual Studio\2022\Community\VC\Tools\MSVC\14.44.35207\include\vector
; File D:\_m2work\Server Client TMP4\ClientVS22\source\UserInterface\PythonNetworkStreamCommand.cpp
; File C:\Program Files\Microsoft Visual Studio\2022\Community\VC\Tools\MSVC\14.44.35207\include\vector
; File D:\_m2work\Server Client TMP4\ClientVS22\source\UserInterface\PythonNetworkStreamCommand.cpp
; File C:\Program Files\Microsoft Visual Studio\2022\Community\VC\Tools\MSVC\14.44.35207\include\xstring
; File D:\_m2work\Server Client TMP4\ClientVS22\source\UserInterface\PythonNetworkStreamCommand.cpp
; File C:\Program Files\Microsoft Visual Studio\2022\Community\VC\Tools\MSVC\14.44.35207\include\vector
; File D:\_m2work\Server Client TMP4\ClientVS22\source\UserInterface\PythonNetworkStreamCommand.cpp
; File C:\Program Files\Microsoft Visual Studio\2022\Community\VC\Tools\MSVC\14.44.35207\include\vector
; File D:\_m2work\Server Client TMP4\ClientVS22\source\UserInterface\PythonNetworkStreamCommand.cpp
; File C:\Program Files\Microsoft Visual Studio\2022\Community\VC\Tools\MSVC\14.44.35207\include\vector
; File D:\_m2work\Server Client TMP4\ClientVS22\source\UserInterface\PythonNetworkStreamCommand.cpp
; File C:\Program Files\Microsoft Visual Studio\2022\Community\VC\Tools\MSVC\14.44.35207\include\vector
; File C:\Program Files\Microsoft Visual Studio\2022\Community\VC\Tools\MSVC\14.44.35207\include\xstring
; File D:\_m2work\Server Client TMP4\ClientVS22\source\UserInterface\PythonNetworkStreamCommand.cpp
; File C:\Program Files\Microsoft Visual Studio\2022\Community\VC\Tools\MSVC\14.44.35207\include\vector
; File D:\_m2work\Server Client TMP4\ClientVS22\source\UserInterface\PythonNetworkStreamCommand.cpp
; File C:\Program Files\Microsoft Visual Studio\2022\Community\VC\Tools\MSVC\14.44.35207\include\vector
; File C:\Program Files\Microsoft Visual Studio\2022\Community\VC\Tools\MSVC\14.44.35207\include\xstring
; File D:\_m2work\Server Client TMP4\ClientVS22\source\UserInterface\PythonNetworkStreamCommand.cpp
; File C:\Program Files\Microsoft Visual Studio\2022\Community\VC\Tools\MSVC\14.44.35207\include\vector
; File D:\_m2work\Server Client TMP4\ClientVS22\source\UserInterface\PythonNetworkStreamCommand.cpp
; File C:\Program Files\Microsoft Visual Studio\2022\Community\VC\Tools\MSVC\14.44.35207\include\vector
; File D:\_m2work\Server Client TMP4\ClientVS22\source\UserInterface\PythonNetworkStreamCommand.cpp
; File C:\Program Files\Microsoft Visual Studio\2022\Community\VC\Tools\MSVC\14.44.35207\include\xstring
; File D:\_m2work\Server Client TMP4\ClientVS22\source\UserInterface\PythonNetworkStreamCommand.cpp
; File C:\Program Files\Microsoft Visual Studio\2022\Community\VC\Tools\MSVC\14.44.35207\include\vector
; File D:\_m2work\Server Client TMP4\ClientVS22\source\UserInterface\PythonNetworkStreamCommand.cpp
; File C:\Program Files\Microsoft Visual Studio\2022\Community\VC\Tools\MSVC\14.44.35207\include\vector
; File D:\_m2work\Server Client TMP4\ClientVS22\source\UserInterface\PythonNetworkStreamCommand.cpp
; File C:\Program Files\Microsoft Visual Studio\2022\Community\VC\Tools\MSVC\14.44.35207\include\xstring
; File D:\_m2work\Server Client TMP4\ClientVS22\source\UserInterface\PythonNetworkStreamCommand.cpp
; File C:\Program Files\Microsoft Visual Studio\2022\Community\VC\Tools\MSVC\14.44.35207\include\vector
; File C:\Program Files\Microsoft Visual Studio\2022\Community\VC\Tools\MSVC\14.44.35207\include\xstring
; File D:\_m2work\Server Client TMP4\ClientVS22\source\UserInterface\PythonNetworkStreamCommand.cpp
; File C:\Program Files\Microsoft Visual Studio\2022\Community\VC\Tools\MSVC\14.44.35207\include\vector
; File D:\_m2work\Server Client TMP4\ClientVS22\source\UserInterface\PythonNetworkStreamCommand.cpp
; File C:\Program Files\Microsoft Visual Studio\2022\Community\VC\Tools\MSVC\14.44.35207\include\vector
; File D:\_m2work\Server Client TMP4\ClientVS22\source\UserInterface\PythonNetworkStreamCommand.cpp
; File C:\Program Files\Microsoft Visual Studio\2022\Community\VC\Tools\MSVC\14.44.35207\include\xstring
; File D:\_m2work\Server Client TMP4\ClientVS22\source\UserInterface\PythonNetworkStreamCommand.cpp
; File C:\Program Files\Microsoft Visual Studio\2022\Community\VC\Tools\MSVC\14.44.35207\include\vector
; File D:\_m2work\Server Client TMP4\ClientVS22\source\UserInterface\PythonNetworkStreamCommand.cpp
; File C:\Program Files\Microsoft Visual Studio\2022\Community\VC\Tools\MSVC\14.44.35207\include\vector
; File D:\_m2work\Server Client TMP4\ClientVS22\source\UserInterface\PythonNetworkStreamCommand.cpp
; File C:\Program Files\Microsoft Visual Studio\2022\Community\VC\Tools\MSVC\14.44.35207\include\vector
; File C:\Program Files\Microsoft Visual Studio\2022\Community\VC\Tools\MSVC\14.44.35207\include\xstring
; File D:\_m2work\Server Client TMP4\ClientVS22\source\UserInterface\PythonNetworkStreamCommand.cpp
; File C:\Program Files\Microsoft Visual Studio\2022\Community\VC\Tools\MSVC\14.44.35207\include\vector
; File D:\_m2work\Server Client TMP4\ClientVS22\source\UserInterface\PythonNetworkStreamCommand.cpp
; File C:\Program Files\Microsoft Visual Studio\2022\Community\VC\Tools\MSVC\14.44.35207\include\vector
; File C:\Program Files\Microsoft Visual Studio\2022\Community\VC\Tools\MSVC\14.44.35207\include\xstring
; File D:\_m2work\Server Client TMP4\ClientVS22\source\UserInterface\PythonNetworkStreamCommand.cpp
; File C:\Program Files\Microsoft Visual Studio\2022\Community\VC\Tools\MSVC\14.44.35207\include\vector
; File D:\_m2work\Server Client TMP4\ClientVS22\source\UserInterface\PythonNetworkStreamCommand.cpp
; File C:\Program Files\Microsoft Visual Studio\2022\Community\VC\Tools\MSVC\14.44.35207\include\vector
; File C:\Program Files\Microsoft Visual Studio\2022\Community\VC\Tools\MSVC\14.44.35207\include\xstring
; File D:\_m2work\Server Client TMP4\ClientVS22\source\UserInterface\PythonNetworkStreamCommand.cpp
; File C:\Program Files\Microsoft Visual Studio\2022\Community\VC\Tools\MSVC\14.44.35207\include\vector
; File D:\_m2work\Server Client TMP4\ClientVS22\source\UserInterface\PythonNetworkStreamCommand.cpp
; File C:\Program Files\Microsoft Visual Studio\2022\Community\VC\Tools\MSVC\14.44.35207\include\vector
; File D:\_m2work\Server Client TMP4\ClientVS22\source\UserInterface\PythonNetworkStreamCommand.cpp
; File C:\Program Files\Microsoft Visual Studio\2022\Community\VC\Tools\MSVC\14.44.35207\include\xstring
; File D:\_m2work\Server Client TMP4\ClientVS22\source\UserInterface\PythonNetworkStreamCommand.cpp
; File C:\Program Files\Microsoft Visual Studio\2022\Community\VC\Tools\MSVC\14.44.35207\include\vector
; File D:\_m2work\Server Client TMP4\ClientVS22\source\UserInterface\PythonNetworkStreamCommand.cpp
; File C:\Program Files\Microsoft Visual Studio\2022\Community\VC\Tools\MSVC\14.44.35207\include\vector
; File C:\Program Files\Microsoft Visual Studio\2022\Community\VC\Tools\MSVC\14.44.35207\include\xstring
; File D:\_m2work\Server Client TMP4\ClientVS22\source\UserInterface\PythonNetworkStreamCommand.cpp
; File C:\Program Files\Microsoft Visual Studio\2022\Community\VC\Tools\MSVC\14.44.35207\include\vector
; File D:\_m2work\Server Client TMP4\ClientVS22\source\UserInterface\PythonNetworkStreamCommand.cpp
; File C:\Program Files\Microsoft Visual Studio\2022\Community\VC\Tools\MSVC\14.44.35207\include\xstring
; File C:\Program Files\Microsoft Visual Studio\2022\Community\VC\Tools\MSVC\14.44.35207\include\vector
; File C:\Program Files\Microsoft Visual Studio\2022\Community\VC\Tools\MSVC\14.44.35207\include\xstring
; File D:\_m2work\Server Client TMP4\ClientVS22\source\UserInterface\PythonNetworkStreamCommand.cpp
; File C:\Program Files\Microsoft Visual Studio\2022\Community\VC\Tools\MSVC\14.44.35207\include\vector
; File D:\_m2work\Server Client TMP4\ClientVS22\source\UserInterface\PythonNetworkStreamCommand.cpp
; File C:\Program Files\Microsoft Visual Studio\2022\Community\VC\Tools\MSVC\14.44.35207\include\xstring
; File C:\Program Files\Microsoft Visual Studio\2022\Community\VC\Tools\MSVC\14.44.35207\include\vector
; File C:\Program Files\Microsoft Visual Studio\2022\Community\VC\Tools\MSVC\14.44.35207\include\xstring
; File D:\_m2work\Server Client TMP4\ClientVS22\source\UserInterface\PythonNetworkStreamCommand.cpp
; File C:\Program Files\Microsoft Visual Studio\2022\Community\VC\Tools\MSVC\14.44.35207\include\vector
; File D:\_m2work\Server Client TMP4\ClientVS22\source\UserInterface\PythonNetworkStreamCommand.cpp
; File C:\Program Files\Microsoft Visual Studio\2022\Community\VC\Tools\MSVC\14.44.35207\include\vector
; File C:\Program Files\Microsoft Visual Studio\2022\Community\VC\Tools\MSVC\14.44.35207\include\xstring
; File C:\Program Files\Microsoft Visual Studio\2022\Community\VC\Tools\MSVC\14.44.35207\include\vector
; File C:\Program Files\Microsoft Visual Studio\2022\Community\VC\Tools\MSVC\14.44.35207\include\xstring
; File D:\_m2work\Server Client TMP4\ClientVS22\source\UserInterface\PythonNetworkStreamCommand.cpp
; File C:\Program Files\Microsoft Visual Studio\2022\Community\VC\Tools\MSVC\14.44.35207\include\vector
; File D:\_m2work\Server Client TMP4\ClientVS22\source\UserInterface\PythonNetworkStreamCommand.cpp
; File C:\Program Files\Microsoft Visual Studio\2022\Community\VC\Tools\MSVC\14.44.35207\include\vector
; File D:\_m2work\Server Client TMP4\ClientVS22\source\UserInterface\PythonNetworkStreamCommand.cpp
; File C:\Program Files\Microsoft Visual Studio\2022\Community\VC\Tools\MSVC\14.44.35207\include\xstring
; File D:\_m2work\Server Client TMP4\ClientVS22\source\UserInterface\PythonNetworkStreamCommand.cpp
; File C:\Program Files\Microsoft Visual Studio\2022\Community\VC\Tools\MSVC\14.44.35207\include\vector
; File D:\_m2work\Server Client TMP4\ClientVS22\source\UserInterface\PythonNetworkStreamCommand.cpp
; File C:\Program Files\Microsoft Visual Studio\2022\Community\VC\Tools\MSVC\14.44.35207\include\vector
; File D:\_m2work\Server Client TMP4\ClientVS22\source\UserInterface\PythonNetworkStreamCommand.cpp
; File C:\Program Files\Microsoft Visual Studio\2022\Community\VC\Tools\MSVC\14.44.35207\include\xstring
; File D:\_m2work\Server Client TMP4\ClientVS22\source\UserInterface\PythonNetworkStreamCommand.cpp
; File C:\Program Files\Microsoft Visual Studio\2022\Community\VC\Tools\MSVC\14.44.35207\include\cmath
; File D:\_m2work\Server Client TMP4\ClientVS22\source\UserInterface\PythonNetworkStreamCommand.cpp
; File C:\Program Files\Microsoft Visual Studio\2022\Community\VC\Tools\MSVC\14.44.35207\include\cmath
; File C:\Program Files\Microsoft Visual Studio\2022\Community\VC\Tools\MSVC\14.44.35207\include\vector
; File C:\Program Files\Microsoft Visual Studio\2022\Community\VC\Tools\MSVC\14.44.35207\include\cmath
; File C:\Program Files\Microsoft Visual Studio\2022\Community\VC\Tools\MSVC\14.44.35207\include\xstring
; File D:\_m2work\Server Client TMP4\ClientVS22\source\UserInterface\PythonNetworkStreamCommand.cpp
; File D:\_m2work\Server Client TMP4\ClientVS22\extern\include\d3dx8math.inl
; File D:\_m2work\Server Client TMP4\ClientVS22\source\UserInterface\PythonNetworkStreamCommand.cpp
; File D:\_m2work\Server Client TMP4\ClientVS22\extern\include\d3dx8math.inl
; File D:\_m2work\Server Client TMP4\ClientVS22\source\UserInterface\PythonNetworkStreamCommand.cpp
; File C:\Program Files\Microsoft Visual Studio\2022\Community\VC\Tools\MSVC\14.44.35207\include\vector
; File D:\_m2work\Server Client TMP4\ClientVS22\source\UserInterface\PythonNetworkStreamCommand.cpp
; File C:\Program Files\Microsoft Visual Studio\2022\Community\VC\Tools\MSVC\14.44.35207\include\vector
; File D:\_m2work\Server Client TMP4\ClientVS22\source\UserInterface\PythonNetworkStreamCommand.cpp
; File C:\Program Files\Microsoft Visual Studio\2022\Community\VC\Tools\MSVC\14.44.35207\include\xstring
; File C:\Program Files\Microsoft Visual Studio\2022\Community\VC\Tools\MSVC\14.44.35207\include\vector
; File C:\Program Files\Microsoft Visual Studio\2022\Community\VC\Tools\MSVC\14.44.35207\include\xstring
; File D:\_m2work\Server Client TMP4\ClientVS22\source\UserInterface\PythonNetworkStreamCommand.cpp
; File C:\Program Files\Microsoft Visual Studio\2022\Community\VC\Tools\MSVC\14.44.35207\include\vector
; File D:\_m2work\Server Client TMP4\ClientVS22\source\UserInterface\PythonNetworkStreamCommand.cpp
; File C:\Program Files\Microsoft Visual Studio\2022\Community\VC\Tools\MSVC\14.44.35207\include\vector
; File D:\_m2work\Server Client TMP4\ClientVS22\source\UserInterface\PythonNetworkStreamCommand.cpp
; File C:\Program Files\Microsoft Visual Studio\2022\Community\VC\Tools\MSVC\14.44.35207\include\xstring
; File D:\_m2work\Server Client TMP4\ClientVS22\source\UserInterface\PythonNetworkStreamCommand.cpp
; File C:\Program Files\Microsoft Visual Studio\2022\Community\VC\Tools\MSVC\14.44.35207\include\vector
; File D:\_m2work\Server Client TMP4\ClientVS22\source\UserInterface\PythonNetworkStreamCommand.cpp
; File C:\Program Files\Microsoft Visual Studio\2022\Community\VC\Tools\MSVC\14.44.35207\include\xstring
; File C:\Program Files\Microsoft Visual Studio\2022\Community\VC\Tools\MSVC\14.44.35207\include\vector
; File C:\Program Files\Microsoft Visual Studio\2022\Community\VC\Tools\MSVC\14.44.35207\include\xstring
; File D:\_m2work\Server Client TMP4\ClientVS22\source\UserInterface\PythonNetworkStreamCommand.cpp
; File C:\Program Files\Microsoft Visual Studio\2022\Community\VC\Tools\MSVC\14.44.35207\include\vector
; File D:\_m2work\Server Client TMP4\ClientVS22\source\UserInterface\PythonNetworkStreamCommand.cpp
; File C:\Program Files\Microsoft Visual Studio\2022\Community\VC\Tools\MSVC\14.44.35207\include\vector
; File C:\Program Files\Microsoft Visual Studio\2022\Community\VC\Tools\MSVC\14.44.35207\include\xstring
; File D:\_m2work\Server Client TMP4\ClientVS22\source\UserInterface\PythonNetworkStreamCommand.cpp
; File C:\Program Files\Microsoft Visual Studio\2022\Community\VC\Tools\MSVC\14.44.35207\include\xstring
; File D:\_m2work\Server Client TMP4\ClientVS22\source\UserInterface\PythonNetworkStreamCommand.cpp
; File C:\Program Files\Microsoft Visual Studio\2022\Community\VC\Tools\MSVC\14.44.35207\include\xstring
; File D:\_m2work\Server Client TMP4\ClientVS22\source\UserInterface\PythonNetworkStreamCommand.cpp
; File C:\Program Files\Microsoft Visual Studio\2022\Community\VC\Tools\MSVC\14.44.35207\include\vector
; File C:\Program Files\Microsoft Visual Studio\2022\Community\VC\Tools\MSVC\14.44.35207\include\xstring
; File D:\_m2work\Server Client TMP4\ClientVS22\source\UserInterface\PythonNetworkStreamCommand.cpp
; File C:\Program Files\Microsoft Visual Studio\2022\Community\VC\Tools\MSVC\14.44.35207\include\vector
; File C:\Program Files\Microsoft Visual Studio\2022\Community\VC\Tools\MSVC\14.44.35207\include\xstring
; File D:\_m2work\Server Client TMP4\ClientVS22\source\UserInterface\PythonNetworkStreamCommand.cpp
; File C:\Program Files\Microsoft Visual Studio\2022\Community\VC\Tools\MSVC\14.44.35207\include\vector
; File C:\Program Files\Microsoft Visual Studio\2022\Community\VC\Tools\MSVC\14.44.35207\include\xstring
; File D:\_m2work\Server Client TMP4\ClientVS22\source\UserInterface\PythonNetworkStreamCommand.cpp
; File C:\Program Files\Microsoft Visual Studio\2022\Community\VC\Tools\MSVC\14.44.35207\include\vector
; File D:\_m2work\Server Client TMP4\ClientVS22\source\UserInterface\PythonNetworkStreamCommand.cpp
; File C:\Program Files\Microsoft Visual Studio\2022\Community\VC\Tools\MSVC\14.44.35207\include\vector
; File D:\_m2work\Server Client TMP4\ClientVS22\source\UserInterface\PythonNetworkStreamCommand.cpp
; File C:\Program Files\Microsoft Visual Studio\2022\Community\VC\Tools\MSVC\14.44.35207\include\xstring
; File D:\_m2work\Server Client TMP4\ClientVS22\source\UserInterface\PythonNetworkStreamCommand.cpp
; File C:\Program Files\Microsoft Visual Studio\2022\Community\VC\Tools\MSVC\14.44.35207\include\vector
; File C:\Program Files\Microsoft Visual Studio\2022\Community\VC\Tools\MSVC\14.44.35207\include\xstring
; File D:\_m2work\Server Client TMP4\ClientVS22\source\UserInterface\PythonNetworkStreamCommand.cpp
; File C:\Program Files\Microsoft Visual Studio\2022\Community\VC\Tools\MSVC\14.44.35207\include\vector
; File D:\_m2work\Server Client TMP4\ClientVS22\source\UserInterface\PythonNetworkStreamCommand.cpp
; File C:\Program Files\Microsoft Visual Studio\2022\Community\VC\Tools\MSVC\14.44.35207\include\vector
; File D:\_m2work\Server Client TMP4\ClientVS22\source\UserInterface\PythonNetworkStreamCommand.cpp
; File C:\Program Files\Microsoft Visual Studio\2022\Community\VC\Tools\MSVC\14.44.35207\include\xstring
; File D:\_m2work\Server Client TMP4\ClientVS22\source\UserInterface\PythonNetworkStreamCommand.cpp
; File C:\Program Files\Microsoft Visual Studio\2022\Community\VC\Tools\MSVC\14.44.35207\include\vector
; File C:\Program Files\Microsoft Visual Studio\2022\Community\VC\Tools\MSVC\14.44.35207\include\xstring
; File D:\_m2work\Server Client TMP4\ClientVS22\source\UserInterface\PythonNetworkStreamCommand.cpp
; File C:\Program Files\Microsoft Visual Studio\2022\Community\VC\Tools\MSVC\14.44.35207\include\vector
; File D:\_m2work\Server Client TMP4\ClientVS22\source\UserInterface\PythonNetworkStreamCommand.cpp
; File C:\Program Files\Microsoft Visual Studio\2022\Community\VC\Tools\MSVC\14.44.35207\include\vector
; File D:\_m2work\Server Client TMP4\ClientVS22\source\UserInterface\PythonNetworkStreamCommand.cpp
; File C:\Program Files\Microsoft Visual Studio\2022\Community\VC\Tools\MSVC\14.44.35207\include\xstring
; File D:\_m2work\Server Client TMP4\ClientVS22\source\UserInterface\PythonNetworkStreamCommand.cpp
; File C:\Program Files\Microsoft Visual Studio\2022\Community\VC\Tools\MSVC\14.44.35207\include\vector
; File C:\Program Files\Microsoft Visual Studio\2022\Community\VC\Tools\MSVC\14.44.35207\include\xstring
; File D:\_m2work\Server Client TMP4\ClientVS22\source\UserInterface\PythonNetworkStreamCommand.cpp
; File C:\Program Files\Microsoft Visual Studio\2022\Community\VC\Tools\MSVC\14.44.35207\include\vector
; File C:\Program Files\Microsoft Visual Studio\2022\Community\VC\Tools\MSVC\14.44.35207\include\xstring
; File D:\_m2work\Server Client TMP4\ClientVS22\source\UserInterface\PythonNetworkStreamCommand.cpp
; File C:\Program Files\Microsoft Visual Studio\2022\Community\VC\Tools\MSVC\14.44.35207\include\vector
; File C:\Program Files\Microsoft Visual Studio\2022\Community\VC\Tools\MSVC\14.44.35207\include\xstring
; File D:\_m2work\Server Client TMP4\ClientVS22\source\UserInterface\PythonNetworkStreamCommand.cpp
; File C:\Program Files\Microsoft Visual Studio\2022\Community\VC\Tools\MSVC\14.44.35207\include\vector
; File C:\Program Files\Microsoft Visual Studio\2022\Community\VC\Tools\MSVC\14.44.35207\include\xstring
; File D:\_m2work\Server Client TMP4\ClientVS22\source\UserInterface\PythonNetworkStreamCommand.cpp
; File C:\Program Files\Microsoft Visual Studio\2022\Community\VC\Tools\MSVC\14.44.35207\include\vector
; File C:\Program Files\Microsoft Visual Studio\2022\Community\VC\Tools\MSVC\14.44.35207\include\xstring
; File D:\_m2work\Server Client TMP4\ClientVS22\source\UserInterface\PythonNetworkStreamCommand.cpp
; File C:\Program Files\Microsoft Visual Studio\2022\Community\VC\Tools\MSVC\14.44.35207\include\vector
; File C:\Program Files\Microsoft Visual Studio\2022\Community\VC\Tools\MSVC\14.44.35207\include\xstring
; File D:\_m2work\Server Client TMP4\ClientVS22\source\UserInterface\PythonNetworkStreamCommand.cpp
; File C:\Program Files\Microsoft Visual Studio\2022\Community\VC\Tools\MSVC\14.44.35207\include\__msvc_string_view.hpp
; File C:\Program Files\Microsoft Visual Studio\2022\Community\VC\Tools\MSVC\14.44.35207\include\xstring
; File C:\Program Files\Microsoft Visual Studio\2022\Community\VC\Tools\MSVC\14.44.35207\include\__msvc_string_view.hpp
; File D:\_m2work\Server Client TMP4\ClientVS22\source\UserInterface\PythonNetworkStreamCommand.cpp
; File C:\Program Files\Microsoft Visual Studio\2022\Community\VC\Tools\MSVC\14.44.35207\include\xstring
; File C:\Program Files\Microsoft Visual Studio\2022\Community\VC\Tools\MSVC\14.44.35207\include\__msvc_string_view.hpp
; File C:\Program Files\Microsoft Visual Studio\2022\Community\VC\Tools\MSVC\14.44.35207\include\xstring
; File D:\_m2work\Server Client TMP4\ClientVS22\source\UserInterface\PythonNetworkStreamCommand.cpp
; File C:\Program Files\Microsoft Visual Studio\2022\Community\VC\Tools\MSVC\14.44.35207\include\xstring
; File C:\Program Files\Microsoft Visual Studio\2022\Community\VC\Tools\MSVC\14.44.35207\include\__msvc_string_view.hpp
; File C:\Program Files\Microsoft Visual Studio\2022\Community\VC\Tools\MSVC\14.44.35207\include\xstring
; File C:\Program Files\Microsoft Visual Studio\2022\Community\VC\Tools\MSVC\14.44.35207\include\__msvc_string_view.hpp
; File C:\Program Files\Microsoft Visual Studio\2022\Community\VC\Tools\MSVC\14.44.35207\include\xstring
; File C:\Program Files\Microsoft Visual Studio\2022\Community\VC\Tools\MSVC\14.44.35207\include\__msvc_string_view.hpp
; File C:\Program Files\Microsoft Visual Studio\2022\Community\VC\Tools\MSVC\14.44.35207\include\xstring
; File D:\_m2work\Server Client TMP4\ClientVS22\source\UserInterface\PythonNetworkStreamCommand.cpp
; File C:\Program Files\Microsoft Visual Studio\2022\Community\VC\Tools\MSVC\14.44.35207\include\xstring
; File C:\Program Files\Microsoft Visual Studio\2022\Community\VC\Tools\MSVC\14.44.35207\include\__msvc_string_view.hpp
; File C:\Program Files\Microsoft Visual Studio\2022\Community\VC\Tools\MSVC\14.44.35207\include\xstring
; File C:\Program Files\Microsoft Visual Studio\2022\Community\VC\Tools\MSVC\14.44.35207\include\__msvc_string_view.hpp
; File C:\Program Files\Microsoft Visual Studio\2022\Community\VC\Tools\MSVC\14.44.35207\include\xstring
; File C:\Program Files\Microsoft Visual Studio\2022\Community\VC\Tools\MSVC\14.44.35207\include\__msvc_string_view.hpp
; File C:\Program Files\Microsoft Visual Studio\2022\Community\VC\Tools\MSVC\14.44.35207\include\xstring
; File D:\_m2work\Server Client TMP4\ClientVS22\source\UserInterface\PythonNetworkStreamCommand.cpp
; File C:\Program Files\Microsoft Visual Studio\2022\Community\VC\Tools\MSVC\14.44.35207\include\xstring
; File C:\Program Files\Microsoft Visual Studio\2022\Community\VC\Tools\MSVC\14.44.35207\include\__msvc_string_view.hpp
; File C:\Program Files\Microsoft Visual Studio\2022\Community\VC\Tools\MSVC\14.44.35207\include\xstring
; File C:\Program Files\Microsoft Visual Studio\2022\Community\VC\Tools\MSVC\14.44.35207\include\__msvc_string_view.hpp
; File C:\Program Files\Microsoft Visual Studio\2022\Community\VC\Tools\MSVC\14.44.35207\include\xstring
; File C:\Program Files\Microsoft Visual Studio\2022\Community\VC\Tools\MSVC\14.44.35207\include\__msvc_string_view.hpp
; File C:\Program Files\Microsoft Visual Studio\2022\Community\VC\Tools\MSVC\14.44.35207\include\xstring
; File D:\_m2work\Server Client TMP4\ClientVS22\source\UserInterface\PythonNetworkStreamCommand.cpp
; File C:\Program Files\Microsoft Visual Studio\2022\Community\VC\Tools\MSVC\14.44.35207\include\xstring
; File C:\Program Files\Microsoft Visual Studio\2022\Community\VC\Tools\MSVC\14.44.35207\include\__msvc_string_view.hpp
; File C:\Program Files\Microsoft Visual Studio\2022\Community\VC\Tools\MSVC\14.44.35207\include\xstring
; File C:\Program Files\Microsoft Visual Studio\2022\Community\VC\Tools\MSVC\14.44.35207\include\__msvc_string_view.hpp
; File C:\Program Files\Microsoft Visual Studio\2022\Community\VC\Tools\MSVC\14.44.35207\include\xstring
; File C:\Program Files\Microsoft Visual Studio\2022\Community\VC\Tools\MSVC\14.44.35207\include\__msvc_string_view.hpp
; File C:\Program Files\Microsoft Visual Studio\2022\Community\VC\Tools\MSVC\14.44.35207\include\xstring
; File D:\_m2work\Server Client TMP4\ClientVS22\source\UserInterface\PythonNetworkStreamCommand.cpp
; File C:\Program Files\Microsoft Visual Studio\2022\Community\VC\Tools\MSVC\14.44.35207\include\xstring
; File C:\Program Files\Microsoft Visual Studio\2022\Community\VC\Tools\MSVC\14.44.35207\include\__msvc_string_view.hpp
; File C:\Program Files\Microsoft Visual Studio\2022\Community\VC\Tools\MSVC\14.44.35207\include\xstring
; File C:\Program Files\Microsoft Visual Studio\2022\Community\VC\Tools\MSVC\14.44.35207\include\__msvc_string_view.hpp
; File C:\Program Files\Microsoft Visual Studio\2022\Community\VC\Tools\MSVC\14.44.35207\include\xstring
; File C:\Program Files\Microsoft Visual Studio\2022\Community\VC\Tools\MSVC\14.44.35207\include\__msvc_string_view.hpp
; File C:\Program Files\Microsoft Visual Studio\2022\Community\VC\Tools\MSVC\14.44.35207\include\xstring
; File D:\_m2work\Server Client TMP4\ClientVS22\source\UserInterface\PythonNetworkStreamCommand.cpp
; File C:\Program Files\Microsoft Visual Studio\2022\Community\VC\Tools\MSVC\14.44.35207\include\xstring
; File C:\Program Files\Microsoft Visual Studio\2022\Community\VC\Tools\MSVC\14.44.35207\include\__msvc_string_view.hpp
; File C:\Program Files\Microsoft Visual Studio\2022\Community\VC\Tools\MSVC\14.44.35207\include\xstring
; File C:\Program Files\Microsoft Visual Studio\2022\Community\VC\Tools\MSVC\14.44.35207\include\__msvc_string_view.hpp
; File C:\Program Files\Microsoft Visual Studio\2022\Community\VC\Tools\MSVC\14.44.35207\include\xstring
; File C:\Program Files\Microsoft Visual Studio\2022\Community\VC\Tools\MSVC\14.44.35207\include\__msvc_string_view.hpp
; File C:\Program Files\Microsoft Visual Studio\2022\Community\VC\Tools\MSVC\14.44.35207\include\xstring
; File D:\_m2work\Server Client TMP4\ClientVS22\source\UserInterface\PythonNetworkStreamCommand.cpp
; File C:\Program Files\Microsoft Visual Studio\2022\Community\VC\Tools\MSVC\14.44.35207\include\xstring
; File D:\_m2work\Server Client TMP4\ClientVS22\source\UserInterface\PythonNetworkStreamCommand.cpp
; File C:\Program Files\Microsoft Visual Studio\2022\Community\VC\Tools\MSVC\14.44.35207\include\xstring
; File D:\_m2work\Server Client TMP4\ClientVS22\source\UserInterface\PythonNetworkStreamCommand.cpp
; File C:\Program Files\Microsoft Visual Studio\2022\Community\VC\Tools\MSVC\14.44.35207\include\xstring
; File D:\_m2work\Server Client TMP4\ClientVS22\source\UserInterface\PythonNetworkStreamCommand.cpp
; File C:\Program Files\Microsoft Visual Studio\2022\Community\VC\Tools\MSVC\14.44.35207\include\xstring
; File D:\_m2work\Server Client TMP4\ClientVS22\source\UserInterface\PythonNetworkStreamCommand.cpp
; File C:\Program Files\Microsoft Visual Studio\2022\Community\VC\Tools\MSVC\14.44.35207\include\xstring
; File D:\_m2work\Server Client TMP4\ClientVS22\source\UserInterface\PythonNetworkStreamCommand.cpp
; File C:\Program Files\Microsoft Visual Studio\2022\Community\VC\Tools\MSVC\14.44.35207\include\xstring
; File D:\_m2work\Server Client TMP4\ClientVS22\source\UserInterface\PythonNetworkStreamCommand.cpp
; File C:\Program Files\Microsoft Visual Studio\2022\Community\VC\Tools\MSVC\14.44.35207\include\xstring
; File D:\_m2work\Server Client TMP4\ClientVS22\source\UserInterface\PythonNetworkStreamCommand.cpp
; File C:\Program Files\Microsoft Visual Studio\2022\Community\VC\Tools\MSVC\14.44.35207\include\xstring
; File D:\_m2work\Server Client TMP4\ClientVS22\source\UserInterface\PythonNetworkStreamCommand.cpp
; File C:\Program Files\Microsoft Visual Studio\2022\Community\VC\Tools\MSVC\14.44.35207\include\xstring
; File D:\_m2work\Server Client TMP4\ClientVS22\source\UserInterface\PythonNetworkStreamCommand.cpp
; File C:\Program Files\Microsoft Visual Studio\2022\Community\VC\Tools\MSVC\14.44.35207\include\xstring
; File D:\_m2work\Server Client TMP4\ClientVS22\source\UserInterface\PythonNetworkStreamCommand.cpp
; File C:\Program Files\Microsoft Visual Studio\2022\Community\VC\Tools\MSVC\14.44.35207\include\xstring
; File D:\_m2work\Server Client TMP4\ClientVS22\source\UserInterface\PythonNetworkStreamCommand.cpp
; File C:\Program Files\Microsoft Visual Studio\2022\Community\VC\Tools\MSVC\14.44.35207\include\xstring
; File D:\_m2work\Server Client TMP4\ClientVS22\source\UserInterface\PythonNetworkStreamCommand.cpp
; File C:\Program Files\Microsoft Visual Studio\2022\Community\VC\Tools\MSVC\14.44.35207\include\xstring
; File D:\_m2work\Server Client TMP4\ClientVS22\source\UserInterface\PythonNetworkStreamCommand.cpp
; File C:\Program Files\Microsoft Visual Studio\2022\Community\VC\Tools\MSVC\14.44.35207\include\xstring
; File D:\_m2work\Server Client TMP4\ClientVS22\source\UserInterface\PythonNetworkStreamCommand.cpp
; File C:\Program Files\Microsoft Visual Studio\2022\Community\VC\Tools\MSVC\14.44.35207\include\xstring
; File C:\Program Files\Microsoft Visual Studio\2022\Community\VC\Tools\MSVC\14.44.35207\include\xtree
; File D:\_m2work\Server Client TMP4\ClientVS22\source\UserInterface\PythonNetworkStreamCommand.cpp
; File C:\Program Files\Microsoft Visual Studio\2022\Community\VC\Tools\MSVC\14.44.35207\include\vector
; File D:\_m2work\Server Client TMP4\ClientVS22\source\UserInterface\PythonNetworkStreamCommand.cpp
; File C:\Program Files\Microsoft Visual Studio\2022\Community\VC\Tools\MSVC\14.44.35207\include\vector
; File C:\Program Files\Microsoft Visual Studio\2022\Community\VC\Tools\MSVC\14.44.35207\include\xstring
; File D:\_m2work\Server Client TMP4\ClientVS22\source\UserInterface\PythonNetworkStreamCommand.cpp
; File C:\Program Files\Microsoft Visual Studio\2022\Community\VC\Tools\MSVC\14.44.35207\include\vector
; File C:\Program Files\Microsoft Visual Studio\2022\Community\VC\Tools\MSVC\14.44.35207\include\xmemory
; File C:\Program Files\Microsoft Visual Studio\2022\Community\VC\Tools\MSVC\14.44.35207\include\xstring
; File C:\Program Files\Microsoft Visual Studio\2022\Community\VC\Tools\MSVC\14.44.35207\include\xmemory
; File C:\Program Files\Microsoft Visual Studio\2022\Community\VC\Tools\MSVC\14.44.35207\include\vector
; File C:\Program Files\Microsoft Visual Studio\2022\Community\VC\Tools\MSVC\14.44.35207\include\xmemory
; File D:\_m2work\Server Client TMP4\ClientVS22\source\UserInterface\PythonNetworkStreamCommand.cpp
; File C:\Program Files\Microsoft Visual Studio\2022\Community\VC\Tools\MSVC\14.44.35207\include\xmemory
; File D:\_m2work\Server Client TMP4\ClientVS22\source\UserInterface\PythonNetworkStreamCommand.cpp
;	COMDAT ?ServerCommand@CPythonNetworkStream@@QAEXPAD@Z
_TEXT	SEGMENT
tv5538 = -88						; size = 4
tv5533 = -84						; size = 4
_c_szCommand$GSCopy$1$ = -80				; size = 4
_TokenVector$ = -76					; size = 12
_isTrue$2 = -61						; size = 1
_isTrue$3 = -61						; size = 1
_byDistance$1$ = -61					; size = 1
_fAngle$1$ = -60					; size = 4
_f$4 = -60						; size = 4
tv5553 = -60						; size = 4
tv5917 = -60						; size = 4
tv5920 = -60						; size = 4
_gold$1$ = -60						; size = 4
_iVID1$1$ = -60						; size = 4
_pInstance1$1$ = -60					; size = 4
_iVID1$1$ = -60						; size = 4
_pInstance1$1$ = -60					; size = 4
_iVID1$1$ = -60						; size = 4
_pInstance1$1$ = -60					; size = 4
_this$GSCopy$1$ = -60					; size = 4
_v3Rotation$5 = -56					; size = 12
$T6 = -44						; size = 24
_$S11$7 = -44						; size = 24
$T8 = -44						; size = 24
$T9 = -44						; size = 24
$T10 = -44						; size = 24
$T11 = -44						; size = 24
$T12 = -44						; size = 24
$T13 = -44						; size = 24
$T14 = -44						; size = 24
$T15 = -44						; size = 24
$T16 = -44						; size = 24
$T17 = -44						; size = 24
$T18 = -44						; size = 24
$T19 = -44						; size = 24
$T20 = -44						; size = 24
_PixelPosition$21 = -32					; size = 12
__$ArrayPad$ = -20					; size = 4
__$EHRec$ = -12						; size = 12
_c_szCommand$ = 8					; size = 4
?ServerCommand@CPythonNetworkStream@@QAEXPAD@Z PROC	; CPythonNetworkStream::ServerCommand, COMDAT
; _this$ = ecx

; 133  : {

  00000	53		 push	 ebx
  00001	8b dc		 mov	 ebx, esp
  00003	83 ec 08	 sub	 esp, 8
  00006	83 e4 f8	 and	 esp, -8			; fffffff8H
  00009	83 c4 04	 add	 esp, 4
  0000c	55		 push	 ebp
  0000d	8b 6b 04	 mov	 ebp, DWORD PTR [ebx+4]
  00010	89 6c 24 04	 mov	 DWORD PTR [esp+4], ebp
  00014	8b ec		 mov	 ebp, esp
  00016	6a ff		 push	 -1
  00018	68 00 00 00 00	 push	 __ehhandler$?ServerCommand@CPythonNetworkStream@@QAEXPAD@Z
  0001d	64 a1 00 00 00
	00		 mov	 eax, DWORD PTR fs:0
  00023	50		 push	 eax
  00024	53		 push	 ebx
  00025	83 ec 48	 sub	 esp, 72			; 00000048H
  00028	a1 00 00 00 00	 mov	 eax, DWORD PTR ___security_cookie
  0002d	33 c5		 xor	 eax, ebp
  0002f	89 45 ec	 mov	 DWORD PTR __$ArrayPad$[ebp], eax
  00032	56		 push	 esi
  00033	57		 push	 edi
  00034	50		 push	 eax
  00035	8d 45 f4	 lea	 eax, DWORD PTR __$EHRec$[ebp]
  00038	64 a3 00 00 00
	00		 mov	 DWORD PTR fs:0, eax
  0003e	8b f9		 mov	 edi, ecx
  00040	89 7d c4	 mov	 DWORD PTR _this$GSCopy$1$[ebp], edi
  00043	8b 73 08	 mov	 esi, DWORD PTR _c_szCommand$[ebx]

; 134  : 	// #0000811: [M2EU]    
; 135  : 	if (strcmpi(c_szCommand, "ConsoleEnable") == 0)

  00046	68 00 00 00 00	 push	 OFFSET ??_C@_0O@NGPLKLCI@ConsoleEnable@
  0004b	56		 push	 esi
  0004c	89 75 b0	 mov	 DWORD PTR _c_szCommand$GSCopy$1$[ebp], esi
  0004f	e8 00 00 00 00	 call	 __strcmpi
  00054	83 c4 08	 add	 esp, 8
  00057	85 c0		 test	 eax, eax
  00059	0f 84 7a 11 00
	00		 je	 $LN181@ServerComm

; 136  : 		return;
; 137  : 
; 138  : 	if (m_apoPhaseWnd[PHASE_WINDOW_GAME])

  0005f	83 bf 90 01 00
	00 00		 cmp	 DWORD PTR [edi+400], 0
  00066	a1 00 00 00 00	 mov	 eax, DWORD PTR __imp__Py_BuildValue
  0006b	74 1a		 je	 SHORT $LN6@ServerComm

; 139  : 	{
; 140  : 		bool isTrue;
; 141  : 		if (PyCallClassMemberFunc(m_apoPhaseWnd[PHASE_WINDOW_GAME], 

  0006d	56		 push	 esi
  0006e	68 00 00 00 00	 push	 OFFSET ??_C@_03KJMMOONA@?$CIs?$CJ@
  00073	ff d0		 call	 eax
  00075	8d 4d c3	 lea	 ecx, DWORD PTR _isTrue$2[ebp]
  00078	51		 push	 ecx
  00079	50		 push	 eax
  0007a	68 00 00 00 00	 push	 OFFSET ??_C@_0BJ@GKNJMEFC@BINARY_ServerCommand_Run@
  0007f	ff b7 90 01 00
	00		 push	 DWORD PTR [edi+400]

; 142  : 			"BINARY_ServerCommand_Run", 
; 143  : 			Py_BuildValue("(s)", c_szCommand),
; 144  : 			&isTrue
; 145  : 		))
; 146  : 		{
; 147  : 			if (isTrue)
; 148  : 				return;
; 149  : 		}
; 150  : 	}

  00085	eb 21		 jmp	 SHORT $LN1780@ServerComm
$LN6@ServerComm:

; 151  : 	else if (m_poSerCommandParserWnd)

  00087	83 bf 98 01 00
	00 00		 cmp	 DWORD PTR [edi+408], 0
  0008e	74 2e		 je	 SHORT $LN12@ServerComm

; 152  : 	{
; 153  : 		bool isTrue;
; 154  : 		if (PyCallClassMemberFunc(m_poSerCommandParserWnd, 

  00090	56		 push	 esi
  00091	68 00 00 00 00	 push	 OFFSET ??_C@_03KJMMOONA@?$CIs?$CJ@
  00096	ff d0		 call	 eax
  00098	8d 4d c3	 lea	 ecx, DWORD PTR _isTrue$3[ebp]
  0009b	51		 push	 ecx
  0009c	50		 push	 eax
  0009d	68 00 00 00 00	 push	 OFFSET ??_C@_0BJ@GKNJMEFC@BINARY_ServerCommand_Run@
  000a2	ff b7 98 01 00
	00		 push	 DWORD PTR [edi+408]
$LN1780@ServerComm:
; File C:\Program Files\Microsoft Visual Studio\2022\Community\VC\Tools\MSVC\14.44.35207\include\vector

; 400  :     _CONSTEXPR20 _Vector_val() noexcept : _Myfirst(), _Mylast(), _Myend() {}

  000a8	e8 00 00 00 00	 call	 ?PyCallClassMemberFunc@@YA_NPAU_object@@PBD0PA_N@Z ; PyCallClassMemberFunc
  000ad	83 c4 18	 add	 esp, 24			; 00000018H
  000b0	84 c0		 test	 al, al
  000b2	74 0a		 je	 SHORT $LN12@ServerComm
  000b4	80 7d c3 00	 cmp	 BYTE PTR _isTrue$3[ebp], 0
  000b8	0f 85 1b 11 00
	00		 jne	 $LN181@ServerComm
$LN12@ServerComm:
  000be	c7 45 b4 00 00
	00 00		 mov	 DWORD PTR _TokenVector$[ebp], 0
  000c5	c7 45 b8 00 00
	00 00		 mov	 DWORD PTR _TokenVector$[ebp+4], 0
  000cc	c7 45 bc 00 00
	00 00		 mov	 DWORD PTR _TokenVector$[ebp+8], 0
; File D:\_m2work\Server Client TMP4\ClientVS22\source\UserInterface\PythonNetworkStreamCommand.cpp

; 166  : 	if (!SplitToken(c_szCommand, &TokenVector))

  000d3	51		 push	 ecx
  000d4	8d 55 b4	 lea	 edx, DWORD PTR _TokenVector$[ebp]
  000d7	c7 45 fc 00 00
	00 00		 mov	 DWORD PTR __$EHRec$[ebp+8], 0
  000de	8b ce		 mov	 ecx, esi
  000e0	e8 00 00 00 00	 call	 ?SplitToken@@YA_NPBDPAV?$vector@V?$basic_string@DU?$char_traits@D@std@@V?$allocator@D@2@@std@@V?$allocator@V?$basic_string@DU?$char_traits@D@std@@V?$allocator@D@2@@std@@@2@@std@@0@Z ; SplitToken
  000e5	83 c4 04	 add	 esp, 4
  000e8	84 c0		 test	 al, al
  000ea	0f 84 90 10 00
	00		 je	 $LN1775@ServerComm
; File C:\Program Files\Microsoft Visual Studio\2022\Community\VC\Tools\MSVC\14.44.35207\include\vector

; 1910 :         return _My_data._Myfirst == _My_data._Mylast;

  000f0	8b 75 b4	 mov	 esi, DWORD PTR _TokenVector$[ebp]
  000f3	3b 75 b8	 cmp	 esi, DWORD PTR _TokenVector$[ebp+4]
; File D:\_m2work\Server Client TMP4\ClientVS22\source\UserInterface\PythonNetworkStreamCommand.cpp

; 168  : 	if (TokenVector.empty())

  000f6	0f 84 84 10 00
	00		 je	 $LN1775@ServerComm
; File C:\Program Files\Microsoft Visual Studio\2022\Community\VC\Tools\MSVC\14.44.35207\include\xstring

; 453  :         return _Myres > _Small_string_capacity;

  000fc	83 7e 14 0f	 cmp	 DWORD PTR [esi+20], 15	; 0000000fH

; 445  :         if (_Large_mode_engaged()) {

  00100	76 02		 jbe	 SHORT $LN205@ServerComm

; 446  :             _Result = _Unfancy(_Bx._Ptr);

  00102	8b 36		 mov	 esi, DWORD PTR [esi]
$LN205@ServerComm:
; File D:\_m2work\Server Client TMP4\ClientVS22\source\UserInterface\PythonNetworkStreamCommand.cpp

; 173  : 	if (!strcmpi(szCmd, "quit"))

  00104	68 00 00 00 00	 push	 OFFSET ??_C@_04KNNLNNGO@quit@
  00109	56		 push	 esi
  0010a	e8 00 00 00 00	 call	 __strcmpi
  0010f	83 c4 08	 add	 esp, 8
  00112	85 c0		 test	 eax, eax
  00114	75 0c		 jne	 SHORT $LN15@ServerComm

; 174  : 	{
; 175  : 		PostQuitMessage(0);

  00116	50		 push	 eax
  00117	ff 15 00 00 00
	00		 call	 DWORD PTR __imp__PostQuitMessage@4

; 176  : 	}

  0011d	e9 5e 10 00 00	 jmp	 $LN1775@ServerComm
$LN15@ServerComm:

; 177  : 	else if (!strcmpi(szCmd, "BettingMoney"))

  00122	68 00 00 00 00	 push	 OFFSET ??_C@_0N@JEPOMHGB@BettingMoney@
  00127	56		 push	 esi
  00128	e8 00 00 00 00	 call	 __strcmpi
  0012d	83 c4 08	 add	 esp, 8
  00130	85 c0		 test	 eax, eax
  00132	75 14		 jne	 SHORT $LN17@ServerComm
; File C:\Program Files\Microsoft Visual Studio\2022\Community\VC\Tools\MSVC\14.44.35207\include\vector

; 1915 :         return static_cast<size_type>(_My_data._Mylast - _My_data._Myfirst);

  00134	8b 45 b8	 mov	 eax, DWORD PTR _TokenVector$[ebp+4]
  00137	2b 45 b4	 sub	 eax, DWORD PTR _TokenVector$[ebp]
; File D:\_m2work\Server Client TMP4\ClientVS22\source\UserInterface\PythonNetworkStreamCommand.cpp

; 179  : 		if (2 != TokenVector.size())

  0013a	83 f8 30	 cmp	 eax, 48			; 00000030H
  0013d	0f 85 5a 04 00
	00		 jne	 $LN1764@ServerComm
  00143	e9 38 10 00 00	 jmp	 $LN1775@ServerComm
$LN17@ServerComm:

; 180  : 		{
; 181  : 			TraceError("CPythonNetworkStream::ServerCommand(c_szCommand=%s) - Strange Parameter Count : %s", c_szCommand);
; 182  : 			return;
; 183  : 		}
; 184  : 
; 185  : 		//UINT uMoney= atoi(TokenVector[1].c_str());		
; 186  : 		
; 187  : 	}
; 188  : 	// GIFT NOTIFY
; 189  : 	else if (!strcmpi(szCmd, "gift"))

  00148	68 00 00 00 00	 push	 OFFSET ??_C@_04FDOIBAFG@gift@
  0014d	56		 push	 esi
  0014e	e8 00 00 00 00	 call	 __strcmpi
  00153	83 c4 08	 add	 esp, 8
  00156	85 c0		 test	 eax, eax
  00158	75 28		 jne	 SHORT $LN20@ServerComm

; 190  : 	{
; 191  : 		PyCallClassMemberFunc(m_apoPhaseWnd[PHASE_WINDOW_GAME], "Gift_Show", Py_BuildValue("()")); 	

  0015a	a1 00 00 00 00	 mov	 eax, DWORD PTR __imp__Py_BuildValue
  0015f	68 00 00 00 00	 push	 OFFSET ??_C@_02HCKGKOFO@?$CI?$CJ@
  00164	ff d0		 call	 eax
  00166	83 c4 04	 add	 esp, 4
  00169	50		 push	 eax
  0016a	68 00 00 00 00	 push	 OFFSET ??_C@_09MBHMFCFC@Gift_Show@
  0016f	ff b7 90 01 00
	00		 push	 DWORD PTR [edi+400]
  00175	e8 00 00 00 00	 call	 ?PyCallClassMemberFunc@@YA_NPAU_object@@PBD0@Z ; PyCallClassMemberFunc
; File C:\Program Files\Microsoft Visual Studio\2022\Community\VC\Tools\MSVC\14.44.35207\include\vector

; 2090 :         if (_Myfirst) { // destroy and deallocate old array

  0017a	83 c4 0c	 add	 esp, 12			; 0000000cH
  0017d	e9 fe 0f 00 00	 jmp	 $LN1775@ServerComm
$LN20@ServerComm:
; File D:\_m2work\Server Client TMP4\ClientVS22\source\UserInterface\PythonNetworkStreamCommand.cpp

; 194  : 	else if (!strcmpi(szCmd, "cube"))

  00182	68 00 00 00 00	 push	 OFFSET ??_C@_04OIHHNFHN@cube@
  00187	56		 push	 esi
  00188	e8 00 00 00 00	 call	 __strcmpi
  0018d	83 c4 08	 add	 esp, 8
  00190	85 c0		 test	 eax, eax
  00192	0f 85 f9 02 00
	00		 jne	 $LN22@ServerComm
; File C:\Program Files\Microsoft Visual Studio\2022\Community\VC\Tools\MSVC\14.44.35207\include\vector

; 1915 :         return static_cast<size_type>(_My_data._Mylast - _My_data._Myfirst);

  00198	8b 45 b8	 mov	 eax, DWORD PTR _TokenVector$[ebp+4]
  0019b	8b 75 b4	 mov	 esi, DWORD PTR _TokenVector$[ebp]
  0019e	2b c6		 sub	 eax, esi
  001a0	89 45 ac	 mov	 DWORD PTR tv5533[ebp], eax
  001a3	c1 f8 03	 sar	 eax, 3
  001a6	69 c0 ab aa aa
	aa		 imul	 eax, eax, -1431655765
  001ac	89 45 a8	 mov	 DWORD PTR tv5538[ebp], eax
; File D:\_m2work\Server Client TMP4\ClientVS22\source\UserInterface\PythonNetworkStreamCommand.cpp

; 196  : 		if (TokenVector.size() < 2)

  001af	83 f8 02	 cmp	 eax, 2
  001b2	0f 82 e5 03 00
	00		 jb	 $LN1764@ServerComm

; 197  : 		{
; 198  : 			TraceError("CPythonNetworkStream::ServerCommand(c_szCommand=%s) - Strange Parameter Count : %s", c_szCommand);
; 199  : 			return;
; 200  : 		}
; 201  : 
; 202  : 		if ("open" == TokenVector[1])

  001b8	8d 46 18	 lea	 eax, DWORD PTR [esi+24]
  001bb	68 00 00 00 00	 push	 OFFSET ??_C@_04PMOCAHAA@open@
  001c0	50		 push	 eax
  001c1	89 45 c4	 mov	 DWORD PTR tv5553[ebp], eax
  001c4	e8 00 00 00 00	 call	 ??$?8DU?$char_traits@D@std@@V?$allocator@D@1@@std@@YA_NABV?$basic_string@DU?$char_traits@D@std@@V?$allocator@D@2@@0@QBD@Z ; std::operator==<char,std::char_traits<char>,std::allocator<char> >
  001c9	83 c4 08	 add	 esp, 8
  001cc	84 c0		 test	 al, al
  001ce	74 44		 je	 SHORT $LN25@ServerComm

; 203  : 		{
; 204  : 			if (3 > TokenVector.size())

  001d0	83 7d a8 03	 cmp	 DWORD PTR tv5538[ebp], 3
  001d4	0f 82 c3 03 00
	00		 jb	 $LN1764@ServerComm
; File C:\Program Files\Microsoft Visual Studio\2022\Community\VC\Tools\MSVC\14.44.35207\include\vector

; 1934 :         return _My_data._Myfirst[_Pos];

  001da	83 c6 30	 add	 esi, 48			; 00000030H
; File C:\Program Files\Microsoft Visual Studio\2022\Community\VC\Tools\MSVC\14.44.35207\include\xstring

; 453  :         return _Myres > _Small_string_capacity;

  001dd	83 7e 14 0f	 cmp	 DWORD PTR [esi+20], 15	; 0000000fH

; 445  :         if (_Large_mode_engaged()) {

  001e1	76 02		 jbe	 SHORT $LN249@ServerComm

; 446  :             _Result = _Unfancy(_Bx._Ptr);

  001e3	8b 36		 mov	 esi, DWORD PTR [esi]
$LN249@ServerComm:
; File D:\_m2work\Server Client TMP4\ClientVS22\source\UserInterface\PythonNetworkStreamCommand.cpp

; 210  : 			DWORD npcVNUM = (DWORD)atoi(TokenVector[2].c_str());

  001e5	56		 push	 esi
  001e6	e8 00 00 00 00	 call	 __atoi64
  001eb	83 c4 04	 add	 esp, 4

; 211  : 			PyCallClassMemberFunc(m_apoPhaseWnd[PHASE_WINDOW_GAME], "BINARY_Cube_Open", Py_BuildValue("(i)", npcVNUM));

  001ee	50		 push	 eax
  001ef	a1 00 00 00 00	 mov	 eax, DWORD PTR __imp__Py_BuildValue
  001f4	68 00 00 00 00	 push	 OFFSET ??_C@_03LIHNMIHG@?$CIi?$CJ@
  001f9	ff d0		 call	 eax
  001fb	50		 push	 eax
  001fc	68 00 00 00 00	 push	 OFFSET ??_C@_0BB@OJMMNJOG@BINARY_Cube_Open@
  00201	ff b7 90 01 00
	00		 push	 DWORD PTR [edi+400]
  00207	e8 00 00 00 00	 call	 ?PyCallClassMemberFunc@@YA_NPAU_object@@PBD0@Z ; PyCallClassMemberFunc
  0020c	83 c4 14	 add	 esp, 20			; 00000014H

; 212  : 		}

  0020f	e9 6c 0f 00 00	 jmp	 $LN1775@ServerComm
$LN25@ServerComm:

; 213  : 		else if ("close" == TokenVector[1])

  00214	8b 75 c4	 mov	 esi, DWORD PTR tv5553[ebp]
  00217	68 00 00 00 00	 push	 OFFSET ??_C@_05LBOHBHFK@close@
  0021c	56		 push	 esi
  0021d	e8 00 00 00 00	 call	 ??$?8DU?$char_traits@D@std@@V?$allocator@D@1@@std@@YA_NABV?$basic_string@DU?$char_traits@D@std@@V?$allocator@D@2@@0@QBD@Z ; std::operator==<char,std::char_traits<char>,std::allocator<char> >
  00222	83 c4 08	 add	 esp, 8
  00225	84 c0		 test	 al, al
  00227	74 28		 je	 SHORT $LN28@ServerComm

; 214  : 		{
; 215  : 			PyCallClassMemberFunc(m_apoPhaseWnd[PHASE_WINDOW_GAME], "BINARY_Cube_Close", Py_BuildValue("()"));

  00229	a1 00 00 00 00	 mov	 eax, DWORD PTR __imp__Py_BuildValue
  0022e	68 00 00 00 00	 push	 OFFSET ??_C@_02HCKGKOFO@?$CI?$CJ@
  00233	ff d0		 call	 eax
  00235	83 c4 04	 add	 esp, 4
  00238	50		 push	 eax
  00239	68 00 00 00 00	 push	 OFFSET ??_C@_0BC@PIJLHOMJ@BINARY_Cube_Close@
  0023e	ff b7 90 01 00
	00		 push	 DWORD PTR [edi+400]
  00244	e8 00 00 00 00	 call	 ?PyCallClassMemberFunc@@YA_NPAU_object@@PBD0@Z ; PyCallClassMemberFunc
; File C:\Program Files\Microsoft Visual Studio\2022\Community\VC\Tools\MSVC\14.44.35207\include\vector

; 2090 :         if (_Myfirst) { // destroy and deallocate old array

  00249	83 c4 0c	 add	 esp, 12			; 0000000cH
  0024c	e9 2f 0f 00 00	 jmp	 $LN1775@ServerComm
$LN28@ServerComm:
; File D:\_m2work\Server Client TMP4\ClientVS22\source\UserInterface\PythonNetworkStreamCommand.cpp

; 217  : 		else if ("info" == TokenVector[1])

  00251	68 00 00 00 00	 push	 OFFSET ??_C@_04NIDJFNBE@info@
  00256	56		 push	 esi
  00257	e8 00 00 00 00	 call	 ??$?8DU?$char_traits@D@std@@V?$allocator@D@1@@std@@YA_NABV?$basic_string@DU?$char_traits@D@std@@V?$allocator@D@2@@0@QBD@Z ; std::operator==<char,std::char_traits<char>,std::allocator<char> >
  0025c	83 c4 08	 add	 esp, 8
  0025f	84 c0		 test	 al, al
  00261	74 7e		 je	 SHORT $LN30@ServerComm

; 218  : 		{
; 219  : 			if (5 != TokenVector.size())

  00263	83 7d ac 78	 cmp	 DWORD PTR tv5533[ebp], 120 ; 00000078H
  00267	0f 85 30 03 00
	00		 jne	 $LN1764@ServerComm
; File C:\Program Files\Microsoft Visual Studio\2022\Community\VC\Tools\MSVC\14.44.35207\include\vector

; 1934 :         return _My_data._Myfirst[_Pos];

  0026d	8b 45 b4	 mov	 eax, DWORD PTR _TokenVector$[ebp]
  00270	83 c0 30	 add	 eax, 48			; 00000030H
; File C:\Program Files\Microsoft Visual Studio\2022\Community\VC\Tools\MSVC\14.44.35207\include\xstring

; 453  :         return _Myres > _Small_string_capacity;

  00273	83 78 14 0f	 cmp	 DWORD PTR [eax+20], 15	; 0000000fH

; 445  :         if (_Large_mode_engaged()) {

  00277	76 02		 jbe	 SHORT $LN358@ServerComm

; 446  :             _Result = _Unfancy(_Bx._Ptr);

  00279	8b 00		 mov	 eax, DWORD PTR [eax]
$LN358@ServerComm:
; File D:\_m2work\Server Client TMP4\ClientVS22\source\UserInterface\PythonNetworkStreamCommand.cpp

; 225  : 			UINT gold = atoi(TokenVector[2].c_str());

  0027b	50		 push	 eax
  0027c	e8 00 00 00 00	 call	 __atoi64
; File C:\Program Files\Microsoft Visual Studio\2022\Community\VC\Tools\MSVC\14.44.35207\include\vector

; 1934 :         return _My_data._Myfirst[_Pos];

  00281	8b 4d b4	 mov	 ecx, DWORD PTR _TokenVector$[ebp]
; File D:\_m2work\Server Client TMP4\ClientVS22\source\UserInterface\PythonNetworkStreamCommand.cpp

; 225  : 			UINT gold = atoi(TokenVector[2].c_str());

  00284	83 c4 04	 add	 esp, 4
; File C:\Program Files\Microsoft Visual Studio\2022\Community\VC\Tools\MSVC\14.44.35207\include\vector

; 1934 :         return _My_data._Myfirst[_Pos];

  00287	83 c1 48	 add	 ecx, 72			; 00000048H
; File D:\_m2work\Server Client TMP4\ClientVS22\source\UserInterface\PythonNetworkStreamCommand.cpp

; 225  : 			UINT gold = atoi(TokenVector[2].c_str());

  0028a	89 45 c4	 mov	 DWORD PTR _gold$1$[ebp], eax
; File C:\Program Files\Microsoft Visual Studio\2022\Community\VC\Tools\MSVC\14.44.35207\include\xstring

; 453  :         return _Myres > _Small_string_capacity;

  0028d	83 79 14 0f	 cmp	 DWORD PTR [ecx+20], 15	; 0000000fH

; 445  :         if (_Large_mode_engaged()) {

  00291	76 02		 jbe	 SHORT $LN371@ServerComm

; 446  :             _Result = _Unfancy(_Bx._Ptr);

  00293	8b 09		 mov	 ecx, DWORD PTR [ecx]
$LN371@ServerComm:
; File D:\_m2work\Server Client TMP4\ClientVS22\source\UserInterface\PythonNetworkStreamCommand.cpp

; 226  : 			UINT itemVnum = atoi(TokenVector[3].c_str());

  00295	51		 push	 ecx
  00296	e8 00 00 00 00	 call	 __atoi64
; File C:\Program Files\Microsoft Visual Studio\2022\Community\VC\Tools\MSVC\14.44.35207\include\vector

; 1934 :         return _My_data._Myfirst[_Pos];

  0029b	8b 4d b4	 mov	 ecx, DWORD PTR _TokenVector$[ebp]
; File D:\_m2work\Server Client TMP4\ClientVS22\source\UserInterface\PythonNetworkStreamCommand.cpp

; 226  : 			UINT itemVnum = atoi(TokenVector[3].c_str());

  0029e	83 c4 04	 add	 esp, 4
; File C:\Program Files\Microsoft Visual Studio\2022\Community\VC\Tools\MSVC\14.44.35207\include\vector

; 1934 :         return _My_data._Myfirst[_Pos];

  002a1	83 c1 60	 add	 ecx, 96			; 00000060H
; File D:\_m2work\Server Client TMP4\ClientVS22\source\UserInterface\PythonNetworkStreamCommand.cpp

; 226  : 			UINT itemVnum = atoi(TokenVector[3].c_str());

  002a4	8b f0		 mov	 esi, eax
; File C:\Program Files\Microsoft Visual Studio\2022\Community\VC\Tools\MSVC\14.44.35207\include\xstring

; 453  :         return _Myres > _Small_string_capacity;

  002a6	83 79 14 0f	 cmp	 DWORD PTR [ecx+20], 15	; 0000000fH

; 445  :         if (_Large_mode_engaged()) {

  002aa	76 02		 jbe	 SHORT $LN384@ServerComm

; 446  :             _Result = _Unfancy(_Bx._Ptr);

  002ac	8b 09		 mov	 ecx, DWORD PTR [ecx]
$LN384@ServerComm:
; File D:\_m2work\Server Client TMP4\ClientVS22\source\UserInterface\PythonNetworkStreamCommand.cpp

; 227  : 			UINT count = atoi(TokenVector[4].c_str());

  002ae	51		 push	 ecx
  002af	e8 00 00 00 00	 call	 __atoi64
  002b4	83 c4 04	 add	 esp, 4

; 228  : 			PyCallClassMemberFunc(m_apoPhaseWnd[PHASE_WINDOW_GAME], "BINARY_Cube_UpdateInfo", Py_BuildValue("(iii)", gold, itemVnum, count));

  002b7	50		 push	 eax
  002b8	a1 00 00 00 00	 mov	 eax, DWORD PTR __imp__Py_BuildValue
  002bd	56		 push	 esi
  002be	ff 75 c4	 push	 DWORD PTR _gold$1$[ebp]
  002c1	68 00 00 00 00	 push	 OFFSET ??_C@_05HEIOBLPG@?$CIiii?$CJ@
  002c6	ff d0		 call	 eax
  002c8	50		 push	 eax
  002c9	68 00 00 00 00	 push	 OFFSET ??_C@_0BH@DMGJNFKF@BINARY_Cube_UpdateInfo@
  002ce	ff b7 90 01 00
	00		 push	 DWORD PTR [edi+400]
  002d4	e8 00 00 00 00	 call	 ?PyCallClassMemberFunc@@YA_NPAU_object@@PBD0@Z ; PyCallClassMemberFunc
  002d9	83 c4 1c	 add	 esp, 28			; 0000001cH

; 229  : 		}

  002dc	e9 9f 0e 00 00	 jmp	 $LN1775@ServerComm
$LN30@ServerComm:

; 230  : 		else if ("success" == TokenVector[1])

  002e1	68 00 00 00 00	 push	 OFFSET ??_C@_07IPNMCAN@success@
  002e6	56		 push	 esi
  002e7	e8 00 00 00 00	 call	 ??$?8DU?$char_traits@D@std@@V?$allocator@D@1@@std@@YA_NABV?$basic_string@DU?$char_traits@D@std@@V?$allocator@D@2@@0@QBD@Z ; std::operator==<char,std::char_traits<char>,std::allocator<char> >
  002ec	83 c4 08	 add	 esp, 8
  002ef	84 c0		 test	 al, al
  002f1	74 64		 je	 SHORT $LN33@ServerComm

; 231  : 		{
; 232  : 			if (4 != TokenVector.size())

  002f3	83 7d ac 60	 cmp	 DWORD PTR tv5533[ebp], 96 ; 00000060H
  002f7	0f 85 a0 02 00
	00		 jne	 $LN1764@ServerComm
; File C:\Program Files\Microsoft Visual Studio\2022\Community\VC\Tools\MSVC\14.44.35207\include\vector

; 1934 :         return _My_data._Myfirst[_Pos];

  002fd	8b 45 b4	 mov	 eax, DWORD PTR _TokenVector$[ebp]
  00300	83 c0 30	 add	 eax, 48			; 00000030H
; File C:\Program Files\Microsoft Visual Studio\2022\Community\VC\Tools\MSVC\14.44.35207\include\xstring

; 453  :         return _Myres > _Small_string_capacity;

  00303	83 78 14 0f	 cmp	 DWORD PTR [eax+20], 15	; 0000000fH

; 445  :         if (_Large_mode_engaged()) {

  00307	76 02		 jbe	 SHORT $LN435@ServerComm

; 446  :             _Result = _Unfancy(_Bx._Ptr);

  00309	8b 00		 mov	 eax, DWORD PTR [eax]
$LN435@ServerComm:
; File D:\_m2work\Server Client TMP4\ClientVS22\source\UserInterface\PythonNetworkStreamCommand.cpp

; 238  : 			UINT itemVnum = atoi(TokenVector[2].c_str());

  0030b	50		 push	 eax
  0030c	e8 00 00 00 00	 call	 __atoi64
; File C:\Program Files\Microsoft Visual Studio\2022\Community\VC\Tools\MSVC\14.44.35207\include\vector

; 1934 :         return _My_data._Myfirst[_Pos];

  00311	8b 4d b4	 mov	 ecx, DWORD PTR _TokenVector$[ebp]
; File D:\_m2work\Server Client TMP4\ClientVS22\source\UserInterface\PythonNetworkStreamCommand.cpp

; 238  : 			UINT itemVnum = atoi(TokenVector[2].c_str());

  00314	83 c4 04	 add	 esp, 4
; File C:\Program Files\Microsoft Visual Studio\2022\Community\VC\Tools\MSVC\14.44.35207\include\vector

; 1934 :         return _My_data._Myfirst[_Pos];

  00317	83 c1 48	 add	 ecx, 72			; 00000048H
; File D:\_m2work\Server Client TMP4\ClientVS22\source\UserInterface\PythonNetworkStreamCommand.cpp

; 238  : 			UINT itemVnum = atoi(TokenVector[2].c_str());

  0031a	8b f0		 mov	 esi, eax
; File C:\Program Files\Microsoft Visual Studio\2022\Community\VC\Tools\MSVC\14.44.35207\include\xstring

; 453  :         return _Myres > _Small_string_capacity;

  0031c	83 79 14 0f	 cmp	 DWORD PTR [ecx+20], 15	; 0000000fH

; 445  :         if (_Large_mode_engaged()) {

  00320	76 02		 jbe	 SHORT $LN397@ServerComm

; 446  :             _Result = _Unfancy(_Bx._Ptr);

  00322	8b 09		 mov	 ecx, DWORD PTR [ecx]
$LN397@ServerComm:
; File D:\_m2work\Server Client TMP4\ClientVS22\source\UserInterface\PythonNetworkStreamCommand.cpp

; 239  : 			UINT count = atoi(TokenVector[3].c_str());

  00324	51		 push	 ecx
  00325	e8 00 00 00 00	 call	 __atoi64
  0032a	83 c4 04	 add	 esp, 4

; 240  : 			PyCallClassMemberFunc(m_apoPhaseWnd[PHASE_WINDOW_GAME], "BINARY_Cube_Succeed", Py_BuildValue("(ii)", itemVnum, count));

  0032d	50		 push	 eax
  0032e	a1 00 00 00 00	 mov	 eax, DWORD PTR __imp__Py_BuildValue
  00333	56		 push	 esi
  00334	68 00 00 00 00	 push	 OFFSET ??_C@_04INACLLOK@?$CIii?$CJ@
  00339	ff d0		 call	 eax
  0033b	83 c4 0c	 add	 esp, 12			; 0000000cH
  0033e	50		 push	 eax
  0033f	68 00 00 00 00	 push	 OFFSET ??_C@_0BE@HLNHNAAA@BINARY_Cube_Succeed@
  00344	ff b7 90 01 00
	00		 push	 DWORD PTR [edi+400]
  0034a	e8 00 00 00 00	 call	 ?PyCallClassMemberFunc@@YA_NPAU_object@@PBD0@Z ; PyCallClassMemberFunc
; File C:\Program Files\Microsoft Visual Studio\2022\Community\VC\Tools\MSVC\14.44.35207\include\vector

; 2090 :         if (_Myfirst) { // destroy and deallocate old array

  0034f	83 c4 0c	 add	 esp, 12			; 0000000cH
  00352	e9 29 0e 00 00	 jmp	 $LN1775@ServerComm
$LN33@ServerComm:
; File D:\_m2work\Server Client TMP4\ClientVS22\source\UserInterface\PythonNetworkStreamCommand.cpp

; 242  : 		else if ("fail" == TokenVector[1])

  00357	68 00 00 00 00	 push	 OFFSET ??_C@_04CCHLMOGN@fail@
  0035c	56		 push	 esi
  0035d	e8 00 00 00 00	 call	 ??$?8DU?$char_traits@D@std@@V?$allocator@D@1@@std@@YA_NABV?$basic_string@DU?$char_traits@D@std@@V?$allocator@D@2@@0@QBD@Z ; std::operator==<char,std::char_traits<char>,std::allocator<char> >
  00362	83 c4 08	 add	 esp, 8
  00365	84 c0		 test	 al, al
  00367	74 28		 je	 SHORT $LN36@ServerComm

; 243  : 		{
; 244  : 			PyCallClassMemberFunc(m_apoPhaseWnd[PHASE_WINDOW_GAME], "BINARY_Cube_Failed", Py_BuildValue("()"));

  00369	a1 00 00 00 00	 mov	 eax, DWORD PTR __imp__Py_BuildValue
  0036e	68 00 00 00 00	 push	 OFFSET ??_C@_02HCKGKOFO@?$CI?$CJ@
  00373	ff d0		 call	 eax
  00375	83 c4 04	 add	 esp, 4
  00378	50		 push	 eax
  00379	68 00 00 00 00	 push	 OFFSET ??_C@_0BD@IKENMBNJ@BINARY_Cube_Failed@
  0037e	ff b7 90 01 00
	00		 push	 DWORD PTR [edi+400]
  00384	e8 00 00 00 00	 call	 ?PyCallClassMemberFunc@@YA_NPAU_object@@PBD0@Z ; PyCallClassMemberFunc
; File C:\Program Files\Microsoft Visual Studio\2022\Community\VC\Tools\MSVC\14.44.35207\include\vector

; 2090 :         if (_Myfirst) { // destroy and deallocate old array

  00389	83 c4 0c	 add	 esp, 12			; 0000000cH
  0038c	e9 ef 0d 00 00	 jmp	 $LN1775@ServerComm
$LN36@ServerComm:
; File D:\_m2work\Server Client TMP4\ClientVS22\source\UserInterface\PythonNetworkStreamCommand.cpp

; 246  : 		else if ("r_list" == TokenVector[1])

  00391	68 00 00 00 00	 push	 OFFSET ??_C@_06ODLEBDJP@r_list@
  00396	56		 push	 esi
  00397	e8 00 00 00 00	 call	 ??$?8DU?$char_traits@D@std@@V?$allocator@D@1@@std@@YA_NABV?$basic_string@DU?$char_traits@D@std@@V?$allocator@D@2@@0@QBD@Z ; std::operator==<char,std::char_traits<char>,std::allocator<char> >
  0039c	83 c4 08	 add	 esp, 8
  0039f	84 c0		 test	 al, al
  003a1	74 55		 je	 SHORT $LN38@ServerComm

; 247  : 		{
; 248  : 			// result list (/cube r_list npcVNUM resultCount resultText)
; 249  : 			// 20383 4 72723,1/72725,1/72730.1/50001,5 <-  "/"    
; 250  : 			if (5 != TokenVector.size())

  003a3	83 7d ac 78	 cmp	 DWORD PTR tv5533[ebp], 120 ; 00000078H
  003a7	75 6b		 jne	 SHORT $LN1767@ServerComm
; File C:\Program Files\Microsoft Visual Studio\2022\Community\VC\Tools\MSVC\14.44.35207\include\vector

; 1934 :         return _My_data._Myfirst[_Pos];

  003a9	8b 45 b4	 mov	 eax, DWORD PTR _TokenVector$[ebp]
  003ac	83 c0 30	 add	 eax, 48			; 00000030H
; File C:\Program Files\Microsoft Visual Studio\2022\Community\VC\Tools\MSVC\14.44.35207\include\xstring

; 453  :         return _Myres > _Small_string_capacity;

  003af	83 78 14 0f	 cmp	 DWORD PTR [eax+20], 15	; 0000000fH

; 445  :         if (_Large_mode_engaged()) {

  003b3	76 02		 jbe	 SHORT $LN485@ServerComm

; 446  :             _Result = _Unfancy(_Bx._Ptr);

  003b5	8b 00		 mov	 eax, DWORD PTR [eax]
$LN485@ServerComm:
; File D:\_m2work\Server Client TMP4\ClientVS22\source\UserInterface\PythonNetworkStreamCommand.cpp

; 256  : 			DWORD npcVNUM = (DWORD)atoi(TokenVector[2].c_str());

  003b7	50		 push	 eax
  003b8	e8 00 00 00 00	 call	 __atoi64
; File C:\Program Files\Microsoft Visual Studio\2022\Community\VC\Tools\MSVC\14.44.35207\include\vector

; 1934 :         return _My_data._Myfirst[_Pos];

  003bd	8b 4d b4	 mov	 ecx, DWORD PTR _TokenVector$[ebp]
; File D:\_m2work\Server Client TMP4\ClientVS22\source\UserInterface\PythonNetworkStreamCommand.cpp

; 256  : 			DWORD npcVNUM = (DWORD)atoi(TokenVector[2].c_str());

  003c0	83 c4 04	 add	 esp, 4
; File C:\Program Files\Microsoft Visual Studio\2022\Community\VC\Tools\MSVC\14.44.35207\include\vector

; 1934 :         return _My_data._Myfirst[_Pos];

  003c3	83 c1 60	 add	 ecx, 96			; 00000060H
; File C:\Program Files\Microsoft Visual Studio\2022\Community\VC\Tools\MSVC\14.44.35207\include\xstring

; 453  :         return _Myres > _Small_string_capacity;

  003c6	83 79 14 0f	 cmp	 DWORD PTR [ecx+20], 15	; 0000000fH

; 445  :         if (_Large_mode_engaged()) {

  003ca	76 02		 jbe	 SHORT $LN495@ServerComm

; 446  :             _Result = _Unfancy(_Bx._Ptr);

  003cc	8b 09		 mov	 ecx, DWORD PTR [ecx]
$LN495@ServerComm:
; File D:\_m2work\Server Client TMP4\ClientVS22\source\UserInterface\PythonNetworkStreamCommand.cpp

; 258  : 			PyCallClassMemberFunc(m_apoPhaseWnd[PHASE_WINDOW_GAME], "BINARY_Cube_ResultList", Py_BuildValue("(is)", npcVNUM, TokenVector[4].c_str()));

  003ce	51		 push	 ecx
  003cf	50		 push	 eax
  003d0	a1 00 00 00 00	 mov	 eax, DWORD PTR __imp__Py_BuildValue
  003d5	68 00 00 00 00	 push	 OFFSET ??_C@_04JMLDJNEM@?$CIis?$CJ@
  003da	ff d0		 call	 eax
  003dc	83 c4 0c	 add	 esp, 12			; 0000000cH
  003df	50		 push	 eax
  003e0	68 00 00 00 00	 push	 OFFSET ??_C@_0BH@JONCIELM@BINARY_Cube_ResultList@
  003e5	ff b7 90 01 00
	00		 push	 DWORD PTR [edi+400]
  003eb	e8 00 00 00 00	 call	 ?PyCallClassMemberFunc@@YA_NPAU_object@@PBD0@Z ; PyCallClassMemberFunc
; File C:\Program Files\Microsoft Visual Studio\2022\Community\VC\Tools\MSVC\14.44.35207\include\vector

; 2090 :         if (_Myfirst) { // destroy and deallocate old array

  003f0	83 c4 0c	 add	 esp, 12			; 0000000cH
  003f3	e9 88 0d 00 00	 jmp	 $LN1775@ServerComm
$LN38@ServerComm:
; File D:\_m2work\Server Client TMP4\ClientVS22\source\UserInterface\PythonNetworkStreamCommand.cpp

; 260  : 		else if ("m_info" == TokenVector[1])

  003f8	68 00 00 00 00	 push	 OFFSET ??_C@_06JEMOOCHA@m_info@
  003fd	56		 push	 esi
  003fe	e8 00 00 00 00	 call	 ??$?8DU?$char_traits@D@std@@V?$allocator@D@1@@std@@YA_NABV?$basic_string@DU?$char_traits@D@std@@V?$allocator@D@2@@0@QBD@Z ; std::operator==<char,std::char_traits<char>,std::allocator<char> >
  00403	83 c4 08	 add	 esp, 8
  00406	84 c0		 test	 al, al
  00408	0f 84 72 0d 00
	00		 je	 $LN1775@ServerComm

; 261  : 		{
; 262  : 			// material list (/cube m_info requestStartIndex resultCount MaterialText)
; 263  : 			// ex) requestStartIndex: 0, resultCount : 5 -  NPC     0~4        MaterialText 
; 264  : 			//       "@"  
; 265  : 			// 0 5 125,1|126,2|127,2|123,5&555,5&555,4/120000 <-     
; 266  : 
; 267  : 			if (5 != TokenVector.size())

  0040e	83 7d ac 78	 cmp	 DWORD PTR tv5533[ebp], 120 ; 00000078H
  00412	74 17		 je	 SHORT $LN42@ServerComm
$LN1767@ServerComm:

; 268  : 			{
; 269  : 				TraceError("CPythonNetworkStream::ServerCommand(c_szCommand=%s) - Strange Parameter Count : %d", c_szCommand, 5);

  00414	6a 05		 push	 5
$LN1782@ServerComm:
; File C:\Program Files\Microsoft Visual Studio\2022\Community\VC\Tools\MSVC\14.44.35207\include\vector

; 2090 :         if (_Myfirst) { // destroy and deallocate old array

  00416	ff 75 b0	 push	 DWORD PTR _c_szCommand$GSCopy$1$[ebp]
  00419	68 00 00 00 00	 push	 OFFSET ??_C@_0FD@MDMGNNOD@CPythonNetworkStream?3?3ServerCom@
  0041e	e8 00 00 00 00	 call	 ?TraceError@@YAXPBDZZ	; TraceError
  00423	83 c4 0c	 add	 esp, 12			; 0000000cH
  00426	e9 55 0d 00 00	 jmp	 $LN1775@ServerComm
$LN42@ServerComm:

; 1934 :         return _My_data._Myfirst[_Pos];

  0042b	8b 45 b4	 mov	 eax, DWORD PTR _TokenVector$[ebp]
  0042e	83 c0 30	 add	 eax, 48			; 00000030H
; File C:\Program Files\Microsoft Visual Studio\2022\Community\VC\Tools\MSVC\14.44.35207\include\xstring

; 453  :         return _Myres > _Small_string_capacity;

  00431	83 78 14 0f	 cmp	 DWORD PTR [eax+20], 15	; 0000000fH

; 445  :         if (_Large_mode_engaged()) {

  00435	76 02		 jbe	 SHORT $LN534@ServerComm

; 446  :             _Result = _Unfancy(_Bx._Ptr);

  00437	8b 00		 mov	 eax, DWORD PTR [eax]
$LN534@ServerComm:
; File D:\_m2work\Server Client TMP4\ClientVS22\source\UserInterface\PythonNetworkStreamCommand.cpp

; 273  : 			UINT requestStartIndex = (UINT)atoi(TokenVector[2].c_str());

  00439	50		 push	 eax
  0043a	e8 00 00 00 00	 call	 __atoi64
; File C:\Program Files\Microsoft Visual Studio\2022\Community\VC\Tools\MSVC\14.44.35207\include\vector

; 1934 :         return _My_data._Myfirst[_Pos];

  0043f	8b 4d b4	 mov	 ecx, DWORD PTR _TokenVector$[ebp]
; File D:\_m2work\Server Client TMP4\ClientVS22\source\UserInterface\PythonNetworkStreamCommand.cpp

; 273  : 			UINT requestStartIndex = (UINT)atoi(TokenVector[2].c_str());

  00442	83 c4 04	 add	 esp, 4
; File C:\Program Files\Microsoft Visual Studio\2022\Community\VC\Tools\MSVC\14.44.35207\include\vector

; 1934 :         return _My_data._Myfirst[_Pos];

  00445	83 c1 48	 add	 ecx, 72			; 00000048H
; File D:\_m2work\Server Client TMP4\ClientVS22\source\UserInterface\PythonNetworkStreamCommand.cpp

; 273  : 			UINT requestStartIndex = (UINT)atoi(TokenVector[2].c_str());

  00448	8b f0		 mov	 esi, eax
; File C:\Program Files\Microsoft Visual Studio\2022\Community\VC\Tools\MSVC\14.44.35207\include\xstring

; 453  :         return _Myres > _Small_string_capacity;

  0044a	83 79 14 0f	 cmp	 DWORD PTR [ecx+20], 15	; 0000000fH

; 445  :         if (_Large_mode_engaged()) {

  0044e	76 02		 jbe	 SHORT $LN508@ServerComm

; 446  :             _Result = _Unfancy(_Bx._Ptr);

  00450	8b 09		 mov	 ecx, DWORD PTR [ecx]
$LN508@ServerComm:
; File D:\_m2work\Server Client TMP4\ClientVS22\source\UserInterface\PythonNetworkStreamCommand.cpp

; 274  : 			UINT resultCount = (UINT)atoi(TokenVector[3].c_str());

  00452	51		 push	 ecx
  00453	e8 00 00 00 00	 call	 __atoi64
; File C:\Program Files\Microsoft Visual Studio\2022\Community\VC\Tools\MSVC\14.44.35207\include\vector

; 1934 :         return _My_data._Myfirst[_Pos];

  00458	8b 4d b4	 mov	 ecx, DWORD PTR _TokenVector$[ebp]
; File D:\_m2work\Server Client TMP4\ClientVS22\source\UserInterface\PythonNetworkStreamCommand.cpp

; 274  : 			UINT resultCount = (UINT)atoi(TokenVector[3].c_str());

  0045b	83 c4 04	 add	 esp, 4
; File C:\Program Files\Microsoft Visual Studio\2022\Community\VC\Tools\MSVC\14.44.35207\include\vector

; 1934 :         return _My_data._Myfirst[_Pos];

  0045e	83 c1 60	 add	 ecx, 96			; 00000060H
; File C:\Program Files\Microsoft Visual Studio\2022\Community\VC\Tools\MSVC\14.44.35207\include\xstring

; 453  :         return _Myres > _Small_string_capacity;

  00461	83 79 14 0f	 cmp	 DWORD PTR [ecx+20], 15	; 0000000fH

; 445  :         if (_Large_mode_engaged()) {

  00465	76 02		 jbe	 SHORT $LN521@ServerComm

; 446  :             _Result = _Unfancy(_Bx._Ptr);

  00467	8b 09		 mov	 ecx, DWORD PTR [ecx]
$LN521@ServerComm:
; File D:\_m2work\Server Client TMP4\ClientVS22\source\UserInterface\PythonNetworkStreamCommand.cpp

; 276  : 			PyCallClassMemberFunc(m_apoPhaseWnd[PHASE_WINDOW_GAME], "BINARY_Cube_MaterialInfo", Py_BuildValue("(iis)", requestStartIndex, resultCount, TokenVector[4].c_str()));

  00469	51		 push	 ecx
  0046a	50		 push	 eax
  0046b	a1 00 00 00 00	 mov	 eax, DWORD PTR __imp__Py_BuildValue
  00470	56		 push	 esi
  00471	68 00 00 00 00	 push	 OFFSET ??_C@_05GFDPDNFA@?$CIiis?$CJ@
  00476	ff d0		 call	 eax
  00478	50		 push	 eax
  00479	68 00 00 00 00	 push	 OFFSET ??_C@_0BJ@DLFAEHHE@BINARY_Cube_MaterialInfo@
  0047e	ff b7 90 01 00
	00		 push	 DWORD PTR [edi+400]
  00484	e8 00 00 00 00	 call	 ?PyCallClassMemberFunc@@YA_NPAU_object@@PBD0@Z ; PyCallClassMemberFunc
  00489	83 c4 1c	 add	 esp, 28			; 0000001cH

; 277  : 		}
; 278  : 	}

  0048c	e9 ef 0c 00 00	 jmp	 $LN1775@ServerComm
$LN22@ServerComm:

; 279  : 	// CUEBE_END
; 280  : 	else if (!strcmpi(szCmd, "ObserverCount"))

  00491	68 00 00 00 00	 push	 OFFSET ??_C@_0O@HADNNBFL@ObserverCount@
  00496	56		 push	 esi
  00497	e8 00 00 00 00	 call	 __strcmpi
  0049c	83 c4 08	 add	 esp, 8
  0049f	85 c0		 test	 eax, eax
  004a1	75 4b		 jne	 SHORT $LN43@ServerComm
; File C:\Program Files\Microsoft Visual Studio\2022\Community\VC\Tools\MSVC\14.44.35207\include\vector

; 1915 :         return static_cast<size_type>(_My_data._Mylast - _My_data._Myfirst);

  004a3	8b 45 b8	 mov	 eax, DWORD PTR _TokenVector$[ebp+4]
  004a6	8b 4d b4	 mov	 ecx, DWORD PTR _TokenVector$[ebp]
  004a9	2b c1		 sub	 eax, ecx
; File D:\_m2work\Server Client TMP4\ClientVS22\source\UserInterface\PythonNetworkStreamCommand.cpp

; 282  : 		if (2 != TokenVector.size())

  004ab	83 f8 30	 cmp	 eax, 48			; 00000030H
  004ae	0f 85 e9 00 00
	00		 jne	 $LN1764@ServerComm
; File C:\Program Files\Microsoft Visual Studio\2022\Community\VC\Tools\MSVC\14.44.35207\include\xstring

; 453  :         return _Myres > _Small_string_capacity;

  004b4	83 79 2c 0f	 cmp	 DWORD PTR [ecx+44], 15	; 0000000fH
; File C:\Program Files\Microsoft Visual Studio\2022\Community\VC\Tools\MSVC\14.44.35207\include\vector

; 1934 :         return _My_data._Myfirst[_Pos];

  004b8	8d 41 18	 lea	 eax, DWORD PTR [ecx+24]
; File C:\Program Files\Microsoft Visual Studio\2022\Community\VC\Tools\MSVC\14.44.35207\include\xstring

; 445  :         if (_Large_mode_engaged()) {

  004bb	76 02		 jbe	 SHORT $LN233@ServerComm

; 446  :             _Result = _Unfancy(_Bx._Ptr);

  004bd	8b 00		 mov	 eax, DWORD PTR [eax]
$LN233@ServerComm:
; File D:\_m2work\Server Client TMP4\ClientVS22\source\UserInterface\PythonNetworkStreamCommand.cpp

; 288  : 		UINT uObserverCount= atoi(TokenVector[1].c_str());				

  004bf	50		 push	 eax
  004c0	e8 00 00 00 00	 call	 __atoi64
  004c5	83 c4 04	 add	 esp, 4

; 289  : 
; 290  : 		PyCallClassMemberFunc(m_apoPhaseWnd[PHASE_WINDOW_GAME], 

  004c8	50		 push	 eax
  004c9	a1 00 00 00 00	 mov	 eax, DWORD PTR __imp__Py_BuildValue
  004ce	68 00 00 00 00	 push	 OFFSET ??_C@_03LIHNMIHG@?$CIi?$CJ@
  004d3	ff d0		 call	 eax
  004d5	50		 push	 eax
  004d6	68 00 00 00 00	 push	 OFFSET ??_C@_0CL@MFEDAABM@BINARY_BettingGuildWar_UpdateOb@
  004db	ff b7 90 01 00
	00		 push	 DWORD PTR [edi+400]
  004e1	e8 00 00 00 00	 call	 ?PyCallClassMemberFunc@@YA_NPAU_object@@PBD0@Z ; PyCallClassMemberFunc
  004e6	83 c4 14	 add	 esp, 20			; 00000014H

; 291  : 			"BINARY_BettingGuildWar_UpdateObserverCount", 
; 292  : 			Py_BuildValue("(i)", uObserverCount)
; 293  : 		);
; 294  : 	}

  004e9	e9 92 0c 00 00	 jmp	 $LN1775@ServerComm
$LN43@ServerComm:

; 295  : 	else if (!strcmpi(szCmd, "ObserverMode"))

  004ee	68 00 00 00 00	 push	 OFFSET ??_C@_0N@EBGNMPMN@ObserverMode@
  004f3	56		 push	 esi
  004f4	e8 00 00 00 00	 call	 __strcmpi
  004f9	83 c4 08	 add	 esp, 8
  004fc	85 c0		 test	 eax, eax
  004fe	75 64		 jne	 SHORT $LN46@ServerComm
; File C:\Program Files\Microsoft Visual Studio\2022\Community\VC\Tools\MSVC\14.44.35207\include\vector

; 1915 :         return static_cast<size_type>(_My_data._Mylast - _My_data._Myfirst);

  00500	8b 45 b8	 mov	 eax, DWORD PTR _TokenVector$[ebp+4]
  00503	8b 4d b4	 mov	 ecx, DWORD PTR _TokenVector$[ebp]
  00506	2b c1		 sub	 eax, ecx
; File D:\_m2work\Server Client TMP4\ClientVS22\source\UserInterface\PythonNetworkStreamCommand.cpp

; 297  : 		if (2 != TokenVector.size())

  00508	83 f8 30	 cmp	 eax, 48			; 00000030H
  0050b	0f 85 8c 00 00
	00		 jne	 $LN1764@ServerComm
; File C:\Program Files\Microsoft Visual Studio\2022\Community\VC\Tools\MSVC\14.44.35207\include\xstring

; 453  :         return _Myres > _Small_string_capacity;

  00511	83 79 2c 0f	 cmp	 DWORD PTR [ecx+44], 15	; 0000000fH
; File C:\Program Files\Microsoft Visual Studio\2022\Community\VC\Tools\MSVC\14.44.35207\include\vector

; 1934 :         return _My_data._Myfirst[_Pos];

  00515	8d 41 18	 lea	 eax, DWORD PTR [ecx+24]
; File C:\Program Files\Microsoft Visual Studio\2022\Community\VC\Tools\MSVC\14.44.35207\include\xstring

; 445  :         if (_Large_mode_engaged()) {

  00518	76 02		 jbe	 SHORT $LN262@ServerComm

; 446  :             _Result = _Unfancy(_Bx._Ptr);

  0051a	8b 00		 mov	 eax, DWORD PTR [eax]
$LN262@ServerComm:
; File D:\_m2work\Server Client TMP4\ClientVS22\source\UserInterface\PythonNetworkStreamCommand.cpp

; 303  : 		UINT uMode= atoi(TokenVector[1].c_str());

  0051c	50		 push	 eax
  0051d	e8 00 00 00 00	 call	 __atoi64

; 304  : 		
; 305  : 		IAbstractPlayer& rkPlayer=IAbstractPlayer::GetSingleton();

  00522	8b 0d 00 00 00
	00		 mov	 ecx, DWORD PTR ?ms_singleton@?$TAbstractSingleton@VIAbstractPlayer@@@@0PAVIAbstractPlayer@@A ; TAbstractSingleton<IAbstractPlayer>::ms_singleton
  00528	83 c4 04	 add	 esp, 4
  0052b	8b f8		 mov	 edi, eax

; 306  : 		rkPlayer.SetObserverMode(uMode ? true : false);

  0052d	85 ff		 test	 edi, edi
  0052f	8b 31		 mov	 esi, DWORD PTR [ecx]
  00531	0f 95 c2	 setne	 dl
  00534	0f b6 d2	 movzx	 edx, dl
  00537	52		 push	 edx
  00538	ff 56 74	 call	 DWORD PTR [esi+116]

; 307  : 
; 308  : 		PyCallClassMemberFunc(m_apoPhaseWnd[PHASE_WINDOW_GAME], 

  0053b	a1 00 00 00 00	 mov	 eax, DWORD PTR __imp__Py_BuildValue
  00540	57		 push	 edi
  00541	68 00 00 00 00	 push	 OFFSET ??_C@_03LIHNMIHG@?$CIi?$CJ@
  00546	ff d0		 call	 eax
  00548	50		 push	 eax
  00549	8b 45 c4	 mov	 eax, DWORD PTR _this$GSCopy$1$[ebp]
  0054c	68 00 00 00 00	 push	 OFFSET ??_C@_0CH@OENJEHPK@BINARY_BettingGuildWar_SetObser@
  00551	ff b0 90 01 00
	00		 push	 DWORD PTR [eax+400]
  00557	e8 00 00 00 00	 call	 ?PyCallClassMemberFunc@@YA_NPAU_object@@PBD0@Z ; PyCallClassMemberFunc
  0055c	83 c4 14	 add	 esp, 20			; 00000014H

; 309  : 			"BINARY_BettingGuildWar_SetObserverMode", 
; 310  : 			Py_BuildValue("(i)", uMode)
; 311  : 		);
; 312  : 	}

  0055f	e9 1c 0c 00 00	 jmp	 $LN1775@ServerComm
$LN46@ServerComm:

; 313  : 	else if (!strcmpi(szCmd, "ObserverTeamInfo"))

  00564	68 00 00 00 00	 push	 OFFSET ??_C@_0BB@MALBLMJA@ObserverTeamInfo@
  00569	56		 push	 esi
  0056a	e8 00 00 00 00	 call	 __strcmpi
  0056f	83 c4 08	 add	 esp, 8
  00572	85 c0		 test	 eax, eax
  00574	0f 84 06 0c 00
	00		 je	 $LN1775@ServerComm

; 314  : 	{		
; 315  : 	}
; 316  : 	else if (!strcmpi(szCmd, "StoneDetect"))

  0057a	68 00 00 00 00	 push	 OFFSET ??_C@_0M@EEGHHMDP@StoneDetect@
  0057f	56		 push	 esi
  00580	e8 00 00 00 00	 call	 __strcmpi
  00585	83 c4 08	 add	 esp, 8
  00588	85 c0		 test	 eax, eax
  0058a	0f 85 0c 02 00
	00		 jne	 $LN51@ServerComm
; File C:\Program Files\Microsoft Visual Studio\2022\Community\VC\Tools\MSVC\14.44.35207\include\vector

; 1915 :         return static_cast<size_type>(_My_data._Mylast - _My_data._Myfirst);

  00590	8b 45 b8	 mov	 eax, DWORD PTR _TokenVector$[ebp+4]
  00593	8b 4d b4	 mov	 ecx, DWORD PTR _TokenVector$[ebp]
  00596	2b c1		 sub	 eax, ecx
; File D:\_m2work\Server Client TMP4\ClientVS22\source\UserInterface\PythonNetworkStreamCommand.cpp

; 318  : 		if (4 != TokenVector.size())

  00598	83 f8 60	 cmp	 eax, 96			; 00000060H
  0059b	74 15		 je	 SHORT $LN53@ServerComm
$LN1764@ServerComm:
; File C:\Program Files\Microsoft Visual Studio\2022\Community\VC\Tools\MSVC\14.44.35207\include\vector

; 2090 :         if (_Myfirst) { // destroy and deallocate old array

  0059d	ff 75 b0	 push	 DWORD PTR _c_szCommand$GSCopy$1$[ebp]
  005a0	68 00 00 00 00	 push	 OFFSET ??_C@_0FD@MGEFFJHF@CPythonNetworkStream?3?3ServerCom@
  005a5	e8 00 00 00 00	 call	 ?TraceError@@YAXPBDZZ	; TraceError
  005aa	83 c4 08	 add	 esp, 8
  005ad	e9 ce 0b 00 00	 jmp	 $LN1775@ServerComm
$LN53@ServerComm:
; File C:\Program Files\Microsoft Visual Studio\2022\Community\VC\Tools\MSVC\14.44.35207\include\xstring

; 453  :         return _Myres > _Small_string_capacity;

  005b2	83 79 2c 0f	 cmp	 DWORD PTR [ecx+44], 15	; 0000000fH
; File C:\Program Files\Microsoft Visual Studio\2022\Community\VC\Tools\MSVC\14.44.35207\include\vector

; 1934 :         return _My_data._Myfirst[_Pos];

  005b6	8d 41 18	 lea	 eax, DWORD PTR [ecx+24]
; File C:\Program Files\Microsoft Visual Studio\2022\Community\VC\Tools\MSVC\14.44.35207\include\xstring

; 445  :         if (_Large_mode_engaged()) {

  005b9	76 02		 jbe	 SHORT $LN296@ServerComm

; 446  :             _Result = _Unfancy(_Bx._Ptr);

  005bb	8b 00		 mov	 eax, DWORD PTR [eax]
$LN296@ServerComm:
; File D:\_m2work\Server Client TMP4\ClientVS22\source\UserInterface\PythonNetworkStreamCommand.cpp

; 325  : 		DWORD dwVID = atoi(TokenVector[1].c_str());

  005bd	50		 push	 eax
  005be	e8 00 00 00 00	 call	 __atoi64
; File C:\Program Files\Microsoft Visual Studio\2022\Community\VC\Tools\MSVC\14.44.35207\include\vector

; 1934 :         return _My_data._Myfirst[_Pos];

  005c3	8b 4d b4	 mov	 ecx, DWORD PTR _TokenVector$[ebp]
; File D:\_m2work\Server Client TMP4\ClientVS22\source\UserInterface\PythonNetworkStreamCommand.cpp

; 325  : 		DWORD dwVID = atoi(TokenVector[1].c_str());

  005c6	83 c4 04	 add	 esp, 4
; File C:\Program Files\Microsoft Visual Studio\2022\Community\VC\Tools\MSVC\14.44.35207\include\vector

; 1934 :         return _My_data._Myfirst[_Pos];

  005c9	83 c1 30	 add	 ecx, 48			; 00000030H
; File D:\_m2work\Server Client TMP4\ClientVS22\source\UserInterface\PythonNetworkStreamCommand.cpp

; 325  : 		DWORD dwVID = atoi(TokenVector[1].c_str());

  005cc	8b f8		 mov	 edi, eax
; File C:\Program Files\Microsoft Visual Studio\2022\Community\VC\Tools\MSVC\14.44.35207\include\xstring

; 453  :         return _Myres > _Small_string_capacity;

  005ce	83 79 14 0f	 cmp	 DWORD PTR [ecx+20], 15	; 0000000fH

; 445  :         if (_Large_mode_engaged()) {

  005d2	76 02		 jbe	 SHORT $LN309@ServerComm

; 446  :             _Result = _Unfancy(_Bx._Ptr);

  005d4	8b 09		 mov	 ecx, DWORD PTR [ecx]
$LN309@ServerComm:
; File D:\_m2work\Server Client TMP4\ClientVS22\source\UserInterface\PythonNetworkStreamCommand.cpp

; 326  : 		BYTE byDistance = atoi(TokenVector[2].c_str());

  005d6	51		 push	 ecx
  005d7	e8 00 00 00 00	 call	 __atoi64
; File C:\Program Files\Microsoft Visual Studio\2022\Community\VC\Tools\MSVC\14.44.35207\include\vector

; 1934 :         return _My_data._Myfirst[_Pos];

  005dc	8b 4d b4	 mov	 ecx, DWORD PTR _TokenVector$[ebp]
; File D:\_m2work\Server Client TMP4\ClientVS22\source\UserInterface\PythonNetworkStreamCommand.cpp

; 326  : 		BYTE byDistance = atoi(TokenVector[2].c_str());

  005df	83 c4 04	 add	 esp, 4
; File C:\Program Files\Microsoft Visual Studio\2022\Community\VC\Tools\MSVC\14.44.35207\include\vector

; 1934 :         return _My_data._Myfirst[_Pos];

  005e2	83 c1 48	 add	 ecx, 72			; 00000048H
; File D:\_m2work\Server Client TMP4\ClientVS22\source\UserInterface\PythonNetworkStreamCommand.cpp

; 326  : 		BYTE byDistance = atoi(TokenVector[2].c_str());

  005e5	88 45 c3	 mov	 BYTE PTR _byDistance$1$[ebp], al
; File C:\Program Files\Microsoft Visual Studio\2022\Community\VC\Tools\MSVC\14.44.35207\include\xstring

; 453  :         return _Myres > _Small_string_capacity;

  005e8	83 79 14 0f	 cmp	 DWORD PTR [ecx+20], 15	; 0000000fH

; 445  :         if (_Large_mode_engaged()) {

  005ec	76 02		 jbe	 SHORT $LN322@ServerComm

; 446  :             _Result = _Unfancy(_Bx._Ptr);

  005ee	8b 09		 mov	 ecx, DWORD PTR [ecx]
$LN322@ServerComm:
; File D:\_m2work\Server Client TMP4\ClientVS22\source\UserInterface\PythonNetworkStreamCommand.cpp

; 327  : 		float fAngle = atof(TokenVector[3].c_str());

  005f0	51		 push	 ecx
  005f1	e8 00 00 00 00	 call	 _atof
; File C:\Program Files\Microsoft Visual Studio\2022\Community\VC\Tools\MSVC\14.44.35207\include\cmath

; 147  :     return _CSTD fmodf(_Xx, _Yx);

  005f6	f3 0f 10 0d 00
	00 00 00	 movss	 xmm1, DWORD PTR __real@43b40000
; File D:\_m2work\Server Client TMP4\ClientVS22\source\UserInterface\PythonNetworkStreamCommand.cpp

; 327  : 		float fAngle = atof(TokenVector[3].c_str());

  005fe	83 c4 04	 add	 esp, 4
  00601	d9 5d c4	 fstp	 DWORD PTR tv5920[ebp]
  00604	d9 45 c4	 fld	 DWORD PTR tv5920[ebp]

; 328  : 		fAngle = fmod(540.0f - fAngle, 360.0f);

  00607	d8 2d 00 00 00
	00		 fsubr	 DWORD PTR __real@44070000
  0060d	d9 5d c4	 fstp	 DWORD PTR tv5917[ebp]
; File C:\Program Files\Microsoft Visual Studio\2022\Community\VC\Tools\MSVC\14.44.35207\include\cmath

; 147  :     return _CSTD fmodf(_Xx, _Yx);

  00610	f3 0f 10 45 c4	 movss	 xmm0, DWORD PTR tv5917[ebp]
  00615	e8 00 00 00 00	 call	 _fmodf
; File C:\Program Files\Microsoft Visual Studio\2022\Community\VC\Tools\MSVC\14.44.35207\include\vector

; 1934 :         return _My_data._Myfirst[_Pos];

  0061a	8b 45 b4	 mov	 eax, DWORD PTR _TokenVector$[ebp]
  0061d	83 c0 48	 add	 eax, 72			; 00000048H
; File C:\Program Files\Microsoft Visual Studio\2022\Community\VC\Tools\MSVC\14.44.35207\include\cmath

; 147  :     return _CSTD fmodf(_Xx, _Yx);

  00620	f3 0f 11 45 c4	 movss	 DWORD PTR _fAngle$1$[ebp], xmm0
; File C:\Program Files\Microsoft Visual Studio\2022\Community\VC\Tools\MSVC\14.44.35207\include\xstring

; 453  :         return _Myres > _Small_string_capacity;

  00625	83 78 14 0f	 cmp	 DWORD PTR [eax+20], 15	; 0000000fH

; 445  :         if (_Large_mode_engaged()) {

  00629	76 02		 jbe	 SHORT $LN348@ServerComm

; 446  :             _Result = _Unfancy(_Bx._Ptr);

  0062b	8b 00		 mov	 eax, DWORD PTR [eax]
$LN348@ServerComm:
; File D:\_m2work\Server Client TMP4\ClientVS22\source\UserInterface\PythonNetworkStreamCommand.cpp

; 329  : 		Tracef("StoneDetect [VID:%d] [Distance:%d] [Angle:%d->%f]\n", dwVID, byDistance, atoi(TokenVector[3].c_str()), fAngle);

  0062d	0f b6 75 c3	 movzx	 esi, BYTE PTR _byDistance$1$[ebp]
  00631	83 ec 08	 sub	 esp, 8
  00634	f3 0f 5a c0	 cvtss2sd xmm0, xmm0
  00638	f2 0f 11 04 24	 movsd	 QWORD PTR [esp], xmm0
  0063d	50		 push	 eax
  0063e	e8 00 00 00 00	 call	 __atoi64
  00643	83 c4 04	 add	 esp, 4
  00646	52		 push	 edx
  00647	50		 push	 eax
  00648	56		 push	 esi
  00649	57		 push	 edi
  0064a	68 00 00 00 00	 push	 OFFSET ??_C@_0DD@COMEEBAO@StoneDetect?5?$FLVID?3?$CFd?$FN?5?$FLDistance?3@
  0064f	e8 00 00 00 00	 call	 ?Tracef@@YAXPBDZZ	; Tracef

; 330  : 
; 331  : 		IAbstractCharacterManager& rkChrMgr=IAbstractCharacterManager::GetSingleton();

  00654	8b 0d 00 00 00
	00		 mov	 ecx, DWORD PTR ?ms_singleton@?$TAbstractSingleton@VIAbstractCharacterManager@@@@0PAVIAbstractCharacterManager@@A ; TAbstractSingleton<IAbstractCharacterManager>::ms_singleton
  0065a	83 c4 1c	 add	 esp, 28			; 0000001cH

; 332  : 
; 333  : 		CInstanceBase * pInstance = rkChrMgr.GetInstancePtr(dwVID);

  0065d	8b 01		 mov	 eax, DWORD PTR [ecx]
  0065f	57		 push	 edi
  00660	8b 40 08	 mov	 eax, DWORD PTR [eax+8]
  00663	ff d0		 call	 eax

; 334  : 		if (!pInstance)

  00665	85 c0		 test	 eax, eax
  00667	75 15		 jne	 SHORT $LN54@ServerComm

; 335  : 		{
; 336  : 			TraceError("CPythonNetworkStream::ServerCommand(c_szCommand=%s) - Not Exist Instance", c_szCommand);

  00669	ff 75 b0	 push	 DWORD PTR _c_szCommand$GSCopy$1$[ebp]
  0066c	68 00 00 00 00	 push	 OFFSET ??_C@_0EJ@MCLCAHNB@CPythonNetworkStream?3?3ServerCom@
  00671	e8 00 00 00 00	 call	 ?TraceError@@YAXPBDZZ	; TraceError
  00676	83 c4 08	 add	 esp, 8
  00679	e9 02 0b 00 00	 jmp	 $LN1775@ServerComm
$LN54@ServerComm:
; File D:\_m2work\Server Client TMP4\ClientVS22\extern\include\d3dx8math.inl

; 182  :     z = fz;

  0067e	f3 0f 10 45 c4	 movss	 xmm0, DWORD PTR _fAngle$1$[ebp]
; File D:\_m2work\Server Client TMP4\ClientVS22\source\UserInterface\PythonNetworkStreamCommand.cpp

; 342  : 		pInstance->NEW_GetPixelPosition(&PixelPosition);

  00683	8d 4d e0	 lea	 ecx, DWORD PTR _PixelPosition$21[ebp]
  00686	51		 push	 ecx
  00687	8b c8		 mov	 ecx, eax
; File D:\_m2work\Server Client TMP4\ClientVS22\extern\include\d3dx8math.inl

; 180  :     x = fx;

  00689	c7 45 c8 00 00
	00 00		 mov	 DWORD PTR _v3Rotation$5[ebp], 0

; 181  :     y = fy;

  00690	c7 45 cc 00 00
	00 00		 mov	 DWORD PTR _v3Rotation$5[ebp+4], 0

; 182  :     z = fz;

  00697	f3 0f 11 45 d0	 movss	 DWORD PTR _v3Rotation$5[ebp+8], xmm0
; File D:\_m2work\Server Client TMP4\ClientVS22\source\UserInterface\PythonNetworkStreamCommand.cpp

; 342  : 		pInstance->NEW_GetPixelPosition(&PixelPosition);

  0069c	e8 00 00 00 00	 call	 ?NEW_GetPixelPosition@CInstanceBase@@QAEXPAUD3DXVECTOR3@@@Z ; CInstanceBase::NEW_GetPixelPosition

; 343  : 
; 344  : 		PixelPosition.y *= -1.0f;

  006a1	f3 0f 10 45 e4	 movss	 xmm0, DWORD PTR _PixelPosition$21[ebp+4]
  006a6	f3 0f 59 05 00
	00 00 00	 mulss	 xmm0, DWORD PTR __real@bf800000
  006ae	f3 0f 11 45 e4	 movss	 DWORD PTR _PixelPosition$21[ebp+4], xmm0

; 345  : 
; 346  : 		switch (byDistance)

  006b3	83 fe 03	 cmp	 esi, 3
  006b6	0f 87 cb 00 00
	00		 ja	 $LN59@ServerComm
  006bc	ff 24 b5 00 00
	00 00		 jmp	 DWORD PTR $LN1774@ServerComm[esi*4]
$LN55@ServerComm:

; 347  : 		{
; 348  : 			case 0:
; 349  : 				CEffectManager::Instance().RegisterEffect("d:/ymir work/effect/etc/firecracker/find_out.mse");

  006c3	8b 0d 00 00 00
	00		 mov	 ecx, DWORD PTR ?ms_singleton@?$CSingleton@VCEffectManager@@@@0PAVCEffectManager@@A ; CSingleton<CEffectManager>::ms_singleton
  006c9	6a 00		 push	 0
  006cb	6a 00		 push	 0
  006cd	68 00 00 00 00	 push	 OFFSET ??_C@_0DB@CJFLAJFC@d?3?1ymir?5work?1effect?1etc?1firecra@
  006d2	e8 00 00 00 00	 call	 ?RegisterEffect@CEffectManager@@QAEHPBD_N1@Z ; CEffectManager::RegisterEffect

; 350  : 				CEffectManager::Instance().CreateEffect("d:/ymir work/effect/etc/firecracker/find_out.mse", PixelPosition, v3Rotation);

  006d7	8b 0d 00 00 00
	00		 mov	 ecx, DWORD PTR ?ms_singleton@?$CSingleton@VCEffectManager@@@@0PAVCEffectManager@@A ; CSingleton<CEffectManager>::ms_singleton
  006dd	8d 45 c8	 lea	 eax, DWORD PTR _v3Rotation$5[ebp]
  006e0	50		 push	 eax
  006e1	8d 45 e0	 lea	 eax, DWORD PTR _PixelPosition$21[ebp]
  006e4	50		 push	 eax
  006e5	68 00 00 00 00	 push	 OFFSET ??_C@_0DB@CJFLAJFC@d?3?1ymir?5work?1effect?1etc?1firecra@
  006ea	e8 00 00 00 00	 call	 ?CreateEffect@CEffectManager@@QAEHPBDABUD3DXVECTOR3@@1@Z ; CEffectManager::CreateEffect

; 351  : 				break;

  006ef	e9 8c 0a 00 00	 jmp	 $LN1775@ServerComm
$LN56@ServerComm:

; 352  : 			case 1:
; 353  : 				CEffectManager::Instance().RegisterEffect("d:/ymir work/effect/etc/compass/appear_small.mse");

  006f4	8b 0d 00 00 00
	00		 mov	 ecx, DWORD PTR ?ms_singleton@?$CSingleton@VCEffectManager@@@@0PAVCEffectManager@@A ; CSingleton<CEffectManager>::ms_singleton
  006fa	6a 00		 push	 0
  006fc	6a 00		 push	 0
  006fe	68 00 00 00 00	 push	 OFFSET ??_C@_0DB@KDMGCNFI@d?3?1ymir?5work?1effect?1etc?1compass@
  00703	e8 00 00 00 00	 call	 ?RegisterEffect@CEffectManager@@QAEHPBD_N1@Z ; CEffectManager::RegisterEffect

; 354  : 				CEffectManager::Instance().CreateEffect("d:/ymir work/effect/etc/compass/appear_small.mse", PixelPosition, v3Rotation);

  00708	8b 0d 00 00 00
	00		 mov	 ecx, DWORD PTR ?ms_singleton@?$CSingleton@VCEffectManager@@@@0PAVCEffectManager@@A ; CSingleton<CEffectManager>::ms_singleton
  0070e	8d 45 c8	 lea	 eax, DWORD PTR _v3Rotation$5[ebp]
  00711	50		 push	 eax
  00712	8d 45 e0	 lea	 eax, DWORD PTR _PixelPosition$21[ebp]
  00715	50		 push	 eax
  00716	68 00 00 00 00	 push	 OFFSET ??_C@_0DB@KDMGCNFI@d?3?1ymir?5work?1effect?1etc?1compass@
  0071b	e8 00 00 00 00	 call	 ?CreateEffect@CEffectManager@@QAEHPBDABUD3DXVECTOR3@@1@Z ; CEffectManager::CreateEffect

; 355  : 				break;

  00720	e9 5b 0a 00 00	 jmp	 $LN1775@ServerComm
$LN57@ServerComm:

; 356  : 			case 2:
; 357  : 				CEffectManager::Instance().RegisterEffect("d:/ymir work/effect/etc/compass/appear_middle.mse");

  00725	8b 0d 00 00 00
	00		 mov	 ecx, DWORD PTR ?ms_singleton@?$CSingleton@VCEffectManager@@@@0PAVCEffectManager@@A ; CSingleton<CEffectManager>::ms_singleton
  0072b	6a 00		 push	 0
  0072d	6a 00		 push	 0
  0072f	68 00 00 00 00	 push	 OFFSET ??_C@_0DC@MDCBLGBM@d?3?1ymir?5work?1effect?1etc?1compass@
  00734	e8 00 00 00 00	 call	 ?RegisterEffect@CEffectManager@@QAEHPBD_N1@Z ; CEffectManager::RegisterEffect

; 358  : 				CEffectManager::Instance().CreateEffect("d:/ymir work/effect/etc/compass/appear_middle.mse", PixelPosition, v3Rotation);

  00739	8b 0d 00 00 00
	00		 mov	 ecx, DWORD PTR ?ms_singleton@?$CSingleton@VCEffectManager@@@@0PAVCEffectManager@@A ; CSingleton<CEffectManager>::ms_singleton
  0073f	8d 45 c8	 lea	 eax, DWORD PTR _v3Rotation$5[ebp]
  00742	50		 push	 eax
  00743	8d 45 e0	 lea	 eax, DWORD PTR _PixelPosition$21[ebp]
  00746	50		 push	 eax
  00747	68 00 00 00 00	 push	 OFFSET ??_C@_0DC@MDCBLGBM@d?3?1ymir?5work?1effect?1etc?1compass@
  0074c	e8 00 00 00 00	 call	 ?CreateEffect@CEffectManager@@QAEHPBDABUD3DXVECTOR3@@1@Z ; CEffectManager::CreateEffect

; 359  : 				break;

  00751	e9 2a 0a 00 00	 jmp	 $LN1775@ServerComm
$LN58@ServerComm:

; 360  : 			case 3:
; 361  : 				CEffectManager::Instance().RegisterEffect("d:/ymir work/effect/etc/compass/appear_large.mse");

  00756	8b 0d 00 00 00
	00		 mov	 ecx, DWORD PTR ?ms_singleton@?$CSingleton@VCEffectManager@@@@0PAVCEffectManager@@A ; CSingleton<CEffectManager>::ms_singleton
  0075c	6a 00		 push	 0
  0075e	6a 00		 push	 0
  00760	68 00 00 00 00	 push	 OFFSET ??_C@_0DB@EEGLDHND@d?3?1ymir?5work?1effect?1etc?1compass@
  00765	e8 00 00 00 00	 call	 ?RegisterEffect@CEffectManager@@QAEHPBD_N1@Z ; CEffectManager::RegisterEffect

; 362  : 				CEffectManager::Instance().CreateEffect("d:/ymir work/effect/etc/compass/appear_large.mse", PixelPosition, v3Rotation);

  0076a	8b 0d 00 00 00
	00		 mov	 ecx, DWORD PTR ?ms_singleton@?$CSingleton@VCEffectManager@@@@0PAVCEffectManager@@A ; CSingleton<CEffectManager>::ms_singleton
  00770	8d 45 c8	 lea	 eax, DWORD PTR _v3Rotation$5[ebp]
  00773	50		 push	 eax
  00774	8d 45 e0	 lea	 eax, DWORD PTR _PixelPosition$21[ebp]
  00777	50		 push	 eax
  00778	68 00 00 00 00	 push	 OFFSET ??_C@_0DB@EEGLDHND@d?3?1ymir?5work?1effect?1etc?1compass@
  0077d	e8 00 00 00 00	 call	 ?CreateEffect@CEffectManager@@QAEHPBDABUD3DXVECTOR3@@1@Z ; CEffectManager::CreateEffect

; 363  : 				break;

  00782	e9 f9 09 00 00	 jmp	 $LN1775@ServerComm
$LN59@ServerComm:

; 364  : 			default:
; 365  : 				TraceError("CPythonNetworkStream::ServerCommand(c_szCommand=%s) - Strange Distance", c_szCommand);

  00787	ff 75 b0	 push	 DWORD PTR _c_szCommand$GSCopy$1$[ebp]
  0078a	68 00 00 00 00	 push	 OFFSET ??_C@_0EH@NKAADCPI@CPythonNetworkStream?3?3ServerCom@
; File C:\Program Files\Microsoft Visual Studio\2022\Community\VC\Tools\MSVC\14.44.35207\include\vector

; 2090 :         if (_Myfirst) { // destroy and deallocate old array

  0078f	e8 00 00 00 00	 call	 ?TraceError@@YAXPBDZZ	; TraceError
  00794	83 c4 08	 add	 esp, 8
  00797	e9 e4 09 00 00	 jmp	 $LN1775@ServerComm
$LN51@ServerComm:
; File D:\_m2work\Server Client TMP4\ClientVS22\source\UserInterface\PythonNetworkStreamCommand.cpp

; 374  : 	else if (!strcmpi(szCmd, "StartStaminaConsume"))

  0079c	68 00 00 00 00	 push	 OFFSET ??_C@_0BE@FMEJBOHN@StartStaminaConsume@
  007a1	56		 push	 esi
  007a2	e8 00 00 00 00	 call	 __strcmpi
  007a7	83 c4 08	 add	 esp, 8
  007aa	85 c0		 test	 eax, eax
  007ac	75 50		 jne	 SHORT $LN60@ServerComm
; File C:\Program Files\Microsoft Visual Studio\2022\Community\VC\Tools\MSVC\14.44.35207\include\vector

; 1915 :         return static_cast<size_type>(_My_data._Mylast - _My_data._Myfirst);

  007ae	8b 45 b8	 mov	 eax, DWORD PTR _TokenVector$[ebp+4]
  007b1	8b 4d b4	 mov	 ecx, DWORD PTR _TokenVector$[ebp]
  007b4	2b c1		 sub	 eax, ecx
; File D:\_m2work\Server Client TMP4\ClientVS22\source\UserInterface\PythonNetworkStreamCommand.cpp

; 376  : 		if (3 != TokenVector.size())

  007b6	83 f8 48	 cmp	 eax, 72			; 00000048H
  007b9	0f 85 de fd ff
	ff		 jne	 $LN1764@ServerComm
; File C:\Program Files\Microsoft Visual Studio\2022\Community\VC\Tools\MSVC\14.44.35207\include\xstring

; 453  :         return _Myres > _Small_string_capacity;

  007bf	83 79 2c 0f	 cmp	 DWORD PTR [ecx+44], 15	; 0000000fH
; File C:\Program Files\Microsoft Visual Studio\2022\Community\VC\Tools\MSVC\14.44.35207\include\vector

; 1934 :         return _My_data._Myfirst[_Pos];

  007c3	8d 41 18	 lea	 eax, DWORD PTR [ecx+24]
; File C:\Program Files\Microsoft Visual Studio\2022\Community\VC\Tools\MSVC\14.44.35207\include\xstring

; 445  :         if (_Large_mode_engaged()) {

  007c6	76 02		 jbe	 SHORT $LN412@ServerComm

; 446  :             _Result = _Unfancy(_Bx._Ptr);

  007c8	8b 00		 mov	 eax, DWORD PTR [eax]
$LN412@ServerComm:
; File D:\_m2work\Server Client TMP4\ClientVS22\source\UserInterface\PythonNetworkStreamCommand.cpp

; 382  : 		DWORD dwConsumePerSec = atoi(TokenVector[1].c_str());

  007ca	50		 push	 eax
  007cb	e8 00 00 00 00	 call	 __atoi64
; File C:\Program Files\Microsoft Visual Studio\2022\Community\VC\Tools\MSVC\14.44.35207\include\vector

; 1934 :         return _My_data._Myfirst[_Pos];

  007d0	8b 4d b4	 mov	 ecx, DWORD PTR _TokenVector$[ebp]
; File D:\_m2work\Server Client TMP4\ClientVS22\source\UserInterface\PythonNetworkStreamCommand.cpp

; 382  : 		DWORD dwConsumePerSec = atoi(TokenVector[1].c_str());

  007d3	83 c4 04	 add	 esp, 4
; File C:\Program Files\Microsoft Visual Studio\2022\Community\VC\Tools\MSVC\14.44.35207\include\vector

; 1934 :         return _My_data._Myfirst[_Pos];

  007d6	83 c1 30	 add	 ecx, 48			; 00000030H
; File D:\_m2work\Server Client TMP4\ClientVS22\source\UserInterface\PythonNetworkStreamCommand.cpp

; 382  : 		DWORD dwConsumePerSec = atoi(TokenVector[1].c_str());

  007d9	8b f0		 mov	 esi, eax
; File C:\Program Files\Microsoft Visual Studio\2022\Community\VC\Tools\MSVC\14.44.35207\include\xstring

; 453  :         return _Myres > _Small_string_capacity;

  007db	83 79 14 0f	 cmp	 DWORD PTR [ecx+20], 15	; 0000000fH

; 445  :         if (_Large_mode_engaged()) {

  007df	76 02		 jbe	 SHORT $LN425@ServerComm

; 446  :             _Result = _Unfancy(_Bx._Ptr);

  007e1	8b 09		 mov	 ecx, DWORD PTR [ecx]
$LN425@ServerComm:
; File D:\_m2work\Server Client TMP4\ClientVS22\source\UserInterface\PythonNetworkStreamCommand.cpp

; 383  : 		DWORD dwCurrentStamina = atoi(TokenVector[2].c_str());

  007e3	51		 push	 ecx
  007e4	e8 00 00 00 00	 call	 __atoi64

; 384  : 
; 385  : 		IAbstractPlayer& rPlayer=IAbstractPlayer::GetSingleton();

  007e9	8b 0d 00 00 00
	00		 mov	 ecx, DWORD PTR ?ms_singleton@?$TAbstractSingleton@VIAbstractPlayer@@@@0PAVIAbstractPlayer@@A ; TAbstractSingleton<IAbstractPlayer>::ms_singleton
  007ef	83 c4 04	 add	 esp, 4

; 386  : 		rPlayer.StartStaminaConsume(dwConsumePerSec, dwCurrentStamina);

  007f2	8b 11		 mov	 edx, DWORD PTR [ecx]
  007f4	50		 push	 eax
  007f5	56		 push	 esi
  007f6	ff 52 1c	 call	 DWORD PTR [edx+28]

; 387  : 	}

  007f9	e9 82 09 00 00	 jmp	 $LN1775@ServerComm
$LN60@ServerComm:

; 388  : 	
; 389  : 	else if (!strcmpi(szCmd, "StopStaminaConsume"))

  007fe	68 00 00 00 00	 push	 OFFSET ??_C@_0BD@IEDOLMCO@StopStaminaConsume@
  00803	56		 push	 esi
  00804	e8 00 00 00 00	 call	 __strcmpi
  00809	83 c4 08	 add	 esp, 8
  0080c	85 c0		 test	 eax, eax
  0080e	75 4c		 jne	 SHORT $LN63@ServerComm
; File C:\Program Files\Microsoft Visual Studio\2022\Community\VC\Tools\MSVC\14.44.35207\include\vector

; 1915 :         return static_cast<size_type>(_My_data._Mylast - _My_data._Myfirst);

  00810	8b 4d b8	 mov	 ecx, DWORD PTR _TokenVector$[ebp+4]
  00813	8b 55 b4	 mov	 edx, DWORD PTR _TokenVector$[ebp]
  00816	2b ca		 sub	 ecx, edx
; File D:\_m2work\Server Client TMP4\ClientVS22\source\UserInterface\PythonNetworkStreamCommand.cpp

; 391  : 		if (2 != TokenVector.size())

  00818	8d 41 d0	 lea	 eax, DWORD PTR [ecx-48]
  0081b	83 f8 18	 cmp	 eax, 24			; 00000018H
  0081e	72 17		 jb	 SHORT $LN65@ServerComm

; 392  : 		{
; 393  : 			TraceError("CPythonNetworkStream::ServerCommand(c_szCommand=%s) - Strange Parameter Count : %d", c_szCommand, TokenVector.size());

  00820	b8 ab aa aa 2a	 mov	 eax, 715827883		; 2aaaaaabH
  00825	f7 e9		 imul	 ecx
  00827	c1 fa 02	 sar	 edx, 2
  0082a	8b c2		 mov	 eax, edx
  0082c	c1 e8 1f	 shr	 eax, 31			; 0000001fH
  0082f	03 c2		 add	 eax, edx
  00831	50		 push	 eax
  00832	e9 df fb ff ff	 jmp	 $LN1782@ServerComm
$LN65@ServerComm:
; File C:\Program Files\Microsoft Visual Studio\2022\Community\VC\Tools\MSVC\14.44.35207\include\xstring

; 453  :         return _Myres > _Small_string_capacity;

  00837	83 7a 2c 0f	 cmp	 DWORD PTR [edx+44], 15	; 0000000fH
; File C:\Program Files\Microsoft Visual Studio\2022\Community\VC\Tools\MSVC\14.44.35207\include\vector

; 1934 :         return _My_data._Myfirst[_Pos];

  0083b	8d 42 18	 lea	 eax, DWORD PTR [edx+24]
; File C:\Program Files\Microsoft Visual Studio\2022\Community\VC\Tools\MSVC\14.44.35207\include\xstring

; 445  :         if (_Large_mode_engaged()) {

  0083e	76 02		 jbe	 SHORT $LN454@ServerComm

; 446  :             _Result = _Unfancy(_Bx._Ptr);

  00840	8b 00		 mov	 eax, DWORD PTR [eax]
$LN454@ServerComm:
; File D:\_m2work\Server Client TMP4\ClientVS22\source\UserInterface\PythonNetworkStreamCommand.cpp

; 397  : 		DWORD dwCurrentStamina = atoi(TokenVector[1].c_str());

  00842	50		 push	 eax
  00843	e8 00 00 00 00	 call	 __atoi64

; 398  : 
; 399  : 		IAbstractPlayer& rPlayer=IAbstractPlayer::GetSingleton();

  00848	8b 0d 00 00 00
	00		 mov	 ecx, DWORD PTR ?ms_singleton@?$TAbstractSingleton@VIAbstractPlayer@@@@0PAVIAbstractPlayer@@A ; TAbstractSingleton<IAbstractPlayer>::ms_singleton
  0084e	83 c4 04	 add	 esp, 4

; 400  : 		rPlayer.StopStaminaConsume(dwCurrentStamina);

  00851	8b 11		 mov	 edx, DWORD PTR [ecx]
  00853	50		 push	 eax
  00854	ff 52 20	 call	 DWORD PTR [edx+32]

; 401  : 	}

  00857	e9 24 09 00 00	 jmp	 $LN1775@ServerComm
$LN63@ServerComm:

; 402  : 	else if (!strcmpi(szCmd, "sms"))

  0085c	68 00 00 00 00	 push	 OFFSET ??_C@_03ODCMFNNH@sms@
  00861	56		 push	 esi
  00862	e8 00 00 00 00	 call	 __strcmpi
  00867	83 c4 08	 add	 esp, 8
  0086a	85 c0		 test	 eax, eax
  0086c	75 12		 jne	 SHORT $LN66@ServerComm

; 403  : 	{
; 404  : 		IAbstractPlayer& rPlayer=IAbstractPlayer::GetSingleton();

  0086e	8b 0d 00 00 00
	00		 mov	 ecx, DWORD PTR ?ms_singleton@?$TAbstractSingleton@VIAbstractPlayer@@@@0PAVIAbstractPlayer@@A ; TAbstractSingleton<IAbstractPlayer>::ms_singleton

; 405  : 		rPlayer.SetMobileFlag(TRUE);

  00874	6a 01		 push	 1
  00876	8b 01		 mov	 eax, DWORD PTR [ecx]
  00878	ff 50 78	 call	 DWORD PTR [eax+120]

; 406  : 	}

  0087b	e9 00 09 00 00	 jmp	 $LN1775@ServerComm
$LN66@ServerComm:

; 407  : 	else if (!strcmpi(szCmd, "nosms"))

  00880	68 00 00 00 00	 push	 OFFSET ??_C@_05FKDGKNNO@nosms@
  00885	56		 push	 esi
  00886	e8 00 00 00 00	 call	 __strcmpi
  0088b	83 c4 08	 add	 esp, 8
  0088e	85 c0		 test	 eax, eax
  00890	75 12		 jne	 SHORT $LN68@ServerComm

; 408  : 	{
; 409  : 		IAbstractPlayer& rPlayer=IAbstractPlayer::GetSingleton();

  00892	8b 0d 00 00 00
	00		 mov	 ecx, DWORD PTR ?ms_singleton@?$TAbstractSingleton@VIAbstractPlayer@@@@0PAVIAbstractPlayer@@A ; TAbstractSingleton<IAbstractPlayer>::ms_singleton

; 410  : 		rPlayer.SetMobileFlag(FALSE);

  00898	6a 00		 push	 0
  0089a	8b 01		 mov	 eax, DWORD PTR [ecx]
  0089c	ff 50 78	 call	 DWORD PTR [eax+120]

; 411  : 	}

  0089f	e9 dc 08 00 00	 jmp	 $LN1775@ServerComm
$LN68@ServerComm:

; 412  : 	else if (!strcmpi(szCmd, "mobile_auth"))

  008a4	68 00 00 00 00	 push	 OFFSET ??_C@_0M@HBFEJGNO@mobile_auth@
  008a9	56		 push	 esi
  008aa	e8 00 00 00 00	 call	 __strcmpi
  008af	83 c4 08	 add	 esp, 8
  008b2	85 c0		 test	 eax, eax
  008b4	75 28		 jne	 SHORT $LN70@ServerComm

; 413  : 	{
; 414  : 		PyCallClassMemberFunc(m_apoPhaseWnd[PHASE_WINDOW_GAME], "OnMobileAuthority", Py_BuildValue("()"));

  008b6	a1 00 00 00 00	 mov	 eax, DWORD PTR __imp__Py_BuildValue
  008bb	68 00 00 00 00	 push	 OFFSET ??_C@_02HCKGKOFO@?$CI?$CJ@
  008c0	ff d0		 call	 eax
  008c2	83 c4 04	 add	 esp, 4
  008c5	50		 push	 eax
  008c6	68 00 00 00 00	 push	 OFFSET ??_C@_0BC@PFMPDKEI@OnMobileAuthority@
  008cb	ff b7 90 01 00
	00		 push	 DWORD PTR [edi+400]
  008d1	e8 00 00 00 00	 call	 ?PyCallClassMemberFunc@@YA_NPAU_object@@PBD0@Z ; PyCallClassMemberFunc
; File C:\Program Files\Microsoft Visual Studio\2022\Community\VC\Tools\MSVC\14.44.35207\include\vector

; 2090 :         if (_Myfirst) { // destroy and deallocate old array

  008d6	83 c4 0c	 add	 esp, 12			; 0000000cH
  008d9	e9 a2 08 00 00	 jmp	 $LN1775@ServerComm
$LN70@ServerComm:
; File D:\_m2work\Server Client TMP4\ClientVS22\source\UserInterface\PythonNetworkStreamCommand.cpp

; 416  : 	else if (!strcmpi(szCmd, "messenger_auth"))

  008de	68 00 00 00 00	 push	 OFFSET ??_C@_0P@EGMHBKG@messenger_auth@
  008e3	56		 push	 esi
  008e4	e8 00 00 00 00	 call	 __strcmpi
  008e9	83 c4 08	 add	 esp, 8
  008ec	85 c0		 test	 eax, eax
  008ee	75 54		 jne	 SHORT $LN72@ServerComm
; File C:\Program Files\Microsoft Visual Studio\2022\Community\VC\Tools\MSVC\14.44.35207\include\vector

; 1934 :         return _My_data._Myfirst[_Pos];

  008f0	8b 45 b4	 mov	 eax, DWORD PTR _TokenVector$[ebp]
  008f3	83 c0 18	 add	 eax, 24			; 00000018H
; File C:\Program Files\Microsoft Visual Studio\2022\Community\VC\Tools\MSVC\14.44.35207\include\xstring

; 453  :         return _Myres > _Small_string_capacity;

  008f6	83 78 14 0f	 cmp	 DWORD PTR [eax+20], 15	; 0000000fH

; 445  :         if (_Large_mode_engaged()) {

  008fa	76 02		 jbe	 SHORT $LN555@ServerComm

; 446  :             _Result = _Unfancy(_Bx._Ptr);

  008fc	8b 00		 mov	 eax, DWORD PTR [eax]
$LN555@ServerComm:
; File D:\_m2work\Server Client TMP4\ClientVS22\source\UserInterface\PythonNetworkStreamCommand.cpp

; 418  : 		const std::string & c_rstrName = TokenVector[1].c_str();

  008fe	50		 push	 eax
  008ff	8d 4d d4	 lea	 ecx, DWORD PTR _$S11$7[ebp]
  00902	e8 00 00 00 00	 call	 ??0?$basic_string@DU?$char_traits@D@std@@V?$allocator@D@2@@std@@QAE@QBD@Z ; std::basic_string<char,std::char_traits<char>,std::allocator<char> >::basic_string<char,std::char_traits<char>,std::allocator<char> >
  00907	c6 45 fc 01	 mov	 BYTE PTR __$EHRec$[ebp+8], 1
; File C:\Program Files\Microsoft Visual Studio\2022\Community\VC\Tools\MSVC\14.44.35207\include\xstring

; 444  :         const value_type* _Result = _Bx._Buf;

  0090b	8d 45 d4	 lea	 eax, DWORD PTR _$S11$7[ebp]

; 453  :         return _Myres > _Small_string_capacity;

  0090e	83 7d e8 0f	 cmp	 DWORD PTR _$S11$7[ebp+20], 15 ; 0000000fH

; 445  :         if (_Large_mode_engaged()) {

  00912	0f 47 45 d4	 cmova	 eax, DWORD PTR _$S11$7[ebp]
; File D:\_m2work\Server Client TMP4\ClientVS22\source\UserInterface\PythonNetworkStreamCommand.cpp

; 419  : 		PyCallClassMemberFunc(m_apoPhaseWnd[PHASE_WINDOW_GAME], "OnMessengerAddFriendQuestion", Py_BuildValue("(s)", c_rstrName.c_str()));

  00916	50		 push	 eax
  00917	a1 00 00 00 00	 mov	 eax, DWORD PTR __imp__Py_BuildValue
  0091c	68 00 00 00 00	 push	 OFFSET ??_C@_03KJMMOONA@?$CIs?$CJ@
  00921	ff d0		 call	 eax
  00923	50		 push	 eax
  00924	68 00 00 00 00	 push	 OFFSET ??_C@_0BN@HFJFNDOJ@OnMessengerAddFriendQuestion@
  00929	ff b7 90 01 00
	00		 push	 DWORD PTR [edi+400]
  0092f	e8 00 00 00 00	 call	 ?PyCallClassMemberFunc@@YA_NPAU_object@@PBD0@Z ; PyCallClassMemberFunc
  00934	83 c4 14	 add	 esp, 20			; 00000014H
; File C:\Program Files\Microsoft Visual Studio\2022\Community\VC\Tools\MSVC\14.44.35207\include\xstring

; 1383 :         _Tidy_deallocate();

  00937	8d 4d d4	 lea	 ecx, DWORD PTR _$S11$7[ebp]
  0093a	e8 00 00 00 00	 call	 ?_Tidy_deallocate@?$basic_string@DU?$char_traits@D@std@@V?$allocator@D@2@@std@@AAEXXZ ; std::basic_string<char,std::char_traits<char>,std::allocator<char> >::_Tidy_deallocate
; File D:\_m2work\Server Client TMP4\ClientVS22\source\UserInterface\PythonNetworkStreamCommand.cpp

; 420  : 	}

  0093f	e9 3c 08 00 00	 jmp	 $LN1775@ServerComm
$LN72@ServerComm:

; 421  : 	else if (!strcmpi(szCmd, "combo"))

  00944	68 00 00 00 00	 push	 OFFSET ??_C@_05LLEFIEMM@combo@
  00949	56		 push	 esi
  0094a	e8 00 00 00 00	 call	 __strcmpi
  0094f	83 c4 08	 add	 esp, 8
  00952	85 c0		 test	 eax, eax
  00954	75 35		 jne	 SHORT $LN74@ServerComm
; File C:\Program Files\Microsoft Visual Studio\2022\Community\VC\Tools\MSVC\14.44.35207\include\vector

; 1934 :         return _My_data._Myfirst[_Pos];

  00956	8b 45 b4	 mov	 eax, DWORD PTR _TokenVector$[ebp]
  00959	83 c0 18	 add	 eax, 24			; 00000018H
; File C:\Program Files\Microsoft Visual Studio\2022\Community\VC\Tools\MSVC\14.44.35207\include\xstring

; 453  :         return _Myres > _Small_string_capacity;

  0095c	83 78 14 0f	 cmp	 DWORD PTR [eax+20], 15	; 0000000fH

; 445  :         if (_Large_mode_engaged()) {

  00960	76 02		 jbe	 SHORT $LN583@ServerComm

; 446  :             _Result = _Unfancy(_Bx._Ptr);

  00962	8b 00		 mov	 eax, DWORD PTR [eax]
$LN583@ServerComm:
; File D:\_m2work\Server Client TMP4\ClientVS22\source\UserInterface\PythonNetworkStreamCommand.cpp

; 423  : 		int iFlag = atoi(TokenVector[1].c_str());

  00964	50		 push	 eax
  00965	e8 00 00 00 00	 call	 __atoi64

; 424  : 		IAbstractPlayer& rPlayer=IAbstractPlayer::GetSingleton();

  0096a	8b 0d 00 00 00
	00		 mov	 ecx, DWORD PTR ?ms_singleton@?$TAbstractSingleton@VIAbstractPlayer@@@@0PAVIAbstractPlayer@@A ; TAbstractSingleton<IAbstractPlayer>::ms_singleton
  00970	83 c4 04	 add	 esp, 4
  00973	8b f0		 mov	 esi, eax

; 425  : 		rPlayer.SetComboSkillFlag(iFlag);

  00975	8b 11		 mov	 edx, DWORD PTR [ecx]
  00977	56		 push	 esi
  00978	ff 52 7c	 call	 DWORD PTR [edx+124]

; 426  : 		m_bComboSkillFlag = iFlag ? true : false;

  0097b	85 f6		 test	 esi, esi
  0097d	0f 95 c0	 setne	 al
  00980	88 87 21 79 00
	00		 mov	 BYTE PTR [edi+31009], al

; 427  : 	}

  00986	e9 f5 07 00 00	 jmp	 $LN1775@ServerComm
$LN74@ServerComm:

; 428  : 	else if (!strcmpi(szCmd, "setblockmode"))

  0098b	68 00 00 00 00	 push	 OFFSET ??_C@_0N@OCOPIGOC@setblockmode@
  00990	56		 push	 esi
  00991	e8 00 00 00 00	 call	 __strcmpi
  00996	83 c4 08	 add	 esp, 8
  00999	85 c0		 test	 eax, eax
  0099b	75 3d		 jne	 SHORT $LN76@ServerComm
; File C:\Program Files\Microsoft Visual Studio\2022\Community\VC\Tools\MSVC\14.44.35207\include\vector

; 1934 :         return _My_data._Myfirst[_Pos];

  0099d	8b 45 b4	 mov	 eax, DWORD PTR _TokenVector$[ebp]
  009a0	83 c0 18	 add	 eax, 24			; 00000018H
; File C:\Program Files\Microsoft Visual Studio\2022\Community\VC\Tools\MSVC\14.44.35207\include\xstring

; 453  :         return _Myres > _Small_string_capacity;

  009a3	83 78 14 0f	 cmp	 DWORD PTR [eax+20], 15	; 0000000fH

; 445  :         if (_Large_mode_engaged()) {

  009a7	76 02		 jbe	 SHORT $LN596@ServerComm

; 446  :             _Result = _Unfancy(_Bx._Ptr);

  009a9	8b 00		 mov	 eax, DWORD PTR [eax]
$LN596@ServerComm:
; File D:\_m2work\Server Client TMP4\ClientVS22\source\UserInterface\PythonNetworkStreamCommand.cpp

; 430  : 		int iFlag = atoi(TokenVector[1].c_str());

  009ab	50		 push	 eax
  009ac	e8 00 00 00 00	 call	 __atoi64
  009b1	83 c4 04	 add	 esp, 4

; 431  : 		PyCallClassMemberFunc(m_apoPhaseWnd[PHASE_WINDOW_GAME], "OnBlockMode", Py_BuildValue("(i)", iFlag));

  009b4	50		 push	 eax
  009b5	a1 00 00 00 00	 mov	 eax, DWORD PTR __imp__Py_BuildValue
  009ba	68 00 00 00 00	 push	 OFFSET ??_C@_03LIHNMIHG@?$CIi?$CJ@
  009bf	ff d0		 call	 eax
  009c1	50		 push	 eax
  009c2	68 00 00 00 00	 push	 OFFSET ??_C@_0M@KBLDJFEH@OnBlockMode@
  009c7	ff b7 90 01 00
	00		 push	 DWORD PTR [edi+400]
  009cd	e8 00 00 00 00	 call	 ?PyCallClassMemberFunc@@YA_NPAU_object@@PBD0@Z ; PyCallClassMemberFunc
  009d2	83 c4 14	 add	 esp, 20			; 00000014H

; 432  : 	}

  009d5	e9 a6 07 00 00	 jmp	 $LN1775@ServerComm
$LN76@ServerComm:

; 433  : 	// Emotion Start
; 434  : 	else if (!strcmpi(szCmd, "french_kiss"))

  009da	68 00 00 00 00	 push	 OFFSET ??_C@_0M@KHOIJDFJ@french_kiss@
  009df	56		 push	 esi
  009e0	e8 00 00 00 00	 call	 __strcmpi
  009e5	83 c4 08	 add	 esp, 8
  009e8	85 c0		 test	 eax, eax
  009ea	75 7a		 jne	 SHORT $LN78@ServerComm
; File C:\Program Files\Microsoft Visual Studio\2022\Community\VC\Tools\MSVC\14.44.35207\include\vector

; 1934 :         return _My_data._Myfirst[_Pos];

  009ec	8b 45 b4	 mov	 eax, DWORD PTR _TokenVector$[ebp]
  009ef	83 c0 18	 add	 eax, 24			; 00000018H
; File C:\Program Files\Microsoft Visual Studio\2022\Community\VC\Tools\MSVC\14.44.35207\include\xstring

; 453  :         return _Myres > _Small_string_capacity;

  009f2	83 78 14 0f	 cmp	 DWORD PTR [eax+20], 15	; 0000000fH

; 445  :         if (_Large_mode_engaged()) {

  009f6	76 02		 jbe	 SHORT $LN609@ServerComm

; 446  :             _Result = _Unfancy(_Bx._Ptr);

  009f8	8b 00		 mov	 eax, DWORD PTR [eax]
$LN609@ServerComm:
; File D:\_m2work\Server Client TMP4\ClientVS22\source\UserInterface\PythonNetworkStreamCommand.cpp

; 436  : 		int iVID1 = atoi(TokenVector[1].c_str());

  009fa	50		 push	 eax
  009fb	e8 00 00 00 00	 call	 __atoi64
; File C:\Program Files\Microsoft Visual Studio\2022\Community\VC\Tools\MSVC\14.44.35207\include\vector

; 1934 :         return _My_data._Myfirst[_Pos];

  00a00	8b 4d b4	 mov	 ecx, DWORD PTR _TokenVector$[ebp]
; File D:\_m2work\Server Client TMP4\ClientVS22\source\UserInterface\PythonNetworkStreamCommand.cpp

; 436  : 		int iVID1 = atoi(TokenVector[1].c_str());

  00a03	83 c4 04	 add	 esp, 4
; File C:\Program Files\Microsoft Visual Studio\2022\Community\VC\Tools\MSVC\14.44.35207\include\vector

; 1934 :         return _My_data._Myfirst[_Pos];

  00a06	83 c1 30	 add	 ecx, 48			; 00000030H
; File D:\_m2work\Server Client TMP4\ClientVS22\source\UserInterface\PythonNetworkStreamCommand.cpp

; 436  : 		int iVID1 = atoi(TokenVector[1].c_str());

  00a09	89 45 c4	 mov	 DWORD PTR _iVID1$1$[ebp], eax
; File C:\Program Files\Microsoft Visual Studio\2022\Community\VC\Tools\MSVC\14.44.35207\include\xstring

; 453  :         return _Myres > _Small_string_capacity;

  00a0c	83 79 14 0f	 cmp	 DWORD PTR [ecx+20], 15	; 0000000fH

; 445  :         if (_Large_mode_engaged()) {

  00a10	76 02		 jbe	 SHORT $LN622@ServerComm

; 446  :             _Result = _Unfancy(_Bx._Ptr);

  00a12	8b 09		 mov	 ecx, DWORD PTR [ecx]
$LN622@ServerComm:
; File D:\_m2work\Server Client TMP4\ClientVS22\source\UserInterface\PythonNetworkStreamCommand.cpp

; 437  : 		int iVID2 = atoi(TokenVector[2].c_str());

  00a14	51		 push	 ecx
  00a15	e8 00 00 00 00	 call	 __atoi64

; 438  : 
; 439  : 		IAbstractCharacterManager & rkChrMgr = IAbstractCharacterManager::GetSingleton();

  00a1a	8b 3d 00 00 00
	00		 mov	 edi, DWORD PTR ?ms_singleton@?$TAbstractSingleton@VIAbstractCharacterManager@@@@0PAVIAbstractCharacterManager@@A ; TAbstractSingleton<IAbstractCharacterManager>::ms_singleton
  00a20	83 c4 04	 add	 esp, 4

; 440  : 		CInstanceBase * pInstance1 = rkChrMgr.GetInstancePtr(iVID1);

  00a23	8b cf		 mov	 ecx, edi
  00a25	8b f0		 mov	 esi, eax
  00a27	8b 17		 mov	 edx, DWORD PTR [edi]
  00a29	ff 75 c4	 push	 DWORD PTR _iVID1$1$[ebp]
  00a2c	8b 52 08	 mov	 edx, DWORD PTR [edx+8]
  00a2f	ff d2		 call	 edx

; 441  : 		CInstanceBase * pInstance2 = rkChrMgr.GetInstancePtr(iVID2);

  00a31	8b 17		 mov	 edx, DWORD PTR [edi]
  00a33	8b cf		 mov	 ecx, edi
  00a35	56		 push	 esi
  00a36	89 45 c4	 mov	 DWORD PTR _pInstance1$1$[ebp], eax
  00a39	8b 52 08	 mov	 edx, DWORD PTR [edx+8]
  00a3c	ff d2		 call	 edx

; 442  : 		if (pInstance1 && pInstance2)

  00a3e	8b 4d c4	 mov	 ecx, DWORD PTR _pInstance1$1$[ebp]
  00a41	85 c9		 test	 ecx, ecx
  00a43	0f 84 37 07 00
	00		 je	 $LN1775@ServerComm
  00a49	85 c0		 test	 eax, eax
  00a4b	0f 84 2f 07 00
	00		 je	 $LN1775@ServerComm

; 443  : 			pInstance1->ActDualEmotion(*pInstance2, CRaceMotionData::NAME_FRENCH_KISS_START, CRaceMotionData::NAME_FRENCH_KISS_START);

  00a51	68 39 01 00 00	 push	 313			; 00000139H
  00a56	68 39 01 00 00	 push	 313			; 00000139H
  00a5b	50		 push	 eax
  00a5c	e8 00 00 00 00	 call	 ?ActDualEmotion@CInstanceBase@@QAEXAAV1@GG@Z ; CInstanceBase::ActDualEmotion

; 444  : 	}

  00a61	e9 1a 07 00 00	 jmp	 $LN1775@ServerComm
$LN78@ServerComm:

; 445  : 	else if (!strcmpi(szCmd, "kiss"))

  00a66	68 00 00 00 00	 push	 OFFSET ??_C@_04MDLEAKAL@kiss@
  00a6b	56		 push	 esi
  00a6c	e8 00 00 00 00	 call	 __strcmpi
  00a71	83 c4 08	 add	 esp, 8
  00a74	85 c0		 test	 eax, eax
  00a76	75 7a		 jne	 SHORT $LN81@ServerComm
; File C:\Program Files\Microsoft Visual Studio\2022\Community\VC\Tools\MSVC\14.44.35207\include\vector

; 1934 :         return _My_data._Myfirst[_Pos];

  00a78	8b 45 b4	 mov	 eax, DWORD PTR _TokenVector$[ebp]
  00a7b	83 c0 18	 add	 eax, 24			; 00000018H
; File C:\Program Files\Microsoft Visual Studio\2022\Community\VC\Tools\MSVC\14.44.35207\include\xstring

; 453  :         return _Myres > _Small_string_capacity;

  00a7e	83 78 14 0f	 cmp	 DWORD PTR [eax+20], 15	; 0000000fH

; 445  :         if (_Large_mode_engaged()) {

  00a82	76 02		 jbe	 SHORT $LN635@ServerComm

; 446  :             _Result = _Unfancy(_Bx._Ptr);

  00a84	8b 00		 mov	 eax, DWORD PTR [eax]
$LN635@ServerComm:
; File D:\_m2work\Server Client TMP4\ClientVS22\source\UserInterface\PythonNetworkStreamCommand.cpp

; 447  : 		int iVID1 = atoi(TokenVector[1].c_str());

  00a86	50		 push	 eax
  00a87	e8 00 00 00 00	 call	 __atoi64
; File C:\Program Files\Microsoft Visual Studio\2022\Community\VC\Tools\MSVC\14.44.35207\include\vector

; 1934 :         return _My_data._Myfirst[_Pos];

  00a8c	8b 4d b4	 mov	 ecx, DWORD PTR _TokenVector$[ebp]
; File D:\_m2work\Server Client TMP4\ClientVS22\source\UserInterface\PythonNetworkStreamCommand.cpp

; 447  : 		int iVID1 = atoi(TokenVector[1].c_str());

  00a8f	83 c4 04	 add	 esp, 4
; File C:\Program Files\Microsoft Visual Studio\2022\Community\VC\Tools\MSVC\14.44.35207\include\vector

; 1934 :         return _My_data._Myfirst[_Pos];

  00a92	83 c1 30	 add	 ecx, 48			; 00000030H
; File D:\_m2work\Server Client TMP4\ClientVS22\source\UserInterface\PythonNetworkStreamCommand.cpp

; 447  : 		int iVID1 = atoi(TokenVector[1].c_str());

  00a95	89 45 c4	 mov	 DWORD PTR _iVID1$1$[ebp], eax
; File C:\Program Files\Microsoft Visual Studio\2022\Community\VC\Tools\MSVC\14.44.35207\include\xstring

; 453  :         return _Myres > _Small_string_capacity;

  00a98	83 79 14 0f	 cmp	 DWORD PTR [ecx+20], 15	; 0000000fH

; 445  :         if (_Large_mode_engaged()) {

  00a9c	76 02		 jbe	 SHORT $LN648@ServerComm

; 446  :             _Result = _Unfancy(_Bx._Ptr);

  00a9e	8b 09		 mov	 ecx, DWORD PTR [ecx]
$LN648@ServerComm:
; File D:\_m2work\Server Client TMP4\ClientVS22\source\UserInterface\PythonNetworkStreamCommand.cpp

; 448  : 		int iVID2 = atoi(TokenVector[2].c_str());

  00aa0	51		 push	 ecx
  00aa1	e8 00 00 00 00	 call	 __atoi64

; 449  : 
; 450  : 		IAbstractCharacterManager & rkChrMgr = IAbstractCharacterManager::GetSingleton();

  00aa6	8b 3d 00 00 00
	00		 mov	 edi, DWORD PTR ?ms_singleton@?$TAbstractSingleton@VIAbstractCharacterManager@@@@0PAVIAbstractCharacterManager@@A ; TAbstractSingleton<IAbstractCharacterManager>::ms_singleton
  00aac	83 c4 04	 add	 esp, 4

; 451  : 		CInstanceBase * pInstance1 = rkChrMgr.GetInstancePtr(iVID1);

  00aaf	8b cf		 mov	 ecx, edi
  00ab1	8b f0		 mov	 esi, eax
  00ab3	8b 17		 mov	 edx, DWORD PTR [edi]
  00ab5	ff 75 c4	 push	 DWORD PTR _iVID1$1$[ebp]
  00ab8	8b 52 08	 mov	 edx, DWORD PTR [edx+8]
  00abb	ff d2		 call	 edx

; 452  : 		CInstanceBase * pInstance2 = rkChrMgr.GetInstancePtr(iVID2);

  00abd	8b 17		 mov	 edx, DWORD PTR [edi]
  00abf	8b cf		 mov	 ecx, edi
  00ac1	56		 push	 esi
  00ac2	89 45 c4	 mov	 DWORD PTR _pInstance1$1$[ebp], eax
  00ac5	8b 52 08	 mov	 edx, DWORD PTR [edx+8]
  00ac8	ff d2		 call	 edx

; 453  : 		if (pInstance1 && pInstance2)

  00aca	8b 4d c4	 mov	 ecx, DWORD PTR _pInstance1$1$[ebp]
  00acd	85 c9		 test	 ecx, ecx
  00acf	0f 84 ab 06 00
	00		 je	 $LN1775@ServerComm
  00ad5	85 c0		 test	 eax, eax
  00ad7	0f 84 a3 06 00
	00		 je	 $LN1775@ServerComm

; 454  : 			pInstance1->ActDualEmotion(*pInstance2, CRaceMotionData::NAME_KISS_START, CRaceMotionData::NAME_KISS_START);

  00add	68 35 01 00 00	 push	 309			; 00000135H
  00ae2	68 35 01 00 00	 push	 309			; 00000135H
  00ae7	50		 push	 eax
  00ae8	e8 00 00 00 00	 call	 ?ActDualEmotion@CInstanceBase@@QAEXAAV1@GG@Z ; CInstanceBase::ActDualEmotion

; 455  : 	}

  00aed	e9 8e 06 00 00	 jmp	 $LN1775@ServerComm
$LN81@ServerComm:

; 456  : 	else if (!strcmpi(szCmd, "slap"))

  00af2	68 00 00 00 00	 push	 OFFSET ??_C@_04JAHFACKH@slap@
  00af7	56		 push	 esi
  00af8	e8 00 00 00 00	 call	 __strcmpi
  00afd	83 c4 08	 add	 esp, 8
  00b00	85 c0		 test	 eax, eax
  00b02	75 7a		 jne	 SHORT $LN84@ServerComm
; File C:\Program Files\Microsoft Visual Studio\2022\Community\VC\Tools\MSVC\14.44.35207\include\vector

; 1934 :         return _My_data._Myfirst[_Pos];

  00b04	8b 45 b4	 mov	 eax, DWORD PTR _TokenVector$[ebp]
  00b07	83 c0 18	 add	 eax, 24			; 00000018H
; File C:\Program Files\Microsoft Visual Studio\2022\Community\VC\Tools\MSVC\14.44.35207\include\xstring

; 453  :         return _Myres > _Small_string_capacity;

  00b0a	83 78 14 0f	 cmp	 DWORD PTR [eax+20], 15	; 0000000fH

; 445  :         if (_Large_mode_engaged()) {

  00b0e	76 02		 jbe	 SHORT $LN674@ServerComm

; 446  :             _Result = _Unfancy(_Bx._Ptr);

  00b10	8b 00		 mov	 eax, DWORD PTR [eax]
$LN674@ServerComm:
; File D:\_m2work\Server Client TMP4\ClientVS22\source\UserInterface\PythonNetworkStreamCommand.cpp

; 458  : 		int iVID1 = atoi(TokenVector[1].c_str());

  00b12	50		 push	 eax
  00b13	e8 00 00 00 00	 call	 __atoi64
; File C:\Program Files\Microsoft Visual Studio\2022\Community\VC\Tools\MSVC\14.44.35207\include\vector

; 1934 :         return _My_data._Myfirst[_Pos];

  00b18	8b 4d b4	 mov	 ecx, DWORD PTR _TokenVector$[ebp]
; File D:\_m2work\Server Client TMP4\ClientVS22\source\UserInterface\PythonNetworkStreamCommand.cpp

; 458  : 		int iVID1 = atoi(TokenVector[1].c_str());

  00b1b	83 c4 04	 add	 esp, 4
; File C:\Program Files\Microsoft Visual Studio\2022\Community\VC\Tools\MSVC\14.44.35207\include\vector

; 1934 :         return _My_data._Myfirst[_Pos];

  00b1e	83 c1 30	 add	 ecx, 48			; 00000030H
; File D:\_m2work\Server Client TMP4\ClientVS22\source\UserInterface\PythonNetworkStreamCommand.cpp

; 458  : 		int iVID1 = atoi(TokenVector[1].c_str());

  00b21	89 45 c4	 mov	 DWORD PTR _iVID1$1$[ebp], eax
; File C:\Program Files\Microsoft Visual Studio\2022\Community\VC\Tools\MSVC\14.44.35207\include\xstring

; 453  :         return _Myres > _Small_string_capacity;

  00b24	83 79 14 0f	 cmp	 DWORD PTR [ecx+20], 15	; 0000000fH

; 445  :         if (_Large_mode_engaged()) {

  00b28	76 02		 jbe	 SHORT $LN664@ServerComm

; 446  :             _Result = _Unfancy(_Bx._Ptr);

  00b2a	8b 09		 mov	 ecx, DWORD PTR [ecx]
$LN664@ServerComm:
; File D:\_m2work\Server Client TMP4\ClientVS22\source\UserInterface\PythonNetworkStreamCommand.cpp

; 459  : 		int iVID2 = atoi(TokenVector[2].c_str());

  00b2c	51		 push	 ecx
  00b2d	e8 00 00 00 00	 call	 __atoi64

; 460  : 
; 461  : 		IAbstractCharacterManager & rkChrMgr = IAbstractCharacterManager::GetSingleton();

  00b32	8b 3d 00 00 00
	00		 mov	 edi, DWORD PTR ?ms_singleton@?$TAbstractSingleton@VIAbstractCharacterManager@@@@0PAVIAbstractCharacterManager@@A ; TAbstractSingleton<IAbstractCharacterManager>::ms_singleton
  00b38	83 c4 04	 add	 esp, 4

; 462  : 		CInstanceBase * pInstance1 = rkChrMgr.GetInstancePtr(iVID1);

  00b3b	8b cf		 mov	 ecx, edi
  00b3d	8b f0		 mov	 esi, eax
  00b3f	8b 17		 mov	 edx, DWORD PTR [edi]
  00b41	ff 75 c4	 push	 DWORD PTR _iVID1$1$[ebp]
  00b44	8b 52 08	 mov	 edx, DWORD PTR [edx+8]
  00b47	ff d2		 call	 edx

; 463  : 		CInstanceBase * pInstance2 = rkChrMgr.GetInstancePtr(iVID2);

  00b49	8b 17		 mov	 edx, DWORD PTR [edi]
  00b4b	8b cf		 mov	 ecx, edi
  00b4d	56		 push	 esi
  00b4e	89 45 c4	 mov	 DWORD PTR _pInstance1$1$[ebp], eax
  00b51	8b 52 08	 mov	 edx, DWORD PTR [edx+8]
  00b54	ff d2		 call	 edx

; 464  : 		if (pInstance1 && pInstance2)

  00b56	8b 4d c4	 mov	 ecx, DWORD PTR _pInstance1$1$[ebp]
  00b59	85 c9		 test	 ecx, ecx
  00b5b	0f 84 1f 06 00
	00		 je	 $LN1775@ServerComm
  00b61	85 c0		 test	 eax, eax
  00b63	0f 84 17 06 00
	00		 je	 $LN1775@ServerComm

; 465  : 			pInstance1->ActDualEmotion(*pInstance2, CRaceMotionData::NAME_SLAP_HURT_START, CRaceMotionData::NAME_SLAP_HIT_START);

  00b69	68 3d 01 00 00	 push	 317			; 0000013dH
  00b6e	68 41 01 00 00	 push	 321			; 00000141H
  00b73	50		 push	 eax
  00b74	e8 00 00 00 00	 call	 ?ActDualEmotion@CInstanceBase@@QAEXAAV1@GG@Z ; CInstanceBase::ActDualEmotion

; 466  : 	}

  00b79	e9 02 06 00 00	 jmp	 $LN1775@ServerComm
$LN84@ServerComm:

; 467  : 	else if (!strcmpi(szCmd, "clap"))

  00b7e	68 00 00 00 00	 push	 OFFSET ??_C@_04PAJFJFCF@clap@
  00b83	56		 push	 esi
  00b84	e8 00 00 00 00	 call	 __strcmpi
  00b89	83 c4 08	 add	 esp, 8
  00b8c	85 c0		 test	 eax, eax
  00b8e	75 37		 jne	 SHORT $LN87@ServerComm
; File C:\Program Files\Microsoft Visual Studio\2022\Community\VC\Tools\MSVC\14.44.35207\include\vector

; 1934 :         return _My_data._Myfirst[_Pos];

  00b90	8b 45 b4	 mov	 eax, DWORD PTR _TokenVector$[ebp]
  00b93	83 c0 18	 add	 eax, 24			; 00000018H
; File C:\Program Files\Microsoft Visual Studio\2022\Community\VC\Tools\MSVC\14.44.35207\include\xstring

; 453  :         return _Myres > _Small_string_capacity;

  00b96	83 78 14 0f	 cmp	 DWORD PTR [eax+20], 15	; 0000000fH

; 445  :         if (_Large_mode_engaged()) {

  00b9a	76 02		 jbe	 SHORT $LN687@ServerComm

; 446  :             _Result = _Unfancy(_Bx._Ptr);

  00b9c	8b 00		 mov	 eax, DWORD PTR [eax]
$LN687@ServerComm:
; File D:\_m2work\Server Client TMP4\ClientVS22\source\UserInterface\PythonNetworkStreamCommand.cpp

; 469  : 		int iVID = atoi(TokenVector[1].c_str());

  00b9e	50		 push	 eax
  00b9f	e8 00 00 00 00	 call	 __atoi64

; 470  : 		IAbstractCharacterManager & rkChrMgr = IAbstractCharacterManager::GetSingleton();

  00ba4	8b 0d 00 00 00
	00		 mov	 ecx, DWORD PTR ?ms_singleton@?$TAbstractSingleton@VIAbstractCharacterManager@@@@0PAVIAbstractCharacterManager@@A ; TAbstractSingleton<IAbstractCharacterManager>::ms_singleton
  00baa	83 c4 04	 add	 esp, 4

; 471  : 		CInstanceBase * pInstance = rkChrMgr.GetInstancePtr(iVID);

  00bad	8b 11		 mov	 edx, DWORD PTR [ecx]
  00baf	50		 push	 eax
  00bb0	8b 52 08	 mov	 edx, DWORD PTR [edx+8]
  00bb3	ff d2		 call	 edx

; 472  : 		if (pInstance)

  00bb5	85 c0		 test	 eax, eax
  00bb7	0f 84 c3 05 00
	00		 je	 $LN1775@ServerComm

; 473  : 			pInstance->ActEmotion(CRaceMotionData::NAME_CLAP);

  00bbd	68 32 01 00 00	 push	 306			; 00000132H

; 474  : 	}

  00bc2	e9 b2 05 00 00	 jmp	 $LN1781@ServerComm
$LN87@ServerComm:

; 475  : 	else if (!strcmpi(szCmd, "cheer1"))

  00bc7	68 00 00 00 00	 push	 OFFSET ??_C@_06PAGILPEO@cheer1@
  00bcc	56		 push	 esi
  00bcd	e8 00 00 00 00	 call	 __strcmpi
  00bd2	83 c4 08	 add	 esp, 8
  00bd5	85 c0		 test	 eax, eax
  00bd7	75 37		 jne	 SHORT $LN90@ServerComm
; File C:\Program Files\Microsoft Visual Studio\2022\Community\VC\Tools\MSVC\14.44.35207\include\vector

; 1934 :         return _My_data._Myfirst[_Pos];

  00bd9	8b 45 b4	 mov	 eax, DWORD PTR _TokenVector$[ebp]
  00bdc	83 c0 18	 add	 eax, 24			; 00000018H
; File C:\Program Files\Microsoft Visual Studio\2022\Community\VC\Tools\MSVC\14.44.35207\include\xstring

; 453  :         return _Myres > _Small_string_capacity;

  00bdf	83 78 14 0f	 cmp	 DWORD PTR [eax+20], 15	; 0000000fH

; 445  :         if (_Large_mode_engaged()) {

  00be3	76 02		 jbe	 SHORT $LN697@ServerComm

; 446  :             _Result = _Unfancy(_Bx._Ptr);

  00be5	8b 00		 mov	 eax, DWORD PTR [eax]
$LN697@ServerComm:
; File D:\_m2work\Server Client TMP4\ClientVS22\source\UserInterface\PythonNetworkStreamCommand.cpp

; 477  : 		int iVID = atoi(TokenVector[1].c_str());

  00be7	50		 push	 eax
  00be8	e8 00 00 00 00	 call	 __atoi64

; 478  : 		IAbstractCharacterManager & rkChrMgr = IAbstractCharacterManager::GetSingleton();

  00bed	8b 0d 00 00 00
	00		 mov	 ecx, DWORD PTR ?ms_singleton@?$TAbstractSingleton@VIAbstractCharacterManager@@@@0PAVIAbstractCharacterManager@@A ; TAbstractSingleton<IAbstractCharacterManager>::ms_singleton
  00bf3	83 c4 04	 add	 esp, 4

; 479  : 		CInstanceBase * pInstance = rkChrMgr.GetInstancePtr(iVID);

  00bf6	8b 11		 mov	 edx, DWORD PTR [ecx]
  00bf8	50		 push	 eax
  00bf9	8b 52 08	 mov	 edx, DWORD PTR [edx+8]
  00bfc	ff d2		 call	 edx

; 480  : 		if (pInstance)

  00bfe	85 c0		 test	 eax, eax
  00c00	0f 84 7a 05 00
	00		 je	 $LN1775@ServerComm

; 481  : 			pInstance->ActEmotion(CRaceMotionData::NAME_CHEERS_1);

  00c06	68 33 01 00 00	 push	 307			; 00000133H

; 482  : 	}

  00c0b	e9 69 05 00 00	 jmp	 $LN1781@ServerComm
$LN90@ServerComm:

; 483  : 	else if (!strcmpi(szCmd, "cheer2"))

  00c10	68 00 00 00 00	 push	 OFFSET ??_C@_06NLEFOMIN@cheer2@
  00c15	56		 push	 esi
  00c16	e8 00 00 00 00	 call	 __strcmpi
  00c1b	83 c4 08	 add	 esp, 8
  00c1e	85 c0		 test	 eax, eax
  00c20	75 37		 jne	 SHORT $LN93@ServerComm
; File C:\Program Files\Microsoft Visual Studio\2022\Community\VC\Tools\MSVC\14.44.35207\include\vector

; 1934 :         return _My_data._Myfirst[_Pos];

  00c22	8b 45 b4	 mov	 eax, DWORD PTR _TokenVector$[ebp]
  00c25	83 c0 18	 add	 eax, 24			; 00000018H
; File C:\Program Files\Microsoft Visual Studio\2022\Community\VC\Tools\MSVC\14.44.35207\include\xstring

; 453  :         return _Myres > _Small_string_capacity;

  00c28	83 78 14 0f	 cmp	 DWORD PTR [eax+20], 15	; 0000000fH

; 445  :         if (_Large_mode_engaged()) {

  00c2c	76 02		 jbe	 SHORT $LN713@ServerComm

; 446  :             _Result = _Unfancy(_Bx._Ptr);

  00c2e	8b 00		 mov	 eax, DWORD PTR [eax]
$LN713@ServerComm:
; File D:\_m2work\Server Client TMP4\ClientVS22\source\UserInterface\PythonNetworkStreamCommand.cpp

; 485  : 		int iVID = atoi(TokenVector[1].c_str());

  00c30	50		 push	 eax
  00c31	e8 00 00 00 00	 call	 __atoi64

; 486  : 		IAbstractCharacterManager & rkChrMgr = IAbstractCharacterManager::GetSingleton();

  00c36	8b 0d 00 00 00
	00		 mov	 ecx, DWORD PTR ?ms_singleton@?$TAbstractSingleton@VIAbstractCharacterManager@@@@0PAVIAbstractCharacterManager@@A ; TAbstractSingleton<IAbstractCharacterManager>::ms_singleton
  00c3c	83 c4 04	 add	 esp, 4

; 487  : 		CInstanceBase * pInstance = rkChrMgr.GetInstancePtr(iVID);

  00c3f	8b 11		 mov	 edx, DWORD PTR [ecx]
  00c41	50		 push	 eax
  00c42	8b 52 08	 mov	 edx, DWORD PTR [edx+8]
  00c45	ff d2		 call	 edx

; 488  : 		if (pInstance)

  00c47	85 c0		 test	 eax, eax
  00c49	0f 84 31 05 00
	00		 je	 $LN1775@ServerComm

; 489  : 			pInstance->ActEmotion(CRaceMotionData::NAME_CHEERS_2);

  00c4f	68 34 01 00 00	 push	 308			; 00000134H

; 490  : 	}

  00c54	e9 20 05 00 00	 jmp	 $LN1781@ServerComm
$LN93@ServerComm:

; 491  : 	else if (!strcmpi(szCmd, "dance1"))

  00c59	68 00 00 00 00	 push	 OFFSET ??_C@_06FJBCALDA@dance1@
  00c5e	56		 push	 esi
  00c5f	e8 00 00 00 00	 call	 __strcmpi
  00c64	83 c4 08	 add	 esp, 8
  00c67	85 c0		 test	 eax, eax
  00c69	75 37		 jne	 SHORT $LN96@ServerComm
; File C:\Program Files\Microsoft Visual Studio\2022\Community\VC\Tools\MSVC\14.44.35207\include\vector

; 1934 :         return _My_data._Myfirst[_Pos];

  00c6b	8b 45 b4	 mov	 eax, DWORD PTR _TokenVector$[ebp]
  00c6e	83 c0 18	 add	 eax, 24			; 00000018H
; File C:\Program Files\Microsoft Visual Studio\2022\Community\VC\Tools\MSVC\14.44.35207\include\xstring

; 453  :         return _Myres > _Small_string_capacity;

  00c71	83 78 14 0f	 cmp	 DWORD PTR [eax+20], 15	; 0000000fH

; 445  :         if (_Large_mode_engaged()) {

  00c75	76 02		 jbe	 SHORT $LN726@ServerComm

; 446  :             _Result = _Unfancy(_Bx._Ptr);

  00c77	8b 00		 mov	 eax, DWORD PTR [eax]
$LN726@ServerComm:
; File D:\_m2work\Server Client TMP4\ClientVS22\source\UserInterface\PythonNetworkStreamCommand.cpp

; 493  : 		int iVID = atoi(TokenVector[1].c_str());

  00c79	50		 push	 eax
  00c7a	e8 00 00 00 00	 call	 __atoi64

; 494  : 		IAbstractCharacterManager & rkChrMgr = IAbstractCharacterManager::GetSingleton();

  00c7f	8b 0d 00 00 00
	00		 mov	 ecx, DWORD PTR ?ms_singleton@?$TAbstractSingleton@VIAbstractCharacterManager@@@@0PAVIAbstractCharacterManager@@A ; TAbstractSingleton<IAbstractCharacterManager>::ms_singleton
  00c85	83 c4 04	 add	 esp, 4

; 495  : 		CInstanceBase * pInstance = rkChrMgr.GetInstancePtr(iVID);

  00c88	8b 11		 mov	 edx, DWORD PTR [ecx]
  00c8a	50		 push	 eax
  00c8b	8b 52 08	 mov	 edx, DWORD PTR [edx+8]
  00c8e	ff d2		 call	 edx

; 496  : 		if (pInstance)

  00c90	85 c0		 test	 eax, eax
  00c92	0f 84 e8 04 00
	00		 je	 $LN1775@ServerComm

; 497  : 			pInstance->ActEmotion(CRaceMotionData::NAME_DANCE_1);

  00c98	68 46 01 00 00	 push	 326			; 00000146H

; 498  : 	}

  00c9d	e9 d7 04 00 00	 jmp	 $LN1781@ServerComm
$LN96@ServerComm:

; 499  : 	else if (!strcmpi(szCmd, "dance2"))

  00ca2	68 00 00 00 00	 push	 OFFSET ??_C@_06HCDPFIPD@dance2@
  00ca7	56		 push	 esi
  00ca8	e8 00 00 00 00	 call	 __strcmpi
  00cad	83 c4 08	 add	 esp, 8
  00cb0	85 c0		 test	 eax, eax
  00cb2	75 37		 jne	 SHORT $LN99@ServerComm
; File C:\Program Files\Microsoft Visual Studio\2022\Community\VC\Tools\MSVC\14.44.35207\include\vector

; 1934 :         return _My_data._Myfirst[_Pos];

  00cb4	8b 45 b4	 mov	 eax, DWORD PTR _TokenVector$[ebp]
  00cb7	83 c0 18	 add	 eax, 24			; 00000018H
; File C:\Program Files\Microsoft Visual Studio\2022\Community\VC\Tools\MSVC\14.44.35207\include\xstring

; 453  :         return _Myres > _Small_string_capacity;

  00cba	83 78 14 0f	 cmp	 DWORD PTR [eax+20], 15	; 0000000fH

; 445  :         if (_Large_mode_engaged()) {

  00cbe	76 02		 jbe	 SHORT $LN736@ServerComm

; 446  :             _Result = _Unfancy(_Bx._Ptr);

  00cc0	8b 00		 mov	 eax, DWORD PTR [eax]
$LN736@ServerComm:
; File D:\_m2work\Server Client TMP4\ClientVS22\source\UserInterface\PythonNetworkStreamCommand.cpp

; 501  : 		int iVID = atoi(TokenVector[1].c_str());

  00cc2	50		 push	 eax
  00cc3	e8 00 00 00 00	 call	 __atoi64

; 502  : 		IAbstractCharacterManager & rkChrMgr = IAbstractCharacterManager::GetSingleton();

  00cc8	8b 0d 00 00 00
	00		 mov	 ecx, DWORD PTR ?ms_singleton@?$TAbstractSingleton@VIAbstractCharacterManager@@@@0PAVIAbstractCharacterManager@@A ; TAbstractSingleton<IAbstractCharacterManager>::ms_singleton
  00cce	83 c4 04	 add	 esp, 4

; 503  : 		CInstanceBase * pInstance = rkChrMgr.GetInstancePtr(iVID);

  00cd1	8b 11		 mov	 edx, DWORD PTR [ecx]
  00cd3	50		 push	 eax
  00cd4	8b 52 08	 mov	 edx, DWORD PTR [edx+8]
  00cd7	ff d2		 call	 edx

; 504  : 		if (pInstance)

  00cd9	85 c0		 test	 eax, eax
  00cdb	0f 84 9f 04 00
	00		 je	 $LN1775@ServerComm

; 505  : 			pInstance->ActEmotion(CRaceMotionData::NAME_DANCE_2);

  00ce1	68 47 01 00 00	 push	 327			; 00000147H

; 506  : 	}

  00ce6	e9 8e 04 00 00	 jmp	 $LN1781@ServerComm
$LN99@ServerComm:

; 507  : 	else if (!strcmpi(szCmd, "dig_motion"))

  00ceb	68 00 00 00 00	 push	 OFFSET ??_C@_0L@MMJCNAM@dig_motion@
  00cf0	56		 push	 esi
  00cf1	e8 00 00 00 00	 call	 __strcmpi
  00cf6	83 c4 08	 add	 esp, 8
  00cf9	85 c0		 test	 eax, eax
  00cfb	75 37		 jne	 SHORT $LN102@ServerComm
; File C:\Program Files\Microsoft Visual Studio\2022\Community\VC\Tools\MSVC\14.44.35207\include\vector

; 1934 :         return _My_data._Myfirst[_Pos];

  00cfd	8b 45 b4	 mov	 eax, DWORD PTR _TokenVector$[ebp]
  00d00	83 c0 18	 add	 eax, 24			; 00000018H
; File C:\Program Files\Microsoft Visual Studio\2022\Community\VC\Tools\MSVC\14.44.35207\include\xstring

; 453  :         return _Myres > _Small_string_capacity;

  00d03	83 78 14 0f	 cmp	 DWORD PTR [eax+20], 15	; 0000000fH

; 445  :         if (_Large_mode_engaged()) {

  00d07	76 02		 jbe	 SHORT $LN1130@ServerComm

; 446  :             _Result = _Unfancy(_Bx._Ptr);

  00d09	8b 00		 mov	 eax, DWORD PTR [eax]
$LN1130@ServerComm:
; File D:\_m2work\Server Client TMP4\ClientVS22\source\UserInterface\PythonNetworkStreamCommand.cpp

; 509  : 		int iVID = atoi(TokenVector[1].c_str());

  00d0b	50		 push	 eax
  00d0c	e8 00 00 00 00	 call	 __atoi64

; 510  : 		IAbstractCharacterManager & rkChrMgr = IAbstractCharacterManager::GetSingleton();

  00d11	8b 0d 00 00 00
	00		 mov	 ecx, DWORD PTR ?ms_singleton@?$TAbstractSingleton@VIAbstractCharacterManager@@@@0PAVIAbstractCharacterManager@@A ; TAbstractSingleton<IAbstractCharacterManager>::ms_singleton
  00d17	83 c4 04	 add	 esp, 4

; 511  : 		CInstanceBase * pInstance = rkChrMgr.GetInstancePtr(iVID);

  00d1a	8b 11		 mov	 edx, DWORD PTR [ecx]
  00d1c	50		 push	 eax
  00d1d	8b 52 08	 mov	 edx, DWORD PTR [edx+8]
  00d20	ff d2		 call	 edx

; 512  : 		if (pInstance)

  00d22	85 c0		 test	 eax, eax
  00d24	0f 84 56 04 00
	00		 je	 $LN1775@ServerComm

; 513  : 			pInstance->ActEmotion(CRaceMotionData::NAME_DIG);

  00d2a	68 45 01 00 00	 push	 325			; 00000145H

; 514  : 	}

  00d2f	e9 45 04 00 00	 jmp	 $LN1781@ServerComm
$LN102@ServerComm:

; 515  : 	// Emotion End
; 516  : 	else
; 517  : 	{
; 518  : 		static std::map<std::string, int> s_emotionDict;

  00d34	64 a1 00 00 00
	00		 mov	 eax, DWORD PTR fs:__tls_array
  00d3a	8b 08		 mov	 ecx, DWORD PTR [eax]
  00d3c	a1 00 00 00 00	 mov	 eax, DWORD PTR ?$TSS0@?NE@??ServerCommand@CPythonNetworkStream@@QAEXPAD@Z@4HA
  00d41	3b 81 00 00 00
	00		 cmp	 eax, DWORD PTR __Init_thread_epoch[ecx]
  00d47	0f 8f ac 04 00
	00		 jg	 $LN1787@ServerComm
$LN4@ServerComm:

; 519  : 
; 520  : 		static bool s_isFirst = true;
; 521  : 		if (s_isFirst)

  00d4d	80 3d 00 00 00
	00 00		 cmp	 BYTE PTR ?s_isFirst@?NE@??ServerCommand@CPythonNetworkStream@@QAEXPAD@Z@4_NA, 0
  00d54	0f 84 b1 03 00
	00		 je	 $LN1618@ServerComm
; File C:\Program Files\Microsoft Visual Studio\2022\Community\VC\Tools\MSVC\14.44.35207\include\__msvc_string_view.hpp

; 121  :         _CSTD memcpy(_First1, _First2, _Count * sizeof(_Elem));

  00d5a	a1 00 00 00 00	 mov	 eax, DWORD PTR ??_C@_06GLCEGJLC@dance3@
  00d5f	0f 57 c0	 xorps	 xmm0, xmm0
; File C:\Program Files\Microsoft Visual Studio\2022\Community\VC\Tools\MSVC\14.44.35207\include\xstring

; 493  :         _CONSTEXPR20 _Bxty() noexcept : _Buf() {} // user-provided, for fancy pointers

  00d62	0f 11 45 d4	 movups	 XMMWORD PTR $T8[ebp], xmm0
; File C:\Program Files\Microsoft Visual Studio\2022\Community\VC\Tools\MSVC\14.44.35207\include\__msvc_string_view.hpp

; 121  :         _CSTD memcpy(_First1, _First2, _Count * sizeof(_Elem));

  00d66	89 45 d4	 mov	 DWORD PTR $T8[ebp], eax
  00d69	66 a1 04 00 00
	00		 mov	 ax, WORD PTR ??_C@_06GLCEGJLC@dance3@+4
; File D:\_m2work\Server Client TMP4\ClientVS22\source\UserInterface\PythonNetworkStreamCommand.cpp

; 523  : 			s_isFirst = false;

  00d6f	c6 05 00 00 00
	00 00		 mov	 BYTE PTR ?s_isFirst@?NE@??ServerCommand@CPythonNetworkStream@@QAEXPAD@Z@4_NA, 0
; File C:\Program Files\Microsoft Visual Studio\2022\Community\VC\Tools\MSVC\14.44.35207\include\xstring

; 890  :             _My_data._Mysize = _Count;

  00d76	c7 45 e4 06 00
	00 00		 mov	 DWORD PTR $T8[ebp+16], 6

; 891  :             _My_data._Myres  = _Small_string_capacity;

  00d7d	c7 45 e8 0f 00
	00 00		 mov	 DWORD PTR $T8[ebp+20], 15 ; 0000000fH
; File C:\Program Files\Microsoft Visual Studio\2022\Community\VC\Tools\MSVC\14.44.35207\include\__msvc_string_view.hpp

; 121  :         _CSTD memcpy(_First1, _First2, _Count * sizeof(_Elem));

  00d84	66 89 45 d8	 mov	 WORD PTR $T8[ebp+4], ax
; File C:\Program Files\Microsoft Visual Studio\2022\Community\VC\Tools\MSVC\14.44.35207\include\xstring

; 898  :                 _Traits::assign(_My_data._Bx._Buf[_Count], _Elem());

  00d88	c6 45 da 00	 mov	 BYTE PTR $T8[ebp+6], 0
; File D:\_m2work\Server Client TMP4\ClientVS22\source\UserInterface\PythonNetworkStreamCommand.cpp

; 525  : 			s_emotionDict["dance3"] = CRaceMotionData::NAME_DANCE_3;

  00d8c	8d 45 d4	 lea	 eax, DWORD PTR $T8[ebp]
  00d8f	c6 45 fc 03	 mov	 BYTE PTR __$EHRec$[ebp+8], 3
  00d93	50		 push	 eax
  00d94	b9 00 00 00 00	 mov	 ecx, OFFSET ?s_emotionDict@?NE@??ServerCommand@CPythonNetworkStream@@QAEXPAD@Z@4V?$map@V?$basic_string@DU?$char_traits@D@std@@V?$allocator@D@2@@std@@HU?$less@V?$basic_string@DU?$char_traits@D@std@@V?$allocator@D@2@@std@@@2@V?$allocator@U?$pair@$$CBV?$basic_string@DU?$char_traits@D@std@@V?$allocator@D@2@@std@@H@std@@@2@@std@@A
  00d99	e8 00 00 00 00	 call	 ??A?$map@V?$basic_string@DU?$char_traits@D@std@@V?$allocator@D@2@@std@@HU?$less@V?$basic_string@DU?$char_traits@D@std@@V?$allocator@D@2@@std@@@2@V?$allocator@U?$pair@$$CBV?$basic_string@DU?$char_traits@D@std@@V?$allocator@D@2@@std@@H@std@@@2@@std@@QAEAAH$$QAV?$basic_string@DU?$char_traits@D@std@@V?$allocator@D@2@@1@@Z ; std::map<std::basic_string<char,std::char_traits<char>,std::allocator<char> >,int,std::less<std::basic_string<char,std::char_traits<char>,std::allocator<char> > >,std::allocator<std::pair<std::basic_string<char,std::char_traits<char>,std::allocator<char> > const ,int> > >::operator[]
  00d9e	c7 00 48 01 00
	00		 mov	 DWORD PTR [eax], 328	; 00000148H
; File C:\Program Files\Microsoft Visual Studio\2022\Community\VC\Tools\MSVC\14.44.35207\include\xstring

; 453  :         return _Myres > _Small_string_capacity;

  00da4	8b 45 e8	 mov	 eax, DWORD PTR $T8[ebp+20]
  00da7	83 f8 0f	 cmp	 eax, 15			; 0000000fH

; 3083 :         if (_My_data._Large_mode_engaged()) {

  00daa	76 10		 jbe	 SHORT $LN1195@ServerComm

; 3084 :             _ASAN_STRING_REMOVE(*this);
; 3085 :             auto& _Al = _Getal();
; 3086 :             _Deallocate_for_capacity(_Al, _My_data._Bx._Ptr, _My_data._Myres);

  00dac	50		 push	 eax
  00dad	ff 75 d4	 push	 DWORD PTR $T8[ebp]
  00db0	8d 45 d4	 lea	 eax, DWORD PTR $T8[ebp]
  00db3	50		 push	 eax
  00db4	e8 00 00 00 00	 call	 ?_Deallocate_for_capacity@?$basic_string@DU?$char_traits@D@std@@V?$allocator@D@2@@std@@CAXAAV?$allocator@D@2@QADI@Z ; std::basic_string<char,std::char_traits<char>,std::allocator<char> >::_Deallocate_for_capacity
  00db9	83 c4 0c	 add	 esp, 12			; 0000000cH
$LN1195@ServerComm:
; File C:\Program Files\Microsoft Visual Studio\2022\Community\VC\Tools\MSVC\14.44.35207\include\__msvc_string_view.hpp

; 121  :         _CSTD memcpy(_First1, _First2, _Count * sizeof(_Elem));

  00dbc	a1 00 00 00 00	 mov	 eax, DWORD PTR ??_C@_06CEGFPPHF@dance4@
  00dc1	0f 57 c0	 xorps	 xmm0, xmm0
; File C:\Program Files\Microsoft Visual Studio\2022\Community\VC\Tools\MSVC\14.44.35207\include\xstring

; 493  :         _CONSTEXPR20 _Bxty() noexcept : _Buf() {} // user-provided, for fancy pointers

  00dc4	0f 11 45 d4	 movups	 XMMWORD PTR $T9[ebp], xmm0
; File C:\Program Files\Microsoft Visual Studio\2022\Community\VC\Tools\MSVC\14.44.35207\include\__msvc_string_view.hpp

; 121  :         _CSTD memcpy(_First1, _First2, _Count * sizeof(_Elem));

  00dc8	89 45 d4	 mov	 DWORD PTR $T9[ebp], eax
  00dcb	66 a1 04 00 00
	00		 mov	 ax, WORD PTR ??_C@_06CEGFPPHF@dance4@+4
; File C:\Program Files\Microsoft Visual Studio\2022\Community\VC\Tools\MSVC\14.44.35207\include\xstring

; 890  :             _My_data._Mysize = _Count;

  00dd1	c7 45 e4 06 00
	00 00		 mov	 DWORD PTR $T9[ebp+16], 6

; 891  :             _My_data._Myres  = _Small_string_capacity;

  00dd8	c7 45 e8 0f 00
	00 00		 mov	 DWORD PTR $T9[ebp+20], 15 ; 0000000fH
; File C:\Program Files\Microsoft Visual Studio\2022\Community\VC\Tools\MSVC\14.44.35207\include\__msvc_string_view.hpp

; 121  :         _CSTD memcpy(_First1, _First2, _Count * sizeof(_Elem));

  00ddf	66 89 45 d8	 mov	 WORD PTR $T9[ebp+4], ax
; File C:\Program Files\Microsoft Visual Studio\2022\Community\VC\Tools\MSVC\14.44.35207\include\xstring

; 898  :                 _Traits::assign(_My_data._Bx._Buf[_Count], _Elem());

  00de3	c6 45 da 00	 mov	 BYTE PTR $T9[ebp+6], 0
; File D:\_m2work\Server Client TMP4\ClientVS22\source\UserInterface\PythonNetworkStreamCommand.cpp

; 526  : 			s_emotionDict["dance4"] = CRaceMotionData::NAME_DANCE_4;

  00de7	8d 45 d4	 lea	 eax, DWORD PTR $T9[ebp]
  00dea	c6 45 fc 04	 mov	 BYTE PTR __$EHRec$[ebp+8], 4
  00dee	50		 push	 eax
  00def	b9 00 00 00 00	 mov	 ecx, OFFSET ?s_emotionDict@?NE@??ServerCommand@CPythonNetworkStream@@QAEXPAD@Z@4V?$map@V?$basic_string@DU?$char_traits@D@std@@V?$allocator@D@2@@std@@HU?$less@V?$basic_string@DU?$char_traits@D@std@@V?$allocator@D@2@@std@@@2@V?$allocator@U?$pair@$$CBV?$basic_string@DU?$char_traits@D@std@@V?$allocator@D@2@@std@@H@std@@@2@@std@@A
  00df4	e8 00 00 00 00	 call	 ??A?$map@V?$basic_string@DU?$char_traits@D@std@@V?$allocator@D@2@@std@@HU?$less@V?$basic_string@DU?$char_traits@D@std@@V?$allocator@D@2@@std@@@2@V?$allocator@U?$pair@$$CBV?$basic_string@DU?$char_traits@D@std@@V?$allocator@D@2@@std@@H@std@@@2@@std@@QAEAAH$$QAV?$basic_string@DU?$char_traits@D@std@@V?$allocator@D@2@@1@@Z ; std::map<std::basic_string<char,std::char_traits<char>,std::allocator<char> >,int,std::less<std::basic_string<char,std::char_traits<char>,std::allocator<char> > >,std::allocator<std::pair<std::basic_string<char,std::char_traits<char>,std::allocator<char> > const ,int> > >::operator[]
  00df9	c7 00 49 01 00
	00		 mov	 DWORD PTR [eax], 329	; 00000149H
; File C:\Program Files\Microsoft Visual Studio\2022\Community\VC\Tools\MSVC\14.44.35207\include\xstring

; 453  :         return _Myres > _Small_string_capacity;

  00dff	8b 45 e8	 mov	 eax, DWORD PTR $T9[ebp+20]
  00e02	83 f8 0f	 cmp	 eax, 15			; 0000000fH

; 3083 :         if (_My_data._Large_mode_engaged()) {

  00e05	76 10		 jbe	 SHORT $LN1259@ServerComm

; 3084 :             _ASAN_STRING_REMOVE(*this);
; 3085 :             auto& _Al = _Getal();
; 3086 :             _Deallocate_for_capacity(_Al, _My_data._Bx._Ptr, _My_data._Myres);

  00e07	50		 push	 eax
  00e08	ff 75 d4	 push	 DWORD PTR $T9[ebp]
  00e0b	8d 45 d4	 lea	 eax, DWORD PTR $T9[ebp]
  00e0e	50		 push	 eax
  00e0f	e8 00 00 00 00	 call	 ?_Deallocate_for_capacity@?$basic_string@DU?$char_traits@D@std@@V?$allocator@D@2@@std@@CAXAAV?$allocator@D@2@QADI@Z ; std::basic_string<char,std::char_traits<char>,std::allocator<char> >::_Deallocate_for_capacity
  00e14	83 c4 0c	 add	 esp, 12			; 0000000cH
$LN1259@ServerComm:
; File C:\Program Files\Microsoft Visual Studio\2022\Community\VC\Tools\MSVC\14.44.35207\include\__msvc_string_view.hpp

; 121  :         _CSTD memcpy(_First1, _First2, _Count * sizeof(_Elem));

  00e17	a1 00 00 00 00	 mov	 eax, DWORD PTR ??_C@_06DNHOMODE@dance5@
  00e1c	0f 57 c0	 xorps	 xmm0, xmm0
; File C:\Program Files\Microsoft Visual Studio\2022\Community\VC\Tools\MSVC\14.44.35207\include\xstring

; 493  :         _CONSTEXPR20 _Bxty() noexcept : _Buf() {} // user-provided, for fancy pointers

  00e1f	0f 11 45 d4	 movups	 XMMWORD PTR $T10[ebp], xmm0
; File C:\Program Files\Microsoft Visual Studio\2022\Community\VC\Tools\MSVC\14.44.35207\include\__msvc_string_view.hpp

; 121  :         _CSTD memcpy(_First1, _First2, _Count * sizeof(_Elem));

  00e23	89 45 d4	 mov	 DWORD PTR $T10[ebp], eax
  00e26	66 a1 04 00 00
	00		 mov	 ax, WORD PTR ??_C@_06DNHOMODE@dance5@+4
; File C:\Program Files\Microsoft Visual Studio\2022\Community\VC\Tools\MSVC\14.44.35207\include\xstring

; 890  :             _My_data._Mysize = _Count;

  00e2c	c7 45 e4 06 00
	00 00		 mov	 DWORD PTR $T10[ebp+16], 6

; 891  :             _My_data._Myres  = _Small_string_capacity;

  00e33	c7 45 e8 0f 00
	00 00		 mov	 DWORD PTR $T10[ebp+20], 15 ; 0000000fH
; File C:\Program Files\Microsoft Visual Studio\2022\Community\VC\Tools\MSVC\14.44.35207\include\__msvc_string_view.hpp

; 121  :         _CSTD memcpy(_First1, _First2, _Count * sizeof(_Elem));

  00e3a	66 89 45 d8	 mov	 WORD PTR $T10[ebp+4], ax
; File C:\Program Files\Microsoft Visual Studio\2022\Community\VC\Tools\MSVC\14.44.35207\include\xstring

; 898  :                 _Traits::assign(_My_data._Bx._Buf[_Count], _Elem());

  00e3e	c6 45 da 00	 mov	 BYTE PTR $T10[ebp+6], 0
; File D:\_m2work\Server Client TMP4\ClientVS22\source\UserInterface\PythonNetworkStreamCommand.cpp

; 527  : 			s_emotionDict["dance5"] = CRaceMotionData::NAME_DANCE_5;

  00e42	8d 45 d4	 lea	 eax, DWORD PTR $T10[ebp]
  00e45	c6 45 fc 05	 mov	 BYTE PTR __$EHRec$[ebp+8], 5
  00e49	50		 push	 eax
  00e4a	b9 00 00 00 00	 mov	 ecx, OFFSET ?s_emotionDict@?NE@??ServerCommand@CPythonNetworkStream@@QAEXPAD@Z@4V?$map@V?$basic_string@DU?$char_traits@D@std@@V?$allocator@D@2@@std@@HU?$less@V?$basic_string@DU?$char_traits@D@std@@V?$allocator@D@2@@std@@@2@V?$allocator@U?$pair@$$CBV?$basic_string@DU?$char_traits@D@std@@V?$allocator@D@2@@std@@H@std@@@2@@std@@A
  00e4f	e8 00 00 00 00	 call	 ??A?$map@V?$basic_string@DU?$char_traits@D@std@@V?$allocator@D@2@@std@@HU?$less@V?$basic_string@DU?$char_traits@D@std@@V?$allocator@D@2@@std@@@2@V?$allocator@U?$pair@$$CBV?$basic_string@DU?$char_traits@D@std@@V?$allocator@D@2@@std@@H@std@@@2@@std@@QAEAAH$$QAV?$basic_string@DU?$char_traits@D@std@@V?$allocator@D@2@@1@@Z ; std::map<std::basic_string<char,std::char_traits<char>,std::allocator<char> >,int,std::less<std::basic_string<char,std::char_traits<char>,std::allocator<char> > >,std::allocator<std::pair<std::basic_string<char,std::char_traits<char>,std::allocator<char> > const ,int> > >::operator[]
  00e54	c7 00 4a 01 00
	00		 mov	 DWORD PTR [eax], 330	; 0000014aH
; File C:\Program Files\Microsoft Visual Studio\2022\Community\VC\Tools\MSVC\14.44.35207\include\xstring

; 453  :         return _Myres > _Small_string_capacity;

  00e5a	8b 45 e8	 mov	 eax, DWORD PTR $T10[ebp+20]
  00e5d	83 f8 0f	 cmp	 eax, 15			; 0000000fH

; 3083 :         if (_My_data._Large_mode_engaged()) {

  00e60	76 10		 jbe	 SHORT $LN1323@ServerComm

; 3084 :             _ASAN_STRING_REMOVE(*this);
; 3085 :             auto& _Al = _Getal();
; 3086 :             _Deallocate_for_capacity(_Al, _My_data._Bx._Ptr, _My_data._Myres);

  00e62	50		 push	 eax
  00e63	ff 75 d4	 push	 DWORD PTR $T10[ebp]
  00e66	8d 45 d4	 lea	 eax, DWORD PTR $T10[ebp]
  00e69	50		 push	 eax
  00e6a	e8 00 00 00 00	 call	 ?_Deallocate_for_capacity@?$basic_string@DU?$char_traits@D@std@@V?$allocator@D@2@@std@@CAXAAV?$allocator@D@2@QADI@Z ; std::basic_string<char,std::char_traits<char>,std::allocator<char> >::_Deallocate_for_capacity
  00e6f	83 c4 0c	 add	 esp, 12			; 0000000cH
$LN1323@ServerComm:
; File C:\Program Files\Microsoft Visual Studio\2022\Community\VC\Tools\MSVC\14.44.35207\include\__msvc_string_view.hpp

; 121  :         _CSTD memcpy(_First1, _First2, _Count * sizeof(_Elem));

  00e72	a1 00 00 00 00	 mov	 eax, DWORD PTR ??_C@_06BGFDJNPH@dance6@
  00e77	0f 57 c0	 xorps	 xmm0, xmm0
; File C:\Program Files\Microsoft Visual Studio\2022\Community\VC\Tools\MSVC\14.44.35207\include\xstring

; 493  :         _CONSTEXPR20 _Bxty() noexcept : _Buf() {} // user-provided, for fancy pointers

  00e7a	0f 11 45 d4	 movups	 XMMWORD PTR $T11[ebp], xmm0
; File C:\Program Files\Microsoft Visual Studio\2022\Community\VC\Tools\MSVC\14.44.35207\include\__msvc_string_view.hpp

; 121  :         _CSTD memcpy(_First1, _First2, _Count * sizeof(_Elem));

  00e7e	89 45 d4	 mov	 DWORD PTR $T11[ebp], eax
  00e81	66 a1 04 00 00
	00		 mov	 ax, WORD PTR ??_C@_06BGFDJNPH@dance6@+4
; File C:\Program Files\Microsoft Visual Studio\2022\Community\VC\Tools\MSVC\14.44.35207\include\xstring

; 890  :             _My_data._Mysize = _Count;

  00e87	c7 45 e4 06 00
	00 00		 mov	 DWORD PTR $T11[ebp+16], 6

; 891  :             _My_data._Myres  = _Small_string_capacity;

  00e8e	c7 45 e8 0f 00
	00 00		 mov	 DWORD PTR $T11[ebp+20], 15 ; 0000000fH
; File C:\Program Files\Microsoft Visual Studio\2022\Community\VC\Tools\MSVC\14.44.35207\include\__msvc_string_view.hpp

; 121  :         _CSTD memcpy(_First1, _First2, _Count * sizeof(_Elem));

  00e95	66 89 45 d8	 mov	 WORD PTR $T11[ebp+4], ax
; File C:\Program Files\Microsoft Visual Studio\2022\Community\VC\Tools\MSVC\14.44.35207\include\xstring

; 898  :                 _Traits::assign(_My_data._Bx._Buf[_Count], _Elem());

  00e99	c6 45 da 00	 mov	 BYTE PTR $T11[ebp+6], 0
; File D:\_m2work\Server Client TMP4\ClientVS22\source\UserInterface\PythonNetworkStreamCommand.cpp

; 528  : 			s_emotionDict["dance6"] = CRaceMotionData::NAME_DANCE_6;

  00e9d	8d 45 d4	 lea	 eax, DWORD PTR $T11[ebp]
  00ea0	c6 45 fc 06	 mov	 BYTE PTR __$EHRec$[ebp+8], 6
  00ea4	50		 push	 eax
  00ea5	b9 00 00 00 00	 mov	 ecx, OFFSET ?s_emotionDict@?NE@??ServerCommand@CPythonNetworkStream@@QAEXPAD@Z@4V?$map@V?$basic_string@DU?$char_traits@D@std@@V?$allocator@D@2@@std@@HU?$less@V?$basic_string@DU?$char_traits@D@std@@V?$allocator@D@2@@std@@@2@V?$allocator@U?$pair@$$CBV?$basic_string@DU?$char_traits@D@std@@V?$allocator@D@2@@std@@H@std@@@2@@std@@A
  00eaa	e8 00 00 00 00	 call	 ??A?$map@V?$basic_string@DU?$char_traits@D@std@@V?$allocator@D@2@@std@@HU?$less@V?$basic_string@DU?$char_traits@D@std@@V?$allocator@D@2@@std@@@2@V?$allocator@U?$pair@$$CBV?$basic_string@DU?$char_traits@D@std@@V?$allocator@D@2@@std@@H@std@@@2@@std@@QAEAAH$$QAV?$basic_string@DU?$char_traits@D@std@@V?$allocator@D@2@@1@@Z ; std::map<std::basic_string<char,std::char_traits<char>,std::allocator<char> >,int,std::less<std::basic_string<char,std::char_traits<char>,std::allocator<char> > >,std::allocator<std::pair<std::basic_string<char,std::char_traits<char>,std::allocator<char> > const ,int> > >::operator[]
  00eaf	c7 00 4b 01 00
	00		 mov	 DWORD PTR [eax], 331	; 0000014bH
; File C:\Program Files\Microsoft Visual Studio\2022\Community\VC\Tools\MSVC\14.44.35207\include\xstring

; 453  :         return _Myres > _Small_string_capacity;

  00eb5	8b 45 e8	 mov	 eax, DWORD PTR $T11[ebp+20]
  00eb8	83 f8 0f	 cmp	 eax, 15			; 0000000fH

; 3083 :         if (_My_data._Large_mode_engaged()) {

  00ebb	76 10		 jbe	 SHORT $LN1387@ServerComm

; 3084 :             _ASAN_STRING_REMOVE(*this);
; 3085 :             auto& _Al = _Getal();
; 3086 :             _Deallocate_for_capacity(_Al, _My_data._Bx._Ptr, _My_data._Myres);

  00ebd	50		 push	 eax
  00ebe	ff 75 d4	 push	 DWORD PTR $T11[ebp]
  00ec1	8d 45 d4	 lea	 eax, DWORD PTR $T11[ebp]
  00ec4	50		 push	 eax
  00ec5	e8 00 00 00 00	 call	 ?_Deallocate_for_capacity@?$basic_string@DU?$char_traits@D@std@@V?$allocator@D@2@@std@@CAXAAV?$allocator@D@2@QADI@Z ; std::basic_string<char,std::char_traits<char>,std::allocator<char> >::_Deallocate_for_capacity
  00eca	83 c4 0c	 add	 esp, 12			; 0000000cH
$LN1387@ServerComm:
; File C:\Program Files\Microsoft Visual Studio\2022\Community\VC\Tools\MSVC\14.44.35207\include\__msvc_string_view.hpp

; 121  :         _CSTD memcpy(_First1, _First2, _Count * sizeof(_Elem));

  00ecd	a1 08 00 00 00	 mov	 eax, DWORD PTR ??_C@_0P@KFFKPMLJ@congratulation@+8
  00ed2	0f 57 c0	 xorps	 xmm0, xmm0
; File C:\Program Files\Microsoft Visual Studio\2022\Community\VC\Tools\MSVC\14.44.35207\include\xstring

; 493  :         _CONSTEXPR20 _Bxty() noexcept : _Buf() {} // user-provided, for fancy pointers

  00ed5	0f 11 45 d4	 movups	 XMMWORD PTR $T12[ebp], xmm0
; File C:\Program Files\Microsoft Visual Studio\2022\Community\VC\Tools\MSVC\14.44.35207\include\__msvc_string_view.hpp

; 121  :         _CSTD memcpy(_First1, _First2, _Count * sizeof(_Elem));

  00ed9	89 45 dc	 mov	 DWORD PTR $T12[ebp+8], eax
  00edc	f3 0f 7e 05 00
	00 00 00	 movq	 xmm0, QWORD PTR ??_C@_0P@KFFKPMLJ@congratulation@
  00ee4	66 a1 0c 00 00
	00		 mov	 ax, WORD PTR ??_C@_0P@KFFKPMLJ@congratulation@+12
; File C:\Program Files\Microsoft Visual Studio\2022\Community\VC\Tools\MSVC\14.44.35207\include\xstring

; 890  :             _My_data._Mysize = _Count;

  00eea	c7 45 e4 0e 00
	00 00		 mov	 DWORD PTR $T12[ebp+16], 14 ; 0000000eH

; 891  :             _My_data._Myres  = _Small_string_capacity;

  00ef1	c7 45 e8 0f 00
	00 00		 mov	 DWORD PTR $T12[ebp+20], 15 ; 0000000fH
; File C:\Program Files\Microsoft Visual Studio\2022\Community\VC\Tools\MSVC\14.44.35207\include\__msvc_string_view.hpp

; 121  :         _CSTD memcpy(_First1, _First2, _Count * sizeof(_Elem));

  00ef8	66 0f d6 45 d4	 movq	 QWORD PTR $T12[ebp], xmm0
  00efd	66 89 45 e0	 mov	 WORD PTR $T12[ebp+12], ax
; File C:\Program Files\Microsoft Visual Studio\2022\Community\VC\Tools\MSVC\14.44.35207\include\xstring

; 898  :                 _Traits::assign(_My_data._Bx._Buf[_Count], _Elem());

  00f01	c6 45 e2 00	 mov	 BYTE PTR $T12[ebp+14], 0
; File D:\_m2work\Server Client TMP4\ClientVS22\source\UserInterface\PythonNetworkStreamCommand.cpp

; 529  : 			s_emotionDict["congratulation"] = CRaceMotionData::NAME_CONGRATULATION;

  00f05	8d 45 d4	 lea	 eax, DWORD PTR $T12[ebp]
  00f08	c6 45 fc 07	 mov	 BYTE PTR __$EHRec$[ebp+8], 7
  00f0c	50		 push	 eax
  00f0d	b9 00 00 00 00	 mov	 ecx, OFFSET ?s_emotionDict@?NE@??ServerCommand@CPythonNetworkStream@@QAEXPAD@Z@4V?$map@V?$basic_string@DU?$char_traits@D@std@@V?$allocator@D@2@@std@@HU?$less@V?$basic_string@DU?$char_traits@D@std@@V?$allocator@D@2@@std@@@2@V?$allocator@U?$pair@$$CBV?$basic_string@DU?$char_traits@D@std@@V?$allocator@D@2@@std@@H@std@@@2@@std@@A
  00f12	e8 00 00 00 00	 call	 ??A?$map@V?$basic_string@DU?$char_traits@D@std@@V?$allocator@D@2@@std@@HU?$less@V?$basic_string@DU?$char_traits@D@std@@V?$allocator@D@2@@std@@@2@V?$allocator@U?$pair@$$CBV?$basic_string@DU?$char_traits@D@std@@V?$allocator@D@2@@std@@H@std@@@2@@std@@QAEAAH$$QAV?$basic_string@DU?$char_traits@D@std@@V?$allocator@D@2@@1@@Z ; std::map<std::basic_string<char,std::char_traits<char>,std::allocator<char> >,int,std::less<std::basic_string<char,std::char_traits<char>,std::allocator<char> > >,std::allocator<std::pair<std::basic_string<char,std::char_traits<char>,std::allocator<char> > const ,int> > >::operator[]
  00f17	c7 00 57 01 00
	00		 mov	 DWORD PTR [eax], 343	; 00000157H
; File C:\Program Files\Microsoft Visual Studio\2022\Community\VC\Tools\MSVC\14.44.35207\include\xstring

; 453  :         return _Myres > _Small_string_capacity;

  00f1d	8b 45 e8	 mov	 eax, DWORD PTR $T12[ebp+20]
  00f20	83 f8 0f	 cmp	 eax, 15			; 0000000fH

; 3083 :         if (_My_data._Large_mode_engaged()) {

  00f23	76 10		 jbe	 SHORT $LN1451@ServerComm

; 3084 :             _ASAN_STRING_REMOVE(*this);
; 3085 :             auto& _Al = _Getal();
; 3086 :             _Deallocate_for_capacity(_Al, _My_data._Bx._Ptr, _My_data._Myres);

  00f25	50		 push	 eax
  00f26	ff 75 d4	 push	 DWORD PTR $T12[ebp]
  00f29	8d 45 d4	 lea	 eax, DWORD PTR $T12[ebp]
  00f2c	50		 push	 eax
  00f2d	e8 00 00 00 00	 call	 ?_Deallocate_for_capacity@?$basic_string@DU?$char_traits@D@std@@V?$allocator@D@2@@std@@CAXAAV?$allocator@D@2@QADI@Z ; std::basic_string<char,std::char_traits<char>,std::allocator<char> >::_Deallocate_for_capacity
  00f32	83 c4 0c	 add	 esp, 12			; 0000000cH
$LN1451@ServerComm:
; File C:\Program Files\Microsoft Visual Studio\2022\Community\VC\Tools\MSVC\14.44.35207\include\__msvc_string_view.hpp

; 121  :         _CSTD memcpy(_First1, _First2, _Count * sizeof(_Elem));

  00f35	a1 00 00 00 00	 mov	 eax, DWORD PTR ??_C@_07JCIHIBLI@forgive@
  00f3a	0f 57 c0	 xorps	 xmm0, xmm0
; File C:\Program Files\Microsoft Visual Studio\2022\Community\VC\Tools\MSVC\14.44.35207\include\xstring

; 493  :         _CONSTEXPR20 _Bxty() noexcept : _Buf() {} // user-provided, for fancy pointers

  00f3d	0f 11 45 d4	 movups	 XMMWORD PTR $T13[ebp], xmm0
; File C:\Program Files\Microsoft Visual Studio\2022\Community\VC\Tools\MSVC\14.44.35207\include\__msvc_string_view.hpp

; 121  :         _CSTD memcpy(_First1, _First2, _Count * sizeof(_Elem));

  00f41	89 45 d4	 mov	 DWORD PTR $T13[ebp], eax
  00f44	66 a1 04 00 00
	00		 mov	 ax, WORD PTR ??_C@_07JCIHIBLI@forgive@+4
  00f4a	66 89 45 d8	 mov	 WORD PTR $T13[ebp+4], ax
  00f4e	a0 06 00 00 00	 mov	 al, BYTE PTR ??_C@_07JCIHIBLI@forgive@+6
; File C:\Program Files\Microsoft Visual Studio\2022\Community\VC\Tools\MSVC\14.44.35207\include\xstring

; 890  :             _My_data._Mysize = _Count;

  00f53	c7 45 e4 07 00
	00 00		 mov	 DWORD PTR $T13[ebp+16], 7

; 891  :             _My_data._Myres  = _Small_string_capacity;

  00f5a	c7 45 e8 0f 00
	00 00		 mov	 DWORD PTR $T13[ebp+20], 15 ; 0000000fH
; File C:\Program Files\Microsoft Visual Studio\2022\Community\VC\Tools\MSVC\14.44.35207\include\__msvc_string_view.hpp

; 121  :         _CSTD memcpy(_First1, _First2, _Count * sizeof(_Elem));

  00f61	88 45 da	 mov	 BYTE PTR $T13[ebp+6], al
; File C:\Program Files\Microsoft Visual Studio\2022\Community\VC\Tools\MSVC\14.44.35207\include\xstring

; 898  :                 _Traits::assign(_My_data._Bx._Buf[_Count], _Elem());

  00f64	c6 45 db 00	 mov	 BYTE PTR $T13[ebp+7], 0
; File D:\_m2work\Server Client TMP4\ClientVS22\source\UserInterface\PythonNetworkStreamCommand.cpp

; 530  : 			s_emotionDict["forgive"] = CRaceMotionData::NAME_FORGIVE;

  00f68	8d 45 d4	 lea	 eax, DWORD PTR $T13[ebp]
  00f6b	c6 45 fc 08	 mov	 BYTE PTR __$EHRec$[ebp+8], 8
  00f6f	50		 push	 eax
  00f70	b9 00 00 00 00	 mov	 ecx, OFFSET ?s_emotionDict@?NE@??ServerCommand@CPythonNetworkStream@@QAEXPAD@Z@4V?$map@V?$basic_string@DU?$char_traits@D@std@@V?$allocator@D@2@@std@@HU?$less@V?$basic_string@DU?$char_traits@D@std@@V?$allocator@D@2@@std@@@2@V?$allocator@U?$pair@$$CBV?$basic_string@DU?$char_traits@D@std@@V?$allocator@D@2@@std@@H@std@@@2@@std@@A
  00f75	e8 00 00 00 00	 call	 ??A?$map@V?$basic_string@DU?$char_traits@D@std@@V?$allocator@D@2@@std@@HU?$less@V?$basic_string@DU?$char_traits@D@std@@V?$allocator@D@2@@std@@@2@V?$allocator@U?$pair@$$CBV?$basic_string@DU?$char_traits@D@std@@V?$allocator@D@2@@std@@H@std@@@2@@std@@QAEAAH$$QAV?$basic_string@DU?$char_traits@D@std@@V?$allocator@D@2@@1@@Z ; std::map<std::basic_string<char,std::char_traits<char>,std::allocator<char> >,int,std::less<std::basic_string<char,std::char_traits<char>,std::allocator<char> > >,std::allocator<std::pair<std::basic_string<char,std::char_traits<char>,std::allocator<char> > const ,int> > >::operator[]
  00f7a	c7 00 58 01 00
	00		 mov	 DWORD PTR [eax], 344	; 00000158H
; File C:\Program Files\Microsoft Visual Studio\2022\Community\VC\Tools\MSVC\14.44.35207\include\xstring

; 453  :         return _Myres > _Small_string_capacity;

  00f80	8b 45 e8	 mov	 eax, DWORD PTR $T13[ebp+20]
  00f83	83 f8 0f	 cmp	 eax, 15			; 0000000fH

; 3083 :         if (_My_data._Large_mode_engaged()) {

  00f86	76 10		 jbe	 SHORT $LN1515@ServerComm

; 3084 :             _ASAN_STRING_REMOVE(*this);
; 3085 :             auto& _Al = _Getal();
; 3086 :             _Deallocate_for_capacity(_Al, _My_data._Bx._Ptr, _My_data._Myres);

  00f88	50		 push	 eax
  00f89	ff 75 d4	 push	 DWORD PTR $T13[ebp]
  00f8c	8d 45 d4	 lea	 eax, DWORD PTR $T13[ebp]
  00f8f	50		 push	 eax
  00f90	e8 00 00 00 00	 call	 ?_Deallocate_for_capacity@?$basic_string@DU?$char_traits@D@std@@V?$allocator@D@2@@std@@CAXAAV?$allocator@D@2@QADI@Z ; std::basic_string<char,std::char_traits<char>,std::allocator<char> >::_Deallocate_for_capacity
  00f95	83 c4 0c	 add	 esp, 12			; 0000000cH
$LN1515@ServerComm:
; File C:\Program Files\Microsoft Visual Studio\2022\Community\VC\Tools\MSVC\14.44.35207\include\__msvc_string_view.hpp

; 121  :         _CSTD memcpy(_First1, _First2, _Count * sizeof(_Elem));

  00f98	a1 00 00 00 00	 mov	 eax, DWORD PTR ??_C@_05KEOOPKLE@angry@
  00f9d	0f 57 c0	 xorps	 xmm0, xmm0
; File C:\Program Files\Microsoft Visual Studio\2022\Community\VC\Tools\MSVC\14.44.35207\include\xstring

; 493  :         _CONSTEXPR20 _Bxty() noexcept : _Buf() {} // user-provided, for fancy pointers

  00fa0	0f 11 45 d4	 movups	 XMMWORD PTR $T14[ebp], xmm0
; File C:\Program Files\Microsoft Visual Studio\2022\Community\VC\Tools\MSVC\14.44.35207\include\__msvc_string_view.hpp

; 121  :         _CSTD memcpy(_First1, _First2, _Count * sizeof(_Elem));

  00fa4	89 45 d4	 mov	 DWORD PTR $T14[ebp], eax
  00fa7	a0 04 00 00 00	 mov	 al, BYTE PTR ??_C@_05KEOOPKLE@angry@+4
; File C:\Program Files\Microsoft Visual Studio\2022\Community\VC\Tools\MSVC\14.44.35207\include\xstring

; 890  :             _My_data._Mysize = _Count;

  00fac	c7 45 e4 05 00
	00 00		 mov	 DWORD PTR $T14[ebp+16], 5

; 891  :             _My_data._Myres  = _Small_string_capacity;

  00fb3	c7 45 e8 0f 00
	00 00		 mov	 DWORD PTR $T14[ebp+20], 15 ; 0000000fH
; File C:\Program Files\Microsoft Visual Studio\2022\Community\VC\Tools\MSVC\14.44.35207\include\__msvc_string_view.hpp

; 121  :         _CSTD memcpy(_First1, _First2, _Count * sizeof(_Elem));

  00fba	88 45 d8	 mov	 BYTE PTR $T14[ebp+4], al
; File C:\Program Files\Microsoft Visual Studio\2022\Community\VC\Tools\MSVC\14.44.35207\include\xstring

; 898  :                 _Traits::assign(_My_data._Bx._Buf[_Count], _Elem());

  00fbd	c6 45 d9 00	 mov	 BYTE PTR $T14[ebp+5], 0
; File D:\_m2work\Server Client TMP4\ClientVS22\source\UserInterface\PythonNetworkStreamCommand.cpp

; 531  : 			s_emotionDict["angry"] = CRaceMotionData::NAME_ANGRY;

  00fc1	8d 45 d4	 lea	 eax, DWORD PTR $T14[ebp]
  00fc4	c6 45 fc 09	 mov	 BYTE PTR __$EHRec$[ebp+8], 9
  00fc8	50		 push	 eax
  00fc9	b9 00 00 00 00	 mov	 ecx, OFFSET ?s_emotionDict@?NE@??ServerCommand@CPythonNetworkStream@@QAEXPAD@Z@4V?$map@V?$basic_string@DU?$char_traits@D@std@@V?$allocator@D@2@@std@@HU?$less@V?$basic_string@DU?$char_traits@D@std@@V?$allocator@D@2@@std@@@2@V?$allocator@U?$pair@$$CBV?$basic_string@DU?$char_traits@D@std@@V?$allocator@D@2@@std@@H@std@@@2@@std@@A
  00fce	e8 00 00 00 00	 call	 ??A?$map@V?$basic_string@DU?$char_traits@D@std@@V?$allocator@D@2@@std@@HU?$less@V?$basic_string@DU?$char_traits@D@std@@V?$allocator@D@2@@std@@@2@V?$allocator@U?$pair@$$CBV?$basic_string@DU?$char_traits@D@std@@V?$allocator@D@2@@std@@H@std@@@2@@std@@QAEAAH$$QAV?$basic_string@DU?$char_traits@D@std@@V?$allocator@D@2@@1@@Z ; std::map<std::basic_string<char,std::char_traits<char>,std::allocator<char> >,int,std::less<std::basic_string<char,std::char_traits<char>,std::allocator<char> > >,std::allocator<std::pair<std::basic_string<char,std::char_traits<char>,std::allocator<char> > const ,int> > >::operator[]
; File C:\Program Files\Microsoft Visual Studio\2022\Community\VC\Tools\MSVC\14.44.35207\include\xstring

; 1383 :         _Tidy_deallocate();

  00fd3	8d 4d d4	 lea	 ecx, DWORD PTR $T14[ebp]
; File D:\_m2work\Server Client TMP4\ClientVS22\source\UserInterface\PythonNetworkStreamCommand.cpp

; 531  : 			s_emotionDict["angry"] = CRaceMotionData::NAME_ANGRY;

  00fd6	c6 45 fc 00	 mov	 BYTE PTR __$EHRec$[ebp+8], 0
  00fda	c7 00 59 01 00
	00		 mov	 DWORD PTR [eax], 345	; 00000159H
; File C:\Program Files\Microsoft Visual Studio\2022\Community\VC\Tools\MSVC\14.44.35207\include\xstring

; 1383 :         _Tidy_deallocate();

  00fe0	e8 00 00 00 00	 call	 ?_Tidy_deallocate@?$basic_string@DU?$char_traits@D@std@@V?$allocator@D@2@@std@@AAEXXZ ; std::basic_string<char,std::char_traits<char>,std::allocator<char> >::_Tidy_deallocate
; File D:\_m2work\Server Client TMP4\ClientVS22\source\UserInterface\PythonNetworkStreamCommand.cpp

; 532  : 			s_emotionDict["attractive"] = CRaceMotionData::NAME_ATTRACTIVE;

  00fe5	68 00 00 00 00	 push	 OFFSET ??_C@_0L@BIJBGJBO@attractive@
  00fea	8d 4d d4	 lea	 ecx, DWORD PTR $T15[ebp]
  00fed	e8 00 00 00 00	 call	 ??0?$basic_string@DU?$char_traits@D@std@@V?$allocator@D@2@@std@@QAE@QBD@Z ; std::basic_string<char,std::char_traits<char>,std::allocator<char> >::basic_string<char,std::char_traits<char>,std::allocator<char> >
  00ff2	8d 45 d4	 lea	 eax, DWORD PTR $T15[ebp]
  00ff5	c6 45 fc 0a	 mov	 BYTE PTR __$EHRec$[ebp+8], 10 ; 0000000aH
  00ff9	50		 push	 eax
  00ffa	b9 00 00 00 00	 mov	 ecx, OFFSET ?s_emotionDict@?NE@??ServerCommand@CPythonNetworkStream@@QAEXPAD@Z@4V?$map@V?$basic_string@DU?$char_traits@D@std@@V?$allocator@D@2@@std@@HU?$less@V?$basic_string@DU?$char_traits@D@std@@V?$allocator@D@2@@std@@@2@V?$allocator@U?$pair@$$CBV?$basic_string@DU?$char_traits@D@std@@V?$allocator@D@2@@std@@H@std@@@2@@std@@A
  00fff	e8 00 00 00 00	 call	 ??A?$map@V?$basic_string@DU?$char_traits@D@std@@V?$allocator@D@2@@std@@HU?$less@V?$basic_string@DU?$char_traits@D@std@@V?$allocator@D@2@@std@@@2@V?$allocator@U?$pair@$$CBV?$basic_string@DU?$char_traits@D@std@@V?$allocator@D@2@@std@@H@std@@@2@@std@@QAEAAH$$QAV?$basic_string@DU?$char_traits@D@std@@V?$allocator@D@2@@1@@Z ; std::map<std::basic_string<char,std::char_traits<char>,std::allocator<char> >,int,std::less<std::basic_string<char,std::char_traits<char>,std::allocator<char> > >,std::allocator<std::pair<std::basic_string<char,std::char_traits<char>,std::allocator<char> > const ,int> > >::operator[]
; File C:\Program Files\Microsoft Visual Studio\2022\Community\VC\Tools\MSVC\14.44.35207\include\xstring

; 1383 :         _Tidy_deallocate();

  01004	8d 4d d4	 lea	 ecx, DWORD PTR $T15[ebp]
; File D:\_m2work\Server Client TMP4\ClientVS22\source\UserInterface\PythonNetworkStreamCommand.cpp

; 532  : 			s_emotionDict["attractive"] = CRaceMotionData::NAME_ATTRACTIVE;

  01007	c6 45 fc 00	 mov	 BYTE PTR __$EHRec$[ebp+8], 0
  0100b	c7 00 5a 01 00
	00		 mov	 DWORD PTR [eax], 346	; 0000015aH
; File C:\Program Files\Microsoft Visual Studio\2022\Community\VC\Tools\MSVC\14.44.35207\include\xstring

; 1383 :         _Tidy_deallocate();

  01011	e8 00 00 00 00	 call	 ?_Tidy_deallocate@?$basic_string@DU?$char_traits@D@std@@V?$allocator@D@2@@std@@AAEXXZ ; std::basic_string<char,std::char_traits<char>,std::allocator<char> >::_Tidy_deallocate
; File D:\_m2work\Server Client TMP4\ClientVS22\source\UserInterface\PythonNetworkStreamCommand.cpp

; 533  : 			s_emotionDict["sad"] = CRaceMotionData::NAME_SAD;

  01016	68 00 00 00 00	 push	 OFFSET ??_C@_03OPLFCACF@sad@
  0101b	8d 4d d4	 lea	 ecx, DWORD PTR $T16[ebp]
  0101e	e8 00 00 00 00	 call	 ??0?$basic_string@DU?$char_traits@D@std@@V?$allocator@D@2@@std@@QAE@QBD@Z ; std::basic_string<char,std::char_traits<char>,std::allocator<char> >::basic_string<char,std::char_traits<char>,std::allocator<char> >
  01023	8d 45 d4	 lea	 eax, DWORD PTR $T16[ebp]
  01026	c6 45 fc 0b	 mov	 BYTE PTR __$EHRec$[ebp+8], 11 ; 0000000bH
  0102a	50		 push	 eax
  0102b	b9 00 00 00 00	 mov	 ecx, OFFSET ?s_emotionDict@?NE@??ServerCommand@CPythonNetworkStream@@QAEXPAD@Z@4V?$map@V?$basic_string@DU?$char_traits@D@std@@V?$allocator@D@2@@std@@HU?$less@V?$basic_string@DU?$char_traits@D@std@@V?$allocator@D@2@@std@@@2@V?$allocator@U?$pair@$$CBV?$basic_string@DU?$char_traits@D@std@@V?$allocator@D@2@@std@@H@std@@@2@@std@@A
  01030	e8 00 00 00 00	 call	 ??A?$map@V?$basic_string@DU?$char_traits@D@std@@V?$allocator@D@2@@std@@HU?$less@V?$basic_string@DU?$char_traits@D@std@@V?$allocator@D@2@@std@@@2@V?$allocator@U?$pair@$$CBV?$basic_string@DU?$char_traits@D@std@@V?$allocator@D@2@@std@@H@std@@@2@@std@@QAEAAH$$QAV?$basic_string@DU?$char_traits@D@std@@V?$allocator@D@2@@1@@Z ; std::map<std::basic_string<char,std::char_traits<char>,std::allocator<char> >,int,std::less<std::basic_string<char,std::char_traits<char>,std::allocator<char> > >,std::allocator<std::pair<std::basic_string<char,std::char_traits<char>,std::allocator<char> > const ,int> > >::operator[]
; File C:\Program Files\Microsoft Visual Studio\2022\Community\VC\Tools\MSVC\14.44.35207\include\xstring

; 1383 :         _Tidy_deallocate();

  01035	8d 4d d4	 lea	 ecx, DWORD PTR $T16[ebp]
; File D:\_m2work\Server Client TMP4\ClientVS22\source\UserInterface\PythonNetworkStreamCommand.cpp

; 533  : 			s_emotionDict["sad"] = CRaceMotionData::NAME_SAD;

  01038	c6 45 fc 00	 mov	 BYTE PTR __$EHRec$[ebp+8], 0
  0103c	c7 00 5b 01 00
	00		 mov	 DWORD PTR [eax], 347	; 0000015bH
; File C:\Program Files\Microsoft Visual Studio\2022\Community\VC\Tools\MSVC\14.44.35207\include\xstring

; 1383 :         _Tidy_deallocate();

  01042	e8 00 00 00 00	 call	 ?_Tidy_deallocate@?$basic_string@DU?$char_traits@D@std@@V?$allocator@D@2@@std@@AAEXXZ ; std::basic_string<char,std::char_traits<char>,std::allocator<char> >::_Tidy_deallocate
; File D:\_m2work\Server Client TMP4\ClientVS22\source\UserInterface\PythonNetworkStreamCommand.cpp

; 534  : 			s_emotionDict["shy"] = CRaceMotionData::NAME_SHY;

  01047	68 00 00 00 00	 push	 OFFSET ??_C@_03BPAIHHLG@shy@
  0104c	8d 4d d4	 lea	 ecx, DWORD PTR $T17[ebp]
  0104f	e8 00 00 00 00	 call	 ??0?$basic_string@DU?$char_traits@D@std@@V?$allocator@D@2@@std@@QAE@QBD@Z ; std::basic_string<char,std::char_traits<char>,std::allocator<char> >::basic_string<char,std::char_traits<char>,std::allocator<char> >
  01054	8d 45 d4	 lea	 eax, DWORD PTR $T17[ebp]
  01057	c6 45 fc 0c	 mov	 BYTE PTR __$EHRec$[ebp+8], 12 ; 0000000cH
  0105b	50		 push	 eax
  0105c	b9 00 00 00 00	 mov	 ecx, OFFSET ?s_emotionDict@?NE@??ServerCommand@CPythonNetworkStream@@QAEXPAD@Z@4V?$map@V?$basic_string@DU?$char_traits@D@std@@V?$allocator@D@2@@std@@HU?$less@V?$basic_string@DU?$char_traits@D@std@@V?$allocator@D@2@@std@@@2@V?$allocator@U?$pair@$$CBV?$basic_string@DU?$char_traits@D@std@@V?$allocator@D@2@@std@@H@std@@@2@@std@@A
  01061	e8 00 00 00 00	 call	 ??A?$map@V?$basic_string@DU?$char_traits@D@std@@V?$allocator@D@2@@std@@HU?$less@V?$basic_string@DU?$char_traits@D@std@@V?$allocator@D@2@@std@@@2@V?$allocator@U?$pair@$$CBV?$basic_string@DU?$char_traits@D@std@@V?$allocator@D@2@@std@@H@std@@@2@@std@@QAEAAH$$QAV?$basic_string@DU?$char_traits@D@std@@V?$allocator@D@2@@1@@Z ; std::map<std::basic_string<char,std::char_traits<char>,std::allocator<char> >,int,std::less<std::basic_string<char,std::char_traits<char>,std::allocator<char> > >,std::allocator<std::pair<std::basic_string<char,std::char_traits<char>,std::allocator<char> > const ,int> > >::operator[]
; File C:\Program Files\Microsoft Visual Studio\2022\Community\VC\Tools\MSVC\14.44.35207\include\xstring

; 1383 :         _Tidy_deallocate();

  01066	8d 4d d4	 lea	 ecx, DWORD PTR $T17[ebp]
; File D:\_m2work\Server Client TMP4\ClientVS22\source\UserInterface\PythonNetworkStreamCommand.cpp

; 534  : 			s_emotionDict["shy"] = CRaceMotionData::NAME_SHY;

  01069	c6 45 fc 00	 mov	 BYTE PTR __$EHRec$[ebp+8], 0
  0106d	c7 00 5c 01 00
	00		 mov	 DWORD PTR [eax], 348	; 0000015cH
; File C:\Program Files\Microsoft Visual Studio\2022\Community\VC\Tools\MSVC\14.44.35207\include\xstring

; 1383 :         _Tidy_deallocate();

  01073	e8 00 00 00 00	 call	 ?_Tidy_deallocate@?$basic_string@DU?$char_traits@D@std@@V?$allocator@D@2@@std@@AAEXXZ ; std::basic_string<char,std::char_traits<char>,std::allocator<char> >::_Tidy_deallocate
; File D:\_m2work\Server Client TMP4\ClientVS22\source\UserInterface\PythonNetworkStreamCommand.cpp

; 535  : 			s_emotionDict["cheerup"] = CRaceMotionData::NAME_CHEERUP;

  01078	68 00 00 00 00	 push	 OFFSET ??_C@_07MJDIFIMC@cheerup@
  0107d	8d 4d d4	 lea	 ecx, DWORD PTR $T18[ebp]
  01080	e8 00 00 00 00	 call	 ??0?$basic_string@DU?$char_traits@D@std@@V?$allocator@D@2@@std@@QAE@QBD@Z ; std::basic_string<char,std::char_traits<char>,std::allocator<char> >::basic_string<char,std::char_traits<char>,std::allocator<char> >
  01085	8d 45 d4	 lea	 eax, DWORD PTR $T18[ebp]
  01088	c6 45 fc 0d	 mov	 BYTE PTR __$EHRec$[ebp+8], 13 ; 0000000dH
  0108c	50		 push	 eax
  0108d	b9 00 00 00 00	 mov	 ecx, OFFSET ?s_emotionDict@?NE@??ServerCommand@CPythonNetworkStream@@QAEXPAD@Z@4V?$map@V?$basic_string@DU?$char_traits@D@std@@V?$allocator@D@2@@std@@HU?$less@V?$basic_string@DU?$char_traits@D@std@@V?$allocator@D@2@@std@@@2@V?$allocator@U?$pair@$$CBV?$basic_string@DU?$char_traits@D@std@@V?$allocator@D@2@@std@@H@std@@@2@@std@@A
  01092	e8 00 00 00 00	 call	 ??A?$map@V?$basic_string@DU?$char_traits@D@std@@V?$allocator@D@2@@std@@HU?$less@V?$basic_string@DU?$char_traits@D@std@@V?$allocator@D@2@@std@@@2@V?$allocator@U?$pair@$$CBV?$basic_string@DU?$char_traits@D@std@@V?$allocator@D@2@@std@@H@std@@@2@@std@@QAEAAH$$QAV?$basic_string@DU?$char_traits@D@std@@V?$allocator@D@2@@1@@Z ; std::map<std::basic_string<char,std::char_traits<char>,std::allocator<char> >,int,std::less<std::basic_string<char,std::char_traits<char>,std::allocator<char> > >,std::allocator<std::pair<std::basic_string<char,std::char_traits<char>,std::allocator<char> > const ,int> > >::operator[]
; File C:\Program Files\Microsoft Visual Studio\2022\Community\VC\Tools\MSVC\14.44.35207\include\xstring

; 1383 :         _Tidy_deallocate();

  01097	8d 4d d4	 lea	 ecx, DWORD PTR $T18[ebp]
; File D:\_m2work\Server Client TMP4\ClientVS22\source\UserInterface\PythonNetworkStreamCommand.cpp

; 535  : 			s_emotionDict["cheerup"] = CRaceMotionData::NAME_CHEERUP;

  0109a	c6 45 fc 00	 mov	 BYTE PTR __$EHRec$[ebp+8], 0
  0109e	c7 00 5d 01 00
	00		 mov	 DWORD PTR [eax], 349	; 0000015dH
; File C:\Program Files\Microsoft Visual Studio\2022\Community\VC\Tools\MSVC\14.44.35207\include\xstring

; 1383 :         _Tidy_deallocate();

  010a4	e8 00 00 00 00	 call	 ?_Tidy_deallocate@?$basic_string@DU?$char_traits@D@std@@V?$allocator@D@2@@std@@AAEXXZ ; std::basic_string<char,std::char_traits<char>,std::allocator<char> >::_Tidy_deallocate
; File D:\_m2work\Server Client TMP4\ClientVS22\source\UserInterface\PythonNetworkStreamCommand.cpp

; 536  : 			s_emotionDict["banter"] = CRaceMotionData::NAME_BANTER;

  010a9	68 00 00 00 00	 push	 OFFSET ??_C@_06CMFIENOK@banter@
  010ae	8d 4d d4	 lea	 ecx, DWORD PTR $T19[ebp]
  010b1	e8 00 00 00 00	 call	 ??0?$basic_string@DU?$char_traits@D@std@@V?$allocator@D@2@@std@@QAE@QBD@Z ; std::basic_string<char,std::char_traits<char>,std::allocator<char> >::basic_string<char,std::char_traits<char>,std::allocator<char> >
  010b6	8d 45 d4	 lea	 eax, DWORD PTR $T19[ebp]
  010b9	c6 45 fc 0e	 mov	 BYTE PTR __$EHRec$[ebp+8], 14 ; 0000000eH
  010bd	50		 push	 eax
  010be	b9 00 00 00 00	 mov	 ecx, OFFSET ?s_emotionDict@?NE@??ServerCommand@CPythonNetworkStream@@QAEXPAD@Z@4V?$map@V?$basic_string@DU?$char_traits@D@std@@V?$allocator@D@2@@std@@HU?$less@V?$basic_string@DU?$char_traits@D@std@@V?$allocator@D@2@@std@@@2@V?$allocator@U?$pair@$$CBV?$basic_string@DU?$char_traits@D@std@@V?$allocator@D@2@@std@@H@std@@@2@@std@@A
  010c3	e8 00 00 00 00	 call	 ??A?$map@V?$basic_string@DU?$char_traits@D@std@@V?$allocator@D@2@@std@@HU?$less@V?$basic_string@DU?$char_traits@D@std@@V?$allocator@D@2@@std@@@2@V?$allocator@U?$pair@$$CBV?$basic_string@DU?$char_traits@D@std@@V?$allocator@D@2@@std@@H@std@@@2@@std@@QAEAAH$$QAV?$basic_string@DU?$char_traits@D@std@@V?$allocator@D@2@@1@@Z ; std::map<std::basic_string<char,std::char_traits<char>,std::allocator<char> >,int,std::less<std::basic_string<char,std::char_traits<char>,std::allocator<char> > >,std::allocator<std::pair<std::basic_string<char,std::char_traits<char>,std::allocator<char> > const ,int> > >::operator[]
  010c8	c7 00 5e 01 00
	00		 mov	 DWORD PTR [eax], 350	; 0000015eH
; File C:\Program Files\Microsoft Visual Studio\2022\Community\VC\Tools\MSVC\14.44.35207\include\xstring

; 1383 :         _Tidy_deallocate();

  010ce	8d 4d d4	 lea	 ecx, DWORD PTR $T19[ebp]
; File D:\_m2work\Server Client TMP4\ClientVS22\source\UserInterface\PythonNetworkStreamCommand.cpp

; 536  : 			s_emotionDict["banter"] = CRaceMotionData::NAME_BANTER;

  010d1	c6 45 fc 00	 mov	 BYTE PTR __$EHRec$[ebp+8], 0
; File C:\Program Files\Microsoft Visual Studio\2022\Community\VC\Tools\MSVC\14.44.35207\include\xstring

; 1383 :         _Tidy_deallocate();

  010d5	e8 00 00 00 00	 call	 ?_Tidy_deallocate@?$basic_string@DU?$char_traits@D@std@@V?$allocator@D@2@@std@@AAEXXZ ; std::basic_string<char,std::char_traits<char>,std::allocator<char> >::_Tidy_deallocate
; File D:\_m2work\Server Client TMP4\ClientVS22\source\UserInterface\PythonNetworkStreamCommand.cpp

; 537  : 			s_emotionDict["joy"] = CRaceMotionData::NAME_JOY;

  010da	68 00 00 00 00	 push	 OFFSET ??_C@_03DHFGHJCG@joy@
  010df	8d 4d d4	 lea	 ecx, DWORD PTR $T20[ebp]
  010e2	e8 00 00 00 00	 call	 ??0?$basic_string@DU?$char_traits@D@std@@V?$allocator@D@2@@std@@QAE@QBD@Z ; std::basic_string<char,std::char_traits<char>,std::allocator<char> >::basic_string<char,std::char_traits<char>,std::allocator<char> >
  010e7	8d 45 d4	 lea	 eax, DWORD PTR $T20[ebp]
  010ea	c6 45 fc 0f	 mov	 BYTE PTR __$EHRec$[ebp+8], 15 ; 0000000fH
  010ee	50		 push	 eax
  010ef	b9 00 00 00 00	 mov	 ecx, OFFSET ?s_emotionDict@?NE@??ServerCommand@CPythonNetworkStream@@QAEXPAD@Z@4V?$map@V?$basic_string@DU?$char_traits@D@std@@V?$allocator@D@2@@std@@HU?$less@V?$basic_string@DU?$char_traits@D@std@@V?$allocator@D@2@@std@@@2@V?$allocator@U?$pair@$$CBV?$basic_string@DU?$char_traits@D@std@@V?$allocator@D@2@@std@@H@std@@@2@@std@@A
  010f4	e8 00 00 00 00	 call	 ??A?$map@V?$basic_string@DU?$char_traits@D@std@@V?$allocator@D@2@@std@@HU?$less@V?$basic_string@DU?$char_traits@D@std@@V?$allocator@D@2@@std@@@2@V?$allocator@U?$pair@$$CBV?$basic_string@DU?$char_traits@D@std@@V?$allocator@D@2@@std@@H@std@@@2@@std@@QAEAAH$$QAV?$basic_string@DU?$char_traits@D@std@@V?$allocator@D@2@@1@@Z ; std::map<std::basic_string<char,std::char_traits<char>,std::allocator<char> >,int,std::less<std::basic_string<char,std::char_traits<char>,std::allocator<char> > >,std::allocator<std::pair<std::basic_string<char,std::char_traits<char>,std::allocator<char> > const ,int> > >::operator[]
; File C:\Program Files\Microsoft Visual Studio\2022\Community\VC\Tools\MSVC\14.44.35207\include\xstring

; 1383 :         _Tidy_deallocate();

  010f9	8d 4d d4	 lea	 ecx, DWORD PTR $T20[ebp]
; File D:\_m2work\Server Client TMP4\ClientVS22\source\UserInterface\PythonNetworkStreamCommand.cpp

; 537  : 			s_emotionDict["joy"] = CRaceMotionData::NAME_JOY;

  010fc	c6 45 fc 00	 mov	 BYTE PTR __$EHRec$[ebp+8], 0
  01100	c7 00 5f 01 00
	00		 mov	 DWORD PTR [eax], 351	; 0000015fH
; File C:\Program Files\Microsoft Visual Studio\2022\Community\VC\Tools\MSVC\14.44.35207\include\xstring

; 1383 :         _Tidy_deallocate();

  01106	e8 00 00 00 00	 call	 ?_Tidy_deallocate@?$basic_string@DU?$char_traits@D@std@@V?$allocator@D@2@@std@@AAEXXZ ; std::basic_string<char,std::char_traits<char>,std::allocator<char> >::_Tidy_deallocate
$LN1618@ServerComm:
; File D:\_m2work\Server Client TMP4\ClientVS22\source\UserInterface\PythonNetworkStreamCommand.cpp

; 540  : 		std::map<std::string, int>::iterator f = s_emotionDict.find(szCmd);

  0110b	56		 push	 esi
  0110c	8d 4d d4	 lea	 ecx, DWORD PTR $T6[ebp]
  0110f	e8 00 00 00 00	 call	 ??0?$basic_string@DU?$char_traits@D@std@@V?$allocator@D@2@@std@@QAE@QBD@Z ; std::basic_string<char,std::char_traits<char>,std::allocator<char> >::basic_string<char,std::char_traits<char>,std::allocator<char> >
  01114	8d 45 d4	 lea	 eax, DWORD PTR $T6[ebp]
  01117	b9 00 00 00 00	 mov	 ecx, OFFSET ?s_emotionDict@?NE@??ServerCommand@CPythonNetworkStream@@QAEXPAD@Z@4V?$map@V?$basic_string@DU?$char_traits@D@std@@V?$allocator@D@2@@std@@HU?$less@V?$basic_string@DU?$char_traits@D@std@@V?$allocator@D@2@@std@@@2@V?$allocator@U?$pair@$$CBV?$basic_string@DU?$char_traits@D@std@@V?$allocator@D@2@@std@@H@std@@@2@@std@@A
  0111c	50		 push	 eax
  0111d	8d 45 c4	 lea	 eax, DWORD PTR _f$4[ebp]
  01120	50		 push	 eax
  01121	e8 00 00 00 00	 call	 ?find@?$_Tree@V?$_Tmap_traits@V?$basic_string@DU?$char_traits@D@std@@V?$allocator@D@2@@std@@HU?$less@V?$basic_string@DU?$char_traits@D@std@@V?$allocator@D@2@@std@@@2@V?$allocator@U?$pair@$$CBV?$basic_string@DU?$char_traits@D@std@@V?$allocator@D@2@@std@@H@std@@@2@$0A@@std@@@std@@QAE?AV?$_Tree_iterator@V?$_Tree_val@U?$_Tree_simple_types@U?$pair@$$CBV?$basic_string@DU?$char_traits@D@std@@V?$allocator@D@2@@std@@H@std@@@std@@@std@@@2@ABV?$basic_string@DU?$char_traits@D@std@@V?$allocator@D@2@@2@@Z ; std::_Tree<std::_Tmap_traits<std::basic_string<char,std::char_traits<char>,std::allocator<char> >,int,std::less<std::basic_string<char,std::char_traits<char>,std::allocator<char> > >,std::allocator<std::pair<std::basic_string<char,std::char_traits<char>,std::allocator<char> > const ,int> >,0> >::find
; File C:\Program Files\Microsoft Visual Studio\2022\Community\VC\Tools\MSVC\14.44.35207\include\xstring

; 1383 :         _Tidy_deallocate();

  01126	8d 4d d4	 lea	 ecx, DWORD PTR $T6[ebp]
  01129	e8 00 00 00 00	 call	 ?_Tidy_deallocate@?$basic_string@DU?$char_traits@D@std@@V?$allocator@D@2@@std@@AAEXXZ ; std::basic_string<char,std::char_traits<char>,std::allocator<char> >::_Tidy_deallocate
; File C:\Program Files\Microsoft Visual Studio\2022\Community\VC\Tools\MSVC\14.44.35207\include\xtree

; 37   :     _Tree_unchecked_const_iterator(_Nodeptr _Pnode, const _Mytree* _Plist) noexcept : _Ptr(_Pnode) {

  0112e	8b 45 c4	 mov	 eax, DWORD PTR _f$4[ebp]
  01131	3b 05 00 00 00
	00		 cmp	 eax, DWORD PTR ?s_emotionDict@?NE@??ServerCommand@CPythonNetworkStream@@QAEXPAD@Z@4V?$map@V?$basic_string@DU?$char_traits@D@std@@V?$allocator@D@2@@std@@HU?$less@V?$basic_string@DU?$char_traits@D@std@@V?$allocator@D@2@@std@@@2@V?$allocator@U?$pair@$$CBV?$basic_string@DU?$char_traits@D@std@@V?$allocator@D@2@@std@@H@std@@@2@@std@@A
; File D:\_m2work\Server Client TMP4\ClientVS22\source\UserInterface\PythonNetworkStreamCommand.cpp

; 541  : 		if (f == s_emotionDict.end())

  01137	75 13		 jne	 SHORT $LN106@ServerComm

; 542  : 		{
; 543  : 			TraceError("Unknown Server Command %s | %s", c_szCommand, szCmd);

  01139	56		 push	 esi
  0113a	ff 75 b0	 push	 DWORD PTR _c_szCommand$GSCopy$1$[ebp]
  0113d	68 00 00 00 00	 push	 OFFSET ??_C@_0BP@HJIPKFJO@Unknown?5Server?5Command?5?$CFs?5?$HM?5?$CFs@
; File C:\Program Files\Microsoft Visual Studio\2022\Community\VC\Tools\MSVC\14.44.35207\include\vector

; 2090 :         if (_Myfirst) { // destroy and deallocate old array

  01142	e8 00 00 00 00	 call	 ?TraceError@@YAXPBDZZ	; TraceError
  01147	83 c4 0c	 add	 esp, 12			; 0000000cH
  0114a	eb 34		 jmp	 SHORT $LN1775@ServerComm
$LN106@ServerComm:
; File D:\_m2work\Server Client TMP4\ClientVS22\source\UserInterface\PythonNetworkStreamCommand.cpp

; 547  : 			int emotionIndex = f->second;

  0114c	8b 70 28	 mov	 esi, DWORD PTR [eax+40]
; File C:\Program Files\Microsoft Visual Studio\2022\Community\VC\Tools\MSVC\14.44.35207\include\vector

; 1934 :         return _My_data._Myfirst[_Pos];

  0114f	8b 45 b4	 mov	 eax, DWORD PTR _TokenVector$[ebp]
  01152	83 c0 18	 add	 eax, 24			; 00000018H
; File C:\Program Files\Microsoft Visual Studio\2022\Community\VC\Tools\MSVC\14.44.35207\include\xstring

; 453  :         return _Myres > _Small_string_capacity;

  01155	83 78 14 0f	 cmp	 DWORD PTR [eax+20], 15	; 0000000fH

; 445  :         if (_Large_mode_engaged()) {

  01159	76 02		 jbe	 SHORT $LN1658@ServerComm

; 446  :             _Result = _Unfancy(_Bx._Ptr);

  0115b	8b 00		 mov	 eax, DWORD PTR [eax]
$LN1658@ServerComm:
; File D:\_m2work\Server Client TMP4\ClientVS22\source\UserInterface\PythonNetworkStreamCommand.cpp

; 549  : 			int iVID = atoi(TokenVector[1].c_str());

  0115d	50		 push	 eax
  0115e	e8 00 00 00 00	 call	 __atoi64

; 550  : 			IAbstractCharacterManager & rkChrMgr = IAbstractCharacterManager::GetSingleton();

  01163	8b 0d 00 00 00
	00		 mov	 ecx, DWORD PTR ?ms_singleton@?$TAbstractSingleton@VIAbstractCharacterManager@@@@0PAVIAbstractCharacterManager@@A ; TAbstractSingleton<IAbstractCharacterManager>::ms_singleton
  01169	83 c4 04	 add	 esp, 4

; 551  : 			CInstanceBase * pInstance = rkChrMgr.GetInstancePtr(iVID);

  0116c	8b 11		 mov	 edx, DWORD PTR [ecx]
  0116e	50		 push	 eax
  0116f	8b 52 08	 mov	 edx, DWORD PTR [edx+8]
  01172	ff d2		 call	 edx

; 552  : 
; 553  : 			if (pInstance)

  01174	85 c0		 test	 eax, eax
  01176	74 08		 je	 SHORT $LN1775@ServerComm

; 554  : 				pInstance->ActEmotion(emotionIndex);

  01178	56		 push	 esi
$LN1781@ServerComm:
; File C:\Program Files\Microsoft Visual Studio\2022\Community\VC\Tools\MSVC\14.44.35207\include\vector

; 2090 :         if (_Myfirst) { // destroy and deallocate old array

  01179	8b c8		 mov	 ecx, eax
  0117b	e8 00 00 00 00	 call	 ?ActEmotion@CInstanceBase@@QAEXK@Z ; CInstanceBase::ActEmotion
$LN1775@ServerComm:
  01180	8b 75 b4	 mov	 esi, DWORD PTR _TokenVector$[ebp]
  01183	85 f6		 test	 esi, esi
  01185	74 52		 je	 SHORT $LN181@ServerComm

; 2091 :             _STD _Destroy_range(_Myfirst, _Mylast, _Al);

  01187	8b 7d b8	 mov	 edi, DWORD PTR _TokenVector$[ebp+4]
  0118a	3b f7		 cmp	 esi, edi
; File C:\Program Files\Microsoft Visual Studio\2022\Community\VC\Tools\MSVC\14.44.35207\include\xmemory

; 1102 :         for (; _First != _Last; ++_First) {

  0118c	74 10		 je	 SHORT $LN160@ServerComm
  0118e	66 90		 npad	 2
$LL161@ServerComm:
; File C:\Program Files\Microsoft Visual Studio\2022\Community\VC\Tools\MSVC\14.44.35207\include\xstring

; 1383 :         _Tidy_deallocate();

  01190	8b ce		 mov	 ecx, esi
  01192	e8 00 00 00 00	 call	 ?_Tidy_deallocate@?$basic_string@DU?$char_traits@D@std@@V?$allocator@D@2@@std@@AAEXXZ ; std::basic_string<char,std::char_traits<char>,std::allocator<char> >::_Tidy_deallocate
; File C:\Program Files\Microsoft Visual Studio\2022\Community\VC\Tools\MSVC\14.44.35207\include\xmemory

; 1102 :         for (; _First != _Last; ++_First) {

  01197	83 c6 18	 add	 esi, 24			; 00000018H
  0119a	3b f7		 cmp	 esi, edi
  0119c	75 f2		 jne	 SHORT $LL161@ServerComm
$LN160@ServerComm:
; File C:\Program Files\Microsoft Visual Studio\2022\Community\VC\Tools\MSVC\14.44.35207\include\vector

; 2093 :             _Al.deallocate(_Myfirst, static_cast<size_type>(_Myend - _Myfirst));

  0119e	8b 45 bc	 mov	 eax, DWORD PTR _TokenVector$[ebp+8]
  011a1	8b 75 b4	 mov	 esi, DWORD PTR _TokenVector$[ebp]
  011a4	2b c6		 sub	 eax, esi
  011a6	c1 f8 03	 sar	 eax, 3
  011a9	69 c0 ab aa aa
	aa		 imul	 eax, eax, -1431655765
; File C:\Program Files\Microsoft Visual Studio\2022\Community\VC\Tools\MSVC\14.44.35207\include\xmemory

; 985  :         _STD _Deallocate<_New_alignof<_Ty>>(_Ptr, sizeof(_Ty) * _Count);

  011af	8d 0c 40	 lea	 ecx, DWORD PTR [eax+eax*2]
  011b2	8b c6		 mov	 eax, esi
  011b4	c1 e1 03	 shl	 ecx, 3

; 284  :         if (_Bytes >= _Big_allocation_threshold) {

  011b7	81 f9 00 10 00
	00		 cmp	 ecx, 4096		; 00001000H
  011bd	72 10		 jb	 SHORT $LN189@ServerComm

; 205  :     const uintptr_t _Ptr_container   = _Ptr_user[-1];

  011bf	8b 70 fc	 mov	 esi, DWORD PTR [eax-4]
  011c2	83 c1 23	 add	 ecx, 35			; 00000023H
  011c5	2b c6		 sub	 eax, esi

; 219  :     _STL_VERIFY(_Back_shift >= _Min_back_shift && _Back_shift <= _Non_user_size, "invalid argument");

  011c7	83 c0 fc	 add	 eax, -4			; fffffffcH
  011ca	83 f8 1f	 cmp	 eax, 31			; 0000001fH
  011cd	77 75		 ja	 SHORT $LN1788@ServerComm
$LN189@ServerComm:

; 289  :         ::operator delete(_Ptr, _Bytes);

  011cf	51		 push	 ecx
  011d0	56		 push	 esi
  011d1	e8 00 00 00 00	 call	 ??3@YAXPAXI@Z		; operator delete
  011d6	83 c4 08	 add	 esp, 8
$LN181@ServerComm:
; File D:\_m2work\Server Client TMP4\ClientVS22\source\UserInterface\PythonNetworkStreamCommand.cpp

; 557  : }

  011d9	8b 4d f4	 mov	 ecx, DWORD PTR __$EHRec$[ebp]
  011dc	64 89 0d 00 00
	00 00		 mov	 DWORD PTR fs:0, ecx
  011e3	59		 pop	 ecx
  011e4	5f		 pop	 edi
  011e5	5e		 pop	 esi
  011e6	8b 4d ec	 mov	 ecx, DWORD PTR __$ArrayPad$[ebp]
  011e9	33 cd		 xor	 ecx, ebp
  011eb	e8 00 00 00 00	 call	 @__security_check_cookie@4
  011f0	8b e5		 mov	 esp, ebp
  011f2	5d		 pop	 ebp
  011f3	8b e3		 mov	 esp, ebx
  011f5	5b		 pop	 ebx
  011f6	c2 04 00	 ret	 4
$LN1787@ServerComm:

; 515  : 	// Emotion End
; 516  : 	else
; 517  : 	{
; 518  : 		static std::map<std::string, int> s_emotionDict;

  011f9	68 00 00 00 00	 push	 OFFSET ?$TSS0@?NE@??ServerCommand@CPythonNetworkStream@@QAEXPAD@Z@4HA
  011fe	e8 00 00 00 00	 call	 __Init_thread_header
  01203	83 c4 04	 add	 esp, 4
  01206	83 3d 00 00 00
	00 ff		 cmp	 DWORD PTR ?$TSS0@?NE@??ServerCommand@CPythonNetworkStream@@QAEXPAD@Z@4HA, -1
  0120d	0f 85 3a fb ff
	ff		 jne	 $LN4@ServerComm
  01213	b9 00 00 00 00	 mov	 ecx, OFFSET ?s_emotionDict@?NE@??ServerCommand@CPythonNetworkStream@@QAEXPAD@Z@4V?$map@V?$basic_string@DU?$char_traits@D@std@@V?$allocator@D@2@@std@@HU?$less@V?$basic_string@DU?$char_traits@D@std@@V?$allocator@D@2@@std@@@2@V?$allocator@U?$pair@$$CBV?$basic_string@DU?$char_traits@D@std@@V?$allocator@D@2@@std@@H@std@@@2@@std@@A
  01218	c6 45 fc 02	 mov	 BYTE PTR __$EHRec$[ebp+8], 2
  0121c	e8 00 00 00 00	 call	 ??0?$map@V?$basic_string@DU?$char_traits@D@std@@V?$allocator@D@2@@std@@HU?$less@V?$basic_string@DU?$char_traits@D@std@@V?$allocator@D@2@@std@@@2@V?$allocator@U?$pair@$$CBV?$basic_string@DU?$char_traits@D@std@@V?$allocator@D@2@@std@@H@std@@@2@@std@@QAE@XZ ; std::map<std::basic_string<char,std::char_traits<char>,std::allocator<char> >,int,std::less<std::basic_string<char,std::char_traits<char>,std::allocator<char> > >,std::allocator<std::pair<std::basic_string<char,std::char_traits<char>,std::allocator<char> > const ,int> > >::map<std::basic_string<char,std::char_traits<char>,std::allocator<char> >,int,std::less<std::basic_string<char,std::char_traits<char>,std::allocator<char> > >,std::allocator<std::pair<std::basic_string<char,std::char_traits<char>,std::allocator<char> > const ,int> > >
  01221	68 00 00 00 00	 push	 OFFSET ??__Fs_emotionDict@?NE@??ServerCommand@CPythonNetworkStream@@QAEXPAD@Z@YAXXZ ; `CPythonNetworkStream::ServerCommand'::`212'::`dynamic atexit destructor for 's_emotionDict''
  01226	e8 00 00 00 00	 call	 _atexit
  0122b	83 c4 04	 add	 esp, 4
  0122e	c6 45 fc 00	 mov	 BYTE PTR __$EHRec$[ebp+8], 0
  01232	68 00 00 00 00	 push	 OFFSET ?$TSS0@?NE@??ServerCommand@CPythonNetworkStream@@QAEXPAD@Z@4HA
  01237	e8 00 00 00 00	 call	 __Init_thread_footer
  0123c	83 c4 04	 add	 esp, 4
  0123f	e9 09 fb ff ff	 jmp	 $LN4@ServerComm
$LN1788@ServerComm:
; File C:\Program Files\Microsoft Visual Studio\2022\Community\VC\Tools\MSVC\14.44.35207\include\xmemory

; 219  :     _STL_VERIFY(_Back_shift >= _Min_back_shift && _Back_shift <= _Non_user_size, "invalid argument");

  01244	6a 00		 push	 0
  01246	6a 00		 push	 0
  01248	6a 00		 push	 0
  0124a	6a 00		 push	 0
  0124c	6a 00		 push	 0
  0124e	e8 00 00 00 00	 call	 __invoke_watson
$LN1777@ServerComm:
  01253	90		 npad	 1
$LN1774@ServerComm:
; File D:\_m2work\Server Client TMP4\ClientVS22\source\UserInterface\PythonNetworkStreamCommand.cpp

; 557  : }

  01254	00 00 00 00	 DD	 $LN55@ServerComm
  01258	00 00 00 00	 DD	 $LN56@ServerComm
  0125c	00 00 00 00	 DD	 $LN57@ServerComm
  01260	00 00 00 00	 DD	 $LN58@ServerComm
_TEXT	ENDS
;	COMDAT text$x
text$x	SEGMENT
__unwindfunclet$?ServerCommand@CPythonNetworkStream@@QAEXPAD@Z$0:
  00000	8d 4d b4	 lea	 ecx, DWORD PTR _TokenVector$[ebp]
  00003	e9 00 00 00 00	 jmp	 ??1?$vector@V?$basic_string@DU?$char_traits@D@std@@V?$allocator@D@2@@std@@V?$allocator@V?$basic_string@DU?$char_traits@D@std@@V?$allocator@D@2@@std@@@2@@std@@QAE@XZ ; std::vector<std::basic_string<char,std::char_traits<char>,std::allocator<char> >,std::allocator<std::basic_string<char,std::char_traits<char>,std::allocator<char> > > >::~vector<std::basic_string<char,std::char_traits<char>,std::allocator<char> >,std::allocator<std::basic_string<char,std::char_traits<char>,std::allocator<char> > > >
__unwindfunclet$?ServerCommand@CPythonNetworkStream@@QAEXPAD@Z$1:
  00008	8d 4d d4	 lea	 ecx, DWORD PTR _$S11$7[ebp]
  0000b	e9 00 00 00 00	 jmp	 ??1?$basic_string@DU?$char_traits@D@std@@V?$allocator@D@2@@std@@QAE@XZ ; std::basic_string<char,std::char_traits<char>,std::allocator<char> >::~basic_string<char,std::char_traits<char>,std::allocator<char> >
__unwindfunclet$?ServerCommand@CPythonNetworkStream@@QAEXPAD@Z$3:
  00010	8d 4d d4	 lea	 ecx, DWORD PTR $T8[ebp]
  00013	e9 00 00 00 00	 jmp	 ??1?$basic_string@DU?$char_traits@D@std@@V?$allocator@D@2@@std@@QAE@XZ ; std::basic_string<char,std::char_traits<char>,std::allocator<char> >::~basic_string<char,std::char_traits<char>,std::allocator<char> >
__unwindfunclet$?ServerCommand@CPythonNetworkStream@@QAEXPAD@Z$4:
  00018	8d 4d d4	 lea	 ecx, DWORD PTR $T9[ebp]
  0001b	e9 00 00 00 00	 jmp	 ??1?$basic_string@DU?$char_traits@D@std@@V?$allocator@D@2@@std@@QAE@XZ ; std::basic_string<char,std::char_traits<char>,std::allocator<char> >::~basic_string<char,std::char_traits<char>,std::allocator<char> >
__unwindfunclet$?ServerCommand@CPythonNetworkStream@@QAEXPAD@Z$5:
  00020	8d 4d d4	 lea	 ecx, DWORD PTR $T10[ebp]
  00023	e9 00 00 00 00	 jmp	 ??1?$basic_string@DU?$char_traits@D@std@@V?$allocator@D@2@@std@@QAE@XZ ; std::basic_string<char,std::char_traits<char>,std::allocator<char> >::~basic_string<char,std::char_traits<char>,std::allocator<char> >
__unwindfunclet$?ServerCommand@CPythonNetworkStream@@QAEXPAD@Z$6:
  00028	8d 4d d4	 lea	 ecx, DWORD PTR $T11[ebp]
  0002b	e9 00 00 00 00	 jmp	 ??1?$basic_string@DU?$char_traits@D@std@@V?$allocator@D@2@@std@@QAE@XZ ; std::basic_string<char,std::char_traits<char>,std::allocator<char> >::~basic_string<char,std::char_traits<char>,std::allocator<char> >
__unwindfunclet$?ServerCommand@CPythonNetworkStream@@QAEXPAD@Z$7:
  00030	8d 4d d4	 lea	 ecx, DWORD PTR $T12[ebp]
  00033	e9 00 00 00 00	 jmp	 ??1?$basic_string@DU?$char_traits@D@std@@V?$allocator@D@2@@std@@QAE@XZ ; std::basic_string<char,std::char_traits<char>,std::allocator<char> >::~basic_string<char,std::char_traits<char>,std::allocator<char> >
__unwindfunclet$?ServerCommand@CPythonNetworkStream@@QAEXPAD@Z$8:
  00038	8d 4d d4	 lea	 ecx, DWORD PTR $T13[ebp]
  0003b	e9 00 00 00 00	 jmp	 ??1?$basic_string@DU?$char_traits@D@std@@V?$allocator@D@2@@std@@QAE@XZ ; std::basic_string<char,std::char_traits<char>,std::allocator<char> >::~basic_string<char,std::char_traits<char>,std::allocator<char> >
__unwindfunclet$?ServerCommand@CPythonNetworkStream@@QAEXPAD@Z$9:
  00040	8d 4d d4	 lea	 ecx, DWORD PTR $T14[ebp]
  00043	e9 00 00 00 00	 jmp	 ??1?$basic_string@DU?$char_traits@D@std@@V?$allocator@D@2@@std@@QAE@XZ ; std::basic_string<char,std::char_traits<char>,std::allocator<char> >::~basic_string<char,std::char_traits<char>,std::allocator<char> >
__unwindfunclet$?ServerCommand@CPythonNetworkStream@@QAEXPAD@Z$10:
  00048	8d 4d d4	 lea	 ecx, DWORD PTR $T15[ebp]
  0004b	e9 00 00 00 00	 jmp	 ??1?$basic_string@DU?$char_traits@D@std@@V?$allocator@D@2@@std@@QAE@XZ ; std::basic_string<char,std::char_traits<char>,std::allocator<char> >::~basic_string<char,std::char_traits<char>,std::allocator<char> >
__unwindfunclet$?ServerCommand@CPythonNetworkStream@@QAEXPAD@Z$11:
  00050	8d 4d d4	 lea	 ecx, DWORD PTR $T16[ebp]
  00053	e9 00 00 00 00	 jmp	 ??1?$basic_string@DU?$char_traits@D@std@@V?$allocator@D@2@@std@@QAE@XZ ; std::basic_string<char,std::char_traits<char>,std::allocator<char> >::~basic_string<char,std::char_traits<char>,std::allocator<char> >
__unwindfunclet$?ServerCommand@CPythonNetworkStream@@QAEXPAD@Z$12:
  00058	8d 4d d4	 lea	 ecx, DWORD PTR $T17[ebp]
  0005b	e9 00 00 00 00	 jmp	 ??1?$basic_string@DU?$char_traits@D@std@@V?$allocator@D@2@@std@@QAE@XZ ; std::basic_string<char,std::char_traits<char>,std::allocator<char> >::~basic_string<char,std::char_traits<char>,std::allocator<char> >
__unwindfunclet$?ServerCommand@CPythonNetworkStream@@QAEXPAD@Z$13:
  00060	8d 4d d4	 lea	 ecx, DWORD PTR $T18[ebp]
  00063	e9 00 00 00 00	 jmp	 ??1?$basic_string@DU?$char_traits@D@std@@V?$allocator@D@2@@std@@QAE@XZ ; std::basic_string<char,std::char_traits<char>,std::allocator<char> >::~basic_string<char,std::char_traits<char>,std::allocator<char> >
__unwindfunclet$?ServerCommand@CPythonNetworkStream@@QAEXPAD@Z$14:
  00068	8d 4d d4	 lea	 ecx, DWORD PTR $T19[ebp]
  0006b	e9 00 00 00 00	 jmp	 ??1?$basic_string@DU?$char_traits@D@std@@V?$allocator@D@2@@std@@QAE@XZ ; std::basic_string<char,std::char_traits<char>,std::allocator<char> >::~basic_string<char,std::char_traits<char>,std::allocator<char> >
__unwindfunclet$?ServerCommand@CPythonNetworkStream@@QAEXPAD@Z$15:
  00070	8d 4d d4	 lea	 ecx, DWORD PTR $T20[ebp]
  00073	e9 00 00 00 00	 jmp	 ??1?$basic_string@DU?$char_traits@D@std@@V?$allocator@D@2@@std@@QAE@XZ ; std::basic_string<char,std::char_traits<char>,std::allocator<char> >::~basic_string<char,std::char_traits<char>,std::allocator<char> >
__unwindfunclet$?ServerCommand@CPythonNetworkStream@@QAEXPAD@Z$2:
  00078	68 00 00 00 00	 push	 OFFSET ?$TSS0@?NE@??ServerCommand@CPythonNetworkStream@@QAEXPAD@Z@4HA
  0007d	e8 00 00 00 00	 call	 __Init_thread_abort
  00082	59		 pop	 ecx
  00083	c3		 ret	 0
  00084	cc		 int	 3
  00085	cc		 int	 3
  00086	cc		 int	 3
  00087	cc		 int	 3
  00088	cc		 int	 3
__ehhandler$?ServerCommand@CPythonNetworkStream@@QAEXPAD@Z:
  00089	90		 npad	 1
  0008a	90		 npad	 1
  0008b	8b 54 24 08	 mov	 edx, DWORD PTR [esp+8]
  0008f	8d 42 0c	 lea	 eax, DWORD PTR [edx+12]
  00092	8b 4a a8	 mov	 ecx, DWORD PTR [edx-88]
  00095	33 c8		 xor	 ecx, eax
  00097	e8 00 00 00 00	 call	 @__security_check_cookie@4
  0009c	8b 4a f8	 mov	 ecx, DWORD PTR [edx-8]
  0009f	33 c8		 xor	 ecx, eax
  000a1	e8 00 00 00 00	 call	 @__security_check_cookie@4
  000a6	b8 00 00 00 00	 mov	 eax, OFFSET __ehfuncinfo$?ServerCommand@CPythonNetworkStream@@QAEXPAD@Z
  000ab	e9 00 00 00 00	 jmp	 ___CxxFrameHandler3
text$x	ENDS
?ServerCommand@CPythonNetworkStream@@QAEXPAD@Z ENDP	; CPythonNetworkStream::ServerCommand
; Function compile flags: /Ogtp
; File C:\Program Files\Microsoft Visual Studio\2022\Community\VC\Tools\MSVC\14.44.35207\include\xtree
