; Listing generated by Microsoft (R) Optimizing Compiler Version 19.44.35217.0 

	TITLE	d:\_m2work\server client tmp4\clientvs22\vs_files\userinterface\distribute\pythonnetworkstreamphasegameactor.obj
	.686P
	.XMM
	include listing.inc
	.model	flat

INCLUDELIB OLDNAMES

PUBLIC	??_C@_0DO@OHBFGBBC@TPacketGCCharacterAdditionalInf@ ; `string'
PUBLIC	??_C@_0BH@EOJPPMKE@metin2_map_deviltower1@	; `string'
PUBLIC	??_C@_0CP@OFGIOGEL@TPacketGCCharacterAdd2?$LE?B?5?$LO?$LC?A?v?5?$LO@ ; `string'
PUBLIC	??_C@_0EC@LELEANAH@CPythonNetworkStream?3?3RecvChara@ ; `string'
PUBLIC	??_C@_0DN@ILCEHFKM@CPythonNetworkStream?3?3RecvChara@ ; `string'
;	COMDAT ??_C@_0DN@ILCEHFKM@CPythonNetworkStream?3?3RecvChara@
CONST	SEGMENT
??_C@_0DN@ILCEHFKM@CPythonNetworkStream?3?3RecvChara@ DB 'CPythonNetworkS'
	DB	'tream::RecvCharacterDeletePacket - Recv Error', 00H ; `string'
CONST	ENDS
;	COMDAT ??_C@_0EC@LELEANAH@CPythonNetworkStream?3?3RecvChara@
CONST	SEGMENT
??_C@_0EC@LELEANAH@CPythonNetworkStream?3?3RecvChara@ DB 'CPythonNetworkS'
	DB	'tream::RecvCharacterMovePacket - PACKET READ ERROR', 00H ; `string'
CONST	ENDS
;	COMDAT ??_C@_0CP@OFGIOGEL@TPacketGCCharacterAdd2?$LE?B?5?$LO?$LC?A?v?5?$LO@
CONST	SEGMENT
??_C@_0CP@OFGIOGEL@TPacketGCCharacterAdd2?$LE?B?5?$LO?$LC?A?v?5?$LO@ DB 'T'
	DB	'PacketGCCharacterAdd2', 0b4H, 0c2H, ' ', 0beH, 0b2H, 0c1H, 0f6H
	DB	' ', 0beH, 0caH, 0b4H, 0c2H, ' ', 0c6H, 0d0H, 0c5H, 0b6H, 0c0H
	DB	0d4H, 0b4H, 0cfH, 0b4H, 0d9H, '.', 00H	; `string'
CONST	ENDS
;	COMDAT ??_C@_0BH@EOJPPMKE@metin2_map_deviltower1@
CONST	SEGMENT
??_C@_0BH@EOJPPMKE@metin2_map_deviltower1@ DB 'metin2_map_deviltower1', 00H ; `string'
CONST	ENDS
;	COMDAT ??_C@_0DO@OHBFGBBC@TPacketGCCharacterAdditionalInf@
CONST	SEGMENT
??_C@_0DO@OHBFGBBC@TPacketGCCharacterAdditionalInf@ DB 'TPacketGCCharacte'
	DB	'rAdditionalInfo name=%s vid=%d race=%d Error', 00H ; `string'
PUBLIC	?__RecvCharacterUpdatePacket@CPythonNetworkStream@@IAEXPAUSNetworkUpdateActorData@@@Z ; CPythonNetworkStream::__RecvCharacterUpdatePacket
PUBLIC	?__RecvCharacterAppendPacket@CPythonNetworkStream@@IAEXPAUSNetworkActorData@@@Z ; CPythonNetworkStream::__RecvCharacterAppendPacket
PUBLIC	??1SNetworkUpdateActorData@@QAE@XZ		; SNetworkUpdateActorData::~SNetworkUpdateActorData
PUBLIC	?IsInvisibleRace@@YA_NG@Z			; IsInvisibleRace
PUBLIC	?__SetWeaponPower@@YAXAAVIAbstractPlayer@@K@Z	; __SetWeaponPower
PUBLIC	??0SNetworkUpdateActorData@@QAE@XZ		; SNetworkUpdateActorData::SNetworkUpdateActorData
PUBLIC	??0SNetworkMoveActorData@@QAE@XZ		; SNetworkMoveActorData::SNetworkMoveActorData
PUBLIC	?RecvCharacterAppendPacket@CPythonNetworkStream@@IAE_NXZ ; CPythonNetworkStream::RecvCharacterAppendPacket
PUBLIC	?RecvCharacterAdditionalInfo@CPythonNetworkStream@@IAE_NXZ ; CPythonNetworkStream::RecvCharacterAdditionalInfo
PUBLIC	?RecvCharacterAppendPacketNew@CPythonNetworkStream@@IAE_NXZ ; CPythonNetworkStream::RecvCharacterAppendPacketNew
PUBLIC	?RecvCharacterUpdatePacket@CPythonNetworkStream@@IAE_NXZ ; CPythonNetworkStream::RecvCharacterUpdatePacket
PUBLIC	?RecvCharacterUpdatePacketNew@CPythonNetworkStream@@IAE_NXZ ; CPythonNetworkStream::RecvCharacterUpdatePacketNew
PUBLIC	?RecvCharacterDeletePacket@CPythonNetworkStream@@IAE_NXZ ; CPythonNetworkStream::RecvCharacterDeletePacket
PUBLIC	?RecvSyncPositionPacket@CPythonNetworkStream@@IAE_NXZ ; CPythonNetworkStream::RecvSyncPositionPacket
PUBLIC	?RecvOwnerShipPacket@CPythonNetworkStream@@IAE_NXZ ; CPythonNetworkStream::RecvOwnerShipPacket
PUBLIC	?RecvCharacterMovePacket@CPythonNetworkStream@@IAE_NXZ ; CPythonNetworkStream::RecvCharacterMovePacket
PUBLIC	?__GlobalPositionToLocalPosition@CPythonNetworkStream@@IAEXAAJ0@Z ; CPythonNetworkStream::__GlobalPositionToLocalPosition
PUBLIC	?__ClearNetworkActorManager@CPythonNetworkStream@@IAEXXZ ; CPythonNetworkStream::__ClearNetworkActorManager
PUBLIC	?__CanActMainInstance@CPythonNetworkStream@@IAE_NXZ ; CPythonNetworkStream::__CanActMainInstance
PUBLIC	?__LocalPositionToGlobalPosition@CPythonNetworkStream@@IAEXAAJ0@Z ; CPythonNetworkStream::__LocalPositionToGlobalPosition
?s_kNetActorData@@3USNetworkActorData@@A DB 084H DUP (?) ; s_kNetActorData
_BSS	ENDS
;	COMDAT xdata$x
xdata$x	SEGMENT
__ehfuncinfo$?RecvCharacterAppendPacketNew@CPythonNetworkStream@@IAE_NXZ DD 019930522H
	DD	01H
	DD	FLAT:__unwindtable$?RecvCharacterAppendPacketNew@CPythonNetworkStream@@IAE_NXZ
	DD	2 DUP(00H)
	DD	2 DUP(00H)
	DD	00H
	DD	01H
__unwindtable$?RecvCharacterAppendPacketNew@CPythonNetworkStream@@IAE_NXZ DD 0ffffffffH
	DD	FLAT:__unwindfunclet$?RecvCharacterAppendPacketNew@CPythonNetworkStream@@IAE_NXZ$0
xdata$x	ENDS
;	COMDAT xdata$x
xdata$x	SEGMENT
__ehfuncinfo$?RecvCharacterAdditionalInfo@CPythonNetworkStream@@IAE_NXZ DD 019930522H
	DD	01H
	DD	FLAT:__unwindtable$?RecvCharacterAdditionalInfo@CPythonNetworkStream@@IAE_NXZ
	DD	2 DUP(00H)
	DD	2 DUP(00H)
	DD	00H
	DD	01H
__unwindtable$?RecvCharacterAdditionalInfo@CPythonNetworkStream@@IAE_NXZ DD 0ffffffffH
	DD	FLAT:__unwindfunclet$?RecvCharacterAdditionalInfo@CPythonNetworkStream@@IAE_NXZ$0
xdata$x	ENDS
;	COMDAT xdata$x
xdata$x	SEGMENT
__ehfuncinfo$?RecvCharacterAppendPacket@CPythonNetworkStream@@IAE_NXZ DD 019930522H
	DD	01H
	DD	FLAT:__unwindtable$?RecvCharacterAppendPacket@CPythonNetworkStream@@IAE_NXZ
	DD	2 DUP(00H)
	DD	2 DUP(00H)
	DD	00H
	DD	01H
__unwindtable$?RecvCharacterAppendPacket@CPythonNetworkStream@@IAE_NXZ DD 0ffffffffH
	DD	FLAT:__unwindfunclet$?RecvCharacterAppendPacket@CPythonNetworkStream@@IAE_NXZ$0
xdata$x	ENDS
;	COMDAT xdata$x
xdata$x	SEGMENT
__ehfuncinfo$?__RecvCharacterAppendPacket@CPythonNetworkStream@@IAEXPAUSNetworkActorData@@@Z DD 019930522H
	DD	01H
	DD	FLAT:__unwindtable$?__RecvCharacterAppendPacket@CPythonNetworkStream@@IAEXPAUSNetworkActorData@@@Z
	DD	2 DUP(00H)
	DD	2 DUP(00H)
	DD	00H
	DD	01H
__unwindtable$?__RecvCharacterAppendPacket@CPythonNetworkStream@@IAEXPAUSNetworkActorData@@@Z DD 0ffffffffH
	DD	FLAT:__unwindfunclet$?__RecvCharacterAppendPacket@CPythonNetworkStream@@IAEXPAUSNetworkActorData@@@Z$0
?s_kNetActorData$initializer$@@3P6AXXZA DD FLAT:??__Es_kNetActorData@@YAXXZ ; s_kNetActorData$initializer$
; Function compile flags: /Ogtp
; File D:\_m2work\Server Client TMP4\ClientVS22\source\UserInterface\PythonNetworkStreamPhaseGameActor.cpp
;	COMDAT ?__LocalPositionToGlobalPosition@CPythonNetworkStream@@IAEXAAJ0@Z
_TEXT	SEGMENT
_rLocalX$ = 8						; size = 4
_rLocalY$ = 12						; size = 4
?__LocalPositionToGlobalPosition@CPythonNetworkStream@@IAEXAAJ0@Z PROC ; CPythonNetworkStream::__LocalPositionToGlobalPosition, COMDAT
; _this$dead$ = ecx

; 21   : {

  00000	55		 push	 ebp
  00001	8b ec		 mov	 ebp, esp

; 22   : 	CPythonBackground&rkBgMgr=CPythonBackground::Instance();
; 23   : 	rkBgMgr.LocalPositionToGlobalPosition(rLocalX, rLocalY);

  00003	8b 0d 00 00 00
	00		 mov	 ecx, DWORD PTR ?ms_singleton@?$CSingleton@VCPythonBackground@@@@0PAVCPythonBackground@@A ; CSingleton<CPythonBackground>::ms_singleton

; 24   : }

  00009	5d		 pop	 ebp

; 22   : 	CPythonBackground&rkBgMgr=CPythonBackground::Instance();
; 23   : 	rkBgMgr.LocalPositionToGlobalPosition(rLocalX, rLocalY);

  0000a	e9 00 00 00 00	 jmp	 ?LocalPositionToGlobalPosition@CPythonBackground@@QAEXAAJ0@Z ; CPythonBackground::LocalPositionToGlobalPosition
?__LocalPositionToGlobalPosition@CPythonNetworkStream@@IAEXAAJ0@Z ENDP ; CPythonNetworkStream::__LocalPositionToGlobalPosition
_TEXT	ENDS
; Function compile flags: /Ogtp
; File D:\_m2work\Server Client TMP4\ClientVS22\source\UserInterface\PythonNetworkStreamPhaseGameActor.cpp
;	COMDAT ?__CanActMainInstance@CPythonNetworkStream@@IAE_NXZ
_TEXT	SEGMENT
?__CanActMainInstance@CPythonNetworkStream@@IAE_NXZ PROC ; CPythonNetworkStream::__CanActMainInstance, COMDAT
; _this$dead$ = ecx

; 28   : 	CPythonCharacterManager& rkChrMgr=CPythonCharacterManager::Instance();
; 29   : 	CInstanceBase* pkInstMain=rkChrMgr.GetMainInstancePtr();

  00000	8b 0d 00 00 00
	00		 mov	 ecx, DWORD PTR ?ms_singleton@?$CSingleton@VCPythonCharacterManager@@@@0PAVCPythonCharacterManager@@A ; CSingleton<CPythonCharacterManager>::ms_singleton
  00006	e8 00 00 00 00	 call	 ?GetMainInstancePtr@CPythonCharacterManager@@QAEPAVCInstanceBase@@XZ ; CPythonCharacterManager::GetMainInstancePtr

; 30   : 	if (!pkInstMain)

  0000b	85 c0		 test	 eax, eax
  0000d	75 03		 jne	 SHORT $LN2@CanActMain

; 31   : 		return false;

  0000f	32 c0		 xor	 al, al

; 34   : }

  00011	c3		 ret	 0
$LN2@CanActMain:

; 32   : 
; 33   : 	return pkInstMain->CanAct();

  00012	8b c8		 mov	 ecx, eax
  00014	e9 00 00 00 00	 jmp	 ?CanAct@CInstanceBase@@QAE_NXZ ; CInstanceBase::CanAct
?__CanActMainInstance@CPythonNetworkStream@@IAE_NXZ ENDP ; CPythonNetworkStream::__CanActMainInstance
_TEXT	ENDS
; Function compile flags: /Ogtp
; File D:\_m2work\Server Client TMP4\ClientVS22\source\UserInterface\PythonNetworkStreamPhaseGameActor.cpp
;	COMDAT ?__ClearNetworkActorManager@CPythonNetworkStream@@IAEXXZ
_TEXT	SEGMENT
?__ClearNetworkActorManager@CPythonNetworkStream@@IAEXXZ PROC ; CPythonNetworkStream::__ClearNetworkActorManager, COMDAT
; _this$ = ecx

; 38   : 	m_rokNetActorMgr->Destroy();

  00000	8b 89 0c 03 00
	00		 mov	 ecx, DWORD PTR [ecx+780]
  00006	e9 00 00 00 00	 jmp	 ?Destroy@CNetworkActorManager@@QAEXXZ ; CNetworkActorManager::Destroy
?__ClearNetworkActorManager@CPythonNetworkStream@@IAEXXZ ENDP ; CPythonNetworkStream::__ClearNetworkActorManager
_TEXT	ENDS
; Function compile flags: /Ogtp
; File D:\_m2work\Server Client TMP4\ClientVS22\source\UserInterface\PythonNetworkStreamPhaseGameActor.cpp
;	COMDAT ?__GlobalPositionToLocalPosition@CPythonNetworkStream@@IAEXAAJ0@Z
_TEXT	SEGMENT
_rGlobalX$ = 8						; size = 4
_rGlobalY$ = 12						; size = 4
?__GlobalPositionToLocalPosition@CPythonNetworkStream@@IAEXAAJ0@Z PROC ; CPythonNetworkStream::__GlobalPositionToLocalPosition, COMDAT
; _this$dead$ = ecx

; 15   : {

  00000	55		 push	 ebp
  00001	8b ec		 mov	 ebp, esp

; 16   : 	CPythonBackground&rkBgMgr=CPythonBackground::Instance();
; 17   : 	rkBgMgr.GlobalPositionToLocalPosition(rGlobalX, rGlobalY);

  00003	8b 0d 00 00 00
	00		 mov	 ecx, DWORD PTR ?ms_singleton@?$CSingleton@VCPythonBackground@@@@0PAVCPythonBackground@@A ; CSingleton<CPythonBackground>::ms_singleton

; 18   : }

  00009	5d		 pop	 ebp

; 16   : 	CPythonBackground&rkBgMgr=CPythonBackground::Instance();
; 17   : 	rkBgMgr.GlobalPositionToLocalPosition(rGlobalX, rGlobalY);

  0000a	e9 00 00 00 00	 jmp	 ?GlobalPositionToLocalPosition@CPythonBackground@@QAEXAAJ0@Z ; CPythonBackground::GlobalPositionToLocalPosition
?__GlobalPositionToLocalPosition@CPythonNetworkStream@@IAEXAAJ0@Z ENDP ; CPythonNetworkStream::__GlobalPositionToLocalPosition
_TEXT	ENDS
; Function compile flags: /Ogtp
; File D:\_m2work\Server Client TMP4\ClientVS22\source\UserInterface\PythonNetworkStreamPhaseGameActor.cpp
;	COMDAT ?RecvCharacterMovePacket@CPythonNetworkStream@@IAE_NXZ
_TEXT	SEGMENT
_kNetMoveActorData$ = -60				; size = 32
_kMovePacket$ = -28					; size = 24
__$ArrayPad$ = -4					; size = 4
?RecvCharacterMovePacket@CPythonNetworkStream@@IAE_NXZ PROC ; CPythonNetworkStream::RecvCharacterMovePacket, COMDAT
; _this$ = ecx

; 350  : {

  00000	55		 push	 ebp
  00001	8b ec		 mov	 ebp, esp
  00003	83 e4 f8	 and	 esp, -8			; fffffff8H
  00006	83 ec 3c	 sub	 esp, 60			; 0000003cH
  00009	a1 00 00 00 00	 mov	 eax, DWORD PTR ___security_cookie
  0000e	33 c4		 xor	 eax, esp
  00010	89 44 24 38	 mov	 DWORD PTR __$ArrayPad$[esp+60], eax
  00014	56		 push	 esi

; 351  : 	TPacketGCMove kMovePacket;
; 352  : 	if (!Recv(sizeof(TPacketGCMove), &kMovePacket))

  00015	8d 44 24 24	 lea	 eax, DWORD PTR _kMovePacket$[esp+64]
  00019	8b f1		 mov	 esi, ecx
  0001b	50		 push	 eax
  0001c	6a 18		 push	 24			; 00000018H
  0001e	e8 00 00 00 00	 call	 ?Recv@CNetworkStream@@QAE_NHPAX@Z ; CNetworkStream::Recv
  00023	84 c0		 test	 al, al
  00025	75 1f		 jne	 SHORT $LN2@RecvCharac

; 353  : 	{
; 354  : 		Tracen("CPythonNetworkStream::RecvCharacterMovePacket - PACKET READ ERROR");

  00027	68 00 00 00 00	 push	 OFFSET ??_C@_0EC@LELEANAH@CPythonNetworkStream?3?3RecvChara@
  0002c	e8 00 00 00 00	 call	 ?Tracen@@YAXPBD@Z	; Tracen
  00031	83 c4 04	 add	 esp, 4

; 355  : 		return false;

  00034	32 c0		 xor	 al, al

; 371  : 
; 372  : 	return true;
; 373  : }

  00036	5e		 pop	 esi
  00037	8b 4c 24 38	 mov	 ecx, DWORD PTR __$ArrayPad$[esp+60]
  0003b	33 cc		 xor	 ecx, esp
  0003d	e8 00 00 00 00	 call	 @__security_check_cookie@4
  00042	8b e5		 mov	 esp, ebp
  00044	5d		 pop	 ebp
  00045	c3		 ret	 0
$LN2@RecvCharac:

; 356  : 	}
; 357  : 
; 358  : 	__GlobalPositionToLocalPosition(kMovePacket.lX, kMovePacket.lY);

  00046	8d 44 24 30	 lea	 eax, DWORD PTR _kMovePacket$[esp+76]
  0004a	50		 push	 eax
  0004b	8d 44 24 30	 lea	 eax, DWORD PTR _kMovePacket$[esp+76]
  0004f	50		 push	 eax
  00050	e8 00 00 00 00	 call	 ?__GlobalPositionToLocalPosition@CPythonNetworkStream@@IAEXAAJ0@Z ; CPythonNetworkStream::__GlobalPositionToLocalPosition

; 359  : 
; 360  : 	SNetworkMoveActorData kNetMoveActorData;
; 361  : 	kNetMoveActorData.m_dwArg=kMovePacket.bArg;

  00055	0f b6 44 24 26	 movzx	 eax, BYTE PTR _kMovePacket$[esp+66]
  0005a	89 44 24 1c	 mov	 DWORD PTR _kNetMoveActorData$[esp+88], eax

; 362  : 	kNetMoveActorData.m_dwFunc=kMovePacket.bFunc;

  0005e	0f b6 44 24 25	 movzx	 eax, BYTE PTR _kMovePacket$[esp+65]

; 363  : 	kNetMoveActorData.m_dwTime=kMovePacket.dwTime;
; 364  : 	kNetMoveActorData.m_dwVID=kMovePacket.dwVID;
; 365  : 	kNetMoveActorData.m_fRot=kMovePacket.bRot*5.0f;
; 366  : 	kNetMoveActorData.m_lPosX=kMovePacket.lX;
; 367  : 	kNetMoveActorData.m_lPosY=kMovePacket.lY;
; 368  : 	kNetMoveActorData.m_dwDuration=kMovePacket.dwDuration;
; 369  : 
; 370  : 	m_rokNetActorMgr->MoveActor(kNetMoveActorData);

  00063	8b 8e 0c 03 00
	00		 mov	 ecx, DWORD PTR [esi+780]
  00069	89 44 24 18	 mov	 DWORD PTR _kNetMoveActorData$[esp+84], eax
  0006d	8b 44 24 34	 mov	 eax, DWORD PTR _kMovePacket$[esp+80]
  00071	89 44 24 08	 mov	 DWORD PTR _kNetMoveActorData$[esp+68], eax
  00075	8b 44 24 28	 mov	 eax, DWORD PTR _kMovePacket$[esp+68]
  00079	89 44 24 04	 mov	 DWORD PTR _kNetMoveActorData$[esp+64], eax
  0007d	0f b6 44 24 27	 movzx	 eax, BYTE PTR _kMovePacket$[esp+67]
  00082	66 0f 6e c0	 movd	 xmm0, eax
  00086	8b 44 24 2c	 mov	 eax, DWORD PTR _kMovePacket$[esp+72]
  0008a	0f 5b c0	 cvtdq2ps xmm0, xmm0
  0008d	89 44 24 0c	 mov	 DWORD PTR _kNetMoveActorData$[esp+72], eax
  00091	8b 44 24 30	 mov	 eax, DWORD PTR _kMovePacket$[esp+76]
  00095	89 44 24 10	 mov	 DWORD PTR _kNetMoveActorData$[esp+76], eax
  00099	8b 44 24 38	 mov	 eax, DWORD PTR _kMovePacket$[esp+84]
  0009d	89 44 24 20	 mov	 DWORD PTR _kNetMoveActorData$[esp+92], eax
  000a1	8d 44 24 04	 lea	 eax, DWORD PTR _kNetMoveActorData$[esp+64]
  000a5	f3 0f 59 05 00
	00 00 00	 mulss	 xmm0, DWORD PTR __real@40a00000
  000ad	50		 push	 eax
  000ae	f3 0f 11 44 24
	18		 movss	 DWORD PTR _kNetMoveActorData$[esp+84], xmm0
  000b4	e8 00 00 00 00	 call	 ?MoveActor@CNetworkActorManager@@QAEXABUSNetworkMoveActorData@@@Z ; CNetworkActorManager::MoveActor

; 371  : 
; 372  : 	return true;
; 373  : }

  000b9	8b 4c 24 3c	 mov	 ecx, DWORD PTR __$ArrayPad$[esp+64]
  000bd	b0 01		 mov	 al, 1
  000bf	5e		 pop	 esi
  000c0	33 cc		 xor	 ecx, esp
  000c2	e8 00 00 00 00	 call	 @__security_check_cookie@4
  000c7	8b e5		 mov	 esp, ebp
  000c9	5d		 pop	 ebp
  000ca	c3		 ret	 0
?RecvCharacterMovePacket@CPythonNetworkStream@@IAE_NXZ ENDP ; CPythonNetworkStream::RecvCharacterMovePacket
_TEXT	ENDS
; Function compile flags: /Ogtp
; File D:\_m2work\Server Client TMP4\ClientVS22\source\UserInterface\PythonNetworkStreamPhaseGameActor.cpp
;	COMDAT ?RecvOwnerShipPacket@CPythonNetworkStream@@IAE_NXZ
_TEXT	SEGMENT
_kPacketOwnership$ = -16				; size = 9
__$ArrayPad$ = -4					; size = 4
?RecvOwnerShipPacket@CPythonNetworkStream@@IAE_NXZ PROC	; CPythonNetworkStream::RecvOwnerShipPacket, COMDAT
; _this$ = ecx

; 376  : {

  00000	55		 push	 ebp
  00001	8b ec		 mov	 ebp, esp
  00003	83 ec 14	 sub	 esp, 20			; 00000014H
  00006	a1 00 00 00 00	 mov	 eax, DWORD PTR ___security_cookie
  0000b	33 c5		 xor	 eax, ebp
  0000d	89 45 fc	 mov	 DWORD PTR __$ArrayPad$[ebp], eax
  00010	56		 push	 esi

; 377  : 	TPacketGCOwnership kPacketOwnership;
; 378  : 
; 379  : 	if (!Recv(sizeof(kPacketOwnership), &kPacketOwnership))

  00011	8d 45 f0	 lea	 eax, DWORD PTR _kPacketOwnership$[ebp]
  00014	8b f1		 mov	 esi, ecx
  00016	50		 push	 eax
  00017	6a 09		 push	 9
  00019	e8 00 00 00 00	 call	 ?Recv@CNetworkStream@@QAE_NHPAX@Z ; CNetworkStream::Recv
  0001e	84 c0		 test	 al, al
  00020	75 0f		 jne	 SHORT $LN2@RecvOwnerS

; 383  : 
; 384  : 	return true;
; 385  : }

  00022	5e		 pop	 esi
  00023	8b 4d fc	 mov	 ecx, DWORD PTR __$ArrayPad$[ebp]
  00026	33 cd		 xor	 ecx, ebp
  00028	e8 00 00 00 00	 call	 @__security_check_cookie@4
  0002d	8b e5		 mov	 esp, ebp
  0002f	5d		 pop	 ebp
  00030	c3		 ret	 0
$LN2@RecvOwnerS:

; 380  : 		return false;
; 381  : 
; 382  : 	m_rokNetActorMgr->SetActorOwner(kPacketOwnership.dwOwnerVID, kPacketOwnership.dwVictimVID);

  00031	ff 75 f5	 push	 DWORD PTR _kPacketOwnership$[ebp+5]
  00034	8b 8e 0c 03 00
	00		 mov	 ecx, DWORD PTR [esi+780]
  0003a	ff 75 f1	 push	 DWORD PTR _kPacketOwnership$[ebp+1]
  0003d	e8 00 00 00 00	 call	 ?SetActorOwner@CNetworkActorManager@@QAEXKK@Z ; CNetworkActorManager::SetActorOwner

; 383  : 
; 384  : 	return true;
; 385  : }

  00042	8b 4d fc	 mov	 ecx, DWORD PTR __$ArrayPad$[ebp]
  00045	b0 01		 mov	 al, 1
  00047	33 cd		 xor	 ecx, ebp
  00049	5e		 pop	 esi
  0004a	e8 00 00 00 00	 call	 @__security_check_cookie@4
  0004f	8b e5		 mov	 esp, ebp
  00051	5d		 pop	 ebp
  00052	c3		 ret	 0
?RecvOwnerShipPacket@CPythonNetworkStream@@IAE_NXZ ENDP	; CPythonNetworkStream::RecvOwnerShipPacket
_TEXT	ENDS
; Function compile flags: /Ogtp
; File D:\_m2work\Server Client TMP4\ClientVS22\source\UserInterface\PythonNetworkStreamPhaseGameActor.cpp
;	COMDAT ?RecvSyncPositionPacket@CPythonNetworkStream@@IAE_NXZ
_TEXT	SEGMENT
_kPacketSyncPos$ = -20					; size = 3
_kSyncPos$ = -16					; size = 12
__$ArrayPad$ = -4					; size = 4
?RecvSyncPositionPacket@CPythonNetworkStream@@IAE_NXZ PROC ; CPythonNetworkStream::RecvSyncPositionPacket, COMDAT
; _this$ = ecx

; 388  : {

  00000	55		 push	 ebp
  00001	8b ec		 mov	 ebp, esp
  00003	83 ec 14	 sub	 esp, 20			; 00000014H
  00006	a1 00 00 00 00	 mov	 eax, DWORD PTR ___security_cookie
  0000b	33 c5		 xor	 eax, ebp
  0000d	89 45 fc	 mov	 DWORD PTR __$ArrayPad$[ebp], eax
  00010	53		 push	 ebx
  00011	56		 push	 esi
  00012	57		 push	 edi

; 389  : 	TPacketGCSyncPosition kPacketSyncPos;
; 390  : 	if (!Recv(sizeof(kPacketSyncPos), &kPacketSyncPos))

  00013	8d 45 ec	 lea	 eax, DWORD PTR _kPacketSyncPos$[ebp]
  00016	8b f1		 mov	 esi, ecx
  00018	50		 push	 eax
  00019	6a 03		 push	 3
  0001b	e8 00 00 00 00	 call	 ?Recv@CNetworkStream@@QAE_NHPAX@Z ; CNetworkStream::Recv
  00020	84 c0		 test	 al, al
  00022	74 66		 je	 SHORT $LN11@RecvSyncPo

; 391  : 		return false;
; 392  : 
; 393  : 	TPacketGCSyncPositionElement kSyncPos;
; 394  : 
; 395  : 	UINT uSyncPosCount=(kPacketSyncPos.wSize-sizeof(kPacketSyncPos))/sizeof(kSyncPos);

  00024	0f b7 4d ed	 movzx	 ecx, WORD PTR _kPacketSyncPos$[ebp+1]
  00028	b8 ab aa aa aa	 mov	 eax, -1431655765	; aaaaaaabH
  0002d	83 e9 03	 sub	 ecx, 3

; 396  : 	for (UINT iSyncPos=0; iSyncPos<uSyncPosCount; ++iSyncPos)

  00030	33 ff		 xor	 edi, edi
  00032	f7 e1		 mul	 ecx
  00034	8b da		 mov	 ebx, edx
  00036	c1 eb 03	 shr	 ebx, 3
  00039	85 db		 test	 ebx, ebx
  0003b	74 3a		 je	 SHORT $LN3@RecvSyncPo
  0003d	0f 1f 00	 npad	 3
$LL4@RecvSyncPo:

; 397  : 	{		
; 398  : 		if (!Recv(sizeof(TPacketGCSyncPositionElement), &kSyncPos))

  00040	8d 45 f0	 lea	 eax, DWORD PTR _kSyncPos$[ebp]
  00043	8b ce		 mov	 ecx, esi
  00045	50		 push	 eax
  00046	6a 0c		 push	 12			; 0000000cH
  00048	e8 00 00 00 00	 call	 ?Recv@CNetworkStream@@QAE_NHPAX@Z ; CNetworkStream::Recv
  0004d	84 c0		 test	 al, al
  0004f	74 39		 je	 SHORT $LN11@RecvSyncPo

; 399  : 			return false;
; 400  : 
; 401  : #ifdef __MOVIE_MODE__
; 402  : 		return true;
; 403  : #endif __MOVIE_MODE__
; 404  : 
; 405  : 		//Tracenf("CPythonNetworkStream::RecvSyncPositionPacket %d (%d, %d)", kSyncPos.dwVID, kSyncPos.lX, kSyncPos.lY);
; 406  : 
; 407  : 		__GlobalPositionToLocalPosition(kSyncPos.lX, kSyncPos.lY);

  00051	8d 45 f8	 lea	 eax, DWORD PTR _kSyncPos$[ebp+8]
  00054	50		 push	 eax
  00055	8d 45 f4	 lea	 eax, DWORD PTR _kSyncPos$[ebp+4]
  00058	50		 push	 eax
  00059	e8 00 00 00 00	 call	 ?__GlobalPositionToLocalPosition@CPythonNetworkStream@@IAEXAAJ0@Z ; CPythonNetworkStream::__GlobalPositionToLocalPosition

; 408  : 		m_rokNetActorMgr->SyncActor(kSyncPos.dwVID, kSyncPos.lX, kSyncPos.lY);

  0005e	ff 75 f8	 push	 DWORD PTR _kSyncPos$[ebp+8]
  00061	8b 8e 0c 03 00
	00		 mov	 ecx, DWORD PTR [esi+780]
  00067	ff 75 f4	 push	 DWORD PTR _kSyncPos$[ebp+4]
  0006a	ff 75 f0	 push	 DWORD PTR _kSyncPos$[ebp]
  0006d	e8 00 00 00 00	 call	 ?SyncActor@CNetworkActorManager@@QAEXKJJ@Z ; CNetworkActorManager::SyncActor
  00072	47		 inc	 edi
  00073	3b fb		 cmp	 edi, ebx
  00075	72 c9		 jb	 SHORT $LL4@RecvSyncPo
$LN3@RecvSyncPo:

; 409  : 
; 410  : 		/*
; 411  : 		CPythonCharacterManager & rkChrMgr = CPythonCharacterManager::Instance();
; 412  : 		CInstanceBase * pkChrInst = rkChrMgr.GetInstancePtr(kSyncPos.dwVID);
; 413  : 
; 414  : 		if (pkChrInst)
; 415  : 		{			
; 416  : 			pkChrInst->NEW_SyncPixelPosition(kSyncPos.lX, kSyncPos.lY);		
; 417  : 		}
; 418  : 		*/
; 419  : }
; 420  : 
; 421  : 	return true;

  00077	b0 01		 mov	 al, 1

; 422  : }

  00079	5f		 pop	 edi
  0007a	5e		 pop	 esi
  0007b	5b		 pop	 ebx
  0007c	8b 4d fc	 mov	 ecx, DWORD PTR __$ArrayPad$[ebp]
  0007f	33 cd		 xor	 ecx, ebp
  00081	e8 00 00 00 00	 call	 @__security_check_cookie@4
  00086	8b e5		 mov	 esp, ebp
  00088	5d		 pop	 ebp
  00089	c3		 ret	 0
$LN11@RecvSyncPo:
  0008a	8b 4d fc	 mov	 ecx, DWORD PTR __$ArrayPad$[ebp]
  0008d	32 c0		 xor	 al, al
  0008f	5f		 pop	 edi
  00090	5e		 pop	 esi
  00091	33 cd		 xor	 ecx, ebp
  00093	5b		 pop	 ebx
  00094	e8 00 00 00 00	 call	 @__security_check_cookie@4
  00099	8b e5		 mov	 esp, ebp
  0009b	5d		 pop	 ebp
  0009c	c3		 ret	 0
?RecvSyncPositionPacket@CPythonNetworkStream@@IAE_NXZ ENDP ; CPythonNetworkStream::RecvSyncPositionPacket
_TEXT	ENDS
; Function compile flags: /Ogtp
; File D:\_m2work\Server Client TMP4\ClientVS22\source\UserInterface\PythonNetworkStreamPhaseGameActor.cpp
;	COMDAT ?RecvCharacterDeletePacket@CPythonNetworkStream@@IAE_NXZ
_TEXT	SEGMENT
_chrDelPacket$ = -8					; size = 5
?RecvCharacterDeletePacket@CPythonNetworkStream@@IAE_NXZ PROC ; CPythonNetworkStream::RecvCharacterDeletePacket, COMDAT
; _this$ = ecx

; 327  : {

  00000	55		 push	 ebp
  00001	8b ec		 mov	 ebp, esp
  00003	83 ec 08	 sub	 esp, 8

; 328  : 	TPacketGCCharacterDelete chrDelPacket;
; 329  : 
; 330  : 	if (!Recv(sizeof(chrDelPacket), &chrDelPacket))

  00006	8d 45 f8	 lea	 eax, DWORD PTR _chrDelPacket$[ebp]
  00009	56		 push	 esi
  0000a	50		 push	 eax
  0000b	6a 05		 push	 5
  0000d	8b f1		 mov	 esi, ecx
  0000f	e8 00 00 00 00	 call	 ?Recv@CNetworkStream@@QAE_NHPAX@Z ; CNetworkStream::Recv
  00014	84 c0		 test	 al, al
  00016	75 14		 jne	 SHORT $LN2@RecvCharac

; 331  : 	{
; 332  : 		TraceError("CPythonNetworkStream::RecvCharacterDeletePacket - Recv Error");

  00018	68 00 00 00 00	 push	 OFFSET ??_C@_0DN@ILCEHFKM@CPythonNetworkStream?3?3RecvChara@
  0001d	e8 00 00 00 00	 call	 ?TraceError@@YAXPBDZZ	; TraceError
  00022	83 c4 04	 add	 esp, 4

; 333  : 		return false;

  00025	32 c0		 xor	 al, al
  00027	5e		 pop	 esi

; 346  : }

  00028	8b e5		 mov	 esp, ebp
  0002a	5d		 pop	 ebp
  0002b	c3		 ret	 0
$LN2@RecvCharac:

; 334  : 	}
; 335  : 
; 336  : 	m_rokNetActorMgr->RemoveActor(chrDelPacket.dwVID);

  0002c	ff 75 f9	 push	 DWORD PTR _chrDelPacket$[ebp+1]
  0002f	8b 8e 0c 03 00
	00		 mov	 ecx, DWORD PTR [esi+780]
  00035	e8 00 00 00 00	 call	 ?RemoveActor@CNetworkActorManager@@QAEXK@Z ; CNetworkActorManager::RemoveActor

; 337  : 
; 338  : 	// 캐릭터가 사라질때 개인 상점도 없애줍니다.
; 339  : 	// Key Check 를 하기때문에 없어도 상관은 없습니다.
; 340  : 	PyCallClassMemberFunc(m_apoPhaseWnd[PHASE_WINDOW_GAME], 

  0003a	ff 75 f9	 push	 DWORD PTR _chrDelPacket$[ebp+1]
  0003d	68 00 00 00 00	 push	 OFFSET ??_C@_03LIHNMIHG@?$CIi?$CJ@
  00042	ff 15 00 00 00
	00		 call	 DWORD PTR __imp__Py_BuildValue
  00048	50		 push	 eax
  00049	68 00 00 00 00	 push	 OFFSET ??_C@_0BN@BEOHMMCM@BINARY_PrivateShop_Disappear@
  0004e	ff b6 90 01 00
	00		 push	 DWORD PTR [esi+400]
  00054	e8 00 00 00 00	 call	 ?PyCallClassMemberFunc@@YA_NPAU_object@@PBD0@Z ; PyCallClassMemberFunc
  00059	83 c4 14	 add	 esp, 20			; 00000014H

; 341  : 		"BINARY_PrivateShop_Disappear", 
; 342  : 		Py_BuildValue("(i)", chrDelPacket.dwVID)
; 343  : 	);
; 344  : 
; 345  : 	return true;

  0005c	b0 01		 mov	 al, 1
  0005e	5e		 pop	 esi

; 346  : }

  0005f	8b e5		 mov	 esp, ebp
  00061	5d		 pop	 ebp
  00062	c3		 ret	 0
?RecvCharacterDeletePacket@CPythonNetworkStream@@IAE_NXZ ENDP ; CPythonNetworkStream::RecvCharacterDeletePacket
_TEXT	ENDS
; Function compile flags: /Ogtp
; File D:\_m2work\Server Client TMP4\ClientVS22\source\UserInterface\PythonNetworkStreamPhaseGameActor.cpp
;	COMDAT ?RecvCharacterUpdatePacketNew@CPythonNetworkStream@@IAE_NXZ
_TEXT	SEGMENT
_kNetUpdateActorData$ = -88				; size = 48
_chrUpdatePacket$ = -40					; size = 35
__$ArrayPad$ = -4					; size = 4
?RecvCharacterUpdatePacketNew@CPythonNetworkStream@@IAE_NXZ PROC ; CPythonNetworkStream::RecvCharacterUpdatePacketNew, COMDAT
; _this$ = ecx

; 237  : {

  00000	55		 push	 ebp
  00001	8b ec		 mov	 ebp, esp
  00003	83 ec 5c	 sub	 esp, 92			; 0000005cH
  00006	a1 00 00 00 00	 mov	 eax, DWORD PTR ___security_cookie
  0000b	33 c5		 xor	 eax, ebp
  0000d	89 45 fc	 mov	 DWORD PTR __$ArrayPad$[ebp], eax
  00010	56		 push	 esi

; 238  : 	TPacketGCCharacterUpdate2 chrUpdatePacket;
; 239  : 	if (!Recv(sizeof(chrUpdatePacket), &chrUpdatePacket))

  00011	8d 45 d8	 lea	 eax, DWORD PTR _chrUpdatePacket$[ebp]
  00014	8b f1		 mov	 esi, ecx
  00016	50		 push	 eax
  00017	6a 23		 push	 35			; 00000023H
  00019	e8 00 00 00 00	 call	 ?Recv@CNetworkStream@@QAE_NHPAX@Z ; CNetworkStream::Recv
  0001e	84 c0		 test	 al, al
  00020	75 0f		 jne	 SHORT $LN2@RecvCharac

; 257  : 
; 258  : 	return true;
; 259  : }

  00022	5e		 pop	 esi
  00023	8b 4d fc	 mov	 ecx, DWORD PTR __$ArrayPad$[ebp]
  00026	33 cd		 xor	 ecx, ebp
  00028	e8 00 00 00 00	 call	 @__security_check_cookie@4
  0002d	8b e5		 mov	 esp, ebp
  0002f	5d		 pop	 ebp
  00030	c3		 ret	 0
$LN2@RecvCharac:

; 240  : 		return false;
; 241  : 
; 242  : 	SNetworkUpdateActorData kNetUpdateActorData;

  00031	8d 4d a8	 lea	 ecx, DWORD PTR _kNetUpdateActorData$[ebp]
  00034	e8 00 00 00 00	 call	 ??0SNetworkUpdateActorData@@QAE@XZ ; SNetworkUpdateActorData::SNetworkUpdateActorData

; 243  : 	kNetUpdateActorData.m_dwGuildID=chrUpdatePacket.dwGuildID;

  00039	8b 45 f0	 mov	 eax, DWORD PTR _chrUpdatePacket$[ebp+24]
  0003c	89 45 ac	 mov	 DWORD PTR _kNetUpdateActorData$[ebp+4], eax

; 244  : 	kNetUpdateActorData.m_dwMovSpd=chrUpdatePacket.bMovingSpeed;

  0003f	0f b6 45 e5	 movzx	 eax, BYTE PTR _chrUpdatePacket$[ebp+13]
  00043	89 45 bc	 mov	 DWORD PTR _kNetUpdateActorData$[ebp+20], eax

; 245  : 	kNetUpdateActorData.m_dwAtkSpd=chrUpdatePacket.bAttackSpeed;

  00046	0f b6 45 e6	 movzx	 eax, BYTE PTR _chrUpdatePacket$[ebp+14]
  0004a	89 45 c0	 mov	 DWORD PTR _kNetUpdateActorData$[ebp+24], eax

; 246  : 	kNetUpdateActorData.m_dwArmor=chrUpdatePacket.awPart[CHR_EQUIPPART_ARMOR];

  0004d	0f b7 45 dd	 movzx	 eax, WORD PTR _chrUpdatePacket$[ebp+5]
  00051	89 45 b0	 mov	 DWORD PTR _kNetUpdateActorData$[ebp+8], eax

; 247  : 	kNetUpdateActorData.m_dwWeapon=chrUpdatePacket.awPart[CHR_EQUIPPART_WEAPON];

  00054	0f b7 45 df	 movzx	 eax, WORD PTR _chrUpdatePacket$[ebp+7]
  00058	89 45 b4	 mov	 DWORD PTR _kNetUpdateActorData$[ebp+12], eax

; 248  : 	kNetUpdateActorData.m_dwHair=chrUpdatePacket.awPart[CHR_EQUIPPART_HAIR];

  0005b	0f b7 45 e3	 movzx	 eax, WORD PTR _chrUpdatePacket$[ebp+11]
  0005f	89 45 b8	 mov	 DWORD PTR _kNetUpdateActorData$[ebp+16], eax

; 249  : 	kNetUpdateActorData.m_dwVID=chrUpdatePacket.dwVID;

  00062	8b 45 d9	 mov	 eax, DWORD PTR _chrUpdatePacket$[ebp+1]
  00065	89 45 a8	 mov	 DWORD PTR _kNetUpdateActorData$[ebp], eax

; 250  : 	kNetUpdateActorData.m_kAffectFlags.CopyData(0, sizeof(chrUpdatePacket.dwAffectFlag[0]), &chrUpdatePacket.dwAffectFlag[0]);

  00068	8d 45 e8	 lea	 eax, DWORD PTR _chrUpdatePacket$[ebp+16]
  0006b	50		 push	 eax
  0006c	51		 push	 ecx
  0006d	6a 00		 push	 0
  0006f	8d 4d d0	 lea	 ecx, DWORD PTR _kNetUpdateActorData$[ebp+40]
  00072	e8 00 00 00 00	 call	 ?CopyData@CAffectFlagContainer@@QAEXIIPBX@Z ; CAffectFlagContainer::CopyData

; 251  : 	kNetUpdateActorData.m_kAffectFlags.CopyData(32, sizeof(chrUpdatePacket.dwAffectFlag[1]), &chrUpdatePacket.dwAffectFlag[1]);

  00077	8d 45 ec	 lea	 eax, DWORD PTR _chrUpdatePacket$[ebp+20]
  0007a	50		 push	 eax
  0007b	51		 push	 ecx
  0007c	6a 20		 push	 32			; 00000020H
  0007e	8d 4d d0	 lea	 ecx, DWORD PTR _kNetUpdateActorData$[ebp+40]
  00081	e8 00 00 00 00	 call	 ?CopyData@CAffectFlagContainer@@QAEXIIPBX@Z ; CAffectFlagContainer::CopyData

; 252  : 	kNetUpdateActorData.m_sAlignment=chrUpdatePacket.sAlignment;

  00086	66 8b 45 f4	 mov	 ax, WORD PTR _chrUpdatePacket$[ebp+28]

; 253  : 	kNetUpdateActorData.m_byPKMode=chrUpdatePacket.bPKMode;
; 254  : 	kNetUpdateActorData.m_dwStateFlags=chrUpdatePacket.bStateFlag;
; 255  : 	kNetUpdateActorData.m_dwMountVnum=chrUpdatePacket.dwMountVnum;
; 256  : 	__RecvCharacterUpdatePacket(&kNetUpdateActorData);

  0008a	8b ce		 mov	 ecx, esi
  0008c	66 89 45 c4	 mov	 WORD PTR _kNetUpdateActorData$[ebp+28], ax
  00090	8a 45 f6	 mov	 al, BYTE PTR _chrUpdatePacket$[ebp+30]
  00093	88 45 c6	 mov	 BYTE PTR _kNetUpdateActorData$[ebp+30], al
  00096	0f b6 45 e7	 movzx	 eax, BYTE PTR _chrUpdatePacket$[ebp+15]
  0009a	89 45 cc	 mov	 DWORD PTR _kNetUpdateActorData$[ebp+36], eax
  0009d	8b 45 f7	 mov	 eax, DWORD PTR _chrUpdatePacket$[ebp+31]
  000a0	89 45 c8	 mov	 DWORD PTR _kNetUpdateActorData$[ebp+32], eax
  000a3	8d 45 a8	 lea	 eax, DWORD PTR _kNetUpdateActorData$[ebp]
  000a6	50		 push	 eax
  000a7	e8 00 00 00 00	 call	 ?__RecvCharacterUpdatePacket@CPythonNetworkStream@@IAEXPAUSNetworkUpdateActorData@@@Z ; CPythonNetworkStream::__RecvCharacterUpdatePacket

; 257  : 
; 258  : 	return true;
; 259  : }

  000ac	8b 4d fc	 mov	 ecx, DWORD PTR __$ArrayPad$[ebp]
  000af	b0 01		 mov	 al, 1
  000b1	33 cd		 xor	 ecx, ebp
  000b3	5e		 pop	 esi
  000b4	e8 00 00 00 00	 call	 @__security_check_cookie@4
  000b9	8b e5		 mov	 esp, ebp
  000bb	5d		 pop	 ebp
  000bc	c3		 ret	 0
?RecvCharacterUpdatePacketNew@CPythonNetworkStream@@IAE_NXZ ENDP ; CPythonNetworkStream::RecvCharacterUpdatePacketNew
_TEXT	ENDS
; Function compile flags: /Ogtp
; File D:\_m2work\Server Client TMP4\ClientVS22\source\UserInterface\PythonNetworkStreamPhaseGameActor.cpp
;	COMDAT ?RecvCharacterUpdatePacket@CPythonNetworkStream@@IAE_NXZ
_TEXT	SEGMENT
_kNetUpdateActorData$ = -88				; size = 48
_chrUpdatePacket$ = -40					; size = 35
__$ArrayPad$ = -4					; size = 4
?RecvCharacterUpdatePacket@CPythonNetworkStream@@IAE_NXZ PROC ; CPythonNetworkStream::RecvCharacterUpdatePacket, COMDAT
; _this$ = ecx

; 212  : {

  00000	55		 push	 ebp
  00001	8b ec		 mov	 ebp, esp
  00003	83 ec 5c	 sub	 esp, 92			; 0000005cH
  00006	a1 00 00 00 00	 mov	 eax, DWORD PTR ___security_cookie
  0000b	33 c5		 xor	 eax, ebp
  0000d	89 45 fc	 mov	 DWORD PTR __$ArrayPad$[ebp], eax
  00010	56		 push	 esi

; 213  : 	TPacketGCCharacterUpdate chrUpdatePacket;
; 214  : 	if (!Recv(sizeof(chrUpdatePacket), &chrUpdatePacket))

  00011	8d 45 d8	 lea	 eax, DWORD PTR _chrUpdatePacket$[ebp]
  00014	8b f1		 mov	 esi, ecx
  00016	50		 push	 eax
  00017	6a 23		 push	 35			; 00000023H
  00019	e8 00 00 00 00	 call	 ?Recv@CNetworkStream@@QAE_NHPAX@Z ; CNetworkStream::Recv
  0001e	84 c0		 test	 al, al
  00020	75 0f		 jne	 SHORT $LN2@RecvCharac

; 232  : 
; 233  : 	return true;
; 234  : }

  00022	5e		 pop	 esi
  00023	8b 4d fc	 mov	 ecx, DWORD PTR __$ArrayPad$[ebp]
  00026	33 cd		 xor	 ecx, ebp
  00028	e8 00 00 00 00	 call	 @__security_check_cookie@4
  0002d	8b e5		 mov	 esp, ebp
  0002f	5d		 pop	 ebp
  00030	c3		 ret	 0
$LN2@RecvCharac:

; 215  : 		return false;
; 216  : 
; 217  : 	SNetworkUpdateActorData kNetUpdateActorData;

  00031	8d 4d a8	 lea	 ecx, DWORD PTR _kNetUpdateActorData$[ebp]
  00034	e8 00 00 00 00	 call	 ??0SNetworkUpdateActorData@@QAE@XZ ; SNetworkUpdateActorData::SNetworkUpdateActorData

; 218  : 	kNetUpdateActorData.m_dwGuildID=chrUpdatePacket.dwGuildID;

  00039	8b 45 f0	 mov	 eax, DWORD PTR _chrUpdatePacket$[ebp+24]
  0003c	89 45 ac	 mov	 DWORD PTR _kNetUpdateActorData$[ebp+4], eax

; 219  : 	kNetUpdateActorData.m_dwMovSpd=chrUpdatePacket.bMovingSpeed;

  0003f	0f b6 45 e5	 movzx	 eax, BYTE PTR _chrUpdatePacket$[ebp+13]
  00043	89 45 bc	 mov	 DWORD PTR _kNetUpdateActorData$[ebp+20], eax

; 220  : 	kNetUpdateActorData.m_dwAtkSpd=chrUpdatePacket.bAttackSpeed;

  00046	0f b6 45 e6	 movzx	 eax, BYTE PTR _chrUpdatePacket$[ebp+14]
  0004a	89 45 c0	 mov	 DWORD PTR _kNetUpdateActorData$[ebp+24], eax

; 221  : 	kNetUpdateActorData.m_dwArmor=chrUpdatePacket.awPart[CHR_EQUIPPART_ARMOR];

  0004d	0f b7 45 dd	 movzx	 eax, WORD PTR _chrUpdatePacket$[ebp+5]
  00051	89 45 b0	 mov	 DWORD PTR _kNetUpdateActorData$[ebp+8], eax

; 222  : 	kNetUpdateActorData.m_dwWeapon=chrUpdatePacket.awPart[CHR_EQUIPPART_WEAPON];

  00054	0f b7 45 df	 movzx	 eax, WORD PTR _chrUpdatePacket$[ebp+7]
  00058	89 45 b4	 mov	 DWORD PTR _kNetUpdateActorData$[ebp+12], eax

; 223  : 	kNetUpdateActorData.m_dwHair=chrUpdatePacket.awPart[CHR_EQUIPPART_HAIR];

  0005b	0f b7 45 e3	 movzx	 eax, WORD PTR _chrUpdatePacket$[ebp+11]
  0005f	89 45 b8	 mov	 DWORD PTR _kNetUpdateActorData$[ebp+16], eax

; 224  : 	kNetUpdateActorData.m_dwVID=chrUpdatePacket.dwVID;	

  00062	8b 45 d9	 mov	 eax, DWORD PTR _chrUpdatePacket$[ebp+1]
  00065	89 45 a8	 mov	 DWORD PTR _kNetUpdateActorData$[ebp], eax

; 225  : 	kNetUpdateActorData.m_kAffectFlags.CopyData(0, sizeof(chrUpdatePacket.dwAffectFlag[0]), &chrUpdatePacket.dwAffectFlag[0]);

  00068	8d 45 e8	 lea	 eax, DWORD PTR _chrUpdatePacket$[ebp+16]
  0006b	50		 push	 eax
  0006c	51		 push	 ecx
  0006d	6a 00		 push	 0
  0006f	8d 4d d0	 lea	 ecx, DWORD PTR _kNetUpdateActorData$[ebp+40]
  00072	e8 00 00 00 00	 call	 ?CopyData@CAffectFlagContainer@@QAEXIIPBX@Z ; CAffectFlagContainer::CopyData

; 226  : 	kNetUpdateActorData.m_kAffectFlags.CopyData(32, sizeof(chrUpdatePacket.dwAffectFlag[1]), &chrUpdatePacket.dwAffectFlag[1]);

  00077	8d 45 ec	 lea	 eax, DWORD PTR _chrUpdatePacket$[ebp+20]
  0007a	50		 push	 eax
  0007b	51		 push	 ecx
  0007c	6a 20		 push	 32			; 00000020H
  0007e	8d 4d d0	 lea	 ecx, DWORD PTR _kNetUpdateActorData$[ebp+40]
  00081	e8 00 00 00 00	 call	 ?CopyData@CAffectFlagContainer@@QAEXIIPBX@Z ; CAffectFlagContainer::CopyData

; 227  : 	kNetUpdateActorData.m_sAlignment=chrUpdatePacket.sAlignment;

  00086	66 8b 45 f4	 mov	 ax, WORD PTR _chrUpdatePacket$[ebp+28]

; 228  : 	kNetUpdateActorData.m_byPKMode=chrUpdatePacket.bPKMode;
; 229  : 	kNetUpdateActorData.m_dwStateFlags=chrUpdatePacket.bStateFlag;
; 230  : 	kNetUpdateActorData.m_dwMountVnum=chrUpdatePacket.dwMountVnum;
; 231  : 	__RecvCharacterUpdatePacket(&kNetUpdateActorData);

  0008a	8b ce		 mov	 ecx, esi
  0008c	66 89 45 c4	 mov	 WORD PTR _kNetUpdateActorData$[ebp+28], ax
  00090	8a 45 f6	 mov	 al, BYTE PTR _chrUpdatePacket$[ebp+30]
  00093	88 45 c6	 mov	 BYTE PTR _kNetUpdateActorData$[ebp+30], al
  00096	0f b6 45 e7	 movzx	 eax, BYTE PTR _chrUpdatePacket$[ebp+15]
  0009a	89 45 cc	 mov	 DWORD PTR _kNetUpdateActorData$[ebp+36], eax
  0009d	8b 45 f7	 mov	 eax, DWORD PTR _chrUpdatePacket$[ebp+31]
  000a0	89 45 c8	 mov	 DWORD PTR _kNetUpdateActorData$[ebp+32], eax
  000a3	8d 45 a8	 lea	 eax, DWORD PTR _kNetUpdateActorData$[ebp]
  000a6	50		 push	 eax
  000a7	e8 00 00 00 00	 call	 ?__RecvCharacterUpdatePacket@CPythonNetworkStream@@IAEXPAUSNetworkUpdateActorData@@@Z ; CPythonNetworkStream::__RecvCharacterUpdatePacket

; 232  : 
; 233  : 	return true;
; 234  : }

  000ac	8b 4d fc	 mov	 ecx, DWORD PTR __$ArrayPad$[ebp]
  000af	b0 01		 mov	 al, 1
  000b1	33 cd		 xor	 ecx, ebp
  000b3	5e		 pop	 esi
  000b4	e8 00 00 00 00	 call	 @__security_check_cookie@4
  000b9	8b e5		 mov	 esp, ebp
  000bb	5d		 pop	 ebp
  000bc	c3		 ret	 0
?RecvCharacterUpdatePacket@CPythonNetworkStream@@IAE_NXZ ENDP ; CPythonNetworkStream::RecvCharacterUpdatePacket
_TEXT	ENDS
; Function compile flags: /Ogtp
; File D:\_m2work\Server Client TMP4\ClientVS22\source\UserInterface\PythonNetworkStreamPhaseGameActor.cpp
; File C:\Program Files\Microsoft Visual Studio\2022\Community\VC\Tools\MSVC\14.44.35207\include\__msvc_string_view.hpp
; File D:\_m2work\Server Client TMP4\ClientVS22\source\UserInterface\PythonNetworkStreamPhaseGameActor.cpp
; File C:\Program Files\Microsoft Visual Studio\2022\Community\VC\Tools\MSVC\14.44.35207\include\__msvc_string_view.hpp
; File D:\_m2work\Server Client TMP4\ClientVS22\source\UserInterface\PythonNetworkStreamPhaseGameActor.cpp
; File C:\Program Files\Microsoft Visual Studio\2022\Community\VC\Tools\MSVC\14.44.35207\include\__msvc_string_view.hpp
; File C:\Program Files\Microsoft Visual Studio\2022\Community\VC\Tools\MSVC\14.44.35207\include\xstring
; File D:\_m2work\Server Client TMP4\ClientVS22\source\UserInterface\PythonNetworkStreamPhaseGameActor.cpp
; File C:\Program Files\Microsoft Visual Studio\2022\Community\VC\Tools\MSVC\14.44.35207\include\xstring
; File D:\_m2work\Server Client TMP4\ClientVS22\source\UserInterface\PythonNetworkStreamPhaseGameActor.cpp
;	COMDAT ?RecvCharacterAppendPacketNew@CPythonNetworkStream@@IAE_NXZ
_TEXT	SEGMENT
_kNetActorData$ = -232					; size = 132
_chrAddPacket$ = -96					; size = 80
__$ArrayPad$ = -16					; size = 4
__$EHRec$ = -12						; size = 12
?RecvCharacterAppendPacketNew@CPythonNetworkStream@@IAE_NXZ PROC ; CPythonNetworkStream::RecvCharacterAppendPacketNew, COMDAT
; _this$ = ecx

; 175  : {

  00000	55		 push	 ebp
  00001	8b ec		 mov	 ebp, esp
  00003	6a ff		 push	 -1
  00005	68 00 00 00 00	 push	 __ehhandler$?RecvCharacterAppendPacketNew@CPythonNetworkStream@@IAE_NXZ
  0000a	64 a1 00 00 00
	00		 mov	 eax, DWORD PTR fs:0
  00010	50		 push	 eax
  00011	81 ec dc 00 00
	00		 sub	 esp, 220		; 000000dcH
  00017	a1 00 00 00 00	 mov	 eax, DWORD PTR ___security_cookie
  0001c	33 c5		 xor	 eax, ebp
  0001e	89 45 f0	 mov	 DWORD PTR __$ArrayPad$[ebp], eax
  00021	56		 push	 esi
  00022	50		 push	 eax
  00023	8d 45 f4	 lea	 eax, DWORD PTR __$EHRec$[ebp]
  00026	64 a3 00 00 00
	00		 mov	 DWORD PTR fs:0, eax
  0002c	8b f1		 mov	 esi, ecx

; 176  : 	TraceError("TPacketGCCharacterAdd2는 쓰지 않는 패킷입니다.");

  0002e	68 00 00 00 00	 push	 OFFSET ??_C@_0CP@OFGIOGEL@TPacketGCCharacterAdd2?$LE?B?5?$LO?$LC?A?v?5?$LO@
  00033	e8 00 00 00 00	 call	 ?TraceError@@YAXPBDZZ	; TraceError
  00038	83 c4 04	 add	 esp, 4

; 177  : 	TPacketGCCharacterAdd2 chrAddPacket;
; 178  : 	if (!Recv(sizeof(chrAddPacket), &chrAddPacket))

  0003b	8d 45 a0	 lea	 eax, DWORD PTR _chrAddPacket$[ebp]
  0003e	8b ce		 mov	 ecx, esi
  00040	50		 push	 eax
  00041	6a 50		 push	 80			; 00000050H
  00043	e8 00 00 00 00	 call	 ?Recv@CNetworkStream@@QAE_NHPAX@Z ; CNetworkStream::Recv
  00048	84 c0		 test	 al, al
  0004a	0f 84 28 01 00
	00		 je	 $LN1@RecvCharac
$LN2@RecvCharac:

; 179  : 		return false;
; 180  : 	if(IsInvisibleRace(chrAddPacket.wRaceNum))

  00050	8b 4d cf	 mov	 ecx, DWORD PTR _chrAddPacket$[ebp+47]
  00053	e8 00 00 00 00	 call	 ?IsInvisibleRace@@YA_NG@Z ; IsInvisibleRace
  00058	84 c0		 test	 al, al
  0005a	0f 85 16 01 00
	00		 jne	 $LN25@RecvCharac

; 181  : 		return true;
; 182  : 
; 183  : 	__GlobalPositionToLocalPosition(chrAddPacket.x, chrAddPacket.y);

  00060	8d 45 c6	 lea	 eax, DWORD PTR _chrAddPacket$[ebp+38]
  00063	50		 push	 eax
  00064	8d 45 c2	 lea	 eax, DWORD PTR _chrAddPacket$[ebp+34]
  00067	50		 push	 eax
  00068	e8 00 00 00 00	 call	 ?__GlobalPositionToLocalPosition@CPythonNetworkStream@@IAEXAAJ0@Z ; CPythonNetworkStream::__GlobalPositionToLocalPosition

; 184  : 
; 185  : 	SNetworkActorData kNetActorData;

  0006d	8d 8d 18 ff ff
	ff		 lea	 ecx, DWORD PTR _kNetActorData$[ebp]
  00073	e8 00 00 00 00	 call	 ??0SNetworkActorData@@QAE@XZ ; SNetworkActorData::SNetworkActorData
  00078	c7 45 fc 00 00
	00 00		 mov	 DWORD PTR __$EHRec$[ebp+8], 0

; 186  : 	kNetActorData.m_dwLevel = 0;
; 187  : 	kNetActorData.m_bType=chrAddPacket.bType;

  0007f	8a 45 ce	 mov	 al, BYTE PTR _chrAddPacket$[ebp+46]
  00082	88 85 38 ff ff
	ff		 mov	 BYTE PTR _kNetActorData$[ebp+32], al

; 188  : 	kNetActorData.m_dwGuildID=chrAddPacket.dwGuild;

  00088	8b 45 e5	 mov	 eax, DWORD PTR _chrAddPacket$[ebp+69]
  0008b	89 45 94	 mov	 DWORD PTR _kNetActorData$[ebp+124], eax

; 189  : 	kNetActorData.m_dwEmpireID=chrAddPacket.bEmpire;	

  0008e	0f b6 45 e4	 movzx	 eax, BYTE PTR _chrAddPacket$[ebp+68]
  00092	89 85 44 ff ff
	ff		 mov	 DWORD PTR _kNetActorData$[ebp+44], eax

; 190  : 	kNetActorData.m_dwMovSpd=chrAddPacket.bMovingSpeed;

  00098	0f b6 45 d9	 movzx	 eax, BYTE PTR _chrAddPacket$[ebp+57]
  0009c	89 85 4c ff ff
	ff		 mov	 DWORD PTR _kNetActorData$[ebp+52], eax

; 191  : 	kNetActorData.m_dwAtkSpd=chrAddPacket.bAttackSpeed;

  000a2	0f b6 45 da	 movzx	 eax, BYTE PTR _chrAddPacket$[ebp+58]
  000a6	89 85 50 ff ff
	ff		 mov	 DWORD PTR _kNetActorData$[ebp+56], eax

; 192  : 	kNetActorData.m_dwRace=chrAddPacket.wRaceNum;

  000ac	0f b7 45 cf	 movzx	 eax, WORD PTR _chrAddPacket$[ebp+47]

; 193  : 	kNetActorData.m_dwArmor=chrAddPacket.awPart[CHR_EQUIPPART_ARMOR];
; 194  : 	kNetActorData.m_dwWeapon=chrAddPacket.awPart[CHR_EQUIPPART_WEAPON];
; 195  : 	kNetActorData.m_dwHair=chrAddPacket.awPart[CHR_EQUIPPART_HAIR];
; 196  : 	kNetActorData.m_dwStateFlags=chrAddPacket.bStateFlag;
; 197  : 	kNetActorData.m_dwVID=chrAddPacket.dwVID;
; 198  : 	kNetActorData.m_dwMountVnum=chrAddPacket.dwMountVnum;
; 199  : 	kNetActorData.m_fRot=chrAddPacket.angle;

  000b0	f3 0f 10 45 be	 movss	 xmm0, DWORD PTR _chrAddPacket$[ebp+30]
  000b5	89 85 48 ff ff
	ff		 mov	 DWORD PTR _kNetActorData$[ebp+48], eax
  000bb	0f b7 45 d1	 movzx	 eax, WORD PTR _chrAddPacket$[ebp+49]
  000bf	89 85 7c ff ff
	ff		 mov	 DWORD PTR _kNetActorData$[ebp+100], eax
  000c5	0f b7 45 d3	 movzx	 eax, WORD PTR _chrAddPacket$[ebp+51]
  000c9	89 45 80	 mov	 DWORD PTR _kNetActorData$[ebp+104], eax
  000cc	0f b7 45 d7	 movzx	 eax, WORD PTR _chrAddPacket$[ebp+55]
  000d0	89 45 84	 mov	 DWORD PTR _kNetActorData$[ebp+108], eax
  000d3	0f b6 45 db	 movzx	 eax, BYTE PTR _chrAddPacket$[ebp+59]
  000d7	89 85 40 ff ff
	ff		 mov	 DWORD PTR _kNetActorData$[ebp+40], eax
  000dd	8b 45 a1	 mov	 eax, DWORD PTR _chrAddPacket$[ebp+1]
  000e0	89 85 3c ff ff
	ff		 mov	 DWORD PTR _kNetActorData$[ebp+36], eax
  000e6	8b 45 ec	 mov	 eax, DWORD PTR _chrAddPacket$[ebp+76]
  000e9	89 45 90	 mov	 DWORD PTR _kNetActorData$[ebp+120], eax

; 200  : 	kNetActorData.m_kAffectFlags.CopyData(0, sizeof(chrAddPacket.dwAffectFlag[0]), &chrAddPacket.dwAffectFlag[0]);

  000ec	8d 45 dc	 lea	 eax, DWORD PTR _chrAddPacket$[ebp+60]
  000ef	50		 push	 eax
  000f0	51		 push	 ecx
  000f1	6a 00		 push	 0
  000f3	8d 8d 30 ff ff
	ff		 lea	 ecx, DWORD PTR _kNetActorData$[ebp+24]
  000f9	c7 45 98 00 00
	00 00		 mov	 DWORD PTR _kNetActorData$[ebp+128], 0
  00100	f3 0f 11 85 54
	ff ff ff	 movss	 DWORD PTR _kNetActorData$[ebp+60], xmm0
  00108	e8 00 00 00 00	 call	 ?CopyData@CAffectFlagContainer@@QAEXIIPBX@Z ; CAffectFlagContainer::CopyData

; 201  : 	kNetActorData.m_kAffectFlags.CopyData(32, sizeof(chrAddPacket.dwAffectFlag[1]), &chrAddPacket.dwAffectFlag[1]);

  0010d	8d 45 e0	 lea	 eax, DWORD PTR _chrAddPacket$[ebp+64]
  00110	50		 push	 eax
  00111	51		 push	 ecx
  00112	6a 20		 push	 32			; 00000020H
  00114	8d 8d 30 ff ff
	ff		 lea	 ecx, DWORD PTR _kNetActorData$[ebp+24]
  0011a	e8 00 00 00 00	 call	 ?CopyData@CAffectFlagContainer@@QAEXIIPBX@Z ; CAffectFlagContainer::CopyData

; 202  : 	kNetActorData.SetPosition(chrAddPacket.x, chrAddPacket.y);

  0011f	ff 75 c6	 push	 DWORD PTR _chrAddPacket$[ebp+38]
  00122	8d 8d 18 ff ff
	ff		 lea	 ecx, DWORD PTR _kNetActorData$[ebp]
  00128	ff 75 c2	 push	 DWORD PTR _chrAddPacket$[ebp+34]
  0012b	e8 00 00 00 00	 call	 ?SetPosition@SNetworkActorData@@QAEXJJ@Z ; SNetworkActorData::SetPosition

; 203  : 	kNetActorData.m_sAlignment=chrAddPacket.sAlignment;

  00130	66 8b 45 e9	 mov	 ax, WORD PTR _chrAddPacket$[ebp+73]
; File C:\Program Files\Microsoft Visual Studio\2022\Community\VC\Tools\MSVC\14.44.35207\include\__msvc_string_view.hpp

; 456  :             return __builtin_strlen(_First);

  00134	8d 55 a5	 lea	 edx, DWORD PTR _chrAddPacket$[ebp+5]
; File D:\_m2work\Server Client TMP4\ClientVS22\source\UserInterface\PythonNetworkStreamPhaseGameActor.cpp

; 203  : 	kNetActorData.m_sAlignment=chrAddPacket.sAlignment;

  00137	66 89 45 8c	 mov	 WORD PTR _kNetActorData$[ebp+116], ax
; File C:\Program Files\Microsoft Visual Studio\2022\Community\VC\Tools\MSVC\14.44.35207\include\__msvc_string_view.hpp

; 456  :             return __builtin_strlen(_First);

  0013b	8d 4a 01	 lea	 ecx, DWORD PTR [edx+1]
; File D:\_m2work\Server Client TMP4\ClientVS22\source\UserInterface\PythonNetworkStreamPhaseGameActor.cpp

; 204  : 	kNetActorData.m_byPKMode=chrAddPacket.bPKMode;

  0013e	8a 45 eb	 mov	 al, BYTE PTR _chrAddPacket$[ebp+75]
  00141	88 45 8e	 mov	 BYTE PTR _kNetActorData$[ebp+118], al
$LL23@RecvCharac:
; File C:\Program Files\Microsoft Visual Studio\2022\Community\VC\Tools\MSVC\14.44.35207\include\__msvc_string_view.hpp

; 456  :             return __builtin_strlen(_First);

  00144	8a 02		 mov	 al, BYTE PTR [edx]
  00146	42		 inc	 edx
  00147	84 c0		 test	 al, al
  00149	75 f9		 jne	 SHORT $LL23@RecvCharac
  0014b	2b d1		 sub	 edx, ecx
; File C:\Program Files\Microsoft Visual Studio\2022\Community\VC\Tools\MSVC\14.44.35207\include\xstring

; 1638 :         return assign(_Ptr, _Convert_size<size_type>(_Traits::length(_Ptr)));

  0014d	8d 45 a5	 lea	 eax, DWORD PTR _chrAddPacket$[ebp+5]
  00150	52		 push	 edx
  00151	50		 push	 eax
  00152	8d 8d 18 ff ff
	ff		 lea	 ecx, DWORD PTR _kNetActorData$[ebp]
  00158	e8 00 00 00 00	 call	 ?assign@?$basic_string@DU?$char_traits@D@std@@V?$allocator@D@2@@std@@QAEAAV12@QBDI@Z ; std::basic_string<char,std::char_traits<char>,std::allocator<char> >::assign
; File D:\_m2work\Server Client TMP4\ClientVS22\source\UserInterface\PythonNetworkStreamPhaseGameActor.cpp

; 206  : 	__RecvCharacterAppendPacket(&kNetActorData);

  0015d	8d 85 18 ff ff
	ff		 lea	 eax, DWORD PTR _kNetActorData$[ebp]
  00163	8b ce		 mov	 ecx, esi
  00165	50		 push	 eax
  00166	e8 00 00 00 00	 call	 ?__RecvCharacterAppendPacket@CPythonNetworkStream@@IAEXPAUSNetworkActorData@@@Z ; CPythonNetworkStream::__RecvCharacterAppendPacket
; File C:\Program Files\Microsoft Visual Studio\2022\Community\VC\Tools\MSVC\14.44.35207\include\xstring

; 1383 :         _Tidy_deallocate();

  0016b	8d 8d 18 ff ff
	ff		 lea	 ecx, DWORD PTR _kNetActorData$[ebp]
  00171	e8 00 00 00 00	 call	 ?_Tidy_deallocate@?$basic_string@DU?$char_traits@D@std@@V?$allocator@D@2@@std@@AAEXXZ ; std::basic_string<char,std::char_traits<char>,std::allocator<char> >::_Tidy_deallocate
$LN25@RecvCharac:
; File D:\_m2work\Server Client TMP4\ClientVS22\source\UserInterface\PythonNetworkStreamPhaseGameActor.cpp

; 209  : }

  00176	b0 01		 mov	 al, 1
$LN1@RecvCharac:
  00178	8b 4d f4	 mov	 ecx, DWORD PTR __$EHRec$[ebp]
  0017b	64 89 0d 00 00
	00 00		 mov	 DWORD PTR fs:0, ecx
  00182	59		 pop	 ecx
  00183	5e		 pop	 esi
  00184	8b 4d f0	 mov	 ecx, DWORD PTR __$ArrayPad$[ebp]
  00187	33 cd		 xor	 ecx, ebp
  00189	e8 00 00 00 00	 call	 @__security_check_cookie@4
  0018e	8b e5		 mov	 esp, ebp
  00190	5d		 pop	 ebp
  00191	c3		 ret	 0
_TEXT	ENDS
;	COMDAT text$x
text$x	SEGMENT
__unwindfunclet$?RecvCharacterAppendPacketNew@CPythonNetworkStream@@IAE_NXZ$0:
  00000	8d 8d 18 ff ff
	ff		 lea	 ecx, DWORD PTR _kNetActorData$[ebp]
  00006	e9 00 00 00 00	 jmp	 ??1SNetworkActorData@@QAE@XZ
  0000b	cc		 int	 3
  0000c	cc		 int	 3
  0000d	cc		 int	 3
  0000e	cc		 int	 3
  0000f	cc		 int	 3
__ehhandler$?RecvCharacterAppendPacketNew@CPythonNetworkStream@@IAE_NXZ:
  00010	90		 npad	 1
  00011	90		 npad	 1
  00012	8b 54 24 08	 mov	 edx, DWORD PTR [esp+8]
  00016	8d 42 0c	 lea	 eax, DWORD PTR [edx+12]
  00019	8b 8a 1c ff ff
	ff		 mov	 ecx, DWORD PTR [edx-228]
  0001f	33 c8		 xor	 ecx, eax
  00021	e8 00 00 00 00	 call	 @__security_check_cookie@4
  00026	8b 4a fc	 mov	 ecx, DWORD PTR [edx-4]
  00029	33 c8		 xor	 ecx, eax
  0002b	e8 00 00 00 00	 call	 @__security_check_cookie@4
  00030	b8 00 00 00 00	 mov	 eax, OFFSET __ehfuncinfo$?RecvCharacterAppendPacketNew@CPythonNetworkStream@@IAE_NXZ
  00035	e9 00 00 00 00	 jmp	 ___CxxFrameHandler3
text$x	ENDS
?RecvCharacterAppendPacketNew@CPythonNetworkStream@@IAE_NXZ ENDP ; CPythonNetworkStream::RecvCharacterAppendPacketNew
; Function compile flags: /Ogtp
; File D:\_m2work\Server Client TMP4\ClientVS22\source\UserInterface\PythonNetworkStreamPhaseGameActor.cpp
; File C:\Program Files\Microsoft Visual Studio\2022\Community\VC\Tools\MSVC\14.44.35207\include\__msvc_string_view.hpp
; File C:\Program Files\Microsoft Visual Studio\2022\Community\VC\Tools\MSVC\14.44.35207\include\xstring
; File D:\_m2work\Server Client TMP4\ClientVS22\source\UserInterface\PythonNetworkStreamPhaseGameActor.cpp
; File C:\Program Files\Microsoft Visual Studio\2022\Community\VC\Tools\MSVC\14.44.35207\include\xstring
; File D:\_m2work\Server Client TMP4\ClientVS22\source\UserInterface\PythonNetworkStreamPhaseGameActor.cpp
;	COMDAT ?RecvCharacterAdditionalInfo@CPythonNetworkStream@@IAE_NXZ
_TEXT	SEGMENT
_kNetActorData$ = -208					; size = 132
_chrInfoPacket$ = -72					; size = 54
__$ArrayPad$ = -16					; size = 4
__$EHRec$ = -12						; size = 12
?RecvCharacterAdditionalInfo@CPythonNetworkStream@@IAE_NXZ PROC ; CPythonNetworkStream::RecvCharacterAdditionalInfo, COMDAT
; _this$ = ecx

; 141  : {

  00000	55		 push	 ebp
  00001	8b ec		 mov	 ebp, esp
  00003	6a ff		 push	 -1
  00005	68 00 00 00 00	 push	 __ehhandler$?RecvCharacterAdditionalInfo@CPythonNetworkStream@@IAE_NXZ
  0000a	64 a1 00 00 00
	00		 mov	 eax, DWORD PTR fs:0
  00010	50		 push	 eax
  00011	81 ec c4 00 00
	00		 sub	 esp, 196		; 000000c4H
  00017	a1 00 00 00 00	 mov	 eax, DWORD PTR ___security_cookie
  0001c	33 c5		 xor	 eax, ebp
  0001e	89 45 f0	 mov	 DWORD PTR __$ArrayPad$[ebp], eax
  00021	56		 push	 esi
  00022	50		 push	 eax
  00023	8d 45 f4	 lea	 eax, DWORD PTR __$EHRec$[ebp]
  00026	64 a3 00 00 00
	00		 mov	 DWORD PTR fs:0, eax
  0002c	8b f1		 mov	 esi, ecx

; 142  : 	TPacketGCCharacterAdditionalInfo chrInfoPacket;
; 143  : 	if (!Recv(sizeof(chrInfoPacket), &chrInfoPacket))

  0002e	8d 45 b8	 lea	 eax, DWORD PTR _chrInfoPacket$[ebp]
  00031	50		 push	 eax
  00032	6a 36		 push	 54			; 00000036H
  00034	e8 00 00 00 00	 call	 ?Recv@CNetworkStream@@QAE_NHPAX@Z ; CNetworkStream::Recv
  00039	84 c0		 test	 al, al
  0003b	0f 84 bf 00 00
	00		 je	 $LN1@RecvCharac
$LN2@RecvCharac:

; 144  : 		return false;
; 145  : 
; 146  : 	
; 147  : 	SNetworkActorData kNetActorData = s_kNetActorData;

  00041	51		 push	 ecx
  00042	8d 8d 30 ff ff
	ff		 lea	 ecx, DWORD PTR _kNetActorData$[ebp]
  00048	e8 00 00 00 00	 call	 ??0SNetworkActorData@@QAE@ABU0@@Z ; SNetworkActorData::SNetworkActorData
  0004d	c7 45 fc 00 00
	00 00		 mov	 DWORD PTR __$EHRec$[ebp+8], 0

; 148  : 	if (IsInvisibleRace(kNetActorData.m_dwRace))

  00054	8b 8d 60 ff ff
	ff		 mov	 ecx, DWORD PTR _kNetActorData$[ebp+48]
  0005a	e8 00 00 00 00	 call	 ?IsInvisibleRace@@YA_NG@Z ; IsInvisibleRace
  0005f	84 c0		 test	 al, al
  00061	0f 85 8c 00 00
	00		 jne	 $LN5@RecvCharac

; 149  : 		return true;
; 150  : 
; 151  : 	if(kNetActorData.m_dwVID == chrInfoPacket.dwVID)

  00067	8b 45 b9	 mov	 eax, DWORD PTR _chrInfoPacket$[ebp+1]
  0006a	39 85 54 ff ff
	ff		 cmp	 DWORD PTR _kNetActorData$[ebp+36], eax
  00070	75 6e		 jne	 SHORT $LN4@RecvCharac
; File C:\Program Files\Microsoft Visual Studio\2022\Community\VC\Tools\MSVC\14.44.35207\include\__msvc_string_view.hpp

; 456  :             return __builtin_strlen(_First);

  00072	8d 45 bd	 lea	 eax, DWORD PTR _chrInfoPacket$[ebp+5]
  00075	8d 50 01	 lea	 edx, DWORD PTR [eax+1]
$LL36@RecvCharac:
  00078	8a 08		 mov	 cl, BYTE PTR [eax]
  0007a	40		 inc	 eax
  0007b	84 c9		 test	 cl, cl
  0007d	75 f9		 jne	 SHORT $LL36@RecvCharac
  0007f	2b c2		 sub	 eax, edx
; File C:\Program Files\Microsoft Visual Studio\2022\Community\VC\Tools\MSVC\14.44.35207\include\xstring

; 1638 :         return assign(_Ptr, _Convert_size<size_type>(_Traits::length(_Ptr)));

  00081	8d 8d 30 ff ff
	ff		 lea	 ecx, DWORD PTR _kNetActorData$[ebp]
  00087	50		 push	 eax
  00088	8d 45 bd	 lea	 eax, DWORD PTR _chrInfoPacket$[ebp+5]
  0008b	50		 push	 eax
  0008c	e8 00 00 00 00	 call	 ?assign@?$basic_string@DU?$char_traits@D@std@@V?$allocator@D@2@@std@@QAEAAV12@QBDI@Z ; std::basic_string<char,std::char_traits<char>,std::allocator<char> >::assign
; File D:\_m2work\Server Client TMP4\ClientVS22\source\UserInterface\PythonNetworkStreamPhaseGameActor.cpp

; 155  : 		kNetActorData.m_dwLevel = chrInfoPacket.dwLevel;

  00091	8b 45 e3	 mov	 eax, DWORD PTR _chrInfoPacket$[ebp+43]

; 156  : 		kNetActorData.m_sAlignment=chrInfoPacket.sAlignment;	
; 157  : 		kNetActorData.m_byPKMode=chrInfoPacket.bPKMode;	
; 158  : 		kNetActorData.m_dwGuildID=chrInfoPacket.dwGuildID;
; 159  : 		kNetActorData.m_dwEmpireID=chrInfoPacket.bEmpire;
; 160  : 		kNetActorData.m_dwArmor=chrInfoPacket.awPart[CHR_EQUIPPART_ARMOR];
; 161  : 		kNetActorData.m_dwWeapon=chrInfoPacket.awPart[CHR_EQUIPPART_WEAPON];
; 162  : 		kNetActorData.m_dwHair=chrInfoPacket.awPart[CHR_EQUIPPART_HAIR];	
; 163  : 		kNetActorData.m_dwMountVnum=chrInfoPacket.dwMountVnum;
; 164  : 
; 165  : 		__RecvCharacterAppendPacket(&kNetActorData);

  00094	8b ce		 mov	 ecx, esi
  00096	89 45 b0	 mov	 DWORD PTR _kNetActorData$[ebp+128], eax
  00099	66 8b 45 e7	 mov	 ax, WORD PTR _chrInfoPacket$[ebp+47]
  0009d	66 89 45 a4	 mov	 WORD PTR _kNetActorData$[ebp+116], ax
  000a1	8a 45 e9	 mov	 al, BYTE PTR _chrInfoPacket$[ebp+49]
  000a4	88 45 a6	 mov	 BYTE PTR _kNetActorData$[ebp+118], al
  000a7	8b 45 df	 mov	 eax, DWORD PTR _chrInfoPacket$[ebp+39]
  000aa	89 45 ac	 mov	 DWORD PTR _kNetActorData$[ebp+124], eax
  000ad	0f b6 45 de	 movzx	 eax, BYTE PTR _chrInfoPacket$[ebp+38]
  000b1	89 85 5c ff ff
	ff		 mov	 DWORD PTR _kNetActorData$[ebp+44], eax
  000b7	0f b7 45 d6	 movzx	 eax, WORD PTR _chrInfoPacket$[ebp+30]
  000bb	89 45 94	 mov	 DWORD PTR _kNetActorData$[ebp+100], eax
  000be	0f b7 45 d8	 movzx	 eax, WORD PTR _chrInfoPacket$[ebp+32]
  000c2	89 45 98	 mov	 DWORD PTR _kNetActorData$[ebp+104], eax
  000c5	0f b7 45 dc	 movzx	 eax, WORD PTR _chrInfoPacket$[ebp+36]
  000c9	89 45 9c	 mov	 DWORD PTR _kNetActorData$[ebp+108], eax
  000cc	8b 45 ea	 mov	 eax, DWORD PTR _chrInfoPacket$[ebp+50]
  000cf	89 45 a8	 mov	 DWORD PTR _kNetActorData$[ebp+120], eax
  000d2	8d 85 30 ff ff
	ff		 lea	 eax, DWORD PTR _kNetActorData$[ebp]
  000d8	50		 push	 eax
  000d9	e8 00 00 00 00	 call	 ?__RecvCharacterAppendPacket@CPythonNetworkStream@@IAEXPAUSNetworkActorData@@@Z ; CPythonNetworkStream::__RecvCharacterAppendPacket

; 166  : 	}

  000de	eb 13		 jmp	 SHORT $LN5@RecvCharac
$LN4@RecvCharac:

; 167  : 	else
; 168  : 	{
; 169  : 		TraceError("TPacketGCCharacterAdditionalInfo name=%s vid=%d race=%d Error",chrInfoPacket.name,chrInfoPacket.dwVID,kNetActorData.m_dwRace);

  000e0	51		 push	 ecx
  000e1	50		 push	 eax
  000e2	8d 45 bd	 lea	 eax, DWORD PTR _chrInfoPacket$[ebp+5]
  000e5	50		 push	 eax
  000e6	68 00 00 00 00	 push	 OFFSET ??_C@_0DO@OHBFGBBC@TPacketGCCharacterAdditionalInf@
  000eb	e8 00 00 00 00	 call	 ?TraceError@@YAXPBDZZ	; TraceError
  000f0	83 c4 10	 add	 esp, 16			; 00000010H
$LN5@RecvCharac:
; File C:\Program Files\Microsoft Visual Studio\2022\Community\VC\Tools\MSVC\14.44.35207\include\xstring

; 1383 :         _Tidy_deallocate();

  000f3	8d 8d 30 ff ff
	ff		 lea	 ecx, DWORD PTR _kNetActorData$[ebp]
  000f9	e8 00 00 00 00	 call	 ?_Tidy_deallocate@?$basic_string@DU?$char_traits@D@std@@V?$allocator@D@2@@std@@AAEXXZ ; std::basic_string<char,std::char_traits<char>,std::allocator<char> >::_Tidy_deallocate
; File D:\_m2work\Server Client TMP4\ClientVS22\source\UserInterface\PythonNetworkStreamPhaseGameActor.cpp

; 171  : 	return true;

  000fe	b0 01		 mov	 al, 1
$LN1@RecvCharac:

; 172  : }

  00100	8b 4d f4	 mov	 ecx, DWORD PTR __$EHRec$[ebp]
  00103	64 89 0d 00 00
	00 00		 mov	 DWORD PTR fs:0, ecx
  0010a	59		 pop	 ecx
  0010b	5e		 pop	 esi
  0010c	8b 4d f0	 mov	 ecx, DWORD PTR __$ArrayPad$[ebp]
  0010f	33 cd		 xor	 ecx, ebp
  00111	e8 00 00 00 00	 call	 @__security_check_cookie@4
  00116	8b e5		 mov	 esp, ebp
  00118	5d		 pop	 ebp
  00119	c3		 ret	 0
_TEXT	ENDS
;	COMDAT text$x
text$x	SEGMENT
__unwindfunclet$?RecvCharacterAdditionalInfo@CPythonNetworkStream@@IAE_NXZ$0:
  00000	8d 8d 30 ff ff
	ff		 lea	 ecx, DWORD PTR _kNetActorData$[ebp]
  00006	e9 00 00 00 00	 jmp	 ??1SNetworkActorData@@QAE@XZ
  0000b	cc		 int	 3
  0000c	cc		 int	 3
  0000d	cc		 int	 3
  0000e	cc		 int	 3
  0000f	cc		 int	 3
__ehhandler$?RecvCharacterAdditionalInfo@CPythonNetworkStream@@IAE_NXZ:
  00010	90		 npad	 1
  00011	90		 npad	 1
  00012	8b 54 24 08	 mov	 edx, DWORD PTR [esp+8]
  00016	8d 42 0c	 lea	 eax, DWORD PTR [edx+12]
  00019	8b 8a 34 ff ff
	ff		 mov	 ecx, DWORD PTR [edx-204]
  0001f	33 c8		 xor	 ecx, eax
  00021	e8 00 00 00 00	 call	 @__security_check_cookie@4
  00026	8b 4a fc	 mov	 ecx, DWORD PTR [edx-4]
  00029	33 c8		 xor	 ecx, eax
  0002b	e8 00 00 00 00	 call	 @__security_check_cookie@4
  00030	b8 00 00 00 00	 mov	 eax, OFFSET __ehfuncinfo$?RecvCharacterAdditionalInfo@CPythonNetworkStream@@IAE_NXZ
  00035	e9 00 00 00 00	 jmp	 ___CxxFrameHandler3
text$x	ENDS
?RecvCharacterAdditionalInfo@CPythonNetworkStream@@IAE_NXZ ENDP ; CPythonNetworkStream::RecvCharacterAdditionalInfo
; Function compile flags: /Ogtp
; File D:\_m2work\Server Client TMP4\ClientVS22\source\UserInterface\PythonNetworkStreamPhaseGameActor.cpp
; File C:\Program Files\Microsoft Visual Studio\2022\Community\VC\Tools\MSVC\14.44.35207\include\xstring
; File D:\_m2work\Server Client TMP4\ClientVS22\source\UserInterface\PythonNetworkStreamPhaseGameActor.cpp
; File C:\Program Files\Microsoft Visual Studio\2022\Community\VC\Tools\MSVC\14.44.35207\include\xstring
; File D:\_m2work\Server Client TMP4\ClientVS22\source\UserInterface\PythonNetworkStreamPhaseGameActor.cpp
; File C:\Program Files\Microsoft Visual Studio\2022\Community\VC\Tools\MSVC\14.44.35207\include\xstring
; File D:\_m2work\Server Client TMP4\ClientVS22\source\UserInterface\PythonNetworkStreamPhaseGameActor.cpp
; File C:\Program Files\Microsoft Visual Studio\2022\Community\VC\Tools\MSVC\14.44.35207\include\xstring
; File D:\_m2work\Server Client TMP4\ClientVS22\source\UserInterface\PythonNetworkStreamPhaseGameActor.cpp
; File C:\Program Files\Microsoft Visual Studio\2022\Community\VC\Tools\MSVC\14.44.35207\include\__msvc_string_view.hpp
; File C:\Program Files\Microsoft Visual Studio\2022\Community\VC\Tools\MSVC\14.44.35207\include\xstring
; File D:\_m2work\Server Client TMP4\ClientVS22\source\UserInterface\PythonNetworkStreamPhaseGameActor.cpp
; File C:\Program Files\Microsoft Visual Studio\2022\Community\VC\Tools\MSVC\14.44.35207\include\xstring
; File D:\_m2work\Server Client TMP4\ClientVS22\source\UserInterface\PythonNetworkStreamPhaseGameActor.cpp
;	COMDAT ?RecvCharacterAppendPacket@CPythonNetworkStream@@IAE_NXZ
_TEXT	SEGMENT
_c_szName$2 = -196					; size = 4
_kNetActorData$ = -192					; size = 132
_chrAddPacket$ = -52					; size = 35
__$ArrayPad$ = -16					; size = 4
__$EHRec$ = -12						; size = 12
?RecvCharacterAppendPacket@CPythonNetworkStream@@IAE_NXZ PROC ; CPythonNetworkStream::RecvCharacterAppendPacket, COMDAT
; _this$ = ecx

; 84   : {

  00000	55		 push	 ebp
  00001	8b ec		 mov	 ebp, esp
  00003	6a ff		 push	 -1
  00005	68 00 00 00 00	 push	 __ehhandler$?RecvCharacterAppendPacket@CPythonNetworkStream@@IAE_NXZ
  0000a	64 a1 00 00 00
	00		 mov	 eax, DWORD PTR fs:0
  00010	50		 push	 eax
  00011	81 ec bc 00 00
	00		 sub	 esp, 188		; 000000bcH
  00017	a1 00 00 00 00	 mov	 eax, DWORD PTR ___security_cookie
  0001c	33 c5		 xor	 eax, ebp
  0001e	89 45 f0	 mov	 DWORD PTR __$ArrayPad$[ebp], eax
  00021	57		 push	 edi
  00022	50		 push	 eax
  00023	8d 45 f4	 lea	 eax, DWORD PTR __$EHRec$[ebp]
  00026	64 a3 00 00 00
	00		 mov	 DWORD PTR fs:0, eax
  0002c	8b f9		 mov	 edi, ecx

; 85   : 	TPacketGCCharacterAdd chrAddPacket;
; 86   : 	if (!Recv(sizeof(chrAddPacket), &chrAddPacket))

  0002e	8d 45 cc	 lea	 eax, DWORD PTR _chrAddPacket$[ebp]
  00031	50		 push	 eax
  00032	6a 23		 push	 35			; 00000023H
  00034	e8 00 00 00 00	 call	 ?Recv@CNetworkStream@@QAE_NHPAX@Z ; CNetworkStream::Recv
  00039	84 c0		 test	 al, al
  0003b	0f 84 5c 01 00
	00		 je	 $LN1@RecvCharac
$LN2@RecvCharac:

; 87   : 		return false;
; 88   : 
; 89   : 	__GlobalPositionToLocalPosition(chrAddPacket.x, chrAddPacket.y);

  00041	8d 45 d9	 lea	 eax, DWORD PTR _chrAddPacket$[ebp+13]
  00044	50		 push	 eax
  00045	8d 45 d5	 lea	 eax, DWORD PTR _chrAddPacket$[ebp+9]
  00048	50		 push	 eax
  00049	e8 00 00 00 00	 call	 ?__GlobalPositionToLocalPosition@CPythonNetworkStream@@IAEXAAJ0@Z ; CPythonNetworkStream::__GlobalPositionToLocalPosition

; 90   : 
; 91   : 	SNetworkActorData kNetActorData;

  0004e	8d 8d 40 ff ff
	ff		 lea	 ecx, DWORD PTR _kNetActorData$[ebp]
  00054	e8 00 00 00 00	 call	 ??0SNetworkActorData@@QAE@XZ ; SNetworkActorData::SNetworkActorData
  00059	c7 45 fc 00 00
	00 00		 mov	 DWORD PTR __$EHRec$[ebp+8], 0
; File C:\Program Files\Microsoft Visual Studio\2022\Community\VC\Tools\MSVC\14.44.35207\include\xstring

; 1638 :         return assign(_Ptr, _Convert_size<size_type>(_Traits::length(_Ptr)));

  00060	8d 8d 40 ff ff
	ff		 lea	 ecx, DWORD PTR _kNetActorData$[ebp]
; File D:\_m2work\Server Client TMP4\ClientVS22\source\UserInterface\PythonNetworkStreamPhaseGameActor.cpp

; 92   : 	kNetActorData.m_bType=chrAddPacket.bType;

  00066	8a 45 e1	 mov	 al, BYTE PTR _chrAddPacket$[ebp+21]

; 99   : 	kNetActorData.m_fRot=chrAddPacket.angle;

  00069	f3 0f 10 45 d1	 movss	 xmm0, DWORD PTR _chrAddPacket$[ebp+5]
  0006e	88 85 60 ff ff
	ff		 mov	 BYTE PTR _kNetActorData$[ebp+32], al
  00074	0f b6 45 e4	 movzx	 eax, BYTE PTR _chrAddPacket$[ebp+24]
  00078	89 85 74 ff ff
	ff		 mov	 DWORD PTR _kNetActorData$[ebp+52], eax
  0007e	0f b6 45 e5	 movzx	 eax, BYTE PTR _chrAddPacket$[ebp+25]
  00082	89 85 78 ff ff
	ff		 mov	 DWORD PTR _kNetActorData$[ebp+56], eax
  00088	0f b7 45 e2	 movzx	 eax, WORD PTR _chrAddPacket$[ebp+22]
  0008c	89 85 70 ff ff
	ff		 mov	 DWORD PTR _kNetActorData$[ebp+48], eax
  00092	0f b6 45 e6	 movzx	 eax, BYTE PTR _chrAddPacket$[ebp+26]
; File C:\Program Files\Microsoft Visual Studio\2022\Community\VC\Tools\MSVC\14.44.35207\include\xstring

; 1638 :         return assign(_Ptr, _Convert_size<size_type>(_Traits::length(_Ptr)));

  00096	6a 00		 push	 0
; File D:\_m2work\Server Client TMP4\ClientVS22\source\UserInterface\PythonNetworkStreamPhaseGameActor.cpp

; 97   : 	kNetActorData.m_dwStateFlags=chrAddPacket.bStateFlag;

  00098	89 85 68 ff ff
	ff		 mov	 DWORD PTR _kNetActorData$[ebp+40], eax

; 98   : 	kNetActorData.m_dwVID=chrAddPacket.dwVID;

  0009e	8b 45 cd	 mov	 eax, DWORD PTR _chrAddPacket$[ebp+1]
; File C:\Program Files\Microsoft Visual Studio\2022\Community\VC\Tools\MSVC\14.44.35207\include\xstring

; 1638 :         return assign(_Ptr, _Convert_size<size_type>(_Traits::length(_Ptr)));

  000a1	68 00 00 00 00	 push	 OFFSET ??_C@_00CNPNBAHC@@
; File D:\_m2work\Server Client TMP4\ClientVS22\source\UserInterface\PythonNetworkStreamPhaseGameActor.cpp

; 98   : 	kNetActorData.m_dwVID=chrAddPacket.dwVID;

  000a6	89 85 64 ff ff
	ff		 mov	 DWORD PTR _kNetActorData$[ebp+36], eax

; 99   : 	kNetActorData.m_fRot=chrAddPacket.angle;

  000ac	f3 0f 11 85 7c
	ff ff ff	 movss	 DWORD PTR _kNetActorData$[ebp+60], xmm0
; File C:\Program Files\Microsoft Visual Studio\2022\Community\VC\Tools\MSVC\14.44.35207\include\xstring

; 1638 :         return assign(_Ptr, _Convert_size<size_type>(_Traits::length(_Ptr)));

  000b4	e8 00 00 00 00	 call	 ?assign@?$basic_string@DU?$char_traits@D@std@@V?$allocator@D@2@@std@@QAEAAV12@QBDI@Z ; std::basic_string<char,std::char_traits<char>,std::allocator<char> >::assign
  000b9	6a 00		 push	 0
  000bb	68 00 00 00 00	 push	 OFFSET ??_C@_00CNPNBAHC@@
  000c0	8d 8d 40 ff ff
	ff		 lea	 ecx, DWORD PTR _kNetActorData$[ebp]
  000c6	e8 00 00 00 00	 call	 ?assign@?$basic_string@DU?$char_traits@D@std@@V?$allocator@D@2@@std@@QAEAAV12@QBDI@Z ; std::basic_string<char,std::char_traits<char>,std::allocator<char> >::assign
; File D:\_m2work\Server Client TMP4\ClientVS22\source\UserInterface\PythonNetworkStreamPhaseGameActor.cpp

; 104  : 	kNetActorData.m_kAffectFlags.CopyData(0, sizeof(chrAddPacket.dwAffectFlag[0]), &chrAddPacket.dwAffectFlag[0]);

  000cb	8d 45 e7	 lea	 eax, DWORD PTR _chrAddPacket$[ebp+27]
  000ce	50		 push	 eax
  000cf	51		 push	 ecx
  000d0	6a 00		 push	 0
  000d2	8d 8d 58 ff ff
	ff		 lea	 ecx, DWORD PTR _kNetActorData$[ebp+24]
  000d8	e8 00 00 00 00	 call	 ?CopyData@CAffectFlagContainer@@QAEXIIPBX@Z ; CAffectFlagContainer::CopyData

; 105  : 	kNetActorData.m_kAffectFlags.CopyData(32, sizeof(chrAddPacket.dwAffectFlag[1]), &chrAddPacket.dwAffectFlag[1]);

  000dd	8d 45 eb	 lea	 eax, DWORD PTR _chrAddPacket$[ebp+31]
  000e0	50		 push	 eax
  000e1	51		 push	 ecx
  000e2	6a 20		 push	 32			; 00000020H
  000e4	8d 8d 58 ff ff
	ff		 lea	 ecx, DWORD PTR _kNetActorData$[ebp+24]
  000ea	e8 00 00 00 00	 call	 ?CopyData@CAffectFlagContainer@@QAEXIIPBX@Z ; CAffectFlagContainer::CopyData

; 106  : 	
; 107  : 	kNetActorData.SetPosition(chrAddPacket.x, chrAddPacket.y);

  000ef	ff 75 d9	 push	 DWORD PTR _chrAddPacket$[ebp+13]
  000f2	8d 8d 40 ff ff
	ff		 lea	 ecx, DWORD PTR _kNetActorData$[ebp]
  000f8	ff 75 d5	 push	 DWORD PTR _chrAddPacket$[ebp+9]
  000fb	e8 00 00 00 00	 call	 ?SetPosition@SNetworkActorData@@QAEXJJ@Z ; SNetworkActorData::SetPosition

; 108  : 
; 109  : 	kNetActorData.m_sAlignment=0;/*chrAddPacket.sAlignment*/;	

  00100	33 c0		 xor	 eax, eax
  00102	66 89 45 b4	 mov	 WORD PTR _kNetActorData$[ebp+116], ax

; 110  : 	kNetActorData.m_byPKMode=0;/*chrAddPacket.bPKMode*/;	

  00106	88 45 b6	 mov	 BYTE PTR _kNetActorData$[ebp+118], al

; 111  : 	kNetActorData.m_dwGuildID=0;/*chrAddPacket.dwGuild*/;

  00109	89 45 bc	 mov	 DWORD PTR _kNetActorData$[ebp+124], eax

; 112  : 	kNetActorData.m_dwEmpireID=0;/*chrAddPacket.bEmpire*/;

  0010c	89 85 6c ff ff
	ff		 mov	 DWORD PTR _kNetActorData$[ebp+44], eax

; 113  : 	kNetActorData.m_dwArmor=0;/*chrAddPacket.awPart[CHR_EQUIPPART_ARMOR]*/;

  00112	89 45 a4	 mov	 DWORD PTR _kNetActorData$[ebp+100], eax

; 114  : 	kNetActorData.m_dwWeapon=0;/*chrAddPacket.awPart[CHR_EQUIPPART_WEAPON]*/;

  00115	89 45 a8	 mov	 DWORD PTR _kNetActorData$[ebp+104], eax

; 115  : 	kNetActorData.m_dwHair=0;/*chrAddPacket.awPart[CHR_EQUIPPART_HAIR]*/;	

  00118	89 45 ac	 mov	 DWORD PTR _kNetActorData$[ebp+108], eax

; 116  : 	kNetActorData.m_dwMountVnum=0;/*chrAddPacket.dwMountVnum*/;	

  0011b	89 45 b8	 mov	 DWORD PTR _kNetActorData$[ebp+120], eax

; 117  : 
; 118  : 	kNetActorData.m_dwLevel = 0; // 몬스터 레벨 표시 안함

  0011e	89 45 c0	 mov	 DWORD PTR _kNetActorData$[ebp+128], eax

; 119  : 
; 120  : 	if(kNetActorData.m_bType != CActorInstance::TYPE_PC && 

  00121	8a 85 60 ff ff
	ff		 mov	 al, BYTE PTR _kNetActorData$[ebp+32]
  00127	3c 06		 cmp	 al, 6
  00129	74 54		 je	 SHORT $LN3@RecvCharac
  0012b	3c 01		 cmp	 al, 1
  0012d	74 50		 je	 SHORT $LN3@RecvCharac

; 121  : 		kNetActorData.m_bType != CActorInstance::TYPE_NPC)
; 122  : 	{
; 123  : 		const char * c_szName;
; 124  : 		CPythonNonPlayer& rkNonPlayer=CPythonNonPlayer::Instance();
; 125  : 		if (rkNonPlayer.GetName(kNetActorData.m_dwRace, &c_szName))

  0012f	8b 0d 00 00 00
	00		 mov	 ecx, DWORD PTR ?ms_singleton@?$CSingleton@VCPythonNonPlayer@@@@0PAVCPythonNonPlayer@@A ; CSingleton<CPythonNonPlayer>::ms_singleton
  00135	8d 85 3c ff ff
	ff		 lea	 eax, DWORD PTR _c_szName$2[ebp]
  0013b	50		 push	 eax
  0013c	ff b5 70 ff ff
	ff		 push	 DWORD PTR _kNetActorData$[ebp+48]
  00142	e8 00 00 00 00	 call	 ?GetName@CPythonNonPlayer@@QAE_NKPAPBD@Z ; CPythonNonPlayer::GetName
  00147	84 c0		 test	 al, al
  00149	74 24		 je	 SHORT $LN5@RecvCharac
; File C:\Program Files\Microsoft Visual Studio\2022\Community\VC\Tools\MSVC\14.44.35207\include\__msvc_string_view.hpp

; 456  :             return __builtin_strlen(_First);

  0014b	8b 95 3c ff ff
	ff		 mov	 edx, DWORD PTR _c_szName$2[ebp]
  00151	8d 4a 01	 lea	 ecx, DWORD PTR [edx+1]
$LL39@RecvCharac:
  00154	8a 02		 mov	 al, BYTE PTR [edx]
  00156	42		 inc	 edx
  00157	84 c0		 test	 al, al
  00159	75 f9		 jne	 SHORT $LL39@RecvCharac
  0015b	2b d1		 sub	 edx, ecx
; File C:\Program Files\Microsoft Visual Studio\2022\Community\VC\Tools\MSVC\14.44.35207\include\xstring

; 1638 :         return assign(_Ptr, _Convert_size<size_type>(_Traits::length(_Ptr)));

  0015d	8d 8d 40 ff ff
	ff		 lea	 ecx, DWORD PTR _kNetActorData$[ebp]
  00163	52		 push	 edx
  00164	ff b5 3c ff ff
	ff		 push	 DWORD PTR _c_szName$2[ebp]
  0016a	e8 00 00 00 00	 call	 ?assign@?$basic_string@DU?$char_traits@D@std@@V?$allocator@D@2@@std@@QAEAAV12@QBDI@Z ; std::basic_string<char,std::char_traits<char>,std::allocator<char> >::assign
$LN5@RecvCharac:
; File D:\_m2work\Server Client TMP4\ClientVS22\source\UserInterface\PythonNetworkStreamPhaseGameActor.cpp

; 130  : 		__RecvCharacterAppendPacket(&kNetActorData);

  0016f	8d 85 40 ff ff
	ff		 lea	 eax, DWORD PTR _kNetActorData$[ebp]
  00175	8b cf		 mov	 ecx, edi
  00177	50		 push	 eax
  00178	e8 00 00 00 00	 call	 ?__RecvCharacterAppendPacket@CPythonNetworkStream@@IAEXPAUSNetworkActorData@@@Z ; CPythonNetworkStream::__RecvCharacterAppendPacket

; 131  : 	}

  0017d	eb 11		 jmp	 SHORT $LN4@RecvCharac
$LN3@RecvCharac:

; 132  : 	else
; 133  : 	{
; 134  : 		s_kNetActorData = kNetActorData;

  0017f	8d 85 40 ff ff
	ff		 lea	 eax, DWORD PTR _kNetActorData$[ebp]
  00185	b9 00 00 00 00	 mov	 ecx, OFFSET ?s_kNetActorData@@3USNetworkActorData@@A
  0018a	50		 push	 eax
  0018b	e8 00 00 00 00	 call	 ??4SNetworkActorData@@QAEXABU0@@Z ; SNetworkActorData::operator=
$LN4@RecvCharac:
; File C:\Program Files\Microsoft Visual Studio\2022\Community\VC\Tools\MSVC\14.44.35207\include\xstring

; 1383 :         _Tidy_deallocate();

  00190	8d 8d 40 ff ff
	ff		 lea	 ecx, DWORD PTR _kNetActorData$[ebp]
  00196	e8 00 00 00 00	 call	 ?_Tidy_deallocate@?$basic_string@DU?$char_traits@D@std@@V?$allocator@D@2@@std@@AAEXXZ ; std::basic_string<char,std::char_traits<char>,std::allocator<char> >::_Tidy_deallocate
; File D:\_m2work\Server Client TMP4\ClientVS22\source\UserInterface\PythonNetworkStreamPhaseGameActor.cpp

; 137  : 	return true;

  0019b	b0 01		 mov	 al, 1
$LN1@RecvCharac:

; 138  : }

  0019d	8b 4d f4	 mov	 ecx, DWORD PTR __$EHRec$[ebp]
  001a0	64 89 0d 00 00
	00 00		 mov	 DWORD PTR fs:0, ecx
  001a7	59		 pop	 ecx
  001a8	5f		 pop	 edi
  001a9	8b 4d f0	 mov	 ecx, DWORD PTR __$ArrayPad$[ebp]
  001ac	33 cd		 xor	 ecx, ebp
  001ae	e8 00 00 00 00	 call	 @__security_check_cookie@4
  001b3	8b e5		 mov	 esp, ebp
  001b5	5d		 pop	 ebp
  001b6	c3		 ret	 0
_TEXT	ENDS
;	COMDAT text$x
text$x	SEGMENT
__unwindfunclet$?RecvCharacterAppendPacket@CPythonNetworkStream@@IAE_NXZ$0:
  00000	8d 8d 40 ff ff
	ff		 lea	 ecx, DWORD PTR _kNetActorData$[ebp]
  00006	e9 00 00 00 00	 jmp	 ??1SNetworkActorData@@QAE@XZ
  0000b	cc		 int	 3
  0000c	cc		 int	 3
  0000d	cc		 int	 3
  0000e	cc		 int	 3
  0000f	cc		 int	 3
__ehhandler$?RecvCharacterAppendPacket@CPythonNetworkStream@@IAE_NXZ:
  00010	90		 npad	 1
  00011	90		 npad	 1
  00012	8b 54 24 08	 mov	 edx, DWORD PTR [esp+8]
  00016	8d 42 0c	 lea	 eax, DWORD PTR [edx+12]
  00019	8b 8a 3c ff ff
	ff		 mov	 ecx, DWORD PTR [edx-196]
  0001f	33 c8		 xor	 ecx, eax
  00021	e8 00 00 00 00	 call	 @__security_check_cookie@4
  00026	8b 4a fc	 mov	 ecx, DWORD PTR [edx-4]
  00029	33 c8		 xor	 ecx, eax
  0002b	e8 00 00 00 00	 call	 @__security_check_cookie@4
  00030	b8 00 00 00 00	 mov	 eax, OFFSET __ehfuncinfo$?RecvCharacterAppendPacket@CPythonNetworkStream@@IAE_NXZ
  00035	e9 00 00 00 00	 jmp	 ___CxxFrameHandler3
text$x	ENDS
?RecvCharacterAppendPacket@CPythonNetworkStream@@IAE_NXZ ENDP ; CPythonNetworkStream::RecvCharacterAppendPacket
; Function compile flags: /Ogtp
; File D:\_m2work\Server Client TMP4\ClientVS22\source\UserInterface\NetworkActorManager.h
;	COMDAT ??0SNetworkMoveActorData@@QAE@XZ
_TEXT	SEGMENT
??0SNetworkMoveActorData@@QAE@XZ PROC			; SNetworkMoveActorData::SNetworkMoveActorData, COMDAT
; _this$ = ecx

; 69   : 	{
; 70   : 		m_dwVID=0;

  00000	c7 01 00 00 00
	00		 mov	 DWORD PTR [ecx], 0

; 71   : 		m_dwTime=0;
; 72   : 		m_fRot=0.0f;
; 73   : 		m_lPosX=0;
; 74   : 		m_lPosY=0;
; 75   : 		m_dwFunc=0;
; 76   : 		m_dwArg=0;
; 77   : 		m_dwDuration=0;
; 78   : 	}

  00006	8b c1		 mov	 eax, ecx
  00008	c7 41 04 00 00
	00 00		 mov	 DWORD PTR [ecx+4], 0
  0000f	c7 41 10 00 00
	00 00		 mov	 DWORD PTR [ecx+16], 0
  00016	c7 41 08 00 00
	00 00		 mov	 DWORD PTR [ecx+8], 0
  0001d	c7 41 0c 00 00
	00 00		 mov	 DWORD PTR [ecx+12], 0
  00024	c7 41 14 00 00
	00 00		 mov	 DWORD PTR [ecx+20], 0
  0002b	c7 41 18 00 00
	00 00		 mov	 DWORD PTR [ecx+24], 0
  00032	c7 41 1c 00 00
	00 00		 mov	 DWORD PTR [ecx+28], 0
  00039	c3		 ret	 0
??0SNetworkMoveActorData@@QAE@XZ ENDP			; SNetworkMoveActorData::SNetworkMoveActorData
_TEXT	ENDS
; Function compile flags: /Ogtp
; File D:\_m2work\Server Client TMP4\ClientVS22\source\UserInterface\NetworkActorManager.h
;	COMDAT ??0SNetworkUpdateActorData@@QAE@XZ
_TEXT	SEGMENT
??0SNetworkUpdateActorData@@QAE@XZ PROC			; SNetworkUpdateActorData::SNetworkUpdateActorData, COMDAT
; _this$ = ecx

; 96   : 	SNetworkUpdateActorData()

  00000	8b d1		 mov	 edx, ecx

; 97   : 	{

  00002	8d 4a 28	 lea	 ecx, DWORD PTR [edx+40]
  00005	e8 00 00 00 00	 call	 ??0CAffectFlagContainer@@QAE@XZ ; CAffectFlagContainer::CAffectFlagContainer

; 98   : 		m_dwGuildID=0;
; 99   : 		m_dwVID=0;
; 100  : 		m_dwArmor=0;
; 101  : 		m_dwWeapon=0;
; 102  : 		m_dwHair=0;
; 103  : 		m_dwMovSpd=0;
; 104  : 		m_dwAtkSpd=0;
; 105  : 		m_sAlignment=0;

  0000a	33 c0		 xor	 eax, eax
  0000c	c7 42 04 00 00
	00 00		 mov	 DWORD PTR [edx+4], 0
  00013	c7 02 00 00 00
	00		 mov	 DWORD PTR [edx], 0
  00019	c7 42 08 00 00
	00 00		 mov	 DWORD PTR [edx+8], 0
  00020	c7 42 0c 00 00
	00 00		 mov	 DWORD PTR [edx+12], 0
  00027	c7 42 10 00 00
	00 00		 mov	 DWORD PTR [edx+16], 0
  0002e	c7 42 14 00 00
	00 00		 mov	 DWORD PTR [edx+20], 0
  00035	c7 42 18 00 00
	00 00		 mov	 DWORD PTR [edx+24], 0
  0003c	66 89 42 1c	 mov	 WORD PTR [edx+28], ax

; 106  : 		m_byPKMode=0;

  00040	88 42 1e	 mov	 BYTE PTR [edx+30], al

; 107  : 		m_dwMountVnum=0;

  00043	89 42 20	 mov	 DWORD PTR [edx+32], eax

; 108  : 		m_dwStateFlags=0;

  00046	89 42 24	 mov	 DWORD PTR [edx+36], eax

; 109  : 		m_kAffectFlags.Clear();

  00049	e8 00 00 00 00	 call	 ?Clear@CAffectFlagContainer@@QAEXXZ ; CAffectFlagContainer::Clear

; 110  : 	}

  0004e	8b c2		 mov	 eax, edx
  00050	c3		 ret	 0
??0SNetworkUpdateActorData@@QAE@XZ ENDP			; SNetworkUpdateActorData::SNetworkUpdateActorData
_TEXT	ENDS
; Function compile flags: /Ogtp
; File D:\_m2work\Server Client TMP4\ClientVS22\source\UserInterface\PythonNetworkStreamPhaseGameActor.cpp
;	COMDAT ?__SetWeaponPower@@YAXAAVIAbstractPlayer@@K@Z
_TEXT	SEGMENT
_minMagicPower$1$ = -12					; size = 4
_maxMagicPower$1$ = -8					; size = 4
_pkWeapon$ = -4						; size = 4
?__SetWeaponPower@@YAXAAVIAbstractPlayer@@K@Z PROC	; __SetWeaponPower, COMDAT
; _rkPlayer$ = ecx
; _dwWeaponID$ = edx

; 42   : {

  00000	55		 push	 ebp
  00001	8b ec		 mov	 ebp, esp
  00003	83 ec 0c	 sub	 esp, 12			; 0000000cH
  00006	53		 push	 ebx
  00007	56		 push	 esi
  00008	57		 push	 edi

; 43   : 	DWORD minPower=0;
; 44   : 	DWORD maxPower=0;
; 45   : 	DWORD minMagicPower=0;
; 46   : 	DWORD maxMagicPower=0;
; 47   : 	DWORD addPower=0;
; 48   : 
; 49   : 	CItemData* pkWeapon;
; 50   : 	if (CItemManager::Instance().GetItemDataPointer(dwWeaponID, &pkWeapon))

  00009	8d 45 fc	 lea	 eax, DWORD PTR _pkWeapon$[ebp]
  0000c	8b f1		 mov	 esi, ecx
  0000e	8b 0d 00 00 00
	00		 mov	 ecx, DWORD PTR ?ms_singleton@?$CSingleton@VCItemManager@@@@0PAVCItemManager@@A ; CSingleton<CItemManager>::ms_singleton
  00014	33 db		 xor	 ebx, ebx
  00016	50		 push	 eax
  00017	52		 push	 edx
  00018	33 ff		 xor	 edi, edi
  0001a	89 5d f4	 mov	 DWORD PTR _minMagicPower$1$[ebp], ebx
  0001d	89 5d f8	 mov	 DWORD PTR _maxMagicPower$1$[ebp], ebx
  00020	e8 00 00 00 00	 call	 ?GetItemDataPointer@CItemManager@@QAEHKPAPAVCItemData@@@Z ; CItemManager::GetItemDataPointer
  00025	85 c0		 test	 eax, eax
  00027	74 4a		 je	 SHORT $LN6@SetWeaponP

; 51   : 	{
; 52   : 		if (pkWeapon->GetType()==CItemData::ITEM_TYPE_WEAPON)

  00029	8b 4d fc	 mov	 ecx, DWORD PTR _pkWeapon$[ebp]
  0002c	e8 00 00 00 00	 call	 ?GetType@CItemData@@QBEEXZ ; CItemData::GetType
  00031	3c 01		 cmp	 al, 1
  00033	75 3e		 jne	 SHORT $LN6@SetWeaponP

; 53   : 		{
; 54   : 			minPower=pkWeapon->GetValue(3);

  00035	8b 4d fc	 mov	 ecx, DWORD PTR _pkWeapon$[ebp]
  00038	6a 03		 push	 3
  0003a	e8 00 00 00 00	 call	 ?GetValue@CItemData@@QBEJE@Z ; CItemData::GetValue

; 55   : 			maxPower=pkWeapon->GetValue(4);

  0003f	8b 4d fc	 mov	 ecx, DWORD PTR _pkWeapon$[ebp]
  00042	8b f8		 mov	 edi, eax
  00044	6a 04		 push	 4
  00046	e8 00 00 00 00	 call	 ?GetValue@CItemData@@QBEJE@Z ; CItemData::GetValue

; 56   : 			minMagicPower=pkWeapon->GetValue(1);

  0004b	8b 4d fc	 mov	 ecx, DWORD PTR _pkWeapon$[ebp]
  0004e	8b d8		 mov	 ebx, eax
  00050	6a 01		 push	 1
  00052	e8 00 00 00 00	 call	 ?GetValue@CItemData@@QBEJE@Z ; CItemData::GetValue

; 57   : 			maxMagicPower=pkWeapon->GetValue(2);

  00057	8b 4d fc	 mov	 ecx, DWORD PTR _pkWeapon$[ebp]
  0005a	6a 02		 push	 2
  0005c	89 45 f4	 mov	 DWORD PTR _minMagicPower$1$[ebp], eax
  0005f	e8 00 00 00 00	 call	 ?GetValue@CItemData@@QBEJE@Z ; CItemData::GetValue

; 58   : 			addPower=pkWeapon->GetValue(5);

  00064	8b 4d fc	 mov	 ecx, DWORD PTR _pkWeapon$[ebp]
  00067	6a 05		 push	 5
  00069	89 45 f8	 mov	 DWORD PTR _maxMagicPower$1$[ebp], eax
  0006c	e8 00 00 00 00	 call	 ?GetValue@CItemData@@QBEJE@Z ; CItemData::GetValue
  00071	eb 02		 jmp	 SHORT $LN3@SetWeaponP
$LN6@SetWeaponP:

; 59   : 		}
; 60   : 	}
; 61   : 
; 62   : 	rkPlayer.SetWeaponPower(minPower, maxPower, minMagicPower, maxMagicPower, addPower);

  00073	33 c0		 xor	 eax, eax
$LN3@SetWeaponP:
  00075	8b 16		 mov	 edx, DWORD PTR [esi]
  00077	8b ce		 mov	 ecx, esi
  00079	50		 push	 eax
  0007a	ff 75 f8	 push	 DWORD PTR _maxMagicPower$1$[ebp]
  0007d	ff 75 f4	 push	 DWORD PTR _minMagicPower$1$[ebp]
  00080	53		 push	 ebx
  00081	57		 push	 edi
  00082	ff 52 5c	 call	 DWORD PTR [edx+92]
  00085	5f		 pop	 edi
  00086	5e		 pop	 esi
  00087	5b		 pop	 ebx

; 63   : }

  00088	8b e5		 mov	 esp, ebp
  0008a	5d		 pop	 ebp
  0008b	c3		 ret	 0
?__SetWeaponPower@@YAXAAVIAbstractPlayer@@K@Z ENDP	; __SetWeaponPower
_TEXT	ENDS
; Function compile flags: /Ogtp
; File D:\_m2work\Server Client TMP4\ClientVS22\source\UserInterface\PythonNetworkStreamPhaseGameActor.cpp
;	COMDAT ?IsInvisibleRace@@YA_NG@Z
_TEXT	SEGMENT
?IsInvisibleRace@@YA_NG@Z PROC				; IsInvisibleRace, COMDAT
; _raceNum$ = cx

; 69   : 	switch(raceNum)

  00000	0f b7 c1	 movzx	 eax, cx
  00003	2d 39 4e 00 00	 sub	 eax, 20025		; 00004e39H
  00008	74 0d		 je	 SHORT $LN4@IsInvisibl
  0000a	83 e8 0d	 sub	 eax, 13			; 0000000dH
  0000d	74 08		 je	 SHORT $LN4@IsInvisibl
  0000f	83 e8 01	 sub	 eax, 1
  00012	74 03		 je	 SHORT $LN4@IsInvisibl

; 75   : 	default:
; 76   : 		return false;

  00014	32 c0		 xor	 al, al

; 77   : 	}
; 78   : }

  00016	c3		 ret	 0
$LN4@IsInvisibl:

; 70   : 	{
; 71   : 	case 20025:
; 72   : 	case 20038:
; 73   : 	case 20039:
; 74   : 		return true;

  00017	b0 01		 mov	 al, 1

; 77   : 	}
; 78   : }

  00019	c3		 ret	 0
?IsInvisibleRace@@YA_NG@Z ENDP				; IsInvisibleRace
_TEXT	ENDS
; Function compile flags: /Ogtp
; File D:\_m2work\Server Client TMP4\ClientVS22\source\UserInterface\PythonNetworkStreamPhaseGameActor.cpp
;	COMDAT ??__Es_kNetActorData@@YAXXZ
text$di	SEGMENT
??__Es_kNetActorData@@YAXXZ PROC			; `dynamic initializer for 's_kNetActorData'', COMDAT

; 80   : static SNetworkActorData s_kNetActorData;

  00000	b9 00 00 00 00	 mov	 ecx, OFFSET ?s_kNetActorData@@3USNetworkActorData@@A
  00005	e8 00 00 00 00	 call	 ??0SNetworkActorData@@QAE@XZ ; SNetworkActorData::SNetworkActorData
  0000a	68 00 00 00 00	 push	 OFFSET ??__Fs_kNetActorData@@YAXXZ ; `dynamic atexit destructor for 's_kNetActorData''
  0000f	e8 00 00 00 00	 call	 _atexit
  00014	59		 pop	 ecx
  00015	c3		 ret	 0
??__Es_kNetActorData@@YAXXZ ENDP			; `dynamic initializer for 's_kNetActorData''
text$di	ENDS
; Function compile flags: /Ogtp
; File C:\Program Files\Microsoft Visual Studio\2022\Community\VC\Tools\MSVC\14.44.35207\include\xstring
;	COMDAT ??__Fs_kNetActorData@@YAXXZ
text$yd	SEGMENT
??__Fs_kNetActorData@@YAXXZ PROC			; `dynamic atexit destructor for 's_kNetActorData'', COMDAT
  00000	b9 18 00 00 00	 mov	 ecx, OFFSET ?s_kNetActorData@@3USNetworkActorData@@A+24
  00005	e8 00 00 00 00	 call	 ??1CAffectFlagContainer@@QAE@XZ ; CAffectFlagContainer::~CAffectFlagContainer

; 1383 :         _Tidy_deallocate();

  0000a	b9 00 00 00 00	 mov	 ecx, OFFSET ?s_kNetActorData@@3USNetworkActorData@@A
  0000f	e9 00 00 00 00	 jmp	 ?_Tidy_deallocate@?$basic_string@DU?$char_traits@D@std@@V?$allocator@D@2@@std@@AAEXXZ ; std::basic_string<char,std::char_traits<char>,std::allocator<char> >::_Tidy_deallocate
??__Fs_kNetActorData@@YAXXZ ENDP			; `dynamic atexit destructor for 's_kNetActorData''
text$yd	ENDS
; Function compile flags: /Ogtp
;	COMDAT ??1SNetworkUpdateActorData@@QAE@XZ
_TEXT	SEGMENT
??1SNetworkUpdateActorData@@QAE@XZ PROC			; SNetworkUpdateActorData::~SNetworkUpdateActorData, COMDAT
; _this$ = ecx
  00000	c2 00 00	 ret	 0
??1SNetworkUpdateActorData@@QAE@XZ ENDP			; SNetworkUpdateActorData::~SNetworkUpdateActorData
_TEXT	ENDS
; Function compile flags: /Ogtp
; File D:\_m2work\Server Client TMP4\ClientVS22\source\UserInterface\PythonNetworkStreamPhaseGameActor.cpp
; File C:\Program Files\Microsoft Visual Studio\2022\Community\VC\Tools\MSVC\14.44.35207\include\xstring
; File C:\Program Files\Microsoft Visual Studio\2022\Community\VC\Tools\MSVC\14.44.35207\include\__msvc_string_view.hpp
; File C:\Program Files\Microsoft Visual Studio\2022\Community\VC\Tools\MSVC\14.44.35207\include\xstring
; File C:\Program Files\Microsoft Visual Studio\2022\Community\VC\Tools\MSVC\14.44.35207\include\__msvc_string_view.hpp
; File C:\Program Files\Microsoft Visual Studio\2022\Community\VC\Tools\MSVC\14.44.35207\include\xstring
; File D:\_m2work\Server Client TMP4\ClientVS22\source\UserInterface\PythonNetworkStreamPhaseGameActor.cpp
; File C:\Program Files\Microsoft Visual Studio\2022\Community\VC\Tools\MSVC\14.44.35207\include\xstring
; File C:\Program Files\Microsoft Visual Studio\2022\Community\VC\Tools\MSVC\14.44.35207\include\__msvc_string_view.hpp
; File C:\Program Files\Microsoft Visual Studio\2022\Community\VC\Tools\MSVC\14.44.35207\include\xstring
; File C:\Program Files\Microsoft Visual Studio\2022\Community\VC\Tools\MSVC\14.44.35207\include\__msvc_string_view.hpp
; File D:\_m2work\Server Client TMP4\ClientVS22\source\UserInterface\PythonNetworkStreamPhaseGameActor.cpp
; File C:\Program Files\Microsoft Visual Studio\2022\Community\VC\Tools\MSVC\14.44.35207\include\__msvc_string_view.hpp
; File D:\_m2work\Server Client TMP4\ClientVS22\source\UserInterface\PythonNetworkStreamPhaseGameActor.cpp
; File C:\Program Files\Microsoft Visual Studio\2022\Community\VC\Tools\MSVC\14.44.35207\include\xstring
; File C:\Program Files\Microsoft Visual Studio\2022\Community\VC\Tools\MSVC\14.44.35207\include\xmemory
; File D:\_m2work\Server Client TMP4\ClientVS22\source\UserInterface\PythonNetworkStreamPhaseGameActor.cpp
; File C:\Program Files\Microsoft Visual Studio\2022\Community\VC\Tools\MSVC\14.44.35207\include\xmemory
; File D:\_m2work\Server Client TMP4\ClientVS22\source\UserInterface\PythonNetworkStreamPhaseGameActor.cpp
;	COMDAT ?__RecvCharacterAppendPacket@CPythonNetworkStream@@IAEXPAUSNetworkActorData@@@Z
_TEXT	SEGMENT
tv461 = -56						; size = 4
_pkNetActorData$GSCopy$1$ = -52				; size = 4
_this$GSCopy$1$ = -48					; size = 4
_strMapName$2 = -44					; size = 24
__$ArrayPad$ = -20					; size = 4
__$EHRec$ = -12						; size = 12
_pkNetActorData$ = 8					; size = 4
?__RecvCharacterAppendPacket@CPythonNetworkStream@@IAEXPAUSNetworkActorData@@@Z PROC ; CPythonNetworkStream::__RecvCharacterAppendPacket, COMDAT
; _this$ = ecx

; 262  : {

  00000	53		 push	 ebx
  00001	8b dc		 mov	 ebx, esp
  00003	83 ec 08	 sub	 esp, 8
  00006	83 e4 f8	 and	 esp, -8			; fffffff8H
  00009	83 c4 04	 add	 esp, 4
  0000c	55		 push	 ebp
  0000d	8b 6b 04	 mov	 ebp, DWORD PTR [ebx+4]
  00010	89 6c 24 04	 mov	 DWORD PTR [esp+4], ebp
  00014	8b ec		 mov	 ebp, esp
  00016	6a ff		 push	 -1
  00018	68 00 00 00 00	 push	 __ehhandler$?__RecvCharacterAppendPacket@CPythonNetworkStream@@IAEXPAUSNetworkActorData@@@Z
  0001d	64 a1 00 00 00
	00		 mov	 eax, DWORD PTR fs:0
  00023	50		 push	 eax
  00024	53		 push	 ebx
  00025	83 ec 28	 sub	 esp, 40			; 00000028H
  00028	a1 00 00 00 00	 mov	 eax, DWORD PTR ___security_cookie
  0002d	33 c5		 xor	 eax, ebp
  0002f	89 45 ec	 mov	 DWORD PTR __$ArrayPad$[ebp], eax
  00032	56		 push	 esi
  00033	57		 push	 edi
  00034	50		 push	 eax
  00035	8d 45 f4	 lea	 eax, DWORD PTR __$EHRec$[ebp]
  00038	64 a3 00 00 00
	00		 mov	 DWORD PTR fs:0, eax
  0003e	89 4d d0	 mov	 DWORD PTR _this$GSCopy$1$[ebp], ecx

; 263  : 	// NOTE : 카메라가 땅에 묻히는 문제의 해결을 위해 메인 캐릭터가 지형에 올려지기
; 264  : 	//        전에 맵을 업데이트 해 높이를 구할 수 있도록 해놓아야 합니다.
; 265  : 	//        단, 게임이 들어갈때가 아닌 이미 캐릭터가 추가 된 이후에만 합니다.
; 266  : 	//        헌데 이동인데 왜 Move로 안하고 Append로 하는지..? - [levites]
; 267  : 	IAbstractPlayer& rkPlayer = IAbstractPlayer::GetSingleton();

  00041	8b 3d 00 00 00
	00		 mov	 edi, DWORD PTR ?ms_singleton@?$TAbstractSingleton@VIAbstractPlayer@@@@0PAVIAbstractPlayer@@A ; TAbstractSingleton<IAbstractPlayer>::ms_singleton

; 268  : 	if (rkPlayer.IsMainCharacterIndex(pkNetActorData->m_dwVID))

  00047	8b cf		 mov	 ecx, edi
  00049	8b 73 08	 mov	 esi, DWORD PTR _pkNetActorData$[ebx]
  0004c	89 75 cc	 mov	 DWORD PTR _pkNetActorData$GSCopy$1$[ebp], esi
  0004f	8b 07		 mov	 eax, DWORD PTR [edi]
  00051	ff 76 24	 push	 DWORD PTR [esi+36]
  00054	8b 40 0c	 mov	 eax, DWORD PTR [eax+12]
  00057	ff d0		 call	 eax
  00059	84 c0		 test	 al, al
  0005b	0f 84 6f 01 00
	00		 je	 $LN4@RecvCharac

; 269  : 	{
; 270  : 		rkPlayer.SetRace(pkNetActorData->m_dwRace);

  00061	8b 07		 mov	 eax, DWORD PTR [edi]
  00063	8b cf		 mov	 ecx, edi
  00065	ff 76 30	 push	 DWORD PTR [esi+48]
  00068	ff 50 18	 call	 DWORD PTR [eax+24]

; 271  : 
; 272  : 		__SetWeaponPower(rkPlayer, pkNetActorData->m_dwWeapon);

  0006b	8b 56 68	 mov	 edx, DWORD PTR [esi+104]
  0006e	8b cf		 mov	 ecx, edi
  00070	e8 00 00 00 00	 call	 ?__SetWeaponPower@@YAXAAVIAbstractPlayer@@K@Z ; __SetWeaponPower

; 273  : 
; 274  : 		if (rkPlayer.NEW_GetMainActorPtr())

  00075	8b 07		 mov	 eax, DWORD PTR [edi]
  00077	8b cf		 mov	 ecx, edi
  00079	8b 80 88 00 00
	00		 mov	 eax, DWORD PTR [eax+136]
  0007f	ff d0		 call	 eax
  00081	8b 4e 44	 mov	 ecx, DWORD PTR [esi+68]
  00084	8b 56 40	 mov	 edx, DWORD PTR [esi+64]
  00087	85 c0		 test	 eax, eax
  00089	0f 84 37 01 00
	00		 je	 $LN3@RecvCharac

; 275  : 		{
; 276  : 			CPythonBackground::Instance().Update(pkNetActorData->m_lCurX, pkNetActorData->m_lCurY, 0.0f);

  0008f	66 0f 6e d1	 movd	 xmm2, ecx
  00093	0f 57 db	 xorps	 xmm3, xmm3
  00096	8b 0d 00 00 00
	00		 mov	 ecx, DWORD PTR ?ms_singleton@?$CSingleton@VCPythonBackground@@@@0PAVCPythonBackground@@A ; CSingleton<CPythonBackground>::ms_singleton
  0009c	66 0f 6e ca	 movd	 xmm1, edx
  000a0	0f 5b d2	 cvtdq2ps xmm2, xmm2
  000a3	0f 5b c9	 cvtdq2ps xmm1, xmm1
  000a6	e8 00 00 00 00	 call	 ?Update@CPythonBackground@@QAEXMMM@Z ; CPythonBackground::Update

; 277  : 			CPythonCharacterManager::Instance().Update();

  000ab	8b 0d 00 00 00
	00		 mov	 ecx, DWORD PTR ?ms_singleton@?$CSingleton@VCPythonCharacterManager@@@@0PAVCPythonCharacterManager@@A ; CSingleton<CPythonCharacterManager>::ms_singleton
  000b1	e8 00 00 00 00	 call	 ?Update@CPythonCharacterManager@@QAEXXZ ; CPythonCharacterManager::Update

; 281  : 				std::string strMapName = CPythonBackground::Instance().GetWarpMapName();

  000b6	8b 0d 00 00 00
	00		 mov	 ecx, DWORD PTR ?ms_singleton@?$CSingleton@VCPythonBackground@@@@0PAVCPythonBackground@@A ; CSingleton<CPythonBackground>::ms_singleton
  000bc	e8 00 00 00 00	 call	 ?GetWarpMapName@CPythonBackground@@QAEPBDXZ ; CPythonBackground::GetWarpMapName
  000c1	8b d0		 mov	 edx, eax
; File C:\Program Files\Microsoft Visual Studio\2022\Community\VC\Tools\MSVC\14.44.35207\include\xstring

; 517  :     size_type _Mysize = 0; // current length of string (size)

  000c3	c7 45 e4 00 00
	00 00		 mov	 DWORD PTR _strMapName$2[ebp+16], 0
; File C:\Program Files\Microsoft Visual Studio\2022\Community\VC\Tools\MSVC\14.44.35207\include\__msvc_string_view.hpp

; 456  :             return __builtin_strlen(_First);

  000ca	8b ca		 mov	 ecx, edx
; File C:\Program Files\Microsoft Visual Studio\2022\Community\VC\Tools\MSVC\14.44.35207\include\xstring

; 518  :     size_type _Myres  = 0; // current storage reserved for string (capacity)

  000cc	c7 45 e8 00 00
	00 00		 mov	 DWORD PTR _strMapName$2[ebp+20], 0
  000d3	0f 57 c0	 xorps	 xmm0, xmm0

; 493  :         _CONSTEXPR20 _Bxty() noexcept : _Buf() {} // user-provided, for fancy pointers

  000d6	0f 11 45 d4	 movups	 XMMWORD PTR _strMapName$2[ebp], xmm0
; File C:\Program Files\Microsoft Visual Studio\2022\Community\VC\Tools\MSVC\14.44.35207\include\__msvc_string_view.hpp

; 456  :             return __builtin_strlen(_First);

  000da	8d 41 01	 lea	 eax, DWORD PTR [ecx+1]
  000dd	89 45 c8	 mov	 DWORD PTR tv461[ebp], eax
$LL88@RecvCharac:
  000e0	8a 01		 mov	 al, BYTE PTR [ecx]
  000e2	41		 inc	 ecx
  000e3	84 c0		 test	 al, al
  000e5	75 f9		 jne	 SHORT $LL88@RecvCharac
  000e7	2b 4d c8	 sub	 ecx, DWORD PTR tv461[ebp]
; File C:\Program Files\Microsoft Visual Studio\2022\Community\VC\Tools\MSVC\14.44.35207\include\xstring

; 769  :         _Construct<_Construct_strategy::_From_ptr>(_Ptr, _Convert_size<size_type>(_Traits::length(_Ptr)));

  000ea	51		 push	 ecx
  000eb	52		 push	 edx
  000ec	8d 4d d4	 lea	 ecx, DWORD PTR _strMapName$2[ebp]
  000ef	e8 00 00 00 00	 call	 ??$_Construct@$00PBD@?$basic_string@DU?$char_traits@D@std@@V?$allocator@D@2@@std@@AAEXQBDI@Z ; std::basic_string<char,std::char_traits<char>,std::allocator<char> >::_Construct<1,char const *>
; File D:\_m2work\Server Client TMP4\ClientVS22\source\UserInterface\PythonNetworkStreamPhaseGameActor.cpp

; 281  : 				std::string strMapName = CPythonBackground::Instance().GetWarpMapName();

  000f4	c7 45 fc 00 00
	00 00		 mov	 DWORD PTR __$EHRec$[ebp+8], 0
; File C:\Program Files\Microsoft Visual Studio\2022\Community\VC\Tools\MSVC\14.44.35207\include\xstring

; 444  :         const value_type* _Result = _Bx._Buf;

  000fb	8d 4d d4	 lea	 ecx, DWORD PTR _strMapName$2[ebp]

; 453  :         return _Myres > _Small_string_capacity;

  000fe	83 7d e8 0f	 cmp	 DWORD PTR _strMapName$2[ebp+20], 15 ; 0000000fH

; 445  :         if (_Large_mode_engaged()) {

  00102	8b 45 d4	 mov	 eax, DWORD PTR _strMapName$2[ebp]
; File C:\Program Files\Microsoft Visual Studio\2022\Community\VC\Tools\MSVC\14.44.35207\include\__msvc_string_view.hpp

; 604  :     if (_Left_size != _Right_size) {

  00105	8b 55 e4	 mov	 edx, DWORD PTR _strMapName$2[ebp+16]
; File C:\Program Files\Microsoft Visual Studio\2022\Community\VC\Tools\MSVC\14.44.35207\include\xstring

; 445  :         if (_Large_mode_engaged()) {

  00108	0f 47 c8	 cmova	 ecx, eax
; File C:\Program Files\Microsoft Visual Studio\2022\Community\VC\Tools\MSVC\14.44.35207\include\__msvc_string_view.hpp

; 604  :     if (_Left_size != _Right_size) {

  0010b	83 fa 16	 cmp	 edx, 22			; 00000016H
  0010e	75 79		 jne	 SHORT $LN5@RecvCharac

; 605  :         return false;
; 606  :     }
; 607  : 
; 608  :     if (_Left_size == 0u) {

  00110	85 d2		 test	 edx, edx
  00112	74 64		 je	 SHORT $LN87@RecvCharac

; 437  :         return __builtin_memcmp(_First1, _First2, _Count);

  00114	be 00 00 00 00	 mov	 esi, OFFSET ??_C@_0BH@EOJPPMKE@metin2_map_deviltower1@
  00119	83 ea 04	 sub	 edx, 4
  0011c	72 13		 jb	 SHORT $LN91@RecvCharac
  0011e	66 90		 npad	 2
$LL92@RecvCharac:
  00120	8b 01		 mov	 eax, DWORD PTR [ecx]
  00122	3b 06		 cmp	 eax, DWORD PTR [esi]
  00124	75 10		 jne	 SHORT $LN90@RecvCharac
  00126	83 c1 04	 add	 ecx, 4
  00129	83 c6 04	 add	 esi, 4
  0012c	83 ea 04	 sub	 edx, 4
  0012f	73 ef		 jae	 SHORT $LL92@RecvCharac
$LN91@RecvCharac:
  00131	83 fa fc	 cmp	 edx, -4			; fffffffcH
  00134	74 34		 je	 SHORT $LN89@RecvCharac
$LN90@RecvCharac:
  00136	8a 01		 mov	 al, BYTE PTR [ecx]
  00138	3a 06		 cmp	 al, BYTE PTR [esi]
  0013a	75 27		 jne	 SHORT $LN93@RecvCharac
  0013c	83 fa fd	 cmp	 edx, -3			; fffffffdH
  0013f	74 29		 je	 SHORT $LN89@RecvCharac
  00141	8a 41 01	 mov	 al, BYTE PTR [ecx+1]
  00144	3a 46 01	 cmp	 al, BYTE PTR [esi+1]
  00147	75 1a		 jne	 SHORT $LN93@RecvCharac
  00149	83 fa fe	 cmp	 edx, -2			; fffffffeH
  0014c	74 1c		 je	 SHORT $LN89@RecvCharac
  0014e	8a 41 02	 mov	 al, BYTE PTR [ecx+2]
  00151	3a 46 02	 cmp	 al, BYTE PTR [esi+2]
  00154	75 0d		 jne	 SHORT $LN93@RecvCharac
  00156	83 fa ff	 cmp	 edx, -1
  00159	74 0f		 je	 SHORT $LN89@RecvCharac
  0015b	8a 41 03	 mov	 al, BYTE PTR [ecx+3]
  0015e	3a 46 03	 cmp	 al, BYTE PTR [esi+3]
  00161	74 07		 je	 SHORT $LN89@RecvCharac
$LN93@RecvCharac:
  00163	1b c0		 sbb	 eax, eax
  00165	83 c8 01	 or	 eax, 1
  00168	eb 02		 jmp	 SHORT $LN94@RecvCharac
$LN89@RecvCharac:
  0016a	33 c0		 xor	 eax, eax
$LN94@RecvCharac:
; File D:\_m2work\Server Client TMP4\ClientVS22\source\UserInterface\PythonNetworkStreamPhaseGameActor.cpp

; 282  : 				if (strMapName == "metin2_map_deviltower1")

  0016c	8b 75 cc	 mov	 esi, DWORD PTR _pkNetActorData$GSCopy$1$[ebp]
; File C:\Program Files\Microsoft Visual Studio\2022\Community\VC\Tools\MSVC\14.44.35207\include\__msvc_string_view.hpp

; 612  :     return _Traits::compare(_Left, _Right, _Left_size) == 0;

  0016f	85 c0		 test	 eax, eax
  00171	0f 94 c0	 sete	 al
; File D:\_m2work\Server Client TMP4\ClientVS22\source\UserInterface\PythonNetworkStreamPhaseGameActor.cpp

; 282  : 				if (strMapName == "metin2_map_deviltower1")

  00174	84 c0		 test	 al, al
  00176	74 0e		 je	 SHORT $LN95@RecvCharac
$LN87@RecvCharac:

; 283  : 					__ShowMapName(pkNetActorData->m_lCurX, pkNetActorData->m_lCurY);

  00178	ff 76 44	 push	 DWORD PTR [esi+68]
  0017b	8b 4d d0	 mov	 ecx, DWORD PTR _this$GSCopy$1$[ebp]
  0017e	ff 76 40	 push	 DWORD PTR [esi+64]
  00181	e8 00 00 00 00	 call	 ?__ShowMapName@CPythonNetworkStream@@IAEXJJ@Z ; CPythonNetworkStream::__ShowMapName
$LN95@RecvCharac:

; 284  : 			}

  00186	8b 45 d4	 mov	 eax, DWORD PTR _strMapName$2[ebp]
$LN5@RecvCharac:
  00189	c7 45 fc ff ff
	ff ff		 mov	 DWORD PTR __$EHRec$[ebp+8], -1
; File C:\Program Files\Microsoft Visual Studio\2022\Community\VC\Tools\MSVC\14.44.35207\include\xstring

; 453  :         return _Myres > _Small_string_capacity;

  00190	8b 4d e8	 mov	 ecx, DWORD PTR _strMapName$2[ebp+20]
  00193	83 f9 0f	 cmp	 ecx, 15			; 0000000fH

; 3083 :         if (_My_data._Large_mode_engaged()) {

  00196	76 38		 jbe	 SHORT $LN4@RecvCharac

; 852  :         _Al.deallocate(_Old_ptr, _Capacity + 1); // +1 for null terminator

  00198	41		 inc	 ecx
; File C:\Program Files\Microsoft Visual Studio\2022\Community\VC\Tools\MSVC\14.44.35207\include\xmemory

; 284  :         if (_Bytes >= _Big_allocation_threshold) {

  00199	81 f9 00 10 00
	00		 cmp	 ecx, 4096		; 00001000H
  0019f	72 16		 jb	 SHORT $LN96@RecvCharac

; 205  :     const uintptr_t _Ptr_container   = _Ptr_user[-1];

  001a1	8b 50 fc	 mov	 edx, DWORD PTR [eax-4]
  001a4	83 c1 23	 add	 ecx, 35			; 00000023H
  001a7	2b c2		 sub	 eax, edx

; 219  :     _STL_VERIFY(_Back_shift >= _Min_back_shift && _Back_shift <= _Non_user_size, "invalid argument");

  001a9	83 c0 fc	 add	 eax, -4			; fffffffcH
  001ac	83 f8 1f	 cmp	 eax, 31			; 0000001fH
  001af	0f 87 87 00 00
	00		 ja	 $LN100@RecvCharac
  001b5	eb 03		 jmp	 SHORT $LN80@RecvCharac
$LN96@RecvCharac:

; 284  :         if (_Bytes >= _Big_allocation_threshold) {

  001b7	8b 55 d4	 mov	 edx, DWORD PTR _strMapName$2[ebp]
$LN80@RecvCharac:

; 285  :             // boost the alignment of big allocations to help autovectorization
; 286  :             _Adjust_manually_vector_aligned(_Ptr, _Bytes);
; 287  :         }
; 288  : #endif // defined(_M_IX86) || defined(_M_X64)
; 289  :         ::operator delete(_Ptr, _Bytes);

  001ba	51		 push	 ecx
  001bb	52		 push	 edx
  001bc	e8 00 00 00 00	 call	 ??3@YAXPAXI@Z		; operator delete
  001c1	83 c4 08	 add	 esp, 8
; File D:\_m2work\Server Client TMP4\ClientVS22\source\UserInterface\PythonNetworkStreamPhaseGameActor.cpp

; 285  : 		}

  001c4	eb 0a		 jmp	 SHORT $LN4@RecvCharac
$LN3@RecvCharac:

; 286  : 		else
; 287  : 		{
; 288  : 			__ShowMapName(pkNetActorData->m_lCurX, pkNetActorData->m_lCurY);

  001c6	51		 push	 ecx
  001c7	8b 4d d0	 mov	 ecx, DWORD PTR _this$GSCopy$1$[ebp]
  001ca	52		 push	 edx
  001cb	e8 00 00 00 00	 call	 ?__ShowMapName@CPythonNetworkStream@@IAEXJJ@Z ; CPythonNetworkStream::__ShowMapName
$LN4@RecvCharac:

; 289  : 		}
; 290  : 	}
; 291  : 
; 292  : 	m_rokNetActorMgr->AppendActor(*pkNetActorData);

  001d0	8b 45 d0	 mov	 eax, DWORD PTR _this$GSCopy$1$[ebp]
  001d3	56		 push	 esi
  001d4	8b 88 0c 03 00
	00		 mov	 ecx, DWORD PTR [eax+780]
  001da	e8 00 00 00 00	 call	 ?AppendActor@CNetworkActorManager@@QAEXABUSNetworkActorData@@@Z ; CNetworkActorManager::AppendActor

; 293  : 
; 294  : 	if (GetMainActorVID()==pkNetActorData->m_dwVID)

  001df	8b 4d d0	 mov	 ecx, DWORD PTR _this$GSCopy$1$[ebp]
  001e2	e8 00 00 00 00	 call	 ?GetMainActorVID@CPythonNetworkStream@@QAEKXZ ; CPythonNetworkStream::GetMainActorVID
  001e7	3b 46 24	 cmp	 eax, DWORD PTR [esi+36]
  001ea	75 30		 jne	 SHORT $LN6@RecvCharac

; 295  : 	{
; 296  : 		rkPlayer.SetTarget(0);

  001ec	8b 07		 mov	 eax, DWORD PTR [edi]
  001ee	8b cf		 mov	 ecx, edi
  001f0	6a 01		 push	 1
  001f2	6a 00		 push	 0
  001f4	ff 50 60	 call	 DWORD PTR [eax+96]

; 297  : 		if (m_bComboSkillFlag)

  001f7	8b 45 d0	 mov	 eax, DWORD PTR _this$GSCopy$1$[ebp]
  001fa	8a 88 21 79 00
	00		 mov	 cl, BYTE PTR [eax+31009]
  00200	84 c9		 test	 cl, cl
  00202	74 0e		 je	 SHORT $LN7@RecvCharac

; 298  : 			rkPlayer.SetComboSkillFlag(m_bComboSkillFlag);

  00204	8b 17		 mov	 edx, DWORD PTR [edi]
  00206	0f b6 c1	 movzx	 eax, cl
  00209	8b cf		 mov	 ecx, edi
  0020b	50		 push	 eax
  0020c	ff 52 7c	 call	 DWORD PTR [edx+124]
  0020f	8b 45 d0	 mov	 eax, DWORD PTR _this$GSCopy$1$[ebp]
$LN7@RecvCharac:

; 299  : 
; 300  : 		__SetGuildID(pkNetActorData->m_dwGuildID);

  00212	ff 76 7c	 push	 DWORD PTR [esi+124]
  00215	8b c8		 mov	 ecx, eax
  00217	e8 00 00 00 00	 call	 ?__SetGuildID@CPythonNetworkStream@@IAEXK@Z ; CPythonNetworkStream::__SetGuildID
$LN6@RecvCharac:

; 303  : }

  0021c	8b 4d f4	 mov	 ecx, DWORD PTR __$EHRec$[ebp]
  0021f	64 89 0d 00 00
	00 00		 mov	 DWORD PTR fs:0, ecx
  00226	59		 pop	 ecx
  00227	5f		 pop	 edi
  00228	5e		 pop	 esi
  00229	8b 4d ec	 mov	 ecx, DWORD PTR __$ArrayPad$[ebp]
  0022c	33 cd		 xor	 ecx, ebp
  0022e	e8 00 00 00 00	 call	 @__security_check_cookie@4
  00233	8b e5		 mov	 esp, ebp
  00235	5d		 pop	 ebp
  00236	8b e3		 mov	 esp, ebx
  00238	5b		 pop	 ebx
  00239	c2 04 00	 ret	 4
$LN100@RecvCharac:
; File C:\Program Files\Microsoft Visual Studio\2022\Community\VC\Tools\MSVC\14.44.35207\include\xmemory

; 219  :     _STL_VERIFY(_Back_shift >= _Min_back_shift && _Back_shift <= _Non_user_size, "invalid argument");

  0023c	6a 00		 push	 0
  0023e	6a 00		 push	 0
  00240	6a 00		 push	 0
  00242	6a 00		 push	 0
  00244	6a 00		 push	 0
  00246	e8 00 00 00 00	 call	 __invoke_watson
$LN98@RecvCharac:
  0024b	cc		 int	 3
_TEXT	ENDS
;	COMDAT text$x
text$x	SEGMENT
__unwindfunclet$?__RecvCharacterAppendPacket@CPythonNetworkStream@@IAEXPAUSNetworkActorData@@@Z$0:
  00000	8d 4d d4	 lea	 ecx, DWORD PTR _strMapName$2[ebp]
  00003	e9 00 00 00 00	 jmp	 ??1?$basic_string@DU?$char_traits@D@std@@V?$allocator@D@2@@std@@QAE@XZ ; std::basic_string<char,std::char_traits<char>,std::allocator<char> >::~basic_string<char,std::char_traits<char>,std::allocator<char> >
  00008	cc		 int	 3
  00009	cc		 int	 3
  0000a	cc		 int	 3
  0000b	cc		 int	 3
  0000c	cc		 int	 3
__ehhandler$?__RecvCharacterAppendPacket@CPythonNetworkStream@@IAEXPAUSNetworkActorData@@@Z:
  0000d	90		 npad	 1
  0000e	90		 npad	 1
  0000f	8b 54 24 08	 mov	 edx, DWORD PTR [esp+8]
  00013	8d 42 0c	 lea	 eax, DWORD PTR [edx+12]
  00016	8b 4a c8	 mov	 ecx, DWORD PTR [edx-56]
  00019	33 c8		 xor	 ecx, eax
  0001b	e8 00 00 00 00	 call	 @__security_check_cookie@4
  00020	8b 4a f8	 mov	 ecx, DWORD PTR [edx-8]
  00023	33 c8		 xor	 ecx, eax
  00025	e8 00 00 00 00	 call	 @__security_check_cookie@4
  0002a	b8 00 00 00 00	 mov	 eax, OFFSET __ehfuncinfo$?__RecvCharacterAppendPacket@CPythonNetworkStream@@IAEXPAUSNetworkActorData@@@Z
  0002f	e9 00 00 00 00	 jmp	 ___CxxFrameHandler3
text$x	ENDS
?__RecvCharacterAppendPacket@CPythonNetworkStream@@IAEXPAUSNetworkActorData@@@Z ENDP ; CPythonNetworkStream::__RecvCharacterAppendPacket
; Function compile flags: /Ogtp
; File D:\_m2work\Server Client TMP4\ClientVS22\source\UserInterface\PythonNetworkStreamPhaseGameActor.cpp
;	COMDAT ?__RecvCharacterUpdatePacket@CPythonNetworkStream@@IAEXPAUSNetworkUpdateActorData@@@Z
_TEXT	SEGMENT
_pkNetUpdateActorData$ = 8				; size = 4
?__RecvCharacterUpdatePacket@CPythonNetworkStream@@IAEXPAUSNetworkUpdateActorData@@@Z PROC ; CPythonNetworkStream::__RecvCharacterUpdatePacket, COMDAT
; _this$ = ecx

; 306  : {

  00000	55		 push	 ebp
  00001	8b ec		 mov	 ebp, esp
  00003	53		 push	 ebx
  00004	56		 push	 esi
  00005	8b d9		 mov	 ebx, ecx
  00007	57		 push	 edi

; 307  : 	m_rokNetActorMgr->UpdateActor(*pkNetUpdateActorData);

  00008	8b 7d 08	 mov	 edi, DWORD PTR _pkNetUpdateActorData$[ebp]
  0000b	57		 push	 edi
  0000c	8b 8b 0c 03 00
	00		 mov	 ecx, DWORD PTR [ebx+780]
  00012	e8 00 00 00 00	 call	 ?UpdateActor@CNetworkActorManager@@QAEXABUSNetworkUpdateActorData@@@Z ; CNetworkActorManager::UpdateActor

; 308  : 
; 309  : 	IAbstractPlayer& rkPlayer = IAbstractPlayer::GetSingleton();

  00017	8b 35 00 00 00
	00		 mov	 esi, DWORD PTR ?ms_singleton@?$TAbstractSingleton@VIAbstractPlayer@@@@0PAVIAbstractPlayer@@A ; TAbstractSingleton<IAbstractPlayer>::ms_singleton

; 310  : 	if (rkPlayer.IsMainCharacterIndex(pkNetUpdateActorData->m_dwVID))

  0001d	8b ce		 mov	 ecx, esi
  0001f	ff 37		 push	 DWORD PTR [edi]
  00021	8b 06		 mov	 eax, DWORD PTR [esi]
  00023	8b 40 0c	 mov	 eax, DWORD PTR [eax+12]
  00026	ff d0		 call	 eax
  00028	84 c0		 test	 al, al
  0002a	74 33		 je	 SHORT $LN2@RecvCharac

; 311  : 	{
; 312  : 		__SetGuildID(pkNetUpdateActorData->m_dwGuildID);

  0002c	ff 77 04	 push	 DWORD PTR [edi+4]
  0002f	8b cb		 mov	 ecx, ebx
  00031	e8 00 00 00 00	 call	 ?__SetGuildID@CPythonNetworkStream@@IAEXK@Z ; CPythonNetworkStream::__SetGuildID

; 313  : 		__SetWeaponPower(rkPlayer, pkNetUpdateActorData->m_dwWeapon);

  00036	8b 57 0c	 mov	 edx, DWORD PTR [edi+12]
  00039	8b ce		 mov	 ecx, esi
  0003b	e8 00 00 00 00	 call	 ?__SetWeaponPower@@YAXAAVIAbstractPlayer@@K@Z ; __SetWeaponPower

; 314  : 
; 315  : 		__RefreshStatus();

  00040	8b cb		 mov	 ecx, ebx
  00042	e8 00 00 00 00	 call	 ?__RefreshStatus@CPythonNetworkStream@@IAEXXZ ; CPythonNetworkStream::__RefreshStatus

; 316  : 		__RefreshAlignmentWindow();

  00047	e8 00 00 00 00	 call	 ?__RefreshAlignmentWindow@CPythonNetworkStream@@IAEXXZ ; CPythonNetworkStream::__RefreshAlignmentWindow

; 317  : 		__RefreshEquipmentWindow();

  0004c	8b cb		 mov	 ecx, ebx
  0004e	e8 00 00 00 00	 call	 ?__RefreshEquipmentWindow@CPythonNetworkStream@@IAEXXZ ; CPythonNetworkStream::__RefreshEquipmentWindow

; 318  : 		__RefreshInventoryWindow();

  00053	e8 00 00 00 00	 call	 ?__RefreshInventoryWindow@CPythonNetworkStream@@IAEXXZ ; CPythonNetworkStream::__RefreshInventoryWindow

; 323  : 	}
; 324  : }

  00058	5f		 pop	 edi
  00059	5e		 pop	 esi
  0005a	5b		 pop	 ebx
  0005b	5d		 pop	 ebp
  0005c	c2 04 00	 ret	 4
$LN2@RecvCharac:

; 319  : 	}
; 320  : 	else
; 321  : 	{
; 322  : 		rkPlayer.NotifyCharacterUpdate(pkNetUpdateActorData->m_dwVID);

  0005f	8b 06		 mov	 eax, DWORD PTR [esi]
  00061	8b ce		 mov	 ecx, esi
  00063	ff 37		 push	 DWORD PTR [edi]
  00065	ff 50 64	 call	 DWORD PTR [eax+100]

; 323  : 	}
; 324  : }

  00068	5f		 pop	 edi
  00069	5e		 pop	 esi
  0006a	5b		 pop	 ebx
  0006b	5d		 pop	 ebp
  0006c	c2 04 00	 ret	 4
?__RecvCharacterUpdatePacket@CPythonNetworkStream@@IAEXPAUSNetworkUpdateActorData@@@Z ENDP ; CPythonNetworkStream::__RecvCharacterUpdatePacket
_TEXT	ENDS
END
