; Listing generated by Microsoft (R) Optimizing Compiler Version 19.44.35217.0 

	TITLE	d:\_m2work\txoko-m2-work\txoko-client-src\vs_files\userinterface\distribute\pythonapplication.obj
	.686P
	.XMM
	include listing.inc
	.model	flat

INCLUDELIB OLDNAMES

PUBLIC	?ms_pInstance@CPythonApplication@@1PAV1@A	; CPythonApplication::ms_pInstance
PUBLIC	??_C@_0GN@LLBDNFAM@?$DN?$DN?$DN?$DN?$DN?$DN?$DN?$DN?$DN?$DN?$DN?$DN?$DN?$DN?$DN?$DN?$DN?$DN?$DN?$DN?$DN?$DN?$DN?$DN?$DN?$DN?$DN?$DN?$DN?$DN?$DN@ ; `string'
PUBLIC	??_C@_0M@EHJKIBDK@Abort?$CB?$CB?$CB?$CB?6?6@	; `string'
PUBLIC	??_C@_0BF@OHHAPIAL@perf_game_render?4txt@	; `string'
PUBLIC	??_C@_0BH@GCCBAEAA@GR?4Total?5?$CFd?5?$CITime?5?$CFd?$CJ?6@ ; `string'
PUBLIC	??_C@_0L@EGAPCDKD@GR?4DFM?5?$CFd?6@		; `string'
PUBLIC	??_C@_0O@PLGAMGBI@GR?4EFT?4UP?5?$CFd?6@		; `string'
PUBLIC	??_C@_0L@MCADEBDB@GR?4SHW?5?$CFd?6@		; `string'
PUBLIC	??_C@_0L@OEOJMFCF@GR?4STT?5?$CFd?6@		; `string'
PUBLIC	??_C@_0L@CDOGKGFB@GR?4CLL?5?$CFd?6@		; `string'
PUBLIC	??_C@_0O@HPKPMDPE@GR?4BG?4SKY?5?$CFd?6@		; `string'
PUBLIC	??_C@_0O@JENIKJAN@GR?4BG?4LEN?5?$CFd?6@		; `string'
PUBLIC	??_C@_0O@HJPLNNBE@GR?4BG?4CLD?5?$CFd?6@		; `string'
PUBLIC	??_C@_0P@EJKDFAIB@GR?4BG?4MAIN?5?$CFd?6@	; `string'
PUBLIC	??_C@_0L@OOHFOBKJ@GR?4CHR?5?$CFd?6@		; `string'
PUBLIC	??_C@_0O@LENBOK@GR?4BG?4WTR?5?$CFd?6@		; `string'
PUBLIC	??_C@_0O@BIDCIJEG@GR?4BG?4EFT?5?$CFd?6@		; `string'
PUBLIC	??_C@_0L@KOHMHAGO@GR?4EFT?5?$CFd?6@		; `string'
PUBLIC	??_C@_0L@CNELLLJF@GR?4ITM?5?$CFd?6@		; `string'
PUBLIC	??_C@_0L@DIBNDLBN@GR?4FLY?5?$CFd?6@		; `string'
PUBLIC	??_C@_0O@EEAHGPFP@GR?4BG?4BLK?5?$CFd?6@		; `string'
PUBLIC	??_C@_0BF@NHIIGIH@perf_game_update?4txt@	; `string'
PUBLIC	??_C@_0BH@HPIDKEA@GU?4Total?5?$CFd?5?$CITime?5?$CFd?$CJ?6@ ; `string'
PUBLIC	??_C@_0L@JHBDHKIG@GU?4GMP?5?$CFd?6@		; `string'
PUBLIC	??_C@_0L@HCBFJPAB@GU?4SCR?5?$CFd?6@		; `string'
PUBLIC	??_C@_0L@IGEOOJOO@GU?4MPS?5?$CFd?6@		; `string'
PUBLIC	??_C@_09JGPPFKPH@GU?4BG?5?$CFd?6@		; `string'
PUBLIC	??_C@_0L@BLLECFKE@GU?4GEM?5?$CFd?6@		; `string'
PUBLIC	??_C@_0L@MKJPKNA@GU?4CHR?5?$CFd?6@		; `string'
PUBLIC	??_C@_0L@EMKAGLBH@GU?4EFT?5?$CFd?6@		; `string'
PUBLIC	??_C@_0L@NKMBCAGE@GU?4FLY?5?$CFd?6@		; `string'
PUBLIC	??_C@_0L@MPJHKAOM@GU?4ITM?5?$CFd?6@		; `string'
PUBLIC	??_C@_0L@KNCOIAL@GU?4PLR?5?$CFd?6@		; `string'
PUBLIC	??_C@_0L@PAGGCBDD@GU?4POS?5?$CFd?6@		; `string'
PUBLIC	??_C@_0BD@OJBILBDC@FrameSkip?5?$LK?$LI?A?$KE?5?$CFd?6@ ; `string'
PUBLIC	??_C@_0BA@NOHKOOIE@WARN_BAD_DRIVER@		; `string'
PUBLIC	??_C@_0M@MOGGPFAH@WARN_NO_TNL@			; `string'
PUBLIC	??_C@_0BN@OAKBEJJN@CREATE_NO_APPROPRIATE_DEVICE@ ; `string'
PUBLIC	??_C@_0CD@GGLEAAKE@CreateDevice?3?5Enum?5?$CG?5Detect?5fai@ ; `string'
PUBLIC	??_C@_0BC@NKAKBNDM@CREATE_NO_DIRECTX@		; `string'
PUBLIC	??_C@_0DK@GACPAJMM@CreateDevice?3?5DirectX?58?41?5or?5gr@ ; `string'
PUBLIC	??_C@_0O@CMPMDOEH@CREATE_DEVICE@		; `string'
PUBLIC	??_C@_0CK@KMPBIDGP@CreateDevice?3?5GraphicDevice?5cre@ ; `string'
PUBLIC	??_C@_0O@DAEHMKOB@CREATE_FORMAT@		; `string'
PUBLIC	??_C@_0CH@DEBFNBPL@CreateDevice?3?5Change?5the?5screen@ ; `string'
PUBLIC	??_C@_0BC@IMJEDJEA@GetDevCaps?5failed@		; `string'
PUBLIC	??_C@_0CA@DLHDILBB@CreateDevice?3?5GetDevCaps?5failed@ ; `string'
PUBLIC	??_C@_0BD@IHNLMMLJ@GetDevCaps2?5failed@		; `string'
PUBLIC	??_C@_0CB@JLAAEKGJ@CreateDevice?3?5GetDevCaps2?5faile@ ; `string'
PUBLIC	??_C@_0O@BAEJJDKB@UNKNOWN_ERROR@		; `string'
PUBLIC	??_C@_0BN@JAHEKIGK@CreateDevice?3?5Unknown?5Error?$CB@ ; `string'
PUBLIC	??_C@_0BB@EOELDOLA@?$CFs?1item_list?4txt@	; `string'
PUBLIC	??_C@_0O@MEMEPBB@?$CFs?1item_proto@		; `string'
PUBLIC	??_C@_0BA@BIDKFLDM@?$CFs?1itemdesc?4txt@	; `string'
PUBLIC	??_C@_0N@KCBCHIHM@?$CFs?1mob_proto@		; `string'
PUBLIC	??_C@_0BB@JDMIHPNN@?$CFs?1SkillDesc?4txt@	; `string'
PUBLIC	??_C@_0BC@NLEJCAEF@?$CFs?1SkillTable?4txt@	; `string'
PUBLIC	??_C@_0O@JEIJHCCG@?$CFs?1insult?4txt@		; `string'
PUBLIC	??_C@_0CI@MGBDCDJE@LoadLocaleData?5?9?5LoadItemList?$CI?$CF@ ; `string'
PUBLIC	??_C@_0CJ@MIFDPICO@LoadLocaleData?5?9?5LoadItemProto?$CI@ ; `string'
PUBLIC	??_C@_0CI@FLOPHKEN@LoadLocaleData?5?9?5LoadItemDesc?$CI?$CF@ ; `string'
PUBLIC	??_C@_0CI@PNCAMHEJ@LoadLocaleData?5?9?5LoadMobProto?$CI?$CF@ ; `string'
PUBLIC	??_C@_0CN@NIKOAAJF@LoadLocaleData?5?9?5RegisterSkillD@ ; `string'
PUBLIC	??_C@_0CO@HCDPLHIO@LoadLocaleData?5?9?5RegisterSkillT@ ; `string'
PUBLIC	??_C@_0DO@PNDPPMDH@CPythonApplication?5?9?5CPythonNet@ ; `string'
PUBLIC	??_C@_0O@GCNBGGIE@?$CFs?1lang?$CFd?4cvt@	; `string'
PUBLIC	??_C@_0EI@FFMLHANM@LoadLocaleData?5?9?5CPythonNetwork@ ; `string'
PUBLIC	??_C@_0BJ@DBNNLGNG@CMSWindow?3?3Create?5failed@	; `string'
PUBLIC	??_C@_0O@NOBMPFEG@CREATE_WINDOW@		; `string'
PUBLIC	??_C@_0CA@FFOMJBHN@CMSWindow?3?3Cursors?5Create?5Error@ ; `string'
PUBLIC	??_C@_0BA@GLLECKCO@?$CCCREATE_CURSOR?$CC@	; `string'
PUBLIC	??_C@_0BJ@CJEBNOLC@NetDevice?3?3Create?5failed@	; `string'
PUBLIC	??_C@_0BB@EJLMKODK@?$CCCREATE_NETWORK?$CC@	; `string'
PUBLIC	??_C@_0CD@KIIBIHOG@d?3?1ymir?5work?1special?1spheremap?4@ ; `string'
PUBLIC	??_C@_0CF@CBFEMJII@d?3?1ymir?5work?1special?1spheremap0@ ; `string'
PUBLIC	??_R2CPythonApplication@@8			; CPythonApplication::`RTTI Base Class Array'
PUBLIC	??_R2CInputKeyboard@@8				; CInputKeyboard::`RTTI Base Class Array'
PUBLIC	??_R2CInputDevice@@8				; CInputDevice::`RTTI Base Class Array'
PUBLIC	??_R2CMSApplication@@8				; CMSApplication::`RTTI Base Class Array'
PUBLIC	??_R2CMSWindow@@8				; CMSWindow::`RTTI Base Class Array'
PUBLIC	??_R2CMovieMan@@8				; CMovieMan::`RTTI Base Class Array'
PUBLIC	??_R2?$CSingleton@VCMovieMan@@@@8		; CSingleton<CMovieMan>::`RTTI Base Class Array'
PUBLIC	??_R2IAbstractApplication@@8			; IAbstractApplication::`RTTI Base Class Array'
PUBLIC	??_R2?$TAbstractSingleton@VIAbstractApplication@@@@8 ; TAbstractSingleton<IAbstractApplication>::`RTTI Base Class Array'
PUBLIC	??_R1CA@?0A@EA@?$TAbstractSingleton@VIAbstractApplication@@@@8 ; TAbstractSingleton<IAbstractApplication>::`RTTI Base Class Descriptor at (32,-1,0,64)'
PUBLIC	??_R1CA@?0A@EA@IAbstractApplication@@8		; IAbstractApplication::`RTTI Base Class Descriptor at (32,-1,0,64)'
PUBLIC	??_R1BM@?0A@EA@CInputDevice@@8			; CInputDevice::`RTTI Base Class Descriptor at (28,-1,0,64)'
PUBLIC	??_R1BM@?0A@EA@CInputKeyboard@@8		; CInputKeyboard::`RTTI Base Class Descriptor at (28,-1,0,64)'
PUBLIC	??_R1A@?0A@EA@CPythonApplication@@8		; CPythonApplication::`RTTI Base Class Descriptor at (0,-1,0,64)'
PUBLIC	??_R1A@?0A@EA@CInputKeyboard@@8			; CInputKeyboard::`RTTI Base Class Descriptor at (0,-1,0,64)'
PUBLIC	??_R1A@?0A@EA@CInputDevice@@8			; CInputDevice::`RTTI Base Class Descriptor at (0,-1,0,64)'
PUBLIC	??_R1A@?0A@EA@CMSApplication@@8			; CMSApplication::`RTTI Base Class Descriptor at (0,-1,0,64)'
PUBLIC	??_R1A@?0A@EA@CMSWindow@@8			; CMSWindow::`RTTI Base Class Descriptor at (0,-1,0,64)'
PUBLIC	??_R1A@?0A@EA@CMovieMan@@8			; CMovieMan::`RTTI Base Class Descriptor at (0,-1,0,64)'
PUBLIC	??_R1A@?0A@EA@?$CSingleton@VCMovieMan@@@@8	; CSingleton<CMovieMan>::`RTTI Base Class Descriptor at (0,-1,0,64)'
PUBLIC	??_R1A@?0A@EA@IAbstractApplication@@8		; IAbstractApplication::`RTTI Base Class Descriptor at (0,-1,0,64)'
PUBLIC	??_R1A@?0A@EA@?$TAbstractSingleton@VIAbstractApplication@@@@8 ; TAbstractSingleton<IAbstractApplication>::`RTTI Base Class Descriptor at (0,-1,0,64)'
PUBLIC	??_R3CInputDevice@@8				; CInputDevice::`RTTI Class Hierarchy Descriptor'
PUBLIC	??_R0?AVCInputDevice@@@8			; CInputDevice `RTTI Type Descriptor'
PUBLIC	??_R3CInputKeyboard@@8				; CInputKeyboard::`RTTI Class Hierarchy Descriptor'
PUBLIC	??_R0?AVCInputKeyboard@@@8			; CInputKeyboard `RTTI Type Descriptor'
PUBLIC	??_R3CMSApplication@@8				; CMSApplication::`RTTI Class Hierarchy Descriptor'
PUBLIC	??_R0?AVCMSApplication@@@8			; CMSApplication `RTTI Type Descriptor'
PUBLIC	??_R3CMSWindow@@8				; CMSWindow::`RTTI Class Hierarchy Descriptor'
PUBLIC	??_R0?AVCMSWindow@@@8				; CMSWindow `RTTI Type Descriptor'
PUBLIC	??_R3CPythonApplication@@8			; CPythonApplication::`RTTI Class Hierarchy Descriptor'
PUBLIC	??_R0?AVCPythonApplication@@@8			; CPythonApplication `RTTI Type Descriptor'
PUBLIC	??_R3?$CSingleton@VCMovieMan@@@@8		; CSingleton<CMovieMan>::`RTTI Class Hierarchy Descriptor'
PUBLIC	??_R0?AV?$CSingleton@VCMovieMan@@@@@8		; CSingleton<CMovieMan> `RTTI Type Descriptor'
PUBLIC	??_R3CMovieMan@@8				; CMovieMan::`RTTI Class Hierarchy Descriptor'
PUBLIC	??_R0?AVCMovieMan@@@8				; CMovieMan `RTTI Type Descriptor'
PUBLIC	??_R3?$TAbstractSingleton@VIAbstractApplication@@@@8 ; TAbstractSingleton<IAbstractApplication>::`RTTI Class Hierarchy Descriptor'
PUBLIC	??_R0?AV?$TAbstractSingleton@VIAbstractApplication@@@@@8 ; TAbstractSingleton<IAbstractApplication> `RTTI Type Descriptor'
PUBLIC	??_R3IAbstractApplication@@8			; IAbstractApplication::`RTTI Class Hierarchy Descriptor'
PUBLIC	??_R0?AVIAbstractApplication@@@8		; IAbstractApplication `RTTI Type Descriptor'
PUBLIC	??_R4CPythonApplication@@6BIAbstractApplication@@@ ; CPythonApplication::`RTTI Complete Object Locator'
PUBLIC	??_R4CPythonApplication@@6BCInputKeyboard@@@	; CPythonApplication::`RTTI Complete Object Locator'
PUBLIC	??_R4CPythonApplication@@6BCMSApplication@@@	; CPythonApplication::`RTTI Complete Object Locator'
PUBLIC	??_R4?$CSingleton@VCMovieMan@@@@6B@		; CSingleton<CMovieMan>::`RTTI Complete Object Locator'
PUBLIC	??_R4CMovieMan@@6B@				; CMovieMan::`RTTI Complete Object Locator'
PUBLIC	??_R4?$TAbstractSingleton@VIAbstractApplication@@@@6B@ ; TAbstractSingleton<IAbstractApplication>::`RTTI Complete Object Locator'
PUBLIC	??_R4IAbstractApplication@@6B@			; IAbstractApplication::`RTTI Complete Object Locator'
PUBLIC	?ms_singleton@?$CSingleton@VCTimer@@@@0PAVCTimer@@A ; CSingleton<CTimer>::ms_singleton
PUBLIC	?ms_singleton@?$CSingleton@VCWindowManager@UI@@@@0PAVCWindowManager@UI@@A ; CSingleton<UI::CWindowManager>::ms_singleton
PUBLIC	?ms_singleton@?$CSingleton@VCPythonSkill@@@@0PAVCPythonSkill@@A ; CSingleton<CPythonSkill>::ms_singleton
PUBLIC	?ms_singleton@?$CSingleton@VCPythonIME@@@@0PAVCPythonIME@@A ; CSingleton<CPythonIME>::ms_singleton
PUBLIC	??_7?$TAbstractSingleton@VIAbstractApplication@@@@6B@ ; TAbstractSingleton<IAbstractApplication>::`vftable'
PUBLIC	?ms_singleton@?$CSingleton@VCMovieMan@@@@0PAVCMovieMan@@A ; CSingleton<CMovieMan>::ms_singleton
PUBLIC	??_7?$CSingleton@VCMovieMan@@@@6B@		; CSingleton<CMovieMan>::`vftable'
PUBLIC	?PERF_CHECKER_RENDER_GAME@@3_NA			; PERF_CHECKER_RENDER_GAME
PUBLIC	??_7CPythonApplication@@6BIAbstractApplication@@@ ; CPythonApplication::`vftable'
PUBLIC	??_7CPythonApplication@@6BCInputKeyboard@@@	; CPythonApplication::`vftable'
PUBLIC	??_7CPythonApplication@@6BCMSApplication@@@	; CPythonApplication::`vftable'
PUBLIC	?c_fDefaultCameraZoomSpeed@@3MA			; c_fDefaultCameraZoomSpeed
PUBLIC	?c_fDefaultCameraPitchSpeed@@3MA		; c_fDefaultCameraPitchSpeed
PUBLIC	?c_fDefaultCameraRotateSpeed@@3MA		; c_fDefaultCameraRotateSpeed
PUBLIC	?g_specularSpd@@3NA				; g_specularSpd
PUBLIC	?MIN_FOG@@3MA					; MIN_FOG
PUBLIC	??_7CMovieMan@@6B@				; CMovieMan::`vftable'
PUBLIC	??_7IAbstractApplication@@6B@			; IAbstractApplication::`vftable'
EXTRN	?GRAPHICS_CAPS_SOFTWARE_TILING@@3_NA:BYTE	; GRAPHICS_CAPS_SOFTWARE_TILING
EXTRN	?OnSize@CMSWindow@@UAEXIJ@Z:PROC		; CMSWindow::OnSize
EXTRN	?Destroy@CMSWindow@@QAEXXZ:PROC			; CMSWindow::Destroy
EXTRN	?DestroySystem@CTextFileLoader@@SAXXZ:PROC	; CTextFileLoader::DestroySystem
EXTRN	?DestroySystem@CAttributeInstance@@SAXXZ:PROC	; CAttributeInstance::DestroySystem
EXTRN	?Destroy@CGraphicDevice@@QAEXXZ:PROC		; CGraphicDevice::Destroy
EXTRN	?Destroy@CSoundManager@@QAEXXZ:PROC		; CSoundManager::Destroy
EXTRN	?DestroySystem@CGraphicImageInstance@@SAXXZ:PROC ; CGraphicImageInstance::DestroySystem
EXTRN	?DestroySystem@CGrannyModelInstance@@SAXXZ:PROC	; CGrannyModelInstance::DestroySystem
EXTRN	?Destroy@CPythonResource@@QAEXXZ:PROC		; CPythonResource::Destroy
EXTRN	?Destroy@CPythonGraphic@@QAEXXZ:PROC		; CPythonGraphic::Destroy
EXTRN	?GrannyDestroySharedDeformBuffer@@YAXXZ:PROC	; GrannyDestroySharedDeformBuffer
EXTRN	?Destroy@CLightManager@@QAEXXZ:PROC		; CLightManager::Destroy
EXTRN	?Destroy@CEffectManager@@QAEXXZ:PROC		; CEffectManager::Destroy
EXTRN	?Destroy@CRaceManager@@QAEXXZ:PROC		; CRaceManager::Destroy
EXTRN	?Destroy@CFlyingManager@@QAEXXZ:PROC		; CFlyingManager::Destroy
EXTRN	?DestroyCollisionInstanceSystem@@YAXXZ:PROC	; DestroyCollisionInstanceSystem
EXTRN	?Destroy@CWindowManager@UI@@QAEXXZ:PROC		; UI::CWindowManager::Destroy
EXTRN	?DestroySphereMap@CGrannyMaterial@@SAXXZ:PROC	; CGrannyMaterial::DestroySphereMap
EXTRN	_WebBrowser_Destroy:PROC
EXTRN	__time32:PROC
EXTRN	?CreateSphereMap@CGrannyMaterial@@SAXIPBD@Z:PROC ; CGrannyMaterial::CreateSphereMap
EXTRN	__imp__SystemParametersInfoA@16:PROC
EXTRN	?CreateSystem@CGraphicImageInstance@@SAXI@Z:PROC ; CGraphicImageInstance::CreateSystem
EXTRN	?Initialize@CLightManager@@QAEXXZ:PROC		; CLightManager::Initialize
EXTRN	?SetText@CIME@@QAEXPBDH@Z:PROC			; CIME::SetText
EXTRN	?Create@CNetworkDevice@@QAE_NXZ:PROC		; CNetworkDevice::Create
EXTRN	?InitializeKeyboard@CInputKeyboard@@QAE_NPAUHWND__@@@Z:PROC ; CInputKeyboard::InitializeKeyboard
EXTRN	__imp__SetWindowPos@28:PROC
EXTRN	?SetVisibleMode@CMSWindow@@QAEX_N@Z:PROC	; CMSWindow::SetVisibleMode
EXTRN	?ReserveSoftwareTilingEnable@CMapManager@@QAEX_N@Z:PROC ; CMapManager::ReserveSoftwareTilingEnable
EXTRN	?IsFastTNL@CGraphicBase@@SA_NXZ:PROC		; CGraphicBase::IsFastTNL
EXTRN	?GrannyCreateSharedDeformBuffer@@YAXXZ:PROC	; GrannyCreateSharedDeformBuffer
EXTRN	?Create@CSoundManager@@QAEHXZ:PROC		; CSoundManager::Create
EXTRN	?GetScreenWidth@CMSWindow@@QAEHXZ:PROC		; CMSWindow::GetScreenWidth
EXTRN	?GetScreenHeight@CMSWindow@@QAEHXZ:PROC		; CMSWindow::GetScreenHeight
EXTRN	?SetPosition@CMSWindow@@QAEXHH@Z:PROC		; CMSWindow::SetPosition
EXTRN	?AdjustSize@CMSWindow@@QAEXHH@Z:PROC		; CMSWindow::AdjustSize
EXTRN	?UseDefaultIME@CIME@@QAEXXZ:PROC		; CIME::UseDefaultIME
EXTRN	?GetInstance@CMSWindow@@QAEPAUHINSTANCE__@@XZ:PROC ; CMSWindow::GetInstance
EXTRN	__imp__LoadIconA@8:PROC
EXTRN	?Create@CMSWindow@@QAE_NPBDHKKPAUHICON__@@H@Z:PROC ; CMSWindow::Create
EXTRN	__imp__FindWindowA@8:PROC
EXTRN	?LoadItemDesc@CItemManager@@QAE_NPBD@Z:PROC	; CItemManager::LoadItemDesc
EXTRN	?LoadItemTable@CItemManager@@QAE_NPBD@Z:PROC	; CItemManager::LoadItemTable
EXTRN	?LoadItemList@CItemManager@@QAE_NPBD@Z:PROC	; CItemManager::LoadItemList
EXTRN	?Destroy@CItemManager@@QAEXXZ:PROC		; CItemManager::Destroy
EXTRN	?MessageProcess@CMSApplication@@QAE_NXZ:PROC	; CMSApplication::MessageProcess
EXTRN	?IsMessage@CMSApplication@@QAE_NXZ:PROC		; CMSApplication::IsMessage
EXTRN	?SetMinLODMode@CGrannyLODController@@SAX_N@Z:PROC ; CGrannyLODController::SetMinLODMode
EXTRN	__imp__PyExc_RuntimeError:DWORD
EXTRN	__imp__PyErr_SetString:PROC
EXTRN	?Create@CGraphicDevice@@QAEHPAUHWND__@@HH_NHH@Z:PROC ; CGraphicDevice::Create
EXTRN	?RegisterWarningString@CGraphicDevice@@QAEXIPBD@Z:PROC ; CGraphicDevice::RegisterWarningString
EXTRN	?InitBackBufferCount@CGraphicDevice@@QAEXI@Z:PROC ; CGraphicDevice::InitBackBufferCount
EXTRN	?Reset@CGraphicDevice@@QAE_NXZ:PROC		; CGraphicDevice::Reset
EXTRN	?GetDeviceState@CGraphicDevice@@QAE?AW4EDeviceState@1@XZ:PROC ; CGraphicDevice::GetDeviceState
EXTRN	?GetClientRect@CMSWindow@@QAEXPAUtagRECT@@@Z:PROC ; CMSWindow::GetClientRect
EXTRN	?ResetFaceCount@CGraphicBase@@QAEXXZ:PROC	; CGraphicBase::ResetFaceCount
EXTRN	?GetFaceCount@CGraphicBase@@QAEKXZ:PROC		; CGraphicBase::GetFaceCount
EXTRN	?Show@CScreen@@QAEXPAUHWND__@@@Z:PROC		; CScreen::Show
EXTRN	?End@CScreen@@QAEXXZ:PROC			; CScreen::End
EXTRN	?SetInterfaceRenderState@CPythonGraphic@@QAEXXZ:PROC ; CPythonGraphic::SetInterfaceRenderState
EXTRN	?ClearDepthBuffer@CScreen@@QAEXXZ:PROC		; CScreen::ClearDepthBuffer
EXTRN	?Begin@CScreen@@QAE_NXZ:PROC			; CScreen::Begin
EXTRN	?Update@CCullingManager@@QAEXXZ:PROC		; CCullingManager::Update
EXTRN	?IsActive@CMSWindow@@QAE_NXZ:PROC		; CMSWindow::IsActive
EXTRN	?RestoreDevice@CScreen@@QAEHXZ:PROC		; CScreen::RestoreDevice
EXTRN	?IsLostDevice@CScreen@@QAEHXZ:PROC		; CScreen::IsLostDevice
EXTRN	?TranslateSpecularMatrix@CGrannyMaterial@@SAXMMM@Z:PROC ; CGrannyMaterial::TranslateSpecularMatrix
EXTRN	?Adjust@CTimer@@QAEXH@Z:PROC			; CTimer::Adjust
EXTRN	?Update@CResourceManager@@QAEXXZ:PROC		; CResourceManager::Update
EXTRN	__imp__ScreenToClient@8:PROC
EXTRN	__imp__GetCursorPos@4:PROC
EXTRN	?UpdateKeyboard@CInputKeyboard@@QAEXXZ:PROC	; CInputKeyboard::UpdateKeyboard
EXTRN	?GetElapsedMilliecond@CTimer@@QAEKXZ:PROC	; CTimer::GetElapsedMilliecond
EXTRN	?GetElapsedSecond@CTimer@@QAEMXZ:PROC		; CTimer::GetElapsedSecond
EXTRN	?GetCurrentSecond@CTimer@@QAEMXZ:PROC		; CTimer::GetCurrentSecond
EXTRN	?Advance@CTimer@@QAEXXZ:PROC			; CTimer::Advance
EXTRN	?ELTimer_SetFrameMSec@@YAXXZ:PROC		; ELTimer_SetFrameMSec
EXTRN	?Update@CFlyingManager@@QAEXXZ:PROC		; CFlyingManager::Update
EXTRN	?UpdateSound@CEffectManager@@QAEXXZ:PROC	; CEffectManager::UpdateSound
EXTRN	?Update@CGameEventManager@@QAEXXZ:PROC		; CGameEventManager::Update
EXTRN	?SetCenterPosition@CGameEventManager@@QAEXMMM@Z:PROC ; CGameEventManager::SetCenterPosition
EXTRN	?BuildViewFrustum@CScreen@@QAEXXZ:PROC		; CScreen::BuildViewFrustum
EXTRN	?Hyperlink_UpdateMousePos@CGraphicTextInstance@@SAXHH@Z:PROC ; CGraphicTextInstance::Hyperlink_UpdateMousePos
EXTRN	_fflush:PROC
EXTRN	?Render@CFlyingManager@@QAEXXZ:PROC		; CFlyingManager::Render
EXTRN	?Render@CEffectManager@@QAEXXZ:PROC		; CEffectManager::Render
EXTRN	?EndEnvironment@CMapManager@@QAEXXZ:PROC	; CMapManager::EndEnvironment
EXTRN	?BeginEnvironment@CMapManager@@QAEXXZ:PROC	; CMapManager::BeginEnvironment
EXTRN	?SetCursorPosition@CPythonGraphic@@QAEXHH@Z:PROC ; CPythonGraphic::SetCursorPosition
EXTRN	?GetMousePosition@CWindowManager@UI@@QAEXAAJ0@Z:PROC ; UI::CWindowManager::GetMousePosition
EXTRN	?PushState@CPythonGraphic@@QAEXXZ:PROC		; CPythonGraphic::PushState
EXTRN	?SetGameRenderState@CPythonGraphic@@QAEXXZ:PROC	; CPythonGraphic::SetGameRenderState
EXTRN	?Update@CEffectManager@@QAEXXZ:PROC		; CEffectManager::Update
EXTRN	?Process@CCullingManager@@QAEXXZ:PROC		; CCullingManager::Process
EXTRN	?SetPerspective@CGraphicBase@@QAEXMMMM@Z:PROC	; CGraphicBase::SetPerspective
EXTRN	?GetAspect@CWindowManager@UI@@QAEMXZ:PROC	; UI::CWindowManager::GetAspect
EXTRN	__imp__PostQuitMessage@4:PROC
EXTRN	?GetInfo@CEffectManager@@QAEXPAV?$basic_string@DU?$char_traits@D@std@@V?$allocator@D@2@@std@@@Z:PROC ; CEffectManager::GetInfo
EXTRN	?GetMousePosition@CMSWindow@@QAEXPAUtagPOINT@@@Z:PROC ; CMSWindow::GetMousePosition
EXTRN	?AddCamera@CCameraManager@@QAE_NE@Z:PROC	; CCameraManager::AddCamera
EXTRN	?UseCustomTime@CTimer@@QAEXXZ:PROC		; CTimer::UseCustomTime
EXTRN	?SetEterExceptionHandler@@YAXXZ:PROC		; SetEterExceptionHandler
EXTRN	??1CNetworkDevice@@UAE@XZ:PROC			; CNetworkDevice::~CNetworkDevice
EXTRN	??0CNetworkDevice@@QAE@XZ:PROC			; CNetworkDevice::CNetworkDevice
EXTRN	??1CGraphicDevice@@UAE@XZ:PROC			; CGraphicDevice::~CGraphicDevice
EXTRN	??0CGraphicDevice@@QAE@XZ:PROC			; CGraphicDevice::CGraphicDevice
EXTRN	??1CPythonResource@@UAE@XZ:PROC			; CPythonResource::~CPythonResource
EXTRN	??0CPythonResource@@QAE@XZ:PROC			; CPythonResource::CPythonResource
EXTRN	??1CPythonGraphic@@UAE@XZ:PROC			; CPythonGraphic::~CPythonGraphic
EXTRN	??0CPythonGraphic@@QAE@XZ:PROC			; CPythonGraphic::CPythonGraphic
EXTRN	??1CEffectManager@@UAE@XZ:PROC			; CEffectManager::~CEffectManager
EXTRN	??0CEffectManager@@QAE@XZ:PROC			; CEffectManager::CEffectManager
EXTRN	??1CWindowManager@UI@@UAE@XZ:PROC		; UI::CWindowManager::~CWindowManager
EXTRN	??0CWindowManager@UI@@QAE@XZ:PROC		; UI::CWindowManager::CWindowManager
EXTRN	??1CItemManager@@UAE@XZ:PROC			; CItemManager::~CItemManager
EXTRN	??0CItemManager@@QAE@XZ:PROC			; CItemManager::CItemManager
EXTRN	??1CGameEventManager@@UAE@XZ:PROC		; CGameEventManager::~CGameEventManager
EXTRN	??0CGameEventManager@@QAE@XZ:PROC		; CGameEventManager::CGameEventManager
EXTRN	??1CRaceManager@@UAE@XZ:PROC			; CRaceManager::~CRaceManager
EXTRN	??0CRaceManager@@QAE@XZ:PROC			; CRaceManager::CRaceManager
EXTRN	??1CFlyingManager@@UAE@XZ:PROC			; CFlyingManager::~CFlyingManager
EXTRN	??0CFlyingManager@@QAE@XZ:PROC			; CFlyingManager::CFlyingManager
EXTRN	??1CSoundManager@@UAE@XZ:PROC			; CSoundManager::~CSoundManager
EXTRN	??0CSoundManager@@QAE@XZ:PROC			; CSoundManager::CSoundManager
EXTRN	??1CLightManager@@UAE@XZ:PROC			; CLightManager::~CLightManager
EXTRN	??0CLightManager@@QAE@XZ:PROC			; CLightManager::CLightManager
EXTRN	??1CTimer@@UAE@XZ:PROC				; CTimer::~CTimer
EXTRN	??0CTimer@@QAE@XZ:PROC				; CTimer::CTimer
EXTRN	??1CInputKeyboard@@UAE@XZ:PROC			; CInputKeyboard::~CInputKeyboard
EXTRN	??0CInputKeyboard@@QAE@XZ:PROC			; CInputKeyboard::CInputKeyboard
EXTRN	??1CMSApplication@@UAE@XZ:PROC			; CMSApplication::~CMSApplication
EXTRN	??0CMSApplication@@QAE@XZ:PROC			; CMSApplication::CMSApplication
EXTRN	__imp__CoUninitialize@0:PROC
EXTRN	__imp__CoInitialize@4:PROC
?ms_pInstance@CPythonApplication@@1PAV1@A DD 01H DUP (?) ; CPythonApplication::ms_pInstance
_BSS	ENDS
;	COMDAT ?ms_singleton@?$CSingleton@VCTimer@@@@0PAVCTimer@@A
_BSS	SEGMENT
?ms_singleton@?$CSingleton@VCTimer@@@@0PAVCTimer@@A DD 01H DUP (?) ; CSingleton<CTimer>::ms_singleton
_BSS	ENDS
;	COMDAT ?ms_singleton@?$CSingleton@VCWindowManager@UI@@@@0PAVCWindowManager@UI@@A
_BSS	SEGMENT
?ms_singleton@?$CSingleton@VCWindowManager@UI@@@@0PAVCWindowManager@UI@@A DD 01H DUP (?) ; CSingleton<UI::CWindowManager>::ms_singleton
_BSS	ENDS
;	COMDAT ?ms_singleton@?$CSingleton@VCPythonSkill@@@@0PAVCPythonSkill@@A
_BSS	SEGMENT
?ms_singleton@?$CSingleton@VCPythonSkill@@@@0PAVCPythonSkill@@A DD 01H DUP (?) ; CSingleton<CPythonSkill>::ms_singleton
_BSS	ENDS
;	COMDAT ?ms_singleton@?$CSingleton@VCPythonIME@@@@0PAVCPythonIME@@A
_BSS	SEGMENT
?ms_singleton@?$CSingleton@VCPythonIME@@@@0PAVCPythonIME@@A DD 01H DUP (?) ; CSingleton<CPythonIME>::ms_singleton
_BSS	ENDS
;	COMDAT ?ms_singleton@?$CSingleton@VCMovieMan@@@@0PAVCMovieMan@@A
_BSS	SEGMENT
?ms_singleton@?$CSingleton@VCMovieMan@@@@0PAVCMovieMan@@A DD 01H DUP (?) ; CSingleton<CMovieMan>::ms_singleton
_BSS	ENDS
;	COMDAT ?s_fBufRenderTime@?DC@??Process@CPythonApplication@@QAE_NXZ@4MA
_BSS	SEGMENT
?s_fBufRenderTime@?DC@??Process@CPythonApplication@@QAE_NXZ@4MA DD 01H DUP (?) ; `CPythonApplication::Process'::`50'::s_fBufRenderTime
_BSS	ENDS
;	COMDAT ?s_dwRenderRangeFrame@?CJ@??Process@CPythonApplication@@QAE_NXZ@4KA
_BSS	SEGMENT
?s_dwRenderRangeFrame@?CJ@??Process@CPythonApplication@@QAE_NXZ@4KA DD 01H DUP (?) ; `CPythonApplication::Process'::`41'::s_dwRenderRangeFrame
_BSS	ENDS
;	COMDAT ?s_dwRenderRangeTime@?CJ@??Process@CPythonApplication@@QAE_NXZ@4KA
_BSS	SEGMENT
?s_dwRenderRangeTime@?CJ@??Process@CPythonApplication@@QAE_NXZ@4KA DD 01H DUP (?) ; `CPythonApplication::Process'::`41'::s_dwRenderRangeTime
_BSS	ENDS
;	COMDAT ?s_bFrameSkip@?1??Process@CPythonApplication@@QAE_NXZ@4HA
_BSS	SEGMENT
?s_bFrameSkip@?1??Process@CPythonApplication@@QAE_NXZ@4HA DD 01H DUP (?) ; `CPythonApplication::Process'::`2'::s_bFrameSkip
_BSS	ENDS
;	COMDAT ?s_dwFaceCount@?1??Process@CPythonApplication@@QAE_NXZ@4KA
_BSS	SEGMENT
?s_dwFaceCount@?1??Process@CPythonApplication@@QAE_NXZ@4KA DD 01H DUP (?) ; `CPythonApplication::Process'::`2'::s_dwFaceCount
_BSS	ENDS
;	COMDAT ?s_uiLoad@?1??Process@CPythonApplication@@QAE_NXZ@4IA
_BSS	SEGMENT
?s_uiLoad@?1??Process@CPythonApplication@@QAE_NXZ@4IA DD 01H DUP (?) ; `CPythonApplication::Process'::`2'::s_uiLoad
_BSS	ENDS
;	COMDAT ?s_dwRenderFrameCount@?1??Process@CPythonApplication@@QAE_NXZ@4KA
_BSS	SEGMENT
?s_dwRenderFrameCount@?1??Process@CPythonApplication@@QAE_NXZ@4KA DD 01H DUP (?) ; `CPythonApplication::Process'::`2'::s_dwRenderFrameCount
_BSS	ENDS
;	COMDAT ?s_dwUpdateFrameCount@?1??Process@CPythonApplication@@QAE_NXZ@4KA
_BSS	SEGMENT
?s_dwUpdateFrameCount@?1??Process@CPythonApplication@@QAE_NXZ@4KA DD 01H DUP (?) ; `CPythonApplication::Process'::`2'::s_dwUpdateFrameCount
?PERF_CHECKER_RENDER_GAME@@3_NA DB 01H DUP (?)		; PERF_CHECKER_RENDER_GAME
_BSS	ENDS
;	COMDAT ??_7IAbstractApplication@@6B@
CONST	SEGMENT
??_7IAbstractApplication@@6B@ DD FLAT:??_R4IAbstractApplication@@6B@ ; IAbstractApplication::`vftable'
	DD	FLAT:??_EIAbstractApplication@@UAEPAXI@Z
	DD	FLAT:__purecall
	DD	FLAT:__purecall
	DD	FLAT:__purecall
	DD	FLAT:__purecall
	DD	FLAT:__purecall
	DD	FLAT:__purecall
	DD	FLAT:__purecall
	DD	FLAT:__purecall
	DD	FLAT:__purecall
	DD	FLAT:__purecall
	DD	FLAT:__purecall
	DD	FLAT:__purecall
	DD	FLAT:__purecall
	DD	FLAT:__purecall
	DD	FLAT:__purecall
	DD	FLAT:__purecall
	DD	FLAT:__purecall
CONST	ENDS
;	COMDAT ??_7CMovieMan@@6B@
CONST	SEGMENT
??_7CMovieMan@@6B@ DD FLAT:??_R4CMovieMan@@6B@		; CMovieMan::`vftable'
	DD	FLAT:??_ECMovieMan@@UAEPAXI@Z
CONST	ENDS
;	COMDAT ??_7CPythonApplication@@6BCMSApplication@@@
CONST	SEGMENT
??_7CPythonApplication@@6BCMSApplication@@@ DD FLAT:??_R4CPythonApplication@@6BCMSApplication@@@ ; CPythonApplication::`vftable'
	DD	FLAT:??_ECPythonApplication@@UAEPAXI@Z
	DD	FLAT:?WindowProcedure@CPythonApplication@@MAEJPAUHWND__@@IIJ@Z
	DD	FLAT:?OnSize@CMSWindow@@UAEXIJ@Z
CONST	ENDS
;	COMDAT ??_7CPythonApplication@@6BCInputKeyboard@@@
CONST	SEGMENT
??_7CPythonApplication@@6BCInputKeyboard@@@ DD FLAT:??_R4CPythonApplication@@6BCInputKeyboard@@@ ; CPythonApplication::`vftable'
	DD	FLAT:??_ECPythonApplication@@WBM@AEPAXI@Z
	DD	FLAT:?OnKeyDown@CPythonApplication@@MAEXH@Z
	DD	FLAT:?OnKeyUp@CPythonApplication@@MAEXH@Z
CONST	ENDS
;	COMDAT ??_7CPythonApplication@@6BIAbstractApplication@@@
CONST	SEGMENT
??_7CPythonApplication@@6BIAbstractApplication@@@ DD FLAT:??_R4CPythonApplication@@6BIAbstractApplication@@@ ; CPythonApplication::`vftable'
	DD	FLAT:??_ECPythonApplication@@WCA@AEPAXI@Z
	DD	FLAT:?GetMousePosition@CPythonApplication@@UAEXPAUtagPOINT@@@Z
	DD	FLAT:?GetGlobalTime@CPythonApplication@@UAEMXZ
	DD	FLAT:?GetGlobalElapsedTime@CPythonApplication@@UAEMXZ
	DD	FLAT:?SkipRenderBuffering@CPythonApplication@@UAEXK@Z
	DD	FLAT:?SetServerTime@CPythonApplication@@UAEXJ@Z
	DD	FLAT:?SetCenterPosition@CPythonApplication@@UAEXMMM@Z
	DD	FLAT:?SetEventCamera@CPythonApplication@@UAEXABUSCameraSetting@IAbstractApplication@@@Z
	DD	FLAT:?BlendEventCamera@CPythonApplication@@UAEXABUSCameraSetting@IAbstractApplication@@M@Z
	DD	FLAT:?SetDefaultCamera@CPythonApplication@@UAEXXZ
	DD	FLAT:?RunIMEUpdate@CPythonApplication@@UAEXXZ
	DD	FLAT:?RunIMETabEvent@CPythonApplication@@UAEXXZ
	DD	FLAT:?RunIMEReturnEvent@CPythonApplication@@UAEXXZ
	DD	FLAT:?RunIMEChangeCodePage@CPythonApplication@@UAEXXZ
	DD	FLAT:?RunIMEOpenCandidateListEvent@CPythonApplication@@UAEXXZ
	DD	FLAT:?RunIMECloseCandidateListEvent@CPythonApplication@@UAEXXZ
	DD	FLAT:?RunIMEOpenReadingWndEvent@CPythonApplication@@UAEXXZ
	DD	FLAT:?RunIMECloseReadingWndEvent@CPythonApplication@@UAEXXZ
CONST	ENDS
;	COMDAT ?s_fAveRenderTime@?EL@??Process@CPythonApplication@@QAE_NXZ@4MA
_DATA	SEGMENT
?s_fAveRenderTime@?EL@??Process@CPythonApplication@@QAE_NXZ@4MA DD 041800000r ; 16 ; `CPythonApplication::Process'::`75'::s_fAveRenderTime
_DATA	ENDS
;	COMDAT ??_7?$CSingleton@VCMovieMan@@@@6B@
CONST	SEGMENT
??_7?$CSingleton@VCMovieMan@@@@6B@ DD FLAT:??_R4?$CSingleton@VCMovieMan@@@@6B@ ; CSingleton<CMovieMan>::`vftable'
	DD	FLAT:??_E?$CSingleton@VCMovieMan@@@@UAEPAXI@Z
CONST	ENDS
;	COMDAT ??_7?$TAbstractSingleton@VIAbstractApplication@@@@6B@
CONST	SEGMENT
??_7?$TAbstractSingleton@VIAbstractApplication@@@@6B@ DD FLAT:??_R4?$TAbstractSingleton@VIAbstractApplication@@@@6B@ ; TAbstractSingleton<IAbstractApplication>::`vftable'
	DD	FLAT:??_E?$TAbstractSingleton@VIAbstractApplication@@@@UAEPAXI@Z
CONST	ENDS
;	COMDAT ??_R4IAbstractApplication@@6B@
rdata$r	SEGMENT
??_R4IAbstractApplication@@6B@ DD 00H			; IAbstractApplication::`RTTI Complete Object Locator'
	DD	00H
	DD	00H
	DD	FLAT:??_R0?AVIAbstractApplication@@@8
	DD	FLAT:??_R3IAbstractApplication@@8
rdata$r	ENDS
;	COMDAT ??_R4?$TAbstractSingleton@VIAbstractApplication@@@@6B@
rdata$r	SEGMENT
??_R4?$TAbstractSingleton@VIAbstractApplication@@@@6B@ DD 00H ; TAbstractSingleton<IAbstractApplication>::`RTTI Complete Object Locator'
	DD	00H
	DD	00H
	DD	FLAT:??_R0?AV?$TAbstractSingleton@VIAbstractApplication@@@@@8
	DD	FLAT:??_R3?$TAbstractSingleton@VIAbstractApplication@@@@8
rdata$r	ENDS
;	COMDAT ??_R4CMovieMan@@6B@
rdata$r	SEGMENT
??_R4CMovieMan@@6B@ DD 00H				; CMovieMan::`RTTI Complete Object Locator'
	DD	00H
	DD	00H
	DD	FLAT:??_R0?AVCMovieMan@@@8
	DD	FLAT:??_R3CMovieMan@@8
rdata$r	ENDS
;	COMDAT ??_R4?$CSingleton@VCMovieMan@@@@6B@
rdata$r	SEGMENT
??_R4?$CSingleton@VCMovieMan@@@@6B@ DD 00H		; CSingleton<CMovieMan>::`RTTI Complete Object Locator'
	DD	00H
	DD	00H
	DD	FLAT:??_R0?AV?$CSingleton@VCMovieMan@@@@@8
	DD	FLAT:??_R3?$CSingleton@VCMovieMan@@@@8
rdata$r	ENDS
;	COMDAT ??_R4CPythonApplication@@6BCMSApplication@@@
rdata$r	SEGMENT
??_R4CPythonApplication@@6BCMSApplication@@@ DD 00H	; CPythonApplication::`RTTI Complete Object Locator'
	DD	00H
	DD	00H
	DD	FLAT:??_R0?AVCPythonApplication@@@8
	DD	FLAT:??_R3CPythonApplication@@8
rdata$r	ENDS
;	COMDAT ??_R4CPythonApplication@@6BCInputKeyboard@@@
rdata$r	SEGMENT
??_R4CPythonApplication@@6BCInputKeyboard@@@ DD 00H	; CPythonApplication::`RTTI Complete Object Locator'
	DD	01cH
	DD	00H
	DD	FLAT:??_R0?AVCPythonApplication@@@8
	DD	FLAT:??_R3CPythonApplication@@8
rdata$r	ENDS
;	COMDAT ??_R4CPythonApplication@@6BIAbstractApplication@@@
rdata$r	SEGMENT
??_R4CPythonApplication@@6BIAbstractApplication@@@ DD 00H ; CPythonApplication::`RTTI Complete Object Locator'
	DD	020H
	DD	00H
	DD	FLAT:??_R0?AVCPythonApplication@@@8
	DD	FLAT:??_R3CPythonApplication@@8
rdata$r	ENDS
;	COMDAT ??_R0?AVIAbstractApplication@@@8
data$rs	SEGMENT
??_R0?AVIAbstractApplication@@@8 DD FLAT:??_7type_info@@6B@ ; IAbstractApplication `RTTI Type Descriptor'
	DD	00H
	DB	'.?AVIAbstractApplication@@', 00H
data$rs	ENDS
;	COMDAT ??_R3IAbstractApplication@@8
rdata$r	SEGMENT
??_R3IAbstractApplication@@8 DD 00H			; IAbstractApplication::`RTTI Class Hierarchy Descriptor'
	DD	00H
	DD	02H
	DD	FLAT:??_R2IAbstractApplication@@8
rdata$r	ENDS
;	COMDAT ??_R0?AV?$TAbstractSingleton@VIAbstractApplication@@@@@8
data$rs	SEGMENT
??_R0?AV?$TAbstractSingleton@VIAbstractApplication@@@@@8 DD FLAT:??_7type_info@@6B@ ; TAbstractSingleton<IAbstractApplication> `RTTI Type Descriptor'
	DD	00H
	DB	'.?AV?$TAbstractSingleton@VIAbstractApplication@@@@', 00H
data$rs	ENDS
;	COMDAT ??_R3?$TAbstractSingleton@VIAbstractApplication@@@@8
rdata$r	SEGMENT
??_R3?$TAbstractSingleton@VIAbstractApplication@@@@8 DD 00H ; TAbstractSingleton<IAbstractApplication>::`RTTI Class Hierarchy Descriptor'
	DD	00H
	DD	01H
	DD	FLAT:??_R2?$TAbstractSingleton@VIAbstractApplication@@@@8
rdata$r	ENDS
;	COMDAT ??_R0?AVCMovieMan@@@8
data$rs	SEGMENT
??_R0?AVCMovieMan@@@8 DD FLAT:??_7type_info@@6B@	; CMovieMan `RTTI Type Descriptor'
	DD	00H
	DB	'.?AVCMovieMan@@', 00H
data$rs	ENDS
;	COMDAT ??_R3CMovieMan@@8
rdata$r	SEGMENT
??_R3CMovieMan@@8 DD 00H				; CMovieMan::`RTTI Class Hierarchy Descriptor'
	DD	00H
	DD	02H
	DD	FLAT:??_R2CMovieMan@@8
rdata$r	ENDS
;	COMDAT ??_R0?AV?$CSingleton@VCMovieMan@@@@@8
data$rs	SEGMENT
??_R0?AV?$CSingleton@VCMovieMan@@@@@8 DD FLAT:??_7type_info@@6B@ ; CSingleton<CMovieMan> `RTTI Type Descriptor'
	DD	00H
	DB	'.?AV?$CSingleton@VCMovieMan@@@@', 00H
data$rs	ENDS
;	COMDAT ??_R3?$CSingleton@VCMovieMan@@@@8
rdata$r	SEGMENT
??_R3?$CSingleton@VCMovieMan@@@@8 DD 00H		; CSingleton<CMovieMan>::`RTTI Class Hierarchy Descriptor'
	DD	00H
	DD	01H
	DD	FLAT:??_R2?$CSingleton@VCMovieMan@@@@8
rdata$r	ENDS
;	COMDAT ??_R0?AVCPythonApplication@@@8
data$rs	SEGMENT
??_R0?AVCPythonApplication@@@8 DD FLAT:??_7type_info@@6B@ ; CPythonApplication `RTTI Type Descriptor'
	DD	00H
	DB	'.?AVCPythonApplication@@', 00H
data$rs	ENDS
;	COMDAT ??_R3CPythonApplication@@8
rdata$r	SEGMENT
??_R3CPythonApplication@@8 DD 00H			; CPythonApplication::`RTTI Class Hierarchy Descriptor'
	DD	01H
	DD	07H
	DD	FLAT:??_R2CPythonApplication@@8
rdata$r	ENDS
;	COMDAT ??_R0?AVCMSWindow@@@8
data$rs	SEGMENT
??_R0?AVCMSWindow@@@8 DD FLAT:??_7type_info@@6B@	; CMSWindow `RTTI Type Descriptor'
	DD	00H
	DB	'.?AVCMSWindow@@', 00H
data$rs	ENDS
;	COMDAT ??_R3CMSWindow@@8
rdata$r	SEGMENT
??_R3CMSWindow@@8 DD 00H				; CMSWindow::`RTTI Class Hierarchy Descriptor'
	DD	00H
	DD	01H
	DD	FLAT:??_R2CMSWindow@@8
rdata$r	ENDS
;	COMDAT ??_R0?AVCMSApplication@@@8
data$rs	SEGMENT
??_R0?AVCMSApplication@@@8 DD FLAT:??_7type_info@@6B@	; CMSApplication `RTTI Type Descriptor'
	DD	00H
	DB	'.?AVCMSApplication@@', 00H
data$rs	ENDS
;	COMDAT ??_R3CMSApplication@@8
rdata$r	SEGMENT
??_R3CMSApplication@@8 DD 00H				; CMSApplication::`RTTI Class Hierarchy Descriptor'
	DD	00H
	DD	02H
	DD	FLAT:??_R2CMSApplication@@8
rdata$r	ENDS
;	COMDAT ??_R0?AVCInputKeyboard@@@8
data$rs	SEGMENT
??_R0?AVCInputKeyboard@@@8 DD FLAT:??_7type_info@@6B@	; CInputKeyboard `RTTI Type Descriptor'
	DD	00H
	DB	'.?AVCInputKeyboard@@', 00H
data$rs	ENDS
;	COMDAT ??_R3CInputKeyboard@@8
rdata$r	SEGMENT
??_R3CInputKeyboard@@8 DD 00H				; CInputKeyboard::`RTTI Class Hierarchy Descriptor'
	DD	00H
	DD	02H
	DD	FLAT:??_R2CInputKeyboard@@8
rdata$r	ENDS
;	COMDAT ??_R0?AVCInputDevice@@@8
data$rs	SEGMENT
??_R0?AVCInputDevice@@@8 DD FLAT:??_7type_info@@6B@	; CInputDevice `RTTI Type Descriptor'
	DD	00H
	DB	'.?AVCInputDevice@@', 00H
data$rs	ENDS
;	COMDAT ??_R3CInputDevice@@8
rdata$r	SEGMENT
??_R3CInputDevice@@8 DD 00H				; CInputDevice::`RTTI Class Hierarchy Descriptor'
	DD	00H
	DD	01H
	DD	FLAT:??_R2CInputDevice@@8
rdata$r	ENDS
;	COMDAT ??_R1A@?0A@EA@?$TAbstractSingleton@VIAbstractApplication@@@@8
rdata$r	SEGMENT
??_R1A@?0A@EA@?$TAbstractSingleton@VIAbstractApplication@@@@8 DD FLAT:??_R0?AV?$TAbstractSingleton@VIAbstractApplication@@@@@8 ; TAbstractSingleton<IAbstractApplication>::`RTTI Base Class Descriptor at (0,-1,0,64)'
	DD	00H
	DD	00H
	DD	0ffffffffH
	DD	00H
	DD	040H
	DD	FLAT:??_R3?$TAbstractSingleton@VIAbstractApplication@@@@8
rdata$r	ENDS
;	COMDAT ??_R1A@?0A@EA@IAbstractApplication@@8
rdata$r	SEGMENT
??_R1A@?0A@EA@IAbstractApplication@@8 DD FLAT:??_R0?AVIAbstractApplication@@@8 ; IAbstractApplication::`RTTI Base Class Descriptor at (0,-1,0,64)'
	DD	01H
	DD	00H
	DD	0ffffffffH
	DD	00H
	DD	040H
	DD	FLAT:??_R3IAbstractApplication@@8
rdata$r	ENDS
;	COMDAT ??_R1A@?0A@EA@?$CSingleton@VCMovieMan@@@@8
rdata$r	SEGMENT
??_R1A@?0A@EA@?$CSingleton@VCMovieMan@@@@8 DD FLAT:??_R0?AV?$CSingleton@VCMovieMan@@@@@8 ; CSingleton<CMovieMan>::`RTTI Base Class Descriptor at (0,-1,0,64)'
	DD	00H
	DD	00H
	DD	0ffffffffH
	DD	00H
	DD	040H
	DD	FLAT:??_R3?$CSingleton@VCMovieMan@@@@8
rdata$r	ENDS
;	COMDAT ??_R1A@?0A@EA@CMovieMan@@8
rdata$r	SEGMENT
??_R1A@?0A@EA@CMovieMan@@8 DD FLAT:??_R0?AVCMovieMan@@@8 ; CMovieMan::`RTTI Base Class Descriptor at (0,-1,0,64)'
	DD	01H
	DD	00H
	DD	0ffffffffH
	DD	00H
	DD	040H
	DD	FLAT:??_R3CMovieMan@@8
rdata$r	ENDS
;	COMDAT ??_R1A@?0A@EA@CMSWindow@@8
rdata$r	SEGMENT
??_R1A@?0A@EA@CMSWindow@@8 DD FLAT:??_R0?AVCMSWindow@@@8 ; CMSWindow::`RTTI Base Class Descriptor at (0,-1,0,64)'
	DD	00H
	DD	00H
	DD	0ffffffffH
	DD	00H
	DD	040H
	DD	FLAT:??_R3CMSWindow@@8
rdata$r	ENDS
;	COMDAT ??_R1A@?0A@EA@CMSApplication@@8
rdata$r	SEGMENT
??_R1A@?0A@EA@CMSApplication@@8 DD FLAT:??_R0?AVCMSApplication@@@8 ; CMSApplication::`RTTI Base Class Descriptor at (0,-1,0,64)'
	DD	01H
	DD	00H
	DD	0ffffffffH
	DD	00H
	DD	040H
	DD	FLAT:??_R3CMSApplication@@8
rdata$r	ENDS
;	COMDAT ??_R1A@?0A@EA@CInputDevice@@8
rdata$r	SEGMENT
??_R1A@?0A@EA@CInputDevice@@8 DD FLAT:??_R0?AVCInputDevice@@@8 ; CInputDevice::`RTTI Base Class Descriptor at (0,-1,0,64)'
	DD	00H
	DD	00H
	DD	0ffffffffH
	DD	00H
	DD	040H
	DD	FLAT:??_R3CInputDevice@@8
rdata$r	ENDS
;	COMDAT ??_R1A@?0A@EA@CInputKeyboard@@8
rdata$r	SEGMENT
??_R1A@?0A@EA@CInputKeyboard@@8 DD FLAT:??_R0?AVCInputKeyboard@@@8 ; CInputKeyboard::`RTTI Base Class Descriptor at (0,-1,0,64)'
	DD	01H
	DD	00H
	DD	0ffffffffH
	DD	00H
	DD	040H
	DD	FLAT:??_R3CInputKeyboard@@8
rdata$r	ENDS
;	COMDAT ??_R1A@?0A@EA@CPythonApplication@@8
rdata$r	SEGMENT
??_R1A@?0A@EA@CPythonApplication@@8 DD FLAT:??_R0?AVCPythonApplication@@@8 ; CPythonApplication::`RTTI Base Class Descriptor at (0,-1,0,64)'
	DD	06H
	DD	00H
	DD	0ffffffffH
	DD	00H
	DD	040H
	DD	FLAT:??_R3CPythonApplication@@8
rdata$r	ENDS
;	COMDAT ??_R1BM@?0A@EA@CInputKeyboard@@8
rdata$r	SEGMENT
??_R1BM@?0A@EA@CInputKeyboard@@8 DD FLAT:??_R0?AVCInputKeyboard@@@8 ; CInputKeyboard::`RTTI Base Class Descriptor at (28,-1,0,64)'
	DD	01H
	DD	01cH
	DD	0ffffffffH
	DD	00H
	DD	040H
	DD	FLAT:??_R3CInputKeyboard@@8
rdata$r	ENDS
;	COMDAT ??_R1BM@?0A@EA@CInputDevice@@8
rdata$r	SEGMENT
??_R1BM@?0A@EA@CInputDevice@@8 DD FLAT:??_R0?AVCInputDevice@@@8 ; CInputDevice::`RTTI Base Class Descriptor at (28,-1,0,64)'
	DD	00H
	DD	01cH
	DD	0ffffffffH
	DD	00H
	DD	040H
	DD	FLAT:??_R3CInputDevice@@8
rdata$r	ENDS
;	COMDAT ??_R1CA@?0A@EA@IAbstractApplication@@8
rdata$r	SEGMENT
??_R1CA@?0A@EA@IAbstractApplication@@8 DD FLAT:??_R0?AVIAbstractApplication@@@8 ; IAbstractApplication::`RTTI Base Class Descriptor at (32,-1,0,64)'
	DD	01H
	DD	020H
	DD	0ffffffffH
	DD	00H
	DD	040H
	DD	FLAT:??_R3IAbstractApplication@@8
rdata$r	ENDS
;	COMDAT ??_R1CA@?0A@EA@?$TAbstractSingleton@VIAbstractApplication@@@@8
rdata$r	SEGMENT
??_R1CA@?0A@EA@?$TAbstractSingleton@VIAbstractApplication@@@@8 DD FLAT:??_R0?AV?$TAbstractSingleton@VIAbstractApplication@@@@@8 ; TAbstractSingleton<IAbstractApplication>::`RTTI Base Class Descriptor at (32,-1,0,64)'
	DD	00H
	DD	020H
	DD	0ffffffffH
	DD	00H
	DD	040H
	DD	FLAT:??_R3?$TAbstractSingleton@VIAbstractApplication@@@@8
rdata$r	ENDS
;	COMDAT ??_R2?$TAbstractSingleton@VIAbstractApplication@@@@8
rdata$r	SEGMENT
??_R2?$TAbstractSingleton@VIAbstractApplication@@@@8 DD FLAT:??_R1A@?0A@EA@?$TAbstractSingleton@VIAbstractApplication@@@@8 ; TAbstractSingleton<IAbstractApplication>::`RTTI Base Class Array'
rdata$r	ENDS
;	COMDAT ??_R2IAbstractApplication@@8
rdata$r	SEGMENT
??_R2IAbstractApplication@@8 DD FLAT:??_R1A@?0A@EA@IAbstractApplication@@8 ; IAbstractApplication::`RTTI Base Class Array'
	DD	FLAT:??_R1A@?0A@EA@?$TAbstractSingleton@VIAbstractApplication@@@@8
rdata$r	ENDS
;	COMDAT ??_R2?$CSingleton@VCMovieMan@@@@8
rdata$r	SEGMENT
??_R2?$CSingleton@VCMovieMan@@@@8 DD FLAT:??_R1A@?0A@EA@?$CSingleton@VCMovieMan@@@@8 ; CSingleton<CMovieMan>::`RTTI Base Class Array'
rdata$r	ENDS
;	COMDAT ??_R2CMovieMan@@8
rdata$r	SEGMENT
??_R2CMovieMan@@8 DD FLAT:??_R1A@?0A@EA@CMovieMan@@8	; CMovieMan::`RTTI Base Class Array'
	DD	FLAT:??_R1A@?0A@EA@?$CSingleton@VCMovieMan@@@@8
rdata$r	ENDS
;	COMDAT ??_R2CMSWindow@@8
rdata$r	SEGMENT
??_R2CMSWindow@@8 DD FLAT:??_R1A@?0A@EA@CMSWindow@@8	; CMSWindow::`RTTI Base Class Array'
rdata$r	ENDS
;	COMDAT ??_R2CMSApplication@@8
rdata$r	SEGMENT
??_R2CMSApplication@@8 DD FLAT:??_R1A@?0A@EA@CMSApplication@@8 ; CMSApplication::`RTTI Base Class Array'
	DD	FLAT:??_R1A@?0A@EA@CMSWindow@@8
rdata$r	ENDS
;	COMDAT ??_R2CInputDevice@@8
rdata$r	SEGMENT
??_R2CInputDevice@@8 DD FLAT:??_R1A@?0A@EA@CInputDevice@@8 ; CInputDevice::`RTTI Base Class Array'
rdata$r	ENDS
;	COMDAT ??_R2CInputKeyboard@@8
rdata$r	SEGMENT
??_R2CInputKeyboard@@8 DD FLAT:??_R1A@?0A@EA@CInputKeyboard@@8 ; CInputKeyboard::`RTTI Base Class Array'
	DD	FLAT:??_R1A@?0A@EA@CInputDevice@@8
rdata$r	ENDS
;	COMDAT ??_R2CPythonApplication@@8
rdata$r	SEGMENT
??_R2CPythonApplication@@8 DD FLAT:??_R1A@?0A@EA@CPythonApplication@@8 ; CPythonApplication::`RTTI Base Class Array'
	DD	FLAT:??_R1A@?0A@EA@CMSApplication@@8
	DD	FLAT:??_R1A@?0A@EA@CMSWindow@@8
	DD	FLAT:??_R1BM@?0A@EA@CInputKeyboard@@8
	DD	FLAT:??_R1BM@?0A@EA@CInputDevice@@8
	DD	FLAT:??_R1CA@?0A@EA@IAbstractApplication@@8
	DD	FLAT:??_R1CA@?0A@EA@?$TAbstractSingleton@VIAbstractApplication@@@@8
rdata$r	ENDS
;	COMDAT ??_C@_0CF@CBFEMJII@d?3?1ymir?5work?1special?1spheremap0@
CONST	SEGMENT
??_C@_0CF@CBFEMJII@d?3?1ymir?5work?1special?1spheremap0@ DB 'd:/ymir work'
	DB	'/special/spheremap01.jpg', 00H		; `string'
CONST	ENDS
;	COMDAT ??_C@_0CD@KIIBIHOG@d?3?1ymir?5work?1special?1spheremap?4@
CONST	SEGMENT
??_C@_0CD@KIIBIHOG@d?3?1ymir?5work?1special?1spheremap?4@ DB 'd:/ymir wor'
	DB	'k/special/spheremap.jpg', 00H		; `string'
CONST	ENDS
;	COMDAT ??_C@_0BB@EJLMKODK@?$CCCREATE_NETWORK?$CC@
CONST	SEGMENT
??_C@_0BB@EJLMKODK@?$CCCREATE_NETWORK?$CC@ DB '"CREATE_NETWORK"', 00H ; `string'
CONST	ENDS
;	COMDAT ??_C@_0BJ@CJEBNOLC@NetDevice?3?3Create?5failed@
CONST	SEGMENT
??_C@_0BJ@CJEBNOLC@NetDevice?3?3Create?5failed@ DB 'NetDevice::Create fai'
	DB	'led', 00H					; `string'
CONST	ENDS
;	COMDAT ??_C@_0BA@GLLECKCO@?$CCCREATE_CURSOR?$CC@
CONST	SEGMENT
??_C@_0BA@GLLECKCO@?$CCCREATE_CURSOR?$CC@ DB '"CREATE_CURSOR"', 00H ; `string'
CONST	ENDS
;	COMDAT ??_C@_0CA@FFOMJBHN@CMSWindow?3?3Cursors?5Create?5Error@
CONST	SEGMENT
??_C@_0CA@FFOMJBHN@CMSWindow?3?3Cursors?5Create?5Error@ DB 'CMSWindow::Cu'
	DB	'rsors Create Error', 00H			; `string'
CONST	ENDS
;	COMDAT ??_C@_0O@NOBMPFEG@CREATE_WINDOW@
CONST	SEGMENT
??_C@_0O@NOBMPFEG@CREATE_WINDOW@ DB 'CREATE_WINDOW', 00H ; `string'
CONST	ENDS
;	COMDAT ??_C@_0BJ@DBNNLGNG@CMSWindow?3?3Create?5failed@
CONST	SEGMENT
??_C@_0BJ@DBNNLGNG@CMSWindow?3?3Create?5failed@ DB 'CMSWindow::Create fai'
	DB	'led', 00H					; `string'
CONST	ENDS
;	COMDAT ??_C@_0EI@FFMLHANM@LoadLocaleData?5?9?5CPythonNetwork@
CONST	SEGMENT
??_C@_0EI@FFMLHANM@LoadLocaleData?5?9?5CPythonNetwork@ DB 'LoadLocaleData'
	DB	' - CPythonNetworkStream::LoadConvertTable(%d, %s) FAILURE', 00H ; `string'
CONST	ENDS
;	COMDAT ??_C@_0O@GCNBGGIE@?$CFs?1lang?$CFd?4cvt@
CONST	SEGMENT
??_C@_0O@GCNBGGIE@?$CFs?1lang?$CFd?4cvt@ DB '%s/lang%d.cvt', 00H ; `string'
CONST	ENDS
;	COMDAT ??_C@_0DO@PNDPPMDH@CPythonApplication?5?9?5CPythonNet@
CONST	SEGMENT
??_C@_0DO@PNDPPMDH@CPythonApplication?5?9?5CPythonNet@ DB 'CPythonApplica'
	DB	'tion - CPythonNetworkStream::LoadInsultList(%s)', 00H ; `string'
CONST	ENDS
;	COMDAT ??_C@_0CO@HCDPLHIO@LoadLocaleData?5?9?5RegisterSkillT@
CONST	SEGMENT
??_C@_0CO@HCDPLHIO@LoadLocaleData?5?9?5RegisterSkillT@ DB 'LoadLocaleData'
	DB	' - RegisterSkillTable(%s) Error', 00H	; `string'
CONST	ENDS
;	COMDAT ??_C@_0CN@NIKOAAJF@LoadLocaleData?5?9?5RegisterSkillD@
CONST	SEGMENT
??_C@_0CN@NIKOAAJF@LoadLocaleData?5?9?5RegisterSkillD@ DB 'LoadLocaleData'
	DB	' - RegisterSkillDesc(%s) Error', 00H	; `string'
CONST	ENDS
;	COMDAT ??_C@_0CI@PNCAMHEJ@LoadLocaleData?5?9?5LoadMobProto?$CI?$CF@
CONST	SEGMENT
??_C@_0CI@PNCAMHEJ@LoadLocaleData?5?9?5LoadMobProto?$CI?$CF@ DB 'LoadLoca'
	DB	'leData - LoadMobProto(%s) Error', 00H	; `string'
CONST	ENDS
;	COMDAT ??_C@_0CI@FLOPHKEN@LoadLocaleData?5?9?5LoadItemDesc?$CI?$CF@
CONST	SEGMENT
??_C@_0CI@FLOPHKEN@LoadLocaleData?5?9?5LoadItemDesc?$CI?$CF@ DB 'LoadLoca'
	DB	'leData - LoadItemDesc(%s) Error', 00H	; `string'
CONST	ENDS
;	COMDAT ??_C@_0CJ@MIFDPICO@LoadLocaleData?5?9?5LoadItemProto?$CI@
CONST	SEGMENT
??_C@_0CJ@MIFDPICO@LoadLocaleData?5?9?5LoadItemProto?$CI@ DB 'LoadLocaleD'
	DB	'ata - LoadItemProto(%s) Error', 00H		; `string'
CONST	ENDS
;	COMDAT ??_C@_0CI@MGBDCDJE@LoadLocaleData?5?9?5LoadItemList?$CI?$CF@
CONST	SEGMENT
??_C@_0CI@MGBDCDJE@LoadLocaleData?5?9?5LoadItemList?$CI?$CF@ DB 'LoadLoca'
	DB	'leData - LoadItemList(%s) Error', 00H	; `string'
CONST	ENDS
;	COMDAT ??_C@_0O@JEIJHCCG@?$CFs?1insult?4txt@
CONST	SEGMENT
??_C@_0O@JEIJHCCG@?$CFs?1insult?4txt@ DB '%s/insult.txt', 00H ; `string'
CONST	ENDS
;	COMDAT ??_C@_0BC@NLEJCAEF@?$CFs?1SkillTable?4txt@
CONST	SEGMENT
??_C@_0BC@NLEJCAEF@?$CFs?1SkillTable?4txt@ DB '%s/SkillTable.txt', 00H ; `string'
CONST	ENDS
;	COMDAT ??_C@_0BB@JDMIHPNN@?$CFs?1SkillDesc?4txt@
CONST	SEGMENT
??_C@_0BB@JDMIHPNN@?$CFs?1SkillDesc?4txt@ DB '%s/SkillDesc.txt', 00H ; `string'
CONST	ENDS
;	COMDAT ??_C@_0N@KCBCHIHM@?$CFs?1mob_proto@
CONST	SEGMENT
??_C@_0N@KCBCHIHM@?$CFs?1mob_proto@ DB '%s/mob_proto', 00H ; `string'
CONST	ENDS
;	COMDAT ??_C@_0BA@BIDKFLDM@?$CFs?1itemdesc?4txt@
CONST	SEGMENT
??_C@_0BA@BIDKFLDM@?$CFs?1itemdesc?4txt@ DB '%s/itemdesc.txt', 00H ; `string'
CONST	ENDS
;	COMDAT ??_C@_0O@MEMEPBB@?$CFs?1item_proto@
CONST	SEGMENT
??_C@_0O@MEMEPBB@?$CFs?1item_proto@ DB '%s/item_proto', 00H ; `string'
CONST	ENDS
;	COMDAT ??_C@_0BB@EOELDOLA@?$CFs?1item_list?4txt@
CONST	SEGMENT
??_C@_0BB@EOELDOLA@?$CFs?1item_list?4txt@ DB '%s/item_list.txt', 00H ; `string'
CONST	ENDS
;	COMDAT ??_C@_0BN@JAHEKIGK@CreateDevice?3?5Unknown?5Error?$CB@
CONST	SEGMENT
??_C@_0BN@JAHEKIGK@CreateDevice?3?5Unknown?5Error?$CB@ DB 'CreateDevice: '
	DB	'Unknown Error!', 00H			; `string'
CONST	ENDS
;	COMDAT ??_C@_0O@BAEJJDKB@UNKNOWN_ERROR@
CONST	SEGMENT
??_C@_0O@BAEJJDKB@UNKNOWN_ERROR@ DB 'UNKNOWN_ERROR', 00H ; `string'
CONST	ENDS
;	COMDAT ??_C@_0CB@JLAAEKGJ@CreateDevice?3?5GetDevCaps2?5faile@
CONST	SEGMENT
??_C@_0CB@JLAAEKGJ@CreateDevice?3?5GetDevCaps2?5faile@ DB 'CreateDevice: '
	DB	'GetDevCaps2 failed', 00H			; `string'
CONST	ENDS
;	COMDAT ??_C@_0BD@IHNLMMLJ@GetDevCaps2?5failed@
CONST	SEGMENT
??_C@_0BD@IHNLMMLJ@GetDevCaps2?5failed@ DB 'GetDevCaps2 failed', 00H ; `string'
CONST	ENDS
;	COMDAT ??_C@_0CA@DLHDILBB@CreateDevice?3?5GetDevCaps?5failed@
CONST	SEGMENT
??_C@_0CA@DLHDILBB@CreateDevice?3?5GetDevCaps?5failed@ DB 'CreateDevice: '
	DB	'GetDevCaps failed', 00H			; `string'
CONST	ENDS
;	COMDAT ??_C@_0BC@IMJEDJEA@GetDevCaps?5failed@
CONST	SEGMENT
??_C@_0BC@IMJEDJEA@GetDevCaps?5failed@ DB 'GetDevCaps failed', 00H ; `string'
CONST	ENDS
;	COMDAT ??_C@_0CH@DEBFNBPL@CreateDevice?3?5Change?5the?5screen@
CONST	SEGMENT
??_C@_0CH@DEBFNBPL@CreateDevice?3?5Change?5the?5screen@ DB 'CreateDevice:'
	DB	' Change the screen format', 00H		; `string'
CONST	ENDS
;	COMDAT ??_C@_0O@DAEHMKOB@CREATE_FORMAT@
CONST	SEGMENT
??_C@_0O@DAEHMKOB@CREATE_FORMAT@ DB 'CREATE_FORMAT', 00H ; `string'
CONST	ENDS
;	COMDAT ??_C@_0CK@KMPBIDGP@CreateDevice?3?5GraphicDevice?5cre@
CONST	SEGMENT
??_C@_0CK@KMPBIDGP@CreateDevice?3?5GraphicDevice?5cre@ DB 'CreateDevice: '
	DB	'GraphicDevice create failed', 00H		; `string'
CONST	ENDS
;	COMDAT ??_C@_0O@CMPMDOEH@CREATE_DEVICE@
CONST	SEGMENT
??_C@_0O@CMPMDOEH@CREATE_DEVICE@ DB 'CREATE_DEVICE', 00H ; `string'
CONST	ENDS
;	COMDAT ??_C@_0DK@GACPAJMM@CreateDevice?3?5DirectX?58?41?5or?5gr@
CONST	SEGMENT
??_C@_0DK@GACPAJMM@CreateDevice?3?5DirectX?58?41?5or?5gr@ DB 'CreateDevic'
	DB	'e: DirectX 8.1 or greater required to run game', 00H ; `string'
CONST	ENDS
;	COMDAT ??_C@_0BC@NKAKBNDM@CREATE_NO_DIRECTX@
CONST	SEGMENT
??_C@_0BC@NKAKBNDM@CREATE_NO_DIRECTX@ DB 'CREATE_NO_DIRECTX', 00H ; `string'
CONST	ENDS
;	COMDAT ??_C@_0CD@GGLEAAKE@CreateDevice?3?5Enum?5?$CG?5Detect?5fai@
CONST	SEGMENT
??_C@_0CD@GGLEAAKE@CreateDevice?3?5Enum?5?$CG?5Detect?5fai@ DB 'CreateDev'
	DB	'ice: Enum & Detect failed', 00H		; `string'
CONST	ENDS
;	COMDAT ??_C@_0BN@OAKBEJJN@CREATE_NO_APPROPRIATE_DEVICE@
CONST	SEGMENT
??_C@_0BN@OAKBEJJN@CREATE_NO_APPROPRIATE_DEVICE@ DB 'CREATE_NO_APPROPRIAT'
	DB	'E_DEVICE', 00H				; `string'
CONST	ENDS
;	COMDAT ??_C@_0M@MOGGPFAH@WARN_NO_TNL@
CONST	SEGMENT
??_C@_0M@MOGGPFAH@WARN_NO_TNL@ DB 'WARN_NO_TNL', 00H	; `string'
CONST	ENDS
;	COMDAT ??_C@_0BA@NOHKOOIE@WARN_BAD_DRIVER@
CONST	SEGMENT
??_C@_0BA@NOHKOOIE@WARN_BAD_DRIVER@ DB 'WARN_BAD_DRIVER', 00H ; `string'
CONST	ENDS
;	COMDAT ??_C@_0BD@OJBILBDC@FrameSkip?5?$LK?$LI?A?$KE?5?$CFd?6@
CONST	SEGMENT
??_C@_0BD@OJBILBDC@FrameSkip?5?$LK?$LI?A?$KE?5?$CFd?6@ DB 'FrameSkip ', 0baH
	DB	0b8H, 0c1H, 0a4H, ' %d', 0aH, 00H		; `string'
CONST	ENDS
;	COMDAT ??_C@_0L@PAGGCBDD@GU?4POS?5?$CFd?6@
CONST	SEGMENT
??_C@_0L@PAGGCBDD@GU?4POS?5?$CFd?6@ DB 'GU.POS %d', 0aH, 00H ; `string'
CONST	ENDS
;	COMDAT ??_C@_0L@KNCOIAL@GU?4PLR?5?$CFd?6@
CONST	SEGMENT
??_C@_0L@KNCOIAL@GU?4PLR?5?$CFd?6@ DB 'GU.PLR %d', 0aH, 00H ; `string'
CONST	ENDS
;	COMDAT ??_C@_0L@MPJHKAOM@GU?4ITM?5?$CFd?6@
CONST	SEGMENT
??_C@_0L@MPJHKAOM@GU?4ITM?5?$CFd?6@ DB 'GU.ITM %d', 0aH, 00H ; `string'
CONST	ENDS
;	COMDAT ??_C@_0L@NKMBCAGE@GU?4FLY?5?$CFd?6@
CONST	SEGMENT
??_C@_0L@NKMBCAGE@GU?4FLY?5?$CFd?6@ DB 'GU.FLY %d', 0aH, 00H ; `string'
CONST	ENDS
;	COMDAT ??_C@_0L@EMKAGLBH@GU?4EFT?5?$CFd?6@
CONST	SEGMENT
??_C@_0L@EMKAGLBH@GU?4EFT?5?$CFd?6@ DB 'GU.EFT %d', 0aH, 00H ; `string'
CONST	ENDS
;	COMDAT ??_C@_0L@MKJPKNA@GU?4CHR?5?$CFd?6@
CONST	SEGMENT
??_C@_0L@MKJPKNA@GU?4CHR?5?$CFd?6@ DB 'GU.CHR %d', 0aH, 00H ; `string'
CONST	ENDS
;	COMDAT ??_C@_0L@BLLECFKE@GU?4GEM?5?$CFd?6@
CONST	SEGMENT
??_C@_0L@BLLECFKE@GU?4GEM?5?$CFd?6@ DB 'GU.GEM %d', 0aH, 00H ; `string'
CONST	ENDS
;	COMDAT ??_C@_09JGPPFKPH@GU?4BG?5?$CFd?6@
CONST	SEGMENT
??_C@_09JGPPFKPH@GU?4BG?5?$CFd?6@ DB 'GU.BG %d', 0aH, 00H ; `string'
CONST	ENDS
;	COMDAT ??_C@_0L@IGEOOJOO@GU?4MPS?5?$CFd?6@
CONST	SEGMENT
??_C@_0L@IGEOOJOO@GU?4MPS?5?$CFd?6@ DB 'GU.MPS %d', 0aH, 00H ; `string'
CONST	ENDS
;	COMDAT ??_C@_0L@HCBFJPAB@GU?4SCR?5?$CFd?6@
CONST	SEGMENT
??_C@_0L@HCBFJPAB@GU?4SCR?5?$CFd?6@ DB 'GU.SCR %d', 0aH, 00H ; `string'
CONST	ENDS
;	COMDAT ??_C@_0L@JHBDHKIG@GU?4GMP?5?$CFd?6@
CONST	SEGMENT
??_C@_0L@JHBDHKIG@GU?4GMP?5?$CFd?6@ DB 'GU.GMP %d', 0aH, 00H ; `string'
CONST	ENDS
;	COMDAT ??_C@_0BH@HPIDKEA@GU?4Total?5?$CFd?5?$CITime?5?$CFd?$CJ?6@
CONST	SEGMENT
??_C@_0BH@HPIDKEA@GU?4Total?5?$CFd?5?$CITime?5?$CFd?$CJ?6@ DB 'GU.Total %'
	DB	'd (Time %d)', 0aH, 00H			; `string'
CONST	ENDS
;	COMDAT ??_C@_0BF@NHIIGIH@perf_game_update?4txt@
CONST	SEGMENT
??_C@_0BF@NHIIGIH@perf_game_update?4txt@ DB 'perf_game_update.txt', 00H ; `string'
CONST	ENDS
;	COMDAT ??_C@_0O@EEAHGPFP@GR?4BG?4BLK?5?$CFd?6@
CONST	SEGMENT
??_C@_0O@EEAHGPFP@GR?4BG?4BLK?5?$CFd?6@ DB 'GR.BG.BLK %d', 0aH, 00H ; `string'
CONST	ENDS
;	COMDAT ??_C@_0L@DIBNDLBN@GR?4FLY?5?$CFd?6@
CONST	SEGMENT
??_C@_0L@DIBNDLBN@GR?4FLY?5?$CFd?6@ DB 'GR.FLY %d', 0aH, 00H ; `string'
CONST	ENDS
;	COMDAT ??_C@_0L@CNELLLJF@GR?4ITM?5?$CFd?6@
CONST	SEGMENT
??_C@_0L@CNELLLJF@GR?4ITM?5?$CFd?6@ DB 'GR.ITM %d', 0aH, 00H ; `string'
CONST	ENDS
;	COMDAT ??_C@_0L@KOHMHAGO@GR?4EFT?5?$CFd?6@
CONST	SEGMENT
??_C@_0L@KOHMHAGO@GR?4EFT?5?$CFd?6@ DB 'GR.EFT %d', 0aH, 00H ; `string'
CONST	ENDS
;	COMDAT ??_C@_0O@BIDCIJEG@GR?4BG?4EFT?5?$CFd?6@
CONST	SEGMENT
??_C@_0O@BIDCIJEG@GR?4BG?4EFT?5?$CFd?6@ DB 'GR.BG.EFT %d', 0aH, 00H ; `string'
CONST	ENDS
;	COMDAT ??_C@_0O@LENBOK@GR?4BG?4WTR?5?$CFd?6@
CONST	SEGMENT
??_C@_0O@LENBOK@GR?4BG?4WTR?5?$CFd?6@ DB 'GR.BG.WTR %d', 0aH, 00H ; `string'
CONST	ENDS
;	COMDAT ??_C@_0L@OOHFOBKJ@GR?4CHR?5?$CFd?6@
CONST	SEGMENT
??_C@_0L@OOHFOBKJ@GR?4CHR?5?$CFd?6@ DB 'GR.CHR %d', 0aH, 00H ; `string'
CONST	ENDS
;	COMDAT ??_C@_0P@EJKDFAIB@GR?4BG?4MAIN?5?$CFd?6@
CONST	SEGMENT
??_C@_0P@EJKDFAIB@GR?4BG?4MAIN?5?$CFd?6@ DB 'GR.BG.MAIN %d', 0aH, 00H ; `string'
CONST	ENDS
;	COMDAT ??_C@_0O@HJPLNNBE@GR?4BG?4CLD?5?$CFd?6@
CONST	SEGMENT
??_C@_0O@HJPLNNBE@GR?4BG?4CLD?5?$CFd?6@ DB 'GR.BG.CLD %d', 0aH, 00H ; `string'
CONST	ENDS
;	COMDAT ??_C@_0O@JENIKJAN@GR?4BG?4LEN?5?$CFd?6@
CONST	SEGMENT
??_C@_0O@JENIKJAN@GR?4BG?4LEN?5?$CFd?6@ DB 'GR.BG.LEN %d', 0aH, 00H ; `string'
CONST	ENDS
;	COMDAT ??_C@_0O@HPKPMDPE@GR?4BG?4SKY?5?$CFd?6@
CONST	SEGMENT
??_C@_0O@HPKPMDPE@GR?4BG?4SKY?5?$CFd?6@ DB 'GR.BG.SKY %d', 0aH, 00H ; `string'
CONST	ENDS
;	COMDAT ??_C@_0L@CDOGKGFB@GR?4CLL?5?$CFd?6@
CONST	SEGMENT
??_C@_0L@CDOGKGFB@GR?4CLL?5?$CFd?6@ DB 'GR.CLL %d', 0aH, 00H ; `string'
CONST	ENDS
;	COMDAT ??_C@_0L@OEOJMFCF@GR?4STT?5?$CFd?6@
CONST	SEGMENT
??_C@_0L@OEOJMFCF@GR?4STT?5?$CFd?6@ DB 'GR.STT %d', 0aH, 00H ; `string'
CONST	ENDS
;	COMDAT ??_C@_0L@MCADEBDB@GR?4SHW?5?$CFd?6@
CONST	SEGMENT
??_C@_0L@MCADEBDB@GR?4SHW?5?$CFd?6@ DB 'GR.SHW %d', 0aH, 00H ; `string'
CONST	ENDS
;	COMDAT ??_C@_0O@PLGAMGBI@GR?4EFT?4UP?5?$CFd?6@
CONST	SEGMENT
??_C@_0O@PLGAMGBI@GR?4EFT?4UP?5?$CFd?6@ DB 'GR.EFT.UP %d', 0aH, 00H ; `string'
CONST	ENDS
;	COMDAT ??_C@_0L@EGAPCDKD@GR?4DFM?5?$CFd?6@
CONST	SEGMENT
??_C@_0L@EGAPCDKD@GR?4DFM?5?$CFd?6@ DB 'GR.DFM %d', 0aH, 00H ; `string'
CONST	ENDS
;	COMDAT ??_C@_0BH@GCCBAEAA@GR?4Total?5?$CFd?5?$CITime?5?$CFd?$CJ?6@
CONST	SEGMENT
??_C@_0BH@GCCBAEAA@GR?4Total?5?$CFd?5?$CITime?5?$CFd?$CJ?6@ DB 'GR.Total '
	DB	'%d (Time %d)', 0aH, 00H			; `string'
CONST	ENDS
;	COMDAT ??_C@_0BF@OHHAPIAL@perf_game_render?4txt@
CONST	SEGMENT
??_C@_0BF@OHHAPIAL@perf_game_render?4txt@ DB 'perf_game_render.txt', 00H ; `string'
CONST	ENDS
;	COMDAT ??_C@_0M@EHJKIBDK@Abort?$CB?$CB?$CB?$CB?6?6@
CONST	SEGMENT
??_C@_0M@EHJKIBDK@Abort?$CB?$CB?$CB?$CB?6?6@ DB 'Abort!!!!', 0aH, 0aH, 00H ; `string'
CONST	ENDS
;	COMDAT ??_C@_0GN@LLBDNFAM@?$DN?$DN?$DN?$DN?$DN?$DN?$DN?$DN?$DN?$DN?$DN?$DN?$DN?$DN?$DN?$DN?$DN?$DN?$DN?$DN?$DN?$DN?$DN?$DN?$DN?$DN?$DN?$DN?$DN?$DN?$DN@
CONST	SEGMENT
??_C@_0GN@LLBDNFAM@?$DN?$DN?$DN?$DN?$DN?$DN?$DN?$DN?$DN?$DN?$DN?$DN?$DN?$DN?$DN?$DN?$DN?$DN?$DN?$DN?$DN?$DN?$DN?$DN?$DN?$DN?$DN?$DN?$DN?$DN?$DN@ DB '='
	DB	'============================================================='
	DB	'==============================================', 00H ; `string'
?c_fDefaultCameraZoomSpeed@@3MA DD 03d4ccccdr	; 0.05	; c_fDefaultCameraZoomSpeed
?c_fDefaultCameraPitchSpeed@@3MA DD 03fc00000r	; 1.5	; c_fDefaultCameraPitchSpeed
?c_fDefaultCameraRotateSpeed@@3MA DD 03fc00000r	; 1.5	; c_fDefaultCameraRotateSpeed
?MIN_FOG@@3MA DD 045160000r			; 2400	; MIN_FOG
?g_specularSpd@@3NA DQ 03f7cac0840000000r	; 0.007	; g_specularSpd
PUBLIC	??_ECPythonApplication@@WCA@AEPAXI@Z		; [thunk]:CPythonApplication::`vector deleting destructor'
PUBLIC	??_ECPythonApplication@@WBM@AEPAXI@Z		; [thunk]:CPythonApplication::`vector deleting destructor'
PUBLIC	??$construct_at@PAU?$_Tree_node@U?$pair@$$CBHPAX@std@@PAX@std@@ABQAU12@@std@@YAPAPAU?$_Tree_node@U?$pair@$$CBHPAX@std@@PAX@0@QAPAU10@ABQAU10@@Z ; std::construct_at<std::_Tree_node<std::pair<int const ,void *>,void *> *,std::_Tree_node<std::pair<int const ,void *>,void *> * const &>
PUBLIC	??$forward@ABQAU?$_Tree_node@U?$pair@$$CBHPAX@std@@PAX@std@@@std@@YAABQAU?$_Tree_node@U?$pair@$$CBHPAX@std@@PAX@0@ABQAU10@@Z ; std::forward<std::_Tree_node<std::pair<int const ,void *>,void *> * const &>
PUBLIC	??$addressof@PAU?$_Tree_node@U?$pair@$$CBHPAX@std@@PAX@std@@@std@@YAPAPAU?$_Tree_node@U?$pair@$$CBHPAX@std@@PAX@0@AAPAU10@@Z ; std::addressof<std::_Tree_node<std::pair<int const ,void *>,void *> *>
PUBLIC	??$destroy_at@U?$pair@$$CBHPAX@std@@@std@@YAXQAU?$pair@$$CBHPAX@0@@Z ; std::destroy_at<std::pair<int const ,void *> >
PUBLIC	??0?$allocator@U?$_Tree_node@U?$pair@$$CBHPAX@std@@PAX@std@@@std@@QAE@XZ ; std::allocator<std::_Tree_node<std::pair<int const ,void *>,void *> >::allocator<std::_Tree_node<std::pair<int const ,void *>,void *> >
PUBLIC	?deallocate@?$allocator@U?$_Tree_node@U?$pair@$$CBHPAX@std@@PAX@std@@@std@@QAEXQAU?$_Tree_node@U?$pair@$$CBHPAX@std@@PAX@2@I@Z ; std::allocator<std::_Tree_node<std::pair<int const ,void *>,void *> >::deallocate
PUBLIC	?allocate@?$allocator@U?$_Tree_node@U?$pair@$$CBHPAX@std@@PAX@std@@@std@@QAEPAU?$_Tree_node@U?$pair@$$CBHPAX@std@@PAX@2@I@Z ; std::allocator<std::_Tree_node<std::pair<int const ,void *>,void *> >::allocate
PUBLIC	??0?$_Tree_val@U?$_Tree_simple_types@U?$pair@$$CBHPAX@std@@@std@@@std@@QAE@XZ ; std::_Tree_val<std::_Tree_simple_types<std::pair<int const ,void *> > >::_Tree_val<std::_Tree_simple_types<std::pair<int const ,void *> > >
PUBLIC	??$_Construct_in_place@PAU?$_Tree_node@U?$pair@$$CBHPAX@std@@PAX@std@@ABQAU12@@std@@YAXAAPAU?$_Tree_node@U?$pair@$$CBHPAX@std@@PAX@0@ABQAU10@@Z ; std::_Construct_in_place<std::_Tree_node<std::pair<int const ,void *>,void *> *,std::_Tree_node<std::pair<int const ,void *>,void *> * const &>
PUBLIC	??$destroy@U?$pair@$$CBHPAX@std@@@?$_Default_allocator_traits@V?$allocator@U?$_Tree_node@U?$pair@$$CBHPAX@std@@PAX@std@@@std@@@std@@SAXAAV?$allocator@U?$_Tree_node@U?$pair@$$CBHPAX@std@@PAX@std@@@1@QAU?$pair@$$CBHPAX@1@@Z ; std::_Default_allocator_traits<std::allocator<std::_Tree_node<std::pair<int const ,void *>,void *> > >::destroy<std::pair<int const ,void *> >
PUBLIC	??$addressof@U?$pair@$$CBHPAX@std@@@std@@YAPAU?$pair@$$CBHPAX@0@AAU10@@Z ; std::addressof<std::pair<int const ,void *> >
PUBLIC	?deallocate@?$_Default_allocator_traits@V?$allocator@U?$_Tree_node@U?$pair@$$CBHPAX@std@@PAX@std@@@std@@@std@@SAXAAV?$allocator@U?$_Tree_node@U?$pair@$$CBHPAX@std@@PAX@std@@@2@QAU?$_Tree_node@U?$pair@$$CBHPAX@std@@PAX@2@I@Z ; std::_Default_allocator_traits<std::allocator<std::_Tree_node<std::pair<int const ,void *>,void *> > >::deallocate
PUBLIC	??$_Buyheadnode@V?$allocator@U?$_Tree_node@U?$pair@$$CBHPAX@std@@PAX@std@@@std@@@?$_Tree_node@U?$pair@$$CBHPAX@std@@PAX@std@@SAPAU01@AAV?$allocator@U?$_Tree_node@U?$pair@$$CBHPAX@std@@PAX@std@@@1@@Z ; std::_Tree_node<std::pair<int const ,void *>,void *>::_Buyheadnode<std::allocator<std::_Tree_node<std::pair<int const ,void *>,void *> > >
PUBLIC	??$_Destroy_in_place@PAU?$_Tree_node@U?$pair@$$CBHPAX@std@@PAX@std@@@std@@YAXAAPAU?$_Tree_node@U?$pair@$$CBHPAX@std@@PAX@0@@Z ; std::_Destroy_in_place<std::_Tree_node<std::pair<int const ,void *>,void *> *>
PUBLIC	??$_Freenode@V?$allocator@U?$_Tree_node@U?$pair@$$CBHPAX@std@@PAX@std@@@std@@@?$_Tree_node@U?$pair@$$CBHPAX@std@@PAX@std@@SAXAAV?$allocator@U?$_Tree_node@U?$pair@$$CBHPAX@std@@PAX@std@@@1@PAU01@@Z ; std::_Tree_node<std::pair<int const ,void *>,void *>::_Freenode<std::allocator<std::_Tree_node<std::pair<int const ,void *>,void *> > >
PUBLIC	??$exchange@PAU?$_Tree_node@U?$pair@$$CBHPAX@std@@PAX@std@@AAPAU12@@std@@YAPAU?$_Tree_node@U?$pair@$$CBHPAX@std@@PAX@0@AAPAU10@0@Z ; std::exchange<std::_Tree_node<std::pair<int const ,void *>,void *> *,std::_Tree_node<std::pair<int const ,void *>,void *> * &>
PUBLIC	??$?0$$V@?$_Compressed_pair@V?$allocator@U?$_Tree_node@U?$pair@$$CBHPAX@std@@PAX@std@@@std@@V?$_Tree_val@U?$_Tree_simple_types@U?$pair@$$CBHPAX@std@@@std@@@2@$00@std@@QAE@U_Zero_then_variadic_args_t@1@@Z ; std::_Compressed_pair<std::allocator<std::_Tree_node<std::pair<int const ,void *>,void *> >,std::_Tree_val<std::_Tree_simple_types<std::pair<int const ,void *> > >,1>::_Compressed_pair<std::allocator<std::_Tree_node<std::pair<int const ,void *>,void *> >,std::_Tree_val<std::_Tree_simple_types<std::pair<int const ,void *> > >,1><>
PUBLIC	?_Alloc_sentinel_and_proxy@?$_Tree@V?$_Tmap_traits@HPAXU?$less@H@std@@V?$allocator@U?$pair@$$CBHPAX@std@@@2@$0A@@std@@@std@@IAEXXZ ; std::_Tree<std::_Tmap_traits<int,void *,std::less<int>,std::allocator<std::pair<int const ,void *> >,0> >::_Alloc_sentinel_and_proxy
PUBLIC	?_Get_first@?$_Compressed_pair@V?$allocator@U?$_Tree_node@U?$pair@$$CBHPAX@std@@PAX@std@@@std@@V?$_Tree_val@U?$_Tree_simple_types@U?$pair@$$CBHPAX@std@@@std@@@2@$00@std@@QAEAAV?$allocator@U?$_Tree_node@U?$pair@$$CBHPAX@std@@PAX@std@@@2@XZ ; std::_Compressed_pair<std::allocator<std::_Tree_node<std::pair<int const ,void *>,void *> >,std::_Tree_val<std::_Tree_simple_types<std::pair<int const ,void *> > >,1>::_Get_first
PUBLIC	??$?0ABU?$less@H@std@@U_Zero_then_variadic_args_t@1@@?$_Compressed_pair@U?$less@H@std@@V?$_Compressed_pair@V?$allocator@U?$_Tree_node@U?$pair@$$CBHPAX@std@@PAX@std@@@std@@V?$_Tree_val@U?$_Tree_simple_types@U?$pair@$$CBHPAX@std@@@std@@@2@$00@2@$00@std@@QAE@U_One_then_variadic_args_t@1@ABU?$less@H@1@$$QAU_Zero_then_variadic_args_t@1@@Z ; std::_Compressed_pair<std::less<int>,std::_Compressed_pair<std::allocator<std::_Tree_node<std::pair<int const ,void *>,void *> >,std::_Tree_val<std::_Tree_simple_types<std::pair<int const ,void *> > >,1>,1>::_Compressed_pair<std::less<int>,std::_Compressed_pair<std::allocator<std::_Tree_node<std::pair<int const ,void *>,void *> >,std::_Tree_val<std::_Tree_simple_types<std::pair<int const ,void *> > >,1>,1><std::less<int> const &,std::_Zero_then_variadic_args_t>
PUBLIC	??$addressof@V?$_Tree_val@U?$_Tree_simple_types@U?$pair@$$CBHPAX@std@@@std@@@std@@@std@@YAPAV?$_Tree_val@U?$_Tree_simple_types@U?$pair@$$CBHPAX@std@@@std@@@0@AAV10@@Z ; std::addressof<std::_Tree_val<std::_Tree_simple_types<std::pair<int const ,void *> > > >
PUBLIC	??$_Freenode0@V?$allocator@U?$_Tree_node@U?$pair@$$CBHPAX@std@@PAX@std@@@std@@@?$_Tree_node@U?$pair@$$CBHPAX@std@@PAX@std@@SAXAAV?$allocator@U?$_Tree_node@U?$pair@$$CBHPAX@std@@PAX@std@@@1@PAU01@@Z ; std::_Tree_node<std::pair<int const ,void *>,void *>::_Freenode0<std::allocator<std::_Tree_node<std::pair<int const ,void *>,void *> > >
PUBLIC	??$_Erase_tree@V?$allocator@U?$_Tree_node@U?$pair@$$CBHPAX@std@@PAX@std@@@std@@@?$_Tree_val@U?$_Tree_simple_types@U?$pair@$$CBHPAX@std@@@std@@@std@@QAEXAAV?$allocator@U?$_Tree_node@U?$pair@$$CBHPAX@std@@PAX@std@@@1@PAU?$_Tree_node@U?$pair@$$CBHPAX@std@@PAX@1@@Z ; std::_Tree_val<std::_Tree_simple_types<std::pair<int const ,void *> > >::_Erase_tree<std::allocator<std::_Tree_node<std::pair<int const ,void *>,void *> > >
PUBLIC	??0?$_Tree@V?$_Tmap_traits@HPAXU?$less@H@std@@V?$allocator@U?$pair@$$CBHPAX@std@@@2@$0A@@std@@@std@@QAE@ABU?$less@H@1@@Z ; std::_Tree<std::_Tmap_traits<int,void *,std::less<int>,std::allocator<std::pair<int const ,void *> >,0> >::_Tree<std::_Tmap_traits<int,void *,std::less<int>,std::allocator<std::pair<int const ,void *> >,0> >
PUBLIC	?_Getal@?$_Tree@V?$_Tmap_traits@HPAXU?$less@H@std@@V?$allocator@U?$pair@$$CBHPAX@std@@@2@$0A@@std@@@std@@IAEAAV?$allocator@U?$_Tree_node@U?$pair@$$CBHPAX@std@@PAX@std@@@2@XZ ; std::_Tree<std::_Tmap_traits<int,void *,std::less<int>,std::allocator<std::pair<int const ,void *> >,0> >::_Getal
PUBLIC	?_Get_scary@?$_Tree@V?$_Tmap_traits@HPAXU?$less@H@std@@V?$allocator@U?$pair@$$CBHPAX@std@@@2@$0A@@std@@@std@@IAEPAV?$_Tree_val@U?$_Tree_simple_types@U?$pair@$$CBHPAX@std@@@std@@@2@XZ ; std::_Tree<std::_Tmap_traits<int,void *,std::less<int>,std::allocator<std::pair<int const ,void *> >,0> >::_Get_scary
PUBLIC	??$_Erase_head@V?$allocator@U?$_Tree_node@U?$pair@$$CBHPAX@std@@PAX@std@@@std@@@?$_Tree_val@U?$_Tree_simple_types@U?$pair@$$CBHPAX@std@@@std@@@std@@QAEXAAV?$allocator@U?$_Tree_node@U?$pair@$$CBHPAX@std@@PAX@std@@@1@@Z ; std::_Tree_val<std::_Tree_simple_types<std::pair<int const ,void *> > >::_Erase_head<std::allocator<std::_Tree_node<std::pair<int const ,void *>,void *> > >
PUBLIC	??_G?$TAbstractSingleton@VIAbstractApplication@@@@UAEPAXI@Z ; TAbstractSingleton<IAbstractApplication>::`scalar deleting destructor'
PUBLIC	??_G?$CSingleton@VCMovieMan@@@@UAEPAXI@Z	; CSingleton<CMovieMan>::`scalar deleting destructor'
PUBLIC	?Instance@?$CSingleton@VCTimer@@@@SAAAVCTimer@@XZ ; CSingleton<CTimer>::Instance
PUBLIC	?Instance@?$CSingleton@VCWindowManager@UI@@@@SAAAVCWindowManager@UI@@XZ ; CSingleton<UI::CWindowManager>::Instance
PUBLIC	?Instance@?$CSingleton@VCPythonSkill@@@@SAAAVCPythonSkill@@XZ ; CSingleton<CPythonSkill>::Instance
PUBLIC	?Instance@?$CSingleton@VCPythonIME@@@@SAAAVCPythonIME@@XZ ; CSingleton<CPythonIME>::Instance
PUBLIC	??0?$TAbstractSingleton@VIAbstractApplication@@@@QAE@XZ ; TAbstractSingleton<IAbstractApplication>::TAbstractSingleton<IAbstractApplication>
PUBLIC	??1?$TAbstractSingleton@VIAbstractApplication@@@@UAE@XZ ; TAbstractSingleton<IAbstractApplication>::~TAbstractSingleton<IAbstractApplication>
PUBLIC	??0?$CSingleton@VCMovieMan@@@@QAE@XZ		; CSingleton<CMovieMan>::CSingleton<CMovieMan>
PUBLIC	??1?$CSingleton@VCMovieMan@@@@UAE@XZ		; CSingleton<CMovieMan>::~CSingleton<CMovieMan>
PUBLIC	??0?$map@HPAXU?$less@H@std@@V?$allocator@U?$pair@$$CBHPAX@std@@@2@@std@@QAE@XZ ; std::map<int,void *,std::less<int>,std::allocator<std::pair<int const ,void *> > >::map<int,void *,std::less<int>,std::allocator<std::pair<int const ,void *> > >
PUBLIC	??1?$_Tree@V?$_Tmap_traits@HPAXU?$less@H@std@@V?$allocator@U?$pair@$$CBHPAX@std@@@2@$0A@@std@@@std@@QAE@XZ ; std::_Tree<std::_Tmap_traits<int,void *,std::less<int>,std::allocator<std::pair<int const ,void *> >,0> >::~_Tree<std::_Tmap_traits<int,void *,std::less<int>,std::allocator<std::pair<int const ,void *> >,0> >
PUBLIC	?Destroy@CPythonApplication@@QAEXXZ		; CPythonApplication::Destroy
PUBLIC	?Clear@CPythonApplication@@QAEXXZ		; CPythonApplication::Clear
PUBLIC	?SetForceSightRange@CPythonApplication@@QAEXH@Z	; CPythonApplication::SetForceSightRange
PUBLIC	?SetCameraSpeed@CPythonApplication@@QAEXH@Z	; CPythonApplication::SetCameraSpeed
PUBLIC	?EnableSpecialCameraMode@CPythonApplication@@QAEXXZ ; CPythonApplication::EnableSpecialCameraMode
PUBLIC	?GetConnectData@CPythonApplication@@QAEXAAV?$basic_string@DU?$char_traits@D@std@@V?$allocator@D@2@@std@@AAH@Z ; CPythonApplication::GetConnectData
PUBLIC	?SetConnectData@CPythonApplication@@QAEXPBDH@Z	; CPythonApplication::SetConnectData
PUBLIC	?SetFPS@CPythonApplication@@QAEXH@Z		; CPythonApplication::SetFPS
PUBLIC	?GetGlobalElapsedTime@CPythonApplication@@UAEMXZ ; CPythonApplication::GetGlobalElapsedTime
PUBLIC	?GetGlobalTime@CPythonApplication@@UAEMXZ	; CPythonApplication::GetGlobalTime
PUBLIC	?GetServerTimeStamp@CPythonApplication@@QAEJXZ	; CPythonApplication::GetServerTimeStamp
PUBLIC	?GetServerTime@CPythonApplication@@QAEJXZ	; CPythonApplication::GetServerTime
PUBLIC	?SetServerTime@CPythonApplication@@UAEXJ@Z	; CPythonApplication::SetServerTime
PUBLIC	?GetCenterPosition@CPythonApplication@@QAEXPAUD3DXVECTOR3@@@Z ; CPythonApplication::GetCenterPosition
PUBLIC	?SetCenterPosition@CPythonApplication@@UAEXMMM@Z ; CPythonApplication::SetCenterPosition
PUBLIC	?SetGlobalCenterPosition@CPythonApplication@@QAEXJJ@Z ; CPythonApplication::SetGlobalCenterPosition
PUBLIC	?Create@CPythonApplication@@QAE_NPAU_object@@PBDHHH@Z ; CPythonApplication::Create
PUBLIC	?__GetWindowMode@@YAI_N@Z			; __GetWindowMode
PUBLIC	?LoadLocaleData@@YA_NPBD@Z			; LoadLocaleData
PUBLIC	?Loop@CPythonApplication@@QAEXXZ		; CPythonApplication::Loop
PUBLIC	?CreateDevice@CPythonApplication@@QAE_NHHHHH@Z	; CPythonApplication::CreateDevice
PUBLIC	?SetMouseHandler@CPythonApplication@@QAEXPAU_object@@@Z ; CPythonApplication::SetMouseHandler
PUBLIC	?Process@CPythonApplication@@QAE_NXZ		; CPythonApplication::Process
PUBLIC	?SkipRenderBuffering@CPythonApplication@@UAEXK@Z ; CPythonApplication::SkipRenderBuffering
PUBLIC	?UpdateGame@CPythonApplication@@QAEXXZ		; CPythonApplication::UpdateGame
PUBLIC	?RenderGame@CPythonApplication@@QAEXXZ		; CPythonApplication::RenderGame
PUBLIC	?Exit@CPythonApplication@@QAEXXZ		; CPythonApplication::Exit
PUBLIC	?Abort@CPythonApplication@@QAEXXZ		; CPythonApplication::Abort
PUBLIC	?GetInfo@CPythonApplication@@QAEXIPAV?$basic_string@DU?$char_traits@D@std@@V?$allocator@D@2@@std@@@Z ; CPythonApplication::GetInfo
PUBLIC	?SetFrameSkip@CPythonApplication@@QAEX_N@Z	; CPythonApplication::SetFrameSkip
PUBLIC	?SetMinFog@CPythonApplication@@QAEXM@Z		; CPythonApplication::SetMinFog
PUBLIC	?GetMousePosition@CPythonApplication@@UAEXPAUtagPOINT@@@Z ; CPythonApplication::GetMousePosition
PUBLIC	??1CPythonApplication@@UAE@XZ			; CPythonApplication::~CPythonApplication
PUBLIC	??1?$map@HPAXU?$less@H@std@@V?$allocator@U?$pair@$$CBHPAX@std@@@2@@std@@QAE@XZ ; std::map<int,void *,std::less<int>,std::allocator<std::pair<int const ,void *> > >::~map<int,void *,std::less<int>,std::allocator<std::pair<int const ,void *> > >
PUBLIC	??_GCPythonApplication@@UAEPAXI@Z		; CPythonApplication::`scalar deleting destructor'
PUBLIC	??0CPythonApplication@@QAE@XZ			; CPythonApplication::CPythonApplication
PUBLIC	??0SCameraSpeed@CPythonApplication@@QAE@XZ	; CPythonApplication::SCameraSpeed::SCameraSpeed
PUBLIC	??_GCMovieMan@@UAEPAXI@Z			; CMovieMan::`scalar deleting destructor'
PUBLIC	??1CMovieMan@@UAE@XZ				; CMovieMan::~CMovieMan
PUBLIC	??0CMovieMan@@QAE@XZ				; CMovieMan::CMovieMan
PUBLIC	??_GIAbstractApplication@@UAEPAXI@Z		; IAbstractApplication::`scalar deleting destructor'
PUBLIC	??1IAbstractApplication@@UAE@XZ			; IAbstractApplication::~IAbstractApplication
PUBLIC	??0IAbstractApplication@@QAE@XZ			; IAbstractApplication::IAbstractApplication
PUBLIC	??0SCameraSetting@IAbstractApplication@@QAE@XZ	; IAbstractApplication::SCameraSetting::SCameraSetting
PUBLIC	??0SCameraPos@IAbstractApplication@@QAE@XZ	; IAbstractApplication::SCameraPos::SCameraPos
PUBLIC	?SetMapManagerPtr@CFlyingManager@@QAEXPAVCMapManager@@@Z ; CFlyingManager::SetMapManagerPtr
EXTRN	??_EIAbstractApplication@@UAEPAXI@Z:PROC	; IAbstractApplication::`vector deleting destructor'
EXTRN	??_E?$TAbstractSingleton@VIAbstractApplication@@@@UAEPAXI@Z:PROC ; TAbstractSingleton<IAbstractApplication>::`vector deleting destructor'
EXTRN	??_ECMovieMan@@UAEPAXI@Z:PROC			; CMovieMan::`vector deleting destructor'
EXTRN	??_E?$CSingleton@VCMovieMan@@@@UAEPAXI@Z:PROC	; CSingleton<CMovieMan>::`vector deleting destructor'
EXTRN	??_ECPythonApplication@@UAEPAXI@Z:PROC		; CPythonApplication::`vector deleting destructor'
;	COMDAT ?$TSS0@?1??RenderGame@CPythonApplication@@QAEXXZ@4HA
_BSS	SEGMENT
?$TSS0@?1??RenderGame@CPythonApplication@@QAEXXZ@4HA DD 01H DUP (?) ; `CPythonApplication::RenderGame'::`2'::$TSS0
_BSS	ENDS
;	COMDAT ?fp@?1??RenderGame@CPythonApplication@@QAEXXZ@4PAU_iobuf@@A
_BSS	SEGMENT
?fp@?1??RenderGame@CPythonApplication@@QAEXXZ@4PAU_iobuf@@A DD 01H DUP (?) ; `CPythonApplication::RenderGame'::`2'::fp
_BSS	ENDS
;	COMDAT ?$TSS0@?8??UpdateGame@CPythonApplication@@QAEXXZ@4HA
_BSS	SEGMENT
?$TSS0@?8??UpdateGame@CPythonApplication@@QAEXXZ@4HA DD 01H DUP (?) ; `CPythonApplication::UpdateGame'::`9'::$TSS0
_BSS	ENDS
;	COMDAT ?fp@?8??UpdateGame@CPythonApplication@@QAEXXZ@4PAU_iobuf@@A
_BSS	SEGMENT
?fp@?8??UpdateGame@CPythonApplication@@QAEXXZ@4PAU_iobuf@@A DD 01H DUP (?) ; `CPythonApplication::UpdateGame'::`9'::fp
_BSS	ENDS
;	COMDAT ?$TSS0@?1??Process@CPythonApplication@@QAE_NXZ@4HA
_BSS	SEGMENT
?$TSS0@?1??Process@CPythonApplication@@QAE_NXZ@4HA DD 01H DUP (?) ; `CPythonApplication::Process'::`2'::$TSS0
_BSS	ENDS
;	COMDAT ?s_dwCheckTime@?1??Process@CPythonApplication@@QAE_NXZ@4KA
_BSS	SEGMENT
?s_dwCheckTime@?1??Process@CPythonApplication@@QAE_NXZ@4KA DD 01H DUP (?) ; `CPythonApplication::Process'::`2'::s_dwCheckTime
_BSS	ENDS
;	COMDAT ?$TSS1@?1??Process@CPythonApplication@@QAE_NXZ@4HA
_BSS	SEGMENT
?$TSS1@?1??Process@CPythonApplication@@QAE_NXZ@4HA DD 01H DUP (?) ; `CPythonApplication::Process'::`2'::$TSS1
_BSS	ENDS
;	COMDAT ?s_uiNextFrameTime@?1??Process@CPythonApplication@@QAE_NXZ@4IA
_BSS	SEGMENT
?s_uiNextFrameTime@?1??Process@CPythonApplication@@QAE_NXZ@4IA DD 01H DUP (?) ; `CPythonApplication::Process'::`2'::s_uiNextFrameTime
_BSS	ENDS
;	COMDAT ?$TSS2@?CJ@??Process@CPythonApplication@@QAE_NXZ@4HA
_BSS	SEGMENT
?$TSS2@?CJ@??Process@CPythonApplication@@QAE_NXZ@4HA DD 01H DUP (?) ; `CPythonApplication::Process'::`41'::$TSS2
_BSS	ENDS
;	COMDAT ?s_dwRenderCheckTime@?CJ@??Process@CPythonApplication@@QAE_NXZ@4KA
_BSS	SEGMENT
?s_dwRenderCheckTime@?CJ@??Process@CPythonApplication@@QAE_NXZ@4KA DD 01H DUP (?) ; `CPythonApplication::Process'::`41'::s_dwRenderCheckTime
_BSS	ENDS
;	COMDAT xdata$x
xdata$x	SEGMENT
__ehfuncinfo$??0CPythonApplication@@QAE@XZ DD 019930522H
	DD	02bH
	DD	FLAT:__unwindtable$??0CPythonApplication@@QAE@XZ
	DD	2 DUP(00H)
	DD	2 DUP(00H)
	DD	00H
	DD	01H
	ORG $+4
__unwindtable$??0CPythonApplication@@QAE@XZ DD 0ffffffffH
	DD	FLAT:__unwindfunclet$??0CPythonApplication@@QAE@XZ$0
	DD	00H
	DD	FLAT:__unwindfunclet$??0CPythonApplication@@QAE@XZ$1
	DD	01H
	DD	FLAT:__unwindfunclet$??0CPythonApplication@@QAE@XZ$2
	DD	02H
	DD	FLAT:__unwindfunclet$??0CPythonApplication@@QAE@XZ$3
	DD	03H
	DD	FLAT:__unwindfunclet$??0CPythonApplication@@QAE@XZ$4
	DD	04H
	DD	FLAT:__unwindfunclet$??0CPythonApplication@@QAE@XZ$5
	DD	05H
	DD	FLAT:__unwindfunclet$??0CPythonApplication@@QAE@XZ$6
	DD	06H
	DD	FLAT:__unwindfunclet$??0CPythonApplication@@QAE@XZ$7
	DD	07H
	DD	FLAT:__unwindfunclet$??0CPythonApplication@@QAE@XZ$8
	DD	08H
	DD	FLAT:__unwindfunclet$??0CPythonApplication@@QAE@XZ$9
	DD	09H
	DD	FLAT:__unwindfunclet$??0CPythonApplication@@QAE@XZ$10
	DD	0aH
	DD	FLAT:__unwindfunclet$??0CPythonApplication@@QAE@XZ$11
	DD	0bH
	DD	FLAT:__unwindfunclet$??0CPythonApplication@@QAE@XZ$12
	DD	0cH
	DD	FLAT:__unwindfunclet$??0CPythonApplication@@QAE@XZ$13
	DD	0dH
	DD	FLAT:__unwindfunclet$??0CPythonApplication@@QAE@XZ$14
	DD	0eH
	DD	FLAT:__unwindfunclet$??0CPythonApplication@@QAE@XZ$15
	DD	0fH
	DD	FLAT:__unwindfunclet$??0CPythonApplication@@QAE@XZ$16
	DD	010H
	DD	FLAT:__unwindfunclet$??0CPythonApplication@@QAE@XZ$17
	DD	011H
	DD	FLAT:__unwindfunclet$??0CPythonApplication@@QAE@XZ$18
	DD	012H
	DD	FLAT:__unwindfunclet$??0CPythonApplication@@QAE@XZ$19
	DD	013H
	DD	FLAT:__unwindfunclet$??0CPythonApplication@@QAE@XZ$20
	DD	014H
	DD	FLAT:__unwindfunclet$??0CPythonApplication@@QAE@XZ$21
	DD	015H
	DD	FLAT:__unwindfunclet$??0CPythonApplication@@QAE@XZ$22
	DD	016H
	DD	FLAT:__unwindfunclet$??0CPythonApplication@@QAE@XZ$23
	DD	017H
	DD	FLAT:__unwindfunclet$??0CPythonApplication@@QAE@XZ$24
	DD	018H
	DD	FLAT:__unwindfunclet$??0CPythonApplication@@QAE@XZ$25
	DD	019H
	DD	FLAT:__unwindfunclet$??0CPythonApplication@@QAE@XZ$26
	DD	01aH
	DD	FLAT:__unwindfunclet$??0CPythonApplication@@QAE@XZ$27
	DD	01bH
	DD	FLAT:__unwindfunclet$??0CPythonApplication@@QAE@XZ$28
	DD	01cH
	DD	FLAT:__unwindfunclet$??0CPythonApplication@@QAE@XZ$29
	DD	01dH
	DD	FLAT:__unwindfunclet$??0CPythonApplication@@QAE@XZ$30
	DD	01eH
	DD	FLAT:__unwindfunclet$??0CPythonApplication@@QAE@XZ$31
	DD	01fH
	DD	FLAT:__unwindfunclet$??0CPythonApplication@@QAE@XZ$32
	DD	020H
	DD	FLAT:__unwindfunclet$??0CPythonApplication@@QAE@XZ$33
	DD	021H
	DD	FLAT:__unwindfunclet$??0CPythonApplication@@QAE@XZ$34
	DD	022H
	DD	FLAT:__unwindfunclet$??0CPythonApplication@@QAE@XZ$35
	DD	023H
	DD	FLAT:__unwindfunclet$??0CPythonApplication@@QAE@XZ$36
	DD	024H
	DD	FLAT:__unwindfunclet$??0CPythonApplication@@QAE@XZ$37
	DD	025H
	DD	FLAT:__unwindfunclet$??0CPythonApplication@@QAE@XZ$38
	DD	026H
	DD	FLAT:__unwindfunclet$??0CPythonApplication@@QAE@XZ$39
	DD	027H
	DD	FLAT:__unwindfunclet$??0CPythonApplication@@QAE@XZ$40
	DD	028H
	DD	FLAT:__unwindfunclet$??0CPythonApplication@@QAE@XZ$41
	DD	029H
	DD	FLAT:__unwindfunclet$??0CPythonApplication@@QAE@XZ$42
xdata$x	ENDS
;	COMDAT xdata$x
xdata$x	SEGMENT
__ehfuncinfo$?UpdateGame@CPythonApplication@@QAEXXZ DD 019930522H
	DD	01H
	DD	FLAT:__unwindtable$?UpdateGame@CPythonApplication@@QAEXXZ
	DD	2 DUP(00H)
	DD	2 DUP(00H)
	DD	00H
	DD	01H
__unwindtable$?UpdateGame@CPythonApplication@@QAEXXZ DD 0ffffffffH
	DD	FLAT:__unwindfunclet$?UpdateGame@CPythonApplication@@QAEXXZ$0
xdata$x	ENDS
;	COMDAT xdata$x
xdata$x	SEGMENT
__ehfuncinfo$?Process@CPythonApplication@@QAE_NXZ DD 019930522H
	DD	02H
	DD	FLAT:__unwindtable$?Process@CPythonApplication@@QAE_NXZ
	DD	2 DUP(00H)
	DD	2 DUP(00H)
	DD	00H
	DD	01H
__unwindtable$?Process@CPythonApplication@@QAE_NXZ DD 0ffffffffH
	DD	FLAT:__unwindfunclet$?Process@CPythonApplication@@QAE_NXZ$0
	DD	0ffffffffH
	DD	FLAT:__unwindfunclet$?Process@CPythonApplication@@QAE_NXZ$1
; Function compile flags: /Ogtp
; File D:\_m2work\txoko-m2-work\txoko-client-src\source\gamelib\FlyingObjectManager.h
;	COMDAT ?SetMapManagerPtr@CFlyingManager@@QAEXPAVCMapManager@@@Z
_TEXT	SEGMENT
_pMapManager$ = 8					; size = 4
?SetMapManagerPtr@CFlyingManager@@QAEXPAVCMapManager@@@Z PROC ; CFlyingManager::SetMapManagerPtr, COMDAT
; _this$ = ecx

; 38   : 	void SetMapManagerPtr(CMapManager * pMapManager) { m_pMapManager = pMapManager; }

  00000	55		 push	 ebp
  00001	8b ec		 mov	 ebp, esp
  00003	8b 45 08	 mov	 eax, DWORD PTR _pMapManager$[ebp]
  00006	89 41 1c	 mov	 DWORD PTR [ecx+28], eax
  00009	5d		 pop	 ebp
  0000a	c2 04 00	 ret	 4
?SetMapManagerPtr@CFlyingManager@@QAEXPAVCMapManager@@@Z ENDP ; CFlyingManager::SetMapManagerPtr
_TEXT	ENDS
; Function compile flags: /Ogtp
; File D:\_m2work\txoko-m2-work\txoko-client-src\source\UserInterface\AbstractApplication.h
;	COMDAT ??0SCameraPos@IAbstractApplication@@QAE@XZ
_TEXT	SEGMENT
??0SCameraPos@IAbstractApplication@@QAE@XZ PROC		; IAbstractApplication::SCameraPos::SCameraPos, COMDAT
; _this$ = ecx

; 14   : 			SCameraPos() : m_fUpDir(0.0f), m_fViewDir(0.0f), m_fCrossDir(0.0f) {}

  00000	c7 01 00 00 00
	00		 mov	 DWORD PTR [ecx], 0
  00006	8b c1		 mov	 eax, ecx
  00008	c7 41 04 00 00
	00 00		 mov	 DWORD PTR [ecx+4], 0
  0000f	c7 41 08 00 00
	00 00		 mov	 DWORD PTR [ecx+8], 0
  00016	c3		 ret	 0
??0SCameraPos@IAbstractApplication@@QAE@XZ ENDP		; IAbstractApplication::SCameraPos::SCameraPos
_TEXT	ENDS
; Function compile flags: /Ogtp
; File D:\_m2work\txoko-m2-work\txoko-client-src\source\UserInterface\AbstractApplication.h
; File D:\_m2work\txoko-m2-work\txoko-client-src\extern\include\d3dx8math.inl
; File D:\_m2work\txoko-m2-work\txoko-client-src\source\UserInterface\AbstractApplication.h
; File D:\_m2work\txoko-m2-work\txoko-client-src\extern\include\d3dx8math.inl
; File D:\_m2work\txoko-m2-work\txoko-client-src\source\UserInterface\AbstractApplication.h
;	COMDAT ??0SCameraSetting@IAbstractApplication@@QAE@XZ
_TEXT	SEGMENT
??0SCameraSetting@IAbstractApplication@@QAE@XZ PROC	; IAbstractApplication::SCameraSetting::SCameraSetting, COMDAT
; _this$ = ecx
; File D:\_m2work\txoko-m2-work\txoko-client-src\extern\include\d3dx8math.inl

; 180  :     x = fx;

  00000	c7 01 00 00 00
	00		 mov	 DWORD PTR [ecx], 0
; File D:\_m2work\txoko-m2-work\txoko-client-src\source\UserInterface\AbstractApplication.h

; 28   : 								fZoom(0.0f) {}

  00006	8b c1		 mov	 eax, ecx
; File D:\_m2work\txoko-m2-work\txoko-client-src\extern\include\d3dx8math.inl

; 181  :     y = fy;

  00008	c7 41 04 00 00
	00 00		 mov	 DWORD PTR [ecx+4], 0

; 182  :     z = fz;

  0000f	c7 41 08 00 00
	00 00		 mov	 DWORD PTR [ecx+8], 0
; File D:\_m2work\txoko-m2-work\txoko-client-src\source\UserInterface\AbstractApplication.h

; 14   : 			SCameraPos() : m_fUpDir(0.0f), m_fViewDir(0.0f), m_fCrossDir(0.0f) {}

  00016	c7 41 0c 00 00
	00 00		 mov	 DWORD PTR [ecx+12], 0
  0001d	c7 41 10 00 00
	00 00		 mov	 DWORD PTR [ecx+16], 0
  00024	c7 41 14 00 00
	00 00		 mov	 DWORD PTR [ecx+20], 0

; 15   : 		};
; 16   : 
; 17   : 		struct SCameraSetting
; 18   : 		{
; 19   : 			D3DXVECTOR3				v3CenterPosition;
; 20   : 			SCameraPos				kCmrPos;
; 21   : 			float					fRotation;
; 22   : 			float					fPitch;
; 23   : 			float					fZoom;
; 24   : 
; 25   : 			SCameraSetting() :	v3CenterPosition(0.0f, 0.0f, 0.0f),
; 26   : 								fRotation(0.0f),

  0002b	c7 41 18 00 00
	00 00		 mov	 DWORD PTR [ecx+24], 0

; 27   : 								fPitch(0.0f),

  00032	c7 41 1c 00 00
	00 00		 mov	 DWORD PTR [ecx+28], 0

; 28   : 								fZoom(0.0f) {}

  00039	c7 41 20 00 00
	00 00		 mov	 DWORD PTR [ecx+32], 0
  00040	c3		 ret	 0
??0SCameraSetting@IAbstractApplication@@QAE@XZ ENDP	; IAbstractApplication::SCameraSetting::SCameraSetting
_TEXT	ENDS
; Function compile flags: /Ogtp
; File D:\_m2work\txoko-m2-work\txoko-client-src\source\UserInterface\AbstractApplication.h
; File D:\_m2work\txoko-m2-work\txoko-client-src\source\UserInterface\AbstractSingleton.h
; File D:\_m2work\txoko-m2-work\txoko-client-src\source\UserInterface\AbstractApplication.h
;	COMDAT ??0IAbstractApplication@@QAE@XZ
_TEXT	SEGMENT
??0IAbstractApplication@@QAE@XZ PROC			; IAbstractApplication::IAbstractApplication, COMDAT
; _this$ = ecx
; File D:\_m2work\txoko-m2-work\txoko-client-src\source\UserInterface\AbstractSingleton.h

; 13   : 		ms_singleton = (T*) ((int) this + offset);

  00000	89 0d 00 00 00
	00		 mov	 DWORD PTR ?ms_singleton@?$TAbstractSingleton@VIAbstractApplication@@@@0PAVIAbstractApplication@@A, ecx ; TAbstractSingleton<IAbstractApplication>::ms_singleton
; File D:\_m2work\txoko-m2-work\txoko-client-src\source\UserInterface\AbstractApplication.h

; 32   : 		IAbstractApplication() {}

  00006	8b c1		 mov	 eax, ecx
  00008	c7 01 00 00 00
	00		 mov	 DWORD PTR [ecx], OFFSET ??_7IAbstractApplication@@6B@
  0000e	c3		 ret	 0
??0IAbstractApplication@@QAE@XZ ENDP			; IAbstractApplication::IAbstractApplication
_TEXT	ENDS
; Function compile flags: /Ogtp
; File D:\_m2work\txoko-m2-work\txoko-client-src\source\UserInterface\AbstractApplication.h
; File D:\_m2work\txoko-m2-work\txoko-client-src\source\UserInterface\AbstractSingleton.h
; File D:\_m2work\txoko-m2-work\txoko-client-src\source\UserInterface\AbstractApplication.h
;	COMDAT ??1IAbstractApplication@@UAE@XZ
_TEXT	SEGMENT
??1IAbstractApplication@@UAE@XZ PROC			; IAbstractApplication::~IAbstractApplication, COMDAT
; _this$ = ecx
; File D:\_m2work\txoko-m2-work\txoko-client-src\source\UserInterface\AbstractSingleton.h

; 17   : 	{ 

  00000	c7 01 00 00 00
	00		 mov	 DWORD PTR [ecx], OFFSET ??_7?$TAbstractSingleton@VIAbstractApplication@@@@6B@

; 18   : 		assert(ms_singleton);
; 19   : 		ms_singleton = 0; 

  00006	c7 05 00 00 00
	00 00 00 00 00	 mov	 DWORD PTR ?ms_singleton@?$TAbstractSingleton@VIAbstractApplication@@@@0PAVIAbstractApplication@@A, 0 ; TAbstractSingleton<IAbstractApplication>::ms_singleton
; File D:\_m2work\txoko-m2-work\txoko-client-src\source\UserInterface\AbstractApplication.h

; 33   : 		virtual ~IAbstractApplication() {}

  00010	c3		 ret	 0
??1IAbstractApplication@@UAE@XZ ENDP			; IAbstractApplication::~IAbstractApplication
_TEXT	ENDS
; Function compile flags: /Ogtp
; File D:\_m2work\txoko-m2-work\txoko-client-src\source\UserInterface\AbstractSingleton.h
;	COMDAT ??_GIAbstractApplication@@UAEPAXI@Z
_TEXT	SEGMENT
___flags$ = 8						; size = 4
??_GIAbstractApplication@@UAEPAXI@Z PROC		; IAbstractApplication::`scalar deleting destructor', COMDAT
; _this$ = ecx
  00000	55		 push	 ebp
  00001	8b ec		 mov	 ebp, esp
  00003	f6 45 08 01	 test	 BYTE PTR ___flags$[ebp], 1

; 17   : 	{ 

  00007	56		 push	 esi
  00008	8b f1		 mov	 esi, ecx

; 18   : 		assert(ms_singleton);
; 19   : 		ms_singleton = 0; 

  0000a	c7 05 00 00 00
	00 00 00 00 00	 mov	 DWORD PTR ?ms_singleton@?$TAbstractSingleton@VIAbstractApplication@@@@0PAVIAbstractApplication@@A, 0 ; TAbstractSingleton<IAbstractApplication>::ms_singleton
  00014	c7 06 00 00 00
	00		 mov	 DWORD PTR [esi], OFFSET ??_7?$TAbstractSingleton@VIAbstractApplication@@@@6B@
  0001a	74 0b		 je	 SHORT $LN13@scalar
  0001c	6a 04		 push	 4
  0001e	56		 push	 esi
  0001f	e8 00 00 00 00	 call	 ??3@YAXPAXI@Z		; operator delete
  00024	83 c4 08	 add	 esp, 8
$LN13@scalar:
  00027	8b c6		 mov	 eax, esi
  00029	5e		 pop	 esi
  0002a	5d		 pop	 ebp
  0002b	c2 04 00	 ret	 4
??_GIAbstractApplication@@UAEPAXI@Z ENDP		; IAbstractApplication::`scalar deleting destructor'
_TEXT	ENDS
; Function compile flags: /Ogtp
; File D:\_m2work\txoko-m2-work\txoko-client-src\source\UserInterface\MovieMan.h
; File D:\_m2work\txoko-m2-work\txoko-client-src\source\eterBase\Singleton.h
; File D:\_m2work\txoko-m2-work\txoko-client-src\source\UserInterface\MovieMan.h
;	COMDAT ??0CMovieMan@@QAE@XZ
_TEXT	SEGMENT
??0CMovieMan@@QAE@XZ PROC				; CMovieMan::CMovieMan, COMDAT
; _this$ = ecx

; 31   : 	{

  00000	56		 push	 esi
  00001	8b f1		 mov	 esi, ecx

; 32   : 		CoInitialize(NULL);

  00003	6a 00		 push	 0
; File D:\_m2work\txoko-m2-work\txoko-client-src\source\eterBase\Singleton.h

; 15   : 		ms_singleton = (T*) ((int) this + offset);

  00005	89 35 00 00 00
	00		 mov	 DWORD PTR ?ms_singleton@?$CSingleton@VCMovieMan@@@@0PAVCMovieMan@@A, esi ; CSingleton<CMovieMan>::ms_singleton
; File D:\_m2work\txoko-m2-work\txoko-client-src\source\UserInterface\MovieMan.h

; 31   : 	{

  0000b	c7 06 00 00 00
	00		 mov	 DWORD PTR [esi], OFFSET ??_7CMovieMan@@6B@
  00011	c6 46 04 00	 mov	 BYTE PTR [esi+4], 0
  00015	c7 46 08 00 00
	00 00		 mov	 DWORD PTR [esi+8], 0
  0001c	c7 46 0c 00 00
	00 00		 mov	 DWORD PTR [esi+12], 0
  00023	c7 46 20 00 00
	00 00		 mov	 DWORD PTR [esi+32], 0
  0002a	c7 46 24 00 00
	00 00		 mov	 DWORD PTR [esi+36], 0

; 32   : 		CoInitialize(NULL);

  00031	ff 15 00 00 00
	00		 call	 DWORD PTR __imp__CoInitialize@4

; 33   : 	};

  00037	8b c6		 mov	 eax, esi
  00039	5e		 pop	 esi
  0003a	c3		 ret	 0
??0CMovieMan@@QAE@XZ ENDP				; CMovieMan::CMovieMan
_TEXT	ENDS
; Function compile flags: /Ogtp
; File D:\_m2work\txoko-m2-work\txoko-client-src\source\UserInterface\MovieMan.h
; File D:\_m2work\txoko-m2-work\txoko-client-src\source\eterBase\Singleton.h
; File D:\_m2work\txoko-m2-work\txoko-client-src\source\UserInterface\MovieMan.h
;	COMDAT ??1CMovieMan@@UAE@XZ
_TEXT	SEGMENT
??1CMovieMan@@UAE@XZ PROC				; CMovieMan::~CMovieMan, COMDAT
; _this$ = ecx

; 36   : 	{

  00000	56		 push	 esi
  00001	8b f1		 mov	 esi, ecx
  00003	c7 06 00 00 00
	00		 mov	 DWORD PTR [esi], OFFSET ??_7CMovieMan@@6B@

; 37   : 		CoUninitialize();

  00009	ff 15 00 00 00
	00		 call	 DWORD PTR __imp__CoUninitialize@0
; File D:\_m2work\txoko-m2-work\txoko-client-src\source\eterBase\Singleton.h

; 19   : 	{ 

  0000f	c7 06 00 00 00
	00		 mov	 DWORD PTR [esi], OFFSET ??_7?$CSingleton@VCMovieMan@@@@6B@

; 20   : 		assert(ms_singleton);
; 21   : 		ms_singleton = 0; 

  00015	c7 05 00 00 00
	00 00 00 00 00	 mov	 DWORD PTR ?ms_singleton@?$CSingleton@VCMovieMan@@@@0PAVCMovieMan@@A, 0 ; CSingleton<CMovieMan>::ms_singleton
  0001f	5e		 pop	 esi
; File D:\_m2work\txoko-m2-work\txoko-client-src\source\UserInterface\MovieMan.h

; 38   : 	};

  00020	c3		 ret	 0
??1CMovieMan@@UAE@XZ ENDP				; CMovieMan::~CMovieMan
_TEXT	ENDS
; Function compile flags: /Ogtp
; File D:\_m2work\txoko-m2-work\txoko-client-src\source\UserInterface\MovieMan.h
; File D:\_m2work\txoko-m2-work\txoko-client-src\source\eterBase\Singleton.h
;	COMDAT ??_GCMovieMan@@UAEPAXI@Z
_TEXT	SEGMENT
___flags$ = 8						; size = 4
??_GCMovieMan@@UAEPAXI@Z PROC				; CMovieMan::`scalar deleting destructor', COMDAT
; _this$ = ecx
  00000	55		 push	 ebp
  00001	8b ec		 mov	 ebp, esp
; File D:\_m2work\txoko-m2-work\txoko-client-src\source\UserInterface\MovieMan.h

; 36   : 	{

  00003	56		 push	 esi
  00004	8b f1		 mov	 esi, ecx
  00006	c7 06 00 00 00
	00		 mov	 DWORD PTR [esi], OFFSET ??_7CMovieMan@@6B@

; 37   : 		CoUninitialize();

  0000c	ff 15 00 00 00
	00		 call	 DWORD PTR __imp__CoUninitialize@0
  00012	f6 45 08 01	 test	 BYTE PTR ___flags$[ebp], 1
; File D:\_m2work\txoko-m2-work\txoko-client-src\source\eterBase\Singleton.h

; 19   : 	{ 

  00016	c7 06 00 00 00
	00		 mov	 DWORD PTR [esi], OFFSET ??_7?$CSingleton@VCMovieMan@@@@6B@

; 20   : 		assert(ms_singleton);
; 21   : 		ms_singleton = 0; 

  0001c	c7 05 00 00 00
	00 00 00 00 00	 mov	 DWORD PTR ?ms_singleton@?$CSingleton@VCMovieMan@@@@0PAVCMovieMan@@A, 0 ; CSingleton<CMovieMan>::ms_singleton
  00026	74 0b		 je	 SHORT $LN13@scalar
  00028	6a 28		 push	 40			; 00000028H
  0002a	56		 push	 esi
  0002b	e8 00 00 00 00	 call	 ??3@YAXPAXI@Z		; operator delete
  00030	83 c4 08	 add	 esp, 8
$LN13@scalar:
  00033	8b c6		 mov	 eax, esi
  00035	5e		 pop	 esi
  00036	5d		 pop	 ebp
  00037	c2 04 00	 ret	 4
??_GCMovieMan@@UAEPAXI@Z ENDP				; CMovieMan::`scalar deleting destructor'
_TEXT	ENDS
; Function compile flags: /Ogtp
; File D:\_m2work\txoko-m2-work\txoko-client-src\source\UserInterface\PythonApplication.h
;	COMDAT ??0SCameraSpeed@CPythonApplication@@QAE@XZ
_TEXT	SEGMENT
??0SCameraSpeed@CPythonApplication@@QAE@XZ PROC		; CPythonApplication::SCameraSpeed::SCameraSpeed, COMDAT
; _this$ = ecx

; 121  : 			SCameraSpeed() : m_fUpDir(0.0f), m_fViewDir(0.0f), m_fCrossDir(0.0f) {}

  00000	c7 01 00 00 00
	00		 mov	 DWORD PTR [ecx], 0
  00006	8b c1		 mov	 eax, ecx
  00008	c7 41 04 00 00
	00 00		 mov	 DWORD PTR [ecx+4], 0
  0000f	c7 41 08 00 00
	00 00		 mov	 DWORD PTR [ecx+8], 0
  00016	c3		 ret	 0
??0SCameraSpeed@CPythonApplication@@QAE@XZ ENDP		; CPythonApplication::SCameraSpeed::SCameraSpeed
_TEXT	ENDS
; Function compile flags: /Ogtp
; File D:\_m2work\txoko-m2-work\txoko-client-src\source\UserInterface\PythonApplication.cpp
; File D:\_m2work\txoko-m2-work\txoko-client-src\source\UserInterface\AbstractSingleton.h
; File D:\_m2work\txoko-m2-work\txoko-client-src\source\UserInterface\PythonApplication.cpp
; File D:\_m2work\txoko-m2-work\txoko-client-src\source\UserInterface\MovieMan.h
; File D:\_m2work\txoko-m2-work\txoko-client-src\source\eterBase\Singleton.h
; File D:\_m2work\txoko-m2-work\txoko-client-src\source\UserInterface\MovieMan.h
; File D:\_m2work\txoko-m2-work\txoko-client-src\source\UserInterface\PythonApplication.cpp
; File D:\_m2work\txoko-m2-work\txoko-client-src\extern\include\d3dx8math.inl
; File D:\_m2work\txoko-m2-work\txoko-client-src\source\UserInterface\AbstractApplication.h
; File D:\_m2work\txoko-m2-work\txoko-client-src\extern\include\d3dx8math.inl
; File D:\_m2work\txoko-m2-work\txoko-client-src\source\UserInterface\AbstractApplication.h
; File D:\_m2work\txoko-m2-work\txoko-client-src\extern\include\d3dx8math.inl
; File D:\_m2work\txoko-m2-work\txoko-client-src\source\UserInterface\AbstractApplication.h
; File D:\_m2work\txoko-m2-work\txoko-client-src\source\UserInterface\PythonApplication.h
; File D:\_m2work\txoko-m2-work\txoko-client-src\source\UserInterface\PythonApplication.cpp
; File C:\Program Files\Microsoft Visual Studio\2022\Community\VC\Tools\MSVC\14.44.35207\include\xmemory
; File D:\_m2work\txoko-m2-work\txoko-client-src\source\UserInterface\PythonApplication.cpp
; File C:\Program Files\Microsoft Visual Studio\2022\Community\VC\Tools\MSVC\14.44.35207\include\xtree
; File C:\Program Files\Microsoft Visual Studio\2022\Community\VC\Tools\MSVC\14.44.35207\include\xmemory
; File C:\Program Files\Microsoft Visual Studio\2022\Community\VC\Tools\MSVC\14.44.35207\include\xtree
; File D:\_m2work\txoko-m2-work\txoko-client-src\source\UserInterface\PythonApplication.cpp
; File C:\Program Files\Microsoft Visual Studio\2022\Community\VC\Tools\MSVC\14.44.35207\include\xstring
; File D:\_m2work\txoko-m2-work\txoko-client-src\source\UserInterface\PythonApplication.cpp
;	COMDAT ??0CPythonApplication@@QAE@XZ
_TEXT	SEGMENT
_this$ = -24						; size = 4
_this$ = -20						; size = 4
_this$1$ = -16						; size = 4
__$EHRec$ = -12						; size = 12
??0CPythonApplication@@QAE@XZ PROC			; CPythonApplication::CPythonApplication, COMDAT
; _this$ = ecx

; 47   : {

  00000	55		 push	 ebp
  00001	8b ec		 mov	 ebp, esp
  00003	6a ff		 push	 -1
  00005	68 00 00 00 00	 push	 __ehhandler$??0CPythonApplication@@QAE@XZ
  0000a	64 a1 00 00 00
	00		 mov	 eax, DWORD PTR fs:0
  00010	50		 push	 eax
  00011	83 ec 0c	 sub	 esp, 12			; 0000000cH
  00014	56		 push	 esi
  00015	57		 push	 edi
  00016	a1 00 00 00 00	 mov	 eax, DWORD PTR ___security_cookie
  0001b	33 c5		 xor	 eax, ebp
  0001d	50		 push	 eax
  0001e	8d 45 f4	 lea	 eax, DWORD PTR __$EHRec$[ebp]
  00021	64 a3 00 00 00
	00		 mov	 DWORD PTR fs:0, eax
  00027	8b f9		 mov	 edi, ecx
  00029	89 7d f0	 mov	 DWORD PTR _this$1$[ebp], edi
  0002c	89 7d ec	 mov	 DWORD PTR _this$[ebp], edi
  0002f	e8 00 00 00 00	 call	 ??0CMSApplication@@QAE@XZ ; CMSApplication::CMSApplication
  00034	8d 4f 1c	 lea	 ecx, DWORD PTR [edi+28]
  00037	c7 45 fc 00 00
	00 00		 mov	 DWORD PTR __$EHRec$[ebp+8], 0
  0003e	e8 00 00 00 00	 call	 ??0CInputKeyboard@@QAE@XZ ; CInputKeyboard::CInputKeyboard
  00043	8d 47 20	 lea	 eax, DWORD PTR [edi+32]
; File D:\_m2work\txoko-m2-work\txoko-client-src\source\UserInterface\AbstractSingleton.h

; 13   : 		ms_singleton = (T*) ((int) this + offset);

  00046	a3 00 00 00 00	 mov	 DWORD PTR ?ms_singleton@?$TAbstractSingleton@VIAbstractApplication@@@@0PAVIAbstractApplication@@A, eax ; TAbstractSingleton<IAbstractApplication>::ms_singleton
; File D:\_m2work\txoko-m2-work\txoko-client-src\source\UserInterface\PythonApplication.cpp

; 47   : {

  0004b	8b f7		 mov	 esi, edi
  0004d	c6 45 fc 02	 mov	 BYTE PTR __$EHRec$[ebp+8], 2
  00051	c7 07 00 00 00
	00		 mov	 DWORD PTR [edi], OFFSET ??_7CPythonApplication@@6BCMSApplication@@@
  00057	c7 47 1c 00 00
	00 00		 mov	 DWORD PTR [edi+28], OFFSET ??_7CPythonApplication@@6BCInputKeyboard@@@
  0005e	c7 00 00 00 00
	00		 mov	 DWORD PTR [eax], OFFSET ??_7CPythonApplication@@6BIAbstractApplication@@@
  00064	8d 4e 60	 lea	 ecx, DWORD PTR [esi+96]
  00067	e8 00 00 00 00	 call	 ??0CTimer@@QAE@XZ	; CTimer::CTimer
  0006c	8d 4e 7c	 lea	 ecx, DWORD PTR [esi+124]
  0006f	c6 45 fc 03	 mov	 BYTE PTR __$EHRec$[ebp+8], 3
  00073	e8 00 00 00 00	 call	 ??0CLightManager@@QAE@XZ ; CLightManager::CLightManager
  00078	8d 8e e8 00 00
	00		 lea	 ecx, DWORD PTR [esi+232]
  0007e	c6 45 fc 04	 mov	 BYTE PTR __$EHRec$[ebp+8], 4
  00082	e8 00 00 00 00	 call	 ??0CSoundManager@@QAE@XZ ; CSoundManager::CSoundManager
  00087	8d 8e 5c 01 00
	00		 lea	 ecx, DWORD PTR [esi+348]
  0008d	c6 45 fc 05	 mov	 BYTE PTR __$EHRec$[ebp+8], 5
  00091	e8 00 00 00 00	 call	 ??0CFlyingManager@@QAE@XZ ; CFlyingManager::CFlyingManager
  00096	8d 8e 80 01 00
	00		 lea	 ecx, DWORD PTR [esi+384]
  0009c	c6 45 fc 06	 mov	 BYTE PTR __$EHRec$[ebp+8], 6
  000a0	e8 00 00 00 00	 call	 ??0CRaceManager@@QAE@XZ	; CRaceManager::CRaceManager
  000a5	8d 8e b8 01 00
	00		 lea	 ecx, DWORD PTR [esi+440]
  000ab	c6 45 fc 07	 mov	 BYTE PTR __$EHRec$[ebp+8], 7
  000af	e8 00 00 00 00	 call	 ??0CGameEventManager@@QAE@XZ ; CGameEventManager::CGameEventManager
  000b4	8d 8e cc 01 00
	00		 lea	 ecx, DWORD PTR [esi+460]
  000ba	c6 45 fc 08	 mov	 BYTE PTR __$EHRec$[ebp+8], 8
  000be	e8 00 00 00 00	 call	 ??0CItemManager@@QAE@XZ	; CItemManager::CItemManager
  000c3	8d 86 e8 01 00
	00		 lea	 eax, DWORD PTR [esi+488]
; File D:\_m2work\txoko-m2-work\txoko-client-src\source\UserInterface\MovieMan.h

; 31   : 	{

  000c9	c7 00 00 00 00
	00		 mov	 DWORD PTR [eax], OFFSET ??_7CMovieMan@@6B@

; 32   : 		CoInitialize(NULL);

  000cf	6a 00		 push	 0
; File D:\_m2work\txoko-m2-work\txoko-client-src\source\eterBase\Singleton.h

; 15   : 		ms_singleton = (T*) ((int) this + offset);

  000d1	a3 00 00 00 00	 mov	 DWORD PTR ?ms_singleton@?$CSingleton@VCMovieMan@@@@0PAVCMovieMan@@A, eax ; CSingleton<CMovieMan>::ms_singleton
; File D:\_m2work\txoko-m2-work\txoko-client-src\source\UserInterface\MovieMan.h

; 28   : 		  m_usingRGB32(false),

  000d6	c6 40 04 00	 mov	 BYTE PTR [eax+4], 0
  000da	c7 40 08 00 00
	00 00		 mov	 DWORD PTR [eax+8], 0
  000e1	c7 40 0c 00 00
	00 00		 mov	 DWORD PTR [eax+12], 0

; 29   : 		  m_pPrimarySurface(NULL),

  000e8	c7 40 20 00 00
	00 00		 mov	 DWORD PTR [eax+32], 0

; 30   : 		  m_pBasicAudio(NULL)

  000ef	c7 40 24 00 00
	00 00		 mov	 DWORD PTR [eax+36], 0

; 32   : 		CoInitialize(NULL);

  000f6	ff 15 00 00 00
	00		 call	 DWORD PTR __imp__CoInitialize@4
; File D:\_m2work\txoko-m2-work\txoko-client-src\source\UserInterface\PythonApplication.cpp

; 47   : {

  000fc	8d 8e 10 02 00
	00		 lea	 ecx, DWORD PTR [esi+528]
  00102	c6 45 fc 0a	 mov	 BYTE PTR __$EHRec$[ebp+8], 10 ; 0000000aH
  00106	e8 00 00 00 00	 call	 ??0CWindowManager@UI@@QAE@XZ ; UI::CWindowManager::CWindowManager
  0010b	8d 8e b0 02 00
	00		 lea	 ecx, DWORD PTR [esi+688]
  00111	c6 45 fc 0b	 mov	 BYTE PTR __$EHRec$[ebp+8], 11 ; 0000000bH
  00115	e8 00 00 00 00	 call	 ??0CEffectManager@@QAE@XZ ; CEffectManager::CEffectManager
  0011a	8d 8e d8 02 00
	00		 lea	 ecx, DWORD PTR [esi+728]
  00120	c6 45 fc 0c	 mov	 BYTE PTR __$EHRec$[ebp+8], 12 ; 0000000cH
  00124	e8 00 00 00 00	 call	 ??0CPythonCharacterManager@@QAE@XZ ; CPythonCharacterManager::CPythonCharacterManager
  00129	8d 8e 10 07 00
	00		 lea	 ecx, DWORD PTR [esi+1808]
  0012f	c6 45 fc 0d	 mov	 BYTE PTR __$EHRec$[ebp+8], 13 ; 0000000dH
  00133	e8 00 00 00 00	 call	 ??0CServerStateChecker@@QAE@XZ ; CServerStateChecker::CServerStateChecker
  00138	8d 8e 9c 07 00
	00		 lea	 ecx, DWORD PTR [esi+1948]
  0013e	c6 45 fc 0e	 mov	 BYTE PTR __$EHRec$[ebp+8], 14 ; 0000000eH
  00142	e8 00 00 00 00	 call	 ??0CPythonGraphic@@QAE@XZ ; CPythonGraphic::CPythonGraphic
  00147	8d 8e 40 08 00
	00		 lea	 ecx, DWORD PTR [esi+2112]
  0014d	c6 45 fc 0f	 mov	 BYTE PTR __$EHRec$[ebp+8], 15 ; 0000000fH
  00151	e8 00 00 00 00	 call	 ??0CPythonNetworkStream@@QAE@XZ ; CPythonNetworkStream::CPythonNetworkStream
  00156	8d 8e 90 81 00
	00		 lea	 ecx, DWORD PTR [esi+33168]
  0015c	c6 45 fc 10	 mov	 BYTE PTR __$EHRec$[ebp+8], 16 ; 00000010H
  00160	e8 00 00 00 00	 call	 ??0CPythonPlayer@@QAE@XZ ; CPythonPlayer::CPythonPlayer
  00165	c6 45 fc 11	 mov	 BYTE PTR __$EHRec$[ebp+8], 17 ; 00000011H
  00169	8d 8e e0 89 01
	00		 lea	 ecx, DWORD PTR [esi+100832]
  0016f	e8 00 00 00 00	 call	 ??0CPythonIME@@QAE@XZ	; CPythonIME::CPythonIME
  00174	8d 8e 0c 92 01
	00		 lea	 ecx, DWORD PTR [esi+102924]
  0017a	c6 45 fc 12	 mov	 BYTE PTR __$EHRec$[ebp+8], 18 ; 00000012H
  0017e	e8 00 00 00 00	 call	 ??0CPythonItem@@QAE@XZ	; CPythonItem::CPythonItem
  00183	8d 8e 18 93 01
	00		 lea	 ecx, DWORD PTR [esi+103192]
  00189	c6 45 fc 13	 mov	 BYTE PTR __$EHRec$[ebp+8], 19 ; 00000013H
  0018d	e8 00 00 00 00	 call	 ??0CPythonShop@@QAE@XZ	; CPythonShop::CPythonShop
  00192	8d 8e b0 a7 01
	00		 lea	 ecx, DWORD PTR [esi+108464]
  00198	e8 00 00 00 00	 call	 ??0CPythonExchange@@QAE@XZ ; CPythonExchange::CPythonExchange
  0019d	8d 8e 90 ab 01
	00		 lea	 ecx, DWORD PTR [esi+109456]
  001a3	c6 45 fc 15	 mov	 BYTE PTR __$EHRec$[ebp+8], 21 ; 00000015H
  001a7	e8 00 00 00 00	 call	 ??0CPythonChat@@QAE@XZ	; CPythonChat::CPythonChat
  001ac	8d 8e 64 ac 01
	00		 lea	 ecx, DWORD PTR [esi+109668]
  001b2	c6 45 fc 16	 mov	 BYTE PTR __$EHRec$[ebp+8], 22 ; 00000016H
  001b6	e8 00 00 00 00	 call	 ??0CPythonTextTail@@QAE@XZ ; CPythonTextTail::CPythonTextTail
  001bb	8d 8e b4 ac 01
	00		 lea	 ecx, DWORD PTR [esi+109748]
  001c1	c6 45 fc 17	 mov	 BYTE PTR __$EHRec$[ebp+8], 23 ; 00000017H
  001c5	e8 00 00 00 00	 call	 ??0CPythonNonPlayer@@QAE@XZ ; CPythonNonPlayer::CPythonNonPlayer
  001ca	8d 8e c0 ac 01
	00		 lea	 ecx, DWORD PTR [esi+109760]
  001d0	c6 45 fc 18	 mov	 BYTE PTR __$EHRec$[ebp+8], 24 ; 00000018H
  001d4	e8 00 00 00 00	 call	 ??0CPythonMiniMap@@QAE@XZ ; CPythonMiniMap::CPythonMiniMap
  001d9	8d 8e f8 b8 01
	00		 lea	 ecx, DWORD PTR [esi+112888]
  001df	c6 45 fc 19	 mov	 BYTE PTR __$EHRec$[ebp+8], 25 ; 00000019H
  001e3	e8 00 00 00 00	 call	 ??0CPythonEventManager@@QAE@XZ ; CPythonEventManager::CPythonEventManager
  001e8	8d be 78 b9 01
	00		 lea	 edi, DWORD PTR [esi+113016]
  001ee	c6 45 fc 1a	 mov	 BYTE PTR __$EHRec$[ebp+8], 26 ; 0000001aH
  001f2	8b cf		 mov	 ecx, edi
  001f4	e8 00 00 00 00	 call	 ??0CPythonBackground@@QAE@XZ ; CPythonBackground::CPythonBackground
  001f9	8d 8e 98 cf 01
	00		 lea	 ecx, DWORD PTR [esi+118680]
  001ff	c6 45 fc 1b	 mov	 BYTE PTR __$EHRec$[ebp+8], 27 ; 0000001bH
  00203	e8 00 00 00 00	 call	 ??0CPythonSkill@@QAE@XZ	; CPythonSkill::CPythonSkill
  00208	8d 8e e4 cf 01
	00		 lea	 ecx, DWORD PTR [esi+118756]
  0020e	c6 45 fc 1c	 mov	 BYTE PTR __$EHRec$[ebp+8], 28 ; 0000001cH
  00212	e8 00 00 00 00	 call	 ??0CPythonResource@@QAE@XZ ; CPythonResource::CPythonResource
  00217	8d 8e 2c d0 01
	00		 lea	 ecx, DWORD PTR [esi+118828]
  0021d	e8 00 00 00 00	 call	 ??0CPythonQuest@@QAE@XZ	; CPythonQuest::CPythonQuest
  00222	8d 8e 3c d0 01
	00		 lea	 ecx, DWORD PTR [esi+118844]
  00228	c6 45 fc 1e	 mov	 BYTE PTR __$EHRec$[ebp+8], 30 ; 0000001eH
  0022c	e8 00 00 00 00	 call	 ??0CPythonMessenger@@QAE@XZ ; CPythonMessenger::CPythonMessenger
  00231	8d 8e 54 d0 01
	00		 lea	 ecx, DWORD PTR [esi+118868]
  00237	e8 00 00 00 00	 call	 ??0CPythonSafeBox@@QAE@XZ ; CPythonSafeBox::CPythonSafeBox
  0023c	8d 8e 74 d0 01
	00		 lea	 ecx, DWORD PTR [esi+118900]
  00242	c6 45 fc 20	 mov	 BYTE PTR __$EHRec$[ebp+8], 32 ; 00000020H
  00246	e8 00 00 00 00	 call	 ??0CPythonGuild@@QAE@XZ	; CPythonGuild::CPythonGuild
  0024b	8d 8e 0c d1 01
	00		 lea	 ecx, DWORD PTR [esi+119052]
  00251	c6 45 fc 21	 mov	 BYTE PTR __$EHRec$[ebp+8], 33 ; 00000021H
  00255	e8 00 00 00 00	 call	 ??0CGuildMarkManager@@QAE@XZ ; CGuildMarkManager::CGuildMarkManager
  0025a	8d 8e 48 d1 01
	00		 lea	 ecx, DWORD PTR [esi+119112]
  00260	c6 45 fc 22	 mov	 BYTE PTR __$EHRec$[ebp+8], 34 ; 00000022H
  00264	e8 00 00 00 00	 call	 ??0CGuildMarkDownloader@@QAE@XZ ; CGuildMarkDownloader::CGuildMarkDownloader
  00269	8d 8e f8 d1 01
	00		 lea	 ecx, DWORD PTR [esi+119288]
  0026f	c6 45 fc 23	 mov	 BYTE PTR __$EHRec$[ebp+8], 35 ; 00000023H
  00273	e8 00 00 00 00	 call	 ??0CGuildMarkUploader@@QAE@XZ ; CGuildMarkUploader::CGuildMarkUploader
  00278	8d 8e 98 d5 01
	00		 lea	 ecx, DWORD PTR [esi+120216]
  0027e	c6 45 fc 24	 mov	 BYTE PTR __$EHRec$[ebp+8], 36 ; 00000024H
  00282	e8 00 00 00 00	 call	 ??0CAccountConnector@@QAE@XZ ; CAccountConnector::CAccountConnector
  00287	8d 8e 70 d6 01
	00		 lea	 ecx, DWORD PTR [esi+120432]
  0028d	c6 45 fc 25	 mov	 BYTE PTR __$EHRec$[ebp+8], 37 ; 00000025H
  00291	e8 00 00 00 00	 call	 ??0CGraphicDevice@@QAE@XZ ; CGraphicDevice::CGraphicDevice
  00296	8d 8e 84 d6 01
	00		 lea	 ecx, DWORD PTR [esi+120452]
  0029c	c6 45 fc 26	 mov	 BYTE PTR __$EHRec$[ebp+8], 38 ; 00000026H
  002a0	e8 00 00 00 00	 call	 ??0CNetworkDevice@@QAE@XZ ; CNetworkDevice::CNetworkDevice
  002a5	8d 8e 8c d6 01
	00		 lea	 ecx, DWORD PTR [esi+120460]
  002ab	c6 45 fc 27	 mov	 BYTE PTR __$EHRec$[ebp+8], 39 ; 00000027H
  002af	e8 00 00 00 00	 call	 ??0CPythonSystem@@QAE@XZ ; CPythonSystem::CPythonSystem
  002b4	c6 45 fc 28	 mov	 BYTE PTR __$EHRec$[ebp+8], 40 ; 00000028H

; 37   : m_isFrameSkipDisable(false),
; 38   : m_poMouseHandler(NULL),

  002b8	c7 86 7c fd 01
	00 00 00 00 00	 mov	 DWORD PTR [esi+130428], 0

; 41   : m_fAveRenderTime(0.0f),

  002c2	c7 86 90 fd 01
	00 00 00 00 00	 mov	 DWORD PTR [esi+130448], 0

; 46   : m_dwLastIdleTime(0)

  002cc	c7 86 a8 fd 01
	00 00 00 00 00	 mov	 DWORD PTR [esi+130472], 0

; 43   : m_fGlobalTime(0.0f),

  002d6	c7 86 b8 fd 01
	00 00 00 00 00	 mov	 DWORD PTR [esi+130488], 0

; 44   : m_fGlobalElapsedTime(0.0f),

  002e0	c7 86 bc fd 01
	00 00 00 00 00	 mov	 DWORD PTR [esi+130492], 0
; File D:\_m2work\txoko-m2-work\txoko-client-src\extern\include\d3dx8math.inl

; 180  :     x = fx;

  002ea	c7 86 c0 fd 01
	00 00 00 00 00	 mov	 DWORD PTR [esi+130496], 0

; 181  :     y = fy;

  002f4	c7 86 c4 fd 01
	00 00 00 00 00	 mov	 DWORD PTR [esi+130500], 0

; 182  :     z = fz;

  002fe	c7 86 c8 fd 01
	00 00 00 00 00	 mov	 DWORD PTR [esi+130504], 0
; File D:\_m2work\txoko-m2-work\txoko-client-src\source\UserInterface\AbstractApplication.h

; 14   : 			SCameraPos() : m_fUpDir(0.0f), m_fViewDir(0.0f), m_fCrossDir(0.0f) {}

  00308	c7 86 cc fd 01
	00 00 00 00 00	 mov	 DWORD PTR [esi+130508], 0
  00312	c7 86 d0 fd 01
	00 00 00 00 00	 mov	 DWORD PTR [esi+130512], 0
  0031c	c7 86 d4 fd 01
	00 00 00 00 00	 mov	 DWORD PTR [esi+130516], 0

; 26   : 								fRotation(0.0f),

  00326	c7 86 d8 fd 01
	00 00 00 00 00	 mov	 DWORD PTR [esi+130520], 0

; 27   : 								fPitch(0.0f),

  00330	c7 86 dc fd 01
	00 00 00 00 00	 mov	 DWORD PTR [esi+130524], 0

; 28   : 								fZoom(0.0f) {}

  0033a	c7 86 e0 fd 01
	00 00 00 00 00	 mov	 DWORD PTR [esi+130528], 0
; File D:\_m2work\txoko-m2-work\txoko-client-src\extern\include\d3dx8math.inl

; 180  :     x = fx;

  00344	c7 86 e4 fd 01
	00 00 00 00 00	 mov	 DWORD PTR [esi+130532], 0

; 181  :     y = fy;

  0034e	c7 86 e8 fd 01
	00 00 00 00 00	 mov	 DWORD PTR [esi+130536], 0

; 182  :     z = fz;

  00358	c7 86 ec fd 01
	00 00 00 00 00	 mov	 DWORD PTR [esi+130540], 0
; File D:\_m2work\txoko-m2-work\txoko-client-src\source\UserInterface\AbstractApplication.h

; 14   : 			SCameraPos() : m_fUpDir(0.0f), m_fViewDir(0.0f), m_fCrossDir(0.0f) {}

  00362	c7 86 f0 fd 01
	00 00 00 00 00	 mov	 DWORD PTR [esi+130544], 0
  0036c	c7 86 f4 fd 01
	00 00 00 00 00	 mov	 DWORD PTR [esi+130548], 0
  00376	c7 86 f8 fd 01
	00 00 00 00 00	 mov	 DWORD PTR [esi+130552], 0

; 26   : 								fRotation(0.0f),

  00380	c7 86 fc fd 01
	00 00 00 00 00	 mov	 DWORD PTR [esi+130556], 0

; 27   : 								fPitch(0.0f),

  0038a	c7 86 00 fe 01
	00 00 00 00 00	 mov	 DWORD PTR [esi+130560], 0

; 28   : 								fZoom(0.0f) {}

  00394	c7 86 04 fe 01
	00 00 00 00 00	 mov	 DWORD PTR [esi+130564], 0
; File D:\_m2work\txoko-m2-work\txoko-client-src\extern\include\d3dx8math.inl

; 180  :     x = fx;

  0039e	c7 86 14 fe 01
	00 00 00 00 00	 mov	 DWORD PTR [esi+130580], 0

; 181  :     y = fy;

  003a8	c7 86 18 fe 01
	00 00 00 00 00	 mov	 DWORD PTR [esi+130584], 0

; 182  :     z = fz;

  003b2	c7 86 1c fe 01
	00 00 00 00 00	 mov	 DWORD PTR [esi+130588], 0
; File D:\_m2work\txoko-m2-work\txoko-client-src\source\UserInterface\AbstractApplication.h

; 14   : 			SCameraPos() : m_fUpDir(0.0f), m_fViewDir(0.0f), m_fCrossDir(0.0f) {}

  003bc	c7 86 20 fe 01
	00 00 00 00 00	 mov	 DWORD PTR [esi+130592], 0
  003c6	c7 86 24 fe 01
	00 00 00 00 00	 mov	 DWORD PTR [esi+130596], 0
  003d0	c7 86 28 fe 01
	00 00 00 00 00	 mov	 DWORD PTR [esi+130600], 0

; 26   : 								fRotation(0.0f),

  003da	c7 86 2c fe 01
	00 00 00 00 00	 mov	 DWORD PTR [esi+130604], 0

; 27   : 								fPitch(0.0f),

  003e4	c7 86 30 fe 01
	00 00 00 00 00	 mov	 DWORD PTR [esi+130608], 0

; 28   : 								fZoom(0.0f) {}

  003ee	c7 86 34 fe 01
	00 00 00 00 00	 mov	 DWORD PTR [esi+130612], 0

; 14   : 			SCameraPos() : m_fUpDir(0.0f), m_fViewDir(0.0f), m_fCrossDir(0.0f) {}

  003f8	c7 86 50 fe 01
	00 00 00 00 00	 mov	 DWORD PTR [esi+130640], 0
  00402	c7 86 54 fe 01
	00 00 00 00 00	 mov	 DWORD PTR [esi+130644], 0
  0040c	c7 86 58 fe 01
	00 00 00 00 00	 mov	 DWORD PTR [esi+130648], 0
; File D:\_m2work\txoko-m2-work\txoko-client-src\source\UserInterface\PythonApplication.h

; 121  : 			SCameraSpeed() : m_fUpDir(0.0f), m_fViewDir(0.0f), m_fCrossDir(0.0f) {}

  00416	c7 86 5c fe 01
	00 00 00 00 00	 mov	 DWORD PTR [esi+130652], 0
  00420	c7 86 60 fe 01
	00 00 00 00 00	 mov	 DWORD PTR [esi+130656], 0
  0042a	c7 86 64 fe 01
	00 00 00 00 00	 mov	 DWORD PTR [esi+130660], 0
; File D:\_m2work\txoko-m2-work\txoko-client-src\source\UserInterface\PythonApplication.cpp

; 39   : m_dwUpdateFPS(0),

  00434	c7 86 80 fe 01
	00 00 00 00 00	 mov	 DWORD PTR [esi+130688], 0

; 40   : m_dwRenderFPS(0),

  0043e	c7 86 84 fe 01
	00 00 00 00 00	 mov	 DWORD PTR [esi+130692], 0

; 42   : m_dwFaceCount(0),

  00448	c7 86 88 fe 01
	00 00 00 00 00	 mov	 DWORD PTR [esi+130696], 0

; 45   : m_dwLButtonDownTime(0),

  00452	c7 86 8c fe 01
	00 00 00 00 00	 mov	 DWORD PTR [esi+130700], 0

; 47   : {

  0045c	81 c6 94 fe 01
	00		 add	 esi, 130708		; 0001fe94H
; File C:\Program Files\Microsoft Visual Studio\2022\Community\VC\Tools\MSVC\14.44.35207\include\xmemory

; 136  :         return ::operator new(_Bytes);

  00462	6a 18		 push	 24			; 00000018H
; File D:\_m2work\txoko-m2-work\txoko-client-src\source\UserInterface\PythonApplication.cpp

; 47   : {

  00464	89 75 e8	 mov	 DWORD PTR _this$[ebp], esi
; File C:\Program Files\Microsoft Visual Studio\2022\Community\VC\Tools\MSVC\14.44.35207\include\xtree

; 450  :     _Tree_val() noexcept : _Myhead(), _Mysize(0) {}

  00467	c7 06 00 00 00
	00		 mov	 DWORD PTR [esi], 0
  0046d	c7 46 04 00 00
	00 00		 mov	 DWORD PTR [esi+4], 0
; File C:\Program Files\Microsoft Visual Studio\2022\Community\VC\Tools\MSVC\14.44.35207\include\xmemory

; 136  :         return ::operator new(_Bytes);

  00474	e8 00 00 00 00	 call	 ??2@YAPAXI@Z		; operator new
  00479	83 c4 04	 add	 esp, 4
; File C:\Program Files\Microsoft Visual Studio\2022\Community\VC\Tools\MSVC\14.44.35207\include\xtree

; 346  :         _Construct_in_place(_Pnode->_Left, _Pnode);

  0047c	89 00		 mov	 DWORD PTR [eax], eax

; 347  :         _Construct_in_place(_Pnode->_Parent, _Pnode);

  0047e	89 40 04	 mov	 DWORD PTR [eax+4], eax

; 348  :         _Construct_in_place(_Pnode->_Right, _Pnode);

  00481	89 40 08	 mov	 DWORD PTR [eax+8], eax

; 349  :         _Pnode->_Color = _Black;

  00484	66 c7 40 0c 01
	01		 mov	 WORD PTR [eax+12], 257	; 00000101H

; 1957 :         _Scary->_Myhead = _Node::_Buyheadnode(_Getal());

  0048a	89 06		 mov	 DWORD PTR [esi], eax
; File D:\_m2work\txoko-m2-work\txoko-client-src\source\UserInterface\PythonApplication.cpp

; 33   : m_bCursorVisible(TRUE),

  0048c	8b 75 f0	 mov	 esi, DWORD PTR _this$1$[ebp]
  0048f	0f 57 c0	 xorps	 xmm0, xmm0
  00492	c7 86 a0 fe 01
	00 01 00 00 00	 mov	 DWORD PTR [esi+130720], 1

; 34   : m_bLiarCursorOn(false),

  0049c	c6 86 a4 fe 01
	00 00		 mov	 BYTE PTR [esi+130724], 0

; 35   : m_iCursorMode(CURSOR_MODE_HARDWARE),

  004a3	c7 86 a8 fe 01
	00 00 00 00 00	 mov	 DWORD PTR [esi+130728], 0

; 36   : m_isWindowed(false),

  004ad	66 c7 86 ac fe
	01 00 00 00	 mov	 WORD PTR [esi+130732], 0
; File C:\Program Files\Microsoft Visual Studio\2022\Community\VC\Tools\MSVC\14.44.35207\include\xstring

; 493  :         _CONSTEXPR20 _Bxty() noexcept : _Buf() {} // user-provided, for fancy pointers

  004b6	0f 11 86 b0 fe
	01 00		 movups	 XMMWORD PTR [esi+130736], xmm0

; 860  :         _My_data._Mysize = 0;

  004bd	c7 86 c0 fe 01
	00 00 00 00 00	 mov	 DWORD PTR [esi+130752], 0

; 861  :         _My_data._Myres  = _Small_string_capacity;

  004c7	c7 86 c4 fe 01
	00 0f 00 00 00	 mov	 DWORD PTR [esi+130756], 15 ; 0000000fH

; 862  :         _My_data._Activate_SSO_buffer();
; 863  : 
; 864  :         // the _Traits::assign is last so the codegen doesn't think the char write can alias this
; 865  :         _Traits::assign(_My_data._Bx._Buf[0], _Elem());

  004d1	c6 86 b0 fe 01
	00 00		 mov	 BYTE PTR [esi+130736], 0
; File D:\_m2work\txoko-m2-work\txoko-client-src\source\UserInterface\PythonApplication.cpp

; 47   : {

  004d8	c6 45 fc 2a	 mov	 BYTE PTR __$EHRec$[ebp+8], 42 ; 0000002aH

; 48   : #ifndef _DEBUG
; 49   : 	SetEterExceptionHandler();

  004dc	e8 00 00 00 00	 call	 ?SetEterExceptionHandler@@YAXXZ ; SetEterExceptionHandler

; 50   : #endif
; 51   : 
; 52   : 	CTimer::Instance().UseCustomTime();

  004e1	8b 0d 00 00 00
	00		 mov	 ecx, DWORD PTR ?ms_singleton@?$CSingleton@VCTimer@@@@0PAVCTimer@@A ; CSingleton<CTimer>::ms_singleton
  004e7	e8 00 00 00 00	 call	 ?UseCustomTime@CTimer@@QAEXXZ ; CTimer::UseCustomTime

; 53   : 	m_dwWidth = 800;

  004ec	c7 86 a0 fd 01
	00 20 03 00 00	 mov	 DWORD PTR [esi+130464], 800 ; 00000320H

; 54   : 	m_dwHeight = 600;

  004f6	c7 86 a4 fd 01
	00 58 02 00 00	 mov	 DWORD PTR [esi+130468], 600 ; 00000258H

; 55   : 
; 56   : 	ms_pInstance = this;

  00500	89 35 00 00 00
	00		 mov	 DWORD PTR ?ms_pInstance@CPythonApplication@@1PAV1@A, esi ; CPythonApplication::ms_pInstance

; 57   : 	m_isWindowFullScreenEnable = FALSE;

  00506	c7 86 d0 fe 01
	00 00 00 00 00	 mov	 DWORD PTR [esi+130768], 0

; 58   : 
; 59   : 	m_v3CenterPosition = D3DXVECTOR3(0.0f, 0.0f, 0.0f);

  00510	c7 86 80 fd 01
	00 00 00 00 00	 mov	 DWORD PTR [esi+130432], 0
  0051a	c7 86 84 fd 01
	00 00 00 00 00	 mov	 DWORD PTR [esi+130436], 0
  00524	c7 86 88 fd 01
	00 00 00 00 00	 mov	 DWORD PTR [esi+130440], 0

; 60   : 	m_dwStartLocalTime = ELTimer_GetMSec();

  0052e	e8 00 00 00 00	 call	 ?ELTimer_GetMSec@@YAKXZ	; ELTimer_GetMSec
  00533	89 86 ac fd 01
	00		 mov	 DWORD PTR [esi+130476], eax

; 61   : 	m_tServerTime = 0;

  00539	c7 86 b0 fd 01
	00 00 00 00 00	 mov	 DWORD PTR [esi+130480], 0

; 62   : 	m_tLocalStartTime = 0;

  00543	c7 86 b4 fd 01
	00 00 00 00 00	 mov	 DWORD PTR [esi+130484], 0

; 63   : 
; 64   : 	m_iPort = 0;

  0054d	c7 86 c8 fe 01
	00 00 00 00 00	 mov	 DWORD PTR [esi+130760], 0

; 65   : 	m_iFPS = 60;

  00557	c7 86 8c fd 01
	00 3c 00 00 00	 mov	 DWORD PTR [esi+130444], 60 ; 0000003cH

; 66   : 
; 67   : 	m_isActivateWnd = false;
; 68   : 	m_isMinimizedWnd = true;

  00561	66 c7 86 cc fe
	01 00 01 00	 mov	 WORD PTR [esi+130764], 1

; 69   : 
; 70   : 	m_fRotationSpeed = 0.0f;

  0056a	c7 86 38 fe 01
	00 00 00 00 00	 mov	 DWORD PTR [esi+130616], 0

; 71   : 	m_fPitchSpeed = 0.0f;

  00574	c7 86 3c fe 01
	00 00 00 00 00	 mov	 DWORD PTR [esi+130620], 0

; 72   : 	m_fZoomSpeed = 0.0f;

  0057e	c7 86 40 fe 01
	00 00 00 00 00	 mov	 DWORD PTR [esi+130624], 0

; 73   : 
; 74   : 	m_fFaceSpd=0.0f;

  00588	c7 86 6c fe 01
	00 00 00 00 00	 mov	 DWORD PTR [esi+130668], 0

; 75   : 
; 76   : 	m_dwFaceAccCount=0;

  00592	c7 86 78 fe 01
	00 00 00 00 00	 mov	 DWORD PTR [esi+130680], 0

; 77   : 	m_dwFaceAccTime=0;

  0059c	c7 86 7c fe 01
	00 00 00 00 00	 mov	 DWORD PTR [esi+130684], 0

; 78   : 
; 79   : 	m_dwFaceSpdSum=0;

  005a6	c7 86 70 fe 01
	00 00 00 00 00	 mov	 DWORD PTR [esi+130672], 0

; 80   : 	m_dwFaceSpdCount=0;

  005b0	c7 86 74 fe 01
	00 00 00 00 00	 mov	 DWORD PTR [esi+130676], 0

; 81   : 
; 82   : 	m_FlyingManager.SetMapManagerPtr(&m_pyBackground);

  005ba	89 be 78 01 00
	00		 mov	 DWORD PTR [esi+376], edi

; 83   : 
; 84   : 	m_iCursorNum = CURSOR_SHAPE_NORMAL;

  005c0	c7 86 e0 fe 01
	00 00 00 00 00	 mov	 DWORD PTR [esi+130784], 0

; 85   : 	m_iContinuousCursorNum = CURSOR_SHAPE_NORMAL;

  005ca	c7 86 e4 fe 01
	00 00 00 00 00	 mov	 DWORD PTR [esi+130788], 0

; 86   : 
; 87   : 	m_isSpecialCameraMode = FALSE;

  005d4	c7 86 68 fe 01
	00 00 00 00 00	 mov	 DWORD PTR [esi+130664], 0

; 88   : 	m_fCameraRotateSpeed = c_fDefaultCameraRotateSpeed;

  005de	c7 86 44 fe 01
	00 00 00 c0 3f	 mov	 DWORD PTR [esi+130628], 1069547520 ; 3fc00000H

; 89   : 	m_fCameraPitchSpeed = c_fDefaultCameraPitchSpeed;

  005e8	c7 86 48 fe 01
	00 00 00 c0 3f	 mov	 DWORD PTR [esi+130632], 1069547520 ; 3fc00000H

; 90   : 	m_fCameraZoomSpeed = c_fDefaultCameraZoomSpeed;

  005f2	c7 86 4c fe 01
	00 cd cc 4c 3d	 mov	 DWORD PTR [esi+130636], 1028443341 ; 3d4ccccdH

; 91   : 
; 92   : 	m_iCameraMode = CAMERA_MODE_NORMAL;

  005fc	c7 86 08 fe 01
	00 00 00 00 00	 mov	 DWORD PTR [esi+130568], 0

; 93   : 	m_fBlendCameraStartTime = 0.0f;

  00606	c7 86 0c fe 01
	00 00 00 00 00	 mov	 DWORD PTR [esi+130572], 0

; 94   : 	m_fBlendCameraBlendTime = 0.0f;

  00610	c7 86 10 fe 01
	00 00 00 00 00	 mov	 DWORD PTR [esi+130576], 0

; 95   : 
; 96   : 	m_iForceSightRange = -1;

  0061a	c7 86 dc fe 01
	00 ff ff ff ff	 mov	 DWORD PTR [esi+130780], -1

; 97   : 
; 98   : 	CCameraManager::Instance().AddCamera(EVENT_CAMERA_NUMBER);

  00624	8b 0d 00 00 00
	00		 mov	 ecx, DWORD PTR ?ms_singleton@?$CSingleton@VCCameraManager@@@@0PAVCCameraManager@@A ; CSingleton<CCameraManager>::ms_singleton
  0062a	6a 65		 push	 101			; 00000065H
  0062c	e8 00 00 00 00	 call	 ?AddCamera@CCameraManager@@QAE_NE@Z ; CCameraManager::AddCamera

; 99   : }

  00631	8b c6		 mov	 eax, esi
  00633	8b 4d f4	 mov	 ecx, DWORD PTR __$EHRec$[ebp]
  00636	64 89 0d 00 00
	00 00		 mov	 DWORD PTR fs:0, ecx
  0063d	59		 pop	 ecx
  0063e	5f		 pop	 edi
  0063f	5e		 pop	 esi
  00640	8b e5		 mov	 esp, ebp
  00642	5d		 pop	 ebp
  00643	c3		 ret	 0
_TEXT	ENDS
;	COMDAT text$x
text$x	SEGMENT
__unwindfunclet$??0CPythonApplication@@QAE@XZ$0:
  00000	8b 4d ec	 mov	 ecx, DWORD PTR _this$[ebp]
  00003	e9 00 00 00 00	 jmp	 ??1CMSApplication@@UAE@XZ ; CMSApplication::~CMSApplication
__unwindfunclet$??0CPythonApplication@@QAE@XZ$1:
  00008	8b 4d ec	 mov	 ecx, DWORD PTR _this$[ebp]
  0000b	83 c1 1c	 add	 ecx, 28			; 0000001cH
  0000e	e9 00 00 00 00	 jmp	 ??1CInputKeyboard@@UAE@XZ ; CInputKeyboard::~CInputKeyboard
__unwindfunclet$??0CPythonApplication@@QAE@XZ$2:
  00013	8b 4d ec	 mov	 ecx, DWORD PTR _this$[ebp]
  00016	83 c1 20	 add	 ecx, 32			; 00000020H
  00019	e9 00 00 00 00	 jmp	 ??1IAbstractApplication@@UAE@XZ ; IAbstractApplication::~IAbstractApplication
__unwindfunclet$??0CPythonApplication@@QAE@XZ$3:
  0001e	8b 4d ec	 mov	 ecx, DWORD PTR _this$[ebp]
  00021	83 c1 60	 add	 ecx, 96			; 00000060H
  00024	e9 00 00 00 00	 jmp	 ??1CTimer@@UAE@XZ	; CTimer::~CTimer
__unwindfunclet$??0CPythonApplication@@QAE@XZ$4:
  00029	8b 4d ec	 mov	 ecx, DWORD PTR _this$[ebp]
  0002c	83 c1 7c	 add	 ecx, 124		; 0000007cH
  0002f	e9 00 00 00 00	 jmp	 ??1CLightManager@@UAE@XZ ; CLightManager::~CLightManager
__unwindfunclet$??0CPythonApplication@@QAE@XZ$5:
  00034	8b 4d ec	 mov	 ecx, DWORD PTR _this$[ebp]
  00037	81 c1 e8 00 00
	00		 add	 ecx, 232		; 000000e8H
  0003d	e9 00 00 00 00	 jmp	 ??1CSoundManager@@UAE@XZ ; CSoundManager::~CSoundManager
__unwindfunclet$??0CPythonApplication@@QAE@XZ$6:
  00042	8b 4d ec	 mov	 ecx, DWORD PTR _this$[ebp]
  00045	81 c1 5c 01 00
	00		 add	 ecx, 348		; 0000015cH
  0004b	e9 00 00 00 00	 jmp	 ??1CFlyingManager@@UAE@XZ ; CFlyingManager::~CFlyingManager
__unwindfunclet$??0CPythonApplication@@QAE@XZ$7:
  00050	8b 4d ec	 mov	 ecx, DWORD PTR _this$[ebp]
  00053	81 c1 80 01 00
	00		 add	 ecx, 384		; 00000180H
  00059	e9 00 00 00 00	 jmp	 ??1CRaceManager@@UAE@XZ	; CRaceManager::~CRaceManager
__unwindfunclet$??0CPythonApplication@@QAE@XZ$8:
  0005e	8b 4d ec	 mov	 ecx, DWORD PTR _this$[ebp]
  00061	81 c1 b8 01 00
	00		 add	 ecx, 440		; 000001b8H
  00067	e9 00 00 00 00	 jmp	 ??1CGameEventManager@@UAE@XZ ; CGameEventManager::~CGameEventManager
__unwindfunclet$??0CPythonApplication@@QAE@XZ$9:
  0006c	8b 4d ec	 mov	 ecx, DWORD PTR _this$[ebp]
  0006f	81 c1 cc 01 00
	00		 add	 ecx, 460		; 000001ccH
  00075	e9 00 00 00 00	 jmp	 ??1CItemManager@@UAE@XZ	; CItemManager::~CItemManager
__unwindfunclet$??0CPythonApplication@@QAE@XZ$10:
  0007a	8b 4d ec	 mov	 ecx, DWORD PTR _this$[ebp]
  0007d	81 c1 e8 01 00
	00		 add	 ecx, 488		; 000001e8H
  00083	e9 00 00 00 00	 jmp	 ??1CMovieMan@@UAE@XZ	; CMovieMan::~CMovieMan
__unwindfunclet$??0CPythonApplication@@QAE@XZ$11:
  00088	8b 4d ec	 mov	 ecx, DWORD PTR _this$[ebp]
  0008b	81 c1 10 02 00
	00		 add	 ecx, 528		; 00000210H
  00091	e9 00 00 00 00	 jmp	 ??1CWindowManager@UI@@UAE@XZ ; UI::CWindowManager::~CWindowManager
__unwindfunclet$??0CPythonApplication@@QAE@XZ$12:
  00096	8b 4d ec	 mov	 ecx, DWORD PTR _this$[ebp]
  00099	81 c1 b0 02 00
	00		 add	 ecx, 688		; 000002b0H
  0009f	e9 00 00 00 00	 jmp	 ??1CEffectManager@@UAE@XZ ; CEffectManager::~CEffectManager
__unwindfunclet$??0CPythonApplication@@QAE@XZ$13:
  000a4	8b 4d ec	 mov	 ecx, DWORD PTR _this$[ebp]
  000a7	81 c1 d8 02 00
	00		 add	 ecx, 728		; 000002d8H
  000ad	e9 00 00 00 00	 jmp	 ??1CPythonCharacterManager@@UAE@XZ ; CPythonCharacterManager::~CPythonCharacterManager
__unwindfunclet$??0CPythonApplication@@QAE@XZ$14:
  000b2	8b 4d ec	 mov	 ecx, DWORD PTR _this$[ebp]
  000b5	81 c1 10 07 00
	00		 add	 ecx, 1808		; 00000710H
  000bb	e9 00 00 00 00	 jmp	 ??1CServerStateChecker@@UAE@XZ ; CServerStateChecker::~CServerStateChecker
__unwindfunclet$??0CPythonApplication@@QAE@XZ$15:
  000c0	8b 4d ec	 mov	 ecx, DWORD PTR _this$[ebp]
  000c3	81 c1 9c 07 00
	00		 add	 ecx, 1948		; 0000079cH
  000c9	e9 00 00 00 00	 jmp	 ??1CPythonGraphic@@UAE@XZ ; CPythonGraphic::~CPythonGraphic
__unwindfunclet$??0CPythonApplication@@QAE@XZ$16:
  000ce	8b 4d ec	 mov	 ecx, DWORD PTR _this$[ebp]
  000d1	81 c1 40 08 00
	00		 add	 ecx, 2112		; 00000840H
  000d7	e9 00 00 00 00	 jmp	 ??1CPythonNetworkStream@@UAE@XZ ; CPythonNetworkStream::~CPythonNetworkStream
__unwindfunclet$??0CPythonApplication@@QAE@XZ$17:
  000dc	8b 4d ec	 mov	 ecx, DWORD PTR _this$[ebp]
  000df	81 c1 90 81 00
	00		 add	 ecx, 33168		; 00008190H
  000e5	e9 00 00 00 00	 jmp	 ??1CPythonPlayer@@UAE@XZ ; CPythonPlayer::~CPythonPlayer
__unwindfunclet$??0CPythonApplication@@QAE@XZ$18:
  000ea	8b 4d ec	 mov	 ecx, DWORD PTR _this$[ebp]
  000ed	81 c1 e0 89 01
	00		 add	 ecx, 100832		; 000189e0H
  000f3	e9 00 00 00 00	 jmp	 ??1CPythonIME@@UAE@XZ	; CPythonIME::~CPythonIME
__unwindfunclet$??0CPythonApplication@@QAE@XZ$19:
  000f8	8b 4d ec	 mov	 ecx, DWORD PTR _this$[ebp]
  000fb	81 c1 0c 92 01
	00		 add	 ecx, 102924		; 0001920cH
  00101	e9 00 00 00 00	 jmp	 ??1CPythonItem@@UAE@XZ	; CPythonItem::~CPythonItem
__unwindfunclet$??0CPythonApplication@@QAE@XZ$20:
  00106	8b 4d ec	 mov	 ecx, DWORD PTR _this$[ebp]
  00109	81 c1 18 93 01
	00		 add	 ecx, 103192		; 00019318H
  0010f	e9 00 00 00 00	 jmp	 ??1CPythonShop@@UAE@XZ	; CPythonShop::~CPythonShop
__unwindfunclet$??0CPythonApplication@@QAE@XZ$21:
  00114	8b 4d ec	 mov	 ecx, DWORD PTR _this$[ebp]
  00117	81 c1 b0 a7 01
	00		 add	 ecx, 108464		; 0001a7b0H
  0011d	e9 00 00 00 00	 jmp	 ??1CPythonExchange@@UAE@XZ ; CPythonExchange::~CPythonExchange
__unwindfunclet$??0CPythonApplication@@QAE@XZ$22:
  00122	8b 4d ec	 mov	 ecx, DWORD PTR _this$[ebp]
  00125	81 c1 90 ab 01
	00		 add	 ecx, 109456		; 0001ab90H
  0012b	e9 00 00 00 00	 jmp	 ??1CPythonChat@@UAE@XZ	; CPythonChat::~CPythonChat
__unwindfunclet$??0CPythonApplication@@QAE@XZ$23:
  00130	8b 4d ec	 mov	 ecx, DWORD PTR _this$[ebp]
  00133	81 c1 64 ac 01
	00		 add	 ecx, 109668		; 0001ac64H
  00139	e9 00 00 00 00	 jmp	 ??1CPythonTextTail@@UAE@XZ ; CPythonTextTail::~CPythonTextTail
__unwindfunclet$??0CPythonApplication@@QAE@XZ$24:
  0013e	8b 4d ec	 mov	 ecx, DWORD PTR _this$[ebp]
  00141	81 c1 b4 ac 01
	00		 add	 ecx, 109748		; 0001acb4H
  00147	e9 00 00 00 00	 jmp	 ??1CPythonNonPlayer@@UAE@XZ ; CPythonNonPlayer::~CPythonNonPlayer
__unwindfunclet$??0CPythonApplication@@QAE@XZ$25:
  0014c	8b 4d ec	 mov	 ecx, DWORD PTR _this$[ebp]
  0014f	81 c1 c0 ac 01
	00		 add	 ecx, 109760		; 0001acc0H
  00155	e9 00 00 00 00	 jmp	 ??1CPythonMiniMap@@UAE@XZ ; CPythonMiniMap::~CPythonMiniMap
__unwindfunclet$??0CPythonApplication@@QAE@XZ$26:
  0015a	8b 4d ec	 mov	 ecx, DWORD PTR _this$[ebp]
  0015d	81 c1 f8 b8 01
	00		 add	 ecx, 112888		; 0001b8f8H
  00163	e9 00 00 00 00	 jmp	 ??1CPythonEventManager@@UAE@XZ ; CPythonEventManager::~CPythonEventManager
__unwindfunclet$??0CPythonApplication@@QAE@XZ$27:
  00168	8b 4d ec	 mov	 ecx, DWORD PTR _this$[ebp]
  0016b	81 c1 78 b9 01
	00		 add	 ecx, 113016		; 0001b978H
  00171	e9 00 00 00 00	 jmp	 ??1CPythonBackground@@UAE@XZ ; CPythonBackground::~CPythonBackground
__unwindfunclet$??0CPythonApplication@@QAE@XZ$28:
  00176	8b 4d ec	 mov	 ecx, DWORD PTR _this$[ebp]
  00179	81 c1 98 cf 01
	00		 add	 ecx, 118680		; 0001cf98H
  0017f	e9 00 00 00 00	 jmp	 ??1CPythonSkill@@UAE@XZ	; CPythonSkill::~CPythonSkill
__unwindfunclet$??0CPythonApplication@@QAE@XZ$29:
  00184	8b 4d ec	 mov	 ecx, DWORD PTR _this$[ebp]
  00187	81 c1 e4 cf 01
	00		 add	 ecx, 118756		; 0001cfe4H
  0018d	e9 00 00 00 00	 jmp	 ??1CPythonResource@@UAE@XZ ; CPythonResource::~CPythonResource
__unwindfunclet$??0CPythonApplication@@QAE@XZ$30:
  00192	8b 4d ec	 mov	 ecx, DWORD PTR _this$[ebp]
  00195	81 c1 2c d0 01
	00		 add	 ecx, 118828		; 0001d02cH
  0019b	e9 00 00 00 00	 jmp	 ??1CPythonQuest@@UAE@XZ	; CPythonQuest::~CPythonQuest
__unwindfunclet$??0CPythonApplication@@QAE@XZ$31:
  001a0	8b 4d ec	 mov	 ecx, DWORD PTR _this$[ebp]
  001a3	81 c1 3c d0 01
	00		 add	 ecx, 118844		; 0001d03cH
  001a9	e9 00 00 00 00	 jmp	 ??1CPythonMessenger@@UAE@XZ ; CPythonMessenger::~CPythonMessenger
__unwindfunclet$??0CPythonApplication@@QAE@XZ$32:
  001ae	8b 4d ec	 mov	 ecx, DWORD PTR _this$[ebp]
  001b1	81 c1 54 d0 01
	00		 add	 ecx, 118868		; 0001d054H
  001b7	e9 00 00 00 00	 jmp	 ??1CPythonSafeBox@@UAE@XZ ; CPythonSafeBox::~CPythonSafeBox
__unwindfunclet$??0CPythonApplication@@QAE@XZ$33:
  001bc	8b 4d ec	 mov	 ecx, DWORD PTR _this$[ebp]
  001bf	81 c1 74 d0 01
	00		 add	 ecx, 118900		; 0001d074H
  001c5	e9 00 00 00 00	 jmp	 ??1CPythonGuild@@UAE@XZ	; CPythonGuild::~CPythonGuild
__unwindfunclet$??0CPythonApplication@@QAE@XZ$34:
  001ca	8b 4d ec	 mov	 ecx, DWORD PTR _this$[ebp]
  001cd	81 c1 0c d1 01
	00		 add	 ecx, 119052		; 0001d10cH
  001d3	e9 00 00 00 00	 jmp	 ??1CGuildMarkManager@@UAE@XZ ; CGuildMarkManager::~CGuildMarkManager
__unwindfunclet$??0CPythonApplication@@QAE@XZ$35:
  001d8	8b 4d ec	 mov	 ecx, DWORD PTR _this$[ebp]
  001db	81 c1 48 d1 01
	00		 add	 ecx, 119112		; 0001d148H
  001e1	e9 00 00 00 00	 jmp	 ??1CGuildMarkDownloader@@UAE@XZ ; CGuildMarkDownloader::~CGuildMarkDownloader
__unwindfunclet$??0CPythonApplication@@QAE@XZ$36:
  001e6	8b 4d ec	 mov	 ecx, DWORD PTR _this$[ebp]
  001e9	81 c1 f8 d1 01
	00		 add	 ecx, 119288		; 0001d1f8H
  001ef	e9 00 00 00 00	 jmp	 ??1CGuildMarkUploader@@UAE@XZ ; CGuildMarkUploader::~CGuildMarkUploader
__unwindfunclet$??0CPythonApplication@@QAE@XZ$37:
  001f4	8b 4d ec	 mov	 ecx, DWORD PTR _this$[ebp]
  001f7	81 c1 98 d5 01
	00		 add	 ecx, 120216		; 0001d598H
  001fd	e9 00 00 00 00	 jmp	 ??1CAccountConnector@@UAE@XZ ; CAccountConnector::~CAccountConnector
__unwindfunclet$??0CPythonApplication@@QAE@XZ$38:
  00202	8b 4d ec	 mov	 ecx, DWORD PTR _this$[ebp]
  00205	81 c1 70 d6 01
	00		 add	 ecx, 120432		; 0001d670H
  0020b	e9 00 00 00 00	 jmp	 ??1CGraphicDevice@@UAE@XZ ; CGraphicDevice::~CGraphicDevice
__unwindfunclet$??0CPythonApplication@@QAE@XZ$39:
  00210	8b 4d ec	 mov	 ecx, DWORD PTR _this$[ebp]
  00213	81 c1 84 d6 01
	00		 add	 ecx, 120452		; 0001d684H
  00219	e9 00 00 00 00	 jmp	 ??1CNetworkDevice@@UAE@XZ ; CNetworkDevice::~CNetworkDevice
__unwindfunclet$??0CPythonApplication@@QAE@XZ$40:
  0021e	8b 4d ec	 mov	 ecx, DWORD PTR _this$[ebp]
  00221	81 c1 8c d6 01
	00		 add	 ecx, 120460		; 0001d68cH
  00227	e9 00 00 00 00	 jmp	 ??1CPythonSystem@@UAE@XZ ; CPythonSystem::~CPythonSystem
__unwindfunclet$??0CPythonApplication@@QAE@XZ$41:
  0022c	8b 4d ec	 mov	 ecx, DWORD PTR _this$[ebp]
  0022f	81 c1 94 fe 01
	00		 add	 ecx, 130708		; 0001fe94H
  00235	e9 00 00 00 00	 jmp	 ??1?$map@HPAXU?$less@H@std@@V?$allocator@U?$pair@$$CBHPAX@std@@@2@@std@@QAE@XZ
__unwindfunclet$??0CPythonApplication@@QAE@XZ$42:
  0023a	8b 4d ec	 mov	 ecx, DWORD PTR _this$[ebp]
  0023d	81 c1 b0 fe 01
	00		 add	 ecx, 130736		; 0001feb0H
  00243	e9 00 00 00 00	 jmp	 ??1?$basic_string@DU?$char_traits@D@std@@V?$allocator@D@2@@std@@QAE@XZ ; std::basic_string<char,std::char_traits<char>,std::allocator<char> >::~basic_string<char,std::char_traits<char>,std::allocator<char> >
  00248	cc		 int	 3
  00249	cc		 int	 3
  0024a	cc		 int	 3
  0024b	cc		 int	 3
  0024c	cc		 int	 3
__ehhandler$??0CPythonApplication@@QAE@XZ:
  0024d	90		 npad	 1
  0024e	90		 npad	 1
  0024f	8b 54 24 08	 mov	 edx, DWORD PTR [esp+8]
  00253	8d 42 0c	 lea	 eax, DWORD PTR [edx+12]
  00256	8b 4a e8	 mov	 ecx, DWORD PTR [edx-24]
  00259	33 c8		 xor	 ecx, eax
  0025b	e8 00 00 00 00	 call	 @__security_check_cookie@4
  00260	b8 00 00 00 00	 mov	 eax, OFFSET __ehfuncinfo$??0CPythonApplication@@QAE@XZ
  00265	e9 00 00 00 00	 jmp	 ___CxxFrameHandler3
text$x	ENDS
??0CPythonApplication@@QAE@XZ ENDP			; CPythonApplication::CPythonApplication
; Function compile flags: /Ogtp
;	COMDAT ??_GCPythonApplication@@UAEPAXI@Z
_TEXT	SEGMENT
___flags$ = 8						; size = 4
??_GCPythonApplication@@UAEPAXI@Z PROC			; CPythonApplication::`scalar deleting destructor', COMDAT
; _this$ = ecx
  00000	55		 push	 ebp
  00001	8b ec		 mov	 ebp, esp
  00003	56		 push	 esi
  00004	8b f1		 mov	 esi, ecx
  00006	e8 00 00 00 00	 call	 ??1CPythonApplication@@UAE@XZ ; CPythonApplication::~CPythonApplication
  0000b	f6 45 08 01	 test	 BYTE PTR ___flags$[ebp], 1
  0000f	74 0e		 je	 SHORT $LN5@scalar
  00011	68 e8 fe 01 00	 push	 130792			; 0001fee8H
  00016	56		 push	 esi
  00017	e8 00 00 00 00	 call	 ??3@YAXPAXI@Z		; operator delete
  0001c	83 c4 08	 add	 esp, 8
$LN5@scalar:
  0001f	8b c6		 mov	 eax, esi
  00021	5e		 pop	 esi
  00022	5d		 pop	 ebp
  00023	c2 04 00	 ret	 4
??_GCPythonApplication@@UAEPAXI@Z ENDP			; CPythonApplication::`scalar deleting destructor'
_TEXT	ENDS
; Function compile flags: /Ogtp
; File C:\Program Files\Microsoft Visual Studio\2022\Community\VC\Tools\MSVC\14.44.35207\include\xtree
; File C:\Program Files\Microsoft Visual Studio\2022\Community\VC\Tools\MSVC\14.44.35207\include\xmemory
;	COMDAT ??1?$map@HPAXU?$less@H@std@@V?$allocator@U?$pair@$$CBHPAX@std@@@2@@std@@QAE@XZ
_TEXT	SEGMENT
??1?$map@HPAXU?$less@H@std@@V?$allocator@U?$pair@$$CBHPAX@std@@@2@@std@@QAE@XZ PROC ; std::map<int,void *,std::less<int>,std::allocator<std::pair<int const ,void *> > >::~map<int,void *,std::less<int>,std::allocator<std::pair<int const ,void *> > >, COMDAT
; _this$ = ecx
; File C:\Program Files\Microsoft Visual Studio\2022\Community\VC\Tools\MSVC\14.44.35207\include\xtree

; 777  :         _Erase_tree(_Al, _Myhead->_Parent);

  00000	56		 push	 esi
  00001	8b f1		 mov	 esi, ecx
  00003	8b 06		 mov	 eax, DWORD PTR [esi]
  00005	ff 70 04	 push	 DWORD PTR [eax+4]
  00008	56		 push	 esi
  00009	e8 00 00 00 00	 call	 ??$_Erase_tree@V?$allocator@U?$_Tree_node@U?$pair@$$CBHPAX@std@@PAX@std@@@std@@@?$_Tree_val@U?$_Tree_simple_types@U?$pair@$$CBHPAX@std@@@std@@@std@@QAEXAAV?$allocator@U?$_Tree_node@U?$pair@$$CBHPAX@std@@PAX@std@@@1@PAU?$_Tree_node@U?$pair@$$CBHPAX@std@@PAX@1@@Z ; std::_Tree_val<std::_Tree_simple_types<std::pair<int const ,void *> > >::_Erase_tree<std::allocator<std::_Tree_node<std::pair<int const ,void *>,void *> > >
; File C:\Program Files\Microsoft Visual Studio\2022\Community\VC\Tools\MSVC\14.44.35207\include\xmemory

; 289  :         ::operator delete(_Ptr, _Bytes);

  0000e	6a 18		 push	 24			; 00000018H
  00010	ff 36		 push	 DWORD PTR [esi]
  00012	e8 00 00 00 00	 call	 ??3@YAXPAXI@Z		; operator delete
  00017	83 c4 08	 add	 esp, 8
  0001a	5e		 pop	 esi
  0001b	c3		 ret	 0
??1?$map@HPAXU?$less@H@std@@V?$allocator@U?$pair@$$CBHPAX@std@@@2@@std@@QAE@XZ ENDP ; std::map<int,void *,std::less<int>,std::allocator<std::pair<int const ,void *> > >::~map<int,void *,std::less<int>,std::allocator<std::pair<int const ,void *> > >
_TEXT	ENDS
; Function compile flags: /Ogtp
; File D:\_m2work\txoko-m2-work\txoko-client-src\source\UserInterface\PythonApplication.cpp
; File C:\Program Files\Microsoft Visual Studio\2022\Community\VC\Tools\MSVC\14.44.35207\include\xstring
; File C:\Program Files\Microsoft Visual Studio\2022\Community\VC\Tools\MSVC\14.44.35207\include\xtree
; File D:\_m2work\txoko-m2-work\txoko-client-src\source\UserInterface\PythonApplication.cpp
; File C:\Program Files\Microsoft Visual Studio\2022\Community\VC\Tools\MSVC\14.44.35207\include\xtree
; File C:\Program Files\Microsoft Visual Studio\2022\Community\VC\Tools\MSVC\14.44.35207\include\xmemory
; File D:\_m2work\txoko-m2-work\txoko-client-src\source\UserInterface\PythonApplication.cpp
; File D:\_m2work\txoko-m2-work\txoko-client-src\source\UserInterface\MovieMan.h
; File D:\_m2work\txoko-m2-work\txoko-client-src\source\UserInterface\PythonApplication.cpp
; File D:\_m2work\txoko-m2-work\txoko-client-src\source\eterBase\Singleton.h
; File D:\_m2work\txoko-m2-work\txoko-client-src\source\UserInterface\PythonApplication.cpp
; File D:\_m2work\txoko-m2-work\txoko-client-src\source\UserInterface\AbstractSingleton.h
; File D:\_m2work\txoko-m2-work\txoko-client-src\source\UserInterface\PythonApplication.cpp
;	COMDAT ??1CPythonApplication@@UAE@XZ
_TEXT	SEGMENT
??1CPythonApplication@@UAE@XZ PROC			; CPythonApplication::~CPythonApplication, COMDAT
; _this$ = ecx

; 102  : {

  00000	53		 push	 ebx
  00001	8b d9		 mov	 ebx, ecx
  00003	56		 push	 esi
  00004	57		 push	 edi

; 103  : }

  00005	8d 8b b0 fe 01
	00		 lea	 ecx, DWORD PTR [ebx+130736]
  0000b	c7 03 00 00 00
	00		 mov	 DWORD PTR [ebx], OFFSET ??_7CPythonApplication@@6BCMSApplication@@@
  00011	c7 43 1c 00 00
	00 00		 mov	 DWORD PTR [ebx+28], OFFSET ??_7CPythonApplication@@6BCInputKeyboard@@@
  00018	c7 43 20 00 00
	00 00		 mov	 DWORD PTR [ebx+32], OFFSET ??_7CPythonApplication@@6BIAbstractApplication@@@
; File C:\Program Files\Microsoft Visual Studio\2022\Community\VC\Tools\MSVC\14.44.35207\include\xstring

; 1383 :         _Tidy_deallocate();

  0001f	e8 00 00 00 00	 call	 ?_Tidy_deallocate@?$basic_string@DU?$char_traits@D@std@@V?$allocator@D@2@@std@@AAEXXZ ; std::basic_string<char,std::char_traits<char>,std::allocator<char> >::_Tidy_deallocate
; File C:\Program Files\Microsoft Visual Studio\2022\Community\VC\Tools\MSVC\14.44.35207\include\xtree

; 777  :         _Erase_tree(_Al, _Myhead->_Parent);

  00024	8b 83 94 fe 01
	00		 mov	 eax, DWORD PTR [ebx+130708]
; File D:\_m2work\txoko-m2-work\txoko-client-src\source\UserInterface\PythonApplication.cpp

; 103  : }

  0002a	8d b3 94 fe 01
	00		 lea	 esi, DWORD PTR [ebx+130708]
; File C:\Program Files\Microsoft Visual Studio\2022\Community\VC\Tools\MSVC\14.44.35207\include\xtree

; 777  :         _Erase_tree(_Al, _Myhead->_Parent);

  00030	8b ce		 mov	 ecx, esi
  00032	ff 70 04	 push	 DWORD PTR [eax+4]
  00035	56		 push	 esi
  00036	e8 00 00 00 00	 call	 ??$_Erase_tree@V?$allocator@U?$_Tree_node@U?$pair@$$CBHPAX@std@@PAX@std@@@std@@@?$_Tree_val@U?$_Tree_simple_types@U?$pair@$$CBHPAX@std@@@std@@@std@@QAEXAAV?$allocator@U?$_Tree_node@U?$pair@$$CBHPAX@std@@PAX@std@@@1@PAU?$_Tree_node@U?$pair@$$CBHPAX@std@@PAX@1@@Z ; std::_Tree_val<std::_Tree_simple_types<std::pair<int const ,void *> > >::_Erase_tree<std::allocator<std::_Tree_node<std::pair<int const ,void *>,void *> > >
; File C:\Program Files\Microsoft Visual Studio\2022\Community\VC\Tools\MSVC\14.44.35207\include\xmemory

; 289  :         ::operator delete(_Ptr, _Bytes);

  0003b	6a 18		 push	 24			; 00000018H
  0003d	ff 36		 push	 DWORD PTR [esi]
  0003f	e8 00 00 00 00	 call	 ??3@YAXPAXI@Z		; operator delete
  00044	83 c4 08	 add	 esp, 8
; File D:\_m2work\txoko-m2-work\txoko-client-src\source\UserInterface\PythonApplication.cpp

; 103  : }

  00047	8d 8b 8c d6 01
	00		 lea	 ecx, DWORD PTR [ebx+120460]
  0004d	e8 00 00 00 00	 call	 ??1CPythonSystem@@UAE@XZ ; CPythonSystem::~CPythonSystem
  00052	8d 8b 84 d6 01
	00		 lea	 ecx, DWORD PTR [ebx+120452]
  00058	e8 00 00 00 00	 call	 ??1CNetworkDevice@@UAE@XZ ; CNetworkDevice::~CNetworkDevice
  0005d	8d 8b 70 d6 01
	00		 lea	 ecx, DWORD PTR [ebx+120432]
  00063	e8 00 00 00 00	 call	 ??1CGraphicDevice@@UAE@XZ ; CGraphicDevice::~CGraphicDevice
  00068	8d 8b 98 d5 01
	00		 lea	 ecx, DWORD PTR [ebx+120216]
  0006e	e8 00 00 00 00	 call	 ??1CAccountConnector@@UAE@XZ ; CAccountConnector::~CAccountConnector
  00073	8d 8b f8 d1 01
	00		 lea	 ecx, DWORD PTR [ebx+119288]
  00079	e8 00 00 00 00	 call	 ??1CGuildMarkUploader@@UAE@XZ ; CGuildMarkUploader::~CGuildMarkUploader
  0007e	8d 8b 48 d1 01
	00		 lea	 ecx, DWORD PTR [ebx+119112]
  00084	e8 00 00 00 00	 call	 ??1CGuildMarkDownloader@@UAE@XZ ; CGuildMarkDownloader::~CGuildMarkDownloader
  00089	8d 8b 0c d1 01
	00		 lea	 ecx, DWORD PTR [ebx+119052]
  0008f	e8 00 00 00 00	 call	 ??1CGuildMarkManager@@UAE@XZ ; CGuildMarkManager::~CGuildMarkManager
  00094	8d 8b 74 d0 01
	00		 lea	 ecx, DWORD PTR [ebx+118900]
  0009a	e8 00 00 00 00	 call	 ??1CPythonGuild@@UAE@XZ	; CPythonGuild::~CPythonGuild
  0009f	8d 8b 54 d0 01
	00		 lea	 ecx, DWORD PTR [ebx+118868]
  000a5	e8 00 00 00 00	 call	 ??1CPythonSafeBox@@UAE@XZ ; CPythonSafeBox::~CPythonSafeBox
  000aa	8d 8b 3c d0 01
	00		 lea	 ecx, DWORD PTR [ebx+118844]
  000b0	e8 00 00 00 00	 call	 ??1CPythonMessenger@@UAE@XZ ; CPythonMessenger::~CPythonMessenger
  000b5	8d 8b 2c d0 01
	00		 lea	 ecx, DWORD PTR [ebx+118828]
  000bb	e8 00 00 00 00	 call	 ??1CPythonQuest@@UAE@XZ	; CPythonQuest::~CPythonQuest
  000c0	8d 8b e4 cf 01
	00		 lea	 ecx, DWORD PTR [ebx+118756]
  000c6	e8 00 00 00 00	 call	 ??1CPythonResource@@UAE@XZ ; CPythonResource::~CPythonResource
  000cb	8d 8b 98 cf 01
	00		 lea	 ecx, DWORD PTR [ebx+118680]
  000d1	e8 00 00 00 00	 call	 ??1CPythonSkill@@UAE@XZ	; CPythonSkill::~CPythonSkill
  000d6	8d 8b 78 b9 01
	00		 lea	 ecx, DWORD PTR [ebx+113016]
  000dc	e8 00 00 00 00	 call	 ??1CPythonBackground@@UAE@XZ ; CPythonBackground::~CPythonBackground
  000e1	8d 8b f8 b8 01
	00		 lea	 ecx, DWORD PTR [ebx+112888]
  000e7	e8 00 00 00 00	 call	 ??1CPythonEventManager@@UAE@XZ ; CPythonEventManager::~CPythonEventManager
  000ec	8d 8b c0 ac 01
	00		 lea	 ecx, DWORD PTR [ebx+109760]
  000f2	e8 00 00 00 00	 call	 ??1CPythonMiniMap@@UAE@XZ ; CPythonMiniMap::~CPythonMiniMap
  000f7	8d 8b b4 ac 01
	00		 lea	 ecx, DWORD PTR [ebx+109748]
  000fd	e8 00 00 00 00	 call	 ??1CPythonNonPlayer@@UAE@XZ ; CPythonNonPlayer::~CPythonNonPlayer
  00102	8d 8b 64 ac 01
	00		 lea	 ecx, DWORD PTR [ebx+109668]
  00108	e8 00 00 00 00	 call	 ??1CPythonTextTail@@UAE@XZ ; CPythonTextTail::~CPythonTextTail
  0010d	8d 8b 90 ab 01
	00		 lea	 ecx, DWORD PTR [ebx+109456]
  00113	e8 00 00 00 00	 call	 ??1CPythonChat@@UAE@XZ	; CPythonChat::~CPythonChat
  00118	8d 8b b0 a7 01
	00		 lea	 ecx, DWORD PTR [ebx+108464]
  0011e	e8 00 00 00 00	 call	 ??1CPythonExchange@@UAE@XZ ; CPythonExchange::~CPythonExchange
  00123	8d 8b 18 93 01
	00		 lea	 ecx, DWORD PTR [ebx+103192]
  00129	e8 00 00 00 00	 call	 ??1CPythonShop@@UAE@XZ	; CPythonShop::~CPythonShop
  0012e	8d 8b 0c 92 01
	00		 lea	 ecx, DWORD PTR [ebx+102924]
  00134	e8 00 00 00 00	 call	 ??1CPythonItem@@UAE@XZ	; CPythonItem::~CPythonItem
  00139	8d 8b e0 89 01
	00		 lea	 ecx, DWORD PTR [ebx+100832]
  0013f	e8 00 00 00 00	 call	 ??1CPythonIME@@UAE@XZ	; CPythonIME::~CPythonIME
  00144	8d 8b 90 81 00
	00		 lea	 ecx, DWORD PTR [ebx+33168]
  0014a	e8 00 00 00 00	 call	 ??1CPythonPlayer@@UAE@XZ ; CPythonPlayer::~CPythonPlayer
  0014f	8d 8b 40 08 00
	00		 lea	 ecx, DWORD PTR [ebx+2112]
  00155	e8 00 00 00 00	 call	 ??1CPythonNetworkStream@@UAE@XZ ; CPythonNetworkStream::~CPythonNetworkStream
  0015a	8d 8b 9c 07 00
	00		 lea	 ecx, DWORD PTR [ebx+1948]
  00160	e8 00 00 00 00	 call	 ??1CPythonGraphic@@UAE@XZ ; CPythonGraphic::~CPythonGraphic
  00165	8d 8b 10 07 00
	00		 lea	 ecx, DWORD PTR [ebx+1808]
  0016b	e8 00 00 00 00	 call	 ??1CServerStateChecker@@UAE@XZ ; CServerStateChecker::~CServerStateChecker
  00170	8d 8b d8 02 00
	00		 lea	 ecx, DWORD PTR [ebx+728]
  00176	e8 00 00 00 00	 call	 ??1CPythonCharacterManager@@UAE@XZ ; CPythonCharacterManager::~CPythonCharacterManager
  0017b	8d 8b b0 02 00
	00		 lea	 ecx, DWORD PTR [ebx+688]
  00181	e8 00 00 00 00	 call	 ??1CEffectManager@@UAE@XZ ; CEffectManager::~CEffectManager
  00186	8d 8b 10 02 00
	00		 lea	 ecx, DWORD PTR [ebx+528]
  0018c	e8 00 00 00 00	 call	 ??1CWindowManager@UI@@UAE@XZ ; UI::CWindowManager::~CWindowManager
; File D:\_m2work\txoko-m2-work\txoko-client-src\source\UserInterface\MovieMan.h

; 36   : 	{

  00191	c7 83 e8 01 00
	00 00 00 00 00	 mov	 DWORD PTR [ebx+488], OFFSET ??_7CMovieMan@@6B@

; 37   : 		CoUninitialize();

  0019b	ff 15 00 00 00
	00		 call	 DWORD PTR __imp__CoUninitialize@0
; File D:\_m2work\txoko-m2-work\txoko-client-src\source\UserInterface\PythonApplication.cpp

; 103  : }

  001a1	8d 8b cc 01 00
	00		 lea	 ecx, DWORD PTR [ebx+460]
; File D:\_m2work\txoko-m2-work\txoko-client-src\source\eterBase\Singleton.h

; 19   : 	{ 

  001a7	c7 83 e8 01 00
	00 00 00 00 00	 mov	 DWORD PTR [ebx+488], OFFSET ??_7?$CSingleton@VCMovieMan@@@@6B@

; 20   : 		assert(ms_singleton);
; 21   : 		ms_singleton = 0; 

  001b1	c7 05 00 00 00
	00 00 00 00 00	 mov	 DWORD PTR ?ms_singleton@?$CSingleton@VCMovieMan@@@@0PAVCMovieMan@@A, 0 ; CSingleton<CMovieMan>::ms_singleton
; File D:\_m2work\txoko-m2-work\txoko-client-src\source\UserInterface\PythonApplication.cpp

; 103  : }

  001bb	e8 00 00 00 00	 call	 ??1CItemManager@@UAE@XZ	; CItemManager::~CItemManager
  001c0	8d 8b b8 01 00
	00		 lea	 ecx, DWORD PTR [ebx+440]
  001c6	e8 00 00 00 00	 call	 ??1CGameEventManager@@UAE@XZ ; CGameEventManager::~CGameEventManager
  001cb	8d 8b 80 01 00
	00		 lea	 ecx, DWORD PTR [ebx+384]
  001d1	e8 00 00 00 00	 call	 ??1CRaceManager@@UAE@XZ	; CRaceManager::~CRaceManager
  001d6	8d 8b 5c 01 00
	00		 lea	 ecx, DWORD PTR [ebx+348]
  001dc	e8 00 00 00 00	 call	 ??1CFlyingManager@@UAE@XZ ; CFlyingManager::~CFlyingManager
  001e1	8d 8b e8 00 00
	00		 lea	 ecx, DWORD PTR [ebx+232]
  001e7	e8 00 00 00 00	 call	 ??1CSoundManager@@UAE@XZ ; CSoundManager::~CSoundManager
  001ec	8d 4b 7c	 lea	 ecx, DWORD PTR [ebx+124]
  001ef	e8 00 00 00 00	 call	 ??1CLightManager@@UAE@XZ ; CLightManager::~CLightManager
  001f4	8d 4b 60	 lea	 ecx, DWORD PTR [ebx+96]
  001f7	e8 00 00 00 00	 call	 ??1CTimer@@UAE@XZ	; CTimer::~CTimer
  001fc	8d 4b 1c	 lea	 ecx, DWORD PTR [ebx+28]
; File D:\_m2work\txoko-m2-work\txoko-client-src\source\UserInterface\AbstractSingleton.h

; 17   : 	{ 

  001ff	c7 43 20 00 00
	00 00		 mov	 DWORD PTR [ebx+32], OFFSET ??_7?$TAbstractSingleton@VIAbstractApplication@@@@6B@

; 18   : 		assert(ms_singleton);
; 19   : 		ms_singleton = 0; 

  00206	c7 05 00 00 00
	00 00 00 00 00	 mov	 DWORD PTR ?ms_singleton@?$TAbstractSingleton@VIAbstractApplication@@@@0PAVIAbstractApplication@@A, 0 ; TAbstractSingleton<IAbstractApplication>::ms_singleton
; File D:\_m2work\txoko-m2-work\txoko-client-src\source\UserInterface\PythonApplication.cpp

; 103  : }

  00210	e8 00 00 00 00	 call	 ??1CInputKeyboard@@UAE@XZ ; CInputKeyboard::~CInputKeyboard
  00215	5f		 pop	 edi
  00216	5e		 pop	 esi
  00217	8b cb		 mov	 ecx, ebx
  00219	5b		 pop	 ebx
  0021a	e9 00 00 00 00	 jmp	 ??1CMSApplication@@UAE@XZ ; CMSApplication::~CMSApplication
??1CPythonApplication@@UAE@XZ ENDP			; CPythonApplication::~CPythonApplication
_TEXT	ENDS
; Function compile flags: /Ogtp
; File D:\_m2work\txoko-m2-work\txoko-client-src\source\UserInterface\PythonApplication.cpp
;	COMDAT ?GetMousePosition@CPythonApplication@@UAEXPAUtagPOINT@@@Z
_TEXT	SEGMENT
_ppt$ = 8						; size = 4
?GetMousePosition@CPythonApplication@@UAEXPAUtagPOINT@@@Z PROC ; CPythonApplication::GetMousePosition, COMDAT
; _this$ = ecx

; 106  : {

  00000	55		 push	 ebp
  00001	8b ec		 mov	 ebp, esp

; 107  : 	CMSApplication::GetMousePosition(ppt);

  00003	83 c1 e0	 add	 ecx, -32		; ffffffe0H

; 108  : }

  00006	5d		 pop	 ebp

; 107  : 	CMSApplication::GetMousePosition(ppt);

  00007	e9 00 00 00 00	 jmp	 ?GetMousePosition@CMSWindow@@QAEXPAUtagPOINT@@@Z ; CMSWindow::GetMousePosition
?GetMousePosition@CPythonApplication@@UAEXPAUtagPOINT@@@Z ENDP ; CPythonApplication::GetMousePosition
_TEXT	ENDS
; Function compile flags: /Ogtp
; File D:\_m2work\txoko-m2-work\txoko-client-src\source\UserInterface\PythonApplication.cpp
;	COMDAT ?SetMinFog@CPythonApplication@@QAEXM@Z
_TEXT	SEGMENT
?SetMinFog@CPythonApplication@@QAEXM@Z PROC		; CPythonApplication::SetMinFog, COMDAT
; _this$dead$ = ecx
; _fMinFog$ = xmm1s

; 112  : 	MIN_FOG = fMinFog;

  00000	f3 0f 11 0d 00
	00 00 00	 movss	 DWORD PTR ?MIN_FOG@@3MA, xmm1

; 113  : }

  00008	c3		 ret	 0
?SetMinFog@CPythonApplication@@QAEXM@Z ENDP		; CPythonApplication::SetMinFog
_TEXT	ENDS
; Function compile flags: /Ogtp
; File D:\_m2work\txoko-m2-work\txoko-client-src\source\UserInterface\PythonApplication.cpp
;	COMDAT ?SetFrameSkip@CPythonApplication@@QAEX_N@Z
_TEXT	SEGMENT
_isEnable$ = 8						; size = 1
?SetFrameSkip@CPythonApplication@@QAEX_N@Z PROC		; CPythonApplication::SetFrameSkip, COMDAT
; _this$ = ecx

; 116  : {

  00000	55		 push	 ebp
  00001	8b ec		 mov	 ebp, esp

; 117  : 	if (isEnable)
; 118  : 		m_isFrameSkipDisable=false;
; 119  : 	else
; 120  : 		m_isFrameSkipDisable=true;
; 121  : }

  00003	8a 45 08	 mov	 al, BYTE PTR _isEnable$[ebp]
  00006	34 01		 xor	 al, 1
  00008	88 81 ad fe 01
	00		 mov	 BYTE PTR [ecx+130733], al
  0000e	5d		 pop	 ebp
  0000f	c2 04 00	 ret	 4
?SetFrameSkip@CPythonApplication@@QAEX_N@Z ENDP		; CPythonApplication::SetFrameSkip
_TEXT	ENDS
; Function compile flags: /Ogtp
; File D:\_m2work\txoko-m2-work\txoko-client-src\source\UserInterface\PythonApplication.cpp
;	COMDAT ?GetInfo@CPythonApplication@@QAEXIPAV?$basic_string@DU?$char_traits@D@std@@V?$allocator@D@2@@std@@@Z
_TEXT	SEGMENT
_eInfo$ = 8						; size = 4
_pstInfo$ = 12						; size = 4
?GetInfo@CPythonApplication@@QAEXIPAV?$basic_string@DU?$char_traits@D@std@@V?$allocator@D@2@@std@@@Z PROC ; CPythonApplication::GetInfo, COMDAT
; _this$ = ecx

; 135  : {

  00000	55		 push	 ebp
  00001	8b ec		 mov	 ebp, esp

; 136  : 	switch (eInfo)

  00003	8b 45 08	 mov	 eax, DWORD PTR _eInfo$[ebp]
  00006	83 f8 03	 cmp	 eax, 3
  00009	77 4b		 ja	 SHORT $LN2@GetInfo
  0000b	ff 24 85 00 00
	00 00		 jmp	 DWORD PTR $LN9@GetInfo[eax*4]
$LN4@GetInfo:

; 137  : 	{
; 138  : 	case INFO_ACTOR:
; 139  : 		m_kChrMgr.GetInfo(pstInfo);

  00012	ff 75 0c	 push	 DWORD PTR _pstInfo$[ebp]
  00015	81 c1 d8 02 00
	00		 add	 ecx, 728		; 000002d8H
  0001b	e8 00 00 00 00	 call	 ?GetInfo@CPythonCharacterManager@@QAEXPAV?$basic_string@DU?$char_traits@D@std@@V?$allocator@D@2@@std@@@Z ; CPythonCharacterManager::GetInfo

; 149  : 		break;
; 150  : 	}
; 151  : }

  00020	5d		 pop	 ebp
  00021	c2 08 00	 ret	 8
$LN5@GetInfo:

; 140  : 		break;
; 141  : 	case INFO_EFFECT:
; 142  : 		m_kEftMgr.GetInfo(pstInfo);			

  00024	ff 75 0c	 push	 DWORD PTR _pstInfo$[ebp]
  00027	81 c1 b0 02 00
	00		 add	 ecx, 688		; 000002b0H
  0002d	e8 00 00 00 00	 call	 ?GetInfo@CEffectManager@@QAEXPAV?$basic_string@DU?$char_traits@D@std@@V?$allocator@D@2@@std@@@Z ; CEffectManager::GetInfo

; 149  : 		break;
; 150  : 	}
; 151  : }

  00032	5d		 pop	 ebp
  00033	c2 08 00	 ret	 8
$LN6@GetInfo:

; 143  : 		break;
; 144  : 	case INFO_ITEM:
; 145  : 		m_pyItem.GetInfo(pstInfo);

  00036	ff 75 0c	 push	 DWORD PTR _pstInfo$[ebp]
  00039	81 c1 0c 92 01
	00		 add	 ecx, 102924		; 0001920cH
  0003f	e8 00 00 00 00	 call	 ?GetInfo@CPythonItem@@QAEXPAV?$basic_string@DU?$char_traits@D@std@@V?$allocator@D@2@@std@@@Z ; CPythonItem::GetInfo

; 149  : 		break;
; 150  : 	}
; 151  : }

  00044	5d		 pop	 ebp
  00045	c2 08 00	 ret	 8
$LN7@GetInfo:

; 146  : 		break;
; 147  : 	case INFO_TEXTTAIL:
; 148  : 		m_pyTextTail.GetInfo(pstInfo);

  00048	ff 75 0c	 push	 DWORD PTR _pstInfo$[ebp]
  0004b	81 c1 64 ac 01
	00		 add	 ecx, 109668		; 0001ac64H
  00051	e8 00 00 00 00	 call	 ?GetInfo@CPythonTextTail@@QAEXPAV?$basic_string@DU?$char_traits@D@std@@V?$allocator@D@2@@std@@@Z ; CPythonTextTail::GetInfo
$LN2@GetInfo:

; 149  : 		break;
; 150  : 	}
; 151  : }

  00056	5d		 pop	 ebp
  00057	c2 08 00	 ret	 8
  0005a	66 90		 npad	 2
$LN9@GetInfo:
  0005c	00 00 00 00	 DD	 $LN4@GetInfo
  00060	00 00 00 00	 DD	 $LN5@GetInfo
  00064	00 00 00 00	 DD	 $LN6@GetInfo
  00068	00 00 00 00	 DD	 $LN7@GetInfo
?GetInfo@CPythonApplication@@QAEXIPAV?$basic_string@DU?$char_traits@D@std@@V?$allocator@D@2@@std@@@Z ENDP ; CPythonApplication::GetInfo
_TEXT	ENDS
; Function compile flags: /Ogtp
; File D:\_m2work\txoko-m2-work\txoko-client-src\source\UserInterface\PythonApplication.cpp
;	COMDAT ?Abort@CPythonApplication@@QAEXXZ
_TEXT	SEGMENT
?Abort@CPythonApplication@@QAEXXZ PROC			; CPythonApplication::Abort, COMDAT
; _this$dead$ = ecx

; 155  : 	TraceError("============================================================================================================");

  00000	68 00 00 00 00	 push	 OFFSET ??_C@_0GN@LLBDNFAM@?$DN?$DN?$DN?$DN?$DN?$DN?$DN?$DN?$DN?$DN?$DN?$DN?$DN?$DN?$DN?$DN?$DN?$DN?$DN?$DN?$DN?$DN?$DN?$DN?$DN?$DN?$DN?$DN?$DN?$DN?$DN@
  00005	e8 00 00 00 00	 call	 ?TraceError@@YAXPBDZZ	; TraceError

; 156  : 	TraceError("Abort!!!!\n\n");

  0000a	68 00 00 00 00	 push	 OFFSET ??_C@_0M@EHJKIBDK@Abort?$CB?$CB?$CB?$CB?6?6@
  0000f	e8 00 00 00 00	 call	 ?TraceError@@YAXPBDZZ	; TraceError
  00014	83 c4 08	 add	 esp, 8

; 157  : 
; 158  : 	PostQuitMessage(0);

  00017	6a 00		 push	 0
  00019	ff 15 00 00 00
	00		 call	 DWORD PTR __imp__PostQuitMessage@4

; 159  : }

  0001f	c3		 ret	 0
?Abort@CPythonApplication@@QAEXXZ ENDP			; CPythonApplication::Abort
_TEXT	ENDS
; Function compile flags: /Ogtp
; File D:\_m2work\txoko-m2-work\txoko-client-src\source\UserInterface\PythonApplication.cpp
;	COMDAT ?Exit@CPythonApplication@@QAEXXZ
_TEXT	SEGMENT
?Exit@CPythonApplication@@QAEXXZ PROC			; CPythonApplication::Exit, COMDAT
; _this$dead$ = ecx

; 163  : 	PostQuitMessage(0);

  00000	6a 00		 push	 0
  00002	ff 15 00 00 00
	00		 call	 DWORD PTR __imp__PostQuitMessage@4

; 164  : }

  00008	c3		 ret	 0
?Exit@CPythonApplication@@QAEXXZ ENDP			; CPythonApplication::Exit
_TEXT	ENDS
; Function compile flags: /Ogtp
; File D:\_m2work\txoko-m2-work\txoko-client-src\source\UserInterface\PythonApplication.cpp
;	COMDAT ?RenderGame@CPythonApplication@@QAEXXZ
_TEXT	SEGMENT
tv470 = -68						; size = 4
_t11$1$ = -68						; size = 4
tv473 = -64						; size = 4
_t14$1$ = -64						; size = 4
tv472 = -60						; size = 4
_t15$1$ = -60						; size = 4
tv471 = -56						; size = 4
_t16$1$ = -56						; size = 4
_fAspect$1 = -52					; size = 4
_ly$2 = -52						; size = 4
_lx$3 = -52						; size = 4
_t8$1$ = -52						; size = 4
_lx$4 = -48						; size = 4
_fAspect$ = -48						; size = 4
_ly$5 = -48						; size = 4
_t7$1$ = -48						; size = 4
_t1$1$ = -44						; size = 4
_t2$1$ = -40						; size = 4
_t3$1$ = -36						; size = 4
_t4$1$ = -32						; size = 4
_t5$1$ = -28						; size = 4
_t6$1$ = -24						; size = 4
_t9$1$ = -20						; size = 4
_t10$1$ = -16						; size = 4
_t12$1$ = -12						; size = 4
_t13$1$ = -8						; size = 4
_t17$1$ = -4						; size = 4
?RenderGame@CPythonApplication@@QAEXXZ PROC		; CPythonApplication::RenderGame, COMDAT
; _this$ = ecx

; 169  : {	

  00000	55		 push	 ebp
  00001	8b ec		 mov	 ebp, esp
  00003	83 e4 f8	 and	 esp, -8			; fffffff8H
  00006	83 ec 44	 sub	 esp, 68			; 00000044H

; 170  : 	if (!PERF_CHECKER_RENDER_GAME)

  00009	80 3d 00 00 00
	00 00		 cmp	 BYTE PTR ?PERF_CHECKER_RENDER_GAME@@3_NA, 0 ; PERF_CHECKER_RENDER_GAME
  00010	8d 81 b0 02 00
	00		 lea	 eax, DWORD PTR [ecx+688]
  00016	89 44 24 04	 mov	 DWORD PTR tv473[esp+68], eax
  0001a	8d 81 0c 92 01
	00		 lea	 eax, DWORD PTR [ecx+102924]
  00020	53		 push	 ebx
  00021	89 44 24 0c	 mov	 DWORD PTR tv472[esp+72], eax
  00025	8d 99 10 02 00
	00		 lea	 ebx, DWORD PTR [ecx+528]
  0002b	8d 81 5c 01 00
	00		 lea	 eax, DWORD PTR [ecx+348]
  00031	56		 push	 esi
  00032	89 44 24 14	 mov	 DWORD PTR tv471[esp+76], eax
  00036	8d b1 78 b9 01
	00		 lea	 esi, DWORD PTR [ecx+113016]
  0003c	8d 81 d8 02 00
	00		 lea	 eax, DWORD PTR [ecx+728]
  00042	57		 push	 edi
  00043	8d b9 9c 07 00
	00		 lea	 edi, DWORD PTR [ecx+1948]
  00049	89 44 24 0c	 mov	 DWORD PTR tv470[esp+80], eax
  0004d	0f 85 23 01 00
	00		 jne	 $LN3@RenderGame

; 171  : 	{
; 172  : 		float fAspect=m_kWndMgr.GetAspect();

  00053	8b cb		 mov	 ecx, ebx
  00055	e8 00 00 00 00	 call	 ?GetAspect@CWindowManager@UI@@QAEMXZ ; UI::CWindowManager::GetAspect

; 173  : 		float fFarClip=m_pyBackground.GetFarClip();

  0005a	8b ce		 mov	 ecx, esi
  0005c	d9 5c 24 1c	 fstp	 DWORD PTR _fAspect$1[esp+80]
  00060	e8 00 00 00 00	 call	 ?GetFarClip@CPythonBackground@@QAEMXZ ; CPythonBackground::GetFarClip

; 174  : 
; 175  : 		m_pyGraphic.SetPerspective(30.0f, fAspect, 100.0, fFarClip);

  00065	83 ec 10	 sub	 esp, 16			; 00000010H
  00068	8b cf		 mov	 ecx, edi
  0006a	f3 0f 11 44 24
	0c		 movss	 DWORD PTR [esp+12], xmm0
  00070	f3 0f 10 44 24
	2c		 movss	 xmm0, DWORD PTR _fAspect$1[esp+96]
  00076	c7 44 24 08 00
	00 c8 42	 mov	 DWORD PTR [esp+8], 1120403456 ; 42c80000H
  0007e	f3 0f 11 44 24
	04		 movss	 DWORD PTR [esp+4], xmm0
  00084	c7 04 24 00 00
	f0 41		 mov	 DWORD PTR [esp], 1106247680 ; 41f00000H
  0008b	e8 00 00 00 00	 call	 ?SetPerspective@CGraphicBase@@QAEXMMMM@Z ; CGraphicBase::SetPerspective

; 176  : 
; 177  : 		CCullingManager::Instance().Process();

  00090	8b 0d 00 00 00
	00		 mov	 ecx, DWORD PTR ?ms_singleton@?$CSingleton@VCCullingManager@@@@0PAVCCullingManager@@A ; CSingleton<CCullingManager>::ms_singleton
  00096	e8 00 00 00 00	 call	 ?Process@CCullingManager@@QAEXXZ ; CCullingManager::Process

; 178  : 
; 179  : 		m_kChrMgr.Deform();

  0009b	8b 4c 24 0c	 mov	 ecx, DWORD PTR tv470[esp+80]
  0009f	e8 00 00 00 00	 call	 ?Deform@CPythonCharacterManager@@QAEXXZ ; CPythonCharacterManager::Deform

; 180  : 		m_kEftMgr.Update();

  000a4	8b 4c 24 10	 mov	 ecx, DWORD PTR tv473[esp+80]
  000a8	e8 00 00 00 00	 call	 ?Update@CEffectManager@@QAEXXZ ; CEffectManager::Update

; 181  : 
; 182  : 		m_pyBackground.RenderCharacterShadowToTexture();

  000ad	8b ce		 mov	 ecx, esi
  000af	e8 00 00 00 00	 call	 ?RenderCharacterShadowToTexture@CPythonBackground@@QAEXXZ ; CPythonBackground::RenderCharacterShadowToTexture

; 183  : 
; 184  : 		m_pyGraphic.SetGameRenderState();

  000b4	8b cf		 mov	 ecx, edi
  000b6	e8 00 00 00 00	 call	 ?SetGameRenderState@CPythonGraphic@@QAEXXZ ; CPythonGraphic::SetGameRenderState

; 185  : 		m_pyGraphic.PushState();

  000bb	8b cf		 mov	 ecx, edi
  000bd	e8 00 00 00 00	 call	 ?PushState@CPythonGraphic@@QAEXXZ ; CPythonGraphic::PushState

; 186  : 
; 187  : 		{
; 188  : 			long lx, ly;
; 189  : 			m_kWndMgr.GetMousePosition(lx, ly);

  000c2	8d 44 24 1c	 lea	 eax, DWORD PTR _ly$2[esp+80]
  000c6	8b cb		 mov	 ecx, ebx
  000c8	50		 push	 eax
  000c9	8d 44 24 24	 lea	 eax, DWORD PTR _lx$4[esp+84]
  000cd	50		 push	 eax
  000ce	e8 00 00 00 00	 call	 ?GetMousePosition@CWindowManager@UI@@QAEXAAJ0@Z ; UI::CWindowManager::GetMousePosition

; 190  : 			m_pyGraphic.SetCursorPosition(lx, ly);

  000d3	ff 74 24 1c	 push	 DWORD PTR _ly$2[esp+80]
  000d7	8b cf		 mov	 ecx, edi
  000d9	ff 74 24 24	 push	 DWORD PTR _lx$4[esp+84]
  000dd	e8 00 00 00 00	 call	 ?SetCursorPosition@CPythonGraphic@@QAEXHH@Z ; CPythonGraphic::SetCursorPosition

; 191  : 		}
; 192  : 
; 193  : 		m_pyBackground.RenderSky();

  000e2	8b ce		 mov	 ecx, esi
  000e4	e8 00 00 00 00	 call	 ?RenderSky@CPythonBackground@@QAEXXZ ; CPythonBackground::RenderSky

; 194  : 
; 195  : 		m_pyBackground.RenderBeforeLensFlare();

  000e9	8b ce		 mov	 ecx, esi
  000eb	e8 00 00 00 00	 call	 ?RenderBeforeLensFlare@CPythonBackground@@QAEXXZ ; CPythonBackground::RenderBeforeLensFlare

; 196  : 
; 197  : 		m_pyBackground.RenderCloud();

  000f0	8b ce		 mov	 ecx, esi
  000f2	e8 00 00 00 00	 call	 ?RenderCloud@CPythonBackground@@QAEXXZ ; CPythonBackground::RenderCloud

; 198  : 
; 199  : 		m_pyBackground.BeginEnvironment();

  000f7	8b ce		 mov	 ecx, esi
  000f9	e8 00 00 00 00	 call	 ?BeginEnvironment@CMapManager@@QAEXXZ ; CMapManager::BeginEnvironment

; 200  : 		m_pyBackground.Render();

  000fe	8b ce		 mov	 ecx, esi
  00100	e8 00 00 00 00	 call	 ?Render@CPythonBackground@@QAEXXZ ; CPythonBackground::Render

; 201  : 
; 202  : 		m_pyBackground.SetCharacterDirLight();

  00105	8b ce		 mov	 ecx, esi
  00107	e8 00 00 00 00	 call	 ?SetCharacterDirLight@CPythonBackground@@QAEXXZ ; CPythonBackground::SetCharacterDirLight

; 203  : 		m_kChrMgr.Render();

  0010c	8b 4c 24 0c	 mov	 ecx, DWORD PTR tv470[esp+80]
  00110	e8 00 00 00 00	 call	 ?Render@CPythonCharacterManager@@QAEXXZ ; CPythonCharacterManager::Render

; 204  : 
; 205  : 		m_pyBackground.SetBackgroundDirLight();

  00115	8b ce		 mov	 ecx, esi
  00117	e8 00 00 00 00	 call	 ?SetBackgroundDirLight@CPythonBackground@@QAEXXZ ; CPythonBackground::SetBackgroundDirLight

; 206  : 		m_pyBackground.RenderWater();

  0011c	8b ce		 mov	 ecx, esi
  0011e	e8 00 00 00 00	 call	 ?RenderWater@CPythonBackground@@QAEXXZ ; CPythonBackground::RenderWater

; 207  : 		m_pyBackground.RenderSnow();

  00123	8b ce		 mov	 ecx, esi
  00125	e8 00 00 00 00	 call	 ?RenderSnow@CPythonBackground@@QAEXXZ ; CPythonBackground::RenderSnow

; 208  : 		m_pyBackground.RenderEffect();

  0012a	8b ce		 mov	 ecx, esi
  0012c	e8 00 00 00 00	 call	 ?RenderEffect@CPythonBackground@@QAEXXZ ; CPythonBackground::RenderEffect

; 209  : 
; 210  : 		m_pyBackground.EndEnvironment();

  00131	8b ce		 mov	 ecx, esi
  00133	e8 00 00 00 00	 call	 ?EndEnvironment@CMapManager@@QAEXXZ ; CMapManager::EndEnvironment

; 211  : 
; 212  : 		m_kEftMgr.Render();

  00138	8b 4c 24 10	 mov	 ecx, DWORD PTR tv473[esp+80]
  0013c	e8 00 00 00 00	 call	 ?Render@CEffectManager@@QAEXXZ ; CEffectManager::Render

; 213  : 		m_pyItem.Render();

  00141	8b 4c 24 14	 mov	 ecx, DWORD PTR tv472[esp+80]
  00145	e8 00 00 00 00	 call	 ?Render@CPythonItem@@QAEXXZ ; CPythonItem::Render

; 214  : 		m_FlyingManager.Render();

  0014a	8b 4c 24 18	 mov	 ecx, DWORD PTR tv471[esp+80]
  0014e	e8 00 00 00 00	 call	 ?Render@CFlyingManager@@QAEXXZ ; CFlyingManager::Render

; 215  : 
; 216  : 		m_pyBackground.BeginEnvironment();

  00153	8b ce		 mov	 ecx, esi
  00155	e8 00 00 00 00	 call	 ?BeginEnvironment@CMapManager@@QAEXXZ ; CMapManager::BeginEnvironment

; 217  : 		m_pyBackground.RenderPCBlocker();

  0015a	8b ce		 mov	 ecx, esi
  0015c	e8 00 00 00 00	 call	 ?RenderPCBlocker@CPythonBackground@@QAEXXZ ; CPythonBackground::RenderPCBlocker

; 218  : 		m_pyBackground.EndEnvironment();

  00161	8b ce		 mov	 ecx, esi
  00163	e8 00 00 00 00	 call	 ?EndEnvironment@CMapManager@@QAEXXZ ; CMapManager::EndEnvironment

; 219  : 
; 220  : 		m_pyBackground.RenderAfterLensFlare();

  00168	8b ce		 mov	 ecx, esi
  0016a	e8 00 00 00 00	 call	 ?RenderAfterLensFlare@CPythonBackground@@QAEXXZ ; CPythonBackground::RenderAfterLensFlare

; 319  : }

  0016f	5f		 pop	 edi
  00170	5e		 pop	 esi
  00171	5b		 pop	 ebx
  00172	8b e5		 mov	 esp, ebp
  00174	5d		 pop	 ebp
  00175	c3		 ret	 0
$LN3@RenderGame:

; 221  : 
; 222  : 		return;
; 223  : 	}
; 224  : 
; 225  : 	//if (GetAsyncKeyState(VK_Z))
; 226  : 	//	STATEMANAGER.SetRenderState(D3DRS_FILLMODE, D3DFILL_WIREFRAME);
; 227  : 
; 228  : 	DWORD t1=ELTimer_GetMSec();

  00176	e8 00 00 00 00	 call	 ?ELTimer_GetMSec@@YAKXZ	; ELTimer_GetMSec

; 229  : 	m_kChrMgr.Deform();

  0017b	8b 4c 24 0c	 mov	 ecx, DWORD PTR tv470[esp+80]
  0017f	89 44 24 24	 mov	 DWORD PTR _t1$1$[esp+80], eax
  00183	e8 00 00 00 00	 call	 ?Deform@CPythonCharacterManager@@QAEXXZ ; CPythonCharacterManager::Deform

; 230  : 	DWORD t2=ELTimer_GetMSec();

  00188	e8 00 00 00 00	 call	 ?ELTimer_GetMSec@@YAKXZ	; ELTimer_GetMSec

; 231  : 	m_kEftMgr.Update();

  0018d	8b 4c 24 10	 mov	 ecx, DWORD PTR tv473[esp+80]
  00191	89 44 24 28	 mov	 DWORD PTR _t2$1$[esp+80], eax
  00195	e8 00 00 00 00	 call	 ?Update@CEffectManager@@QAEXXZ ; CEffectManager::Update

; 232  : 	DWORD t3=ELTimer_GetMSec();

  0019a	e8 00 00 00 00	 call	 ?ELTimer_GetMSec@@YAKXZ	; ELTimer_GetMSec

; 233  : 	m_pyBackground.RenderCharacterShadowToTexture();

  0019f	8b ce		 mov	 ecx, esi
  001a1	89 44 24 2c	 mov	 DWORD PTR _t3$1$[esp+80], eax
  001a5	e8 00 00 00 00	 call	 ?RenderCharacterShadowToTexture@CPythonBackground@@QAEXXZ ; CPythonBackground::RenderCharacterShadowToTexture

; 234  : 	DWORD t4=ELTimer_GetMSec();

  001aa	e8 00 00 00 00	 call	 ?ELTimer_GetMSec@@YAKXZ	; ELTimer_GetMSec

; 235  : 
; 236  : 	m_pyGraphic.SetGameRenderState();

  001af	8b cf		 mov	 ecx, edi
  001b1	89 44 24 30	 mov	 DWORD PTR _t4$1$[esp+80], eax
  001b5	e8 00 00 00 00	 call	 ?SetGameRenderState@CPythonGraphic@@QAEXXZ ; CPythonGraphic::SetGameRenderState

; 237  : 	m_pyGraphic.PushState();

  001ba	8b cf		 mov	 ecx, edi
  001bc	e8 00 00 00 00	 call	 ?PushState@CPythonGraphic@@QAEXXZ ; CPythonGraphic::PushState

; 238  : 
; 239  : 	float fAspect=m_kWndMgr.GetAspect();

  001c1	8b cb		 mov	 ecx, ebx
  001c3	e8 00 00 00 00	 call	 ?GetAspect@CWindowManager@UI@@QAEMXZ ; UI::CWindowManager::GetAspect

; 240  : 	float fFarClip=m_pyBackground.GetFarClip();

  001c8	8b ce		 mov	 ecx, esi
  001ca	d9 5c 24 20	 fstp	 DWORD PTR _fAspect$[esp+80]
  001ce	e8 00 00 00 00	 call	 ?GetFarClip@CPythonBackground@@QAEMXZ ; CPythonBackground::GetFarClip

; 241  : 
; 242  : 	m_pyGraphic.SetPerspective(30.0f, fAspect, 100.0, fFarClip);

  001d3	83 ec 10	 sub	 esp, 16			; 00000010H
  001d6	8b cf		 mov	 ecx, edi
  001d8	f3 0f 11 44 24
	0c		 movss	 DWORD PTR [esp+12], xmm0
  001de	f3 0f 10 44 24
	30		 movss	 xmm0, DWORD PTR _fAspect$[esp+96]
  001e4	c7 44 24 08 00
	00 c8 42	 mov	 DWORD PTR [esp+8], 1120403456 ; 42c80000H
  001ec	f3 0f 11 44 24
	04		 movss	 DWORD PTR [esp+4], xmm0
  001f2	c7 04 24 00 00
	f0 41		 mov	 DWORD PTR [esp], 1106247680 ; 41f00000H
  001f9	e8 00 00 00 00	 call	 ?SetPerspective@CGraphicBase@@QAEXMMMM@Z ; CGraphicBase::SetPerspective

; 243  : 
; 244  : 	DWORD t5=ELTimer_GetMSec();

  001fe	e8 00 00 00 00	 call	 ?ELTimer_GetMSec@@YAKXZ	; ELTimer_GetMSec

; 245  : 
; 246  : 	CCullingManager::Instance().Process();

  00203	8b 0d 00 00 00
	00		 mov	 ecx, DWORD PTR ?ms_singleton@?$CSingleton@VCCullingManager@@@@0PAVCCullingManager@@A ; CSingleton<CCullingManager>::ms_singleton
  00209	89 44 24 34	 mov	 DWORD PTR _t5$1$[esp+80], eax
  0020d	e8 00 00 00 00	 call	 ?Process@CCullingManager@@QAEXXZ ; CCullingManager::Process

; 247  : 
; 248  : 	DWORD t6=ELTimer_GetMSec();

  00212	e8 00 00 00 00	 call	 ?ELTimer_GetMSec@@YAKXZ	; ELTimer_GetMSec
  00217	89 44 24 38	 mov	 DWORD PTR _t6$1$[esp+80], eax

; 249  : 
; 250  : 	{
; 251  : 		long lx, ly;
; 252  : 		m_kWndMgr.GetMousePosition(lx, ly);

  0021b	8b cb		 mov	 ecx, ebx
  0021d	8d 44 24 20	 lea	 eax, DWORD PTR _ly$5[esp+80]
  00221	50		 push	 eax
  00222	8d 44 24 20	 lea	 eax, DWORD PTR _lx$3[esp+84]
  00226	50		 push	 eax
  00227	e8 00 00 00 00	 call	 ?GetMousePosition@CWindowManager@UI@@QAEXAAJ0@Z ; UI::CWindowManager::GetMousePosition

; 253  : 		m_pyGraphic.SetCursorPosition(lx, ly);

  0022c	ff 74 24 20	 push	 DWORD PTR _ly$5[esp+80]
  00230	8b cf		 mov	 ecx, edi
  00232	ff 74 24 20	 push	 DWORD PTR _lx$3[esp+84]
  00236	e8 00 00 00 00	 call	 ?SetCursorPosition@CPythonGraphic@@QAEXHH@Z ; CPythonGraphic::SetCursorPosition

; 254  : 	}
; 255  : 
; 256  : 	m_pyBackground.RenderSky();

  0023b	8b ce		 mov	 ecx, esi
  0023d	e8 00 00 00 00	 call	 ?RenderSky@CPythonBackground@@QAEXXZ ; CPythonBackground::RenderSky

; 257  : 	DWORD t7=ELTimer_GetMSec();

  00242	e8 00 00 00 00	 call	 ?ELTimer_GetMSec@@YAKXZ	; ELTimer_GetMSec

; 258  : 	m_pyBackground.RenderBeforeLensFlare();

  00247	8b ce		 mov	 ecx, esi
  00249	89 44 24 20	 mov	 DWORD PTR _t7$1$[esp+80], eax
  0024d	e8 00 00 00 00	 call	 ?RenderBeforeLensFlare@CPythonBackground@@QAEXXZ ; CPythonBackground::RenderBeforeLensFlare

; 259  : 	DWORD t8=ELTimer_GetMSec();

  00252	e8 00 00 00 00	 call	 ?ELTimer_GetMSec@@YAKXZ	; ELTimer_GetMSec

; 260  : 	m_pyBackground.RenderCloud();

  00257	8b ce		 mov	 ecx, esi
  00259	89 44 24 1c	 mov	 DWORD PTR _t8$1$[esp+80], eax
  0025d	e8 00 00 00 00	 call	 ?RenderCloud@CPythonBackground@@QAEXXZ ; CPythonBackground::RenderCloud

; 261  : 	DWORD t9=ELTimer_GetMSec();

  00262	e8 00 00 00 00	 call	 ?ELTimer_GetMSec@@YAKXZ	; ELTimer_GetMSec

; 262  : 	m_pyBackground.BeginEnvironment();

  00267	8b ce		 mov	 ecx, esi
  00269	89 44 24 3c	 mov	 DWORD PTR _t9$1$[esp+80], eax
  0026d	e8 00 00 00 00	 call	 ?BeginEnvironment@CMapManager@@QAEXXZ ; CMapManager::BeginEnvironment

; 263  : 	m_pyBackground.Render();

  00272	8b ce		 mov	 ecx, esi
  00274	e8 00 00 00 00	 call	 ?Render@CPythonBackground@@QAEXXZ ; CPythonBackground::Render

; 264  : 
; 265  : 	m_pyBackground.SetCharacterDirLight();

  00279	8b ce		 mov	 ecx, esi
  0027b	e8 00 00 00 00	 call	 ?SetCharacterDirLight@CPythonBackground@@QAEXXZ ; CPythonBackground::SetCharacterDirLight

; 266  : 	DWORD t10=ELTimer_GetMSec();

  00280	e8 00 00 00 00	 call	 ?ELTimer_GetMSec@@YAKXZ	; ELTimer_GetMSec

; 267  : 	m_kChrMgr.Render();

  00285	8b 4c 24 0c	 mov	 ecx, DWORD PTR tv470[esp+80]
  00289	89 44 24 40	 mov	 DWORD PTR _t10$1$[esp+80], eax
  0028d	e8 00 00 00 00	 call	 ?Render@CPythonCharacterManager@@QAEXXZ ; CPythonCharacterManager::Render

; 268  : 	DWORD t11=ELTimer_GetMSec();

  00292	e8 00 00 00 00	 call	 ?ELTimer_GetMSec@@YAKXZ	; ELTimer_GetMSec

; 269  : 
; 270  : 	m_pyBackground.SetBackgroundDirLight();

  00297	8b ce		 mov	 ecx, esi
  00299	89 44 24 0c	 mov	 DWORD PTR _t11$1$[esp+80], eax
  0029d	e8 00 00 00 00	 call	 ?SetBackgroundDirLight@CPythonBackground@@QAEXXZ ; CPythonBackground::SetBackgroundDirLight

; 271  : 	m_pyBackground.RenderWater();

  002a2	8b ce		 mov	 ecx, esi
  002a4	e8 00 00 00 00	 call	 ?RenderWater@CPythonBackground@@QAEXXZ ; CPythonBackground::RenderWater

; 272  : 	DWORD t12=ELTimer_GetMSec();

  002a9	e8 00 00 00 00	 call	 ?ELTimer_GetMSec@@YAKXZ	; ELTimer_GetMSec

; 273  : 	m_pyBackground.RenderEffect();

  002ae	8b ce		 mov	 ecx, esi
  002b0	89 44 24 44	 mov	 DWORD PTR _t12$1$[esp+80], eax
  002b4	e8 00 00 00 00	 call	 ?RenderEffect@CPythonBackground@@QAEXXZ ; CPythonBackground::RenderEffect

; 274  : 	DWORD t13=ELTimer_GetMSec();

  002b9	e8 00 00 00 00	 call	 ?ELTimer_GetMSec@@YAKXZ	; ELTimer_GetMSec
  002be	89 44 24 48	 mov	 DWORD PTR _t13$1$[esp+80], eax

; 275  : 	m_pyBackground.EndEnvironment();

  002c2	8b ce		 mov	 ecx, esi
  002c4	e8 00 00 00 00	 call	 ?EndEnvironment@CMapManager@@QAEXXZ ; CMapManager::EndEnvironment

; 276  : 	m_kEftMgr.Render();

  002c9	8b 4c 24 10	 mov	 ecx, DWORD PTR tv473[esp+80]
  002cd	e8 00 00 00 00	 call	 ?Render@CEffectManager@@QAEXXZ ; CEffectManager::Render

; 277  : 	DWORD t14=ELTimer_GetMSec();

  002d2	e8 00 00 00 00	 call	 ?ELTimer_GetMSec@@YAKXZ	; ELTimer_GetMSec

; 278  : 	m_pyItem.Render();

  002d7	8b 4c 24 14	 mov	 ecx, DWORD PTR tv472[esp+80]
  002db	89 44 24 10	 mov	 DWORD PTR _t14$1$[esp+80], eax
  002df	e8 00 00 00 00	 call	 ?Render@CPythonItem@@QAEXXZ ; CPythonItem::Render

; 279  : 	DWORD t15=ELTimer_GetMSec();

  002e4	e8 00 00 00 00	 call	 ?ELTimer_GetMSec@@YAKXZ	; ELTimer_GetMSec

; 280  : 	m_FlyingManager.Render();

  002e9	8b 4c 24 18	 mov	 ecx, DWORD PTR tv471[esp+80]
  002ed	89 44 24 14	 mov	 DWORD PTR _t15$1$[esp+80], eax
  002f1	e8 00 00 00 00	 call	 ?Render@CFlyingManager@@QAEXXZ ; CFlyingManager::Render

; 281  : 	DWORD t16=ELTimer_GetMSec();

  002f6	e8 00 00 00 00	 call	 ?ELTimer_GetMSec@@YAKXZ	; ELTimer_GetMSec

; 282  : 	m_pyBackground.BeginEnvironment();

  002fb	8b ce		 mov	 ecx, esi
  002fd	89 44 24 18	 mov	 DWORD PTR _t16$1$[esp+80], eax
  00301	e8 00 00 00 00	 call	 ?BeginEnvironment@CMapManager@@QAEXXZ ; CMapManager::BeginEnvironment

; 283  : 	m_pyBackground.RenderPCBlocker();

  00306	8b ce		 mov	 ecx, esi
  00308	e8 00 00 00 00	 call	 ?RenderPCBlocker@CPythonBackground@@QAEXXZ ; CPythonBackground::RenderPCBlocker

; 284  : 	m_pyBackground.EndEnvironment();

  0030d	8b ce		 mov	 ecx, esi
  0030f	e8 00 00 00 00	 call	 ?EndEnvironment@CMapManager@@QAEXXZ ; CMapManager::EndEnvironment

; 285  : 	DWORD t17=ELTimer_GetMSec();

  00314	e8 00 00 00 00	 call	 ?ELTimer_GetMSec@@YAKXZ	; ELTimer_GetMSec

; 286  : 	m_pyBackground.RenderAfterLensFlare();

  00319	8b ce		 mov	 ecx, esi
  0031b	89 44 24 4c	 mov	 DWORD PTR _t17$1$[esp+80], eax
  0031f	e8 00 00 00 00	 call	 ?RenderAfterLensFlare@CPythonBackground@@QAEXXZ ; CPythonBackground::RenderAfterLensFlare

; 287  : 	DWORD t18=ELTimer_GetMSec();

  00324	e8 00 00 00 00	 call	 ?ELTimer_GetMSec@@YAKXZ	; ELTimer_GetMSec
  00329	8b d8		 mov	 ebx, eax

; 288  : 	DWORD tEnd=ELTimer_GetMSec();

  0032b	e8 00 00 00 00	 call	 ?ELTimer_GetMSec@@YAKXZ	; ELTimer_GetMSec

; 289  : 
; 290  : 	if (GetAsyncKeyState(VK_Z))

  00330	6a 5a		 push	 90			; 0000005aH
  00332	8b f0		 mov	 esi, eax
  00334	ff 15 00 00 00
	00		 call	 DWORD PTR __imp__GetAsyncKeyState@4
  0033a	66 85 c0	 test	 ax, ax
  0033d	74 0f		 je	 SHORT $LN4@RenderGame

; 291  : 		STATEMANAGER.SetRenderState(D3DRS_FILLMODE, D3DFILL_SOLID);

  0033f	8b 0d 00 00 00
	00		 mov	 ecx, DWORD PTR ?ms_singleton@?$CSingleton@VCStateManager@@@@0PAVCStateManager@@A ; CSingleton<CStateManager>::ms_singleton
  00345	6a 03		 push	 3
  00347	6a 08		 push	 8
  00349	e8 00 00 00 00	 call	 ?SetRenderState@CStateManager@@QAEXW4_D3DRENDERSTATETYPE@@K@Z ; CStateManager::SetRenderState
$LN4@RenderGame:

; 292  : 
; 293  : 	if (tEnd-t1<3)

  0034e	8b 7c 24 24	 mov	 edi, DWORD PTR _t1$1$[esp+80]
  00352	2b f7		 sub	 esi, edi
  00354	83 fe 03	 cmp	 esi, 3
  00357	0f 82 14 02 00
	00		 jb	 $LN1@RenderGame

; 294  : 		return;
; 295  : 
; 296  : 	static FILE* fp=fopen("perf_game_render.txt", "w");

  0035d	64 a1 00 00 00
	00		 mov	 eax, DWORD PTR fs:__tls_array
  00363	8b 08		 mov	 ecx, DWORD PTR [eax]
  00365	a1 00 00 00 00	 mov	 eax, DWORD PTR ?$TSS0@?1??RenderGame@CPythonApplication@@QAEXXZ@4HA
  0036a	3b 81 00 00 00
	00		 cmp	 eax, DWORD PTR __Init_thread_epoch[ecx]
  00370	0f 8f 02 02 00
	00		 jg	 $LN10@RenderGame
$LN2@RenderGame:

; 297  : 
; 298  : 	fprintf(fp, "GR.Total %d (Time %d)\n", tEnd-t1, ELTimer_GetMSec());

  00376	e8 00 00 00 00	 call	 ?ELTimer_GetMSec@@YAKXZ	; ELTimer_GetMSec
  0037b	50		 push	 eax
  0037c	56		 push	 esi
  0037d	68 00 00 00 00	 push	 OFFSET ??_C@_0BH@GCCBAEAA@GR?4Total?5?$CFd?5?$CITime?5?$CFd?$CJ?6@
  00382	ff 35 00 00 00
	00		 push	 DWORD PTR ?fp@?1??RenderGame@CPythonApplication@@QAEXXZ@4PAU_iobuf@@A
  00388	e8 00 00 00 00	 call	 _fprintf

; 299  : 	fprintf(fp, "GR.DFM %d\n", t2-t1);

  0038d	8b 44 24 38	 mov	 eax, DWORD PTR _t2$1$[esp+96]
  00391	2b c7		 sub	 eax, edi
  00393	50		 push	 eax
  00394	68 00 00 00 00	 push	 OFFSET ??_C@_0L@EGAPCDKD@GR?4DFM?5?$CFd?6@
  00399	ff 35 00 00 00
	00		 push	 DWORD PTR ?fp@?1??RenderGame@CPythonApplication@@QAEXXZ@4PAU_iobuf@@A
  0039f	e8 00 00 00 00	 call	 _fprintf

; 300  : 	fprintf(fp, "GR.EFT.UP %d\n", t3-t2);

  003a4	8b 44 24 48	 mov	 eax, DWORD PTR _t3$1$[esp+108]
  003a8	83 c4 1c	 add	 esp, 28			; 0000001cH
  003ab	2b 44 24 28	 sub	 eax, DWORD PTR _t2$1$[esp+80]
  003af	50		 push	 eax
  003b0	68 00 00 00 00	 push	 OFFSET ??_C@_0O@PLGAMGBI@GR?4EFT?4UP?5?$CFd?6@
  003b5	ff 35 00 00 00
	00		 push	 DWORD PTR ?fp@?1??RenderGame@CPythonApplication@@QAEXXZ@4PAU_iobuf@@A
  003bb	e8 00 00 00 00	 call	 _fprintf

; 301  : 	fprintf(fp, "GR.SHW %d\n", t4-t3);

  003c0	8b 44 24 3c	 mov	 eax, DWORD PTR _t4$1$[esp+92]
  003c4	83 c4 0c	 add	 esp, 12			; 0000000cH
  003c7	2b 44 24 2c	 sub	 eax, DWORD PTR _t3$1$[esp+80]
  003cb	50		 push	 eax
  003cc	68 00 00 00 00	 push	 OFFSET ??_C@_0L@MCADEBDB@GR?4SHW?5?$CFd?6@
  003d1	ff 35 00 00 00
	00		 push	 DWORD PTR ?fp@?1??RenderGame@CPythonApplication@@QAEXXZ@4PAU_iobuf@@A
  003d7	e8 00 00 00 00	 call	 _fprintf

; 302  : 	fprintf(fp, "GR.STT %d\n", t5-t4);

  003dc	8b 44 24 40	 mov	 eax, DWORD PTR _t5$1$[esp+92]
  003e0	83 c4 0c	 add	 esp, 12			; 0000000cH
  003e3	2b 44 24 30	 sub	 eax, DWORD PTR _t4$1$[esp+80]
  003e7	50		 push	 eax
  003e8	68 00 00 00 00	 push	 OFFSET ??_C@_0L@OEOJMFCF@GR?4STT?5?$CFd?6@
  003ed	ff 35 00 00 00
	00		 push	 DWORD PTR ?fp@?1??RenderGame@CPythonApplication@@QAEXXZ@4PAU_iobuf@@A
  003f3	e8 00 00 00 00	 call	 _fprintf

; 303  : 	fprintf(fp, "GR.CLL %d\n", t6-t5);

  003f8	8b 44 24 44	 mov	 eax, DWORD PTR _t6$1$[esp+92]
  003fc	83 c4 0c	 add	 esp, 12			; 0000000cH
  003ff	2b 44 24 34	 sub	 eax, DWORD PTR _t5$1$[esp+80]
  00403	50		 push	 eax
  00404	68 00 00 00 00	 push	 OFFSET ??_C@_0L@CDOGKGFB@GR?4CLL?5?$CFd?6@
  00409	ff 35 00 00 00
	00		 push	 DWORD PTR ?fp@?1??RenderGame@CPythonApplication@@QAEXXZ@4PAU_iobuf@@A
  0040f	e8 00 00 00 00	 call	 _fprintf

; 304  : 	fprintf(fp, "GR.BG.SKY %d\n", t7-t6);

  00414	8b 44 24 2c	 mov	 eax, DWORD PTR _t7$1$[esp+92]
  00418	83 c4 0c	 add	 esp, 12			; 0000000cH
  0041b	2b 44 24 38	 sub	 eax, DWORD PTR _t6$1$[esp+80]
  0041f	50		 push	 eax
  00420	68 00 00 00 00	 push	 OFFSET ??_C@_0O@HPKPMDPE@GR?4BG?4SKY?5?$CFd?6@
  00425	ff 35 00 00 00
	00		 push	 DWORD PTR ?fp@?1??RenderGame@CPythonApplication@@QAEXXZ@4PAU_iobuf@@A
  0042b	e8 00 00 00 00	 call	 _fprintf

; 305  : 	fprintf(fp, "GR.BG.LEN %d\n", t8-t7);

  00430	8b 44 24 28	 mov	 eax, DWORD PTR _t8$1$[esp+92]
  00434	83 c4 0c	 add	 esp, 12			; 0000000cH
  00437	2b 44 24 20	 sub	 eax, DWORD PTR _t7$1$[esp+80]
  0043b	50		 push	 eax
  0043c	68 00 00 00 00	 push	 OFFSET ??_C@_0O@JENIKJAN@GR?4BG?4LEN?5?$CFd?6@
  00441	ff 35 00 00 00
	00		 push	 DWORD PTR ?fp@?1??RenderGame@CPythonApplication@@QAEXXZ@4PAU_iobuf@@A
  00447	e8 00 00 00 00	 call	 _fprintf

; 306  : 	fprintf(fp, "GR.BG.CLD %d\n", t9-t8);

  0044c	8b 44 24 48	 mov	 eax, DWORD PTR _t9$1$[esp+92]
  00450	83 c4 0c	 add	 esp, 12			; 0000000cH
  00453	2b 44 24 1c	 sub	 eax, DWORD PTR _t8$1$[esp+80]
  00457	50		 push	 eax
  00458	68 00 00 00 00	 push	 OFFSET ??_C@_0O@HJPLNNBE@GR?4BG?4CLD?5?$CFd?6@
  0045d	ff 35 00 00 00
	00		 push	 DWORD PTR ?fp@?1??RenderGame@CPythonApplication@@QAEXXZ@4PAU_iobuf@@A
  00463	e8 00 00 00 00	 call	 _fprintf

; 307  : 	fprintf(fp, "GR.BG.MAIN %d\n", t10-t9);		

  00468	8b 44 24 4c	 mov	 eax, DWORD PTR _t10$1$[esp+92]
  0046c	83 c4 0c	 add	 esp, 12			; 0000000cH
  0046f	2b 44 24 3c	 sub	 eax, DWORD PTR _t9$1$[esp+80]
  00473	50		 push	 eax
  00474	68 00 00 00 00	 push	 OFFSET ??_C@_0P@EJKDFAIB@GR?4BG?4MAIN?5?$CFd?6@
  00479	ff 35 00 00 00
	00		 push	 DWORD PTR ?fp@?1??RenderGame@CPythonApplication@@QAEXXZ@4PAU_iobuf@@A
  0047f	e8 00 00 00 00	 call	 _fprintf

; 308  : 	fprintf(fp, "GR.CHR %d\n",	t11-t10);

  00484	8b 44 24 18	 mov	 eax, DWORD PTR _t11$1$[esp+92]
  00488	83 c4 0c	 add	 esp, 12			; 0000000cH
  0048b	2b 44 24 40	 sub	 eax, DWORD PTR _t10$1$[esp+80]
  0048f	50		 push	 eax
  00490	68 00 00 00 00	 push	 OFFSET ??_C@_0L@OOHFOBKJ@GR?4CHR?5?$CFd?6@
  00495	ff 35 00 00 00
	00		 push	 DWORD PTR ?fp@?1??RenderGame@CPythonApplication@@QAEXXZ@4PAU_iobuf@@A
  0049b	e8 00 00 00 00	 call	 _fprintf

; 309  : 	fprintf(fp, "GR.BG.WTR %d\n", t12-t11);

  004a0	8b 44 24 50	 mov	 eax, DWORD PTR _t12$1$[esp+92]
  004a4	83 c4 0c	 add	 esp, 12			; 0000000cH
  004a7	2b 44 24 0c	 sub	 eax, DWORD PTR _t11$1$[esp+80]
  004ab	50		 push	 eax
  004ac	68 00 00 00 00	 push	 OFFSET ??_C@_0O@LENBOK@GR?4BG?4WTR?5?$CFd?6@
  004b1	ff 35 00 00 00
	00		 push	 DWORD PTR ?fp@?1??RenderGame@CPythonApplication@@QAEXXZ@4PAU_iobuf@@A
  004b7	e8 00 00 00 00	 call	 _fprintf

; 310  : 	fprintf(fp, "GR.BG.EFT %d\n", t13-t12);

  004bc	8b 44 24 54	 mov	 eax, DWORD PTR _t13$1$[esp+92]
  004c0	83 c4 0c	 add	 esp, 12			; 0000000cH
  004c3	2b 44 24 44	 sub	 eax, DWORD PTR _t12$1$[esp+80]
  004c7	50		 push	 eax
  004c8	68 00 00 00 00	 push	 OFFSET ??_C@_0O@BIDCIJEG@GR?4BG?4EFT?5?$CFd?6@
  004cd	ff 35 00 00 00
	00		 push	 DWORD PTR ?fp@?1??RenderGame@CPythonApplication@@QAEXXZ@4PAU_iobuf@@A
  004d3	e8 00 00 00 00	 call	 _fprintf

; 311  : 	fprintf(fp, "GR.EFT %d\n", t14-t13);

  004d8	8b 44 24 1c	 mov	 eax, DWORD PTR _t14$1$[esp+92]
  004dc	83 c4 0c	 add	 esp, 12			; 0000000cH
  004df	2b 44 24 48	 sub	 eax, DWORD PTR _t13$1$[esp+80]
  004e3	50		 push	 eax
  004e4	68 00 00 00 00	 push	 OFFSET ??_C@_0L@KOHMHAGO@GR?4EFT?5?$CFd?6@
  004e9	ff 35 00 00 00
	00		 push	 DWORD PTR ?fp@?1??RenderGame@CPythonApplication@@QAEXXZ@4PAU_iobuf@@A
  004ef	e8 00 00 00 00	 call	 _fprintf

; 312  : 	fprintf(fp, "GR.ITM %d\n", t15-t14);

  004f4	8b 44 24 20	 mov	 eax, DWORD PTR _t15$1$[esp+92]
  004f8	83 c4 0c	 add	 esp, 12			; 0000000cH
  004fb	2b 44 24 10	 sub	 eax, DWORD PTR _t14$1$[esp+80]
  004ff	50		 push	 eax
  00500	68 00 00 00 00	 push	 OFFSET ??_C@_0L@CNELLLJF@GR?4ITM?5?$CFd?6@
  00505	ff 35 00 00 00
	00		 push	 DWORD PTR ?fp@?1??RenderGame@CPythonApplication@@QAEXXZ@4PAU_iobuf@@A
  0050b	e8 00 00 00 00	 call	 _fprintf

; 313  : 	fprintf(fp, "GR.FLY %d\n", t16-t15);

  00510	8b 44 24 24	 mov	 eax, DWORD PTR _t16$1$[esp+92]
  00514	83 c4 0c	 add	 esp, 12			; 0000000cH
  00517	2b 44 24 14	 sub	 eax, DWORD PTR _t15$1$[esp+80]
  0051b	50		 push	 eax
  0051c	68 00 00 00 00	 push	 OFFSET ??_C@_0L@DIBNDLBN@GR?4FLY?5?$CFd?6@
  00521	ff 35 00 00 00
	00		 push	 DWORD PTR ?fp@?1??RenderGame@CPythonApplication@@QAEXXZ@4PAU_iobuf@@A
  00527	e8 00 00 00 00	 call	 _fprintf

; 314  : 	fprintf(fp, "GR.BG.BLK %d\n", t17-t16);

  0052c	8b 44 24 58	 mov	 eax, DWORD PTR _t17$1$[esp+92]
  00530	83 c4 0c	 add	 esp, 12			; 0000000cH
  00533	2b 44 24 18	 sub	 eax, DWORD PTR _t16$1$[esp+80]
  00537	50		 push	 eax
  00538	68 00 00 00 00	 push	 OFFSET ??_C@_0O@EEAHGPFP@GR?4BG?4BLK?5?$CFd?6@
  0053d	ff 35 00 00 00
	00		 push	 DWORD PTR ?fp@?1??RenderGame@CPythonApplication@@QAEXXZ@4PAU_iobuf@@A
  00543	e8 00 00 00 00	 call	 _fprintf

; 315  : 	fprintf(fp, "GR.BG.LEN %d\n", t18-t17);

  00548	2b 5c 24 58	 sub	 ebx, DWORD PTR _t17$1$[esp+92]
  0054c	83 c4 0c	 add	 esp, 12			; 0000000cH
  0054f	53		 push	 ebx
  00550	68 00 00 00 00	 push	 OFFSET ??_C@_0O@JENIKJAN@GR?4BG?4LEN?5?$CFd?6@
  00555	ff 35 00 00 00
	00		 push	 DWORD PTR ?fp@?1??RenderGame@CPythonApplication@@QAEXXZ@4PAU_iobuf@@A
  0055b	e8 00 00 00 00	 call	 _fprintf
  00560	83 c4 0c	 add	 esp, 12			; 0000000cH

; 316  : 
; 317  : 
; 318  : 	fflush(fp);

  00563	ff 35 00 00 00
	00		 push	 DWORD PTR ?fp@?1??RenderGame@CPythonApplication@@QAEXXZ@4PAU_iobuf@@A
  00569	e8 00 00 00 00	 call	 _fflush
  0056e	83 c4 04	 add	 esp, 4
$LN1@RenderGame:

; 319  : }

  00571	5f		 pop	 edi
  00572	5e		 pop	 esi
  00573	5b		 pop	 ebx
  00574	8b e5		 mov	 esp, ebp
  00576	5d		 pop	 ebp
  00577	c3		 ret	 0
$LN10@RenderGame:

; 294  : 		return;
; 295  : 
; 296  : 	static FILE* fp=fopen("perf_game_render.txt", "w");

  00578	68 00 00 00 00	 push	 OFFSET ?$TSS0@?1??RenderGame@CPythonApplication@@QAEXXZ@4HA
  0057d	e8 00 00 00 00	 call	 __Init_thread_header
  00582	83 c4 04	 add	 esp, 4
  00585	83 3d 00 00 00
	00 ff		 cmp	 DWORD PTR ?$TSS0@?1??RenderGame@CPythonApplication@@QAEXXZ@4HA, -1
  0058c	0f 85 e4 fd ff
	ff		 jne	 $LN2@RenderGame
  00592	68 00 00 00 00	 push	 OFFSET ??_C@_01NOFIACDB@w@
  00597	68 00 00 00 00	 push	 OFFSET ??_C@_0BF@OHHAPIAL@perf_game_render?4txt@
  0059c	e8 00 00 00 00	 call	 _fopen
  005a1	68 00 00 00 00	 push	 OFFSET ?$TSS0@?1??RenderGame@CPythonApplication@@QAEXXZ@4HA
  005a6	a3 00 00 00 00	 mov	 DWORD PTR ?fp@?1??RenderGame@CPythonApplication@@QAEXXZ@4PAU_iobuf@@A, eax
  005ab	e8 00 00 00 00	 call	 __Init_thread_footer
  005b0	83 c4 0c	 add	 esp, 12			; 0000000cH
  005b3	e9 be fd ff ff	 jmp	 $LN2@RenderGame
?RenderGame@CPythonApplication@@QAEXXZ ENDP		; CPythonApplication::RenderGame
_TEXT	ENDS
; Function compile flags: /Ogtp
; File D:\_m2work\txoko-m2-work\txoko-client-src\source\UserInterface\PythonApplication.cpp
;	COMDAT ?UpdateGame@CPythonApplication@@QAEXXZ
_TEXT	SEGMENT
_kPPosMainActor$ = -80					; size = 12
_ptMouse$ = -68						; size = 8
_t11$1$ = -60						; size = 4
_t10$1$ = -56						; size = 4
_t9$1$ = -52						; size = 4
_t8$1$ = -48						; size = 4
_t7$1$ = -44						; size = 4
_t6$1$ = -40						; size = 4
_t5$1$ = -36						; size = 4
_t4$1$ = -32						; size = 4
_t2$1$ = -28						; size = 4
_t1$1$ = -24						; size = 4
_fAspect$2 = -20					; size = 4
_t3$1$ = -20						; size = 4
_s$3 = -16						; size = 4
__$EHRec$ = -12						; size = 12
?UpdateGame@CPythonApplication@@QAEXXZ PROC		; CPythonApplication::UpdateGame, COMDAT
; _this$ = ecx

; 322  : {

  00000	55		 push	 ebp
  00001	8b ec		 mov	 ebp, esp
  00003	6a ff		 push	 -1
  00005	68 00 00 00 00	 push	 __ehhandler$?UpdateGame@CPythonApplication@@QAEXXZ
  0000a	64 a1 00 00 00
	00		 mov	 eax, DWORD PTR fs:0
  00010	50		 push	 eax
  00011	83 ec 44	 sub	 esp, 68			; 00000044H
  00014	53		 push	 ebx
  00015	56		 push	 esi
  00016	57		 push	 edi
  00017	a1 00 00 00 00	 mov	 eax, DWORD PTR ___security_cookie
  0001c	33 c5		 xor	 eax, ebp
  0001e	50		 push	 eax
  0001f	8d 45 f4	 lea	 eax, DWORD PTR __$EHRec$[ebp]
  00022	64 a3 00 00 00
	00		 mov	 DWORD PTR fs:0, eax
  00028	8b f9		 mov	 edi, ecx

; 323  : 	DWORD t1=ELTimer_GetMSec();

  0002a	e8 00 00 00 00	 call	 ?ELTimer_GetMSec@@YAKXZ	; ELTimer_GetMSec

; 324  : 	POINT ptMouse;
; 325  : 	GetMousePosition(&ptMouse);

  0002f	8b 57 20	 mov	 edx, DWORD PTR [edi+32]
  00032	8d 4f 20	 lea	 ecx, DWORD PTR [edi+32]
  00035	89 45 e8	 mov	 DWORD PTR _t1$1$[ebp], eax
  00038	8d 45 bc	 lea	 eax, DWORD PTR _ptMouse$[ebp]
  0003b	50		 push	 eax
  0003c	ff 52 04	 call	 DWORD PTR [edx+4]

; 326  : 
; 327  : 	CGraphicTextInstance::Hyperlink_UpdateMousePos(ptMouse.x, ptMouse.y);

  0003f	ff 75 c0	 push	 DWORD PTR _ptMouse$[ebp+4]
  00042	ff 75 bc	 push	 DWORD PTR _ptMouse$[ebp]
  00045	e8 00 00 00 00	 call	 ?Hyperlink_UpdateMousePos@CGraphicTextInstance@@SAXHH@Z ; CGraphicTextInstance::Hyperlink_UpdateMousePos
  0004a	83 c4 08	 add	 esp, 8

; 328  : 
; 329  : 	DWORD t2=ELTimer_GetMSec();

  0004d	e8 00 00 00 00	 call	 ?ELTimer_GetMSec@@YAKXZ	; ELTimer_GetMSec

; 330  : 
; 331  : 	//!@# Alt+Tab  SetTransfor      - [levites]
; 332  : 	//if (m_isActivateWnd)
; 333  : 	{
; 334  : 		CScreen s;

  00052	8d 4d f0	 lea	 ecx, DWORD PTR _s$3[ebp]
  00055	89 45 e4	 mov	 DWORD PTR _t2$1$[ebp], eax
  00058	e8 00 00 00 00	 call	 ??0CScreen@@QAE@XZ	; CScreen::CScreen
  0005d	c7 45 fc 00 00
	00 00		 mov	 DWORD PTR __$EHRec$[ebp+8], 0

; 335  : 		float fAspect = UI::CWindowManager::Instance().GetAspect();

  00064	8b 0d 00 00 00
	00		 mov	 ecx, DWORD PTR ?ms_singleton@?$CSingleton@VCWindowManager@UI@@@@0PAVCWindowManager@UI@@A ; CSingleton<UI::CWindowManager>::ms_singleton
  0006a	e8 00 00 00 00	 call	 ?GetAspect@CWindowManager@UI@@QAEMXZ ; UI::CWindowManager::GetAspect

; 336  : 		float fFarClip = CPythonBackground::Instance().GetFarClip();

  0006f	8b 0d 00 00 00
	00		 mov	 ecx, DWORD PTR ?ms_singleton@?$CSingleton@VCPythonBackground@@@@0PAVCPythonBackground@@A ; CSingleton<CPythonBackground>::ms_singleton
  00075	d9 5d ec	 fstp	 DWORD PTR _fAspect$2[ebp]
  00078	e8 00 00 00 00	 call	 ?GetFarClip@CPythonBackground@@QAEMXZ ; CPythonBackground::GetFarClip

; 337  : 
; 338  : 		s.SetPerspective(30.0f,fAspect, 100.0f, fFarClip);

  0007d	83 ec 10	 sub	 esp, 16			; 00000010H
  00080	8d 4d f0	 lea	 ecx, DWORD PTR _s$3[ebp]
  00083	f3 0f 11 44 24
	0c		 movss	 DWORD PTR [esp+12], xmm0
  00089	f3 0f 10 45 ec	 movss	 xmm0, DWORD PTR _fAspect$2[ebp]
  0008e	c7 44 24 08 00
	00 c8 42	 mov	 DWORD PTR [esp+8], 1120403456 ; 42c80000H
  00096	f3 0f 11 44 24
	04		 movss	 DWORD PTR [esp+4], xmm0
  0009c	c7 04 24 00 00
	f0 41		 mov	 DWORD PTR [esp], 1106247680 ; 41f00000H
  000a3	e8 00 00 00 00	 call	 ?SetPerspective@CGraphicBase@@QAEXMMMM@Z ; CGraphicBase::SetPerspective

; 339  : 		s.BuildViewFrustum();

  000a8	8d 4d f0	 lea	 ecx, DWORD PTR _s$3[ebp]
  000ab	e8 00 00 00 00	 call	 ?BuildViewFrustum@CScreen@@QAEXXZ ; CScreen::BuildViewFrustum

; 340  : 	}

  000b0	8d 4d f0	 lea	 ecx, DWORD PTR _s$3[ebp]
  000b3	c7 45 fc ff ff
	ff ff		 mov	 DWORD PTR __$EHRec$[ebp+8], -1
  000ba	e8 00 00 00 00	 call	 ??1CScreen@@UAE@XZ	; CScreen::~CScreen

; 341  : 
; 342  : 	DWORD t3=ELTimer_GetMSec();

  000bf	e8 00 00 00 00	 call	 ?ELTimer_GetMSec@@YAKXZ	; ELTimer_GetMSec
  000c4	89 45 ec	 mov	 DWORD PTR _t3$1$[ebp], eax

; 343  : 	TPixelPosition kPPosMainActor;
; 344  : 	m_pyPlayer.NEW_GetMainActorPosition(&kPPosMainActor);

  000c7	8d 45 b0	 lea	 eax, DWORD PTR _kPPosMainActor$[ebp]
  000ca	50		 push	 eax
  000cb	e8 00 00 00 00	 call	 ?NEW_GetMainActorPosition@CPythonPlayer@@QAEXPAUD3DXVECTOR3@@@Z ; CPythonPlayer::NEW_GetMainActorPosition

; 345  : 
; 346  : 	DWORD t4=ELTimer_GetMSec();

  000d0	e8 00 00 00 00	 call	 ?ELTimer_GetMSec@@YAKXZ	; ELTimer_GetMSec

; 347  : 	m_pyBackground.Update(kPPosMainActor.x, kPPosMainActor.y, kPPosMainActor.z);

  000d5	f3 0f 10 5d b8	 movss	 xmm3, DWORD PTR _kPPosMainActor$[ebp+8]
  000da	8d 8f 78 b9 01
	00		 lea	 ecx, DWORD PTR [edi+113016]
  000e0	f3 0f 10 55 b4	 movss	 xmm2, DWORD PTR _kPPosMainActor$[ebp+4]
  000e5	f3 0f 10 4d b0	 movss	 xmm1, DWORD PTR _kPPosMainActor$[ebp]
  000ea	89 45 e0	 mov	 DWORD PTR _t4$1$[ebp], eax
  000ed	e8 00 00 00 00	 call	 ?Update@CPythonBackground@@QAEXMMM@Z ; CPythonBackground::Update

; 348  : 
; 349  : 	DWORD t5=ELTimer_GetMSec();

  000f2	e8 00 00 00 00	 call	 ?ELTimer_GetMSec@@YAKXZ	; ELTimer_GetMSec

; 350  : 	m_GameEventManager.SetCenterPosition(kPPosMainActor.x, kPPosMainActor.y, kPPosMainActor.z);

  000f7	f3 0f 10 45 b8	 movss	 xmm0, DWORD PTR _kPPosMainActor$[ebp+8]
  000fc	8d 8f b8 01 00
	00		 lea	 ecx, DWORD PTR [edi+440]
  00102	83 ec 0c	 sub	 esp, 12			; 0000000cH
  00105	89 45 dc	 mov	 DWORD PTR _t5$1$[ebp], eax
  00108	f3 0f 11 44 24
	08		 movss	 DWORD PTR [esp+8], xmm0
  0010e	f3 0f 10 45 b4	 movss	 xmm0, DWORD PTR _kPPosMainActor$[ebp+4]
  00113	f3 0f 11 44 24
	04		 movss	 DWORD PTR [esp+4], xmm0
  00119	f3 0f 10 45 b0	 movss	 xmm0, DWORD PTR _kPPosMainActor$[ebp]
  0011e	f3 0f 11 04 24	 movss	 DWORD PTR [esp], xmm0
  00123	e8 00 00 00 00	 call	 ?SetCenterPosition@CGameEventManager@@QAEXMMM@Z ; CGameEventManager::SetCenterPosition

; 351  : 	m_GameEventManager.Update();

  00128	8d 8f b8 01 00
	00		 lea	 ecx, DWORD PTR [edi+440]
  0012e	e8 00 00 00 00	 call	 ?Update@CGameEventManager@@QAEXXZ ; CGameEventManager::Update

; 352  : 
; 353  : 	DWORD t6=ELTimer_GetMSec();

  00133	e8 00 00 00 00	 call	 ?ELTimer_GetMSec@@YAKXZ	; ELTimer_GetMSec

; 354  : 	m_kChrMgr.Update();	

  00138	8d 8f d8 02 00
	00		 lea	 ecx, DWORD PTR [edi+728]
  0013e	89 45 d8	 mov	 DWORD PTR _t6$1$[ebp], eax
  00141	e8 00 00 00 00	 call	 ?Update@CPythonCharacterManager@@QAEXXZ ; CPythonCharacterManager::Update

; 355  : 	DWORD t7=ELTimer_GetMSec();

  00146	e8 00 00 00 00	 call	 ?ELTimer_GetMSec@@YAKXZ	; ELTimer_GetMSec

; 356  : 	m_kEftMgr.UpdateSound();

  0014b	8d 8f b0 02 00
	00		 lea	 ecx, DWORD PTR [edi+688]
  00151	89 45 d4	 mov	 DWORD PTR _t7$1$[ebp], eax
  00154	e8 00 00 00 00	 call	 ?UpdateSound@CEffectManager@@QAEXXZ ; CEffectManager::UpdateSound

; 357  : 	DWORD t8=ELTimer_GetMSec();

  00159	e8 00 00 00 00	 call	 ?ELTimer_GetMSec@@YAKXZ	; ELTimer_GetMSec

; 358  : 	m_FlyingManager.Update();

  0015e	8d 8f 5c 01 00
	00		 lea	 ecx, DWORD PTR [edi+348]
  00164	89 45 d0	 mov	 DWORD PTR _t8$1$[ebp], eax
  00167	e8 00 00 00 00	 call	 ?Update@CFlyingManager@@QAEXXZ ; CFlyingManager::Update

; 359  : 	DWORD t9=ELTimer_GetMSec();

  0016c	e8 00 00 00 00	 call	 ?ELTimer_GetMSec@@YAKXZ	; ELTimer_GetMSec
  00171	89 45 cc	 mov	 DWORD PTR _t9$1$[ebp], eax

; 360  : 	m_pyItem.Update(ptMouse);

  00174	8d 8f 0c 92 01
	00		 lea	 ecx, DWORD PTR [edi+102924]
  0017a	8d 45 bc	 lea	 eax, DWORD PTR _ptMouse$[ebp]
  0017d	50		 push	 eax
  0017e	e8 00 00 00 00	 call	 ?Update@CPythonItem@@QAEXABUtagPOINT@@@Z ; CPythonItem::Update

; 361  : 	DWORD t10=ELTimer_GetMSec();

  00183	e8 00 00 00 00	 call	 ?ELTimer_GetMSec@@YAKXZ	; ELTimer_GetMSec
  00188	89 45 c8	 mov	 DWORD PTR _t10$1$[ebp], eax

; 362  : 	m_pyPlayer.Update();

  0018b	8d 8f 90 81 00
	00		 lea	 ecx, DWORD PTR [edi+33168]
  00191	e8 00 00 00 00	 call	 ?Update@CPythonPlayer@@QAEXXZ ; CPythonPlayer::Update

; 363  : 	DWORD t11=ELTimer_GetMSec();

  00196	e8 00 00 00 00	 call	 ?ELTimer_GetMSec@@YAKXZ	; ELTimer_GetMSec
  0019b	89 45 c4	 mov	 DWORD PTR _t11$1$[ebp], eax

; 364  : 
; 365  : 	// NOTE : Update        - [levites]
; 366  : 	//             Sound      .
; 367  : 	m_pyPlayer.NEW_GetMainActorPosition(&kPPosMainActor);

  0019e	8d 45 b0	 lea	 eax, DWORD PTR _kPPosMainActor$[ebp]
  001a1	50		 push	 eax
  001a2	e8 00 00 00 00	 call	 ?NEW_GetMainActorPosition@CPythonPlayer@@QAEXPAUD3DXVECTOR3@@@Z ; CPythonPlayer::NEW_GetMainActorPosition

; 368  : 	SetCenterPosition(kPPosMainActor.x, kPPosMainActor.y, kPPosMainActor.z);

  001a7	f3 0f 10 45 b8	 movss	 xmm0, DWORD PTR _kPPosMainActor$[ebp+8]
  001ac	83 ec 0c	 sub	 esp, 12			; 0000000cH
  001af	8b 4f 20	 mov	 ecx, DWORD PTR [edi+32]
  001b2	f3 0f 11 44 24
	08		 movss	 DWORD PTR [esp+8], xmm0
  001b8	f3 0f 10 45 b4	 movss	 xmm0, DWORD PTR _kPPosMainActor$[ebp+4]
  001bd	8b 51 18	 mov	 edx, DWORD PTR [ecx+24]
  001c0	8d 4f 20	 lea	 ecx, DWORD PTR [edi+32]
  001c3	f3 0f 11 44 24
	04		 movss	 DWORD PTR [esp+4], xmm0
  001c9	f3 0f 10 45 b0	 movss	 xmm0, DWORD PTR _kPPosMainActor$[ebp]
  001ce	f3 0f 11 04 24	 movss	 DWORD PTR [esp], xmm0
  001d3	ff d2		 call	 edx

; 369  : 	DWORD t12=ELTimer_GetMSec();

  001d5	e8 00 00 00 00	 call	 ?ELTimer_GetMSec@@YAKXZ	; ELTimer_GetMSec

; 370  : 
; 371  : 	if (PERF_CHECKER_RENDER_GAME)

  001da	80 3d 00 00 00
	00 00		 cmp	 BYTE PTR ?PERF_CHECKER_RENDER_GAME@@3_NA, 0 ; PERF_CHECKER_RENDER_GAME
  001e1	8b f8		 mov	 edi, eax
  001e3	0f 84 4e 01 00
	00		 je	 $LN4@UpdateGame

; 372  : 	{
; 373  : 		if (t12-t1>5)

  001e9	8b 5d e8	 mov	 ebx, DWORD PTR _t1$1$[ebp]
  001ec	8b f7		 mov	 esi, edi
  001ee	2b f3		 sub	 esi, ebx
  001f0	83 fe 05	 cmp	 esi, 5
  001f3	0f 86 3e 01 00
	00		 jbe	 $LN4@UpdateGame

; 374  : 		{
; 375  : 			static FILE* fp=fopen("perf_game_update.txt", "w");

  001f9	64 8b 0d 00 00
	00 00		 mov	 ecx, DWORD PTR fs:__tls_array
  00200	a1 00 00 00 00	 mov	 eax, DWORD PTR ?$TSS0@?8??UpdateGame@CPythonApplication@@QAEXXZ@4HA
  00205	8b 09		 mov	 ecx, DWORD PTR [ecx]
  00207	3b 81 00 00 00
	00		 cmp	 eax, DWORD PTR __Init_thread_epoch[ecx]
  0020d	0f 8f 36 01 00
	00		 jg	 $LN9@UpdateGame
$LN2@UpdateGame:

; 376  : 
; 377  : 			fprintf(fp, "GU.Total %d (Time %d)\n", t12-t1, ELTimer_GetMSec());

  00213	e8 00 00 00 00	 call	 ?ELTimer_GetMSec@@YAKXZ	; ELTimer_GetMSec
  00218	50		 push	 eax
  00219	56		 push	 esi
  0021a	68 00 00 00 00	 push	 OFFSET ??_C@_0BH@HPIDKEA@GU?4Total?5?$CFd?5?$CITime?5?$CFd?$CJ?6@
  0021f	ff 35 00 00 00
	00		 push	 DWORD PTR ?fp@?8??UpdateGame@CPythonApplication@@QAEXXZ@4PAU_iobuf@@A
  00225	e8 00 00 00 00	 call	 _fprintf

; 378  : 			fprintf(fp, "GU.GMP %d\n", t2-t1);

  0022a	8b 45 e4	 mov	 eax, DWORD PTR _t2$1$[ebp]
  0022d	2b c3		 sub	 eax, ebx
  0022f	50		 push	 eax
  00230	68 00 00 00 00	 push	 OFFSET ??_C@_0L@JHBDHKIG@GU?4GMP?5?$CFd?6@
  00235	ff 35 00 00 00
	00		 push	 DWORD PTR ?fp@?8??UpdateGame@CPythonApplication@@QAEXXZ@4PAU_iobuf@@A
  0023b	e8 00 00 00 00	 call	 _fprintf

; 379  : 			fprintf(fp, "GU.SCR %d\n", t3-t2);

  00240	8b 45 ec	 mov	 eax, DWORD PTR _t3$1$[ebp]
  00243	2b 45 e4	 sub	 eax, DWORD PTR _t2$1$[ebp]
  00246	50		 push	 eax
  00247	68 00 00 00 00	 push	 OFFSET ??_C@_0L@HCBFJPAB@GU?4SCR?5?$CFd?6@
  0024c	ff 35 00 00 00
	00		 push	 DWORD PTR ?fp@?8??UpdateGame@CPythonApplication@@QAEXXZ@4PAU_iobuf@@A
  00252	e8 00 00 00 00	 call	 _fprintf

; 380  : 			fprintf(fp, "GU.MPS %d\n", t4-t3);

  00257	8b 45 e0	 mov	 eax, DWORD PTR _t4$1$[ebp]
  0025a	2b 45 ec	 sub	 eax, DWORD PTR _t3$1$[ebp]
  0025d	50		 push	 eax
  0025e	68 00 00 00 00	 push	 OFFSET ??_C@_0L@IGEOOJOO@GU?4MPS?5?$CFd?6@
  00263	ff 35 00 00 00
	00		 push	 DWORD PTR ?fp@?8??UpdateGame@CPythonApplication@@QAEXXZ@4PAU_iobuf@@A
  00269	e8 00 00 00 00	 call	 _fprintf

; 381  : 			fprintf(fp, "GU.BG %d\n", t5-t4);

  0026e	8b 45 dc	 mov	 eax, DWORD PTR _t5$1$[ebp]
  00271	2b 45 e0	 sub	 eax, DWORD PTR _t4$1$[ebp]
  00274	50		 push	 eax
  00275	68 00 00 00 00	 push	 OFFSET ??_C@_09JGPPFKPH@GU?4BG?5?$CFd?6@
  0027a	ff 35 00 00 00
	00		 push	 DWORD PTR ?fp@?8??UpdateGame@CPythonApplication@@QAEXXZ@4PAU_iobuf@@A
  00280	e8 00 00 00 00	 call	 _fprintf

; 382  : 			fprintf(fp, "GU.GEM %d\n", t6-t5);

  00285	8b 45 d8	 mov	 eax, DWORD PTR _t6$1$[ebp]
  00288	83 c4 40	 add	 esp, 64			; 00000040H
  0028b	2b 45 dc	 sub	 eax, DWORD PTR _t5$1$[ebp]
  0028e	50		 push	 eax
  0028f	68 00 00 00 00	 push	 OFFSET ??_C@_0L@BLLECFKE@GU?4GEM?5?$CFd?6@
  00294	ff 35 00 00 00
	00		 push	 DWORD PTR ?fp@?8??UpdateGame@CPythonApplication@@QAEXXZ@4PAU_iobuf@@A
  0029a	e8 00 00 00 00	 call	 _fprintf

; 383  : 			fprintf(fp, "GU.CHR %d\n", t7-t6);

  0029f	8b 45 d4	 mov	 eax, DWORD PTR _t7$1$[ebp]
  002a2	2b 45 d8	 sub	 eax, DWORD PTR _t6$1$[ebp]
  002a5	50		 push	 eax
  002a6	68 00 00 00 00	 push	 OFFSET ??_C@_0L@MKJPKNA@GU?4CHR?5?$CFd?6@
  002ab	ff 35 00 00 00
	00		 push	 DWORD PTR ?fp@?8??UpdateGame@CPythonApplication@@QAEXXZ@4PAU_iobuf@@A
  002b1	e8 00 00 00 00	 call	 _fprintf

; 384  : 			fprintf(fp, "GU.EFT %d\n", t8-t7);

  002b6	8b 45 d0	 mov	 eax, DWORD PTR _t8$1$[ebp]
  002b9	2b 45 d4	 sub	 eax, DWORD PTR _t7$1$[ebp]
  002bc	50		 push	 eax
  002bd	68 00 00 00 00	 push	 OFFSET ??_C@_0L@EMKAGLBH@GU?4EFT?5?$CFd?6@
  002c2	ff 35 00 00 00
	00		 push	 DWORD PTR ?fp@?8??UpdateGame@CPythonApplication@@QAEXXZ@4PAU_iobuf@@A
  002c8	e8 00 00 00 00	 call	 _fprintf

; 385  : 			fprintf(fp, "GU.FLY %d\n", t9-t8);

  002cd	8b 45 cc	 mov	 eax, DWORD PTR _t9$1$[ebp]
  002d0	2b 45 d0	 sub	 eax, DWORD PTR _t8$1$[ebp]
  002d3	50		 push	 eax
  002d4	68 00 00 00 00	 push	 OFFSET ??_C@_0L@NKMBCAGE@GU?4FLY?5?$CFd?6@
  002d9	ff 35 00 00 00
	00		 push	 DWORD PTR ?fp@?8??UpdateGame@CPythonApplication@@QAEXXZ@4PAU_iobuf@@A
  002df	e8 00 00 00 00	 call	 _fprintf

; 386  : 			fprintf(fp, "GU.ITM %d\n", t10-t9);

  002e4	8b 45 c8	 mov	 eax, DWORD PTR _t10$1$[ebp]
  002e7	2b 45 cc	 sub	 eax, DWORD PTR _t9$1$[ebp]
  002ea	50		 push	 eax
  002eb	68 00 00 00 00	 push	 OFFSET ??_C@_0L@MPJHKAOM@GU?4ITM?5?$CFd?6@
  002f0	ff 35 00 00 00
	00		 push	 DWORD PTR ?fp@?8??UpdateGame@CPythonApplication@@QAEXXZ@4PAU_iobuf@@A
  002f6	e8 00 00 00 00	 call	 _fprintf

; 387  : 			fprintf(fp, "GU.PLR %d\n", t11-t10);

  002fb	8b 45 c4	 mov	 eax, DWORD PTR _t11$1$[ebp]
  002fe	2b 45 c8	 sub	 eax, DWORD PTR _t10$1$[ebp]
  00301	50		 push	 eax
  00302	68 00 00 00 00	 push	 OFFSET ??_C@_0L@KNCOIAL@GU?4PLR?5?$CFd?6@
  00307	ff 35 00 00 00
	00		 push	 DWORD PTR ?fp@?8??UpdateGame@CPythonApplication@@QAEXXZ@4PAU_iobuf@@A
  0030d	e8 00 00 00 00	 call	 _fprintf

; 388  : 			fprintf(fp, "GU.POS %d\n", t12-t11);

  00312	2b 7d c4	 sub	 edi, DWORD PTR _t11$1$[ebp]
  00315	83 c4 48	 add	 esp, 72			; 00000048H
  00318	57		 push	 edi
  00319	68 00 00 00 00	 push	 OFFSET ??_C@_0L@PAGGCBDD@GU?4POS?5?$CFd?6@
  0031e	ff 35 00 00 00
	00		 push	 DWORD PTR ?fp@?8??UpdateGame@CPythonApplication@@QAEXXZ@4PAU_iobuf@@A
  00324	e8 00 00 00 00	 call	 _fprintf

; 389  : 			fflush(fp);

  00329	ff 35 00 00 00
	00		 push	 DWORD PTR ?fp@?8??UpdateGame@CPythonApplication@@QAEXXZ@4PAU_iobuf@@A
  0032f	e8 00 00 00 00	 call	 _fflush
  00334	83 c4 10	 add	 esp, 16			; 00000010H
$LN4@UpdateGame:

; 390  : 		}
; 391  : 	}
; 392  : }

  00337	8b 4d f4	 mov	 ecx, DWORD PTR __$EHRec$[ebp]
  0033a	64 89 0d 00 00
	00 00		 mov	 DWORD PTR fs:0, ecx
  00341	59		 pop	 ecx
  00342	5f		 pop	 edi
  00343	5e		 pop	 esi
  00344	5b		 pop	 ebx
  00345	8b e5		 mov	 esp, ebp
  00347	5d		 pop	 ebp
  00348	c3		 ret	 0
$LN9@UpdateGame:

; 374  : 		{
; 375  : 			static FILE* fp=fopen("perf_game_update.txt", "w");

  00349	68 00 00 00 00	 push	 OFFSET ?$TSS0@?8??UpdateGame@CPythonApplication@@QAEXXZ@4HA
  0034e	e8 00 00 00 00	 call	 __Init_thread_header
  00353	83 c4 04	 add	 esp, 4
  00356	83 3d 00 00 00
	00 ff		 cmp	 DWORD PTR ?$TSS0@?8??UpdateGame@CPythonApplication@@QAEXXZ@4HA, -1
  0035d	0f 85 b0 fe ff
	ff		 jne	 $LN2@UpdateGame
  00363	68 00 00 00 00	 push	 OFFSET ??_C@_01NOFIACDB@w@
  00368	68 00 00 00 00	 push	 OFFSET ??_C@_0BF@NHIIGIH@perf_game_update?4txt@
  0036d	e8 00 00 00 00	 call	 _fopen
  00372	68 00 00 00 00	 push	 OFFSET ?$TSS0@?8??UpdateGame@CPythonApplication@@QAEXXZ@4HA
  00377	a3 00 00 00 00	 mov	 DWORD PTR ?fp@?8??UpdateGame@CPythonApplication@@QAEXXZ@4PAU_iobuf@@A, eax
  0037c	e8 00 00 00 00	 call	 __Init_thread_footer
  00381	83 c4 0c	 add	 esp, 12			; 0000000cH
  00384	e9 8a fe ff ff	 jmp	 $LN2@UpdateGame
_TEXT	ENDS
;	COMDAT text$x
text$x	SEGMENT
__unwindfunclet$?UpdateGame@CPythonApplication@@QAEXXZ$0:
  00000	8d 4d f0	 lea	 ecx, DWORD PTR _s$3[ebp]
  00003	e9 00 00 00 00	 jmp	 ??1CScreen@@UAE@XZ	; CScreen::~CScreen
  00008	cc		 int	 3
  00009	cc		 int	 3
  0000a	cc		 int	 3
  0000b	cc		 int	 3
  0000c	cc		 int	 3
__ehhandler$?UpdateGame@CPythonApplication@@QAEXXZ:
  0000d	90		 npad	 1
  0000e	90		 npad	 1
  0000f	8b 54 24 08	 mov	 edx, DWORD PTR [esp+8]
  00013	8d 42 0c	 lea	 eax, DWORD PTR [edx+12]
  00016	8b 4a ac	 mov	 ecx, DWORD PTR [edx-84]
  00019	33 c8		 xor	 ecx, eax
  0001b	e8 00 00 00 00	 call	 @__security_check_cookie@4
  00020	b8 00 00 00 00	 mov	 eax, OFFSET __ehfuncinfo$?UpdateGame@CPythonApplication@@QAEXXZ
  00025	e9 00 00 00 00	 jmp	 ___CxxFrameHandler3
text$x	ENDS
?UpdateGame@CPythonApplication@@QAEXXZ ENDP		; CPythonApplication::UpdateGame
; Function compile flags: /Ogtp
; File D:\_m2work\txoko-m2-work\txoko-client-src\source\UserInterface\PythonApplication.cpp
;	COMDAT ?SkipRenderBuffering@CPythonApplication@@UAEXK@Z
_TEXT	SEGMENT
_dwSleepMSec$ = 8					; size = 4
?SkipRenderBuffering@CPythonApplication@@UAEXK@Z PROC	; CPythonApplication::SkipRenderBuffering, COMDAT
; _this$ = ecx

; 395  : {

  00000	55		 push	 ebp
  00001	8b ec		 mov	 ebp, esp
  00003	56		 push	 esi
  00004	8b f1		 mov	 esi, ecx

; 396  : 	m_dwBufSleepSkipTime=ELTimer_GetMSec()+dwSleepMSec;

  00006	e8 00 00 00 00	 call	 ?ELTimer_GetMSec@@YAKXZ	; ELTimer_GetMSec
  0000b	03 45 08	 add	 eax, DWORD PTR _dwSleepMSec$[ebp]
  0000e	89 86 b8 fe 01
	00		 mov	 DWORD PTR [esi+130744], eax
  00014	5e		 pop	 esi

; 397  : }

  00015	5d		 pop	 ebp
  00016	c2 04 00	 ret	 4
?SkipRenderBuffering@CPythonApplication@@UAEXK@Z ENDP	; CPythonApplication::SkipRenderBuffering
_TEXT	ENDS
; Function compile flags: /Ogtp
; File D:\_m2work\txoko-m2-work\txoko-client-src\source\UserInterface\PythonApplication.cpp
;	COMDAT ?Process@CPythonApplication@@QAE_NXZ
_TEXT	SEGMENT
_Point$ = -44						; size = 8
_dwStart$1$ = -36					; size = 4
_fCurRenderTime$1$ = -32				; size = 4
_fRatio$2 = -28						; size = 4
_dwRenderStartTime$1$ = -28				; size = 4
_dwCurFaceCount$1$ = -24				; size = 4
tv853 = -24						; size = 4
$T3 = -20						; size = 4
_canRender$1$ = -13					; size = 1
__$EHRec$ = -12						; size = 12
?Process@CPythonApplication@@QAE_NXZ PROC		; CPythonApplication::Process, COMDAT
; _this$ = ecx

; 400  : {

  00000	55		 push	 ebp
  00001	8b ec		 mov	 ebp, esp
  00003	6a ff		 push	 -1
  00005	68 00 00 00 00	 push	 __ehhandler$?Process@CPythonApplication@@QAE_NXZ
  0000a	64 a1 00 00 00
	00		 mov	 eax, DWORD PTR fs:0
  00010	50		 push	 eax
  00011	83 ec 24	 sub	 esp, 36			; 00000024H
  00014	53		 push	 ebx
  00015	56		 push	 esi
  00016	57		 push	 edi
  00017	a1 00 00 00 00	 mov	 eax, DWORD PTR ___security_cookie
  0001c	33 c5		 xor	 eax, ebp
  0001e	50		 push	 eax
  0001f	8d 45 f4	 lea	 eax, DWORD PTR __$EHRec$[ebp]
  00022	64 a3 00 00 00
	00		 mov	 DWORD PTR fs:0, eax
  00028	8b f9		 mov	 edi, ecx

; 401  : #if defined(CHECK_LATEST_DATA_FILES)
; 402  : 	if (CheckLatestFiles_PollEvent())
; 403  : 		return false;
; 404  : #endif
; 405  : #ifdef USE_AHNLAB_HACKSHIELD
; 406  : 	if (HackShield_PollEvent())
; 407  : 		return false;
; 408  : #endif
; 409  : #ifdef XTRAP_CLIENT_ENABLE
; 410  : 	XTrap_PollEvent();
; 411  : #endif
; 412  : 	ELTimer_SetFrameMSec();

  0002a	e8 00 00 00 00	 call	 ?ELTimer_SetFrameMSec@@YAXXZ ; ELTimer_SetFrameMSec

; 413  : 
; 414  : 	// 	m_Profiler.Clear();
; 415  : 	DWORD dwStart = ELTimer_GetMSec();

  0002f	e8 00 00 00 00	 call	 ?ELTimer_GetMSec@@YAKXZ	; ELTimer_GetMSec

; 416  : 
; 417  : 	///////////////////////////////////////////////////////////////////////////////////////////////////
; 418  : 	static DWORD	s_dwUpdateFrameCount = 0;
; 419  : 	static DWORD	s_dwRenderFrameCount = 0;
; 420  : 	static DWORD	s_dwFaceCount = 0;
; 421  : 	static UINT		s_uiLoad = 0;
; 422  : 	static DWORD	s_dwCheckTime = ELTimer_GetMSec();

  00034	64 8b 0d 00 00
	00 00		 mov	 ecx, DWORD PTR fs:__tls_array
  0003b	89 45 dc	 mov	 DWORD PTR _dwStart$1$[ebp], eax
  0003e	8b 19		 mov	 ebx, DWORD PTR [ecx]
  00040	8b 0d 00 00 00
	00		 mov	 ecx, DWORD PTR ?$TSS0@?1??Process@CPythonApplication@@QAE_NXZ@4HA
  00046	89 5d e8	 mov	 DWORD PTR tv853[ebp], ebx
  00049	3b 8b 00 00 00
	00		 cmp	 ecx, DWORD PTR __Init_thread_epoch[ebx]
  0004f	0f 8f da 05 00
	00		 jg	 $LN57@Process
$LN2@Process:

; 423  : 
; 424  : 	if (ELTimer_GetMSec() - s_dwCheckTime > 1000)

  00055	e8 00 00 00 00	 call	 ?ELTimer_GetMSec@@YAKXZ	; ELTimer_GetMSec
  0005a	2b 05 00 00 00
	00		 sub	 eax, DWORD PTR ?s_dwCheckTime@?1??Process@CPythonApplication@@QAE_NXZ@4KA
  00060	3d e8 03 00 00	 cmp	 eax, 1000		; 000003e8H
  00065	76 6d		 jbe	 SHORT $LN5@Process

; 425  : 	{
; 426  : 		m_dwUpdateFPS		= s_dwUpdateFrameCount;

  00067	a1 00 00 00 00	 mov	 eax, DWORD PTR ?s_dwUpdateFrameCount@?1??Process@CPythonApplication@@QAE_NXZ@4KA

; 427  : 		m_dwRenderFPS		= s_dwRenderFrameCount;

  0006c	8b 0d 00 00 00
	00		 mov	 ecx, DWORD PTR ?s_dwRenderFrameCount@?1??Process@CPythonApplication@@QAE_NXZ@4KA
  00072	89 87 80 fe 01
	00		 mov	 DWORD PTR [edi+130688], eax

; 428  : 		m_dwLoad			= s_uiLoad;

  00078	a1 00 00 00 00	 mov	 eax, DWORD PTR ?s_uiLoad@?1??Process@CPythonApplication@@QAE_NXZ@4IA
  0007d	89 87 9c fd 01
	00		 mov	 DWORD PTR [edi+130460], eax

; 429  : 
; 430  : 		m_dwFaceCount		= s_dwFaceCount / max(1, s_dwRenderFrameCount);

  00083	b8 01 00 00 00	 mov	 eax, 1
  00088	3b c8		 cmp	 ecx, eax
  0008a	89 8f 84 fe 01
	00		 mov	 DWORD PTR [edi+130692], ecx
  00090	0f 42 c8	 cmovb	 ecx, eax
  00093	a1 00 00 00 00	 mov	 eax, DWORD PTR ?s_dwFaceCount@?1??Process@CPythonApplication@@QAE_NXZ@4KA
  00098	33 d2		 xor	 edx, edx
  0009a	f7 f1		 div	 ecx
  0009c	89 87 88 fe 01
	00		 mov	 DWORD PTR [edi+130696], eax

; 431  : 
; 432  : 		s_dwCheckTime		= ELTimer_GetMSec();

  000a2	e8 00 00 00 00	 call	 ?ELTimer_GetMSec@@YAKXZ	; ELTimer_GetMSec
  000a7	a3 00 00 00 00	 mov	 DWORD PTR ?s_dwCheckTime@?1??Process@CPythonApplication@@QAE_NXZ@4KA, eax

; 433  : 
; 434  : 		s_uiLoad = s_dwFaceCount = s_dwUpdateFrameCount = s_dwRenderFrameCount = 0;

  000ac	c7 05 00 00 00
	00 00 00 00 00	 mov	 DWORD PTR ?s_dwRenderFrameCount@?1??Process@CPythonApplication@@QAE_NXZ@4KA, 0
  000b6	c7 05 00 00 00
	00 00 00 00 00	 mov	 DWORD PTR ?s_dwUpdateFrameCount@?1??Process@CPythonApplication@@QAE_NXZ@4KA, 0
  000c0	c7 05 00 00 00
	00 00 00 00 00	 mov	 DWORD PTR ?s_dwFaceCount@?1??Process@CPythonApplication@@QAE_NXZ@4KA, 0
  000ca	c7 05 00 00 00
	00 00 00 00 00	 mov	 DWORD PTR ?s_uiLoad@?1??Process@CPythonApplication@@QAE_NXZ@4IA, 0
$LN5@Process:

; 435  : 	}
; 436  : 
; 437  : 	// Update Time
; 438  : 	static BOOL s_bFrameSkip = false;
; 439  : 	static UINT s_uiNextFrameTime = ELTimer_GetMSec();

  000d4	a1 00 00 00 00	 mov	 eax, DWORD PTR ?$TSS1@?1??Process@CPythonApplication@@QAE_NXZ@4HA
  000d9	3b 83 00 00 00
	00		 cmp	 eax, DWORD PTR __Init_thread_epoch[ebx]
  000df	0f 8f 8e 05 00
	00		 jg	 $LN58@Process
$LN3@Process:

; 440  : 
; 441  : #ifdef __PERFORMANCE_CHECK__
; 442  : 	DWORD dwUpdateTime1=ELTimer_GetMSec();
; 443  : #endif
; 444  : 	CTimer& rkTimer=CTimer::Instance();

  000e5	8b 35 00 00 00
	00		 mov	 esi, DWORD PTR ?ms_singleton@?$CSingleton@VCTimer@@@@0PAVCTimer@@A ; CSingleton<CTimer>::ms_singleton

; 445  : 	rkTimer.Advance();

  000eb	8b ce		 mov	 ecx, esi
  000ed	e8 00 00 00 00	 call	 ?Advance@CTimer@@QAEXXZ	; CTimer::Advance

; 446  : 
; 447  : 	m_fGlobalTime = rkTimer.GetCurrentSecond();

  000f2	8b ce		 mov	 ecx, esi
  000f4	e8 00 00 00 00	 call	 ?GetCurrentSecond@CTimer@@QAEMXZ ; CTimer::GetCurrentSecond
  000f9	d9 9f b8 fd 01
	00		 fstp	 DWORD PTR [edi+130488]

; 448  : 	m_fGlobalElapsedTime = rkTimer.GetElapsedSecond();

  000ff	8b ce		 mov	 ecx, esi
  00101	e8 00 00 00 00	 call	 ?GetElapsedSecond@CTimer@@QAEMXZ ; CTimer::GetElapsedSecond

; 449  : 
; 450  : 	UINT uiFrameTime = rkTimer.GetElapsedMilliecond();

  00106	8b ce		 mov	 ecx, esi
  00108	d9 9f bc fd 01
	00		 fstp	 DWORD PTR [edi+130492]
  0010e	e8 00 00 00 00	 call	 ?GetElapsedMilliecond@CTimer@@QAEKXZ ; CTimer::GetElapsedMilliecond
  00113	8b f0		 mov	 esi, eax

; 451  : 	s_uiNextFrameTime += uiFrameTime;	//17 - 1 60fps.

  00115	01 35 00 00 00
	00		 add	 DWORD PTR ?s_uiNextFrameTime@?1??Process@CPythonApplication@@QAE_NXZ@4IA, esi

; 452  : 
; 453  : 	DWORD updatestart = ELTimer_GetMSec();

  0011b	e8 00 00 00 00	 call	 ?ELTimer_GetMSec@@YAKXZ	; ELTimer_GetMSec

; 454  : #ifdef __PERFORMANCE_CHECK__
; 455  : 	DWORD dwUpdateTime2=ELTimer_GetMSec();
; 456  : #endif
; 457  : 	// Network I/O	
; 458  : 	m_pyNetworkStream.Process();	

  00120	8d 8f 40 08 00
	00		 lea	 ecx, DWORD PTR [edi+2112]
  00126	8b d8		 mov	 ebx, eax
  00128	e8 00 00 00 00	 call	 ?Process@CNetworkStream@@QAEXXZ ; CNetworkStream::Process

; 459  : 	//m_pyNetworkDatagram.Process();
; 460  : 
; 461  : 	m_kGuildMarkUploader.Process();

  0012d	8d 8f f8 d1 01
	00		 lea	 ecx, DWORD PTR [edi+119288]
  00133	e8 00 00 00 00	 call	 ?Process@CGuildMarkUploader@@QAEXXZ ; CGuildMarkUploader::Process

; 462  : 
; 463  : #ifdef USE_NPROTECT_GAMEGUARD
; 464  : 	if (GameGuard_IsError())
; 465  : 		return false;
; 466  : #endif
; 467  : 
; 468  : 	m_kGuildMarkDownloader.Process();

  00138	8d 8f 48 d1 01
	00		 lea	 ecx, DWORD PTR [edi+119112]
  0013e	e8 00 00 00 00	 call	 ?Process@CGuildMarkDownloader@@QAEXXZ ; CGuildMarkDownloader::Process

; 469  : 	m_kAccountConnector.Process();

  00143	8d 8f 98 d5 01
	00		 lea	 ecx, DWORD PTR [edi+120216]
  00149	e8 00 00 00 00	 call	 ?Process@CAccountConnector@@QAEXXZ ; CAccountConnector::Process

; 470  : 
; 471  : #ifdef __PERFORMANCE_CHECK__		
; 472  : 	DWORD dwUpdateTime3=ELTimer_GetMSec();
; 473  : #endif
; 474  : 	//////////////////////
; 475  : 	// Input Process
; 476  : 	// Keyboard
; 477  : 	UpdateKeyboard();

  0014e	8d 4f 1c	 lea	 ecx, DWORD PTR [edi+28]
  00151	e8 00 00 00 00	 call	 ?UpdateKeyboard@CInputKeyboard@@QAEXXZ ; CInputKeyboard::UpdateKeyboard

; 478  : #ifdef __PERFORMANCE_CHECK__
; 479  : 	DWORD dwUpdateTime4=ELTimer_GetMSec();
; 480  : #endif
; 481  : 	// Mouse
; 482  : 	POINT Point;
; 483  : 	if (GetCursorPos(&Point))

  00156	8d 45 d4	 lea	 eax, DWORD PTR _Point$[ebp]
  00159	50		 push	 eax
  0015a	ff 15 00 00 00
	00		 call	 DWORD PTR __imp__GetCursorPos@4
  00160	85 c0		 test	 eax, eax
  00162	74 1a		 je	 SHORT $LN6@Process

; 484  : 	{
; 485  : 		ScreenToClient(m_hWnd, &Point);

  00164	8d 45 d4	 lea	 eax, DWORD PTR _Point$[ebp]
  00167	50		 push	 eax
  00168	ff 77 04	 push	 DWORD PTR [edi+4]
  0016b	ff 15 00 00 00
	00		 call	 DWORD PTR __imp__ScreenToClient@8

; 486  : 		OnMouseMove(Point.x, Point.y);		

  00171	ff 75 d8	 push	 DWORD PTR _Point$[ebp+4]
  00174	8b cf		 mov	 ecx, edi
  00176	ff 75 d4	 push	 DWORD PTR _Point$[ebp]
  00179	e8 00 00 00 00	 call	 ?OnMouseMove@CPythonApplication@@IAEXHH@Z ; CPythonApplication::OnMouseMove
$LN6@Process:

; 487  : 	}
; 488  : 	//////////////////////
; 489  : #ifdef __PERFORMANCE_CHECK__
; 490  : 	DWORD dwUpdateTime5=ELTimer_GetMSec();
; 491  : #endif
; 492  : 	//!@# Alt+Tab  SetTransfor      - [levites]
; 493  : 	//if (m_isActivateWnd)
; 494  : 	__UpdateCamera();

  0017e	8b cf		 mov	 ecx, edi
  00180	e8 00 00 00 00	 call	 ?__UpdateCamera@CPythonApplication@@IAEXXZ ; CPythonApplication::__UpdateCamera

; 495  : #ifdef __PERFORMANCE_CHECK__
; 496  : 	DWORD dwUpdateTime6=ELTimer_GetMSec();
; 497  : #endif
; 498  : 	// Update Game Playing
; 499  : 	CResourceManager::Instance().Update();

  00185	8b 0d 00 00 00
	00		 mov	 ecx, DWORD PTR ?ms_singleton@?$CSingleton@VCResourceManager@@@@0PAVCResourceManager@@A ; CSingleton<CResourceManager>::ms_singleton
  0018b	e8 00 00 00 00	 call	 ?Update@CResourceManager@@QAEXXZ ; CResourceManager::Update

; 500  : #ifdef __PERFORMANCE_CHECK__
; 501  : 	DWORD dwUpdateTime7=ELTimer_GetMSec();
; 502  : #endif
; 503  : 	OnCameraUpdate();

  00190	8b cf		 mov	 ecx, edi
  00192	e8 00 00 00 00	 call	 ?OnCameraUpdate@CPythonApplication@@IAEXXZ ; CPythonApplication::OnCameraUpdate

; 504  : #ifdef __PERFORMANCE_CHECK__
; 505  : 	DWORD dwUpdateTime8=ELTimer_GetMSec();
; 506  : #endif
; 507  : 	OnMouseUpdate();

  00197	8b cf		 mov	 ecx, edi
  00199	e8 00 00 00 00	 call	 ?OnMouseUpdate@CPythonApplication@@IAEXXZ ; CPythonApplication::OnMouseUpdate

; 508  : #ifdef __PERFORMANCE_CHECK__
; 509  : 	DWORD dwUpdateTime9=ELTimer_GetMSec();
; 510  : #endif
; 511  : 	OnUIUpdate();

  0019e	e8 00 00 00 00	 call	 ?OnUIUpdate@CPythonApplication@@IAEXXZ ; CPythonApplication::OnUIUpdate

; 512  : 
; 513  : #ifdef __PERFORMANCE_CHECK__		
; 514  : 	DWORD dwUpdateTime10=ELTimer_GetMSec();
; 515  : 
; 516  : 	if (dwUpdateTime10-dwUpdateTime1>10)
; 517  : 	{			
; 518  : 		static FILE* fp=fopen("perf_app_update.txt", "w");
; 519  : 
; 520  : 		fprintf(fp, "AU.Total %d (Time %d)\n", dwUpdateTime9-dwUpdateTime1, ELTimer_GetMSec());
; 521  : 		fprintf(fp, "AU.TU %d\n", dwUpdateTime2-dwUpdateTime1);
; 522  : 		fprintf(fp, "AU.NU %d\n", dwUpdateTime3-dwUpdateTime2);
; 523  : 		fprintf(fp, "AU.KU %d\n", dwUpdateTime4-dwUpdateTime3);
; 524  : 		fprintf(fp, "AU.MP %d\n", dwUpdateTime5-dwUpdateTime4);
; 525  : 		fprintf(fp, "AU.CP %d\n", dwUpdateTime6-dwUpdateTime5);
; 526  : 		fprintf(fp, "AU.RU %d\n", dwUpdateTime7-dwUpdateTime6);
; 527  : 		fprintf(fp, "AU.CU %d\n", dwUpdateTime8-dwUpdateTime7);
; 528  : 		fprintf(fp, "AU.MU %d\n", dwUpdateTime9-dwUpdateTime8);
; 529  : 		fprintf(fp, "AU.UU %d\n", dwUpdateTime10-dwUpdateTime9);			
; 530  : 		fprintf(fp, "----------------------------------\n");
; 531  : 		fflush(fp);
; 532  : 	}		
; 533  : #endif
; 534  : 
; 535  : 	//Update .delta
; 536  : 	m_dwCurUpdateTime = ELTimer_GetMSec() - updatestart;

  001a3	e8 00 00 00 00	 call	 ?ELTimer_GetMSec@@YAKXZ	; ELTimer_GetMSec
  001a8	2b c3		 sub	 eax, ebx
  001aa	89 87 98 fd 01
	00		 mov	 DWORD PTR [edi+130456], eax

; 537  : 
; 538  : 	DWORD dwCurrentTime = ELTimer_GetMSec();

  001b0	e8 00 00 00 00	 call	 ?ELTimer_GetMSec@@YAKXZ	; ELTimer_GetMSec

; 539  : 	BOOL  bCurrentLateUpdate = FALSE;
; 540  : 
; 541  : 	s_bFrameSkip = false;
; 542  : 
; 543  : 	if (dwCurrentTime > s_uiNextFrameTime)

  001b5	8b 0d 00 00 00
	00		 mov	 ecx, DWORD PTR ?s_uiNextFrameTime@?1??Process@CPythonApplication@@QAE_NXZ@4IA
  001bb	33 db		 xor	 ebx, ebx
  001bd	89 5d ec	 mov	 DWORD PTR $T3[ebp], ebx
  001c0	89 1d 00 00 00
	00		 mov	 DWORD PTR ?s_bFrameSkip@?1??Process@CPythonApplication@@QAE_NXZ@4HA, ebx
  001c6	3b c1		 cmp	 eax, ecx
  001c8	76 68		 jbe	 SHORT $LN7@Process

; 544  : 	{
; 545  : 		int dt = dwCurrentTime - s_uiNextFrameTime;

  001ca	66 0f 6e c6	 movd	 xmm0, esi
  001ce	2b c1		 sub	 eax, ecx

; 546  : 		int nAdjustTime = ((float)dt / (float)uiFrameTime) * uiFrameTime; 

  001d0	f3 0f e6 c0	 cvtdq2pd xmm0, xmm0
  001d4	c1 ee 1f	 shr	 esi, 31			; 0000001fH
  001d7	f2 0f 58 04 f5
	00 00 00 00	 addsd	 xmm0, QWORD PTR __xmm@41f00000000000000000000000000000[esi*8]
  001e0	66 0f 5a c8	 cvtpd2ps xmm1, xmm0
  001e4	66 0f 6e c0	 movd	 xmm0, eax
  001e8	0f 5b c0	 cvtdq2ps xmm0, xmm0
  001eb	f3 0f 5e c1	 divss	 xmm0, xmm1
  001ef	f3 0f 59 c1	 mulss	 xmm0, xmm1
  001f3	f3 0f 2c f0	 cvttss2si esi, xmm0

; 547  : 
; 548  : 		if ( dt >= 500 )

  001f7	3d f4 01 00 00	 cmp	 eax, 500		; 000001f4H
  001fc	7c 22		 jl	 SHORT $LN8@Process

; 549  : 		{
; 550  : 			s_uiNextFrameTime += nAdjustTime; 

  001fe	03 ce		 add	 ecx, esi

; 551  : 			printf("FrameSkip  %d\n",nAdjustTime);

  00200	56		 push	 esi
  00201	68 00 00 00 00	 push	 OFFSET ??_C@_0BD@OJBILBDC@FrameSkip?5?$LK?$LI?A?$KE?5?$CFd?6@
  00206	89 0d 00 00 00
	00		 mov	 DWORD PTR ?s_uiNextFrameTime@?1??Process@CPythonApplication@@QAE_NXZ@4IA, ecx
  0020c	e8 00 00 00 00	 call	 _printf

; 552  : 			CTimer::Instance().Adjust(nAdjustTime);

  00211	8b 0d 00 00 00
	00		 mov	 ecx, DWORD PTR ?ms_singleton@?$CSingleton@VCTimer@@@@0PAVCTimer@@A ; CSingleton<CTimer>::ms_singleton
  00217	83 c4 08	 add	 esp, 8
  0021a	56		 push	 esi
  0021b	e8 00 00 00 00	 call	 ?Adjust@CTimer@@QAEXH@Z	; CTimer::Adjust
$LN8@Process:

; 553  : 		}
; 554  : 
; 555  : 		s_bFrameSkip = true;
; 556  : 		bCurrentLateUpdate = TRUE;

  00220	bb 01 00 00 00	 mov	 ebx, 1
  00225	c7 05 00 00 00
	00 01 00 00 00	 mov	 DWORD PTR ?s_bFrameSkip@?1??Process@CPythonApplication@@QAE_NXZ@4HA, 1
  0022f	89 5d ec	 mov	 DWORD PTR $T3[ebp], ebx
$LN7@Process:

; 557  : 	}
; 558  : 
; 559  : 	//s_bFrameSkip = false;
; 560  : 
; 561  : 	//if (dwCurrentTime > s_uiNextFrameTime)
; 562  : 	//{
; 563  : 	//	int dt = dwCurrentTime - s_uiNextFrameTime;
; 564  : 
; 565  : 	//	//   .
; 566  : 	//	// m_dwCurUpdateTime delta delta absolute time  ?
; 567  : 	//	//if (dt >= 500 || m_dwCurUpdateTime > s_uiNextFrameTime)
; 568  : 
; 569  : 	//	//  0.5    update   rendering frame skip
; 570  : 	//	if (dt >= 500 || m_dwCurUpdateTime > s_uiNextFrameTime)
; 571  : 	//	{
; 572  : 	//		s_uiNextFrameTime += dt / uiFrameTime * uiFrameTime; 
; 573  : 	//		printf("FrameSkip  %d\n", dt / uiFrameTime * uiFrameTime);
; 574  : 	//		CTimer::Instance().Adjust((dt / uiFrameTime) * uiFrameTime);
; 575  : 	//		s_bFrameSkip = true;
; 576  : 	//	}
; 577  : 	//}
; 578  : 
; 579  : 	if (m_isFrameSkipDisable)

  00232	80 bf ad fe 01
	00 00		 cmp	 BYTE PTR [edi+130733], 0
  00239	74 0c		 je	 SHORT $LN9@Process

; 580  : 		s_bFrameSkip = false;

  0023b	c7 05 00 00 00
	00 00 00 00 00	 mov	 DWORD PTR ?s_bFrameSkip@?1??Process@CPythonApplication@@QAE_NXZ@4HA, 0

; 704  : 		{
; 705  : 			SkipRenderBuffering(3000);

  00245	eb 08		 jmp	 SHORT $LN52@Process
$LN9@Process:

; 581  : 
; 582  : #ifdef __VTUNE__
; 583  : 	s_bFrameSkip = false;
; 584  : #endif
; 585  : 	/*
; 586  : 	static bool s_isPrevFrameSkip=false;
; 587  : 	static DWORD s_dwFrameSkipCount=0;
; 588  : 	static DWORD s_dwFrameSkipEndTime=0;
; 589  : 
; 590  : 	static DWORD ERROR_FRAME_SKIP_COUNT = 60*5;
; 591  : 	static DWORD ERROR_FRAME_SKIP_TIME = ERROR_FRAME_SKIP_COUNT*18;
; 592  : 
; 593  : 	//static DWORD MAX_FRAME_SKIP=0;
; 594  : 
; 595  : 	if (IsActive())
; 596  : 	{
; 597  : 	DWORD dwFrameSkipCurTime=ELTimer_GetMSec();
; 598  : 
; 599  : 	if (s_bFrameSkip)
; 600  : 	{
; 601  : 	//   ..
; 602  : 	if (s_isPrevFrameSkip)
; 603  : 	{
; 604  : 	if (s_dwFrameSkipEndTime==0)
; 605  : 	{
; 606  : 	s_dwFrameSkipCount=0; //    
; 607  : 	s_dwFrameSkipEndTime=dwFrameSkipCurTime+ERROR_FRAME_SKIP_TIME; //      
; 608  : 
; 609  : 	//printf("FrameSkipCheck Start\n");
; 610  : 	}
; 611  : 	++s_dwFrameSkipCount;
; 612  : 
; 613  : 	//if (MAX_FRAME_SKIP<s_dwFrameSkipCount)
; 614  : 	//	MAX_FRAME_SKIP=s_dwFrameSkipCount;
; 615  : 
; 616  : 	//printf("u %d c %d/%d t %d\n", 
; 617  : 	//	dwUpdateTime9-dwUpdateTime1,
; 618  : 	//	s_dwFrameSkipCount, 
; 619  : 	//	MAX_FRAME_SKIP,
; 620  : 	//	s_dwFrameSkipEndTime);
; 621  : 
; 622  : 	//#ifndef _DEBUG
; 623  : 	//      ...
; 624  : 	if (s_dwFrameSkipCount>ERROR_FRAME_SKIP_COUNT && s_dwFrameSkipEndTime<dwFrameSkipCurTime)
; 625  : 	{
; 626  : 	s_isPrevFrameSkip=false;
; 627  : 	s_dwFrameSkipEndTime=0;
; 628  : 	s_dwFrameSkipCount=0;
; 629  : 
; 630  : 	//m_pyNetworkStream.AbsoluteExitGame();
; 631  : 
; 632  : 	/*
; 633  : 	TraceError("    ");
; 634  : 
; 635  : 	{
; 636  : 	FILE* fp=fopen("errorlog.txt", "w");
; 637  : 	if (fp)
; 638  : 	{
; 639  : 	fprintf(fp, "FRAMESKIP\n");
; 640  : 	fprintf(fp, "Total %d\n",		dwUpdateTime9-dwUpdateTime1);
; 641  : 	fprintf(fp, "Timer %d\n",		dwUpdateTime2-dwUpdateTime1);
; 642  : 	fprintf(fp, "Network %d\n",		dwUpdateTime3-dwUpdateTime2);
; 643  : 	fprintf(fp, "Keyboard %d\n",	dwUpdateTime4-dwUpdateTime3);
; 644  : 	fprintf(fp, "Controll %d\n",	dwUpdateTime5-dwUpdateTime4);
; 645  : 	fprintf(fp, "Resource %d\n",	dwUpdateTime6-dwUpdateTime5);
; 646  : 	fprintf(fp, "Camera %d\n",		dwUpdateTime7-dwUpdateTime6);
; 647  : 	fprintf(fp, "Mouse %d\n",		dwUpdateTime8-dwUpdateTime7);
; 648  : 	fprintf(fp, "UI %d\n",			dwUpdateTime9-dwUpdateTime8);
; 649  : 	fclose(fp);
; 650  : 
; 651  : 	WinExec("errorlog.exe", SW_SHOW);
; 652  : 	}
; 653  : 	}
; 654  : 	}
; 655  : 	}
; 656  : 
; 657  : 	s_isPrevFrameSkip=true;
; 658  : 	}
; 659  : 	else
; 660  : 	{
; 661  : 	s_isPrevFrameSkip=false;
; 662  : 	s_dwFrameSkipCount=0;
; 663  : 	s_dwFrameSkipEndTime=0;
; 664  : 	}
; 665  : 	}
; 666  : 	else
; 667  : 	{
; 668  : 	s_isPrevFrameSkip=false;
; 669  : 	s_dwFrameSkipCount=0;
; 670  : 	s_dwFrameSkipEndTime=0;
; 671  : 	}
; 672  : 	*/
; 673  : 	if (!s_bFrameSkip)

  00247	85 db		 test	 ebx, ebx
  00249	0f 85 96 03 00
	00		 jne	 $LN19@Process
$LN52@Process:
  0024f	f2 0f 10 05 00
	00 00 00	 movsd	 xmm0, QWORD PTR ?g_specularSpd@@3NA

; 674  : 	{
; 675  : 		//		static double pos=0.0f;
; 676  : 		//		CGrannyMaterial::TranslateSpecularMatrix(fabs(sin(pos)*0.005), fabs(cos(pos)*0.005), 0.0f);
; 677  : 		//		pos+=0.01f;
; 678  : 
; 679  : 		CGrannyMaterial::TranslateSpecularMatrix(g_specularSpd, g_specularSpd, 0.0f);

  00257	83 ec 0c	 sub	 esp, 12			; 0000000cH
  0025a	66 0f 5a c0	 cvtpd2ps xmm0, xmm0
  0025e	c7 44 24 08 00
	00 00 00	 mov	 DWORD PTR [esp+8], 0
  00266	f3 0f 11 44 24
	04		 movss	 DWORD PTR [esp+4], xmm0
  0026c	f3 0f 11 04 24	 movss	 DWORD PTR [esp], xmm0
  00271	e8 00 00 00 00	 call	 ?TranslateSpecularMatrix@CGrannyMaterial@@SAXMMM@Z ; CGrannyMaterial::TranslateSpecularMatrix
  00276	83 c4 0c	 add	 esp, 12			; 0000000cH

; 680  : 
; 681  : 		DWORD dwRenderStartTime = ELTimer_GetMSec();		

  00279	e8 00 00 00 00	 call	 ?ELTimer_GetMSec@@YAKXZ	; ELTimer_GetMSec

; 682  : 
; 683  : 		bool canRender = true;
; 684  : 
; 685  : 		if (m_isMinimizedWnd)

  0027e	80 bf cc fe 01
	00 00		 cmp	 BYTE PTR [edi+130764], 0
  00285	8d b7 9c 07 00
	00		 lea	 esi, DWORD PTR [edi+1948]
  0028b	89 45 e4	 mov	 DWORD PTR _dwRenderStartTime$1$[ebp], eax
  0028e	c6 45 f3 01	 mov	 BYTE PTR _canRender$1$[ebp], 1
  00292	75 2c		 jne	 SHORT $LN14@Process

; 686  : 		{
; 687  : 			canRender = false;
; 688  : 		}
; 689  : 		else
; 690  : 		{
; 691  : 			if (m_pyGraphic.IsLostDevice())

  00294	8b ce		 mov	 ecx, esi
  00296	e8 00 00 00 00	 call	 ?IsLostDevice@CScreen@@QAEHXZ ; CScreen::IsLostDevice
  0029b	85 c0		 test	 eax, eax
  0029d	74 25		 je	 SHORT $LN15@Process

; 692  : 			{
; 693  : 				CPythonBackground& rkBG = CPythonBackground::Instance();

  0029f	8b 1d 00 00 00
	00		 mov	 ebx, DWORD PTR ?ms_singleton@?$CSingleton@VCPythonBackground@@@@0PAVCPythonBackground@@A ; CSingleton<CPythonBackground>::ms_singleton

; 694  : 				rkBG.ReleaseCharacterShadowTexture();

  002a5	8b cb		 mov	 ecx, ebx
  002a7	e8 00 00 00 00	 call	 ?ReleaseCharacterShadowTexture@CPythonBackground@@QAEXXZ ; CPythonBackground::ReleaseCharacterShadowTexture

; 695  : 
; 696  : 				if (m_pyGraphic.RestoreDevice())					

  002ac	8b ce		 mov	 ecx, esi
  002ae	e8 00 00 00 00	 call	 ?RestoreDevice@CScreen@@QAEHXZ ; CScreen::RestoreDevice
  002b3	85 c0		 test	 eax, eax
  002b5	74 09		 je	 SHORT $LN14@Process

; 697  : 					rkBG.CreateCharacterShadowTexture();

  002b7	8b cb		 mov	 ecx, ebx
  002b9	e8 00 00 00 00	 call	 ?CreateCharacterShadowTexture@CPythonBackground@@QAEXXZ ; CPythonBackground::CreateCharacterShadowTexture
  002be	eb 04		 jmp	 SHORT $LN15@Process
$LN14@Process:

; 698  : 				else
; 699  : 					canRender = false;				
; 700  : 			}
; 701  : 		}
; 702  : 
; 703  : 		if (!IsActive())

  002c0	c6 45 f3 00	 mov	 BYTE PTR _canRender$1$[ebp], 0
$LN15@Process:
  002c4	8b cf		 mov	 ecx, edi
  002c6	e8 00 00 00 00	 call	 ?IsActive@CMSWindow@@QAE_NXZ ; CMSWindow::IsActive
  002cb	8d 5f 20	 lea	 ebx, DWORD PTR [edi+32]
  002ce	84 c0		 test	 al, al
  002d0	75 0c		 jne	 SHORT $LN16@Process

; 704  : 		{
; 705  : 			SkipRenderBuffering(3000);

  002d2	8b 03		 mov	 eax, DWORD PTR [ebx]
  002d4	8b cb		 mov	 ecx, ebx
  002d6	68 b8 0b 00 00	 push	 3000			; 00000bb8H
  002db	ff 50 10	 call	 DWORD PTR [eax+16]
$LN16@Process:

; 706  : 		}
; 707  : 
; 708  : 		//        
; 709  : 		if (!canRender)

  002de	80 7d f3 00	 cmp	 BYTE PTR _canRender$1$[ebp], 0
  002e2	75 11		 jne	 SHORT $LN17@Process

; 710  : 		{
; 711  : 			SkipRenderBuffering(3000);

  002e4	8b 03		 mov	 eax, DWORD PTR [ebx]
  002e6	8b cb		 mov	 ecx, ebx
  002e8	68 b8 0b 00 00	 push	 3000			; 00000bb8H
  002ed	ff 50 10	 call	 DWORD PTR [eax+16]

; 712  : 		}

  002f0	e9 ed 02 00 00	 jmp	 $LN53@Process
$LN17@Process:

; 713  : 		else
; 714  : 		{
; 715  : 			// RestoreLostDevice
; 716  : 			CCullingManager::Instance().Update();

  002f5	8b 0d 00 00 00
	00		 mov	 ecx, DWORD PTR ?ms_singleton@?$CSingleton@VCCullingManager@@@@0PAVCCullingManager@@A ; CSingleton<CCullingManager>::ms_singleton
  002fb	e8 00 00 00 00	 call	 ?Update@CCullingManager@@QAEXXZ ; CCullingManager::Update

; 717  : 			if (m_pyGraphic.Begin())

  00300	8b ce		 mov	 ecx, esi
  00302	e8 00 00 00 00	 call	 ?Begin@CScreen@@QAE_NXZ	; CScreen::Begin
  00307	84 c0		 test	 al, al
  00309	0f 84 d3 02 00
	00		 je	 $LN53@Process

; 718  : 			{
; 719  : 
; 720  : 				m_pyGraphic.ClearDepthBuffer();

  0030f	8b ce		 mov	 ecx, esi
  00311	e8 00 00 00 00	 call	 ?ClearDepthBuffer@CScreen@@QAEXXZ ; CScreen::ClearDepthBuffer

; 721  : 
; 722  : #ifdef _DEBUG
; 723  : 				m_pyGraphic.SetClearColor(0.3f, 0.3f, 0.3f);
; 724  : 				m_pyGraphic.Clear();
; 725  : #endif
; 726  : 
; 727  : 				/////////////////////
; 728  : 				// Interface
; 729  : 				m_pyGraphic.SetInterfaceRenderState();

  00316	8b ce		 mov	 ecx, esi
  00318	e8 00 00 00 00	 call	 ?SetInterfaceRenderState@CPythonGraphic@@QAEXXZ ; CPythonGraphic::SetInterfaceRenderState

; 730  : 
; 731  : 				OnUIRender();

  0031d	e8 00 00 00 00	 call	 ?OnUIRender@CPythonApplication@@IAEXXZ ; CPythonApplication::OnUIRender

; 732  : 				OnMouseRender();

  00322	8b cf		 mov	 ecx, edi
  00324	e8 00 00 00 00	 call	 ?OnMouseRender@CPythonApplication@@IAEXXZ ; CPythonApplication::OnMouseRender

; 733  : 				/////////////////////
; 734  : 
; 735  : 				m_pyGraphic.End();

  00329	8b ce		 mov	 ecx, esi
  0032b	e8 00 00 00 00	 call	 ?End@CScreen@@QAEXXZ	; CScreen::End

; 736  : 
; 737  : 				//DWORD t1 = ELTimer_GetMSec();
; 738  : 				m_pyGraphic.Show();

  00330	6a 00		 push	 0
  00332	8b ce		 mov	 ecx, esi
  00334	e8 00 00 00 00	 call	 ?Show@CScreen@@QAEXPAUHWND__@@@Z ; CScreen::Show

; 739  : 				//DWORD t2 = ELTimer_GetMSec();
; 740  : 
; 741  : 				DWORD dwRenderEndTime = ELTimer_GetMSec();

  00339	e8 00 00 00 00	 call	 ?ELTimer_GetMSec@@YAKXZ	; ELTimer_GetMSec

; 742  : 
; 743  : 				static DWORD s_dwRenderCheckTime = dwRenderEndTime;

  0033e	8b 0d 00 00 00
	00		 mov	 ecx, DWORD PTR ?$TSS2@?CJ@??Process@CPythonApplication@@QAE_NXZ@4HA
  00344	8b d8		 mov	 ebx, eax
  00346	8b 45 e8	 mov	 eax, DWORD PTR tv853[ebp]
  00349	3b 88 00 00 00
	00		 cmp	 ecx, DWORD PTR __Init_thread_epoch[eax]
  0034f	0f 8f 62 03 00
	00		 jg	 $LN59@Process
$LN4@Process:

; 744  : 				static DWORD s_dwRenderRangeTime = 0;
; 745  : 				static DWORD s_dwRenderRangeFrame = 0;
; 746  : 
; 747  : 				m_dwCurRenderTime = dwRenderEndTime - dwRenderStartTime;			
; 748  : 				s_dwRenderRangeTime += m_dwCurRenderTime;				
; 749  : 				++s_dwRenderRangeFrame;			

  00355	8b 15 00 00 00
	00		 mov	 edx, DWORD PTR ?s_dwRenderRangeFrame@?CJ@??Process@CPythonApplication@@QAE_NXZ@4KA
  0035b	8b cb		 mov	 ecx, ebx
  0035d	2b 4d e4	 sub	 ecx, DWORD PTR _dwRenderStartTime$1$[ebp]

; 750  : 
; 751  : 				if (dwRenderEndTime-s_dwRenderCheckTime>1000)

  00360	8b c3		 mov	 eax, ebx
  00362	2b 05 00 00 00
	00		 sub	 eax, DWORD PTR ?s_dwRenderCheckTime@?CJ@??Process@CPythonApplication@@QAE_NXZ@4KA
  00368	42		 inc	 edx
  00369	89 8f 94 fd 01
	00		 mov	 DWORD PTR [edi+130452], ecx
  0036f	03 0d 00 00 00
	00		 add	 ecx, DWORD PTR ?s_dwRenderRangeTime@?CJ@??Process@CPythonApplication@@QAE_NXZ@4KA
  00375	89 0d 00 00 00
	00		 mov	 DWORD PTR ?s_dwRenderRangeTime@?CJ@??Process@CPythonApplication@@QAE_NXZ@4KA, ecx
  0037b	89 15 00 00 00
	00		 mov	 DWORD PTR ?s_dwRenderRangeFrame@?CJ@??Process@CPythonApplication@@QAE_NXZ@4KA, edx
  00381	3d e8 03 00 00	 cmp	 eax, 1000		; 000003e8H
  00386	76 56		 jbe	 SHORT $LN20@Process

; 752  : 				{
; 753  : 					m_fAveRenderTime=float(double(s_dwRenderRangeTime)/double(s_dwRenderRangeFrame));

  00388	66 0f 6e c9	 movd	 xmm1, ecx
  0038c	66 0f 6e c2	 movd	 xmm0, edx
  00390	f3 0f e6 c9	 cvtdq2pd xmm1, xmm1
  00394	c1 e9 1f	 shr	 ecx, 31			; 0000001fH
  00397	c1 ea 1f	 shr	 edx, 31			; 0000001fH
  0039a	f3 0f e6 c0	 cvtdq2pd xmm0, xmm0
  0039e	f2 0f 58 0c cd
	00 00 00 00	 addsd	 xmm1, QWORD PTR __xmm@41f00000000000000000000000000000[ecx*8]
  003a7	f2 0f 58 04 d5
	00 00 00 00	 addsd	 xmm0, QWORD PTR __xmm@41f00000000000000000000000000000[edx*8]
  003b0	f2 0f 5e c8	 divsd	 xmm1, xmm0
  003b4	66 0f 5a c1	 cvtpd2ps xmm0, xmm1
  003b8	f3 0f 11 87 90
	fd 01 00	 movss	 DWORD PTR [edi+130448], xmm0

; 754  : 
; 755  : 					s_dwRenderCheckTime=ELTimer_GetMSec();

  003c0	e8 00 00 00 00	 call	 ?ELTimer_GetMSec@@YAKXZ	; ELTimer_GetMSec
  003c5	a3 00 00 00 00	 mov	 DWORD PTR ?s_dwRenderCheckTime@?CJ@??Process@CPythonApplication@@QAE_NXZ@4KA, eax

; 756  : 					s_dwRenderRangeTime=0;

  003ca	c7 05 00 00 00
	00 00 00 00 00	 mov	 DWORD PTR ?s_dwRenderRangeTime@?CJ@??Process@CPythonApplication@@QAE_NXZ@4KA, 0

; 757  : 					s_dwRenderRangeFrame=0;

  003d4	c7 05 00 00 00
	00 00 00 00 00	 mov	 DWORD PTR ?s_dwRenderRangeFrame@?CJ@??Process@CPythonApplication@@QAE_NXZ@4KA, 0
$LN20@Process:

; 758  : 				}										
; 759  : 
; 760  : 				DWORD dwCurFaceCount=m_pyGraphic.GetFaceCount();

  003de	8b ce		 mov	 ecx, esi
  003e0	e8 00 00 00 00	 call	 ?GetFaceCount@CGraphicBase@@QAEKXZ ; CGraphicBase::GetFaceCount

; 761  : 				m_pyGraphic.ResetFaceCount();

  003e5	8b ce		 mov	 ecx, esi
  003e7	89 45 e8	 mov	 DWORD PTR _dwCurFaceCount$1$[ebp], eax
  003ea	e8 00 00 00 00	 call	 ?ResetFaceCount@CGraphicBase@@QAEXXZ ; CGraphicBase::ResetFaceCount

; 762  : 				s_dwFaceCount += dwCurFaceCount;

  003ef	8b 4d e8	 mov	 ecx, DWORD PTR _dwCurFaceCount$1$[ebp]
  003f2	01 0d 00 00 00
	00		 add	 DWORD PTR ?s_dwFaceCount@?1??Process@CPythonApplication@@QAE_NXZ@4KA, ecx

; 763  : 
; 764  : 				if (dwCurFaceCount > 5000)

  003f8	81 f9 88 13 00
	00		 cmp	 ecx, 5000		; 00001388H
  003fe	0f 86 c1 01 00
	00		 jbe	 $LN21@Process

; 765  : 				{
; 766  : 					//   
; 767  : 					if (dwRenderEndTime > m_dwBufSleepSkipTime)

  00404	f3 0f 10 1d 00
	00 00 00	 movss	 xmm3, DWORD PTR __real@42c80000
  0040c	3b 9f d8 fe 01
	00		 cmp	 ebx, DWORD PTR [edi+130776]
  00412	0f 86 c2 00 00
	00		 jbe	 $LN50@Process

; 768  : 					{	
; 769  : 						static float s_fBufRenderTime = 0.0f;
; 770  : 
; 771  : 						float fCurRenderTime = m_dwCurRenderTime;

  00418	8b 87 94 fd 01
	00		 mov	 eax, DWORD PTR [edi+130452]

; 772  : 
; 773  : 						if (fCurRenderTime > s_fBufRenderTime)

  0041e	f3 0f 10 0d 00
	00 00 00	 movss	 xmm1, DWORD PTR ?s_fBufRenderTime@?DC@??Process@CPythonApplication@@QAE_NXZ@4MA
  00426	66 0f 6e c0	 movd	 xmm0, eax
  0042a	f3 0f e6 c0	 cvtdq2pd xmm0, xmm0
  0042e	c1 e8 1f	 shr	 eax, 31			; 0000001fH
  00431	f2 0f 58 04 c5
	00 00 00 00	 addsd	 xmm0, QWORD PTR __xmm@41f00000000000000000000000000000[eax*8]
  0043a	66 0f 5a c0	 cvtpd2ps xmm0, xmm0
  0043e	0f 2f c1	 comiss	 xmm0, xmm1
  00441	f3 0f 11 45 e0	 movss	 DWORD PTR _fCurRenderTime$1$[ebp], xmm0
  00446	76 5a		 jbe	 SHORT $LN24@Process

; 774  : 						{
; 775  : 							float fRatio = fMAX(0.5f, (fCurRenderTime - s_fBufRenderTime) / 30.0f);

  00448	f3 0f 5c c1	 subss	 xmm0, xmm1
  0044c	83 ec 08	 sub	 esp, 8
  0044f	f3 0f 5e 05 00
	00 00 00	 divss	 xmm0, DWORD PTR __real@41f00000
  00457	f3 0f 11 44 24
	04		 movss	 DWORD PTR [esp+4], xmm0
  0045d	c7 04 24 00 00
	00 3f		 mov	 DWORD PTR [esp], 1056964608 ; 3f000000H
  00464	e8 00 00 00 00	 call	 ?fMAX@@YAMMM@Z		; fMAX

; 776  : 							s_fBufRenderTime = (s_fBufRenderTime * (100.0f - fRatio) + (fCurRenderTime + 5) * fRatio) / 100.0f;

  00469	f3 0f 10 1d 00
	00 00 00	 movss	 xmm3, DWORD PTR __real@42c80000
  00471	83 c4 08	 add	 esp, 8
  00474	f3 0f 10 55 e0	 movss	 xmm2, DWORD PTR _fCurRenderTime$1$[ebp]
  00479	0f 28 cb	 movaps	 xmm1, xmm3
  0047c	f3 0f 58 15 00
	00 00 00	 addss	 xmm2, DWORD PTR __real@40a00000

; 777  : 						}

  00484	8b 4d e8	 mov	 ecx, DWORD PTR _dwCurFaceCount$1$[ebp]
  00487	d9 5d e4	 fstp	 DWORD PTR _fRatio$2[ebp]
  0048a	f3 0f 5c 4d e4	 subss	 xmm1, DWORD PTR _fRatio$2[ebp]
  0048f	f3 0f 59 55 e4	 mulss	 xmm2, DWORD PTR _fRatio$2[ebp]
  00494	f3 0f 59 0d 00
	00 00 00	 mulss	 xmm1, DWORD PTR ?s_fBufRenderTime@?DC@??Process@CPythonApplication@@QAE_NXZ@4MA
  0049c	f3 0f 58 ca	 addss	 xmm1, xmm2
  004a0	eb 14		 jmp	 SHORT $LN55@Process
$LN24@Process:

; 778  : 						else
; 779  : 						{
; 780  : 							float fRatio = 0.5f;
; 781  : 							s_fBufRenderTime = (s_fBufRenderTime * (100.0f - fRatio) + fCurRenderTime * fRatio) / 100.0f;

  004a2	f3 0f 59 0d 00
	00 00 00	 mulss	 xmm1, DWORD PTR __real@42c70000
  004aa	f3 0f 59 05 00
	00 00 00	 mulss	 xmm0, DWORD PTR __real@3f000000
  004b2	f3 0f 58 c8	 addss	 xmm1, xmm0
$LN55@Process:

; 782  : 						}
; 783  : 
; 784  : 						//  
; 785  : 						if (s_fBufRenderTime > 100.0f)

  004b6	f3 0f 5e cb	 divss	 xmm1, xmm3
  004ba	0f 2f cb	 comiss	 xmm1, xmm3
  004bd	f3 0f 11 0d 00
	00 00 00	 movss	 DWORD PTR ?s_fBufRenderTime@?DC@??Process@CPythonApplication@@QAE_NXZ@4MA, xmm1
  004c5	76 0b		 jbe	 SHORT $LN26@Process

; 786  : 							s_fBufRenderTime = 100.0f;

  004c7	0f 28 cb	 movaps	 xmm1, xmm3
  004ca	f3 0f 11 0d 00
	00 00 00	 movss	 DWORD PTR ?s_fBufRenderTime@?DC@??Process@CPythonApplication@@QAE_NXZ@4MA, xmm1
$LN26@Process:

; 787  : 
; 788  : 						DWORD dwBufRenderTime = s_fBufRenderTime;
; 789  : 
; 790  : 						if (m_isWindowed)
; 791  : 						{						
; 792  : 							if (dwBufRenderTime>58)
; 793  : 								dwBufRenderTime=64;
; 794  : 							else if (dwBufRenderTime>42)
; 795  : 								dwBufRenderTime=48;
; 796  : 							else if (dwBufRenderTime>26)
; 797  : 								dwBufRenderTime=32;
; 798  : 							else if (dwBufRenderTime>10)
; 799  : 								dwBufRenderTime=16;
; 800  : 							else
; 801  : 								dwBufRenderTime=8;
; 802  : 						}
; 803  : 
; 804  : 						//      
; 805  : 						//    ?
; 806  : 						//if (m_dwCurRenderTime<dwBufRenderTime)
; 807  : 						//	Sleep(dwBufRenderTime-m_dwCurRenderTime);			
; 808  : 
; 809  : 						m_fAveRenderTime=s_fBufRenderTime;

  004d2	f3 0f 11 8f 90
	fd 01 00	 movss	 DWORD PTR [edi+130448], xmm1
$LN50@Process:

; 810  : 					}
; 811  : 
; 812  : 					m_dwFaceAccCount += dwCurFaceCount;

  004da	01 8f 78 fe 01
	00		 add	 DWORD PTR [edi+130680], ecx

; 813  : 					m_dwFaceAccTime += m_dwCurRenderTime;
; 814  : 
; 815  : 					m_fFaceSpd=(m_dwFaceAccCount/m_dwFaceAccTime);

  004e0	33 d2		 xor	 edx, edx
  004e2	8b 8f 94 fd 01
	00		 mov	 ecx, DWORD PTR [edi+130452]
  004e8	01 8f 7c fe 01
	00		 add	 DWORD PTR [edi+130684], ecx
  004ee	8b 87 78 fe 01
	00		 mov	 eax, DWORD PTR [edi+130680]
  004f4	f7 b7 7c fe 01
	00		 div	 DWORD PTR [edi+130684]
  004fa	66 0f 6e c0	 movd	 xmm0, eax
  004fe	f3 0f e6 c0	 cvtdq2pd xmm0, xmm0
  00502	c1 e8 1f	 shr	 eax, 31			; 0000001fH
  00505	f2 0f 58 04 c5
	00 00 00 00	 addsd	 xmm0, QWORD PTR __xmm@41f00000000000000000000000000000[eax*8]

; 816  : 
; 817  : 					//   
; 818  : 					if (-1 == m_iForceSightRange)

  0050e	8b 87 dc fe 01
	00		 mov	 eax, DWORD PTR [edi+130780]
  00514	66 0f 5a c0	 cvtpd2ps xmm0, xmm0
  00518	f3 0f 11 87 6c
	fe 01 00	 movss	 DWORD PTR [edi+130668], xmm0
  00520	83 f8 ff	 cmp	 eax, -1
  00523	0f 85 93 00 00
	00		 jne	 $LN36@Process

; 819  : 					{
; 820  : 						static float s_fAveRenderTime = 16.0f;
; 821  : 						float fRatio=0.3f;
; 822  : 						s_fAveRenderTime=(s_fAveRenderTime*(100.0f-fRatio)+max(16.0f, m_dwCurRenderTime)*fRatio)/100.0f;

  00529	f3 0f 10 15 00
	00 00 00	 movss	 xmm2, DWORD PTR __real@41800000
  00531	0f 57 c0	 xorps	 xmm0, xmm0
  00534	f2 0f 2a c1	 cvtsi2sd xmm0, ecx
  00538	c1 e9 1f	 shr	 ecx, 31			; 0000001fH

; 823  : 
; 824  : 
; 825  : 						float fFar=25600.0f;
; 826  : 						float fNear=MIN_FOG;

  0053b	f3 0f 10 0d 00
	00 00 00	 movss	 xmm1, DWORD PTR ?MIN_FOG@@3MA
  00543	f2 0f 58 04 cd
	00 00 00 00	 addsd	 xmm0, QWORD PTR __xmm@41f00000000000000000000000000000[ecx*8]
  0054c	66 0f 5a c0	 cvtpd2ps xmm0, xmm0
  00550	f3 0f 5f d0	 maxss	 xmm2, xmm0
  00554	f3 0f 10 05 00
	00 00 00	 movss	 xmm0, DWORD PTR ?s_fAveRenderTime@?EL@??Process@CPythonApplication@@QAE_NXZ@4MA
  0055c	f3 0f 59 05 00
	00 00 00	 mulss	 xmm0, DWORD PTR __real@42c76666
  00564	f3 0f 59 15 00
	00 00 00	 mulss	 xmm2, DWORD PTR __real@3e99999a
  0056c	f3 0f 58 d0	 addss	 xmm2, xmm0
  00570	f3 0f 10 05 00
	00 00 00	 movss	 xmm0, DWORD PTR __real@447a0000
  00578	f3 0f 5e d3	 divss	 xmm2, xmm3

; 827  : 						double dbAvePow=double(1000.0f/s_fAveRenderTime);
; 828  : 						double dbMaxPow=60.0;
; 829  : 						float fDistance=max(fNear+(fFar-fNear)*(dbAvePow)/dbMaxPow, fNear);

  0057c	0f 5a d9	 cvtps2pd xmm3, xmm1
  0057f	f3 0f 5e c2	 divss	 xmm0, xmm2
  00583	f3 0f 11 15 00
	00 00 00	 movss	 DWORD PTR ?s_fAveRenderTime@?EL@??Process@CPythonApplication@@QAE_NXZ@4MA, xmm2
  0058b	0f 5a d0	 cvtps2pd xmm2, xmm0
  0058e	f3 0f 10 05 00
	00 00 00	 movss	 xmm0, DWORD PTR __real@46c80000
  00596	f3 0f 5c c1	 subss	 xmm0, xmm1
  0059a	0f 5a c0	 cvtps2pd xmm0, xmm0
  0059d	f2 0f 59 d0	 mulsd	 xmm2, xmm0
  005a1	f2 0f 5e 15 00
	00 00 00	 divsd	 xmm2, QWORD PTR __real@404e000000000000
  005a9	f2 0f 58 d3	 addsd	 xmm2, xmm3
  005ad	66 0f 2f d3	 comisd	 xmm2, xmm3
  005b1	77 03		 ja	 SHORT $LN43@Process
  005b3	0f 28 d3	 movaps	 xmm2, xmm3
$LN43@Process:
  005b6	66 0f 5a d2	 cvtpd2ps xmm2, xmm2

; 830  : 						m_pyBackground.SetViewDistanceSet(0, fDistance);
; 831  : 					}

  005ba	eb 11		 jmp	 SHORT $LN37@Process
$LN36@Process:
  005bc	66 0f 6e d0	 movd	 xmm2, eax

; 832  : 					//   
; 833  : 					else
; 834  : 					{
; 835  : 						m_pyBackground.SetViewDistanceSet(0, float(m_iForceSightRange));

  005c0	0f 5b d2	 cvtdq2ps xmm2, xmm2

; 836  : 					}
; 837  : 				}

  005c3	eb 08		 jmp	 SHORT $LN37@Process
$LN21@Process:

; 838  : 				else
; 839  : 				{
; 840  : 					// 10000       
; 841  : 					m_pyBackground.SetViewDistanceSet(0, 25600.0f);

  005c5	f3 0f 10 15 00
	00 00 00	 movss	 xmm2, DWORD PTR __real@46c80000
$LN37@Process:

; 842  : 				}
; 843  : 
; 844  : 				++s_dwRenderFrameCount;

  005cd	b8 78 b9 01 00	 mov	 eax, 113016		; 0001b978H
  005d2	6a 00		 push	 0
  005d4	8d 0c 07	 lea	 ecx, DWORD PTR [edi+eax]
  005d7	e8 00 00 00 00	 call	 ?SetViewDistanceSet@CPythonBackground@@QAEXHM@Z ; CPythonBackground::SetViewDistanceSet
  005dc	ff 05 00 00 00
	00		 inc	 DWORD PTR ?s_dwRenderFrameCount@?1??Process@CPythonApplication@@QAE_NXZ@4KA
$LN53@Process:

; 845  : 			}
; 846  : 		}
; 847  : 	}
; 848  : 
; 849  : 	int rest = s_uiNextFrameTime - ELTimer_GetMSec();

  005e2	8b 5d ec	 mov	 ebx, DWORD PTR $T3[ebp]
$LN19@Process:
  005e5	e8 00 00 00 00	 call	 ?ELTimer_GetMSec@@YAKXZ	; ELTimer_GetMSec
  005ea	8b 0d 00 00 00
	00		 mov	 ecx, DWORD PTR ?s_uiNextFrameTime@?1??Process@CPythonApplication@@QAE_NXZ@4IA
  005f0	2b c8		 sub	 ecx, eax

; 850  : 
; 851  : 	if (rest > 0 && !bCurrentLateUpdate )

  005f2	85 c9		 test	 ecx, ecx
  005f4	7e 11		 jle	 SHORT $LN38@Process
  005f6	85 db		 test	 ebx, ebx
  005f8	75 0d		 jne	 SHORT $LN38@Process

; 852  : 	{
; 853  : 		s_uiLoad -= rest;	//    ..

  005fa	29 0d 00 00 00
	00		 sub	 DWORD PTR ?s_uiLoad@?1??Process@CPythonApplication@@QAE_NXZ@4IA, ecx

; 854  : 		Sleep(rest);

  00600	51		 push	 ecx
  00601	ff 15 00 00 00
	00		 call	 DWORD PTR __imp__Sleep@4
$LN38@Process:

; 855  : 	}	
; 856  : 
; 857  : 	++s_dwUpdateFrameCount;

  00607	ff 05 00 00 00
	00		 inc	 DWORD PTR ?s_dwUpdateFrameCount@?1??Process@CPythonApplication@@QAE_NXZ@4KA

; 858  : 
; 859  : 	s_uiLoad += ELTimer_GetMSec() - dwStart;

  0060d	e8 00 00 00 00	 call	 ?ELTimer_GetMSec@@YAKXZ	; ELTimer_GetMSec
  00612	2b 45 dc	 sub	 eax, DWORD PTR _dwStart$1$[ebp]
  00615	01 05 00 00 00
	00		 add	 DWORD PTR ?s_uiLoad@?1??Process@CPythonApplication@@QAE_NXZ@4IA, eax

; 860  : 	//m_Profiler.ProfileByScreen();	
; 861  : 	return true;

  0061b	b0 01		 mov	 al, 1

; 862  : }

  0061d	8b 4d f4	 mov	 ecx, DWORD PTR __$EHRec$[ebp]
  00620	64 89 0d 00 00
	00 00		 mov	 DWORD PTR fs:0, ecx
  00627	59		 pop	 ecx
  00628	5f		 pop	 edi
  00629	5e		 pop	 esi
  0062a	5b		 pop	 ebx
  0062b	8b e5		 mov	 esp, ebp
  0062d	5d		 pop	 ebp
  0062e	c3		 ret	 0
$LN57@Process:

; 416  : 
; 417  : 	///////////////////////////////////////////////////////////////////////////////////////////////////
; 418  : 	static DWORD	s_dwUpdateFrameCount = 0;
; 419  : 	static DWORD	s_dwRenderFrameCount = 0;
; 420  : 	static DWORD	s_dwFaceCount = 0;
; 421  : 	static UINT		s_uiLoad = 0;
; 422  : 	static DWORD	s_dwCheckTime = ELTimer_GetMSec();

  0062f	68 00 00 00 00	 push	 OFFSET ?$TSS0@?1??Process@CPythonApplication@@QAE_NXZ@4HA
  00634	e8 00 00 00 00	 call	 __Init_thread_header
  00639	83 c4 04	 add	 esp, 4
  0063c	83 3d 00 00 00
	00 ff		 cmp	 DWORD PTR ?$TSS0@?1??Process@CPythonApplication@@QAE_NXZ@4HA, -1
  00643	0f 85 0c fa ff
	ff		 jne	 $LN2@Process
  00649	c7 45 fc 00 00
	00 00		 mov	 DWORD PTR __$EHRec$[ebp+8], 0
  00650	e8 00 00 00 00	 call	 ?ELTimer_GetMSec@@YAKXZ	; ELTimer_GetMSec
  00655	68 00 00 00 00	 push	 OFFSET ?$TSS0@?1??Process@CPythonApplication@@QAE_NXZ@4HA
  0065a	a3 00 00 00 00	 mov	 DWORD PTR ?s_dwCheckTime@?1??Process@CPythonApplication@@QAE_NXZ@4KA, eax
  0065f	c7 45 fc ff ff
	ff ff		 mov	 DWORD PTR __$EHRec$[ebp+8], -1
  00666	e8 00 00 00 00	 call	 __Init_thread_footer
  0066b	83 c4 04	 add	 esp, 4
  0066e	e9 e2 f9 ff ff	 jmp	 $LN2@Process
$LN58@Process:

; 435  : 	}
; 436  : 
; 437  : 	// Update Time
; 438  : 	static BOOL s_bFrameSkip = false;
; 439  : 	static UINT s_uiNextFrameTime = ELTimer_GetMSec();

  00673	68 00 00 00 00	 push	 OFFSET ?$TSS1@?1??Process@CPythonApplication@@QAE_NXZ@4HA
  00678	e8 00 00 00 00	 call	 __Init_thread_header
  0067d	83 c4 04	 add	 esp, 4
  00680	83 3d 00 00 00
	00 ff		 cmp	 DWORD PTR ?$TSS1@?1??Process@CPythonApplication@@QAE_NXZ@4HA, -1
  00687	0f 85 58 fa ff
	ff		 jne	 $LN3@Process
  0068d	c7 45 fc 01 00
	00 00		 mov	 DWORD PTR __$EHRec$[ebp+8], 1
  00694	e8 00 00 00 00	 call	 ?ELTimer_GetMSec@@YAKXZ	; ELTimer_GetMSec
  00699	68 00 00 00 00	 push	 OFFSET ?$TSS1@?1??Process@CPythonApplication@@QAE_NXZ@4HA
  0069e	a3 00 00 00 00	 mov	 DWORD PTR ?s_uiNextFrameTime@?1??Process@CPythonApplication@@QAE_NXZ@4IA, eax
  006a3	c7 45 fc ff ff
	ff ff		 mov	 DWORD PTR __$EHRec$[ebp+8], -1
  006aa	e8 00 00 00 00	 call	 __Init_thread_footer
  006af	83 c4 04	 add	 esp, 4
  006b2	e9 2e fa ff ff	 jmp	 $LN3@Process
$LN59@Process:

; 742  : 
; 743  : 				static DWORD s_dwRenderCheckTime = dwRenderEndTime;

  006b7	68 00 00 00 00	 push	 OFFSET ?$TSS2@?CJ@??Process@CPythonApplication@@QAE_NXZ@4HA
  006bc	e8 00 00 00 00	 call	 __Init_thread_header
  006c1	83 c4 04	 add	 esp, 4
  006c4	83 3d 00 00 00
	00 ff		 cmp	 DWORD PTR ?$TSS2@?CJ@??Process@CPythonApplication@@QAE_NXZ@4HA, -1
  006cb	0f 85 84 fc ff
	ff		 jne	 $LN4@Process
  006d1	68 00 00 00 00	 push	 OFFSET ?$TSS2@?CJ@??Process@CPythonApplication@@QAE_NXZ@4HA
  006d6	89 1d 00 00 00
	00		 mov	 DWORD PTR ?s_dwRenderCheckTime@?CJ@??Process@CPythonApplication@@QAE_NXZ@4KA, ebx
  006dc	e8 00 00 00 00	 call	 __Init_thread_footer
  006e1	83 c4 04	 add	 esp, 4
  006e4	e9 6c fc ff ff	 jmp	 $LN4@Process
_TEXT	ENDS
;	COMDAT text$x
text$x	SEGMENT
__unwindfunclet$?Process@CPythonApplication@@QAE_NXZ$0:
  00000	68 00 00 00 00	 push	 OFFSET ?$TSS0@?1??Process@CPythonApplication@@QAE_NXZ@4HA
  00005	e8 00 00 00 00	 call	 __Init_thread_abort
  0000a	59		 pop	 ecx
  0000b	c3		 ret	 0
__unwindfunclet$?Process@CPythonApplication@@QAE_NXZ$1:
  0000c	68 00 00 00 00	 push	 OFFSET ?$TSS1@?1??Process@CPythonApplication@@QAE_NXZ@4HA
  00011	e8 00 00 00 00	 call	 __Init_thread_abort
  00016	59		 pop	 ecx
  00017	c3		 ret	 0
  00018	cc		 int	 3
  00019	cc		 int	 3
  0001a	cc		 int	 3
  0001b	cc		 int	 3
  0001c	cc		 int	 3
__ehhandler$?Process@CPythonApplication@@QAE_NXZ:
  0001d	90		 npad	 1
  0001e	90		 npad	 1
  0001f	8b 54 24 08	 mov	 edx, DWORD PTR [esp+8]
  00023	8d 42 0c	 lea	 eax, DWORD PTR [edx+12]
  00026	8b 4a cc	 mov	 ecx, DWORD PTR [edx-52]
  00029	33 c8		 xor	 ecx, eax
  0002b	e8 00 00 00 00	 call	 @__security_check_cookie@4
  00030	b8 00 00 00 00	 mov	 eax, OFFSET __ehfuncinfo$?Process@CPythonApplication@@QAE_NXZ
  00035	e9 00 00 00 00	 jmp	 ___CxxFrameHandler3
text$x	ENDS
?Process@CPythonApplication@@QAE_NXZ ENDP		; CPythonApplication::Process
; Function compile flags: /Ogtp
; File D:\_m2work\txoko-m2-work\txoko-client-src\source\UserInterface\PythonApplication.cpp
;	COMDAT ?SetMouseHandler@CPythonApplication@@QAEXPAU_object@@@Z
_TEXT	SEGMENT
_poMouseHandler$ = 8					; size = 4
?SetMouseHandler@CPythonApplication@@QAEXPAU_object@@@Z PROC ; CPythonApplication::SetMouseHandler, COMDAT
; _this$ = ecx

; 872  : {	

  00000	55		 push	 ebp
  00001	8b ec		 mov	 ebp, esp

; 873  : 	m_poMouseHandler = poMouseHandler;

  00003	8b 45 08	 mov	 eax, DWORD PTR _poMouseHandler$[ebp]
  00006	89 81 7c fd 01
	00		 mov	 DWORD PTR [ecx+130428], eax

; 874  : }

  0000c	5d		 pop	 ebp
  0000d	c2 04 00	 ret	 4
?SetMouseHandler@CPythonApplication@@QAEXPAU_object@@@Z ENDP ; CPythonApplication::SetMouseHandler
_TEXT	ENDS
; Function compile flags: /Ogtp
; File D:\_m2work\txoko-m2-work\txoko-client-src\source\UserInterface\PythonApplication.cpp
;	COMDAT ?CreateDevice@CPythonApplication@@QAE_NHHHHH@Z
_TEXT	SEGMENT
_width$ = 8						; size = 4
_height$ = 12						; size = 4
_Windowed$ = 16						; size = 4
_bit$ = 20						; size = 4
_frequency$ = 24					; size = 4
?CreateDevice@CPythonApplication@@QAE_NHHHHH@Z PROC	; CPythonApplication::CreateDevice, COMDAT
; _this$ = ecx

; 902  : {

  00000	55		 push	 ebp
  00001	8b ec		 mov	 ebp, esp
  00003	51		 push	 ecx
  00004	56		 push	 esi
  00005	8b f1		 mov	 esi, ecx
  00007	57		 push	 edi

; 903  : 	int iRet;
; 904  : 
; 905  : 	m_grpDevice.InitBackBufferCount(2);

  00008	6a 02		 push	 2
  0000a	8d 8e 70 d6 01
	00		 lea	 ecx, DWORD PTR [esi+120432]
  00010	e8 00 00 00 00	 call	 ?InitBackBufferCount@CGraphicDevice@@QAEXI@Z ; CGraphicDevice::InitBackBufferCount

; 906  : 	m_grpDevice.RegisterWarningString(CGraphicDevice::CREATE_BAD_DRIVER, ApplicationStringTable_GetStringz(IDS_WARN_BAD_DRIVER, "WARN_BAD_DRIVER"));

  00015	ba 00 00 00 00	 mov	 edx, OFFSET ??_C@_0BA@NOHKOOIE@WARN_BAD_DRIVER@
  0001a	b9 03 00 00 00	 mov	 ecx, 3
  0001f	e8 00 00 00 00	 call	 ?ApplicationStringTable_GetStringz@@YAPBDKPBD@Z ; ApplicationStringTable_GetStringz
  00024	50		 push	 eax
  00025	68 00 02 00 00	 push	 512			; 00000200H
  0002a	8d 8e 70 d6 01
	00		 lea	 ecx, DWORD PTR [esi+120432]
  00030	e8 00 00 00 00	 call	 ?RegisterWarningString@CGraphicDevice@@QAEXIPBD@Z ; CGraphicDevice::RegisterWarningString

; 907  : 	m_grpDevice.RegisterWarningString(CGraphicDevice::CREATE_NO_TNL, ApplicationStringTable_GetStringz(IDS_WARN_NO_TNL, "WARN_NO_TNL"));

  00035	ba 00 00 00 00	 mov	 edx, OFFSET ??_C@_0M@MOGGPFAH@WARN_NO_TNL@
  0003a	b9 04 00 00 00	 mov	 ecx, 4
  0003f	e8 00 00 00 00	 call	 ?ApplicationStringTable_GetStringz@@YAPBDKPBD@Z ; ApplicationStringTable_GetStringz
  00044	50		 push	 eax
  00045	68 00 01 00 00	 push	 256			; 00000100H
  0004a	8d 8e 70 d6 01
	00		 lea	 ecx, DWORD PTR [esi+120432]
  00050	e8 00 00 00 00	 call	 ?RegisterWarningString@CGraphicDevice@@QAEXIPBD@Z ; CGraphicDevice::RegisterWarningString

; 908  : 
; 909  : 	iRet = m_grpDevice.Create(GetWindowHandle(), width, height, Windowed ? true : false, bit,frequency);

  00055	ff 75 18	 push	 DWORD PTR _frequency$[ebp]
  00058	83 7d 10 00	 cmp	 DWORD PTR _Windowed$[ebp], 0
  0005c	8b ce		 mov	 ecx, esi
  0005e	ff 75 14	 push	 DWORD PTR _bit$[ebp]
  00061	0f 95 c0	 setne	 al
  00064	0f b6 c0	 movzx	 eax, al
  00067	50		 push	 eax
  00068	ff 75 0c	 push	 DWORD PTR _height$[ebp]
  0006b	ff 75 08	 push	 DWORD PTR _width$[ebp]
  0006e	e8 00 00 00 00	 call	 ?GetWindowHandle@CMSWindow@@QAEPAUHWND__@@XZ ; CMSWindow::GetWindowHandle
  00073	50		 push	 eax
  00074	8d 8e 70 d6 01
	00		 lea	 ecx, DWORD PTR [esi+120432]
  0007a	e8 00 00 00 00	 call	 ?Create@CGraphicDevice@@QAEHPAUHWND__@@HH_NHH@Z ; CGraphicDevice::Create

; 910  : 
; 911  : 	switch (iRet)

  0007f	83 f8 10	 cmp	 eax, 16			; 00000010H
  00082	0f 8f b9 00 00
	00		 jg	 $LN17@CreateDevi
  00088	0f 84 8b 00 00
	00		 je	 $LN9@CreateDevi
  0008e	8d 48 ff	 lea	 ecx, DWORD PTR [eax-1]
  00091	83 f9 07	 cmp	 ecx, 7
  00094	0f 87 e9 00 00
	00		 ja	 $LN13@CreateDevi
  0009a	ff 24 8d 00 00
	00 00		 jmp	 DWORD PTR $LN19@CreateDevi[ecx*4]
$LN8@CreateDevi:

; 923  : 		return false;
; 924  : 
; 925  : 	case CGraphicDevice::CREATE_NO_DIRECTX:
; 926  : 		//PyErr_SetString(PyExc_RuntimeError, "DirectX 8.1 or greater required to run game");
; 927  : 		SET_EXCEPTION(CREATE_NO_DIRECTX);

  000a1	a1 00 00 00 00	 mov	 eax, DWORD PTR __imp__PyExc_RuntimeError
  000a6	68 00 00 00 00	 push	 OFFSET ??_C@_0BC@NKAKBNDM@CREATE_NO_DIRECTX@
  000ab	ff 30		 push	 DWORD PTR [eax]
  000ad	ff 15 00 00 00
	00		 call	 DWORD PTR __imp__PyErr_SetString

; 928  : 		TraceError("CreateDevice: DirectX 8.1 or greater required to run game");

  000b3	68 00 00 00 00	 push	 OFFSET ??_C@_0DK@GACPAJMM@CreateDevice?3?5DirectX?58?41?5or?5gr@

; 976  : 		return false;
; 977  : 	}
; 978  : }

  000b8	e8 00 00 00 00	 call	 ?TraceError@@YAXPBDZZ	; TraceError
  000bd	83 c4 0c	 add	 esp, 12			; 0000000cH
  000c0	32 c0		 xor	 al, al
  000c2	5f		 pop	 edi
  000c3	5e		 pop	 esi
  000c4	59		 pop	 ecx
  000c5	5d		 pop	 ebp
  000c6	c2 14 00	 ret	 20			; 00000014H
$LN11@CreateDevi:

; 940  : 		return false;
; 941  : 
; 942  : 		/*case CGraphicDevice::CREATE_GET_ADAPTER_DISPLAY_MODE:
; 943  : 		//PyErr_SetString(PyExc_RuntimeError, "GetAdapterDisplayMode failed");
; 944  : 		SET_EXCEPTION(CREATE_GET_ADAPTER_DISPLAY_MODE);
; 945  : 		TraceError("CreateDevice: GetAdapterDisplayMode failed");
; 946  : 		return false;*/
; 947  : 
; 948  : 	case CGraphicDevice::CREATE_GET_DEVICE_CAPS:
; 949  : 		PyErr_SetString(PyExc_RuntimeError, "GetDevCaps failed");

  000c9	a1 00 00 00 00	 mov	 eax, DWORD PTR __imp__PyExc_RuntimeError
  000ce	68 00 00 00 00	 push	 OFFSET ??_C@_0BC@IMJEDJEA@GetDevCaps?5failed@
  000d3	ff 30		 push	 DWORD PTR [eax]
  000d5	ff 15 00 00 00
	00		 call	 DWORD PTR __imp__PyErr_SetString

; 950  : 		TraceError("CreateDevice: GetDevCaps failed");

  000db	68 00 00 00 00	 push	 OFFSET ??_C@_0CA@DLHDILBB@CreateDevice?3?5GetDevCaps?5failed@

; 976  : 		return false;
; 977  : 	}
; 978  : }

  000e0	e8 00 00 00 00	 call	 ?TraceError@@YAXPBDZZ	; TraceError
  000e5	83 c4 0c	 add	 esp, 12			; 0000000cH
  000e8	32 c0		 xor	 al, al
  000ea	5f		 pop	 edi
  000eb	5e		 pop	 esi
  000ec	59		 pop	 ecx
  000ed	5d		 pop	 ebp
  000ee	c2 14 00	 ret	 20			; 00000014H
$LN12@CreateDevi:

; 951  : 		return false;
; 952  : 
; 953  : 	case CGraphicDevice::CREATE_GET_DEVICE_CAPS2:
; 954  : 		PyErr_SetString(PyExc_RuntimeError, "GetDevCaps2 failed");

  000f1	a1 00 00 00 00	 mov	 eax, DWORD PTR __imp__PyExc_RuntimeError
  000f6	68 00 00 00 00	 push	 OFFSET ??_C@_0BD@IHNLMMLJ@GetDevCaps2?5failed@
  000fb	ff 30		 push	 DWORD PTR [eax]
  000fd	ff 15 00 00 00
	00		 call	 DWORD PTR __imp__PyErr_SetString

; 955  : 		TraceError("CreateDevice: GetDevCaps2 failed");

  00103	68 00 00 00 00	 push	 OFFSET ??_C@_0CB@JLAAEKGJ@CreateDevice?3?5GetDevCaps2?5faile@

; 976  : 		return false;
; 977  : 	}
; 978  : }

  00108	e8 00 00 00 00	 call	 ?TraceError@@YAXPBDZZ	; TraceError
  0010d	83 c4 0c	 add	 esp, 12			; 0000000cH
  00110	32 c0		 xor	 al, al
  00112	5f		 pop	 edi
  00113	5e		 pop	 esi
  00114	59		 pop	 ecx
  00115	5d		 pop	 ebp
  00116	c2 14 00	 ret	 20			; 00000014H
$LN9@CreateDevi:

; 929  : 		return false;
; 930  : 
; 931  : 	case CGraphicDevice::CREATE_DEVICE:
; 932  : 		//PyErr_SetString(PyExc_RuntimeError, "GraphicDevice create failed");
; 933  : 		SET_EXCEPTION(CREATE_DEVICE);

  00119	a1 00 00 00 00	 mov	 eax, DWORD PTR __imp__PyExc_RuntimeError
  0011e	68 00 00 00 00	 push	 OFFSET ??_C@_0O@CMPMDOEH@CREATE_DEVICE@
  00123	ff 30		 push	 DWORD PTR [eax]
  00125	ff 15 00 00 00
	00		 call	 DWORD PTR __imp__PyErr_SetString

; 934  : 		TraceError("CreateDevice: GraphicDevice create failed");

  0012b	68 00 00 00 00	 push	 OFFSET ??_C@_0CK@KMPBIDGP@CreateDevice?3?5GraphicDevice?5cre@

; 976  : 		return false;
; 977  : 	}
; 978  : }

  00130	e8 00 00 00 00	 call	 ?TraceError@@YAXPBDZZ	; TraceError
  00135	83 c4 0c	 add	 esp, 12			; 0000000cH
  00138	32 c0		 xor	 al, al
  0013a	5f		 pop	 edi
  0013b	5e		 pop	 esi
  0013c	59		 pop	 ecx
  0013d	5d		 pop	 ebp
  0013e	c2 14 00	 ret	 20			; 00000014H
$LN17@CreateDevi:

; 910  : 
; 911  : 	switch (iRet)

  00141	3d 80 00 00 00	 cmp	 eax, 128		; 00000080H
  00146	7f 34		 jg	 SHORT $LN18@CreateDevi
  00148	74 0a		 je	 SHORT $LN6@CreateDevi
  0014a	83 f8 20	 cmp	 eax, 32			; 00000020H
  0014d	74 49		 je	 SHORT $LN15@CreateDevi
  0014f	83 f8 40	 cmp	 eax, 64			; 00000040H
  00152	75 2f		 jne	 SHORT $LN13@CreateDevi
$LN6@CreateDevi:

; 912  : 	{
; 913  : 	case CGraphicDevice::CREATE_OK:
; 914  : 		return true;
; 915  : 
; 916  : 	case CGraphicDevice::CREATE_REFRESHRATE:
; 917  : 		return true;
; 918  : 
; 919  : 	case CGraphicDevice::CREATE_ENUM:
; 920  : 	case CGraphicDevice::CREATE_DETECT:
; 921  : 		SET_EXCEPTION(CREATE_NO_APPROPRIATE_DEVICE);

  00154	a1 00 00 00 00	 mov	 eax, DWORD PTR __imp__PyExc_RuntimeError
  00159	68 00 00 00 00	 push	 OFFSET ??_C@_0BN@OAKBEJJN@CREATE_NO_APPROPRIATE_DEVICE@
  0015e	ff 30		 push	 DWORD PTR [eax]
  00160	ff 15 00 00 00
	00		 call	 DWORD PTR __imp__PyErr_SetString

; 922  : 		TraceError("CreateDevice: Enum & Detect failed");

  00166	68 00 00 00 00	 push	 OFFSET ??_C@_0CD@GGLEAAKE@CreateDevice?3?5Enum?5?$CG?5Detect?5fai@

; 976  : 		return false;
; 977  : 	}
; 978  : }

  0016b	e8 00 00 00 00	 call	 ?TraceError@@YAXPBDZZ	; TraceError
  00170	83 c4 0c	 add	 esp, 12			; 0000000cH
  00173	32 c0		 xor	 al, al
  00175	5f		 pop	 edi
  00176	5e		 pop	 esi
  00177	59		 pop	 ecx
  00178	5d		 pop	 ebp
  00179	c2 14 00	 ret	 20			; 00000014H
$LN18@CreateDevi:

; 910  : 
; 911  : 	switch (iRet)

  0017c	3d 00 04 00 00	 cmp	 eax, 1024		; 00000400H
  00181	74 46		 je	 SHORT $LN10@CreateDevi
$LN13@CreateDevi:

; 956  : 		return false;
; 957  : 
; 958  : 	default:
; 959  : 		if (iRet & CGraphicDevice::CREATE_OK)

  00183	a8 01		 test	 al, 1
  00185	74 1a		 je	 SHORT $LN14@CreateDevi

; 960  : 		{
; 961  : 			//if (iRet & CGraphicDevice::CREATE_BAD_DRIVER)
; 962  : 			//{
; 963  : 			//	LogBox(ApplicationStringTable_GetStringz(IDS_WARN_BAD_DRIVER), NULL, GetWindowHandle());
; 964  : 			//}
; 965  : 			if (iRet & CGraphicDevice::CREATE_NO_TNL)

  00187	a9 00 01 00 00	 test	 eax, 256		; 00000100H
  0018c	74 0a		 je	 SHORT $LN15@CreateDevi

; 966  : 			{
; 967  : 				CGrannyLODController::SetMinLODMode(true);

  0018e	6a 01		 push	 1
  00190	e8 00 00 00 00	 call	 ?SetMinLODMode@CGrannyLODController@@SAX_N@Z ; CGrannyLODController::SetMinLODMode
  00195	83 c4 04	 add	 esp, 4
$LN15@CreateDevi:

; 968  : 				//LogBox(ApplicationStringTable_GetStringz(IDS_WARN_NO_TNL), NULL, GetWindowHandle());
; 969  : 			}
; 970  : 			return true;

  00198	b0 01		 mov	 al, 1

; 976  : 		return false;
; 977  : 	}
; 978  : }

  0019a	5f		 pop	 edi
  0019b	5e		 pop	 esi
  0019c	59		 pop	 ecx
  0019d	5d		 pop	 ebp
  0019e	c2 14 00	 ret	 20			; 00000014H
$LN14@CreateDevi:

; 971  : 		}
; 972  : 
; 973  : 		//PyErr_SetString(PyExc_RuntimeError, "Unknown Error!");
; 974  : 		SET_EXCEPTION(UNKNOWN_ERROR);

  001a1	a1 00 00 00 00	 mov	 eax, DWORD PTR __imp__PyExc_RuntimeError
  001a6	68 00 00 00 00	 push	 OFFSET ??_C@_0O@BAEJJDKB@UNKNOWN_ERROR@
  001ab	ff 30		 push	 DWORD PTR [eax]
  001ad	ff 15 00 00 00
	00		 call	 DWORD PTR __imp__PyErr_SetString

; 975  : 		TraceError("CreateDevice: Unknown Error!");

  001b3	68 00 00 00 00	 push	 OFFSET ??_C@_0BN@JAHEKIGK@CreateDevice?3?5Unknown?5Error?$CB@

; 976  : 		return false;
; 977  : 	}
; 978  : }

  001b8	e8 00 00 00 00	 call	 ?TraceError@@YAXPBDZZ	; TraceError
  001bd	83 c4 0c	 add	 esp, 12			; 0000000cH
  001c0	32 c0		 xor	 al, al
  001c2	5f		 pop	 edi
  001c3	5e		 pop	 esi
  001c4	59		 pop	 ecx
  001c5	5d		 pop	 ebp
  001c6	c2 14 00	 ret	 20			; 00000014H
$LN10@CreateDevi:

; 935  : 		return false;
; 936  : 
; 937  : 	case CGraphicDevice::CREATE_FORMAT:
; 938  : 		SET_EXCEPTION(CREATE_FORMAT);

  001c9	a1 00 00 00 00	 mov	 eax, DWORD PTR __imp__PyExc_RuntimeError
  001ce	68 00 00 00 00	 push	 OFFSET ??_C@_0O@DAEHMKOB@CREATE_FORMAT@
  001d3	ff 30		 push	 DWORD PTR [eax]
  001d5	ff 15 00 00 00
	00		 call	 DWORD PTR __imp__PyErr_SetString

; 939  : 		TraceError("CreateDevice: Change the screen format");

  001db	68 00 00 00 00	 push	 OFFSET ??_C@_0CH@DEBFNBPL@CreateDevice?3?5Change?5the?5screen@

; 976  : 		return false;
; 977  : 	}
; 978  : }

  001e0	e8 00 00 00 00	 call	 ?TraceError@@YAXPBDZZ	; TraceError
  001e5	83 c4 0c	 add	 esp, 12			; 0000000cH
  001e8	32 c0		 xor	 al, al
  001ea	5f		 pop	 edi
  001eb	5e		 pop	 esi
  001ec	59		 pop	 ecx
  001ed	5d		 pop	 ebp
  001ee	c2 14 00	 ret	 20			; 00000014H
  001f1	0f 1f 00	 npad	 3
$LN19@CreateDevi:
  001f4	00 00 00 00	 DD	 $LN15@CreateDevi
  001f8	00 00 00 00	 DD	 $LN8@CreateDevi
  001fc	00 00 00 00	 DD	 $LN13@CreateDevi
  00200	00 00 00 00	 DD	 $LN11@CreateDevi
  00204	00 00 00 00	 DD	 $LN13@CreateDevi
  00208	00 00 00 00	 DD	 $LN13@CreateDevi
  0020c	00 00 00 00	 DD	 $LN13@CreateDevi
  00210	00 00 00 00	 DD	 $LN12@CreateDevi
?CreateDevice@CPythonApplication@@QAE_NHHHHH@Z ENDP	; CPythonApplication::CreateDevice
_TEXT	ENDS
; Function compile flags: /Ogtp
; File D:\_m2work\txoko-m2-work\txoko-client-src\source\UserInterface\PythonApplication.cpp
;	COMDAT ?Loop@CPythonApplication@@QAEXXZ
_TEXT	SEGMENT
?Loop@CPythonApplication@@QAEXXZ PROC			; CPythonApplication::Loop, COMDAT
; _this$ = ecx

; 981  : {	

  00000	55		 push	 ebp
  00001	8b ec		 mov	 ebp, esp
  00003	83 e4 f8	 and	 esp, -8			; fffffff8H
  00006	51		 push	 ecx
  00007	56		 push	 esi
  00008	8b f1		 mov	 esi, ecx
  0000a	66 0f 1f 44 00
	00		 npad	 6
$LL2@Loop:

; 982  : 	while (1)
; 983  : 	{	
; 984  : 		if (IsMessage())

  00010	8b ce		 mov	 ecx, esi
  00012	e8 00 00 00 00	 call	 ?IsMessage@CMSApplication@@QAE_NXZ ; CMSApplication::IsMessage
  00017	8b ce		 mov	 ecx, esi
  00019	84 c0		 test	 al, al
  0001b	74 0e		 je	 SHORT $LN4@Loop

; 985  : 		{
; 986  : 			if (!MessageProcess())

  0001d	e8 00 00 00 00	 call	 ?MessageProcess@CMSApplication@@QAE_NXZ ; CMSApplication::MessageProcess
  00022	84 c0		 test	 al, al
  00024	75 ea		 jne	 SHORT $LL2@Loop
$LN11@Loop:

; 997  : }

  00026	5e		 pop	 esi
  00027	8b e5		 mov	 esp, ebp
  00029	5d		 pop	 ebp
  0002a	c3		 ret	 0
$LN4@Loop:

; 987  : 				break;
; 988  : 		}
; 989  : 		else
; 990  : 		{
; 991  : 			if (!Process())

  0002b	e8 00 00 00 00	 call	 ?Process@CPythonApplication@@QAE_NXZ ; CPythonApplication::Process
  00030	84 c0		 test	 al, al
