; Listing generated by Microsoft (R) Optimizing Compiler Version 19.44.35217.0 

	TITLE	d:\_m2work\txoko-m2-work\txoko-client-src\vs_files\userinterface\distribute\pythonchatmodule.obj
	.686P
	.XMM
	include listing.inc
	.model	flat

INCLUDELIB OLDNAMES

PUBLIC	??_C@_01JLIPDDHJ@?3@				; `string'
PUBLIC	??_C@_04NHONDGDE@item@				; `string'
PUBLIC	??_C@_0BE@FGPADLIF@item?3?$CFx?3?$CFx?3?$CFx?3?$CFx?3?$CFx@ ; `string'
PUBLIC	??_C@_09CNFFNIIC@?3?$CFx?3?$CFI64d@		; `string'
PUBLIC	??_C@_0BJ@DABMGIOF@?$HMcffffc700?$HMH?$CFs?$HMh?$FL?$CFs?$FN?$HMh?$HMr@ ; `string'
PUBLIC	??_C@_0BJ@GPGFNPLK@?$HMcfff1e6c0?$HMH?$CFs?$HMh?$FL?$CFs?$FN?$HMh?$HMr@ ; `string'
PUBLIC	??_C@_0N@JBENFECF@SetChatColor@			; `string'
PUBLIC	??_C@_05MDNHABIA@Clear@				; `string'
PUBLIC	??_C@_05LGELBCGM@Close@				; `string'
PUBLIC	??_C@_0O@NIPGGDN@CreateChatSet@			; `string'
PUBLIC	??_C@_0O@HLECNMMJ@SetBoardState@		; `string'
PUBLIC	??_C@_0M@GKIFPNAD@SetPosition@			; `string'
PUBLIC	??_C@_09GACBKIFI@SetHeight@			; `string'
PUBLIC	??_C@_07PCIEAKML@SetStep@			; `string'
PUBLIC	??_C@_0P@HJNLNPCF@ToggleChatMode@		; `string'
PUBLIC	??_C@_0P@CBALNCDJ@EnableChatMode@		; `string'
PUBLIC	??_C@_0BA@PMFEPLLL@DisableChatMode@		; `string'
PUBLIC	??_C@_09LEFDLNLA@SetEndPos@			; `string'
PUBLIC	??_C@_0N@GBIDIHNF@GetLineCount@			; `string'
PUBLIC	??_C@_0BE@ECGLNJIP@GetVisibleLineCount@		; `string'
PUBLIC	??_C@_0M@JAIPGIEI@GetLineStep@			; `string'
PUBLIC	??_C@_0L@LGDEPKMK@AppendChat@			; `string'
PUBLIC	??_C@_0BE@OLLFFMAP@AppendChatWithDelay@		; `string'
PUBLIC	??_C@_0BD@PGAGKLIB@ArrangeShowingChat@		; `string'
PUBLIC	??_C@_0BA@OBLLPMIK@IgnoreCharacter@		; `string'
PUBLIC	??_C@_0BC@BPLLIFOI@IsIgnoreCharacter@		; `string'
PUBLIC	??_C@_0O@EPNAKAMH@CreateWhisper@		; `string'
PUBLIC	??_C@_0O@MNHHDNCN@AppendWhisper@		; `string'
PUBLIC	??_C@_0O@HNBBBAHN@RenderWhisper@		; `string'
PUBLIC	??_C@_0BC@IEABADGD@SetWhisperBoxSize@		; `string'
PUBLIC	??_C@_0BD@NNNKEDJK@SetWhisperPosition@		; `string'
PUBLIC	??_C@_0N@FCHOFFAF@ClearWhisper@			; `string'
PUBLIC	??_C@_0M@OFOGDKFP@InitWhisper@			; `string'
PUBLIC	??_C@_0BF@BJFLHIAM@GetLinkFromHyperlink@	; `string'
PUBLIC	??_C@_04BLJLMHHG@chat@				; `string'
PUBLIC	??_C@_0BC@EHLMCJH@CHAT_TYPE_TALKING@		; `string'
PUBLIC	??_C@_0P@MIHHHBMP@CHAT_TYPE_INFO@		; `string'
PUBLIC	??_C@_0BB@KFACLMJA@CHAT_TYPE_NOTICE@		; `string'
PUBLIC	??_C@_0BA@JOLAGJG@CHAT_TYPE_PARTY@		; `string'
PUBLIC	??_C@_0BA@OIBJELLN@CHAT_TYPE_GUILD@		; `string'
PUBLIC	??_C@_0BC@IILPNMNB@CHAT_TYPE_COMMAND@		; `string'
PUBLIC	??_C@_0BA@JEHAINHB@CHAT_TYPE_SHOUT@		; `string'
PUBLIC	??_C@_0BC@JMANMLH@CHAT_TYPE_WHISPER@		; `string'
PUBLIC	??_C@_0BC@LIEDKBDG@WHISPER_TYPE_CHAT@		; `string'
PUBLIC	??_C@_0BE@KODPENDJ@WHISPER_TYPE_SYSTEM@		; `string'
PUBLIC	??_C@_0BA@KLIHGMFD@WHISPER_TYPE_GM@		; `string'
PUBLIC	??_C@_0BB@OJGJMFKD@BOARD_STATE_VIEW@		; `string'
PUBLIC	??_C@_0BB@BOHEFKIL@BOARD_STATE_EDIT@		; `string'
PUBLIC	??_C@_0BA@PGHAPLJK@BOARD_STATE_LOG@		; `string'
PUBLIC	??_C@_0BF@FCHEGAKH@CHAT_SET_CHAT_WINDOW@	; `string'
PUBLIC	??_C@_0BE@OPDJLJMH@CHAT_SET_LOG_WINDOW@		; `string'
EXTRN	__atoi64:PROC
EXTRN	?GetName@CItemData@@QBEPBDXZ:PROC		; CItemData::GetName
EXTRN	?split_string@@YAHABV?$basic_string@DU?$char_traits@D@std@@V?$allocator@D@2@@std@@0AAV?$vector@V?$basic_string@DU?$char_traits@D@std@@V?$allocator@D@2@@std@@V?$allocator@V?$basic_string@DU?$char_traits@D@std@@V?$allocator@D@2@@std@@@2@@2@_N@Z:PROC ; split_string
;	COMDAT ?s_methods@?1??initChat@@YAXXZ@4PAUPyMethodDef@@A
_DATA	SEGMENT
?s_methods@?1??initChat@@YAXXZ@4PAUPyMethodDef@@A DD FLAT:??_C@_0N@JBENFECF@SetChatColor@ ; `initChat'::`2'::s_methods
	DD	FLAT:?chatSetChatColor@@YAPAU_object@@PAU1@0@Z
	DD	01H
	ORG $+4
	DD	FLAT:??_C@_05MDNHABIA@Clear@
	DD	FLAT:?chatClear@@YAPAU_object@@PAU1@0@Z
	DD	01H
	ORG $+4
	DD	FLAT:??_C@_05LGELBCGM@Close@
	DD	FLAT:?chatClose@@YAPAU_object@@PAU1@0@Z
	DD	01H
	ORG $+4
	DD	FLAT:??_C@_0O@NIPGGDN@CreateChatSet@
	DD	FLAT:?chatCreateChatSet@@YAPAU_object@@PAU1@0@Z
	DD	01H
	ORG $+4
	DD	FLAT:??_C@_06LMAGPFNF@Update@
	DD	FLAT:?chatUpdate@@YAPAU_object@@PAU1@0@Z
	DD	01H
	ORG $+4
	DD	FLAT:??_C@_06EPLDPNDB@Render@
	DD	FLAT:?chatRender@@YAPAU_object@@PAU1@0@Z
	DD	01H
	ORG $+4
	DD	FLAT:??_C@_0O@HLECNMMJ@SetBoardState@
	DD	FLAT:?chatSetBoardState@@YAPAU_object@@PAU1@0@Z
	DD	01H
	ORG $+4
	DD	FLAT:??_C@_0M@GKIFPNAD@SetPosition@
	DD	FLAT:?chatSetPosition@@YAPAU_object@@PAU1@0@Z
	DD	01H
	ORG $+4
	DD	FLAT:??_C@_09GACBKIFI@SetHeight@
	DD	FLAT:?chatSetHeight@@YAPAU_object@@PAU1@0@Z
	DD	01H
	ORG $+4
	DD	FLAT:??_C@_07PCIEAKML@SetStep@
	DD	FLAT:?chatSetStep@@YAPAU_object@@PAU1@0@Z
	DD	01H
	ORG $+4
	DD	FLAT:??_C@_0P@HJNLNPCF@ToggleChatMode@
	DD	FLAT:?chatToggleChatMode@@YAPAU_object@@PAU1@0@Z
	DD	01H
	ORG $+4
	DD	FLAT:??_C@_0P@CBALNCDJ@EnableChatMode@
	DD	FLAT:?chatEnableChatMode@@YAPAU_object@@PAU1@0@Z
	DD	01H
	ORG $+4
	DD	FLAT:??_C@_0BA@PMFEPLLL@DisableChatMode@
	DD	FLAT:?chatDisableChatMode@@YAPAU_object@@PAU1@0@Z
	DD	01H
	ORG $+4
	DD	FLAT:??_C@_09LEFDLNLA@SetEndPos@
	DD	FLAT:?chatSetEndPos@@YAPAU_object@@PAU1@0@Z
	DD	01H
	ORG $+4
	DD	FLAT:??_C@_0N@GBIDIHNF@GetLineCount@
	DD	FLAT:?chatGetLineCount@@YAPAU_object@@PAU1@0@Z
	DD	01H
	ORG $+4
	DD	FLAT:??_C@_0BE@ECGLNJIP@GetVisibleLineCount@
	DD	FLAT:?chatGetVisibleLineCount@@YAPAU_object@@PAU1@0@Z
	DD	01H
	ORG $+4
	DD	FLAT:??_C@_0M@JAIPGIEI@GetLineStep@
	DD	FLAT:?chatGetLineStep@@YAPAU_object@@PAU1@0@Z
	DD	01H
	ORG $+4
	DD	FLAT:??_C@_0L@LGDEPKMK@AppendChat@
	DD	FLAT:?chatAppendChat@@YAPAU_object@@PAU1@0@Z
	DD	01H
	ORG $+4
	DD	FLAT:??_C@_0BE@OLLFFMAP@AppendChatWithDelay@
	DD	FLAT:?chatAppendChatWithDelay@@YAPAU_object@@PAU1@0@Z
	DD	01H
	ORG $+4
	DD	FLAT:??_C@_0BD@PGAGKLIB@ArrangeShowingChat@
	DD	FLAT:?chatArrangeShowingChat@@YAPAU_object@@PAU1@0@Z
	DD	01H
	ORG $+4
	DD	FLAT:??_C@_0BA@OBLLPMIK@IgnoreCharacter@
	DD	FLAT:?chatIgnoreCharacter@@YAPAU_object@@PAU1@0@Z
	DD	01H
	ORG $+4
	DD	FLAT:??_C@_0BC@BPLLIFOI@IsIgnoreCharacter@
	DD	FLAT:?chatIsIgnoreCharacter@@YAPAU_object@@PAU1@0@Z
	DD	01H
	ORG $+4
	DD	FLAT:??_C@_0O@EPNAKAMH@CreateWhisper@
	DD	FLAT:?chatCreateWhisper@@YAPAU_object@@PAU1@0@Z
	DD	01H
	ORG $+4
	DD	FLAT:??_C@_0O@MNHHDNCN@AppendWhisper@
	DD	FLAT:?chatAppendWhisper@@YAPAU_object@@PAU1@0@Z
	DD	01H
	ORG $+4
	DD	FLAT:??_C@_0O@HNBBBAHN@RenderWhisper@
	DD	FLAT:?chatRenderWhisper@@YAPAU_object@@PAU1@0@Z
	DD	01H
	ORG $+4
	DD	FLAT:??_C@_0BC@IEABADGD@SetWhisperBoxSize@
	DD	FLAT:?chatSetWhisperBoxSize@@YAPAU_object@@PAU1@0@Z
	DD	01H
	ORG $+4
	DD	FLAT:??_C@_0BD@NNNKEDJK@SetWhisperPosition@
	DD	FLAT:?chatSetWhisperPosition@@YAPAU_object@@PAU1@0@Z
	DD	01H
	ORG $+4
	DD	FLAT:??_C@_0N@FCHOFFAF@ClearWhisper@
	DD	FLAT:?chatClearWhisper@@YAPAU_object@@PAU1@0@Z
	DD	01H
	ORG $+4
	DD	FLAT:??_C@_0M@OFOGDKFP@InitWhisper@
	DD	FLAT:?chatInitWhisper@@YAPAU_object@@PAU1@0@Z
	DD	01H
	ORG $+4
	DD	FLAT:??_C@_0BF@BJFLHIAM@GetLinkFromHyperlink@
	DD	FLAT:?chatGetLinkFromHyperlink@@YAPAU_object@@PAU1@0@Z
	DD	01H
	ORG $+4
	DD	00H
	DD	00H
	DD	00H
	ORG $+4
_DATA	ENDS
;	COMDAT ??_C@_0BE@OPDJLJMH@CHAT_SET_LOG_WINDOW@
CONST	SEGMENT
??_C@_0BE@OPDJLJMH@CHAT_SET_LOG_WINDOW@ DB 'CHAT_SET_LOG_WINDOW', 00H ; `string'
CONST	ENDS
;	COMDAT ??_C@_0BF@FCHEGAKH@CHAT_SET_CHAT_WINDOW@
CONST	SEGMENT
??_C@_0BF@FCHEGAKH@CHAT_SET_CHAT_WINDOW@ DB 'CHAT_SET_CHAT_WINDOW', 00H ; `string'
CONST	ENDS
;	COMDAT ??_C@_0BA@PGHAPLJK@BOARD_STATE_LOG@
CONST	SEGMENT
??_C@_0BA@PGHAPLJK@BOARD_STATE_LOG@ DB 'BOARD_STATE_LOG', 00H ; `string'
CONST	ENDS
;	COMDAT ??_C@_0BB@BOHEFKIL@BOARD_STATE_EDIT@
CONST	SEGMENT
??_C@_0BB@BOHEFKIL@BOARD_STATE_EDIT@ DB 'BOARD_STATE_EDIT', 00H ; `string'
CONST	ENDS
;	COMDAT ??_C@_0BB@OJGJMFKD@BOARD_STATE_VIEW@
CONST	SEGMENT
??_C@_0BB@OJGJMFKD@BOARD_STATE_VIEW@ DB 'BOARD_STATE_VIEW', 00H ; `string'
CONST	ENDS
;	COMDAT ??_C@_0BA@KLIHGMFD@WHISPER_TYPE_GM@
CONST	SEGMENT
??_C@_0BA@KLIHGMFD@WHISPER_TYPE_GM@ DB 'WHISPER_TYPE_GM', 00H ; `string'
CONST	ENDS
;	COMDAT ??_C@_0BE@KODPENDJ@WHISPER_TYPE_SYSTEM@
CONST	SEGMENT
??_C@_0BE@KODPENDJ@WHISPER_TYPE_SYSTEM@ DB 'WHISPER_TYPE_SYSTEM', 00H ; `string'
CONST	ENDS
;	COMDAT ??_C@_0BC@LIEDKBDG@WHISPER_TYPE_CHAT@
CONST	SEGMENT
??_C@_0BC@LIEDKBDG@WHISPER_TYPE_CHAT@ DB 'WHISPER_TYPE_CHAT', 00H ; `string'
CONST	ENDS
;	COMDAT ??_C@_0BC@JMANMLH@CHAT_TYPE_WHISPER@
CONST	SEGMENT
??_C@_0BC@JMANMLH@CHAT_TYPE_WHISPER@ DB 'CHAT_TYPE_WHISPER', 00H ; `string'
CONST	ENDS
;	COMDAT ??_C@_0BA@JEHAINHB@CHAT_TYPE_SHOUT@
CONST	SEGMENT
??_C@_0BA@JEHAINHB@CHAT_TYPE_SHOUT@ DB 'CHAT_TYPE_SHOUT', 00H ; `string'
CONST	ENDS
;	COMDAT ??_C@_0BC@IILPNMNB@CHAT_TYPE_COMMAND@
CONST	SEGMENT
??_C@_0BC@IILPNMNB@CHAT_TYPE_COMMAND@ DB 'CHAT_TYPE_COMMAND', 00H ; `string'
CONST	ENDS
;	COMDAT ??_C@_0BA@OIBJELLN@CHAT_TYPE_GUILD@
CONST	SEGMENT
??_C@_0BA@OIBJELLN@CHAT_TYPE_GUILD@ DB 'CHAT_TYPE_GUILD', 00H ; `string'
CONST	ENDS
;	COMDAT ??_C@_0BA@JOLAGJG@CHAT_TYPE_PARTY@
CONST	SEGMENT
??_C@_0BA@JOLAGJG@CHAT_TYPE_PARTY@ DB 'CHAT_TYPE_PARTY', 00H ; `string'
CONST	ENDS
;	COMDAT ??_C@_0BB@KFACLMJA@CHAT_TYPE_NOTICE@
CONST	SEGMENT
??_C@_0BB@KFACLMJA@CHAT_TYPE_NOTICE@ DB 'CHAT_TYPE_NOTICE', 00H ; `string'
CONST	ENDS
;	COMDAT ??_C@_0P@MIHHHBMP@CHAT_TYPE_INFO@
CONST	SEGMENT
??_C@_0P@MIHHHBMP@CHAT_TYPE_INFO@ DB 'CHAT_TYPE_INFO', 00H ; `string'
CONST	ENDS
;	COMDAT ??_C@_0BC@EHLMCJH@CHAT_TYPE_TALKING@
CONST	SEGMENT
??_C@_0BC@EHLMCJH@CHAT_TYPE_TALKING@ DB 'CHAT_TYPE_TALKING', 00H ; `string'
CONST	ENDS
;	COMDAT ??_C@_04BLJLMHHG@chat@
CONST	SEGMENT
??_C@_04BLJLMHHG@chat@ DB 'chat', 00H			; `string'
CONST	ENDS
;	COMDAT ??_C@_0BF@BJFLHIAM@GetLinkFromHyperlink@
CONST	SEGMENT
??_C@_0BF@BJFLHIAM@GetLinkFromHyperlink@ DB 'GetLinkFromHyperlink', 00H ; `string'
CONST	ENDS
;	COMDAT ??_C@_0M@OFOGDKFP@InitWhisper@
CONST	SEGMENT
??_C@_0M@OFOGDKFP@InitWhisper@ DB 'InitWhisper', 00H	; `string'
CONST	ENDS
;	COMDAT ??_C@_0N@FCHOFFAF@ClearWhisper@
CONST	SEGMENT
??_C@_0N@FCHOFFAF@ClearWhisper@ DB 'ClearWhisper', 00H	; `string'
CONST	ENDS
;	COMDAT ??_C@_0BD@NNNKEDJK@SetWhisperPosition@
CONST	SEGMENT
??_C@_0BD@NNNKEDJK@SetWhisperPosition@ DB 'SetWhisperPosition', 00H ; `string'
CONST	ENDS
;	COMDAT ??_C@_0BC@IEABADGD@SetWhisperBoxSize@
CONST	SEGMENT
??_C@_0BC@IEABADGD@SetWhisperBoxSize@ DB 'SetWhisperBoxSize', 00H ; `string'
CONST	ENDS
;	COMDAT ??_C@_0O@HNBBBAHN@RenderWhisper@
CONST	SEGMENT
??_C@_0O@HNBBBAHN@RenderWhisper@ DB 'RenderWhisper', 00H ; `string'
CONST	ENDS
;	COMDAT ??_C@_0O@MNHHDNCN@AppendWhisper@
CONST	SEGMENT
??_C@_0O@MNHHDNCN@AppendWhisper@ DB 'AppendWhisper', 00H ; `string'
CONST	ENDS
;	COMDAT ??_C@_0O@EPNAKAMH@CreateWhisper@
CONST	SEGMENT
??_C@_0O@EPNAKAMH@CreateWhisper@ DB 'CreateWhisper', 00H ; `string'
CONST	ENDS
;	COMDAT ??_C@_0BC@BPLLIFOI@IsIgnoreCharacter@
CONST	SEGMENT
??_C@_0BC@BPLLIFOI@IsIgnoreCharacter@ DB 'IsIgnoreCharacter', 00H ; `string'
CONST	ENDS
;	COMDAT ??_C@_0BA@OBLLPMIK@IgnoreCharacter@
CONST	SEGMENT
??_C@_0BA@OBLLPMIK@IgnoreCharacter@ DB 'IgnoreCharacter', 00H ; `string'
CONST	ENDS
;	COMDAT ??_C@_0BD@PGAGKLIB@ArrangeShowingChat@
CONST	SEGMENT
??_C@_0BD@PGAGKLIB@ArrangeShowingChat@ DB 'ArrangeShowingChat', 00H ; `string'
CONST	ENDS
;	COMDAT ??_C@_0BE@OLLFFMAP@AppendChatWithDelay@
CONST	SEGMENT
??_C@_0BE@OLLFFMAP@AppendChatWithDelay@ DB 'AppendChatWithDelay', 00H ; `string'
CONST	ENDS
;	COMDAT ??_C@_0L@LGDEPKMK@AppendChat@
CONST	SEGMENT
??_C@_0L@LGDEPKMK@AppendChat@ DB 'AppendChat', 00H	; `string'
CONST	ENDS
;	COMDAT ??_C@_0M@JAIPGIEI@GetLineStep@
CONST	SEGMENT
??_C@_0M@JAIPGIEI@GetLineStep@ DB 'GetLineStep', 00H	; `string'
CONST	ENDS
;	COMDAT ??_C@_0BE@ECGLNJIP@GetVisibleLineCount@
CONST	SEGMENT
??_C@_0BE@ECGLNJIP@GetVisibleLineCount@ DB 'GetVisibleLineCount', 00H ; `string'
CONST	ENDS
;	COMDAT ??_C@_0N@GBIDIHNF@GetLineCount@
CONST	SEGMENT
??_C@_0N@GBIDIHNF@GetLineCount@ DB 'GetLineCount', 00H	; `string'
CONST	ENDS
;	COMDAT ??_C@_09LEFDLNLA@SetEndPos@
CONST	SEGMENT
??_C@_09LEFDLNLA@SetEndPos@ DB 'SetEndPos', 00H		; `string'
CONST	ENDS
;	COMDAT ??_C@_0BA@PMFEPLLL@DisableChatMode@
CONST	SEGMENT
??_C@_0BA@PMFEPLLL@DisableChatMode@ DB 'DisableChatMode', 00H ; `string'
CONST	ENDS
;	COMDAT ??_C@_0P@CBALNCDJ@EnableChatMode@
CONST	SEGMENT
??_C@_0P@CBALNCDJ@EnableChatMode@ DB 'EnableChatMode', 00H ; `string'
CONST	ENDS
;	COMDAT ??_C@_0P@HJNLNPCF@ToggleChatMode@
CONST	SEGMENT
??_C@_0P@HJNLNPCF@ToggleChatMode@ DB 'ToggleChatMode', 00H ; `string'
CONST	ENDS
;	COMDAT ??_C@_07PCIEAKML@SetStep@
CONST	SEGMENT
??_C@_07PCIEAKML@SetStep@ DB 'SetStep', 00H		; `string'
CONST	ENDS
;	COMDAT ??_C@_09GACBKIFI@SetHeight@
CONST	SEGMENT
??_C@_09GACBKIFI@SetHeight@ DB 'SetHeight', 00H		; `string'
CONST	ENDS
;	COMDAT ??_C@_0M@GKIFPNAD@SetPosition@
CONST	SEGMENT
??_C@_0M@GKIFPNAD@SetPosition@ DB 'SetPosition', 00H	; `string'
CONST	ENDS
;	COMDAT ??_C@_0O@HLECNMMJ@SetBoardState@
CONST	SEGMENT
??_C@_0O@HLECNMMJ@SetBoardState@ DB 'SetBoardState', 00H ; `string'
CONST	ENDS
;	COMDAT ??_C@_0O@NIPGGDN@CreateChatSet@
CONST	SEGMENT
??_C@_0O@NIPGGDN@CreateChatSet@ DB 'CreateChatSet', 00H	; `string'
CONST	ENDS
;	COMDAT ??_C@_05LGELBCGM@Close@
CONST	SEGMENT
??_C@_05LGELBCGM@Close@ DB 'Close', 00H			; `string'
CONST	ENDS
;	COMDAT ??_C@_05MDNHABIA@Clear@
CONST	SEGMENT
??_C@_05MDNHABIA@Clear@ DB 'Clear', 00H			; `string'
CONST	ENDS
;	COMDAT ??_C@_0N@JBENFECF@SetChatColor@
CONST	SEGMENT
??_C@_0N@JBENFECF@SetChatColor@ DB 'SetChatColor', 00H	; `string'
CONST	ENDS
;	COMDAT ??_C@_0BJ@GPGFNPLK@?$HMcfff1e6c0?$HMH?$CFs?$HMh?$FL?$CFs?$FN?$HMh?$HMr@
CONST	SEGMENT
??_C@_0BJ@GPGFNPLK@?$HMcfff1e6c0?$HMH?$CFs?$HMh?$FL?$CFs?$FN?$HMh?$HMr@ DB '|'
	DB	'cfff1e6c0|H%s|h[%s]|h|r', 00H		; `string'
CONST	ENDS
;	COMDAT ??_C@_0BJ@DABMGIOF@?$HMcffffc700?$HMH?$CFs?$HMh?$FL?$CFs?$FN?$HMh?$HMr@
CONST	SEGMENT
??_C@_0BJ@DABMGIOF@?$HMcffffc700?$HMH?$CFs?$HMh?$FL?$CFs?$FN?$HMh?$HMr@ DB '|'
	DB	'cffffc700|H%s|h[%s]|h|r', 00H		; `string'
CONST	ENDS
;	COMDAT ??_C@_09CNFFNIIC@?3?$CFx?3?$CFI64d@
CONST	SEGMENT
??_C@_09CNFFNIIC@?3?$CFx?3?$CFI64d@ DB ':%x:%I64d', 00H	; `string'
CONST	ENDS
;	COMDAT ??_C@_0BE@FGPADLIF@item?3?$CFx?3?$CFx?3?$CFx?3?$CFx?3?$CFx@
CONST	SEGMENT
??_C@_0BE@FGPADLIF@item?3?$CFx?3?$CFx?3?$CFx?3?$CFx?3?$CFx@ DB 'item:%x:%'
	DB	'x:%x:%x:%x', 00H				; `string'
CONST	ENDS
;	COMDAT ??_C@_04NHONDGDE@item@
CONST	SEGMENT
??_C@_04NHONDGDE@item@ DB 'item', 00H			; `string'
CONST	ENDS
;	COMDAT ??_C@_01JLIPDDHJ@?3@
CONST	SEGMENT
??_C@_01JLIPDDHJ@?3@ DB ':', 00H			; `string'
PUBLIC	?htoi@@YAHPBD@Z					; htoi
PUBLIC	??A?$vector@V?$basic_string@DU?$char_traits@D@std@@V?$allocator@D@2@@std@@V?$allocator@V?$basic_string@DU?$char_traits@D@std@@V?$allocator@D@2@@std@@@2@@std@@QAEAAV?$basic_string@DU?$char_traits@D@std@@V?$allocator@D@2@@1@I@Z ; std::vector<std::basic_string<char,std::char_traits<char>,std::allocator<char> >,std::allocator<std::basic_string<char,std::char_traits<char>,std::allocator<char> > > >::operator[]
PUBLIC	?Instance@?$CSingleton@VCPythonChat@@@@SAAAVCPythonChat@@XZ ; CSingleton<CPythonChat>::Instance
PUBLIC	?initChat@@YAXXZ				; initChat
PUBLIC	?chatGetLinkFromHyperlink@@YAPAU_object@@PAU1@0@Z ; chatGetLinkFromHyperlink
PUBLIC	?chatInitWhisper@@YAPAU_object@@PAU1@0@Z	; chatInitWhisper
PUBLIC	?chatClearWhisper@@YAPAU_object@@PAU1@0@Z	; chatClearWhisper
PUBLIC	?chatSetWhisperPosition@@YAPAU_object@@PAU1@0@Z	; chatSetWhisperPosition
PUBLIC	?chatSetWhisperBoxSize@@YAPAU_object@@PAU1@0@Z	; chatSetWhisperBoxSize
PUBLIC	?chatRenderWhisper@@YAPAU_object@@PAU1@0@Z	; chatRenderWhisper
PUBLIC	?chatAppendWhisper@@YAPAU_object@@PAU1@0@Z	; chatAppendWhisper
PUBLIC	?chatCreateWhisper@@YAPAU_object@@PAU1@0@Z	; chatCreateWhisper
PUBLIC	?chatIsIgnoreCharacter@@YAPAU_object@@PAU1@0@Z	; chatIsIgnoreCharacter
PUBLIC	?chatIgnoreCharacter@@YAPAU_object@@PAU1@0@Z	; chatIgnoreCharacter
PUBLIC	?chatArrangeShowingChat@@YAPAU_object@@PAU1@0@Z	; chatArrangeShowingChat
PUBLIC	?chatAppendChatWithDelay@@YAPAU_object@@PAU1@0@Z ; chatAppendChatWithDelay
PUBLIC	?chatAppendChat@@YAPAU_object@@PAU1@0@Z		; chatAppendChat
PUBLIC	?chatGetLineStep@@YAPAU_object@@PAU1@0@Z	; chatGetLineStep
PUBLIC	?chatGetVisibleLineCount@@YAPAU_object@@PAU1@0@Z ; chatGetVisibleLineCount
PUBLIC	?chatGetLineCount@@YAPAU_object@@PAU1@0@Z	; chatGetLineCount
PUBLIC	?chatSetEndPos@@YAPAU_object@@PAU1@0@Z		; chatSetEndPos
PUBLIC	?chatDisableChatMode@@YAPAU_object@@PAU1@0@Z	; chatDisableChatMode
PUBLIC	?chatEnableChatMode@@YAPAU_object@@PAU1@0@Z	; chatEnableChatMode
PUBLIC	?chatToggleChatMode@@YAPAU_object@@PAU1@0@Z	; chatToggleChatMode
PUBLIC	?chatSetStep@@YAPAU_object@@PAU1@0@Z		; chatSetStep
PUBLIC	?chatSetHeight@@YAPAU_object@@PAU1@0@Z		; chatSetHeight
PUBLIC	?chatSetPosition@@YAPAU_object@@PAU1@0@Z	; chatSetPosition
PUBLIC	?chatSetBoardState@@YAPAU_object@@PAU1@0@Z	; chatSetBoardState
PUBLIC	?chatRender@@YAPAU_object@@PAU1@0@Z		; chatRender
PUBLIC	?chatUpdate@@YAPAU_object@@PAU1@0@Z		; chatUpdate
PUBLIC	?chatCreateChatSet@@YAPAU_object@@PAU1@0@Z	; chatCreateChatSet
PUBLIC	?chatClose@@YAPAU_object@@PAU1@0@Z		; chatClose
PUBLIC	?chatClear@@YAPAU_object@@PAU1@0@Z		; chatClear
PUBLIC	?chatSetChatColor@@YAPAU_object@@PAU1@0@Z	; chatSetChatColor
;	COMDAT xdata$x
xdata$x	SEGMENT
__ehfuncinfo$?chatGetLinkFromHyperlink@@YAPAU_object@@PAU1@0@Z DD 019930522H
	DD	03H
	DD	FLAT:__unwindtable$?chatGetLinkFromHyperlink@@YAPAU_object@@PAU1@0@Z
	DD	2 DUP(00H)
	DD	2 DUP(00H)
	DD	00H
	DD	01H
__unwindtable$?chatGetLinkFromHyperlink@@YAPAU_object@@PAU1@0@Z DD 0ffffffffH
	DD	FLAT:__unwindfunclet$?chatGetLinkFromHyperlink@@YAPAU_object@@PAU1@0@Z$0
	DD	00H
	DD	FLAT:__unwindfunclet$?chatGetLinkFromHyperlink@@YAPAU_object@@PAU1@0@Z$1
	DD	01H
	DD	FLAT:__unwindfunclet$?chatGetLinkFromHyperlink@@YAPAU_object@@PAU1@0@Z$2
; Function compile flags: /Ogtp
; File D:\_m2work\txoko-m2-work\txoko-client-src\source\UserInterface\PythonChatModule.cpp
;	COMDAT ?chatSetChatColor@@YAPAU_object@@PAU1@0@Z
_TEXT	SEGMENT
_iType$ = -16						; size = 4
_r$ = -12						; size = 4
_g$ = -8						; size = 4
_b$ = -4						; size = 4
_poSelf$ = 8						; size = 4
_poArgs$ = 12						; size = 4
?chatSetChatColor@@YAPAU_object@@PAU1@0@Z PROC		; chatSetChatColor, COMDAT

; 7    : {

  00000	55		 push	 ebp
  00001	8b ec		 mov	 ebp, esp
  00003	83 ec 10	 sub	 esp, 16			; 00000010H

; 8    : 	int iType;
; 9    : 	if (!PyTuple_GetInteger(poArgs, 0, &iType))

  00006	8d 45 f0	 lea	 eax, DWORD PTR _iType$[ebp]
  00009	56		 push	 esi
  0000a	8b 75 0c	 mov	 esi, DWORD PTR _poArgs$[ebp]
  0000d	50		 push	 eax
  0000e	6a 00		 push	 0
  00010	56		 push	 esi
  00011	e8 00 00 00 00	 call	 ?PyTuple_GetInteger@@YA_NPAU_object@@HPAH@Z ; PyTuple_GetInteger
  00016	83 c4 0c	 add	 esp, 12			; 0000000cH
  00019	84 c0		 test	 al, al
  0001b	75 0f		 jne	 SHORT $LN2@chatSetCha
$LN11@chatSetCha:

; 26   : }

  0001d	6a 00		 push	 0
  0001f	e8 00 00 00 00	 call	 ?Py_BuildException@@YAPAU_object@@PBDZZ ; Py_BuildException
  00024	83 c4 04	 add	 esp, 4
  00027	5e		 pop	 esi
  00028	8b e5		 mov	 esp, ebp
  0002a	5d		 pop	 ebp
  0002b	c3		 ret	 0
$LN2@chatSetCha:

; 10   : 		return Py_BuildException();
; 11   : 
; 12   : 	int r;
; 13   : 	if (!PyTuple_GetInteger(poArgs, 1, &r))

  0002c	8d 45 f4	 lea	 eax, DWORD PTR _r$[ebp]
  0002f	50		 push	 eax
  00030	6a 01		 push	 1
  00032	56		 push	 esi
  00033	e8 00 00 00 00	 call	 ?PyTuple_GetInteger@@YA_NPAU_object@@HPAH@Z ; PyTuple_GetInteger
  00038	83 c4 0c	 add	 esp, 12			; 0000000cH
  0003b	84 c0		 test	 al, al
  0003d	74 de		 je	 SHORT $LN11@chatSetCha

; 14   : 		return Py_BuildException();
; 15   : 
; 16   : 	int g;
; 17   : 	if (!PyTuple_GetInteger(poArgs, 2, &g))

  0003f	8d 45 f8	 lea	 eax, DWORD PTR _g$[ebp]
  00042	50		 push	 eax
  00043	6a 02		 push	 2
  00045	56		 push	 esi
  00046	e8 00 00 00 00	 call	 ?PyTuple_GetInteger@@YA_NPAU_object@@HPAH@Z ; PyTuple_GetInteger
  0004b	83 c4 0c	 add	 esp, 12			; 0000000cH
  0004e	84 c0		 test	 al, al
  00050	74 cb		 je	 SHORT $LN11@chatSetCha

; 18   : 		return Py_BuildException();
; 19   : 
; 20   : 	int b;
; 21   : 	if (!PyTuple_GetInteger(poArgs, 3, &b))

  00052	8d 45 fc	 lea	 eax, DWORD PTR _b$[ebp]
  00055	50		 push	 eax
  00056	6a 03		 push	 3
  00058	56		 push	 esi
  00059	e8 00 00 00 00	 call	 ?PyTuple_GetInteger@@YA_NPAU_object@@HPAH@Z ; PyTuple_GetInteger
  0005e	83 c4 0c	 add	 esp, 12			; 0000000cH
  00061	84 c0		 test	 al, al
  00063	74 b8		 je	 SHORT $LN11@chatSetCha

; 22   : 		return Py_BuildException();
; 23   : 
; 24   : 	CPythonChat::Instance().SetChatColor(iType, r, g, b);

  00065	ff 75 fc	 push	 DWORD PTR _b$[ebp]
  00068	8b 0d 00 00 00
	00		 mov	 ecx, DWORD PTR ?ms_singleton@?$CSingleton@VCPythonChat@@@@0PAVCPythonChat@@A ; CSingleton<CPythonChat>::ms_singleton
  0006e	ff 75 f8	 push	 DWORD PTR _g$[ebp]
  00071	ff 75 f4	 push	 DWORD PTR _r$[ebp]
  00074	ff 75 f0	 push	 DWORD PTR _iType$[ebp]
  00077	e8 00 00 00 00	 call	 ?SetChatColor@CPythonChat@@QAEXIIII@Z ; CPythonChat::SetChatColor

; 25   : 	return Py_BuildNone();

  0007c	e8 00 00 00 00	 call	 ?Py_BuildNone@@YAPAU_object@@XZ ; Py_BuildNone
  00081	5e		 pop	 esi

; 26   : }

  00082	8b e5		 mov	 esp, ebp
  00084	5d		 pop	 ebp
  00085	c3		 ret	 0
?chatSetChatColor@@YAPAU_object@@PAU1@0@Z ENDP		; chatSetChatColor
_TEXT	ENDS
; Function compile flags: /Ogtp
; File D:\_m2work\txoko-m2-work\txoko-client-src\source\UserInterface\PythonChatModule.cpp
;	COMDAT ?chatClear@@YAPAU_object@@PAU1@0@Z
_TEXT	SEGMENT
_poSelf$ = 8						; size = 4
_poArgs$ = 12						; size = 4
?chatClear@@YAPAU_object@@PAU1@0@Z PROC			; chatClear, COMDAT

; 30   : 	CPythonChat::Instance().Destroy();

  00000	8b 0d 00 00 00
	00		 mov	 ecx, DWORD PTR ?ms_singleton@?$CSingleton@VCPythonChat@@@@0PAVCPythonChat@@A ; CSingleton<CPythonChat>::ms_singleton
  00006	e8 00 00 00 00	 call	 ?Destroy@CPythonChat@@QAEXXZ ; CPythonChat::Destroy

; 31   : 	return Py_BuildNone();

  0000b	e9 00 00 00 00	 jmp	 ?Py_BuildNone@@YAPAU_object@@XZ ; Py_BuildNone
?chatClear@@YAPAU_object@@PAU1@0@Z ENDP			; chatClear
_TEXT	ENDS
; Function compile flags: /Ogtp
; File D:\_m2work\txoko-m2-work\txoko-client-src\source\UserInterface\PythonChatModule.cpp
;	COMDAT ?chatClose@@YAPAU_object@@PAU1@0@Z
_TEXT	SEGMENT
_poSelf$ = 8						; size = 4
_poArgs$ = 12						; size = 4
?chatClose@@YAPAU_object@@PAU1@0@Z PROC			; chatClose, COMDAT

; 36   : 	CPythonChat::Instance().Close();

  00000	8b 0d 00 00 00
	00		 mov	 ecx, DWORD PTR ?ms_singleton@?$CSingleton@VCPythonChat@@@@0PAVCPythonChat@@A ; CSingleton<CPythonChat>::ms_singleton
  00006	e8 00 00 00 00	 call	 ?Close@CPythonChat@@QAEXXZ ; CPythonChat::Close

; 37   : 	return Py_BuildNone();

  0000b	e9 00 00 00 00	 jmp	 ?Py_BuildNone@@YAPAU_object@@XZ ; Py_BuildNone
?chatClose@@YAPAU_object@@PAU1@0@Z ENDP			; chatClose
_TEXT	ENDS
; Function compile flags: /Ogtp
; File D:\_m2work\txoko-m2-work\txoko-client-src\source\UserInterface\PythonChatModule.cpp
;	COMDAT ?chatCreateChatSet@@YAPAU_object@@PAU1@0@Z
_TEXT	SEGMENT
_iID$ = -4						; size = 4
_poSelf$ = 8						; size = 4
_poArgs$ = 12						; size = 4
?chatCreateChatSet@@YAPAU_object@@PAU1@0@Z PROC		; chatCreateChatSet, COMDAT

; 41   : {

  00000	55		 push	 ebp
  00001	8b ec		 mov	 ebp, esp
  00003	51		 push	 ecx

; 42   : 	int iID;
; 43   : 	if (!PyTuple_GetInteger(poArgs, 0, &iID))

  00004	8d 45 fc	 lea	 eax, DWORD PTR _iID$[ebp]
  00007	50		 push	 eax
  00008	6a 00		 push	 0
  0000a	ff 75 0c	 push	 DWORD PTR _poArgs$[ebp]
  0000d	e8 00 00 00 00	 call	 ?PyTuple_GetInteger@@YA_NPAU_object@@HPAH@Z ; PyTuple_GetInteger
  00012	83 c4 0c	 add	 esp, 12			; 0000000cH
  00015	84 c0		 test	 al, al
  00017	75 0e		 jne	 SHORT $LN2@chatCreate

; 44   : 		return Py_BuildException();

  00019	6a 00		 push	 0
  0001b	e8 00 00 00 00	 call	 ?Py_BuildException@@YAPAU_object@@PBDZZ ; Py_BuildException
  00020	83 c4 04	 add	 esp, 4

; 47   : }

  00023	8b e5		 mov	 esp, ebp
  00025	5d		 pop	 ebp
  00026	c3		 ret	 0
$LN2@chatCreate:

; 45   : 
; 46   : 	return Py_BuildValue("i", CPythonChat::Instance().CreateChatSet(iID));

  00027	ff 75 fc	 push	 DWORD PTR _iID$[ebp]
  0002a	8b 0d 00 00 00
	00		 mov	 ecx, DWORD PTR ?ms_singleton@?$CSingleton@VCPythonChat@@@@0PAVCPythonChat@@A ; CSingleton<CPythonChat>::ms_singleton
  00030	e8 00 00 00 00	 call	 ?CreateChatSet@CPythonChat@@QAEHK@Z ; CPythonChat::CreateChatSet
  00035	50		 push	 eax
  00036	68 00 00 00 00	 push	 OFFSET ??_C@_01KBJDNOO@i@
  0003b	ff 15 00 00 00
	00		 call	 DWORD PTR __imp__Py_BuildValue
  00041	83 c4 08	 add	 esp, 8

; 47   : }

  00044	8b e5		 mov	 esp, ebp
  00046	5d		 pop	 ebp
  00047	c3		 ret	 0
?chatCreateChatSet@@YAPAU_object@@PAU1@0@Z ENDP		; chatCreateChatSet
_TEXT	ENDS
; Function compile flags: /Ogtp
; File D:\_m2work\txoko-m2-work\txoko-client-src\source\UserInterface\PythonChatModule.cpp
;	COMDAT ?chatUpdate@@YAPAU_object@@PAU1@0@Z
_TEXT	SEGMENT
_iID$ = -4						; size = 4
_poSelf$ = 8						; size = 4
_poArgs$ = 12						; size = 4
?chatUpdate@@YAPAU_object@@PAU1@0@Z PROC		; chatUpdate, COMDAT

; 50   : {

  00000	55		 push	 ebp
  00001	8b ec		 mov	 ebp, esp
  00003	51		 push	 ecx

; 51   : 	int iID;
; 52   : 	if (!PyTuple_GetInteger(poArgs, 0, &iID))

  00004	8d 45 fc	 lea	 eax, DWORD PTR _iID$[ebp]
  00007	50		 push	 eax
  00008	6a 00		 push	 0
  0000a	ff 75 0c	 push	 DWORD PTR _poArgs$[ebp]
  0000d	e8 00 00 00 00	 call	 ?PyTuple_GetInteger@@YA_NPAU_object@@HPAH@Z ; PyTuple_GetInteger
  00012	83 c4 0c	 add	 esp, 12			; 0000000cH
  00015	84 c0		 test	 al, al
  00017	75 0e		 jne	 SHORT $LN2@chatUpdate

; 53   : 		return Py_BuildException();

  00019	6a 00		 push	 0
  0001b	e8 00 00 00 00	 call	 ?Py_BuildException@@YAPAU_object@@PBDZZ ; Py_BuildException
  00020	83 c4 04	 add	 esp, 4

; 57   : }

  00023	8b e5		 mov	 esp, ebp
  00025	5d		 pop	 ebp
  00026	c3		 ret	 0
$LN2@chatUpdate:

; 54   : 
; 55   : 	CPythonChat::Instance().Update(iID);

  00027	ff 75 fc	 push	 DWORD PTR _iID$[ebp]
  0002a	8b 0d 00 00 00
	00		 mov	 ecx, DWORD PTR ?ms_singleton@?$CSingleton@VCPythonChat@@@@0PAVCPythonChat@@A ; CSingleton<CPythonChat>::ms_singleton
  00030	e8 00 00 00 00	 call	 ?Update@CPythonChat@@QAEXK@Z ; CPythonChat::Update

; 56   : 	return Py_BuildNone();

  00035	e8 00 00 00 00	 call	 ?Py_BuildNone@@YAPAU_object@@XZ ; Py_BuildNone

; 57   : }

  0003a	8b e5		 mov	 esp, ebp
  0003c	5d		 pop	 ebp
  0003d	c3		 ret	 0
?chatUpdate@@YAPAU_object@@PAU1@0@Z ENDP		; chatUpdate
_TEXT	ENDS
; Function compile flags: /Ogtp
; File D:\_m2work\txoko-m2-work\txoko-client-src\source\UserInterface\PythonChatModule.cpp
;	COMDAT ?chatRender@@YAPAU_object@@PAU1@0@Z
_TEXT	SEGMENT
_iID$ = -4						; size = 4
_poSelf$ = 8						; size = 4
_poArgs$ = 12						; size = 4
?chatRender@@YAPAU_object@@PAU1@0@Z PROC		; chatRender, COMDAT

; 60   : {

  00000	55		 push	 ebp
  00001	8b ec		 mov	 ebp, esp
  00003	51		 push	 ecx

; 61   : 	int iID;
; 62   : 	if (!PyTuple_GetInteger(poArgs, 0, &iID))

  00004	8d 45 fc	 lea	 eax, DWORD PTR _iID$[ebp]
  00007	50		 push	 eax
  00008	6a 00		 push	 0
  0000a	ff 75 0c	 push	 DWORD PTR _poArgs$[ebp]
  0000d	e8 00 00 00 00	 call	 ?PyTuple_GetInteger@@YA_NPAU_object@@HPAH@Z ; PyTuple_GetInteger
  00012	83 c4 0c	 add	 esp, 12			; 0000000cH
  00015	84 c0		 test	 al, al
  00017	75 0e		 jne	 SHORT $LN2@chatRender

; 63   : 		return Py_BuildException();

  00019	6a 00		 push	 0
  0001b	e8 00 00 00 00	 call	 ?Py_BuildException@@YAPAU_object@@PBDZZ ; Py_BuildException
  00020	83 c4 04	 add	 esp, 4

; 67   : }

  00023	8b e5		 mov	 esp, ebp
  00025	5d		 pop	 ebp
  00026	c3		 ret	 0
$LN2@chatRender:

; 64   : 
; 65   : 	CPythonChat::Instance().Render(iID);

  00027	ff 75 fc	 push	 DWORD PTR _iID$[ebp]
  0002a	8b 0d 00 00 00
	00		 mov	 ecx, DWORD PTR ?ms_singleton@?$CSingleton@VCPythonChat@@@@0PAVCPythonChat@@A ; CSingleton<CPythonChat>::ms_singleton
  00030	e8 00 00 00 00	 call	 ?Render@CPythonChat@@QAEXK@Z ; CPythonChat::Render

; 66   : 	return Py_BuildNone();

  00035	e8 00 00 00 00	 call	 ?Py_BuildNone@@YAPAU_object@@XZ ; Py_BuildNone

; 67   : }

  0003a	8b e5		 mov	 esp, ebp
  0003c	5d		 pop	 ebp
  0003d	c3		 ret	 0
?chatRender@@YAPAU_object@@PAU1@0@Z ENDP		; chatRender
_TEXT	ENDS
; Function compile flags: /Ogtp
; File D:\_m2work\txoko-m2-work\txoko-client-src\source\UserInterface\PythonChatModule.cpp
;	COMDAT ?chatSetBoardState@@YAPAU_object@@PAU1@0@Z
_TEXT	SEGMENT
_iID$ = -8						; size = 4
_iState$ = -4						; size = 4
_poSelf$ = 8						; size = 4
_poArgs$ = 12						; size = 4
?chatSetBoardState@@YAPAU_object@@PAU1@0@Z PROC		; chatSetBoardState, COMDAT

; 70   : {

  00000	55		 push	 ebp
  00001	8b ec		 mov	 ebp, esp
  00003	83 ec 08	 sub	 esp, 8

; 71   : 	int iID;
; 72   : 	if (!PyTuple_GetInteger(poArgs, 0, &iID))

  00006	8d 45 f8	 lea	 eax, DWORD PTR _iID$[ebp]
  00009	50		 push	 eax
  0000a	6a 00		 push	 0
  0000c	ff 75 0c	 push	 DWORD PTR _poArgs$[ebp]
  0000f	e8 00 00 00 00	 call	 ?PyTuple_GetInteger@@YA_NPAU_object@@HPAH@Z ; PyTuple_GetInteger
  00014	83 c4 0c	 add	 esp, 12			; 0000000cH
  00017	84 c0		 test	 al, al
  00019	75 0e		 jne	 SHORT $LN2@chatSetBoa
$LN5@chatSetBoa:

; 81   : }

  0001b	6a 00		 push	 0
  0001d	e8 00 00 00 00	 call	 ?Py_BuildException@@YAPAU_object@@PBDZZ ; Py_BuildException
  00022	83 c4 04	 add	 esp, 4
  00025	8b e5		 mov	 esp, ebp
  00027	5d		 pop	 ebp
  00028	c3		 ret	 0
$LN2@chatSetBoa:

; 73   : 		return Py_BuildException();
; 74   : 	int iState;
; 75   : 	if (!PyTuple_GetInteger(poArgs, 1, &iState))

  00029	8d 45 fc	 lea	 eax, DWORD PTR _iState$[ebp]
  0002c	50		 push	 eax
  0002d	6a 01		 push	 1
  0002f	ff 75 0c	 push	 DWORD PTR _poArgs$[ebp]
  00032	e8 00 00 00 00	 call	 ?PyTuple_GetInteger@@YA_NPAU_object@@HPAH@Z ; PyTuple_GetInteger
  00037	83 c4 0c	 add	 esp, 12			; 0000000cH
  0003a	84 c0		 test	 al, al
  0003c	74 dd		 je	 SHORT $LN5@chatSetBoa

; 76   : 		return Py_BuildException();
; 77   : 
; 78   : 	CPythonChat::Instance().SetBoardState(iID, iState);

  0003e	ff 75 fc	 push	 DWORD PTR _iState$[ebp]
  00041	8b 0d 00 00 00
	00		 mov	 ecx, DWORD PTR ?ms_singleton@?$CSingleton@VCPythonChat@@@@0PAVCPythonChat@@A ; CSingleton<CPythonChat>::ms_singleton
  00047	ff 75 f8	 push	 DWORD PTR _iID$[ebp]
  0004a	e8 00 00 00 00	 call	 ?SetBoardState@CPythonChat@@QAEXKH@Z ; CPythonChat::SetBoardState

; 79   : 
; 80   : 	return Py_BuildNone();

  0004f	e8 00 00 00 00	 call	 ?Py_BuildNone@@YAPAU_object@@XZ ; Py_BuildNone

; 81   : }

  00054	8b e5		 mov	 esp, ebp
  00056	5d		 pop	 ebp
  00057	c3		 ret	 0
?chatSetBoardState@@YAPAU_object@@PAU1@0@Z ENDP		; chatSetBoardState
_TEXT	ENDS
; Function compile flags: /Ogtp
; File D:\_m2work\txoko-m2-work\txoko-client-src\source\UserInterface\PythonChatModule.cpp
;	COMDAT ?chatSetPosition@@YAPAU_object@@PAU1@0@Z
_TEXT	SEGMENT
_iID$ = -12						; size = 4
_ix$ = -8						; size = 4
_iy$ = -4						; size = 4
_poSelf$ = 8						; size = 4
_poArgs$ = 12						; size = 4
?chatSetPosition@@YAPAU_object@@PAU1@0@Z PROC		; chatSetPosition, COMDAT

; 84   : {

  00000	55		 push	 ebp
  00001	8b ec		 mov	 ebp, esp
  00003	83 ec 0c	 sub	 esp, 12			; 0000000cH

; 85   : 	int iID;
; 86   : 	if (!PyTuple_GetInteger(poArgs, 0, &iID))

  00006	8d 45 f4	 lea	 eax, DWORD PTR _iID$[ebp]
  00009	56		 push	 esi
  0000a	8b 75 0c	 mov	 esi, DWORD PTR _poArgs$[ebp]
  0000d	50		 push	 eax
  0000e	6a 00		 push	 0
  00010	56		 push	 esi
  00011	e8 00 00 00 00	 call	 ?PyTuple_GetInteger@@YA_NPAU_object@@HPAH@Z ; PyTuple_GetInteger
  00016	83 c4 0c	 add	 esp, 12			; 0000000cH
  00019	84 c0		 test	 al, al
  0001b	75 0f		 jne	 SHORT $LN2@chatSetPos
$LN9@chatSetPos:

; 98   : }

  0001d	6a 00		 push	 0
  0001f	e8 00 00 00 00	 call	 ?Py_BuildException@@YAPAU_object@@PBDZZ ; Py_BuildException
  00024	83 c4 04	 add	 esp, 4
  00027	5e		 pop	 esi
  00028	8b e5		 mov	 esp, ebp
  0002a	5d		 pop	 ebp
  0002b	c3		 ret	 0
$LN2@chatSetPos:

; 87   : 		return Py_BuildException();
; 88   : 	int ix;
; 89   : 	if (!PyTuple_GetInteger(poArgs, 1, &ix))

  0002c	8d 45 f8	 lea	 eax, DWORD PTR _ix$[ebp]
  0002f	50		 push	 eax
  00030	6a 01		 push	 1
  00032	56		 push	 esi
  00033	e8 00 00 00 00	 call	 ?PyTuple_GetInteger@@YA_NPAU_object@@HPAH@Z ; PyTuple_GetInteger
  00038	83 c4 0c	 add	 esp, 12			; 0000000cH
  0003b	84 c0		 test	 al, al
  0003d	74 de		 je	 SHORT $LN9@chatSetPos

; 90   : 		return Py_BuildException();
; 91   : 	int iy;
; 92   : 	if (!PyTuple_GetInteger(poArgs, 2, &iy))

  0003f	8d 45 fc	 lea	 eax, DWORD PTR _iy$[ebp]
  00042	50		 push	 eax
  00043	6a 02		 push	 2
  00045	56		 push	 esi
  00046	e8 00 00 00 00	 call	 ?PyTuple_GetInteger@@YA_NPAU_object@@HPAH@Z ; PyTuple_GetInteger
  0004b	83 c4 0c	 add	 esp, 12			; 0000000cH
  0004e	84 c0		 test	 al, al
  00050	74 cb		 je	 SHORT $LN9@chatSetPos

; 93   : 		return Py_BuildException();
; 94   : 
; 95   : 	CPythonChat::Instance().SetPosition(iID, ix, iy);

  00052	ff 75 fc	 push	 DWORD PTR _iy$[ebp]
  00055	8b 0d 00 00 00
	00		 mov	 ecx, DWORD PTR ?ms_singleton@?$CSingleton@VCPythonChat@@@@0PAVCPythonChat@@A ; CSingleton<CPythonChat>::ms_singleton
  0005b	ff 75 f8	 push	 DWORD PTR _ix$[ebp]
  0005e	ff 75 f4	 push	 DWORD PTR _iID$[ebp]
  00061	e8 00 00 00 00	 call	 ?SetPosition@CPythonChat@@QAEXKHH@Z ; CPythonChat::SetPosition

; 96   : 
; 97   : 	return Py_BuildNone();

  00066	e8 00 00 00 00	 call	 ?Py_BuildNone@@YAPAU_object@@XZ ; Py_BuildNone
  0006b	5e		 pop	 esi

; 98   : }

  0006c	8b e5		 mov	 esp, ebp
  0006e	5d		 pop	 ebp
  0006f	c3		 ret	 0
?chatSetPosition@@YAPAU_object@@PAU1@0@Z ENDP		; chatSetPosition
_TEXT	ENDS
; Function compile flags: /Ogtp
; File D:\_m2work\txoko-m2-work\txoko-client-src\source\UserInterface\PythonChatModule.cpp
;	COMDAT ?chatSetHeight@@YAPAU_object@@PAU1@0@Z
_TEXT	SEGMENT
_iID$ = -8						; size = 4
_iHeight$ = -4						; size = 4
_poSelf$ = 8						; size = 4
_poArgs$ = 12						; size = 4
?chatSetHeight@@YAPAU_object@@PAU1@0@Z PROC		; chatSetHeight, COMDAT

; 101  : {

  00000	55		 push	 ebp
  00001	8b ec		 mov	 ebp, esp
  00003	83 ec 08	 sub	 esp, 8

; 102  : 	int iID;
; 103  : 	if (!PyTuple_GetInteger(poArgs, 0, &iID))

  00006	8d 45 f8	 lea	 eax, DWORD PTR _iID$[ebp]
  00009	50		 push	 eax
  0000a	6a 00		 push	 0
  0000c	ff 75 0c	 push	 DWORD PTR _poArgs$[ebp]
  0000f	e8 00 00 00 00	 call	 ?PyTuple_GetInteger@@YA_NPAU_object@@HPAH@Z ; PyTuple_GetInteger
  00014	83 c4 0c	 add	 esp, 12			; 0000000cH
  00017	84 c0		 test	 al, al
  00019	75 0e		 jne	 SHORT $LN2@chatSetHei
$LN5@chatSetHei:

; 112  : }

  0001b	6a 00		 push	 0
  0001d	e8 00 00 00 00	 call	 ?Py_BuildException@@YAPAU_object@@PBDZZ ; Py_BuildException
  00022	83 c4 04	 add	 esp, 4
  00025	8b e5		 mov	 esp, ebp
  00027	5d		 pop	 ebp
  00028	c3		 ret	 0
$LN2@chatSetHei:

; 104  : 		return Py_BuildException();
; 105  : 	int iHeight;
; 106  : 	if (!PyTuple_GetInteger(poArgs, 1, &iHeight))

  00029	8d 45 fc	 lea	 eax, DWORD PTR _iHeight$[ebp]
  0002c	50		 push	 eax
  0002d	6a 01		 push	 1
  0002f	ff 75 0c	 push	 DWORD PTR _poArgs$[ebp]
  00032	e8 00 00 00 00	 call	 ?PyTuple_GetInteger@@YA_NPAU_object@@HPAH@Z ; PyTuple_GetInteger
  00037	83 c4 0c	 add	 esp, 12			; 0000000cH
  0003a	84 c0		 test	 al, al
  0003c	74 dd		 je	 SHORT $LN5@chatSetHei

; 107  : 		return Py_BuildException();
; 108  : 
; 109  : 	CPythonChat::Instance().SetHeight(iID, iHeight);

  0003e	ff 75 fc	 push	 DWORD PTR _iHeight$[ebp]
  00041	8b 0d 00 00 00
	00		 mov	 ecx, DWORD PTR ?ms_singleton@?$CSingleton@VCPythonChat@@@@0PAVCPythonChat@@A ; CSingleton<CPythonChat>::ms_singleton
  00047	ff 75 f8	 push	 DWORD PTR _iID$[ebp]
  0004a	e8 00 00 00 00	 call	 ?SetHeight@CPythonChat@@QAEXKH@Z ; CPythonChat::SetHeight

; 110  : 
; 111  : 	return Py_BuildNone();

  0004f	e8 00 00 00 00	 call	 ?Py_BuildNone@@YAPAU_object@@XZ ; Py_BuildNone

; 112  : }

  00054	8b e5		 mov	 esp, ebp
  00056	5d		 pop	 ebp
  00057	c3		 ret	 0
?chatSetHeight@@YAPAU_object@@PAU1@0@Z ENDP		; chatSetHeight
_TEXT	ENDS
; Function compile flags: /Ogtp
; File D:\_m2work\txoko-m2-work\txoko-client-src\source\UserInterface\PythonChatModule.cpp
;	COMDAT ?chatSetStep@@YAPAU_object@@PAU1@0@Z
_TEXT	SEGMENT
_iID$ = -8						; size = 4
_iStep$ = -4						; size = 4
_poSelf$ = 8						; size = 4
_poArgs$ = 12						; size = 4
?chatSetStep@@YAPAU_object@@PAU1@0@Z PROC		; chatSetStep, COMDAT

; 115  : {

  00000	55		 push	 ebp
  00001	8b ec		 mov	 ebp, esp
  00003	83 ec 08	 sub	 esp, 8

; 116  : 	int iID;
; 117  : 	if (!PyTuple_GetInteger(poArgs, 0, &iID))

  00006	8d 45 f8	 lea	 eax, DWORD PTR _iID$[ebp]
  00009	50		 push	 eax
  0000a	6a 00		 push	 0
  0000c	ff 75 0c	 push	 DWORD PTR _poArgs$[ebp]
  0000f	e8 00 00 00 00	 call	 ?PyTuple_GetInteger@@YA_NPAU_object@@HPAH@Z ; PyTuple_GetInteger
  00014	83 c4 0c	 add	 esp, 12			; 0000000cH
  00017	84 c0		 test	 al, al
  00019	75 0e		 jne	 SHORT $LN2@chatSetSte
$LN5@chatSetSte:

; 126  : }

  0001b	6a 00		 push	 0
  0001d	e8 00 00 00 00	 call	 ?Py_BuildException@@YAPAU_object@@PBDZZ ; Py_BuildException
  00022	83 c4 04	 add	 esp, 4
  00025	8b e5		 mov	 esp, ebp
  00027	5d		 pop	 ebp
  00028	c3		 ret	 0
$LN2@chatSetSte:

; 118  : 		return Py_BuildException();
; 119  : 	int iStep;
; 120  : 	if (!PyTuple_GetInteger(poArgs, 1, &iStep))

  00029	8d 45 fc	 lea	 eax, DWORD PTR _iStep$[ebp]
  0002c	50		 push	 eax
  0002d	6a 01		 push	 1
  0002f	ff 75 0c	 push	 DWORD PTR _poArgs$[ebp]
  00032	e8 00 00 00 00	 call	 ?PyTuple_GetInteger@@YA_NPAU_object@@HPAH@Z ; PyTuple_GetInteger
  00037	83 c4 0c	 add	 esp, 12			; 0000000cH
  0003a	84 c0		 test	 al, al
  0003c	74 dd		 je	 SHORT $LN5@chatSetSte

; 121  : 		return Py_BuildException();
; 122  : 
; 123  : 	CPythonChat::Instance().SetStep(iID, iStep);

  0003e	ff 75 fc	 push	 DWORD PTR _iStep$[ebp]
  00041	8b 0d 00 00 00
	00		 mov	 ecx, DWORD PTR ?ms_singleton@?$CSingleton@VCPythonChat@@@@0PAVCPythonChat@@A ; CSingleton<CPythonChat>::ms_singleton
  00047	ff 75 f8	 push	 DWORD PTR _iID$[ebp]
  0004a	e8 00 00 00 00	 call	 ?SetStep@CPythonChat@@QAEXKH@Z ; CPythonChat::SetStep

; 124  : 
; 125  : 	return Py_BuildNone();

  0004f	e8 00 00 00 00	 call	 ?Py_BuildNone@@YAPAU_object@@XZ ; Py_BuildNone

; 126  : }

  00054	8b e5		 mov	 esp, ebp
  00056	5d		 pop	 ebp
  00057	c3		 ret	 0
?chatSetStep@@YAPAU_object@@PAU1@0@Z ENDP		; chatSetStep
_TEXT	ENDS
; Function compile flags: /Ogtp
; File D:\_m2work\txoko-m2-work\txoko-client-src\source\UserInterface\PythonChatModule.cpp
;	COMDAT ?chatToggleChatMode@@YAPAU_object@@PAU1@0@Z
_TEXT	SEGMENT
_iID$ = -8						; size = 4
_iType$ = -4						; size = 4
_poSelf$ = 8						; size = 4
_poArgs$ = 12						; size = 4
?chatToggleChatMode@@YAPAU_object@@PAU1@0@Z PROC	; chatToggleChatMode, COMDAT

; 129  : {

  00000	55		 push	 ebp
  00001	8b ec		 mov	 ebp, esp
  00003	83 ec 08	 sub	 esp, 8

; 130  : 	int iID;
; 131  : 	if (!PyTuple_GetInteger(poArgs, 0, &iID))

  00006	8d 45 f8	 lea	 eax, DWORD PTR _iID$[ebp]
  00009	50		 push	 eax
  0000a	6a 00		 push	 0
  0000c	ff 75 0c	 push	 DWORD PTR _poArgs$[ebp]
  0000f	e8 00 00 00 00	 call	 ?PyTuple_GetInteger@@YA_NPAU_object@@HPAH@Z ; PyTuple_GetInteger
  00014	83 c4 0c	 add	 esp, 12			; 0000000cH
  00017	84 c0		 test	 al, al
  00019	75 0e		 jne	 SHORT $LN2@chatToggle
$LN5@chatToggle:

; 140  : }

  0001b	6a 00		 push	 0
  0001d	e8 00 00 00 00	 call	 ?Py_BuildException@@YAPAU_object@@PBDZZ ; Py_BuildException
  00022	83 c4 04	 add	 esp, 4
  00025	8b e5		 mov	 esp, ebp
  00027	5d		 pop	 ebp
  00028	c3		 ret	 0
$LN2@chatToggle:

; 132  : 		return Py_BuildException();
; 133  : 	int iType;
; 134  : 	if (!PyTuple_GetInteger(poArgs, 1, &iType))

  00029	8d 45 fc	 lea	 eax, DWORD PTR _iType$[ebp]
  0002c	50		 push	 eax
  0002d	6a 01		 push	 1
  0002f	ff 75 0c	 push	 DWORD PTR _poArgs$[ebp]
  00032	e8 00 00 00 00	 call	 ?PyTuple_GetInteger@@YA_NPAU_object@@HPAH@Z ; PyTuple_GetInteger
  00037	83 c4 0c	 add	 esp, 12			; 0000000cH
  0003a	84 c0		 test	 al, al
  0003c	74 dd		 je	 SHORT $LN5@chatToggle

; 135  : 		return Py_BuildException();
; 136  : 
; 137  : 	CPythonChat::Instance().ToggleChatMode(iID, iType);

  0003e	ff 75 fc	 push	 DWORD PTR _iType$[ebp]
  00041	8b 0d 00 00 00
	00		 mov	 ecx, DWORD PTR ?ms_singleton@?$CSingleton@VCPythonChat@@@@0PAVCPythonChat@@A ; CSingleton<CPythonChat>::ms_singleton
  00047	ff 75 f8	 push	 DWORD PTR _iID$[ebp]
  0004a	e8 00 00 00 00	 call	 ?ToggleChatMode@CPythonChat@@QAEXKH@Z ; CPythonChat::ToggleChatMode

; 138  : 
; 139  : 	return Py_BuildNone();

  0004f	e8 00 00 00 00	 call	 ?Py_BuildNone@@YAPAU_object@@XZ ; Py_BuildNone

; 140  : }

  00054	8b e5		 mov	 esp, ebp
  00056	5d		 pop	 ebp
  00057	c3		 ret	 0
?chatToggleChatMode@@YAPAU_object@@PAU1@0@Z ENDP	; chatToggleChatMode
_TEXT	ENDS
; Function compile flags: /Ogtp
; File D:\_m2work\txoko-m2-work\txoko-client-src\source\UserInterface\PythonChatModule.cpp
;	COMDAT ?chatEnableChatMode@@YAPAU_object@@PAU1@0@Z
_TEXT	SEGMENT
_iID$ = -8						; size = 4
_iType$ = -4						; size = 4
_poSelf$ = 8						; size = 4
_poArgs$ = 12						; size = 4
?chatEnableChatMode@@YAPAU_object@@PAU1@0@Z PROC	; chatEnableChatMode, COMDAT

; 143  : {

  00000	55		 push	 ebp
  00001	8b ec		 mov	 ebp, esp
  00003	83 ec 08	 sub	 esp, 8

; 144  : 	int iID;
; 145  : 	if (!PyTuple_GetInteger(poArgs, 0, &iID))

  00006	8d 45 f8	 lea	 eax, DWORD PTR _iID$[ebp]
  00009	50		 push	 eax
  0000a	6a 00		 push	 0
  0000c	ff 75 0c	 push	 DWORD PTR _poArgs$[ebp]
  0000f	e8 00 00 00 00	 call	 ?PyTuple_GetInteger@@YA_NPAU_object@@HPAH@Z ; PyTuple_GetInteger
  00014	83 c4 0c	 add	 esp, 12			; 0000000cH
  00017	84 c0		 test	 al, al
  00019	75 0e		 jne	 SHORT $LN2@chatEnable
$LN5@chatEnable:

; 154  : }

  0001b	6a 00		 push	 0
  0001d	e8 00 00 00 00	 call	 ?Py_BuildException@@YAPAU_object@@PBDZZ ; Py_BuildException
  00022	83 c4 04	 add	 esp, 4
  00025	8b e5		 mov	 esp, ebp
  00027	5d		 pop	 ebp
  00028	c3		 ret	 0
$LN2@chatEnable:

; 146  : 		return Py_BuildException();
; 147  : 	int iType;
; 148  : 	if (!PyTuple_GetInteger(poArgs, 1, &iType))

  00029	8d 45 fc	 lea	 eax, DWORD PTR _iType$[ebp]
  0002c	50		 push	 eax
  0002d	6a 01		 push	 1
  0002f	ff 75 0c	 push	 DWORD PTR _poArgs$[ebp]
  00032	e8 00 00 00 00	 call	 ?PyTuple_GetInteger@@YA_NPAU_object@@HPAH@Z ; PyTuple_GetInteger
  00037	83 c4 0c	 add	 esp, 12			; 0000000cH
  0003a	84 c0		 test	 al, al
  0003c	74 dd		 je	 SHORT $LN5@chatEnable

; 149  : 		return Py_BuildException();
; 150  : 
; 151  : 	CPythonChat::Instance().EnableChatMode(iID, iType);

  0003e	ff 75 fc	 push	 DWORD PTR _iType$[ebp]
  00041	8b 0d 00 00 00
	00		 mov	 ecx, DWORD PTR ?ms_singleton@?$CSingleton@VCPythonChat@@@@0PAVCPythonChat@@A ; CSingleton<CPythonChat>::ms_singleton
  00047	ff 75 f8	 push	 DWORD PTR _iID$[ebp]
  0004a	e8 00 00 00 00	 call	 ?EnableChatMode@CPythonChat@@QAEXKH@Z ; CPythonChat::EnableChatMode

; 152  : 
; 153  : 	return Py_BuildNone();

  0004f	e8 00 00 00 00	 call	 ?Py_BuildNone@@YAPAU_object@@XZ ; Py_BuildNone

; 154  : }

  00054	8b e5		 mov	 esp, ebp
  00056	5d		 pop	 ebp
  00057	c3		 ret	 0
?chatEnableChatMode@@YAPAU_object@@PAU1@0@Z ENDP	; chatEnableChatMode
_TEXT	ENDS
; Function compile flags: /Ogtp
; File D:\_m2work\txoko-m2-work\txoko-client-src\source\UserInterface\PythonChatModule.cpp
;	COMDAT ?chatDisableChatMode@@YAPAU_object@@PAU1@0@Z
_TEXT	SEGMENT
_iID$ = -8						; size = 4
_iType$ = -4						; size = 4
_poSelf$ = 8						; size = 4
_poArgs$ = 12						; size = 4
?chatDisableChatMode@@YAPAU_object@@PAU1@0@Z PROC	; chatDisableChatMode, COMDAT

; 157  : {

  00000	55		 push	 ebp
  00001	8b ec		 mov	 ebp, esp
  00003	83 ec 08	 sub	 esp, 8

; 158  : 	int iID;
; 159  : 	if (!PyTuple_GetInteger(poArgs, 0, &iID))

  00006	8d 45 f8	 lea	 eax, DWORD PTR _iID$[ebp]
  00009	50		 push	 eax
  0000a	6a 00		 push	 0
  0000c	ff 75 0c	 push	 DWORD PTR _poArgs$[ebp]
  0000f	e8 00 00 00 00	 call	 ?PyTuple_GetInteger@@YA_NPAU_object@@HPAH@Z ; PyTuple_GetInteger
  00014	83 c4 0c	 add	 esp, 12			; 0000000cH
  00017	84 c0		 test	 al, al
  00019	75 0e		 jne	 SHORT $LN2@chatDisabl
$LN5@chatDisabl:

; 168  : }

  0001b	6a 00		 push	 0
  0001d	e8 00 00 00 00	 call	 ?Py_BuildException@@YAPAU_object@@PBDZZ ; Py_BuildException
  00022	83 c4 04	 add	 esp, 4
  00025	8b e5		 mov	 esp, ebp
  00027	5d		 pop	 ebp
  00028	c3		 ret	 0
$LN2@chatDisabl:

; 160  : 		return Py_BuildException();
; 161  : 	int iType;
; 162  : 	if (!PyTuple_GetInteger(poArgs, 1, &iType))

  00029	8d 45 fc	 lea	 eax, DWORD PTR _iType$[ebp]
  0002c	50		 push	 eax
  0002d	6a 01		 push	 1
  0002f	ff 75 0c	 push	 DWORD PTR _poArgs$[ebp]
  00032	e8 00 00 00 00	 call	 ?PyTuple_GetInteger@@YA_NPAU_object@@HPAH@Z ; PyTuple_GetInteger
  00037	83 c4 0c	 add	 esp, 12			; 0000000cH
  0003a	84 c0		 test	 al, al
  0003c	74 dd		 je	 SHORT $LN5@chatDisabl

; 163  : 		return Py_BuildException();
; 164  : 
; 165  : 	CPythonChat::Instance().DisableChatMode(iID, iType);

  0003e	ff 75 fc	 push	 DWORD PTR _iType$[ebp]
  00041	8b 0d 00 00 00
	00		 mov	 ecx, DWORD PTR ?ms_singleton@?$CSingleton@VCPythonChat@@@@0PAVCPythonChat@@A ; CSingleton<CPythonChat>::ms_singleton
  00047	ff 75 f8	 push	 DWORD PTR _iID$[ebp]
  0004a	e8 00 00 00 00	 call	 ?DisableChatMode@CPythonChat@@QAEXKH@Z ; CPythonChat::DisableChatMode

; 166  : 
; 167  : 	return Py_BuildNone();

  0004f	e8 00 00 00 00	 call	 ?Py_BuildNone@@YAPAU_object@@XZ ; Py_BuildNone

; 168  : }

  00054	8b e5		 mov	 esp, ebp
  00056	5d		 pop	 ebp
  00057	c3		 ret	 0
?chatDisableChatMode@@YAPAU_object@@PAU1@0@Z ENDP	; chatDisableChatMode
_TEXT	ENDS
; Function compile flags: /Ogtp
; File D:\_m2work\txoko-m2-work\txoko-client-src\source\UserInterface\PythonChatModule.cpp
;	COMDAT ?chatSetEndPos@@YAPAU_object@@PAU1@0@Z
_TEXT	SEGMENT
_fPos$ = -8						; size = 4
_iID$ = -4						; size = 4
_poSelf$ = 8						; size = 4
_poArgs$ = 12						; size = 4
?chatSetEndPos@@YAPAU_object@@PAU1@0@Z PROC		; chatSetEndPos, COMDAT

; 171  : {

  00000	55		 push	 ebp
  00001	8b ec		 mov	 ebp, esp
  00003	83 ec 08	 sub	 esp, 8

; 172  : 	int iID;
; 173  : 	if (!PyTuple_GetInteger(poArgs, 0, &iID))

  00006	8d 45 fc	 lea	 eax, DWORD PTR _iID$[ebp]
  00009	50		 push	 eax
  0000a	6a 00		 push	 0
  0000c	ff 75 0c	 push	 DWORD PTR _poArgs$[ebp]
  0000f	e8 00 00 00 00	 call	 ?PyTuple_GetInteger@@YA_NPAU_object@@HPAH@Z ; PyTuple_GetInteger
  00014	83 c4 0c	 add	 esp, 12			; 0000000cH
  00017	84 c0		 test	 al, al
  00019	75 0e		 jne	 SHORT $LN2@chatSetEnd
$LN5@chatSetEnd:

; 182  : }

  0001b	6a 00		 push	 0
  0001d	e8 00 00 00 00	 call	 ?Py_BuildException@@YAPAU_object@@PBDZZ ; Py_BuildException
  00022	83 c4 04	 add	 esp, 4
  00025	8b e5		 mov	 esp, ebp
  00027	5d		 pop	 ebp
  00028	c3		 ret	 0
$LN2@chatSetEnd:

; 174  : 		return Py_BuildException();
; 175  : 	float fPos;
; 176  : 	if (!PyTuple_GetFloat(poArgs, 1, &fPos))

  00029	8d 45 f8	 lea	 eax, DWORD PTR _fPos$[ebp]
  0002c	50		 push	 eax
  0002d	6a 01		 push	 1
  0002f	ff 75 0c	 push	 DWORD PTR _poArgs$[ebp]
  00032	e8 00 00 00 00	 call	 ?PyTuple_GetFloat@@YA_NPAU_object@@HPAM@Z ; PyTuple_GetFloat
  00037	83 c4 0c	 add	 esp, 12			; 0000000cH
  0003a	84 c0		 test	 al, al
  0003c	74 dd		 je	 SHORT $LN5@chatSetEnd

; 177  : 		return Py_BuildException();
; 178  : 
; 179  : 	CPythonChat::Instance().SetEndPos(iID, fPos);

  0003e	ff 75 fc	 push	 DWORD PTR _iID$[ebp]
  00041	f3 0f 10 55 f8	 movss	 xmm2, DWORD PTR _fPos$[ebp]
  00046	8b 0d 00 00 00
	00		 mov	 ecx, DWORD PTR ?ms_singleton@?$CSingleton@VCPythonChat@@@@0PAVCPythonChat@@A ; CSingleton<CPythonChat>::ms_singleton
  0004c	e8 00 00 00 00	 call	 ?SetEndPos@CPythonChat@@QAEXKM@Z ; CPythonChat::SetEndPos

; 180  : 
; 181  : 	return Py_BuildNone();

  00051	e8 00 00 00 00	 call	 ?Py_BuildNone@@YAPAU_object@@XZ ; Py_BuildNone

; 182  : }

  00056	8b e5		 mov	 esp, ebp
  00058	5d		 pop	 ebp
  00059	c3		 ret	 0
?chatSetEndPos@@YAPAU_object@@PAU1@0@Z ENDP		; chatSetEndPos
_TEXT	ENDS
; Function compile flags: /Ogtp
; File D:\_m2work\txoko-m2-work\txoko-client-src\source\UserInterface\PythonChatModule.cpp
;	COMDAT ?chatGetLineCount@@YAPAU_object@@PAU1@0@Z
_TEXT	SEGMENT
_iID$ = -4						; size = 4
_poSelf$ = 8						; size = 4
_poArgs$ = 12						; size = 4
?chatGetLineCount@@YAPAU_object@@PAU1@0@Z PROC		; chatGetLineCount, COMDAT

; 185  : {

  00000	55		 push	 ebp
  00001	8b ec		 mov	 ebp, esp
  00003	51		 push	 ecx

; 186  : 	int iID;
; 187  : 	if (!PyTuple_GetInteger(poArgs, 0, &iID))

  00004	8d 45 fc	 lea	 eax, DWORD PTR _iID$[ebp]
  00007	50		 push	 eax
  00008	6a 00		 push	 0
  0000a	ff 75 0c	 push	 DWORD PTR _poArgs$[ebp]
  0000d	e8 00 00 00 00	 call	 ?PyTuple_GetInteger@@YA_NPAU_object@@HPAH@Z ; PyTuple_GetInteger
  00012	83 c4 0c	 add	 esp, 12			; 0000000cH
  00015	84 c0		 test	 al, al
  00017	75 0e		 jne	 SHORT $LN2@chatGetLin

; 188  : 		return Py_BuildException();

  00019	6a 00		 push	 0
  0001b	e8 00 00 00 00	 call	 ?Py_BuildException@@YAPAU_object@@PBDZZ ; Py_BuildException
  00020	83 c4 04	 add	 esp, 4

; 191  : }

  00023	8b e5		 mov	 esp, ebp
  00025	5d		 pop	 ebp
  00026	c3		 ret	 0
$LN2@chatGetLin:

; 189  : 
; 190  : 	return Py_BuildValue("i", CPythonChat::Instance().GetLineCount(iID));

  00027	ff 75 fc	 push	 DWORD PTR _iID$[ebp]
  0002a	8b 0d 00 00 00
	00		 mov	 ecx, DWORD PTR ?ms_singleton@?$CSingleton@VCPythonChat@@@@0PAVCPythonChat@@A ; CSingleton<CPythonChat>::ms_singleton
  00030	e8 00 00 00 00	 call	 ?GetLineCount@CPythonChat@@QAEHK@Z ; CPythonChat::GetLineCount
  00035	50		 push	 eax
  00036	68 00 00 00 00	 push	 OFFSET ??_C@_01KBJDNOO@i@
  0003b	ff 15 00 00 00
	00		 call	 DWORD PTR __imp__Py_BuildValue
  00041	83 c4 08	 add	 esp, 8

; 191  : }

  00044	8b e5		 mov	 esp, ebp
  00046	5d		 pop	 ebp
  00047	c3		 ret	 0
?chatGetLineCount@@YAPAU_object@@PAU1@0@Z ENDP		; chatGetLineCount
_TEXT	ENDS
; Function compile flags: /Ogtp
; File D:\_m2work\txoko-m2-work\txoko-client-src\source\UserInterface\PythonChatModule.cpp
;	COMDAT ?chatGetVisibleLineCount@@YAPAU_object@@PAU1@0@Z
_TEXT	SEGMENT
_iID$ = -4						; size = 4
_poSelf$ = 8						; size = 4
_poArgs$ = 12						; size = 4
?chatGetVisibleLineCount@@YAPAU_object@@PAU1@0@Z PROC	; chatGetVisibleLineCount, COMDAT

; 194  : {

  00000	55		 push	 ebp
  00001	8b ec		 mov	 ebp, esp
  00003	51		 push	 ecx

; 195  : 	int iID;
; 196  : 	if (!PyTuple_GetInteger(poArgs, 0, &iID))

  00004	8d 45 fc	 lea	 eax, DWORD PTR _iID$[ebp]
  00007	50		 push	 eax
  00008	6a 00		 push	 0
  0000a	ff 75 0c	 push	 DWORD PTR _poArgs$[ebp]
  0000d	e8 00 00 00 00	 call	 ?PyTuple_GetInteger@@YA_NPAU_object@@HPAH@Z ; PyTuple_GetInteger
  00012	83 c4 0c	 add	 esp, 12			; 0000000cH
  00015	84 c0		 test	 al, al
  00017	75 0e		 jne	 SHORT $LN2@chatGetVis

; 197  : 		return Py_BuildException();

  00019	6a 00		 push	 0
  0001b	e8 00 00 00 00	 call	 ?Py_BuildException@@YAPAU_object@@PBDZZ ; Py_BuildException
  00020	83 c4 04	 add	 esp, 4

; 200  : }

  00023	8b e5		 mov	 esp, ebp
  00025	5d		 pop	 ebp
  00026	c3		 ret	 0
$LN2@chatGetVis:

; 198  : 
; 199  : 	return Py_BuildValue("i", CPythonChat::Instance().GetVisibleLineCount(iID));

  00027	ff 75 fc	 push	 DWORD PTR _iID$[ebp]
  0002a	8b 0d 00 00 00
	00		 mov	 ecx, DWORD PTR ?ms_singleton@?$CSingleton@VCPythonChat@@@@0PAVCPythonChat@@A ; CSingleton<CPythonChat>::ms_singleton
  00030	e8 00 00 00 00	 call	 ?GetVisibleLineCount@CPythonChat@@QAEHK@Z ; CPythonChat::GetVisibleLineCount
  00035	50		 push	 eax
  00036	68 00 00 00 00	 push	 OFFSET ??_C@_01KBJDNOO@i@
  0003b	ff 15 00 00 00
	00		 call	 DWORD PTR __imp__Py_BuildValue
  00041	83 c4 08	 add	 esp, 8

; 200  : }

  00044	8b e5		 mov	 esp, ebp
  00046	5d		 pop	 ebp
  00047	c3		 ret	 0
?chatGetVisibleLineCount@@YAPAU_object@@PAU1@0@Z ENDP	; chatGetVisibleLineCount
_TEXT	ENDS
; Function compile flags: /Ogtp
; File D:\_m2work\txoko-m2-work\txoko-client-src\source\UserInterface\PythonChatModule.cpp
;	COMDAT ?chatGetLineStep@@YAPAU_object@@PAU1@0@Z
_TEXT	SEGMENT
_iID$ = -4						; size = 4
_poSelf$ = 8						; size = 4
_poArgs$ = 12						; size = 4
?chatGetLineStep@@YAPAU_object@@PAU1@0@Z PROC		; chatGetLineStep, COMDAT

; 203  : {

  00000	55		 push	 ebp
  00001	8b ec		 mov	 ebp, esp
  00003	51		 push	 ecx

; 204  : 	int iID;
; 205  : 	if (!PyTuple_GetInteger(poArgs, 0, &iID))

  00004	8d 45 fc	 lea	 eax, DWORD PTR _iID$[ebp]
  00007	50		 push	 eax
  00008	6a 00		 push	 0
  0000a	ff 75 0c	 push	 DWORD PTR _poArgs$[ebp]
  0000d	e8 00 00 00 00	 call	 ?PyTuple_GetInteger@@YA_NPAU_object@@HPAH@Z ; PyTuple_GetInteger
  00012	83 c4 0c	 add	 esp, 12			; 0000000cH
  00015	84 c0		 test	 al, al
  00017	75 0e		 jne	 SHORT $LN2@chatGetLin

; 206  : 		return Py_BuildException();

  00019	6a 00		 push	 0
  0001b	e8 00 00 00 00	 call	 ?Py_BuildException@@YAPAU_object@@PBDZZ ; Py_BuildException
  00020	83 c4 04	 add	 esp, 4

; 209  : }

  00023	8b e5		 mov	 esp, ebp
  00025	5d		 pop	 ebp
  00026	c3		 ret	 0
$LN2@chatGetLin:

; 207  : 
; 208  : 	return Py_BuildValue("i", CPythonChat::Instance().GetLineStep(iID));

  00027	ff 75 fc	 push	 DWORD PTR _iID$[ebp]
  0002a	8b 0d 00 00 00
	00		 mov	 ecx, DWORD PTR ?ms_singleton@?$CSingleton@VCPythonChat@@@@0PAVCPythonChat@@A ; CSingleton<CPythonChat>::ms_singleton
  00030	e8 00 00 00 00	 call	 ?GetLineStep@CPythonChat@@QAEHK@Z ; CPythonChat::GetLineStep
  00035	50		 push	 eax
  00036	68 00 00 00 00	 push	 OFFSET ??_C@_01KBJDNOO@i@
  0003b	ff 15 00 00 00
	00		 call	 DWORD PTR __imp__Py_BuildValue
  00041	83 c4 08	 add	 esp, 8

; 209  : }

  00044	8b e5		 mov	 esp, ebp
  00046	5d		 pop	 ebp
  00047	c3		 ret	 0
?chatGetLineStep@@YAPAU_object@@PAU1@0@Z ENDP		; chatGetLineStep
_TEXT	ENDS
; Function compile flags: /Ogtp
; File D:\_m2work\txoko-m2-work\txoko-client-src\source\UserInterface\PythonChatModule.cpp
;	COMDAT ?chatAppendChat@@YAPAU_object@@PAU1@0@Z
_TEXT	SEGMENT
_iType$ = -8						; size = 4
_szChat$ = -4						; size = 4
_poSelf$ = 8						; size = 4
_poArgs$ = 12						; size = 4
?chatAppendChat@@YAPAU_object@@PAU1@0@Z PROC		; chatAppendChat, COMDAT

; 212  : {

  00000	55		 push	 ebp
  00001	8b ec		 mov	 ebp, esp
  00003	83 ec 08	 sub	 esp, 8

; 213  : 	int iType;
; 214  : 	if (!PyTuple_GetInteger(poArgs, 0, &iType))

  00006	8d 45 f8	 lea	 eax, DWORD PTR _iType$[ebp]
  00009	50		 push	 eax
  0000a	6a 00		 push	 0
  0000c	ff 75 0c	 push	 DWORD PTR _poArgs$[ebp]
  0000f	e8 00 00 00 00	 call	 ?PyTuple_GetInteger@@YA_NPAU_object@@HPAH@Z ; PyTuple_GetInteger
  00014	83 c4 0c	 add	 esp, 12			; 0000000cH
  00017	84 c0		 test	 al, al
  00019	75 0e		 jne	 SHORT $LN2@chatAppend
$LN5@chatAppend:

; 224  : }

  0001b	6a 00		 push	 0
  0001d	e8 00 00 00 00	 call	 ?Py_BuildException@@YAPAU_object@@PBDZZ ; Py_BuildException
  00022	83 c4 04	 add	 esp, 4
  00025	8b e5		 mov	 esp, ebp
  00027	5d		 pop	 ebp
  00028	c3		 ret	 0
$LN2@chatAppend:

; 215  : 		return Py_BuildException();
; 216  : 
; 217  : 	char * szChat;
; 218  : 	if (!PyTuple_GetString(poArgs, 1, &szChat))

  00029	8d 45 fc	 lea	 eax, DWORD PTR _szChat$[ebp]
  0002c	50		 push	 eax
  0002d	6a 01		 push	 1
  0002f	ff 75 0c	 push	 DWORD PTR _poArgs$[ebp]
  00032	e8 00 00 00 00	 call	 ?PyTuple_GetString@@YA_NPAU_object@@HPAPAD@Z ; PyTuple_GetString
  00037	83 c4 0c	 add	 esp, 12			; 0000000cH
  0003a	84 c0		 test	 al, al
  0003c	74 dd		 je	 SHORT $LN5@chatAppend

; 219  : 		return Py_BuildException();
; 220  : 
; 221  : 	CPythonChat::Instance().AppendChat(iType, szChat);

  0003e	8b 0d 00 00 00
	00		 mov	 ecx, DWORD PTR ?ms_singleton@?$CSingleton@VCPythonChat@@@@0PAVCPythonChat@@A ; CSingleton<CPythonChat>::ms_singleton
  00044	ff 75 fc	 push	 DWORD PTR _szChat$[ebp]
  00047	83 c1 04	 add	 ecx, 4
  0004a	ff 75 f8	 push	 DWORD PTR _iType$[ebp]
  0004d	8b 01		 mov	 eax, DWORD PTR [ecx]
  0004f	ff 50 04	 call	 DWORD PTR [eax+4]

; 222  : 
; 223  : 	return Py_BuildNone();

  00052	e8 00 00 00 00	 call	 ?Py_BuildNone@@YAPAU_object@@XZ ; Py_BuildNone

; 224  : }

  00057	8b e5		 mov	 esp, ebp
  00059	5d		 pop	 ebp
  0005a	c3		 ret	 0
?chatAppendChat@@YAPAU_object@@PAU1@0@Z ENDP		; chatAppendChat
_TEXT	ENDS
; Function compile flags: /Ogtp
; File D:\_m2work\txoko-m2-work\txoko-client-src\source\UserInterface\PythonChatModule.cpp
;	COMDAT ?chatAppendChatWithDelay@@YAPAU_object@@PAU1@0@Z
_TEXT	SEGMENT
_iType$ = -12						; size = 4
_szChat$ = -8						; size = 4
_iDelay$ = -4						; size = 4
_poSelf$ = 8						; size = 4
_poArgs$ = 12						; size = 4
?chatAppendChatWithDelay@@YAPAU_object@@PAU1@0@Z PROC	; chatAppendChatWithDelay, COMDAT

; 227  : {

  00000	55		 push	 ebp
  00001	8b ec		 mov	 ebp, esp
  00003	83 ec 0c	 sub	 esp, 12			; 0000000cH

; 228  : 	int iType;
; 229  : 	if (!PyTuple_GetInteger(poArgs, 0, &iType))

  00006	8d 45 f4	 lea	 eax, DWORD PTR _iType$[ebp]
  00009	56		 push	 esi
  0000a	8b 75 0c	 mov	 esi, DWORD PTR _poArgs$[ebp]
  0000d	50		 push	 eax
  0000e	6a 00		 push	 0
  00010	56		 push	 esi
  00011	e8 00 00 00 00	 call	 ?PyTuple_GetInteger@@YA_NPAU_object@@HPAH@Z ; PyTuple_GetInteger
  00016	83 c4 0c	 add	 esp, 12			; 0000000cH
  00019	84 c0		 test	 al, al
  0001b	75 0f		 jne	 SHORT $LN2@chatAppend
$LN9@chatAppend:

; 243  : }

  0001d	6a 00		 push	 0
  0001f	e8 00 00 00 00	 call	 ?Py_BuildException@@YAPAU_object@@PBDZZ ; Py_BuildException
  00024	83 c4 04	 add	 esp, 4
  00027	5e		 pop	 esi
  00028	8b e5		 mov	 esp, ebp
  0002a	5d		 pop	 ebp
  0002b	c3		 ret	 0
$LN2@chatAppend:

; 230  : 		return Py_BuildException();
; 231  : 
; 232  : 	char * szChat;
; 233  : 	if (!PyTuple_GetString(poArgs, 1, &szChat))

  0002c	8d 45 f8	 lea	 eax, DWORD PTR _szChat$[ebp]
  0002f	50		 push	 eax
  00030	6a 01		 push	 1
  00032	56		 push	 esi
  00033	e8 00 00 00 00	 call	 ?PyTuple_GetString@@YA_NPAU_object@@HPAPAD@Z ; PyTuple_GetString
  00038	83 c4 0c	 add	 esp, 12			; 0000000cH
  0003b	84 c0		 test	 al, al
  0003d	74 de		 je	 SHORT $LN9@chatAppend

; 234  : 		return Py_BuildException();
; 235  : 
; 236  : 	int iDelay;
; 237  : 	if (!PyTuple_GetInteger(poArgs, 2, &iDelay))

  0003f	8d 45 fc	 lea	 eax, DWORD PTR _iDelay$[ebp]
  00042	50		 push	 eax
  00043	6a 02		 push	 2
  00045	56		 push	 esi
  00046	e8 00 00 00 00	 call	 ?PyTuple_GetInteger@@YA_NPAU_object@@HPAH@Z ; PyTuple_GetInteger
  0004b	83 c4 0c	 add	 esp, 12			; 0000000cH
  0004e	84 c0		 test	 al, al
  00050	74 cb		 je	 SHORT $LN9@chatAppend

; 238  : 		return Py_BuildException();
; 239  : 
; 240  : 	CPythonChat::Instance().AppendChatWithDelay(iType, szChat, iDelay);

  00052	ff 75 fc	 push	 DWORD PTR _iDelay$[ebp]
  00055	8b 0d 00 00 00
	00		 mov	 ecx, DWORD PTR ?ms_singleton@?$CSingleton@VCPythonChat@@@@0PAVCPythonChat@@A ; CSingleton<CPythonChat>::ms_singleton
  0005b	ff 75 f8	 push	 DWORD PTR _szChat$[ebp]
  0005e	ff 75 f4	 push	 DWORD PTR _iType$[ebp]
  00061	e8 00 00 00 00	 call	 ?AppendChatWithDelay@CPythonChat@@QAEXHPBDH@Z ; CPythonChat::AppendChatWithDelay

; 241  : 
; 242  : 	return Py_BuildNone();

  00066	e8 00 00 00 00	 call	 ?Py_BuildNone@@YAPAU_object@@XZ ; Py_BuildNone
  0006b	5e		 pop	 esi

; 243  : }

  0006c	8b e5		 mov	 esp, ebp
  0006e	5d		 pop	 ebp
  0006f	c3		 ret	 0
?chatAppendChatWithDelay@@YAPAU_object@@PAU1@0@Z ENDP	; chatAppendChatWithDelay
_TEXT	ENDS
; Function compile flags: /Ogtp
; File D:\_m2work\txoko-m2-work\txoko-client-src\source\UserInterface\PythonChatModule.cpp
;	COMDAT ?chatArrangeShowingChat@@YAPAU_object@@PAU1@0@Z
_TEXT	SEGMENT
_iID$ = -4						; size = 4
_poSelf$ = 8						; size = 4
_poArgs$ = 12						; size = 4
?chatArrangeShowingChat@@YAPAU_object@@PAU1@0@Z PROC	; chatArrangeShowingChat, COMDAT

; 246  : {

  00000	55		 push	 ebp
  00001	8b ec		 mov	 ebp, esp
  00003	51		 push	 ecx

; 247  : 	int iID;
; 248  : 	if (!PyTuple_GetInteger(poArgs, 0, &iID))

  00004	8d 45 fc	 lea	 eax, DWORD PTR _iID$[ebp]
  00007	50		 push	 eax
  00008	6a 00		 push	 0
  0000a	ff 75 0c	 push	 DWORD PTR _poArgs$[ebp]
  0000d	e8 00 00 00 00	 call	 ?PyTuple_GetInteger@@YA_NPAU_object@@HPAH@Z ; PyTuple_GetInteger
  00012	83 c4 0c	 add	 esp, 12			; 0000000cH
  00015	84 c0		 test	 al, al
  00017	75 0e		 jne	 SHORT $LN2@chatArrang

; 249  : 		return Py_BuildException();

  00019	6a 00		 push	 0
  0001b	e8 00 00 00 00	 call	 ?Py_BuildException@@YAPAU_object@@PBDZZ ; Py_BuildException
  00020	83 c4 04	 add	 esp, 4

; 254  : }

  00023	8b e5		 mov	 esp, ebp
  00025	5d		 pop	 ebp
  00026	c3		 ret	 0
$LN2@chatArrang:

; 250  : 
; 251  : 	CPythonChat::Instance().ArrangeShowingChat(iID);

  00027	ff 75 fc	 push	 DWORD PTR _iID$[ebp]
  0002a	8b 0d 00 00 00
	00		 mov	 ecx, DWORD PTR ?ms_singleton@?$CSingleton@VCPythonChat@@@@0PAVCPythonChat@@A ; CSingleton<CPythonChat>::ms_singleton
  00030	e8 00 00 00 00	 call	 ?ArrangeShowingChat@CPythonChat@@QAEXK@Z ; CPythonChat::ArrangeShowingChat

; 252  : 
; 253  : 	return Py_BuildNone();

  00035	e8 00 00 00 00	 call	 ?Py_BuildNone@@YAPAU_object@@XZ ; Py_BuildNone

; 254  : }

  0003a	8b e5		 mov	 esp, ebp
  0003c	5d		 pop	 ebp
  0003d	c3		 ret	 0
?chatArrangeShowingChat@@YAPAU_object@@PAU1@0@Z ENDP	; chatArrangeShowingChat
_TEXT	ENDS
; Function compile flags: /Ogtp
; File D:\_m2work\txoko-m2-work\txoko-client-src\source\UserInterface\PythonChatModule.cpp
;	COMDAT ?chatIgnoreCharacter@@YAPAU_object@@PAU1@0@Z
_TEXT	SEGMENT
_szName$ = -4						; size = 4
_poSelf$ = 8						; size = 4
_poArgs$ = 12						; size = 4
?chatIgnoreCharacter@@YAPAU_object@@PAU1@0@Z PROC	; chatIgnoreCharacter, COMDAT

; 257  : {

  00000	55		 push	 ebp
  00001	8b ec		 mov	 ebp, esp
  00003	51		 push	 ecx

; 258  : 	char * szName;
; 259  : 	if (!PyTuple_GetString(poArgs, 0, &szName))

  00004	8d 45 fc	 lea	 eax, DWORD PTR _szName$[ebp]
  00007	50		 push	 eax
  00008	6a 00		 push	 0
  0000a	ff 75 0c	 push	 DWORD PTR _poArgs$[ebp]
  0000d	e8 00 00 00 00	 call	 ?PyTuple_GetString@@YA_NPAU_object@@HPAPAD@Z ; PyTuple_GetString
  00012	83 c4 0c	 add	 esp, 12			; 0000000cH
  00015	84 c0		 test	 al, al
  00017	75 0e		 jne	 SHORT $LN2@chatIgnore

; 260  : 		return Py_BuildException();

  00019	6a 00		 push	 0
  0001b	e8 00 00 00 00	 call	 ?Py_BuildException@@YAPAU_object@@PBDZZ ; Py_BuildException
  00020	83 c4 04	 add	 esp, 4

; 265  : }

  00023	8b e5		 mov	 esp, ebp
  00025	5d		 pop	 ebp
  00026	c3		 ret	 0
$LN2@chatIgnore:

; 261  : 
; 262  : 	CPythonChat::Instance().IgnoreCharacter(szName);

  00027	ff 75 fc	 push	 DWORD PTR _szName$[ebp]
  0002a	8b 0d 00 00 00
	00		 mov	 ecx, DWORD PTR ?ms_singleton@?$CSingleton@VCPythonChat@@@@0PAVCPythonChat@@A ; CSingleton<CPythonChat>::ms_singleton
  00030	e8 00 00 00 00	 call	 ?IgnoreCharacter@CPythonChat@@QAEXPBD@Z ; CPythonChat::IgnoreCharacter

; 263  : 
; 264  : 	return Py_BuildNone();

  00035	e8 00 00 00 00	 call	 ?Py_BuildNone@@YAPAU_object@@XZ ; Py_BuildNone

; 265  : }

  0003a	8b e5		 mov	 esp, ebp
  0003c	5d		 pop	 ebp
  0003d	c3		 ret	 0
?chatIgnoreCharacter@@YAPAU_object@@PAU1@0@Z ENDP	; chatIgnoreCharacter
_TEXT	ENDS
; Function compile flags: /Ogtp
; File D:\_m2work\txoko-m2-work\txoko-client-src\source\UserInterface\PythonChatModule.cpp
;	COMDAT ?chatIsIgnoreCharacter@@YAPAU_object@@PAU1@0@Z
_TEXT	SEGMENT
_szName$ = -4						; size = 4
_poSelf$ = 8						; size = 4
_poArgs$ = 12						; size = 4
?chatIsIgnoreCharacter@@YAPAU_object@@PAU1@0@Z PROC	; chatIsIgnoreCharacter, COMDAT

; 268  : {

  00000	55		 push	 ebp
  00001	8b ec		 mov	 ebp, esp
  00003	51		 push	 ecx

; 269  : 	char * szName;
; 270  : 	if (!PyTuple_GetString(poArgs, 0, &szName))

  00004	8d 45 fc	 lea	 eax, DWORD PTR _szName$[ebp]
  00007	50		 push	 eax
  00008	6a 00		 push	 0
  0000a	ff 75 0c	 push	 DWORD PTR _poArgs$[ebp]
  0000d	e8 00 00 00 00	 call	 ?PyTuple_GetString@@YA_NPAU_object@@HPAPAD@Z ; PyTuple_GetString
  00012	83 c4 0c	 add	 esp, 12			; 0000000cH
  00015	84 c0		 test	 al, al
  00017	75 0e		 jne	 SHORT $LN2@chatIsIgno

; 271  : 		return Py_BuildException();

  00019	6a 00		 push	 0
  0001b	e8 00 00 00 00	 call	 ?Py_BuildException@@YAPAU_object@@PBDZZ ; Py_BuildException
  00020	83 c4 04	 add	 esp, 4

; 276  : }

  00023	8b e5		 mov	 esp, ebp
  00025	5d		 pop	 ebp
  00026	c3		 ret	 0
$LN2@chatIsIgno:

; 272  : 
; 273  : 	CPythonChat::Instance().IsIgnoreCharacter(szName);

  00027	ff 75 fc	 push	 DWORD PTR _szName$[ebp]
  0002a	8b 0d 00 00 00
	00		 mov	 ecx, DWORD PTR ?ms_singleton@?$CSingleton@VCPythonChat@@@@0PAVCPythonChat@@A ; CSingleton<CPythonChat>::ms_singleton
  00030	e8 00 00 00 00	 call	 ?IsIgnoreCharacter@CPythonChat@@QAEHPBD@Z ; CPythonChat::IsIgnoreCharacter

; 274  : 
; 275  : 	return Py_BuildNone();

  00035	e8 00 00 00 00	 call	 ?Py_BuildNone@@YAPAU_object@@XZ ; Py_BuildNone

; 276  : }

  0003a	8b e5		 mov	 esp, ebp
  0003c	5d		 pop	 ebp
  0003d	c3		 ret	 0
?chatIsIgnoreCharacter@@YAPAU_object@@PAU1@0@Z ENDP	; chatIsIgnoreCharacter
_TEXT	ENDS
; Function compile flags: /Ogtp
; File D:\_m2work\txoko-m2-work\txoko-client-src\source\UserInterface\PythonChatModule.cpp
;	COMDAT ?chatCreateWhisper@@YAPAU_object@@PAU1@0@Z
_TEXT	SEGMENT
_szName$ = -4						; size = 4
_poSelf$ = 8						; size = 4
_poArgs$ = 12						; size = 4
?chatCreateWhisper@@YAPAU_object@@PAU1@0@Z PROC		; chatCreateWhisper, COMDAT

; 279  : {

  00000	55		 push	 ebp
  00001	8b ec		 mov	 ebp, esp
  00003	51		 push	 ecx

; 280  : 	char * szName;
; 281  : 	if (!PyTuple_GetString(poArgs, 0, &szName))

  00004	8d 45 fc	 lea	 eax, DWORD PTR _szName$[ebp]
  00007	50		 push	 eax
  00008	6a 00		 push	 0
  0000a	ff 75 0c	 push	 DWORD PTR _poArgs$[ebp]
  0000d	e8 00 00 00 00	 call	 ?PyTuple_GetString@@YA_NPAU_object@@HPAPAD@Z ; PyTuple_GetString
  00012	83 c4 0c	 add	 esp, 12			; 0000000cH
  00015	84 c0		 test	 al, al
  00017	75 0e		 jne	 SHORT $LN2@chatCreate

; 282  : 		return Py_BuildException();

  00019	6a 00		 push	 0
  0001b	e8 00 00 00 00	 call	 ?Py_BuildException@@YAPAU_object@@PBDZZ ; Py_BuildException
  00020	83 c4 04	 add	 esp, 4

; 287  : }

  00023	8b e5		 mov	 esp, ebp
  00025	5d		 pop	 ebp
  00026	c3		 ret	 0
$LN2@chatCreate:

; 283  : 
; 284  : 	CPythonChat::Instance().CreateWhisper(szName);

  00027	ff 75 fc	 push	 DWORD PTR _szName$[ebp]
  0002a	8b 0d 00 00 00
	00		 mov	 ecx, DWORD PTR ?ms_singleton@?$CSingleton@VCPythonChat@@@@0PAVCPythonChat@@A ; CSingleton<CPythonChat>::ms_singleton
  00030	e8 00 00 00 00	 call	 ?CreateWhisper@CPythonChat@@QAEPAVCWhisper@@PBD@Z ; CPythonChat::CreateWhisper

; 285  : 
; 286  : 	return Py_BuildNone();

  00035	e8 00 00 00 00	 call	 ?Py_BuildNone@@YAPAU_object@@XZ ; Py_BuildNone

; 287  : }

  0003a	8b e5		 mov	 esp, ebp
  0003c	5d		 pop	 ebp
  0003d	c3		 ret	 0
?chatCreateWhisper@@YAPAU_object@@PAU1@0@Z ENDP		; chatCreateWhisper
_TEXT	ENDS
; Function compile flags: /Ogtp
; File D:\_m2work\txoko-m2-work\txoko-client-src\source\UserInterface\PythonChatModule.cpp
;	COMDAT ?chatAppendWhisper@@YAPAU_object@@PAU1@0@Z
_TEXT	SEGMENT
_iType$ = -12						; size = 4
_szName$ = -8						; size = 4
_szChat$ = -4						; size = 4
_poSelf$ = 8						; size = 4
_poArgs$ = 12						; size = 4
?chatAppendWhisper@@YAPAU_object@@PAU1@0@Z PROC		; chatAppendWhisper, COMDAT

; 290  : {

  00000	55		 push	 ebp
  00001	8b ec		 mov	 ebp, esp
  00003	83 ec 0c	 sub	 esp, 12			; 0000000cH

; 291  : 	int iType;
; 292  : 	if (!PyTuple_GetInteger(poArgs, 0, &iType))

  00006	8d 45 f4	 lea	 eax, DWORD PTR _iType$[ebp]
  00009	56		 push	 esi
  0000a	8b 75 0c	 mov	 esi, DWORD PTR _poArgs$[ebp]
  0000d	50		 push	 eax
  0000e	6a 00		 push	 0
  00010	56		 push	 esi
  00011	e8 00 00 00 00	 call	 ?PyTuple_GetInteger@@YA_NPAU_object@@HPAH@Z ; PyTuple_GetInteger
  00016	83 c4 0c	 add	 esp, 12			; 0000000cH
  00019	84 c0		 test	 al, al
  0001b	75 0f		 jne	 SHORT $LN2@chatAppend
$LN9@chatAppend:

; 305  : }

  0001d	6a 00		 push	 0
  0001f	e8 00 00 00 00	 call	 ?Py_BuildException@@YAPAU_object@@PBDZZ ; Py_BuildException
  00024	83 c4 04	 add	 esp, 4
  00027	5e		 pop	 esi
  00028	8b e5		 mov	 esp, ebp
  0002a	5d		 pop	 ebp
  0002b	c3		 ret	 0
$LN2@chatAppend:

; 293  : 		return Py_BuildException();
; 294  : 
; 295  : 	char * szName;
; 296  : 	if (!PyTuple_GetString(poArgs, 1, &szName))

  0002c	8d 45 f8	 lea	 eax, DWORD PTR _szName$[ebp]
  0002f	50		 push	 eax
  00030	6a 01		 push	 1
  00032	56		 push	 esi
  00033	e8 00 00 00 00	 call	 ?PyTuple_GetString@@YA_NPAU_object@@HPAPAD@Z ; PyTuple_GetString
  00038	83 c4 0c	 add	 esp, 12			; 0000000cH
  0003b	84 c0		 test	 al, al
  0003d	74 de		 je	 SHORT $LN9@chatAppend

; 297  : 		return Py_BuildException();
; 298  : 
; 299  : 	char * szChat;
; 300  : 	if (!PyTuple_GetString(poArgs, 2, &szChat))

  0003f	8d 45 fc	 lea	 eax, DWORD PTR _szChat$[ebp]
  00042	50		 push	 eax
  00043	6a 02		 push	 2
  00045	56		 push	 esi
  00046	e8 00 00 00 00	 call	 ?PyTuple_GetString@@YA_NPAU_object@@HPAPAD@Z ; PyTuple_GetString
  0004b	83 c4 0c	 add	 esp, 12			; 0000000cH
  0004e	84 c0		 test	 al, al
  00050	74 cb		 je	 SHORT $LN9@chatAppend

; 301  : 		return Py_BuildException();
; 302  : 
; 303  : 	CPythonChat::Instance().AppendWhisper(iType, szName, szChat);

  00052	ff 75 fc	 push	 DWORD PTR _szChat$[ebp]
  00055	8b 0d 00 00 00
	00		 mov	 ecx, DWORD PTR ?ms_singleton@?$CSingleton@VCPythonChat@@@@0PAVCPythonChat@@A ; CSingleton<CPythonChat>::ms_singleton
  0005b	ff 75 f8	 push	 DWORD PTR _szName$[ebp]
  0005e	ff 75 f4	 push	 DWORD PTR _iType$[ebp]
  00061	e8 00 00 00 00	 call	 ?AppendWhisper@CPythonChat@@QAEXHPBD0@Z ; CPythonChat::AppendWhisper

; 304  : 	return Py_BuildNone();

  00066	e8 00 00 00 00	 call	 ?Py_BuildNone@@YAPAU_object@@XZ ; Py_BuildNone
  0006b	5e		 pop	 esi

; 305  : }

  0006c	8b e5		 mov	 esp, ebp
  0006e	5d		 pop	 ebp
  0006f	c3		 ret	 0
?chatAppendWhisper@@YAPAU_object@@PAU1@0@Z ENDP		; chatAppendWhisper
_TEXT	ENDS
; Function compile flags: /Ogtp
; File D:\_m2work\txoko-m2-work\txoko-client-src\source\UserInterface\PythonChatModule.cpp
;	COMDAT ?chatRenderWhisper@@YAPAU_object@@PAU1@0@Z
_TEXT	SEGMENT
_szName$ = -16						; size = 4
_fy$ = -12						; size = 4
_fx$ = -8						; size = 4
_pWhisper$ = -4						; size = 4
_poSelf$ = 8						; size = 4
_poArgs$ = 12						; size = 4
?chatRenderWhisper@@YAPAU_object@@PAU1@0@Z PROC		; chatRenderWhisper, COMDAT

; 308  : {

  00000	55		 push	 ebp
  00001	8b ec		 mov	 ebp, esp
  00003	83 e4 f8	 and	 esp, -8			; fffffff8H
  00006	83 ec 14	 sub	 esp, 20			; 00000014H

; 309  : 	char * szName;
; 310  : 	if (!PyTuple_GetString(poArgs, 0, &szName))

  00009	8d 44 24 04	 lea	 eax, DWORD PTR _szName$[esp+20]
  0000d	56		 push	 esi
  0000e	8b 75 0c	 mov	 esi, DWORD PTR _poArgs$[ebp]
  00011	50		 push	 eax
  00012	6a 00		 push	 0
  00014	56		 push	 esi
  00015	e8 00 00 00 00	 call	 ?PyTuple_GetString@@YA_NPAU_object@@HPAPAD@Z ; PyTuple_GetString
  0001a	83 c4 0c	 add	 esp, 12			; 0000000cH
  0001d	84 c0		 test	 al, al
  0001f	75 0f		 jne	 SHORT $LN2@chatRender
$LN7@chatRender:

; 328  : }

  00021	6a 00		 push	 0
  00023	e8 00 00 00 00	 call	 ?Py_BuildException@@YAPAU_object@@PBDZZ ; Py_BuildException
  00028	83 c4 04	 add	 esp, 4
  0002b	5e		 pop	 esi
  0002c	8b e5		 mov	 esp, ebp
  0002e	5d		 pop	 ebp
  0002f	c3		 ret	 0
$LN2@chatRender:

; 311  : 		return Py_BuildException();
; 312  : 
; 313  : 	float fx;
; 314  : 	if (!PyTuple_GetFloat(poArgs, 1, &fx))

  00030	8d 44 24 10	 lea	 eax, DWORD PTR _fx$[esp+24]
  00034	50		 push	 eax
  00035	6a 01		 push	 1
  00037	56		 push	 esi
  00038	e8 00 00 00 00	 call	 ?PyTuple_GetFloat@@YA_NPAU_object@@HPAM@Z ; PyTuple_GetFloat
  0003d	83 c4 0c	 add	 esp, 12			; 0000000cH
  00040	84 c0		 test	 al, al
  00042	74 dd		 je	 SHORT $LN7@chatRender

; 315  : 		return Py_BuildException();
; 316  : 
; 317  : 	float fy;
; 318  : 	if (!PyTuple_GetFloat(poArgs, 2, &fy))

  00044	8d 44 24 0c	 lea	 eax, DWORD PTR _fy$[esp+24]
  00048	50		 push	 eax
  00049	6a 02		 push	 2
  0004b	56		 push	 esi
  0004c	e8 00 00 00 00	 call	 ?PyTuple_GetFloat@@YA_NPAU_object@@HPAM@Z ; PyTuple_GetFloat
  00051	83 c4 0c	 add	 esp, 12			; 0000000cH
  00054	84 c0		 test	 al, al
  00056	74 c9		 je	 SHORT $LN7@chatRender

; 319  : 		return Py_BuildException();
; 320  : 
; 321  : 	CWhisper * pWhisper;
; 322  : 	if (CPythonChat::Instance().GetWhisper(szName, &pWhisper))

  00058	8b 0d 00 00 00
	00		 mov	 ecx, DWORD PTR ?ms_singleton@?$CSingleton@VCPythonChat@@@@0PAVCPythonChat@@A ; CSingleton<CPythonChat>::ms_singleton
  0005e	8d 44 24 14	 lea	 eax, DWORD PTR _pWhisper$[esp+24]
  00062	50		 push	 eax
  00063	ff 74 24 0c	 push	 DWORD PTR _szName$[esp+28]
  00067	e8 00 00 00 00	 call	 ?GetWhisper@CPythonChat@@QAEHPBDPAPAVCWhisper@@@Z ; CPythonChat::GetWhisper
  0006c	85 c0		 test	 eax, eax
  0006e	74 15		 je	 SHORT $LN5@chatRender

; 323  : 	{
; 324  : 		pWhisper->Render(fx, fy);

  00070	f3 0f 10 54 24
	0c		 movss	 xmm2, DWORD PTR _fy$[esp+24]
  00076	f3 0f 10 4c 24
	10		 movss	 xmm1, DWORD PTR _fx$[esp+24]
  0007c	8b 4c 24 14	 mov	 ecx, DWORD PTR _pWhisper$[esp+24]
  00080	e8 00 00 00 00	 call	 ?Render@CWhisper@@QAEXMM@Z ; CWhisper::Render
$LN5@chatRender:

; 325  : 	}
; 326  : 
; 327  : 	return Py_BuildNone();

  00085	e8 00 00 00 00	 call	 ?Py_BuildNone@@YAPAU_object@@XZ ; Py_BuildNone

; 328  : }

  0008a	5e		 pop	 esi
  0008b	8b e5		 mov	 esp, ebp
  0008d	5d		 pop	 ebp
  0008e	c3		 ret	 0
?chatRenderWhisper@@YAPAU_object@@PAU1@0@Z ENDP		; chatRenderWhisper
_TEXT	ENDS
; Function compile flags: /Ogtp
; File D:\_m2work\txoko-m2-work\txoko-client-src\source\UserInterface\PythonChatModule.cpp
;	COMDAT ?chatSetWhisperBoxSize@@YAPAU_object@@PAU1@0@Z
_TEXT	SEGMENT
_pWhisper$ = -16					; size = 4
_fWidth$ = -12						; size = 4
_fHeight$ = -8						; size = 4
_szName$ = -4						; size = 4
_poSelf$ = 8						; size = 4
_poArgs$ = 12						; size = 4
?chatSetWhisperBoxSize@@YAPAU_object@@PAU1@0@Z PROC	; chatSetWhisperBoxSize, COMDAT

; 331  : {

  00000	55		 push	 ebp
  00001	8b ec		 mov	 ebp, esp
  00003	83 ec 10	 sub	 esp, 16			; 00000010H

; 332  : 	char * szName;
; 333  : 	if (!PyTuple_GetString(poArgs, 0, &szName))

  00006	8d 45 fc	 lea	 eax, DWORD PTR _szName$[ebp]
  00009	56		 push	 esi
  0000a	8b 75 0c	 mov	 esi, DWORD PTR _poArgs$[ebp]
  0000d	50		 push	 eax
  0000e	6a 00		 push	 0
  00010	56		 push	 esi
  00011	e8 00 00 00 00	 call	 ?PyTuple_GetString@@YA_NPAU_object@@HPAPAD@Z ; PyTuple_GetString
  00016	83 c4 0c	 add	 esp, 12			; 0000000cH
  00019	84 c0		 test	 al, al
  0001b	75 0f		 jne	 SHORT $LN2@chatSetWhi
$LN11@chatSetWhi:

; 351  : }

  0001d	6a 00		 push	 0
  0001f	e8 00 00 00 00	 call	 ?Py_BuildException@@YAPAU_object@@PBDZZ ; Py_BuildException
  00024	83 c4 04	 add	 esp, 4
  00027	5e		 pop	 esi
  00028	8b e5		 mov	 esp, ebp
  0002a	5d		 pop	 ebp
  0002b	c3		 ret	 0
$LN2@chatSetWhi:

; 334  : 		return Py_BuildException();
; 335  : 
; 336  : 	float fWidth;
; 337  : 	if (!PyTuple_GetFloat(poArgs, 1, &fWidth))

  0002c	8d 45 f4	 lea	 eax, DWORD PTR _fWidth$[ebp]
  0002f	50		 push	 eax
  00030	6a 01		 push	 1
  00032	56		 push	 esi
  00033	e8 00 00 00 00	 call	 ?PyTuple_GetFloat@@YA_NPAU_object@@HPAM@Z ; PyTuple_GetFloat
  00038	83 c4 0c	 add	 esp, 12			; 0000000cH
  0003b	84 c0		 test	 al, al
  0003d	74 de		 je	 SHORT $LN11@chatSetWhi

; 338  : 		return Py_BuildException();
; 339  : 
; 340  : 	float fHeight;
; 341  : 	if (!PyTuple_GetFloat(poArgs, 2, &fHeight))

  0003f	8d 45 f8	 lea	 eax, DWORD PTR _fHeight$[ebp]
  00042	50		 push	 eax
  00043	6a 02		 push	 2
  00045	56		 push	 esi
  00046	e8 00 00 00 00	 call	 ?PyTuple_GetFloat@@YA_NPAU_object@@HPAM@Z ; PyTuple_GetFloat
  0004b	83 c4 0c	 add	 esp, 12			; 0000000cH
  0004e	84 c0		 test	 al, al
  00050	74 cb		 je	 SHORT $LN11@chatSetWhi

; 342  : 		return Py_BuildException();
; 343  : 
; 344  : 	CWhisper * pWhisper;
; 345  : 	if (CPythonChat::Instance().GetWhisper(szName, &pWhisper))

  00052	8b 0d 00 00 00
	00		 mov	 ecx, DWORD PTR ?ms_singleton@?$CSingleton@VCPythonChat@@@@0PAVCPythonChat@@A ; CSingleton<CPythonChat>::ms_singleton
  00058	8d 45 f0	 lea	 eax, DWORD PTR _pWhisper$[ebp]
  0005b	50		 push	 eax
  0005c	ff 75 fc	 push	 DWORD PTR _szName$[ebp]
  0005f	e8 00 00 00 00	 call	 ?GetWhisper@CPythonChat@@QAEHPBDPAPAVCWhisper@@@Z ; CPythonChat::GetWhisper
  00064	85 c0		 test	 eax, eax
  00066	74 12		 je	 SHORT $LN5@chatSetWhi

; 346  : 	{
; 347  : 		pWhisper->SetBoxSize(fWidth, fHeight);

  00068	f3 0f 10 55 f8	 movss	 xmm2, DWORD PTR _fHeight$[ebp]
  0006d	f3 0f 10 4d f4	 movss	 xmm1, DWORD PTR _fWidth$[ebp]
  00072	8b 4d f0	 mov	 ecx, DWORD PTR _pWhisper$[ebp]
  00075	e8 00 00 00 00	 call	 ?SetBoxSize@CWhisper@@QAEXMM@Z ; CWhisper::SetBoxSize
$LN5@chatSetWhi:

; 348  : 	}
; 349  : 
; 350  : 	return Py_BuildNone();

  0007a	e8 00 00 00 00	 call	 ?Py_BuildNone@@YAPAU_object@@XZ ; Py_BuildNone
  0007f	5e		 pop	 esi

; 351  : }

  00080	8b e5		 mov	 esp, ebp
  00082	5d		 pop	 ebp
  00083	c3		 ret	 0
?chatSetWhisperBoxSize@@YAPAU_object@@PAU1@0@Z ENDP	; chatSetWhisperBoxSize
_TEXT	ENDS
; Function compile flags: /Ogtp
; File D:\_m2work\txoko-m2-work\txoko-client-src\source\UserInterface\PythonChatModule.cpp
;	COMDAT ?chatSetWhisperPosition@@YAPAU_object@@PAU1@0@Z
_TEXT	SEGMENT
_pWhisper$ = -12					; size = 4
_fPosition$ = -8					; size = 4
_szName$ = -4						; size = 4
_poSelf$ = 8						; size = 4
_poArgs$ = 12						; size = 4
?chatSetWhisperPosition@@YAPAU_object@@PAU1@0@Z PROC	; chatSetWhisperPosition, COMDAT

; 354  : {

  00000	55		 push	 ebp
  00001	8b ec		 mov	 ebp, esp
  00003	83 ec 0c	 sub	 esp, 12			; 0000000cH

; 355  : 	char * szName;
; 356  : 	if (!PyTuple_GetString(poArgs, 0, &szName))

  00006	8d 45 fc	 lea	 eax, DWORD PTR _szName$[ebp]
  00009	50		 push	 eax
  0000a	6a 00		 push	 0
  0000c	ff 75 0c	 push	 DWORD PTR _poArgs$[ebp]
  0000f	e8 00 00 00 00	 call	 ?PyTuple_GetString@@YA_NPAU_object@@HPAPAD@Z ; PyTuple_GetString
  00014	83 c4 0c	 add	 esp, 12			; 0000000cH
  00017	84 c0		 test	 al, al
  00019	75 0e		 jne	 SHORT $LN2@chatSetWhi
$LN6@chatSetWhi:

; 370  : }

  0001b	6a 00		 push	 0
  0001d	e8 00 00 00 00	 call	 ?Py_BuildException@@YAPAU_object@@PBDZZ ; Py_BuildException
  00022	83 c4 04	 add	 esp, 4
  00025	8b e5		 mov	 esp, ebp
  00027	5d		 pop	 ebp
  00028	c3		 ret	 0
$LN2@chatSetWhi:

; 357  : 		return Py_BuildException();
; 358  : 
; 359  : 	float fPosition;
; 360  : 	if (!PyTuple_GetFloat(poArgs, 1, &fPosition))

  00029	8d 45 f8	 lea	 eax, DWORD PTR _fPosition$[ebp]
  0002c	50		 push	 eax
  0002d	6a 01		 push	 1
  0002f	ff 75 0c	 push	 DWORD PTR _poArgs$[ebp]
  00032	e8 00 00 00 00	 call	 ?PyTuple_GetFloat@@YA_NPAU_object@@HPAM@Z ; PyTuple_GetFloat
  00037	83 c4 0c	 add	 esp, 12			; 0000000cH
  0003a	84 c0		 test	 al, al
  0003c	74 dd		 je	 SHORT $LN6@chatSetWhi

; 361  : 		return Py_BuildException();
; 362  : 
; 363  : 	CWhisper * pWhisper;
; 364  : 	if (CPythonChat::Instance().GetWhisper(szName, &pWhisper))

  0003e	8b 0d 00 00 00
	00		 mov	 ecx, DWORD PTR ?ms_singleton@?$CSingleton@VCPythonChat@@@@0PAVCPythonChat@@A ; CSingleton<CPythonChat>::ms_singleton
  00044	8d 45 f4	 lea	 eax, DWORD PTR _pWhisper$[ebp]
  00047	50		 push	 eax
  00048	ff 75 fc	 push	 DWORD PTR _szName$[ebp]
  0004b	e8 00 00 00 00	 call	 ?GetWhisper@CPythonChat@@QAEHPBDPAPAVCWhisper@@@Z ; CPythonChat::GetWhisper
  00050	85 c0		 test	 eax, eax
  00052	74 0d		 je	 SHORT $LN4@chatSetWhi

; 365  : 	{
; 366  : 		pWhisper->SetPosition(fPosition);

  00054	f3 0f 10 4d f8	 movss	 xmm1, DWORD PTR _fPosition$[ebp]
  00059	8b 4d f4	 mov	 ecx, DWORD PTR _pWhisper$[ebp]
  0005c	e8 00 00 00 00	 call	 ?SetPosition@CWhisper@@QAEXM@Z ; CWhisper::SetPosition
$LN4@chatSetWhi:

; 367  : 	}
; 368  : 
; 369  : 	return Py_BuildNone();

  00061	e8 00 00 00 00	 call	 ?Py_BuildNone@@YAPAU_object@@XZ ; Py_BuildNone

; 370  : }

  00066	8b e5		 mov	 esp, ebp
  00068	5d		 pop	 ebp
  00069	c3		 ret	 0
?chatSetWhisperPosition@@YAPAU_object@@PAU1@0@Z ENDP	; chatSetWhisperPosition
_TEXT	ENDS
; Function compile flags: /Ogtp
; File D:\_m2work\txoko-m2-work\txoko-client-src\source\UserInterface\PythonChatModule.cpp
;	COMDAT ?chatClearWhisper@@YAPAU_object@@PAU1@0@Z
_TEXT	SEGMENT
_szName$ = -4						; size = 4
_poSelf$ = 8						; size = 4
_poArgs$ = 12						; size = 4
?chatClearWhisper@@YAPAU_object@@PAU1@0@Z PROC		; chatClearWhisper, COMDAT

; 373  : {

  00000	55		 push	 ebp
  00001	8b ec		 mov	 ebp, esp
  00003	51		 push	 ecx

; 374  : 	char * szName;
; 375  : 	if (!PyTuple_GetString(poArgs, 0, &szName))

  00004	8d 45 fc	 lea	 eax, DWORD PTR _szName$[ebp]
  00007	50		 push	 eax
  00008	6a 00		 push	 0
  0000a	ff 75 0c	 push	 DWORD PTR _poArgs$[ebp]
  0000d	e8 00 00 00 00	 call	 ?PyTuple_GetString@@YA_NPAU_object@@HPAPAD@Z ; PyTuple_GetString
  00012	83 c4 0c	 add	 esp, 12			; 0000000cH
  00015	84 c0		 test	 al, al
  00017	75 0e		 jne	 SHORT $LN2@chatClearW

; 376  : 		return Py_BuildException();

  00019	6a 00		 push	 0
  0001b	e8 00 00 00 00	 call	 ?Py_BuildException@@YAPAU_object@@PBDZZ ; Py_BuildException
  00020	83 c4 04	 add	 esp, 4

; 381  : }

  00023	8b e5		 mov	 esp, ebp
  00025	5d		 pop	 ebp
  00026	c3		 ret	 0
$LN2@chatClearW:

; 377  : 
; 378  : 	CPythonChat::Instance().ClearWhisper(szName);

  00027	ff 75 fc	 push	 DWORD PTR _szName$[ebp]
  0002a	8b 0d 00 00 00
	00		 mov	 ecx, DWORD PTR ?ms_singleton@?$CSingleton@VCPythonChat@@@@0PAVCPythonChat@@A ; CSingleton<CPythonChat>::ms_singleton
  00030	e8 00 00 00 00	 call	 ?ClearWhisper@CPythonChat@@QAEXPBD@Z ; CPythonChat::ClearWhisper

; 379  : 
; 380  : 	return Py_BuildNone();

  00035	e8 00 00 00 00	 call	 ?Py_BuildNone@@YAPAU_object@@XZ ; Py_BuildNone

; 381  : }

  0003a	8b e5		 mov	 esp, ebp
  0003c	5d		 pop	 ebp
  0003d	c3		 ret	 0
?chatClearWhisper@@YAPAU_object@@PAU1@0@Z ENDP		; chatClearWhisper
_TEXT	ENDS
; Function compile flags: /Ogtp
; File D:\_m2work\txoko-m2-work\txoko-client-src\source\UserInterface\PythonChatModule.cpp
;	COMDAT ?chatInitWhisper@@YAPAU_object@@PAU1@0@Z
_TEXT	SEGMENT
_poInterface$ = -4					; size = 4
_poSelf$ = 8						; size = 4
_poArgs$ = 12						; size = 4
?chatInitWhisper@@YAPAU_object@@PAU1@0@Z PROC		; chatInitWhisper, COMDAT

; 384  : {

  00000	55		 push	 ebp
  00001	8b ec		 mov	 ebp, esp
  00003	51		 push	 ecx

; 385  : 	PyObject * poInterface;
; 386  : 	if (!PyTuple_GetObject(poArgs, 0, &poInterface))

  00004	8d 45 fc	 lea	 eax, DWORD PTR _poInterface$[ebp]
  00007	50		 push	 eax
  00008	6a 00		 push	 0
  0000a	ff 75 0c	 push	 DWORD PTR _poArgs$[ebp]
  0000d	e8 00 00 00 00	 call	 ?PyTuple_GetObject@@YA_NPAU_object@@HPAPAU1@@Z ; PyTuple_GetObject
  00012	83 c4 0c	 add	 esp, 12			; 0000000cH
  00015	84 c0		 test	 al, al
  00017	75 0e		 jne	 SHORT $LN2@chatInitWh

; 387  : 		return Py_BuildException();

  00019	6a 00		 push	 0
  0001b	e8 00 00 00 00	 call	 ?Py_BuildException@@YAPAU_object@@PBDZZ ; Py_BuildException
  00020	83 c4 04	 add	 esp, 4

; 391  : }

  00023	8b e5		 mov	 esp, ebp
  00025	5d		 pop	 ebp
  00026	c3		 ret	 0
$LN2@chatInitWh:

; 388  : 
; 389  : 	CPythonChat::Instance().InitWhisper(poInterface);

  00027	ff 75 fc	 push	 DWORD PTR _poInterface$[ebp]
  0002a	8b 0d 00 00 00
	00		 mov	 ecx, DWORD PTR ?ms_singleton@?$CSingleton@VCPythonChat@@@@0PAVCPythonChat@@A ; CSingleton<CPythonChat>::ms_singleton
  00030	e8 00 00 00 00	 call	 ?InitWhisper@CPythonChat@@QAEXPAU_object@@@Z ; CPythonChat::InitWhisper

; 390  : 	return Py_BuildNone();

  00035	e8 00 00 00 00	 call	 ?Py_BuildNone@@YAPAU_object@@XZ ; Py_BuildNone

; 391  : }

  0003a	8b e5		 mov	 esp, ebp
  0003c	5d		 pop	 ebp
  0003d	c3		 ret	 0
?chatInitWhisper@@YAPAU_object@@PAU1@0@Z ENDP		; chatInitWhisper
_TEXT	ENDS
; Function compile flags: /Ogtp
; File D:\_m2work\txoko-m2-work\txoko-client-src\source\UserInterface\PythonChatModule.cpp
; File C:\Program Files\Microsoft Visual Studio\2022\Community\VC\Tools\MSVC\14.44.35207\include\__msvc_string_view.hpp
; File C:\Program Files\Microsoft Visual Studio\2022\Community\VC\Tools\MSVC\14.44.35207\include\xstring
; File C:\Program Files\Microsoft Visual Studio\2022\Community\VC\Tools\MSVC\14.44.35207\include\__msvc_string_view.hpp
; File C:\Program Files\Microsoft Visual Studio\2022\Community\VC\Tools\MSVC\14.44.35207\include\xstring
; File D:\_m2work\txoko-m2-work\txoko-client-src\source\UserInterface\PythonChatModule.cpp
; File C:\Program Files\Microsoft Visual Studio\2022\Community\VC\Tools\MSVC\14.44.35207\include\vector
; File D:\_m2work\txoko-m2-work\txoko-client-src\source\UserInterface\PythonChatModule.cpp
; File C:\Program Files\Microsoft Visual Studio\2022\Community\VC\Tools\MSVC\14.44.35207\include\xstring
; File C:\Program Files\Microsoft Visual Studio\2022\Community\VC\Tools\MSVC\14.44.35207\include\__msvc_string_view.hpp
; File D:\_m2work\txoko-m2-work\txoko-client-src\source\UserInterface\PythonChatModule.cpp
; File C:\Program Files\Microsoft Visual Studio\2022\Community\VC\Tools\MSVC\14.44.35207\include\xstring
; File C:\Program Files\Microsoft Visual Studio\2022\Community\VC\Tools\MSVC\14.44.35207\include\xmemory
; File C:\Program Files\Microsoft Visual Studio\2022\Community\VC\Tools\MSVC\14.44.35207\include\xstring
; File C:\Program Files\Microsoft Visual Studio\2022\Community\VC\Tools\MSVC\14.44.35207\include\xmemory
; File C:\Program Files\Microsoft Visual Studio\2022\Community\VC\Tools\MSVC\14.44.35207\include\xstring
; File D:\_m2work\txoko-m2-work\txoko-client-src\source\UserInterface\PythonChatModule.cpp
; File C:\Program Files\Microsoft Visual Studio\2022\Community\VC\Tools\MSVC\14.44.35207\include\vector
; File D:\_m2work\txoko-m2-work\txoko-client-src\source\UserInterface\PythonChatModule.cpp
; File C:\Program Files\Microsoft Visual Studio\2022\Community\VC\Tools\MSVC\14.44.35207\include\xstring
; File D:\_m2work\txoko-m2-work\txoko-client-src\source\eterBase\Utils.h
; File C:\Program Files\Microsoft Visual Studio\2022\Community\VC\Tools\MSVC\14.44.35207\include\__msvc_string_view.hpp
; File D:\_m2work\txoko-m2-work\txoko-client-src\source\eterBase\Utils.h
; File D:\_m2work\txoko-m2-work\txoko-client-src\source\UserInterface\PythonChatModule.cpp
; File C:\Program Files\Microsoft Visual Studio\2022\Community\VC\Tools\MSVC\14.44.35207\include\vector
; File D:\_m2work\txoko-m2-work\txoko-client-src\source\UserInterface\PythonChatModule.cpp
; File C:\Program Files\Microsoft Visual Studio\2022\Community\VC\Tools\MSVC\14.44.35207\include\vector
; File C:\Program Files\Microsoft Visual Studio\2022\Community\VC\Tools\MSVC\14.44.35207\include\xstring
; File D:\_m2work\txoko-m2-work\txoko-client-src\source\eterBase\Utils.h
; File C:\Program Files\Microsoft Visual Studio\2022\Community\VC\Tools\MSVC\14.44.35207\include\__msvc_string_view.hpp
; File D:\_m2work\txoko-m2-work\txoko-client-src\source\eterBase\Utils.h
; File C:\Program Files\Microsoft Visual Studio\2022\Community\VC\Tools\MSVC\14.44.35207\include\vector
; File C:\Program Files\Microsoft Visual Studio\2022\Community\VC\Tools\MSVC\14.44.35207\include\xstring
; File D:\_m2work\txoko-m2-work\txoko-client-src\source\eterBase\Utils.h
; File C:\Program Files\Microsoft Visual Studio\2022\Community\VC\Tools\MSVC\14.44.35207\include\__msvc_string_view.hpp
; File D:\_m2work\txoko-m2-work\txoko-client-src\source\eterBase\Utils.h
; File C:\Program Files\Microsoft Visual Studio\2022\Community\VC\Tools\MSVC\14.44.35207\include\vector
; File C:\Program Files\Microsoft Visual Studio\2022\Community\VC\Tools\MSVC\14.44.35207\include\xstring
; File D:\_m2work\txoko-m2-work\txoko-client-src\source\eterBase\Utils.h
; File C:\Program Files\Microsoft Visual Studio\2022\Community\VC\Tools\MSVC\14.44.35207\include\__msvc_string_view.hpp
; File D:\_m2work\txoko-m2-work\txoko-client-src\source\eterBase\Utils.h
; File C:\Program Files\Microsoft Visual Studio\2022\Community\VC\Tools\MSVC\14.44.35207\include\vector
; File C:\Program Files\Microsoft Visual Studio\2022\Community\VC\Tools\MSVC\14.44.35207\include\xstring
; File D:\_m2work\txoko-m2-work\txoko-client-src\source\eterBase\Utils.h
; File C:\Program Files\Microsoft Visual Studio\2022\Community\VC\Tools\MSVC\14.44.35207\include\__msvc_string_view.hpp
; File D:\_m2work\txoko-m2-work\txoko-client-src\source\eterBase\Utils.h
; File C:\Program Files\Microsoft Visual Studio\2022\Community\VC\Tools\MSVC\14.44.35207\include\vector
; File C:\Program Files\Microsoft Visual Studio\2022\Community\VC\Tools\MSVC\14.44.35207\include\xstring
; File D:\_m2work\txoko-m2-work\txoko-client-src\source\eterBase\Utils.h
; File C:\Program Files\Microsoft Visual Studio\2022\Community\VC\Tools\MSVC\14.44.35207\include\__msvc_string_view.hpp
; File D:\_m2work\txoko-m2-work\txoko-client-src\source\eterBase\Utils.h
; File D:\_m2work\txoko-m2-work\txoko-client-src\source\UserInterface\PythonChatModule.cpp
; File C:\Program Files\Microsoft Visual Studio\2022\Community\VC\Tools\MSVC\14.44.35207\include\vector
; File D:\_m2work\txoko-m2-work\txoko-client-src\source\UserInterface\PythonChatModule.cpp
; File C:\Program Files\Microsoft Visual Studio\2022\Community\VC\Tools\MSVC\14.44.35207\include\vector
; File D:\_m2work\txoko-m2-work\txoko-client-src\source\UserInterface\PythonChatModule.cpp
; File C:\Program Files\Microsoft Visual Studio\2022\Community\VC\Tools\MSVC\14.44.35207\include\vector
; File C:\Program Files\Microsoft Visual Studio\2022\Community\VC\Tools\MSVC\14.44.35207\include\xstring
; File D:\_m2work\txoko-m2-work\txoko-client-src\source\UserInterface\PythonChatModule.cpp
; File C:\Program Files\Microsoft Visual Studio\2022\Community\VC\Tools\MSVC\14.44.35207\include\vector
; File D:\_m2work\txoko-m2-work\txoko-client-src\source\UserInterface\PythonChatModule.cpp
; File C:\Program Files\Microsoft Visual Studio\2022\Community\VC\Tools\MSVC\14.44.35207\include\xstring
; File D:\_m2work\txoko-m2-work\txoko-client-src\source\eterBase\Utils.h
; File C:\Program Files\Microsoft Visual Studio\2022\Community\VC\Tools\MSVC\14.44.35207\include\__msvc_string_view.hpp
; File D:\_m2work\txoko-m2-work\txoko-client-src\source\eterBase\Utils.h
; File D:\_m2work\txoko-m2-work\txoko-client-src\source\UserInterface\PythonChatModule.cpp
; File C:\Program Files\Microsoft Visual Studio\2022\Community\VC\Tools\MSVC\14.44.35207\include\vector
; File D:\_m2work\txoko-m2-work\txoko-client-src\source\UserInterface\PythonChatModule.cpp
; File C:\Program Files\Microsoft Visual Studio\2022\Community\VC\Tools\MSVC\14.44.35207\include\vector
; File D:\_m2work\txoko-m2-work\txoko-client-src\source\UserInterface\PythonChatModule.cpp
; File C:\Program Files\Microsoft Visual Studio\2022\Community\VC\Tools\MSVC\14.44.35207\include\vector
; File D:\_m2work\txoko-m2-work\txoko-client-src\source\UserInterface\PythonChatModule.cpp
; File C:\Program Files\Microsoft Visual Studio\2022\Community\VC\Tools\MSVC\14.44.35207\include\vector
; File D:\_m2work\txoko-m2-work\txoko-client-src\source\UserInterface\PythonChatModule.cpp
; File C:\Program Files\Microsoft Visual Studio\2022\Community\VC\Tools\MSVC\14.44.35207\include\vector
; File D:\_m2work\txoko-m2-work\txoko-client-src\source\UserInterface\PythonChatModule.cpp
; File C:\Program Files\Microsoft Visual Studio\2022\Community\VC\Tools\MSVC\14.44.35207\include\vector
; File C:\Program Files\Microsoft Visual Studio\2022\Community\VC\Tools\MSVC\14.44.35207\include\xstring
; File D:\_m2work\txoko-m2-work\txoko-client-src\source\UserInterface\PythonChatModule.cpp
; File C:\Program Files\Microsoft Visual Studio\2022\Community\VC\Tools\MSVC\14.44.35207\include\xmemory
; File D:\_m2work\txoko-m2-work\txoko-client-src\source\UserInterface\PythonChatModule.cpp
;	COMDAT ?chatGetLinkFromHyperlink@@YAPAU_object@@PAU1@0@Z
_TEXT	SEGMENT
tv2150 = -1388						; size = 4
_szHyperlink$ = -1384					; size = 4
_pItemData$2 = -1380					; size = 4
_results$ = -1376					; size = 12
$T3 = -1364						; size = 4
_i$1$ = -1364						; size = 4
tv2200 = -1364						; size = 4
_y$1$ = -1360						; size = 4
__Result$1$ = -1360					; size = 4
tv2149 = -1360						; size = 4
tv2189 = -1356						; size = 4
tv2181 = -1356						; size = 4
tv2226 = -1356						; size = 4
tv2223 = -1356						; size = 4
tv2221 = -1356						; size = 4
tv2184 = -1356						; size = 4
_y$1$ = -1352						; size = 4
tv2169 = -1352						; size = 4
$T4 = -1352						; size = 4
tv2207 = -1352						; size = 4
tv2212 = -1352						; size = 4
_len$1$ = -1352						; size = 4
tv2159 = -1348						; size = 4
tv2199 = -1348						; size = 4
tv2178 = -1348						; size = 4
_y$1$ = -1348						; size = 4
__Result$1$ = -1348					; size = 4
_y$1$ = -1348						; size = 4
_stHyperlink$ = -1344					; size = 24
$T5 = -1320						; size = 24
_buf$6 = -1296						; size = 1024
_itemlink$7 = -272					; size = 256
__$ArrayPad$ = -16					; size = 4
__$EHRec$ = -12						; size = 12
_poSelf$ = 8						; size = 4
_poArgs$ = 12						; size = 4
?chatGetLinkFromHyperlink@@YAPAU_object@@PAU1@0@Z PROC	; chatGetLinkFromHyperlink, COMDAT

; 394  : {

  00000	55		 push	 ebp
  00001	8b ec		 mov	 ebp, esp
  00003	6a ff		 push	 -1
  00005	68 00 00 00 00	 push	 __ehhandler$?chatGetLinkFromHyperlink@@YAPAU_object@@PAU1@0@Z
  0000a	64 a1 00 00 00
	00		 mov	 eax, DWORD PTR fs:0
  00010	50		 push	 eax
  00011	81 ec 60 05 00
	00		 sub	 esp, 1376		; 00000560H
  00017	a1 00 00 00 00	 mov	 eax, DWORD PTR ___security_cookie
  0001c	33 c5		 xor	 eax, ebp
  0001e	89 45 f0	 mov	 DWORD PTR __$ArrayPad$[ebp], eax
  00021	56		 push	 esi
  00022	57		 push	 edi
  00023	50		 push	 eax
  00024	8d 45 f4	 lea	 eax, DWORD PTR __$EHRec$[ebp]
  00027	64 a3 00 00 00
	00		 mov	 DWORD PTR fs:0, eax
  0002d	8b 45 0c	 mov	 eax, DWORD PTR _poArgs$[ebp]

; 395  : 	char * szHyperlink;
; 396  : 	
; 397  : 	if (!PyTuple_GetString(poArgs, 0, &szHyperlink))

  00030	8d 8d 98 fa ff
	ff		 lea	 ecx, DWORD PTR _szHyperlink$[ebp]
  00036	51		 push	 ecx
  00037	6a 00		 push	 0
  00039	50		 push	 eax
  0003a	e8 00 00 00 00	 call	 ?PyTuple_GetString@@YA_NPAU_object@@HPAPAD@Z ; PyTuple_GetString
  0003f	83 c4 0c	 add	 esp, 12			; 0000000cH
  00042	84 c0		 test	 al, al
  00044	75 0f		 jne	 SHORT $LN5@chatGetLin

; 398  : 		return Py_BuildException();

  00046	6a 00		 push	 0
  00048	e8 00 00 00 00	 call	 ?Py_BuildException@@YAPAU_object@@PBDZZ ; Py_BuildException
  0004d	83 c4 04	 add	 esp, 4
  00050	e9 08 07 00 00	 jmp	 $LN1@chatGetLin
$LN5@chatGetLin:
; File C:\Program Files\Microsoft Visual Studio\2022\Community\VC\Tools\MSVC\14.44.35207\include\__msvc_string_view.hpp

; 456  :             return __builtin_strlen(_First);

  00055	8b 95 98 fa ff
	ff		 mov	 edx, DWORD PTR _szHyperlink$[ebp]
  0005b	0f 57 c0	 xorps	 xmm0, xmm0
  0005e	8b ca		 mov	 ecx, edx
; File C:\Program Files\Microsoft Visual Studio\2022\Community\VC\Tools\MSVC\14.44.35207\include\xstring

; 517  :     size_type _Mysize = 0; // current length of string (size)

  00060	c7 85 d0 fa ff
	ff 00 00 00 00	 mov	 DWORD PTR _stHyperlink$[ebp+16], 0

; 493  :         _CONSTEXPR20 _Bxty() noexcept : _Buf() {} // user-provided, for fancy pointers

  0006a	0f 11 85 c0 fa
	ff ff		 movups	 XMMWORD PTR _stHyperlink$[ebp], xmm0

; 518  :     size_type _Myres  = 0; // current storage reserved for string (capacity)

  00071	c7 85 d4 fa ff
	ff 00 00 00 00	 mov	 DWORD PTR _stHyperlink$[ebp+20], 0
; File C:\Program Files\Microsoft Visual Studio\2022\Community\VC\Tools\MSVC\14.44.35207\include\__msvc_string_view.hpp

; 456  :             return __builtin_strlen(_First);

  0007b	8d 71 01	 lea	 esi, DWORD PTR [ecx+1]
  0007e	66 90		 npad	 2
$LL490@chatGetLin:
  00080	8a 01		 mov	 al, BYTE PTR [ecx]
  00082	41		 inc	 ecx
  00083	84 c0		 test	 al, al
  00085	75 f9		 jne	 SHORT $LL490@chatGetLin
  00087	2b ce		 sub	 ecx, esi
; File C:\Program Files\Microsoft Visual Studio\2022\Community\VC\Tools\MSVC\14.44.35207\include\xstring

; 769  :         _Construct<_Construct_strategy::_From_ptr>(_Ptr, _Convert_size<size_type>(_Traits::length(_Ptr)));

  00089	51		 push	 ecx
  0008a	52		 push	 edx
  0008b	8d 8d c0 fa ff
	ff		 lea	 ecx, DWORD PTR _stHyperlink$[ebp]
  00091	e8 00 00 00 00	 call	 ??$_Construct@$00PBD@?$basic_string@DU?$char_traits@D@std@@V?$allocator@D@2@@std@@AAEXQBDI@Z ; std::basic_string<char,std::char_traits<char>,std::allocator<char> >::_Construct<1,char const *>
; File D:\_m2work\txoko-m2-work\txoko-client-src\source\UserInterface\PythonChatModule.cpp

; 400  : 	std::string stHyperlink(szHyperlink);

  00096	c7 45 fc 00 00
	00 00		 mov	 DWORD PTR __$EHRec$[ebp+8], 0
; File C:\Program Files\Microsoft Visual Studio\2022\Community\VC\Tools\MSVC\14.44.35207\include\vector

; 400  :     _CONSTEXPR20 _Vector_val() noexcept : _Myfirst(), _Mylast(), _Myend() {}

  0009d	c7 85 a0 fa ff
	ff 00 00 00 00	 mov	 DWORD PTR _results$[ebp], 0
  000a7	c7 85 a4 fa ff
	ff 00 00 00 00	 mov	 DWORD PTR _results$[ebp+4], 0
  000b1	c7 85 a8 fa ff
	ff 00 00 00 00	 mov	 DWORD PTR _results$[ebp+8], 0
; File D:\_m2work\txoko-m2-work\txoko-client-src\source\UserInterface\PythonChatModule.cpp

; 401  : 	std::vector<std::string> results;

  000bb	0f 57 c0	 xorps	 xmm0, xmm0
; File C:\Program Files\Microsoft Visual Studio\2022\Community\VC\Tools\MSVC\14.44.35207\include\xstring

; 890  :             _My_data._Mysize = _Count;

  000be	c7 85 e8 fa ff
	ff 01 00 00 00	 mov	 DWORD PTR $T5[ebp+16], 1

; 493  :         _CONSTEXPR20 _Bxty() noexcept : _Buf() {} // user-provided, for fancy pointers

  000c8	0f 11 85 d8 fa
	ff ff		 movups	 XMMWORD PTR $T5[ebp], xmm0

; 891  :             _My_data._Myres  = _Small_string_capacity;

  000cf	c7 85 ec fa ff
	ff 0f 00 00 00	 mov	 DWORD PTR $T5[ebp+20], 15 ; 0000000fH
; File C:\Program Files\Microsoft Visual Studio\2022\Community\VC\Tools\MSVC\14.44.35207\include\__msvc_string_view.hpp

; 121  :         _CSTD memcpy(_First1, _First2, _Count * sizeof(_Elem));

  000d9	66 c7 85 d8 fa
	ff ff 3a 00	 mov	 WORD PTR $T5[ebp], 58	; 0000003aH
; File D:\_m2work\txoko-m2-work\txoko-client-src\source\UserInterface\PythonChatModule.cpp

; 403  : 	split_string(stHyperlink, ":", results, false);

  000e2	6a 00		 push	 0
  000e4	8d 85 a0 fa ff
	ff		 lea	 eax, DWORD PTR _results$[ebp]
  000ea	c6 45 fc 02	 mov	 BYTE PTR __$EHRec$[ebp+8], 2
  000ee	50		 push	 eax
  000ef	8d 85 d8 fa ff
	ff		 lea	 eax, DWORD PTR $T5[ebp]
  000f5	50		 push	 eax
  000f6	8d 85 c0 fa ff
	ff		 lea	 eax, DWORD PTR _stHyperlink$[ebp]
  000fc	50		 push	 eax
  000fd	e8 00 00 00 00	 call	 ?split_string@@YAHABV?$basic_string@DU?$char_traits@D@std@@V?$allocator@D@2@@std@@0AAV?$vector@V?$basic_string@DU?$char_traits@D@std@@V?$allocator@D@2@@std@@V?$allocator@V?$basic_string@DU?$char_traits@D@std@@V?$allocator@D@2@@std@@@2@@2@_N@Z ; split_string
  00102	c6 45 fc 01	 mov	 BYTE PTR __$EHRec$[ebp+8], 1
  00106	83 c4 10	 add	 esp, 16			; 00000010H
; File C:\Program Files\Microsoft Visual Studio\2022\Community\VC\Tools\MSVC\14.44.35207\include\xstring

; 453  :         return _Myres > _Small_string_capacity;

  00109	8b 8d ec fa ff
	ff		 mov	 ecx, DWORD PTR $T5[ebp+20]
  0010f	83 f9 0f	 cmp	 ecx, 15			; 0000000fH

; 3083 :         if (_My_data._Large_mode_engaged()) {

  00112	76 2f		 jbe	 SHORT $LN139@chatGetLin
; File C:\Program Files\Microsoft Visual Studio\2022\Community\VC\Tools\MSVC\14.44.35207\include\xmemory

; 985  :         _STD _Deallocate<_New_alignof<_Ty>>(_Ptr, sizeof(_Ty) * _Count);

  00114	8b 95 d8 fa ff
	ff		 mov	 edx, DWORD PTR $T5[ebp]
; File C:\Program Files\Microsoft Visual Studio\2022\Community\VC\Tools\MSVC\14.44.35207\include\xstring

; 852  :         _Al.deallocate(_Old_ptr, _Capacity + 1); // +1 for null terminator

  0011a	41		 inc	 ecx
; File C:\Program Files\Microsoft Visual Studio\2022\Community\VC\Tools\MSVC\14.44.35207\include\xmemory

; 985  :         _STD _Deallocate<_New_alignof<_Ty>>(_Ptr, sizeof(_Ty) * _Count);

  0011b	8b c2		 mov	 eax, edx

; 284  :         if (_Bytes >= _Big_allocation_threshold) {

  0011d	81 f9 00 10 00
	00		 cmp	 ecx, 4096		; 00001000H
  00123	72 14		 jb	 SHORT $LN147@chatGetLin

; 205  :     const uintptr_t _Ptr_container   = _Ptr_user[-1];

  00125	8b 50 fc	 mov	 edx, DWORD PTR [eax-4]
  00128	83 c1 23	 add	 ecx, 35			; 00000023H
  0012b	2b c2		 sub	 eax, edx

; 219  :     _STL_VERIFY(_Back_shift >= _Min_back_shift && _Back_shift <= _Non_user_size, "invalid argument");

  0012d	83 c0 fc	 add	 eax, -4			; fffffffcH
  00130	83 f8 1f	 cmp	 eax, 31			; 0000001fH
  00133	0f 87 3f 06 00
	00		 ja	 $LN503@chatGetLin
$LN147@chatGetLin:

; 289  :         ::operator delete(_Ptr, _Bytes);

  00139	51		 push	 ecx
  0013a	52		 push	 edx
  0013b	e8 00 00 00 00	 call	 ??3@YAXPAXI@Z		; operator delete
  00140	83 c4 08	 add	 esp, 8
$LN139@chatGetLin:
; File C:\Program Files\Microsoft Visual Studio\2022\Community\VC\Tools\MSVC\14.44.35207\include\xstring

; 2912 :         return _Traits_compare<_Traits>(_Mypair._Myval2._Myptr(), _Mypair._Myval2._Mysize, _Ptr, _Traits::length(_Ptr));

  00143	8b 85 a0 fa ff
	ff		 mov	 eax, DWORD PTR _results$[ebp]

; 444  :         const value_type* _Result = _Bx._Buf;

  00149	8b f0		 mov	 esi, eax

; 453  :         return _Myres > _Small_string_capacity;

  0014b	83 7e 14 0f	 cmp	 DWORD PTR [esi+20], 15	; 0000000fH

; 2912 :         return _Traits_compare<_Traits>(_Mypair._Myval2._Myptr(), _Mypair._Myval2._Mysize, _Ptr, _Traits::length(_Ptr));

  0014f	8b 48 10	 mov	 ecx, DWORD PTR [eax+16]

; 445  :         if (_Large_mode_engaged()) {

  00152	76 02		 jbe	 SHORT $LN163@chatGetLin

; 446  :             _Result = _Unfancy(_Bx._Ptr);

  00154	8b 00		 mov	 eax, DWORD PTR [eax]
$LN163@chatGetLin:

; 2912 :         return _Traits_compare<_Traits>(_Mypair._Myval2._Myptr(), _Mypair._Myval2._Mysize, _Ptr, _Traits::length(_Ptr));

  00156	6a 04		 push	 4
  00158	68 00 00 00 00	 push	 OFFSET ??_C@_04NHONDGDE@item@
  0015d	51		 push	 ecx
  0015e	50		 push	 eax
  0015f	e8 00 00 00 00	 call	 ??$_Traits_compare@U?$char_traits@D@std@@@std@@YAHQBDI0I@Z ; std::_Traits_compare<std::char_traits<char> >
  00164	83 c4 10	 add	 esp, 16			; 00000010H
; File D:\_m2work\txoko-m2-work\txoko-client-src\source\UserInterface\PythonChatModule.cpp

; 406  : 	if (0 == results[0].compare("item"))

  00167	85 c0		 test	 eax, eax
  00169	0f 85 c1 05 00
	00		 jne	 $LN8@chatGetLin
; File C:\Program Files\Microsoft Visual Studio\2022\Community\VC\Tools\MSVC\14.44.35207\include\vector

; 1915 :         return static_cast<size_type>(_My_data._Mylast - _My_data._Myfirst);

  0016f	8b 85 a4 fa ff
	ff		 mov	 eax, DWORD PTR _results$[ebp+4]
  00175	2b c6		 sub	 eax, esi
  00177	c1 f8 03	 sar	 eax, 3
  0017a	69 c0 ab aa aa
	aa		 imul	 eax, eax, -1431655765
; File D:\_m2work\txoko-m2-work\txoko-client-src\source\UserInterface\PythonChatModule.cpp

; 408  : 		if (results.size() < 6)

  00180	83 f8 06	 cmp	 eax, 6
  00183	0f 82 a7 05 00
	00		 jb	 $LN8@chatGetLin

; 413  : 		if (CItemManager::Instance().GetItemDataPointer(htoi(results[1].c_str()), &pItemData))

  00189	83 c6 18	 add	 esi, 24			; 00000018H
  0018c	c7 85 9c fa ff
	ff 00 00 00 00	 mov	 DWORD PTR _pItemData$2[ebp], 0
; File C:\Program Files\Microsoft Visual Studio\2022\Community\VC\Tools\MSVC\14.44.35207\include\xstring

; 453  :         return _Myres > _Small_string_capacity;

  00196	83 7e 14 0f	 cmp	 DWORD PTR [esi+20], 15	; 0000000fH

; 445  :         if (_Large_mode_engaged()) {

  0019a	76 02		 jbe	 SHORT $LN218@chatGetLin

; 446  :             _Result = _Unfancy(_Bx._Ptr);

  0019c	8b 36		 mov	 esi, DWORD PTR [esi]
$LN218@chatGetLin:
; File D:\_m2work\txoko-m2-work\txoko-client-src\source\eterBase\Utils.h

; 194  :     s += strlen(s);

  0019e	8b d6		 mov	 edx, esi
  001a0	33 c9		 xor	 ecx, ecx
  001a2	8d 42 01	 lea	 eax, DWORD PTR [edx+1]
  001a5	8d 79 01	 lea	 edi, DWORD PTR [ecx+1]
  001a8	89 85 b8 fa ff
	ff		 mov	 DWORD PTR tv2169[ebp], eax
  001ae	66 90		 npad	 2
$LL491@chatGetLin:
  001b0	8a 02		 mov	 al, BYTE PTR [edx]
  001b2	42		 inc	 edx
  001b3	84 c0		 test	 al, al
  001b5	75 f9		 jne	 SHORT $LL491@chatGetLin
  001b7	2b 95 b8 fa ff
	ff		 sub	 edx, DWORD PTR tv2169[ebp]

; 195  : 
; 196  :     while (t <= --s)

  001bd	4a		 dec	 edx
  001be	03 d6		 add	 edx, esi
  001c0	3b f2		 cmp	 esi, edx
  001c2	77 4e		 ja	 SHORT $LN224@chatGetLin
$LL225@chatGetLin:

; 197  :     {
; 198  : 		if ('0' <= *s && *s <= '9')

  001c4	89 8d b8 fa ff
	ff		 mov	 DWORD PTR tv2207[ebp], ecx
  001ca	8a 0a		 mov	 cl, BYTE PTR [edx]
  001cc	8a c1		 mov	 al, cl
  001ce	2c 30		 sub	 al, 48			; 00000030H
  001d0	3c 09		 cmp	 al, 9
  001d2	77 08		 ja	 SHORT $LN227@chatGetLin

; 199  :             x += y * (*s - '0');

  001d4	0f be c1	 movsx	 eax, cl
  001d7	83 e8 30	 sub	 eax, 48			; 00000030H
  001da	eb 1e		 jmp	 SHORT $LN232@chatGetLin
$LN227@chatGetLin:

; 200  :         else if ('a' <= *s && *s <= 'f')

  001dc	8a c1		 mov	 al, cl
  001de	2c 61		 sub	 al, 97			; 00000061H
  001e0	3c 05		 cmp	 al, 5
  001e2	77 08		 ja	 SHORT $LN229@chatGetLin

; 201  :             x += y * (*s - 'a' + 10);

  001e4	0f be c1	 movsx	 eax, cl
  001e7	83 e8 57	 sub	 eax, 87			; 00000057H
  001ea	eb 0e		 jmp	 SHORT $LN232@chatGetLin
$LN229@chatGetLin:

; 202  :         else if ('A' <= *s && *s <= 'F')

  001ec	8a c1		 mov	 al, cl
  001ee	2c 41		 sub	 al, 65			; 00000041H
  001f0	3c 05		 cmp	 al, 5
  001f2	77 1b		 ja	 SHORT $LN231@chatGetLin

; 203  :             x += y * (10 + *s - 'A');

  001f4	0f be c1	 movsx	 eax, cl
  001f7	83 e8 37	 sub	 eax, 55			; 00000037H
$LN232@chatGetLin:

; 206  :         y <<= 4;

  001fa	8b cf		 mov	 ecx, edi
  001fc	4a		 dec	 edx
  001fd	0f af c8	 imul	 ecx, eax
  00200	c1 e7 04	 shl	 edi, 4
  00203	03 8d b8 fa ff
	ff		 add	 ecx, DWORD PTR tv2207[ebp]
  00209	3b f2		 cmp	 esi, edx
  0020b	76 b7		 jbe	 SHORT $LL225@chatGetLin
; File C:\Program Files\Microsoft Visual Studio\2022\Community\VC\Tools\MSVC\14.44.35207\include\__msvc_string_view.hpp

; 113  :             for (size_t _Idx = 0; _Idx != _Count; ++_Idx) {

  0020d	eb 03		 jmp	 SHORT $LN224@chatGetLin
$LN231@chatGetLin:
; File D:\_m2work\txoko-m2-work\txoko-client-src\source\eterBase\Utils.h

; 205  :             return -1; /* invalid input! */

  0020f	83 c9 ff	 or	 ecx, -1
$LN224@chatGetLin:
; File D:\_m2work\txoko-m2-work\txoko-client-src\source\UserInterface\PythonChatModule.cpp

; 413  : 		if (CItemManager::Instance().GetItemDataPointer(htoi(results[1].c_str()), &pItemData))

  00212	8d 85 9c fa ff
	ff		 lea	 eax, DWORD PTR _pItemData$2[ebp]
  00218	50		 push	 eax
  00219	51		 push	 ecx
  0021a	8b 0d 00 00 00
	00		 mov	 ecx, DWORD PTR ?ms_singleton@?$CSingleton@VCItemManager@@@@0PAVCItemManager@@A ; CSingleton<CItemManager>::ms_singleton
  00220	e8 00 00 00 00	 call	 ?GetItemDataPointer@CItemManager@@QAEHKPAPAVCItemData@@@Z ; CItemManager::GetItemDataPointer
  00225	85 c0		 test	 eax, eax
  00227	0f 84 03 05 00
	00		 je	 $LN8@chatGetLin

; 415  : 			char buf[1024] = { 0 };

  0022d	68 00 04 00 00	 push	 1024			; 00000400H
  00232	8d 85 f0 fa ff
	ff		 lea	 eax, DWORD PTR _buf$6[ebp]
  00238	6a 00		 push	 0
  0023a	50		 push	 eax
  0023b	e8 00 00 00 00	 call	 _memset
; File C:\Program Files\Microsoft Visual Studio\2022\Community\VC\Tools\MSVC\14.44.35207\include\vector

; 1934 :         return _My_data._Myfirst[_Pos];

  00240	8b bd a0 fa ff
	ff		 mov	 edi, DWORD PTR _results$[ebp]
; File D:\_m2work\txoko-m2-work\txoko-client-src\source\UserInterface\PythonChatModule.cpp

; 415  : 			char buf[1024] = { 0 };

  00246	83 c4 0c	 add	 esp, 12			; 0000000cH
; File C:\Program Files\Microsoft Visual Studio\2022\Community\VC\Tools\MSVC\14.44.35207\include\vector

; 1934 :         return _My_data._Myfirst[_Pos];

  00249	83 c7 78	 add	 edi, 120		; 00000078H
; File C:\Program Files\Microsoft Visual Studio\2022\Community\VC\Tools\MSVC\14.44.35207\include\xstring

; 453  :         return _Myres > _Small_string_capacity;

  0024c	83 7f 14 0f	 cmp	 DWORD PTR [edi+20], 15	; 0000000fH

; 445  :         if (_Large_mode_engaged()) {

  00250	76 02		 jbe	 SHORT $LN241@chatGetLin

; 446  :             _Result = _Unfancy(_Bx._Ptr);

  00252	8b 3f		 mov	 edi, DWORD PTR [edi]
$LN241@chatGetLin:
; File D:\_m2work\txoko-m2-work\txoko-client-src\source\eterBase\Utils.h

; 194  :     s += strlen(s);

  00254	8b cf		 mov	 ecx, edi
  00256	c7 85 b8 fa ff
	ff 01 00 00 00	 mov	 DWORD PTR _y$1$[ebp], 1
  00260	33 f6		 xor	 esi, esi
  00262	89 b5 ac fa ff
	ff		 mov	 DWORD PTR $T3[ebp], esi
  00268	8d 51 01	 lea	 edx, DWORD PTR [ecx+1]
  0026b	0f 1f 44 00 00	 npad	 5
$LL492@chatGetLin:
  00270	8a 01		 mov	 al, BYTE PTR [ecx]
  00272	41		 inc	 ecx
  00273	84 c0		 test	 al, al
  00275	75 f9		 jne	 SHORT $LL492@chatGetLin
  00277	2b ca		 sub	 ecx, edx

; 195  : 
; 196  :     while (t <= --s)

  00279	8d 51 ff	 lea	 edx, DWORD PTR [ecx-1]
  0027c	03 d7		 add	 edx, edi
  0027e	3b fa		 cmp	 edi, edx
  00280	77 67		 ja	 SHORT $LN247@chatGetLin
$LL248@chatGetLin:

; 197  :     {
; 198  : 		if ('0' <= *s && *s <= '9')

  00282	8a 0a		 mov	 cl, BYTE PTR [edx]
  00284	8a c1		 mov	 al, cl
  00286	89 b5 ac fa ff
	ff		 mov	 DWORD PTR tv2200[ebp], esi
  0028c	2c 30		 sub	 al, 48			; 00000030H
  0028e	3c 09		 cmp	 al, 9
  00290	77 08		 ja	 SHORT $LN250@chatGetLin

; 199  :             x += y * (*s - '0');

  00292	0f be c1	 movsx	 eax, cl
  00295	83 e8 30	 sub	 eax, 48			; 00000030H
  00298	eb 1e		 jmp	 SHORT $LN255@chatGetLin
$LN250@chatGetLin:

; 200  :         else if ('a' <= *s && *s <= 'f')

  0029a	8a c1		 mov	 al, cl
  0029c	2c 61		 sub	 al, 97			; 00000061H
  0029e	3c 05		 cmp	 al, 5
  002a0	77 08		 ja	 SHORT $LN252@chatGetLin

; 201  :             x += y * (*s - 'a' + 10);

  002a2	0f be c1	 movsx	 eax, cl
  002a5	83 e8 57	 sub	 eax, 87			; 00000057H
  002a8	eb 0e		 jmp	 SHORT $LN255@chatGetLin
$LN252@chatGetLin:

; 202  :         else if ('A' <= *s && *s <= 'F')

  002aa	8a c1		 mov	 al, cl
  002ac	2c 41		 sub	 al, 65			; 00000041H
  002ae	3c 05		 cmp	 al, 5
  002b0	77 2d		 ja	 SHORT $LN254@chatGetLin

; 203  :             x += y * (10 + *s - 'A');

  002b2	0f be c1	 movsx	 eax, cl
  002b5	83 e8 37	 sub	 eax, 55			; 00000037H
$LN255@chatGetLin:

; 206  :         y <<= 4;

  002b8	8b 8d b8 fa ff
	ff		 mov	 ecx, DWORD PTR _y$1$[ebp]
  002be	4a		 dec	 edx
  002bf	8b f1		 mov	 esi, ecx
  002c1	c1 e1 04	 shl	 ecx, 4
  002c4	0f af f0	 imul	 esi, eax
  002c7	89 8d b8 fa ff
	ff		 mov	 DWORD PTR _y$1$[ebp], ecx
  002cd	03 b5 ac fa ff
	ff		 add	 esi, DWORD PTR tv2200[ebp]
  002d3	3b fa		 cmp	 edi, edx
  002d5	76 ab		 jbe	 SHORT $LL248@chatGetLin
; File C:\Program Files\Microsoft Visual Studio\2022\Community\VC\Tools\MSVC\14.44.35207\include\__msvc_string_view.hpp

; 113  :             for (size_t _Idx = 0; _Idx != _Count; ++_Idx) {

  002d7	89 b5 ac fa ff
	ff		 mov	 DWORD PTR $T3[ebp], esi
  002dd	eb 0a		 jmp	 SHORT $LN247@chatGetLin
$LN254@chatGetLin:
; File D:\_m2work\txoko-m2-work\txoko-client-src\source\eterBase\Utils.h

; 205  :             return -1; /* invalid input! */

  002df	c7 85 ac fa ff
	ff ff ff ff ff	 mov	 DWORD PTR $T3[ebp], -1
$LN247@chatGetLin:
; File C:\Program Files\Microsoft Visual Studio\2022\Community\VC\Tools\MSVC\14.44.35207\include\vector

; 1934 :         return _My_data._Myfirst[_Pos];

  002e9	8b bd a0 fa ff
	ff		 mov	 edi, DWORD PTR _results$[ebp]
  002ef	83 c7 60	 add	 edi, 96			; 00000060H
; File C:\Program Files\Microsoft Visual Studio\2022\Community\VC\Tools\MSVC\14.44.35207\include\xstring

; 453  :         return _Myres > _Small_string_capacity;

  002f2	83 7f 14 0f	 cmp	 DWORD PTR [edi+20], 15	; 0000000fH

; 445  :         if (_Large_mode_engaged()) {

  002f6	76 02		 jbe	 SHORT $LN346@chatGetLin

; 446  :             _Result = _Unfancy(_Bx._Ptr);

  002f8	8b 3f		 mov	 edi, DWORD PTR [edi]
$LN346@chatGetLin:
; File D:\_m2work\txoko-m2-work\txoko-client-src\source\eterBase\Utils.h

; 194  :     s += strlen(s);

  002fa	8b cf		 mov	 ecx, edi
  002fc	c7 85 bc fa ff
	ff 01 00 00 00	 mov	 DWORD PTR _y$1$[ebp], 1
  00306	33 f6		 xor	 esi, esi
  00308	89 b5 b8 fa ff
	ff		 mov	 DWORD PTR $T4[ebp], esi
  0030e	8d 51 01	 lea	 edx, DWORD PTR [ecx+1]
$LL493@chatGetLin:
  00311	8a 01		 mov	 al, BYTE PTR [ecx]
  00313	41		 inc	 ecx
  00314	84 c0		 test	 al, al
  00316	75 f9		 jne	 SHORT $LL493@chatGetLin
  00318	2b ca		 sub	 ecx, edx

; 195  : 
; 196  :     while (t <= --s)

  0031a	8d 51 ff	 lea	 edx, DWORD PTR [ecx-1]
  0031d	03 d7		 add	 edx, edi
  0031f	3b fa		 cmp	 edi, edx
  00321	77 67		 ja	 SHORT $LN332@chatGetLin
$LL333@chatGetLin:

; 197  :     {
; 198  : 		if ('0' <= *s && *s <= '9')

  00323	8a 0a		 mov	 cl, BYTE PTR [edx]
  00325	8a c1		 mov	 al, cl
  00327	89 b5 b8 fa ff
	ff		 mov	 DWORD PTR tv2212[ebp], esi
  0032d	2c 30		 sub	 al, 48			; 00000030H
  0032f	3c 09		 cmp	 al, 9
  00331	77 08		 ja	 SHORT $LN335@chatGetLin

; 199  :             x += y * (*s - '0');

  00333	0f be c1	 movsx	 eax, cl
  00336	83 e8 30	 sub	 eax, 48			; 00000030H
  00339	eb 1e		 jmp	 SHORT $LN340@chatGetLin
$LN335@chatGetLin:

; 200  :         else if ('a' <= *s && *s <= 'f')

  0033b	8a c1		 mov	 al, cl
  0033d	2c 61		 sub	 al, 97			; 00000061H
  0033f	3c 05		 cmp	 al, 5
  00341	77 08		 ja	 SHORT $LN337@chatGetLin

; 201  :             x += y * (*s - 'a' + 10);

  00343	0f be c1	 movsx	 eax, cl
  00346	83 e8 57	 sub	 eax, 87			; 00000057H
  00349	eb 0e		 jmp	 SHORT $LN340@chatGetLin
$LN337@chatGetLin:

; 202  :         else if ('A' <= *s && *s <= 'F')

  0034b	8a c1		 mov	 al, cl
  0034d	2c 41		 sub	 al, 65			; 00000041H
  0034f	3c 05		 cmp	 al, 5
  00351	77 2d		 ja	 SHORT $LN339@chatGetLin

; 203  :             x += y * (10 + *s - 'A');

  00353	0f be c1	 movsx	 eax, cl
  00356	83 e8 37	 sub	 eax, 55			; 00000037H
$LN340@chatGetLin:

; 206  :         y <<= 4;

  00359	8b 8d bc fa ff
	ff		 mov	 ecx, DWORD PTR _y$1$[ebp]
  0035f	4a		 dec	 edx
  00360	8b f1		 mov	 esi, ecx
  00362	c1 e1 04	 shl	 ecx, 4
  00365	0f af f0	 imul	 esi, eax
  00368	89 8d bc fa ff
	ff		 mov	 DWORD PTR _y$1$[ebp], ecx
  0036e	03 b5 b8 fa ff
	ff		 add	 esi, DWORD PTR tv2212[ebp]
  00374	3b fa		 cmp	 edi, edx
  00376	76 ab		 jbe	 SHORT $LL333@chatGetLin
; File C:\Program Files\Microsoft Visual Studio\2022\Community\VC\Tools\MSVC\14.44.35207\include\__msvc_string_view.hpp

; 113  :             for (size_t _Idx = 0; _Idx != _Count; ++_Idx) {

  00378	89 b5 b8 fa ff
	ff		 mov	 DWORD PTR $T4[ebp], esi
  0037e	eb 0a		 jmp	 SHORT $LN332@chatGetLin
$LN339@chatGetLin:
; File D:\_m2work\txoko-m2-work\txoko-client-src\source\eterBase\Utils.h

; 205  :             return -1; /* invalid input! */

  00380	c7 85 b8 fa ff
	ff ff ff ff ff	 mov	 DWORD PTR $T4[ebp], -1
$LN332@chatGetLin:
; File C:\Program Files\Microsoft Visual Studio\2022\Community\VC\Tools\MSVC\14.44.35207\include\vector

; 1934 :         return _My_data._Myfirst[_Pos];

  0038a	8b b5 a0 fa ff
	ff		 mov	 esi, DWORD PTR _results$[ebp]
  00390	83 c6 48	 add	 esi, 72			; 00000048H
; File C:\Program Files\Microsoft Visual Studio\2022\Community\VC\Tools\MSVC\14.44.35207\include\xstring

; 453  :         return _Myres > _Small_string_capacity;

  00393	83 7e 14 0f	 cmp	 DWORD PTR [esi+20], 15	; 0000000fH

; 445  :         if (_Large_mode_engaged()) {

  00397	76 02		 jbe	 SHORT $LN326@chatGetLin

; 446  :             _Result = _Unfancy(_Bx._Ptr);

  00399	8b 36		 mov	 esi, DWORD PTR [esi]
$LN326@chatGetLin:
; File D:\_m2work\txoko-m2-work\txoko-client-src\source\eterBase\Utils.h

; 194  :     s += strlen(s);

  0039b	8b d6		 mov	 edx, esi
  0039d	33 c9		 xor	 ecx, ecx
  0039f	8d 42 01	 lea	 eax, DWORD PTR [edx+1]
  003a2	8d 79 01	 lea	 edi, DWORD PTR [ecx+1]
  003a5	89 85 bc fa ff
	ff		 mov	 DWORD PTR tv2178[ebp], eax
  003ab	0f 1f 44 00 00	 npad	 5
$LL494@chatGetLin:
  003b0	8a 02		 mov	 al, BYTE PTR [edx]
  003b2	42		 inc	 edx
  003b3	84 c0		 test	 al, al
  003b5	75 f9		 jne	 SHORT $LL494@chatGetLin
  003b7	2b 95 bc fa ff
	ff		 sub	 edx, DWORD PTR tv2178[ebp]

; 195  : 
; 196  :     while (t <= --s)

  003bd	4a		 dec	 edx
  003be	03 d6		 add	 edx, esi
  003c0	3b f2		 cmp	 esi, edx
  003c2	77 4c		 ja	 SHORT $LN309@chatGetLin
$LL310@chatGetLin:

; 197  :     {
; 198  : 		if ('0' <= *s && *s <= '9')

  003c4	89 8d bc fa ff
	ff		 mov	 DWORD PTR tv2199[ebp], ecx
  003ca	8a 0a		 mov	 cl, BYTE PTR [edx]
  003cc	8a c1		 mov	 al, cl
  003ce	2c 30		 sub	 al, 48			; 00000030H
  003d0	3c 09		 cmp	 al, 9
  003d2	77 08		 ja	 SHORT $LN312@chatGetLin

; 199  :             x += y * (*s - '0');

  003d4	0f be c9	 movsx	 ecx, cl
  003d7	83 e9 30	 sub	 ecx, 48			; 00000030H
  003da	eb 1e		 jmp	 SHORT $LN317@chatGetLin
$LN312@chatGetLin:

; 200  :         else if ('a' <= *s && *s <= 'f')

  003dc	8a c1		 mov	 al, cl
  003de	2c 61		 sub	 al, 97			; 00000061H
  003e0	3c 05		 cmp	 al, 5
  003e2	77 08		 ja	 SHORT $LN314@chatGetLin

; 201  :             x += y * (*s - 'a' + 10);

  003e4	0f be c9	 movsx	 ecx, cl
  003e7	83 e9 57	 sub	 ecx, 87			; 00000057H
  003ea	eb 0e		 jmp	 SHORT $LN317@chatGetLin
$LN314@chatGetLin:

; 202  :         else if ('A' <= *s && *s <= 'F')

  003ec	8a c1		 mov	 al, cl
  003ee	2c 41		 sub	 al, 65			; 00000041H
  003f0	3c 05		 cmp	 al, 5
  003f2	77 19		 ja	 SHORT $LN316@chatGetLin

; 203  :             x += y * (10 + *s - 'A');

  003f4	0f be c9	 movsx	 ecx, cl
  003f7	83 e9 37	 sub	 ecx, 55			; 00000037H
$LN317@chatGetLin:

; 206  :         y <<= 4;

  003fa	0f af cf	 imul	 ecx, edi
  003fd	4a		 dec	 edx
  003fe	c1 e7 04	 shl	 edi, 4
  00401	03 8d bc fa ff
	ff		 add	 ecx, DWORD PTR tv2199[ebp]
  00407	3b f2		 cmp	 esi, edx
  00409	76 b9		 jbe	 SHORT $LL310@chatGetLin
; File C:\Program Files\Microsoft Visual Studio\2022\Community\VC\Tools\MSVC\14.44.35207\include\__msvc_string_view.hpp

; 113  :             for (size_t _Idx = 0; _Idx != _Count; ++_Idx) {

  0040b	eb 03		 jmp	 SHORT $LN309@chatGetLin
$LN316@chatGetLin:
; File D:\_m2work\txoko-m2-work\txoko-client-src\source\eterBase\Utils.h

; 205  :             return -1; /* invalid input! */

  0040d	83 c9 ff	 or	 ecx, -1
$LN309@chatGetLin:
; File C:\Program Files\Microsoft Visual Studio\2022\Community\VC\Tools\MSVC\14.44.35207\include\vector

; 1934 :         return _My_data._Myfirst[_Pos];

  00410	8b bd a0 fa ff
	ff		 mov	 edi, DWORD PTR _results$[ebp]
  00416	83 c7 30	 add	 edi, 48			; 00000030H
  00419	89 bd b0 fa ff
	ff		 mov	 DWORD PTR __Result$1$[ebp], edi
; File C:\Program Files\Microsoft Visual Studio\2022\Community\VC\Tools\MSVC\14.44.35207\include\xstring

; 453  :         return _Myres > _Small_string_capacity;

  0041f	83 7f 14 0f	 cmp	 DWORD PTR [edi+20], 15	; 0000000fH

; 445  :         if (_Large_mode_engaged()) {

  00423	76 08		 jbe	 SHORT $LN267@chatGetLin

; 446  :             _Result = _Unfancy(_Bx._Ptr);

  00425	8b 3f		 mov	 edi, DWORD PTR [edi]
  00427	89 bd b0 fa ff
	ff		 mov	 DWORD PTR __Result$1$[ebp], edi
$LN267@chatGetLin:
; File D:\_m2work\txoko-m2-work\txoko-client-src\source\eterBase\Utils.h

; 194  :     s += strlen(s);

  0042d	8b d7		 mov	 edx, edi
  0042f	c7 85 bc fa ff
	ff 01 00 00 00	 mov	 DWORD PTR _y$1$[ebp], 1
  00439	33 f6		 xor	 esi, esi
  0043b	8d 42 01	 lea	 eax, DWORD PTR [edx+1]
  0043e	89 85 b4 fa ff
	ff		 mov	 DWORD PTR tv2181[ebp], eax
$LL495@chatGetLin:
  00444	8a 02		 mov	 al, BYTE PTR [edx]
  00446	42		 inc	 edx
  00447	84 c0		 test	 al, al
  00449	75 f9		 jne	 SHORT $LL495@chatGetLin
  0044b	2b 95 b4 fa ff
	ff		 sub	 edx, DWORD PTR tv2181[ebp]

; 195  : 
; 196  :     while (t <= --s)

  00451	4f		 dec	 edi
  00452	03 fa		 add	 edi, edx
  00454	39 bd b0 fa ff
	ff		 cmp	 DWORD PTR __Result$1$[ebp], edi
  0045a	77 62		 ja	 SHORT $LN273@chatGetLin
  0045c	0f 1f 40 00	 npad	 4
$LL274@chatGetLin:

; 197  :     {
; 198  : 		if ('0' <= *s && *s <= '9')

  00460	8a 17		 mov	 dl, BYTE PTR [edi]
  00462	8a c2		 mov	 al, dl
  00464	89 b5 b4 fa ff
	ff		 mov	 DWORD PTR tv2221[ebp], esi
  0046a	2c 30		 sub	 al, 48			; 00000030H
  0046c	3c 09		 cmp	 al, 9
  0046e	77 08		 ja	 SHORT $LN276@chatGetLin

; 199  :             x += y * (*s - '0');

  00470	0f be c2	 movsx	 eax, dl
  00473	83 e8 30	 sub	 eax, 48			; 00000030H
  00476	eb 1e		 jmp	 SHORT $LN281@chatGetLin
$LN276@chatGetLin:

; 200  :         else if ('a' <= *s && *s <= 'f')

  00478	8a c2		 mov	 al, dl
  0047a	2c 61		 sub	 al, 97			; 00000061H
  0047c	3c 05		 cmp	 al, 5
  0047e	77 08		 ja	 SHORT $LN278@chatGetLin

; 201  :             x += y * (*s - 'a' + 10);

  00480	0f be c2	 movsx	 eax, dl
  00483	83 e8 57	 sub	 eax, 87			; 00000057H
  00486	eb 0e		 jmp	 SHORT $LN281@chatGetLin
$LN278@chatGetLin:

; 202  :         else if ('A' <= *s && *s <= 'F')

  00488	8a c2		 mov	 al, dl
  0048a	2c 41		 sub	 al, 65			; 00000041H
  0048c	3c 05		 cmp	 al, 5
  0048e	77 2b		 ja	 SHORT $LN280@chatGetLin

; 203  :             x += y * (10 + *s - 'A');

  00490	0f be c2	 movsx	 eax, dl
  00493	83 e8 37	 sub	 eax, 55			; 00000037H
$LN281@chatGetLin:

; 206  :         y <<= 4;

  00496	8b 95 bc fa ff
	ff		 mov	 edx, DWORD PTR _y$1$[ebp]
  0049c	4f		 dec	 edi
  0049d	8b f2		 mov	 esi, edx
  0049f	c1 e2 04	 shl	 edx, 4
  004a2	0f af f0	 imul	 esi, eax
  004a5	89 95 bc fa ff
	ff		 mov	 DWORD PTR _y$1$[ebp], edx
  004ab	03 b5 b4 fa ff
	ff		 add	 esi, DWORD PTR tv2221[ebp]
  004b1	39 bd b0 fa ff
	ff		 cmp	 DWORD PTR __Result$1$[ebp], edi
  004b7	76 a7		 jbe	 SHORT $LL274@chatGetLin
; File C:\Program Files\Microsoft Visual Studio\2022\Community\VC\Tools\MSVC\14.44.35207\include\__msvc_string_view.hpp

; 113  :             for (size_t _Idx = 0; _Idx != _Count; ++_Idx) {

  004b9	eb 03		 jmp	 SHORT $LN273@chatGetLin
$LN280@chatGetLin:
; File D:\_m2work\txoko-m2-work\txoko-client-src\source\eterBase\Utils.h

; 205  :             return -1; /* invalid input! */

  004bb	83 ce ff	 or	 esi, -1
$LN273@chatGetLin:
; File C:\Program Files\Microsoft Visual Studio\2022\Community\VC\Tools\MSVC\14.44.35207\include\vector

; 1934 :         return _My_data._Myfirst[_Pos];

  004be	8b 85 a0 fa ff
	ff		 mov	 eax, DWORD PTR _results$[ebp]
  004c4	83 c0 18	 add	 eax, 24			; 00000018H
  004c7	89 85 bc fa ff
	ff		 mov	 DWORD PTR __Result$1$[ebp], eax
; File C:\Program Files\Microsoft Visual Studio\2022\Community\VC\Tools\MSVC\14.44.35207\include\xstring

; 453  :         return _Myres > _Small_string_capacity;

  004cd	83 78 14 0f	 cmp	 DWORD PTR [eax+20], 15	; 0000000fH

; 445  :         if (_Large_mode_engaged()) {

  004d1	76 08		 jbe	 SHORT $LN290@chatGetLin

; 446  :             _Result = _Unfancy(_Bx._Ptr);

  004d3	8b 00		 mov	 eax, DWORD PTR [eax]
  004d5	89 85 bc fa ff
	ff		 mov	 DWORD PTR __Result$1$[ebp], eax
$LN290@chatGetLin:
; File D:\_m2work\txoko-m2-work\txoko-client-src\source\eterBase\Utils.h

; 194  :     s += strlen(s);

  004db	8b f8		 mov	 edi, eax
  004dd	c7 85 b0 fa ff
	ff 01 00 00 00	 mov	 DWORD PTR _y$1$[ebp], 1
  004e7	33 d2		 xor	 edx, edx
  004e9	8d 47 01	 lea	 eax, DWORD PTR [edi+1]
  004ec	89 85 b4 fa ff
	ff		 mov	 DWORD PTR tv2184[ebp], eax
$LL496@chatGetLin:
  004f2	8a 07		 mov	 al, BYTE PTR [edi]
  004f4	47		 inc	 edi
  004f5	84 c0		 test	 al, al
  004f7	75 f9		 jne	 SHORT $LL496@chatGetLin
  004f9	2b bd b4 fa ff
	ff		 sub	 edi, DWORD PTR tv2184[ebp]

; 195  : 
; 196  :     while (t <= --s)

  004ff	4f		 dec	 edi
  00500	03 bd bc fa ff
	ff		 add	 edi, DWORD PTR __Result$1$[ebp]
  00506	39 bd bc fa ff
	ff		 cmp	 DWORD PTR __Result$1$[ebp], edi
  0050c	77 5c		 ja	 SHORT $LN296@chatGetLin
  0050e	66 90		 npad	 2
$LL297@chatGetLin:

; 197  :     {
; 198  : 		if ('0' <= *s && *s <= '9')

  00510	89 95 b4 fa ff
	ff		 mov	 DWORD PTR tv2223[ebp], edx
  00516	8a 17		 mov	 dl, BYTE PTR [edi]
  00518	8a c2		 mov	 al, dl
  0051a	2c 30		 sub	 al, 48			; 00000030H
  0051c	3c 09		 cmp	 al, 9
  0051e	77 08		 ja	 SHORT $LN299@chatGetLin

; 199  :             x += y * (*s - '0');

  00520	0f be c2	 movsx	 eax, dl
  00523	83 e8 30	 sub	 eax, 48			; 00000030H
  00526	eb 1e		 jmp	 SHORT $LN304@chatGetLin
$LN299@chatGetLin:

; 200  :         else if ('a' <= *s && *s <= 'f')

  00528	8a c2		 mov	 al, dl
  0052a	2c 61		 sub	 al, 97			; 00000061H
  0052c	3c 05		 cmp	 al, 5
  0052e	77 08		 ja	 SHORT $LN301@chatGetLin

; 201  :             x += y * (*s - 'a' + 10);

  00530	0f be c2	 movsx	 eax, dl
  00533	83 e8 57	 sub	 eax, 87			; 00000057H
  00536	eb 0e		 jmp	 SHORT $LN304@chatGetLin
$LN301@chatGetLin:

; 202  :         else if ('A' <= *s && *s <= 'F')

  00538	8a c2		 mov	 al, dl
  0053a	2c 41		 sub	 al, 65			; 00000041H
  0053c	3c 05		 cmp	 al, 5
  0053e	77 27		 ja	 SHORT $LN303@chatGetLin

; 203  :             x += y * (10 + *s - 'A');

  00540	0f be c2	 movsx	 eax, dl
  00543	83 e8 37	 sub	 eax, 55			; 00000037H
$LN304@chatGetLin:

; 206  :         y <<= 4;

  00546	8b 95 b0 fa ff
	ff		 mov	 edx, DWORD PTR _y$1$[ebp]
  0054c	4f		 dec	 edi
  0054d	c1 a5 b0 fa ff
	ff 04		 shl	 DWORD PTR _y$1$[ebp], 4
  00554	0f af d0	 imul	 edx, eax
  00557	03 95 b4 fa ff
	ff		 add	 edx, DWORD PTR tv2223[ebp]
  0055d	39 bd bc fa ff
	ff		 cmp	 DWORD PTR __Result$1$[ebp], edi
  00563	76 ab		 jbe	 SHORT $LL297@chatGetLin
; File C:\Program Files\Microsoft Visual Studio\2022\Community\VC\Tools\MSVC\14.44.35207\include\__msvc_string_view.hpp

; 113  :             for (size_t _Idx = 0; _Idx != _Count; ++_Idx) {

  00565	eb 03		 jmp	 SHORT $LN296@chatGetLin
$LN303@chatGetLin:
; File D:\_m2work\txoko-m2-work\txoko-client-src\source\eterBase\Utils.h

; 205  :             return -1; /* invalid input! */

  00567	83 ca ff	 or	 edx, -1
$LN296@chatGetLin:
; File D:\_m2work\txoko-m2-work\txoko-client-src\source\UserInterface\PythonChatModule.cpp

; 420  : 			len = snprintf(itemlink, sizeof(itemlink), "item:%x:%x:%x:%x:%x", 

  0056a	ff b5 ac fa ff
	ff		 push	 DWORD PTR $T3[ebp]
  00570	8d 85 f0 fe ff
	ff		 lea	 eax, DWORD PTR _itemlink$7[ebp]
  00576	ff b5 b8 fa ff
	ff		 push	 DWORD PTR $T4[ebp]
  0057c	51		 push	 ecx
  0057d	56		 push	 esi
  0057e	52		 push	 edx
  0057f	68 00 00 00 00	 push	 OFFSET ??_C@_0BE@FGPADLIF@item?3?$CFx?3?$CFx?3?$CFx?3?$CFx?3?$CFx@
  00584	68 00 01 00 00	 push	 256			; 00000100H
  00589	50		 push	 eax
  0058a	e8 00 00 00 00	 call	 __snprintf
; File C:\Program Files\Microsoft Visual Studio\2022\Community\VC\Tools\MSVC\14.44.35207\include\vector

; 1915 :         return static_cast<size_type>(_My_data._Mylast - _My_data._Myfirst);

  0058f	8b 8d a4 fa ff
	ff		 mov	 ecx, DWORD PTR _results$[ebp+4]
; File D:\_m2work\txoko-m2-work\txoko-client-src\source\UserInterface\PythonChatModule.cpp

; 420  : 			len = snprintf(itemlink, sizeof(itemlink), "item:%x:%x:%x:%x:%x", 

  00595	83 c4 20	 add	 esp, 32			; 00000020H
; File C:\Program Files\Microsoft Visual Studio\2022\Community\VC\Tools\MSVC\14.44.35207\include\vector

; 1915 :         return static_cast<size_type>(_My_data._Mylast - _My_data._Myfirst);

  00598	8b 95 a0 fa ff
	ff		 mov	 edx, DWORD PTR _results$[ebp]
  0059e	2b ca		 sub	 ecx, edx
  005a0	c1 f9 03	 sar	 ecx, 3
  005a3	69 c9 ab aa aa
	aa		 imul	 ecx, ecx, -1431655765
; File D:\_m2work\txoko-m2-work\txoko-client-src\source\UserInterface\PythonChatModule.cpp

; 420  : 			len = snprintf(itemlink, sizeof(itemlink), "item:%x:%x:%x:%x:%x", 

  005a9	89 85 b8 fa ff
	ff		 mov	 DWORD PTR _len$1$[ebp], eax

; 421  : 					htoi(results[1].c_str()),
; 422  : 					htoi(results[2].c_str()),
; 423  : 					htoi(results[3].c_str()),
; 424  : 					htoi(results[4].c_str()),
; 425  : 					htoi(results[5].c_str()));
; 426  : 
; 427  : 			if (results.size() >= 8)

  005af	83 f9 08	 cmp	 ecx, 8
  005b2	0f 82 37 01 00
	00		 jb	 $LN10@chatGetLin

; 429  : 				for (int i = 6; i < results.size(); i += 2)

  005b8	be 90 00 00 00	 mov	 esi, 144		; 00000090H
  005bd	c7 85 ac fa ff
	ff 06 00 00 00	 mov	 DWORD PTR _i$1$[ebp], 6
  005c7	89 b5 bc fa ff
	ff		 mov	 DWORD PTR tv2159[ebp], esi
  005cd	0f 1f 00	 npad	 3
$LL4@chatGetLin:
; File C:\Program Files\Microsoft Visual Studio\2022\Community\VC\Tools\MSVC\14.44.35207\include\vector

; 1934 :         return _My_data._Myfirst[_Pos];

  005d0	8d 46 18	 lea	 eax, DWORD PTR [esi+24]
  005d3	03 c2		 add	 eax, edx
; File C:\Program Files\Microsoft Visual Studio\2022\Community\VC\Tools\MSVC\14.44.35207\include\xstring

; 453  :         return _Myres > _Small_string_capacity;

  005d5	83 78 14 0f	 cmp	 DWORD PTR [eax+20], 15	; 0000000fH

; 445  :         if (_Large_mode_engaged()) {

  005d9	76 02		 jbe	 SHORT $LN179@chatGetLin

; 446  :             _Result = _Unfancy(_Bx._Ptr);

  005db	8b 00		 mov	 eax, DWORD PTR [eax]
$LN179@chatGetLin:
; File D:\_m2work\txoko-m2-work\txoko-client-src\source\UserInterface\PythonChatModule.cpp

; 431  : 					len += snprintf(itemlink + len, sizeof(itemlink) - len, ":%x:%I64d", 

  005dd	50		 push	 eax
  005de	e8 00 00 00 00	 call	 __atoi64
; File C:\Program Files\Microsoft Visual Studio\2022\Community\VC\Tools\MSVC\14.44.35207\include\vector

; 1934 :         return _My_data._Myfirst[_Pos];

  005e3	03 b5 a0 fa ff
	ff		 add	 esi, DWORD PTR _results$[ebp]
; File D:\_m2work\txoko-m2-work\txoko-client-src\source\UserInterface\PythonChatModule.cpp

; 431  : 					len += snprintf(itemlink + len, sizeof(itemlink) - len, ":%x:%I64d", 

  005e9	83 c4 04	 add	 esp, 4
  005ec	89 85 94 fa ff
	ff		 mov	 DWORD PTR tv2150[ebp], eax
  005f2	89 95 b0 fa ff
	ff		 mov	 DWORD PTR tv2149[ebp], edx
; File C:\Program Files\Microsoft Visual Studio\2022\Community\VC\Tools\MSVC\14.44.35207\include\xstring

; 453  :         return _Myres > _Small_string_capacity;

  005f8	83 7e 14 0f	 cmp	 DWORD PTR [esi+20], 15	; 0000000fH

; 445  :         if (_Large_mode_engaged()) {

  005fc	76 02		 jbe	 SHORT $LN192@chatGetLin

; 446  :             _Result = _Unfancy(_Bx._Ptr);

  005fe	8b 36		 mov	 esi, DWORD PTR [esi]
$LN192@chatGetLin:
; File D:\_m2work\txoko-m2-work\txoko-client-src\source\eterBase\Utils.h

; 194  :     s += strlen(s);

  00600	8b d6		 mov	 edx, esi
  00602	33 c9		 xor	 ecx, ecx
  00604	8d 42 01	 lea	 eax, DWORD PTR [edx+1]
  00607	8d 79 01	 lea	 edi, DWORD PTR [ecx+1]
  0060a	89 85 b4 fa ff
	ff		 mov	 DWORD PTR tv2189[ebp], eax
$LL497@chatGetLin:
  00610	8a 02		 mov	 al, BYTE PTR [edx]
  00612	42		 inc	 edx
  00613	84 c0		 test	 al, al
  00615	75 f9		 jne	 SHORT $LL497@chatGetLin
  00617	2b 95 b4 fa ff
	ff		 sub	 edx, DWORD PTR tv2189[ebp]

; 195  : 
; 196  :     while (t <= --s)

  0061d	4a		 dec	 edx
  0061e	03 d6		 add	 edx, esi
  00620	3b f2		 cmp	 esi, edx
  00622	77 4e		 ja	 SHORT $LN198@chatGetLin
$LL199@chatGetLin:

; 197  :     {
; 198  : 		if ('0' <= *s && *s <= '9')

  00624	89 8d b4 fa ff
	ff		 mov	 DWORD PTR tv2226[ebp], ecx
  0062a	8a 0a		 mov	 cl, BYTE PTR [edx]
  0062c	8a c1		 mov	 al, cl
  0062e	2c 30		 sub	 al, 48			; 00000030H
  00630	3c 09		 cmp	 al, 9
  00632	77 08		 ja	 SHORT $LN201@chatGetLin

; 199  :             x += y * (*s - '0');

  00634	0f be c1	 movsx	 eax, cl
  00637	83 e8 30	 sub	 eax, 48			; 00000030H
  0063a	eb 1e		 jmp	 SHORT $LN206@chatGetLin
$LN201@chatGetLin:

; 200  :         else if ('a' <= *s && *s <= 'f')

  0063c	8a c1		 mov	 al, cl
  0063e	2c 61		 sub	 al, 97			; 00000061H
  00640	3c 05		 cmp	 al, 5
  00642	77 08		 ja	 SHORT $LN203@chatGetLin

; 201  :             x += y * (*s - 'a' + 10);

  00644	0f be c1	 movsx	 eax, cl
  00647	83 e8 57	 sub	 eax, 87			; 00000057H
  0064a	eb 0e		 jmp	 SHORT $LN206@chatGetLin
$LN203@chatGetLin:

; 202  :         else if ('A' <= *s && *s <= 'F')

  0064c	8a c1		 mov	 al, cl
  0064e	2c 41		 sub	 al, 65			; 00000041H
  00650	3c 05		 cmp	 al, 5
  00652	77 1b		 ja	 SHORT $LN205@chatGetLin

; 203  :             x += y * (10 + *s - 'A');

  00654	0f be c1	 movsx	 eax, cl
  00657	83 e8 37	 sub	 eax, 55			; 00000037H
$LN206@chatGetLin:

; 206  :         y <<= 4;

  0065a	8b cf		 mov	 ecx, edi
  0065c	4a		 dec	 edx
  0065d	0f af c8	 imul	 ecx, eax
  00660	c1 e7 04	 shl	 edi, 4
  00663	03 8d b4 fa ff
	ff		 add	 ecx, DWORD PTR tv2226[ebp]
  00669	3b f2		 cmp	 esi, edx
  0066b	76 b7		 jbe	 SHORT $LL199@chatGetLin
; File C:\Program Files\Microsoft Visual Studio\2022\Community\VC\Tools\MSVC\14.44.35207\include\__msvc_string_view.hpp

; 113  :             for (size_t _Idx = 0; _Idx != _Count; ++_Idx) {

  0066d	eb 03		 jmp	 SHORT $LN198@chatGetLin
$LN205@chatGetLin:
; File D:\_m2work\txoko-m2-work\txoko-client-src\source\eterBase\Utils.h

; 205  :             return -1; /* invalid input! */

  0066f	83 c9 ff	 or	 ecx, -1
$LN198@chatGetLin:
; File D:\_m2work\txoko-m2-work\txoko-client-src\source\UserInterface\PythonChatModule.cpp

; 431  : 					len += snprintf(itemlink + len, sizeof(itemlink) - len, ":%x:%I64d", 

  00672	ff b5 b0 fa ff
	ff		 push	 DWORD PTR tv2149[ebp]
  00678	8b bd b8 fa ff
	ff		 mov	 edi, DWORD PTR _len$1$[ebp]
  0067e	b8 00 01 00 00	 mov	 eax, 256		; 00000100H
  00683	ff b5 94 fa ff
	ff		 push	 DWORD PTR tv2150[ebp]
  00689	2b c7		 sub	 eax, edi
  0068b	51		 push	 ecx
  0068c	68 00 00 00 00	 push	 OFFSET ??_C@_09CNFFNIIC@?3?$CFx?3?$CFI64d@
  00691	50		 push	 eax
  00692	8d 85 f0 fe ff
	ff		 lea	 eax, DWORD PTR _itemlink$7[ebp]
  00698	03 c7		 add	 eax, edi
  0069a	50		 push	 eax
  0069b	e8 00 00 00 00	 call	 __snprintf
; File C:\Program Files\Microsoft Visual Studio\2022\Community\VC\Tools\MSVC\14.44.35207\include\vector

; 1915 :         return static_cast<size_type>(_My_data._Mylast - _My_data._Myfirst);

  006a0	8b 95 a0 fa ff
	ff		 mov	 edx, DWORD PTR _results$[ebp]
; File D:\_m2work\txoko-m2-work\txoko-client-src\source\UserInterface\PythonChatModule.cpp

; 431  : 					len += snprintf(itemlink + len, sizeof(itemlink) - len, ":%x:%I64d", 

  006a6	03 f8		 add	 edi, eax
; File C:\Program Files\Microsoft Visual Studio\2022\Community\VC\Tools\MSVC\14.44.35207\include\vector

; 1915 :         return static_cast<size_type>(_My_data._Mylast - _My_data._Myfirst);

  006a8	8b 85 a4 fa ff
	ff		 mov	 eax, DWORD PTR _results$[ebp+4]
; File D:\_m2work\txoko-m2-work\txoko-client-src\source\UserInterface\PythonChatModule.cpp

; 431  : 					len += snprintf(itemlink + len, sizeof(itemlink) - len, ":%x:%I64d", 

  006ae	83 c4 18	 add	 esp, 24			; 00000018H
  006b1	8b 8d ac fa ff
	ff		 mov	 ecx, DWORD PTR _i$1$[ebp]
; File C:\Program Files\Microsoft Visual Studio\2022\Community\VC\Tools\MSVC\14.44.35207\include\vector

; 1915 :         return static_cast<size_type>(_My_data._Mylast - _My_data._Myfirst);

  006b7	2b c2		 sub	 eax, edx
; File D:\_m2work\txoko-m2-work\txoko-client-src\source\UserInterface\PythonChatModule.cpp

; 429  : 				for (int i = 6; i < results.size(); i += 2)

  006b9	8b b5 bc fa ff
	ff		 mov	 esi, DWORD PTR tv2159[ebp]
  006bf	83 c1 02	 add	 ecx, 2
; File C:\Program Files\Microsoft Visual Studio\2022\Community\VC\Tools\MSVC\14.44.35207\include\vector

; 1915 :         return static_cast<size_type>(_My_data._Mylast - _My_data._Myfirst);

  006c2	c1 f8 03	 sar	 eax, 3
; File D:\_m2work\txoko-m2-work\txoko-client-src\source\UserInterface\PythonChatModule.cpp

; 429  : 				for (int i = 6; i < results.size(); i += 2)

  006c5	83 c6 30	 add	 esi, 48			; 00000030H
; File C:\Program Files\Microsoft Visual Studio\2022\Community\VC\Tools\MSVC\14.44.35207\include\vector

; 1915 :         return static_cast<size_type>(_My_data._Mylast - _My_data._Myfirst);

  006c8	69 c0 ab aa aa
	aa		 imul	 eax, eax, -1431655765
; File D:\_m2work\txoko-m2-work\txoko-client-src\source\UserInterface\PythonChatModule.cpp

; 431  : 					len += snprintf(itemlink + len, sizeof(itemlink) - len, ":%x:%I64d", 

  006ce	89 bd b8 fa ff
	ff		 mov	 DWORD PTR _len$1$[ebp], edi
  006d4	89 8d ac fa ff
	ff		 mov	 DWORD PTR _i$1$[ebp], ecx
  006da	89 b5 bc fa ff
	ff		 mov	 DWORD PTR tv2159[ebp], esi
  006e0	3b c8		 cmp	 ecx, eax
  006e2	0f 82 e8 fe ff
	ff		 jb	 $LL4@chatGetLin

; 432  : 							htoi(results[i].c_str()),
; 433  : 							atoi(results[i+1].c_str()));
; 434  : 					isAttr = true;
; 435  : 				}
; 436  : 			}
; 437  : 
; 438  : 			if (isAttr)
; 439  : 				//"item:::0:1:2"
; 440  : 				snprintf(buf, sizeof(buf), "|cffffc700|H%s|h[%s]|h|r", itemlink, pItemData->GetName());

  006e8	be 00 00 00 00	 mov	 esi, OFFSET ??_C@_0BJ@DABMGIOF@?$HMcffffc700?$HMH?$CFs?$HMh?$FL?$CFs?$FN?$HMh?$HMr@
  006ed	eb 05		 jmp	 SHORT $LN500@chatGetLin
$LN10@chatGetLin:

; 441  : 			else
; 442  : 				snprintf(buf, sizeof(buf), "|cfff1e6c0|H%s|h[%s]|h|r", itemlink, pItemData->GetName());

  006ef	be 00 00 00 00	 mov	 esi, OFFSET ??_C@_0BJ@GPGFNPLK@?$HMcfff1e6c0?$HMH?$CFs?$HMh?$FL?$CFs?$FN?$HMh?$HMr@
$LN500@chatGetLin:

; 443  : 
; 444  : 			return Py_BuildValue("s", buf);

  006f4	8b 8d 9c fa ff
	ff		 mov	 ecx, DWORD PTR _pItemData$2[ebp]
  006fa	e8 00 00 00 00	 call	 ?GetName@CItemData@@QBEPBDXZ ; CItemData::GetName
  006ff	50		 push	 eax
  00700	8d 85 f0 fe ff
	ff		 lea	 eax, DWORD PTR _itemlink$7[ebp]
  00706	50		 push	 eax
  00707	56		 push	 esi
  00708	8d 85 f0 fa ff
	ff		 lea	 eax, DWORD PTR _buf$6[ebp]
  0070e	68 00 04 00 00	 push	 1024			; 00000400H
  00713	50		 push	 eax
  00714	e8 00 00 00 00	 call	 __snprintf
  00719	8d 85 f0 fa ff
	ff		 lea	 eax, DWORD PTR _buf$6[ebp]
  0071f	50		 push	 eax
  00720	68 00 00 00 00	 push	 OFFSET ??_C@_01LKDEMHDF@s@
  00725	ff 15 00 00 00
	00		 call	 DWORD PTR __imp__Py_BuildValue
  0072b	83 c4 1c	 add	 esp, 28			; 0000001cH
  0072e	eb 13		 jmp	 SHORT $LN501@chatGetLin
$LN8@chatGetLin:
; File C:\Program Files\Microsoft Visual Studio\2022\Community\VC\Tools\MSVC\14.44.35207\include\vector

; 830  :         _Tidy();

  00730	68 00 00 00 00	 push	 OFFSET ??_C@_00CNPNBAHC@@
  00735	68 00 00 00 00	 push	 OFFSET ??_C@_01LKDEMHDF@s@
  0073a	ff 15 00 00 00
	00		 call	 DWORD PTR __imp__Py_BuildValue
  00740	83 c4 08	 add	 esp, 8
$LN501@chatGetLin:
  00743	8d 8d a0 fa ff
	ff		 lea	 ecx, DWORD PTR _results$[ebp]
  00749	8b f0		 mov	 esi, eax
  0074b	e8 00 00 00 00	 call	 ?_Tidy@?$vector@V?$basic_string@DU?$char_traits@D@std@@V?$allocator@D@2@@std@@V?$allocator@V?$basic_string@DU?$char_traits@D@std@@V?$allocator@D@2@@std@@@2@@std@@AAEXXZ ; std::vector<std::basic_string<char,std::char_traits<char>,std::allocator<char> >,std::allocator<std::basic_string<char,std::char_traits<char>,std::allocator<char> > > >::_Tidy
; File C:\Program Files\Microsoft Visual Studio\2022\Community\VC\Tools\MSVC\14.44.35207\include\xstring

; 1383 :         _Tidy_deallocate();

  00750	8d 8d c0 fa ff
	ff		 lea	 ecx, DWORD PTR _stHyperlink$[ebp]
  00756	e8 00 00 00 00	 call	 ?_Tidy_deallocate@?$basic_string@DU?$char_traits@D@std@@V?$allocator@D@2@@std@@AAEXXZ ; std::basic_string<char,std::char_traits<char>,std::allocator<char> >::_Tidy_deallocate
; File D:\_m2work\txoko-m2-work\txoko-client-src\source\UserInterface\PythonChatModule.cpp

; 448  : 	return Py_BuildValue("s", "");

  0075b	8b c6		 mov	 eax, esi
$LN1@chatGetLin:

; 449  : }

  0075d	8b 4d f4	 mov	 ecx, DWORD PTR __$EHRec$[ebp]
  00760	64 89 0d 00 00
	00 00		 mov	 DWORD PTR fs:0, ecx
  00767	59		 pop	 ecx
  00768	5f		 pop	 edi
  00769	5e		 pop	 esi
  0076a	8b 4d f0	 mov	 ecx, DWORD PTR __$ArrayPad$[ebp]
  0076d	33 cd		 xor	 ecx, ebp
  0076f	e8 00 00 00 00	 call	 @__security_check_cookie@4
  00774	8b e5		 mov	 esp, ebp
  00776	5d		 pop	 ebp
  00777	c3		 ret	 0
$LN503@chatGetLin:
; File C:\Program Files\Microsoft Visual Studio\2022\Community\VC\Tools\MSVC\14.44.35207\include\xmemory

; 219  :     _STL_VERIFY(_Back_shift >= _Min_back_shift && _Back_shift <= _Non_user_size, "invalid argument");

  00778	6a 00		 push	 0
  0077a	6a 00		 push	 0
  0077c	6a 00		 push	 0
  0077e	6a 00		 push	 0
  00780	6a 00		 push	 0
  00782	e8 00 00 00 00	 call	 __invoke_watson
$LN499@chatGetLin:
  00787	cc		 int	 3
_TEXT	ENDS
;	COMDAT text$x
text$x	SEGMENT
__unwindfunclet$?chatGetLinkFromHyperlink@@YAPAU_object@@PAU1@0@Z$0:
  00000	8d 8d c0 fa ff
	ff		 lea	 ecx, DWORD PTR _stHyperlink$[ebp]
  00006	e9 00 00 00 00	 jmp	 ??1?$basic_string@DU?$char_traits@D@std@@V?$allocator@D@2@@std@@QAE@XZ ; std::basic_string<char,std::char_traits<char>,std::allocator<char> >::~basic_string<char,std::char_traits<char>,std::allocator<char> >
__unwindfunclet$?chatGetLinkFromHyperlink@@YAPAU_object@@PAU1@0@Z$1:
  0000b	8d 8d a0 fa ff
	ff		 lea	 ecx, DWORD PTR _results$[ebp]
  00011	e9 00 00 00 00	 jmp	 ??1?$vector@V?$basic_string@DU?$char_traits@D@std@@V?$allocator@D@2@@std@@V?$allocator@V?$basic_string@DU?$char_traits@D@std@@V?$allocator@D@2@@std@@@2@@std@@QAE@XZ ; std::vector<std::basic_string<char,std::char_traits<char>,std::allocator<char> >,std::allocator<std::basic_string<char,std::char_traits<char>,std::allocator<char> > > >::~vector<std::basic_string<char,std::char_traits<char>,std::allocator<char> >,std::allocator<std::basic_string<char,std::char_traits<char>,std::allocator<char> > > >
__unwindfunclet$?chatGetLinkFromHyperlink@@YAPAU_object@@PAU1@0@Z$2:
  00016	8d 8d d8 fa ff
	ff		 lea	 ecx, DWORD PTR $T5[ebp]
  0001c	e9 00 00 00 00	 jmp	 ??1?$basic_string@DU?$char_traits@D@std@@V?$allocator@D@2@@std@@QAE@XZ ; std::basic_string<char,std::char_traits<char>,std::allocator<char> >::~basic_string<char,std::char_traits<char>,std::allocator<char> >
  00021	cc		 int	 3
  00022	cc		 int	 3
  00023	cc		 int	 3
  00024	cc		 int	 3
  00025	cc		 int	 3
__ehhandler$?chatGetLinkFromHyperlink@@YAPAU_object@@PAU1@0@Z:
  00026	90		 npad	 1
  00027	90		 npad	 1
  00028	8b 54 24 08	 mov	 edx, DWORD PTR [esp+8]
  0002c	8d 42 0c	 lea	 eax, DWORD PTR [edx+12]
  0002f	8b 8a 94 fa ff
	ff		 mov	 ecx, DWORD PTR [edx-1388]
  00035	33 c8		 xor	 ecx, eax
  00037	e8 00 00 00 00	 call	 @__security_check_cookie@4
  0003c	8b 4a fc	 mov	 ecx, DWORD PTR [edx-4]
  0003f	33 c8		 xor	 ecx, eax
  00041	e8 00 00 00 00	 call	 @__security_check_cookie@4
  00046	b8 00 00 00 00	 mov	 eax, OFFSET __ehfuncinfo$?chatGetLinkFromHyperlink@@YAPAU_object@@PAU1@0@Z
  0004b	e9 00 00 00 00	 jmp	 ___CxxFrameHandler3
text$x	ENDS
?chatGetLinkFromHyperlink@@YAPAU_object@@PAU1@0@Z ENDP	; chatGetLinkFromHyperlink
; Function compile flags: /Ogtp
; File D:\_m2work\txoko-m2-work\txoko-client-src\source\UserInterface\PythonChatModule.cpp
;	COMDAT ?initChat@@YAXXZ
_TEXT	SEGMENT
?initChat@@YAXXZ PROC					; initChat, COMDAT

; 452  : {

  00000	56		 push	 esi
  00001	57		 push	 edi

; 453  : 	static PyMethodDef s_methods[] = 
; 454  : 	{
; 455  : 		{ "SetChatColor",			chatSetChatColor,			METH_VARARGS },
; 456  : 		{ "Clear",					chatClear,					METH_VARARGS },
; 457  : 		{ "Close",					chatClose,					METH_VARARGS },
; 458  : 
; 459  : 		{ "CreateChatSet",			chatCreateChatSet,			METH_VARARGS },
; 460  : 		{ "Update",					chatUpdate,					METH_VARARGS },
; 461  : 		{ "Render",					chatRender,					METH_VARARGS },
; 462  : 
; 463  : 		{ "SetBoardState",			chatSetBoardState,			METH_VARARGS },
; 464  : 		{ "SetPosition",			chatSetPosition,			METH_VARARGS },
; 465  : 		{ "SetHeight",				chatSetHeight,				METH_VARARGS },
; 466  : 		{ "SetStep",				chatSetStep,				METH_VARARGS },
; 467  : 		{ "ToggleChatMode",			chatToggleChatMode,			METH_VARARGS },
; 468  : 		{ "EnableChatMode",			chatEnableChatMode,			METH_VARARGS },
; 469  : 		{ "DisableChatMode",		chatDisableChatMode,		METH_VARARGS },
; 470  : 		{ "SetEndPos",				chatSetEndPos,				METH_VARARGS },
; 471  : 
; 472  : 		{ "GetLineCount",			chatGetLineCount,			METH_VARARGS },
; 473  : 		{ "GetVisibleLineCount",	chatGetVisibleLineCount,	METH_VARARGS },
; 474  : 		{ "GetLineStep",			chatGetLineStep,			METH_VARARGS },
; 475  : 
; 476  : 		// Chat
; 477  : 		{ "AppendChat",				chatAppendChat,				METH_VARARGS },
; 478  : 		{ "AppendChatWithDelay",	chatAppendChatWithDelay,	METH_VARARGS },
; 479  : 		{ "ArrangeShowingChat",		chatArrangeShowingChat,		METH_VARARGS },
; 480  : 
; 481  : 		// Ignore
; 482  : 		{ "IgnoreCharacter",		chatIgnoreCharacter,		METH_VARARGS },
; 483  : 		{ "IsIgnoreCharacter",		chatIsIgnoreCharacter,		METH_VARARGS },
; 484  : 
; 485  : 		// Whisper
; 486  : 		{ "CreateWhisper",			chatCreateWhisper,			METH_VARARGS },
; 487  : 		{ "AppendWhisper",			chatAppendWhisper,			METH_VARARGS },
; 488  : 		{ "RenderWhisper",			chatRenderWhisper,			METH_VARARGS },
; 489  : 		{ "SetWhisperBoxSize",		chatSetWhisperBoxSize,		METH_VARARGS },
; 490  : 		{ "SetWhisperPosition",		chatSetWhisperPosition,		METH_VARARGS },
; 491  : 		{ "ClearWhisper",			chatClearWhisper,			METH_VARARGS },
; 492  : 		{ "InitWhisper",			chatInitWhisper,			METH_VARARGS },
; 493  : 
; 494  : 		// Link
; 495  : 		{ "GetLinkFromHyperlink",	chatGetLinkFromHyperlink,	METH_VARARGS },
; 496  : 
; 497  : 		{ NULL,						NULL,						NULL },
; 498  : 	};
; 499  : 
; 500  : 	PyObject * poModule = Py_InitModule("chat", s_methods);

  00002	68 f5 03 00 00	 push	 1013			; 000003f5H
  00007	6a 00		 push	 0
  00009	6a 00		 push	 0
  0000b	68 00 00 00 00	 push	 OFFSET ?s_methods@?1??initChat@@YAXXZ@4PAUPyMethodDef@@A
  00010	68 00 00 00 00	 push	 OFFSET ??_C@_04BLJLMHHG@chat@
  00015	ff 15 00 00 00
	00		 call	 DWORD PTR __imp__Py_InitModule4

; 501  : 
; 502  : 	PyModule_AddIntConstant(poModule, "CHAT_TYPE_TALKING",		CHAT_TYPE_TALKING);

  0001b	8b 35 00 00 00
	00		 mov	 esi, DWORD PTR __imp__PyModule_AddIntConstant
  00021	8b f8		 mov	 edi, eax
  00023	6a 00		 push	 0
  00025	68 00 00 00 00	 push	 OFFSET ??_C@_0BC@EHLMCJH@CHAT_TYPE_TALKING@
  0002a	57		 push	 edi
  0002b	ff d6		 call	 esi

; 503  : 	PyModule_AddIntConstant(poModule, "CHAT_TYPE_INFO",			CHAT_TYPE_INFO);

  0002d	6a 01		 push	 1
  0002f	68 00 00 00 00	 push	 OFFSET ??_C@_0P@MIHHHBMP@CHAT_TYPE_INFO@
  00034	57		 push	 edi
  00035	ff d6		 call	 esi

; 504  : 	PyModule_AddIntConstant(poModule, "CHAT_TYPE_NOTICE",		CHAT_TYPE_NOTICE);

  00037	6a 02		 push	 2
  00039	68 00 00 00 00	 push	 OFFSET ??_C@_0BB@KFACLMJA@CHAT_TYPE_NOTICE@
  0003e	57		 push	 edi
  0003f	ff d6		 call	 esi

; 505  : 	PyModule_AddIntConstant(poModule, "CHAT_TYPE_PARTY",		CHAT_TYPE_PARTY);

  00041	6a 03		 push	 3
  00043	68 00 00 00 00	 push	 OFFSET ??_C@_0BA@JOLAGJG@CHAT_TYPE_PARTY@
  00048	57		 push	 edi
  00049	ff d6		 call	 esi
  0004b	83 c4 44	 add	 esp, 68			; 00000044H

; 506  : 	PyModule_AddIntConstant(poModule, "CHAT_TYPE_GUILD",		CHAT_TYPE_GUILD);

  0004e	6a 04		 push	 4
  00050	68 00 00 00 00	 push	 OFFSET ??_C@_0BA@OIBJELLN@CHAT_TYPE_GUILD@
  00055	57		 push	 edi
  00056	ff d6		 call	 esi

; 507  : 	PyModule_AddIntConstant(poModule, "CHAT_TYPE_COMMAND",		CHAT_TYPE_COMMAND);

  00058	6a 05		 push	 5
  0005a	68 00 00 00 00	 push	 OFFSET ??_C@_0BC@IILPNMNB@CHAT_TYPE_COMMAND@
  0005f	57		 push	 edi
  00060	ff d6		 call	 esi

; 508  : 	PyModule_AddIntConstant(poModule, "CHAT_TYPE_SHOUT",		CHAT_TYPE_SHOUT);

  00062	6a 06		 push	 6
  00064	68 00 00 00 00	 push	 OFFSET ??_C@_0BA@JEHAINHB@CHAT_TYPE_SHOUT@
  00069	57		 push	 edi
  0006a	ff d6		 call	 esi

; 509  : 	PyModule_AddIntConstant(poModule, "CHAT_TYPE_WHISPER",		CHAT_TYPE_WHISPER);

  0006c	6a 07		 push	 7
  0006e	68 00 00 00 00	 push	 OFFSET ??_C@_0BC@JMANMLH@CHAT_TYPE_WHISPER@
  00073	57		 push	 edi
  00074	ff d6		 call	 esi

; 510  : 	PyModule_AddIntConstant(poModule, "WHISPER_TYPE_CHAT",		CPythonChat::WHISPER_TYPE_CHAT);

  00076	6a 00		 push	 0
  00078	68 00 00 00 00	 push	 OFFSET ??_C@_0BC@LIEDKBDG@WHISPER_TYPE_CHAT@
  0007d	57		 push	 edi
  0007e	ff d6		 call	 esi

; 511  : 	PyModule_AddIntConstant(poModule, "WHISPER_TYPE_SYSTEM",	CPythonChat::WHISPER_TYPE_SYSTEM);

  00080	68 ff 00 00 00	 push	 255			; 000000ffH
  00085	68 00 00 00 00	 push	 OFFSET ??_C@_0BE@KODPENDJ@WHISPER_TYPE_SYSTEM@
  0008a	57		 push	 edi
  0008b	ff d6		 call	 esi
  0008d	83 c4 48	 add	 esp, 72			; 00000048H

; 512  : 	PyModule_AddIntConstant(poModule, "WHISPER_TYPE_GM",		CPythonChat::WHISPER_TYPE_GM);

  00090	6a 05		 push	 5
  00092	68 00 00 00 00	 push	 OFFSET ??_C@_0BA@KLIHGMFD@WHISPER_TYPE_GM@
  00097	57		 push	 edi
  00098	ff d6		 call	 esi

; 513  : 
; 514  : 	PyModule_AddIntConstant(poModule, "BOARD_STATE_VIEW",		CPythonChat::BOARD_STATE_VIEW);

  0009a	6a 00		 push	 0
  0009c	68 00 00 00 00	 push	 OFFSET ??_C@_0BB@OJGJMFKD@BOARD_STATE_VIEW@
  000a1	57		 push	 edi
  000a2	ff d6		 call	 esi

; 515  : 	PyModule_AddIntConstant(poModule, "BOARD_STATE_EDIT",		CPythonChat::BOARD_STATE_EDIT);

  000a4	6a 01		 push	 1
  000a6	68 00 00 00 00	 push	 OFFSET ??_C@_0BB@BOHEFKIL@BOARD_STATE_EDIT@
  000ab	57		 push	 edi
  000ac	ff d6		 call	 esi

; 516  : 	PyModule_AddIntConstant(poModule, "BOARD_STATE_LOG",		CPythonChat::BOARD_STATE_LOG);

  000ae	6a 02		 push	 2
  000b0	68 00 00 00 00	 push	 OFFSET ??_C@_0BA@PGHAPLJK@BOARD_STATE_LOG@
  000b5	57		 push	 edi
  000b6	ff d6		 call	 esi

; 517  : 
; 518  : 	PyModule_AddIntConstant(poModule, "CHAT_SET_CHAT_WINDOW",	0);

  000b8	6a 00		 push	 0
  000ba	68 00 00 00 00	 push	 OFFSET ??_C@_0BF@FCHEGAKH@CHAT_SET_CHAT_WINDOW@
  000bf	57		 push	 edi
  000c0	ff d6		 call	 esi

; 519  : 	PyModule_AddIntConstant(poModule, "CHAT_SET_LOG_WINDOW",	1);

  000c2	6a 01		 push	 1
  000c4	68 00 00 00 00	 push	 OFFSET ??_C@_0BE@OPDJLJMH@CHAT_SET_LOG_WINDOW@
  000c9	57		 push	 edi
  000ca	ff d6		 call	 esi
  000cc	83 c4 48	 add	 esp, 72			; 00000048H
  000cf	5f		 pop	 edi
  000d0	5e		 pop	 esi

; 520  : }

  000d1	c3		 ret	 0
?initChat@@YAXXZ ENDP					; initChat
_TEXT	ENDS
; Function compile flags: /Ogtp
; File D:\_m2work\txoko-m2-work\txoko-client-src\source\eterBase\Singleton.h
;	COMDAT ?Instance@?$CSingleton@VCPythonChat@@@@SAAAVCPythonChat@@XZ
_TEXT	SEGMENT
?Instance@?$CSingleton@VCPythonChat@@@@SAAAVCPythonChat@@XZ PROC ; CSingleton<CPythonChat>::Instance, COMDAT

; 26   : 		assert(ms_singleton);
; 27   : 		return (*ms_singleton);

  00000	a1 00 00 00 00	 mov	 eax, DWORD PTR ?ms_singleton@?$CSingleton@VCPythonChat@@@@0PAVCPythonChat@@A ; CSingleton<CPythonChat>::ms_singleton

; 28   : 	}

  00005	c3		 ret	 0
?Instance@?$CSingleton@VCPythonChat@@@@SAAAVCPythonChat@@XZ ENDP ; CSingleton<CPythonChat>::Instance
_TEXT	ENDS
; Function compile flags: /Ogtp
; File C:\Program Files\Microsoft Visual Studio\2022\Community\VC\Tools\MSVC\14.44.35207\include\vector
;	COMDAT ??A?$vector@V?$basic_string@DU?$char_traits@D@std@@V?$allocator@D@2@@std@@V?$allocator@V?$basic_string@DU?$char_traits@D@std@@V?$allocator@D@2@@std@@@2@@std@@QAEAAV?$basic_string@DU?$char_traits@D@std@@V?$allocator@D@2@@1@I@Z
_TEXT	SEGMENT
__Pos$ = 8						; size = 4
??A?$vector@V?$basic_string@DU?$char_traits@D@std@@V?$allocator@D@2@@std@@V?$allocator@V?$basic_string@DU?$char_traits@D@std@@V?$allocator@D@2@@std@@@2@@std@@QAEAAV?$basic_string@DU?$char_traits@D@std@@V?$allocator@D@2@@1@I@Z PROC ; std::vector<std::basic_string<char,std::char_traits<char>,std::allocator<char> >,std::allocator<std::basic_string<char,std::char_traits<char>,std::allocator<char> > > >::operator[], COMDAT
; _this$ = ecx

; 1927 :     _NODISCARD _CONSTEXPR20 _Ty& operator[](const size_type _Pos) noexcept /* strengthened */ {

  00000	55		 push	 ebp
  00001	8b ec		 mov	 ebp, esp

; 1928 :         auto& _My_data = _Mypair._Myval2;
; 1929 : #if _MSVC_STL_HARDENING_VECTOR || _ITERATOR_DEBUG_LEVEL != 0
; 1930 :         _STL_VERIFY(
; 1931 :             _Pos < static_cast<size_type>(_My_data._Mylast - _My_data._Myfirst), "vector subscript out of range");
; 1932 : #endif
; 1933 : 
; 1934 :         return _My_data._Myfirst[_Pos];

  00003	8b 45 08	 mov	 eax, DWORD PTR __Pos$[ebp]
  00006	8d 14 40	 lea	 edx, DWORD PTR [eax+eax*2]
  00009	8b 01		 mov	 eax, DWORD PTR [ecx]
  0000b	8d 04 d0	 lea	 eax, DWORD PTR [eax+edx*8]

; 1935 :     }

  0000e	5d		 pop	 ebp
  0000f	c2 04 00	 ret	 4
??A?$vector@V?$basic_string@DU?$char_traits@D@std@@V?$allocator@D@2@@std@@V?$allocator@V?$basic_string@DU?$char_traits@D@std@@V?$allocator@D@2@@std@@@2@@std@@QAEAAV?$basic_string@DU?$char_traits@D@std@@V?$allocator@D@2@@1@I@Z ENDP ; std::vector<std::basic_string<char,std::char_traits<char>,std::allocator<char> >,std::allocator<std::basic_string<char,std::char_traits<char>,std::allocator<char> > > >::operator[]
_TEXT	ENDS
; Function compile flags: /Ogtp
; File D:\_m2work\txoko-m2-work\txoko-client-src\source\eterBase\Utils.h
;	COMDAT ?htoi@@YAHPBD@Z
_TEXT	SEGMENT
?htoi@@YAHPBD@Z PROC					; htoi, COMDAT
; _s$ = ecx

; 191  : {

  00000	53		 push	 ebx
  00001	8b d9		 mov	 ebx, ecx
  00003	56		 push	 esi

; 192  :     const char *t = s;
; 193  :     int x = 0, y = 1;

  00004	33 f6		 xor	 esi, esi

; 194  :     s += strlen(s);

  00006	8b d3		 mov	 edx, ebx
  00008	57		 push	 edi
  00009	8d 7e 01	 lea	 edi, DWORD PTR [esi+1]
  0000c	8d 4a 01	 lea	 ecx, DWORD PTR [edx+1]
  0000f	90		 npad	 1
$LL15@htoi:
  00010	8a 02		 mov	 al, BYTE PTR [edx]
  00012	42		 inc	 edx
  00013	84 c0		 test	 al, al
  00015	75 f9		 jne	 SHORT $LL15@htoi
  00017	2b d1		 sub	 edx, ecx

; 195  : 
; 196  :     while (t <= --s)

  00019	4a		 dec	 edx
  0001a	03 d3		 add	 edx, ebx
  0001c	3b da		 cmp	 ebx, edx
  0001e	77 3a		 ja	 SHORT $LN3@htoi
$LL2@htoi:

; 197  :     {
; 198  : 		if ('0' <= *s && *s <= '9')

  00020	8a 0a		 mov	 cl, BYTE PTR [edx]
  00022	8d 41 d0	 lea	 eax, DWORD PTR [ecx-48]
  00025	3c 09		 cmp	 al, 9
  00027	77 08		 ja	 SHORT $LN4@htoi

; 199  :             x += y * (*s - '0');

  00029	0f be c1	 movsx	 eax, cl
  0002c	83 e8 30	 sub	 eax, 48			; 00000030H
  0002f	eb 1c		 jmp	 SHORT $LN9@htoi
$LN4@htoi:

; 200  :         else if ('a' <= *s && *s <= 'f')

  00031	8d 41 9f	 lea	 eax, DWORD PTR [ecx-97]
  00034	3c 05		 cmp	 al, 5
  00036	77 08		 ja	 SHORT $LN6@htoi

; 201  :             x += y * (*s - 'a' + 10);

  00038	0f be c1	 movsx	 eax, cl
  0003b	83 e8 57	 sub	 eax, 87			; 00000057H
  0003e	eb 0d		 jmp	 SHORT $LN9@htoi
$LN6@htoi:

; 202  :         else if ('A' <= *s && *s <= 'F')

  00040	8d 41 bf	 lea	 eax, DWORD PTR [ecx-65]
  00043	3c 05		 cmp	 al, 5
  00045	77 19		 ja	 SHORT $LN8@htoi

; 203  :             x += y * (10 + *s - 'A');

  00047	0f be c1	 movsx	 eax, cl
  0004a	83 e8 37	 sub	 eax, 55			; 00000037H
$LN9@htoi:

; 204  :         else
; 205  :             return -1; /* invalid input! */
; 206  :         y <<= 4;

  0004d	0f af c7	 imul	 eax, edi
  00050	4a		 dec	 edx
  00051	c1 e7 04	 shl	 edi, 4
  00054	03 f0		 add	 esi, eax
  00056	3b da		 cmp	 ebx, edx
  00058	76 c6		 jbe	 SHORT $LL2@htoi
$LN3@htoi:
  0005a	5f		 pop	 edi

; 207  :     }
; 208  : 
; 209  :     return x;

  0005b	8b c6		 mov	 eax, esi

; 210  : }

  0005d	5e		 pop	 esi
  0005e	5b		 pop	 ebx
  0005f	c3		 ret	 0
$LN8@htoi:
  00060	5f		 pop	 edi
  00061	5e		 pop	 esi
  00062	83 c8 ff	 or	 eax, -1
  00065	5b		 pop	 ebx
  00066	c3		 ret	 0
?htoi@@YAHPBD@Z ENDP					; htoi
_TEXT	ENDS
END
