; Listing generated by Microsoft (R) Optimizing Compiler Version 19.44.35217.0 

	TITLE	d:\_m2work\server client tmp4\clientvs22\vs_files\userinterface\distribute\pythonnetworkstream.obj
	.686P
	.XMM
	include listing.inc
	.model	flat

INCLUDELIB OLDNAMES

PUBLIC	??_C@_0O@ODIJHOCP@?1phase_select@		; `string'
PUBLIC	??_C@_05CMMBDMDD@?1quit@			; `string'
PUBLIC	??_C@_0M@PCENNPGA@?$CFd?4?$CFd?4?$CFd?4?$CFd@	; `string'
PUBLIC	??_C@_07FOABJBDD@?1logout@			; `string'
PUBLIC	??_C@_0FP@JGOINIOH@CPythonNetworkStream?3?3CheckPack@ ; `string'
PUBLIC	??_C@_0CH@LALGPME@Unknown?5packet?5header?3?5?$CFd?0?5last@ ; `string'
PUBLIC	??_C@_0CF@JLNGLGD@recv?5ping?5packet?4?5?$CIsecuritymode@ ; `string'
PUBLIC	??_C@_0EA@JMANDMEJ@Phase?5?$CFs?5does?5not?5handle?5this?5h@ ; `string'
PUBLIC	??_C@_0N@HHLEGKEL@SetGamePhase@			; `string'
PUBLIC	??_C@_0CG@IOPHKJBJ@?C?$LD?$LI?$KO?$LF?G?A?v?5?$LO?J?$MA?$LK?5?F?P?E?$LG?5?G?l?$LE?u?5?$CFd?0?5sta@ ; `string'
PUBLIC	??_C@_0BO@NMFMGDDG@?$CD?$CD?5Network?5?9?5OffLine?5Phase?5?$CD?$CD@ ; `string'
PUBLIC	??_C@_07NNEFBBEG@OffLine@			; `string'
PUBLIC	??_C@_0P@MDCECFOM@OBSERVER_COUNT@		; `string'
PUBLIC	??_C@_0O@PJEEOCNO@SetLoginPhase@		; `string'
PUBLIC	??_C@_0BO@OMGIOKNA@PythonNetworkMainStream?5Clear@ ; `string'
PUBLIC	??_C@_0O@FEJHKOEO@BETTING_MONEY@		; `string'
PUBLIC	??_R2CMainPacketHeaderMap@@8			; CMainPacketHeaderMap::`RTTI Base Class Array'
PUBLIC	??_R2CNetworkPacketHeaderMap@@8			; CNetworkPacketHeaderMap::`RTTI Base Class Array'
PUBLIC	??_R2?$CFuncObject@VCPythonNetworkStream@@@@8	; CFuncObject<CPythonNetworkStream>::`RTTI Base Class Array'
PUBLIC	??_R2?$CSingleton@VCPythonNetworkStream@@@@8	; CSingleton<CPythonNetworkStream>::`RTTI Base Class Array'
PUBLIC	??_R2CPythonNetworkStream@@8			; CPythonNetworkStream::`RTTI Base Class Array'
PUBLIC	??_R1A@?0A@EA@CMainPacketHeaderMap@@8		; CMainPacketHeaderMap::`RTTI Base Class Descriptor at (0,-1,0,64)'
PUBLIC	??_R1A@?0A@EA@CNetworkPacketHeaderMap@@8	; CNetworkPacketHeaderMap::`RTTI Base Class Descriptor at (0,-1,0,64)'
PUBLIC	??_R1A@?0A@EA@?$CFuncObject@VCPythonNetworkStream@@@@8 ; CFuncObject<CPythonNetworkStream>::`RTTI Base Class Descriptor at (0,-1,0,64)'
PUBLIC	??_R1A@?0A@EA@CPythonNetworkStream@@8		; CPythonNetworkStream::`RTTI Base Class Descriptor at (0,-1,0,64)'
PUBLIC	??_R1HM@?0A@EA@?$CSingleton@VCPythonNetworkStream@@@@8 ; CSingleton<CPythonNetworkStream>::`RTTI Base Class Descriptor at (124,-1,0,64)'
PUBLIC	??_R1A@?0A@EA@?$CSingleton@VCPythonNetworkStream@@@@8 ; CSingleton<CPythonNetworkStream>::`RTTI Base Class Descriptor at (0,-1,0,64)'
PUBLIC	??_R0?AVCNetworkPacketHeaderMap@@@8		; CNetworkPacketHeaderMap `RTTI Type Descriptor'
PUBLIC	??_R3CNetworkPacketHeaderMap@@8			; CNetworkPacketHeaderMap::`RTTI Class Hierarchy Descriptor'
PUBLIC	??_R0?AVCMainPacketHeaderMap@@@8		; CMainPacketHeaderMap `RTTI Type Descriptor'
PUBLIC	??_R3CMainPacketHeaderMap@@8			; CMainPacketHeaderMap::`RTTI Class Hierarchy Descriptor'
PUBLIC	??_R0?AV?$CFuncObject@VCPythonNetworkStream@@@@@8 ; CFuncObject<CPythonNetworkStream> `RTTI Type Descriptor'
PUBLIC	??_R3?$CFuncObject@VCPythonNetworkStream@@@@8	; CFuncObject<CPythonNetworkStream>::`RTTI Class Hierarchy Descriptor'
PUBLIC	??_R0?AV?$CSingleton@VCPythonNetworkStream@@@@@8 ; CSingleton<CPythonNetworkStream> `RTTI Type Descriptor'
PUBLIC	??_R3?$CSingleton@VCPythonNetworkStream@@@@8	; CSingleton<CPythonNetworkStream>::`RTTI Class Hierarchy Descriptor'
PUBLIC	??_R0?AVCPythonNetworkStream@@@8		; CPythonNetworkStream `RTTI Type Descriptor'
PUBLIC	??_R3CPythonNetworkStream@@8			; CPythonNetworkStream::`RTTI Class Hierarchy Descriptor'
PUBLIC	??_R4CMainPacketHeaderMap@@6B@			; CMainPacketHeaderMap::`RTTI Complete Object Locator'
PUBLIC	??_R4?$CFuncObject@VCPythonNetworkStream@@@@6B@	; CFuncObject<CPythonNetworkStream>::`RTTI Complete Object Locator'
PUBLIC	??_R4CPythonNetworkStream@@6B?$CSingleton@VCPythonNetworkStream@@@@@ ; CPythonNetworkStream::`RTTI Complete Object Locator'
PUBLIC	??_R4?$CSingleton@VCPythonNetworkStream@@@@6B@	; CSingleton<CPythonNetworkStream>::`RTTI Complete Object Locator'
PUBLIC	??_R4CPythonNetworkStream@@6BCNetworkStream@@@	; CPythonNetworkStream::`RTTI Complete Object Locator'
PUBLIC	??_7?$CFuncObject@VCPythonNetworkStream@@@@6B@	; CFuncObject<CPythonNetworkStream>::`vftable'
PUBLIC	??_7?$CSingleton@VCPythonNetworkStream@@@@6B@	; CSingleton<CPythonNetworkStream>::`vftable'
PUBLIC	??_7CPythonNetworkStream@@6BCNetworkStream@@@	; CPythonNetworkStream::`vftable'
PUBLIC	??_7CPythonNetworkStream@@6B?$CSingleton@VCPythonNetworkStream@@@@@ ; CPythonNetworkStream::`vftable'
PUBLIC	?g_iLastPacket@@3PAHA				; g_iLastPacket
PUBLIC	??_7CMainPacketHeaderMap@@6B@			; CMainPacketHeaderMap::`vftable'
EXTRN	?OnConnectSuccess@CNetworkStream@@MAEXXZ:PROC	; CNetworkStream::OnConnectSuccess
EXTRN	??0CNetworkAddress@@QAE@XZ:PROC			; CNetworkAddress::CNetworkAddress
EXTRN	??1CNetworkAddress@@QAE@XZ:PROC			; CNetworkAddress::~CNetworkAddress
EXTRN	?ClearRecvBuffer@CNetworkStream@@QAEXXZ:PROC	; CNetworkStream::ClearRecvBuffer
EXTRN	?Get@CNetworkPacketHeaderMap@@QAE_NHPAUSPacketType@1@@Z:PROC ; CNetworkPacketHeaderMap::Get
EXTRN	?Connect@CNetworkStream@@QAE_NKHH@Z:PROC	; CNetworkStream::Connect
EXTRN	?Set@CNetworkAddress@@QAE_NPBDH@Z:PROC		; CNetworkAddress::Set
EXTRN	?IsOnline@CNetworkStream@@QAE_NXZ:PROC		; CNetworkStream::IsOnline
EXTRN	??1CNetworkPacketHeaderMap@@UAE@XZ:PROC		; CNetworkPacketHeaderMap::~CNetworkPacketHeaderMap
EXTRN	?Set@CNetworkPacketHeaderMap@@QAEXHUSPacketType@1@@Z:PROC ; CNetworkPacketHeaderMap::Set
EXTRN	??0CNetworkPacketHeaderMap@@QAE@XZ:PROC		; CNetworkPacketHeaderMap::CNetworkPacketHeaderMap
?g_iLastPacket@@3PAHA DD 02H DUP (?)			; g_iLastPacket
_BSS	ENDS
;	COMDAT ??_7CMainPacketHeaderMap@@6B@
CONST	SEGMENT
??_7CMainPacketHeaderMap@@6B@ DD FLAT:??_R4CMainPacketHeaderMap@@6B@ ; CMainPacketHeaderMap::`vftable'
	DD	FLAT:??_ECMainPacketHeaderMap@@UAEPAXI@Z
CONST	ENDS
;	COMDAT ?sc_szEmpty@?1??GetAccountCharacterSlotDataz@CPythonNetworkStream@@QAEPBDII@Z@4PBDB
CONST	SEGMENT
?sc_szEmpty@?1??GetAccountCharacterSlotDataz@CPythonNetworkStream@@QAEPBDII@Z@4PBDB DD FLAT:??_C@_00CNPNBAHC@@ ; `CPythonNetworkStream::GetAccountCharacterSlotDataz'::`2'::sc_szEmpty
CONST	ENDS
;	COMDAT ??_7CPythonNetworkStream@@6B?$CSingleton@VCPythonNetworkStream@@@@@
CONST	SEGMENT
??_7CPythonNetworkStream@@6B?$CSingleton@VCPythonNetworkStream@@@@@ DD FLAT:??_R4CPythonNetworkStream@@6B?$CSingleton@VCPythonNetworkStream@@@@@ ; CPythonNetworkStream::`vftable'
	DD	FLAT:??_ECPythonNetworkStream@@WHM@AEPAXI@Z
CONST	ENDS
;	COMDAT ??_7CPythonNetworkStream@@6BCNetworkStream@@@
CONST	SEGMENT
??_7CPythonNetworkStream@@6BCNetworkStream@@@ DD FLAT:??_R4CPythonNetworkStream@@6BCNetworkStream@@@ ; CPythonNetworkStream::`vftable'
	DD	FLAT:??_ECPythonNetworkStream@@UAEPAXI@Z
	DD	FLAT:?OnConnectSuccess@CNetworkStream@@MAEXXZ
	DD	FLAT:?OnConnectFailure@CPythonNetworkStream@@MAEXXZ
	DD	FLAT:?OnRemoteDisconnect@CPythonNetworkStream@@MAEXXZ
	DD	FLAT:?OnDisconnect@CPythonNetworkStream@@MAEXXZ
	DD	FLAT:?OnProcess@CPythonNetworkStream@@MAE_NXZ
CONST	ENDS
;	COMDAT ??_7?$CSingleton@VCPythonNetworkStream@@@@6B@
CONST	SEGMENT
??_7?$CSingleton@VCPythonNetworkStream@@@@6B@ DD FLAT:??_R4?$CSingleton@VCPythonNetworkStream@@@@6B@ ; CSingleton<CPythonNetworkStream>::`vftable'
	DD	FLAT:??_E?$CSingleton@VCPythonNetworkStream@@@@UAEPAXI@Z
CONST	ENDS
;	COMDAT ??_7?$CFuncObject@VCPythonNetworkStream@@@@6B@
CONST	SEGMENT
??_7?$CFuncObject@VCPythonNetworkStream@@@@6B@ DD FLAT:??_R4?$CFuncObject@VCPythonNetworkStream@@@@6B@ ; CFuncObject<CPythonNetworkStream>::`vftable'
	DD	FLAT:??_E?$CFuncObject@VCPythonNetworkStream@@@@UAEPAXI@Z
CONST	ENDS
;	COMDAT ??_R4CPythonNetworkStream@@6BCNetworkStream@@@
rdata$r	SEGMENT
??_R4CPythonNetworkStream@@6BCNetworkStream@@@ DD 00H	; CPythonNetworkStream::`RTTI Complete Object Locator'
	DD	00H
	DD	00H
	DD	FLAT:??_R0?AVCPythonNetworkStream@@@8
	DD	FLAT:??_R3CPythonNetworkStream@@8
rdata$r	ENDS
;	COMDAT ??_R4?$CSingleton@VCPythonNetworkStream@@@@6B@
rdata$r	SEGMENT
??_R4?$CSingleton@VCPythonNetworkStream@@@@6B@ DD 00H	; CSingleton<CPythonNetworkStream>::`RTTI Complete Object Locator'
	DD	00H
	DD	00H
	DD	FLAT:??_R0?AV?$CSingleton@VCPythonNetworkStream@@@@@8
	DD	FLAT:??_R3?$CSingleton@VCPythonNetworkStream@@@@8
rdata$r	ENDS
;	COMDAT ??_R4CPythonNetworkStream@@6B?$CSingleton@VCPythonNetworkStream@@@@@
rdata$r	SEGMENT
??_R4CPythonNetworkStream@@6B?$CSingleton@VCPythonNetworkStream@@@@@ DD 00H ; CPythonNetworkStream::`RTTI Complete Object Locator'
	DD	07cH
	DD	00H
	DD	FLAT:??_R0?AVCPythonNetworkStream@@@8
	DD	FLAT:??_R3CPythonNetworkStream@@8
rdata$r	ENDS
;	COMDAT ??_R4?$CFuncObject@VCPythonNetworkStream@@@@6B@
rdata$r	SEGMENT
??_R4?$CFuncObject@VCPythonNetworkStream@@@@6B@ DD 00H	; CFuncObject<CPythonNetworkStream>::`RTTI Complete Object Locator'
	DD	00H
	DD	00H
	DD	FLAT:??_R0?AV?$CFuncObject@VCPythonNetworkStream@@@@@8
	DD	FLAT:??_R3?$CFuncObject@VCPythonNetworkStream@@@@8
rdata$r	ENDS
;	COMDAT ??_R4CMainPacketHeaderMap@@6B@
rdata$r	SEGMENT
??_R4CMainPacketHeaderMap@@6B@ DD 00H			; CMainPacketHeaderMap::`RTTI Complete Object Locator'
	DD	00H
	DD	00H
	DD	FLAT:??_R0?AVCMainPacketHeaderMap@@@8
	DD	FLAT:??_R3CMainPacketHeaderMap@@8
rdata$r	ENDS
;	COMDAT ??_R3CPythonNetworkStream@@8
rdata$r	SEGMENT
??_R3CPythonNetworkStream@@8 DD 00H			; CPythonNetworkStream::`RTTI Class Hierarchy Descriptor'
	DD	01H
	DD	03H
	DD	FLAT:??_R2CPythonNetworkStream@@8
rdata$r	ENDS
;	COMDAT ??_R0?AVCPythonNetworkStream@@@8
data$rs	SEGMENT
??_R0?AVCPythonNetworkStream@@@8 DD FLAT:??_7type_info@@6B@ ; CPythonNetworkStream `RTTI Type Descriptor'
	DD	00H
	DB	'.?AVCPythonNetworkStream@@', 00H
data$rs	ENDS
;	COMDAT ??_R3?$CSingleton@VCPythonNetworkStream@@@@8
rdata$r	SEGMENT
??_R3?$CSingleton@VCPythonNetworkStream@@@@8 DD 00H	; CSingleton<CPythonNetworkStream>::`RTTI Class Hierarchy Descriptor'
	DD	00H
	DD	01H
	DD	FLAT:??_R2?$CSingleton@VCPythonNetworkStream@@@@8
rdata$r	ENDS
;	COMDAT ??_R0?AV?$CSingleton@VCPythonNetworkStream@@@@@8
data$rs	SEGMENT
??_R0?AV?$CSingleton@VCPythonNetworkStream@@@@@8 DD FLAT:??_7type_info@@6B@ ; CSingleton<CPythonNetworkStream> `RTTI Type Descriptor'
	DD	00H
	DB	'.?AV?$CSingleton@VCPythonNetworkStream@@@@', 00H
data$rs	ENDS
;	COMDAT ??_R3?$CFuncObject@VCPythonNetworkStream@@@@8
rdata$r	SEGMENT
??_R3?$CFuncObject@VCPythonNetworkStream@@@@8 DD 00H	; CFuncObject<CPythonNetworkStream>::`RTTI Class Hierarchy Descriptor'
	DD	00H
	DD	01H
	DD	FLAT:??_R2?$CFuncObject@VCPythonNetworkStream@@@@8
rdata$r	ENDS
;	COMDAT ??_R0?AV?$CFuncObject@VCPythonNetworkStream@@@@@8
data$rs	SEGMENT
??_R0?AV?$CFuncObject@VCPythonNetworkStream@@@@@8 DD FLAT:??_7type_info@@6B@ ; CFuncObject<CPythonNetworkStream> `RTTI Type Descriptor'
	DD	00H
	DB	'.?AV?$CFuncObject@VCPythonNetworkStream@@@@', 00H
data$rs	ENDS
;	COMDAT ??_R3CMainPacketHeaderMap@@8
rdata$r	SEGMENT
??_R3CMainPacketHeaderMap@@8 DD 00H			; CMainPacketHeaderMap::`RTTI Class Hierarchy Descriptor'
	DD	00H
	DD	02H
	DD	FLAT:??_R2CMainPacketHeaderMap@@8
rdata$r	ENDS
;	COMDAT ??_R0?AVCMainPacketHeaderMap@@@8
data$rs	SEGMENT
??_R0?AVCMainPacketHeaderMap@@@8 DD FLAT:??_7type_info@@6B@ ; CMainPacketHeaderMap `RTTI Type Descriptor'
	DD	00H
	DB	'.?AVCMainPacketHeaderMap@@', 00H
data$rs	ENDS
;	COMDAT ??_R3CNetworkPacketHeaderMap@@8
rdata$r	SEGMENT
??_R3CNetworkPacketHeaderMap@@8 DD 00H			; CNetworkPacketHeaderMap::`RTTI Class Hierarchy Descriptor'
	DD	00H
	DD	01H
	DD	FLAT:??_R2CNetworkPacketHeaderMap@@8
rdata$r	ENDS
;	COMDAT ??_R0?AVCNetworkPacketHeaderMap@@@8
data$rs	SEGMENT
??_R0?AVCNetworkPacketHeaderMap@@@8 DD FLAT:??_7type_info@@6B@ ; CNetworkPacketHeaderMap `RTTI Type Descriptor'
	DD	00H
	DB	'.?AVCNetworkPacketHeaderMap@@', 00H
data$rs	ENDS
;	COMDAT ??_R1A@?0A@EA@?$CSingleton@VCPythonNetworkStream@@@@8
rdata$r	SEGMENT
??_R1A@?0A@EA@?$CSingleton@VCPythonNetworkStream@@@@8 DD FLAT:??_R0?AV?$CSingleton@VCPythonNetworkStream@@@@@8 ; CSingleton<CPythonNetworkStream>::`RTTI Base Class Descriptor at (0,-1,0,64)'
	DD	00H
	DD	00H
	DD	0ffffffffH
	DD	00H
	DD	040H
	DD	FLAT:??_R3?$CSingleton@VCPythonNetworkStream@@@@8
rdata$r	ENDS
;	COMDAT ??_R1HM@?0A@EA@?$CSingleton@VCPythonNetworkStream@@@@8
rdata$r	SEGMENT
??_R1HM@?0A@EA@?$CSingleton@VCPythonNetworkStream@@@@8 DD FLAT:??_R0?AV?$CSingleton@VCPythonNetworkStream@@@@@8 ; CSingleton<CPythonNetworkStream>::`RTTI Base Class Descriptor at (124,-1,0,64)'
	DD	00H
	DD	07cH
	DD	0ffffffffH
	DD	00H
	DD	040H
	DD	FLAT:??_R3?$CSingleton@VCPythonNetworkStream@@@@8
rdata$r	ENDS
;	COMDAT ??_R1A@?0A@EA@CPythonNetworkStream@@8
rdata$r	SEGMENT
??_R1A@?0A@EA@CPythonNetworkStream@@8 DD FLAT:??_R0?AVCPythonNetworkStream@@@8 ; CPythonNetworkStream::`RTTI Base Class Descriptor at (0,-1,0,64)'
	DD	02H
	DD	00H
	DD	0ffffffffH
	DD	00H
	DD	040H
	DD	FLAT:??_R3CPythonNetworkStream@@8
rdata$r	ENDS
;	COMDAT ??_R1A@?0A@EA@?$CFuncObject@VCPythonNetworkStream@@@@8
rdata$r	SEGMENT
??_R1A@?0A@EA@?$CFuncObject@VCPythonNetworkStream@@@@8 DD FLAT:??_R0?AV?$CFuncObject@VCPythonNetworkStream@@@@@8 ; CFuncObject<CPythonNetworkStream>::`RTTI Base Class Descriptor at (0,-1,0,64)'
	DD	00H
	DD	00H
	DD	0ffffffffH
	DD	00H
	DD	040H
	DD	FLAT:??_R3?$CFuncObject@VCPythonNetworkStream@@@@8
rdata$r	ENDS
;	COMDAT ??_R1A@?0A@EA@CNetworkPacketHeaderMap@@8
rdata$r	SEGMENT
??_R1A@?0A@EA@CNetworkPacketHeaderMap@@8 DD FLAT:??_R0?AVCNetworkPacketHeaderMap@@@8 ; CNetworkPacketHeaderMap::`RTTI Base Class Descriptor at (0,-1,0,64)'
	DD	00H
	DD	00H
	DD	0ffffffffH
	DD	00H
	DD	040H
	DD	FLAT:??_R3CNetworkPacketHeaderMap@@8
rdata$r	ENDS
;	COMDAT ??_R1A@?0A@EA@CMainPacketHeaderMap@@8
rdata$r	SEGMENT
??_R1A@?0A@EA@CMainPacketHeaderMap@@8 DD FLAT:??_R0?AVCMainPacketHeaderMap@@@8 ; CMainPacketHeaderMap::`RTTI Base Class Descriptor at (0,-1,0,64)'
	DD	01H
	DD	00H
	DD	0ffffffffH
	DD	00H
	DD	040H
	DD	FLAT:??_R3CMainPacketHeaderMap@@8
rdata$r	ENDS
;	COMDAT ??_R2CPythonNetworkStream@@8
rdata$r	SEGMENT
??_R2CPythonNetworkStream@@8 DD FLAT:??_R1A@?0A@EA@CPythonNetworkStream@@8 ; CPythonNetworkStream::`RTTI Base Class Array'
	DD	FLAT:??_R1A@?0A@EA@CNetworkStream@@8
	DD	FLAT:??_R1HM@?0A@EA@?$CSingleton@VCPythonNetworkStream@@@@8
rdata$r	ENDS
;	COMDAT ??_R2?$CSingleton@VCPythonNetworkStream@@@@8
rdata$r	SEGMENT
??_R2?$CSingleton@VCPythonNetworkStream@@@@8 DD FLAT:??_R1A@?0A@EA@?$CSingleton@VCPythonNetworkStream@@@@8 ; CSingleton<CPythonNetworkStream>::`RTTI Base Class Array'
rdata$r	ENDS
;	COMDAT ??_R2?$CFuncObject@VCPythonNetworkStream@@@@8
rdata$r	SEGMENT
??_R2?$CFuncObject@VCPythonNetworkStream@@@@8 DD FLAT:??_R1A@?0A@EA@?$CFuncObject@VCPythonNetworkStream@@@@8 ; CFuncObject<CPythonNetworkStream>::`RTTI Base Class Array'
rdata$r	ENDS
;	COMDAT ??_R2CNetworkPacketHeaderMap@@8
rdata$r	SEGMENT
??_R2CNetworkPacketHeaderMap@@8 DD FLAT:??_R1A@?0A@EA@CNetworkPacketHeaderMap@@8 ; CNetworkPacketHeaderMap::`RTTI Base Class Array'
rdata$r	ENDS
;	COMDAT ??_R2CMainPacketHeaderMap@@8
rdata$r	SEGMENT
??_R2CMainPacketHeaderMap@@8 DD FLAT:??_R1A@?0A@EA@CMainPacketHeaderMap@@8 ; CMainPacketHeaderMap::`RTTI Base Class Array'
	DD	FLAT:??_R1A@?0A@EA@CNetworkPacketHeaderMap@@8
rdata$r	ENDS
;	COMDAT ??_C@_0O@FEJHKOEO@BETTING_MONEY@
CONST	SEGMENT
??_C@_0O@FEJHKOEO@BETTING_MONEY@ DB 'BETTING_MONEY', 00H ; `string'
CONST	ENDS
;	COMDAT ??_C@_0BO@OMGIOKNA@PythonNetworkMainStream?5Clear@
CONST	SEGMENT
??_C@_0BO@OMGIOKNA@PythonNetworkMainStream?5Clear@ DB 'PythonNetworkMainS'
	DB	'tream Clear', 00H				; `string'
CONST	ENDS
;	COMDAT ??_C@_0O@PJEEOCNO@SetLoginPhase@
CONST	SEGMENT
??_C@_0O@PJEEOCNO@SetLoginPhase@ DB 'SetLoginPhase', 00H ; `string'
CONST	ENDS
;	COMDAT ??_C@_0P@MDCECFOM@OBSERVER_COUNT@
CONST	SEGMENT
??_C@_0P@MDCECFOM@OBSERVER_COUNT@ DB 'OBSERVER_COUNT', 00H ; `string'
CONST	ENDS
;	COMDAT ??_C@_07NNEFBBEG@OffLine@
CONST	SEGMENT
??_C@_07NNEFBBEG@OffLine@ DB 'OffLine', 00H		; `string'
CONST	ENDS
;	COMDAT ??_C@_0BO@NMFMGDDG@?$CD?$CD?5Network?5?9?5OffLine?5Phase?5?$CD?$CD@
CONST	SEGMENT
??_C@_0BO@NMFMGDDG@?$CD?$CD?5Network?5?9?5OffLine?5Phase?5?$CD?$CD@ DB '#'
	DB	'# Network - OffLine Phase ##', 00H		; `string'
CONST	ENDS
;	COMDAT ??_C@_0CG@IOPHKJBJ@?C?$LD?$LI?$KO?$LF?G?A?v?5?$LO?J?$MA?$LK?5?F?P?E?$LG?5?G?l?$LE?u?5?$CFd?0?5sta@
CONST	SEGMENT
??_C@_0CG@IOPHKJBJ@?C?$LD?$LI?$KO?$LF?G?A?v?5?$LO?J?$MA?$LK?5?F?P?E?$LG?5?G?l?$LE?u?5?$CFd?0?5sta@ DB 0c3H
	DB	0b3H, 0b8H, 0aeH, 0b5H, 0c7H, 0c1H, 0f6H, ' ', 0beH, 0caH, 0c0H
	DB	0baH, ' ', 0c6H, 0d0H, 0c5H, 0b6H, ' ', 0c7H, 0ecH, 0b4H, 0f5H
	DB	' %d, state %s', 0aH, 00H			; `string'
CONST	ENDS
;	COMDAT ??_C@_0N@HHLEGKEL@SetGamePhase@
CONST	SEGMENT
??_C@_0N@HHLEGKEL@SetGamePhase@ DB 'SetGamePhase', 00H	; `string'
CONST	ENDS
;	COMDAT ??_C@_0EA@JMANDMEJ@Phase?5?$CFs?5does?5not?5handle?5this?5h@
CONST	SEGMENT
??_C@_0EA@JMANDMEJ@Phase?5?$CFs?5does?5not?5handle?5this?5h@ DB 'Phase %s'
	DB	' does not handle this header (header: %d, last: %d, %d)', 00H ; `string'
CONST	ENDS
;	COMDAT ??_C@_0CF@JLNGLGD@recv?5ping?5packet?4?5?$CIsecuritymode@
CONST	SEGMENT
??_C@_0CF@JLNGLGD@recv?5ping?5packet?4?5?$CIsecuritymode@ DB 'recv ping p'
	DB	'acket. (securitymode %u)', 0aH, 00H		; `string'
CONST	ENDS
;	COMDAT ??_C@_0CH@LALGPME@Unknown?5packet?5header?3?5?$CFd?0?5last@
CONST	SEGMENT
??_C@_0CH@LALGPME@Unknown?5packet?5header?3?5?$CFd?0?5last@ DB 'Unknown p'
	DB	'acket header: %d, last: %d %d', 00H		; `string'
CONST	ENDS
;	COMDAT ??_C@_0FP@JGOINIOH@CPythonNetworkStream?3?3CheckPack@
CONST	SEGMENT
??_C@_0FP@JGOINIOH@CPythonNetworkStream?3?3CheckPack@ DB 'CPythonNetworkS'
	DB	'tream::CheckPacket - Not enough dynamic packet size: header %'
	DB	'd packet size: %d', 0aH, 00H		; `string'
CONST	ENDS
;	COMDAT ??_C@_07FOABJBDD@?1logout@
CONST	SEGMENT
??_C@_07FOABJBDD@?1logout@ DB '/logout', 00H		; `string'
CONST	ENDS
;	COMDAT ??_C@_0M@PCENNPGA@?$CFd?4?$CFd?4?$CFd?4?$CFd@
CONST	SEGMENT
??_C@_0M@PCENNPGA@?$CFd?4?$CFd?4?$CFd?4?$CFd@ DB '%d.%d.%d.%d', 00H ; `string'
CONST	ENDS
;	COMDAT ??_C@_05CMMBDMDD@?1quit@
CONST	SEGMENT
??_C@_05CMMBDMDD@?1quit@ DB '/quit', 00H		; `string'
CONST	ENDS
;	COMDAT ??_C@_0O@ODIJHOCP@?1phase_select@
CONST	SEGMENT
??_C@_0O@ODIJHOCP@?1phase_select@ DB '/phase_select', 00H ; `string'
PUBLIC	??_ECPythonNetworkStream@@WHM@AEPAXI@Z		; [thunk]:CPythonNetworkStream::`vector deleting destructor'
PUBLIC	?_Get_data@?$deque@V?$basic_string@DU?$char_traits@D@std@@V?$allocator@D@2@@std@@V?$allocator@V?$basic_string@DU?$char_traits@D@std@@V?$allocator@D@2@@std@@@2@@std@@ABEABV?$_Deque_val@U?$_Deque_simple_types@V?$basic_string@DU?$char_traits@D@std@@V?$allocator@D@2@@std@@@std@@@2@XZ ; std::deque<std::basic_string<char,std::char_traits<char>,std::allocator<char> >,std::allocator<std::basic_string<char,std::char_traits<char>,std::allocator<char> > > >::_Get_data
PUBLIC	?_Getblock@?$_Deque_val@U?$_Deque_simple_types@V?$basic_string@DU?$char_traits@D@std@@V?$allocator@D@2@@std@@@std@@@std@@QBEHI@Z ; std::_Deque_val<std::_Deque_simple_types<std::basic_string<char,std::char_traits<char>,std::allocator<char> > > >::_Getblock
PUBLIC	?_Mapsize@?$deque@V?$basic_string@DU?$char_traits@D@std@@V?$allocator@D@2@@std@@V?$allocator@V?$basic_string@DU?$char_traits@D@std@@V?$allocator@D@2@@std@@@2@@std@@AAEAAIXZ ; std::deque<std::basic_string<char,std::char_traits<char>,std::allocator<char> >,std::allocator<std::basic_string<char,std::char_traits<char>,std::allocator<char> > > >::_Mapsize
PUBLIC	?_Myoff@?$deque@V?$basic_string@DU?$char_traits@D@std@@V?$allocator@D@2@@std@@V?$allocator@V?$basic_string@DU?$char_traits@D@std@@V?$allocator@D@2@@std@@@2@@std@@AAEAAIXZ ; std::deque<std::basic_string<char,std::char_traits<char>,std::allocator<char> >,std::allocator<std::basic_string<char,std::char_traits<char>,std::allocator<char> > > >::_Myoff
PUBLIC	?_Mysize@?$deque@V?$basic_string@DU?$char_traits@D@std@@V?$allocator@D@2@@std@@V?$allocator@V?$basic_string@DU?$char_traits@D@std@@V?$allocator@D@2@@std@@@2@@std@@AAEAAIXZ ; std::deque<std::basic_string<char,std::char_traits<char>,std::allocator<char> >,std::allocator<std::basic_string<char,std::char_traits<char>,std::allocator<char> > > >::_Mysize
PUBLIC	?_Mysize@?$deque@V?$basic_string@DU?$char_traits@D@std@@V?$allocator@D@2@@std@@V?$allocator@V?$basic_string@DU?$char_traits@D@std@@V?$allocator@D@2@@std@@@2@@std@@ABEABIXZ ; std::deque<std::basic_string<char,std::char_traits<char>,std::allocator<char> >,std::allocator<std::basic_string<char,std::char_traits<char>,std::allocator<char> > > >::_Mysize
PUBLIC	?_Map_distance@?$deque@V?$basic_string@DU?$char_traits@D@std@@V?$allocator@D@2@@std@@V?$allocator@V?$basic_string@DU?$char_traits@D@std@@V?$allocator@D@2@@std@@@2@@std@@ABEHXZ ; std::deque<std::basic_string<char,std::char_traits<char>,std::allocator<char> >,std::allocator<std::basic_string<char,std::char_traits<char>,std::allocator<char> > > >::_Map_distance
PUBLIC	?deallocate@?$allocator@PAV?$basic_string@DU?$char_traits@D@std@@V?$allocator@D@2@@std@@@std@@QAEXQAPAV?$basic_string@DU?$char_traits@D@std@@V?$allocator@D@2@@2@I@Z ; std::allocator<std::basic_string<char,std::char_traits<char>,std::allocator<char> > *>::deallocate
PUBLIC	?_Address_subscript@?$_Deque_val@U?$_Deque_simple_types@V?$basic_string@DU?$char_traits@D@std@@V?$allocator@D@2@@std@@@std@@@std@@QAEPAV?$basic_string@DU?$char_traits@D@std@@V?$allocator@D@2@@2@I@Z ; std::_Deque_val<std::_Deque_simple_types<std::basic_string<char,std::char_traits<char>,std::allocator<char> > > >::_Address_subscript
PUBLIC	??$?0V?$basic_string@DU?$char_traits@D@std@@V?$allocator@D@2@@std@@@?$allocator@PAV?$basic_string@DU?$char_traits@D@std@@V?$allocator@D@2@@std@@@std@@QAE@ABV?$allocator@V?$basic_string@DU?$char_traits@D@std@@V?$allocator@D@2@@std@@@1@@Z ; std::allocator<std::basic_string<char,std::char_traits<char>,std::allocator<char> > *>::allocator<std::basic_string<char,std::char_traits<char>,std::allocator<char> > *><std::basic_string<char,std::char_traits<char>,std::allocator<char> > >
PUBLIC	??$_Destroy_in_place@PAV?$basic_string@DU?$char_traits@D@std@@V?$allocator@D@2@@std@@@std@@YAXAAPAV?$basic_string@DU?$char_traits@D@std@@V?$allocator@D@2@@0@@Z ; std::_Destroy_in_place<std::basic_string<char,std::char_traits<char>,std::allocator<char> > *>
PUBLIC	?empty@?$deque@V?$basic_string@DU?$char_traits@D@std@@V?$allocator@D@2@@std@@V?$allocator@V?$basic_string@DU?$char_traits@D@std@@V?$allocator@D@2@@std@@@2@@std@@QBE_NXZ ; std::deque<std::basic_string<char,std::char_traits<char>,std::allocator<char> >,std::allocator<std::basic_string<char,std::char_traits<char>,std::allocator<char> > > >::empty
PUBLIC	?pop_back@?$deque@V?$basic_string@DU?$char_traits@D@std@@V?$allocator@D@2@@std@@V?$allocator@V?$basic_string@DU?$char_traits@D@std@@V?$allocator@D@2@@std@@@2@@std@@QAEXXZ ; std::deque<std::basic_string<char,std::char_traits<char>,std::allocator<char> >,std::allocator<std::basic_string<char,std::char_traits<char>,std::allocator<char> > > >::pop_back
PUBLIC	?_Reset_map@?$deque@V?$basic_string@DU?$char_traits@D@std@@V?$allocator@D@2@@std@@V?$allocator@V?$basic_string@DU?$char_traits@D@std@@V?$allocator@D@2@@std@@@2@@std@@AAEXXZ ; std::deque<std::basic_string<char,std::char_traits<char>,std::allocator<char> >,std::allocator<std::basic_string<char,std::char_traits<char>,std::allocator<char> > > >::_Reset_map
PUBLIC	?_Orphan_all@?$deque@V?$basic_string@DU?$char_traits@D@std@@V?$allocator@D@2@@std@@V?$allocator@V?$basic_string@DU?$char_traits@D@std@@V?$allocator@D@2@@std@@@2@@std@@AAEXXZ ; std::deque<std::basic_string<char,std::char_traits<char>,std::allocator<char> >,std::allocator<std::basic_string<char,std::char_traits<char>,std::allocator<char> > > >::_Orphan_all
PUBLIC	?_Map@?$deque@V?$basic_string@DU?$char_traits@D@std@@V?$allocator@D@2@@std@@V?$allocator@V?$basic_string@DU?$char_traits@D@std@@V?$allocator@D@2@@std@@@2@@std@@AAEAAPAPAV?$basic_string@DU?$char_traits@D@std@@V?$allocator@D@2@@2@XZ ; std::deque<std::basic_string<char,std::char_traits<char>,std::allocator<char> >,std::allocator<std::basic_string<char,std::char_traits<char>,std::allocator<char> > > >::_Map
PUBLIC	??0?$_Deque_val@U?$_Deque_simple_types@V?$basic_string@DU?$char_traits@D@std@@V?$allocator@D@2@@std@@@std@@@std@@QAE@XZ ; std::_Deque_val<std::_Deque_simple_types<std::basic_string<char,std::char_traits<char>,std::allocator<char> > > >::_Deque_val<std::_Deque_simple_types<std::basic_string<char,std::char_traits<char>,std::allocator<char> > > >
PUBLIC	?_Get_first@?$_Compressed_pair@V?$allocator@V?$basic_string@DU?$char_traits@D@std@@V?$allocator@D@2@@std@@@std@@V?$_Deque_val@U?$_Deque_simple_types@V?$basic_string@DU?$char_traits@D@std@@V?$allocator@D@2@@std@@@std@@@2@$00@std@@QAEAAV?$allocator@V?$basic_string@DU?$char_traits@D@std@@V?$allocator@D@2@@std@@@2@XZ ; std::_Compressed_pair<std::allocator<std::basic_string<char,std::char_traits<char>,std::allocator<char> > >,std::_Deque_val<std::_Deque_simple_types<std::basic_string<char,std::char_traits<char>,std::allocator<char> > > >,1>::_Get_first
PUBLIC	??$to_address@PAU_object@@@std@@YAPAPAU_object@@QAPAU1@@Z ; std::to_address<_object *>
PUBLIC	?Clear@?$CRef@VCNetworkActorManager@@@@QAEXXZ	; CRef<CNetworkActorManager>::Clear
PUBLIC	?SetPointer@?$CRef@VCNetworkActorManager@@@@QAEXPAVCReferenceObject@@@Z ; CRef<CNetworkActorManager>::SetPointer
PUBLIC	?_Tidy@?$deque@V?$basic_string@DU?$char_traits@D@std@@V?$allocator@D@2@@std@@V?$allocator@V?$basic_string@DU?$char_traits@D@std@@V?$allocator@D@2@@std@@@2@@std@@AAEXXZ ; std::deque<std::basic_string<char,std::char_traits<char>,std::allocator<char> >,std::allocator<std::basic_string<char,std::char_traits<char>,std::allocator<char> > > >::_Tidy
PUBLIC	?_Getal@?$deque@V?$basic_string@DU?$char_traits@D@std@@V?$allocator@D@2@@std@@V?$allocator@V?$basic_string@DU?$char_traits@D@std@@V?$allocator@D@2@@std@@@2@@std@@AAEAAV?$allocator@V?$basic_string@DU?$char_traits@D@std@@V?$allocator@D@2@@std@@@2@XZ ; std::deque<std::basic_string<char,std::char_traits<char>,std::allocator<char> >,std::allocator<std::basic_string<char,std::char_traits<char>,std::allocator<char> > > >::_Getal
PUBLIC	?_Get_data@?$deque@V?$basic_string@DU?$char_traits@D@std@@V?$allocator@D@2@@std@@V?$allocator@V?$basic_string@DU?$char_traits@D@std@@V?$allocator@D@2@@std@@@2@@std@@AAEAAV?$_Deque_val@U?$_Deque_simple_types@V?$basic_string@DU?$char_traits@D@std@@V?$allocator@D@2@@std@@@std@@@2@XZ ; std::deque<std::basic_string<char,std::char_traits<char>,std::allocator<char> >,std::allocator<std::basic_string<char,std::char_traits<char>,std::allocator<char> > > >::_Get_data
PUBLIC	??$?0$$V@?$_Compressed_pair@V?$allocator@V?$basic_string@DU?$char_traits@D@std@@V?$allocator@D@2@@std@@@std@@V?$_Deque_val@U?$_Deque_simple_types@V?$basic_string@DU?$char_traits@D@std@@V?$allocator@D@2@@std@@@std@@@2@$00@std@@QAE@U_Zero_then_variadic_args_t@1@@Z ; std::_Compressed_pair<std::allocator<std::basic_string<char,std::char_traits<char>,std::allocator<char> > >,std::_Deque_val<std::_Deque_simple_types<std::basic_string<char,std::char_traits<char>,std::allocator<char> > > >,1>::_Compressed_pair<std::allocator<std::basic_string<char,std::char_traits<char>,std::allocator<char> > >,std::_Deque_val<std::_Deque_simple_types<std::basic_string<char,std::char_traits<char>,std::allocator<char> > > >,1><>
PUBLIC	??$?0V?$basic_string@DU?$char_traits@D@std@@V?$allocator@D@2@@std@@@?$allocator@U_Container_proxy@std@@@std@@QAE@ABV?$allocator@V?$basic_string@DU?$char_traits@D@std@@V?$allocator@D@2@@std@@@1@@Z ; std::allocator<std::_Container_proxy>::allocator<std::_Container_proxy><std::basic_string<char,std::char_traits<char>,std::allocator<char> > >
PUBLIC	??$_To_address@PAPAU_object@@@std@@YA?A_PABQAPAU_object@@@Z ; std::_To_address<_object * *>
PUBLIC	??$_Fill_zero_memset@PAPAU_object@@@std@@YAXPAPAU_object@@I@Z ; std::_Fill_zero_memset<_object * *>
PUBLIC	??$_Is_all_bits_zero@PAU_object@@@std@@YA_NABQAU_object@@@Z ; std::_Is_all_bits_zero<_object *>
PUBLIC	??$_Adl_verify_range@PAPAU_object@@PAPAU1@@std@@YAXABQAPAU_object@@0@Z ; std::_Adl_verify_range<_object * *,_object * *>
PUBLIC	??_G?$CSingleton@VCPythonNetworkStream@@@@UAEPAXI@Z ; CSingleton<CPythonNetworkStream>::`scalar deleting destructor'
PUBLIC	??_G?$CFuncObject@VCPythonNetworkStream@@@@UAEPAXI@Z ; CFuncObject<CPythonNetworkStream>::`scalar deleting destructor'
PUBLIC	??0?$CSingleton@VCPythonNetworkStream@@@@QAE@XZ	; CSingleton<CPythonNetworkStream>::CSingleton<CPythonNetworkStream>
PUBLIC	??1?$CSingleton@VCPythonNetworkStream@@@@UAE@XZ	; CSingleton<CPythonNetworkStream>::~CSingleton<CPythonNetworkStream>
PUBLIC	??0?$CFuncObject@VCPythonNetworkStream@@@@QAE@XZ ; CFuncObject<CPythonNetworkStream>::CFuncObject<CPythonNetworkStream>
PUBLIC	??1?$CFuncObject@VCPythonNetworkStream@@@@UAE@XZ ; CFuncObject<CPythonNetworkStream>::~CFuncObject<CPythonNetworkStream>
PUBLIC	?Clear@?$CFuncObject@VCPythonNetworkStream@@@@QAEXXZ ; CFuncObject<CPythonNetworkStream>::Clear
PUBLIC	?Set@?$CFuncObject@VCPythonNetworkStream@@@@QAEXPAVCPythonNetworkStream@@P82@AEXXZ@Z ; CFuncObject<CPythonNetworkStream>::Set
PUBLIC	?IsEmpty@?$CFuncObject@VCPythonNetworkStream@@@@QAE_NXZ ; CFuncObject<CPythonNetworkStream>::IsEmpty
PUBLIC	?Run@?$CFuncObject@VCPythonNetworkStream@@@@QAEXXZ ; CFuncObject<CPythonNetworkStream>::Run
PUBLIC	??0?$CRef@VCNetworkActorManager@@@@QAE@XZ	; CRef<CNetworkActorManager>::CRef<CNetworkActorManager>
PUBLIC	??1?$CRef@VCNetworkActorManager@@@@QAE@XZ	; CRef<CNetworkActorManager>::~CRef<CNetworkActorManager>
PUBLIC	??4?$CRef@VCNetworkActorManager@@@@QAEXPAVCReferenceObject@@@Z ; CRef<CNetworkActorManager>::operator=
PUBLIC	??C?$CRef@VCNetworkActorManager@@@@QBEPAVCNetworkActorManager@@XZ ; CRef<CNetworkActorManager>::operator->
PUBLIC	??0?$deque@V?$basic_string@DU?$char_traits@D@std@@V?$allocator@D@2@@std@@V?$allocator@V?$basic_string@DU?$char_traits@D@std@@V?$allocator@D@2@@std@@@2@@std@@QAE@XZ ; std::deque<std::basic_string<char,std::char_traits<char>,std::allocator<char> >,std::allocator<std::basic_string<char,std::char_traits<char>,std::allocator<char> > > >::deque<std::basic_string<char,std::char_traits<char>,std::allocator<char> >,std::allocator<std::basic_string<char,std::char_traits<char>,std::allocator<char> > > >
PUBLIC	??1?$deque@V?$basic_string@DU?$char_traits@D@std@@V?$allocator@D@2@@std@@V?$allocator@V?$basic_string@DU?$char_traits@D@std@@V?$allocator@D@2@@std@@@2@@std@@QAE@XZ ; std::deque<std::basic_string<char,std::char_traits<char>,std::allocator<char> >,std::allocator<std::basic_string<char,std::char_traits<char>,std::allocator<char> > > >::~deque<std::basic_string<char,std::char_traits<char>,std::allocator<char> >,std::allocator<std::basic_string<char,std::char_traits<char>,std::allocator<char> > > >
PUBLIC	?Instance@?$CSingleton@VCGuildMarkDownloader@@@@SAAAVCGuildMarkDownloader@@XZ ; CSingleton<CGuildMarkDownloader>::Instance
PUBLIC	?Instance@?$CSingleton@VCGuildMarkUploader@@@@SAAAVCGuildMarkUploader@@XZ ; CSingleton<CGuildMarkUploader>::Instance
PUBLIC	??$fill@PAPAU_object@@PAU1@@std@@YAXQAPAU_object@@0ABQAU1@@Z ; std::fill<_object * *,_object *>
PUBLIC	??$_Get_unwrapped@ABQAPAU_object@@@std@@YA?A_TABQAPAU_object@@@Z ; std::_Get_unwrapped<_object * * const &>
PUBLIC	??1SMarkAuth@CPythonNetworkStream@@QAE@XZ	; CPythonNetworkStream::SMarkAuth::~SMarkAuth
PUBLIC	??0SMarkAuth@CPythonNetworkStream@@QAE@XZ	; CPythonNetworkStream::SMarkAuth::SMarkAuth
PUBLIC	??_GCPythonNetworkStream@@UAEPAXI@Z		; CPythonNetworkStream::`scalar deleting destructor'
PUBLIC	?SendEmoticon@CPythonNetworkStream@@QAEXI@Z	; CPythonNetworkStream::SendEmoticon
PUBLIC	?__ServerTimeSync_Initialize@CPythonNetworkStream@@IAEXXZ ; CPythonNetworkStream::__ServerTimeSync_Initialize
PUBLIC	?EXPORT_GetBettingGuildWarValue@CPythonNetworkStream@@QAEKPBD@Z ; CPythonNetworkStream::EXPORT_GetBettingGuildWarValue
PUBLIC	?__BettingGuildWar_Initialize@CPythonNetworkStream@@AAEXXZ ; CPythonNetworkStream::__BettingGuildWar_Initialize
PUBLIC	?__InitializeMarkAuth@CPythonNetworkStream@@IAEXXZ ; CPythonNetworkStream::__InitializeMarkAuth
PUBLIC	?__DirectEnterMode_IsSet@CPythonNetworkStream@@AAE_NXZ ; CPythonNetworkStream::__DirectEnterMode_IsSet
PUBLIC	?__DirectEnterMode_Set@CPythonNetworkStream@@AAEXI@Z ; CPythonNetworkStream::__DirectEnterMode_Set
PUBLIC	?__DirectEnterMode_Initialize@CPythonNetworkStream@@AAEXXZ ; CPythonNetworkStream::__DirectEnterMode_Initialize
PUBLIC	?__ClearSelectCharacterData@CPythonNetworkStream@@IAEXXZ ; CPythonNetworkStream::__ClearSelectCharacterData
PUBLIC	?GetEmpireID@CPythonNetworkStream@@QAEKXZ	; CPythonNetworkStream::GetEmpireID
PUBLIC	?SetEmpireID@CPythonNetworkStream@@QAEXK@Z	; CPythonNetworkStream::SetEmpireID
PUBLIC	?GetMainActorSkillGroup@CPythonNetworkStream@@QAEKXZ ; CPythonNetworkStream::GetMainActorSkillGroup
PUBLIC	?GetMainActorEmpire@CPythonNetworkStream@@QAEKXZ ; CPythonNetworkStream::GetMainActorEmpire
PUBLIC	?GetMainActorRace@CPythonNetworkStream@@QAEKXZ	; CPythonNetworkStream::GetMainActorRace
PUBLIC	?GetMainActorVID@CPythonNetworkStream@@QAEKXZ	; CPythonNetworkStream::GetMainActorVID
PUBLIC	?SetHandler@CPythonNetworkStream@@QAEXPAU_object@@@Z ; CPythonNetworkStream::SetHandler
PUBLIC	?SetGameOffline@CPythonNetworkStream@@IAEXXZ	; CPythonNetworkStream::SetGameOffline
PUBLIC	?SetGameOnline@CPythonNetworkStream@@IAEXXZ	; CPythonNetworkStream::SetGameOnline
PUBLIC	?ClosePhase@CPythonNetworkStream@@QAEXXZ	; CPythonNetworkStream::ClosePhase
PUBLIC	?SetOffLinePhase@CPythonNetworkStream@@QAEXXZ	; CPythonNetworkStream::SetOffLinePhase
PUBLIC	?OnProcess@CPythonNetworkStream@@MAE_NXZ	; CPythonNetworkStream::OnProcess
PUBLIC	?RecvDefaultPacket@CPythonNetworkStream@@IAE_NH@Z ; CPythonNetworkStream::RecvDefaultPacket
PUBLIC	?RecvPingPacket@CPythonNetworkStream@@IAE_NXZ	; CPythonNetworkStream::RecvPingPacket
PUBLIC	?RecvPhasePacket@CPythonNetworkStream@@IAE_NXZ	; CPythonNetworkStream::RecvPhasePacket
PUBLIC	?RecvErrorPacket@CPythonNetworkStream@@IAE_NH@Z	; CPythonNetworkStream::RecvErrorPacket
PUBLIC	?CheckPacket@CPythonNetworkStream@@IAE_NPAE@Z	; CPythonNetworkStream::CheckPacket
PUBLIC	?SetLoginInfo@CPythonNetworkStream@@QAEXPBD0@Z	; CPythonNetworkStream::SetLoginInfo
PUBLIC	?ConnectGameServer@CPythonNetworkStream@@QAEXI@Z ; CPythonNetworkStream::ConnectGameServer
PUBLIC	?SetMarkServer@CPythonNetworkStream@@QAEXPBDI@Z	; CPythonNetworkStream::SetMarkServer
PUBLIC	?ConnectLoginServer@CPythonNetworkStream@@QAEXPBDI@Z ; CPythonNetworkStream::ConnectLoginServer
PUBLIC	?GetAccountCharacterSlotDataz@CPythonNetworkStream@@QAEPBDII@Z ; CPythonNetworkStream::GetAccountCharacterSlotDataz
PUBLIC	?GetAccountCharacterSlotDatau@CPythonNetworkStream@@QAEIII@Z ; CPythonNetworkStream::GetAccountCharacterSlotDatau
PUBLIC	?IsSelectedEmpire@CPythonNetworkStream@@QAE_NXZ	; CPythonNetworkStream::IsSelectedEmpire
PUBLIC	?SetServerCommandParserWindow@CPythonNetworkStream@@QAEXPAU_object@@@Z ; CPythonNetworkStream::SetServerCommandParserWindow
PUBLIC	?ClearPhaseWindow@CPythonNetworkStream@@QAEXIPAU_object@@@Z ; CPythonNetworkStream::ClearPhaseWindow
PUBLIC	?SetPhaseWindow@CPythonNetworkStream@@QAEXIPAU_object@@@Z ; CPythonNetworkStream::SetPhaseWindow
PUBLIC	?__DownloadSymbol@CPythonNetworkStream@@IAEXABV?$vector@KV?$allocator@K@std@@@std@@@Z ; CPythonNetworkStream::__DownloadSymbol
PUBLIC	?__DownloadMark@CPythonNetworkStream@@IAEXXZ	; CPythonNetworkStream::__DownloadMark
PUBLIC	?UploadSymbol@CPythonNetworkStream@@QAEIPBD@Z	; CPythonNetworkStream::UploadSymbol
PUBLIC	?UploadMark@CPythonNetworkStream@@QAEIPBD@Z	; CPythonNetworkStream::UploadMark
PUBLIC	?GetGuildID@CPythonNetworkStream@@QAEKXZ	; CPythonNetworkStream::GetGuildID
PUBLIC	?__IsNotPing@CPythonNetworkStream@@IAE_NXZ	; CPythonNetworkStream::__IsNotPing
PUBLIC	?AbsoluteExitApplication@CPythonNetworkStream@@QAEXXZ ; CPythonNetworkStream::AbsoluteExitApplication
PUBLIC	?AbsoluteExitGame@CPythonNetworkStream@@QAEXXZ	; CPythonNetworkStream::AbsoluteExitGame
PUBLIC	?LogOutGame@CPythonNetworkStream@@QAEXXZ	; CPythonNetworkStream::LogOutGame
PUBLIC	?ExitGame@CPythonNetworkStream@@QAEXXZ		; CPythonNetworkStream::ExitGame
PUBLIC	?ExitApplication@CPythonNetworkStream@@QAEXXZ	; CPythonNetworkStream::ExitApplication
PUBLIC	??1CMainPacketHeaderMap@@UAE@XZ			; CMainPacketHeaderMap::~CMainPacketHeaderMap
PUBLIC	??_GCMainPacketHeaderMap@@UAEPAXI@Z		; CMainPacketHeaderMap::`scalar deleting destructor'
PUBLIC	??0CMainPacketHeaderMap@@QAE@XZ			; CMainPacketHeaderMap::CMainPacketHeaderMap
PUBLIC	?__LeaveOfflinePhase@CPythonNetworkStream@@IAEXXZ ; CPythonNetworkStream::__LeaveOfflinePhase
PUBLIC	??0SPacketType@CNetworkPacketHeaderMap@@QAE@H_N@Z ; CNetworkPacketHeaderMap::SPacketType::SPacketType
PUBLIC	??0CPythonNetworkStream@@QAE@XZ			; CPythonNetworkStream::CPythonNetworkStream
PUBLIC	??1CPythonNetworkStream@@UAE@XZ			; CPythonNetworkStream::~CPythonNetworkStream
PUBLIC	?SetWaitFlag@CPythonNetworkStream@@QAEXXZ	; CPythonNetworkStream::SetWaitFlag
PUBLIC	?ClearLoginInfo@CPythonNetworkStream@@QAEXXZ	; CPythonNetworkStream::ClearLoginInfo
PUBLIC	?SetLoginKey@CPythonNetworkStream@@QAEXK@Z	; CPythonNetworkStream::SetLoginKey
EXTRN	??_ECPythonNetworkStream@@UAEPAXI@Z:PROC	; CPythonNetworkStream::`vector deleting destructor'
EXTRN	??_E?$CSingleton@VCPythonNetworkStream@@@@UAEPAXI@Z:PROC ; CSingleton<CPythonNetworkStream>::`vector deleting destructor'
EXTRN	??_E?$CFuncObject@VCPythonNetworkStream@@@@UAEPAXI@Z:PROC ; CFuncObject<CPythonNetworkStream>::`vector deleting destructor'
EXTRN	??_ECMainPacketHeaderMap@@UAEPAXI@Z:PROC	; CMainPacketHeaderMap::`vector deleting destructor'
?gs_nextDownloadMarkTime@@3KA DD 01H DUP (?)		; gs_nextDownloadMarkTime
_BSS	ENDS
;	COMDAT ?s_szAddr@?6??GetAccountCharacterSlotDataz@CPythonNetworkStream@@QAEPBDII@Z@4PADA
_BSS	SEGMENT
?s_szAddr@?6??GetAccountCharacterSlotDataz@CPythonNetworkStream@@QAEPBDII@Z@4PADA DB 0100H DUP (?) ; `CPythonNetworkStream::GetAccountCharacterSlotDataz'::`7'::s_szAddr
_BSS	ENDS
;	COMDAT ?$TSS0@?1??CheckPacket@CPythonNetworkStream@@IAE_NPAE@Z@4HA
_BSS	SEGMENT
?$TSS0@?1??CheckPacket@CPythonNetworkStream@@IAE_NPAE@Z@4HA DD 01H DUP (?) ; `CPythonNetworkStream::CheckPacket'::`2'::$TSS0
_BSS	ENDS
;	COMDAT ?s_packetHeaderMap@?1??CheckPacket@CPythonNetworkStream@@IAE_NPAE@Z@4VCMainPacketHeaderMap@@A
_BSS	SEGMENT
?s_packetHeaderMap@?1??CheckPacket@CPythonNetworkStream@@IAE_NPAE@Z@4VCMainPacketHeaderMap@@A DB 0cH DUP (?) ; `CPythonNetworkStream::CheckPacket'::`2'::s_packetHeaderMap
_BSS	ENDS
;	COMDAT xdata$x
xdata$x	SEGMENT
__ehfuncinfo$??1CPythonNetworkStream@@UAE@XZ DD 019930522H
	DD	01H
	DD	FLAT:__unwindtable$??1CPythonNetworkStream@@UAE@XZ
	DD	2 DUP(00H)
	DD	2 DUP(00H)
	DD	00H
	DD	05H
__unwindtable$??1CPythonNetworkStream@@UAE@XZ DD 0ffffffffH
	DD	FLAT:___std_terminate
xdata$x	ENDS
;	COMDAT xdata$x
xdata$x	SEGMENT
__ehfuncinfo$??0CPythonNetworkStream@@QAE@XZ DD 019930522H
	DD	010H
	DD	FLAT:__unwindtable$??0CPythonNetworkStream@@QAE@XZ
	DD	2 DUP(00H)
	DD	2 DUP(00H)
	DD	00H
	DD	01H
	ORG $+4
__unwindtable$??0CPythonNetworkStream@@QAE@XZ DD 0ffffffffH
	DD	FLAT:__unwindfunclet$??0CPythonNetworkStream@@QAE@XZ$0
	DD	00H
	DD	FLAT:__unwindfunclet$??0CPythonNetworkStream@@QAE@XZ$1
	DD	01H
	DD	FLAT:__unwindfunclet$??0CPythonNetworkStream@@QAE@XZ$2
	DD	02H
	DD	FLAT:__unwindfunclet$??0CPythonNetworkStream@@QAE@XZ$3
	DD	03H
	DD	FLAT:__unwindfunclet$??0CPythonNetworkStream@@QAE@XZ$4
	DD	04H
	DD	FLAT:__unwindfunclet$??0CPythonNetworkStream@@QAE@XZ$5
	DD	05H
	DD	FLAT:__unwindfunclet$??0CPythonNetworkStream@@QAE@XZ$6
	DD	06H
	DD	FLAT:__unwindfunclet$??0CPythonNetworkStream@@QAE@XZ$7
	DD	07H
	DD	FLAT:__unwindfunclet$??0CPythonNetworkStream@@QAE@XZ$8
	DD	08H
	DD	FLAT:__unwindfunclet$??0CPythonNetworkStream@@QAE@XZ$9
	DD	09H
	DD	FLAT:__unwindfunclet$??0CPythonNetworkStream@@QAE@XZ$10
	DD	0aH
	DD	FLAT:__unwindfunclet$??0CPythonNetworkStream@@QAE@XZ$11
	DD	0bH
	DD	FLAT:__unwindfunclet$??0CPythonNetworkStream@@QAE@XZ$12
	DD	0cH
	DD	FLAT:__unwindfunclet$??0CPythonNetworkStream@@QAE@XZ$13
	DD	0dH
	DD	FLAT:__unwindfunclet$??0CPythonNetworkStream@@QAE@XZ$14
	DD	0eH
	DD	FLAT:__unwindfunclet$??0CPythonNetworkStream@@QAE@XZ$15
xdata$x	ENDS
;	COMDAT xdata$x
xdata$x	SEGMENT
__ehfuncinfo$??0CMainPacketHeaderMap@@QAE@XZ DD 019930522H
	DD	01H
	DD	FLAT:__unwindtable$??0CMainPacketHeaderMap@@QAE@XZ
	DD	2 DUP(00H)
	DD	2 DUP(00H)
	DD	00H
	DD	01H
__unwindtable$??0CMainPacketHeaderMap@@QAE@XZ DD 0ffffffffH
	DD	FLAT:__unwindfunclet$??0CMainPacketHeaderMap@@QAE@XZ$0
xdata$x	ENDS
;	COMDAT xdata$x
xdata$x	SEGMENT
__ehfuncinfo$?CheckPacket@CPythonNetworkStream@@IAE_NPAE@Z DD 019930522H
	DD	01H
	DD	FLAT:__unwindtable$?CheckPacket@CPythonNetworkStream@@IAE_NPAE@Z
	DD	2 DUP(00H)
	DD	2 DUP(00H)
	DD	00H
	DD	01H
__unwindtable$?CheckPacket@CPythonNetworkStream@@IAE_NPAE@Z DD 0ffffffffH
	DD	FLAT:__unwindfunclet$?CheckPacket@CPythonNetworkStream@@IAE_NPAE@Z$0
xdata$x	ENDS
;	COMDAT xdata$x
xdata$x	SEGMENT
__ehfuncinfo$??1?$CRef@VCNetworkActorManager@@@@QAE@XZ DD 019930522H
	DD	00H
	DD	00H
	DD	2 DUP(00H)
	DD	2 DUP(00H)
	DD	00H
	DD	05H
; Function compile flags: /Ogtp
; File D:\_m2work\Server Client TMP4\ClientVS22\source\UserInterface\PythonNetworkStream.cpp
;	COMDAT ?SetLoginKey@CPythonNetworkStream@@QAEXK@Z
_TEXT	SEGMENT
_dwLoginKey$ = 8					; size = 4
?SetLoginKey@CPythonNetworkStream@@QAEXK@Z PROC		; CPythonNetworkStream::SetLoginKey, COMDAT
; _this$ = ecx

; 494  : {

  00000	55		 push	 ebp
  00001	8b ec		 mov	 ebp, esp

; 495  : 	m_dwLoginKey = dwLoginKey;

  00003	8b 45 08	 mov	 eax, DWORD PTR _dwLoginKey$[ebp]
  00006	89 81 24 01 00
	00		 mov	 DWORD PTR [ecx+292], eax

; 496  : }

  0000c	5d		 pop	 ebp
  0000d	c2 04 00	 ret	 4
?SetLoginKey@CPythonNetworkStream@@QAEXK@Z ENDP		; CPythonNetworkStream::SetLoginKey
_TEXT	ENDS
; Function compile flags: /Ogtp
; File D:\_m2work\Server Client TMP4\ClientVS22\source\UserInterface\PythonNetworkStream.cpp
; File C:\Program Files\Microsoft Visual Studio\2022\Community\VC\Tools\MSVC\14.44.35207\include\xstring
; File D:\_m2work\Server Client TMP4\ClientVS22\source\UserInterface\PythonNetworkStream.cpp
; File C:\Program Files\Microsoft Visual Studio\2022\Community\VC\Tools\MSVC\14.44.35207\include\xstring
; File D:\_m2work\Server Client TMP4\ClientVS22\source\UserInterface\PythonNetworkStream.cpp
;	COMDAT ?ClearLoginInfo@CPythonNetworkStream@@QAEXXZ
_TEXT	SEGMENT
?ClearLoginInfo@CPythonNetworkStream@@QAEXXZ PROC	; CPythonNetworkStream::ClearLoginInfo, COMDAT
; _this$ = ecx
; File C:\Program Files\Microsoft Visual Studio\2022\Community\VC\Tools\MSVC\14.44.35207\include\xstring

; 1638 :         return assign(_Ptr, _Convert_size<size_type>(_Traits::length(_Ptr)));

  00000	6a 00		 push	 0
  00002	68 00 00 00 00	 push	 OFFSET ??_C@_00CNPNBAHC@@
; File D:\_m2work\Server Client TMP4\ClientVS22\source\UserInterface\PythonNetworkStream.cpp

; 490  : 	m_stPassword = "";

  00007	81 c1 dc 00 00
	00		 add	 ecx, 220		; 000000dcH
; File C:\Program Files\Microsoft Visual Studio\2022\Community\VC\Tools\MSVC\14.44.35207\include\xstring

; 1638 :         return assign(_Ptr, _Convert_size<size_type>(_Traits::length(_Ptr)));

  0000d	e8 00 00 00 00	 call	 ?assign@?$basic_string@DU?$char_traits@D@std@@V?$allocator@D@2@@std@@QAEAAV12@QBDI@Z ; std::basic_string<char,std::char_traits<char>,std::allocator<char> >::assign
; File D:\_m2work\Server Client TMP4\ClientVS22\source\UserInterface\PythonNetworkStream.cpp

; 491  : }

  00012	c3		 ret	 0
?ClearLoginInfo@CPythonNetworkStream@@QAEXXZ ENDP	; CPythonNetworkStream::ClearLoginInfo
_TEXT	ENDS
; Function compile flags: /Ogtp
; File D:\_m2work\Server Client TMP4\ClientVS22\source\UserInterface\PythonNetworkStream.cpp
;	COMDAT ?SetWaitFlag@CPythonNetworkStream@@QAEXXZ
_TEXT	SEGMENT
?SetWaitFlag@CPythonNetworkStream@@QAEXXZ PROC		; CPythonNetworkStream::SetWaitFlag, COMDAT
; _this$ = ecx

; 859  : 	m_isWaitLoginKey = TRUE;

  00000	c7 81 28 01 00
	00 01 00 00 00	 mov	 DWORD PTR [ecx+296], 1

; 860  : }

  0000a	c3		 ret	 0
?SetWaitFlag@CPythonNetworkStream@@QAEXXZ ENDP		; CPythonNetworkStream::SetWaitFlag
_TEXT	ENDS
; Function compile flags: /Ogtp
; File D:\_m2work\Server Client TMP4\ClientVS22\source\UserInterface\PythonNetworkStream.cpp
; File C:\Program Files\Microsoft Visual Studio\2022\Community\VC\Tools\MSVC\14.44.35207\include\vector
; File D:\_m2work\Server Client TMP4\ClientVS22\source\eterlib\Ref.h
; File D:\_m2work\Server Client TMP4\ClientVS22\source\UserInterface\PythonNetworkStream.cpp
; File D:\_m2work\Server Client TMP4\ClientVS22\source\eterlib\Ref.h
; File D:\_m2work\Server Client TMP4\ClientVS22\source\UserInterface\PythonNetworkStream.cpp
; File D:\_m2work\Server Client TMP4\ClientVS22\source\EterLib\FuncObject.h
; File D:\_m2work\Server Client TMP4\ClientVS22\source\UserInterface\PythonNetworkStream.cpp
; File C:\Program Files\Microsoft Visual Studio\2022\Community\VC\Tools\MSVC\14.44.35207\include\xstring
; File D:\_m2work\Server Client TMP4\ClientVS22\source\UserInterface\PythonNetworkStream.cpp
; File C:\Program Files\Microsoft Visual Studio\2022\Community\VC\Tools\MSVC\14.44.35207\include\xstring
; File D:\_m2work\Server Client TMP4\ClientVS22\source\UserInterface\PythonNetworkStream.cpp
; File C:\Program Files\Microsoft Visual Studio\2022\Community\VC\Tools\MSVC\14.44.35207\include\xstring
; File D:\_m2work\Server Client TMP4\ClientVS22\source\UserInterface\PythonNetworkStream.cpp
; File C:\Program Files\Microsoft Visual Studio\2022\Community\VC\Tools\MSVC\14.44.35207\include\xstring
; File D:\_m2work\Server Client TMP4\ClientVS22\source\UserInterface\PythonNetworkStream.cpp
; File C:\Program Files\Microsoft Visual Studio\2022\Community\VC\Tools\MSVC\14.44.35207\include\xstring
; File D:\_m2work\Server Client TMP4\ClientVS22\source\UserInterface\PythonNetworkStream.cpp
; File D:\_m2work\Server Client TMP4\ClientVS22\source\eterBase\Singleton.h
; File D:\_m2work\Server Client TMP4\ClientVS22\source\UserInterface\PythonNetworkStream.cpp
;	COMDAT ??1CPythonNetworkStream@@UAE@XZ
_TEXT	SEGMENT
__$EHRec$ = -12						; size = 12
??1CPythonNetworkStream@@UAE@XZ PROC			; CPythonNetworkStream::~CPythonNetworkStream, COMDAT
; _this$ = ecx

; 909  : {

  00000	55		 push	 ebp
  00001	8b ec		 mov	 ebp, esp
  00003	6a ff		 push	 -1
  00005	68 00 00 00 00	 push	 __ehhandler$??1CPythonNetworkStream@@UAE@XZ
  0000a	64 a1 00 00 00
	00		 mov	 eax, DWORD PTR fs:0
  00010	50		 push	 eax
  00011	56		 push	 esi
  00012	a1 00 00 00 00	 mov	 eax, DWORD PTR ___security_cookie
  00017	33 c5		 xor	 eax, ebp
  00019	50		 push	 eax
  0001a	8d 45 f4	 lea	 eax, DWORD PTR __$EHRec$[ebp]
  0001d	64 a3 00 00 00
	00		 mov	 DWORD PTR fs:0, eax
  00023	8b f1		 mov	 esi, ecx

; 910  : 	Tracen("PythonNetworkMainStream Clear");

  00025	68 00 00 00 00	 push	 OFFSET ??_C@_0BO@OMGIOKNA@PythonNetworkMainStream?5Clear@
  0002a	c7 06 00 00 00
	00		 mov	 DWORD PTR [esi], OFFSET ??_7CPythonNetworkStream@@6BCNetworkStream@@@
  00030	c7 46 7c 00 00
	00 00		 mov	 DWORD PTR [esi+124], OFFSET ??_7CPythonNetworkStream@@6B?$CSingleton@VCPythonNetworkStream@@@@@
  00037	e8 00 00 00 00	 call	 ?Tracen@@YAXPBD@Z	; Tracen
  0003c	83 c4 04	 add	 esp, 4

; 911  : }

  0003f	8d 8e 24 79 00
	00		 lea	 ecx, DWORD PTR [esi+31012]
  00045	e8 00 00 00 00	 call	 ??1?$deque@V?$basic_string@DU?$char_traits@D@std@@V?$allocator@D@2@@std@@V?$allocator@V?$basic_string@DU?$char_traits@D@std@@V?$allocator@D@2@@std@@@2@@std@@QAE@XZ ; std::deque<std::basic_string<char,std::char_traits<char>,std::allocator<char> >,std::allocator<std::basic_string<char,std::char_traits<char>,std::allocator<char> > > >::~deque<std::basic_string<char,std::char_traits<char>,std::allocator<char> >,std::allocator<std::basic_string<char,std::char_traits<char>,std::allocator<char> > > >
  0004a	8d 8e 14 79 00
	00		 lea	 ecx, DWORD PTR [esi+30996]
  00050	e8 00 00 00 00	 call	 ??1CInsultChecker@@UAE@XZ ; CInsultChecker::~CInsultChecker
  00055	8d 8e f8 78 00
	00		 lea	 ecx, DWORD PTR [esi+30968]
  0005b	e8 00 00 00 00	 call	 ??1CNetworkAddress@@QAE@XZ ; CNetworkAddress::~CNetworkAddress
  00060	8d 8e 20 03 00
	00		 lea	 ecx, DWORD PTR [esi+800]
; File C:\Program Files\Microsoft Visual Studio\2022\Community\VC\Tools\MSVC\14.44.35207\include\vector

; 830  :         _Tidy();

  00066	e8 00 00 00 00	 call	 ?_Tidy@?$vector@V?$basic_string@DU?$char_traits@D@std@@V?$allocator@D@2@@std@@V?$allocator@V?$basic_string@DU?$char_traits@D@std@@V?$allocator@D@2@@std@@@2@@std@@AAEXXZ ; std::vector<std::basic_string<char,std::char_traits<char>,std::allocator<char> >,std::allocator<std::basic_string<char,std::char_traits<char>,std::allocator<char> > > >::_Tidy
; File D:\_m2work\Server Client TMP4\ClientVS22\source\eterlib\Ref.h

; 37   : 		{

  0006b	c7 45 fc 00 00
	00 00		 mov	 DWORD PTR __$EHRec$[ebp+8], 0

; 53   : 			if (m_pObject)

  00072	8b 8e 0c 03 00
	00		 mov	 ecx, DWORD PTR [esi+780]
  00078	85 c9		 test	 ecx, ecx
  0007a	74 0f		 je	 SHORT $LN18@CPythonNet

; 54   : 			{
; 55   : 				m_pObject->Release();

  0007c	e8 00 00 00 00	 call	 ?Release@CReferenceObject@@QAEXXZ ; CReferenceObject::Release

; 56   : 				m_pObject = NULL;

  00081	c7 86 0c 03 00
	00 00 00 00 00	 mov	 DWORD PTR [esi+780], 0
$LN18@CPythonNet:
; File D:\_m2work\Server Client TMP4\ClientVS22\source\UserInterface\PythonNetworkStream.cpp

; 911  : }

  0008b	68 00 00 00 00	 push	 OFFSET ??1?$basic_string@DU?$char_traits@D@std@@V?$allocator@D@2@@std@@QAE@XZ ; std::basic_string<char,std::char_traits<char>,std::allocator<char> >::~basic_string<char,std::char_traits<char>,std::allocator<char> >
  00090	6a 04		 push	 4
  00092	6a 18		 push	 24			; 00000018H
  00094	8d 86 a8 02 00
	00		 lea	 eax, DWORD PTR [esi+680]
; File D:\_m2work\Server Client TMP4\ClientVS22\source\eterlib\Ref.h

; 39   : 		}

  0009a	c7 45 fc ff ff
	ff ff		 mov	 DWORD PTR __$EHRec$[ebp+8], -1
; File D:\_m2work\Server Client TMP4\ClientVS22\source\UserInterface\PythonNetworkStream.cpp

; 911  : }

  000a1	50		 push	 eax
  000a2	e8 00 00 00 00	 call	 ??_M@YGXPAXIIP6EX0@Z@Z
  000a7	8d 8e 2c 01 00
	00		 lea	 ecx, DWORD PTR [esi+300]
; File D:\_m2work\Server Client TMP4\ClientVS22\source\EterLib\FuncObject.h

; 13   : 		{

  000ad	c7 86 60 01 00
	00 00 00 00 00	 mov	 DWORD PTR [esi+352], OFFSET ??_7?$CFuncObject@VCPythonNetworkStream@@@@6B@
; File D:\_m2work\Server Client TMP4\ClientVS22\source\UserInterface\PythonNetworkStream.cpp

; 911  : }

  000b7	c7 86 48 01 00
	00 00 00 00 00	 mov	 DWORD PTR [esi+328], OFFSET ??_7?$CFuncObject@VCPythonNetworkStream@@@@6B@
; File C:\Program Files\Microsoft Visual Studio\2022\Community\VC\Tools\MSVC\14.44.35207\include\xstring

; 1383 :         _Tidy_deallocate();

  000c1	e8 00 00 00 00	 call	 ?_Tidy_deallocate@?$basic_string@DU?$char_traits@D@std@@V?$allocator@D@2@@std@@AAEXXZ ; std::basic_string<char,std::char_traits<char>,std::allocator<char> >::_Tidy_deallocate
; File D:\_m2work\Server Client TMP4\ClientVS22\source\UserInterface\PythonNetworkStream.cpp

; 911  : }

  000c6	8d 8e 0c 01 00
	00		 lea	 ecx, DWORD PTR [esi+268]
; File C:\Program Files\Microsoft Visual Studio\2022\Community\VC\Tools\MSVC\14.44.35207\include\xstring

; 1383 :         _Tidy_deallocate();

  000cc	e8 00 00 00 00	 call	 ?_Tidy_deallocate@?$basic_string@DU?$char_traits@D@std@@V?$allocator@D@2@@std@@AAEXXZ ; std::basic_string<char,std::char_traits<char>,std::allocator<char> >::_Tidy_deallocate
; File D:\_m2work\Server Client TMP4\ClientVS22\source\UserInterface\PythonNetworkStream.cpp

; 911  : }

  000d1	8d 8e f4 00 00
	00		 lea	 ecx, DWORD PTR [esi+244]
; File C:\Program Files\Microsoft Visual Studio\2022\Community\VC\Tools\MSVC\14.44.35207\include\xstring

; 1383 :         _Tidy_deallocate();

  000d7	e8 00 00 00 00	 call	 ?_Tidy_deallocate@?$basic_string@DU?$char_traits@D@std@@V?$allocator@D@2@@std@@AAEXXZ ; std::basic_string<char,std::char_traits<char>,std::allocator<char> >::_Tidy_deallocate
; File D:\_m2work\Server Client TMP4\ClientVS22\source\UserInterface\PythonNetworkStream.cpp

; 911  : }

  000dc	8d 8e dc 00 00
	00		 lea	 ecx, DWORD PTR [esi+220]
; File C:\Program Files\Microsoft Visual Studio\2022\Community\VC\Tools\MSVC\14.44.35207\include\xstring

; 1383 :         _Tidy_deallocate();

  000e2	e8 00 00 00 00	 call	 ?_Tidy_deallocate@?$basic_string@DU?$char_traits@D@std@@V?$allocator@D@2@@std@@AAEXXZ ; std::basic_string<char,std::char_traits<char>,std::allocator<char> >::_Tidy_deallocate
; File D:\_m2work\Server Client TMP4\ClientVS22\source\UserInterface\PythonNetworkStream.cpp

; 911  : }

  000e7	8d 8e c4 00 00
	00		 lea	 ecx, DWORD PTR [esi+196]
; File C:\Program Files\Microsoft Visual Studio\2022\Community\VC\Tools\MSVC\14.44.35207\include\xstring

; 1383 :         _Tidy_deallocate();

  000ed	e8 00 00 00 00	 call	 ?_Tidy_deallocate@?$basic_string@DU?$char_traits@D@std@@V?$allocator@D@2@@std@@AAEXXZ ; std::basic_string<char,std::char_traits<char>,std::allocator<char> >::_Tidy_deallocate
; File D:\_m2work\Server Client TMP4\ClientVS22\source\UserInterface\PythonNetworkStream.cpp

; 911  : }

  000f2	8b ce		 mov	 ecx, esi
; File D:\_m2work\Server Client TMP4\ClientVS22\source\eterBase\Singleton.h

; 19   : 	{ 

  000f4	c7 46 7c 00 00
	00 00		 mov	 DWORD PTR [esi+124], OFFSET ??_7?$CSingleton@VCPythonNetworkStream@@@@6B@

; 20   : 		assert(ms_singleton);
; 21   : 		ms_singleton = 0; 

  000fb	c7 05 00 00 00
	00 00 00 00 00	 mov	 DWORD PTR ?ms_singleton@?$CSingleton@VCPythonNetworkStream@@@@0PAVCPythonNetworkStream@@A, 0 ; CSingleton<CPythonNetworkStream>::ms_singleton
; File D:\_m2work\Server Client TMP4\ClientVS22\source\UserInterface\PythonNetworkStream.cpp

; 911  : }

  00105	e8 00 00 00 00	 call	 ??1CNetworkStream@@UAE@XZ ; CNetworkStream::~CNetworkStream
  0010a	8b 4d f4	 mov	 ecx, DWORD PTR __$EHRec$[ebp]
  0010d	64 89 0d 00 00
	00 00		 mov	 DWORD PTR fs:0, ecx
  00114	59		 pop	 ecx
  00115	5e		 pop	 esi
  00116	8b e5		 mov	 esp, ebp
  00118	5d		 pop	 ebp
  00119	c3		 ret	 0
  0011a	cc		 int	 3
  0011b	cc		 int	 3
  0011c	cc		 int	 3
  0011d	cc		 int	 3
  0011e	cc		 int	 3
_TEXT	ENDS
;	COMDAT text$x
text$x	SEGMENT
__ehhandler$??1CPythonNetworkStream@@UAE@XZ:
  00000	90		 npad	 1
  00001	90		 npad	 1
  00002	8b 54 24 08	 mov	 edx, DWORD PTR [esp+8]
  00006	8d 42 0c	 lea	 eax, DWORD PTR [edx+12]
  00009	8b 4a f8	 mov	 ecx, DWORD PTR [edx-8]
  0000c	33 c8		 xor	 ecx, eax
  0000e	e8 00 00 00 00	 call	 @__security_check_cookie@4
  00013	b8 00 00 00 00	 mov	 eax, OFFSET __ehfuncinfo$??1CPythonNetworkStream@@UAE@XZ
  00018	e9 00 00 00 00	 jmp	 ___CxxFrameHandler3
text$x	ENDS
??1CPythonNetworkStream@@UAE@XZ ENDP			; CPythonNetworkStream::~CPythonNetworkStream
; Function compile flags: /Ogtp
; File D:\_m2work\Server Client TMP4\ClientVS22\source\UserInterface\PythonNetworkStream.cpp
; File D:\_m2work\Server Client TMP4\ClientVS22\source\eterBase\Singleton.h
; File D:\_m2work\Server Client TMP4\ClientVS22\source\UserInterface\PythonNetworkStream.cpp
; File D:\_m2work\Server Client TMP4\ClientVS22\source\eterBase\Singleton.h
; File D:\_m2work\Server Client TMP4\ClientVS22\source\UserInterface\PythonNetworkStream.cpp
; File C:\Program Files\Microsoft Visual Studio\2022\Community\VC\Tools\MSVC\14.44.35207\include\xstring
; File D:\_m2work\Server Client TMP4\ClientVS22\source\EterLib\FuncObject.h
; File D:\_m2work\Server Client TMP4\ClientVS22\source\UserInterface\PythonNetworkStream.cpp
; File D:\_m2work\Server Client TMP4\ClientVS22\source\eterlib\Ref.h
; File C:\Program Files\Microsoft Visual Studio\2022\Community\VC\Tools\MSVC\14.44.35207\include\vector
; File D:\_m2work\Server Client TMP4\ClientVS22\source\UserInterface\PythonNetworkStream.cpp
; File C:\Program Files\Microsoft Visual Studio\2022\Community\VC\Tools\MSVC\14.44.35207\include\xmemory
; File C:\Program Files\Microsoft Visual Studio\2022\Community\VC\Tools\MSVC\14.44.35207\include\deque
; File C:\Program Files\Microsoft Visual Studio\2022\Community\VC\Tools\MSVC\14.44.35207\include\xmemory
; File D:\_m2work\Server Client TMP4\ClientVS22\source\UserInterface\PythonNetworkStream.cpp
; File D:\_m2work\Server Client TMP4\ClientVS22\source\eterlib\Ref.h
; File D:\_m2work\Server Client TMP4\ClientVS22\source\UserInterface\PythonNetworkStream.cpp
; File D:\_m2work\Server Client TMP4\ClientVS22\source\EterLib\FuncObject.h
; File C:\Program Files\Microsoft Visual Studio\2022\Community\VC\Tools\MSVC\14.44.35207\include\xstring
; File D:\_m2work\Server Client TMP4\ClientVS22\source\EterLib\FuncObject.h
; File D:\_m2work\Server Client TMP4\ClientVS22\source\UserInterface\PythonNetworkStream.cpp
; File D:\_m2work\Server Client TMP4\ClientVS22\source\EterLib\FuncObject.h
; File D:\_m2work\Server Client TMP4\ClientVS22\source\UserInterface\PythonNetworkStream.cpp
; File C:\Program Files\Microsoft Visual Studio\2022\Community\VC\Tools\MSVC\14.44.35207\include\xstring
; File C:\Program Files\Microsoft Visual Studio\2022\Community\VC\Tools\MSVC\14.44.35207\include\__msvc_string_view.hpp
; File C:\Program Files\Microsoft Visual Studio\2022\Community\VC\Tools\MSVC\14.44.35207\include\xstring
; File C:\Program Files\Microsoft Visual Studio\2022\Community\VC\Tools\MSVC\14.44.35207\include\__msvc_string_view.hpp
; File C:\Program Files\Microsoft Visual Studio\2022\Community\VC\Tools\MSVC\14.44.35207\include\xstring
; File C:\Program Files\Microsoft Visual Studio\2022\Community\VC\Tools\MSVC\14.44.35207\include\xmemory
; File C:\Program Files\Microsoft Visual Studio\2022\Community\VC\Tools\MSVC\14.44.35207\include\xstring
; File C:\Program Files\Microsoft Visual Studio\2022\Community\VC\Tools\MSVC\14.44.35207\include\utility
; File C:\Program Files\Microsoft Visual Studio\2022\Community\VC\Tools\MSVC\14.44.35207\include\xstring
; File C:\Program Files\Microsoft Visual Studio\2022\Community\VC\Tools\MSVC\14.44.35207\include\xmemory
; File C:\Program Files\Microsoft Visual Studio\2022\Community\VC\Tools\MSVC\14.44.35207\include\xstring
; File C:\Program Files\Microsoft Visual Studio\2022\Community\VC\Tools\MSVC\14.44.35207\include\__msvc_string_view.hpp
; File C:\Program Files\Microsoft Visual Studio\2022\Community\VC\Tools\MSVC\14.44.35207\include\xstring
; File D:\_m2work\Server Client TMP4\ClientVS22\source\UserInterface\PythonNetworkStream.cpp
; File C:\Program Files\Microsoft Visual Studio\2022\Community\VC\Tools\MSVC\14.44.35207\include\xutility
; File D:\_m2work\Server Client TMP4\ClientVS22\source\UserInterface\PythonNetworkStream.cpp
; File C:\Program Files\Microsoft Visual Studio\2022\Community\VC\Tools\MSVC\14.44.35207\include\xutility
; File D:\_m2work\Server Client TMP4\ClientVS22\source\UserInterface\PythonNetworkStream.cpp
;	COMDAT ??0CPythonNetworkStream@@QAE@XZ
_TEXT	SEGMENT
_this$ = -24						; size = 4
$T2 = -20						; size = 4
$T3 = -20						; size = 4
_this$ = -20						; size = 4
$T4 = -20						; size = 4
tv1573 = -16						; size = 4
__$EHRec$ = -12						; size = 12
??0CPythonNetworkStream@@QAE@XZ PROC			; CPythonNetworkStream::CPythonNetworkStream, COMDAT
; _this$ = ecx

; 871  : {

  00000	55		 push	 ebp
  00001	8b ec		 mov	 ebp, esp
  00003	6a ff		 push	 -1
  00005	68 00 00 00 00	 push	 __ehhandler$??0CPythonNetworkStream@@QAE@XZ
  0000a	64 a1 00 00 00
	00		 mov	 eax, DWORD PTR fs:0
  00010	50		 push	 eax
  00011	83 ec 0c	 sub	 esp, 12			; 0000000cH
  00014	56		 push	 esi
  00015	57		 push	 edi
  00016	a1 00 00 00 00	 mov	 eax, DWORD PTR ___security_cookie
  0001b	33 c5		 xor	 eax, ebp
  0001d	50		 push	 eax
  0001e	8d 45 f4	 lea	 eax, DWORD PTR __$EHRec$[ebp]
  00021	64 a3 00 00 00
	00		 mov	 DWORD PTR fs:0, eax
  00027	8b f9		 mov	 edi, ecx
  00029	89 7d e8	 mov	 DWORD PTR _this$[ebp], edi
  0002c	e8 00 00 00 00	 call	 ??0CNetworkStream@@QAE@XZ ; CNetworkStream::CNetworkStream
; File D:\_m2work\Server Client TMP4\ClientVS22\source\eterBase\Singleton.h

; 15   : 		ms_singleton = (T*) ((int) this + offset);

  00031	8b c7		 mov	 eax, edi
; File D:\_m2work\Server Client TMP4\ClientVS22\source\UserInterface\PythonNetworkStream.cpp

; 871  : {

  00033	c7 45 fc 00 00
	00 00		 mov	 DWORD PTR __$EHRec$[ebp+8], 0
; File D:\_m2work\Server Client TMP4\ClientVS22\source\eterBase\Singleton.h

; 15   : 		ms_singleton = (T*) ((int) this + offset);

  0003a	a3 00 00 00 00	 mov	 DWORD PTR ?ms_singleton@?$CSingleton@VCPythonNetworkStream@@@@0PAVCPythonNetworkStream@@A, eax ; CSingleton<CPythonNetworkStream>::ms_singleton
; File D:\_m2work\Server Client TMP4\ClientVS22\source\UserInterface\PythonNetworkStream.cpp

; 871  : {

  0003f	c7 07 00 00 00
	00		 mov	 DWORD PTR [edi], OFFSET ??_7CPythonNetworkStream@@6BCNetworkStream@@@
  00045	0f 57 c0	 xorps	 xmm0, xmm0
  00048	c7 47 7c 00 00
	00 00		 mov	 DWORD PTR [edi+124], OFFSET ??_7CPythonNetworkStream@@6B?$CSingleton@VCPythonNetworkStream@@@@@
; File C:\Program Files\Microsoft Visual Studio\2022\Community\VC\Tools\MSVC\14.44.35207\include\xstring

; 493  :         _CONSTEXPR20 _Bxty() noexcept : _Buf() {} // user-provided, for fancy pointers

  0004f	0f 11 87 c4 00
	00 00		 movups	 XMMWORD PTR [edi+196], xmm0

; 860  :         _My_data._Mysize = 0;

  00056	c7 87 d4 00 00
	00 00 00 00 00	 mov	 DWORD PTR [edi+212], 0

; 861  :         _My_data._Myres  = _Small_string_capacity;

  00060	c7 87 d8 00 00
	00 0f 00 00 00	 mov	 DWORD PTR [edi+216], 15	; 0000000fH

; 862  :         _My_data._Activate_SSO_buffer();
; 863  : 
; 864  :         // the _Traits::assign is last so the codegen doesn't think the char write can alias this
; 865  :         _Traits::assign(_My_data._Bx._Buf[0], _Elem());

  0006a	c6 87 c4 00 00
	00 00		 mov	 BYTE PTR [edi+196], 0

; 493  :         _CONSTEXPR20 _Bxty() noexcept : _Buf() {} // user-provided, for fancy pointers

  00071	0f 11 87 dc 00
	00 00		 movups	 XMMWORD PTR [edi+220], xmm0

; 860  :         _My_data._Mysize = 0;

  00078	c7 87 ec 00 00
	00 00 00 00 00	 mov	 DWORD PTR [edi+236], 0

; 861  :         _My_data._Myres  = _Small_string_capacity;

  00082	c7 87 f0 00 00
	00 0f 00 00 00	 mov	 DWORD PTR [edi+240], 15	; 0000000fH

; 862  :         _My_data._Activate_SSO_buffer();
; 863  : 
; 864  :         // the _Traits::assign is last so the codegen doesn't think the char write can alias this
; 865  :         _Traits::assign(_My_data._Bx._Buf[0], _Elem());

  0008c	c6 87 dc 00 00
	00 00		 mov	 BYTE PTR [edi+220], 0

; 493  :         _CONSTEXPR20 _Bxty() noexcept : _Buf() {} // user-provided, for fancy pointers

  00093	0f 11 87 f4 00
	00 00		 movups	 XMMWORD PTR [edi+244], xmm0

; 860  :         _My_data._Mysize = 0;

  0009a	c7 87 04 01 00
	00 00 00 00 00	 mov	 DWORD PTR [edi+260], 0

; 861  :         _My_data._Myres  = _Small_string_capacity;

  000a4	c7 87 08 01 00
	00 0f 00 00 00	 mov	 DWORD PTR [edi+264], 15	; 0000000fH

; 862  :         _My_data._Activate_SSO_buffer();
; 863  : 
; 864  :         // the _Traits::assign is last so the codegen doesn't think the char write can alias this
; 865  :         _Traits::assign(_My_data._Bx._Buf[0], _Elem());

  000ae	c6 87 f4 00 00
	00 00		 mov	 BYTE PTR [edi+244], 0

; 493  :         _CONSTEXPR20 _Bxty() noexcept : _Buf() {} // user-provided, for fancy pointers

  000b5	0f 11 87 0c 01
	00 00		 movups	 XMMWORD PTR [edi+268], xmm0

; 517  :     size_type _Mysize = 0; // current length of string (size)

  000bc	8d 8f 1c 01 00
	00		 lea	 ecx, DWORD PTR [edi+284]

; 861  :         _My_data._Myres  = _Small_string_capacity;

  000c2	c7 87 20 01 00
	00 0f 00 00 00	 mov	 DWORD PTR [edi+288], 15	; 0000000fH
  000cc	c7 01 00 00 00
	00		 mov	 DWORD PTR [ecx], 0

; 517  :     size_type _Mysize = 0; // current length of string (size)

  000d2	89 4d f0	 mov	 DWORD PTR tv1573[ebp], ecx

; 865  :         _Traits::assign(_My_data._Bx._Buf[0], _Elem());

  000d5	c6 87 0c 01 00
	00 00		 mov	 BYTE PTR [edi+268], 0

; 493  :         _CONSTEXPR20 _Bxty() noexcept : _Buf() {} // user-provided, for fancy pointers

  000dc	0f 11 87 2c 01
	00 00		 movups	 XMMWORD PTR [edi+300], xmm0

; 860  :         _My_data._Mysize = 0;

  000e3	c7 87 3c 01 00
	00 00 00 00 00	 mov	 DWORD PTR [edi+316], 0

; 861  :         _My_data._Myres  = _Small_string_capacity;

  000ed	c7 87 40 01 00
	00 0f 00 00 00	 mov	 DWORD PTR [edi+320], 15	; 0000000fH

; 862  :         _My_data._Activate_SSO_buffer();
; 863  : 
; 864  :         // the _Traits::assign is last so the codegen doesn't think the char write can alias this
; 865  :         _Traits::assign(_My_data._Bx._Buf[0], _Elem());

  000f7	c6 87 2c 01 00
	00 00		 mov	 BYTE PTR [edi+300], 0
; File D:\_m2work\Server Client TMP4\ClientVS22\source\EterLib\FuncObject.h

; 8    : 		{

  000fe	c7 87 48 01 00
	00 00 00 00 00	 mov	 DWORD PTR [edi+328], OFFSET ??_7?$CFuncObject@VCPythonNetworkStream@@@@6B@

; 18   : 			m_pSelfObject = NULL;

  00108	c7 87 50 01 00
	00 00 00 00 00	 mov	 DWORD PTR [edi+336], 0

; 19   : 			m_pFuncObject = NULL;

  00112	c7 87 58 01 00
	00 00 00 00 00	 mov	 DWORD PTR [edi+344], 0
  0011c	c7 87 5c 01 00
	00 00 00 00 00	 mov	 DWORD PTR [edi+348], 0

; 8    : 		{

  00126	c7 87 60 01 00
	00 00 00 00 00	 mov	 DWORD PTR [edi+352], OFFSET ??_7?$CFuncObject@VCPythonNetworkStream@@@@6B@

; 18   : 			m_pSelfObject = NULL;

  00130	c7 87 68 01 00
	00 00 00 00 00	 mov	 DWORD PTR [edi+360], 0

; 19   : 			m_pFuncObject = NULL;

  0013a	c7 87 70 01 00
	00 00 00 00 00	 mov	 DWORD PTR [edi+368], 0
  00144	c7 87 74 01 00
	00 00 00 00 00	 mov	 DWORD PTR [edi+372], 0
; File D:\_m2work\Server Client TMP4\ClientVS22\source\UserInterface\PythonNetworkStream.cpp

; 871  : {

  0014e	68 00 00 00 00	 push	 OFFSET ??1?$basic_string@DU?$char_traits@D@std@@V?$allocator@D@2@@std@@QAE@XZ ; std::basic_string<char,std::char_traits<char>,std::allocator<char> >::~basic_string<char,std::char_traits<char>,std::allocator<char> >
  00153	68 00 00 00 00	 push	 OFFSET ??0?$basic_string@DU?$char_traits@D@std@@V?$allocator@D@2@@std@@QAE@XZ ; std::basic_string<char,std::char_traits<char>,std::allocator<char> >::basic_string<char,std::char_traits<char>,std::allocator<char> >
  00158	6a 04		 push	 4
  0015a	6a 18		 push	 24			; 00000018H
  0015c	8d 87 a8 02 00
	00		 lea	 eax, DWORD PTR [edi+680]
  00162	c6 45 fc 08	 mov	 BYTE PTR __$EHRec$[ebp+8], 8
  00166	50		 push	 eax
  00167	e8 00 00 00 00	 call	 ??_L@YGXPAXIIP6EX0@Z1@Z
; File D:\_m2work\Server Client TMP4\ClientVS22\source\eterlib\Ref.h

; 20   : 		CRef() : m_pObject(NULL)

  0016c	c7 87 0c 03 00
	00 00 00 00 00	 mov	 DWORD PTR [edi+780], 0
; File C:\Program Files\Microsoft Visual Studio\2022\Community\VC\Tools\MSVC\14.44.35207\include\vector

; 400  :     _CONSTEXPR20 _Vector_val() noexcept : _Myfirst(), _Mylast(), _Myend() {}

  00176	c7 87 20 03 00
	00 00 00 00 00	 mov	 DWORD PTR [edi+800], 0
  00180	c7 87 24 03 00
	00 00 00 00 00	 mov	 DWORD PTR [edi+804], 0
  0018a	c7 87 28 03 00
	00 00 00 00 00	 mov	 DWORD PTR [edi+808], 0
; File D:\_m2work\Server Client TMP4\ClientVS22\source\UserInterface\PythonNetworkStream.cpp

; 871  : {

  00194	8d 8f f8 78 00
	00		 lea	 ecx, DWORD PTR [edi+30968]
  0019a	c6 45 fc 0b	 mov	 BYTE PTR __$EHRec$[ebp+8], 11 ; 0000000bH
  0019e	89 4d ec	 mov	 DWORD PTR _this$[ebp], ecx
  001a1	e8 00 00 00 00	 call	 ??0CNetworkAddress@@QAE@XZ ; CNetworkAddress::CNetworkAddress
  001a6	8d 8f 14 79 00
	00		 lea	 ecx, DWORD PTR [edi+30996]
  001ac	c6 45 fc 0c	 mov	 BYTE PTR __$EHRec$[ebp+8], 12 ; 0000000cH
  001b0	e8 00 00 00 00	 call	 ??0CInsultChecker@@QAE@XZ ; CInsultChecker::CInsultChecker
  001b5	c6 45 fc 0d	 mov	 BYTE PTR __$EHRec$[ebp+8], 13 ; 0000000dH
  001b9	8d b7 24 79 00
	00		 lea	 esi, DWORD PTR [edi+31012]
; File C:\Program Files\Microsoft Visual Studio\2022\Community\VC\Tools\MSVC\14.44.35207\include\xmemory

; 136  :         return ::operator new(_Bytes);

  001bf	6a 08		 push	 8

; 1235 :     _Container_proxy* _Myproxy = nullptr;

  001c1	c7 06 00 00 00
	00		 mov	 DWORD PTR [esi], 0
; File C:\Program Files\Microsoft Visual Studio\2022\Community\VC\Tools\MSVC\14.44.35207\include\deque

; 556  :     _Deque_val() noexcept : _Map(), _Mapsize(0), _Myoff(0), _Mysize(0) {}

  001c7	c7 46 04 00 00
	00 00		 mov	 DWORD PTR [esi+4], 0
  001ce	c7 46 08 00 00
	00 00		 mov	 DWORD PTR [esi+8], 0
  001d5	c7 46 0c 00 00
	00 00		 mov	 DWORD PTR [esi+12], 0
  001dc	c7 46 10 00 00
	00 00		 mov	 DWORD PTR [esi+16], 0
; File C:\Program Files\Microsoft Visual Studio\2022\Community\VC\Tools\MSVC\14.44.35207\include\xmemory

; 136  :         return ::operator new(_Bytes);

  001e3	e8 00 00 00 00	 call	 ??2@YAPAXI@Z		; operator new

; 1205 :     mutable _Iterator_base12* _Myfirstiter = nullptr;

  001e8	c7 40 04 00 00
	00 00		 mov	 DWORD PTR [eax+4], 0

; 1222 :         _Myproxy            = _New_proxy;

  001ef	89 06		 mov	 DWORD PTR [esi], eax

; 1223 :         _New_proxy->_Mycont = this;

  001f1	89 30		 mov	 DWORD PTR [eax], esi
; File D:\_m2work\Server Client TMP4\ClientVS22\source\UserInterface\PythonNetworkStream.cpp

; 872  : 	m_rokNetActorMgr=new CNetworkActorManager;

  001f3	6a 20		 push	 32			; 00000020H
  001f5	c6 45 fc 0e	 mov	 BYTE PTR __$EHRec$[ebp+8], 14 ; 0000000eH
  001f9	e8 00 00 00 00	 call	 ??2@YAPAXI@Z		; operator new
  001fe	83 c4 08	 add	 esp, 8
  00201	89 45 ec	 mov	 DWORD PTR $T2[ebp], eax
  00204	8b c8		 mov	 ecx, eax
  00206	c6 45 fc 0f	 mov	 BYTE PTR __$EHRec$[ebp+8], 15 ; 0000000fH
  0020a	e8 00 00 00 00	 call	 ??0CNetworkActorManager@@QAE@XZ ; CNetworkActorManager::CNetworkActorManager
  0020f	c6 45 fc 0e	 mov	 BYTE PTR __$EHRec$[ebp+8], 14 ; 0000000eH
; File D:\_m2work\Server Client TMP4\ClientVS22\source\eterlib\Ref.h

; 67   : 			CReferenceObject* pOldObject = m_pObject;

  00213	8b b7 0c 03 00
	00		 mov	 esi, DWORD PTR [edi+780]

; 68   : 
; 69   : 			m_pObject = pObject;

  00219	89 87 0c 03 00
	00		 mov	 DWORD PTR [edi+780], eax

; 70   : 
; 71   : 			if (m_pObject)

  0021f	85 c0		 test	 eax, eax
  00221	74 07		 je	 SHORT $LN188@CPythonNet

; 72   : 				m_pObject->AddReference();

  00223	8b c8		 mov	 ecx, eax
  00225	e8 00 00 00 00	 call	 ?AddReference@CReferenceObject@@QAEXXZ ; CReferenceObject::AddReference
$LN188@CPythonNet:

; 73   : 
; 74   : 			if (pOldObject)

  0022a	85 f6		 test	 esi, esi
  0022c	74 07		 je	 SHORT $LN189@CPythonNet

; 75   : 				pOldObject->Release();

  0022e	8b ce		 mov	 ecx, esi
  00230	e8 00 00 00 00	 call	 ?Release@CReferenceObject@@QAEXXZ ; CReferenceObject::Release
$LN189@CPythonNet:
; File D:\_m2work\Server Client TMP4\ClientVS22\source\UserInterface\PythonNetworkStream.cpp

; 874  : 	memset(m_akSimplePlayerInfo, 0, sizeof(m_akSimplePlayerInfo));

  00235	68 fc 00 00 00	 push	 252			; 000000fcH
  0023a	8d 87 9c 01 00
	00		 lea	 eax, DWORD PTR [edi+412]
  00240	6a 00		 push	 0
  00242	50		 push	 eax
  00243	e8 00 00 00 00	 call	 _memset
; File D:\_m2work\Server Client TMP4\ClientVS22\source\EterLib\FuncObject.h

; 18   : 			m_pSelfObject = NULL;

  00248	c7 87 50 01 00
	00 00 00 00 00	 mov	 DWORD PTR [edi+336], 0
; File C:\Program Files\Microsoft Visual Studio\2022\Community\VC\Tools\MSVC\14.44.35207\include\xstring

; 1618 :         if (_Count <= _Mypair._Myval2._Myres) {

  00252	8d b7 0c 01 00
	00		 lea	 esi, DWORD PTR [edi+268]
; File D:\_m2work\Server Client TMP4\ClientVS22\source\EterLib\FuncObject.h

; 19   : 			m_pFuncObject = NULL;

  00258	c7 87 58 01 00
	00 00 00 00 00	 mov	 DWORD PTR [edi+344], 0
; File D:\_m2work\Server Client TMP4\ClientVS22\source\UserInterface\PythonNetworkStream.cpp

; 874  : 	memset(m_akSimplePlayerInfo, 0, sizeof(m_akSimplePlayerInfo));

  00262	83 c4 0c	 add	 esp, 12			; 0000000cH
; File D:\_m2work\Server Client TMP4\ClientVS22\source\EterLib\FuncObject.h

; 19   : 			m_pFuncObject = NULL;

  00265	c7 87 5c 01 00
	00 00 00 00 00	 mov	 DWORD PTR [edi+348], 0
; File D:\_m2work\Server Client TMP4\ClientVS22\source\UserInterface\PythonNetworkStream.cpp

; 878  : 	m_dwEmpireID = 0;

  0026f	c7 87 b4 00 00
	00 00 00 00 00	 mov	 DWORD PTR [edi+180], 0

; 879  : 	m_dwGuildID = 0;

  00279	c7 87 b0 00 00
	00 00 00 00 00	 mov	 DWORD PTR [edi+176], 0

; 880  : 
; 881  : 	m_dwMainActorVID = 0;

  00283	c7 87 98 00 00
	00 00 00 00 00	 mov	 DWORD PTR [edi+152], 0

; 882  : 	m_dwMainActorRace = 0;

  0028d	c7 87 9c 00 00
	00 00 00 00 00	 mov	 DWORD PTR [edi+156], 0

; 883  : 	m_dwMainActorEmpire = 0;

  00297	c7 87 a0 00 00
	00 00 00 00 00	 mov	 DWORD PTR [edi+160], 0

; 884  : 	m_dwMainActorSkillGroup = 0;

  002a1	c7 87 a4 00 00
	00 00 00 00 00	 mov	 DWORD PTR [edi+164], 0

; 885  : 	m_poHandler = NULL;

  002ab	c7 87 78 01 00
	00 00 00 00 00	 mov	 DWORD PTR [edi+376], 0

; 886  : 
; 887  : 	m_dwLastGamePingTime = 0;

  002b5	c7 87 c0 00 00
	00 00 00 00 00	 mov	 DWORD PTR [edi+192], 0

; 888  : 
; 889  : 	m_dwLoginKey = 0;

  002bf	c7 87 24 01 00
	00 00 00 00 00	 mov	 DWORD PTR [edi+292], 0

; 890  : 	m_isWaitLoginKey = FALSE;

  002c9	c7 87 28 01 00
	00 00 00 00 00	 mov	 DWORD PTR [edi+296], 0

; 891  : 	m_isStartGame = FALSE;

  002d3	c7 87 ac 00 00
	00 00 00 00 00	 mov	 DWORD PTR [edi+172], 0

; 892  : 	m_isEnableChatInsultFilter = FALSE;

  002dd	66 c7 87 20 79
	00 00 00 00	 mov	 WORD PTR [edi+31008], 0
; File C:\Program Files\Microsoft Visual Studio\2022\Community\VC\Tools\MSVC\14.44.35207\include\xstring

; 1618 :         if (_Count <= _Mypair._Myval2._Myres) {

  002e6	8b 4e 14	 mov	 ecx, DWORD PTR [esi+20]
  002e9	83 f9 07	 cmp	 ecx, 7
  002ec	72 29		 jb	 SHORT $LN227@CPythonNet

; 453  :         return _Myres > _Small_string_capacity;

  002ee	83 f9 0f	 cmp	 ecx, 15			; 0000000fH

; 436  :         if (_Large_mode_engaged()) {

  002f1	76 02		 jbe	 SHORT $LN204@CPythonNet

; 437  :             _Result = _Unfancy(_Bx._Ptr);

  002f3	8b 36		 mov	 esi, DWORD PTR [esi]
$LN204@CPythonNet:

; 1621 :             _Mypair._Myval2._Mysize = _Count;

  002f5	8b 45 f0	 mov	 eax, DWORD PTR tv1573[ebp]
; File C:\Program Files\Microsoft Visual Studio\2022\Community\VC\Tools\MSVC\14.44.35207\include\__msvc_string_view.hpp

; 174  :         _CSTD memmove(_First1, _First2, _Count * sizeof(_Elem));

  002f8	6a 07		 push	 7
  002fa	68 00 00 00 00	 push	 OFFSET ??_C@_07NNEFBBEG@OffLine@
  002ff	56		 push	 esi
; File C:\Program Files\Microsoft Visual Studio\2022\Community\VC\Tools\MSVC\14.44.35207\include\xstring

; 1621 :             _Mypair._Myval2._Mysize = _Count;

  00300	c7 00 07 00 00
	00		 mov	 DWORD PTR [eax], 7
; File C:\Program Files\Microsoft Visual Studio\2022\Community\VC\Tools\MSVC\14.44.35207\include\__msvc_string_view.hpp

; 174  :         _CSTD memmove(_First1, _First2, _Count * sizeof(_Elem));

  00306	e8 00 00 00 00	 call	 _memmove
  0030b	83 c4 0c	 add	 esp, 12			; 0000000cH
; File C:\Program Files\Microsoft Visual Studio\2022\Community\VC\Tools\MSVC\14.44.35207\include\xstring

; 1623 :             _Traits::assign(_Old_ptr[_Count], _Elem());

  0030e	c6 46 07 00	 mov	 BYTE PTR [esi+7], 0

; 1624 :             _ASAN_STRING_CREATE(*this);
; 1625 :             return *this;

  00312	e9 86 00 00 00	 jmp	 $LN229@CPythonNet
$LN227@CPythonNet:

; 2983 :         if (_Old > _Max - _Old / 2) { // similarly, geometric overflows

  00317	8b d1		 mov	 edx, ecx
  00319	b8 ff ff ff 7f	 mov	 eax, 2147483647		; 7fffffffH
  0031e	d1 ea		 shr	 edx, 1
  00320	2b c2		 sub	 eax, edx
  00322	3b c8		 cmp	 ecx, eax
  00324	76 14		 jbe	 SHORT $LN236@CPythonNet

; 2984 :             return _Max;

  00326	b8 00 00 00 80	 mov	 eax, -2147483648	; 80000000H
  0032b	c7 45 ec ff ff
	ff 7f		 mov	 DWORD PTR $T4[ebp], 2147483647 ; 7fffffffH
; File C:\Program Files\Microsoft Visual Studio\2022\Community\VC\Tools\MSVC\14.44.35207\include\xmemory

; 253  :             return _Allocate_manually_vector_aligned<_Traits>(_Bytes);

  00332	50		 push	 eax
  00333	e8 00 00 00 00	 call	 ??$_Allocate_manually_vector_aligned@U_Default_allocate_traits@std@@@std@@YAPAXI@Z ; std::_Allocate_manually_vector_aligned<std::_Default_allocate_traits>
  00338	eb 30		 jmp	 SHORT $LN331@CPythonNet
$LN236@CPythonNet:
; File C:\Program Files\Microsoft Visual Studio\2022\Community\VC\Tools\MSVC\14.44.35207\include\xstring

; 2987 :         return (_STD max)(_Masked, _Old + _Old / 2);

  0033a	8d 04 0a	 lea	 eax, DWORD PTR [edx+ecx]
; File C:\Program Files\Microsoft Visual Studio\2022\Community\VC\Tools\MSVC\14.44.35207\include\utility

; 77   :     return _Left < _Right ? _Right : _Left;

  0033d	b9 0f 00 00 00	 mov	 ecx, 15			; 0000000fH
  00342	3b c1		 cmp	 eax, ecx
  00344	0f 47 c8	 cmova	 ecx, eax
  00347	89 4d ec	 mov	 DWORD PTR $T4[ebp], ecx
; File C:\Program Files\Microsoft Visual Studio\2022\Community\VC\Tools\MSVC\14.44.35207\include\xstring

; 825  :         ++_Capacity; // Take null terminator into consideration

  0034a	8d 41 01	 lea	 eax, DWORD PTR [ecx+1]
; File C:\Program Files\Microsoft Visual Studio\2022\Community\VC\Tools\MSVC\14.44.35207\include\xmemory

; 227  :     if (_Bytes == 0) {

  0034d	85 c0		 test	 eax, eax
  0034f	75 04		 jne	 SHORT $LN253@CPythonNet

; 228  :         return nullptr;

  00351	33 c9		 xor	 ecx, ecx
  00353	eb 1a		 jmp	 SHORT $LN252@CPythonNet
$LN253@CPythonNet:

; 229  :     }
; 230  : 
; 231  : #if _HAS_CXX20 // TRANSITION, GH-1532
; 232  :     if (_STD is_constant_evaluated()) {
; 233  :         return _Traits::_Allocate(_Bytes);
; 234  :     }
; 235  : #endif // _HAS_CXX20
; 236  : 
; 237  : #ifdef __cpp_aligned_new
; 238  :     if constexpr (_Align > __STDCPP_DEFAULT_NEW_ALIGNMENT__) {
; 239  :         size_t _Passed_align = _Align;
; 240  : #if defined(_M_IX86) || defined(_M_X64)
; 241  :         if (_Bytes >= _Big_allocation_threshold) {
; 242  :             // boost the alignment of big allocations to help autovectorization
; 243  :             _Passed_align = (_STD max)(_Align, _Big_allocation_alignment);
; 244  :         }
; 245  : #endif // defined(_M_IX86) || defined(_M_X64)
; 246  :         return _Traits::_Allocate_aligned(_Bytes, _Passed_align);
; 247  :     } else
; 248  : #endif // defined(__cpp_aligned_new)
; 249  :     {
; 250  : #if defined(_M_IX86) || defined(_M_X64)
; 251  :         if (_Bytes >= _Big_allocation_threshold) {

  00355	3d 00 10 00 00	 cmp	 eax, 4096		; 00001000H
  0035a	72 08		 jb	 SHORT $LN255@CPythonNet

; 253  :             return _Allocate_manually_vector_aligned<_Traits>(_Bytes);

  0035c	50		 push	 eax
  0035d	e8 00 00 00 00	 call	 ??$_Allocate_manually_vector_aligned@U_Default_allocate_traits@std@@@std@@YAPAXI@Z ; std::_Allocate_manually_vector_aligned<std::_Default_allocate_traits>
  00362	eb 06		 jmp	 SHORT $LN331@CPythonNet
$LN255@CPythonNet:

; 136  :         return ::operator new(_Bytes);

  00364	50		 push	 eax
  00365	e8 00 00 00 00	 call	 ??2@YAPAXI@Z		; operator new
$LN331@CPythonNet:
; File C:\Program Files\Microsoft Visual Studio\2022\Community\VC\Tools\MSVC\14.44.35207\include\xstring

; 3009 :         _Mypair._Myval2._Mysize = _New_size;

  0036a	8b c8		 mov	 ecx, eax
  0036c	83 c4 04	 add	 esp, 4
$LN252@CPythonNet:
  0036f	8b 45 f0	 mov	 eax, DWORD PTR tv1573[ebp]
  00372	c7 00 07 00 00
	00		 mov	 DWORD PTR [eax], 7

; 3010 :         _Mypair._Myval2._Myres  = _New_capacity;

  00378	8b 45 ec	 mov	 eax, DWORD PTR $T4[ebp]
  0037b	89 46 14	 mov	 DWORD PTR [esi+20], eax
; File C:\Program Files\Microsoft Visual Studio\2022\Community\VC\Tools\MSVC\14.44.35207\include\__msvc_string_view.hpp

; 121  :         _CSTD memcpy(_First1, _First2, _Count * sizeof(_Elem));

  0037e	a1 00 00 00 00	 mov	 eax, DWORD PTR ??_C@_07NNEFBBEG@OffLine@
  00383	89 01		 mov	 DWORD PTR [ecx], eax
  00385	66 a1 04 00 00
	00		 mov	 ax, WORD PTR ??_C@_07NNEFBBEG@OffLine@+4
  0038b	66 89 41 04	 mov	 WORD PTR [ecx+4], ax
  0038f	a0 06 00 00 00	 mov	 al, BYTE PTR ??_C@_07NNEFBBEG@OffLine@+6
  00394	88 41 06	 mov	 BYTE PTR [ecx+6], al
; File C:\Program Files\Microsoft Visual Studio\2022\Community\VC\Tools\MSVC\14.44.35207\include\xstring

; 1632 :                 _Traits::assign(_New_ptr[_Count], _Elem());

  00397	c6 41 07 00	 mov	 BYTE PTR [ecx+7], 0

; 3016 :             _Construct_in_place(_Mypair._Myval2._Bx._Ptr, _New_ptr);

  0039b	89 0e		 mov	 DWORD PTR [esi], ecx
$LN229@CPythonNet:
; File D:\_m2work\Server Client TMP4\ClientVS22\source\UserInterface\PythonNetworkStream.cpp

; 896  : 	__InitializeGamePhase();

  0039d	8b cf		 mov	 ecx, edi
  0039f	e8 00 00 00 00	 call	 ?__InitializeGamePhase@CPythonNetworkStream@@IAEXXZ ; CPythonNetworkStream::__InitializeGamePhase

; 897  : 	__InitializeMarkAuth();

  003a4	8b cf		 mov	 ecx, edi
  003a6	e8 00 00 00 00	 call	 ?__InitializeMarkAuth@CPythonNetworkStream@@IAEXXZ ; CPythonNetworkStream::__InitializeMarkAuth

; 898  : 
; 899  : 	__DirectEnterMode_Initialize();

  003ab	e8 00 00 00 00	 call	 ?__DirectEnterMode_Initialize@CPythonNetworkStream@@AAEXXZ ; CPythonNetworkStream::__DirectEnterMode_Initialize

; 900  : 	__BettingGuildWar_Initialize();

  003b0	e8 00 00 00 00	 call	 ?__BettingGuildWar_Initialize@CPythonNetworkStream@@AAEXXZ ; CPythonNetworkStream::__BettingGuildWar_Initialize
; File C:\Program Files\Microsoft Visual Studio\2022\Community\VC\Tools\MSVC\14.44.35207\include\xutility

; 5302 :                 if (_STD _Is_all_bits_zero(_Val)) {

  003b5	8d 4d ec	 lea	 ecx, DWORD PTR $T3[ebp]
; File D:\_m2work\Server Client TMP4\ClientVS22\source\UserInterface\PythonNetworkStream.cpp

; 902  : 	std::fill(m_apoPhaseWnd, m_apoPhaseWnd+PHASE_WINDOW_NUM, (PyObject*)NULL);

  003b8	c7 45 ec 00 00
	00 00		 mov	 DWORD PTR $T3[ebp], 0
  003bf	8d b7 7c 01 00
	00		 lea	 esi, DWORD PTR [edi+380]
; File C:\Program Files\Microsoft Visual Studio\2022\Community\VC\Tools\MSVC\14.44.35207\include\xutility

; 5302 :                 if (_STD _Is_all_bits_zero(_Val)) {

  003c5	e8 00 00 00 00	 call	 ??$_Is_all_bits_zero@PAU_object@@@std@@YA_NABQAU_object@@@Z ; std::_Is_all_bits_zero<_object *>
  003ca	84 c0		 test	 al, al
  003cc	74 14		 je	 SHORT $LN301@CPythonNet

; 5303 :                     _STD _Fill_zero_memset(_UFirst, static_cast<size_t>(_ULast - _UFirst));

  003ce	ba 07 00 00 00	 mov	 edx, 7
  003d3	8b ce		 mov	 ecx, esi
  003d5	e8 00 00 00 00	 call	 ??$_Fill_zero_memset@PAPAU_object@@@std@@YAXPAPAU_object@@I@Z ; std::_Fill_zero_memset<_object * *>

; 5304 :                     return;

  003da	8d 97 98 01 00
	00		 lea	 edx, DWORD PTR [edi+408]
  003e0	eb 1d		 jmp	 SHORT $LN298@CPythonNet
$LN301@CPythonNet:

; 5305 :                 }
; 5306 :             }
; 5307 :         }
; 5308 : 
; 5309 :         for (; _UFirst != _ULast; ++_UFirst) {

  003e2	8d 97 98 01 00
	00		 lea	 edx, DWORD PTR [edi+408]
  003e8	3b d6		 cmp	 edx, esi
  003ea	1b c9		 sbb	 ecx, ecx
  003ec	83 e1 f9	 and	 ecx, -7			; fffffff9H
  003ef	83 c1 07	 add	 ecx, 7
  003f2	3b f2		 cmp	 esi, edx
  003f4	77 09		 ja	 SHORT $LN298@CPythonNet
  003f6	33 c0		 xor	 eax, eax
  003f8	8b fe		 mov	 edi, esi
  003fa	f3 ab		 rep stosd
  003fc	8b 7d e8	 mov	 edi, DWORD PTR _this$[ebp]
$LN298@CPythonNet:
; File D:\_m2work\Server Client TMP4\ClientVS22\source\UserInterface\PythonNetworkStream.cpp

; 905  : 	SetOffLinePhase();

  003ff	8b cf		 mov	 ecx, edi
  00401	c7 02 00 00 00
	00		 mov	 DWORD PTR [edx], 0
  00407	e8 00 00 00 00	 call	 ?SetOffLinePhase@CPythonNetworkStream@@QAEXXZ ; CPythonNetworkStream::SetOffLinePhase

; 906  : }

  0040c	8b c7		 mov	 eax, edi
  0040e	8b 4d f4	 mov	 ecx, DWORD PTR __$EHRec$[ebp]
  00411	64 89 0d 00 00
	00 00		 mov	 DWORD PTR fs:0, ecx
  00418	59		 pop	 ecx
  00419	5f		 pop	 edi
  0041a	5e		 pop	 esi
  0041b	8b e5		 mov	 esp, ebp
  0041d	5d		 pop	 ebp
  0041e	c3		 ret	 0
_TEXT	ENDS
;	COMDAT text$x
text$x	SEGMENT
__unwindfunclet$??0CPythonNetworkStream@@QAE@XZ$0:
  00000	8b 4d e8	 mov	 ecx, DWORD PTR _this$[ebp]
  00003	e9 00 00 00 00	 jmp	 ??1CNetworkStream@@UAE@XZ ; CNetworkStream::~CNetworkStream
__unwindfunclet$??0CPythonNetworkStream@@QAE@XZ$1:
  00008	8b 4d e8	 mov	 ecx, DWORD PTR _this$[ebp]
  0000b	83 c1 7c	 add	 ecx, 124		; 0000007cH
  0000e	e9 00 00 00 00	 jmp	 ??1?$CSingleton@VCPythonNetworkStream@@@@UAE@XZ ; CSingleton<CPythonNetworkStream>::~CSingleton<CPythonNetworkStream>
__unwindfunclet$??0CPythonNetworkStream@@QAE@XZ$2:
  00013	8b 4d e8	 mov	 ecx, DWORD PTR _this$[ebp]
  00016	81 c1 c4 00 00
	00		 add	 ecx, 196		; 000000c4H
  0001c	e9 00 00 00 00	 jmp	 ??1?$basic_string@DU?$char_traits@D@std@@V?$allocator@D@2@@std@@QAE@XZ ; std::basic_string<char,std::char_traits<char>,std::allocator<char> >::~basic_string<char,std::char_traits<char>,std::allocator<char> >
__unwindfunclet$??0CPythonNetworkStream@@QAE@XZ$3:
  00021	8b 4d e8	 mov	 ecx, DWORD PTR _this$[ebp]
  00024	81 c1 dc 00 00
	00		 add	 ecx, 220		; 000000dcH
  0002a	e9 00 00 00 00	 jmp	 ??1?$basic_string@DU?$char_traits@D@std@@V?$allocator@D@2@@std@@QAE@XZ ; std::basic_string<char,std::char_traits<char>,std::allocator<char> >::~basic_string<char,std::char_traits<char>,std::allocator<char> >
__unwindfunclet$??0CPythonNetworkStream@@QAE@XZ$4:
  0002f	8b 4d e8	 mov	 ecx, DWORD PTR _this$[ebp]
  00032	81 c1 f4 00 00
	00		 add	 ecx, 244		; 000000f4H
  00038	e9 00 00 00 00	 jmp	 ??1?$basic_string@DU?$char_traits@D@std@@V?$allocator@D@2@@std@@QAE@XZ ; std::basic_string<char,std::char_traits<char>,std::allocator<char> >::~basic_string<char,std::char_traits<char>,std::allocator<char> >
__unwindfunclet$??0CPythonNetworkStream@@QAE@XZ$5:
  0003d	8b 4d e8	 mov	 ecx, DWORD PTR _this$[ebp]
  00040	81 c1 0c 01 00
	00		 add	 ecx, 268		; 0000010cH
  00046	e9 00 00 00 00	 jmp	 ??1?$basic_string@DU?$char_traits@D@std@@V?$allocator@D@2@@std@@QAE@XZ ; std::basic_string<char,std::char_traits<char>,std::allocator<char> >::~basic_string<char,std::char_traits<char>,std::allocator<char> >
__unwindfunclet$??0CPythonNetworkStream@@QAE@XZ$6:
  0004b	8b 4d e8	 mov	 ecx, DWORD PTR _this$[ebp]
  0004e	81 c1 2c 01 00
	00		 add	 ecx, 300		; 0000012cH
  00054	e9 00 00 00 00	 jmp	 ??1?$basic_string@DU?$char_traits@D@std@@V?$allocator@D@2@@std@@QAE@XZ ; std::basic_string<char,std::char_traits<char>,std::allocator<char> >::~basic_string<char,std::char_traits<char>,std::allocator<char> >
__unwindfunclet$??0CPythonNetworkStream@@QAE@XZ$7:
  00059	8b 4d e8	 mov	 ecx, DWORD PTR _this$[ebp]
  0005c	81 c1 48 01 00
	00		 add	 ecx, 328		; 00000148H
  00062	e9 00 00 00 00	 jmp	 ??1?$CFuncObject@VCPythonNetworkStream@@@@UAE@XZ ; CFuncObject<CPythonNetworkStream>::~CFuncObject<CPythonNetworkStream>
__unwindfunclet$??0CPythonNetworkStream@@QAE@XZ$8:
  00067	8b 4d e8	 mov	 ecx, DWORD PTR _this$[ebp]
  0006a	81 c1 60 01 00
	00		 add	 ecx, 352		; 00000160H
  00070	e9 00 00 00 00	 jmp	 ??1?$CFuncObject@VCPythonNetworkStream@@@@UAE@XZ ; CFuncObject<CPythonNetworkStream>::~CFuncObject<CPythonNetworkStream>
__unwindfunclet$??0CPythonNetworkStream@@QAE@XZ$9:
  00075	68 00 00 00 00	 push	 OFFSET ??1?$basic_string@DU?$char_traits@D@std@@V?$allocator@D@2@@std@@QAE@XZ ; std::basic_string<char,std::char_traits<char>,std::allocator<char> >::~basic_string<char,std::char_traits<char>,std::allocator<char> >
  0007a	6a 04		 push	 4
  0007c	6a 18		 push	 24			; 00000018H
  0007e	8b 45 e8	 mov	 eax, DWORD PTR _this$[ebp]
  00081	05 a8 02 00 00	 add	 eax, 680		; 000002a8H
  00086	50		 push	 eax
  00087	e8 00 00 00 00	 call	 ??_M@YGXPAXIIP6EX0@Z@Z
  0008c	c3		 ret	 0
__unwindfunclet$??0CPythonNetworkStream@@QAE@XZ$10:
  0008d	8b 4d e8	 mov	 ecx, DWORD PTR _this$[ebp]
  00090	81 c1 0c 03 00
	00		 add	 ecx, 780		; 0000030cH
  00096	e9 00 00 00 00	 jmp	 ??1?$CRef@VCNetworkActorManager@@@@QAE@XZ ; CRef<CNetworkActorManager>::~CRef<CNetworkActorManager>
__unwindfunclet$??0CPythonNetworkStream@@QAE@XZ$11:
  0009b	8b 4d e8	 mov	 ecx, DWORD PTR _this$[ebp]
  0009e	81 c1 20 03 00
	00		 add	 ecx, 800		; 00000320H
  000a4	e9 00 00 00 00	 jmp	 ??1?$vector@V?$basic_string@DU?$char_traits@D@std@@V?$allocator@D@2@@std@@V?$allocator@V?$basic_string@DU?$char_traits@D@std@@V?$allocator@D@2@@std@@@2@@std@@QAE@XZ ; std::vector<std::basic_string<char,std::char_traits<char>,std::allocator<char> >,std::allocator<std::basic_string<char,std::char_traits<char>,std::allocator<char> > > >::~vector<std::basic_string<char,std::char_traits<char>,std::allocator<char> >,std::allocator<std::basic_string<char,std::char_traits<char>,std::allocator<char> > > >
__unwindfunclet$??0CPythonNetworkStream@@QAE@XZ$12:
  000a9	8b 4d e8	 mov	 ecx, DWORD PTR _this$[ebp]
  000ac	81 c1 f8 78 00
	00		 add	 ecx, 30968		; 000078f8H
  000b2	e9 00 00 00 00	 jmp	 ??1SMarkAuth@CPythonNetworkStream@@QAE@XZ
__unwindfunclet$??0CPythonNetworkStream@@QAE@XZ$13:
  000b7	8b 4d e8	 mov	 ecx, DWORD PTR _this$[ebp]
  000ba	81 c1 14 79 00
	00		 add	 ecx, 30996		; 00007914H
  000c0	e9 00 00 00 00	 jmp	 ??1CInsultChecker@@UAE@XZ ; CInsultChecker::~CInsultChecker
__unwindfunclet$??0CPythonNetworkStream@@QAE@XZ$14:
  000c5	8b 4d e8	 mov	 ecx, DWORD PTR _this$[ebp]
  000c8	81 c1 24 79 00
	00		 add	 ecx, 31012		; 00007924H
  000ce	e9 00 00 00 00	 jmp	 ??1?$deque@V?$basic_string@DU?$char_traits@D@std@@V?$allocator@D@2@@std@@V?$allocator@V?$basic_string@DU?$char_traits@D@std@@V?$allocator@D@2@@std@@@2@@std@@QAE@XZ ; std::deque<std::basic_string<char,std::char_traits<char>,std::allocator<char> >,std::allocator<std::basic_string<char,std::char_traits<char>,std::allocator<char> > > >::~deque<std::basic_string<char,std::char_traits<char>,std::allocator<char> >,std::allocator<std::basic_string<char,std::char_traits<char>,std::allocator<char> > > >
__unwindfunclet$??0CPythonNetworkStream@@QAE@XZ$15:
  000d3	6a 20		 push	 32			; 00000020H
  000d5	8b 45 ec	 mov	 eax, DWORD PTR $T2[ebp]
  000d8	50		 push	 eax
  000d9	e8 00 00 00 00	 call	 ??3@YAXPAXI@Z		; operator delete
  000de	83 c4 08	 add	 esp, 8
  000e1	c3		 ret	 0
  000e2	cc		 int	 3
  000e3	cc		 int	 3
  000e4	cc		 int	 3
  000e5	cc		 int	 3
  000e6	cc		 int	 3
__ehhandler$??0CPythonNetworkStream@@QAE@XZ:
  000e7	90		 npad	 1
  000e8	90		 npad	 1
  000e9	8b 54 24 08	 mov	 edx, DWORD PTR [esp+8]
  000ed	8d 42 0c	 lea	 eax, DWORD PTR [edx+12]
  000f0	8b 4a e8	 mov	 ecx, DWORD PTR [edx-24]
  000f3	33 c8		 xor	 ecx, eax
  000f5	e8 00 00 00 00	 call	 @__security_check_cookie@4
  000fa	b8 00 00 00 00	 mov	 eax, OFFSET __ehfuncinfo$??0CPythonNetworkStream@@QAE@XZ
  000ff	e9 00 00 00 00	 jmp	 ___CxxFrameHandler3
text$x	ENDS
??0CPythonNetworkStream@@QAE@XZ ENDP			; CPythonNetworkStream::CPythonNetworkStream
; Function compile flags: /Ogtp
; File D:\_m2work\Server Client TMP4\ClientVS22\source\eterLib\NetPacketHeaderMap.h
;	COMDAT ??0SPacketType@CNetworkPacketHeaderMap@@QAE@H_N@Z
_TEXT	SEGMENT
_iSize$ = 8						; size = 4
_bFlag$ = 12						; size = 1
??0SPacketType@CNetworkPacketHeaderMap@@QAE@H_N@Z PROC	; CNetworkPacketHeaderMap::SPacketType::SPacketType, COMDAT
; _this$ = ecx

; 10   : 			SPacketType(int iSize = 0, bool bFlag = false)

  00000	55		 push	 ebp
  00001	8b ec		 mov	 ebp, esp

; 11   : 			{
; 12   : 				iPacketSize = iSize;

  00003	8b 45 08	 mov	 eax, DWORD PTR _iSize$[ebp]
  00006	89 01		 mov	 DWORD PTR [ecx], eax

; 13   : 				isDynamicSizePacket = bFlag;

  00008	8a 45 0c	 mov	 al, BYTE PTR _bFlag$[ebp]
  0000b	88 41 04	 mov	 BYTE PTR [ecx+4], al

; 14   : 			}

  0000e	8b c1		 mov	 eax, ecx
  00010	5d		 pop	 ebp
  00011	c2 08 00	 ret	 8
??0SPacketType@CNetworkPacketHeaderMap@@QAE@H_N@Z ENDP	; CNetworkPacketHeaderMap::SPacketType::SPacketType
_TEXT	ENDS
; Function compile flags: /Ogtp
; File D:\_m2work\Server Client TMP4\ClientVS22\source\UserInterface\PythonNetworkStream.h
;	COMDAT ?__LeaveOfflinePhase@CPythonNetworkStream@@IAEXXZ
_TEXT	SEGMENT
?__LeaveOfflinePhase@CPythonNetworkStream@@IAEXXZ PROC	; CPythonNetworkStream::__LeaveOfflinePhase, COMDAT
; _this$ = ecx

; 594  : 		void __LeaveOfflinePhase() {}

  00000	c2 00 00	 ret	 0
?__LeaveOfflinePhase@CPythonNetworkStream@@IAEXXZ ENDP	; CPythonNetworkStream::__LeaveOfflinePhase
_TEXT	ENDS
; Function compile flags: /Ogtp
; File D:\_m2work\Server Client TMP4\ClientVS22\source\UserInterface\PythonNetworkStream.cpp
; File D:\_m2work\Server Client TMP4\ClientVS22\source\eterLib\NetPacketHeaderMap.h
; File D:\_m2work\Server Client TMP4\ClientVS22\source\UserInterface\PythonNetworkStream.cpp
; File D:\_m2work\Server Client TMP4\ClientVS22\source\eterLib\NetPacketHeaderMap.h
; File D:\_m2work\Server Client TMP4\ClientVS22\source\UserInterface\PythonNetworkStream.cpp
; File D:\_m2work\Server Client TMP4\ClientVS22\source\eterLib\NetPacketHeaderMap.h
; File D:\_m2work\Server Client TMP4\ClientVS22\source\UserInterface\PythonNetworkStream.cpp
; File D:\_m2work\Server Client TMP4\ClientVS22\source\eterLib\NetPacketHeaderMap.h
; File D:\_m2work\Server Client TMP4\ClientVS22\source\UserInterface\PythonNetworkStream.cpp
; File D:\_m2work\Server Client TMP4\ClientVS22\source\eterLib\NetPacketHeaderMap.h
; File D:\_m2work\Server Client TMP4\ClientVS22\source\UserInterface\PythonNetworkStream.cpp
; File D:\_m2work\Server Client TMP4\ClientVS22\source\eterLib\NetPacketHeaderMap.h
; File D:\_m2work\Server Client TMP4\ClientVS22\source\UserInterface\PythonNetworkStream.cpp
; File D:\_m2work\Server Client TMP4\ClientVS22\source\eterLib\NetPacketHeaderMap.h
; File D:\_m2work\Server Client TMP4\ClientVS22\source\UserInterface\PythonNetworkStream.cpp
; File D:\_m2work\Server Client TMP4\ClientVS22\source\eterLib\NetPacketHeaderMap.h
; File D:\_m2work\Server Client TMP4\ClientVS22\source\UserInterface\PythonNetworkStream.cpp
; File D:\_m2work\Server Client TMP4\ClientVS22\source\eterLib\NetPacketHeaderMap.h
; File D:\_m2work\Server Client TMP4\ClientVS22\source\UserInterface\PythonNetworkStream.cpp
; File D:\_m2work\Server Client TMP4\ClientVS22\source\eterLib\NetPacketHeaderMap.h
; File D:\_m2work\Server Client TMP4\ClientVS22\source\UserInterface\PythonNetworkStream.cpp
; File D:\_m2work\Server Client TMP4\ClientVS22\source\eterLib\NetPacketHeaderMap.h
; File D:\_m2work\Server Client TMP4\ClientVS22\source\UserInterface\PythonNetworkStream.cpp
; File D:\_m2work\Server Client TMP4\ClientVS22\source\eterLib\NetPacketHeaderMap.h
; File D:\_m2work\Server Client TMP4\ClientVS22\source\UserInterface\PythonNetworkStream.cpp
; File D:\_m2work\Server Client TMP4\ClientVS22\source\eterLib\NetPacketHeaderMap.h
; File D:\_m2work\Server Client TMP4\ClientVS22\source\UserInterface\PythonNetworkStream.cpp
; File D:\_m2work\Server Client TMP4\ClientVS22\source\eterLib\NetPacketHeaderMap.h
; File D:\_m2work\Server Client TMP4\ClientVS22\source\UserInterface\PythonNetworkStream.cpp
; File D:\_m2work\Server Client TMP4\ClientVS22\source\eterLib\NetPacketHeaderMap.h
; File D:\_m2work\Server Client TMP4\ClientVS22\source\UserInterface\PythonNetworkStream.cpp
; File D:\_m2work\Server Client TMP4\ClientVS22\source\eterLib\NetPacketHeaderMap.h
; File D:\_m2work\Server Client TMP4\ClientVS22\source\UserInterface\PythonNetworkStream.cpp
; File D:\_m2work\Server Client TMP4\ClientVS22\source\eterLib\NetPacketHeaderMap.h
; File D:\_m2work\Server Client TMP4\ClientVS22\source\UserInterface\PythonNetworkStream.cpp
; File D:\_m2work\Server Client TMP4\ClientVS22\source\eterLib\NetPacketHeaderMap.h
; File D:\_m2work\Server Client TMP4\ClientVS22\source\UserInterface\PythonNetworkStream.cpp
; File D:\_m2work\Server Client TMP4\ClientVS22\source\eterLib\NetPacketHeaderMap.h
; File D:\_m2work\Server Client TMP4\ClientVS22\source\UserInterface\PythonNetworkStream.cpp
; File D:\_m2work\Server Client TMP4\ClientVS22\source\eterLib\NetPacketHeaderMap.h
; File D:\_m2work\Server Client TMP4\ClientVS22\source\UserInterface\PythonNetworkStream.cpp
; File D:\_m2work\Server Client TMP4\ClientVS22\source\eterLib\NetPacketHeaderMap.h
; File D:\_m2work\Server Client TMP4\ClientVS22\source\UserInterface\PythonNetworkStream.cpp
; File D:\_m2work\Server Client TMP4\ClientVS22\source\eterLib\NetPacketHeaderMap.h
; File D:\_m2work\Server Client TMP4\ClientVS22\source\UserInterface\PythonNetworkStream.cpp
; File D:\_m2work\Server Client TMP4\ClientVS22\source\eterLib\NetPacketHeaderMap.h
; File D:\_m2work\Server Client TMP4\ClientVS22\source\UserInterface\PythonNetworkStream.cpp
; File D:\_m2work\Server Client TMP4\ClientVS22\source\eterLib\NetPacketHeaderMap.h
; File D:\_m2work\Server Client TMP4\ClientVS22\source\UserInterface\PythonNetworkStream.cpp
; File D:\_m2work\Server Client TMP4\ClientVS22\source\eterLib\NetPacketHeaderMap.h
; File D:\_m2work\Server Client TMP4\ClientVS22\source\UserInterface\PythonNetworkStream.cpp
; File D:\_m2work\Server Client TMP4\ClientVS22\source\eterLib\NetPacketHeaderMap.h
; File D:\_m2work\Server Client TMP4\ClientVS22\source\UserInterface\PythonNetworkStream.cpp
; File D:\_m2work\Server Client TMP4\ClientVS22\source\eterLib\NetPacketHeaderMap.h
; File D:\_m2work\Server Client TMP4\ClientVS22\source\UserInterface\PythonNetworkStream.cpp
; File D:\_m2work\Server Client TMP4\ClientVS22\source\eterLib\NetPacketHeaderMap.h
; File D:\_m2work\Server Client TMP4\ClientVS22\source\UserInterface\PythonNetworkStream.cpp
; File D:\_m2work\Server Client TMP4\ClientVS22\source\eterLib\NetPacketHeaderMap.h
; File D:\_m2work\Server Client TMP4\ClientVS22\source\UserInterface\PythonNetworkStream.cpp
; File D:\_m2work\Server Client TMP4\ClientVS22\source\eterLib\NetPacketHeaderMap.h
; File D:\_m2work\Server Client TMP4\ClientVS22\source\UserInterface\PythonNetworkStream.cpp
; File D:\_m2work\Server Client TMP4\ClientVS22\source\eterLib\NetPacketHeaderMap.h
; File D:\_m2work\Server Client TMP4\ClientVS22\source\UserInterface\PythonNetworkStream.cpp
; File D:\_m2work\Server Client TMP4\ClientVS22\source\eterLib\NetPacketHeaderMap.h
; File D:\_m2work\Server Client TMP4\ClientVS22\source\UserInterface\PythonNetworkStream.cpp
; File D:\_m2work\Server Client TMP4\ClientVS22\source\eterLib\NetPacketHeaderMap.h
; File D:\_m2work\Server Client TMP4\ClientVS22\source\UserInterface\PythonNetworkStream.cpp
; File D:\_m2work\Server Client TMP4\ClientVS22\source\eterLib\NetPacketHeaderMap.h
; File D:\_m2work\Server Client TMP4\ClientVS22\source\UserInterface\PythonNetworkStream.cpp
; File D:\_m2work\Server Client TMP4\ClientVS22\source\eterLib\NetPacketHeaderMap.h
; File D:\_m2work\Server Client TMP4\ClientVS22\source\UserInterface\PythonNetworkStream.cpp
; File D:\_m2work\Server Client TMP4\ClientVS22\source\eterLib\NetPacketHeaderMap.h
; File D:\_m2work\Server Client TMP4\ClientVS22\source\UserInterface\PythonNetworkStream.cpp
; File D:\_m2work\Server Client TMP4\ClientVS22\source\eterLib\NetPacketHeaderMap.h
; File D:\_m2work\Server Client TMP4\ClientVS22\source\UserInterface\PythonNetworkStream.cpp
; File D:\_m2work\Server Client TMP4\ClientVS22\source\eterLib\NetPacketHeaderMap.h
; File D:\_m2work\Server Client TMP4\ClientVS22\source\UserInterface\PythonNetworkStream.cpp
; File D:\_m2work\Server Client TMP4\ClientVS22\source\eterLib\NetPacketHeaderMap.h
; File D:\_m2work\Server Client TMP4\ClientVS22\source\UserInterface\PythonNetworkStream.cpp
; File D:\_m2work\Server Client TMP4\ClientVS22\source\eterLib\NetPacketHeaderMap.h
; File D:\_m2work\Server Client TMP4\ClientVS22\source\UserInterface\PythonNetworkStream.cpp
; File D:\_m2work\Server Client TMP4\ClientVS22\source\eterLib\NetPacketHeaderMap.h
; File D:\_m2work\Server Client TMP4\ClientVS22\source\UserInterface\PythonNetworkStream.cpp
; File D:\_m2work\Server Client TMP4\ClientVS22\source\eterLib\NetPacketHeaderMap.h
; File D:\_m2work\Server Client TMP4\ClientVS22\source\UserInterface\PythonNetworkStream.cpp
; File D:\_m2work\Server Client TMP4\ClientVS22\source\eterLib\NetPacketHeaderMap.h
; File D:\_m2work\Server Client TMP4\ClientVS22\source\UserInterface\PythonNetworkStream.cpp
; File D:\_m2work\Server Client TMP4\ClientVS22\source\eterLib\NetPacketHeaderMap.h
; File D:\_m2work\Server Client TMP4\ClientVS22\source\UserInterface\PythonNetworkStream.cpp
; File D:\_m2work\Server Client TMP4\ClientVS22\source\eterLib\NetPacketHeaderMap.h
; File D:\_m2work\Server Client TMP4\ClientVS22\source\UserInterface\PythonNetworkStream.cpp
; File D:\_m2work\Server Client TMP4\ClientVS22\source\eterLib\NetPacketHeaderMap.h
; File D:\_m2work\Server Client TMP4\ClientVS22\source\UserInterface\PythonNetworkStream.cpp
; File D:\_m2work\Server Client TMP4\ClientVS22\source\eterLib\NetPacketHeaderMap.h
; File D:\_m2work\Server Client TMP4\ClientVS22\source\UserInterface\PythonNetworkStream.cpp
; File D:\_m2work\Server Client TMP4\ClientVS22\source\eterLib\NetPacketHeaderMap.h
; File D:\_m2work\Server Client TMP4\ClientVS22\source\UserInterface\PythonNetworkStream.cpp
; File D:\_m2work\Server Client TMP4\ClientVS22\source\eterLib\NetPacketHeaderMap.h
; File D:\_m2work\Server Client TMP4\ClientVS22\source\UserInterface\PythonNetworkStream.cpp
; File D:\_m2work\Server Client TMP4\ClientVS22\source\eterLib\NetPacketHeaderMap.h
; File D:\_m2work\Server Client TMP4\ClientVS22\source\UserInterface\PythonNetworkStream.cpp
; File D:\_m2work\Server Client TMP4\ClientVS22\source\eterLib\NetPacketHeaderMap.h
; File D:\_m2work\Server Client TMP4\ClientVS22\source\UserInterface\PythonNetworkStream.cpp
; File D:\_m2work\Server Client TMP4\ClientVS22\source\eterLib\NetPacketHeaderMap.h
; File D:\_m2work\Server Client TMP4\ClientVS22\source\UserInterface\PythonNetworkStream.cpp
; File D:\_m2work\Server Client TMP4\ClientVS22\source\eterLib\NetPacketHeaderMap.h
; File D:\_m2work\Server Client TMP4\ClientVS22\source\UserInterface\PythonNetworkStream.cpp
; File D:\_m2work\Server Client TMP4\ClientVS22\source\eterLib\NetPacketHeaderMap.h
; File D:\_m2work\Server Client TMP4\ClientVS22\source\UserInterface\PythonNetworkStream.cpp
; File D:\_m2work\Server Client TMP4\ClientVS22\source\eterLib\NetPacketHeaderMap.h
; File D:\_m2work\Server Client TMP4\ClientVS22\source\UserInterface\PythonNetworkStream.cpp
; File D:\_m2work\Server Client TMP4\ClientVS22\source\eterLib\NetPacketHeaderMap.h
; File D:\_m2work\Server Client TMP4\ClientVS22\source\UserInterface\PythonNetworkStream.cpp
; File D:\_m2work\Server Client TMP4\ClientVS22\source\eterLib\NetPacketHeaderMap.h
; File D:\_m2work\Server Client TMP4\ClientVS22\source\UserInterface\PythonNetworkStream.cpp
; File D:\_m2work\Server Client TMP4\ClientVS22\source\eterLib\NetPacketHeaderMap.h
; File D:\_m2work\Server Client TMP4\ClientVS22\source\UserInterface\PythonNetworkStream.cpp
; File D:\_m2work\Server Client TMP4\ClientVS22\source\eterLib\NetPacketHeaderMap.h
; File D:\_m2work\Server Client TMP4\ClientVS22\source\UserInterface\PythonNetworkStream.cpp
; File D:\_m2work\Server Client TMP4\ClientVS22\source\eterLib\NetPacketHeaderMap.h
; File D:\_m2work\Server Client TMP4\ClientVS22\source\UserInterface\PythonNetworkStream.cpp
; File D:\_m2work\Server Client TMP4\ClientVS22\source\eterLib\NetPacketHeaderMap.h
; File D:\_m2work\Server Client TMP4\ClientVS22\source\UserInterface\PythonNetworkStream.cpp
; File D:\_m2work\Server Client TMP4\ClientVS22\source\eterLib\NetPacketHeaderMap.h
; File D:\_m2work\Server Client TMP4\ClientVS22\source\UserInterface\PythonNetworkStream.cpp
; File D:\_m2work\Server Client TMP4\ClientVS22\source\eterLib\NetPacketHeaderMap.h
; File D:\_m2work\Server Client TMP4\ClientVS22\source\UserInterface\PythonNetworkStream.cpp
; File D:\_m2work\Server Client TMP4\ClientVS22\source\eterLib\NetPacketHeaderMap.h
; File D:\_m2work\Server Client TMP4\ClientVS22\source\UserInterface\PythonNetworkStream.cpp
; File D:\_m2work\Server Client TMP4\ClientVS22\source\eterLib\NetPacketHeaderMap.h
; File D:\_m2work\Server Client TMP4\ClientVS22\source\UserInterface\PythonNetworkStream.cpp
; File D:\_m2work\Server Client TMP4\ClientVS22\source\eterLib\NetPacketHeaderMap.h
; File D:\_m2work\Server Client TMP4\ClientVS22\source\UserInterface\PythonNetworkStream.cpp
; File D:\_m2work\Server Client TMP4\ClientVS22\source\eterLib\NetPacketHeaderMap.h
; File D:\_m2work\Server Client TMP4\ClientVS22\source\UserInterface\PythonNetworkStream.cpp
; File D:\_m2work\Server Client TMP4\ClientVS22\source\eterLib\NetPacketHeaderMap.h
; File D:\_m2work\Server Client TMP4\ClientVS22\source\UserInterface\PythonNetworkStream.cpp
; File D:\_m2work\Server Client TMP4\ClientVS22\source\eterLib\NetPacketHeaderMap.h
; File D:\_m2work\Server Client TMP4\ClientVS22\source\UserInterface\PythonNetworkStream.cpp
; File D:\_m2work\Server Client TMP4\ClientVS22\source\eterLib\NetPacketHeaderMap.h
; File D:\_m2work\Server Client TMP4\ClientVS22\source\UserInterface\PythonNetworkStream.cpp
; File D:\_m2work\Server Client TMP4\ClientVS22\source\eterLib\NetPacketHeaderMap.h
; File D:\_m2work\Server Client TMP4\ClientVS22\source\UserInterface\PythonNetworkStream.cpp
; File D:\_m2work\Server Client TMP4\ClientVS22\source\eterLib\NetPacketHeaderMap.h
; File D:\_m2work\Server Client TMP4\ClientVS22\source\UserInterface\PythonNetworkStream.cpp
; File D:\_m2work\Server Client TMP4\ClientVS22\source\eterLib\NetPacketHeaderMap.h
; File D:\_m2work\Server Client TMP4\ClientVS22\source\UserInterface\PythonNetworkStream.cpp
; File D:\_m2work\Server Client TMP4\ClientVS22\source\eterLib\NetPacketHeaderMap.h
; File D:\_m2work\Server Client TMP4\ClientVS22\source\UserInterface\PythonNetworkStream.cpp
; File D:\_m2work\Server Client TMP4\ClientVS22\source\eterLib\NetPacketHeaderMap.h
; File D:\_m2work\Server Client TMP4\ClientVS22\source\UserInterface\PythonNetworkStream.cpp
; File D:\_m2work\Server Client TMP4\ClientVS22\source\eterLib\NetPacketHeaderMap.h
; File D:\_m2work\Server Client TMP4\ClientVS22\source\UserInterface\PythonNetworkStream.cpp
; File D:\_m2work\Server Client TMP4\ClientVS22\source\eterLib\NetPacketHeaderMap.h
; File D:\_m2work\Server Client TMP4\ClientVS22\source\UserInterface\PythonNetworkStream.cpp
; File D:\_m2work\Server Client TMP4\ClientVS22\source\eterLib\NetPacketHeaderMap.h
; File D:\_m2work\Server Client TMP4\ClientVS22\source\UserInterface\PythonNetworkStream.cpp
; File D:\_m2work\Server Client TMP4\ClientVS22\source\eterLib\NetPacketHeaderMap.h
; File D:\_m2work\Server Client TMP4\ClientVS22\source\UserInterface\PythonNetworkStream.cpp
; File D:\_m2work\Server Client TMP4\ClientVS22\source\eterLib\NetPacketHeaderMap.h
; File D:\_m2work\Server Client TMP4\ClientVS22\source\UserInterface\PythonNetworkStream.cpp
; File D:\_m2work\Server Client TMP4\ClientVS22\source\eterLib\NetPacketHeaderMap.h
; File D:\_m2work\Server Client TMP4\ClientVS22\source\UserInterface\PythonNetworkStream.cpp
; File D:\_m2work\Server Client TMP4\ClientVS22\source\eterLib\NetPacketHeaderMap.h
; File D:\_m2work\Server Client TMP4\ClientVS22\source\UserInterface\PythonNetworkStream.cpp
; File D:\_m2work\Server Client TMP4\ClientVS22\source\eterLib\NetPacketHeaderMap.h
; File D:\_m2work\Server Client TMP4\ClientVS22\source\UserInterface\PythonNetworkStream.cpp
; File D:\_m2work\Server Client TMP4\ClientVS22\source\eterLib\NetPacketHeaderMap.h
; File D:\_m2work\Server Client TMP4\ClientVS22\source\UserInterface\PythonNetworkStream.cpp
; File D:\_m2work\Server Client TMP4\ClientVS22\source\eterLib\NetPacketHeaderMap.h
; File D:\_m2work\Server Client TMP4\ClientVS22\source\UserInterface\PythonNetworkStream.cpp
; File D:\_m2work\Server Client TMP4\ClientVS22\source\eterLib\NetPacketHeaderMap.h
; File D:\_m2work\Server Client TMP4\ClientVS22\source\UserInterface\PythonNetworkStream.cpp
; File D:\_m2work\Server Client TMP4\ClientVS22\source\eterLib\NetPacketHeaderMap.h
; File D:\_m2work\Server Client TMP4\ClientVS22\source\UserInterface\PythonNetworkStream.cpp
; File D:\_m2work\Server Client TMP4\ClientVS22\source\eterLib\NetPacketHeaderMap.h
; File D:\_m2work\Server Client TMP4\ClientVS22\source\UserInterface\PythonNetworkStream.cpp
; File D:\_m2work\Server Client TMP4\ClientVS22\source\eterLib\NetPacketHeaderMap.h
; File D:\_m2work\Server Client TMP4\ClientVS22\source\UserInterface\PythonNetworkStream.cpp
; File D:\_m2work\Server Client TMP4\ClientVS22\source\eterLib\NetPacketHeaderMap.h
; File D:\_m2work\Server Client TMP4\ClientVS22\source\UserInterface\PythonNetworkStream.cpp
; File D:\_m2work\Server Client TMP4\ClientVS22\source\eterLib\NetPacketHeaderMap.h
; File D:\_m2work\Server Client TMP4\ClientVS22\source\UserInterface\PythonNetworkStream.cpp
; File D:\_m2work\Server Client TMP4\ClientVS22\source\eterLib\NetPacketHeaderMap.h
; File D:\_m2work\Server Client TMP4\ClientVS22\source\UserInterface\PythonNetworkStream.cpp
; File D:\_m2work\Server Client TMP4\ClientVS22\source\eterLib\NetPacketHeaderMap.h
; File D:\_m2work\Server Client TMP4\ClientVS22\source\UserInterface\PythonNetworkStream.cpp
; File D:\_m2work\Server Client TMP4\ClientVS22\source\eterLib\NetPacketHeaderMap.h
; File D:\_m2work\Server Client TMP4\ClientVS22\source\UserInterface\PythonNetworkStream.cpp
; File D:\_m2work\Server Client TMP4\ClientVS22\source\eterLib\NetPacketHeaderMap.h
; File D:\_m2work\Server Client TMP4\ClientVS22\source\UserInterface\PythonNetworkStream.cpp
; File D:\_m2work\Server Client TMP4\ClientVS22\source\eterLib\NetPacketHeaderMap.h
; File D:\_m2work\Server Client TMP4\ClientVS22\source\UserInterface\PythonNetworkStream.cpp
; File D:\_m2work\Server Client TMP4\ClientVS22\source\eterLib\NetPacketHeaderMap.h
; File D:\_m2work\Server Client TMP4\ClientVS22\source\UserInterface\PythonNetworkStream.cpp
; File D:\_m2work\Server Client TMP4\ClientVS22\source\eterLib\NetPacketHeaderMap.h
; File D:\_m2work\Server Client TMP4\ClientVS22\source\UserInterface\PythonNetworkStream.cpp
; File D:\_m2work\Server Client TMP4\ClientVS22\source\eterLib\NetPacketHeaderMap.h
; File D:\_m2work\Server Client TMP4\ClientVS22\source\UserInterface\PythonNetworkStream.cpp
; File D:\_m2work\Server Client TMP4\ClientVS22\source\eterLib\NetPacketHeaderMap.h
; File D:\_m2work\Server Client TMP4\ClientVS22\source\UserInterface\PythonNetworkStream.cpp
; File D:\_m2work\Server Client TMP4\ClientVS22\source\eterLib\NetPacketHeaderMap.h
; File D:\_m2work\Server Client TMP4\ClientVS22\source\UserInterface\PythonNetworkStream.cpp
; File D:\_m2work\Server Client TMP4\ClientVS22\source\eterLib\NetPacketHeaderMap.h
; File D:\_m2work\Server Client TMP4\ClientVS22\source\UserInterface\PythonNetworkStream.cpp
; File D:\_m2work\Server Client TMP4\ClientVS22\source\eterLib\NetPacketHeaderMap.h
; File D:\_m2work\Server Client TMP4\ClientVS22\source\UserInterface\PythonNetworkStream.cpp
; File D:\_m2work\Server Client TMP4\ClientVS22\source\eterLib\NetPacketHeaderMap.h
; File D:\_m2work\Server Client TMP4\ClientVS22\source\UserInterface\PythonNetworkStream.cpp
; File D:\_m2work\Server Client TMP4\ClientVS22\source\eterLib\NetPacketHeaderMap.h
; File D:\_m2work\Server Client TMP4\ClientVS22\source\UserInterface\PythonNetworkStream.cpp
; File D:\_m2work\Server Client TMP4\ClientVS22\source\eterLib\NetPacketHeaderMap.h
; File D:\_m2work\Server Client TMP4\ClientVS22\source\UserInterface\PythonNetworkStream.cpp
; File D:\_m2work\Server Client TMP4\ClientVS22\source\eterLib\NetPacketHeaderMap.h
; File D:\_m2work\Server Client TMP4\ClientVS22\source\UserInterface\PythonNetworkStream.cpp
; File D:\_m2work\Server Client TMP4\ClientVS22\source\eterLib\NetPacketHeaderMap.h
; File D:\_m2work\Server Client TMP4\ClientVS22\source\UserInterface\PythonNetworkStream.cpp
; File D:\_m2work\Server Client TMP4\ClientVS22\source\eterLib\NetPacketHeaderMap.h
; File D:\_m2work\Server Client TMP4\ClientVS22\source\UserInterface\PythonNetworkStream.cpp
; File D:\_m2work\Server Client TMP4\ClientVS22\source\eterLib\NetPacketHeaderMap.h
; File D:\_m2work\Server Client TMP4\ClientVS22\source\UserInterface\PythonNetworkStream.cpp
; File D:\_m2work\Server Client TMP4\ClientVS22\source\eterLib\NetPacketHeaderMap.h
; File D:\_m2work\Server Client TMP4\ClientVS22\source\UserInterface\PythonNetworkStream.cpp
; File D:\_m2work\Server Client TMP4\ClientVS22\source\eterLib\NetPacketHeaderMap.h
; File D:\_m2work\Server Client TMP4\ClientVS22\source\UserInterface\PythonNetworkStream.cpp
; File D:\_m2work\Server Client TMP4\ClientVS22\source\eterLib\NetPacketHeaderMap.h
; File D:\_m2work\Server Client TMP4\ClientVS22\source\UserInterface\PythonNetworkStream.cpp
; File D:\_m2work\Server Client TMP4\ClientVS22\source\eterLib\NetPacketHeaderMap.h
; File D:\_m2work\Server Client TMP4\ClientVS22\source\UserInterface\PythonNetworkStream.cpp
; File D:\_m2work\Server Client TMP4\ClientVS22\source\eterLib\NetPacketHeaderMap.h
; File D:\_m2work\Server Client TMP4\ClientVS22\source\UserInterface\PythonNetworkStream.cpp
; File D:\_m2work\Server Client TMP4\ClientVS22\source\eterLib\NetPacketHeaderMap.h
; File D:\_m2work\Server Client TMP4\ClientVS22\source\UserInterface\PythonNetworkStream.cpp
; File D:\_m2work\Server Client TMP4\ClientVS22\source\eterLib\NetPacketHeaderMap.h
; File D:\_m2work\Server Client TMP4\ClientVS22\source\UserInterface\PythonNetworkStream.cpp
;	COMDAT ??0CMainPacketHeaderMap@@QAE@XZ
_TEXT	SEGMENT
$T2 = -24						; size = 8
$T3 = -24						; size = 8
$T4 = -24						; size = 8
$T5 = -24						; size = 8
$T6 = -24						; size = 8
$T7 = -24						; size = 8
$T8 = -24						; size = 8
$T9 = -24						; size = 8
$T10 = -24						; size = 8
$T11 = -24						; size = 8
$T12 = -24						; size = 8
$T13 = -24						; size = 8
$T14 = -24						; size = 8
$T15 = -24						; size = 8
$T16 = -24						; size = 8
$T17 = -24						; size = 8
$T18 = -24						; size = 8
$T19 = -24						; size = 8
$T20 = -24						; size = 8
$T21 = -24						; size = 8
$T22 = -24						; size = 8
$T23 = -24						; size = 8
$T24 = -24						; size = 8
$T25 = -24						; size = 8
$T26 = -24						; size = 8
$T27 = -24						; size = 8
$T28 = -24						; size = 8
$T29 = -24						; size = 8
$T30 = -24						; size = 8
$T31 = -24						; size = 8
$T32 = -24						; size = 8
$T33 = -24						; size = 8
$T34 = -24						; size = 8
$T35 = -24						; size = 8
$T36 = -24						; size = 8
$T37 = -24						; size = 8
$T38 = -24						; size = 8
$T39 = -24						; size = 8
$T40 = -24						; size = 8
$T41 = -24						; size = 8
$T42 = -24						; size = 8
$T43 = -24						; size = 8
$T44 = -24						; size = 8
$T45 = -24						; size = 8
$T46 = -24						; size = 8
$T47 = -24						; size = 8
$T48 = -24						; size = 8
$T49 = -24						; size = 8
$T50 = -24						; size = 8
$T51 = -24						; size = 8
$T52 = -24						; size = 8
$T53 = -24						; size = 8
$T54 = -24						; size = 8
$T55 = -24						; size = 8
$T56 = -24						; size = 8
$T57 = -24						; size = 8
$T58 = -24						; size = 8
$T59 = -24						; size = 8
$T60 = -24						; size = 8
$T61 = -24						; size = 8
$T62 = -24						; size = 8
$T63 = -24						; size = 8
$T64 = -24						; size = 8
$T65 = -24						; size = 8
$T66 = -24						; size = 8
$T67 = -24						; size = 8
$T68 = -24						; size = 8
$T69 = -24						; size = 8
$T70 = -24						; size = 8
$T71 = -24						; size = 8
$T72 = -24						; size = 8
$T73 = -24						; size = 8
$T74 = -24						; size = 8
$T75 = -24						; size = 8
$T76 = -24						; size = 8
$T77 = -24						; size = 8
$T78 = -24						; size = 8
$T79 = -24						; size = 8
$T80 = -24						; size = 8
$T81 = -24						; size = 8
$T82 = -24						; size = 8
$T83 = -24						; size = 8
$T84 = -24						; size = 8
$T85 = -24						; size = 8
$T86 = -24						; size = 8
$T87 = -24						; size = 8
$T88 = -24						; size = 8
$T89 = -24						; size = 8
$T90 = -24						; size = 8
$T91 = -24						; size = 8
$T92 = -24						; size = 8
$T93 = -24						; size = 8
$T94 = -24						; size = 8
$T95 = -24						; size = 8
$T96 = -24						; size = 8
$T97 = -24						; size = 8
$T98 = -24						; size = 8
$T99 = -24						; size = 8
$T100 = -24						; size = 8
$T101 = -24						; size = 8
$T102 = -24						; size = 8
$T103 = -24						; size = 8
$T104 = -24						; size = 8
$T105 = -24						; size = 8
$T106 = -24						; size = 8
$T107 = -24						; size = 8
$T108 = -24						; size = 8
$T109 = -24						; size = 8
$T110 = -24						; size = 8
$T111 = -24						; size = 8
$T112 = -24						; size = 8
$T113 = -24						; size = 8
$T114 = -24						; size = 8
$T115 = -24						; size = 8
$T116 = -24						; size = 8
$T117 = -24						; size = 8
$T118 = -24						; size = 8
_this$ = -16						; size = 4
__$EHRec$ = -12						; size = 12
??0CMainPacketHeaderMap@@QAE@XZ PROC			; CMainPacketHeaderMap::CMainPacketHeaderMap, COMDAT
; _this$dead$ = ecx

; 29   : 		CMainPacketHeaderMap()

  00000	55		 push	 ebp
  00001	8b ec		 mov	 ebp, esp
  00003	6a ff		 push	 -1
  00005	68 00 00 00 00	 push	 __ehhandler$??0CMainPacketHeaderMap@@QAE@XZ
  0000a	64 a1 00 00 00
	00		 mov	 eax, DWORD PTR fs:0
  00010	50		 push	 eax
  00011	83 ec 0c	 sub	 esp, 12			; 0000000cH
  00014	a1 00 00 00 00	 mov	 eax, DWORD PTR ___security_cookie
  00019	33 c5		 xor	 eax, ebp
  0001b	50		 push	 eax
  0001c	8d 45 f4	 lea	 eax, DWORD PTR __$EHRec$[ebp]
  0001f	64 a3 00 00 00
	00		 mov	 DWORD PTR fs:0, eax

; 30   : 		{

  00025	b9 00 00 00 00	 mov	 ecx, OFFSET ?s_packetHeaderMap@?1??CheckPacket@CPythonNetworkStream@@IAE_NPAE@Z@4VCMainPacketHeaderMap@@A
  0002a	c7 45 f0 00 00
	00 00		 mov	 DWORD PTR _this$[ebp], OFFSET ?s_packetHeaderMap@?1??CheckPacket@CPythonNetworkStream@@IAE_NPAE@Z@4VCMainPacketHeaderMap@@A
  00031	e8 00 00 00 00	 call	 ??0CNetworkPacketHeaderMap@@QAE@XZ ; CNetworkPacketHeaderMap::CNetworkPacketHeaderMap
; File D:\_m2work\Server Client TMP4\ClientVS22\source\eterLib\NetPacketHeaderMap.h

; 13   : 				isDynamicSizePacket = bFlag;

  00036	c6 45 ec 00	 mov	 BYTE PTR $T3[ebp+4], 0
; File D:\_m2work\Server Client TMP4\ClientVS22\source\UserInterface\PythonNetworkStream.cpp

; 31   : 			Set(HEADER_GC_EMPIRE,				CNetworkPacketHeaderMap::TPacketType(sizeof(TPacketGCEmpire), STATIC_SIZE_PACKET));

  0003a	b9 00 00 00 00	 mov	 ecx, OFFSET ?s_packetHeaderMap@?1??CheckPacket@CPythonNetworkStream@@IAE_NPAE@Z@4VCMainPacketHeaderMap@@A
  0003f	ff 75 ec	 push	 DWORD PTR $T3[ebp+4]
  00042	c7 45 fc 00 00
	00 00		 mov	 DWORD PTR __$EHRec$[ebp+8], 0
  00049	6a 02		 push	 2
  0004b	6a 5a		 push	 90			; 0000005aH
  0004d	c7 05 00 00 00
	00 00 00 00 00	 mov	 DWORD PTR ?s_packetHeaderMap@?1??CheckPacket@CPythonNetworkStream@@IAE_NPAE@Z@4VCMainPacketHeaderMap@@A, OFFSET ??_7CMainPacketHeaderMap@@6B@
  00057	e8 00 00 00 00	 call	 ?Set@CNetworkPacketHeaderMap@@QAEXHUSPacketType@1@@Z ; CNetworkPacketHeaderMap::Set
; File D:\_m2work\Server Client TMP4\ClientVS22\source\eterLib\NetPacketHeaderMap.h

; 13   : 				isDynamicSizePacket = bFlag;

  0005c	c6 45 ec 00	 mov	 BYTE PTR $T4[ebp+4], 0
; File D:\_m2work\Server Client TMP4\ClientVS22\source\UserInterface\PythonNetworkStream.cpp

; 32   : 			Set(HEADER_GC_WARP,					CNetworkPacketHeaderMap::TPacketType(sizeof(TPacketGCWarp), STATIC_SIZE_PACKET));

  00060	b9 00 00 00 00	 mov	 ecx, OFFSET ?s_packetHeaderMap@?1??CheckPacket@CPythonNetworkStream@@IAE_NPAE@Z@4VCMainPacketHeaderMap@@A
  00065	ff 75 ec	 push	 DWORD PTR $T4[ebp+4]
  00068	6a 0f		 push	 15			; 0000000fH
  0006a	6a 41		 push	 65			; 00000041H
  0006c	e8 00 00 00 00	 call	 ?Set@CNetworkPacketHeaderMap@@QAEXHUSPacketType@1@@Z ; CNetworkPacketHeaderMap::Set
; File D:\_m2work\Server Client TMP4\ClientVS22\source\eterLib\NetPacketHeaderMap.h

; 13   : 				isDynamicSizePacket = bFlag;

  00071	c6 45 ec 00	 mov	 BYTE PTR $T5[ebp+4], 0
; File D:\_m2work\Server Client TMP4\ClientVS22\source\UserInterface\PythonNetworkStream.cpp

; 33   : 			Set(HEADER_GC_SKILL_COOLTIME_END,	CNetworkPacketHeaderMap::TPacketType(sizeof(TPacketGCSkillCoolTimeEnd), STATIC_SIZE_PACKET));

  00075	b9 00 00 00 00	 mov	 ecx, OFFSET ?s_packetHeaderMap@?1??CheckPacket@CPythonNetworkStream@@IAE_NPAE@Z@4VCMainPacketHeaderMap@@A
  0007a	ff 75 ec	 push	 DWORD PTR $T5[ebp+4]
  0007d	6a 02		 push	 2
  0007f	6a 49		 push	 73			; 00000049H
  00081	e8 00 00 00 00	 call	 ?Set@CNetworkPacketHeaderMap@@QAEXHUSPacketType@1@@Z ; CNetworkPacketHeaderMap::Set
; File D:\_m2work\Server Client TMP4\ClientVS22\source\eterLib\NetPacketHeaderMap.h

; 13   : 				isDynamicSizePacket = bFlag;

  00086	c6 45 ec 01	 mov	 BYTE PTR $T6[ebp+4], 1
; File D:\_m2work\Server Client TMP4\ClientVS22\source\UserInterface\PythonNetworkStream.cpp

; 34   : 			Set(HEADER_GC_QUEST_INFO,			CNetworkPacketHeaderMap::TPacketType(sizeof(TPacketGCQuestInfo), DYNAMIC_SIZE_PACKET));

  0008a	b9 00 00 00 00	 mov	 ecx, OFFSET ?s_packetHeaderMap@?1??CheckPacket@CPythonNetworkStream@@IAE_NPAE@Z@4VCMainPacketHeaderMap@@A
  0008f	ff 75 ec	 push	 DWORD PTR $T6[ebp+4]
  00092	6a 06		 push	 6
  00094	6a 51		 push	 81			; 00000051H
  00096	e8 00 00 00 00	 call	 ?Set@CNetworkPacketHeaderMap@@QAEXHUSPacketType@1@@Z ; CNetworkPacketHeaderMap::Set
; File D:\_m2work\Server Client TMP4\ClientVS22\source\eterLib\NetPacketHeaderMap.h

; 13   : 				isDynamicSizePacket = bFlag;

  0009b	c6 45 ec 00	 mov	 BYTE PTR $T7[ebp+4], 0
; File D:\_m2work\Server Client TMP4\ClientVS22\source\UserInterface\PythonNetworkStream.cpp

; 35   : 			Set(HEADER_GC_REQUEST_MAKE_GUILD,	CNetworkPacketHeaderMap::TPacketType(sizeof(TPacketGCBlank), STATIC_SIZE_PACKET));

  0009f	b9 00 00 00 00	 mov	 ecx, OFFSET ?s_packetHeaderMap@?1??CheckPacket@CPythonNetworkStream@@IAE_NPAE@Z@4VCMainPacketHeaderMap@@A
  000a4	ff 75 ec	 push	 DWORD PTR $T7[ebp+4]
  000a7	6a 01		 push	 1
  000a9	6a 52		 push	 82			; 00000052H
  000ab	e8 00 00 00 00	 call	 ?Set@CNetworkPacketHeaderMap@@QAEXHUSPacketType@1@@Z ; CNetworkPacketHeaderMap::Set
; File D:\_m2work\Server Client TMP4\ClientVS22\source\eterLib\NetPacketHeaderMap.h

; 13   : 				isDynamicSizePacket = bFlag;

  000b0	c6 45 ec 00	 mov	 BYTE PTR $T8[ebp+4], 0
; File D:\_m2work\Server Client TMP4\ClientVS22\source\UserInterface\PythonNetworkStream.cpp

; 36   : 			Set(HEADER_GC_PVP,					CNetworkPacketHeaderMap::TPacketType(sizeof(TPacketGCPVP), STATIC_SIZE_PACKET));

  000b4	b9 00 00 00 00	 mov	 ecx, OFFSET ?s_packetHeaderMap@?1??CheckPacket@CPythonNetworkStream@@IAE_NPAE@Z@4VCMainPacketHeaderMap@@A
  000b9	ff 75 ec	 push	 DWORD PTR $T8[ebp+4]
  000bc	6a 0a		 push	 10			; 0000000aH
  000be	6a 29		 push	 41			; 00000029H
  000c0	e8 00 00 00 00	 call	 ?Set@CNetworkPacketHeaderMap@@QAEXHUSPacketType@1@@Z ; CNetworkPacketHeaderMap::Set
; File D:\_m2work\Server Client TMP4\ClientVS22\source\eterLib\NetPacketHeaderMap.h

; 13   : 				isDynamicSizePacket = bFlag;

  000c5	c6 45 ec 01	 mov	 BYTE PTR $T9[ebp+4], 1
; File D:\_m2work\Server Client TMP4\ClientVS22\source\UserInterface\PythonNetworkStream.cpp

; 37   : 			Set(HEADER_GC_DUEL_START,			CNetworkPacketHeaderMap::TPacketType(sizeof(TPacketGCDuelStart), DYNAMIC_SIZE_PACKET));

  000c9	b9 00 00 00 00	 mov	 ecx, OFFSET ?s_packetHeaderMap@?1??CheckPacket@CPythonNetworkStream@@IAE_NPAE@Z@4VCMainPacketHeaderMap@@A
  000ce	ff 75 ec	 push	 DWORD PTR $T9[ebp+4]
  000d1	6a 03		 push	 3
  000d3	6a 28		 push	 40			; 00000028H
  000d5	e8 00 00 00 00	 call	 ?Set@CNetworkPacketHeaderMap@@QAEXHUSPacketType@1@@Z ; CNetworkPacketHeaderMap::Set
; File D:\_m2work\Server Client TMP4\ClientVS22\source\eterLib\NetPacketHeaderMap.h

; 13   : 				isDynamicSizePacket = bFlag;

  000da	c6 45 ec 00	 mov	 BYTE PTR $T10[ebp+4], 0
; File D:\_m2work\Server Client TMP4\ClientVS22\source\UserInterface\PythonNetworkStream.cpp

; 38   : 			Set(HEADER_GC_CHARACTER_ADD,		CNetworkPacketHeaderMap::TPacketType(sizeof(TPacketGCCharacterAdd), STATIC_SIZE_PACKET));

  000de	b9 00 00 00 00	 mov	 ecx, OFFSET ?s_packetHeaderMap@?1??CheckPacket@CPythonNetworkStream@@IAE_NPAE@Z@4VCMainPacketHeaderMap@@A
  000e3	ff 75 ec	 push	 DWORD PTR $T10[ebp+4]
  000e6	6a 23		 push	 35			; 00000023H
  000e8	6a 01		 push	 1
  000ea	e8 00 00 00 00	 call	 ?Set@CNetworkPacketHeaderMap@@QAEXHUSPacketType@1@@Z ; CNetworkPacketHeaderMap::Set
; File D:\_m2work\Server Client TMP4\ClientVS22\source\eterLib\NetPacketHeaderMap.h

; 13   : 				isDynamicSizePacket = bFlag;

  000ef	c6 45 ec 00	 mov	 BYTE PTR $T11[ebp+4], 0
; File D:\_m2work\Server Client TMP4\ClientVS22\source\UserInterface\PythonNetworkStream.cpp

; 39   : 			Set(HEADER_GC_CHAR_ADDITIONAL_INFO,	CNetworkPacketHeaderMap::TPacketType(sizeof(TPacketGCCharacterAdditionalInfo), STATIC_SIZE_PACKET));

  000f3	b9 00 00 00 00	 mov	 ecx, OFFSET ?s_packetHeaderMap@?1??CheckPacket@CPythonNetworkStream@@IAE_NPAE@Z@4VCMainPacketHeaderMap@@A
  000f8	ff 75 ec	 push	 DWORD PTR $T11[ebp+4]
  000fb	6a 36		 push	 54			; 00000036H
  000fd	68 88 00 00 00	 push	 136			; 00000088H
  00102	e8 00 00 00 00	 call	 ?Set@CNetworkPacketHeaderMap@@QAEXHUSPacketType@1@@Z ; CNetworkPacketHeaderMap::Set
; File D:\_m2work\Server Client TMP4\ClientVS22\source\eterLib\NetPacketHeaderMap.h

; 13   : 				isDynamicSizePacket = bFlag;

  00107	c6 45 ec 00	 mov	 BYTE PTR $T12[ebp+4], 0
; File D:\_m2work\Server Client TMP4\ClientVS22\source\UserInterface\PythonNetworkStream.cpp

; 40   : 			Set(HEADER_GC_CHARACTER_ADD2,		CNetworkPacketHeaderMap::TPacketType(sizeof(TPacketGCCharacterAdd2), STATIC_SIZE_PACKET));

  0010b	b9 00 00 00 00	 mov	 ecx, OFFSET ?s_packetHeaderMap@?1??CheckPacket@CPythonNetworkStream@@IAE_NPAE@Z@4VCMainPacketHeaderMap@@A
  00110	ff 75 ec	 push	 DWORD PTR $T12[ebp+4]
  00113	6a 50		 push	 80			; 00000050H
  00115	6a 78		 push	 120			; 00000078H
  00117	e8 00 00 00 00	 call	 ?Set@CNetworkPacketHeaderMap@@QAEXHUSPacketType@1@@Z ; CNetworkPacketHeaderMap::Set
; File D:\_m2work\Server Client TMP4\ClientVS22\source\eterLib\NetPacketHeaderMap.h

; 13   : 				isDynamicSizePacket = bFlag;

  0011c	c6 45 ec 00	 mov	 BYTE PTR $T13[ebp+4], 0
; File D:\_m2work\Server Client TMP4\ClientVS22\source\UserInterface\PythonNetworkStream.cpp

; 41   : 			Set(HEADER_GC_CHARACTER_UPDATE,		CNetworkPacketHeaderMap::TPacketType(sizeof(TPacketGCCharacterUpdate), STATIC_SIZE_PACKET));

  00120	b9 00 00 00 00	 mov	 ecx, OFFSET ?s_packetHeaderMap@?1??CheckPacket@CPythonNetworkStream@@IAE_NPAE@Z@4VCMainPacketHeaderMap@@A
  00125	ff 75 ec	 push	 DWORD PTR $T13[ebp+4]
  00128	6a 23		 push	 35			; 00000023H
  0012a	6a 13		 push	 19			; 00000013H
  0012c	e8 00 00 00 00	 call	 ?Set@CNetworkPacketHeaderMap@@QAEXHUSPacketType@1@@Z ; CNetworkPacketHeaderMap::Set
; File D:\_m2work\Server Client TMP4\ClientVS22\source\eterLib\NetPacketHeaderMap.h

; 13   : 				isDynamicSizePacket = bFlag;

  00131	c6 45 ec 00	 mov	 BYTE PTR $T14[ebp+4], 0
; File D:\_m2work\Server Client TMP4\ClientVS22\source\UserInterface\PythonNetworkStream.cpp

; 42   : 			Set(HEADER_GC_CHARACTER_UPDATE2,	CNetworkPacketHeaderMap::TPacketType(sizeof(TPacketGCCharacterUpdate2), STATIC_SIZE_PACKET));

  00135	b9 00 00 00 00	 mov	 ecx, OFFSET ?s_packetHeaderMap@?1??CheckPacket@CPythonNetworkStream@@IAE_NPAE@Z@4VCMainPacketHeaderMap@@A
  0013a	ff 75 ec	 push	 DWORD PTR $T14[ebp+4]
  0013d	6a 23		 push	 35			; 00000023H
  0013f	6a 75		 push	 117			; 00000075H
  00141	e8 00 00 00 00	 call	 ?Set@CNetworkPacketHeaderMap@@QAEXHUSPacketType@1@@Z ; CNetworkPacketHeaderMap::Set
; File D:\_m2work\Server Client TMP4\ClientVS22\source\eterLib\NetPacketHeaderMap.h

; 13   : 				isDynamicSizePacket = bFlag;

  00146	c6 45 ec 00	 mov	 BYTE PTR $T15[ebp+4], 0
; File D:\_m2work\Server Client TMP4\ClientVS22\source\UserInterface\PythonNetworkStream.cpp

; 43   : 			Set(HEADER_GC_CHARACTER_DEL,		CNetworkPacketHeaderMap::TPacketType(sizeof(TPacketGCCharacterDelete), STATIC_SIZE_PACKET));

  0014a	ff 75 ec	 push	 DWORD PTR $T15[ebp+4]
  0014d	6a 05		 push	 5
  0014f	6a 02		 push	 2
  00151	b9 00 00 00 00	 mov	 ecx, OFFSET ?s_packetHeaderMap@?1??CheckPacket@CPythonNetworkStream@@IAE_NPAE@Z@4VCMainPacketHeaderMap@@A
  00156	e8 00 00 00 00	 call	 ?Set@CNetworkPacketHeaderMap@@QAEXHUSPacketType@1@@Z ; CNetworkPacketHeaderMap::Set
; File D:\_m2work\Server Client TMP4\ClientVS22\source\eterLib\NetPacketHeaderMap.h

; 13   : 				isDynamicSizePacket = bFlag;

  0015b	c6 45 ec 00	 mov	 BYTE PTR $T2[ebp+4], 0
; File D:\_m2work\Server Client TMP4\ClientVS22\source\UserInterface\PythonNetworkStream.cpp

; 44   : 			Set(HEADER_GC_CHARACTER_MOVE,		CNetworkPacketHeaderMap::TPacketType(sizeof(TPacketGCMove), STATIC_SIZE_PACKET));

  0015f	b9 00 00 00 00	 mov	 ecx, OFFSET ?s_packetHeaderMap@?1??CheckPacket@CPythonNetworkStream@@IAE_NPAE@Z@4VCMainPacketHeaderMap@@A
  00164	ff 75 ec	 push	 DWORD PTR $T2[ebp+4]
  00167	6a 18		 push	 24			; 00000018H
  00169	6a 03		 push	 3
  0016b	e8 00 00 00 00	 call	 ?Set@CNetworkPacketHeaderMap@@QAEXHUSPacketType@1@@Z ; CNetworkPacketHeaderMap::Set
; File D:\_m2work\Server Client TMP4\ClientVS22\source\eterLib\NetPacketHeaderMap.h

; 13   : 				isDynamicSizePacket = bFlag;

  00170	c6 45 ec 01	 mov	 BYTE PTR $T17[ebp+4], 1
; File D:\_m2work\Server Client TMP4\ClientVS22\source\UserInterface\PythonNetworkStream.cpp

; 45   : 			Set(HEADER_GC_CHAT,					CNetworkPacketHeaderMap::TPacketType(sizeof(TPacketGCChat), DYNAMIC_SIZE_PACKET));

  00174	b9 00 00 00 00	 mov	 ecx, OFFSET ?s_packetHeaderMap@?1??CheckPacket@CPythonNetworkStream@@IAE_NPAE@Z@4VCMainPacketHeaderMap@@A
  00179	ff 75 ec	 push	 DWORD PTR $T17[ebp+4]
  0017c	6a 09		 push	 9
  0017e	6a 04		 push	 4
  00180	e8 00 00 00 00	 call	 ?Set@CNetworkPacketHeaderMap@@QAEXHUSPacketType@1@@Z ; CNetworkPacketHeaderMap::Set
; File D:\_m2work\Server Client TMP4\ClientVS22\source\eterLib\NetPacketHeaderMap.h

; 13   : 				isDynamicSizePacket = bFlag;

  00185	c6 45 ec 01	 mov	 BYTE PTR $T18[ebp+4], 1
; File D:\_m2work\Server Client TMP4\ClientVS22\source\UserInterface\PythonNetworkStream.cpp

; 47   : 			Set(HEADER_GC_SYNC_POSITION,		CNetworkPacketHeaderMap::TPacketType(sizeof(TPacketGCC2C), DYNAMIC_SIZE_PACKET));

  00189	b9 00 00 00 00	 mov	 ecx, OFFSET ?s_packetHeaderMap@?1??CheckPacket@CPythonNetworkStream@@IAE_NPAE@Z@4VCMainPacketHeaderMap@@A
  0018e	ff 75 ec	 push	 DWORD PTR $T18[ebp+4]
  00191	6a 03		 push	 3
  00193	6a 05		 push	 5
  00195	e8 00 00 00 00	 call	 ?Set@CNetworkPacketHeaderMap@@QAEXHUSPacketType@1@@Z ; CNetworkPacketHeaderMap::Set
; File D:\_m2work\Server Client TMP4\ClientVS22\source\eterLib\NetPacketHeaderMap.h

; 13   : 				isDynamicSizePacket = bFlag;

  0019a	c6 45 ec 00	 mov	 BYTE PTR $T19[ebp+4], 0
; File D:\_m2work\Server Client TMP4\ClientVS22\source\UserInterface\PythonNetworkStream.cpp

; 49   : 			Set(HEADER_GC_LOGIN_SUCCESS3,		CNetworkPacketHeaderMap::TPacketType(sizeof(TPacketGCLoginSuccess3), STATIC_SIZE_PACKET));

  0019e	b9 00 00 00 00	 mov	 ecx, OFFSET ?s_packetHeaderMap@?1??CheckPacket@CPythonNetworkStream@@IAE_NPAE@Z@4VCMainPacketHeaderMap@@A
  001a3	ff 75 ec	 push	 DWORD PTR $T19[ebp+4]
  001a6	68 f9 00 00 00	 push	 249			; 000000f9H
  001ab	6a 06		 push	 6
  001ad	e8 00 00 00 00	 call	 ?Set@CNetworkPacketHeaderMap@@QAEXHUSPacketType@1@@Z ; CNetworkPacketHeaderMap::Set
; File D:\_m2work\Server Client TMP4\ClientVS22\source\eterLib\NetPacketHeaderMap.h

; 13   : 				isDynamicSizePacket = bFlag;

  001b2	c6 45 ec 00	 mov	 BYTE PTR $T20[ebp+4], 0
; File D:\_m2work\Server Client TMP4\ClientVS22\source\UserInterface\PythonNetworkStream.cpp

; 50   : 			Set(HEADER_GC_LOGIN_SUCCESS4,		CNetworkPacketHeaderMap::TPacketType(sizeof(TPacketGCLoginSuccess4), STATIC_SIZE_PACKET));

  001b6	b9 00 00 00 00	 mov	 ecx, OFFSET ?s_packetHeaderMap@?1??CheckPacket@CPythonNetworkStream@@IAE_NPAE@Z@4VCMainPacketHeaderMap@@A
  001bb	ff 75 ec	 push	 DWORD PTR $T20[ebp+4]
  001be	68 49 01 00 00	 push	 329			; 00000149H
  001c3	6a 20		 push	 32			; 00000020H
  001c5	e8 00 00 00 00	 call	 ?Set@CNetworkPacketHeaderMap@@QAEXHUSPacketType@1@@Z ; CNetworkPacketHeaderMap::Set
; File D:\_m2work\Server Client TMP4\ClientVS22\source\eterLib\NetPacketHeaderMap.h

; 13   : 				isDynamicSizePacket = bFlag;

  001ca	c6 45 ec 00	 mov	 BYTE PTR $T21[ebp+4], 0
; File D:\_m2work\Server Client TMP4\ClientVS22\source\UserInterface\PythonNetworkStream.cpp

; 51   : 			Set(HEADER_GC_LOGIN_FAILURE,		CNetworkPacketHeaderMap::TPacketType(sizeof(TPacketGCLoginFailure), STATIC_SIZE_PACKET));

  001ce	b9 00 00 00 00	 mov	 ecx, OFFSET ?s_packetHeaderMap@?1??CheckPacket@CPythonNetworkStream@@IAE_NPAE@Z@4VCMainPacketHeaderMap@@A
  001d3	ff 75 ec	 push	 DWORD PTR $T21[ebp+4]
  001d6	6a 0a		 push	 10			; 0000000aH
  001d8	6a 07		 push	 7
  001da	e8 00 00 00 00	 call	 ?Set@CNetworkPacketHeaderMap@@QAEXHUSPacketType@1@@Z ; CNetworkPacketHeaderMap::Set
; File D:\_m2work\Server Client TMP4\ClientVS22\source\eterLib\NetPacketHeaderMap.h

; 13   : 				isDynamicSizePacket = bFlag;

  001df	c6 45 ec 00	 mov	 BYTE PTR $T22[ebp+4], 0
; File D:\_m2work\Server Client TMP4\ClientVS22\source\UserInterface\PythonNetworkStream.cpp

; 53   : 			Set(HEADER_GC_PLAYER_CREATE_SUCCESS,		 CNetworkPacketHeaderMap::TPacketType(sizeof(TPacketGCPlayerCreateSuccess), STATIC_SIZE_PACKET));

  001e3	b9 00 00 00 00	 mov	 ecx, OFFSET ?s_packetHeaderMap@?1??CheckPacket@CPythonNetworkStream@@IAE_NPAE@Z@4VCMainPacketHeaderMap@@A
  001e8	ff 75 ec	 push	 DWORD PTR $T22[ebp+4]
  001eb	6a 41		 push	 65			; 00000041H
  001ed	6a 08		 push	 8
  001ef	e8 00 00 00 00	 call	 ?Set@CNetworkPacketHeaderMap@@QAEXHUSPacketType@1@@Z ; CNetworkPacketHeaderMap::Set
; File D:\_m2work\Server Client TMP4\ClientVS22\source\eterLib\NetPacketHeaderMap.h

; 13   : 				isDynamicSizePacket = bFlag;

  001f4	c6 45 ec 00	 mov	 BYTE PTR $T23[ebp+4], 0
; File D:\_m2work\Server Client TMP4\ClientVS22\source\UserInterface\PythonNetworkStream.cpp

; 54   : 			Set(HEADER_GC_PLAYER_CREATE_FAILURE,		 CNetworkPacketHeaderMap::TPacketType(sizeof(TPacketGCCreateFailure), STATIC_SIZE_PACKET));

  001f8	b9 00 00 00 00	 mov	 ecx, OFFSET ?s_packetHeaderMap@?1??CheckPacket@CPythonNetworkStream@@IAE_NPAE@Z@4VCMainPacketHeaderMap@@A
  001fd	ff 75 ec	 push	 DWORD PTR $T23[ebp+4]
  00200	6a 02		 push	 2
  00202	6a 09		 push	 9
  00204	e8 00 00 00 00	 call	 ?Set@CNetworkPacketHeaderMap@@QAEXHUSPacketType@1@@Z ; CNetworkPacketHeaderMap::Set
; File D:\_m2work\Server Client TMP4\ClientVS22\source\eterLib\NetPacketHeaderMap.h

; 13   : 				isDynamicSizePacket = bFlag;

  00209	c6 45 ec 00	 mov	 BYTE PTR $T24[ebp+4], 0
; File D:\_m2work\Server Client TMP4\ClientVS22\source\UserInterface\PythonNetworkStream.cpp

; 55   : 			Set(HEADER_GC_PLAYER_DELETE_SUCCESS,		 CNetworkPacketHeaderMap::TPacketType(sizeof(TPacketGCBlank), STATIC_SIZE_PACKET));

  0020d	b9 00 00 00 00	 mov	 ecx, OFFSET ?s_packetHeaderMap@?1??CheckPacket@CPythonNetworkStream@@IAE_NPAE@Z@4VCMainPacketHeaderMap@@A
  00212	ff 75 ec	 push	 DWORD PTR $T24[ebp+4]
  00215	6a 01		 push	 1
  00217	6a 0a		 push	 10			; 0000000aH
  00219	e8 00 00 00 00	 call	 ?Set@CNetworkPacketHeaderMap@@QAEXHUSPacketType@1@@Z ; CNetworkPacketHeaderMap::Set
; File D:\_m2work\Server Client TMP4\ClientVS22\source\eterLib\NetPacketHeaderMap.h

; 13   : 				isDynamicSizePacket = bFlag;

  0021e	c6 45 ec 00	 mov	 BYTE PTR $T25[ebp+4], 0
; File D:\_m2work\Server Client TMP4\ClientVS22\source\UserInterface\PythonNetworkStream.cpp

; 56   : 			Set(HEADER_GC_PLAYER_DELETE_WRONG_SOCIAL_ID, CNetworkPacketHeaderMap::TPacketType(sizeof(TPacketGCBlank), STATIC_SIZE_PACKET));

  00222	b9 00 00 00 00	 mov	 ecx, OFFSET ?s_packetHeaderMap@?1??CheckPacket@CPythonNetworkStream@@IAE_NPAE@Z@4VCMainPacketHeaderMap@@A
  00227	ff 75 ec	 push	 DWORD PTR $T25[ebp+4]
  0022a	6a 01		 push	 1
  0022c	6a 0b		 push	 11			; 0000000bH
  0022e	e8 00 00 00 00	 call	 ?Set@CNetworkPacketHeaderMap@@QAEXHUSPacketType@1@@Z ; CNetworkPacketHeaderMap::Set
; File D:\_m2work\Server Client TMP4\ClientVS22\source\eterLib\NetPacketHeaderMap.h

; 13   : 				isDynamicSizePacket = bFlag;

  00233	c6 45 ec 00	 mov	 BYTE PTR $T26[ebp+4], 0
; File D:\_m2work\Server Client TMP4\ClientVS22\source\UserInterface\PythonNetworkStream.cpp

; 58   : 			Set(HEADER_GC_STUN,					CNetworkPacketHeaderMap::TPacketType(sizeof(TPacketGCStun), STATIC_SIZE_PACKET));

  00237	b9 00 00 00 00	 mov	 ecx, OFFSET ?s_packetHeaderMap@?1??CheckPacket@CPythonNetworkStream@@IAE_NPAE@Z@4VCMainPacketHeaderMap@@A
  0023c	ff 75 ec	 push	 DWORD PTR $T26[ebp+4]
  0023f	6a 05		 push	 5
  00241	6a 0d		 push	 13			; 0000000dH
  00243	e8 00 00 00 00	 call	 ?Set@CNetworkPacketHeaderMap@@QAEXHUSPacketType@1@@Z ; CNetworkPacketHeaderMap::Set
; File D:\_m2work\Server Client TMP4\ClientVS22\source\eterLib\NetPacketHeaderMap.h

; 13   : 				isDynamicSizePacket = bFlag;

  00248	c6 45 ec 00	 mov	 BYTE PTR $T27[ebp+4], 0
; File D:\_m2work\Server Client TMP4\ClientVS22\source\UserInterface\PythonNetworkStream.cpp

; 59   : 			Set(HEADER_GC_DEAD,					CNetworkPacketHeaderMap::TPacketType(sizeof(TPacketGCDead), STATIC_SIZE_PACKET));

  0024c	b9 00 00 00 00	 mov	 ecx, OFFSET ?s_packetHeaderMap@?1??CheckPacket@CPythonNetworkStream@@IAE_NPAE@Z@4VCMainPacketHeaderMap@@A
  00251	ff 75 ec	 push	 DWORD PTR $T27[ebp+4]
  00254	6a 05		 push	 5
  00256	6a 0e		 push	 14			; 0000000eH
  00258	e8 00 00 00 00	 call	 ?Set@CNetworkPacketHeaderMap@@QAEXHUSPacketType@1@@Z ; CNetworkPacketHeaderMap::Set
; File D:\_m2work\Server Client TMP4\ClientVS22\source\eterLib\NetPacketHeaderMap.h

; 13   : 				isDynamicSizePacket = bFlag;

  0025d	c6 45 ec 00	 mov	 BYTE PTR $T28[ebp+4], 0
; File D:\_m2work\Server Client TMP4\ClientVS22\source\UserInterface\PythonNetworkStream.cpp

; 61   : 			Set(HEADER_GC_MAIN_CHARACTER,			CNetworkPacketHeaderMap::TPacketType(sizeof(TPacketGCMainCharacter), STATIC_SIZE_PACKET));

  00261	b9 00 00 00 00	 mov	 ecx, OFFSET ?s_packetHeaderMap@?1??CheckPacket@CPythonNetworkStream@@IAE_NPAE@Z@4VCMainPacketHeaderMap@@A
  00266	ff 75 ec	 push	 DWORD PTR $T28[ebp+4]
  00269	6a 2d		 push	 45			; 0000002dH
  0026b	6a 0f		 push	 15			; 0000000fH
  0026d	e8 00 00 00 00	 call	 ?Set@CNetworkPacketHeaderMap@@QAEXHUSPacketType@1@@Z ; CNetworkPacketHeaderMap::Set
; File D:\_m2work\Server Client TMP4\ClientVS22\source\eterLib\NetPacketHeaderMap.h

; 13   : 				isDynamicSizePacket = bFlag;

  00272	c6 45 ec 00	 mov	 BYTE PTR $T29[ebp+4], 0
; File D:\_m2work\Server Client TMP4\ClientVS22\source\UserInterface\PythonNetworkStream.cpp

; 64   : 			Set(HEADER_GC_MAIN_CHARACTER2_EMPIRE,	CNetworkPacketHeaderMap::TPacketType(sizeof(TPacketGCMainCharacter2_EMPIRE), STATIC_SIZE_PACKET));

  00276	b9 00 00 00 00	 mov	 ecx, OFFSET ?s_packetHeaderMap@?1??CheckPacket@CPythonNetworkStream@@IAE_NPAE@Z@4VCMainPacketHeaderMap@@A
  0027b	ff 75 ec	 push	 DWORD PTR $T29[ebp+4]
  0027e	6a 2e		 push	 46			; 0000002eH
  00280	6a 71		 push	 113			; 00000071H
  00282	e8 00 00 00 00	 call	 ?Set@CNetworkPacketHeaderMap@@QAEXHUSPacketType@1@@Z ; CNetworkPacketHeaderMap::Set
; File D:\_m2work\Server Client TMP4\ClientVS22\source\eterLib\NetPacketHeaderMap.h

; 13   : 				isDynamicSizePacket = bFlag;

  00287	c6 45 ec 00	 mov	 BYTE PTR $T16[ebp+4], 0
; File D:\_m2work\Server Client TMP4\ClientVS22\source\UserInterface\PythonNetworkStream.cpp

; 65   : 			Set(HEADER_GC_MAIN_CHARACTER3_BGM,		CNetworkPacketHeaderMap::TPacketType(sizeof(TPacketGCMainCharacter3_BGM), STATIC_SIZE_PACKET));

  0028b	b9 00 00 00 00	 mov	 ecx, OFFSET ?s_packetHeaderMap@?1??CheckPacket@CPythonNetworkStream@@IAE_NPAE@Z@4VCMainPacketHeaderMap@@A
  00290	ff 75 ec	 push	 DWORD PTR $T16[ebp+4]
  00293	6a 47		 push	 71			; 00000047H
  00295	68 89 00 00 00	 push	 137			; 00000089H
  0029a	e8 00 00 00 00	 call	 ?Set@CNetworkPacketHeaderMap@@QAEXHUSPacketType@1@@Z ; CNetworkPacketHeaderMap::Set
; File D:\_m2work\Server Client TMP4\ClientVS22\source\eterLib\NetPacketHeaderMap.h

; 13   : 				isDynamicSizePacket = bFlag;

  0029f	c6 45 ec 00	 mov	 BYTE PTR $T31[ebp+4], 0
; File D:\_m2work\Server Client TMP4\ClientVS22\source\UserInterface\PythonNetworkStream.cpp

; 66   : 			Set(HEADER_GC_MAIN_CHARACTER4_BGM_VOL,	CNetworkPacketHeaderMap::TPacketType(sizeof(TPacketGCMainCharacter4_BGM_VOL), STATIC_SIZE_PACKET));

  002a3	b9 00 00 00 00	 mov	 ecx, OFFSET ?s_packetHeaderMap@?1??CheckPacket@CPythonNetworkStream@@IAE_NPAE@Z@4VCMainPacketHeaderMap@@A
  002a8	ff 75 ec	 push	 DWORD PTR $T31[ebp+4]
  002ab	6a 4b		 push	 75			; 0000004bH
  002ad	68 8a 00 00 00	 push	 138			; 0000008aH
  002b2	e8 00 00 00 00	 call	 ?Set@CNetworkPacketHeaderMap@@QAEXHUSPacketType@1@@Z ; CNetworkPacketHeaderMap::Set
; File D:\_m2work\Server Client TMP4\ClientVS22\source\eterLib\NetPacketHeaderMap.h

; 13   : 				isDynamicSizePacket = bFlag;

  002b7	c6 45 ec 00	 mov	 BYTE PTR $T32[ebp+4], 0
; File D:\_m2work\Server Client TMP4\ClientVS22\source\UserInterface\PythonNetworkStream.cpp

; 69   : 			Set(HEADER_GC_PLAYER_POINTS,		CNetworkPacketHeaderMap::TPacketType(sizeof(TPacketGCPoints), STATIC_SIZE_PACKET));

  002bb	b9 00 00 00 00	 mov	 ecx, OFFSET ?s_packetHeaderMap@?1??CheckPacket@CPythonNetworkStream@@IAE_NPAE@Z@4VCMainPacketHeaderMap@@A
  002c0	ff 75 ec	 push	 DWORD PTR $T32[ebp+4]
  002c3	68 fd 03 00 00	 push	 1021			; 000003fdH
  002c8	6a 10		 push	 16			; 00000010H
  002ca	e8 00 00 00 00	 call	 ?Set@CNetworkPacketHeaderMap@@QAEXHUSPacketType@1@@Z ; CNetworkPacketHeaderMap::Set
; File D:\_m2work\Server Client TMP4\ClientVS22\source\eterLib\NetPacketHeaderMap.h

; 13   : 				isDynamicSizePacket = bFlag;

  002cf	c6 45 ec 00	 mov	 BYTE PTR $T33[ebp+4], 0
; File D:\_m2work\Server Client TMP4\ClientVS22\source\UserInterface\PythonNetworkStream.cpp

; 70   : 			Set(HEADER_GC_PLAYER_POINT_CHANGE,	CNetworkPacketHeaderMap::TPacketType(sizeof(TPacketGCPointChange), STATIC_SIZE_PACKET));

  002d3	b9 00 00 00 00	 mov	 ecx, OFFSET ?s_packetHeaderMap@?1??CheckPacket@CPythonNetworkStream@@IAE_NPAE@Z@4VCMainPacketHeaderMap@@A
  002d8	ff 75 ec	 push	 DWORD PTR $T33[ebp+4]
  002db	6a 11		 push	 17			; 00000011H
  002dd	6a 11		 push	 17			; 00000011H
  002df	e8 00 00 00 00	 call	 ?Set@CNetworkPacketHeaderMap@@QAEXHUSPacketType@1@@Z ; CNetworkPacketHeaderMap::Set
; File D:\_m2work\Server Client TMP4\ClientVS22\source\eterLib\NetPacketHeaderMap.h

; 13   : 				isDynamicSizePacket = bFlag;

  002e4	c6 45 ec 00	 mov	 BYTE PTR $T34[ebp+4], 0
; File D:\_m2work\Server Client TMP4\ClientVS22\source\UserInterface\PythonNetworkStream.cpp

; 72   : 			Set(HEADER_GC_ITEM_SET,				CNetworkPacketHeaderMap::TPacketType(sizeof(TPacketGCItemSet), STATIC_SIZE_PACKET));

  002e8	b9 00 00 00 00	 mov	 ecx, OFFSET ?s_packetHeaderMap@?1??CheckPacket@CPythonNetworkStream@@IAE_NPAE@Z@4VCMainPacketHeaderMap@@A
  002ed	ff 75 ec	 push	 DWORD PTR $T34[ebp+4]
  002f0	6a 2a		 push	 42			; 0000002aH
  002f2	6a 14		 push	 20			; 00000014H
  002f4	e8 00 00 00 00	 call	 ?Set@CNetworkPacketHeaderMap@@QAEXHUSPacketType@1@@Z ; CNetworkPacketHeaderMap::Set
; File D:\_m2work\Server Client TMP4\ClientVS22\source\eterLib\NetPacketHeaderMap.h

; 13   : 				isDynamicSizePacket = bFlag;

  002f9	c6 45 ec 00	 mov	 BYTE PTR $T35[ebp+4], 0
; File D:\_m2work\Server Client TMP4\ClientVS22\source\UserInterface\PythonNetworkStream.cpp

; 73   : 			Set(HEADER_GC_ITEM_SET2,			CNetworkPacketHeaderMap::TPacketType(sizeof(TPacketGCItemSet2), STATIC_SIZE_PACKET));

  002fd	b9 00 00 00 00	 mov	 ecx, OFFSET ?s_packetHeaderMap@?1??CheckPacket@CPythonNetworkStream@@IAE_NPAE@Z@4VCMainPacketHeaderMap@@A
  00302	ff 75 ec	 push	 DWORD PTR $T35[ebp+4]
  00305	6a 33		 push	 51			; 00000033H
  00307	6a 15		 push	 21			; 00000015H
  00309	e8 00 00 00 00	 call	 ?Set@CNetworkPacketHeaderMap@@QAEXHUSPacketType@1@@Z ; CNetworkPacketHeaderMap::Set
; File D:\_m2work\Server Client TMP4\ClientVS22\source\eterLib\NetPacketHeaderMap.h

; 13   : 				isDynamicSizePacket = bFlag;

  0030e	c6 45 ec 00	 mov	 BYTE PTR $T36[ebp+4], 0
; File D:\_m2work\Server Client TMP4\ClientVS22\source\UserInterface\PythonNetworkStream.cpp

; 75   : 			Set(HEADER_GC_ITEM_USE,				CNetworkPacketHeaderMap::TPacketType(sizeof(TPacketGCItemUse), STATIC_SIZE_PACKET));

  00312	b9 00 00 00 00	 mov	 ecx, OFFSET ?s_packetHeaderMap@?1??CheckPacket@CPythonNetworkStream@@IAE_NPAE@Z@4VCMainPacketHeaderMap@@A
  00317	ff 75 ec	 push	 DWORD PTR $T36[ebp+4]
  0031a	6a 10		 push	 16			; 00000010H
  0031c	6a 16		 push	 22			; 00000016H
  0031e	e8 00 00 00 00	 call	 ?Set@CNetworkPacketHeaderMap@@QAEXHUSPacketType@1@@Z ; CNetworkPacketHeaderMap::Set
; File D:\_m2work\Server Client TMP4\ClientVS22\source\eterLib\NetPacketHeaderMap.h

; 13   : 				isDynamicSizePacket = bFlag;

  00323	c6 45 ec 00	 mov	 BYTE PTR $T37[ebp+4], 0
; File D:\_m2work\Server Client TMP4\ClientVS22\source\UserInterface\PythonNetworkStream.cpp

; 76   : 			Set(HEADER_GC_ITEM_UPDATE,			CNetworkPacketHeaderMap::TPacketType(sizeof(TPacketGCItemUpdate), STATIC_SIZE_PACKET));

  00327	b9 00 00 00 00	 mov	 ecx, OFFSET ?s_packetHeaderMap@?1??CheckPacket@CPythonNetworkStream@@IAE_NPAE@Z@4VCMainPacketHeaderMap@@A
  0032c	ff 75 ec	 push	 DWORD PTR $T37[ebp+4]
  0032f	6a 26		 push	 38			; 00000026H
  00331	6a 19		 push	 25			; 00000019H
  00333	e8 00 00 00 00	 call	 ?Set@CNetworkPacketHeaderMap@@QAEXHUSPacketType@1@@Z ; CNetworkPacketHeaderMap::Set
; File D:\_m2work\Server Client TMP4\ClientVS22\source\eterLib\NetPacketHeaderMap.h

; 13   : 				isDynamicSizePacket = bFlag;

  00338	c6 45 ec 00	 mov	 BYTE PTR $T38[ebp+4], 0
; File D:\_m2work\Server Client TMP4\ClientVS22\source\UserInterface\PythonNetworkStream.cpp

; 78   : 			Set(HEADER_GC_ITEM_GROUND_ADD,		CNetworkPacketHeaderMap::TPacketType(sizeof(TPacketGCItemGroundAdd), STATIC_SIZE_PACKET));

  0033c	b9 00 00 00 00	 mov	 ecx, OFFSET ?s_packetHeaderMap@?1??CheckPacket@CPythonNetworkStream@@IAE_NPAE@Z@4VCMainPacketHeaderMap@@A
  00341	ff 75 ec	 push	 DWORD PTR $T38[ebp+4]
  00344	6a 15		 push	 21			; 00000015H
  00346	6a 1a		 push	 26			; 0000001aH
  00348	e8 00 00 00 00	 call	 ?Set@CNetworkPacketHeaderMap@@QAEXHUSPacketType@1@@Z ; CNetworkPacketHeaderMap::Set
; File D:\_m2work\Server Client TMP4\ClientVS22\source\eterLib\NetPacketHeaderMap.h

; 13   : 				isDynamicSizePacket = bFlag;

  0034d	c6 45 ec 00	 mov	 BYTE PTR $T39[ebp+4], 0
; File D:\_m2work\Server Client TMP4\ClientVS22\source\UserInterface\PythonNetworkStream.cpp

; 79   : 			Set(HEADER_GC_ITEM_GROUND_DEL,		CNetworkPacketHeaderMap::TPacketType(sizeof(TPacketGCItemGroundDel), STATIC_SIZE_PACKET));

  00351	b9 00 00 00 00	 mov	 ecx, OFFSET ?s_packetHeaderMap@?1??CheckPacket@CPythonNetworkStream@@IAE_NPAE@Z@4VCMainPacketHeaderMap@@A
  00356	ff 75 ec	 push	 DWORD PTR $T39[ebp+4]
  00359	6a 05		 push	 5
  0035b	6a 1b		 push	 27			; 0000001bH
  0035d	e8 00 00 00 00	 call	 ?Set@CNetworkPacketHeaderMap@@QAEXHUSPacketType@1@@Z ; CNetworkPacketHeaderMap::Set
; File D:\_m2work\Server Client TMP4\ClientVS22\source\eterLib\NetPacketHeaderMap.h

; 13   : 				isDynamicSizePacket = bFlag;

  00362	c6 45 ec 00	 mov	 BYTE PTR $T40[ebp+4], 0
; File D:\_m2work\Server Client TMP4\ClientVS22\source\UserInterface\PythonNetworkStream.cpp

; 80   : 			Set(HEADER_GC_ITEM_OWNERSHIP,		CNetworkPacketHeaderMap::TPacketType(sizeof(TPacketGCItemOwnership), STATIC_SIZE_PACKET));

  00366	b9 00 00 00 00	 mov	 ecx, OFFSET ?s_packetHeaderMap@?1??CheckPacket@CPythonNetworkStream@@IAE_NPAE@Z@4VCMainPacketHeaderMap@@A
  0036b	ff 75 ec	 push	 DWORD PTR $T40[ebp+4]
  0036e	6a 1e		 push	 30			; 0000001eH
  00370	6a 1f		 push	 31			; 0000001fH
  00372	e8 00 00 00 00	 call	 ?Set@CNetworkPacketHeaderMap@@QAEXHUSPacketType@1@@Z ; CNetworkPacketHeaderMap::Set
; File D:\_m2work\Server Client TMP4\ClientVS22\source\eterLib\NetPacketHeaderMap.h

; 13   : 				isDynamicSizePacket = bFlag;

  00377	c6 45 ec 00	 mov	 BYTE PTR $T41[ebp+4], 0
; File D:\_m2work\Server Client TMP4\ClientVS22\source\UserInterface\PythonNetworkStream.cpp

; 82   : 			Set(HEADER_GC_QUICKSLOT_ADD,		CNetworkPacketHeaderMap::TPacketType(sizeof(TPacketGCQuickSlotAdd), STATIC_SIZE_PACKET));

  0037b	b9 00 00 00 00	 mov	 ecx, OFFSET ?s_packetHeaderMap@?1??CheckPacket@CPythonNetworkStream@@IAE_NPAE@Z@4VCMainPacketHeaderMap@@A
  00380	ff 75 ec	 push	 DWORD PTR $T41[ebp+4]
  00383	6a 04		 push	 4
  00385	6a 1c		 push	 28			; 0000001cH
  00387	e8 00 00 00 00	 call	 ?Set@CNetworkPacketHeaderMap@@QAEXHUSPacketType@1@@Z ; CNetworkPacketHeaderMap::Set
; File D:\_m2work\Server Client TMP4\ClientVS22\source\eterLib\NetPacketHeaderMap.h

; 13   : 				isDynamicSizePacket = bFlag;

  0038c	c6 45 ec 00	 mov	 BYTE PTR $T42[ebp+4], 0
; File D:\_m2work\Server Client TMP4\ClientVS22\source\UserInterface\PythonNetworkStream.cpp

; 83   : 			Set(HEADER_GC_QUICKSLOT_DEL,		CNetworkPacketHeaderMap::TPacketType(sizeof(TPacketGCQuickSlotDel), STATIC_SIZE_PACKET));

  00390	ff 75 ec	 push	 DWORD PTR $T42[ebp+4]
  00393	6a 02		 push	 2
  00395	6a 1d		 push	 29			; 0000001dH
  00397	b9 00 00 00 00	 mov	 ecx, OFFSET ?s_packetHeaderMap@?1??CheckPacket@CPythonNetworkStream@@IAE_NPAE@Z@4VCMainPacketHeaderMap@@A
  0039c	e8 00 00 00 00	 call	 ?Set@CNetworkPacketHeaderMap@@QAEXHUSPacketType@1@@Z ; CNetworkPacketHeaderMap::Set
; File D:\_m2work\Server Client TMP4\ClientVS22\source\eterLib\NetPacketHeaderMap.h

; 13   : 				isDynamicSizePacket = bFlag;

  003a1	c6 45 ec 00	 mov	 BYTE PTR $T43[ebp+4], 0
; File D:\_m2work\Server Client TMP4\ClientVS22\source\UserInterface\PythonNetworkStream.cpp

; 84   : 			Set(HEADER_GC_QUICKSLOT_SWAP,		CNetworkPacketHeaderMap::TPacketType(sizeof(TPacketGCQuickSlotSwap), STATIC_SIZE_PACKET));

  003a5	b9 00 00 00 00	 mov	 ecx, OFFSET ?s_packetHeaderMap@?1??CheckPacket@CPythonNetworkStream@@IAE_NPAE@Z@4VCMainPacketHeaderMap@@A
  003aa	ff 75 ec	 push	 DWORD PTR $T43[ebp+4]
  003ad	6a 03		 push	 3
  003af	6a 1e		 push	 30			; 0000001eH
  003b1	e8 00 00 00 00	 call	 ?Set@CNetworkPacketHeaderMap@@QAEXHUSPacketType@1@@Z ; CNetworkPacketHeaderMap::Set
; File D:\_m2work\Server Client TMP4\ClientVS22\source\eterLib\NetPacketHeaderMap.h

; 13   : 				isDynamicSizePacket = bFlag;

  003b6	c6 45 ec 00	 mov	 BYTE PTR $T44[ebp+4], 0
; File D:\_m2work\Server Client TMP4\ClientVS22\source\UserInterface\PythonNetworkStream.cpp

; 86   : 			Set(HEADER_GC_WHISPER,				CNetworkPacketHeaderMap::TPacketType(sizeof(TPacketGCWhisper), STATIC_SIZE_PACKET));

  003ba	b9 00 00 00 00	 mov	 ecx, OFFSET ?s_packetHeaderMap@?1??CheckPacket@CPythonNetworkStream@@IAE_NPAE@Z@4VCMainPacketHeaderMap@@A
  003bf	ff 75 ec	 push	 DWORD PTR $T44[ebp+4]
  003c2	6a 1d		 push	 29			; 0000001dH
  003c4	6a 22		 push	 34			; 00000022H
  003c6	e8 00 00 00 00	 call	 ?Set@CNetworkPacketHeaderMap@@QAEXHUSPacketType@1@@Z ; CNetworkPacketHeaderMap::Set
; File D:\_m2work\Server Client TMP4\ClientVS22\source\eterLib\NetPacketHeaderMap.h

; 13   : 				isDynamicSizePacket = bFlag;

  003cb	c6 45 ec 00	 mov	 BYTE PTR $T45[ebp+4], 0
; File D:\_m2work\Server Client TMP4\ClientVS22\source\UserInterface\PythonNetworkStream.cpp

; 88   : 			Set(HEADER_GC_CHARACTER_POSITION,	CNetworkPacketHeaderMap::TPacketType(sizeof(TPacketGCPosition), STATIC_SIZE_PACKET));

  003cf	b9 00 00 00 00	 mov	 ecx, OFFSET ?s_packetHeaderMap@?1??CheckPacket@CPythonNetworkStream@@IAE_NPAE@Z@4VCMainPacketHeaderMap@@A
  003d4	ff 75 ec	 push	 DWORD PTR $T45[ebp+4]
  003d7	6a 06		 push	 6
  003d9	6a 2b		 push	 43			; 0000002bH
  003db	e8 00 00 00 00	 call	 ?Set@CNetworkPacketHeaderMap@@QAEXHUSPacketType@1@@Z ; CNetworkPacketHeaderMap::Set
; File D:\_m2work\Server Client TMP4\ClientVS22\source\eterLib\NetPacketHeaderMap.h

; 13   : 				isDynamicSizePacket = bFlag;

  003e0	c6 45 ec 00	 mov	 BYTE PTR $T46[ebp+4], 0
; File D:\_m2work\Server Client TMP4\ClientVS22\source\UserInterface\PythonNetworkStream.cpp

; 89   : 			Set(HEADER_GC_MOTION,				CNetworkPacketHeaderMap::TPacketType(sizeof(TPacketGCMotion), STATIC_SIZE_PACKET));

  003e4	b9 00 00 00 00	 mov	 ecx, OFFSET ?s_packetHeaderMap@?1??CheckPacket@CPythonNetworkStream@@IAE_NPAE@Z@4VCMainPacketHeaderMap@@A
  003e9	ff 75 ec	 push	 DWORD PTR $T46[ebp+4]
  003ec	6a 0b		 push	 11			; 0000000bH
  003ee	6a 24		 push	 36			; 00000024H
  003f0	e8 00 00 00 00	 call	 ?Set@CNetworkPacketHeaderMap@@QAEXHUSPacketType@1@@Z ; CNetworkPacketHeaderMap::Set
; File D:\_m2work\Server Client TMP4\ClientVS22\source\eterLib\NetPacketHeaderMap.h

; 13   : 				isDynamicSizePacket = bFlag;

  003f5	c6 45 ec 01	 mov	 BYTE PTR $T47[ebp+4], 1
; File D:\_m2work\Server Client TMP4\ClientVS22\source\UserInterface\PythonNetworkStream.cpp

; 91   : 			Set(HEADER_GC_SHOP,			CNetworkPacketHeaderMap::TPacketType(sizeof(TPacketGCShop), DYNAMIC_SIZE_PACKET));

  003f9	b9 00 00 00 00	 mov	 ecx, OFFSET ?s_packetHeaderMap@?1??CheckPacket@CPythonNetworkStream@@IAE_NPAE@Z@4VCMainPacketHeaderMap@@A
  003fe	ff 75 ec	 push	 DWORD PTR $T47[ebp+4]
  00401	6a 04		 push	 4
  00403	6a 26		 push	 38			; 00000026H
  00405	e8 00 00 00 00	 call	 ?Set@CNetworkPacketHeaderMap@@QAEXHUSPacketType@1@@Z ; CNetworkPacketHeaderMap::Set
; File D:\_m2work\Server Client TMP4\ClientVS22\source\eterLib\NetPacketHeaderMap.h

; 13   : 				isDynamicSizePacket = bFlag;

  0040a	c6 45 ec 00	 mov	 BYTE PTR $T48[ebp+4], 0
; File D:\_m2work\Server Client TMP4\ClientVS22\source\UserInterface\PythonNetworkStream.cpp

; 92   : 			Set(HEADER_GC_SHOP_SIGN,	CNetworkPacketHeaderMap::TPacketType(sizeof(TPacketGCShopSign), STATIC_SIZE_PACKET));

  0040e	b9 00 00 00 00	 mov	 ecx, OFFSET ?s_packetHeaderMap@?1??CheckPacket@CPythonNetworkStream@@IAE_NPAE@Z@4VCMainPacketHeaderMap@@A
  00413	ff 75 ec	 push	 DWORD PTR $T48[ebp+4]
  00416	6a 26		 push	 38			; 00000026H
  00418	6a 27		 push	 39			; 00000027H
  0041a	e8 00 00 00 00	 call	 ?Set@CNetworkPacketHeaderMap@@QAEXHUSPacketType@1@@Z ; CNetworkPacketHeaderMap::Set
; File D:\_m2work\Server Client TMP4\ClientVS22\source\eterLib\NetPacketHeaderMap.h

; 13   : 				isDynamicSizePacket = bFlag;

  0041f	c6 45 ec 00	 mov	 BYTE PTR $T49[ebp+4], 0
; File D:\_m2work\Server Client TMP4\ClientVS22\source\UserInterface\PythonNetworkStream.cpp

; 93   : 			Set(HEADER_GC_EXCHANGE,		CNetworkPacketHeaderMap::TPacketType(sizeof(TPacketGCExchange), STATIC_SIZE_PACKET));

  00423	b9 00 00 00 00	 mov	 ecx, OFFSET ?s_packetHeaderMap@?1??CheckPacket@CPythonNetworkStream@@IAE_NPAE@Z@4VCMainPacketHeaderMap@@A
  00428	ff 75 ec	 push	 DWORD PTR $T49[ebp+4]
  0042b	6a 2f		 push	 47			; 0000002fH
  0042d	6a 2a		 push	 42			; 0000002aH
  0042f	e8 00 00 00 00	 call	 ?Set@CNetworkPacketHeaderMap@@QAEXHUSPacketType@1@@Z ; CNetworkPacketHeaderMap::Set
; File D:\_m2work\Server Client TMP4\ClientVS22\source\eterLib\NetPacketHeaderMap.h

; 13   : 				isDynamicSizePacket = bFlag;

  00434	c6 45 ec 00	 mov	 BYTE PTR $T50[ebp+4], 0
; File D:\_m2work\Server Client TMP4\ClientVS22\source\UserInterface\PythonNetworkStream.cpp

; 95   : 			Set(HEADER_GC_PING,			CNetworkPacketHeaderMap::TPacketType(sizeof(TPacketGCPing), STATIC_SIZE_PACKET));

  00438	b9 00 00 00 00	 mov	 ecx, OFFSET ?s_packetHeaderMap@?1??CheckPacket@CPythonNetworkStream@@IAE_NPAE@Z@4VCMainPacketHeaderMap@@A
  0043d	ff 75 ec	 push	 DWORD PTR $T50[ebp+4]
  00440	6a 01		 push	 1
  00442	6a 2c		 push	 44			; 0000002cH
  00444	e8 00 00 00 00	 call	 ?Set@CNetworkPacketHeaderMap@@QAEXHUSPacketType@1@@Z ; CNetworkPacketHeaderMap::Set
; File D:\_m2work\Server Client TMP4\ClientVS22\source\eterLib\NetPacketHeaderMap.h

; 13   : 				isDynamicSizePacket = bFlag;

  00449	c6 45 ec 01	 mov	 BYTE PTR $T51[ebp+4], 1
; File D:\_m2work\Server Client TMP4\ClientVS22\source\UserInterface\PythonNetworkStream.cpp

; 97   : 			Set(HEADER_GC_SCRIPT,			CNetworkPacketHeaderMap::TPacketType(sizeof(TPacketGCScript), DYNAMIC_SIZE_PACKET));

  0044d	b9 00 00 00 00	 mov	 ecx, OFFSET ?s_packetHeaderMap@?1??CheckPacket@CPythonNetworkStream@@IAE_NPAE@Z@4VCMainPacketHeaderMap@@A
  00452	ff 75 ec	 push	 DWORD PTR $T51[ebp+4]
  00455	6a 06		 push	 6
  00457	6a 2d		 push	 45			; 0000002dH
  00459	e8 00 00 00 00	 call	 ?Set@CNetworkPacketHeaderMap@@QAEXHUSPacketType@1@@Z ; CNetworkPacketHeaderMap::Set
; File D:\_m2work\Server Client TMP4\ClientVS22\source\eterLib\NetPacketHeaderMap.h

; 13   : 				isDynamicSizePacket = bFlag;

  0045e	c6 45 ec 00	 mov	 BYTE PTR $T52[ebp+4], 0
; File D:\_m2work\Server Client TMP4\ClientVS22\source\UserInterface\PythonNetworkStream.cpp

; 98   : 			Set(HEADER_GC_QUEST_CONFIRM,	CNetworkPacketHeaderMap::TPacketType(sizeof(TPacketGCQuestConfirm), STATIC_SIZE_PACKET));

  00462	b9 00 00 00 00	 mov	 ecx, OFFSET ?s_packetHeaderMap@?1??CheckPacket@CPythonNetworkStream@@IAE_NPAE@Z@4VCMainPacketHeaderMap@@A
  00467	ff 75 ec	 push	 DWORD PTR $T52[ebp+4]
  0046a	6a 4a		 push	 74			; 0000004aH
  0046c	6a 2e		 push	 46			; 0000002eH
  0046e	e8 00 00 00 00	 call	 ?Set@CNetworkPacketHeaderMap@@QAEXHUSPacketType@1@@Z ; CNetworkPacketHeaderMap::Set
; File D:\_m2work\Server Client TMP4\ClientVS22\source\eterLib\NetPacketHeaderMap.h

; 13   : 				isDynamicSizePacket = bFlag;

  00473	c6 45 ec 00	 mov	 BYTE PTR $T53[ebp+4], 0
; File D:\_m2work\Server Client TMP4\ClientVS22\source\UserInterface\PythonNetworkStream.cpp

; 100  : 			Set(HEADER_GC_TARGET,		CNetworkPacketHeaderMap::TPacketType(sizeof(TPacketGCTarget), STATIC_SIZE_PACKET));

  00477	b9 00 00 00 00	 mov	 ecx, OFFSET ?s_packetHeaderMap@?1??CheckPacket@CPythonNetworkStream@@IAE_NPAE@Z@4VCMainPacketHeaderMap@@A
  0047c	ff 75 ec	 push	 DWORD PTR $T53[ebp+4]
  0047f	6a 06		 push	 6
  00481	6a 3f		 push	 63			; 0000003fH
  00483	e8 00 00 00 00	 call	 ?Set@CNetworkPacketHeaderMap@@QAEXHUSPacketType@1@@Z ; CNetworkPacketHeaderMap::Set
; File D:\_m2work\Server Client TMP4\ClientVS22\source\eterLib\NetPacketHeaderMap.h

; 13   : 				isDynamicSizePacket = bFlag;

  00488	c6 45 ec 00	 mov	 BYTE PTR $T54[ebp+4], 0
; File D:\_m2work\Server Client TMP4\ClientVS22\source\UserInterface\PythonNetworkStream.cpp

; 101  : 			Set(HEADER_GC_MOUNT,		CNetworkPacketHeaderMap::TPacketType(sizeof(TPacketGCMount), STATIC_SIZE_PACKET));

  0048c	b9 00 00 00 00	 mov	 ecx, OFFSET ?s_packetHeaderMap@?1??CheckPacket@CPythonNetworkStream@@IAE_NPAE@Z@4VCMainPacketHeaderMap@@A
  00491	ff 75 ec	 push	 DWORD PTR $T54[ebp+4]
  00494	6a 12		 push	 18			; 00000012H
  00496	6a 3d		 push	 61			; 0000003dH
  00498	e8 00 00 00 00	 call	 ?Set@CNetworkPacketHeaderMap@@QAEXHUSPacketType@1@@Z ; CNetworkPacketHeaderMap::Set
; File D:\_m2work\Server Client TMP4\ClientVS22\source\eterLib\NetPacketHeaderMap.h

; 13   : 				isDynamicSizePacket = bFlag;

  0049d	c6 45 ec 00	 mov	 BYTE PTR $T55[ebp+4], 0
; File D:\_m2work\Server Client TMP4\ClientVS22\source\UserInterface\PythonNetworkStream.cpp

; 103  : 			Set(HEADER_GC_CHANGE_SPEED,	CNetworkPacketHeaderMap::TPacketType(sizeof(TPacketGCChangeSpeed), STATIC_SIZE_PACKET));

  004a1	b9 00 00 00 00	 mov	 ecx, OFFSET ?s_packetHeaderMap@?1??CheckPacket@CPythonNetworkStream@@IAE_NPAE@Z@4VCMainPacketHeaderMap@@A
  004a6	ff 75 ec	 push	 DWORD PTR $T55[ebp+4]
  004a9	6a 07		 push	 7
  004ab	6a 12		 push	 18			; 00000012H
  004ad	e8 00 00 00 00	 call	 ?Set@CNetworkPacketHeaderMap@@QAEXHUSPacketType@1@@Z ; CNetworkPacketHeaderMap::Set
; File D:\_m2work\Server Client TMP4\ClientVS22\source\eterLib\NetPacketHeaderMap.h

; 13   : 				isDynamicSizePacket = bFlag;

  004b2	c6 45 ec 00	 mov	 BYTE PTR $T56[ebp+4], 0
; File D:\_m2work\Server Client TMP4\ClientVS22\source\UserInterface\PythonNetworkStream.cpp

; 105  : 			Set(HEADER_GC_HANDSHAKE,	CNetworkPacketHeaderMap::TPacketType(sizeof(TPacketGCHandshake), STATIC_SIZE_PACKET));

  004b6	b9 00 00 00 00	 mov	 ecx, OFFSET ?s_packetHeaderMap@?1??CheckPacket@CPythonNetworkStream@@IAE_NPAE@Z@4VCMainPacketHeaderMap@@A
  004bb	ff 75 ec	 push	 DWORD PTR $T56[ebp+4]
  004be	6a 0d		 push	 13			; 0000000dH
  004c0	68 ff 00 00 00	 push	 255			; 000000ffH
  004c5	e8 00 00 00 00	 call	 ?Set@CNetworkPacketHeaderMap@@QAEXHUSPacketType@1@@Z ; CNetworkPacketHeaderMap::Set
; File D:\_m2work\Server Client TMP4\ClientVS22\source\eterLib\NetPacketHeaderMap.h

; 13   : 				isDynamicSizePacket = bFlag;

  004ca	c6 45 ec 00	 mov	 BYTE PTR $T57[ebp+4], 0
; File D:\_m2work\Server Client TMP4\ClientVS22\source\UserInterface\PythonNetworkStream.cpp

; 106  : 			Set(HEADER_GC_HANDSHAKE_OK,	CNetworkPacketHeaderMap::TPacketType(sizeof(TPacketGCBlank), STATIC_SIZE_PACKET));

  004ce	b9 00 00 00 00	 mov	 ecx, OFFSET ?s_packetHeaderMap@?1??CheckPacket@CPythonNetworkStream@@IAE_NPAE@Z@4VCMainPacketHeaderMap@@A
  004d3	ff 75 ec	 push	 DWORD PTR $T57[ebp+4]
  004d6	6a 01		 push	 1
  004d8	68 fc 00 00 00	 push	 252			; 000000fcH
  004dd	e8 00 00 00 00	 call	 ?Set@CNetworkPacketHeaderMap@@QAEXHUSPacketType@1@@Z ; CNetworkPacketHeaderMap::Set
; File D:\_m2work\Server Client TMP4\ClientVS22\source\eterLib\NetPacketHeaderMap.h

; 13   : 				isDynamicSizePacket = bFlag;

  004e2	c6 45 ec 00	 mov	 BYTE PTR $T58[ebp+4], 0
; File D:\_m2work\Server Client TMP4\ClientVS22\source\UserInterface\PythonNetworkStream.cpp

; 107  : 			Set(HEADER_GC_BINDUDP,		CNetworkPacketHeaderMap::TPacketType(sizeof(TPacketGCBindUDP), STATIC_SIZE_PACKET));

  004e6	b9 00 00 00 00	 mov	 ecx, OFFSET ?s_packetHeaderMap@?1??CheckPacket@CPythonNetworkStream@@IAE_NPAE@Z@4VCMainPacketHeaderMap@@A
  004eb	ff 75 ec	 push	 DWORD PTR $T58[ebp+4]
  004ee	6a 07		 push	 7
  004f0	68 fe 00 00 00	 push	 254			; 000000feH
  004f5	e8 00 00 00 00	 call	 ?Set@CNetworkPacketHeaderMap@@QAEXHUSPacketType@1@@Z ; CNetworkPacketHeaderMap::Set
; File D:\_m2work\Server Client TMP4\ClientVS22\source\eterLib\NetPacketHeaderMap.h

; 13   : 				isDynamicSizePacket = bFlag;

  004fa	c6 45 ec 00	 mov	 BYTE PTR $T59[ebp+4], 0
; File D:\_m2work\Server Client TMP4\ClientVS22\source\UserInterface\PythonNetworkStream.cpp

; 108  : 			Set(HEADER_GC_OWNERSHIP,	CNetworkPacketHeaderMap::TPacketType(sizeof(TPacketGCOwnership), STATIC_SIZE_PACKET));

  004fe	b9 00 00 00 00	 mov	 ecx, OFFSET ?s_packetHeaderMap@?1??CheckPacket@CPythonNetworkStream@@IAE_NPAE@Z@4VCMainPacketHeaderMap@@A
  00503	ff 75 ec	 push	 DWORD PTR $T59[ebp+4]
  00506	6a 09		 push	 9
  00508	6a 3e		 push	 62			; 0000003eH
  0050a	e8 00 00 00 00	 call	 ?Set@CNetworkPacketHeaderMap@@QAEXHUSPacketType@1@@Z ; CNetworkPacketHeaderMap::Set
; File D:\_m2work\Server Client TMP4\ClientVS22\source\eterLib\NetPacketHeaderMap.h

; 13   : 				isDynamicSizePacket = bFlag;

  0050f	c6 45 ec 00	 mov	 BYTE PTR $T60[ebp+4], 0
; File D:\_m2work\Server Client TMP4\ClientVS22\source\UserInterface\PythonNetworkStream.cpp

; 109  : 			Set(HEADER_GC_CREATE_FLY,	CNetworkPacketHeaderMap::TPacketType(sizeof(TPacketGCCreateFly), STATIC_SIZE_PACKET));

  00513	b9 00 00 00 00	 mov	 ecx, OFFSET ?s_packetHeaderMap@?1??CheckPacket@CPythonNetworkStream@@IAE_NPAE@Z@4VCMainPacketHeaderMap@@A
  00518	ff 75 ec	 push	 DWORD PTR $T60[ebp+4]
  0051b	6a 0a		 push	 10			; 0000000aH
  0051d	6a 46		 push	 70			; 00000046H
  0051f	e8 00 00 00 00	 call	 ?Set@CNetworkPacketHeaderMap@@QAEXHUSPacketType@1@@Z ; CNetworkPacketHeaderMap::Set
; File D:\_m2work\Server Client TMP4\ClientVS22\source\eterLib\NetPacketHeaderMap.h

; 13   : 				isDynamicSizePacket = bFlag;

  00524	c6 45 ec 00	 mov	 BYTE PTR $T61[ebp+4], 0
; File D:\_m2work\Server Client TMP4\ClientVS22\source\UserInterface\PythonNetworkStream.cpp

; 111  : 			Set(HEADER_GC_KEY_AGREEMENT, CNetworkPacketHeaderMap::TPacketType(sizeof(TPacketKeyAgreement), STATIC_SIZE_PACKET));

  00528	b9 00 00 00 00	 mov	 ecx, OFFSET ?s_packetHeaderMap@?1??CheckPacket@CPythonNetworkStream@@IAE_NPAE@Z@4VCMainPacketHeaderMap@@A
  0052d	ff 75 ec	 push	 DWORD PTR $T61[ebp+4]
  00530	68 05 01 00 00	 push	 261			; 00000105H
  00535	68 fb 00 00 00	 push	 251			; 000000fbH
  0053a	e8 00 00 00 00	 call	 ?Set@CNetworkPacketHeaderMap@@QAEXHUSPacketType@1@@Z ; CNetworkPacketHeaderMap::Set
; File D:\_m2work\Server Client TMP4\ClientVS22\source\eterLib\NetPacketHeaderMap.h

; 13   : 				isDynamicSizePacket = bFlag;

  0053f	c6 45 ec 00	 mov	 BYTE PTR $T62[ebp+4], 0
; File D:\_m2work\Server Client TMP4\ClientVS22\source\UserInterface\PythonNetworkStream.cpp

; 112  : 			Set(HEADER_GC_KEY_AGREEMENT_COMPLETED, CNetworkPacketHeaderMap::TPacketType(sizeof(TPacketKeyAgreementCompleted), STATIC_SIZE_PACKET));

  00543	b9 00 00 00 00	 mov	 ecx, OFFSET ?s_packetHeaderMap@?1??CheckPacket@CPythonNetworkStream@@IAE_NPAE@Z@4VCMainPacketHeaderMap@@A
  00548	ff 75 ec	 push	 DWORD PTR $T62[ebp+4]
  0054b	6a 04		 push	 4
  0054d	68 fa 00 00 00	 push	 250			; 000000faH
  00552	e8 00 00 00 00	 call	 ?Set@CNetworkPacketHeaderMap@@QAEXHUSPacketType@1@@Z ; CNetworkPacketHeaderMap::Set
; File D:\_m2work\Server Client TMP4\ClientVS22\source\eterLib\NetPacketHeaderMap.h

; 13   : 				isDynamicSizePacket = bFlag;

  00557	c6 45 ec 00	 mov	 BYTE PTR $T63[ebp+4], 0
; File D:\_m2work\Server Client TMP4\ClientVS22\source\UserInterface\PythonNetworkStream.cpp

; 114  : 			Set(HEADER_GC_ADD_FLY_TARGETING, CNetworkPacketHeaderMap::TPacketType(sizeof(TPacketGCFlyTargeting), STATIC_SIZE_PACKET));

  0055b	b9 00 00 00 00	 mov	 ecx, OFFSET ?s_packetHeaderMap@?1??CheckPacket@CPythonNetworkStream@@IAE_NPAE@Z@4VCMainPacketHeaderMap@@A
  00560	ff 75 ec	 push	 DWORD PTR $T63[ebp+4]
  00563	6a 11		 push	 17			; 00000011H
  00565	6a 45		 push	 69			; 00000045H
  00567	e8 00 00 00 00	 call	 ?Set@CNetworkPacketHeaderMap@@QAEXHUSPacketType@1@@Z ; CNetworkPacketHeaderMap::Set
; File D:\_m2work\Server Client TMP4\ClientVS22\source\eterLib\NetPacketHeaderMap.h

; 13   : 				isDynamicSizePacket = bFlag;

  0056c	c6 45 ec 00	 mov	 BYTE PTR $T64[ebp+4], 0
; File D:\_m2work\Server Client TMP4\ClientVS22\source\UserInterface\PythonNetworkStream.cpp

; 115  : 			Set(HEADER_GC_FLY_TARGETING, CNetworkPacketHeaderMap::TPacketType(sizeof(TPacketGCFlyTargeting), STATIC_SIZE_PACKET));

  00570	b9 00 00 00 00	 mov	 ecx, OFFSET ?s_packetHeaderMap@?1??CheckPacket@CPythonNetworkStream@@IAE_NPAE@Z@4VCMainPacketHeaderMap@@A
  00575	ff 75 ec	 push	 DWORD PTR $T64[ebp+4]
  00578	6a 11		 push	 17			; 00000011H
  0057a	6a 47		 push	 71			; 00000047H
  0057c	e8 00 00 00 00	 call	 ?Set@CNetworkPacketHeaderMap@@QAEXHUSPacketType@1@@Z ; CNetworkPacketHeaderMap::Set
; File D:\_m2work\Server Client TMP4\ClientVS22\source\eterLib\NetPacketHeaderMap.h

; 13   : 				isDynamicSizePacket = bFlag;

  00581	c6 45 ec 00	 mov	 BYTE PTR $T65[ebp+4], 0
; File D:\_m2work\Server Client TMP4\ClientVS22\source\UserInterface\PythonNetworkStream.cpp

; 117  : 			Set(HEADER_GC_PHASE,		CNetworkPacketHeaderMap::TPacketType(sizeof(TPacketGCPhase), STATIC_SIZE_PACKET));

  00585	b9 00 00 00 00	 mov	 ecx, OFFSET ?s_packetHeaderMap@?1??CheckPacket@CPythonNetworkStream@@IAE_NPAE@Z@4VCMainPacketHeaderMap@@A
  0058a	ff 75 ec	 push	 DWORD PTR $T65[ebp+4]
  0058d	6a 02		 push	 2
  0058f	68 fd 00 00 00	 push	 253			; 000000fdH
  00594	e8 00 00 00 00	 call	 ?Set@CNetworkPacketHeaderMap@@QAEXHUSPacketType@1@@Z ; CNetworkPacketHeaderMap::Set
; File D:\_m2work\Server Client TMP4\ClientVS22\source\eterLib\NetPacketHeaderMap.h

; 13   : 				isDynamicSizePacket = bFlag;

  00599	c6 45 ec 00	 mov	 BYTE PTR $T66[ebp+4], 0
; File D:\_m2work\Server Client TMP4\ClientVS22\source\UserInterface\PythonNetworkStream.cpp

; 118  : 			Set(HEADER_GC_SKILL_LEVEL,	CNetworkPacketHeaderMap::TPacketType(sizeof(TPacketGCSkillLevel), STATIC_SIZE_PACKET));

  0059d	b9 00 00 00 00	 mov	 ecx, OFFSET ?s_packetHeaderMap@?1??CheckPacket@CPythonNetworkStream@@IAE_NPAE@Z@4VCMainPacketHeaderMap@@A
  005a2	ff 75 ec	 push	 DWORD PTR $T66[ebp+4]
  005a5	68 00 01 00 00	 push	 256			; 00000100H
  005aa	6a 48		 push	 72			; 00000048H
  005ac	e8 00 00 00 00	 call	 ?Set@CNetworkPacketHeaderMap@@QAEXHUSPacketType@1@@Z ; CNetworkPacketHeaderMap::Set
; File D:\_m2work\Server Client TMP4\ClientVS22\source\eterLib\NetPacketHeaderMap.h

; 13   : 				isDynamicSizePacket = bFlag;

  005b1	c6 45 ec 00	 mov	 BYTE PTR $T67[ebp+4], 0
; File D:\_m2work\Server Client TMP4\ClientVS22\source\UserInterface\PythonNetworkStream.cpp

; 119  : 			Set(HEADER_GC_SKILL_LEVEL_NEW,	CNetworkPacketHeaderMap::TPacketType(sizeof(TPacketGCSkillLevelNew), STATIC_SIZE_PACKET));

  005b5	b9 00 00 00 00	 mov	 ecx, OFFSET ?s_packetHeaderMap@?1??CheckPacket@CPythonNetworkStream@@IAE_NPAE@Z@4VCMainPacketHeaderMap@@A
  005ba	ff 75 ec	 push	 DWORD PTR $T67[ebp+4]
  005bd	68 fb 05 00 00	 push	 1531			; 000005fbH
  005c2	6a 4c		 push	 76			; 0000004cH
  005c4	e8 00 00 00 00	 call	 ?Set@CNetworkPacketHeaderMap@@QAEXHUSPacketType@1@@Z ; CNetworkPacketHeaderMap::Set
; File D:\_m2work\Server Client TMP4\ClientVS22\source\eterLib\NetPacketHeaderMap.h

; 13   : 				isDynamicSizePacket = bFlag;

  005c9	c6 45 ec 01	 mov	 BYTE PTR $T68[ebp+4], 1
; File D:\_m2work\Server Client TMP4\ClientVS22\source\UserInterface\PythonNetworkStream.cpp

; 121  : 			Set(HEADER_GC_MESSENGER,	CNetworkPacketHeaderMap::TPacketType(sizeof(TPacketGCMessenger), DYNAMIC_SIZE_PACKET));

  005cd	b9 00 00 00 00	 mov	 ecx, OFFSET ?s_packetHeaderMap@?1??CheckPacket@CPythonNetworkStream@@IAE_NPAE@Z@4VCMainPacketHeaderMap@@A
  005d2	ff 75 ec	 push	 DWORD PTR $T68[ebp+4]
  005d5	6a 04		 push	 4
  005d7	6a 4a		 push	 74			; 0000004aH
  005d9	e8 00 00 00 00	 call	 ?Set@CNetworkPacketHeaderMap@@QAEXHUSPacketType@1@@Z ; CNetworkPacketHeaderMap::Set
; File D:\_m2work\Server Client TMP4\ClientVS22\source\eterLib\NetPacketHeaderMap.h

; 13   : 				isDynamicSizePacket = bFlag;

  005de	c6 45 ec 01	 mov	 BYTE PTR $T69[ebp+4], 1
; File D:\_m2work\Server Client TMP4\ClientVS22\source\UserInterface\PythonNetworkStream.cpp

; 122  : 			Set(HEADER_GC_GUILD,		CNetworkPacketHeaderMap::TPacketType(sizeof(TPacketGCGuild), DYNAMIC_SIZE_PACKET));

  005e2	ff 75 ec	 push	 DWORD PTR $T69[ebp+4]
  005e5	6a 04		 push	 4
  005e7	6a 4b		 push	 75			; 0000004bH
  005e9	b9 00 00 00 00	 mov	 ecx, OFFSET ?s_packetHeaderMap@?1??CheckPacket@CPythonNetworkStream@@IAE_NPAE@Z@4VCMainPacketHeaderMap@@A
  005ee	e8 00 00 00 00	 call	 ?Set@CNetworkPacketHeaderMap@@QAEXHUSPacketType@1@@Z ; CNetworkPacketHeaderMap::Set
; File D:\_m2work\Server Client TMP4\ClientVS22\source\eterLib\NetPacketHeaderMap.h

; 13   : 				isDynamicSizePacket = bFlag;

  005f3	c6 45 ec 00	 mov	 BYTE PTR $T70[ebp+4], 0
; File D:\_m2work\Server Client TMP4\ClientVS22\source\UserInterface\PythonNetworkStream.cpp

; 124  : 			Set(HEADER_GC_PARTY_INVITE,	CNetworkPacketHeaderMap::TPacketType(sizeof(TPacketGCPartyInvite), STATIC_SIZE_PACKET));

  005f7	b9 00 00 00 00	 mov	 ecx, OFFSET ?s_packetHeaderMap@?1??CheckPacket@CPythonNetworkStream@@IAE_NPAE@Z@4VCMainPacketHeaderMap@@A
  005fc	ff 75 ec	 push	 DWORD PTR $T70[ebp+4]
  005ff	6a 05		 push	 5
  00601	6a 4d		 push	 77			; 0000004dH
  00603	e8 00 00 00 00	 call	 ?Set@CNetworkPacketHeaderMap@@QAEXHUSPacketType@1@@Z ; CNetworkPacketHeaderMap::Set
; File D:\_m2work\Server Client TMP4\ClientVS22\source\eterLib\NetPacketHeaderMap.h

; 13   : 				isDynamicSizePacket = bFlag;

  00608	c6 45 ec 00	 mov	 BYTE PTR $T71[ebp+4], 0
; File D:\_m2work\Server Client TMP4\ClientVS22\source\UserInterface\PythonNetworkStream.cpp

; 125  : 			Set(HEADER_GC_PARTY_ADD,	CNetworkPacketHeaderMap::TPacketType(sizeof(TPacketGCPartyAdd), STATIC_SIZE_PACKET));

  0060c	b9 00 00 00 00	 mov	 ecx, OFFSET ?s_packetHeaderMap@?1??CheckPacket@CPythonNetworkStream@@IAE_NPAE@Z@4VCMainPacketHeaderMap@@A
  00611	ff 75 ec	 push	 DWORD PTR $T71[ebp+4]
  00614	6a 1e		 push	 30			; 0000001eH
  00616	6a 4e		 push	 78			; 0000004eH
  00618	e8 00 00 00 00	 call	 ?Set@CNetworkPacketHeaderMap@@QAEXHUSPacketType@1@@Z ; CNetworkPacketHeaderMap::Set
; File D:\_m2work\Server Client TMP4\ClientVS22\source\eterLib\NetPacketHeaderMap.h

; 13   : 				isDynamicSizePacket = bFlag;

  0061d	c6 45 ec 00	 mov	 BYTE PTR $T72[ebp+4], 0
; File D:\_m2work\Server Client TMP4\ClientVS22\source\UserInterface\PythonNetworkStream.cpp

; 126  : 			Set(HEADER_GC_PARTY_UPDATE,	CNetworkPacketHeaderMap::TPacketType(sizeof(TPacketGCPartyUpdate), STATIC_SIZE_PACKET));

  00621	b9 00 00 00 00	 mov	 ecx, OFFSET ?s_packetHeaderMap@?1??CheckPacket@CPythonNetworkStream@@IAE_NPAE@Z@4VCMainPacketHeaderMap@@A
  00626	ff 75 ec	 push	 DWORD PTR $T72[ebp+4]
  00629	6a 15		 push	 21			; 00000015H
  0062b	6a 4f		 push	 79			; 0000004fH
  0062d	e8 00 00 00 00	 call	 ?Set@CNetworkPacketHeaderMap@@QAEXHUSPacketType@1@@Z ; CNetworkPacketHeaderMap::Set
; File D:\_m2work\Server Client TMP4\ClientVS22\source\eterLib\NetPacketHeaderMap.h

; 13   : 				isDynamicSizePacket = bFlag;

  00632	c6 45 ec 00	 mov	 BYTE PTR $T73[ebp+4], 0
; File D:\_m2work\Server Client TMP4\ClientVS22\source\UserInterface\PythonNetworkStream.cpp

; 127  : 			Set(HEADER_GC_PARTY_REMOVE,	CNetworkPacketHeaderMap::TPacketType(sizeof(TPacketGCPartyRemove), STATIC_SIZE_PACKET));

  00636	b9 00 00 00 00	 mov	 ecx, OFFSET ?s_packetHeaderMap@?1??CheckPacket@CPythonNetworkStream@@IAE_NPAE@Z@4VCMainPacketHeaderMap@@A
  0063b	ff 75 ec	 push	 DWORD PTR $T73[ebp+4]
  0063e	6a 05		 push	 5
  00640	6a 50		 push	 80			; 00000050H
  00642	e8 00 00 00 00	 call	 ?Set@CNetworkPacketHeaderMap@@QAEXHUSPacketType@1@@Z ; CNetworkPacketHeaderMap::Set
; File D:\_m2work\Server Client TMP4\ClientVS22\source\eterLib\NetPacketHeaderMap.h

; 13   : 				isDynamicSizePacket = bFlag;

  00647	c6 45 ec 00	 mov	 BYTE PTR $T74[ebp+4], 0
; File D:\_m2work\Server Client TMP4\ClientVS22\source\UserInterface\PythonNetworkStream.cpp

; 128  : 			Set(HEADER_GC_PARTY_LINK,	CNetworkPacketHeaderMap::TPacketType(sizeof(TPacketGCPartyLink), STATIC_SIZE_PACKET));

  0064b	b9 00 00 00 00	 mov	 ecx, OFFSET ?s_packetHeaderMap@?1??CheckPacket@CPythonNetworkStream@@IAE_NPAE@Z@4VCMainPacketHeaderMap@@A
  00650	ff 75 ec	 push	 DWORD PTR $T74[ebp+4]
  00653	6a 09		 push	 9
  00655	6a 5b		 push	 91			; 0000005bH
  00657	e8 00 00 00 00	 call	 ?Set@CNetworkPacketHeaderMap@@QAEXHUSPacketType@1@@Z ; CNetworkPacketHeaderMap::Set
; File D:\_m2work\Server Client TMP4\ClientVS22\source\eterLib\NetPacketHeaderMap.h

; 13   : 				isDynamicSizePacket = bFlag;

  0065c	c6 45 ec 00	 mov	 BYTE PTR $T75[ebp+4], 0
; File D:\_m2work\Server Client TMP4\ClientVS22\source\UserInterface\PythonNetworkStream.cpp

; 129  : 			Set(HEADER_GC_PARTY_UNLINK,	CNetworkPacketHeaderMap::TPacketType(sizeof(TPacketGCPartyUnlink), STATIC_SIZE_PACKET));

  00660	b9 00 00 00 00	 mov	 ecx, OFFSET ?s_packetHeaderMap@?1??CheckPacket@CPythonNetworkStream@@IAE_NPAE@Z@4VCMainPacketHeaderMap@@A
  00665	ff 75 ec	 push	 DWORD PTR $T75[ebp+4]
  00668	6a 09		 push	 9
  0066a	6a 5c		 push	 92			; 0000005cH
  0066c	e8 00 00 00 00	 call	 ?Set@CNetworkPacketHeaderMap@@QAEXHUSPacketType@1@@Z ; CNetworkPacketHeaderMap::Set
; File D:\_m2work\Server Client TMP4\ClientVS22\source\eterLib\NetPacketHeaderMap.h

; 13   : 				isDynamicSizePacket = bFlag;

  00671	c6 45 ec 00	 mov	 BYTE PTR $T76[ebp+4], 0
; File D:\_m2work\Server Client TMP4\ClientVS22\source\UserInterface\PythonNetworkStream.cpp

; 130  : 			Set(HEADER_GC_PARTY_PARAMETER,	CNetworkPacketHeaderMap::TPacketType(sizeof(TPacketGCPartyParameter), STATIC_SIZE_PACKET));

  00675	b9 00 00 00 00	 mov	 ecx, OFFSET ?s_packetHeaderMap@?1??CheckPacket@CPythonNetworkStream@@IAE_NPAE@Z@4VCMainPacketHeaderMap@@A
  0067a	ff 75 ec	 push	 DWORD PTR $T76[ebp+4]
  0067d	6a 02		 push	 2
  0067f	6a 53		 push	 83			; 00000053H
  00681	e8 00 00 00 00	 call	 ?Set@CNetworkPacketHeaderMap@@QAEXHUSPacketType@1@@Z ; CNetworkPacketHeaderMap::Set
; File D:\_m2work\Server Client TMP4\ClientVS22\source\eterLib\NetPacketHeaderMap.h

; 13   : 				isDynamicSizePacket = bFlag;

  00686	c6 45 ec 00	 mov	 BYTE PTR $T77[ebp+4], 0
; File D:\_m2work\Server Client TMP4\ClientVS22\source\UserInterface\PythonNetworkStream.cpp

; 132  : 			Set(HEADER_GC_SAFEBOX_SET,	CNetworkPacketHeaderMap::TPacketType(sizeof(TPacketGCItemSet), STATIC_SIZE_PACKET));

  0068a	b9 00 00 00 00	 mov	 ecx, OFFSET ?s_packetHeaderMap@?1??CheckPacket@CPythonNetworkStream@@IAE_NPAE@Z@4VCMainPacketHeaderMap@@A
  0068f	ff 75 ec	 push	 DWORD PTR $T77[ebp+4]
  00692	6a 2a		 push	 42			; 0000002aH
  00694	6a 55		 push	 85			; 00000055H
  00696	e8 00 00 00 00	 call	 ?Set@CNetworkPacketHeaderMap@@QAEXHUSPacketType@1@@Z ; CNetworkPacketHeaderMap::Set
; File D:\_m2work\Server Client TMP4\ClientVS22\source\eterLib\NetPacketHeaderMap.h

; 13   : 				isDynamicSizePacket = bFlag;

  0069b	c6 45 ec 00	 mov	 BYTE PTR $T78[ebp+4], 0
; File D:\_m2work\Server Client TMP4\ClientVS22\source\UserInterface\PythonNetworkStream.cpp

; 133  : 			Set(HEADER_GC_SAFEBOX_DEL,	CNetworkPacketHeaderMap::TPacketType(sizeof(TPacketGCItemDel), STATIC_SIZE_PACKET));

  0069f	b9 00 00 00 00	 mov	 ecx, OFFSET ?s_packetHeaderMap@?1??CheckPacket@CPythonNetworkStream@@IAE_NPAE@Z@4VCMainPacketHeaderMap@@A
  006a4	ff 75 ec	 push	 DWORD PTR $T78[ebp+4]
  006a7	6a 02		 push	 2
  006a9	6a 56		 push	 86			; 00000056H
  006ab	e8 00 00 00 00	 call	 ?Set@CNetworkPacketHeaderMap@@QAEXHUSPacketType@1@@Z ; CNetworkPacketHeaderMap::Set
; File D:\_m2work\Server Client TMP4\ClientVS22\source\eterLib\NetPacketHeaderMap.h

; 13   : 				isDynamicSizePacket = bFlag;

  006b0	c6 45 ec 00	 mov	 BYTE PTR $T79[ebp+4], 0
; File D:\_m2work\Server Client TMP4\ClientVS22\source\UserInterface\PythonNetworkStream.cpp

; 134  : 			Set(HEADER_GC_SAFEBOX_WRONG_PASSWORD,	CNetworkPacketHeaderMap::TPacketType(sizeof(TPacketGCSafeboxWrongPassword), STATIC_SIZE_PACKET));

  006b4	b9 00 00 00 00	 mov	 ecx, OFFSET ?s_packetHeaderMap@?1??CheckPacket@CPythonNetworkStream@@IAE_NPAE@Z@4VCMainPacketHeaderMap@@A
  006b9	ff 75 ec	 push	 DWORD PTR $T79[ebp+4]
  006bc	6a 01		 push	 1
  006be	6a 57		 push	 87			; 00000057H
  006c0	e8 00 00 00 00	 call	 ?Set@CNetworkPacketHeaderMap@@QAEXHUSPacketType@1@@Z ; CNetworkPacketHeaderMap::Set
; File D:\_m2work\Server Client TMP4\ClientVS22\source\eterLib\NetPacketHeaderMap.h

; 13   : 				isDynamicSizePacket = bFlag;

  006c5	c6 45 ec 00	 mov	 BYTE PTR $T80[ebp+4], 0
; File D:\_m2work\Server Client TMP4\ClientVS22\source\UserInterface\PythonNetworkStream.cpp

; 135  : 			Set(HEADER_GC_SAFEBOX_SIZE,	CNetworkPacketHeaderMap::TPacketType(sizeof(TPacketGCSafeboxSize), STATIC_SIZE_PACKET));

  006c9	b9 00 00 00 00	 mov	 ecx, OFFSET ?s_packetHeaderMap@?1??CheckPacket@CPythonNetworkStream@@IAE_NPAE@Z@4VCMainPacketHeaderMap@@A
  006ce	ff 75 ec	 push	 DWORD PTR $T80[ebp+4]
  006d1	6a 02		 push	 2
  006d3	6a 58		 push	 88			; 00000058H
  006d5	e8 00 00 00 00	 call	 ?Set@CNetworkPacketHeaderMap@@QAEXHUSPacketType@1@@Z ; CNetworkPacketHeaderMap::Set
; File D:\_m2work\Server Client TMP4\ClientVS22\source\eterLib\NetPacketHeaderMap.h

; 13   : 				isDynamicSizePacket = bFlag;

  006da	c6 45 ec 00	 mov	 BYTE PTR $T81[ebp+4], 0
; File D:\_m2work\Server Client TMP4\ClientVS22\source\UserInterface\PythonNetworkStream.cpp

; 136  : 			Set(HEADER_GC_SAFEBOX_MONEY_CHANGE,	CNetworkPacketHeaderMap::TPacketType(sizeof(TPacketGCSafeboxMoneyChange), STATIC_SIZE_PACKET));

  006de	b9 00 00 00 00	 mov	 ecx, OFFSET ?s_packetHeaderMap@?1??CheckPacket@CPythonNetworkStream@@IAE_NPAE@Z@4VCMainPacketHeaderMap@@A
  006e3	ff 75 ec	 push	 DWORD PTR $T81[ebp+4]
  006e6	6a 05		 push	 5
  006e8	6a 54		 push	 84			; 00000054H
  006ea	e8 00 00 00 00	 call	 ?Set@CNetworkPacketHeaderMap@@QAEXHUSPacketType@1@@Z ; CNetworkPacketHeaderMap::Set
; File D:\_m2work\Server Client TMP4\ClientVS22\source\eterLib\NetPacketHeaderMap.h

; 13   : 				isDynamicSizePacket = bFlag;

  006ef	c6 45 ec 00	 mov	 BYTE PTR $T82[ebp+4], 0
; File D:\_m2work\Server Client TMP4\ClientVS22\source\UserInterface\PythonNetworkStream.cpp

; 138  : 			Set(HEADER_GC_FISHING,	CNetworkPacketHeaderMap::TPacketType(sizeof(TPacketGCFishing), STATIC_SIZE_PACKET));

  006f3	b9 00 00 00 00	 mov	 ecx, OFFSET ?s_packetHeaderMap@?1??CheckPacket@CPythonNetworkStream@@IAE_NPAE@Z@4VCMainPacketHeaderMap@@A
  006f8	ff 75 ec	 push	 DWORD PTR $T82[ebp+4]
  006fb	6a 07		 push	 7
  006fd	6a 59		 push	 89			; 00000059H
  006ff	e8 00 00 00 00	 call	 ?Set@CNetworkPacketHeaderMap@@QAEXHUSPacketType@1@@Z ; CNetworkPacketHeaderMap::Set
; File D:\_m2work\Server Client TMP4\ClientVS22\source\eterLib\NetPacketHeaderMap.h

; 13   : 				isDynamicSizePacket = bFlag;

  00704	c6 45 ec 01	 mov	 BYTE PTR $T83[ebp+4], 1
; File D:\_m2work\Server Client TMP4\ClientVS22\source\UserInterface\PythonNetworkStream.cpp

; 139  : 			Set(HEADER_GC_DUNGEON, CNetworkPacketHeaderMap::TPacketType(sizeof(TPacketGCDungeon), DYNAMIC_SIZE_PACKET));

  00708	b9 00 00 00 00	 mov	 ecx, OFFSET ?s_packetHeaderMap@?1??CheckPacket@CPythonNetworkStream@@IAE_NPAE@Z@4VCMainPacketHeaderMap@@A
  0070d	ff 75 ec	 push	 DWORD PTR $T83[ebp+4]
  00710	6a 04		 push	 4
  00712	6a 6e		 push	 110			; 0000006eH
  00714	e8 00 00 00 00	 call	 ?Set@CNetworkPacketHeaderMap@@QAEXHUSPacketType@1@@Z ; CNetworkPacketHeaderMap::Set
; File D:\_m2work\Server Client TMP4\ClientVS22\source\eterLib\NetPacketHeaderMap.h

; 13   : 				isDynamicSizePacket = bFlag;

  00719	c6 45 ec 00	 mov	 BYTE PTR $T84[ebp+4], 0
; File D:\_m2work\Server Client TMP4\ClientVS22\source\UserInterface\PythonNetworkStream.cpp

; 141  : 			Set(HEADER_GC_TIME, CNetworkPacketHeaderMap::TPacketType(sizeof(TPacketGCTime), STATIC_SIZE_PACKET));

  0071d	b9 00 00 00 00	 mov	 ecx, OFFSET ?s_packetHeaderMap@?1??CheckPacket@CPythonNetworkStream@@IAE_NPAE@Z@4VCMainPacketHeaderMap@@A
  00722	ff 75 ec	 push	 DWORD PTR $T84[ebp+4]
  00725	6a 05		 push	 5
  00727	6a 6a		 push	 106			; 0000006aH
  00729	e8 00 00 00 00	 call	 ?Set@CNetworkPacketHeaderMap@@QAEXHUSPacketType@1@@Z ; CNetworkPacketHeaderMap::Set
; File D:\_m2work\Server Client TMP4\ClientVS22\source\eterLib\NetPacketHeaderMap.h

; 13   : 				isDynamicSizePacket = bFlag;

  0072e	c6 45 ec 00	 mov	 BYTE PTR $T85[ebp+4], 0
; File D:\_m2work\Server Client TMP4\ClientVS22\source\UserInterface\PythonNetworkStream.cpp

; 142  : 			Set(HEADER_GC_WALK_MODE, CNetworkPacketHeaderMap::TPacketType(sizeof(TPacketGCWalkMode), STATIC_SIZE_PACKET));

  00732	b9 00 00 00 00	 mov	 ecx, OFFSET ?s_packetHeaderMap@?1??CheckPacket@CPythonNetworkStream@@IAE_NPAE@Z@4VCMainPacketHeaderMap@@A
  00737	ff 75 ec	 push	 DWORD PTR $T85[ebp+4]
  0073a	6a 06		 push	 6
  0073c	6a 6f		 push	 111			; 0000006fH
  0073e	e8 00 00 00 00	 call	 ?Set@CNetworkPacketHeaderMap@@QAEXHUSPacketType@1@@Z ; CNetworkPacketHeaderMap::Set
; File D:\_m2work\Server Client TMP4\ClientVS22\source\eterLib\NetPacketHeaderMap.h

; 13   : 				isDynamicSizePacket = bFlag;

  00743	c6 45 ec 00	 mov	 BYTE PTR $T86[ebp+4], 0
; File D:\_m2work\Server Client TMP4\ClientVS22\source\UserInterface\PythonNetworkStream.cpp

; 143  : 			Set(HEADER_GC_CHANGE_SKILL_GROUP, CNetworkPacketHeaderMap::TPacketType(sizeof(TPacketGCChangeSkillGroup), STATIC_SIZE_PACKET));

  00747	b9 00 00 00 00	 mov	 ecx, OFFSET ?s_packetHeaderMap@?1??CheckPacket@CPythonNetworkStream@@IAE_NPAE@Z@4VCMainPacketHeaderMap@@A
  0074c	ff 75 ec	 push	 DWORD PTR $T86[ebp+4]
  0074f	6a 02		 push	 2
  00751	6a 70		 push	 112			; 00000070H
  00753	e8 00 00 00 00	 call	 ?Set@CNetworkPacketHeaderMap@@QAEXHUSPacketType@1@@Z ; CNetworkPacketHeaderMap::Set
; File D:\_m2work\Server Client TMP4\ClientVS22\source\eterLib\NetPacketHeaderMap.h

; 13   : 				isDynamicSizePacket = bFlag;

  00758	c6 45 ec 00	 mov	 BYTE PTR $T87[ebp+4], 0
; File D:\_m2work\Server Client TMP4\ClientVS22\source\UserInterface\PythonNetworkStream.cpp

; 144  : 			Set(HEADER_GC_REFINE_INFORMATION, CNetworkPacketHeaderMap::TPacketType(sizeof(TPacketGCRefineInformation), STATIC_SIZE_PACKET));

  0075c	b9 00 00 00 00	 mov	 ecx, OFFSET ?s_packetHeaderMap@?1??CheckPacket@CPythonNetworkStream@@IAE_NPAE@Z@4VCMainPacketHeaderMap@@A
  00761	ff 75 ec	 push	 DWORD PTR $T87[ebp+4]
  00764	6a 3b		 push	 59			; 0000003bH
  00766	6a 5f		 push	 95			; 0000005fH
  00768	e8 00 00 00 00	 call	 ?Set@CNetworkPacketHeaderMap@@QAEXHUSPacketType@1@@Z ; CNetworkPacketHeaderMap::Set
; File D:\_m2work\Server Client TMP4\ClientVS22\source\eterLib\NetPacketHeaderMap.h

; 13   : 				isDynamicSizePacket = bFlag;

  0076d	c6 45 ec 00	 mov	 BYTE PTR $T88[ebp+4], 0
; File D:\_m2work\Server Client TMP4\ClientVS22\source\UserInterface\PythonNetworkStream.cpp

; 145  : 			Set(HEADER_GC_REFINE_INFORMATION_NEW, CNetworkPacketHeaderMap::TPacketType(sizeof(TPacketGCRefineInformationNew), STATIC_SIZE_PACKET));

  00771	b9 00 00 00 00	 mov	 ecx, OFFSET ?s_packetHeaderMap@?1??CheckPacket@CPythonNetworkStream@@IAE_NPAE@Z@4VCMainPacketHeaderMap@@A
  00776	ff 75 ec	 push	 DWORD PTR $T88[ebp+4]
  00779	6a 3c		 push	 60			; 0000003cH
  0077b	6a 77		 push	 119			; 00000077H
  0077d	e8 00 00 00 00	 call	 ?Set@CNetworkPacketHeaderMap@@QAEXHUSPacketType@1@@Z ; CNetworkPacketHeaderMap::Set
; File D:\_m2work\Server Client TMP4\ClientVS22\source\eterLib\NetPacketHeaderMap.h

; 13   : 				isDynamicSizePacket = bFlag;

  00782	c6 45 ec 00	 mov	 BYTE PTR $T89[ebp+4], 0
; File D:\_m2work\Server Client TMP4\ClientVS22\source\UserInterface\PythonNetworkStream.cpp

; 146  : 			Set(HEADER_GC_SEPCIAL_EFFECT, CNetworkPacketHeaderMap::TPacketType(sizeof(TPacketGCSpecialEffect), STATIC_SIZE_PACKET));

  00786	b9 00 00 00 00	 mov	 ecx, OFFSET ?s_packetHeaderMap@?1??CheckPacket@CPythonNetworkStream@@IAE_NPAE@Z@4VCMainPacketHeaderMap@@A
  0078b	ff 75 ec	 push	 DWORD PTR $T89[ebp+4]
  0078e	6a 06		 push	 6
  00790	6a 72		 push	 114			; 00000072H
  00792	e8 00 00 00 00	 call	 ?Set@CNetworkPacketHeaderMap@@QAEXHUSPacketType@1@@Z ; CNetworkPacketHeaderMap::Set
; File D:\_m2work\Server Client TMP4\ClientVS22\source\eterLib\NetPacketHeaderMap.h

; 13   : 				isDynamicSizePacket = bFlag;

  00797	c6 45 ec 01	 mov	 BYTE PTR $T90[ebp+4], 1
; File D:\_m2work\Server Client TMP4\ClientVS22\source\UserInterface\PythonNetworkStream.cpp

; 147  : 			Set(HEADER_GC_NPC_POSITION, CNetworkPacketHeaderMap::TPacketType(sizeof(TPacketGCNPCPosition), DYNAMIC_SIZE_PACKET));

  0079b	b9 00 00 00 00	 mov	 ecx, OFFSET ?s_packetHeaderMap@?1??CheckPacket@CPythonNetworkStream@@IAE_NPAE@Z@4VCMainPacketHeaderMap@@A
  007a0	ff 75 ec	 push	 DWORD PTR $T90[ebp+4]
  007a3	6a 05		 push	 5
  007a5	6a 73		 push	 115			; 00000073H
  007a7	e8 00 00 00 00	 call	 ?Set@CNetworkPacketHeaderMap@@QAEXHUSPacketType@1@@Z ; CNetworkPacketHeaderMap::Set
; File D:\_m2work\Server Client TMP4\ClientVS22\source\eterLib\NetPacketHeaderMap.h

; 13   : 				isDynamicSizePacket = bFlag;

  007ac	c6 45 ec 00	 mov	 BYTE PTR $T91[ebp+4], 0
; File D:\_m2work\Server Client TMP4\ClientVS22\source\UserInterface\PythonNetworkStream.cpp

; 148  : 			Set(HEADER_GC_CHANGE_NAME, CNetworkPacketHeaderMap::TPacketType(sizeof(TPacketGCChangeName), STATIC_SIZE_PACKET));

  007b0	b9 00 00 00 00	 mov	 ecx, OFFSET ?s_packetHeaderMap@?1??CheckPacket@CPythonNetworkStream@@IAE_NPAE@Z@4VCMainPacketHeaderMap@@A
  007b5	ff 75 ec	 push	 DWORD PTR $T91[ebp+4]
  007b8	6a 1e		 push	 30			; 0000001eH
  007ba	6a 6b		 push	 107			; 0000006bH
  007bc	e8 00 00 00 00	 call	 ?Set@CNetworkPacketHeaderMap@@QAEXHUSPacketType@1@@Z ; CNetworkPacketHeaderMap::Set
; File D:\_m2work\Server Client TMP4\ClientVS22\source\eterLib\NetPacketHeaderMap.h

; 13   : 				isDynamicSizePacket = bFlag;

  007c1	c6 45 ec 00	 mov	 BYTE PTR $T92[ebp+4], 0
; File D:\_m2work\Server Client TMP4\ClientVS22\source\UserInterface\PythonNetworkStream.cpp

; 150  : 			Set(HEADER_GC_CHINA_MATRIX_CARD, CNetworkPacketHeaderMap::TPacketType(sizeof(TPacketGCChinaMatrixCard), STATIC_SIZE_PACKET));

  007c5	b9 00 00 00 00	 mov	 ecx, OFFSET ?s_packetHeaderMap@?1??CheckPacket@CPythonNetworkStream@@IAE_NPAE@Z@4VCMainPacketHeaderMap@@A
  007ca	ff 75 ec	 push	 DWORD PTR $T92[ebp+4]
  007cd	6a 09		 push	 9
  007cf	6a 74		 push	 116			; 00000074H
  007d1	e8 00 00 00 00	 call	 ?Set@CNetworkPacketHeaderMap@@QAEXHUSPacketType@1@@Z ; CNetworkPacketHeaderMap::Set
; File D:\_m2work\Server Client TMP4\ClientVS22\source\eterLib\NetPacketHeaderMap.h

; 13   : 				isDynamicSizePacket = bFlag;

  007d6	c6 45 ec 00	 mov	 BYTE PTR $T93[ebp+4], 0
; File D:\_m2work\Server Client TMP4\ClientVS22\source\UserInterface\PythonNetworkStream.cpp

; 151  : 			Set(HEADER_GC_RUNUP_MATRIX_QUIZ, CNetworkPacketHeaderMap::TPacketType(sizeof(TPacketGCRunupMatrixQuiz), STATIC_SIZE_PACKET));

  007da	b9 00 00 00 00	 mov	 ecx, OFFSET ?s_packetHeaderMap@?1??CheckPacket@CPythonNetworkStream@@IAE_NPAE@Z@4VCMainPacketHeaderMap@@A
  007df	ff 75 ec	 push	 DWORD PTR $T93[ebp+4]
  007e2	6a 0a		 push	 10			; 0000000aH
  007e4	68 c9 00 00 00	 push	 201			; 000000c9H
  007e9	e8 00 00 00 00	 call	 ?Set@CNetworkPacketHeaderMap@@QAEXHUSPacketType@1@@Z ; CNetworkPacketHeaderMap::Set
; File D:\_m2work\Server Client TMP4\ClientVS22\source\eterLib\NetPacketHeaderMap.h

; 13   : 				isDynamicSizePacket = bFlag;

  007ee	c6 45 ec 00	 mov	 BYTE PTR $T94[ebp+4], 0
; File D:\_m2work\Server Client TMP4\ClientVS22\source\UserInterface\PythonNetworkStream.cpp

; 152  : 			Set(HEADER_GC_NEWCIBN_PASSPOD_REQUEST, CNetworkPacketHeaderMap::TPacketType(sizeof(TPacketGCNEWCIBNPasspodRequest), STATIC_SIZE_PACKET));

  007f2	b9 00 00 00 00	 mov	 ecx, OFFSET ?s_packetHeaderMap@?1??CheckPacket@CPythonNetworkStream@@IAE_NPAE@Z@4VCMainPacketHeaderMap@@A
  007f7	ff 75 ec	 push	 DWORD PTR $T94[ebp+4]
  007fa	6a 01		 push	 1
  007fc	68 ca 00 00 00	 push	 202			; 000000caH
  00801	e8 00 00 00 00	 call	 ?Set@CNetworkPacketHeaderMap@@QAEXHUSPacketType@1@@Z ; CNetworkPacketHeaderMap::Set
; File D:\_m2work\Server Client TMP4\ClientVS22\source\eterLib\NetPacketHeaderMap.h

; 13   : 				isDynamicSizePacket = bFlag;

  00806	c6 45 ec 00	 mov	 BYTE PTR $T95[ebp+4], 0
; File D:\_m2work\Server Client TMP4\ClientVS22\source\UserInterface\PythonNetworkStream.cpp

; 153  : 			Set(HEADER_GC_NEWCIBN_PASSPOD_FAILURE, CNetworkPacketHeaderMap::TPacketType(sizeof(TPacketGCNEWCIBNPasspodFailure), STATIC_SIZE_PACKET));

  0080a	b9 00 00 00 00	 mov	 ecx, OFFSET ?s_packetHeaderMap@?1??CheckPacket@CPythonNetworkStream@@IAE_NPAE@Z@4VCMainPacketHeaderMap@@A
  0080f	ff 75 ec	 push	 DWORD PTR $T95[ebp+4]
  00812	68 82 00 00 00	 push	 130			; 00000082H
  00817	68 cb 00 00 00	 push	 203			; 000000cbH
  0081c	e8 00 00 00 00	 call	 ?Set@CNetworkPacketHeaderMap@@QAEXHUSPacketType@1@@Z ; CNetworkPacketHeaderMap::Set
; File D:\_m2work\Server Client TMP4\ClientVS22\source\eterLib\NetPacketHeaderMap.h

; 13   : 				isDynamicSizePacket = bFlag;

  00821	c6 45 ec 00	 mov	 BYTE PTR $T96[ebp+4], 0
; File D:\_m2work\Server Client TMP4\ClientVS22\source\UserInterface\PythonNetworkStream.cpp

; 154  : 			Set(HEADER_GC_LOGIN_KEY, CNetworkPacketHeaderMap::TPacketType(sizeof(TPacketGCLoginKey), STATIC_SIZE_PACKET));

  00825	ff 75 ec	 push	 DWORD PTR $T96[ebp+4]
  00828	6a 05		 push	 5
  0082a	6a 76		 push	 118			; 00000076H
  0082c	b9 00 00 00 00	 mov	 ecx, OFFSET ?s_packetHeaderMap@?1??CheckPacket@CPythonNetworkStream@@IAE_NPAE@Z@4VCMainPacketHeaderMap@@A
  00831	e8 00 00 00 00	 call	 ?Set@CNetworkPacketHeaderMap@@QAEXHUSPacketType@1@@Z ; CNetworkPacketHeaderMap::Set
; File D:\_m2work\Server Client TMP4\ClientVS22\source\eterLib\NetPacketHeaderMap.h

; 13   : 				isDynamicSizePacket = bFlag;

  00836	c6 45 ec 00	 mov	 BYTE PTR $T97[ebp+4], 0
; File D:\_m2work\Server Client TMP4\ClientVS22\source\UserInterface\PythonNetworkStream.cpp

; 156  : 			Set(HEADER_GC_AUTH_SUCCESS, CNetworkPacketHeaderMap::TPacketType(sizeof(TPacketGCAuthSuccess), STATIC_SIZE_PACKET));

  0083a	b9 00 00 00 00	 mov	 ecx, OFFSET ?s_packetHeaderMap@?1??CheckPacket@CPythonNetworkStream@@IAE_NPAE@Z@4VCMainPacketHeaderMap@@A
  0083f	ff 75 ec	 push	 DWORD PTR $T97[ebp+4]
  00842	6a 06		 push	 6
  00844	68 96 00 00 00	 push	 150			; 00000096H
  00849	e8 00 00 00 00	 call	 ?Set@CNetworkPacketHeaderMap@@QAEXHUSPacketType@1@@Z ; CNetworkPacketHeaderMap::Set
; File D:\_m2work\Server Client TMP4\ClientVS22\source\eterLib\NetPacketHeaderMap.h

; 13   : 				isDynamicSizePacket = bFlag;

  0084e	c6 45 ec 00	 mov	 BYTE PTR $T98[ebp+4], 0
; File D:\_m2work\Server Client TMP4\ClientVS22\source\UserInterface\PythonNetworkStream.cpp

; 157  : 			Set(HEADER_GC_AUTH_SUCCESS_OPENID, CNetworkPacketHeaderMap::TPacketType(sizeof(TPacketGCAuthSuccessOpenID), STATIC_SIZE_PACKET));

  00852	b9 00 00 00 00	 mov	 ecx, OFFSET ?s_packetHeaderMap@?1??CheckPacket@CPythonNetworkStream@@IAE_NPAE@Z@4VCMainPacketHeaderMap@@A
  00857	ff 75 ec	 push	 DWORD PTR $T98[ebp+4]
  0085a	6a 25		 push	 37			; 00000025H
  0085c	68 9a 00 00 00	 push	 154			; 0000009aH
  00861	e8 00 00 00 00	 call	 ?Set@CNetworkPacketHeaderMap@@QAEXHUSPacketType@1@@Z ; CNetworkPacketHeaderMap::Set
; File D:\_m2work\Server Client TMP4\ClientVS22\source\eterLib\NetPacketHeaderMap.h

; 13   : 				isDynamicSizePacket = bFlag;

  00866	c6 45 ec 00	 mov	 BYTE PTR $T99[ebp+4], 0
; File D:\_m2work\Server Client TMP4\ClientVS22\source\UserInterface\PythonNetworkStream.cpp

; 158  : 			Set(HEADER_GC_CHANNEL, CNetworkPacketHeaderMap::TPacketType(sizeof(TPacketGCChannel), STATIC_SIZE_PACKET));

  0086a	b9 00 00 00 00	 mov	 ecx, OFFSET ?s_packetHeaderMap@?1??CheckPacket@CPythonNetworkStream@@IAE_NPAE@Z@4VCMainPacketHeaderMap@@A
  0086f	ff 75 ec	 push	 DWORD PTR $T99[ebp+4]
  00872	6a 02		 push	 2
  00874	6a 79		 push	 121			; 00000079H
  00876	e8 00 00 00 00	 call	 ?Set@CNetworkPacketHeaderMap@@QAEXHUSPacketType@1@@Z ; CNetworkPacketHeaderMap::Set
; File D:\_m2work\Server Client TMP4\ClientVS22\source\eterLib\NetPacketHeaderMap.h

; 13   : 				isDynamicSizePacket = bFlag;

  0087b	c6 45 ec 00	 mov	 BYTE PTR $T100[ebp+4], 0
; File D:\_m2work\Server Client TMP4\ClientVS22\source\UserInterface\PythonNetworkStream.cpp

; 159  : 			Set(HEADER_GC_VIEW_EQUIP, CNetworkPacketHeaderMap::TPacketType(sizeof(TPacketGCViewEquip), STATIC_SIZE_PACKET));

  0087f	b9 00 00 00 00	 mov	 ecx, OFFSET ?s_packetHeaderMap@?1??CheckPacket@CPythonNetworkStream@@IAE_NPAE@Z@4VCMainPacketHeaderMap@@A
  00884	ff 75 ec	 push	 DWORD PTR $T100[ebp+4]
  00887	68 a7 01 00 00	 push	 423			; 000001a7H
  0088c	6a 63		 push	 99			; 00000063H
  0088e	e8 00 00 00 00	 call	 ?Set@CNetworkPacketHeaderMap@@QAEXHUSPacketType@1@@Z ; CNetworkPacketHeaderMap::Set
; File D:\_m2work\Server Client TMP4\ClientVS22\source\eterLib\NetPacketHeaderMap.h

; 13   : 				isDynamicSizePacket = bFlag;

  00893	c6 45 ec 01	 mov	 BYTE PTR $T101[ebp+4], 1
; File D:\_m2work\Server Client TMP4\ClientVS22\source\UserInterface\PythonNetworkStream.cpp

; 160  : 			Set(HEADER_GC_LAND_LIST, CNetworkPacketHeaderMap::TPacketType(sizeof(TPacketGCLandList), DYNAMIC_SIZE_PACKET));

  00897	b9 00 00 00 00	 mov	 ecx, OFFSET ?s_packetHeaderMap@?1??CheckPacket@CPythonNetworkStream@@IAE_NPAE@Z@4VCMainPacketHeaderMap@@A
  0089c	ff 75 ec	 push	 DWORD PTR $T101[ebp+4]
  0089f	6a 03		 push	 3
  008a1	68 82 00 00 00	 push	 130			; 00000082H
  008a6	e8 00 00 00 00	 call	 ?Set@CNetworkPacketHeaderMap@@QAEXHUSPacketType@1@@Z ; CNetworkPacketHeaderMap::Set
; File D:\_m2work\Server Client TMP4\ClientVS22\source\eterLib\NetPacketHeaderMap.h

; 13   : 				isDynamicSizePacket = bFlag;

  008ab	c6 45 ec 00	 mov	 BYTE PTR $T102[ebp+4], 0
; File D:\_m2work\Server Client TMP4\ClientVS22\source\UserInterface\PythonNetworkStream.cpp

; 163  : 			Set(HEADER_GC_TARGET_UPDATE, CNetworkPacketHeaderMap::TPacketType(sizeof(TPacketGCTargetUpdate), STATIC_SIZE_PACKET));

  008af	b9 00 00 00 00	 mov	 ecx, OFFSET ?s_packetHeaderMap@?1??CheckPacket@CPythonNetworkStream@@IAE_NPAE@Z@4VCMainPacketHeaderMap@@A
  008b4	ff 75 ec	 push	 DWORD PTR $T102[ebp+4]
  008b7	6a 0d		 push	 13			; 0000000dH
  008b9	6a 7b		 push	 123			; 0000007bH
  008bb	e8 00 00 00 00	 call	 ?Set@CNetworkPacketHeaderMap@@QAEXHUSPacketType@1@@Z ; CNetworkPacketHeaderMap::Set
; File D:\_m2work\Server Client TMP4\ClientVS22\source\eterLib\NetPacketHeaderMap.h

; 13   : 				isDynamicSizePacket = bFlag;

  008c0	c6 45 ec 00	 mov	 BYTE PTR $T103[ebp+4], 0
; File D:\_m2work\Server Client TMP4\ClientVS22\source\UserInterface\PythonNetworkStream.cpp

; 164  : 			Set(HEADER_GC_TARGET_DELETE, CNetworkPacketHeaderMap::TPacketType(sizeof(TPacketGCTargetDelete), STATIC_SIZE_PACKET));

  008c4	b9 00 00 00 00	 mov	 ecx, OFFSET ?s_packetHeaderMap@?1??CheckPacket@CPythonNetworkStream@@IAE_NPAE@Z@4VCMainPacketHeaderMap@@A
  008c9	ff 75 ec	 push	 DWORD PTR $T103[ebp+4]
  008cc	6a 05		 push	 5
  008ce	6a 7c		 push	 124			; 0000007cH
  008d0	e8 00 00 00 00	 call	 ?Set@CNetworkPacketHeaderMap@@QAEXHUSPacketType@1@@Z ; CNetworkPacketHeaderMap::Set
; File D:\_m2work\Server Client TMP4\ClientVS22\source\eterLib\NetPacketHeaderMap.h

; 13   : 				isDynamicSizePacket = bFlag;

  008d5	c6 45 ec 00	 mov	 BYTE PTR $T104[ebp+4], 0
; File D:\_m2work\Server Client TMP4\ClientVS22\source\UserInterface\PythonNetworkStream.cpp

; 165  : 			Set(HEADER_GC_TARGET_CREATE_NEW, CNetworkPacketHeaderMap::TPacketType(sizeof(TPacketGCTargetCreateNew), STATIC_SIZE_PACKET));

  008d9	b9 00 00 00 00	 mov	 ecx, OFFSET ?s_packetHeaderMap@?1??CheckPacket@CPythonNetworkStream@@IAE_NPAE@Z@4VCMainPacketHeaderMap@@A
  008de	ff 75 ec	 push	 DWORD PTR $T104[ebp+4]
  008e1	6a 2b		 push	 43			; 0000002bH
  008e3	6a 7d		 push	 125			; 0000007dH
  008e5	e8 00 00 00 00	 call	 ?Set@CNetworkPacketHeaderMap@@QAEXHUSPacketType@1@@Z ; CNetworkPacketHeaderMap::Set
; File D:\_m2work\Server Client TMP4\ClientVS22\source\eterLib\NetPacketHeaderMap.h

; 13   : 				isDynamicSizePacket = bFlag;

  008ea	c6 45 ec 00	 mov	 BYTE PTR $T105[ebp+4], 0
; File D:\_m2work\Server Client TMP4\ClientVS22\source\UserInterface\PythonNetworkStream.cpp

; 167  : 			Set(HEADER_GC_AFFECT_ADD, CNetworkPacketHeaderMap::TPacketType(sizeof(TPacketGCAffectAdd), STATIC_SIZE_PACKET));

  008ee	b9 00 00 00 00	 mov	 ecx, OFFSET ?s_packetHeaderMap@?1??CheckPacket@CPythonNetworkStream@@IAE_NPAE@Z@4VCMainPacketHeaderMap@@A
  008f3	ff 75 ec	 push	 DWORD PTR $T105[ebp+4]
  008f6	6a 16		 push	 22			; 00000016H
  008f8	6a 7e		 push	 126			; 0000007eH
  008fa	e8 00 00 00 00	 call	 ?Set@CNetworkPacketHeaderMap@@QAEXHUSPacketType@1@@Z ; CNetworkPacketHeaderMap::Set
; File D:\_m2work\Server Client TMP4\ClientVS22\source\eterLib\NetPacketHeaderMap.h

; 13   : 				isDynamicSizePacket = bFlag;

  008ff	c6 45 ec 00	 mov	 BYTE PTR $T106[ebp+4], 0
; File D:\_m2work\Server Client TMP4\ClientVS22\source\UserInterface\PythonNetworkStream.cpp

; 168  : 			Set(HEADER_GC_AFFECT_REMOVE, CNetworkPacketHeaderMap::TPacketType(sizeof(TPacketGCAffectRemove), STATIC_SIZE_PACKET));

  00903	b9 00 00 00 00	 mov	 ecx, OFFSET ?s_packetHeaderMap@?1??CheckPacket@CPythonNetworkStream@@IAE_NPAE@Z@4VCMainPacketHeaderMap@@A
  00908	ff 75 ec	 push	 DWORD PTR $T106[ebp+4]
  0090b	6a 06		 push	 6
  0090d	6a 7f		 push	 127			; 0000007fH
  0090f	e8 00 00 00 00	 call	 ?Set@CNetworkPacketHeaderMap@@QAEXHUSPacketType@1@@Z ; CNetworkPacketHeaderMap::Set
; File D:\_m2work\Server Client TMP4\ClientVS22\source\eterLib\NetPacketHeaderMap.h

; 13   : 				isDynamicSizePacket = bFlag;

  00914	c6 45 ec 00	 mov	 BYTE PTR $T107[ebp+4], 0
; File D:\_m2work\Server Client TMP4\ClientVS22\source\UserInterface\PythonNetworkStream.cpp

; 170  : 			Set(HEADER_GC_MALL_OPEN, CNetworkPacketHeaderMap::TPacketType(sizeof(TPacketGCMallOpen), STATIC_SIZE_PACKET));

  00918	b9 00 00 00 00	 mov	 ecx, OFFSET ?s_packetHeaderMap@?1??CheckPacket@CPythonNetworkStream@@IAE_NPAE@Z@4VCMainPacketHeaderMap@@A
  0091d	ff 75 ec	 push	 DWORD PTR $T107[ebp+4]
  00920	6a 02		 push	 2
  00922	6a 7a		 push	 122			; 0000007aH
  00924	e8 00 00 00 00	 call	 ?Set@CNetworkPacketHeaderMap@@QAEXHUSPacketType@1@@Z ; CNetworkPacketHeaderMap::Set
; File D:\_m2work\Server Client TMP4\ClientVS22\source\eterLib\NetPacketHeaderMap.h

; 13   : 				isDynamicSizePacket = bFlag;

  00929	c6 45 ec 00	 mov	 BYTE PTR $T108[ebp+4], 0
; File D:\_m2work\Server Client TMP4\ClientVS22\source\UserInterface\PythonNetworkStream.cpp

; 171  : 			Set(HEADER_GC_MALL_SET, CNetworkPacketHeaderMap::TPacketType(sizeof(TPacketGCItemSet), STATIC_SIZE_PACKET));

  0092d	b9 00 00 00 00	 mov	 ecx, OFFSET ?s_packetHeaderMap@?1??CheckPacket@CPythonNetworkStream@@IAE_NPAE@Z@4VCMainPacketHeaderMap@@A
  00932	ff 75 ec	 push	 DWORD PTR $T108[ebp+4]
  00935	6a 2a		 push	 42			; 0000002aH
  00937	68 80 00 00 00	 push	 128			; 00000080H
  0093c	e8 00 00 00 00	 call	 ?Set@CNetworkPacketHeaderMap@@QAEXHUSPacketType@1@@Z ; CNetworkPacketHeaderMap::Set
; File D:\_m2work\Server Client TMP4\ClientVS22\source\eterLib\NetPacketHeaderMap.h

; 13   : 				isDynamicSizePacket = bFlag;

  00941	c6 45 ec 00	 mov	 BYTE PTR $T109[ebp+4], 0
; File D:\_m2work\Server Client TMP4\ClientVS22\source\UserInterface\PythonNetworkStream.cpp

; 172  : 			Set(HEADER_GC_MALL_DEL, CNetworkPacketHeaderMap::TPacketType(sizeof(TPacketGCItemDel), STATIC_SIZE_PACKET));

  00945	b9 00 00 00 00	 mov	 ecx, OFFSET ?s_packetHeaderMap@?1??CheckPacket@CPythonNetworkStream@@IAE_NPAE@Z@4VCMainPacketHeaderMap@@A
  0094a	ff 75 ec	 push	 DWORD PTR $T109[ebp+4]
  0094d	6a 02		 push	 2
  0094f	68 81 00 00 00	 push	 129			; 00000081H
  00954	e8 00 00 00 00	 call	 ?Set@CNetworkPacketHeaderMap@@QAEXHUSPacketType@1@@Z ; CNetworkPacketHeaderMap::Set
; File D:\_m2work\Server Client TMP4\ClientVS22\source\eterLib\NetPacketHeaderMap.h

; 13   : 				isDynamicSizePacket = bFlag;

  00959	c6 45 ec 00	 mov	 BYTE PTR $T110[ebp+4], 0
; File D:\_m2work\Server Client TMP4\ClientVS22\source\UserInterface\PythonNetworkStream.cpp

; 174  : 			Set(HEADER_GC_LOVER_INFO, CNetworkPacketHeaderMap::TPacketType(sizeof(TPacketGCLoverInfo), STATIC_SIZE_PACKET));

  0095d	b9 00 00 00 00	 mov	 ecx, OFFSET ?s_packetHeaderMap@?1??CheckPacket@CPythonNetworkStream@@IAE_NPAE@Z@4VCMainPacketHeaderMap@@A
  00962	ff 75 ec	 push	 DWORD PTR $T110[ebp+4]
  00965	6a 1b		 push	 27			; 0000001bH
  00967	68 83 00 00 00	 push	 131			; 00000083H
  0096c	e8 00 00 00 00	 call	 ?Set@CNetworkPacketHeaderMap@@QAEXHUSPacketType@1@@Z ; CNetworkPacketHeaderMap::Set
; File D:\_m2work\Server Client TMP4\ClientVS22\source\eterLib\NetPacketHeaderMap.h

; 13   : 				isDynamicSizePacket = bFlag;

  00971	c6 45 ec 00	 mov	 BYTE PTR $T111[ebp+4], 0
; File D:\_m2work\Server Client TMP4\ClientVS22\source\UserInterface\PythonNetworkStream.cpp

; 175  : 			Set(HEADER_GC_LOVE_POINT_UPDATE, CNetworkPacketHeaderMap::TPacketType(sizeof(TPacketGCLovePointUpdate), STATIC_SIZE_PACKET));

  00975	b9 00 00 00 00	 mov	 ecx, OFFSET ?s_packetHeaderMap@?1??CheckPacket@CPythonNetworkStream@@IAE_NPAE@Z@4VCMainPacketHeaderMap@@A
  0097a	ff 75 ec	 push	 DWORD PTR $T111[ebp+4]
  0097d	6a 02		 push	 2
  0097f	68 84 00 00 00	 push	 132			; 00000084H
  00984	e8 00 00 00 00	 call	 ?Set@CNetworkPacketHeaderMap@@QAEXHUSPacketType@1@@Z ; CNetworkPacketHeaderMap::Set
; File D:\_m2work\Server Client TMP4\ClientVS22\source\eterLib\NetPacketHeaderMap.h

; 13   : 				isDynamicSizePacket = bFlag;

  00989	c6 45 ec 00	 mov	 BYTE PTR $T112[ebp+4], 0
; File D:\_m2work\Server Client TMP4\ClientVS22\source\UserInterface\PythonNetworkStream.cpp

; 177  : 			Set(HEADER_GC_DIG_MOTION, CNetworkPacketHeaderMap::TPacketType(sizeof(TPacketGCDigMotion), STATIC_SIZE_PACKET));

  0098d	b9 00 00 00 00	 mov	 ecx, OFFSET ?s_packetHeaderMap@?1??CheckPacket@CPythonNetworkStream@@IAE_NPAE@Z@4VCMainPacketHeaderMap@@A
  00992	ff 75 ec	 push	 DWORD PTR $T112[ebp+4]
  00995	6a 0a		 push	 10			; 0000000aH
  00997	68 86 00 00 00	 push	 134			; 00000086H
  0099c	e8 00 00 00 00	 call	 ?Set@CNetworkPacketHeaderMap@@QAEXHUSPacketType@1@@Z ; CNetworkPacketHeaderMap::Set
; File D:\_m2work\Server Client TMP4\ClientVS22\source\eterLib\NetPacketHeaderMap.h

; 13   : 				isDynamicSizePacket = bFlag;

  009a1	c6 45 ec 00	 mov	 BYTE PTR $T113[ebp+4], 0
; File D:\_m2work\Server Client TMP4\ClientVS22\source\UserInterface\PythonNetworkStream.cpp

; 178  : 			Set(HEADER_GC_DAMAGE_INFO, CNetworkPacketHeaderMap::TPacketType(sizeof(TPacketGCDamageInfo), STATIC_SIZE_PACKET));

  009a5	b9 00 00 00 00	 mov	 ecx, OFFSET ?s_packetHeaderMap@?1??CheckPacket@CPythonNetworkStream@@IAE_NPAE@Z@4VCMainPacketHeaderMap@@A
  009aa	ff 75 ec	 push	 DWORD PTR $T113[ebp+4]
  009ad	6a 0a		 push	 10			; 0000000aH
  009af	68 87 00 00 00	 push	 135			; 00000087H
  009b4	e8 00 00 00 00	 call	 ?Set@CNetworkPacketHeaderMap@@QAEXHUSPacketType@1@@Z ; CNetworkPacketHeaderMap::Set
; File D:\_m2work\Server Client TMP4\ClientVS22\source\eterLib\NetPacketHeaderMap.h

; 13   : 				isDynamicSizePacket = bFlag;

  009b9	c6 45 ec 00	 mov	 BYTE PTR $T114[ebp+4], 0
; File D:\_m2work\Server Client TMP4\ClientVS22\source\UserInterface\PythonNetworkStream.cpp

; 180  : 			Set(HEADER_GC_HS_REQUEST, CNetworkPacketHeaderMap::TPacketType(sizeof(TPacketHSCheck), STATIC_SIZE_PACKET));

  009bd	b9 00 00 00 00	 mov	 ecx, OFFSET ?s_packetHeaderMap@?1??CheckPacket@CPythonNetworkStream@@IAE_NPAE@Z@4VCMainPacketHeaderMap@@A
  009c2	ff 75 ec	 push	 DWORD PTR $T114[ebp+4]
  009c5	68 93 01 00 00	 push	 403			; 00000193H
  009ca	68 cc 00 00 00	 push	 204			; 000000ccH
  009cf	e8 00 00 00 00	 call	 ?Set@CNetworkPacketHeaderMap@@QAEXHUSPacketType@1@@Z ; CNetworkPacketHeaderMap::Set
; File D:\_m2work\Server Client TMP4\ClientVS22\source\eterLib\NetPacketHeaderMap.h

; 13   : 				isDynamicSizePacket = bFlag;

  009d4	c6 45 ec 00	 mov	 BYTE PTR $T115[ebp+4], 0
; File D:\_m2work\Server Client TMP4\ClientVS22\source\UserInterface\PythonNetworkStream.cpp

; 181  : 			Set(HEADER_GC_XTRAP_CS1_REQUEST, CNetworkPacketHeaderMap::TPacketType(sizeof(TPacketXTrapCSVerify), STATIC_SIZE_PACKET));

  009d8	b9 00 00 00 00	 mov	 ecx, OFFSET ?s_packetHeaderMap@?1??CheckPacket@CPythonNetworkStream@@IAE_NPAE@Z@4VCMainPacketHeaderMap@@A
  009dd	ff 75 ec	 push	 DWORD PTR $T115[ebp+4]
  009e0	68 81 00 00 00	 push	 129			; 00000081H
  009e5	68 cd 00 00 00	 push	 205			; 000000cdH
  009ea	e8 00 00 00 00	 call	 ?Set@CNetworkPacketHeaderMap@@QAEXHUSPacketType@1@@Z ; CNetworkPacketHeaderMap::Set
; File D:\_m2work\Server Client TMP4\ClientVS22\source\eterLib\NetPacketHeaderMap.h

; 13   : 				isDynamicSizePacket = bFlag;

  009ef	c6 45 ec 01	 mov	 BYTE PTR $T116[ebp+4], 1
; File D:\_m2work\Server Client TMP4\ClientVS22\source\UserInterface\PythonNetworkStream.cpp

; 183  : 			Set(HEADER_GC_HYBRIDCRYPT_KEYS,	CNetworkPacketHeaderMap::TPacketType(sizeof(TPacketGCHybridCryptKeys), DYNAMIC_SIZE_PACKET));

  009f3	b9 00 00 00 00	 mov	 ecx, OFFSET ?s_packetHeaderMap@?1??CheckPacket@CPythonNetworkStream@@IAE_NPAE@Z@4VCMainPacketHeaderMap@@A
  009f8	ff 75 ec	 push	 DWORD PTR $T116[ebp+4]
  009fb	6a 0b		 push	 11			; 0000000bH
  009fd	68 98 00 00 00	 push	 152			; 00000098H
  00a02	e8 00 00 00 00	 call	 ?Set@CNetworkPacketHeaderMap@@QAEXHUSPacketType@1@@Z ; CNetworkPacketHeaderMap::Set
; File D:\_m2work\Server Client TMP4\ClientVS22\source\eterLib\NetPacketHeaderMap.h

; 13   : 				isDynamicSizePacket = bFlag;

  00a07	c6 45 ec 01	 mov	 BYTE PTR $T117[ebp+4], 1
; File D:\_m2work\Server Client TMP4\ClientVS22\source\UserInterface\PythonNetworkStream.cpp

; 184  : 			Set(HEADER_GC_HYBRIDCRYPT_SDB,	CNetworkPacketHeaderMap::TPacketType(sizeof(TPacketGCHybridSDB), DYNAMIC_SIZE_PACKET));

  00a0b	b9 00 00 00 00	 mov	 ecx, OFFSET ?s_packetHeaderMap@?1??CheckPacket@CPythonNetworkStream@@IAE_NPAE@Z@4VCMainPacketHeaderMap@@A
  00a10	ff 75 ec	 push	 DWORD PTR $T117[ebp+4]
  00a13	6a 0b		 push	 11			; 0000000bH
  00a15	68 99 00 00 00	 push	 153			; 00000099H
  00a1a	e8 00 00 00 00	 call	 ?Set@CNetworkPacketHeaderMap@@QAEXHUSPacketType@1@@Z ; CNetworkPacketHeaderMap::Set
; File D:\_m2work\Server Client TMP4\ClientVS22\source\eterLib\NetPacketHeaderMap.h

; 13   : 				isDynamicSizePacket = bFlag;

  00a1f	c6 45 ec 00	 mov	 BYTE PTR $T118[ebp+4], 0
; File D:\_m2work\Server Client TMP4\ClientVS22\source\UserInterface\PythonNetworkStream.cpp

; 185  : 			Set(HEADER_GC_SPECIFIC_EFFECT,	CNetworkPacketHeaderMap::TPacketType(sizeof(TPacketGCSpecificEffect), STATIC_SIZE_PACKET));

  00a23	b9 00 00 00 00	 mov	 ecx, OFFSET ?s_packetHeaderMap@?1??CheckPacket@CPythonNetworkStream@@IAE_NPAE@Z@4VCMainPacketHeaderMap@@A
  00a28	ff 75 ec	 push	 DWORD PTR $T118[ebp+4]
  00a2b	68 85 00 00 00	 push	 133			; 00000085H
  00a30	68 d0 00 00 00	 push	 208			; 000000d0H
  00a35	e8 00 00 00 00	 call	 ?Set@CNetworkPacketHeaderMap@@QAEXHUSPacketType@1@@Z ; CNetworkPacketHeaderMap::Set
; File D:\_m2work\Server Client TMP4\ClientVS22\source\eterLib\NetPacketHeaderMap.h

; 13   : 				isDynamicSizePacket = bFlag;

  00a3a	c6 45 ec 00	 mov	 BYTE PTR $T30[ebp+4], 0
; File D:\_m2work\Server Client TMP4\ClientVS22\source\UserInterface\PythonNetworkStream.cpp

; 186  : 			Set(HEADER_GC_DRAGON_SOUL_REFINE,		CNetworkPacketHeaderMap::TPacketType(sizeof(TPacketGCDragonSoulRefine), STATIC_SIZE_PACKET));

  00a3e	b9 00 00 00 00	 mov	 ecx, OFFSET ?s_packetHeaderMap@?1??CheckPacket@CPythonNetworkStream@@IAE_NPAE@Z@4VCMainPacketHeaderMap@@A
  00a43	ff 75 ec	 push	 DWORD PTR $T30[ebp+4]
  00a46	6a 05		 push	 5
  00a48	68 d1 00 00 00	 push	 209			; 000000d1H
  00a4d	e8 00 00 00 00	 call	 ?Set@CNetworkPacketHeaderMap@@QAEXHUSPacketType@1@@Z ; CNetworkPacketHeaderMap::Set

; 187  : 			
; 188  : 		}

  00a52	b8 00 00 00 00	 mov	 eax, OFFSET ?s_packetHeaderMap@?1??CheckPacket@CPythonNetworkStream@@IAE_NPAE@Z@4VCMainPacketHeaderMap@@A
  00a57	8b 4d f4	 mov	 ecx, DWORD PTR __$EHRec$[ebp]
  00a5a	64 89 0d 00 00
	00 00		 mov	 DWORD PTR fs:0, ecx
  00a61	59		 pop	 ecx
  00a62	8b e5		 mov	 esp, ebp
  00a64	5d		 pop	 ebp
  00a65	c3		 ret	 0
_TEXT	ENDS
;	COMDAT text$x
text$x	SEGMENT
__unwindfunclet$??0CMainPacketHeaderMap@@QAE@XZ$0:
  00000	8b 4d f0	 mov	 ecx, DWORD PTR _this$[ebp]
  00003	e9 00 00 00 00	 jmp	 ??1CNetworkPacketHeaderMap@@UAE@XZ ; CNetworkPacketHeaderMap::~CNetworkPacketHeaderMap
  00008	cc		 int	 3
  00009	cc		 int	 3
  0000a	cc		 int	 3
  0000b	cc		 int	 3
  0000c	cc		 int	 3
__ehhandler$??0CMainPacketHeaderMap@@QAE@XZ:
  0000d	90		 npad	 1
  0000e	90		 npad	 1
  0000f	8b 54 24 08	 mov	 edx, DWORD PTR [esp+8]
  00013	8d 42 0c	 lea	 eax, DWORD PTR [edx+12]
  00016	8b 4a f0	 mov	 ecx, DWORD PTR [edx-16]
  00019	33 c8		 xor	 ecx, eax
  0001b	e8 00 00 00 00	 call	 @__security_check_cookie@4
  00020	b8 00 00 00 00	 mov	 eax, OFFSET __ehfuncinfo$??0CMainPacketHeaderMap@@QAE@XZ
  00025	e9 00 00 00 00	 jmp	 ___CxxFrameHandler3
text$x	ENDS
??0CMainPacketHeaderMap@@QAE@XZ ENDP			; CMainPacketHeaderMap::CMainPacketHeaderMap
; Function compile flags: /Ogtp
;	COMDAT ??_GCMainPacketHeaderMap@@UAEPAXI@Z
_TEXT	SEGMENT
___flags$ = 8						; size = 4
??_GCMainPacketHeaderMap@@UAEPAXI@Z PROC		; CMainPacketHeaderMap::`scalar deleting destructor', COMDAT
; _this$ = ecx
  00000	55		 push	 ebp
  00001	8b ec		 mov	 ebp, esp
  00003	56		 push	 esi
  00004	8b f1		 mov	 esi, ecx
  00006	e8 00 00 00 00	 call	 ??1CNetworkPacketHeaderMap@@UAE@XZ ; CNetworkPacketHeaderMap::~CNetworkPacketHeaderMap
  0000b	f6 45 08 01	 test	 BYTE PTR ___flags$[ebp], 1
  0000f	74 0b		 je	 SHORT $LN10@scalar
  00011	6a 0c		 push	 12			; 0000000cH
  00013	56		 push	 esi
  00014	e8 00 00 00 00	 call	 ??3@YAXPAXI@Z		; operator delete
  00019	83 c4 08	 add	 esp, 8
$LN10@scalar:
  0001c	8b c6		 mov	 eax, esi
  0001e	5e		 pop	 esi
  0001f	5d		 pop	 ebp
  00020	c2 04 00	 ret	 4
??_GCMainPacketHeaderMap@@UAEPAXI@Z ENDP		; CMainPacketHeaderMap::`scalar deleting destructor'
_TEXT	ENDS
; Function compile flags: /Ogtp
;	COMDAT ??1CMainPacketHeaderMap@@UAE@XZ
_TEXT	SEGMENT
??1CMainPacketHeaderMap@@UAE@XZ PROC			; CMainPacketHeaderMap::~CMainPacketHeaderMap, COMDAT
; _this$ = ecx
  00000	e9 00 00 00 00	 jmp	 ??1CNetworkPacketHeaderMap@@UAE@XZ ; CNetworkPacketHeaderMap::~CNetworkPacketHeaderMap
??1CMainPacketHeaderMap@@UAE@XZ ENDP			; CMainPacketHeaderMap::~CMainPacketHeaderMap
_TEXT	ENDS
; Function compile flags: /Ogtp
; File D:\_m2work\Server Client TMP4\ClientVS22\source\UserInterface\PythonNetworkStream.cpp
;	COMDAT ?ExitApplication@CPythonNetworkStream@@QAEXXZ
_TEXT	SEGMENT
?ExitApplication@CPythonNetworkStream@@QAEXXZ PROC	; CPythonNetworkStream::ExitApplication, COMDAT
; _this$ = ecx

; 195  : 	if (__IsNotPing())

  00000	e8 00 00 00 00	 call	 ?__IsNotPing@CPythonNetworkStream@@IAE_NXZ ; CPythonNetworkStream::__IsNotPing
  00005	84 c0		 test	 al, al
  00007	0f 85 00 00 00
	00		 jne	 ?AbsoluteExitApplication@CPythonNetworkStream@@QAEXXZ ; CPythonNetworkStream::AbsoluteExitApplication

; 196  : 	{
; 197  : 		AbsoluteExitApplication();
; 198  : 	}
; 199  : 	else
; 200  : 	{
; 201  : 		SendChatPacket("/quit");

  0000d	6a 00		 push	 0
  0000f	68 00 00 00 00	 push	 OFFSET ??_C@_05CMMBDMDD@?1quit@
  00014	e8 00 00 00 00	 call	 ?SendChatPacket@CPythonNetworkStream@@QAE_NPBDE@Z ; CPythonNetworkStream::SendChatPacket

; 202  : 	}
; 203  : }

  00019	c3		 ret	 0
?ExitApplication@CPythonNetworkStream@@QAEXXZ ENDP	; CPythonNetworkStream::ExitApplication
_TEXT	ENDS
; Function compile flags: /Ogtp
; File D:\_m2work\Server Client TMP4\ClientVS22\source\UserInterface\PythonNetworkStream.cpp
;	COMDAT ?ExitGame@CPythonNetworkStream@@QAEXXZ
_TEXT	SEGMENT
?ExitGame@CPythonNetworkStream@@QAEXXZ PROC		; CPythonNetworkStream::ExitGame, COMDAT
; _this$ = ecx

; 207  : 	if (__IsNotPing())

  00000	e8 00 00 00 00	 call	 ?__IsNotPing@CPythonNetworkStream@@IAE_NXZ ; CPythonNetworkStream::__IsNotPing
  00005	84 c0		 test	 al, al
  00007	0f 85 00 00 00
	00		 jne	 ?LogOutGame@CPythonNetworkStream@@QAEXXZ ; CPythonNetworkStream::LogOutGame

; 208  : 	{
; 209  : 		LogOutGame();
; 210  : 	}
; 211  : 	else
; 212  : 	{
; 213  : 		SendChatPacket("/phase_select");

  0000d	6a 00		 push	 0
  0000f	68 00 00 00 00	 push	 OFFSET ??_C@_0O@ODIJHOCP@?1phase_select@
  00014	e8 00 00 00 00	 call	 ?SendChatPacket@CPythonNetworkStream@@QAE_NPBDE@Z ; CPythonNetworkStream::SendChatPacket

; 214  : 	}
; 215  : }

  00019	c3		 ret	 0
?ExitGame@CPythonNetworkStream@@QAEXXZ ENDP		; CPythonNetworkStream::ExitGame
_TEXT	ENDS
; Function compile flags: /Ogtp
; File D:\_m2work\Server Client TMP4\ClientVS22\source\UserInterface\PythonNetworkStream.cpp
;	COMDAT ?LogOutGame@CPythonNetworkStream@@QAEXXZ
_TEXT	SEGMENT
?LogOutGame@CPythonNetworkStream@@QAEXXZ PROC		; CPythonNetworkStream::LogOutGame, COMDAT
; _this$ = ecx

; 220  : 	if (__IsNotPing())

  00000	e8 00 00 00 00	 call	 ?__IsNotPing@CPythonNetworkStream@@IAE_NXZ ; CPythonNetworkStream::__IsNotPing
  00005	84 c0		 test	 al, al
  00007	0f 85 00 00 00
	00		 jne	 ?AbsoluteExitGame@CPythonNetworkStream@@QAEXXZ ; CPythonNetworkStream::AbsoluteExitGame

; 221  : 	{		
; 222  : 		AbsoluteExitGame();
; 223  : 	}	
; 224  : 	else
; 225  : 	{
; 226  : 		SendChatPacket("/logout");

  0000d	6a 00		 push	 0
  0000f	68 00 00 00 00	 push	 OFFSET ??_C@_07FOABJBDD@?1logout@
  00014	e8 00 00 00 00	 call	 ?SendChatPacket@CPythonNetworkStream@@QAE_NPBDE@Z ; CPythonNetworkStream::SendChatPacket

; 227  : 	}
; 228  : }

  00019	c3		 ret	 0
?LogOutGame@CPythonNetworkStream@@QAEXXZ ENDP		; CPythonNetworkStream::LogOutGame
_TEXT	ENDS
; Function compile flags: /Ogtp
; File D:\_m2work\Server Client TMP4\ClientVS22\source\UserInterface\PythonNetworkStream.cpp
;	COMDAT ?AbsoluteExitGame@CPythonNetworkStream@@QAEXXZ
_TEXT	SEGMENT
?AbsoluteExitGame@CPythonNetworkStream@@QAEXXZ PROC	; CPythonNetworkStream::AbsoluteExitGame, COMDAT
; _this$ = ecx

; 231  : {

  00000	56		 push	 esi
  00001	8b f1		 mov	 esi, ecx

; 232  : 	if (!IsOnline())

  00003	e8 00 00 00 00	 call	 ?IsOnline@CNetworkStream@@QAE_NXZ ; CNetworkStream::IsOnline
  00008	84 c0		 test	 al, al
  0000a	74 0f		 je	 SHORT $LN1@AbsoluteEx

; 233  : 		return;
; 234  : 
; 235  : 	OnRemoteDisconnect();		

  0000c	8b 06		 mov	 eax, DWORD PTR [esi]
  0000e	8b ce		 mov	 ecx, esi
  00010	ff 50 0c	 call	 DWORD PTR [eax+12]

; 236  : 	Disconnect();

  00013	8b ce		 mov	 ecx, esi
  00015	5e		 pop	 esi
  00016	e9 00 00 00 00	 jmp	 ?Disconnect@CNetworkStream@@QAEXXZ ; CNetworkStream::Disconnect
$LN1@AbsoluteEx:
  0001b	5e		 pop	 esi

; 237  : }

  0001c	c3		 ret	 0
?AbsoluteExitGame@CPythonNetworkStream@@QAEXXZ ENDP	; CPythonNetworkStream::AbsoluteExitGame
_TEXT	ENDS
; Function compile flags: /Ogtp
; File D:\_m2work\Server Client TMP4\ClientVS22\source\UserInterface\PythonNetworkStream.cpp
;	COMDAT ?AbsoluteExitApplication@CPythonNetworkStream@@QAEXXZ
_TEXT	SEGMENT
?AbsoluteExitApplication@CPythonNetworkStream@@QAEXXZ PROC ; CPythonNetworkStream::AbsoluteExitApplication, COMDAT
; _this$dead$ = ecx

; 241  : 	PostQuitMessage(0);

  00000	6a 00		 push	 0
  00002	ff 15 00 00 00
	00		 call	 DWORD PTR __imp__PostQuitMessage@4

; 242  : }

  00008	c3		 ret	 0
?AbsoluteExitApplication@CPythonNetworkStream@@QAEXXZ ENDP ; CPythonNetworkStream::AbsoluteExitApplication
_TEXT	ENDS
; Function compile flags: /Ogtp
; File D:\_m2work\Server Client TMP4\ClientVS22\source\UserInterface\PythonNetworkStream.cpp
;	COMDAT ?__IsNotPing@CPythonNetworkStream@@IAE_NXZ
_TEXT	SEGMENT
?__IsNotPing@CPythonNetworkStream@@IAE_NXZ PROC		; CPythonNetworkStream::__IsNotPing, COMDAT
; _this$dead$ = ecx

; 246  : 	//        .
; 247  : 	return false;

  00000	32 c0		 xor	 al, al

; 248  : }

  00002	c3		 ret	 0
?__IsNotPing@CPythonNetworkStream@@IAE_NXZ ENDP		; CPythonNetworkStream::__IsNotPing
_TEXT	ENDS
; Function compile flags: /Ogtp
; File D:\_m2work\Server Client TMP4\ClientVS22\source\UserInterface\PythonNetworkStream.cpp
;	COMDAT ?GetGuildID@CPythonNetworkStream@@QAEKXZ
_TEXT	SEGMENT
?GetGuildID@CPythonNetworkStream@@QAEKXZ PROC		; CPythonNetworkStream::GetGuildID, COMDAT
; _this$ = ecx

; 252  : 	return m_dwGuildID;

  00000	8b 81 b0 00 00
	00		 mov	 eax, DWORD PTR [ecx+176]

; 253  : }

  00006	c3		 ret	 0
?GetGuildID@CPythonNetworkStream@@QAEKXZ ENDP		; CPythonNetworkStream::GetGuildID
_TEXT	ENDS
; Function compile flags: /Ogtp
; File D:\_m2work\Server Client TMP4\ClientVS22\source\UserInterface\PythonNetworkStream.cpp
;	COMDAT ?UploadMark@CPythonNetworkStream@@QAEIPBD@Z
_TEXT	SEGMENT
_uError$ = -4						; size = 4
_c_szImageFileName$ = 8					; size = 4
?UploadMark@CPythonNetworkStream@@QAEIPBD@Z PROC	; CPythonNetworkStream::UploadMark, COMDAT
; _this$ = ecx

; 256  : {

  00000	55		 push	 ebp
  00001	8b ec		 mov	 ebp, esp
  00003	51		 push	 ecx
  00004	56		 push	 esi
  00005	8b f1		 mov	 esi, ecx

; 257  : 	// MARK_BUG_FIX
; 258  : 	//      0.
; 259  : 	if (0 == m_dwGuildID)

  00007	8b 86 b0 00 00
	00		 mov	 eax, DWORD PTR [esi+176]
  0000d	85 c0		 test	 eax, eax
  0000f	75 0c		 jne	 SHORT $LN4@UploadMark

; 260  : 		return ERROR_MARK_UPLOAD_NEED_RECONNECT;

  00011	b8 06 00 00 00	 mov	 eax, 6
  00016	5e		 pop	 esi

; 294  : 
; 295  : 	return ERROR_NONE;
; 296  : }

  00017	8b e5		 mov	 esp, ebp
  00019	5d		 pop	 ebp
  0001a	c2 04 00	 ret	 4
$LN4@UploadMark:

; 261  : 
; 262  : 	gs_nextDownloadMarkTime = 0;
; 263  : 	// END_OF_MARK_BUG_FIX
; 264  : 
; 265  : 	UINT uError=ERROR_UNKNOWN;
; 266  : 	CGuildMarkUploader& rkGuildMarkUploader=CGuildMarkUploader::Instance();
; 267  : 	if (!rkGuildMarkUploader.Connect(m_kMarkAuth.m_kNetAddr, m_kMarkAuth.m_dwHandle, m_kMarkAuth.m_dwRandomKey, m_dwGuildID, c_szImageFileName, &uError))

  0001d	8d 4d fc	 lea	 ecx, DWORD PTR _uError$[ebp]
  00020	c7 05 00 00 00
	00 00 00 00 00	 mov	 DWORD PTR ?gs_nextDownloadMarkTime@@3KA, 0
  0002a	51		 push	 ecx
  0002b	ff 75 08	 push	 DWORD PTR _c_szImageFileName$[ebp]
  0002e	8b 0d 00 00 00
	00		 mov	 ecx, DWORD PTR ?ms_singleton@?$CSingleton@VCGuildMarkUploader@@@@0PAVCGuildMarkUploader@@A ; CSingleton<CGuildMarkUploader>::ms_singleton
  00034	50		 push	 eax
  00035	ff b6 0c 79 00
	00		 push	 DWORD PTR [esi+30988]
  0003b	8d 86 f8 78 00
	00		 lea	 eax, DWORD PTR [esi+30968]
  00041	c7 45 fc 01 00
	00 00		 mov	 DWORD PTR _uError$[ebp], 1
  00048	ff b6 08 79 00
	00		 push	 DWORD PTR [esi+30984]
  0004e	50		 push	 eax
  0004f	e8 00 00 00 00	 call	 ?Connect@CGuildMarkUploader@@QAE_NABVCNetworkAddress@@KKKPBDPAI@Z ; CGuildMarkUploader::Connect
  00054	84 c0		 test	 al, al
  00056	75 4c		 jne	 SHORT $LN2@UploadMark

; 268  : 	{
; 269  : 		switch (uError)

  00058	8b 45 fc	 mov	 eax, DWORD PTR _uError$[ebp]
  0005b	48		 dec	 eax
  0005c	83 f8 03	 cmp	 eax, 3
  0005f	77 37		 ja	 SHORT $LN10@UploadMark
  00061	ff 24 85 00 00
	00 00		 jmp	 DWORD PTR $LN13@UploadMark[eax*4]
$LN6@UploadMark:

; 270  : 		{
; 271  : 			case CGuildMarkUploader::ERROR_CONNECT:
; 272  : 				return ERROR_CONNECT_MARK_SERVER;

  00068	b8 02 00 00 00	 mov	 eax, 2
  0006d	5e		 pop	 esi

; 294  : 
; 295  : 	return ERROR_NONE;
; 296  : }

  0006e	8b e5		 mov	 esp, ebp
  00070	5d		 pop	 ebp
  00071	c2 04 00	 ret	 4
$LN7@UploadMark:

; 273  : 				break;
; 274  : 			case CGuildMarkUploader::ERROR_LOAD:
; 275  : 				return ERROR_LOAD_MARK;

  00074	b8 03 00 00 00	 mov	 eax, 3
  00079	5e		 pop	 esi

; 294  : 
; 295  : 	return ERROR_NONE;
; 296  : }

  0007a	8b e5		 mov	 esp, ebp
  0007c	5d		 pop	 ebp
  0007d	c2 04 00	 ret	 4
$LN8@UploadMark:

; 276  : 				break;
; 277  : 			case CGuildMarkUploader::ERROR_WIDTH:
; 278  : 				return ERROR_MARK_WIDTH;

  00080	b8 04 00 00 00	 mov	 eax, 4
  00085	5e		 pop	 esi

; 294  : 
; 295  : 	return ERROR_NONE;
; 296  : }

  00086	8b e5		 mov	 esp, ebp
  00088	5d		 pop	 ebp
  00089	c2 04 00	 ret	 4
$LN9@UploadMark:

; 279  : 				break;
; 280  : 			case CGuildMarkUploader::ERROR_HEIGHT:
; 281  : 				return ERROR_MARK_HEIGHT;

  0008c	b8 05 00 00 00	 mov	 eax, 5
  00091	5e		 pop	 esi

; 294  : 
; 295  : 	return ERROR_NONE;
; 296  : }

  00092	8b e5		 mov	 esp, ebp
  00094	5d		 pop	 ebp
  00095	c2 04 00	 ret	 4
$LN10@UploadMark:

; 282  : 				break;
; 283  : 			default:
; 284  : 				return ERROR_UNKNOWN;

  00098	b8 01 00 00 00	 mov	 eax, 1
  0009d	5e		 pop	 esi

; 294  : 
; 295  : 	return ERROR_NONE;
; 296  : }

  0009e	8b e5		 mov	 esp, ebp
  000a0	5d		 pop	 ebp
  000a1	c2 04 00	 ret	 4
$LN2@UploadMark:

; 285  : 		}
; 286  : 	}
; 287  : 
; 288  : 	// MARK_BUG_FIX	
; 289  : 	__DownloadMark();

  000a4	8b ce		 mov	 ecx, esi
  000a6	e8 00 00 00 00	 call	 ?__DownloadMark@CPythonNetworkStream@@IAEXXZ ; CPythonNetworkStream::__DownloadMark

; 290  : 	// END_OF_MARK_BUG_FIX
; 291  : 	
; 292  : 	if (CGuildMarkManager::INVALID_MARK_ID == CGuildMarkManager::Instance().GetMarkID(m_dwGuildID))

  000ab	ff b6 b0 00 00
	00		 push	 DWORD PTR [esi+176]
  000b1	8b 0d 00 00 00
	00		 mov	 ecx, DWORD PTR ?ms_singleton@?$singleton@VCGuildMarkManager@@@@0PAVCGuildMarkManager@@A ; singleton<CGuildMarkManager>::ms_singleton
  000b7	e8 00 00 00 00	 call	 ?GetMarkID@CGuildMarkManager@@QAEKK@Z ; CGuildMarkManager::GetMarkID
  000bc	33 c9		 xor	 ecx, ecx
  000be	ba 07 00 00 00	 mov	 edx, 7
  000c3	83 f8 ff	 cmp	 eax, -1
  000c6	5e		 pop	 esi
  000c7	0f 44 ca	 cmove	 ecx, edx

; 293  : 		return ERROR_MARK_CHECK_NEED_RECONNECT;

  000ca	8b c1		 mov	 eax, ecx

; 294  : 
; 295  : 	return ERROR_NONE;
; 296  : }

  000cc	8b e5		 mov	 esp, ebp
  000ce	5d		 pop	 ebp
  000cf	c2 04 00	 ret	 4
  000d2	66 90		 npad	 2
$LN13@UploadMark:
  000d4	00 00 00 00	 DD	 $LN6@UploadMark
  000d8	00 00 00 00	 DD	 $LN7@UploadMark
  000dc	00 00 00 00	 DD	 $LN8@UploadMark
  000e0	00 00 00 00	 DD	 $LN9@UploadMark
?UploadMark@CPythonNetworkStream@@QAEIPBD@Z ENDP	; CPythonNetworkStream::UploadMark
_TEXT	ENDS
; Function compile flags: /Ogtp
; File D:\_m2work\Server Client TMP4\ClientVS22\source\UserInterface\PythonNetworkStream.cpp
;	COMDAT ?UploadSymbol@CPythonNetworkStream@@QAEIPBD@Z
_TEXT	SEGMENT
_uError$ = -4						; size = 4
_c_szImageFileName$ = 8					; size = 4
?UploadSymbol@CPythonNetworkStream@@QAEIPBD@Z PROC	; CPythonNetworkStream::UploadSymbol, COMDAT
; _this$ = ecx

; 299  : {

  00000	55		 push	 ebp
  00001	8b ec		 mov	 ebp, esp
  00003	51		 push	 ecx

; 300  : 	UINT uError=ERROR_UNKNOWN;
; 301  : 	CGuildMarkUploader& rkGuildMarkUploader=CGuildMarkUploader::Instance();
; 302  : 	if (!rkGuildMarkUploader.ConnectToSendSymbol(m_kMarkAuth.m_kNetAddr, m_kMarkAuth.m_dwHandle, m_kMarkAuth.m_dwRandomKey, m_dwGuildID, c_szImageFileName, &uError))

  00004	8d 45 fc	 lea	 eax, DWORD PTR _uError$[ebp]
  00007	c7 45 fc 01 00
	00 00		 mov	 DWORD PTR _uError$[ebp], 1
  0000e	50		 push	 eax
  0000f	ff 75 08	 push	 DWORD PTR _c_szImageFileName$[ebp]
  00012	8d 81 f8 78 00
	00		 lea	 eax, DWORD PTR [ecx+30968]
  00018	ff b1 b0 00 00
	00		 push	 DWORD PTR [ecx+176]
  0001e	ff b1 0c 79 00
	00		 push	 DWORD PTR [ecx+30988]
  00024	ff b1 08 79 00
	00		 push	 DWORD PTR [ecx+30984]
  0002a	8b 0d 00 00 00
	00		 mov	 ecx, DWORD PTR ?ms_singleton@?$CSingleton@VCGuildMarkUploader@@@@0PAVCGuildMarkUploader@@A ; CSingleton<CGuildMarkUploader>::ms_singleton
  00030	50		 push	 eax
  00031	e8 00 00 00 00	 call	 ?ConnectToSendSymbol@CGuildMarkUploader@@QAE_NABVCNetworkAddress@@KKKPBDPAI@Z ; CGuildMarkUploader::ConnectToSendSymbol
  00036	84 c0		 test	 al, al
  00038	75 47		 jne	 SHORT $LN2@UploadSymb

; 303  : 	{
; 304  : 		switch (uError)

  0003a	8b 45 fc	 mov	 eax, DWORD PTR _uError$[ebp]
  0003d	48		 dec	 eax
  0003e	83 f8 03	 cmp	 eax, 3
  00041	77 33		 ja	 SHORT $LN9@UploadSymb
  00043	ff 24 85 00 00
	00 00		 jmp	 DWORD PTR $LN11@UploadSymb[eax*4]
$LN5@UploadSymb:

; 305  : 		{
; 306  : 			case CGuildMarkUploader::ERROR_CONNECT:
; 307  : 				return ERROR_CONNECT_MARK_SERVER;

  0004a	b8 02 00 00 00	 mov	 eax, 2

; 324  : }

  0004f	8b e5		 mov	 esp, ebp
  00051	5d		 pop	 ebp
  00052	c2 04 00	 ret	 4
$LN6@UploadSymb:

; 308  : 				break;
; 309  : 			case CGuildMarkUploader::ERROR_LOAD:
; 310  : 				return ERROR_LOAD_MARK;

  00055	b8 03 00 00 00	 mov	 eax, 3

; 324  : }

  0005a	8b e5		 mov	 esp, ebp
  0005c	5d		 pop	 ebp
  0005d	c2 04 00	 ret	 4
$LN7@UploadSymb:

; 311  : 				break;
; 312  : 			case CGuildMarkUploader::ERROR_WIDTH:
; 313  : 				return ERROR_MARK_WIDTH;

  00060	b8 04 00 00 00	 mov	 eax, 4

; 324  : }

  00065	8b e5		 mov	 esp, ebp
  00067	5d		 pop	 ebp
  00068	c2 04 00	 ret	 4
$LN8@UploadSymb:

; 314  : 				break;
; 315  : 			case CGuildMarkUploader::ERROR_HEIGHT:
; 316  : 				return ERROR_MARK_HEIGHT;

  0006b	b8 05 00 00 00	 mov	 eax, 5

; 324  : }

  00070	8b e5		 mov	 esp, ebp
  00072	5d		 pop	 ebp
  00073	c2 04 00	 ret	 4
$LN9@UploadSymb:

; 317  : 				break;
; 318  : 			default:
; 319  : 				return ERROR_UNKNOWN;

  00076	b8 01 00 00 00	 mov	 eax, 1

; 324  : }

  0007b	8b e5		 mov	 esp, ebp
  0007d	5d		 pop	 ebp
  0007e	c2 04 00	 ret	 4
$LN2@UploadSymb:

; 320  : 		}
; 321  : 	}
; 322  : 
; 323  : 	return ERROR_NONE;

  00081	33 c0		 xor	 eax, eax

; 324  : }

  00083	8b e5		 mov	 esp, ebp
  00085	5d		 pop	 ebp
  00086	c2 04 00	 ret	 4
  00089	0f 1f 00	 npad	 3
$LN11@UploadSymb:
  0008c	00 00 00 00	 DD	 $LN5@UploadSymb
  00090	00 00 00 00	 DD	 $LN6@UploadSymb
  00094	00 00 00 00	 DD	 $LN7@UploadSymb
  00098	00 00 00 00	 DD	 $LN8@UploadSymb
?UploadSymbol@CPythonNetworkStream@@QAEIPBD@Z ENDP	; CPythonNetworkStream::UploadSymbol
_TEXT	ENDS
; Function compile flags: /Ogtp
; File D:\_m2work\Server Client TMP4\ClientVS22\source\UserInterface\PythonNetworkStream.cpp
;	COMDAT ?__DownloadMark@CPythonNetworkStream@@IAEXXZ
_TEXT	SEGMENT
?__DownloadMark@CPythonNetworkStream@@IAEXXZ PROC	; CPythonNetworkStream::__DownloadMark, COMDAT
; _this$ = ecx

; 327  : {

  00000	56		 push	 esi
  00001	8b f1		 mov	 esi, ecx

; 328  : 	// 3    .
; 329  : 	DWORD curTime = ELTimer_GetMSec();

  00003	e8 00 00 00 00	 call	 ?ELTimer_GetMSec@@YAKXZ	; ELTimer_GetMSec

; 330  : 
; 331  : 	if (curTime < gs_nextDownloadMarkTime)

  00008	3b 05 00 00 00
	00		 cmp	 eax, DWORD PTR ?gs_nextDownloadMarkTime@@3KA
  0000e	72 28		 jb	 SHORT $LN1@DownloadMa

; 332  : 		return;
; 333  : 
; 334  : 	gs_nextDownloadMarkTime = curTime + 60000 * 3; // 3
; 335  : 
; 336  : 	CGuildMarkDownloader& rkGuildMarkDownloader = CGuildMarkDownloader::Instance();
; 337  : 	rkGuildMarkDownloader.Connect(m_kMarkAuth.m_kNetAddr, m_kMarkAuth.m_dwHandle, m_kMarkAuth.m_dwRandomKey);

  00010	ff b6 0c 79 00
	00		 push	 DWORD PTR [esi+30988]
  00016	8b 0d 00 00 00
	00		 mov	 ecx, DWORD PTR ?ms_singleton@?$CSingleton@VCGuildMarkDownloader@@@@0PAVCGuildMarkDownloader@@A ; CSingleton<CGuildMarkDownloader>::ms_singleton
  0001c	05 20 bf 02 00	 add	 eax, 180000		; 0002bf20H
  00021	ff b6 08 79 00
	00		 push	 DWORD PTR [esi+30984]
  00027	a3 00 00 00 00	 mov	 DWORD PTR ?gs_nextDownloadMarkTime@@3KA, eax
  0002c	8d 86 f8 78 00
	00		 lea	 eax, DWORD PTR [esi+30968]
  00032	50		 push	 eax
  00033	e8 00 00 00 00	 call	 ?Connect@CGuildMarkDownloader@@QAE_NABVCNetworkAddress@@KK@Z ; CGuildMarkDownloader::Connect
$LN1@DownloadMa:

; 338  : }

  00038	5e		 pop	 esi
  00039	c3		 ret	 0
?__DownloadMark@CPythonNetworkStream@@IAEXXZ ENDP	; CPythonNetworkStream::__DownloadMark
_TEXT	ENDS
; Function compile flags: /Ogtp
; File D:\_m2work\Server Client TMP4\ClientVS22\source\UserInterface\PythonNetworkStream.cpp
;	COMDAT ?__DownloadSymbol@CPythonNetworkStream@@IAEXABV?$vector@KV?$allocator@K@std@@@std@@@Z
_TEXT	SEGMENT
_c_rkVec_dwGuildID$ = 8					; size = 4
?__DownloadSymbol@CPythonNetworkStream@@IAEXABV?$vector@KV?$allocator@K@std@@@std@@@Z PROC ; CPythonNetworkStream::__DownloadSymbol, COMDAT
; _this$ = ecx

; 341  : {

  00000	55		 push	 ebp
  00001	8b ec		 mov	 ebp, esp

; 342  : 	CGuildMarkDownloader& rkGuildMarkDownloader=CGuildMarkDownloader::Instance();
; 343  : 	rkGuildMarkDownloader.ConnectToRecvSymbol(m_kMarkAuth.m_kNetAddr, m_kMarkAuth.m_dwHandle, m_kMarkAuth.m_dwRandomKey, c_rkVec_dwGuildID);

  00003	ff 75 08	 push	 DWORD PTR _c_rkVec_dwGuildID$[ebp]
  00006	8d 81 f8 78 00
	00		 lea	 eax, DWORD PTR [ecx+30968]
  0000c	ff b1 0c 79 00
	00		 push	 DWORD PTR [ecx+30988]
  00012	ff b1 08 79 00
	00		 push	 DWORD PTR [ecx+30984]
  00018	8b 0d 00 00 00
	00		 mov	 ecx, DWORD PTR ?ms_singleton@?$CSingleton@VCGuildMarkDownloader@@@@0PAVCGuildMarkDownloader@@A ; CSingleton<CGuildMarkDownloader>::ms_singleton
  0001e	50		 push	 eax
  0001f	e8 00 00 00 00	 call	 ?ConnectToRecvSymbol@CGuildMarkDownloader@@QAE_NABVCNetworkAddress@@KKABV?$vector@KV?$allocator@K@std@@@std@@@Z ; CGuildMarkDownloader::ConnectToRecvSymbol

; 344  : }

  00024	5d		 pop	 ebp
  00025	c2 04 00	 ret	 4
?__DownloadSymbol@CPythonNetworkStream@@IAEXABV?$vector@KV?$allocator@K@std@@@std@@@Z ENDP ; CPythonNetworkStream::__DownloadSymbol
_TEXT	ENDS
; Function compile flags: /Ogtp
; File D:\_m2work\Server Client TMP4\ClientVS22\source\UserInterface\PythonNetworkStream.cpp
;	COMDAT ?SetPhaseWindow@CPythonNetworkStream@@QAEXIPAU_object@@@Z
_TEXT	SEGMENT
_ePhaseWnd$ = 8						; size = 4
_poPhaseWnd$ = 12					; size = 4
?SetPhaseWindow@CPythonNetworkStream@@QAEXIPAU_object@@@Z PROC ; CPythonNetworkStream::SetPhaseWindow, COMDAT
; _this$ = ecx

; 347  : {

  00000	55		 push	 ebp
  00001	8b ec		 mov	 ebp, esp

; 348  : 	if (ePhaseWnd>=PHASE_WINDOW_NUM)

  00003	8b 55 08	 mov	 edx, DWORD PTR _ePhaseWnd$[ebp]
  00006	83 fa 07	 cmp	 edx, 7
  00009	73 0a		 jae	 SHORT $LN1@SetPhaseWi

; 349  : 		return;
; 350  : 
; 351  : 	m_apoPhaseWnd[ePhaseWnd]=poPhaseWnd;

  0000b	8b 45 0c	 mov	 eax, DWORD PTR _poPhaseWnd$[ebp]
  0000e	89 84 91 7c 01
	00 00		 mov	 DWORD PTR [ecx+edx*4+380], eax
$LN1@SetPhaseWi:

; 352  : }

  00015	5d		 pop	 ebp
  00016	c2 08 00	 ret	 8
?SetPhaseWindow@CPythonNetworkStream@@QAEXIPAU_object@@@Z ENDP ; CPythonNetworkStream::SetPhaseWindow
_TEXT	ENDS
; Function compile flags: /Ogtp
; File D:\_m2work\Server Client TMP4\ClientVS22\source\UserInterface\PythonNetworkStream.cpp
;	COMDAT ?ClearPhaseWindow@CPythonNetworkStream@@QAEXIPAU_object@@@Z
_TEXT	SEGMENT
_ePhaseWnd$ = 8						; size = 4
_poPhaseWnd$ = 12					; size = 4
?ClearPhaseWindow@CPythonNetworkStream@@QAEXIPAU_object@@@Z PROC ; CPythonNetworkStream::ClearPhaseWindow, COMDAT
; _this$ = ecx

; 355  : {

  00000	55		 push	 ebp
  00001	8b ec		 mov	 ebp, esp

; 356  : 	if (ePhaseWnd>=PHASE_WINDOW_NUM)

  00003	8b 45 08	 mov	 eax, DWORD PTR _ePhaseWnd$[ebp]
  00006	83 f8 07	 cmp	 eax, 7
  00009	73 18		 jae	 SHORT $LN1@ClearPhase

; 357  : 		return;
; 358  : 
; 359  : 	if (poPhaseWnd != m_apoPhaseWnd[ePhaseWnd])

  0000b	8d 0c 81	 lea	 ecx, DWORD PTR [ecx+eax*4]
  0000e	8b 45 0c	 mov	 eax, DWORD PTR _poPhaseWnd$[ebp]
  00011	3b 81 7c 01 00
	00		 cmp	 eax, DWORD PTR [ecx+380]
  00017	75 0a		 jne	 SHORT $LN1@ClearPhase

; 360  : 		return;
; 361  : 
; 362  : 	m_apoPhaseWnd[ePhaseWnd]=0;

  00019	c7 81 7c 01 00
	00 00 00 00 00	 mov	 DWORD PTR [ecx+380], 0
$LN1@ClearPhase:

; 363  : }

  00023	5d		 pop	 ebp
  00024	c2 08 00	 ret	 8
?ClearPhaseWindow@CPythonNetworkStream@@QAEXIPAU_object@@@Z ENDP ; CPythonNetworkStream::ClearPhaseWindow
_TEXT	ENDS
; Function compile flags: /Ogtp
; File D:\_m2work\Server Client TMP4\ClientVS22\source\UserInterface\PythonNetworkStream.cpp
;	COMDAT ?SetServerCommandParserWindow@CPythonNetworkStream@@QAEXPAU_object@@@Z
_TEXT	SEGMENT
_poWnd$ = 8						; size = 4
?SetServerCommandParserWindow@CPythonNetworkStream@@QAEXPAU_object@@@Z PROC ; CPythonNetworkStream::SetServerCommandParserWindow, COMDAT
; _this$ = ecx

; 366  : {

  00000	55		 push	 ebp
  00001	8b ec		 mov	 ebp, esp

; 367  : 	m_poSerCommandParserWnd = poWnd;

  00003	8b 45 08	 mov	 eax, DWORD PTR _poWnd$[ebp]
  00006	89 81 98 01 00
	00		 mov	 DWORD PTR [ecx+408], eax

; 368  : }

  0000c	5d		 pop	 ebp
  0000d	c2 04 00	 ret	 4
?SetServerCommandParserWindow@CPythonNetworkStream@@QAEXPAU_object@@@Z ENDP ; CPythonNetworkStream::SetServerCommandParserWindow
_TEXT	ENDS
; Function compile flags: /Ogtp
; File D:\_m2work\Server Client TMP4\ClientVS22\source\UserInterface\PythonNetworkStream.cpp
;	COMDAT ?IsSelectedEmpire@CPythonNetworkStream@@QAE_NXZ
_TEXT	SEGMENT
?IsSelectedEmpire@CPythonNetworkStream@@QAE_NXZ PROC	; CPythonNetworkStream::IsSelectedEmpire, COMDAT
; _this$ = ecx

; 372  : 	if (m_dwEmpireID)

  00000	83 b9 b4 00 00
	00 00		 cmp	 DWORD PTR [ecx+180], 0
  00007	0f 95 c0	 setne	 al

; 373  : 		return true;
; 374  : 	
; 375  : 	return false;
; 376  : }

  0000a	c3		 ret	 0
?IsSelectedEmpire@CPythonNetworkStream@@QAE_NXZ ENDP	; CPythonNetworkStream::IsSelectedEmpire
_TEXT	ENDS
; Function compile flags: /Ogtp
; File D:\_m2work\Server Client TMP4\ClientVS22\source\UserInterface\PythonNetworkStream.cpp
;	COMDAT ?GetAccountCharacterSlotDatau@CPythonNetworkStream@@QAEIII@Z
_TEXT	SEGMENT
_iSlot$ = 8						; size = 4
_eType$ = 12						; size = 4
?GetAccountCharacterSlotDatau@CPythonNetworkStream@@QAEIII@Z PROC ; CPythonNetworkStream::GetAccountCharacterSlotDatau, COMDAT
; _this$ = ecx

; 379  : {

  00000	55		 push	 ebp
  00001	8b ec		 mov	 ebp, esp

; 380  : 	if (iSlot >= PLAYER_PER_ACCOUNT4)

  00003	8b 55 08	 mov	 edx, DWORD PTR _iSlot$[ebp]
  00006	56		 push	 esi
  00007	83 fa 04	 cmp	 edx, 4
  0000a	0f 83 92 00 00
	00		 jae	 $LN2@GetAccount

; 381  : 		return 0;
; 382  : 		
; 383  : 	TSimplePlayerInformation&	rkSimplePlayerInfo=m_akSimplePlayerInfo[iSlot];
; 384  : 	
; 385  : 	switch (eType)

  00010	8b 75 0c	 mov	 esi, DWORD PTR _eType$[ebp]
  00013	8b c2		 mov	 eax, edx
  00015	c1 e0 06	 shl	 eax, 6
  00018	2b c2		 sub	 eax, edx
  0001a	05 9c 01 00 00	 add	 eax, 412		; 0000019cH
  0001f	03 c1		 add	 eax, ecx
  00021	83 fe 0f	 cmp	 esi, 15			; 0000000fH
  00024	77 7c		 ja	 SHORT $LN2@GetAccount
  00026	ff 24 b5 00 00
	00 00		 jmp	 DWORD PTR $LN20@GetAccount[esi*4]
$LN5@GetAccount:

; 386  : 	{
; 387  : 		case ACCOUNT_CHARACTER_SLOT_ID:
; 388  : 			return rkSimplePlayerInfo.dwID;

  0002d	8b 00		 mov	 eax, DWORD PTR [eax]
  0002f	5e		 pop	 esi

; 419  : }

  00030	5d		 pop	 ebp
  00031	c2 08 00	 ret	 8
$LN6@GetAccount:

; 389  : 		case ACCOUNT_CHARACTER_SLOT_RACE:
; 390  : 			return rkSimplePlayerInfo.byJob;

  00034	0f b6 40 1d	 movzx	 eax, BYTE PTR [eax+29]
  00038	5e		 pop	 esi

; 419  : }

  00039	5d		 pop	 ebp
  0003a	c2 08 00	 ret	 8
$LN7@GetAccount:

; 391  : 		case ACCOUNT_CHARACTER_SLOT_LEVEL:
; 392  : 			return rkSimplePlayerInfo.byLevel;

  0003d	0f b6 40 1e	 movzx	 eax, BYTE PTR [eax+30]
  00041	5e		 pop	 esi

; 419  : }

  00042	5d		 pop	 ebp
  00043	c2 08 00	 ret	 8
$LN8@GetAccount:

; 393  : 		case ACCOUNT_CHARACTER_SLOT_STR:
; 394  : 			return rkSimplePlayerInfo.byST;

  00046	0f b6 40 23	 movzx	 eax, BYTE PTR [eax+35]
  0004a	5e		 pop	 esi

; 419  : }

  0004b	5d		 pop	 ebp
  0004c	c2 08 00	 ret	 8
$LN9@GetAccount:

; 395  : 		case ACCOUNT_CHARACTER_SLOT_DEX:
; 396  : 			return rkSimplePlayerInfo.byDX;

  0004f	0f b6 40 25	 movzx	 eax, BYTE PTR [eax+37]
  00053	5e		 pop	 esi

; 419  : }

  00054	5d		 pop	 ebp
  00055	c2 08 00	 ret	 8
$LN10@GetAccount:

; 397  : 		case ACCOUNT_CHARACTER_SLOT_HTH:
; 398  : 			return rkSimplePlayerInfo.byHT;

  00058	0f b6 40 24	 movzx	 eax, BYTE PTR [eax+36]
  0005c	5e		 pop	 esi

; 419  : }

  0005d	5d		 pop	 ebp
  0005e	c2 08 00	 ret	 8
$LN11@GetAccount:

; 399  : 		case ACCOUNT_CHARACTER_SLOT_INT:			
; 400  : 			return rkSimplePlayerInfo.byIQ;

  00061	0f b6 40 26	 movzx	 eax, BYTE PTR [eax+38]
  00065	5e		 pop	 esi

; 419  : }

  00066	5d		 pop	 ebp
  00067	c2 08 00	 ret	 8
$LN12@GetAccount:

; 401  : 		case ACCOUNT_CHARACTER_SLOT_PLAYTIME:
; 402  : 			return rkSimplePlayerInfo.dwPlayMinutes;

  0006a	8b 40 1f	 mov	 eax, DWORD PTR [eax+31]
  0006d	5e		 pop	 esi

; 419  : }

  0006e	5d		 pop	 ebp
  0006f	c2 08 00	 ret	 8
$LN13@GetAccount:

; 403  : 		case ACCOUNT_CHARACTER_SLOT_FORM:
; 404  : //			return rkSimplePlayerInfo.wParts[CRaceData::PART_MAIN];
; 405  : 			return rkSimplePlayerInfo.wMainPart;

  00072	0f b7 40 27	 movzx	 eax, WORD PTR [eax+39]
  00076	5e		 pop	 esi

; 419  : }

  00077	5d		 pop	 ebp
  00078	c2 08 00	 ret	 8
$LN14@GetAccount:

; 406  : 		case ACCOUNT_CHARACTER_SLOT_PORT:
; 407  : 			return rkSimplePlayerInfo.wPort;

  0007b	0f b7 40 3c	 movzx	 eax, WORD PTR [eax+60]
  0007f	5e		 pop	 esi

; 419  : }

  00080	5d		 pop	 ebp
  00081	c2 08 00	 ret	 8
$LN15@GetAccount:

; 408  : 		case ACCOUNT_CHARACTER_SLOT_GUILD_ID:
; 409  : 			return m_adwGuildID[iSlot];

  00084	8b 84 91 98 02
	00 00		 mov	 eax, DWORD PTR [ecx+edx*4+664]
  0008b	5e		 pop	 esi

; 419  : }

  0008c	5d		 pop	 ebp
  0008d	c2 08 00	 ret	 8
$LN16@GetAccount:

; 410  : 			break;
; 411  : 		case ACCOUNT_CHARACTER_SLOT_CHANGE_NAME_FLAG:
; 412  : 			return rkSimplePlayerInfo.bChangeName;

  00090	0f b6 40 29	 movzx	 eax, BYTE PTR [eax+41]
  00094	5e		 pop	 esi

; 419  : }

  00095	5d		 pop	 ebp
  00096	c2 08 00	 ret	 8
$LN17@GetAccount:

; 413  : 			break;
; 414  : 		case ACCOUNT_CHARACTER_SLOT_HAIR:
; 415  : 			return rkSimplePlayerInfo.wHairPart;

  00099	0f b7 40 2a	 movzx	 eax, WORD PTR [eax+42]
  0009d	5e		 pop	 esi

; 419  : }

  0009e	5d		 pop	 ebp
  0009f	c2 08 00	 ret	 8
$LN2@GetAccount:

; 416  : 			break;
; 417  : 	}
; 418  : 	return 0;

  000a2	33 c0		 xor	 eax, eax
  000a4	5e		 pop	 esi

; 419  : }

  000a5	5d		 pop	 ebp
  000a6	c2 08 00	 ret	 8
  000a9	0f 1f 00	 npad	 3
$LN20@GetAccount:
  000ac	00 00 00 00	 DD	 $LN5@GetAccount
  000b0	00 00 00 00	 DD	 $LN2@GetAccount
  000b4	00 00 00 00	 DD	 $LN6@GetAccount
  000b8	00 00 00 00	 DD	 $LN7@GetAccount
  000bc	00 00 00 00	 DD	 $LN8@GetAccount
  000c0	00 00 00 00	 DD	 $LN9@GetAccount
  000c4	00 00 00 00	 DD	 $LN10@GetAccount
  000c8	00 00 00 00	 DD	 $LN11@GetAccount
  000cc	00 00 00 00	 DD	 $LN12@GetAccount
  000d0	00 00 00 00	 DD	 $LN13@GetAccount
  000d4	00 00 00 00	 DD	 $LN2@GetAccount
  000d8	00 00 00 00	 DD	 $LN14@GetAccount
  000dc	00 00 00 00	 DD	 $LN15@GetAccount
  000e0	00 00 00 00	 DD	 $LN2@GetAccount
  000e4	00 00 00 00	 DD	 $LN16@GetAccount
  000e8	00 00 00 00	 DD	 $LN17@GetAccount
?GetAccountCharacterSlotDatau@CPythonNetworkStream@@QAEIII@Z ENDP ; CPythonNetworkStream::GetAccountCharacterSlotDatau
_TEXT	ENDS
; Function compile flags: /Ogtp
; File D:\_m2work\Server Client TMP4\ClientVS22\source\UserInterface\PythonNetworkStream.cpp
; File C:\Program Files\Microsoft Visual Studio\2022\Community\VC\Tools\MSVC\14.44.35207\include\xstring
; File D:\_m2work\Server Client TMP4\ClientVS22\source\UserInterface\PythonNetworkStream.cpp
;	COMDAT ?GetAccountCharacterSlotDataz@CPythonNetworkStream@@QAEPBDII@Z
_TEXT	SEGMENT
_iSlot$ = 8						; size = 4
_ip$1$sroa$366$1$ = 11					; size = 1
_eType$ = 12						; size = 4
?GetAccountCharacterSlotDataz@CPythonNetworkStream@@QAEPBDII@Z PROC ; CPythonNetworkStream::GetAccountCharacterSlotDataz, COMDAT
; _this$ = ecx

; 422  : {

  00000	55		 push	 ebp
  00001	8b ec		 mov	 ebp, esp

; 423  : 	static const char* sc_szEmpty="";
; 424  : 
; 425  : 	if (iSlot >= PLAYER_PER_ACCOUNT4)

  00003	8b 55 08	 mov	 edx, DWORD PTR _iSlot$[ebp]
  00006	83 fa 04	 cmp	 edx, 4
  00009	72 09		 jb	 SHORT $LN7@GetAccount

; 426  : 		return sc_szEmpty;

  0000b	b8 00 00 00 00	 mov	 eax, OFFSET ??_C@_00CNPNBAHC@@

; 457  : }

  00010	5d		 pop	 ebp
  00011	c2 08 00	 ret	 8
$LN7@GetAccount:

; 427  : 		
; 428  : 	TSimplePlayerInformation&	rkSimplePlayerInfo=m_akSimplePlayerInfo[iSlot];
; 429  : 	
; 430  : 	switch (eType)

  00014	8b 45 0c	 mov	 eax, DWORD PTR _eType$[ebp]
  00017	56		 push	 esi
  00018	8b f2		 mov	 esi, edx
  0001a	c1 e6 06	 shl	 esi, 6
  0001d	2b f2		 sub	 esi, edx
  0001f	03 f1		 add	 esi, ecx
  00021	83 e8 01	 sub	 eax, 1
  00024	0f 84 84 00 00
	00		 je	 $LN9@GetAccount
  0002a	83 e8 09	 sub	 eax, 9
  0002d	74 29		 je	 SHORT $LN8@GetAccount
  0002f	83 e8 03	 sub	 eax, 3
  00032	74 0a		 je	 SHORT $LN10@GetAccount

; 454  : 			break;
; 455  : 	}
; 456  : 	return sc_szEmpty;

  00034	b8 00 00 00 00	 mov	 eax, OFFSET ??_C@_00CNPNBAHC@@
  00039	5e		 pop	 esi

; 457  : }

  0003a	5d		 pop	 ebp
  0003b	c2 08 00	 ret	 8
$LN10@GetAccount:

; 451  : 			break;		
; 452  : 		case ACCOUNT_CHARACTER_SLOT_GUILD_NAME:
; 453  : 			return m_astrGuildName[iSlot].c_str();

  0003e	8d 04 55 55 00
	00 00		 lea	 eax, DWORD PTR [edx*2+85]
; File C:\Program Files\Microsoft Visual Studio\2022\Community\VC\Tools\MSVC\14.44.35207\include\xstring

; 2356 :         return _Mypair._Myval2._Myptr();

  00045	03 c2		 add	 eax, edx

; 453  :         return _Myres > _Small_string_capacity;

  00047	83 7c c1 14 0f	 cmp	 DWORD PTR [ecx+eax*8+20], 15 ; 0000000fH

; 2356 :         return _Mypair._Myval2._Myptr();

  0004c	8d 04 c1	 lea	 eax, DWORD PTR [ecx+eax*8]

; 445  :         if (_Large_mode_engaged()) {

  0004f	76 63		 jbe	 SHORT $LN35@GetAccount

; 446  :             _Result = _Unfancy(_Bx._Ptr);

  00051	8b 00		 mov	 eax, DWORD PTR [eax]
  00053	5e		 pop	 esi
; File D:\_m2work\Server Client TMP4\ClientVS22\source\UserInterface\PythonNetworkStream.cpp

; 457  : }

  00054	5d		 pop	 ebp
  00055	c2 08 00	 ret	 8
$LN8@GetAccount:

; 431  : 	{
; 432  : 		case ACCOUNT_CHARACTER_SLOT_ADDR:
; 433  : 			{				
; 434  : 				BYTE ip[4];
; 435  : 
; 436  : 				const int LEN = 4;
; 437  : 				for (int i = 0; i < LEN; i++)
; 438  : 				{
; 439  : 					ip[i] = BYTE(rkSimplePlayerInfo.lAddr&0xff);

  00058	8a 86 d4 01 00
	00		 mov	 al, BYTE PTR [esi+468]
  0005e	53		 push	 ebx

; 440  : 					rkSimplePlayerInfo.lAddr>>=8;

  0005f	8b 9e d4 01 00
	00		 mov	 ebx, DWORD PTR [esi+468]
  00065	c1 fb 08	 sar	 ebx, 8
  00068	8b d3		 mov	 edx, ebx
  0006a	88 45 0b	 mov	 BYTE PTR _ip$1$sroa$366$1$[ebp], al
  0006d	c1 fa 08	 sar	 edx, 8
  00070	8b ca		 mov	 ecx, edx
  00072	c1 f9 08	 sar	 ecx, 8
  00075	8b c1		 mov	 eax, ecx
  00077	c1 f8 08	 sar	 eax, 8
  0007a	89 86 d4 01 00
	00		 mov	 DWORD PTR [esi+468], eax

; 441  : 				}
; 442  : 
; 443  : 
; 444  : 				static char s_szAddr[256];
; 445  : 				sprintf(s_szAddr, "%d.%d.%d.%d", ip[0], ip[1], ip[2], ip[3]);

  00080	0f b6 c1	 movzx	 eax, cl
  00083	50		 push	 eax
  00084	0f b6 c2	 movzx	 eax, dl
  00087	50		 push	 eax
  00088	0f b6 c3	 movzx	 eax, bl
  0008b	50		 push	 eax
  0008c	0f b6 45 0b	 movzx	 eax, BYTE PTR _ip$1$sroa$366$1$[ebp]
  00090	50		 push	 eax
  00091	68 00 00 00 00	 push	 OFFSET ??_C@_0M@PCENNPGA@?$CFd?4?$CFd?4?$CFd?4?$CFd@
  00096	68 00 00 00 00	 push	 OFFSET ?s_szAddr@?6??GetAccountCharacterSlotDataz@CPythonNetworkStream@@QAEPBDII@Z@4PADA
  0009b	e8 00 00 00 00	 call	 _sprintf
  000a0	83 c4 18	 add	 esp, 24			; 00000018H

; 446  : 				return s_szAddr;

  000a3	b8 00 00 00 00	 mov	 eax, OFFSET ?s_szAddr@?6??GetAccountCharacterSlotDataz@CPythonNetworkStream@@QAEPBDII@Z@4PADA
  000a8	5b		 pop	 ebx
  000a9	5e		 pop	 esi

; 457  : }

  000aa	5d		 pop	 ebp
  000ab	c2 08 00	 ret	 8
$LN9@GetAccount:

; 447  : 			}
; 448  : 			break;
; 449  : 		case ACCOUNT_CHARACTER_SLOT_NAME:
; 450  : 			return rkSimplePlayerInfo.szName;

  000ae	8d 86 a0 01 00
	00		 lea	 eax, DWORD PTR [esi+416]
$LN35@GetAccount:
  000b4	5e		 pop	 esi

; 457  : }

  000b5	5d		 pop	 ebp
  000b6	c2 08 00	 ret	 8
?GetAccountCharacterSlotDataz@CPythonNetworkStream@@QAEPBDII@Z ENDP ; CPythonNetworkStream::GetAccountCharacterSlotDataz
_TEXT	ENDS
; Function compile flags: /Ogtp
; File D:\_m2work\Server Client TMP4\ClientVS22\source\UserInterface\PythonNetworkStream.cpp
;	COMDAT ?ConnectLoginServer@CPythonNetworkStream@@QAEXPBDI@Z
_TEXT	SEGMENT
_c_szAddr$ = 8						; size = 4
_uPort$ = 12						; size = 4
?ConnectLoginServer@CPythonNetworkStream@@QAEXPBDI@Z PROC ; CPythonNetworkStream::ConnectLoginServer, COMDAT
; _this$ = ecx

; 460  : {

  00000	55		 push	 ebp
  00001	8b ec		 mov	 ebp, esp

; 461  : 	CNetworkStream::Connect(c_szAddr, uPort);		

  00003	6a 03		 push	 3
  00005	ff 75 0c	 push	 DWORD PTR _uPort$[ebp]
  00008	ff 75 08	 push	 DWORD PTR _c_szAddr$[ebp]
  0000b	e8 00 00 00 00	 call	 ?Connect@CNetworkStream@@QAE_NPBDHH@Z ; CNetworkStream::Connect

; 462  : }

  00010	5d		 pop	 ebp
  00011	c2 08 00	 ret	 8
?ConnectLoginServer@CPythonNetworkStream@@QAEXPBDI@Z ENDP ; CPythonNetworkStream::ConnectLoginServer
_TEXT	ENDS
; Function compile flags: /Ogtp
; File D:\_m2work\Server Client TMP4\ClientVS22\source\UserInterface\PythonNetworkStream.cpp
;	COMDAT ?SetMarkServer@CPythonNetworkStream@@QAEXPBDI@Z
_TEXT	SEGMENT
_c_szAddr$ = 8						; size = 4
_uPort$ = 12						; size = 4
?SetMarkServer@CPythonNetworkStream@@QAEXPBDI@Z PROC	; CPythonNetworkStream::SetMarkServer, COMDAT
; _this$ = ecx

; 465  : {

  00000	55		 push	 ebp
  00001	8b ec		 mov	 ebp, esp

; 466  : 	m_kMarkAuth.m_kNetAddr.Set(c_szAddr, uPort);

  00003	81 c1 f8 78 00
	00		 add	 ecx, 30968		; 000078f8H

; 467  : }

  00009	5d		 pop	 ebp

; 466  : 	m_kMarkAuth.m_kNetAddr.Set(c_szAddr, uPort);

  0000a	e9 00 00 00 00	 jmp	 ?Set@CNetworkAddress@@QAE_NPBDH@Z ; CNetworkAddress::Set
?SetMarkServer@CPythonNetworkStream@@QAEXPBDI@Z ENDP	; CPythonNetworkStream::SetMarkServer
_TEXT	ENDS
; Function compile flags: /Ogtp
; File D:\_m2work\Server Client TMP4\ClientVS22\source\UserInterface\PythonNetworkStream.cpp
;	COMDAT ?ConnectGameServer@CPythonNetworkStream@@QAEXI@Z
_TEXT	SEGMENT
_iChrSlot$ = 8						; size = 4
?ConnectGameServer@CPythonNetworkStream@@QAEXI@Z PROC	; CPythonNetworkStream::ConnectGameServer, COMDAT
; _this$ = ecx

; 470  : {

  00000	55		 push	 ebp
  00001	8b ec		 mov	 ebp, esp

; 471  : 	if (iChrSlot >= PLAYER_PER_ACCOUNT4)

  00003	8b 55 08	 mov	 edx, DWORD PTR _iChrSlot$[ebp]
  00006	56		 push	 esi
  00007	8b f1		 mov	 esi, ecx
  00009	83 fa 04	 cmp	 edx, 4
  0000c	73 2c		 jae	 SHORT $LN1@ConnectGam

; 472  : 		return;
; 473  : 
; 474  : 	m_dwSelectedCharacterIndex = iChrSlot;
; 475  : 
; 476  : 	__DirectEnterMode_Set(iChrSlot);

  0000e	52		 push	 edx
  0000f	89 96 10 79 00
	00		 mov	 DWORD PTR [esi+30992], edx
  00015	e8 00 00 00 00	 call	 ?__DirectEnterMode_Set@CPythonNetworkStream@@AAEXI@Z ; CPythonNetworkStream::__DirectEnterMode_Set

; 477  : 
; 478  : 	TSimplePlayerInformation&	rkSimplePlayerInfo=m_akSimplePlayerInfo[iChrSlot];	

  0001a	8b ca		 mov	 ecx, edx
  0001c	c1 e1 06	 shl	 ecx, 6
  0001f	2b ca		 sub	 ecx, edx

; 479  : 	CNetworkStream::Connect((DWORD)rkSimplePlayerInfo.lAddr, rkSimplePlayerInfo.wPort);

  00021	6a 03		 push	 3
  00023	0f b7 84 31 d8
	01 00 00	 movzx	 eax, WORD PTR [ecx+esi+472]
  0002b	50		 push	 eax
  0002c	ff b4 31 d4 01
	00 00		 push	 DWORD PTR [ecx+esi+468]
  00033	8b ce		 mov	 ecx, esi
  00035	e8 00 00 00 00	 call	 ?Connect@CNetworkStream@@QAE_NKHH@Z ; CNetworkStream::Connect
$LN1@ConnectGam:
  0003a	5e		 pop	 esi

; 480  : }

  0003b	5d		 pop	 ebp
  0003c	c2 04 00	 ret	 4
?ConnectGameServer@CPythonNetworkStream@@QAEXI@Z ENDP	; CPythonNetworkStream::ConnectGameServer
_TEXT	ENDS
; Function compile flags: /Ogtp
; File D:\_m2work\Server Client TMP4\ClientVS22\source\UserInterface\PythonNetworkStream.cpp
; File C:\Program Files\Microsoft Visual Studio\2022\Community\VC\Tools\MSVC\14.44.35207\include\__msvc_string_view.hpp
; File D:\_m2work\Server Client TMP4\ClientVS22\source\UserInterface\PythonNetworkStream.cpp
; File C:\Program Files\Microsoft Visual Studio\2022\Community\VC\Tools\MSVC\14.44.35207\include\__msvc_string_view.hpp
; File D:\_m2work\Server Client TMP4\ClientVS22\source\UserInterface\PythonNetworkStream.cpp
; File C:\Program Files\Microsoft Visual Studio\2022\Community\VC\Tools\MSVC\14.44.35207\include\xstring
; File C:\Program Files\Microsoft Visual Studio\2022\Community\VC\Tools\MSVC\14.44.35207\include\__msvc_string_view.hpp
; File D:\_m2work\Server Client TMP4\ClientVS22\source\UserInterface\PythonNetworkStream.cpp
; File C:\Program Files\Microsoft Visual Studio\2022\Community\VC\Tools\MSVC\14.44.35207\include\xstring
; File D:\_m2work\Server Client TMP4\ClientVS22\source\UserInterface\PythonNetworkStream.cpp
;	COMDAT ?SetLoginInfo@CPythonNetworkStream@@QAEXPBD0@Z
_TEXT	SEGMENT
_c_szID$ = 8						; size = 4
_c_szPassword$ = 12					; size = 4
?SetLoginInfo@CPythonNetworkStream@@QAEXPBD0@Z PROC	; CPythonNetworkStream::SetLoginInfo, COMDAT
; _this$ = ecx

; 483  : {

  00000	55		 push	 ebp
  00001	8b ec		 mov	 ebp, esp
  00003	56		 push	 esi
; File C:\Program Files\Microsoft Visual Studio\2022\Community\VC\Tools\MSVC\14.44.35207\include\__msvc_string_view.hpp

; 456  :             return __builtin_strlen(_First);

  00004	8b 75 08	 mov	 esi, DWORD PTR _c_szID$[ebp]
  00007	8b d6		 mov	 edx, esi
; File D:\_m2work\Server Client TMP4\ClientVS22\source\UserInterface\PythonNetworkStream.cpp

; 483  : {

  00009	57		 push	 edi
  0000a	8b f9		 mov	 edi, ecx
; File C:\Program Files\Microsoft Visual Studio\2022\Community\VC\Tools\MSVC\14.44.35207\include\__msvc_string_view.hpp

; 456  :             return __builtin_strlen(_First);

  0000c	8d 4a 01	 lea	 ecx, DWORD PTR [edx+1]
  0000f	90		 npad	 1
$LL17@SetLoginIn:
  00010	8a 02		 mov	 al, BYTE PTR [edx]
  00012	42		 inc	 edx
  00013	84 c0		 test	 al, al
  00015	75 f9		 jne	 SHORT $LL17@SetLoginIn
  00017	2b d1		 sub	 edx, ecx
; File D:\_m2work\Server Client TMP4\ClientVS22\source\UserInterface\PythonNetworkStream.cpp

; 484  : 	m_stID=c_szID;

  00019	8d 8f c4 00 00
	00		 lea	 ecx, DWORD PTR [edi+196]
; File C:\Program Files\Microsoft Visual Studio\2022\Community\VC\Tools\MSVC\14.44.35207\include\xstring

; 1638 :         return assign(_Ptr, _Convert_size<size_type>(_Traits::length(_Ptr)));

  0001f	52		 push	 edx
  00020	56		 push	 esi
  00021	e8 00 00 00 00	 call	 ?assign@?$basic_string@DU?$char_traits@D@std@@V?$allocator@D@2@@std@@QAEAAV12@QBDI@Z ; std::basic_string<char,std::char_traits<char>,std::allocator<char> >::assign
; File C:\Program Files\Microsoft Visual Studio\2022\Community\VC\Tools\MSVC\14.44.35207\include\__msvc_string_view.hpp

; 456  :             return __builtin_strlen(_First);

  00026	8b 55 0c	 mov	 edx, DWORD PTR _c_szPassword$[ebp]
  00029	8b c2		 mov	 eax, edx
  0002b	8d 70 01	 lea	 esi, DWORD PTR [eax+1]
  0002e	66 90		 npad	 2
$LL18@SetLoginIn:
  00030	8a 08		 mov	 cl, BYTE PTR [eax]
  00032	40		 inc	 eax
  00033	84 c9		 test	 cl, cl
  00035	75 f9		 jne	 SHORT $LL18@SetLoginIn
  00037	2b c6		 sub	 eax, esi
; File D:\_m2work\Server Client TMP4\ClientVS22\source\UserInterface\PythonNetworkStream.cpp

; 485  : 	m_stPassword=c_szPassword;

  00039	8d 8f dc 00 00
	00		 lea	 ecx, DWORD PTR [edi+220]
; File C:\Program Files\Microsoft Visual Studio\2022\Community\VC\Tools\MSVC\14.44.35207\include\xstring

; 1638 :         return assign(_Ptr, _Convert_size<size_type>(_Traits::length(_Ptr)));

  0003f	50		 push	 eax
  00040	52		 push	 edx
  00041	e8 00 00 00 00	 call	 ?assign@?$basic_string@DU?$char_traits@D@std@@V?$allocator@D@2@@std@@QAEAAV12@QBDI@Z ; std::basic_string<char,std::char_traits<char>,std::allocator<char> >::assign
  00046	5f		 pop	 edi
  00047	5e		 pop	 esi
; File D:\_m2work\Server Client TMP4\ClientVS22\source\UserInterface\PythonNetworkStream.cpp

; 486  : }

  00048	5d		 pop	 ebp
  00049	c2 08 00	 ret	 8
?SetLoginInfo@CPythonNetworkStream@@QAEXPBD0@Z ENDP	; CPythonNetworkStream::SetLoginInfo
_TEXT	ENDS
; Function compile flags: /Ogtp
; File D:\_m2work\Server Client TMP4\ClientVS22\source\UserInterface\PythonNetworkStream.cpp
; File D:\_m2work\Server Client TMP4\ClientVS22\source\eterLib\NetPacketHeaderMap.h
; File D:\_m2work\Server Client TMP4\ClientVS22\source\UserInterface\PythonNetworkStream.cpp
;	COMDAT ?CheckPacket@CPythonNetworkStream@@IAE_NPAE@Z
_TEXT	SEGMENT
_PacketType$ = -28					; size = 8
_DynamicSizePacketHeader$2 = -20			; size = 3
__$EHRec$ = -12						; size = 12
_pRetHeader$ = 8					; size = 4
_header$ = 11						; size = 1
?CheckPacket@CPythonNetworkStream@@IAE_NPAE@Z PROC	; CPythonNetworkStream::CheckPacket, COMDAT
; _this$ = ecx

; 499  : {

  00000	55		 push	 ebp
  00001	8b ec		 mov	 ebp, esp
  00003	6a ff		 push	 -1
  00005	68 00 00 00 00	 push	 __ehhandler$?CheckPacket@CPythonNetworkStream@@IAE_NPAE@Z
  0000a	64 a1 00 00 00
	00		 mov	 eax, DWORD PTR fs:0
  00010	50		 push	 eax
  00011	83 ec 14	 sub	 esp, 20			; 00000014H
  00014	56		 push	 esi
  00015	57		 push	 edi
  00016	a1 00 00 00 00	 mov	 eax, DWORD PTR ___security_cookie
  0001b	33 c5		 xor	 eax, ebp
  0001d	50		 push	 eax
  0001e	8d 45 f4	 lea	 eax, DWORD PTR __$EHRec$[ebp]
  00021	64 a3 00 00 00
	00		 mov	 DWORD PTR fs:0, eax
  00027	8b f1		 mov	 esi, ecx

; 500  : 	*pRetHeader = 0;
; 501  : 
; 502  : 	static CMainPacketHeaderMap s_packetHeaderMap;

  00029	64 a1 00 00 00
	00		 mov	 eax, DWORD PTR fs:__tls_array
  0002f	8b 7d 08	 mov	 edi, DWORD PTR _pRetHeader$[ebp]
  00032	8b 10		 mov	 edx, DWORD PTR [eax]
  00034	c6 07 00	 mov	 BYTE PTR [edi], 0
  00037	a1 00 00 00 00	 mov	 eax, DWORD PTR ?$TSS0@?1??CheckPacket@CPythonNetworkStream@@IAE_NPAE@Z@4HA
  0003c	3b 82 00 00 00
	00		 cmp	 eax, DWORD PTR __Init_thread_epoch[edx]
  00042	0f 8f 57 01 00
	00		 jg	 $LN35@CheckPacke
$LN2@CheckPacke:

; 503  : 
; 504  : 	TPacketHeader header;
; 505  : 
; 506  : 	if (!Peek(sizeof(TPacketHeader), &header))

  00048	8d 45 0b	 lea	 eax, DWORD PTR _header$[ebp]
  0004b	8b ce		 mov	 ecx, esi
  0004d	50		 push	 eax
  0004e	6a 01		 push	 1
  00050	e8 00 00 00 00	 call	 ?Peek@CNetworkStream@@QAE_NHPAX@Z ; CNetworkStream::Peek
  00055	84 c0		 test	 al, al
  00057	0f 84 b1 00 00
	00		 je	 $LN27@CheckPacke

; 507  : 		return false;
; 508  : 
; 509  : 	if (0 == header)

  0005d	8a 45 0b	 mov	 al, BYTE PTR _header$[ebp]
  00060	84 c0		 test	 al, al
  00062	75 5c		 jne	 SHORT $LN11@CheckPacke

; 510  : 	{
; 511  : 		if (!Recv(sizeof(TPacketHeader), &header))

  00064	8d 45 0b	 lea	 eax, DWORD PTR _header$[ebp]
  00067	8b ce		 mov	 ecx, esi
  00069	50		 push	 eax
  0006a	6a 01		 push	 1
  0006c	e8 00 00 00 00	 call	 ?Recv@CNetworkStream@@QAE_NHPAX@Z ; CNetworkStream::Recv
  00071	84 c0		 test	 al, al
  00073	0f 84 95 00 00
	00		 je	 $LN27@CheckPacke

; 512  : 			return false;
; 513  : 		
; 514  : 		while (Peek(sizeof(TPacketHeader), &header))

  00079	8d 45 0b	 lea	 eax, DWORD PTR _header$[ebp]
  0007c	8b ce		 mov	 ecx, esi
  0007e	50		 push	 eax
  0007f	6a 01		 push	 1
  00081	e8 00 00 00 00	 call	 ?Peek@CNetworkStream@@QAE_NHPAX@Z ; CNetworkStream::Peek
  00086	84 c0		 test	 al, al
  00088	74 2f		 je	 SHORT $LN8@CheckPacke
  0008a	66 0f 1f 44 00
	00		 npad	 6
$LL3@CheckPacke:

; 515  : 		{
; 516  : 			if (0 == header)

  00090	8a 45 0b	 mov	 al, BYTE PTR _header$[ebp]
  00093	84 c0		 test	 al, al
  00095	75 29		 jne	 SHORT $LN11@CheckPacke

; 517  : 			{
; 518  : 				if (!Recv(sizeof(TPacketHeader), &header))

  00097	8d 45 0b	 lea	 eax, DWORD PTR _header$[ebp]
  0009a	8b ce		 mov	 ecx, esi
  0009c	50		 push	 eax
  0009d	6a 01		 push	 1
  0009f	e8 00 00 00 00	 call	 ?Recv@CNetworkStream@@QAE_NHPAX@Z ; CNetworkStream::Recv
  000a4	84 c0		 test	 al, al
  000a6	74 66		 je	 SHORT $LN27@CheckPacke

; 512  : 			return false;
; 513  : 		
; 514  : 		while (Peek(sizeof(TPacketHeader), &header))

  000a8	8d 45 0b	 lea	 eax, DWORD PTR _header$[ebp]
  000ab	8b ce		 mov	 ecx, esi
  000ad	50		 push	 eax
  000ae	6a 01		 push	 1
  000b0	e8 00 00 00 00	 call	 ?Peek@CNetworkStream@@QAE_NHPAX@Z ; CNetworkStream::Peek
  000b5	84 c0		 test	 al, al
  000b7	75 d7		 jne	 SHORT $LL3@CheckPacke
$LN8@CheckPacke:

; 519  : 					return false;
; 520  : 			}
; 521  : 			else
; 522  : 			{
; 523  : 				break;
; 524  : 			}
; 525  : 		}
; 526  : 
; 527  : 		if (0 == header)

  000b9	8a 45 0b	 mov	 al, BYTE PTR _header$[ebp]
  000bc	84 c0		 test	 al, al
  000be	74 4e		 je	 SHORT $LN27@CheckPacke
$LN11@CheckPacke:

; 533  : 	if (!s_packetHeaderMap.Get(header, &PacketType))

  000c0	8d 55 e4	 lea	 edx, DWORD PTR _PacketType$[ebp]
  000c3	0f b6 c0	 movzx	 eax, al
  000c6	52		 push	 edx
  000c7	50		 push	 eax
  000c8	b9 00 00 00 00	 mov	 ecx, OFFSET ?s_packetHeaderMap@?1??CheckPacket@CPythonNetworkStream@@IAE_NPAE@Z@4VCMainPacketHeaderMap@@A
; File D:\_m2work\Server Client TMP4\ClientVS22\source\eterLib\NetPacketHeaderMap.h

; 12   : 				iPacketSize = iSize;

  000cd	c7 45 e4 00 00
	00 00		 mov	 DWORD PTR _PacketType$[ebp], 0

; 13   : 				isDynamicSizePacket = bFlag;

  000d4	c6 45 e8 00	 mov	 BYTE PTR _PacketType$[ebp+4], 0
; File D:\_m2work\Server Client TMP4\ClientVS22\source\UserInterface\PythonNetworkStream.cpp

; 533  : 	if (!s_packetHeaderMap.Get(header, &PacketType))

  000d8	e8 00 00 00 00	 call	 ?Get@CNetworkPacketHeaderMap@@QAE_NHPAUSPacketType@1@@Z ; CNetworkPacketHeaderMap::Get
  000dd	84 c0		 test	 al, al
  000df	75 42		 jne	 SHORT $LN12@CheckPacke

; 534  : 	{
; 535  : 		TraceError("Unknown packet header: %d, last: %d %d", header, g_iLastPacket[0], g_iLastPacket[1]);

  000e1	ff 35 04 00 00
	00		 push	 DWORD PTR ?g_iLastPacket@@3PAHA+4
  000e7	0f b6 45 0b	 movzx	 eax, BYTE PTR _header$[ebp]
  000eb	ff 35 00 00 00
	00		 push	 DWORD PTR ?g_iLastPacket@@3PAHA
  000f1	50		 push	 eax
  000f2	68 00 00 00 00	 push	 OFFSET ??_C@_0CH@LALGPME@Unknown?5packet?5header?3?5?$CFd?0?5last@
  000f7	e8 00 00 00 00	 call	 ?TraceError@@YAXPBDZZ	; TraceError
  000fc	83 c4 10	 add	 esp, 16			; 00000010H

; 536  : 		ClearRecvBuffer();

  000ff	8b ce		 mov	 ecx, esi
  00101	e8 00 00 00 00	 call	 ?ClearRecvBuffer@CNetworkStream@@QAEXXZ ; CNetworkStream::ClearRecvBuffer

; 537  : 
; 538  : 		PostQuitMessage(0);

  00106	6a 00		 push	 0
  00108	ff 15 00 00 00
	00		 call	 DWORD PTR __imp__PostQuitMessage@4
$LN27@CheckPacke:

; 580  : }

  0010e	32 c0		 xor	 al, al
  00110	8b 4d f4	 mov	 ecx, DWORD PTR __$EHRec$[ebp]
  00113	64 89 0d 00 00
	00 00		 mov	 DWORD PTR fs:0, ecx
  0011a	59		 pop	 ecx
  0011b	5f		 pop	 edi
  0011c	5e		 pop	 esi
  0011d	8b e5		 mov	 esp, ebp
  0011f	5d		 pop	 ebp
  00120	c2 04 00	 ret	 4
$LN12@CheckPacke:

; 539  : 		return false;
; 540  : 	}
; 541  : 
; 542  : 	// Code for dynamic size packet
; 543  : 	if (PacketType.isDynamicSizePacket)

  00123	80 7d e8 00	 cmp	 BYTE PTR _PacketType$[ebp+4], 0
  00127	8b ce		 mov	 ecx, esi
  00129	74 38		 je	 SHORT $LN13@CheckPacke

; 544  : 	{
; 545  : 		TDynamicSizePacketHeader DynamicSizePacketHeader;
; 546  : 
; 547  : 		if (!Peek(sizeof(TDynamicSizePacketHeader), &DynamicSizePacketHeader))

  0012b	8d 45 ec	 lea	 eax, DWORD PTR _DynamicSizePacketHeader$2[ebp]
  0012e	50		 push	 eax
  0012f	6a 03		 push	 3
  00131	e8 00 00 00 00	 call	 ?Peek@CNetworkStream@@QAE_NHPAX@Z ; CNetworkStream::Peek
  00136	84 c0		 test	 al, al
  00138	74 d4		 je	 SHORT $LN27@CheckPacke

; 548  : 			return false;
; 549  : 
; 550  : 		if (!Peek(DynamicSizePacketHeader.size))

  0013a	0f b7 45 ed	 movzx	 eax, WORD PTR _DynamicSizePacketHeader$2[ebp+1]
  0013e	8b ce		 mov	 ecx, esi
  00140	50		 push	 eax
  00141	e8 00 00 00 00	 call	 ?Peek@CNetworkStream@@QAE_NH@Z ; CNetworkStream::Peek
  00146	84 c0		 test	 al, al
  00148	75 25		 jne	 SHORT $LN17@CheckPacke

; 551  : 		{
; 552  : 			Tracef("CPythonNetworkStream::CheckPacket - Not enough dynamic packet size: header %d packet size: %d\n", 

  0014a	0f b7 45 ed	 movzx	 eax, WORD PTR _DynamicSizePacketHeader$2[ebp+1]
  0014e	50		 push	 eax
  0014f	0f b6 45 ec	 movzx	 eax, BYTE PTR _DynamicSizePacketHeader$2[ebp]
  00153	50		 push	 eax
  00154	68 00 00 00 00	 push	 OFFSET ??_C@_0FP@JGOINIOH@CPythonNetworkStream?3?3CheckPack@
  00159	e8 00 00 00 00	 call	 ?Tracef@@YAXPBDZZ	; Tracef
  0015e	83 c4 0c	 add	 esp, 12			; 0000000cH

; 553  : 				DynamicSizePacketHeader.header,
; 554  : 				DynamicSizePacketHeader.size);
; 555  : 			return false;

  00161	eb ab		 jmp	 SHORT $LN27@CheckPacke
$LN13@CheckPacke:

; 556  : 		}
; 557  : 	}
; 558  : 	else
; 559  : 	{
; 560  : 		if (!Peek(PacketType.iPacketSize))

  00163	ff 75 e4	 push	 DWORD PTR _PacketType$[ebp]
  00166	e8 00 00 00 00	 call	 ?Peek@CNetworkStream@@QAE_NH@Z ; CNetworkStream::Peek
  0016b	84 c0		 test	 al, al
  0016d	74 9f		 je	 SHORT $LN27@CheckPacke
$LN17@CheckPacke:

; 561  : 		{
; 562  : 			//Tracef("Not enough packet size: header %d packet size: %d, recv buffer size: %d",
; 563  : 			//	header,
; 564  : 			//	PacketType.iPacketSize,
; 565  : 			//	GetRecvBufferSize());
; 566  : 			return false;
; 567  : 		}
; 568  : 	}
; 569  : 
; 570  : 	if (!header)

  0016f	8a 4d 0b	 mov	 cl, BYTE PTR _header$[ebp]
  00172	84 c9		 test	 cl, cl
  00174	74 98		 je	 SHORT $LN27@CheckPacke

; 571  : 		return false;
; 572  : 
; 573  : 	*pRetHeader = header;	
; 574  : 
; 575  : 	g_iLastPacket[0] = g_iLastPacket[1];

  00176	a1 04 00 00 00	 mov	 eax, DWORD PTR ?g_iLastPacket@@3PAHA+4
  0017b	a3 00 00 00 00	 mov	 DWORD PTR ?g_iLastPacket@@3PAHA, eax

; 576  : 	g_iLastPacket[1] = header;

  00180	0f b6 c1	 movzx	 eax, cl
  00183	a3 04 00 00 00	 mov	 DWORD PTR ?g_iLastPacket@@3PAHA+4, eax

; 577  : 	//Tracenf("header %d size %d", header, PacketType.iPacketSize);
; 578  : 	//Tracenf("header %d size %d outputpos[%d] security %u", header, PacketType.iPacketSize, m_recvBufOutputPos, IsSecurityMode());
; 579  : 	return true;

  00188	b0 01		 mov	 al, 1
  0018a	88 0f		 mov	 BYTE PTR [edi], cl

; 580  : }

  0018c	8b 4d f4	 mov	 ecx, DWORD PTR __$EHRec$[ebp]
  0018f	64 89 0d 00 00
	00 00		 mov	 DWORD PTR fs:0, ecx
  00196	59		 pop	 ecx
  00197	5f		 pop	 edi
  00198	5e		 pop	 esi
  00199	8b e5		 mov	 esp, ebp
  0019b	5d		 pop	 ebp
  0019c	c2 04 00	 ret	 4
$LN35@CheckPacke:

; 500  : 	*pRetHeader = 0;
; 501  : 
; 502  : 	static CMainPacketHeaderMap s_packetHeaderMap;

  0019f	68 00 00 00 00	 push	 OFFSET ?$TSS0@?1??CheckPacket@CPythonNetworkStream@@IAE_NPAE@Z@4HA
  001a4	e8 00 00 00 00	 call	 __Init_thread_header
  001a9	83 c4 04	 add	 esp, 4
  001ac	83 3d 00 00 00
	00 ff		 cmp	 DWORD PTR ?$TSS0@?1??CheckPacket@CPythonNetworkStream@@IAE_NPAE@Z@4HA, -1
  001b3	0f 85 8f fe ff
	ff		 jne	 $LN2@CheckPacke
  001b9	b9 00 00 00 00	 mov	 ecx, OFFSET ?s_packetHeaderMap@?1??CheckPacket@CPythonNetworkStream@@IAE_NPAE@Z@4VCMainPacketHeaderMap@@A
  001be	c7 45 fc 00 00
	00 00		 mov	 DWORD PTR __$EHRec$[ebp+8], 0
  001c5	e8 00 00 00 00	 call	 ??0CMainPacketHeaderMap@@QAE@XZ ; CMainPacketHeaderMap::CMainPacketHeaderMap
  001ca	68 00 00 00 00	 push	 OFFSET ??__Fs_packetHeaderMap@?1??CheckPacket@CPythonNetworkStream@@IAE_NPAE@Z@YAXXZ ; `CPythonNetworkStream::CheckPacket'::`2'::`dynamic atexit destructor for 's_packetHeaderMap''
  001cf	e8 00 00 00 00	 call	 _atexit
  001d4	83 c4 04	 add	 esp, 4
  001d7	c7 45 fc ff ff
	ff ff		 mov	 DWORD PTR __$EHRec$[ebp+8], -1
  001de	68 00 00 00 00	 push	 OFFSET ?$TSS0@?1??CheckPacket@CPythonNetworkStream@@IAE_NPAE@Z@4HA
  001e3	e8 00 00 00 00	 call	 __Init_thread_footer
  001e8	83 c4 04	 add	 esp, 4
  001eb	e9 58 fe ff ff	 jmp	 $LN2@CheckPacke
_TEXT	ENDS
;	COMDAT text$x
text$x	SEGMENT
__unwindfunclet$?CheckPacket@CPythonNetworkStream@@IAE_NPAE@Z$0:
  00000	68 00 00 00 00	 push	 OFFSET ?$TSS0@?1??CheckPacket@CPythonNetworkStream@@IAE_NPAE@Z@4HA
  00005	e8 00 00 00 00	 call	 __Init_thread_abort
  0000a	59		 pop	 ecx
  0000b	c3		 ret	 0
  0000c	cc		 int	 3
  0000d	cc		 int	 3
  0000e	cc		 int	 3
  0000f	cc		 int	 3
  00010	cc		 int	 3
__ehhandler$?CheckPacket@CPythonNetworkStream@@IAE_NPAE@Z:
  00011	90		 npad	 1
  00012	90		 npad	 1
  00013	8b 54 24 08	 mov	 edx, DWORD PTR [esp+8]
  00017	8d 42 0c	 lea	 eax, DWORD PTR [edx+12]
  0001a	8b 4a e0	 mov	 ecx, DWORD PTR [edx-32]
  0001d	33 c8		 xor	 ecx, eax
  0001f	e8 00 00 00 00	 call	 @__security_check_cookie@4
  00024	b8 00 00 00 00	 mov	 eax, OFFSET __ehfuncinfo$?CheckPacket@CPythonNetworkStream@@IAE_NPAE@Z
  00029	e9 00 00 00 00	 jmp	 ___CxxFrameHandler3
text$x	ENDS
?CheckPacket@CPythonNetworkStream@@IAE_NPAE@Z ENDP	; CPythonNetworkStream::CheckPacket
; Function compile flags: /Ogtp
;	COMDAT ??__Fs_packetHeaderMap@?1??CheckPacket@CPythonNetworkStream@@IAE_NPAE@Z@YAXXZ
text$yd	SEGMENT
??__Fs_packetHeaderMap@?1??CheckPacket@CPythonNetworkStream@@IAE_NPAE@Z@YAXXZ PROC ; `CPythonNetworkStream::CheckPacket'::`2'::`dynamic atexit destructor for 's_packetHeaderMap'', COMDAT
  00000	b9 00 00 00 00	 mov	 ecx, OFFSET ?s_packetHeaderMap@?1??CheckPacket@CPythonNetworkStream@@IAE_NPAE@Z@4VCMainPacketHeaderMap@@A
  00005	e9 00 00 00 00	 jmp	 ??1CNetworkPacketHeaderMap@@UAE@XZ ; CNetworkPacketHeaderMap::~CNetworkPacketHeaderMap
??__Fs_packetHeaderMap@?1??CheckPacket@CPythonNetworkStream@@IAE_NPAE@Z@YAXXZ ENDP ; `CPythonNetworkStream::CheckPacket'::`2'::`dynamic atexit destructor for 's_packetHeaderMap''
text$yd	ENDS
; Function compile flags: /Ogtp
; File D:\_m2work\Server Client TMP4\ClientVS22\source\UserInterface\PythonNetworkStream.cpp
; File C:\Program Files\Microsoft Visual Studio\2022\Community\VC\Tools\MSVC\14.44.35207\include\xstring
; File D:\_m2work\Server Client TMP4\ClientVS22\source\UserInterface\PythonNetworkStream.cpp
;	COMDAT ?RecvErrorPacket@CPythonNetworkStream@@IAE_NH@Z
_TEXT	SEGMENT
_header$ = 8						; size = 4
?RecvErrorPacket@CPythonNetworkStream@@IAE_NH@Z PROC	; CPythonNetworkStream::RecvErrorPacket, COMDAT
; _this$ = ecx

; 583  : {

  00000	55		 push	 ebp
  00001	8b ec		 mov	 ebp, esp
  00003	56		 push	 esi
  00004	8b f1		 mov	 esi, ecx
; File C:\Program Files\Microsoft Visual Studio\2022\Community\VC\Tools\MSVC\14.44.35207\include\xstring

; 453  :         return _Myres > _Small_string_capacity;

  00006	83 be 20 01 00
	00 0f		 cmp	 DWORD PTR [esi+288], 15	; 0000000fH

; 2356 :         return _Mypair._Myval2._Myptr();

  0000d	8d 86 0c 01 00
	00		 lea	 eax, DWORD PTR [esi+268]

; 445  :         if (_Large_mode_engaged()) {

  00013	76 02		 jbe	 SHORT $LN7@RecvErrorP

; 446  :             _Result = _Unfancy(_Bx._Ptr);

  00015	8b 00		 mov	 eax, DWORD PTR [eax]
$LN7@RecvErrorP:
; File D:\_m2work\Server Client TMP4\ClientVS22\source\UserInterface\PythonNetworkStream.cpp

; 584  : 	TraceError("Phase %s does not handle this header (header: %d, last: %d, %d)",

  00017	ff 35 04 00 00
	00		 push	 DWORD PTR ?g_iLastPacket@@3PAHA+4
  0001d	ff 35 00 00 00
	00		 push	 DWORD PTR ?g_iLastPacket@@3PAHA
  00023	ff 75 08	 push	 DWORD PTR _header$[ebp]
  00026	50		 push	 eax
  00027	68 00 00 00 00	 push	 OFFSET ??_C@_0EA@JMANDMEJ@Phase?5?$CFs?5does?5not?5handle?5this?5h@
  0002c	e8 00 00 00 00	 call	 ?TraceError@@YAXPBDZZ	; TraceError
  00031	83 c4 14	 add	 esp, 20			; 00000014H

; 585  : 		m_strPhase.c_str(), header, g_iLastPacket[0], g_iLastPacket[1]);
; 586  : 
; 587  : 	ClearRecvBuffer();

  00034	8b ce		 mov	 ecx, esi
  00036	e8 00 00 00 00	 call	 ?ClearRecvBuffer@CNetworkStream@@QAEXXZ ; CNetworkStream::ClearRecvBuffer

; 588  : 	return true;

  0003b	b0 01		 mov	 al, 1
  0003d	5e		 pop	 esi

; 589  : }

  0003e	5d		 pop	 ebp
  0003f	c2 04 00	 ret	 4
?RecvErrorPacket@CPythonNetworkStream@@IAE_NH@Z ENDP	; CPythonNetworkStream::RecvErrorPacket
_TEXT	ENDS
; Function compile flags: /Ogtp
; File D:\_m2work\Server Client TMP4\ClientVS22\source\UserInterface\PythonNetworkStream.cpp
;	COMDAT ?RecvPhasePacket@CPythonNetworkStream@@IAE_NXZ
_TEXT	SEGMENT
_packet_phase$ = -4					; size = 2
?RecvPhasePacket@CPythonNetworkStream@@IAE_NXZ PROC	; CPythonNetworkStream::RecvPhasePacket, COMDAT
; _this$ = ecx

; 592  : {

  00000	55		 push	 ebp
  00001	8b ec		 mov	 ebp, esp
  00003	83 e4 f8	 and	 esp, -8			; fffffff8H
  00006	51		 push	 ecx
  00007	56		 push	 esi

; 593  : 	TPacketGCPhase packet_phase;
; 594  : 
; 595  : 	if (!Recv(sizeof(TPacketGCPhase), &packet_phase))

  00008	8d 44 24 04	 lea	 eax, DWORD PTR _packet_phase$[esp+8]
  0000c	8b f1		 mov	 esi, ecx
  0000e	50		 push	 eax
  0000f	6a 02		 push	 2
  00011	e8 00 00 00 00	 call	 ?Recv@CNetworkStream@@QAE_NHPAX@Z ; CNetworkStream::Recv
  00016	84 c0		 test	 al, al
  00018	75 05		 jne	 SHORT $LN4@RecvPhaseP

; 641  : }

  0001a	5e		 pop	 esi
  0001b	8b e5		 mov	 esp, ebp
  0001d	5d		 pop	 ebp
  0001e	c3		 ret	 0
$LN4@RecvPhaseP:

; 596  : 		return false;
; 597  : 
; 598  : 	switch (packet_phase.phase)

  0001f	0f b6 44 24 05	 movzx	 eax, BYTE PTR _packet_phase$[esp+9]
  00024	83 f8 05	 cmp	 eax, 5
  00027	77 60		 ja	 SHORT $LN11@RecvPhaseP
  00029	ff 24 85 00 00
	00 00		 jmp	 DWORD PTR $LN13@RecvPhaseP[eax*4]
$LN5@RecvPhaseP:

; 599  : 	{
; 600  : 		case PHASE_CLOSE:				//   (   )
; 601  : 			ClosePhase();

  00030	8b ce		 mov	 ecx, esi
  00032	e8 00 00 00 00	 call	 ?ClosePhase@CPythonNetworkStream@@QAEXXZ ; CPythonNetworkStream::ClosePhase

; 631  : #if defined(ENABLE_DISCORD_RPC)
; 632  : 			Discord_Update(true);
; 633  : #endif
; 634  : 			break;
; 635  : 
; 636  : 		case PHASE_DEAD:				//  .. (    ..)
; 637  : 			break;
; 638  : 	}
; 639  : 
; 640  : 	return true;

  00037	b0 01		 mov	 al, 1

; 641  : }

  00039	5e		 pop	 esi
  0003a	8b e5		 mov	 esp, ebp
  0003c	5d		 pop	 ebp
  0003d	c3		 ret	 0
$LN6@RecvPhaseP:

; 602  : 			break;
; 603  : 
; 604  : 		case PHASE_HANDSHAKE:			// ..;;
; 605  : 			SetHandShakePhase();

  0003e	8b ce		 mov	 ecx, esi
  00040	e8 00 00 00 00	 call	 ?SetHandShakePhase@CPythonNetworkStream@@QAEXXZ ; CPythonNetworkStream::SetHandShakePhase

; 631  : #if defined(ENABLE_DISCORD_RPC)
; 632  : 			Discord_Update(true);
; 633  : #endif
; 634  : 			break;
; 635  : 
; 636  : 		case PHASE_DEAD:				//  .. (    ..)
; 637  : 			break;
; 638  : 	}
; 639  : 
; 640  : 	return true;

  00045	b0 01		 mov	 al, 1

; 641  : }

  00047	5e		 pop	 esi
  00048	8b e5		 mov	 esp, ebp
  0004a	5d		 pop	 ebp
  0004b	c3		 ret	 0
$LN7@RecvPhaseP:

; 606  : 			break;
; 607  : 
; 608  : 		case PHASE_LOGIN:				//  
; 609  : 			SetLoginPhase();

  0004c	8b ce		 mov	 ecx, esi
  0004e	e8 00 00 00 00	 call	 ?SetLoginPhase@CPythonNetworkStream@@QAEXXZ ; CPythonNetworkStream::SetLoginPhase

; 631  : #if defined(ENABLE_DISCORD_RPC)
; 632  : 			Discord_Update(true);
; 633  : #endif
; 634  : 			break;
; 635  : 
; 636  : 		case PHASE_DEAD:				//  .. (    ..)
; 637  : 			break;
; 638  : 	}
; 639  : 
; 640  : 	return true;

  00053	b0 01		 mov	 al, 1

; 641  : }

  00055	5e		 pop	 esi
  00056	8b e5		 mov	 esp, ebp
  00058	5d		 pop	 ebp
  00059	c3		 ret	 0
$LN8@RecvPhaseP:

; 610  : 			break;
; 611  : 
; 612  : 		case PHASE_SELECT:				//   
; 613  : 			SetSelectPhase();

  0005a	8b ce		 mov	 ecx, esi
  0005c	e8 00 00 00 00	 call	 ?SetSelectPhase@CPythonNetworkStream@@QAEXXZ ; CPythonNetworkStream::SetSelectPhase

; 614  : #if defined(ENABLE_DISCORD_RPC)
; 615  : 			Discord_Update(false);
; 616  : #endif
; 617  : 
; 618  : 			BuildProcessCRC();

  00061	e8 00 00 00 00	 call	 ?BuildProcessCRC@@YAXXZ	; BuildProcessCRC

; 619  : 	
; 620  : 			// MARK_BUG_FIX
; 621  : 			__DownloadMark();

  00066	8b ce		 mov	 ecx, esi
  00068	e8 00 00 00 00	 call	 ?__DownloadMark@CPythonNetworkStream@@IAEXXZ ; CPythonNetworkStream::__DownloadMark

; 631  : #if defined(ENABLE_DISCORD_RPC)
; 632  : 			Discord_Update(true);
; 633  : #endif
; 634  : 			break;
; 635  : 
; 636  : 		case PHASE_DEAD:				//  .. (    ..)
; 637  : 			break;
; 638  : 	}
; 639  : 
; 640  : 	return true;

  0006d	b0 01		 mov	 al, 1

; 641  : }

  0006f	5e		 pop	 esi
  00070	8b e5		 mov	 esp, ebp
  00072	5d		 pop	 ebp
  00073	c3		 ret	 0
$LN9@RecvPhaseP:

; 622  : 			// END_OF_MARK_BUG_FIX
; 623  : 			break;
; 624  : 
; 625  : 		case PHASE_LOADING:				//    
; 626  : 			SetLoadingPhase();

  00074	8b ce		 mov	 ecx, esi
  00076	e8 00 00 00 00	 call	 ?SetLoadingPhase@CPythonNetworkStream@@QAEXXZ ; CPythonNetworkStream::SetLoadingPhase

; 631  : #if defined(ENABLE_DISCORD_RPC)
; 632  : 			Discord_Update(true);
; 633  : #endif
; 634  : 			break;
; 635  : 
; 636  : 		case PHASE_DEAD:				//  .. (    ..)
; 637  : 			break;
; 638  : 	}
; 639  : 
; 640  : 	return true;

  0007b	b0 01		 mov	 al, 1

; 641  : }

  0007d	5e		 pop	 esi
  0007e	8b e5		 mov	 esp, ebp
  00080	5d		 pop	 ebp
  00081	c3		 ret	 0
$LN10@RecvPhaseP:

; 627  : 			break;
; 628  : 
; 629  : 		case PHASE_GAME:				//  
; 630  : 			SetGamePhase();

  00082	8b ce		 mov	 ecx, esi
  00084	e8 00 00 00 00	 call	 ?SetGamePhase@CPythonNetworkStream@@QAEXXZ ; CPythonNetworkStream::SetGamePhase
$LN11@RecvPhaseP:

; 631  : #if defined(ENABLE_DISCORD_RPC)
; 632  : 			Discord_Update(true);
; 633  : #endif
; 634  : 			break;
; 635  : 
; 636  : 		case PHASE_DEAD:				//  .. (    ..)
; 637  : 			break;
; 638  : 	}
; 639  : 
; 640  : 	return true;

  00089	b0 01		 mov	 al, 1

; 641  : }

  0008b	5e		 pop	 esi
  0008c	8b e5		 mov	 esp, ebp
  0008e	5d		 pop	 ebp
  0008f	c3		 ret	 0
$LN13@RecvPhaseP:
  00090	00 00 00 00	 DD	 $LN5@RecvPhaseP
  00094	00 00 00 00	 DD	 $LN6@RecvPhaseP
  00098	00 00 00 00	 DD	 $LN7@RecvPhaseP
  0009c	00 00 00 00	 DD	 $LN8@RecvPhaseP
  000a0	00 00 00 00	 DD	 $LN9@RecvPhaseP
  000a4	00 00 00 00	 DD	 $LN10@RecvPhaseP
?RecvPhasePacket@CPythonNetworkStream@@IAE_NXZ ENDP	; CPythonNetworkStream::RecvPhasePacket
_TEXT	ENDS
; Function compile flags: /Ogtp
; File D:\_m2work\Server Client TMP4\ClientVS22\source\UserInterface\PythonNetworkStream.cpp
;	COMDAT ?RecvPingPacket@CPythonNetworkStream@@IAE_NXZ
_TEXT	SEGMENT
_kPacketPing$ = -2					; size = 1
_kPacketPong$ = -1					; size = 1
?RecvPingPacket@CPythonNetworkStream@@IAE_NXZ PROC	; CPythonNetworkStream::RecvPingPacket, COMDAT
; _this$ = ecx

; 644  : {

  00000	55		 push	 ebp
  00001	8b ec		 mov	 ebp, esp
  00003	51		 push	 ecx
  00004	56		 push	 esi
  00005	8b f1		 mov	 esi, ecx

; 645  : 	Tracef("recv ping packet. (securitymode %u)\n", IsSecurityMode());

  00007	e8 00 00 00 00	 call	 ?IsSecurityMode@CNetworkStream@@QAE_NXZ ; CNetworkStream::IsSecurityMode
  0000c	0f b6 c0	 movzx	 eax, al
  0000f	50		 push	 eax
  00010	68 00 00 00 00	 push	 OFFSET ??_C@_0CF@JLNGLGD@recv?5ping?5packet?4?5?$CIsecuritymode@
  00015	e8 00 00 00 00	 call	 ?Tracef@@YAXPBDZZ	; Tracef
  0001a	83 c4 08	 add	 esp, 8

; 646  : 
; 647  : 	TPacketGCPing kPacketPing;
; 648  : 
; 649  : 	if (!Recv(sizeof(TPacketGCPing), &kPacketPing))

  0001d	8d 45 fe	 lea	 eax, DWORD PTR _kPacketPing$[ebp]
  00020	8b ce		 mov	 ecx, esi
  00022	50		 push	 eax
  00023	6a 01		 push	 1
  00025	e8 00 00 00 00	 call	 ?Recv@CNetworkStream@@QAE_NHPAX@Z ; CNetworkStream::Recv
  0002a	84 c0		 test	 al, al
  0002c	74 3e		 je	 SHORT $LN7@RecvPingPa

; 650  : 		return false;
; 651  : 
; 652  : 	m_dwLastGamePingTime = ELTimer_GetMSec();

  0002e	e8 00 00 00 00	 call	 ?ELTimer_GetMSec@@YAKXZ	; ELTimer_GetMSec
  00033	89 86 c0 00 00
	00		 mov	 DWORD PTR [esi+192], eax

; 653  : 
; 654  : 	TPacketCGPong kPacketPong;
; 655  : 	kPacketPong.bHeader = HEADER_CG_PONG;
; 656  : 
; 657  : 	if (!Send(sizeof(TPacketCGPong), &kPacketPong))

  00039	8b ce		 mov	 ecx, esi
  0003b	8d 45 ff	 lea	 eax, DWORD PTR _kPacketPong$[ebp]
  0003e	c6 45 ff fe	 mov	 BYTE PTR _kPacketPong$[ebp], 254 ; 000000feH
  00042	50		 push	 eax
  00043	6a 01		 push	 1
  00045	e8 00 00 00 00	 call	 ?Send@CNetworkStream@@QAE_NHPBX@Z ; CNetworkStream::Send
  0004a	84 c0		 test	 al, al
  0004c	74 1e		 je	 SHORT $LN7@RecvPingPa

; 659  : 
; 660  : 	if (IsSecurityMode())

  0004e	8b ce		 mov	 ecx, esi
  00050	e8 00 00 00 00	 call	 ?IsSecurityMode@CNetworkStream@@QAE_NXZ ; CNetworkStream::IsSecurityMode
  00055	84 c0		 test	 al, al
  00057	74 0c		 je	 SHORT $LN4@RecvPingPa

; 661  : 		return SendSequence();

  00059	8b ce		 mov	 ecx, esi
  0005b	e8 00 00 00 00	 call	 ?SendSequence@CNetworkStream@@QAE_NXZ ; CNetworkStream::SendSequence
  00060	5e		 pop	 esi

; 664  : }

  00061	8b e5		 mov	 esp, ebp
  00063	5d		 pop	 ebp
  00064	c3		 ret	 0
$LN4@RecvPingPa:

; 662  : 	else
; 663  : 		return true;

  00065	b0 01		 mov	 al, 1
  00067	5e		 pop	 esi

; 664  : }

  00068	8b e5		 mov	 esp, ebp
  0006a	5d		 pop	 ebp
  0006b	c3		 ret	 0
$LN7@RecvPingPa:

; 658  : 		return false;

  0006c	32 c0		 xor	 al, al
  0006e	5e		 pop	 esi

; 664  : }

  0006f	8b e5		 mov	 esp, ebp
  00071	5d		 pop	 ebp
  00072	c3		 ret	 0
?RecvPingPacket@CPythonNetworkStream@@IAE_NXZ ENDP	; CPythonNetworkStream::RecvPingPacket
_TEXT	ENDS
; Function compile flags: /Ogtp
; File D:\_m2work\Server Client TMP4\ClientVS22\source\UserInterface\PythonNetworkStream.cpp
; File C:\Program Files\Microsoft Visual Studio\2022\Community\VC\Tools\MSVC\14.44.35207\include\xstring
; File D:\_m2work\Server Client TMP4\ClientVS22\source\UserInterface\PythonNetworkStream.cpp
;	COMDAT ?RecvDefaultPacket@CPythonNetworkStream@@IAE_NH@Z
_TEXT	SEGMENT
_header$ = 8						; size = 4
?RecvDefaultPacket@CPythonNetworkStream@@IAE_NH@Z PROC	; CPythonNetworkStream::RecvDefaultPacket, COMDAT
; _this$ = ecx

; 667  : {

  00000	55		 push	 ebp
  00001	8b ec		 mov	 ebp, esp

; 668  : 	if (!header)

  00003	8b 55 08	 mov	 edx, DWORD PTR _header$[ebp]
  00006	56		 push	 esi
  00007	8b f1		 mov	 esi, ecx
  00009	85 d2		 test	 edx, edx
  0000b	74 27		 je	 SHORT $LN16@RecvDefaul
; File C:\Program Files\Microsoft Visual Studio\2022\Community\VC\Tools\MSVC\14.44.35207\include\xstring

; 453  :         return _Myres > _Small_string_capacity;

  0000d	83 be 20 01 00
	00 0f		 cmp	 DWORD PTR [esi+288], 15	; 0000000fH

; 2356 :         return _Mypair._Myval2._Myptr();

  00014	8d 86 0c 01 00
	00		 lea	 eax, DWORD PTR [esi+268]

; 445  :         if (_Large_mode_engaged()) {

  0001a	76 02		 jbe	 SHORT $LN8@RecvDefaul

; 446  :             _Result = _Unfancy(_Bx._Ptr);

  0001c	8b 00		 mov	 eax, DWORD PTR [eax]
$LN8@RecvDefaul:
; File D:\_m2work\Server Client TMP4\ClientVS22\source\UserInterface\PythonNetworkStream.cpp

; 671  : 	TraceError("    %d, state %s\n", header, m_strPhase.c_str());

  0001e	50		 push	 eax
  0001f	52		 push	 edx
  00020	68 00 00 00 00	 push	 OFFSET ??_C@_0CG@IOPHKJBJ@?C?$LD?$LI?$KO?$LF?G?A?v?5?$LO?J?$MA?$LK?5?F?P?E?$LG?5?G?l?$LE?u?5?$CFd?0?5sta@
  00025	e8 00 00 00 00	 call	 ?TraceError@@YAXPBDZZ	; TraceError
  0002a	83 c4 0c	 add	 esp, 12			; 0000000cH

; 672  : 	ClearRecvBuffer();

  0002d	8b ce		 mov	 ecx, esi
  0002f	e8 00 00 00 00	 call	 ?ClearRecvBuffer@CNetworkStream@@QAEXXZ ; CNetworkStream::ClearRecvBuffer
$LN16@RecvDefaul:

; 673  : 	return true;
; 674  : }

  00034	b0 01		 mov	 al, 1
  00036	5e		 pop	 esi
  00037	5d		 pop	 ebp
  00038	c2 04 00	 ret	 4
?RecvDefaultPacket@CPythonNetworkStream@@IAE_NH@Z ENDP	; CPythonNetworkStream::RecvDefaultPacket
_TEXT	ENDS
; Function compile flags: /Ogtp
; File D:\_m2work\Server Client TMP4\ClientVS22\source\UserInterface\PythonNetworkStream.cpp
; File D:\_m2work\Server Client TMP4\ClientVS22\source\EterLib\FuncObject.h
; File D:\_m2work\Server Client TMP4\ClientVS22\source\UserInterface\PythonNetworkStream.cpp
;	COMDAT ?OnProcess@CPythonNetworkStream@@MAE_NXZ
_TEXT	SEGMENT
?OnProcess@CPythonNetworkStream@@MAE_NXZ PROC		; CPythonNetworkStream::OnProcess, COMDAT
; _this$ = ecx

; 677  : {

  00000	56		 push	 esi
  00001	8b f1		 mov	 esi, ecx

; 678  : 	if (m_isStartGame)

  00003	83 be ac 00 00
	00 00		 cmp	 DWORD PTR [esi+172], 0
  0000a	74 29		 je	 SHORT $LN2@OnProcess

; 679  : 	{
; 680  : 		m_isStartGame = FALSE;
; 681  : 
; 682  : 		PyCallClassMemberFunc(m_poHandler, "SetGamePhase", Py_BuildValue("()"));

  0000c	68 00 00 00 00	 push	 OFFSET ??_C@_02HCKGKOFO@?$CI?$CJ@
  00011	c7 86 ac 00 00
	00 00 00 00 00	 mov	 DWORD PTR [esi+172], 0
  0001b	ff 15 00 00 00
	00		 call	 DWORD PTR __imp__Py_BuildValue
  00021	50		 push	 eax
  00022	68 00 00 00 00	 push	 OFFSET ??_C@_0N@HHLEGKEL@SetGamePhase@
  00027	ff b6 78 01 00
	00		 push	 DWORD PTR [esi+376]
  0002d	e8 00 00 00 00	 call	 ?PyCallClassMemberFunc@@YA_NPAU_object@@PBD0@Z ; PyCallClassMemberFunc
  00032	83 c4 10	 add	 esp, 16			; 00000010H
$LN2@OnProcess:

; 683  : //		PyCallClassMemberFunc(m_apoPhaseWnd[PHASE_WINDOW_GAME], "StartGame", Py_BuildValue("()"));
; 684  : 	}
; 685  : 	
; 686  : 	m_rokNetActorMgr->Update();

  00035	8b 8e 0c 03 00
	00		 mov	 ecx, DWORD PTR [esi+780]
  0003b	e8 00 00 00 00	 call	 ?Update@CNetworkActorManager@@QAEXXZ ; CNetworkActorManager::Update
; File D:\_m2work\Server Client TMP4\ClientVS22\source\EterLib\FuncObject.h

; 30   : 			if (m_pSelfObject != NULL)

  00040	8b 86 50 01 00
	00		 mov	 eax, DWORD PTR [esi+336]
  00046	85 c0		 test	 eax, eax
  00048	74 14		 je	 SHORT $LN26@OnProcess

; 42   : 				if (m_pFuncObject)

  0004a	8b 96 58 01 00
	00		 mov	 edx, DWORD PTR [esi+344]
  00050	85 d2		 test	 edx, edx
  00052	74 0a		 je	 SHORT $LN26@OnProcess

; 43   : 					(m_pSelfObject->*m_pFuncObject)();

  00054	8b 8e 5c 01 00
	00		 mov	 ecx, DWORD PTR [esi+348]
  0005a	03 c8		 add	 ecx, eax
  0005c	ff d2		 call	 edx
$LN26@OnProcess:
; File D:\_m2work\Server Client TMP4\ClientVS22\source\UserInterface\PythonNetworkStream.cpp

; 698  : }

  0005e	b0 01		 mov	 al, 1
  00060	5e		 pop	 esi
  00061	c3		 ret	 0
?OnProcess@CPythonNetworkStream@@MAE_NXZ ENDP		; CPythonNetworkStream::OnProcess
_TEXT	ENDS
; Function compile flags: /Ogtp
; File D:\_m2work\Server Client TMP4\ClientVS22\source\UserInterface\PythonNetworkStream.cpp
; File D:\_m2work\Server Client TMP4\ClientVS22\source\EterLib\FuncObject.h
; File C:\Program Files\Microsoft Visual Studio\2022\Community\VC\Tools\MSVC\14.44.35207\include\xstring
; File D:\_m2work\Server Client TMP4\ClientVS22\source\UserInterface\PythonNetworkStream.cpp
; File D:\_m2work\Server Client TMP4\ClientVS22\source\EterLib\FuncObject.h
; File D:\_m2work\Server Client TMP4\ClientVS22\source\UserInterface\PythonNetworkStream.cpp
;	COMDAT ?SetOffLinePhase@CPythonNetworkStream@@QAEXXZ
_TEXT	SEGMENT
?SetOffLinePhase@CPythonNetworkStream@@QAEXXZ PROC	; CPythonNetworkStream::SetOffLinePhase, COMDAT
; _this$ = ecx

; 703  : {

  00000	55		 push	 ebp
  00001	8b ec		 mov	 ebp, esp
  00003	83 e4 f8	 and	 esp, -8			; fffffff8H
  00006	56		 push	 esi
  00007	8b f1		 mov	 esi, ecx
  00009	57		 push	 edi

; 704  : 	if ("OffLine" != m_strPhase)

  0000a	68 00 00 00 00	 push	 OFFSET ??_C@_07NNEFBBEG@OffLine@
  0000f	8d be 0c 01 00
	00		 lea	 edi, DWORD PTR [esi+268]
  00015	57		 push	 edi
  00016	e8 00 00 00 00	 call	 ??$?8DU?$char_traits@D@std@@V?$allocator@D@1@@std@@YA_NABV?$basic_string@DU?$char_traits@D@std@@V?$allocator@D@2@@0@QBD@Z ; std::operator==<char,std::char_traits<char>,std::allocator<char> >
  0001b	83 c4 08	 add	 esp, 8
  0001e	84 c0		 test	 al, al
  00020	75 1e		 jne	 SHORT $LN6@SetOffLine
; File D:\_m2work\Server Client TMP4\ClientVS22\source\EterLib\FuncObject.h

; 41   : 			if (m_pSelfObject)

  00022	8b 86 68 01 00
	00		 mov	 eax, DWORD PTR [esi+360]
  00028	85 c0		 test	 eax, eax
  0002a	74 14		 je	 SHORT $LN6@SetOffLine

; 42   : 				if (m_pFuncObject)

  0002c	8b 96 70 01 00
	00		 mov	 edx, DWORD PTR [esi+368]
  00032	85 d2		 test	 edx, edx
  00034	74 0a		 je	 SHORT $LN6@SetOffLine

; 43   : 					(m_pSelfObject->*m_pFuncObject)();

  00036	8b 8e 74 01 00
	00		 mov	 ecx, DWORD PTR [esi+372]
  0003c	03 c8		 add	 ecx, eax
  0003e	ff d2		 call	 edx
$LN6@SetOffLine:
; File C:\Program Files\Microsoft Visual Studio\2022\Community\VC\Tools\MSVC\14.44.35207\include\xstring

; 1638 :         return assign(_Ptr, _Convert_size<size_type>(_Traits::length(_Ptr)));

  00040	6a 07		 push	 7
  00042	68 00 00 00 00	 push	 OFFSET ??_C@_07NNEFBBEG@OffLine@
  00047	8b cf		 mov	 ecx, edi
  00049	e8 00 00 00 00	 call	 ?assign@?$basic_string@DU?$char_traits@D@std@@V?$allocator@D@2@@std@@QAEAAV12@QBDI@Z ; std::basic_string<char,std::char_traits<char>,std::allocator<char> >::assign
; File D:\_m2work\Server Client TMP4\ClientVS22\source\UserInterface\PythonNetworkStream.cpp

; 709  : 	Tracen("");

  0004e	68 00 00 00 00	 push	 OFFSET ??_C@_00CNPNBAHC@@
  00053	e8 00 00 00 00	 call	 ?Tracen@@YAXPBD@Z	; Tracen
  00058	83 c4 04	 add	 esp, 4

; 710  : 	Tracen("## Network - OffLine Phase ##");	

  0005b	68 00 00 00 00	 push	 OFFSET ??_C@_0BO@NMFMGDDG@?$CD?$CD?5Network?5?9?5OffLine?5Phase?5?$CD?$CD@
  00060	e8 00 00 00 00	 call	 ?Tracen@@YAXPBD@Z	; Tracen
  00065	83 c4 04	 add	 esp, 4

; 711  : 	Tracen("");

  00068	68 00 00 00 00	 push	 OFFSET ??_C@_00CNPNBAHC@@
  0006d	e8 00 00 00 00	 call	 ?Tracen@@YAXPBD@Z	; Tracen
  00072	83 c4 04	 add	 esp, 4

; 712  : 	
; 713  : #if defined(ENABLE_DISCORD_RPC)
; 714  : 	Discord_Update(false);
; 715  : #endif
; 716  : 
; 717  : 	m_dwChangingPhaseTime = ELTimer_GetMSec();

  00075	e8 00 00 00 00	 call	 ?ELTimer_GetMSec@@YAKXZ	; ELTimer_GetMSec
  0007a	89 86 90 00 00
	00		 mov	 DWORD PTR [esi+144], eax

; 721  : 	SetGameOffline();

  00080	8b ce		 mov	 ecx, esi
; File D:\_m2work\Server Client TMP4\ClientVS22\source\EterLib\FuncObject.h

; 24   : 			m_pSelfObject = pSelfObject;

  00082	89 b6 50 01 00
	00		 mov	 DWORD PTR [esi+336], esi

; 25   : 			m_pFuncObject = pFuncObject;

  00088	c7 86 58 01 00
	00 00 00 00 00	 mov	 DWORD PTR [esi+344], OFFSET ?OffLinePhase@CPythonNetworkStream@@IAEXXZ ; CPythonNetworkStream::OffLinePhase
  00092	c7 86 5c 01 00
	00 00 00 00 00	 mov	 DWORD PTR [esi+348], 0

; 24   : 			m_pSelfObject = pSelfObject;

  0009c	89 b6 68 01 00
	00		 mov	 DWORD PTR [esi+360], esi

; 25   : 			m_pFuncObject = pFuncObject;

  000a2	c7 86 70 01 00
	00 00 00 00 00	 mov	 DWORD PTR [esi+368], OFFSET ?__LeaveOfflinePhase@CPythonNetworkStream@@IAEXXZ ; CPythonNetworkStream::__LeaveOfflinePhase
  000ac	c7 86 74 01 00
	00 00 00 00 00	 mov	 DWORD PTR [esi+372], 0
; File D:\_m2work\Server Client TMP4\ClientVS22\source\UserInterface\PythonNetworkStream.cpp

; 721  : 	SetGameOffline();

  000b6	e8 00 00 00 00	 call	 ?SetGameOffline@CPythonNetworkStream@@IAEXXZ ; CPythonNetworkStream::SetGameOffline

; 722  : 
; 723  : 	m_dwSelectedCharacterIndex = 0;

  000bb	c7 86 10 79 00
	00 00 00 00 00	 mov	 DWORD PTR [esi+30992], 0

; 724  : 
; 725  : 	__DirectEnterMode_Initialize();

  000c5	e8 00 00 00 00	 call	 ?__DirectEnterMode_Initialize@CPythonNetworkStream@@AAEXXZ ; CPythonNetworkStream::__DirectEnterMode_Initialize

; 726  : 	__BettingGuildWar_Initialize();

  000ca	e8 00 00 00 00	 call	 ?__BettingGuildWar_Initialize@CPythonNetworkStream@@AAEXXZ ; CPythonNetworkStream::__BettingGuildWar_Initialize

; 727  : }

  000cf	5f		 pop	 edi
  000d0	5e		 pop	 esi
  000d1	8b e5		 mov	 esp, ebp
  000d3	5d		 pop	 ebp
  000d4	c3		 ret	 0
?SetOffLinePhase@CPythonNetworkStream@@QAEXXZ ENDP	; CPythonNetworkStream::SetOffLinePhase
_TEXT	ENDS
; Function compile flags: /Ogtp
; File D:\_m2work\Server Client TMP4\ClientVS22\source\UserInterface\PythonNetworkStream.cpp
;	COMDAT ?ClosePhase@CPythonNetworkStream@@QAEXXZ
_TEXT	SEGMENT
?ClosePhase@CPythonNetworkStream@@QAEXXZ PROC		; CPythonNetworkStream::ClosePhase, COMDAT
; _this$ = ecx

; 731  : {

  00000	56		 push	 esi

; 732  : 	PyCallClassMemberFunc(m_poHandler, "SetLoginPhase", Py_BuildValue("()"));

  00001	68 00 00 00 00	 push	 OFFSET ??_C@_02HCKGKOFO@?$CI?$CJ@
  00006	8b f1		 mov	 esi, ecx
  00008	ff 15 00 00 00
	00		 call	 DWORD PTR __imp__Py_BuildValue
  0000e	50		 push	 eax
  0000f	68 00 00 00 00	 push	 OFFSET ??_C@_0O@PJEEOCNO@SetLoginPhase@
  00014	ff b6 78 01 00
	00		 push	 DWORD PTR [esi+376]
  0001a	e8 00 00 00 00	 call	 ?PyCallClassMemberFunc@@YA_NPAU_object@@PBD0@Z ; PyCallClassMemberFunc
  0001f	83 c4 10	 add	 esp, 16			; 00000010H
  00022	5e		 pop	 esi

; 733  : }

  00023	c3		 ret	 0
?ClosePhase@CPythonNetworkStream@@QAEXXZ ENDP		; CPythonNetworkStream::ClosePhase
_TEXT	ENDS
; Function compile flags: /Ogtp
; File D:\_m2work\Server Client TMP4\ClientVS22\source\UserInterface\PythonNetworkStream.cpp
;	COMDAT ?SetGameOnline@CPythonNetworkStream@@IAEXXZ
_TEXT	SEGMENT
?SetGameOnline@CPythonNetworkStream@@IAEXXZ PROC	; CPythonNetworkStream::SetGameOnline, COMDAT
; _this$ = ecx

; 738  : 	m_isGameOnline = TRUE;

  00000	c7 81 a8 00 00
	00 01 00 00 00	 mov	 DWORD PTR [ecx+168], 1

; 739  : }

  0000a	c3		 ret	 0
?SetGameOnline@CPythonNetworkStream@@IAEXXZ ENDP	; CPythonNetworkStream::SetGameOnline
_TEXT	ENDS
; Function compile flags: /Ogtp
; File D:\_m2work\Server Client TMP4\ClientVS22\source\UserInterface\PythonNetworkStream.cpp
;	COMDAT ?SetGameOffline@CPythonNetworkStream@@IAEXXZ
_TEXT	SEGMENT
?SetGameOffline@CPythonNetworkStream@@IAEXXZ PROC	; CPythonNetworkStream::SetGameOffline, COMDAT
; _this$ = ecx

; 743  : 	m_isGameOnline = FALSE;

  00000	c7 81 a8 00 00
	00 00 00 00 00	 mov	 DWORD PTR [ecx+168], 0

; 744  : }

  0000a	c3		 ret	 0
?SetGameOffline@CPythonNetworkStream@@IAEXXZ ENDP	; CPythonNetworkStream::SetGameOffline
_TEXT	ENDS
; Function compile flags: /Ogtp
; File D:\_m2work\Server Client TMP4\ClientVS22\source\UserInterface\PythonNetworkStream.cpp
;	COMDAT ?SetHandler@CPythonNetworkStream@@QAEXPAU_object@@@Z
_TEXT	SEGMENT
_poHandler$ = 8						; size = 4
?SetHandler@CPythonNetworkStream@@QAEXPAU_object@@@Z PROC ; CPythonNetworkStream::SetHandler, COMDAT
; _this$ = ecx

; 753  : {

  00000	55		 push	 ebp
  00001	8b ec		 mov	 ebp, esp

; 754  : 	m_poHandler = poHandler;

  00003	8b 45 08	 mov	 eax, DWORD PTR _poHandler$[ebp]
  00006	89 81 78 01 00
	00		 mov	 DWORD PTR [ecx+376], eax

; 755  : }

  0000c	5d		 pop	 ebp
  0000d	c2 04 00	 ret	 4
?SetHandler@CPythonNetworkStream@@QAEXPAU_object@@@Z ENDP ; CPythonNetworkStream::SetHandler
_TEXT	ENDS
; Function compile flags: /Ogtp
; File D:\_m2work\Server Client TMP4\ClientVS22\source\UserInterface\PythonNetworkStream.cpp
;	COMDAT ?GetMainActorVID@CPythonNetworkStream@@QAEKXZ
_TEXT	SEGMENT
?GetMainActorVID@CPythonNetworkStream@@QAEKXZ PROC	; CPythonNetworkStream::GetMainActorVID, COMDAT
; _this$ = ecx

; 760  : 	return m_dwMainActorVID;

  00000	8b 81 98 00 00
	00		 mov	 eax, DWORD PTR [ecx+152]

; 761  : }

  00006	c3		 ret	 0
?GetMainActorVID@CPythonNetworkStream@@QAEKXZ ENDP	; CPythonNetworkStream::GetMainActorVID
_TEXT	ENDS
; Function compile flags: /Ogtp
; File D:\_m2work\Server Client TMP4\ClientVS22\source\UserInterface\PythonNetworkStream.cpp
;	COMDAT ?GetMainActorRace@CPythonNetworkStream@@QAEKXZ
_TEXT	SEGMENT
?GetMainActorRace@CPythonNetworkStream@@QAEKXZ PROC	; CPythonNetworkStream::GetMainActorRace, COMDAT
; _this$ = ecx

; 765  : 	return m_dwMainActorRace;

  00000	8b 81 9c 00 00
	00		 mov	 eax, DWORD PTR [ecx+156]

; 766  : }

  00006	c3		 ret	 0
?GetMainActorRace@CPythonNetworkStream@@QAEKXZ ENDP	; CPythonNetworkStream::GetMainActorRace
_TEXT	ENDS
; Function compile flags: /Ogtp
; File D:\_m2work\Server Client TMP4\ClientVS22\source\UserInterface\PythonNetworkStream.cpp
;	COMDAT ?GetMainActorEmpire@CPythonNetworkStream@@QAEKXZ
_TEXT	SEGMENT
?GetMainActorEmpire@CPythonNetworkStream@@QAEKXZ PROC	; CPythonNetworkStream::GetMainActorEmpire, COMDAT
; _this$ = ecx

; 770  : 	return m_dwMainActorEmpire;

  00000	8b 81 a0 00 00
	00		 mov	 eax, DWORD PTR [ecx+160]

; 771  : }

  00006	c3		 ret	 0
?GetMainActorEmpire@CPythonNetworkStream@@QAEKXZ ENDP	; CPythonNetworkStream::GetMainActorEmpire
_TEXT	ENDS
; Function compile flags: /Ogtp
; File D:\_m2work\Server Client TMP4\ClientVS22\source\UserInterface\PythonNetworkStream.cpp
;	COMDAT ?GetMainActorSkillGroup@CPythonNetworkStream@@QAEKXZ
_TEXT	SEGMENT
?GetMainActorSkillGroup@CPythonNetworkStream@@QAEKXZ PROC ; CPythonNetworkStream::GetMainActorSkillGroup, COMDAT
; _this$ = ecx

; 775  : 	return m_dwMainActorSkillGroup;

  00000	8b 81 a4 00 00
	00		 mov	 eax, DWORD PTR [ecx+164]

; 776  : }

  00006	c3		 ret	 0
?GetMainActorSkillGroup@CPythonNetworkStream@@QAEKXZ ENDP ; CPythonNetworkStream::GetMainActorSkillGroup
_TEXT	ENDS
; Function compile flags: /Ogtp
; File D:\_m2work\Server Client TMP4\ClientVS22\source\UserInterface\PythonNetworkStream.cpp
;	COMDAT ?SetEmpireID@CPythonNetworkStream@@QAEXK@Z
_TEXT	SEGMENT
_dwEmpireID$ = 8					; size = 4
?SetEmpireID@CPythonNetworkStream@@QAEXK@Z PROC		; CPythonNetworkStream::SetEmpireID, COMDAT
; _this$ = ecx

; 779  : {

  00000	55		 push	 ebp
  00001	8b ec		 mov	 ebp, esp

; 780  : 	m_dwEmpireID = dwEmpireID;

  00003	8b 45 08	 mov	 eax, DWORD PTR _dwEmpireID$[ebp]
  00006	89 81 b4 00 00
	00		 mov	 DWORD PTR [ecx+180], eax

; 781  : }

  0000c	5d		 pop	 ebp
  0000d	c2 04 00	 ret	 4
?SetEmpireID@CPythonNetworkStream@@QAEXK@Z ENDP		; CPythonNetworkStream::SetEmpireID
_TEXT	ENDS
; Function compile flags: /Ogtp
; File D:\_m2work\Server Client TMP4\ClientVS22\source\UserInterface\PythonNetworkStream.cpp
;	COMDAT ?GetEmpireID@CPythonNetworkStream@@QAEKXZ
_TEXT	SEGMENT
?GetEmpireID@CPythonNetworkStream@@QAEKXZ PROC		; CPythonNetworkStream::GetEmpireID, COMDAT
; _this$ = ecx

; 785  : 	return m_dwEmpireID;

  00000	8b 81 b4 00 00
	00		 mov	 eax, DWORD PTR [ecx+180]

; 786  : }

  00006	c3		 ret	 0
?GetEmpireID@CPythonNetworkStream@@QAEKXZ ENDP		; CPythonNetworkStream::GetEmpireID
_TEXT	ENDS
; Function compile flags: /Ogtp
; File D:\_m2work\Server Client TMP4\ClientVS22\source\UserInterface\PythonNetworkStream.cpp
; File C:\Program Files\Microsoft Visual Studio\2022\Community\VC\Tools\MSVC\14.44.35207\include\xstring
; File D:\_m2work\Server Client TMP4\ClientVS22\source\UserInterface\PythonNetworkStream.cpp
; File C:\Program Files\Microsoft Visual Studio\2022\Community\VC\Tools\MSVC\14.44.35207\include\xstring
; File D:\_m2work\Server Client TMP4\ClientVS22\source\UserInterface\PythonNetworkStream.cpp
;	COMDAT ?__ClearSelectCharacterData@CPythonNetworkStream@@IAEXXZ
_TEXT	SEGMENT
_this$1$ = -4						; size = 4
?__ClearSelectCharacterData@CPythonNetworkStream@@IAEXXZ PROC ; CPythonNetworkStream::__ClearSelectCharacterData, COMDAT
; _this$ = ecx

; 789  : {

  00000	55		 push	 ebp
  00001	8b ec		 mov	 ebp, esp
  00003	51		 push	 ecx
  00004	53		 push	 ebx
  00005	56		 push	 esi
  00006	57		 push	 edi
  00007	89 4d fc	 mov	 DWORD PTR _this$1$[ebp], ecx

; 790  : 	NANOBEGIN

  0000a	eb		 DB	 -21			; ffffffebH
  0000b	03		 DB	 3
  0000c	d6		 DB	 -42			; ffffffd6H
  0000d	d7		 DB	 -41			; ffffffd7H
  0000e	01		 DB	 1
  0000f	8b 5d fc	 mov	 ebx, DWORD PTR _this$1$[ebp]
  00012	68 fc 00 00 00	 push	 252			; 000000fcH
  00017	6a 00		 push	 0
  00019	8d 83 9c 01 00
	00		 lea	 eax, DWORD PTR [ebx+412]
  0001f	50		 push	 eax
  00020	e8 00 00 00 00	 call	 _memset
  00025	8d bb a8 02 00
	00		 lea	 edi, DWORD PTR [ebx+680]
  0002b	83 c4 0c	 add	 esp, 12			; 0000000cH
  0002e	8d b3 98 02 00
	00		 lea	 esi, DWORD PTR [ebx+664]
  00034	bb 04 00 00 00	 mov	 ebx, 4
  00039	0f 1f 80 00 00
	00 00		 npad	 7
$LL4@ClearSelec:
; File C:\Program Files\Microsoft Visual Studio\2022\Community\VC\Tools\MSVC\14.44.35207\include\xstring

; 1638 :         return assign(_Ptr, _Convert_size<size_type>(_Traits::length(_Ptr)));

  00040	6a 00		 push	 0
  00042	68 00 00 00 00	 push	 OFFSET ??_C@_00CNPNBAHC@@
  00047	8b cf		 mov	 ecx, edi
; File D:\_m2work\Server Client TMP4\ClientVS22\source\UserInterface\PythonNetworkStream.cpp

; 795  : 		m_adwGuildID[i] = 0;

  00049	c7 06 00 00 00
	00		 mov	 DWORD PTR [esi], 0
; File C:\Program Files\Microsoft Visual Studio\2022\Community\VC\Tools\MSVC\14.44.35207\include\xstring

; 1638 :         return assign(_Ptr, _Convert_size<size_type>(_Traits::length(_Ptr)));

  0004f	e8 00 00 00 00	 call	 ?assign@?$basic_string@DU?$char_traits@D@std@@V?$allocator@D@2@@std@@QAEAAV12@QBDI@Z ; std::basic_string<char,std::char_traits<char>,std::allocator<char> >::assign
; File D:\_m2work\Server Client TMP4\ClientVS22\source\UserInterface\PythonNetworkStream.cpp

; 793  : 	for (int i = 0; i < PLAYER_PER_ACCOUNT4; ++i)

  00054	83 c7 18	 add	 edi, 24			; 00000018H
  00057	8d 76 04	 lea	 esi, DWORD PTR [esi+4]
  0005a	83 eb 01	 sub	 ebx, 1
  0005d	75 e1		 jne	 SHORT $LL4@ClearSelec

; 796  : 		m_astrGuildName[i] = "";
; 797  : 	}
; 798  : 	NANOEND

  0005f	eb		 DB	 -21			; ffffffebH
  00060	03		 DB	 3
  00061	d6		 DB	 -42			; ffffffd6H
  00062	d7		 DB	 -41			; ffffffd7H
  00063	00		 DB	 0
  00064	5f		 pop	 edi
  00065	5e		 pop	 esi
  00066	5b		 pop	 ebx
  00067	8b e5		 mov	 esp, ebp
  00069	5d		 pop	 ebp
  0006a	c3		 ret	 0
?__ClearSelectCharacterData@CPythonNetworkStream@@IAEXXZ ENDP ; CPythonNetworkStream::__ClearSelectCharacterData
_TEXT	ENDS
; Function compile flags: /Ogtp
; File D:\_m2work\Server Client TMP4\ClientVS22\source\UserInterface\PythonNetworkStream.cpp
;	COMDAT ?__DirectEnterMode_Initialize@CPythonNetworkStream@@AAEXXZ
_TEXT	SEGMENT
?__DirectEnterMode_Initialize@CPythonNetworkStream@@AAEXXZ PROC ; CPythonNetworkStream::__DirectEnterMode_Initialize, COMDAT
; _this$ = ecx

; 803  : 	m_kDirectEnterMode.m_isSet=false;

  00000	c6 81 38 79 00
	00 00		 mov	 BYTE PTR [ecx+31032], 0

; 804  : 	m_kDirectEnterMode.m_dwChrSlotIndex=0;	

  00007	c7 81 3c 79 00
	00 00 00 00 00	 mov	 DWORD PTR [ecx+31036], 0

; 805  : }

  00011	c3		 ret	 0
?__DirectEnterMode_Initialize@CPythonNetworkStream@@AAEXXZ ENDP ; CPythonNetworkStream::__DirectEnterMode_Initialize
_TEXT	ENDS
; Function compile flags: /Ogtp
; File D:\_m2work\Server Client TMP4\ClientVS22\source\UserInterface\PythonNetworkStream.cpp
;	COMDAT ?__DirectEnterMode_Set@CPythonNetworkStream@@AAEXI@Z
_TEXT	SEGMENT
_uChrSlotIndex$ = 8					; size = 4
?__DirectEnterMode_Set@CPythonNetworkStream@@AAEXI@Z PROC ; CPythonNetworkStream::__DirectEnterMode_Set, COMDAT
; _this$ = ecx

; 808  : {

  00000	55		 push	 ebp
  00001	8b ec		 mov	 ebp, esp

; 809  : 	m_kDirectEnterMode.m_isSet=true;
; 810  : 	m_kDirectEnterMode.m_dwChrSlotIndex=uChrSlotIndex;

  00003	8b 45 08	 mov	 eax, DWORD PTR _uChrSlotIndex$[ebp]
  00006	c6 81 38 79 00
	00 01		 mov	 BYTE PTR [ecx+31032], 1
  0000d	89 81 3c 79 00
	00		 mov	 DWORD PTR [ecx+31036], eax

; 811  : }

  00013	5d		 pop	 ebp
  00014	c2 04 00	 ret	 4
?__DirectEnterMode_Set@CPythonNetworkStream@@AAEXI@Z ENDP ; CPythonNetworkStream::__DirectEnterMode_Set
_TEXT	ENDS
; Function compile flags: /Ogtp
; File D:\_m2work\Server Client TMP4\ClientVS22\source\UserInterface\PythonNetworkStream.cpp
;	COMDAT ?__DirectEnterMode_IsSet@CPythonNetworkStream@@AAE_NXZ
_TEXT	SEGMENT
?__DirectEnterMode_IsSet@CPythonNetworkStream@@AAE_NXZ PROC ; CPythonNetworkStream::__DirectEnterMode_IsSet, COMDAT
; _this$ = ecx

; 815  : 	return m_kDirectEnterMode.m_isSet;

  00000	8a 81 38 79 00
	00		 mov	 al, BYTE PTR [ecx+31032]

; 816  : }

  00006	c3		 ret	 0
?__DirectEnterMode_IsSet@CPythonNetworkStream@@AAE_NXZ ENDP ; CPythonNetworkStream::__DirectEnterMode_IsSet
_TEXT	ENDS
; Function compile flags: /Ogtp
; File D:\_m2work\Server Client TMP4\ClientVS22\source\UserInterface\PythonNetworkStream.cpp
;	COMDAT ?__InitializeMarkAuth@CPythonNetworkStream@@IAEXXZ
_TEXT	SEGMENT
?__InitializeMarkAuth@CPythonNetworkStream@@IAEXXZ PROC	; CPythonNetworkStream::__InitializeMarkAuth, COMDAT
; _this$ = ecx

; 820  : 	m_kMarkAuth.m_dwHandle=0;

  00000	c7 81 08 79 00
	00 00 00 00 00	 mov	 DWORD PTR [ecx+30984], 0

; 821  : 	m_kMarkAuth.m_dwRandomKey=0;

  0000a	c7 81 0c 79 00
	00 00 00 00 00	 mov	 DWORD PTR [ecx+30988], 0

; 822  : }

  00014	c3		 ret	 0
?__InitializeMarkAuth@CPythonNetworkStream@@IAEXXZ ENDP	; CPythonNetworkStream::__InitializeMarkAuth
_TEXT	ENDS
; Function compile flags: /Ogtp
; File D:\_m2work\Server Client TMP4\ClientVS22\source\UserInterface\PythonNetworkStream.cpp
;	COMDAT ?__BettingGuildWar_Initialize@CPythonNetworkStream@@AAEXXZ
_TEXT	SEGMENT
?__BettingGuildWar_Initialize@CPythonNetworkStream@@AAEXXZ PROC ; CPythonNetworkStream::__BettingGuildWar_Initialize, COMDAT
; _this$ = ecx

; 826  : 	m_kBettingGuildWar.m_dwBettingMoney=0;

  00000	c7 81 40 79 00
	00 00 00 00 00	 mov	 DWORD PTR [ecx+31040], 0

; 827  : 	m_kBettingGuildWar.m_dwObserverCount=0;

  0000a	c7 81 44 79 00
	00 00 00 00 00	 mov	 DWORD PTR [ecx+31044], 0

; 828  : }

  00014	c3		 ret	 0
?__BettingGuildWar_Initialize@CPythonNetworkStream@@AAEXXZ ENDP ; CPythonNetworkStream::__BettingGuildWar_Initialize
_TEXT	ENDS
; Function compile flags: /Ogtp
; File D:\_m2work\Server Client TMP4\ClientVS22\source\UserInterface\PythonNetworkStream.cpp
;	COMDAT ?EXPORT_GetBettingGuildWarValue@CPythonNetworkStream@@QAEKPBD@Z
_TEXT	SEGMENT
_c_szValueName$ = 8					; size = 4
?EXPORT_GetBettingGuildWarValue@CPythonNetworkStream@@QAEKPBD@Z PROC ; CPythonNetworkStream::EXPORT_GetBettingGuildWarValue, COMDAT
; _this$ = ecx

; 841  : {

  00000	55		 push	 ebp
  00001	8b ec		 mov	 ebp, esp
  00003	56		 push	 esi

; 842  : 	if (stricmp(c_szValueName, "OBSERVER_COUNT") == 0)

  00004	68 00 00 00 00	 push	 OFFSET ??_C@_0P@MDCECFOM@OBSERVER_COUNT@
  00009	ff 75 08	 push	 DWORD PTR _c_szValueName$[ebp]
  0000c	8b f1		 mov	 esi, ecx
  0000e	e8 00 00 00 00	 call	 __stricmp
  00013	83 c4 08	 add	 esp, 8
  00016	85 c0		 test	 eax, eax
  00018	75 0b		 jne	 SHORT $LN2@EXPORT_Get

; 843  : 		return m_kBettingGuildWar.m_dwObserverCount;

  0001a	8b 86 44 79 00
	00		 mov	 eax, DWORD PTR [esi+31044]
  00020	5e		 pop	 esi

; 849  : }

  00021	5d		 pop	 ebp
  00022	c2 04 00	 ret	 4
$LN2@EXPORT_Get:

; 844  : 
; 845  : 	if (stricmp(c_szValueName, "BETTING_MONEY") == 0)

  00025	68 00 00 00 00	 push	 OFFSET ??_C@_0O@FEJHKOEO@BETTING_MONEY@
  0002a	ff 75 08	 push	 DWORD PTR _c_szValueName$[ebp]
  0002d	e8 00 00 00 00	 call	 __stricmp
  00032	83 c4 08	 add	 esp, 8
  00035	85 c0		 test	 eax, eax
  00037	75 0b		 jne	 SHORT $LN3@EXPORT_Get

; 846  : 		return m_kBettingGuildWar.m_dwBettingMoney;

  00039	8b 86 40 79 00
	00		 mov	 eax, DWORD PTR [esi+31040]
  0003f	5e		 pop	 esi

; 849  : }

  00040	5d		 pop	 ebp
  00041	c2 04 00	 ret	 4
$LN3@EXPORT_Get:

; 847  : 
; 848  : 	return 0;

  00044	33 c0		 xor	 eax, eax
  00046	5e		 pop	 esi

; 849  : }

  00047	5d		 pop	 ebp
  00048	c2 04 00	 ret	 4
?EXPORT_GetBettingGuildWarValue@CPythonNetworkStream@@QAEKPBD@Z ENDP ; CPythonNetworkStream::EXPORT_GetBettingGuildWarValue
_TEXT	ENDS
; Function compile flags: /Ogtp
; File D:\_m2work\Server Client TMP4\ClientVS22\source\UserInterface\PythonNetworkStream.cpp
;	COMDAT ?__ServerTimeSync_Initialize@CPythonNetworkStream@@IAEXXZ
_TEXT	SEGMENT
?__ServerTimeSync_Initialize@CPythonNetworkStream@@IAEXXZ PROC ; CPythonNetworkStream::__ServerTimeSync_Initialize, COMDAT
; _this$ = ecx

; 853  : 	m_kServerTimeSync.m_dwChangeClientTime=0;

  00000	c7 81 bc 00 00
	00 00 00 00 00	 mov	 DWORD PTR [ecx+188], 0

; 854  : 	m_kServerTimeSync.m_dwChangeServerTime=0;

  0000a	c7 81 b8 00 00
	00 00 00 00 00	 mov	 DWORD PTR [ecx+184], 0

; 855  : }

  00014	c3		 ret	 0
?__ServerTimeSync_Initialize@CPythonNetworkStream@@IAEXXZ ENDP ; CPythonNetworkStream::__ServerTimeSync_Initialize
_TEXT	ENDS
; Function compile flags: /Ogtp
; File D:\_m2work\Server Client TMP4\ClientVS22\source\UserInterface\PythonNetworkStream.cpp
; File C:\Program Files\Microsoft Visual Studio\2022\Community\VC\Tools\MSVC\14.44.35207\include\vector
; File D:\_m2work\Server Client TMP4\ClientVS22\source\UserInterface\PythonNetworkStream.cpp
; File C:\Program Files\Microsoft Visual Studio\2022\Community\VC\Tools\MSVC\14.44.35207\include\vector
; File D:\_m2work\Server Client TMP4\ClientVS22\source\UserInterface\PythonNetworkStream.cpp
; File C:\Program Files\Microsoft Visual Studio\2022\Community\VC\Tools\MSVC\14.44.35207\include\vector
; File C:\Program Files\Microsoft Visual Studio\2022\Community\VC\Tools\MSVC\14.44.35207\include\xstring
; File C:\Program Files\Microsoft Visual Studio\2022\Community\VC\Tools\MSVC\14.44.35207\include\vector
; File C:\Program Files\Microsoft Visual Studio\2022\Community\VC\Tools\MSVC\14.44.35207\include\xstring
; File D:\_m2work\Server Client TMP4\ClientVS22\source\UserInterface\PythonNetworkStream.cpp
;	COMDAT ?SendEmoticon@CPythonNetworkStream@@QAEXI@Z
_TEXT	SEGMENT
_eEmoticon$ = 8						; size = 4
?SendEmoticon@CPythonNetworkStream@@QAEXI@Z PROC	; CPythonNetworkStream::SendEmoticon, COMDAT
; _this$ = ecx

; 863  : {

  00000	55		 push	 ebp
  00001	8b ec		 mov	 ebp, esp
; File C:\Program Files\Microsoft Visual Studio\2022\Community\VC\Tools\MSVC\14.44.35207\include\vector

; 1915 :         return static_cast<size_type>(_My_data._Mylast - _My_data._Myfirst);

  00003	8b 81 24 03 00
	00		 mov	 eax, DWORD PTR [ecx+804]
; File D:\_m2work\Server Client TMP4\ClientVS22\source\UserInterface\PythonNetworkStream.cpp

; 864  : 	if(eEmoticon < m_EmoticonStringVector.size())

  00009	8b 55 08	 mov	 edx, DWORD PTR _eEmoticon$[ebp]
  0000c	56		 push	 esi
; File C:\Program Files\Microsoft Visual Studio\2022\Community\VC\Tools\MSVC\14.44.35207\include\vector

; 1915 :         return static_cast<size_type>(_My_data._Mylast - _My_data._Myfirst);

  0000d	8b b1 20 03 00
	00		 mov	 esi, DWORD PTR [ecx+800]
  00013	2b c6		 sub	 eax, esi
  00015	c1 f8 03	 sar	 eax, 3
  00018	69 c0 ab aa aa
	aa		 imul	 eax, eax, -1431655765
; File D:\_m2work\Server Client TMP4\ClientVS22\source\UserInterface\PythonNetworkStream.cpp

; 864  : 	if(eEmoticon < m_EmoticonStringVector.size())

  0001e	3b d0		 cmp	 edx, eax
  00020	73 17		 jae	 SHORT $LN2@SendEmotic
; File C:\Program Files\Microsoft Visual Studio\2022\Community\VC\Tools\MSVC\14.44.35207\include\vector

; 1934 :         return _My_data._Myfirst[_Pos];

  00022	8d 04 52	 lea	 eax, DWORD PTR [edx+edx*2]
; File C:\Program Files\Microsoft Visual Studio\2022\Community\VC\Tools\MSVC\14.44.35207\include\xstring

; 453  :         return _Myres > _Small_string_capacity;

  00025	83 7c c6 14 0f	 cmp	 DWORD PTR [esi+eax*8+20], 15 ; 0000000fH
; File C:\Program Files\Microsoft Visual Studio\2022\Community\VC\Tools\MSVC\14.44.35207\include\vector

; 1934 :         return _My_data._Myfirst[_Pos];

  0002a	8d 04 c6	 lea	 eax, DWORD PTR [esi+eax*8]
; File C:\Program Files\Microsoft Visual Studio\2022\Community\VC\Tools\MSVC\14.44.35207\include\xstring

; 445  :         if (_Large_mode_engaged()) {

  0002d	76 02		 jbe	 SHORT $LN15@SendEmotic

; 446  :             _Result = _Unfancy(_Bx._Ptr);

  0002f	8b 00		 mov	 eax, DWORD PTR [eax]
$LN15@SendEmotic:
; File D:\_m2work\Server Client TMP4\ClientVS22\source\UserInterface\PythonNetworkStream.cpp

; 865  : 		SendChatPacket(m_EmoticonStringVector[eEmoticon].c_str());

  00031	6a 00		 push	 0
  00033	50		 push	 eax
  00034	e8 00 00 00 00	 call	 ?SendChatPacket@CPythonNetworkStream@@QAE_NPBDE@Z ; CPythonNetworkStream::SendChatPacket
$LN2@SendEmotic:
  00039	5e		 pop	 esi

; 866  : 	else
; 867  : 		assert(false && "SendEmoticon Error");
; 868  : }

  0003a	5d		 pop	 ebp
  0003b	c2 04 00	 ret	 4
?SendEmoticon@CPythonNetworkStream@@QAEXI@Z ENDP	; CPythonNetworkStream::SendEmoticon
_TEXT	ENDS
; Function compile flags: /Ogtp
;	COMDAT ??_GCPythonNetworkStream@@UAEPAXI@Z
_TEXT	SEGMENT
___flags$ = 8						; size = 4
??_GCPythonNetworkStream@@UAEPAXI@Z PROC		; CPythonNetworkStream::`scalar deleting destructor', COMDAT
; _this$ = ecx
  00000	55		 push	 ebp
  00001	8b ec		 mov	 ebp, esp
  00003	56		 push	 esi
  00004	8b f1		 mov	 esi, ecx
  00006	e8 00 00 00 00	 call	 ??1CPythonNetworkStream@@UAE@XZ ; CPythonNetworkStream::~CPythonNetworkStream
  0000b	f6 45 08 01	 test	 BYTE PTR ___flags$[ebp], 1
  0000f	74 0e		 je	 SHORT $LN5@scalar
  00011	68 50 79 00 00	 push	 31056			; 00007950H
  00016	56		 push	 esi
  00017	e8 00 00 00 00	 call	 ??3@YAXPAXI@Z		; operator delete
  0001c	83 c4 08	 add	 esp, 8
$LN5@scalar:
  0001f	8b c6		 mov	 eax, esi
  00021	5e		 pop	 esi
  00022	5d		 pop	 ebp
  00023	c2 04 00	 ret	 4
??_GCPythonNetworkStream@@UAEPAXI@Z ENDP		; CPythonNetworkStream::`scalar deleting destructor'
_TEXT	ENDS
; Function compile flags: /Ogtp
;	COMDAT ??0SMarkAuth@CPythonNetworkStream@@QAE@XZ
_TEXT	SEGMENT
_this$ = -4						; size = 4
??0SMarkAuth@CPythonNetworkStream@@QAE@XZ PROC		; CPythonNetworkStream::SMarkAuth::SMarkAuth, COMDAT
; _this$ = ecx
  00000	55		 push	 ebp
  00001	8b ec		 mov	 ebp, esp
  00003	51		 push	 ecx
  00004	56		 push	 esi
  00005	8b f1		 mov	 esi, ecx
  00007	89 75 fc	 mov	 DWORD PTR _this$[ebp], esi
  0000a	e8 00 00 00 00	 call	 ??0CNetworkAddress@@QAE@XZ ; CNetworkAddress::CNetworkAddress
  0000f	8b c6		 mov	 eax, esi
  00011	5e		 pop	 esi
  00012	8b e5		 mov	 esp, ebp
  00014	5d		 pop	 ebp
  00015	c3		 ret	 0
??0SMarkAuth@CPythonNetworkStream@@QAE@XZ ENDP		; CPythonNetworkStream::SMarkAuth::SMarkAuth
_TEXT	ENDS
; Function compile flags: /Ogtp
;	COMDAT ??1SMarkAuth@CPythonNetworkStream@@QAE@XZ
_TEXT	SEGMENT
??1SMarkAuth@CPythonNetworkStream@@QAE@XZ PROC		; CPythonNetworkStream::SMarkAuth::~SMarkAuth, COMDAT
; _this$ = ecx
  00000	e9 00 00 00 00	 jmp	 ??1CNetworkAddress@@QAE@XZ ; CNetworkAddress::~CNetworkAddress
??1SMarkAuth@CPythonNetworkStream@@QAE@XZ ENDP		; CPythonNetworkStream::SMarkAuth::~SMarkAuth
_TEXT	ENDS
; Function compile flags: /Ogtp
; File C:\Program Files\Microsoft Visual Studio\2022\Community\VC\Tools\MSVC\14.44.35207\include\xutility
;	COMDAT ??$_Get_unwrapped@ABQAPAU_object@@@std@@YA?A_TABQAPAU_object@@@Z
_TEXT	SEGMENT
??$_Get_unwrapped@ABQAPAU_object@@@std@@YA?A_TABQAPAU_object@@@Z PROC ; std::_Get_unwrapped<_object * * const &>, COMDAT
; __It$ = ecx

; 1380 :     // unwrap an iterator previously subjected to _Adl_verify_range or otherwise validated
; 1381 :     if constexpr (is_pointer_v<decay_t<_Iter>>) { // special-case pointers and arrays
; 1382 :         return _It + 0;

  00000	8b 01		 mov	 eax, DWORD PTR [ecx]

; 1383 :     } else if constexpr (_Unwrappable_v<_Iter>) {
; 1384 :         return static_cast<_Iter&&>(_It)._Unwrapped();
; 1385 :     } else {
; 1386 :         return static_cast<_Iter&&>(_It);
; 1387 :     }
; 1388 : }

  00002	c3		 ret	 0
??$_Get_unwrapped@ABQAPAU_object@@@std@@YA?A_TABQAPAU_object@@@Z ENDP ; std::_Get_unwrapped<_object * * const &>
_TEXT	ENDS
; Function compile flags: /Ogtp
; File C:\Program Files\Microsoft Visual Studio\2022\Community\VC\Tools\MSVC\14.44.35207\include\xutility
;	COMDAT ??$fill@PAPAU_object@@PAU1@@std@@YAXQAPAU_object@@0ABQAU1@@Z
_TEXT	SEGMENT
__Last$1$ = -8						; size = 4
tv306 = -4						; size = 4
tv319 = -4						; size = 4
__Val$ = 8						; size = 4
??$fill@PAPAU_object@@PAU1@@std@@YAXQAPAU_object@@0ABQAU1@@Z PROC ; std::fill<_object * *,_object *>, COMDAT
; __First$ = ecx
; __Last$ = edx

; 5286 : _CONSTEXPR20 void fill(const _FwdIt _First, const _FwdIt _Last, const _Ty& _Val) {

  00000	55		 push	 ebp
  00001	8b ec		 mov	 ebp, esp
  00003	83 ec 08	 sub	 esp, 8
  00006	53		 push	 ebx

; 5287 :     // copy _Val through [_First, _Last)
; 5288 :     _STD _Adl_verify_range(_First, _Last);
; 5289 :     if constexpr (_Is_vb_iterator<_FwdIt, true>) {
; 5290 :         _STD _Fill_vbool(_First, _Last, _Val);
; 5291 :     } else {
; 5292 :         auto _UFirst      = _STD _Get_unwrapped(_First);
; 5293 :         const auto _ULast = _STD _Get_unwrapped(_Last);
; 5294 : #if _HAS_CXX20
; 5295 :         if (!_STD is_constant_evaluated())
; 5296 : #endif // _HAS_CXX20
; 5297 :         {
; 5298 :             if constexpr (_Fill_memset_is_safe<decltype(_UFirst), _Ty>) {
; 5299 :                 _STD _Fill_memset(_UFirst, _Val, static_cast<size_t>(_ULast - _UFirst));
; 5300 :                 return;
; 5301 :             } else if constexpr (_Fill_zero_memset_is_safe<decltype(_UFirst), _Ty>) {
; 5302 :                 if (_STD _Is_all_bits_zero(_Val)) {

  00007	8b 5d 08	 mov	 ebx, DWORD PTR __Val$[ebp]
  0000a	56		 push	 esi
  0000b	57		 push	 edi
  0000c	8b fa		 mov	 edi, edx
  0000e	8b f1		 mov	 esi, ecx
  00010	8b c7		 mov	 eax, edi
  00012	89 7d f8	 mov	 DWORD PTR __Last$1$[ebp], edi
  00015	2b c6		 sub	 eax, esi
  00017	8b cb		 mov	 ecx, ebx
  00019	89 45 fc	 mov	 DWORD PTR tv306[ebp], eax
  0001c	e8 00 00 00 00	 call	 ??$_Is_all_bits_zero@PAU_object@@@std@@YA_NABQAU_object@@@Z ; std::_Is_all_bits_zero<_object *>
  00021	8b 55 fc	 mov	 edx, DWORD PTR tv306[ebp]
  00024	84 c0		 test	 al, al
  00026	74 11		 je	 SHORT $LN6@fill

; 5303 :                     _STD _Fill_zero_memset(_UFirst, static_cast<size_t>(_ULast - _UFirst));

  00028	c1 fa 02	 sar	 edx, 2
  0002b	8b ce		 mov	 ecx, esi
  0002d	e8 00 00 00 00	 call	 ??$_Fill_zero_memset@PAPAU_object@@@std@@YAXPAPAU_object@@I@Z ; std::_Fill_zero_memset<_object * *>
  00032	5f		 pop	 edi

; 5311 :         }
; 5312 :     }
; 5313 : }

  00033	5e		 pop	 esi
  00034	5b		 pop	 ebx
  00035	8b e5		 mov	 esp, ebp
  00037	5d		 pop	 ebp
  00038	c3		 ret	 0
$LN6@fill:

; 5304 :                     return;
; 5305 :                 }
; 5306 :             }
; 5307 :         }
; 5308 : 
; 5309 :         for (; _UFirst != _ULast; ++_UFirst) {

  00039	83 c2 03	 add	 edx, 3
  0003c	33 c0		 xor	 eax, eax
  0003e	c1 ea 02	 shr	 edx, 2
  00041	3b f7		 cmp	 esi, edi
  00043	0f 47 d0	 cmova	 edx, eax
  00046	85 d2		 test	 edx, edx
  00048	74 2f		 je	 SHORT $LN11@fill
  0004a	83 fa 04	 cmp	 edx, 4
  0004d	72 2a		 jb	 SHORT $LN11@fill

; 5310 :             *_UFirst = _Val;

  0004f	8b 03		 mov	 eax, DWORD PTR [ebx]
  00051	89 45 fc	 mov	 DWORD PTR tv319[ebp], eax
  00054	8d 46 fc	 lea	 eax, DWORD PTR [esi-4]
  00057	8d 04 90	 lea	 eax, DWORD PTR [eax+edx*4]
  0005a	3b f3		 cmp	 esi, ebx
  0005c	77 04		 ja	 SHORT $LN12@fill

; 5304 :                     return;
; 5305 :                 }
; 5306 :             }
; 5307 :         }
; 5308 : 
; 5309 :         for (; _UFirst != _ULast; ++_UFirst) {

  0005e	3b c3		 cmp	 eax, ebx
  00060	73 17		 jae	 SHORT $LN11@fill
$LN12@fill:
  00062	8b 45 fc	 mov	 eax, DWORD PTR tv319[ebp]
  00065	83 e2 fc	 and	 edx, -4			; fffffffcH
  00068	c1 e2 02	 shl	 edx, 2
  0006b	8b fe		 mov	 edi, esi
  0006d	8b ca		 mov	 ecx, edx
  0006f	c1 e9 02	 shr	 ecx, 2
  00072	03 f2		 add	 esi, edx
  00074	f3 ab		 rep stosd
  00076	8b 7d f8	 mov	 edi, DWORD PTR __Last$1$[ebp]
$LN11@fill:
  00079	3b f7		 cmp	 esi, edi
  0007b	74 0e		 je	 SHORT $LN3@fill
  0007d	0f 1f 00	 npad	 3
$LL10@fill:

; 5310 :             *_UFirst = _Val;

  00080	8b 03		 mov	 eax, DWORD PTR [ebx]
  00082	89 06		 mov	 DWORD PTR [esi], eax
  00084	83 c6 04	 add	 esi, 4
  00087	3b f7		 cmp	 esi, edi
  00089	75 f5		 jne	 SHORT $LL10@fill
$LN3@fill:
  0008b	5f		 pop	 edi

; 5311 :         }
; 5312 :     }
; 5313 : }

  0008c	5e		 pop	 esi
  0008d	5b		 pop	 ebx
  0008e	8b e5		 mov	 esp, ebp
  00090	5d		 pop	 ebp
  00091	c3		 ret	 0
??$fill@PAPAU_object@@PAU1@@std@@YAXQAPAU_object@@0ABQAU1@@Z ENDP ; std::fill<_object * *,_object *>
_TEXT	ENDS
; Function compile flags: /Ogtp
; File D:\_m2work\Server Client TMP4\ClientVS22\source\eterBase\Singleton.h
;	COMDAT ?Instance@?$CSingleton@VCGuildMarkUploader@@@@SAAAVCGuildMarkUploader@@XZ
_TEXT	SEGMENT
?Instance@?$CSingleton@VCGuildMarkUploader@@@@SAAAVCGuildMarkUploader@@XZ PROC ; CSingleton<CGuildMarkUploader>::Instance, COMDAT

; 26   : 		assert(ms_singleton);
; 27   : 		return (*ms_singleton);

  00000	a1 00 00 00 00	 mov	 eax, DWORD PTR ?ms_singleton@?$CSingleton@VCGuildMarkUploader@@@@0PAVCGuildMarkUploader@@A ; CSingleton<CGuildMarkUploader>::ms_singleton

; 28   : 	}

  00005	c3		 ret	 0
?Instance@?$CSingleton@VCGuildMarkUploader@@@@SAAAVCGuildMarkUploader@@XZ ENDP ; CSingleton<CGuildMarkUploader>::Instance
_TEXT	ENDS
; Function compile flags: /Ogtp
; File D:\_m2work\Server Client TMP4\ClientVS22\source\eterBase\Singleton.h
;	COMDAT ?Instance@?$CSingleton@VCGuildMarkDownloader@@@@SAAAVCGuildMarkDownloader@@XZ
_TEXT	SEGMENT
?Instance@?$CSingleton@VCGuildMarkDownloader@@@@SAAAVCGuildMarkDownloader@@XZ PROC ; CSingleton<CGuildMarkDownloader>::Instance, COMDAT

; 26   : 		assert(ms_singleton);
; 27   : 		return (*ms_singleton);

  00000	a1 00 00 00 00	 mov	 eax, DWORD PTR ?ms_singleton@?$CSingleton@VCGuildMarkDownloader@@@@0PAVCGuildMarkDownloader@@A ; CSingleton<CGuildMarkDownloader>::ms_singleton

; 28   : 	}

  00005	c3		 ret	 0
?Instance@?$CSingleton@VCGuildMarkDownloader@@@@SAAAVCGuildMarkDownloader@@XZ ENDP ; CSingleton<CGuildMarkDownloader>::Instance
_TEXT	ENDS
; Function compile flags: /Ogtp
; File C:\Program Files\Microsoft Visual Studio\2022\Community\VC\Tools\MSVC\14.44.35207\include\deque
; File C:\Program Files\Microsoft Visual Studio\2022\Community\VC\Tools\MSVC\14.44.35207\include\xstring
; File C:\Program Files\Microsoft Visual Studio\2022\Community\VC\Tools\MSVC\14.44.35207\include\deque
; File C:\Program Files\Microsoft Visual Studio\2022\Community\VC\Tools\MSVC\14.44.35207\include\xmemory
; File C:\Program Files\Microsoft Visual Studio\2022\Community\VC\Tools\MSVC\14.44.35207\include\deque
; File C:\Program Files\Microsoft Visual Studio\2022\Community\VC\Tools\MSVC\14.44.35207\include\xmemory
; File C:\Program Files\Microsoft Visual Studio\2022\Community\VC\Tools\MSVC\14.44.35207\include\deque
; File C:\Program Files\Microsoft Visual Studio\2022\Community\VC\Tools\MSVC\14.44.35207\include\utility
; File C:\Program Files\Microsoft Visual Studio\2022\Community\VC\Tools\MSVC\14.44.35207\include\xmemory
; File C:\Program Files\Microsoft Visual Studio\2022\Community\VC\Tools\MSVC\14.44.35207\include\utility
; File C:\Program Files\Microsoft Visual Studio\2022\Community\VC\Tools\MSVC\14.44.35207\include\xmemory
; File C:\Program Files\Microsoft Visual Studio\2022\Community\VC\Tools\MSVC\14.44.35207\include\deque
; File C:\Program Files\Microsoft Visual Studio\2022\Community\VC\Tools\MSVC\14.44.35207\include\xmemory
; File C:\Program Files\Microsoft Visual Studio\2022\Community\VC\Tools\MSVC\14.44.35207\include\deque
;	COMDAT ??1?$deque@V?$basic_string@DU?$char_traits@D@std@@V?$allocator@D@2@@std@@V?$allocator@V?$basic_string@DU?$char_traits@D@std@@V?$allocator@D@2@@std@@@2@@std@@QAE@XZ
_TEXT	SEGMENT
??1?$deque@V?$basic_string@DU?$char_traits@D@std@@V?$allocator@D@2@@std@@V?$allocator@V?$basic_string@DU?$char_traits@D@std@@V?$allocator@D@2@@std@@@2@@std@@QAE@XZ PROC ; std::deque<std::basic_string<char,std::char_traits<char>,std::allocator<char> >,std::allocator<std::basic_string<char,std::char_traits<char>,std::allocator<char> > > >::~deque<std::basic_string<char,std::char_traits<char>,std::allocator<char> >,std::allocator<std::basic_string<char,std::char_traits<char>,std::allocator<char> > > >, COMDAT
; _this$ = ecx

; 773  :     ~deque() noexcept {

  00000	56		 push	 esi
  00001	8b f1		 mov	 esi, ecx

; 971  :         return _Mysize() == 0;

  00003	8b 4e 10	 mov	 ecx, DWORD PTR [esi+16]
  00006	85 c9		 test	 ecx, ecx

; 1673 :         while (!empty()) {

  00008	74 2f		 je	 SHORT $LN128@deque
  0000a	66 0f 1f 44 00
	00		 npad	 6
$LL5@deque:

; 572  :         return static_cast<_Map_difference_type>((_Off / _Block_size) & (_Mapsize - 1));

  00010	8b 46 0c	 mov	 eax, DWORD PTR [esi+12]
  00013	48		 dec	 eax
  00014	03 c8		 add	 ecx, eax
  00016	8b 46 08	 mov	 eax, DWORD PTR [esi+8]
  00019	48		 dec	 eax
  0001a	23 c8		 and	 ecx, eax

; 1512 :         _Alty_traits::destroy(_Getal(), _Get_data()._Address_subscript(_Newoff));

  0001c	8b 46 04	 mov	 eax, DWORD PTR [esi+4]
; File C:\Program Files\Microsoft Visual Studio\2022\Community\VC\Tools\MSVC\14.44.35207\include\xstring

; 1383 :         _Tidy_deallocate();

  0001f	8b 0c 88	 mov	 ecx, DWORD PTR [eax+ecx*4]
  00022	e8 00 00 00 00	 call	 ?_Tidy_deallocate@?$basic_string@DU?$char_traits@D@std@@V?$allocator@D@2@@std@@AAEXXZ ; std::basic_string<char,std::char_traits<char>,std::allocator<char> >::_Tidy_deallocate
; File C:\Program Files\Microsoft Visual Studio\2022\Community\VC\Tools\MSVC\14.44.35207\include\deque

; 1513 :         if (--_Mysize() == 0) {

  00027	8b 4e 10	 mov	 ecx, DWORD PTR [esi+16]
  0002a	83 e9 01	 sub	 ecx, 1
  0002d	89 4e 10	 mov	 DWORD PTR [esi+16], ecx
  00030	75 de		 jne	 SHORT $LL5@deque

; 1514 :             _Myoff() = 0;

  00032	c7 46 0c 00 00
	00 00		 mov	 DWORD PTR [esi+12], 0
$LN128@deque:

; 1677 :         if (_Map() != nullptr) {

  00039	83 7e 04 00	 cmp	 DWORD PTR [esi+4], 0
  0003d	74 5e		 je	 SHORT $LN42@deque
  0003f	57		 push	 edi

; 1654 :         for (auto _Block = _Map_distance(); _Block > 0;) { // free storage for a block and destroy pointer

  00040	8b 7e 08	 mov	 edi, DWORD PTR [esi+8]
  00043	85 ff		 test	 edi, edi
  00045	7e 1a		 jle	 SHORT $LN124@deque
$LL40@deque:

; 1655 :             --_Block;
; 1656 :             auto& _Block_ptr = _Map()[_Block];
; 1657 :             if (_Block_ptr) { // free block

  00047	8b 46 04	 mov	 eax, DWORD PTR [esi+4]
  0004a	4f		 dec	 edi
  0004b	8b 04 b8	 mov	 eax, DWORD PTR [eax+edi*4]
  0004e	85 c0		 test	 eax, eax
  00050	74 0b		 je	 SHORT $LN38@deque
; File C:\Program Files\Microsoft Visual Studio\2022\Community\VC\Tools\MSVC\14.44.35207\include\xmemory

; 289  :         ::operator delete(_Ptr, _Bytes);

  00052	6a 18		 push	 24			; 00000018H
  00054	50		 push	 eax
  00055	e8 00 00 00 00	 call	 ??3@YAXPAXI@Z		; operator delete
  0005a	83 c4 08	 add	 esp, 8
$LN38@deque:
; File C:\Program Files\Microsoft Visual Studio\2022\Community\VC\Tools\MSVC\14.44.35207\include\deque

; 1654 :         for (auto _Block = _Map_distance(); _Block > 0;) { // free storage for a block and destroy pointer

  0005d	85 ff		 test	 edi, edi
  0005f	7f e6		 jg	 SHORT $LL40@deque
$LN124@deque:
; File C:\Program Files\Microsoft Visual Studio\2022\Community\VC\Tools\MSVC\14.44.35207\include\xmemory

; 985  :         _STD _Deallocate<_New_alignof<_Ty>>(_Ptr, sizeof(_Ty) * _Count);

  00061	8b 4e 08	 mov	 ecx, DWORD PTR [esi+8]
  00064	8b 46 04	 mov	 eax, DWORD PTR [esi+4]
  00067	c1 e1 02	 shl	 ecx, 2
  0006a	5f		 pop	 edi

; 284  :         if (_Bytes >= _Big_allocation_threshold) {

  0006b	81 f9 00 10 00
	00		 cmp	 ecx, 4096		; 00001000H
  00071	72 12		 jb	 SHORT $LN70@deque

; 205  :     const uintptr_t _Ptr_container   = _Ptr_user[-1];

  00073	8b 50 fc	 mov	 edx, DWORD PTR [eax-4]
  00076	83 c1 23	 add	 ecx, 35			; 00000023H

; 206  : 
; 207  :     // If the following asserts, it likely means that we are performing
; 208  :     // an aligned delete on memory coming from an unaligned allocation.
; 209  :     _STL_ASSERT(_Ptr_user[-2] == _Big_allocation_sentinel, "invalid argument");
; 210  : 
; 211  :     // Extra paranoia on aligned allocation/deallocation; ensure _Ptr_container is
; 212  :     // in range [_Min_back_shift, _Non_user_size]
; 213  : #ifdef _DEBUG
; 214  :     constexpr uintptr_t _Min_back_shift = 2 * sizeof(void*);
; 215  : #else // ^^^ defined(_DEBUG) / !defined(_DEBUG) vvv
; 216  :     constexpr uintptr_t _Min_back_shift = sizeof(void*);
; 217  : #endif // ^^^ !defined(_DEBUG) ^^^
; 218  :     const uintptr_t _Back_shift = reinterpret_cast<uintptr_t>(_Ptr) - _Ptr_container;

  00079	2b c2		 sub	 eax, edx

; 219  :     _STL_VERIFY(_Back_shift >= _Min_back_shift && _Back_shift <= _Non_user_size, "invalid argument");

  0007b	83 c0 fc	 add	 eax, -4			; fffffffcH
  0007e	83 f8 1f	 cmp	 eax, 31			; 0000001fH
  00081	77 2f		 ja	 SHORT $LN69@deque

; 220  :     _Ptr = reinterpret_cast<void*>(_Ptr_container);

  00083	8b c2		 mov	 eax, edx
$LN70@deque:

; 289  :         ::operator delete(_Ptr, _Bytes);

  00085	51		 push	 ecx
  00086	50		 push	 eax
  00087	e8 00 00 00 00	 call	 ??3@YAXPAXI@Z		; operator delete
  0008c	83 c4 08	 add	 esp, 8
; File C:\Program Files\Microsoft Visual Studio\2022\Community\VC\Tools\MSVC\14.44.35207\include\deque

; 1666 :         _Map()     = nullptr;

  0008f	c7 46 04 00 00
	00 00		 mov	 DWORD PTR [esi+4], 0

; 1667 :         _Mapsize() = 0;

  00096	c7 46 08 00 00
	00 00		 mov	 DWORD PTR [esi+8], 0
$LN42@deque:
; File C:\Program Files\Microsoft Visual Studio\2022\Community\VC\Tools\MSVC\14.44.35207\include\utility

; 773  :     _Ty _Old_val = static_cast<_Ty&&>(_Val);

  0009d	8b 06		 mov	 eax, DWORD PTR [esi]
; File C:\Program Files\Microsoft Visual Studio\2022\Community\VC\Tools\MSVC\14.44.35207\include\xmemory

; 289  :         ::operator delete(_Ptr, _Bytes);

  0009f	6a 08		 push	 8
  000a1	50		 push	 eax
; File C:\Program Files\Microsoft Visual Studio\2022\Community\VC\Tools\MSVC\14.44.35207\include\utility

; 774  :     _Val         = static_cast<_Other&&>(_New_val);

  000a2	c7 06 00 00 00
	00		 mov	 DWORD PTR [esi], 0
; File C:\Program Files\Microsoft Visual Studio\2022\Community\VC\Tools\MSVC\14.44.35207\include\xmemory

; 289  :         ::operator delete(_Ptr, _Bytes);

  000a8	e8 00 00 00 00	 call	 ??3@YAXPAXI@Z		; operator delete
  000ad	83 c4 08	 add	 esp, 8
  000b0	5e		 pop	 esi
; File C:\Program Files\Microsoft Visual Studio\2022\Community\VC\Tools\MSVC\14.44.35207\include\deque

; 777  :     }

  000b1	c3		 ret	 0
$LN69@deque:
; File C:\Program Files\Microsoft Visual Studio\2022\Community\VC\Tools\MSVC\14.44.35207\include\xmemory

; 219  :     _STL_VERIFY(_Back_shift >= _Min_back_shift && _Back_shift <= _Non_user_size, "invalid argument");

  000b2	6a 00		 push	 0
  000b4	6a 00		 push	 0
  000b6	6a 00		 push	 0
  000b8	6a 00		 push	 0
  000ba	6a 00		 push	 0
  000bc	e8 00 00 00 00	 call	 __invoke_watson
$LN137@deque:
  000c1	cc		 int	 3
??1?$deque@V?$basic_string@DU?$char_traits@D@std@@V?$allocator@D@2@@std@@V?$allocator@V?$basic_string@DU?$char_traits@D@std@@V?$allocator@D@2@@std@@@2@@std@@QAE@XZ ENDP ; std::deque<std::basic_string<char,std::char_traits<char>,std::allocator<char> >,std::allocator<std::basic_string<char,std::char_traits<char>,std::allocator<char> > > >::~deque<std::basic_string<char,std::char_traits<char>,std::allocator<char> >,std::allocator<std::basic_string<char,std::char_traits<char>,std::allocator<char> > > >
_TEXT	ENDS
; Function compile flags: /Ogtp
; File C:\Program Files\Microsoft Visual Studio\2022\Community\VC\Tools\MSVC\14.44.35207\include\deque
; File C:\Program Files\Microsoft Visual Studio\2022\Community\VC\Tools\MSVC\14.44.35207\include\xmemory
; File C:\Program Files\Microsoft Visual Studio\2022\Community\VC\Tools\MSVC\14.44.35207\include\deque
; File C:\Program Files\Microsoft Visual Studio\2022\Community\VC\Tools\MSVC\14.44.35207\include\xmemory
; File C:\Program Files\Microsoft Visual Studio\2022\Community\VC\Tools\MSVC\14.44.35207\include\deque
;	COMDAT ??0?$deque@V?$basic_string@DU?$char_traits@D@std@@V?$allocator@D@2@@std@@V?$allocator@V?$basic_string@DU?$char_traits@D@std@@V?$allocator@D@2@@std@@@2@@std@@QAE@XZ
_TEXT	SEGMENT
??0?$deque@V?$basic_string@DU?$char_traits@D@std@@V?$allocator@D@2@@std@@V?$allocator@V?$basic_string@DU?$char_traits@D@std@@V?$allocator@D@2@@std@@@2@@std@@QAE@XZ PROC ; std::deque<std::basic_string<char,std::char_traits<char>,std::allocator<char> >,std::allocator<std::basic_string<char,std::char_traits<char>,std::allocator<char> > > >::deque<std::basic_string<char,std::char_traits<char>,std::allocator<char> >,std::allocator<std::basic_string<char,std::char_traits<char>,std::allocator<char> > > >, COMDAT
; _this$ = ecx

; 643  :     deque() : _Mypair(_Zero_then_variadic_args_t{}) {

  00000	56		 push	 esi
  00001	8b f1		 mov	 esi, ecx
; File C:\Program Files\Microsoft Visual Studio\2022\Community\VC\Tools\MSVC\14.44.35207\include\xmemory

; 1220 :         _Container_proxy* const _New_proxy = _Unfancy(_Al.allocate(1));

  00003	6a 08		 push	 8

; 1235 :     _Container_proxy* _Myproxy = nullptr;

  00005	c7 06 00 00 00
	00		 mov	 DWORD PTR [esi], 0
; File C:\Program Files\Microsoft Visual Studio\2022\Community\VC\Tools\MSVC\14.44.35207\include\deque

; 556  :     _Deque_val() noexcept : _Map(), _Mapsize(0), _Myoff(0), _Mysize(0) {}

  0000b	c7 46 04 00 00
	00 00		 mov	 DWORD PTR [esi+4], 0
  00012	c7 46 08 00 00
	00 00		 mov	 DWORD PTR [esi+8], 0
  00019	c7 46 0c 00 00
	00 00		 mov	 DWORD PTR [esi+12], 0
  00020	c7 46 10 00 00
	00 00		 mov	 DWORD PTR [esi+16], 0
; File C:\Program Files\Microsoft Visual Studio\2022\Community\VC\Tools\MSVC\14.44.35207\include\xmemory

; 1220 :         _Container_proxy* const _New_proxy = _Unfancy(_Al.allocate(1));

  00027	e8 00 00 00 00	 call	 ??2@YAPAXI@Z		; operator new
  0002c	83 c4 04	 add	 esp, 4

; 1221 :         _Construct_in_place(*_New_proxy, this);
; 1222 :         _Myproxy            = _New_proxy;

  0002f	c7 40 04 00 00
	00 00		 mov	 DWORD PTR [eax+4], 0
  00036	89 06		 mov	 DWORD PTR [esi], eax

; 1223 :         _New_proxy->_Mycont = this;

  00038	89 30		 mov	 DWORD PTR [eax], esi
; File C:\Program Files\Microsoft Visual Studio\2022\Community\VC\Tools\MSVC\14.44.35207\include\deque

; 645  :     }

  0003a	8b c6		 mov	 eax, esi
  0003c	5e		 pop	 esi
  0003d	c3		 ret	 0
??0?$deque@V?$basic_string@DU?$char_traits@D@std@@V?$allocator@D@2@@std@@V?$allocator@V?$basic_string@DU?$char_traits@D@std@@V?$allocator@D@2@@std@@@2@@std@@QAE@XZ ENDP ; std::deque<std::basic_string<char,std::char_traits<char>,std::allocator<char> >,std::allocator<std::basic_string<char,std::char_traits<char>,std::allocator<char> > > >::deque<std::basic_string<char,std::char_traits<char>,std::allocator<char> >,std::allocator<std::basic_string<char,std::char_traits<char>,std::allocator<char> > > >
_TEXT	ENDS
; Function compile flags: /Ogtp
; File D:\_m2work\Server Client TMP4\ClientVS22\source\eterlib\Ref.h
;	COMDAT ??C?$CRef@VCNetworkActorManager@@@@QBEPAVCNetworkActorManager@@XZ
_TEXT	SEGMENT
??C?$CRef@VCNetworkActorManager@@@@QBEPAVCNetworkActorManager@@XZ PROC ; CRef<CNetworkActorManager>::operator->, COMDAT
; _this$ = ecx

; 85   : 			assert(m_pObject != NULL);
; 86   : 			return static_cast<T*>(m_pObject);

  00000	8b 01		 mov	 eax, DWORD PTR [ecx]

; 87   : 		}

  00002	c3		 ret	 0
??C?$CRef@VCNetworkActorManager@@@@QBEPAVCNetworkActorManager@@XZ ENDP ; CRef<CNetworkActorManager>::operator->
_TEXT	ENDS
; Function compile flags: /Ogtp
; File D:\_m2work\Server Client TMP4\ClientVS22\source\eterlib\Ref.h
;	COMDAT ??4?$CRef@VCNetworkActorManager@@@@QAEXPAVCReferenceObject@@@Z
_TEXT	SEGMENT
_pObject$ = 8						; size = 4
??4?$CRef@VCNetworkActorManager@@@@QAEXPAVCReferenceObject@@@Z PROC ; CRef<CNetworkActorManager>::operator=, COMDAT
; _this$ = ecx

; 42   : 		{

  00000	55		 push	 ebp
  00001	8b ec		 mov	 ebp, esp

; 69   : 			m_pObject = pObject;

  00003	8b 45 08	 mov	 eax, DWORD PTR _pObject$[ebp]

; 42   : 		{

  00006	56		 push	 esi

; 67   : 			CReferenceObject* pOldObject = m_pObject;

  00007	8b 31		 mov	 esi, DWORD PTR [ecx]

; 68   : 
; 69   : 			m_pObject = pObject;

  00009	89 01		 mov	 DWORD PTR [ecx], eax

; 70   : 
; 71   : 			if (m_pObject)

  0000b	85 c0		 test	 eax, eax
  0000d	74 07		 je	 SHORT $LN4@operator

; 72   : 				m_pObject->AddReference();

  0000f	8b c8		 mov	 ecx, eax
  00011	e8 00 00 00 00	 call	 ?AddReference@CReferenceObject@@QAEXXZ ; CReferenceObject::AddReference
$LN4@operator:

; 73   : 
; 74   : 			if (pOldObject)

  00016	85 f6		 test	 esi, esi
  00018	74 07		 je	 SHORT $LN5@operator

; 75   : 				pOldObject->Release();

  0001a	8b ce		 mov	 ecx, esi
  0001c	e8 00 00 00 00	 call	 ?Release@CReferenceObject@@QAEXXZ ; CReferenceObject::Release
$LN5@operator:
  00021	5e		 pop	 esi

; 43   : 			SetPointer(pObject);
; 44   : 		}

  00022	5d		 pop	 ebp
  00023	c2 04 00	 ret	 4
??4?$CRef@VCNetworkActorManager@@@@QAEXPAVCReferenceObject@@@Z ENDP ; CRef<CNetworkActorManager>::operator=
_TEXT	ENDS
; Function compile flags: /Ogtp
; File D:\_m2work\Server Client TMP4\ClientVS22\source\eterlib\Ref.h
;	COMDAT ??1?$CRef@VCNetworkActorManager@@@@QAE@XZ
_TEXT	SEGMENT
__$EHRec$ = -12						; size = 12
??1?$CRef@VCNetworkActorManager@@@@QAE@XZ PROC		; CRef<CNetworkActorManager>::~CRef<CNetworkActorManager>, COMDAT
; _this$ = ecx

; 37   : 		{

  00000	55		 push	 ebp
  00001	8b ec		 mov	 ebp, esp
  00003	6a ff		 push	 -1
  00005	68 00 00 00 00	 push	 __ehhandler$??1?$CRef@VCNetworkActorManager@@@@QAE@XZ
  0000a	64 a1 00 00 00
	00		 mov	 eax, DWORD PTR fs:0
  00010	50		 push	 eax
  00011	56		 push	 esi
  00012	a1 00 00 00 00	 mov	 eax, DWORD PTR ___security_cookie
  00017	33 c5		 xor	 eax, ebp
  00019	50		 push	 eax
  0001a	8d 45 f4	 lea	 eax, DWORD PTR __$EHRec$[ebp]
  0001d	64 a3 00 00 00
	00		 mov	 DWORD PTR fs:0, eax
  00023	8b f1		 mov	 esi, ecx

; 53   : 			if (m_pObject)

  00025	8b 0e		 mov	 ecx, DWORD PTR [esi]
  00027	85 c9		 test	 ecx, ecx
  00029	74 0b		 je	 SHORT $LN5@CRef

; 54   : 			{
; 55   : 				m_pObject->Release();

  0002b	e8 00 00 00 00	 call	 ?Release@CReferenceObject@@QAEXXZ ; CReferenceObject::Release

; 56   : 				m_pObject = NULL;

  00030	c7 06 00 00 00
	00		 mov	 DWORD PTR [esi], 0
$LN5@CRef:

; 38   : 			Clear();
; 39   : 		}

  00036	8b 4d f4	 mov	 ecx, DWORD PTR __$EHRec$[ebp]
  00039	64 89 0d 00 00
	00 00		 mov	 DWORD PTR fs:0, ecx
  00040	59		 pop	 ecx
  00041	5e		 pop	 esi
  00042	8b e5		 mov	 esp, ebp
  00044	5d		 pop	 ebp
  00045	c3		 ret	 0
  00046	cc		 int	 3
  00047	cc		 int	 3
  00048	cc		 int	 3
  00049	cc		 int	 3
  0004a	cc		 int	 3
_TEXT	ENDS
;	COMDAT text$x
text$x	SEGMENT
__ehhandler$??1?$CRef@VCNetworkActorManager@@@@QAE@XZ:
  00000	90		 npad	 1
  00001	90		 npad	 1
  00002	8b 54 24 08	 mov	 edx, DWORD PTR [esp+8]
  00006	8d 42 0c	 lea	 eax, DWORD PTR [edx+12]
  00009	8b 4a f8	 mov	 ecx, DWORD PTR [edx-8]
  0000c	33 c8		 xor	 ecx, eax
  0000e	e8 00 00 00 00	 call	 @__security_check_cookie@4
  00013	b8 00 00 00 00	 mov	 eax, OFFSET __ehfuncinfo$??1?$CRef@VCNetworkActorManager@@@@QAE@XZ
  00018	e9 00 00 00 00	 jmp	 ___CxxFrameHandler3
text$x	ENDS
??1?$CRef@VCNetworkActorManager@@@@QAE@XZ ENDP		; CRef<CNetworkActorManager>::~CRef<CNetworkActorManager>
; Function compile flags: /Ogtp
; File D:\_m2work\Server Client TMP4\ClientVS22\source\eterlib\Ref.h
;	COMDAT ??0?$CRef@VCNetworkActorManager@@@@QAE@XZ
_TEXT	SEGMENT
??0?$CRef@VCNetworkActorManager@@@@QAE@XZ PROC		; CRef<CNetworkActorManager>::CRef<CNetworkActorManager>, COMDAT
; _this$ = ecx

; 20   : 		CRef() : m_pObject(NULL)

  00000	c7 01 00 00 00
	00		 mov	 DWORD PTR [ecx], 0

; 22   : 		}

  00006	8b c1		 mov	 eax, ecx
  00008	c3		 ret	 0
??0?$CRef@VCNetworkActorManager@@@@QAE@XZ ENDP		; CRef<CNetworkActorManager>::CRef<CNetworkActorManager>
_TEXT	ENDS
; Function compile flags: /Ogtp
; File D:\_m2work\Server Client TMP4\ClientVS22\source\EterLib\FuncObject.h
;	COMDAT ?Run@?$CFuncObject@VCPythonNetworkStream@@@@QAEXXZ
_TEXT	SEGMENT
?Run@?$CFuncObject@VCPythonNetworkStream@@@@QAEXXZ PROC	; CFuncObject<CPythonNetworkStream>::Run, COMDAT
; _this$ = ecx

; 41   : 			if (m_pSelfObject)

  00000	8b 51 08	 mov	 edx, DWORD PTR [ecx+8]
  00003	85 d2		 test	 edx, edx
  00005	74 0e		 je	 SHORT $LN3@Run

; 42   : 				if (m_pFuncObject)

  00007	8b 41 10	 mov	 eax, DWORD PTR [ecx+16]
  0000a	85 c0		 test	 eax, eax
  0000c	74 07		 je	 SHORT $LN3@Run

; 43   : 					(m_pSelfObject->*m_pFuncObject)();

  0000e	8b 49 14	 mov	 ecx, DWORD PTR [ecx+20]
  00011	03 ca		 add	 ecx, edx
  00013	ff e0		 jmp	 eax
$LN3@Run:

; 44   : 		}

  00015	c3		 ret	 0
?Run@?$CFuncObject@VCPythonNetworkStream@@@@QAEXXZ ENDP	; CFuncObject<CPythonNetworkStream>::Run
_TEXT	ENDS
; Function compile flags: /Ogtp
; File D:\_m2work\Server Client TMP4\ClientVS22\source\EterLib\FuncObject.h
;	COMDAT ?IsEmpty@?$CFuncObject@VCPythonNetworkStream@@@@QAE_NXZ
_TEXT	SEGMENT
?IsEmpty@?$CFuncObject@VCPythonNetworkStream@@@@QAE_NXZ PROC ; CFuncObject<CPythonNetworkStream>::IsEmpty, COMDAT
; _this$ = ecx

; 30   : 			if (m_pSelfObject != NULL)

  00000	83 79 08 00	 cmp	 DWORD PTR [ecx+8], 0
  00004	75 09		 jne	 SHORT $LN8@IsEmpty

; 31   : 				return false;
; 32   : 
; 33   : 			if (m_pFuncObject != NULL)

  00006	83 79 10 00	 cmp	 DWORD PTR [ecx+16], 0
  0000a	75 03		 jne	 SHORT $LN8@IsEmpty

; 35   : 
; 36   : 			return true;

  0000c	b0 01		 mov	 al, 1

; 37   : 		}

  0000e	c3		 ret	 0
$LN8@IsEmpty:

; 34   : 				return false;

  0000f	32 c0		 xor	 al, al

; 37   : 		}

  00011	c3		 ret	 0
?IsEmpty@?$CFuncObject@VCPythonNetworkStream@@@@QAE_NXZ ENDP ; CFuncObject<CPythonNetworkStream>::IsEmpty
_TEXT	ENDS
; Function compile flags: /Ogtp
; File D:\_m2work\Server Client TMP4\ClientVS22\source\EterLib\FuncObject.h
;	COMDAT ?Set@?$CFuncObject@VCPythonNetworkStream@@@@QAEXPAVCPythonNetworkStream@@P82@AEXXZ@Z
_TEXT	SEGMENT
_pSelfObject$ = 8					; size = 4
_pFuncObject$ = 12					; size = 8
?Set@?$CFuncObject@VCPythonNetworkStream@@@@QAEXPAVCPythonNetworkStream@@P82@AEXXZ@Z PROC ; CFuncObject<CPythonNetworkStream>::Set, COMDAT
; _this$ = ecx

; 23   : 		{

  00000	55		 push	 ebp
  00001	8b ec		 mov	 ebp, esp

; 24   : 			m_pSelfObject = pSelfObject;

  00003	8b 45 08	 mov	 eax, DWORD PTR _pSelfObject$[ebp]

; 25   : 			m_pFuncObject = pFuncObject;

  00006	8b 55 10	 mov	 edx, DWORD PTR _pFuncObject$[ebp+4]
  00009	89 41 08	 mov	 DWORD PTR [ecx+8], eax
  0000c	8b 45 0c	 mov	 eax, DWORD PTR _pFuncObject$[ebp]
  0000f	89 41 10	 mov	 DWORD PTR [ecx+16], eax
  00012	89 51 14	 mov	 DWORD PTR [ecx+20], edx

; 26   : 		}

  00015	5d		 pop	 ebp
  00016	c2 0c 00	 ret	 12			; 0000000cH
?Set@?$CFuncObject@VCPythonNetworkStream@@@@QAEXPAVCPythonNetworkStream@@P82@AEXXZ@Z ENDP ; CFuncObject<CPythonNetworkStream>::Set
_TEXT	ENDS
; Function compile flags: /Ogtp
; File D:\_m2work\Server Client TMP4\ClientVS22\source\EterLib\FuncObject.h
;	COMDAT ?Clear@?$CFuncObject@VCPythonNetworkStream@@@@QAEXXZ
_TEXT	SEGMENT
?Clear@?$CFuncObject@VCPythonNetworkStream@@@@QAEXXZ PROC ; CFuncObject<CPythonNetworkStream>::Clear, COMDAT
; _this$ = ecx

; 18   : 			m_pSelfObject = NULL;

  00000	c7 41 08 00 00
	00 00		 mov	 DWORD PTR [ecx+8], 0

; 19   : 			m_pFuncObject = NULL;

  00007	c7 41 10 00 00
	00 00		 mov	 DWORD PTR [ecx+16], 0
  0000e	c7 41 14 00 00
	00 00		 mov	 DWORD PTR [ecx+20], 0

; 20   : 		}

  00015	c3		 ret	 0
?Clear@?$CFuncObject@VCPythonNetworkStream@@@@QAEXXZ ENDP ; CFuncObject<CPythonNetworkStream>::Clear
_TEXT	ENDS
; Function compile flags: /Ogtp
; File D:\_m2work\Server Client TMP4\ClientVS22\source\EterLib\FuncObject.h
;	COMDAT ??1?$CFuncObject@VCPythonNetworkStream@@@@UAE@XZ
_TEXT	SEGMENT
??1?$CFuncObject@VCPythonNetworkStream@@@@UAE@XZ PROC	; CFuncObject<CPythonNetworkStream>::~CFuncObject<CPythonNetworkStream>, COMDAT
; _this$ = ecx

; 13   : 		{

  00000	c7 01 00 00 00
	00		 mov	 DWORD PTR [ecx], OFFSET ??_7?$CFuncObject@VCPythonNetworkStream@@@@6B@

; 14   : 		}

  00006	c3		 ret	 0
??1?$CFuncObject@VCPythonNetworkStream@@@@UAE@XZ ENDP	; CFuncObject<CPythonNetworkStream>::~CFuncObject<CPythonNetworkStream>
_TEXT	ENDS
; Function compile flags: /Ogtp
; File D:\_m2work\Server Client TMP4\ClientVS22\source\EterLib\FuncObject.h
;	COMDAT ??0?$CFuncObject@VCPythonNetworkStream@@@@QAE@XZ
_TEXT	SEGMENT
??0?$CFuncObject@VCPythonNetworkStream@@@@QAE@XZ PROC	; CFuncObject<CPythonNetworkStream>::CFuncObject<CPythonNetworkStream>, COMDAT
; _this$ = ecx

; 8    : 		{

  00000	c7 01 00 00 00
	00		 mov	 DWORD PTR [ecx], OFFSET ??_7?$CFuncObject@VCPythonNetworkStream@@@@6B@

; 9    : 			Clear();
; 10   : 		}

  00006	8b c1		 mov	 eax, ecx

; 18   : 			m_pSelfObject = NULL;

  00008	c7 41 08 00 00
	00 00		 mov	 DWORD PTR [ecx+8], 0

; 19   : 			m_pFuncObject = NULL;

  0000f	c7 41 10 00 00
	00 00		 mov	 DWORD PTR [ecx+16], 0
  00016	c7 41 14 00 00
	00 00		 mov	 DWORD PTR [ecx+20], 0

; 9    : 			Clear();
; 10   : 		}

  0001d	c3		 ret	 0
??0?$CFuncObject@VCPythonNetworkStream@@@@QAE@XZ ENDP	; CFuncObject<CPythonNetworkStream>::CFuncObject<CPythonNetworkStream>
_TEXT	ENDS
; Function compile flags: /Ogtp
; File D:\_m2work\Server Client TMP4\ClientVS22\source\eterBase\Singleton.h
;	COMDAT ??1?$CSingleton@VCPythonNetworkStream@@@@UAE@XZ
_TEXT	SEGMENT
??1?$CSingleton@VCPythonNetworkStream@@@@UAE@XZ PROC	; CSingleton<CPythonNetworkStream>::~CSingleton<CPythonNetworkStream>, COMDAT
; _this$ = ecx

; 19   : 	{ 

  00000	c7 01 00 00 00
	00		 mov	 DWORD PTR [ecx], OFFSET ??_7?$CSingleton@VCPythonNetworkStream@@@@6B@

; 20   : 		assert(ms_singleton);
; 21   : 		ms_singleton = 0; 

  00006	c7 05 00 00 00
	00 00 00 00 00	 mov	 DWORD PTR ?ms_singleton@?$CSingleton@VCPythonNetworkStream@@@@0PAVCPythonNetworkStream@@A, 0 ; CSingleton<CPythonNetworkStream>::ms_singleton

; 22   : 	}

  00010	c3		 ret	 0
??1?$CSingleton@VCPythonNetworkStream@@@@UAE@XZ ENDP	; CSingleton<CPythonNetworkStream>::~CSingleton<CPythonNetworkStream>
_TEXT	ENDS
; Function compile flags: /Ogtp
; File D:\_m2work\Server Client TMP4\ClientVS22\source\eterBase\Singleton.h
;	COMDAT ??0?$CSingleton@VCPythonNetworkStream@@@@QAE@XZ
_TEXT	SEGMENT
??0?$CSingleton@VCPythonNetworkStream@@@@QAE@XZ PROC	; CSingleton<CPythonNetworkStream>::CSingleton<CPythonNetworkStream>, COMDAT
; _this$ = ecx

; 12   : 	{ 
; 13   : 		assert(!ms_singleton);
; 14   : 		int offset = (int) (T*) 1 - (int) (CSingleton <T>*) (T*) 1; 
; 15   : 		ms_singleton = (T*) ((int) this + offset);

  00000	8d 41 84	 lea	 eax, DWORD PTR [ecx-124]
  00003	c7 01 00 00 00
	00		 mov	 DWORD PTR [ecx], OFFSET ??_7?$CSingleton@VCPythonNetworkStream@@@@6B@
  00009	a3 00 00 00 00	 mov	 DWORD PTR ?ms_singleton@?$CSingleton@VCPythonNetworkStream@@@@0PAVCPythonNetworkStream@@A, eax ; CSingleton<CPythonNetworkStream>::ms_singleton

; 16   : 	} 

  0000e	8b c1		 mov	 eax, ecx
  00010	c3		 ret	 0
??0?$CSingleton@VCPythonNetworkStream@@@@QAE@XZ ENDP	; CSingleton<CPythonNetworkStream>::CSingleton<CPythonNetworkStream>
_TEXT	ENDS
; Function compile flags: /Ogtp
;	COMDAT ??_G?$CFuncObject@VCPythonNetworkStream@@@@UAEPAXI@Z
_TEXT	SEGMENT
___flags$ = 8						; size = 4
??_G?$CFuncObject@VCPythonNetworkStream@@@@UAEPAXI@Z PROC ; CFuncObject<CPythonNetworkStream>::`scalar deleting destructor', COMDAT
; _this$ = ecx
  00000	55		 push	 ebp
  00001	8b ec		 mov	 ebp, esp
  00003	f6 45 08 01	 test	 BYTE PTR ___flags$[ebp], 1
  00007	56		 push	 esi
  00008	8b f1		 mov	 esi, ecx
  0000a	c7 06 00 00 00
	00		 mov	 DWORD PTR [esi], OFFSET ??_7?$CFuncObject@VCPythonNetworkStream@@@@6B@
  00010	74 0b		 je	 SHORT $LN5@scalar
  00012	6a 18		 push	 24			; 00000018H
  00014	56		 push	 esi
  00015	e8 00 00 00 00	 call	 ??3@YAXPAXI@Z		; operator delete
  0001a	83 c4 08	 add	 esp, 8
$LN5@scalar:
  0001d	8b c6		 mov	 eax, esi
  0001f	5e		 pop	 esi
  00020	5d		 pop	 ebp
  00021	c2 04 00	 ret	 4
??_G?$CFuncObject@VCPythonNetworkStream@@@@UAEPAXI@Z ENDP ; CFuncObject<CPythonNetworkStream>::`scalar deleting destructor'
_TEXT	ENDS
; Function compile flags: /Ogtp
; File D:\_m2work\Server Client TMP4\ClientVS22\source\eterBase\Singleton.h
;	COMDAT ??_G?$CSingleton@VCPythonNetworkStream@@@@UAEPAXI@Z
_TEXT	SEGMENT
___flags$ = 8						; size = 4
??_G?$CSingleton@VCPythonNetworkStream@@@@UAEPAXI@Z PROC ; CSingleton<CPythonNetworkStream>::`scalar deleting destructor', COMDAT
; _this$ = ecx
  00000	55		 push	 ebp
  00001	8b ec		 mov	 ebp, esp
  00003	f6 45 08 01	 test	 BYTE PTR ___flags$[ebp], 1

; 19   : 	{ 

  00007	56		 push	 esi
  00008	8b f1		 mov	 esi, ecx

; 20   : 		assert(ms_singleton);
; 21   : 		ms_singleton = 0; 

  0000a	c7 05 00 00 00
	00 00 00 00 00	 mov	 DWORD PTR ?ms_singleton@?$CSingleton@VCPythonNetworkStream@@@@0PAVCPythonNetworkStream@@A, 0 ; CSingleton<CPythonNetworkStream>::ms_singleton
  00014	c7 06 00 00 00
	00		 mov	 DWORD PTR [esi], OFFSET ??_7?$CSingleton@VCPythonNetworkStream@@@@6B@
  0001a	74 0b		 je	 SHORT $LN8@scalar
  0001c	6a 04		 push	 4
  0001e	56		 push	 esi
  0001f	e8 00 00 00 00	 call	 ??3@YAXPAXI@Z		; operator delete
  00024	83 c4 08	 add	 esp, 8
$LN8@scalar:
  00027	8b c6		 mov	 eax, esi
  00029	5e		 pop	 esi
  0002a	5d		 pop	 ebp
  0002b	c2 04 00	 ret	 4
??_G?$CSingleton@VCPythonNetworkStream@@@@UAEPAXI@Z ENDP ; CSingleton<CPythonNetworkStream>::`scalar deleting destructor'
_TEXT	ENDS
; Function compile flags: /Ogtp
; File C:\Program Files\Microsoft Visual Studio\2022\Community\VC\Tools\MSVC\14.44.35207\include\xutility
;	COMDAT ??$_Adl_verify_range@PAPAU_object@@PAPAU1@@std@@YAXABQAPAU_object@@0@Z
_TEXT	SEGMENT
??$_Adl_verify_range@PAPAU_object@@PAPAU1@@std@@YAXABQAPAU_object@@0@Z PROC ; std::_Adl_verify_range<_object * *,_object * *>, COMDAT
; __First$dead$ = ecx
; __Last$dead$ = edx

; 1353 :     // check that [_First, _Last) forms an iterator range
; 1354 :     if constexpr (is_pointer_v<_Iter> && is_pointer_v<_Sentinel>) {
; 1355 : #if _ITERATOR_DEBUG_LEVEL != 0
; 1356 :         _STL_VERIFY(_First <= _Last, "transposed pointer range");
; 1357 : #endif // _ITERATOR_DEBUG_LEVEL != 0
; 1358 :     } else if constexpr (_Range_verifiable_v<_Iter, _Sentinel>) {
; 1359 :         _Verify_range(_First, _Last);
; 1360 :     }
; 1361 : }

  00000	c2 00 00	 ret	 0
??$_Adl_verify_range@PAPAU_object@@PAPAU1@@std@@YAXABQAPAU_object@@0@Z ENDP ; std::_Adl_verify_range<_object * *,_object * *>
_TEXT	ENDS
; Function compile flags: /Ogtp
; File C:\Program Files\Microsoft Visual Studio\2022\Community\VC\Tools\MSVC\14.44.35207\include\xutility
;	COMDAT ??$_Is_all_bits_zero@PAU_object@@@std@@YA_NABQAU_object@@@Z
_TEXT	SEGMENT
__Zero$1 = -4						; size = 4
??$_Is_all_bits_zero@PAU_object@@@std@@YA_NABQAU_object@@@Z PROC ; std::_Is_all_bits_zero<_object *>, COMDAT
; __Val$ = ecx

; 5274 : _NODISCARD bool _Is_all_bits_zero(const _Ty& _Val) {

  00000	55		 push	 ebp
  00001	8b ec		 mov	 ebp, esp
  00003	51		 push	 ecx

; 5275 :     // checks if scalar type has all bits set to zero
; 5276 :     _STL_INTERNAL_STATIC_ASSERT(is_scalar_v<_Ty> && !is_member_pointer_v<_Ty>);
; 5277 :     if constexpr (is_same_v<_Ty, nullptr_t>) {
; 5278 :         return true;
; 5279 :     } else {
; 5280 :         constexpr _Ty _Zero{};
; 5281 :         return _CSTD memcmp(&_Val, &_Zero, sizeof(_Ty)) == 0;

  00004	8b 01		 mov	 eax, DWORD PTR [ecx]
  00006	8d 55 fc	 lea	 edx, DWORD PTR __Zero$1[ebp]
  00009	c7 45 fc 00 00
	00 00		 mov	 DWORD PTR __Zero$1[ebp], 0
  00010	3b 02		 cmp	 eax, DWORD PTR [edx]
  00012	0f 94 c0	 sete	 al

; 5282 :     }
; 5283 : }

  00015	8b e5		 mov	 esp, ebp
  00017	5d		 pop	 ebp
  00018	c3		 ret	 0
??$_Is_all_bits_zero@PAU_object@@@std@@YA_NABQAU_object@@@Z ENDP ; std::_Is_all_bits_zero<_object *>
_TEXT	ENDS
; Function compile flags: /Ogtp
; File C:\Program Files\Microsoft Visual Studio\2022\Community\VC\Tools\MSVC\14.44.35207\include\xutility
;	COMDAT ??$_Fill_zero_memset@PAPAU_object@@@std@@YAXPAPAU_object@@I@Z
_TEXT	SEGMENT
??$_Fill_zero_memset@PAPAU_object@@@std@@YAXPAPAU_object@@I@Z PROC ; std::_Fill_zero_memset<_object * *>, COMDAT
; __Dest$ = ecx
; __Count$ = edx

; 5270 :     _CSTD memset(_STD _To_address(_Dest), 0, _Count * sizeof(_Iter_value_t<_CtgIt>));

  00000	8d 04 95 00 00
	00 00		 lea	 eax, DWORD PTR [edx*4]
  00007	50		 push	 eax
  00008	6a 00		 push	 0
  0000a	51		 push	 ecx
  0000b	e8 00 00 00 00	 call	 _memset
  00010	83 c4 0c	 add	 esp, 12			; 0000000cH

; 5271 : }

  00013	c3		 ret	 0
??$_Fill_zero_memset@PAPAU_object@@@std@@YAXPAPAU_object@@I@Z ENDP ; std::_Fill_zero_memset<_object * *>
_TEXT	ENDS
; Function compile flags: /Ogtp
; File C:\Program Files\Microsoft Visual Studio\2022\Community\VC\Tools\MSVC\14.44.35207\include\xutility
;	COMDAT ??$_To_address@PAPAU_object@@@std@@YA?A_PABQAPAU_object@@@Z
_TEXT	SEGMENT
??$_To_address@PAPAU_object@@@std@@YA?A_PABQAPAU_object@@@Z PROC ; std::_To_address<_object * *>, COMDAT
; __Val$ = ecx

; 4616 :     _STL_INTERNAL_STATIC_ASSERT(contiguous_iterator<_Iter>);
; 4617 :     return _STD to_address(_Val);

  00000	8b 01		 mov	 eax, DWORD PTR [ecx]

; 4618 : }

  00002	c3		 ret	 0
??$_To_address@PAPAU_object@@@std@@YA?A_PABQAPAU_object@@@Z ENDP ; std::_To_address<_object * *>
_TEXT	ENDS
; Function compile flags: /Ogtp
; File C:\Program Files\Microsoft Visual Studio\2022\Community\VC\Tools\MSVC\14.44.35207\include\xmemory
;	COMDAT ??$?0V?$basic_string@DU?$char_traits@D@std@@V?$allocator@D@2@@std@@@?$allocator@U_Container_proxy@std@@@std@@QAE@ABV?$allocator@V?$basic_string@DU?$char_traits@D@std@@V?$allocator@D@2@@std@@@1@@Z
_TEXT	SEGMENT
___formal$dead$ = 8					; size = 4
??$?0V?$basic_string@DU?$char_traits@D@std@@V?$allocator@D@2@@std@@@?$allocator@U_Container_proxy@std@@@std@@QAE@ABV?$allocator@V?$basic_string@DU?$char_traits@D@std@@V?$allocator@D@2@@std@@@1@@Z PROC ; std::allocator<std::_Container_proxy>::allocator<std::_Container_proxy><std::basic_string<char,std::char_traits<char>,std::allocator<char> > >, COMDAT
; _this$ = ecx

; 978  :     constexpr allocator(const allocator<_Other>&) noexcept {}

  00000	8b c1		 mov	 eax, ecx
  00002	c2 04 00	 ret	 4
??$?0V?$basic_string@DU?$char_traits@D@std@@V?$allocator@D@2@@std@@@?$allocator@U_Container_proxy@std@@@std@@QAE@ABV?$allocator@V?$basic_string@DU?$char_traits@D@std@@V?$allocator@D@2@@std@@@1@@Z ENDP ; std::allocator<std::_Container_proxy>::allocator<std::_Container_proxy><std::basic_string<char,std::char_traits<char>,std::allocator<char> > >
_TEXT	ENDS
; Function compile flags: /Ogtp
; File C:\Program Files\Microsoft Visual Studio\2022\Community\VC\Tools\MSVC\14.44.35207\include\xmemory
; File C:\Program Files\Microsoft Visual Studio\2022\Community\VC\Tools\MSVC\14.44.35207\include\deque
; File C:\Program Files\Microsoft Visual Studio\2022\Community\VC\Tools\MSVC\14.44.35207\include\xmemory
;	COMDAT ??$?0$$V@?$_Compressed_pair@V?$allocator@V?$basic_string@DU?$char_traits@D@std@@V?$allocator@D@2@@std@@@std@@V?$_Deque_val@U?$_Deque_simple_types@V?$basic_string@DU?$char_traits@D@std@@V?$allocator@D@2@@std@@@std@@@2@$00@std@@QAE@U_Zero_then_variadic_args_t@1@@Z
_TEXT	SEGMENT
___formal$ = 8						; size = 1
??$?0$$V@?$_Compressed_pair@V?$allocator@V?$basic_string@DU?$char_traits@D@std@@V?$allocator@D@2@@std@@@std@@V?$_Deque_val@U?$_Deque_simple_types@V?$basic_string@DU?$char_traits@D@std@@V?$allocator@D@2@@std@@@std@@@2@$00@std@@QAE@U_Zero_then_variadic_args_t@1@@Z PROC ; std::_Compressed_pair<std::allocator<std::basic_string<char,std::char_traits<char>,std::allocator<char> > >,std::_Deque_val<std::_Deque_simple_types<std::basic_string<char,std::char_traits<char>,std::allocator<char> > > >,1>::_Compressed_pair<std::allocator<std::basic_string<char,std::char_traits<char>,std::allocator<char> > >,std::_Deque_val<std::_Deque_simple_types<std::basic_string<char,std::char_traits<char>,std::allocator<char> > > >,1><>, COMDAT
; _this$ = ecx

; 1235 :     _Container_proxy* _Myproxy = nullptr;

  00000	c7 01 00 00 00
	00		 mov	 DWORD PTR [ecx], 0

; 1531 :         : _Ty1(), _Myval2(_STD forward<_Other2>(_Val2)...) {}

  00006	8b c1		 mov	 eax, ecx
; File C:\Program Files\Microsoft Visual Studio\2022\Community\VC\Tools\MSVC\14.44.35207\include\deque

; 556  :     _Deque_val() noexcept : _Map(), _Mapsize(0), _Myoff(0), _Mysize(0) {}

  00008	c7 41 04 00 00
	00 00		 mov	 DWORD PTR [ecx+4], 0
  0000f	c7 41 08 00 00
	00 00		 mov	 DWORD PTR [ecx+8], 0
  00016	c7 41 0c 00 00
	00 00		 mov	 DWORD PTR [ecx+12], 0
  0001d	c7 41 10 00 00
	00 00		 mov	 DWORD PTR [ecx+16], 0
; File C:\Program Files\Microsoft Visual Studio\2022\Community\VC\Tools\MSVC\14.44.35207\include\xmemory

; 1531 :         : _Ty1(), _Myval2(_STD forward<_Other2>(_Val2)...) {}

  00024	c2 04 00	 ret	 4
??$?0$$V@?$_Compressed_pair@V?$allocator@V?$basic_string@DU?$char_traits@D@std@@V?$allocator@D@2@@std@@@std@@V?$_Deque_val@U?$_Deque_simple_types@V?$basic_string@DU?$char_traits@D@std@@V?$allocator@D@2@@std@@@std@@@2@$00@std@@QAE@U_Zero_then_variadic_args_t@1@@Z ENDP ; std::_Compressed_pair<std::allocator<std::basic_string<char,std::char_traits<char>,std::allocator<char> > >,std::_Deque_val<std::_Deque_simple_types<std::basic_string<char,std::char_traits<char>,std::allocator<char> > > >,1>::_Compressed_pair<std::allocator<std::basic_string<char,std::char_traits<char>,std::allocator<char> > >,std::_Deque_val<std::_Deque_simple_types<std::basic_string<char,std::char_traits<char>,std::allocator<char> > > >,1><>
_TEXT	ENDS
; Function compile flags: /Ogtp
; File C:\Program Files\Microsoft Visual Studio\2022\Community\VC\Tools\MSVC\14.44.35207\include\deque
;	COMDAT ?_Get_data@?$deque@V?$basic_string@DU?$char_traits@D@std@@V?$allocator@D@2@@std@@V?$allocator@V?$basic_string@DU?$char_traits@D@std@@V?$allocator@D@2@@std@@@2@@std@@AAEAAV?$_Deque_val@U?$_Deque_simple_types@V?$basic_string@DU?$char_traits@D@std@@V?$allocator@D@2@@std@@@std@@@2@XZ
_TEXT	SEGMENT
?_Get_data@?$deque@V?$basic_string@DU?$char_traits@D@std@@V?$allocator@D@2@@std@@V?$allocator@V?$basic_string@DU?$char_traits@D@std@@V?$allocator@D@2@@std@@@2@@std@@AAEAAV?$_Deque_val@U?$_Deque_simple_types@V?$basic_string@DU?$char_traits@D@std@@V?$allocator@D@2@@std@@@std@@@2@XZ PROC ; std::deque<std::basic_string<char,std::char_traits<char>,std::allocator<char> >,std::allocator<std::basic_string<char,std::char_traits<char>,std::allocator<char> > > >::_Get_data, COMDAT
; _this$ = ecx

; 1722 :         return _Mypair._Myval2;

  00000	8b c1		 mov	 eax, ecx

; 1723 :     }

  00002	c3		 ret	 0
?_Get_data@?$deque@V?$basic_string@DU?$char_traits@D@std@@V?$allocator@D@2@@std@@V?$allocator@V?$basic_string@DU?$char_traits@D@std@@V?$allocator@D@2@@std@@@2@@std@@AAEAAV?$_Deque_val@U?$_Deque_simple_types@V?$basic_string@DU?$char_traits@D@std@@V?$allocator@D@2@@std@@@std@@@2@XZ ENDP ; std::deque<std::basic_string<char,std::char_traits<char>,std::allocator<char> >,std::allocator<std::basic_string<char,std::char_traits<char>,std::allocator<char> > > >::_Get_data
_TEXT	ENDS
; Function compile flags: /Ogtp
; File C:\Program Files\Microsoft Visual Studio\2022\Community\VC\Tools\MSVC\14.44.35207\include\deque
;	COMDAT ?_Getal@?$deque@V?$basic_string@DU?$char_traits@D@std@@V?$allocator@D@2@@std@@V?$allocator@V?$basic_string@DU?$char_traits@D@std@@V?$allocator@D@2@@std@@@2@@std@@AAEAAV?$allocator@V?$basic_string@DU?$char_traits@D@std@@V?$allocator@D@2@@std@@@2@XZ
_TEXT	SEGMENT
?_Getal@?$deque@V?$basic_string@DU?$char_traits@D@std@@V?$allocator@D@2@@std@@V?$allocator@V?$basic_string@DU?$char_traits@D@std@@V?$allocator@D@2@@std@@@2@@std@@AAEAAV?$allocator@V?$basic_string@DU?$char_traits@D@std@@V?$allocator@D@2@@std@@@2@XZ PROC ; std::deque<std::basic_string<char,std::char_traits<char>,std::allocator<char> >,std::allocator<std::basic_string<char,std::char_traits<char>,std::allocator<char> > > >::_Getal, COMDAT
; _this$ = ecx

; 1714 :         return _Mypair._Get_first();

  00000	8b c1		 mov	 eax, ecx

; 1715 :     }

  00002	c3		 ret	 0
?_Getal@?$deque@V?$basic_string@DU?$char_traits@D@std@@V?$allocator@D@2@@std@@V?$allocator@V?$basic_string@DU?$char_traits@D@std@@V?$allocator@D@2@@std@@@2@@std@@AAEAAV?$allocator@V?$basic_string@DU?$char_traits@D@std@@V?$allocator@D@2@@std@@@2@XZ ENDP ; std::deque<std::basic_string<char,std::char_traits<char>,std::allocator<char> >,std::allocator<std::basic_string<char,std::char_traits<char>,std::allocator<char> > > >::_Getal
_TEXT	ENDS
; Function compile flags: /Ogtp
; File C:\Program Files\Microsoft Visual Studio\2022\Community\VC\Tools\MSVC\14.44.35207\include\deque
; File C:\Program Files\Microsoft Visual Studio\2022\Community\VC\Tools\MSVC\14.44.35207\include\xstring
; File C:\Program Files\Microsoft Visual Studio\2022\Community\VC\Tools\MSVC\14.44.35207\include\deque
; File C:\Program Files\Microsoft Visual Studio\2022\Community\VC\Tools\MSVC\14.44.35207\include\xmemory
; File C:\Program Files\Microsoft Visual Studio\2022\Community\VC\Tools\MSVC\14.44.35207\include\deque
; File C:\Program Files\Microsoft Visual Studio\2022\Community\VC\Tools\MSVC\14.44.35207\include\xmemory
; File C:\Program Files\Microsoft Visual Studio\2022\Community\VC\Tools\MSVC\14.44.35207\include\deque
; File C:\Program Files\Microsoft Visual Studio\2022\Community\VC\Tools\MSVC\14.44.35207\include\xmemory
; File C:\Program Files\Microsoft Visual Studio\2022\Community\VC\Tools\MSVC\14.44.35207\include\deque
;	COMDAT ?_Tidy@?$deque@V?$basic_string@DU?$char_traits@D@std@@V?$allocator@D@2@@std@@V?$allocator@V?$basic_string@DU?$char_traits@D@std@@V?$allocator@D@2@@std@@@2@@std@@AAEXXZ
_TEXT	SEGMENT
?_Tidy@?$deque@V?$basic_string@DU?$char_traits@D@std@@V?$allocator@D@2@@std@@V?$allocator@V?$basic_string@DU?$char_traits@D@std@@V?$allocator@D@2@@std@@@2@@std@@AAEXXZ PROC ; std::deque<std::basic_string<char,std::char_traits<char>,std::allocator<char> >,std::allocator<std::basic_string<char,std::char_traits<char>,std::allocator<char> > > >::_Tidy, COMDAT
; _this$ = ecx

; 1670 :     void _Tidy() noexcept { // free all storage

  00000	57		 push	 edi
  00001	8b f9		 mov	 edi, ecx

; 971  :         return _Mysize() == 0;

  00003	8b 4f 10	 mov	 ecx, DWORD PTR [edi+16]
  00006	85 c9		 test	 ecx, ecx

; 1671 :         _Orphan_all();
; 1672 : 
; 1673 :         while (!empty()) {

  00008	74 2f		 je	 SHORT $LN83@Tidy
  0000a	66 0f 1f 44 00
	00		 npad	 6
$LL2@Tidy:

; 572  :         return static_cast<_Map_difference_type>((_Off / _Block_size) & (_Mapsize - 1));

  00010	8b 47 0c	 mov	 eax, DWORD PTR [edi+12]
  00013	48		 dec	 eax
  00014	03 c8		 add	 ecx, eax
  00016	8b 47 08	 mov	 eax, DWORD PTR [edi+8]
  00019	48		 dec	 eax
  0001a	23 c8		 and	 ecx, eax

; 1512 :         _Alty_traits::destroy(_Getal(), _Get_data()._Address_subscript(_Newoff));

  0001c	8b 47 04	 mov	 eax, DWORD PTR [edi+4]
; File C:\Program Files\Microsoft Visual Studio\2022\Community\VC\Tools\MSVC\14.44.35207\include\xstring

; 1383 :         _Tidy_deallocate();

  0001f	8b 0c 88	 mov	 ecx, DWORD PTR [eax+ecx*4]
  00022	e8 00 00 00 00	 call	 ?_Tidy_deallocate@?$basic_string@DU?$char_traits@D@std@@V?$allocator@D@2@@std@@AAEXXZ ; std::basic_string<char,std::char_traits<char>,std::allocator<char> >::_Tidy_deallocate
; File C:\Program Files\Microsoft Visual Studio\2022\Community\VC\Tools\MSVC\14.44.35207\include\deque

; 1513 :         if (--_Mysize() == 0) {

  00027	8b 4f 10	 mov	 ecx, DWORD PTR [edi+16]
  0002a	83 e9 01	 sub	 ecx, 1
  0002d	89 4f 10	 mov	 DWORD PTR [edi+16], ecx
  00030	75 de		 jne	 SHORT $LL2@Tidy

; 1514 :             _Myoff() = 0;

  00032	c7 47 0c 00 00
	00 00		 mov	 DWORD PTR [edi+12], 0
$LN83@Tidy:

; 1674 :             pop_back();
; 1675 :         }
; 1676 : 
; 1677 :         if (_Map() != nullptr) {

  00039	83 7f 04 00	 cmp	 DWORD PTR [edi+4], 0
  0003d	74 5e		 je	 SHORT $LN39@Tidy
  0003f	56		 push	 esi

; 1654 :         for (auto _Block = _Map_distance(); _Block > 0;) { // free storage for a block and destroy pointer

  00040	8b 77 08	 mov	 esi, DWORD PTR [edi+8]
  00043	85 f6		 test	 esi, esi
  00045	7e 1a		 jle	 SHORT $LN79@Tidy
$LL37@Tidy:

; 1655 :             --_Block;
; 1656 :             auto& _Block_ptr = _Map()[_Block];
; 1657 :             if (_Block_ptr) { // free block

  00047	8b 47 04	 mov	 eax, DWORD PTR [edi+4]
  0004a	4e		 dec	 esi
  0004b	8b 04 b0	 mov	 eax, DWORD PTR [eax+esi*4]
  0004e	85 c0		 test	 eax, eax
  00050	74 0b		 je	 SHORT $LN35@Tidy
; File C:\Program Files\Microsoft Visual Studio\2022\Community\VC\Tools\MSVC\14.44.35207\include\xmemory

; 289  :         ::operator delete(_Ptr, _Bytes);

  00052	6a 18		 push	 24			; 00000018H
  00054	50		 push	 eax
  00055	e8 00 00 00 00	 call	 ??3@YAXPAXI@Z		; operator delete
  0005a	83 c4 08	 add	 esp, 8
$LN35@Tidy:
; File C:\Program Files\Microsoft Visual Studio\2022\Community\VC\Tools\MSVC\14.44.35207\include\deque

; 1654 :         for (auto _Block = _Map_distance(); _Block > 0;) { // free storage for a block and destroy pointer

  0005d	85 f6		 test	 esi, esi
  0005f	7f e6		 jg	 SHORT $LL37@Tidy
$LN79@Tidy:
; File C:\Program Files\Microsoft Visual Studio\2022\Community\VC\Tools\MSVC\14.44.35207\include\xmemory

; 985  :         _STD _Deallocate<_New_alignof<_Ty>>(_Ptr, sizeof(_Ty) * _Count);

  00061	8b 4f 08	 mov	 ecx, DWORD PTR [edi+8]
  00064	8b 47 04	 mov	 eax, DWORD PTR [edi+4]
  00067	c1 e1 02	 shl	 ecx, 2
  0006a	5e		 pop	 esi

; 284  :         if (_Bytes >= _Big_allocation_threshold) {

  0006b	81 f9 00 10 00
	00		 cmp	 ecx, 4096		; 00001000H
  00071	72 12		 jb	 SHORT $LN67@Tidy

; 205  :     const uintptr_t _Ptr_container   = _Ptr_user[-1];

  00073	8b 50 fc	 mov	 edx, DWORD PTR [eax-4]
  00076	83 c1 23	 add	 ecx, 35			; 00000023H

; 206  : 
; 207  :     // If the following asserts, it likely means that we are performing
; 208  :     // an aligned delete on memory coming from an unaligned allocation.
; 209  :     _STL_ASSERT(_Ptr_user[-2] == _Big_allocation_sentinel, "invalid argument");
; 210  : 
; 211  :     // Extra paranoia on aligned allocation/deallocation; ensure _Ptr_container is
; 212  :     // in range [_Min_back_shift, _Non_user_size]
; 213  : #ifdef _DEBUG
; 214  :     constexpr uintptr_t _Min_back_shift = 2 * sizeof(void*);
; 215  : #else // ^^^ defined(_DEBUG) / !defined(_DEBUG) vvv
; 216  :     constexpr uintptr_t _Min_back_shift = sizeof(void*);
; 217  : #endif // ^^^ !defined(_DEBUG) ^^^
; 218  :     const uintptr_t _Back_shift = reinterpret_cast<uintptr_t>(_Ptr) - _Ptr_container;

  00079	2b c2		 sub	 eax, edx

; 219  :     _STL_VERIFY(_Back_shift >= _Min_back_shift && _Back_shift <= _Non_user_size, "invalid argument");

  0007b	83 c0 fc	 add	 eax, -4			; fffffffcH
  0007e	83 f8 1f	 cmp	 eax, 31			; 0000001fH
  00081	77 1c		 ja	 SHORT $LN66@Tidy

; 220  :     _Ptr = reinterpret_cast<void*>(_Ptr_container);

  00083	8b c2		 mov	 eax, edx
$LN67@Tidy:

; 289  :         ::operator delete(_Ptr, _Bytes);

  00085	51		 push	 ecx
  00086	50		 push	 eax
  00087	e8 00 00 00 00	 call	 ??3@YAXPAXI@Z		; operator delete
  0008c	83 c4 08	 add	 esp, 8
; File C:\Program Files\Microsoft Visual Studio\2022\Community\VC\Tools\MSVC\14.44.35207\include\deque

; 1666 :         _Map()     = nullptr;

  0008f	c7 47 04 00 00
	00 00		 mov	 DWORD PTR [edi+4], 0

; 1667 :         _Mapsize() = 0;

  00096	c7 47 08 00 00
	00 00		 mov	 DWORD PTR [edi+8], 0
$LN39@Tidy:
  0009d	5f		 pop	 edi

; 1682 :     }

  0009e	c3		 ret	 0
$LN66@Tidy:
; File C:\Program Files\Microsoft Visual Studio\2022\Community\VC\Tools\MSVC\14.44.35207\include\xmemory

; 219  :     _STL_VERIFY(_Back_shift >= _Min_back_shift && _Back_shift <= _Non_user_size, "invalid argument");

  0009f	6a 00		 push	 0
  000a1	6a 00		 push	 0
  000a3	6a 00		 push	 0
  000a5	6a 00		 push	 0
  000a7	6a 00		 push	 0
  000a9	e8 00 00 00 00	 call	 __invoke_watson
$LN92@Tidy:
  000ae	cc		 int	 3
?_Tidy@?$deque@V?$basic_string@DU?$char_traits@D@std@@V?$allocator@D@2@@std@@V?$allocator@V?$basic_string@DU?$char_traits@D@std@@V?$allocator@D@2@@std@@@2@@std@@AAEXXZ ENDP ; std::deque<std::basic_string<char,std::char_traits<char>,std::allocator<char> >,std::allocator<std::basic_string<char,std::char_traits<char>,std::allocator<char> > > >::_Tidy
_TEXT	ENDS
; Function compile flags: /Ogtp
; File D:\_m2work\Server Client TMP4\ClientVS22\source\eterlib\Ref.h
;	COMDAT ?SetPointer@?$CRef@VCNetworkActorManager@@@@QAEXPAVCReferenceObject@@@Z
_TEXT	SEGMENT
_pObject$ = 8						; size = 4
?SetPointer@?$CRef@VCNetworkActorManager@@@@QAEXPAVCReferenceObject@@@Z PROC ; CRef<CNetworkActorManager>::SetPointer, COMDAT
; _this$ = ecx

; 66   : 		{

  00000	55		 push	 ebp
  00001	8b ec		 mov	 ebp, esp

; 67   : 			CReferenceObject* pOldObject = m_pObject;
; 68   : 
; 69   : 			m_pObject = pObject;

  00003	8b 45 08	 mov	 eax, DWORD PTR _pObject$[ebp]
  00006	56		 push	 esi
  00007	8b 31		 mov	 esi, DWORD PTR [ecx]
  00009	89 01		 mov	 DWORD PTR [ecx], eax

; 70   : 
; 71   : 			if (m_pObject)

  0000b	85 c0		 test	 eax, eax
  0000d	74 07		 je	 SHORT $LN2@SetPointer

; 72   : 				m_pObject->AddReference();

  0000f	8b c8		 mov	 ecx, eax
  00011	e8 00 00 00 00	 call	 ?AddReference@CReferenceObject@@QAEXXZ ; CReferenceObject::AddReference
$LN2@SetPointer:

; 73   : 
; 74   : 			if (pOldObject)

  00016	85 f6		 test	 esi, esi
  00018	74 07		 je	 SHORT $LN3@SetPointer

; 75   : 				pOldObject->Release();

  0001a	8b ce		 mov	 ecx, esi
  0001c	e8 00 00 00 00	 call	 ?Release@CReferenceObject@@QAEXXZ ; CReferenceObject::Release
$LN3@SetPointer:
  00021	5e		 pop	 esi

; 76   : 		}

  00022	5d		 pop	 ebp
  00023	c2 04 00	 ret	 4
?SetPointer@?$CRef@VCNetworkActorManager@@@@QAEXPAVCReferenceObject@@@Z ENDP ; CRef<CNetworkActorManager>::SetPointer
_TEXT	ENDS
; Function compile flags: /Ogtp
; File D:\_m2work\Server Client TMP4\ClientVS22\source\eterlib\Ref.h
;	COMDAT ?Clear@?$CRef@VCNetworkActorManager@@@@QAEXXZ
_TEXT	SEGMENT
?Clear@?$CRef@VCNetworkActorManager@@@@QAEXXZ PROC	; CRef<CNetworkActorManager>::Clear, COMDAT
; _this$ = ecx

; 52   : 		{

  00000	56		 push	 esi
  00001	8b f1		 mov	 esi, ecx

; 53   : 			if (m_pObject)

  00003	8b 0e		 mov	 ecx, DWORD PTR [esi]
  00005	85 c9		 test	 ecx, ecx
  00007	74 0b		 je	 SHORT $LN2@Clear

; 54   : 			{
; 55   : 				m_pObject->Release();

  00009	e8 00 00 00 00	 call	 ?Release@CReferenceObject@@QAEXXZ ; CReferenceObject::Release

; 56   : 				m_pObject = NULL;

  0000e	c7 06 00 00 00
	00		 mov	 DWORD PTR [esi], 0
$LN2@Clear:

; 57   : 			}
; 58   : 		}

  00014	5e		 pop	 esi
  00015	c3		 ret	 0
?Clear@?$CRef@VCNetworkActorManager@@@@QAEXXZ ENDP	; CRef<CNetworkActorManager>::Clear
_TEXT	ENDS
; Function compile flags: /Ogtp
; File C:\Program Files\Microsoft Visual Studio\2022\Community\VC\Tools\MSVC\14.44.35207\include\xutility
;	COMDAT ??$to_address@PAU_object@@@std@@YAPAPAU_object@@QAPAU1@@Z
_TEXT	SEGMENT
??$to_address@PAU_object@@@std@@YAPAPAU_object@@QAPAU1@@Z PROC ; std::to_address<_object *>, COMDAT
; __Val$ = ecx

; 541  :     static_assert(!is_function_v<_Ty>, "N4950 [pointer.conversion]/1: Mandates: T is not a function type.");
; 542  :     return _Val;

  00000	8b c1		 mov	 eax, ecx

; 543  : }

  00002	c3		 ret	 0
??$to_address@PAU_object@@@std@@YAPAPAU_object@@QAPAU1@@Z ENDP ; std::to_address<_object *>
_TEXT	ENDS
; Function compile flags: /Ogtp
; File C:\Program Files\Microsoft Visual Studio\2022\Community\VC\Tools\MSVC\14.44.35207\include\xmemory
;	COMDAT ?_Get_first@?$_Compressed_pair@V?$allocator@V?$basic_string@DU?$char_traits@D@std@@V?$allocator@D@2@@std@@@std@@V?$_Deque_val@U?$_Deque_simple_types@V?$basic_string@DU?$char_traits@D@std@@V?$allocator@D@2@@std@@@std@@@2@$00@std@@QAEAAV?$allocator@V?$basic_string@DU?$char_traits@D@std@@V?$allocator@D@2@@std@@@2@XZ
_TEXT	SEGMENT
?_Get_first@?$_Compressed_pair@V?$allocator@V?$basic_string@DU?$char_traits@D@std@@V?$allocator@D@2@@std@@@std@@V?$_Deque_val@U?$_Deque_simple_types@V?$basic_string@DU?$char_traits@D@std@@V?$allocator@D@2@@std@@@std@@@2@$00@std@@QAEAAV?$allocator@V?$basic_string@DU?$char_traits@D@std@@V?$allocator@D@2@@std@@@2@XZ PROC ; std::_Compressed_pair<std::allocator<std::basic_string<char,std::char_traits<char>,std::allocator<char> > >,std::_Deque_val<std::_Deque_simple_types<std::basic_string<char,std::char_traits<char>,std::allocator<char> > > >,1>::_Get_first, COMDAT
; _this$ = ecx

; 1539 :         return *this;

  00000	8b c1		 mov	 eax, ecx

; 1540 :     }

  00002	c3		 ret	 0
?_Get_first@?$_Compressed_pair@V?$allocator@V?$basic_string@DU?$char_traits@D@std@@V?$allocator@D@2@@std@@@std@@V?$_Deque_val@U?$_Deque_simple_types@V?$basic_string@DU?$char_traits@D@std@@V?$allocator@D@2@@std@@@std@@@2@$00@std@@QAEAAV?$allocator@V?$basic_string@DU?$char_traits@D@std@@V?$allocator@D@2@@std@@@2@XZ ENDP ; std::_Compressed_pair<std::allocator<std::basic_string<char,std::char_traits<char>,std::allocator<char> > >,std::_Deque_val<std::_Deque_simple_types<std::basic_string<char,std::char_traits<char>,std::allocator<char> > > >,1>::_Get_first
_TEXT	ENDS
; Function compile flags: /Ogtp
; File C:\Program Files\Microsoft Visual Studio\2022\Community\VC\Tools\MSVC\14.44.35207\include\deque
; File C:\Program Files\Microsoft Visual Studio\2022\Community\VC\Tools\MSVC\14.44.35207\include\xmemory
; File C:\Program Files\Microsoft Visual Studio\2022\Community\VC\Tools\MSVC\14.44.35207\include\deque
;	COMDAT ??0?$_Deque_val@U?$_Deque_simple_types@V?$basic_string@DU?$char_traits@D@std@@V?$allocator@D@2@@std@@@std@@@std@@QAE@XZ
_TEXT	SEGMENT
??0?$_Deque_val@U?$_Deque_simple_types@V?$basic_string@DU?$char_traits@D@std@@V?$allocator@D@2@@std@@@std@@@std@@QAE@XZ PROC ; std::_Deque_val<std::_Deque_simple_types<std::basic_string<char,std::char_traits<char>,std::allocator<char> > > >::_Deque_val<std::_Deque_simple_types<std::basic_string<char,std::char_traits<char>,std::allocator<char> > > >, COMDAT
; _this$ = ecx
; File C:\Program Files\Microsoft Visual Studio\2022\Community\VC\Tools\MSVC\14.44.35207\include\xmemory

; 1235 :     _Container_proxy* _Myproxy = nullptr;

  00000	c7 01 00 00 00
	00		 mov	 DWORD PTR [ecx], 0
; File C:\Program Files\Microsoft Visual Studio\2022\Community\VC\Tools\MSVC\14.44.35207\include\deque

; 556  :     _Deque_val() noexcept : _Map(), _Mapsize(0), _Myoff(0), _Mysize(0) {}

  00006	8b c1		 mov	 eax, ecx
  00008	c7 41 04 00 00
	00 00		 mov	 DWORD PTR [ecx+4], 0
  0000f	c7 41 08 00 00
	00 00		 mov	 DWORD PTR [ecx+8], 0
  00016	c7 41 0c 00 00
	00 00		 mov	 DWORD PTR [ecx+12], 0
  0001d	c7 41 10 00 00
	00 00		 mov	 DWORD PTR [ecx+16], 0
  00024	c3		 ret	 0
??0?$_Deque_val@U?$_Deque_simple_types@V?$basic_string@DU?$char_traits@D@std@@V?$allocator@D@2@@std@@@std@@@std@@QAE@XZ ENDP ; std::_Deque_val<std::_Deque_simple_types<std::basic_string<char,std::char_traits<char>,std::allocator<char> > > >::_Deque_val<std::_Deque_simple_types<std::basic_string<char,std::char_traits<char>,std::allocator<char> > > >
_TEXT	ENDS
; Function compile flags: /Ogtp
; File C:\Program Files\Microsoft Visual Studio\2022\Community\VC\Tools\MSVC\14.44.35207\include\deque
;	COMDAT ?_Map@?$deque@V?$basic_string@DU?$char_traits@D@std@@V?$allocator@D@2@@std@@V?$allocator@V?$basic_string@DU?$char_traits@D@std@@V?$allocator@D@2@@std@@@2@@std@@AAEAAPAPAV?$basic_string@DU?$char_traits@D@std@@V?$allocator@D@2@@2@XZ
_TEXT	SEGMENT
?_Map@?$deque@V?$basic_string@DU?$char_traits@D@std@@V?$allocator@D@2@@std@@V?$allocator@V?$basic_string@DU?$char_traits@D@std@@V?$allocator@D@2@@std@@@2@@std@@AAEAAPAPAV?$basic_string@DU?$char_traits@D@std@@V?$allocator@D@2@@2@XZ PROC ; std::deque<std::basic_string<char,std::char_traits<char>,std::allocator<char> >,std::allocator<std::basic_string<char,std::char_traits<char>,std::allocator<char> > > >::_Map, COMDAT
; _this$ = ecx

; 1730 :         return _Get_data()._Map;

  00000	8d 41 04	 lea	 eax, DWORD PTR [ecx+4]

; 1731 :     }

  00003	c3		 ret	 0
?_Map@?$deque@V?$basic_string@DU?$char_traits@D@std@@V?$allocator@D@2@@std@@V?$allocator@V?$basic_string@DU?$char_traits@D@std@@V?$allocator@D@2@@std@@@2@@std@@AAEAAPAPAV?$basic_string@DU?$char_traits@D@std@@V?$allocator@D@2@@2@XZ ENDP ; std::deque<std::basic_string<char,std::char_traits<char>,std::allocator<char> >,std::allocator<std::basic_string<char,std::char_traits<char>,std::allocator<char> > > >::_Map
_TEXT	ENDS
; Function compile flags: /Ogtp
; File C:\Program Files\Microsoft Visual Studio\2022\Community\VC\Tools\MSVC\14.44.35207\include\deque
;	COMDAT ?_Orphan_all@?$deque@V?$basic_string@DU?$char_traits@D@std@@V?$allocator@D@2@@std@@V?$allocator@V?$basic_string@DU?$char_traits@D@std@@V?$allocator@D@2@@std@@@2@@std@@AAEXXZ
_TEXT	SEGMENT
?_Orphan_all@?$deque@V?$basic_string@DU?$char_traits@D@std@@V?$allocator@D@2@@std@@V?$allocator@V?$basic_string@DU?$char_traits@D@std@@V?$allocator@D@2@@std@@@2@@std@@AAEXXZ PROC ; std::deque<std::basic_string<char,std::char_traits<char>,std::allocator<char> >,std::allocator<std::basic_string<char,std::char_traits<char>,std::allocator<char> > > >::_Orphan_all, COMDAT
; _this$dead$ = ecx

; 1710 :         _Get_data()._Orphan_all();
; 1711 :     }

  00000	c2 00 00	 ret	 0
?_Orphan_all@?$deque@V?$basic_string@DU?$char_traits@D@std@@V?$allocator@D@2@@std@@V?$allocator@V?$basic_string@DU?$char_traits@D@std@@V?$allocator@D@2@@std@@@2@@std@@AAEXXZ ENDP ; std::deque<std::basic_string<char,std::char_traits<char>,std::allocator<char> >,std::allocator<std::basic_string<char,std::char_traits<char>,std::allocator<char> > > >::_Orphan_all
_TEXT	ENDS
; Function compile flags: /Ogtp
; File C:\Program Files\Microsoft Visual Studio\2022\Community\VC\Tools\MSVC\14.44.35207\include\deque
; File C:\Program Files\Microsoft Visual Studio\2022\Community\VC\Tools\MSVC\14.44.35207\include\xmemory
; File C:\Program Files\Microsoft Visual Studio\2022\Community\VC\Tools\MSVC\14.44.35207\include\deque
; File C:\Program Files\Microsoft Visual Studio\2022\Community\VC\Tools\MSVC\14.44.35207\include\xmemory
; File C:\Program Files\Microsoft Visual Studio\2022\Community\VC\Tools\MSVC\14.44.35207\include\deque
; File C:\Program Files\Microsoft Visual Studio\2022\Community\VC\Tools\MSVC\14.44.35207\include\xmemory
; File C:\Program Files\Microsoft Visual Studio\2022\Community\VC\Tools\MSVC\14.44.35207\include\deque
;	COMDAT ?_Reset_map@?$deque@V?$basic_string@DU?$char_traits@D@std@@V?$allocator@D@2@@std@@V?$allocator@V?$basic_string@DU?$char_traits@D@std@@V?$allocator@D@2@@std@@@2@@std@@AAEXXZ
_TEXT	SEGMENT
_this$1$ = -4						; size = 4
?_Reset_map@?$deque@V?$basic_string@DU?$char_traits@D@std@@V?$allocator@D@2@@std@@V?$allocator@V?$basic_string@DU?$char_traits@D@std@@V?$allocator@D@2@@std@@@2@@std@@AAEXXZ PROC ; std::deque<std::basic_string<char,std::char_traits<char>,std::allocator<char> >,std::allocator<std::basic_string<char,std::char_traits<char>,std::allocator<char> > > >::_Reset_map, COMDAT
; _this$ = ecx

; 1651 :     void _Reset_map() noexcept {

  00000	55		 push	 ebp
  00001	8b ec		 mov	 ebp, esp
  00003	51		 push	 ecx
  00004	8b c1		 mov	 eax, ecx
  00006	53		 push	 ebx
  00007	56		 push	 esi

; 1654 :         for (auto _Block = _Map_distance(); _Block > 0;) { // free storage for a block and destroy pointer

  00008	8b 70 08	 mov	 esi, DWORD PTR [eax+8]
  0000b	8d 58 08	 lea	 ebx, DWORD PTR [eax+8]
  0000e	89 45 fc	 mov	 DWORD PTR _this$1$[ebp], eax
  00011	57		 push	 edi
  00012	8d 78 04	 lea	 edi, DWORD PTR [eax+4]
  00015	85 f6		 test	 esi, esi
  00017	7e 28		 jle	 SHORT $LN44@Reset_map
  00019	0f 1f 80 00 00
	00 00		 npad	 7
$LL4@Reset_map:

; 1655 :             --_Block;
; 1656 :             auto& _Block_ptr = _Map()[_Block];
; 1657 :             if (_Block_ptr) { // free block

  00020	8b 07		 mov	 eax, DWORD PTR [edi]
  00022	4e		 dec	 esi
  00023	8b 04 b0	 mov	 eax, DWORD PTR [eax+esi*4]
  00026	85 c0		 test	 eax, eax
  00028	74 0b		 je	 SHORT $LN2@Reset_map
; File C:\Program Files\Microsoft Visual Studio\2022\Community\VC\Tools\MSVC\14.44.35207\include\xmemory

; 289  :         ::operator delete(_Ptr, _Bytes);

  0002a	6a 18		 push	 24			; 00000018H
  0002c	50		 push	 eax
  0002d	e8 00 00 00 00	 call	 ??3@YAXPAXI@Z		; operator delete
  00032	83 c4 08	 add	 esp, 8
$LN2@Reset_map:
; File C:\Program Files\Microsoft Visual Studio\2022\Community\VC\Tools\MSVC\14.44.35207\include\deque

; 1654 :         for (auto _Block = _Map_distance(); _Block > 0;) { // free storage for a block and destroy pointer

  00035	85 f6		 test	 esi, esi
  00037	7f e7		 jg	 SHORT $LL4@Reset_map
  00039	8b 75 fc	 mov	 esi, DWORD PTR _this$1$[ebp]
  0003c	83 c6 08	 add	 esi, 8
  0003f	eb 02		 jmp	 SHORT $LN42@Reset_map
$LN44@Reset_map:
  00041	8b f3		 mov	 esi, ebx
$LN42@Reset_map:
; File C:\Program Files\Microsoft Visual Studio\2022\Community\VC\Tools\MSVC\14.44.35207\include\xmemory

; 985  :         _STD _Deallocate<_New_alignof<_Ty>>(_Ptr, sizeof(_Ty) * _Count);

  00043	8b 0b		 mov	 ecx, DWORD PTR [ebx]
  00045	8b 07		 mov	 eax, DWORD PTR [edi]
  00047	c1 e1 02	 shl	 ecx, 2

; 284  :         if (_Bytes >= _Big_allocation_threshold) {

  0004a	81 f9 00 10 00
	00		 cmp	 ecx, 4096		; 00001000H
  00050	72 12		 jb	 SHORT $LN34@Reset_map

; 205  :     const uintptr_t _Ptr_container   = _Ptr_user[-1];

  00052	8b 50 fc	 mov	 edx, DWORD PTR [eax-4]
  00055	83 c1 23	 add	 ecx, 35			; 00000023H

; 206  : 
; 207  :     // If the following asserts, it likely means that we are performing
; 208  :     // an aligned delete on memory coming from an unaligned allocation.
; 209  :     _STL_ASSERT(_Ptr_user[-2] == _Big_allocation_sentinel, "invalid argument");
; 210  : 
; 211  :     // Extra paranoia on aligned allocation/deallocation; ensure _Ptr_container is
; 212  :     // in range [_Min_back_shift, _Non_user_size]
; 213  : #ifdef _DEBUG
; 214  :     constexpr uintptr_t _Min_back_shift = 2 * sizeof(void*);
; 215  : #else // ^^^ defined(_DEBUG) / !defined(_DEBUG) vvv
; 216  :     constexpr uintptr_t _Min_back_shift = sizeof(void*);
; 217  : #endif // ^^^ !defined(_DEBUG) ^^^
; 218  :     const uintptr_t _Back_shift = reinterpret_cast<uintptr_t>(_Ptr) - _Ptr_container;

  00058	2b c2		 sub	 eax, edx

; 219  :     _STL_VERIFY(_Back_shift >= _Min_back_shift && _Back_shift <= _Non_user_size, "invalid argument");

  0005a	83 c0 fc	 add	 eax, -4			; fffffffcH
  0005d	83 f8 1f	 cmp	 eax, 31			; 0000001fH
  00060	77 1f		 ja	 SHORT $LN33@Reset_map

; 220  :     _Ptr = reinterpret_cast<void*>(_Ptr_container);

  00062	8b c2		 mov	 eax, edx
$LN34@Reset_map:

; 289  :         ::operator delete(_Ptr, _Bytes);

  00064	51		 push	 ecx
  00065	50		 push	 eax
  00066	e8 00 00 00 00	 call	 ??3@YAXPAXI@Z		; operator delete
  0006b	83 c4 08	 add	 esp, 8
; File C:\Program Files\Microsoft Visual Studio\2022\Community\VC\Tools\MSVC\14.44.35207\include\deque

; 1666 :         _Map()     = nullptr;

  0006e	c7 07 00 00 00
	00		 mov	 DWORD PTR [edi], 0

; 1667 :         _Mapsize() = 0;

  00074	c7 06 00 00 00
	00		 mov	 DWORD PTR [esi], 0
  0007a	5f		 pop	 edi
  0007b	5e		 pop	 esi
  0007c	5b		 pop	 ebx

; 1668 :     }

  0007d	8b e5		 mov	 esp, ebp
  0007f	5d		 pop	 ebp
  00080	c3		 ret	 0
$LN33@Reset_map:
; File C:\Program Files\Microsoft Visual Studio\2022\Community\VC\Tools\MSVC\14.44.35207\include\xmemory

; 219  :     _STL_VERIFY(_Back_shift >= _Min_back_shift && _Back_shift <= _Non_user_size, "invalid argument");

  00081	6a 00		 push	 0
  00083	6a 00		 push	 0
  00085	6a 00		 push	 0
  00087	6a 00		 push	 0
  00089	6a 00		 push	 0
  0008b	e8 00 00 00 00	 call	 __invoke_watson
$LN50@Reset_map:
  00090	cc		 int	 3
?_Reset_map@?$deque@V?$basic_string@DU?$char_traits@D@std@@V?$allocator@D@2@@std@@V?$allocator@V?$basic_string@DU?$char_traits@D@std@@V?$allocator@D@2@@std@@@2@@std@@AAEXXZ ENDP ; std::deque<std::basic_string<char,std::char_traits<char>,std::allocator<char> >,std::allocator<std::basic_string<char,std::char_traits<char>,std::allocator<char> > > >::_Reset_map
_TEXT	ENDS
; Function compile flags: /Ogtp
; File C:\Program Files\Microsoft Visual Studio\2022\Community\VC\Tools\MSVC\14.44.35207\include\deque
; File C:\Program Files\Microsoft Visual Studio\2022\Community\VC\Tools\MSVC\14.44.35207\include\xstring
; File C:\Program Files\Microsoft Visual Studio\2022\Community\VC\Tools\MSVC\14.44.35207\include\deque
;	COMDAT ?pop_back@?$deque@V?$basic_string@DU?$char_traits@D@std@@V?$allocator@D@2@@std@@V?$allocator@V?$basic_string@DU?$char_traits@D@std@@V?$allocator@D@2@@std@@@2@@std@@QAEXXZ
_TEXT	SEGMENT
tv221 = -4						; size = 4
?pop_back@?$deque@V?$basic_string@DU?$char_traits@D@std@@V?$allocator@D@2@@std@@V?$allocator@V?$basic_string@DU?$char_traits@D@std@@V?$allocator@D@2@@std@@@2@@std@@QAEXXZ PROC ; std::deque<std::basic_string<char,std::char_traits<char>,std::allocator<char> >,std::allocator<std::basic_string<char,std::char_traits<char>,std::allocator<char> > > >::pop_back, COMDAT
; _this$ = ecx

; 1503 :     void pop_back() noexcept /* strengthened */ {

  00000	55		 push	 ebp
  00001	8b ec		 mov	 ebp, esp
  00003	51		 push	 ecx
  00004	56		 push	 esi
  00005	8b f1		 mov	 esi, ecx

; 572  :         return static_cast<_Map_difference_type>((_Off / _Block_size) & (_Mapsize - 1));

  00007	8b 56 0c	 mov	 edx, DWORD PTR [esi+12]
  0000a	8b 4e 10	 mov	 ecx, DWORD PTR [esi+16]
  0000d	4a		 dec	 edx
  0000e	8b 46 08	 mov	 eax, DWORD PTR [esi+8]
  00011	03 ca		 add	 ecx, edx
  00013	48		 dec	 eax
  00014	23 c8		 and	 ecx, eax

; 1504 : #if _MSVC_STL_HARDENING_DEQUE || _ITERATOR_DEBUG_LEVEL != 0
; 1505 :         _STL_VERIFY(!empty(), "pop_back() called on empty deque");
; 1506 : #endif
; 1507 : 
; 1508 :         size_type _Newoff = _Myoff() + _Mysize() - 1;
; 1509 : #if _ITERATOR_DEBUG_LEVEL == 2
; 1510 :         _Orphan_off(_Newoff);
; 1511 : #endif
; 1512 :         _Alty_traits::destroy(_Getal(), _Get_data()._Address_subscript(_Newoff));

  00016	8b 46 04	 mov	 eax, DWORD PTR [esi+4]
; File C:\Program Files\Microsoft Visual Studio\2022\Community\VC\Tools\MSVC\14.44.35207\include\xstring

; 1383 :         _Tidy_deallocate();

  00019	8b 0c 88	 mov	 ecx, DWORD PTR [eax+ecx*4]
  0001c	e8 00 00 00 00	 call	 ?_Tidy_deallocate@?$basic_string@DU?$char_traits@D@std@@V?$allocator@D@2@@std@@AAEXXZ ; std::basic_string<char,std::char_traits<char>,std::allocator<char> >::_Tidy_deallocate
; File C:\Program Files\Microsoft Visual Studio\2022\Community\VC\Tools\MSVC\14.44.35207\include\deque

; 1513 :         if (--_Mysize() == 0) {

  00021	83 46 10 ff	 add	 DWORD PTR [esi+16], -1
  00025	75 07		 jne	 SHORT $LN2@pop_back

; 1514 :             _Myoff() = 0;

  00027	c7 46 0c 00 00
	00 00		 mov	 DWORD PTR [esi+12], 0
$LN2@pop_back:
  0002e	5e		 pop	 esi

; 1515 :         }
; 1516 :     }

  0002f	8b e5		 mov	 esp, ebp
  00031	5d		 pop	 ebp
  00032	c3		 ret	 0
?pop_back@?$deque@V?$basic_string@DU?$char_traits@D@std@@V?$allocator@D@2@@std@@V?$allocator@V?$basic_string@DU?$char_traits@D@std@@V?$allocator@D@2@@std@@@2@@std@@QAEXXZ ENDP ; std::deque<std::basic_string<char,std::char_traits<char>,std::allocator<char> >,std::allocator<std::basic_string<char,std::char_traits<char>,std::allocator<char> > > >::pop_back
_TEXT	ENDS
; Function compile flags: /Ogtp
; File C:\Program Files\Microsoft Visual Studio\2022\Community\VC\Tools\MSVC\14.44.35207\include\deque
;	COMDAT ?empty@?$deque@V?$basic_string@DU?$char_traits@D@std@@V?$allocator@D@2@@std@@V?$allocator@V?$basic_string@DU?$char_traits@D@std@@V?$allocator@D@2@@std@@@2@@std@@QBE_NXZ
_TEXT	SEGMENT
?empty@?$deque@V?$basic_string@DU?$char_traits@D@std@@V?$allocator@D@2@@std@@V?$allocator@V?$basic_string@DU?$char_traits@D@std@@V?$allocator@D@2@@std@@@2@@std@@QBE_NXZ PROC ; std::deque<std::basic_string<char,std::char_traits<char>,std::allocator<char> >,std::allocator<std::basic_string<char,std::char_traits<char>,std::allocator<char> > > >::empty, COMDAT
; _this$ = ecx

; 971  :         return _Mysize() == 0;

  00000	83 79 10 00	 cmp	 DWORD PTR [ecx+16], 0
  00004	0f 94 c0	 sete	 al

; 972  :     }

  00007	c3		 ret	 0
?empty@?$deque@V?$basic_string@DU?$char_traits@D@std@@V?$allocator@D@2@@std@@V?$allocator@V?$basic_string@DU?$char_traits@D@std@@V?$allocator@D@2@@std@@@2@@std@@QBE_NXZ ENDP ; std::deque<std::basic_string<char,std::char_traits<char>,std::allocator<char> >,std::allocator<std::basic_string<char,std::char_traits<char>,std::allocator<char> > > >::empty
_TEXT	ENDS
; Function compile flags: /Ogtp
; File C:\Program Files\Microsoft Visual Studio\2022\Community\VC\Tools\MSVC\14.44.35207\include\xmemory
;	COMDAT ??$_Destroy_in_place@PAV?$basic_string@DU?$char_traits@D@std@@V?$allocator@D@2@@std@@@std@@YAXAAPAV?$basic_string@DU?$char_traits@D@std@@V?$allocator@D@2@@0@@Z
_TEXT	SEGMENT
??$_Destroy_in_place@PAV?$basic_string@DU?$char_traits@D@std@@V?$allocator@D@2@@std@@@std@@YAXAAPAV?$basic_string@DU?$char_traits@D@std@@V?$allocator@D@2@@0@@Z PROC ; std::_Destroy_in_place<std::basic_string<char,std::char_traits<char>,std::allocator<char> > *>, COMDAT
; __Obj$dead$ = ecx

; 321  :     if constexpr (is_array_v<_Ty>) {
; 322  :         _STD _Destroy_range(_Obj, _Obj + extent_v<_Ty>);
; 323  :     } else {
; 324  :         _Obj.~_Ty();
; 325  :     }
; 326  : }

  00000	c2 00 00	 ret	 0
??$_Destroy_in_place@PAV?$basic_string@DU?$char_traits@D@std@@V?$allocator@D@2@@std@@@std@@YAXAAPAV?$basic_string@DU?$char_traits@D@std@@V?$allocator@D@2@@0@@Z ENDP ; std::_Destroy_in_place<std::basic_string<char,std::char_traits<char>,std::allocator<char> > *>
_TEXT	ENDS
; Function compile flags: /Ogtp
; File C:\Program Files\Microsoft Visual Studio\2022\Community\VC\Tools\MSVC\14.44.35207\include\xmemory
;	COMDAT ??$?0V?$basic_string@DU?$char_traits@D@std@@V?$allocator@D@2@@std@@@?$allocator@PAV?$basic_string@DU?$char_traits@D@std@@V?$allocator@D@2@@std@@@std@@QAE@ABV?$allocator@V?$basic_string@DU?$char_traits@D@std@@V?$allocator@D@2@@std@@@1@@Z
_TEXT	SEGMENT
___formal$dead$ = 8					; size = 4
??$?0V?$basic_string@DU?$char_traits@D@std@@V?$allocator@D@2@@std@@@?$allocator@PAV?$basic_string@DU?$char_traits@D@std@@V?$allocator@D@2@@std@@@std@@QAE@ABV?$allocator@V?$basic_string@DU?$char_traits@D@std@@V?$allocator@D@2@@std@@@1@@Z PROC ; std::allocator<std::basic_string<char,std::char_traits<char>,std::allocator<char> > *>::allocator<std::basic_string<char,std::char_traits<char>,std::allocator<char> > *><std::basic_string<char,std::char_traits<char>,std::allocator<char> > >, COMDAT
; _this$ = ecx

; 978  :     constexpr allocator(const allocator<_Other>&) noexcept {}

  00000	8b c1		 mov	 eax, ecx
  00002	c2 04 00	 ret	 4
??$?0V?$basic_string@DU?$char_traits@D@std@@V?$allocator@D@2@@std@@@?$allocator@PAV?$basic_string@DU?$char_traits@D@std@@V?$allocator@D@2@@std@@@std@@QAE@ABV?$allocator@V?$basic_string@DU?$char_traits@D@std@@V?$allocator@D@2@@std@@@1@@Z ENDP ; std::allocator<std::basic_string<char,std::char_traits<char>,std::allocator<char> > *>::allocator<std::basic_string<char,std::char_traits<char>,std::allocator<char> > *><std::basic_string<char,std::char_traits<char>,std::allocator<char> > >
_TEXT	ENDS
; Function compile flags: /Ogtp
; File C:\Program Files\Microsoft Visual Studio\2022\Community\VC\Tools\MSVC\14.44.35207\include\deque
;	COMDAT ?_Address_subscript@?$_Deque_val@U?$_Deque_simple_types@V?$basic_string@DU?$char_traits@D@std@@V?$allocator@D@2@@std@@@std@@@std@@QAEPAV?$basic_string@DU?$char_traits@D@std@@V?$allocator@D@2@@2@I@Z
_TEXT	SEGMENT
__Off$ = 8						; size = 4
?_Address_subscript@?$_Deque_val@U?$_Deque_simple_types@V?$basic_string@DU?$char_traits@D@std@@V?$allocator@D@2@@std@@@std@@@std@@QAEPAV?$basic_string@DU?$char_traits@D@std@@V?$allocator@D@2@@2@I@Z PROC ; std::_Deque_val<std::_Deque_simple_types<std::basic_string<char,std::char_traits<char>,std::allocator<char> > > >::_Address_subscript, COMDAT
; _this$ = ecx

; 587  :     value_type* _Address_subscript(size_type _Off) noexcept {

  00000	55		 push	 ebp
  00001	8b ec		 mov	 ebp, esp

; 572  :         return static_cast<_Map_difference_type>((_Off / _Block_size) & (_Mapsize - 1));

  00003	8b 51 08	 mov	 edx, DWORD PTR [ecx+8]

; 588  :         const auto _Block     = _Getblock(_Off);
; 589  :         const auto _Block_off = static_cast<difference_type>(_Off % _Block_size);
; 590  :         return _STD _Unfancy(_Map[_Block] + _Block_off);

  00006	8b 41 04	 mov	 eax, DWORD PTR [ecx+4]

; 572  :         return static_cast<_Map_difference_type>((_Off / _Block_size) & (_Mapsize - 1));

  00009	4a		 dec	 edx
  0000a	23 55 08	 and	 edx, DWORD PTR __Off$[ebp]

; 588  :         const auto _Block     = _Getblock(_Off);
; 589  :         const auto _Block_off = static_cast<difference_type>(_Off % _Block_size);
; 590  :         return _STD _Unfancy(_Map[_Block] + _Block_off);

  0000d	8b 04 90	 mov	 eax, DWORD PTR [eax+edx*4]

; 591  :     }

  00010	5d		 pop	 ebp
  00011	c2 04 00	 ret	 4
?_Address_subscript@?$_Deque_val@U?$_Deque_simple_types@V?$basic_string@DU?$char_traits@D@std@@V?$allocator@D@2@@std@@@std@@@std@@QAEPAV?$basic_string@DU?$char_traits@D@std@@V?$allocator@D@2@@2@I@Z ENDP ; std::_Deque_val<std::_Deque_simple_types<std::basic_string<char,std::char_traits<char>,std::allocator<char> > > >::_Address_subscript
_TEXT	ENDS
; Function compile flags: /Ogtp
; File C:\Program Files\Microsoft Visual Studio\2022\Community\VC\Tools\MSVC\14.44.35207\include\xmemory
;	COMDAT ?deallocate@?$allocator@PAV?$basic_string@DU?$char_traits@D@std@@V?$allocator@D@2@@std@@@std@@QAEXQAPAV?$basic_string@DU?$char_traits@D@std@@V?$allocator@D@2@@2@I@Z
_TEXT	SEGMENT
__Ptr$ = 8						; size = 4
__Count$ = 12						; size = 4
?deallocate@?$allocator@PAV?$basic_string@DU?$char_traits@D@std@@V?$allocator@D@2@@std@@@std@@QAEXQAPAV?$basic_string@DU?$char_traits@D@std@@V?$allocator@D@2@@2@I@Z PROC ; std::allocator<std::basic_string<char,std::char_traits<char>,std::allocator<char> > *>::deallocate, COMDAT
; _this$ = ecx

; 982  :     _CONSTEXPR20 void deallocate(_Ty* const _Ptr, const size_t _Count) noexcept /* strengthened */ {

  00000	55		 push	 ebp
  00001	8b ec		 mov	 ebp, esp

; 983  :         _STL_ASSERT(_Ptr != nullptr || _Count == 0, "null pointer cannot point to a block of non-zero size");
; 984  :         // no overflow check on the following multiply; we assume _Allocate did that check
; 985  :         _STD _Deallocate<_New_alignof<_Ty>>(_Ptr, sizeof(_Ty) * _Count);

  00003	8b 45 0c	 mov	 eax, DWORD PTR __Count$[ebp]
  00006	8d 0c 85 00 00
	00 00		 lea	 ecx, DWORD PTR [eax*4]
  0000d	8b 45 08	 mov	 eax, DWORD PTR __Ptr$[ebp]

; 284  :         if (_Bytes >= _Big_allocation_threshold) {

  00010	81 f9 00 10 00
	00		 cmp	 ecx, 4096		; 00001000H
  00016	72 12		 jb	 SHORT $LN12@deallocate

; 205  :     const uintptr_t _Ptr_container   = _Ptr_user[-1];

  00018	8b 50 fc	 mov	 edx, DWORD PTR [eax-4]
  0001b	83 c1 23	 add	 ecx, 35			; 00000023H

; 206  : 
; 207  :     // If the following asserts, it likely means that we are performing
; 208  :     // an aligned delete on memory coming from an unaligned allocation.
; 209  :     _STL_ASSERT(_Ptr_user[-2] == _Big_allocation_sentinel, "invalid argument");
; 210  : 
; 211  :     // Extra paranoia on aligned allocation/deallocation; ensure _Ptr_container is
; 212  :     // in range [_Min_back_shift, _Non_user_size]
; 213  : #ifdef _DEBUG
; 214  :     constexpr uintptr_t _Min_back_shift = 2 * sizeof(void*);
; 215  : #else // ^^^ defined(_DEBUG) / !defined(_DEBUG) vvv
; 216  :     constexpr uintptr_t _Min_back_shift = sizeof(void*);
; 217  : #endif // ^^^ !defined(_DEBUG) ^^^
; 218  :     const uintptr_t _Back_shift = reinterpret_cast<uintptr_t>(_Ptr) - _Ptr_container;

  0001e	2b c2		 sub	 eax, edx

; 219  :     _STL_VERIFY(_Back_shift >= _Min_back_shift && _Back_shift <= _Non_user_size, "invalid argument");

  00020	83 c0 fc	 add	 eax, -4			; fffffffcH
  00023	83 f8 1f	 cmp	 eax, 31			; 0000001fH
  00026	77 10		 ja	 SHORT $LN11@deallocate

; 220  :     _Ptr = reinterpret_cast<void*>(_Ptr_container);

  00028	8b c2		 mov	 eax, edx
$LN12@deallocate:

; 289  :         ::operator delete(_Ptr, _Bytes);

  0002a	51		 push	 ecx
  0002b	50		 push	 eax
  0002c	e8 00 00 00 00	 call	 ??3@YAXPAXI@Z		; operator delete
  00031	83 c4 08	 add	 esp, 8

; 986  :     }

  00034	5d		 pop	 ebp
  00035	c2 08 00	 ret	 8
$LN11@deallocate:

; 219  :     _STL_VERIFY(_Back_shift >= _Min_back_shift && _Back_shift <= _Non_user_size, "invalid argument");

  00038	6a 00		 push	 0
  0003a	6a 00		 push	 0
  0003c	6a 00		 push	 0
  0003e	6a 00		 push	 0
  00040	6a 00		 push	 0
  00042	e8 00 00 00 00	 call	 __invoke_watson
$LN15@deallocate:
  00047	cc		 int	 3
?deallocate@?$allocator@PAV?$basic_string@DU?$char_traits@D@std@@V?$allocator@D@2@@std@@@std@@QAEXQAPAV?$basic_string@DU?$char_traits@D@std@@V?$allocator@D@2@@2@I@Z ENDP ; std::allocator<std::basic_string<char,std::char_traits<char>,std::allocator<char> > *>::deallocate
_TEXT	ENDS
; Function compile flags: /Ogtp
; File C:\Program Files\Microsoft Visual Studio\2022\Community\VC\Tools\MSVC\14.44.35207\include\deque
;	COMDAT ?_Map_distance@?$deque@V?$basic_string@DU?$char_traits@D@std@@V?$allocator@D@2@@std@@V?$allocator@V?$basic_string@DU?$char_traits@D@std@@V?$allocator@D@2@@std@@@2@@std@@ABEHXZ
_TEXT	SEGMENT
?_Map_distance@?$deque@V?$basic_string@DU?$char_traits@D@std@@V?$allocator@D@2@@std@@V?$allocator@V?$basic_string@DU?$char_traits@D@std@@V?$allocator@D@2@@std@@@2@@std@@ABEHXZ PROC ; std::deque<std::basic_string<char,std::char_traits<char>,std::allocator<char> >,std::allocator<std::basic_string<char,std::char_traits<char>,std::allocator<char> > > >::_Map_distance, COMDAT
; _this$ = ecx

; 1762 :         return static_cast<_Map_difference_type>(_Get_data()._Mapsize);

  00000	8b 41 08	 mov	 eax, DWORD PTR [ecx+8]

; 1763 :     }

  00003	c3		 ret	 0
?_Map_distance@?$deque@V?$basic_string@DU?$char_traits@D@std@@V?$allocator@D@2@@std@@V?$allocator@V?$basic_string@DU?$char_traits@D@std@@V?$allocator@D@2@@std@@@2@@std@@ABEHXZ ENDP ; std::deque<std::basic_string<char,std::char_traits<char>,std::allocator<char> >,std::allocator<std::basic_string<char,std::char_traits<char>,std::allocator<char> > > >::_Map_distance
_TEXT	ENDS
; Function compile flags: /Ogtp
; File C:\Program Files\Microsoft Visual Studio\2022\Community\VC\Tools\MSVC\14.44.35207\include\deque
;	COMDAT ?_Mysize@?$deque@V?$basic_string@DU?$char_traits@D@std@@V?$allocator@D@2@@std@@V?$allocator@V?$basic_string@DU?$char_traits@D@std@@V?$allocator@D@2@@std@@@2@@std@@ABEABIXZ
_TEXT	SEGMENT
?_Mysize@?$deque@V?$basic_string@DU?$char_traits@D@std@@V?$allocator@D@2@@std@@V?$allocator@V?$basic_string@DU?$char_traits@D@std@@V?$allocator@D@2@@std@@@2@@std@@ABEABIXZ PROC ; std::deque<std::basic_string<char,std::char_traits<char>,std::allocator<char> >,std::allocator<std::basic_string<char,std::char_traits<char>,std::allocator<char> > > >::_Mysize, COMDAT
; _this$ = ecx

; 1758 :         return _Get_data()._Mysize;

  00000	8d 41 10	 lea	 eax, DWORD PTR [ecx+16]

; 1759 :     }

  00003	c3		 ret	 0
?_Mysize@?$deque@V?$basic_string@DU?$char_traits@D@std@@V?$allocator@D@2@@std@@V?$allocator@V?$basic_string@DU?$char_traits@D@std@@V?$allocator@D@2@@std@@@2@@std@@ABEABIXZ ENDP ; std::deque<std::basic_string<char,std::char_traits<char>,std::allocator<char> >,std::allocator<std::basic_string<char,std::char_traits<char>,std::allocator<char> > > >::_Mysize
_TEXT	ENDS
; Function compile flags: /Ogtp
; File C:\Program Files\Microsoft Visual Studio\2022\Community\VC\Tools\MSVC\14.44.35207\include\deque
;	COMDAT ?_Mysize@?$deque@V?$basic_string@DU?$char_traits@D@std@@V?$allocator@D@2@@std@@V?$allocator@V?$basic_string@DU?$char_traits@D@std@@V?$allocator@D@2@@std@@@2@@std@@AAEAAIXZ
_TEXT	SEGMENT
?_Mysize@?$deque@V?$basic_string@DU?$char_traits@D@std@@V?$allocator@D@2@@std@@V?$allocator@V?$basic_string@DU?$char_traits@D@std@@V?$allocator@D@2@@std@@@2@@std@@AAEAAIXZ PROC ; std::deque<std::basic_string<char,std::char_traits<char>,std::allocator<char> >,std::allocator<std::basic_string<char,std::char_traits<char>,std::allocator<char> > > >::_Mysize, COMDAT
; _this$ = ecx

; 1754 :         return _Get_data()._Mysize;

  00000	8d 41 10	 lea	 eax, DWORD PTR [ecx+16]

; 1755 :     }

  00003	c3		 ret	 0
?_Mysize@?$deque@V?$basic_string@DU?$char_traits@D@std@@V?$allocator@D@2@@std@@V?$allocator@V?$basic_string@DU?$char_traits@D@std@@V?$allocator@D@2@@std@@@2@@std@@AAEAAIXZ ENDP ; std::deque<std::basic_string<char,std::char_traits<char>,std::allocator<char> >,std::allocator<std::basic_string<char,std::char_traits<char>,std::allocator<char> > > >::_Mysize
_TEXT	ENDS
; Function compile flags: /Ogtp
; File C:\Program Files\Microsoft Visual Studio\2022\Community\VC\Tools\MSVC\14.44.35207\include\deque
;	COMDAT ?_Myoff@?$deque@V?$basic_string@DU?$char_traits@D@std@@V?$allocator@D@2@@std@@V?$allocator@V?$basic_string@DU?$char_traits@D@std@@V?$allocator@D@2@@std@@@2@@std@@AAEAAIXZ
_TEXT	SEGMENT
?_Myoff@?$deque@V?$basic_string@DU?$char_traits@D@std@@V?$allocator@D@2@@std@@V?$allocator@V?$basic_string@DU?$char_traits@D@std@@V?$allocator@D@2@@std@@@2@@std@@AAEAAIXZ PROC ; std::deque<std::basic_string<char,std::char_traits<char>,std::allocator<char> >,std::allocator<std::basic_string<char,std::char_traits<char>,std::allocator<char> > > >::_Myoff, COMDAT
; _this$ = ecx

; 1746 :         return _Get_data()._Myoff;

  00000	8d 41 0c	 lea	 eax, DWORD PTR [ecx+12]

; 1747 :     }

  00003	c3		 ret	 0
?_Myoff@?$deque@V?$basic_string@DU?$char_traits@D@std@@V?$allocator@D@2@@std@@V?$allocator@V?$basic_string@DU?$char_traits@D@std@@V?$allocator@D@2@@std@@@2@@std@@AAEAAIXZ ENDP ; std::deque<std::basic_string<char,std::char_traits<char>,std::allocator<char> >,std::allocator<std::basic_string<char,std::char_traits<char>,std::allocator<char> > > >::_Myoff
_TEXT	ENDS
; Function compile flags: /Ogtp
; File C:\Program Files\Microsoft Visual Studio\2022\Community\VC\Tools\MSVC\14.44.35207\include\deque
;	COMDAT ?_Mapsize@?$deque@V?$basic_string@DU?$char_traits@D@std@@V?$allocator@D@2@@std@@V?$allocator@V?$basic_string@DU?$char_traits@D@std@@V?$allocator@D@2@@std@@@2@@std@@AAEAAIXZ
_TEXT	SEGMENT
?_Mapsize@?$deque@V?$basic_string@DU?$char_traits@D@std@@V?$allocator@D@2@@std@@V?$allocator@V?$basic_string@DU?$char_traits@D@std@@V?$allocator@D@2@@std@@@2@@std@@AAEAAIXZ PROC ; std::deque<std::basic_string<char,std::char_traits<char>,std::allocator<char> >,std::allocator<std::basic_string<char,std::char_traits<char>,std::allocator<char> > > >::_Mapsize, COMDAT
; _this$ = ecx

; 1738 :         return _Get_data()._Mapsize;

  00000	8d 41 08	 lea	 eax, DWORD PTR [ecx+8]

; 1739 :     }

  00003	c3		 ret	 0
?_Mapsize@?$deque@V?$basic_string@DU?$char_traits@D@std@@V?$allocator@D@2@@std@@V?$allocator@V?$basic_string@DU?$char_traits@D@std@@V?$allocator@D@2@@std@@@2@@std@@AAEAAIXZ ENDP ; std::deque<std::basic_string<char,std::char_traits<char>,std::allocator<char> >,std::allocator<std::basic_string<char,std::char_traits<char>,std::allocator<char> > > >::_Mapsize
_TEXT	ENDS
; Function compile flags: /Ogtp
; File C:\Program Files\Microsoft Visual Studio\2022\Community\VC\Tools\MSVC\14.44.35207\include\deque
;	COMDAT ?_Getblock@?$_Deque_val@U?$_Deque_simple_types@V?$basic_string@DU?$char_traits@D@std@@V?$allocator@D@2@@std@@@std@@@std@@QBEHI@Z
_TEXT	SEGMENT
__Off$ = 8						; size = 4
?_Getblock@?$_Deque_val@U?$_Deque_simple_types@V?$basic_string@DU?$char_traits@D@std@@V?$allocator@D@2@@std@@@std@@@std@@QBEHI@Z PROC ; std::_Deque_val<std::_Deque_simple_types<std::basic_string<char,std::char_traits<char>,std::allocator<char> > > >::_Getblock, COMDAT
; _this$ = ecx

; 570  :     _Map_difference_type _Getblock(size_type _Off) const noexcept {

  00000	55		 push	 ebp
  00001	8b ec		 mov	 ebp, esp

; 571  :         // NB: _Mapsize and _Block_size are guaranteed to be powers of 2
; 572  :         return static_cast<_Map_difference_type>((_Off / _Block_size) & (_Mapsize - 1));

  00003	8b 41 08	 mov	 eax, DWORD PTR [ecx+8]
  00006	48		 dec	 eax
  00007	23 45 08	 and	 eax, DWORD PTR __Off$[ebp]

; 573  :     }

  0000a	5d		 pop	 ebp
  0000b	c2 04 00	 ret	 4
?_Getblock@?$_Deque_val@U?$_Deque_simple_types@V?$basic_string@DU?$char_traits@D@std@@V?$allocator@D@2@@std@@@std@@@std@@QBEHI@Z ENDP ; std::_Deque_val<std::_Deque_simple_types<std::basic_string<char,std::char_traits<char>,std::allocator<char> > > >::_Getblock
_TEXT	ENDS
; Function compile flags: /Ogtp
; File C:\Program Files\Microsoft Visual Studio\2022\Community\VC\Tools\MSVC\14.44.35207\include\deque
;	COMDAT ?_Get_data@?$deque@V?$basic_string@DU?$char_traits@D@std@@V?$allocator@D@2@@std@@V?$allocator@V?$basic_string@DU?$char_traits@D@std@@V?$allocator@D@2@@std@@@2@@std@@ABEABV?$_Deque_val@U?$_Deque_simple_types@V?$basic_string@DU?$char_traits@D@std@@V?$allocator@D@2@@std@@@std@@@2@XZ
_TEXT	SEGMENT
?_Get_data@?$deque@V?$basic_string@DU?$char_traits@D@std@@V?$allocator@D@2@@std@@V?$allocator@V?$basic_string@DU?$char_traits@D@std@@V?$allocator@D@2@@std@@@2@@std@@ABEABV?$_Deque_val@U?$_Deque_simple_types@V?$basic_string@DU?$char_traits@D@std@@V?$allocator@D@2@@std@@@std@@@2@XZ PROC ; std::deque<std::basic_string<char,std::char_traits<char>,std::allocator<char> >,std::allocator<std::basic_string<char,std::char_traits<char>,std::allocator<char> > > >::_Get_data, COMDAT
; _this$ = ecx

; 1726 :         return _Mypair._Myval2;

  00000	8b c1		 mov	 eax, ecx

; 1727 :     }

  00002	c3		 ret	 0
?_Get_data@?$deque@V?$basic_string@DU?$char_traits@D@std@@V?$allocator@D@2@@std@@V?$allocator@V?$basic_string@DU?$char_traits@D@std@@V?$allocator@D@2@@std@@@2@@std@@ABEABV?$_Deque_val@U?$_Deque_simple_types@V?$basic_string@DU?$char_traits@D@std@@V?$allocator@D@2@@std@@@std@@@2@XZ ENDP ; std::deque<std::basic_string<char,std::char_traits<char>,std::allocator<char> >,std::allocator<std::basic_string<char,std::char_traits<char>,std::allocator<char> > > >::_Get_data
_TEXT	ENDS
; Function compile flags: /Odsp
;	COMDAT ??_ECPythonNetworkStream@@WHM@AEPAXI@Z
_TEXT	SEGMENT
??_ECPythonNetworkStream@@WHM@AEPAXI@Z PROC		; [thunk]:CPythonNetworkStream::`vector deleting destructor', COMDAT
  00000	83 e9 7c	 sub	 ecx, 124		; 0000007cH
  00003	e9 00 00 00 00	 jmp	 ??_ECPythonNetworkStream@@UAEPAXI@Z
??_ECPythonNetworkStream@@WHM@AEPAXI@Z ENDP		; [thunk]:CPythonNetworkStream::`vector deleting destructor'
_TEXT	ENDS
END
