; Listing generated by Microsoft (R) Optimizing Compiler Version 19.44.35217.0 

	TITLE	d:\_m2work\txoko-m2-work\txoko-client-src\vs_files\userinterface\distribute\pythonplayereventhandler.obj
	.686P
	.XMM
	include listing.inc
	.model	flat

INCLUDELIB OLDNAMES

PUBLIC	??_C@_0CL@BHCKMNDC@Shoot?5?3?5?$LE?Y?$LI?$KF?5target?$LP?$KB?5?$LI?B?$LO?R?$LN?$MA?$LE?O?$LE@ ; `string'
PUBLIC	??_R2CPythonPlayerEventHandler@@8		; CPythonPlayerEventHandler::`RTTI Base Class Array'
PUBLIC	??_R2CNormalBowAttack_FlyEventHandler_AutoClear@CPythonPlayerEventHandler@@8 ; CPythonPlayerEventHandler::CNormalBowAttack_FlyEventHandler_AutoClear::`RTTI Base Class Array'
PUBLIC	??_R2IEventHandler@CActorInstance@@8		; CActorInstance::IEventHandler::`RTTI Base Class Array'
PUBLIC	??_R2IFlyEventHandler@@8			; IFlyEventHandler::`RTTI Base Class Array'
PUBLIC	??_R1A@?0A@EA@CNormalBowAttack_FlyEventHandler_AutoClear@CPythonPlayerEventHandler@@8 ; CPythonPlayerEventHandler::CNormalBowAttack_FlyEventHandler_AutoClear::`RTTI Base Class Descriptor at (0,-1,0,64)'
PUBLIC	??_R1A@?0A@EA@CPythonPlayerEventHandler@@8	; CPythonPlayerEventHandler::`RTTI Base Class Descriptor at (0,-1,0,64)'
PUBLIC	??_R1A@?0A@EA@IEventHandler@CActorInstance@@8	; CActorInstance::IEventHandler::`RTTI Base Class Descriptor at (0,-1,0,64)'
PUBLIC	??_R1A@?0A@EA@IFlyEventHandler@@8		; IFlyEventHandler::`RTTI Base Class Descriptor at (0,-1,0,64)'
PUBLIC	??_R3CNormalBowAttack_FlyEventHandler_AutoClear@CPythonPlayerEventHandler@@8 ; CPythonPlayerEventHandler::CNormalBowAttack_FlyEventHandler_AutoClear::`RTTI Class Hierarchy Descriptor'
PUBLIC	??_R3CPythonPlayerEventHandler@@8		; CPythonPlayerEventHandler::`RTTI Class Hierarchy Descriptor'
PUBLIC	??_R0?AVCNormalBowAttack_FlyEventHandler_AutoClear@CPythonPlayerEventHandler@@@8 ; CPythonPlayerEventHandler::CNormalBowAttack_FlyEventHandler_AutoClear `RTTI Type Descriptor'
PUBLIC	??_R0?AVCPythonPlayerEventHandler@@@8		; CPythonPlayerEventHandler `RTTI Type Descriptor'
PUBLIC	??_R3IEventHandler@CActorInstance@@8		; CActorInstance::IEventHandler::`RTTI Class Hierarchy Descriptor'
PUBLIC	??_R0?AVIEventHandler@CActorInstance@@@8	; CActorInstance::IEventHandler `RTTI Type Descriptor'
PUBLIC	??_R3IFlyEventHandler@@8			; IFlyEventHandler::`RTTI Class Hierarchy Descriptor'
PUBLIC	??_R0?AVIFlyEventHandler@@@8			; IFlyEventHandler `RTTI Type Descriptor'
PUBLIC	??_R4CPythonPlayerEventHandler@@6B@		; CPythonPlayerEventHandler::`RTTI Complete Object Locator'
PUBLIC	??_R4CNormalBowAttack_FlyEventHandler_AutoClear@CPythonPlayerEventHandler@@6B@ ; CPythonPlayerEventHandler::CNormalBowAttack_FlyEventHandler_AutoClear::`RTTI Complete Object Locator'
PUBLIC	??_R4IEventHandler@CActorInstance@@6B@		; CActorInstance::IEventHandler::`RTTI Complete Object Locator'
PUBLIC	??_R4IFlyEventHandler@@6B@			; IFlyEventHandler::`RTTI Complete Object Locator'
PUBLIC	??_7CPythonPlayerEventHandler@@6B@		; CPythonPlayerEventHandler::`vftable'
PUBLIC	??_7CNormalBowAttack_FlyEventHandler_AutoClear@CPythonPlayerEventHandler@@6B@ ; CPythonPlayerEventHandler::CNormalBowAttack_FlyEventHandler_AutoClear::`vftable'
PUBLIC	??_7IFlyEventHandler@@6B@			; IFlyEventHandler::`vftable'
PUBLIC	??_7IEventHandler@CActorInstance@@6B@		; CActorInstance::IEventHandler::`vftable'
EXTRN	?IS_HUGE_RACE@@YA_NI@Z:PROC			; IS_HUGE_RACE
;	COMDAT ??_7IEventHandler@CActorInstance@@6B@
CONST	SEGMENT
??_7IEventHandler@CActorInstance@@6B@ DD FLAT:??_R4IEventHandler@CActorInstance@@6B@ ; CActorInstance::IEventHandler::`vftable'
	DD	FLAT:??_EIEventHandler@CActorInstance@@UAEPAXI@Z
	DD	FLAT:__purecall
	DD	FLAT:__purecall
	DD	FLAT:__purecall
	DD	FLAT:__purecall
	DD	FLAT:__purecall
	DD	FLAT:__purecall
	DD	FLAT:__purecall
	DD	FLAT:__purecall
	DD	FLAT:__purecall
	DD	FLAT:__purecall
	DD	FLAT:__purecall
	DD	FLAT:__purecall
	DD	FLAT:__purecall
CONST	ENDS
;	COMDAT ??_7IFlyEventHandler@@6B@
CONST	SEGMENT
??_7IFlyEventHandler@@6B@ DD FLAT:??_R4IFlyEventHandler@@6B@ ; IFlyEventHandler::`vftable'
	DD	FLAT:??_EIFlyEventHandler@@UAEPAXI@Z
	DD	FLAT:?OnSetFlyTarget@IFlyEventHandler@@UAEXXZ
	DD	FLAT:?OnShoot@IFlyEventHandler@@UAEXK@Z
	DD	FLAT:?OnNoTarget@IFlyEventHandler@@UAEXXZ
	DD	FLAT:?OnNoArrow@IFlyEventHandler@@UAEXXZ
	DD	FLAT:?OnExplodingOutOfRange@IFlyEventHandler@@UAEXXZ
	DD	FLAT:?OnExplodingAtBackground@IFlyEventHandler@@UAEXXZ
	DD	FLAT:?OnExplodingAtAnotherTarget@IFlyEventHandler@@UAEXKK@Z
	DD	FLAT:?OnExplodingAtTarget@IFlyEventHandler@@UAEXK@Z
CONST	ENDS
;	COMDAT ??_7CNormalBowAttack_FlyEventHandler_AutoClear@CPythonPlayerEventHandler@@6B@
CONST	SEGMENT
??_7CNormalBowAttack_FlyEventHandler_AutoClear@CPythonPlayerEventHandler@@6B@ DD FLAT:??_R4CNormalBowAttack_FlyEventHandler_AutoClear@CPythonPlayerEventHandler@@6B@ ; CPythonPlayerEventHandler::CNormalBowAttack_FlyEventHandler_AutoClear::`vftable'
	DD	FLAT:??_ECNormalBowAttack_FlyEventHandler_AutoClear@CPythonPlayerEventHandler@@UAEPAXI@Z
	DD	FLAT:?OnSetFlyTarget@CNormalBowAttack_FlyEventHandler_AutoClear@CPythonPlayerEventHandler@@UAEXXZ
	DD	FLAT:?OnShoot@CNormalBowAttack_FlyEventHandler_AutoClear@CPythonPlayerEventHandler@@UAEXK@Z
	DD	FLAT:?OnNoTarget@CNormalBowAttack_FlyEventHandler_AutoClear@CPythonPlayerEventHandler@@UAEXXZ
	DD	FLAT:?OnNoArrow@IFlyEventHandler@@UAEXXZ
	DD	FLAT:?OnExplodingOutOfRange@CNormalBowAttack_FlyEventHandler_AutoClear@CPythonPlayerEventHandler@@UAEXXZ
	DD	FLAT:?OnExplodingAtBackground@CNormalBowAttack_FlyEventHandler_AutoClear@CPythonPlayerEventHandler@@UAEXXZ
	DD	FLAT:?OnExplodingAtAnotherTarget@CNormalBowAttack_FlyEventHandler_AutoClear@CPythonPlayerEventHandler@@UAEXKK@Z
	DD	FLAT:?OnExplodingAtTarget@CNormalBowAttack_FlyEventHandler_AutoClear@CPythonPlayerEventHandler@@UAEXK@Z
CONST	ENDS
;	COMDAT ??_7CPythonPlayerEventHandler@@6B@
CONST	SEGMENT
??_7CPythonPlayerEventHandler@@6B@ DD FLAT:??_R4CPythonPlayerEventHandler@@6B@ ; CPythonPlayerEventHandler::`vftable'
	DD	FLAT:??_ECPythonPlayerEventHandler@@UAEPAXI@Z
	DD	FLAT:?OnSyncing@CPythonPlayerEventHandler@@UAEXABUSState@IEventHandler@CActorInstance@@@Z
	DD	FLAT:?OnWaiting@CPythonPlayerEventHandler@@UAEXABUSState@IEventHandler@CActorInstance@@@Z
	DD	FLAT:?OnMoving@CPythonPlayerEventHandler@@UAEXABUSState@IEventHandler@CActorInstance@@@Z
	DD	FLAT:?OnMove@CPythonPlayerEventHandler@@UAEXABUSState@IEventHandler@CActorInstance@@@Z
	DD	FLAT:?OnStop@CPythonPlayerEventHandler@@UAEXABUSState@IEventHandler@CActorInstance@@@Z
	DD	FLAT:?OnWarp@CPythonPlayerEventHandler@@UAEXABUSState@IEventHandler@CActorInstance@@@Z
	DD	FLAT:?OnSetAffect@CPythonPlayerEventHandler@@UAEXI@Z
	DD	FLAT:?OnResetAffect@CPythonPlayerEventHandler@@UAEXI@Z
	DD	FLAT:?OnClearAffects@CPythonPlayerEventHandler@@UAEXXZ
	DD	FLAT:?OnAttack@CPythonPlayerEventHandler@@UAEXABUSState@IEventHandler@CActorInstance@@G@Z
	DD	FLAT:?OnUseSkill@CPythonPlayerEventHandler@@UAEXABUSState@IEventHandler@CActorInstance@@II@Z
	DD	FLAT:?OnHit@CPythonPlayerEventHandler@@UAEXIAAVCActorInstance@@H@Z
	DD	FLAT:?OnChangeShape@CPythonPlayerEventHandler@@UAEXXZ
	DD	FLAT:?OnUpdate@CPythonPlayerEventHandler@@UAEXXZ
CONST	ENDS
;	COMDAT ??_R4IFlyEventHandler@@6B@
rdata$r	SEGMENT
??_R4IFlyEventHandler@@6B@ DD 00H			; IFlyEventHandler::`RTTI Complete Object Locator'
	DD	00H
	DD	00H
	DD	FLAT:??_R0?AVIFlyEventHandler@@@8
	DD	FLAT:??_R3IFlyEventHandler@@8
rdata$r	ENDS
;	COMDAT ??_R4IEventHandler@CActorInstance@@6B@
rdata$r	SEGMENT
??_R4IEventHandler@CActorInstance@@6B@ DD 00H		; CActorInstance::IEventHandler::`RTTI Complete Object Locator'
	DD	00H
	DD	00H
	DD	FLAT:??_R0?AVIEventHandler@CActorInstance@@@8
	DD	FLAT:??_R3IEventHandler@CActorInstance@@8
rdata$r	ENDS
;	COMDAT ??_R4CNormalBowAttack_FlyEventHandler_AutoClear@CPythonPlayerEventHandler@@6B@
rdata$r	SEGMENT
??_R4CNormalBowAttack_FlyEventHandler_AutoClear@CPythonPlayerEventHandler@@6B@ DD 00H ; CPythonPlayerEventHandler::CNormalBowAttack_FlyEventHandler_AutoClear::`RTTI Complete Object Locator'
	DD	00H
	DD	00H
	DD	FLAT:??_R0?AVCNormalBowAttack_FlyEventHandler_AutoClear@CPythonPlayerEventHandler@@@8
	DD	FLAT:??_R3CNormalBowAttack_FlyEventHandler_AutoClear@CPythonPlayerEventHandler@@8
rdata$r	ENDS
;	COMDAT ??_R4CPythonPlayerEventHandler@@6B@
rdata$r	SEGMENT
??_R4CPythonPlayerEventHandler@@6B@ DD 00H		; CPythonPlayerEventHandler::`RTTI Complete Object Locator'
	DD	00H
	DD	00H
	DD	FLAT:??_R0?AVCPythonPlayerEventHandler@@@8
	DD	FLAT:??_R3CPythonPlayerEventHandler@@8
rdata$r	ENDS
;	COMDAT ??_R0?AVIFlyEventHandler@@@8
data$rs	SEGMENT
??_R0?AVIFlyEventHandler@@@8 DD FLAT:??_7type_info@@6B@	; IFlyEventHandler `RTTI Type Descriptor'
	DD	00H
	DB	'.?AVIFlyEventHandler@@', 00H
data$rs	ENDS
;	COMDAT ??_R3IFlyEventHandler@@8
rdata$r	SEGMENT
??_R3IFlyEventHandler@@8 DD 00H				; IFlyEventHandler::`RTTI Class Hierarchy Descriptor'
	DD	00H
	DD	01H
	DD	FLAT:??_R2IFlyEventHandler@@8
rdata$r	ENDS
;	COMDAT ??_R0?AVIEventHandler@CActorInstance@@@8
data$rs	SEGMENT
??_R0?AVIEventHandler@CActorInstance@@@8 DD FLAT:??_7type_info@@6B@ ; CActorInstance::IEventHandler `RTTI Type Descriptor'
	DD	00H
	DB	'.?AVIEventHandler@CActorInstance@@', 00H
data$rs	ENDS
;	COMDAT ??_R3IEventHandler@CActorInstance@@8
rdata$r	SEGMENT
??_R3IEventHandler@CActorInstance@@8 DD 00H		; CActorInstance::IEventHandler::`RTTI Class Hierarchy Descriptor'
	DD	00H
	DD	01H
	DD	FLAT:??_R2IEventHandler@CActorInstance@@8
rdata$r	ENDS
;	COMDAT ??_R0?AVCPythonPlayerEventHandler@@@8
data$rs	SEGMENT
??_R0?AVCPythonPlayerEventHandler@@@8 DD FLAT:??_7type_info@@6B@ ; CPythonPlayerEventHandler `RTTI Type Descriptor'
	DD	00H
	DB	'.?AVCPythonPlayerEventHandler@@', 00H
data$rs	ENDS
;	COMDAT ??_R0?AVCNormalBowAttack_FlyEventHandler_AutoClear@CPythonPlayerEventHandler@@@8
data$rs	SEGMENT
??_R0?AVCNormalBowAttack_FlyEventHandler_AutoClear@CPythonPlayerEventHandler@@@8 DD FLAT:??_7type_info@@6B@ ; CPythonPlayerEventHandler::CNormalBowAttack_FlyEventHandler_AutoClear `RTTI Type Descriptor'
	DD	00H
	DB	'.?AVCNormalBowAttack_FlyEventHandler_AutoClear@CPythonPl'
	DB	'ayerEventHandler@@', 00H
data$rs	ENDS
;	COMDAT ??_R3CPythonPlayerEventHandler@@8
rdata$r	SEGMENT
??_R3CPythonPlayerEventHandler@@8 DD 00H		; CPythonPlayerEventHandler::`RTTI Class Hierarchy Descriptor'
	DD	00H
	DD	02H
	DD	FLAT:??_R2CPythonPlayerEventHandler@@8
rdata$r	ENDS
;	COMDAT ??_R3CNormalBowAttack_FlyEventHandler_AutoClear@CPythonPlayerEventHandler@@8
rdata$r	SEGMENT
??_R3CNormalBowAttack_FlyEventHandler_AutoClear@CPythonPlayerEventHandler@@8 DD 00H ; CPythonPlayerEventHandler::CNormalBowAttack_FlyEventHandler_AutoClear::`RTTI Class Hierarchy Descriptor'
	DD	00H
	DD	02H
	DD	FLAT:??_R2CNormalBowAttack_FlyEventHandler_AutoClear@CPythonPlayerEventHandler@@8
rdata$r	ENDS
;	COMDAT ??_R1A@?0A@EA@IFlyEventHandler@@8
rdata$r	SEGMENT
??_R1A@?0A@EA@IFlyEventHandler@@8 DD FLAT:??_R0?AVIFlyEventHandler@@@8 ; IFlyEventHandler::`RTTI Base Class Descriptor at (0,-1,0,64)'
	DD	00H
	DD	00H
	DD	0ffffffffH
	DD	00H
	DD	040H
	DD	FLAT:??_R3IFlyEventHandler@@8
rdata$r	ENDS
;	COMDAT ??_R1A@?0A@EA@IEventHandler@CActorInstance@@8
rdata$r	SEGMENT
??_R1A@?0A@EA@IEventHandler@CActorInstance@@8 DD FLAT:??_R0?AVIEventHandler@CActorInstance@@@8 ; CActorInstance::IEventHandler::`RTTI Base Class Descriptor at (0,-1,0,64)'
	DD	00H
	DD	00H
	DD	0ffffffffH
	DD	00H
	DD	040H
	DD	FLAT:??_R3IEventHandler@CActorInstance@@8
rdata$r	ENDS
;	COMDAT ??_R1A@?0A@EA@CPythonPlayerEventHandler@@8
rdata$r	SEGMENT
??_R1A@?0A@EA@CPythonPlayerEventHandler@@8 DD FLAT:??_R0?AVCPythonPlayerEventHandler@@@8 ; CPythonPlayerEventHandler::`RTTI Base Class Descriptor at (0,-1,0,64)'
	DD	01H
	DD	00H
	DD	0ffffffffH
	DD	00H
	DD	040H
	DD	FLAT:??_R3CPythonPlayerEventHandler@@8
rdata$r	ENDS
;	COMDAT ??_R1A@?0A@EA@CNormalBowAttack_FlyEventHandler_AutoClear@CPythonPlayerEventHandler@@8
rdata$r	SEGMENT
??_R1A@?0A@EA@CNormalBowAttack_FlyEventHandler_AutoClear@CPythonPlayerEventHandler@@8 DD FLAT:??_R0?AVCNormalBowAttack_FlyEventHandler_AutoClear@CPythonPlayerEventHandler@@@8 ; CPythonPlayerEventHandler::CNormalBowAttack_FlyEventHandler_AutoClear::`RTTI Base Class Descriptor at (0,-1,0,64)'
	DD	01H
	DD	00H
	DD	0ffffffffH
	DD	00H
	DD	040H
	DD	FLAT:??_R3CNormalBowAttack_FlyEventHandler_AutoClear@CPythonPlayerEventHandler@@8
rdata$r	ENDS
;	COMDAT ??_R2IFlyEventHandler@@8
rdata$r	SEGMENT
??_R2IFlyEventHandler@@8 DD FLAT:??_R1A@?0A@EA@IFlyEventHandler@@8 ; IFlyEventHandler::`RTTI Base Class Array'
rdata$r	ENDS
;	COMDAT ??_R2IEventHandler@CActorInstance@@8
rdata$r	SEGMENT
??_R2IEventHandler@CActorInstance@@8 DD FLAT:??_R1A@?0A@EA@IEventHandler@CActorInstance@@8 ; CActorInstance::IEventHandler::`RTTI Base Class Array'
rdata$r	ENDS
;	COMDAT ??_R2CNormalBowAttack_FlyEventHandler_AutoClear@CPythonPlayerEventHandler@@8
rdata$r	SEGMENT
??_R2CNormalBowAttack_FlyEventHandler_AutoClear@CPythonPlayerEventHandler@@8 DD FLAT:??_R1A@?0A@EA@CNormalBowAttack_FlyEventHandler_AutoClear@CPythonPlayerEventHandler@@8 ; CPythonPlayerEventHandler::CNormalBowAttack_FlyEventHandler_AutoClear::`RTTI Base Class Array'
	DD	FLAT:??_R1A@?0A@EA@IFlyEventHandler@@8
rdata$r	ENDS
;	COMDAT ??_R2CPythonPlayerEventHandler@@8
rdata$r	SEGMENT
??_R2CPythonPlayerEventHandler@@8 DD FLAT:??_R1A@?0A@EA@CPythonPlayerEventHandler@@8 ; CPythonPlayerEventHandler::`RTTI Base Class Array'
	DD	FLAT:??_R1A@?0A@EA@IEventHandler@CActorInstance@@8
rdata$r	ENDS
;	COMDAT ??_C@_0CL@BHCKMNDC@Shoot?5?3?5?$LE?Y?$LI?$KF?5target?$LP?$KB?5?$LI?B?$LO?R?$LN?$MA?$LE?O?$LE@
CONST	SEGMENT
??_C@_0CL@BHCKMNDC@Shoot?5?3?5?$LE?Y?$LI?$KF?5target?$LP?$KB?5?$LI?B?$LO?R?$LN?$MA?$LE?O?$LE@ DB 'S'
	DB	'hoot : ', 0b4H, 0d9H, 0b8H, 0a5H, ' target', 0bfH, 0a1H, ' ', 0b8H
	DB	0c2H, 0beH, 0d2H, 0bdH, 0c0H, 0b4H, 0cfH, 0b4H, 0d9H, ' : %d, '
	DB	'%d', 0aH, 00H				; `string'
PUBLIC	??$construct_at@USVictim@CPythonPlayerEventHandler@@U12@@std@@YAPAUSVictim@CPythonPlayerEventHandler@@QAU12@$$QAU12@@Z ; std::construct_at<CPythonPlayerEventHandler::SVictim,CPythonPlayerEventHandler::SVictim>
PUBLIC	?_Get_first@?$_Compressed_pair@V?$allocator@USVictim@CPythonPlayerEventHandler@@@std@@V?$_Vector_val@U?$_Simple_types@USVictim@CPythonPlayerEventHandler@@@std@@@2@$00@std@@QBEABV?$allocator@USVictim@CPythonPlayerEventHandler@@@2@XZ ; std::_Compressed_pair<std::allocator<CPythonPlayerEventHandler::SVictim>,std::_Vector_val<std::_Simple_types<CPythonPlayerEventHandler::SVictim> >,1>::_Get_first
PUBLIC	??$construct@USVictim@CPythonPlayerEventHandler@@U12@@?$_Default_allocator_traits@V?$allocator@USVictim@CPythonPlayerEventHandler@@@std@@@std@@SAXAAV?$allocator@USVictim@CPythonPlayerEventHandler@@@1@QAUSVictim@CPythonPlayerEventHandler@@$$QAU34@@Z ; std::_Default_allocator_traits<std::allocator<CPythonPlayerEventHandler::SVictim> >::construct<CPythonPlayerEventHandler::SVictim,CPythonPlayerEventHandler::SVictim>
PUBLIC	??$forward@USVictim@CPythonPlayerEventHandler@@@std@@YA$$QAUSVictim@CPythonPlayerEventHandler@@AAU12@@Z ; std::forward<CPythonPlayerEventHandler::SVictim>
PUBLIC	??$_Copy_memmove_tail@PAUSVictim@CPythonPlayerEventHandler@@@std@@YAPAUSVictim@CPythonPlayerEventHandler@@QBDQAU12@II@Z ; std::_Copy_memmove_tail<CPythonPlayerEventHandler::SVictim *>
PUBLIC	??$move@AAPAUSVictim@CPythonPlayerEventHandler@@@std@@YA$$QAPAUSVictim@CPythonPlayerEventHandler@@AAPAU12@@Z ; std::move<CPythonPlayerEventHandler::SVictim * &>
PUBLIC	??$to_address@USVictim@CPythonPlayerEventHandler@@@std@@YAPAUSVictim@CPythonPlayerEventHandler@@QAU12@@Z ; std::to_address<CPythonPlayerEventHandler::SVictim>
PUBLIC	?allocate@?$allocator@USVictim@CPythonPlayerEventHandler@@@std@@QAEPAUSVictim@CPythonPlayerEventHandler@@I@Z ; std::allocator<CPythonPlayerEventHandler::SVictim>::allocate
PUBLIC	?capacity@?$vector@USVictim@CPythonPlayerEventHandler@@V?$allocator@USVictim@CPythonPlayerEventHandler@@@std@@@std@@QBEIXZ ; std::vector<CPythonPlayerEventHandler::SVictim,std::allocator<CPythonPlayerEventHandler::SVictim> >::capacity
PUBLIC	?_Getal@?$vector@USVictim@CPythonPlayerEventHandler@@V?$allocator@USVictim@CPythonPlayerEventHandler@@@std@@@std@@ABEABV?$allocator@USVictim@CPythonPlayerEventHandler@@@2@XZ ; std::vector<CPythonPlayerEventHandler::SVictim,std::allocator<CPythonPlayerEventHandler::SVictim> >::_Getal
PUBLIC	?max_size@?$_Default_allocator_traits@V?$allocator@USVictim@CPythonPlayerEventHandler@@@std@@@std@@SAIABV?$allocator@USVictim@CPythonPlayerEventHandler@@@2@@Z ; std::_Default_allocator_traits<std::allocator<CPythonPlayerEventHandler::SVictim> >::max_size
PUBLIC	??0?$_Uninitialized_backout_al@V?$allocator@USVictim@CPythonPlayerEventHandler@@@std@@@std@@QAE@PAUSVictim@CPythonPlayerEventHandler@@AAV?$allocator@USVictim@CPythonPlayerEventHandler@@@1@@Z ; std::_Uninitialized_backout_al<std::allocator<CPythonPlayerEventHandler::SVictim> >::_Uninitialized_backout_al<std::allocator<CPythonPlayerEventHandler::SVictim> >
PUBLIC	??1?$_Uninitialized_backout_al@V?$allocator@USVictim@CPythonPlayerEventHandler@@@std@@@std@@QAE@XZ ; std::_Uninitialized_backout_al<std::allocator<CPythonPlayerEventHandler::SVictim> >::~_Uninitialized_backout_al<std::allocator<CPythonPlayerEventHandler::SVictim> >
PUBLIC	?_Release@?$_Uninitialized_backout_al@V?$allocator@USVictim@CPythonPlayerEventHandler@@@std@@@std@@QAEPAUSVictim@CPythonPlayerEventHandler@@XZ ; std::_Uninitialized_backout_al<std::allocator<CPythonPlayerEventHandler::SVictim> >::_Release
PUBLIC	??$_Emplace_back@USVictim@CPythonPlayerEventHandler@@@?$_Uninitialized_backout_al@V?$allocator@USVictim@CPythonPlayerEventHandler@@@std@@@std@@QAEX$$QAUSVictim@CPythonPlayerEventHandler@@@Z ; std::_Uninitialized_backout_al<std::allocator<CPythonPlayerEventHandler::SVictim> >::_Emplace_back<CPythonPlayerEventHandler::SVictim>
PUBLIC	??$_To_address@PAUSVictim@CPythonPlayerEventHandler@@@std@@YA?A_PABQAUSVictim@CPythonPlayerEventHandler@@@Z ; std::_To_address<CPythonPlayerEventHandler::SVictim *>
PUBLIC	??$_Copy_memmove@PAUSVictim@CPythonPlayerEventHandler@@PAU12@@std@@YAPAUSVictim@CPythonPlayerEventHandler@@PAU12@00@Z ; std::_Copy_memmove<CPythonPlayerEventHandler::SVictim *,CPythonPlayerEventHandler::SVictim *>
PUBLIC	??$move@AAUSVictim@CPythonPlayerEventHandler@@@std@@YA$$QAUSVictim@CPythonPlayerEventHandler@@AAU12@@Z ; std::move<CPythonPlayerEventHandler::SVictim &>
PUBLIC	??$construct_at@USVictim@CPythonPlayerEventHandler@@ABU12@@std@@YAPAUSVictim@CPythonPlayerEventHandler@@QAU12@ABU12@@Z ; std::construct_at<CPythonPlayerEventHandler::SVictim,CPythonPlayerEventHandler::SVictim const &>
PUBLIC	??$addressof@USVictim@CPythonPlayerEventHandler@@@std@@YAPAUSVictim@CPythonPlayerEventHandler@@AAU12@@Z ; std::addressof<CPythonPlayerEventHandler::SVictim>
PUBLIC	?max_size@?$vector@USVictim@CPythonPlayerEventHandler@@V?$allocator@USVictim@CPythonPlayerEventHandler@@@std@@@std@@QBEIXZ ; std::vector<CPythonPlayerEventHandler::SVictim,std::allocator<CPythonPlayerEventHandler::SVictim> >::max_size
PUBLIC	?_Calculate_growth@?$vector@USVictim@CPythonPlayerEventHandler@@V?$allocator@USVictim@CPythonPlayerEventHandler@@@std@@@std@@ABEII@Z ; std::vector<CPythonPlayerEventHandler::SVictim,std::allocator<CPythonPlayerEventHandler::SVictim> >::_Calculate_growth
PUBLIC	?_Change_array@?$vector@USVictim@CPythonPlayerEventHandler@@V?$allocator@USVictim@CPythonPlayerEventHandler@@@std@@@std@@AAEXQAUSVictim@CPythonPlayerEventHandler@@II@Z ; std::vector<CPythonPlayerEventHandler::SVictim,std::allocator<CPythonPlayerEventHandler::SVictim> >::_Change_array
PUBLIC	?_Xlength@?$vector@USVictim@CPythonPlayerEventHandler@@V?$allocator@USVictim@CPythonPlayerEventHandler@@@std@@@std@@CAXXZ ; std::vector<CPythonPlayerEventHandler::SVictim,std::allocator<CPythonPlayerEventHandler::SVictim> >::_Xlength
PUBLIC	?_Orphan_range@?$vector@USVictim@CPythonPlayerEventHandler@@V?$allocator@USVictim@CPythonPlayerEventHandler@@@std@@@std@@ABEXPAUSVictim@CPythonPlayerEventHandler@@0@Z ; std::vector<CPythonPlayerEventHandler::SVictim,std::allocator<CPythonPlayerEventHandler::SVictim> >::_Orphan_range
PUBLIC	??1_Reallocation_guard@?$vector@USVictim@CPythonPlayerEventHandler@@V?$allocator@USVictim@CPythonPlayerEventHandler@@@std@@@std@@QAE@XZ ; std::vector<CPythonPlayerEventHandler::SVictim,std::allocator<CPythonPlayerEventHandler::SVictim> >::_Reallocation_guard::~_Reallocation_guard
PUBLIC	??$_Uninitialized_move@PAUSVictim@CPythonPlayerEventHandler@@V?$allocator@USVictim@CPythonPlayerEventHandler@@@std@@@std@@YAPAUSVictim@CPythonPlayerEventHandler@@QAU12@0PAU12@AAV?$allocator@USVictim@CPythonPlayerEventHandler@@@0@@Z ; std::_Uninitialized_move<CPythonPlayerEventHandler::SVictim *,std::allocator<CPythonPlayerEventHandler::SVictim> >
PUBLIC	??$_Get_unwrapped@ABQAUSVictim@CPythonPlayerEventHandler@@@std@@YA?A_TABQAUSVictim@CPythonPlayerEventHandler@@@Z ; std::_Get_unwrapped<CPythonPlayerEventHandler::SVictim * const &>
PUBLIC	??$construct@USVictim@CPythonPlayerEventHandler@@ABU12@@?$_Default_allocator_traits@V?$allocator@USVictim@CPythonPlayerEventHandler@@@std@@@std@@SAXAAV?$allocator@USVictim@CPythonPlayerEventHandler@@@1@QAUSVictim@CPythonPlayerEventHandler@@ABU34@@Z ; std::_Default_allocator_traits<std::allocator<CPythonPlayerEventHandler::SVictim> >::construct<CPythonPlayerEventHandler::SVictim,CPythonPlayerEventHandler::SVictim const &>
PUBLIC	??$_Unfancy@USVictim@CPythonPlayerEventHandler@@@std@@YAPAUSVictim@CPythonPlayerEventHandler@@PAU12@@Z ; std::_Unfancy<CPythonPlayerEventHandler::SVictim>
PUBLIC	??$_Allocate_at_least_helper@V?$allocator@USVictim@CPythonPlayerEventHandler@@@std@@@std@@YAPAUSVictim@CPythonPlayerEventHandler@@AAV?$allocator@USVictim@CPythonPlayerEventHandler@@@0@AAI@Z ; std::_Allocate_at_least_helper<std::allocator<CPythonPlayerEventHandler::SVictim> >
PUBLIC	??$_Construct_in_place@USVictim@CPythonPlayerEventHandler@@ABU12@@std@@YAXAAUSVictim@CPythonPlayerEventHandler@@ABU12@@Z ; std::_Construct_in_place<CPythonPlayerEventHandler::SVictim,CPythonPlayerEventHandler::SVictim const &>
PUBLIC	??0?$allocator@USVictim@CPythonPlayerEventHandler@@@std@@QAE@XZ ; std::allocator<CPythonPlayerEventHandler::SVictim>::allocator<CPythonPlayerEventHandler::SVictim>
PUBLIC	?deallocate@?$allocator@USVictim@CPythonPlayerEventHandler@@@std@@QAEXQAUSVictim@CPythonPlayerEventHandler@@I@Z ; std::allocator<CPythonPlayerEventHandler::SVictim>::deallocate
PUBLIC	??0?$_Vector_val@U?$_Simple_types@USVictim@CPythonPlayerEventHandler@@@std@@@std@@QAE@XZ ; std::_Vector_val<std::_Simple_types<CPythonPlayerEventHandler::SVictim> >::_Vector_val<std::_Simple_types<CPythonPlayerEventHandler::SVictim> >
PUBLIC	?_Get_first@?$_Compressed_pair@V?$allocator@USVictim@CPythonPlayerEventHandler@@@std@@V?$_Vector_val@U?$_Simple_types@USVictim@CPythonPlayerEventHandler@@@std@@@2@$00@std@@QAEAAV?$allocator@USVictim@CPythonPlayerEventHandler@@@2@XZ ; std::_Compressed_pair<std::allocator<CPythonPlayerEventHandler::SVictim>,std::_Vector_val<std::_Simple_types<CPythonPlayerEventHandler::SVictim> >,1>::_Get_first
PUBLIC	??$_Emplace_reallocate@ABUSVictim@CPythonPlayerEventHandler@@@?$vector@USVictim@CPythonPlayerEventHandler@@V?$allocator@USVictim@CPythonPlayerEventHandler@@@std@@@std@@AAEPAUSVictim@CPythonPlayerEventHandler@@QAU23@ABU23@@Z ; std::vector<CPythonPlayerEventHandler::SVictim,std::allocator<CPythonPlayerEventHandler::SVictim> >::_Emplace_reallocate<CPythonPlayerEventHandler::SVictim const &>
PUBLIC	??$_Emplace_back_with_unused_capacity@ABUSVictim@CPythonPlayerEventHandler@@@?$vector@USVictim@CPythonPlayerEventHandler@@V?$allocator@USVictim@CPythonPlayerEventHandler@@@std@@@std@@AAEAAUSVictim@CPythonPlayerEventHandler@@ABU23@@Z ; std::vector<CPythonPlayerEventHandler::SVictim,std::allocator<CPythonPlayerEventHandler::SVictim> >::_Emplace_back_with_unused_capacity<CPythonPlayerEventHandler::SVictim const &>
PUBLIC	??$forward@ABUSVictim@CPythonPlayerEventHandler@@@std@@YAABUSVictim@CPythonPlayerEventHandler@@ABU12@@Z ; std::forward<CPythonPlayerEventHandler::SVictim const &>
PUBLIC	?_Tidy@?$vector@USVictim@CPythonPlayerEventHandler@@V?$allocator@USVictim@CPythonPlayerEventHandler@@@std@@@std@@AAEXXZ ; std::vector<CPythonPlayerEventHandler::SVictim,std::allocator<CPythonPlayerEventHandler::SVictim> >::_Tidy
PUBLIC	?_Getal@?$vector@USVictim@CPythonPlayerEventHandler@@V?$allocator@USVictim@CPythonPlayerEventHandler@@@std@@@std@@AAEAAV?$allocator@USVictim@CPythonPlayerEventHandler@@@2@XZ ; std::vector<CPythonPlayerEventHandler::SVictim,std::allocator<CPythonPlayerEventHandler::SVictim> >::_Getal
PUBLIC	??$?0$$V@?$_Compressed_pair@V?$allocator@USVictim@CPythonPlayerEventHandler@@@std@@V?$_Vector_val@U?$_Simple_types@USVictim@CPythonPlayerEventHandler@@@std@@@2@$00@std@@QAE@U_Zero_then_variadic_args_t@1@@Z ; std::_Compressed_pair<std::allocator<CPythonPlayerEventHandler::SVictim>,std::_Vector_val<std::_Simple_types<CPythonPlayerEventHandler::SVictim> >,1>::_Compressed_pair<std::allocator<CPythonPlayerEventHandler::SVictim>,std::_Vector_val<std::_Simple_types<CPythonPlayerEventHandler::SVictim> >,1><>
PUBLIC	??$_Emplace_one_at_back@ABUSVictim@CPythonPlayerEventHandler@@@?$vector@USVictim@CPythonPlayerEventHandler@@V?$allocator@USVictim@CPythonPlayerEventHandler@@@std@@@std@@AAEAAUSVictim@CPythonPlayerEventHandler@@ABU23@@Z ; std::vector<CPythonPlayerEventHandler::SVictim,std::allocator<CPythonPlayerEventHandler::SVictim> >::_Emplace_one_at_back<CPythonPlayerEventHandler::SVictim const &>
PUBLIC	??$_Destroy_range@V?$allocator@USVictim@CPythonPlayerEventHandler@@@std@@@std@@YAXPAUSVictim@CPythonPlayerEventHandler@@QAU12@AAV?$allocator@USVictim@CPythonPlayerEventHandler@@@0@@Z ; std::_Destroy_range<std::allocator<CPythonPlayerEventHandler::SVictim> >
PUBLIC	??0?$vector@USVictim@CPythonPlayerEventHandler@@V?$allocator@USVictim@CPythonPlayerEventHandler@@@std@@@std@@QAE@XZ ; std::vector<CPythonPlayerEventHandler::SVictim,std::allocator<CPythonPlayerEventHandler::SVictim> >::vector<CPythonPlayerEventHandler::SVictim,std::allocator<CPythonPlayerEventHandler::SVictim> >
PUBLIC	??1?$vector@USVictim@CPythonPlayerEventHandler@@V?$allocator@USVictim@CPythonPlayerEventHandler@@@std@@@std@@QAE@XZ ; std::vector<CPythonPlayerEventHandler::SVictim,std::allocator<CPythonPlayerEventHandler::SVictim> >::~vector<CPythonPlayerEventHandler::SVictim,std::allocator<CPythonPlayerEventHandler::SVictim> >
PUBLIC	?push_back@?$vector@USVictim@CPythonPlayerEventHandler@@V?$allocator@USVictim@CPythonPlayerEventHandler@@@std@@@std@@QAEXABUSVictim@CPythonPlayerEventHandler@@@Z ; std::vector<CPythonPlayerEventHandler::SVictim,std::allocator<CPythonPlayerEventHandler::SVictim> >::push_back
PUBLIC	?clear@?$vector@USVictim@CPythonPlayerEventHandler@@V?$allocator@USVictim@CPythonPlayerEventHandler@@@std@@@std@@QAEXXZ ; std::vector<CPythonPlayerEventHandler::SVictim,std::allocator<CPythonPlayerEventHandler::SVictim> >::clear
PUBLIC	?empty@?$vector@USVictim@CPythonPlayerEventHandler@@V?$allocator@USVictim@CPythonPlayerEventHandler@@@std@@@std@@QBE_NXZ ; std::vector<CPythonPlayerEventHandler::SVictim,std::allocator<CPythonPlayerEventHandler::SVictim> >::empty
PUBLIC	?size@?$vector@USVictim@CPythonPlayerEventHandler@@V?$allocator@USVictim@CPythonPlayerEventHandler@@@std@@@std@@QBEIXZ ; std::vector<CPythonPlayerEventHandler::SVictim,std::allocator<CPythonPlayerEventHandler::SVictim> >::size
PUBLIC	??A?$vector@USVictim@CPythonPlayerEventHandler@@V?$allocator@USVictim@CPythonPlayerEventHandler@@@std@@@std@@QAEAAUSVictim@CPythonPlayerEventHandler@@I@Z ; std::vector<CPythonPlayerEventHandler::SVictim,std::allocator<CPythonPlayerEventHandler::SVictim> >::operator[]
PUBLIC	?OnExplodingAtTarget@CNormalBowAttack_FlyEventHandler_AutoClear@CPythonPlayerEventHandler@@UAEXK@Z ; CPythonPlayerEventHandler::CNormalBowAttack_FlyEventHandler_AutoClear::OnExplodingAtTarget
PUBLIC	?OnExplodingAtAnotherTarget@CNormalBowAttack_FlyEventHandler_AutoClear@CPythonPlayerEventHandler@@UAEXKK@Z ; CPythonPlayerEventHandler::CNormalBowAttack_FlyEventHandler_AutoClear::OnExplodingAtAnotherTarget
PUBLIC	?Set@CNormalBowAttack_FlyEventHandler_AutoClear@CPythonPlayerEventHandler@@QAEXPAV2@PAVCInstanceBase@@1@Z ; CPythonPlayerEventHandler::CNormalBowAttack_FlyEventHandler_AutoClear::Set
PUBLIC	?OnShoot@CNormalBowAttack_FlyEventHandler_AutoClear@CPythonPlayerEventHandler@@UAEXK@Z ; CPythonPlayerEventHandler::CNormalBowAttack_FlyEventHandler_AutoClear::OnShoot
PUBLIC	??0SState@IEventHandler@CActorInstance@@QAE@XZ	; CActorInstance::IEventHandler::SState::SState
PUBLIC	?OnSetFlyTarget@CNormalBowAttack_FlyEventHandler_AutoClear@CPythonPlayerEventHandler@@UAEXXZ ; CPythonPlayerEventHandler::CNormalBowAttack_FlyEventHandler_AutoClear::OnSetFlyTarget
PUBLIC	??0CPythonPlayerEventHandler@@IAE@XZ		; CPythonPlayerEventHandler::CPythonPlayerEventHandler
PUBLIC	?OnHit@CPythonPlayerEventHandler@@UAEXIAAVCActorInstance@@H@Z ; CPythonPlayerEventHandler::OnHit
PUBLIC	?OnChangeShape@CPythonPlayerEventHandler@@UAEXXZ ; CPythonPlayerEventHandler::OnChangeShape
PUBLIC	?OnUpdate@CPythonPlayerEventHandler@@UAEXXZ	; CPythonPlayerEventHandler::OnUpdate
PUBLIC	?OnUseSkill@CPythonPlayerEventHandler@@UAEXABUSState@IEventHandler@CActorInstance@@II@Z ; CPythonPlayerEventHandler::OnUseSkill
PUBLIC	?OnAttack@CPythonPlayerEventHandler@@UAEXABUSState@IEventHandler@CActorInstance@@G@Z ; CPythonPlayerEventHandler::OnAttack
PUBLIC	?OnWarp@CPythonPlayerEventHandler@@UAEXABUSState@IEventHandler@CActorInstance@@@Z ; CPythonPlayerEventHandler::OnWarp
PUBLIC	?OnStop@CPythonPlayerEventHandler@@UAEXABUSState@IEventHandler@CActorInstance@@@Z ; CPythonPlayerEventHandler::OnStop
PUBLIC	?OnMove@CPythonPlayerEventHandler@@UAEXABUSState@IEventHandler@CActorInstance@@@Z ; CPythonPlayerEventHandler::OnMove
PUBLIC	?OnMoving@CPythonPlayerEventHandler@@UAEXABUSState@IEventHandler@CActorInstance@@@Z ; CPythonPlayerEventHandler::OnMoving
PUBLIC	?OnWaiting@CPythonPlayerEventHandler@@UAEXABUSState@IEventHandler@CActorInstance@@@Z ; CPythonPlayerEventHandler::OnWaiting
PUBLIC	?OnSyncing@CPythonPlayerEventHandler@@UAEXABUSState@IEventHandler@CActorInstance@@@Z ; CPythonPlayerEventHandler::OnSyncing
PUBLIC	?OnResetAffect@CPythonPlayerEventHandler@@UAEXI@Z ; CPythonPlayerEventHandler::OnResetAffect
PUBLIC	?OnSetAffect@CPythonPlayerEventHandler@@UAEXI@Z	; CPythonPlayerEventHandler::OnSetAffect
PUBLIC	?OnClearAffects@CPythonPlayerEventHandler@@UAEXXZ ; CPythonPlayerEventHandler::OnClearAffects
PUBLIC	??_GCPythonPlayerEventHandler@@UAEPAXI@Z	; CPythonPlayerEventHandler::`scalar deleting destructor'
PUBLIC	??1CPythonPlayerEventHandler@@UAE@XZ		; CPythonPlayerEventHandler::~CPythonPlayerEventHandler
PUBLIC	??_GCNormalBowAttack_FlyEventHandler_AutoClear@CPythonPlayerEventHandler@@UAEPAXI@Z ; CPythonPlayerEventHandler::CNormalBowAttack_FlyEventHandler_AutoClear::`scalar deleting destructor'
PUBLIC	?OnExplodingAtBackground@CNormalBowAttack_FlyEventHandler_AutoClear@CPythonPlayerEventHandler@@UAEXXZ ; CPythonPlayerEventHandler::CNormalBowAttack_FlyEventHandler_AutoClear::OnExplodingAtBackground
PUBLIC	?OnExplodingOutOfRange@CNormalBowAttack_FlyEventHandler_AutoClear@CPythonPlayerEventHandler@@UAEXXZ ; CPythonPlayerEventHandler::CNormalBowAttack_FlyEventHandler_AutoClear::OnExplodingOutOfRange
PUBLIC	?OnNoTarget@CNormalBowAttack_FlyEventHandler_AutoClear@CPythonPlayerEventHandler@@UAEXXZ ; CPythonPlayerEventHandler::CNormalBowAttack_FlyEventHandler_AutoClear::OnNoTarget
PUBLIC	??1CNormalBowAttack_FlyEventHandler_AutoClear@CPythonPlayerEventHandler@@UAE@XZ ; CPythonPlayerEventHandler::CNormalBowAttack_FlyEventHandler_AutoClear::~CNormalBowAttack_FlyEventHandler_AutoClear
PUBLIC	??0CNormalBowAttack_FlyEventHandler_AutoClear@CPythonPlayerEventHandler@@QAE@XZ ; CPythonPlayerEventHandler::CNormalBowAttack_FlyEventHandler_AutoClear::CNormalBowAttack_FlyEventHandler_AutoClear
PUBLIC	??_GIFlyEventHandler@@UAEPAXI@Z			; IFlyEventHandler::`scalar deleting destructor'
PUBLIC	?OnExplodingAtTarget@IFlyEventHandler@@UAEXK@Z	; IFlyEventHandler::OnExplodingAtTarget
PUBLIC	?OnExplodingAtAnotherTarget@IFlyEventHandler@@UAEXKK@Z ; IFlyEventHandler::OnExplodingAtAnotherTarget
PUBLIC	?OnExplodingAtBackground@IFlyEventHandler@@UAEXXZ ; IFlyEventHandler::OnExplodingAtBackground
PUBLIC	?OnExplodingOutOfRange@IFlyEventHandler@@UAEXXZ	; IFlyEventHandler::OnExplodingOutOfRange
PUBLIC	?OnNoArrow@IFlyEventHandler@@UAEXXZ		; IFlyEventHandler::OnNoArrow
PUBLIC	?OnNoTarget@IFlyEventHandler@@UAEXXZ		; IFlyEventHandler::OnNoTarget
PUBLIC	?OnShoot@IFlyEventHandler@@UAEXK@Z		; IFlyEventHandler::OnShoot
PUBLIC	?OnSetFlyTarget@IFlyEventHandler@@UAEXXZ	; IFlyEventHandler::OnSetFlyTarget
PUBLIC	??1IFlyEventHandler@@UAE@XZ			; IFlyEventHandler::~IFlyEventHandler
PUBLIC	??0IFlyEventHandler@@QAE@XZ			; IFlyEventHandler::IFlyEventHandler
PUBLIC	??_GIEventHandler@CActorInstance@@UAEPAXI@Z	; CActorInstance::IEventHandler::`scalar deleting destructor'
PUBLIC	??1IEventHandler@CActorInstance@@UAE@XZ		; CActorInstance::IEventHandler::~IEventHandler
PUBLIC	??0IEventHandler@CActorInstance@@QAE@XZ		; CActorInstance::IEventHandler::IEventHandler
PUBLIC	?GetSingleton@CPythonPlayerEventHandler@@SAAAV1@XZ ; CPythonPlayerEventHandler::GetSingleton
PUBLIC	?FlushVictimList@CPythonPlayerEventHandler@@QAEXXZ ; CPythonPlayerEventHandler::FlushVictimList
EXTRN	??_EIFlyEventHandler@@UAEPAXI@Z:PROC		; IFlyEventHandler::`vector deleting destructor'
EXTRN	??_EIEventHandler@CActorInstance@@UAEPAXI@Z:PROC ; CActorInstance::IEventHandler::`vector deleting destructor'
EXTRN	??_ECPythonPlayerEventHandler@@UAEPAXI@Z:PROC	; CPythonPlayerEventHandler::`vector deleting destructor'
EXTRN	??_ECNormalBowAttack_FlyEventHandler_AutoClear@CPythonPlayerEventHandler@@UAEPAXI@Z:PROC ; CPythonPlayerEventHandler::CNormalBowAttack_FlyEventHandler_AutoClear::`vector deleting destructor'
;	COMDAT ?$TSS0@?1??GetSingleton@CPythonPlayerEventHandler@@SAAAV2@XZ@4HA
_BSS	SEGMENT
?$TSS0@?1??GetSingleton@CPythonPlayerEventHandler@@SAAAV2@XZ@4HA DD 01H DUP (?) ; `CPythonPlayerEventHandler::GetSingleton'::`2'::$TSS0
_BSS	ENDS
;	COMDAT ?s_kPlayerEventHandler@?1??GetSingleton@CPythonPlayerEventHandler@@SAAAV2@XZ@4V2@A
_BSS	SEGMENT
?s_kPlayerEventHandler@?1??GetSingleton@CPythonPlayerEventHandler@@SAAAV2@XZ@4V2@A DB 038H DUP (?) ; `CPythonPlayerEventHandler::GetSingleton'::`2'::s_kPlayerEventHandler
_BSS	ENDS
; Function compile flags: /Ogtp
; File D:\_m2work\txoko-m2-work\txoko-client-src\source\UserInterface\PythonPlayerEventHandler.cpp
; File C:\Program Files\Microsoft Visual Studio\2022\Community\VC\Tools\MSVC\14.44.35207\include\vector
; File D:\_m2work\txoko-m2-work\txoko-client-src\source\UserInterface\PythonPlayerEventHandler.cpp
; File C:\Program Files\Microsoft Visual Studio\2022\Community\VC\Tools\MSVC\14.44.35207\include\vector
; File D:\_m2work\txoko-m2-work\txoko-client-src\source\UserInterface\PythonPlayerEventHandler.cpp
; File C:\Program Files\Microsoft Visual Studio\2022\Community\VC\Tools\MSVC\14.44.35207\include\vector
; File D:\_m2work\txoko-m2-work\txoko-client-src\source\UserInterface\PythonPlayerEventHandler.cpp
; File C:\Program Files\Microsoft Visual Studio\2022\Community\VC\Tools\MSVC\14.44.35207\include\vector
; File D:\_m2work\txoko-m2-work\txoko-client-src\source\UserInterface\PythonPlayerEventHandler.cpp
; File C:\Program Files\Microsoft Visual Studio\2022\Community\VC\Tools\MSVC\14.44.35207\include\vector
; File D:\_m2work\txoko-m2-work\txoko-client-src\source\UserInterface\PythonPlayerEventHandler.cpp
;	COMDAT ?FlushVictimList@CPythonPlayerEventHandler@@QAEXXZ
_TEXT	SEGMENT
_rkStream$1$ = -8					; size = 4
_kPacketSyncPos$ = -4					; size = 3
?FlushVictimList@CPythonPlayerEventHandler@@QAEXXZ PROC	; CPythonPlayerEventHandler::FlushVictimList, COMDAT
; _this$ = ecx

; 195  : {

  00000	55		 push	 ebp
  00001	8b ec		 mov	 ebp, esp
  00003	83 ec 08	 sub	 esp, 8
  00006	57		 push	 edi
  00007	8b f9		 mov	 edi, ecx
; File C:\Program Files\Microsoft Visual Studio\2022\Community\VC\Tools\MSVC\14.44.35207\include\vector

; 1910 :         return _My_data._Myfirst == _My_data._Mylast;

  00009	8b 4f 04	 mov	 ecx, DWORD PTR [edi+4]
  0000c	8b 47 08	 mov	 eax, DWORD PTR [edi+8]
  0000f	3b c8		 cmp	 ecx, eax
; File D:\_m2work\txoko-m2-work\txoko-client-src\source\UserInterface\PythonPlayerEventHandler.cpp

; 196  : 	if (m_kVctkVictim.empty())

  00011	74 70		 je	 SHORT $LN16@FlushVicti
; File C:\Program Files\Microsoft Visual Studio\2022\Community\VC\Tools\MSVC\14.44.35207\include\vector

; 1915 :         return static_cast<size_type>(_My_data._Mylast - _My_data._Myfirst);

  00013	2b c1		 sub	 eax, ecx
; File D:\_m2work\txoko-m2-work\txoko-client-src\source\UserInterface\PythonPlayerEventHandler.cpp

; 206  : 	kPacketSyncPos.bHeader=HEADER_CG_SYNC_POSITION;

  00015	c6 45 fc 08	 mov	 BYTE PTR _kPacketSyncPos$[ebp], 8
  00019	8b 0d 00 00 00
	00		 mov	 ecx, DWORD PTR ?ms_singleton@?$CSingleton@VCPythonNetworkStream@@@@0PAVCPythonNetworkStream@@A ; CSingleton<CPythonNetworkStream>::ms_singleton
; File C:\Program Files\Microsoft Visual Studio\2022\Community\VC\Tools\MSVC\14.44.35207\include\vector

; 1915 :         return static_cast<size_type>(_My_data._Mylast - _My_data._Myfirst);

  0001f	c1 f8 02	 sar	 eax, 2
  00022	53		 push	 ebx
  00023	69 d8 ab aa aa
	aa		 imul	 ebx, eax, -1431655765
; File D:\_m2work\txoko-m2-work\txoko-client-src\source\UserInterface\PythonPlayerEventHandler.cpp

; 203  : 	CPythonNetworkStream& rkStream=CPythonNetworkStream::Instance();

  00029	89 4d f8	 mov	 DWORD PTR _rkStream$1$[ebp], ecx

; 207  : 	kPacketSyncPos.wSize=sizeof(kPacketSyncPos)+sizeof(TPacketCGSyncPositionElement) * uiVictimCount;

  0002c	8d 04 5b	 lea	 eax, DWORD PTR [ebx+ebx*2]
  0002f	8d 04 85 03 00
	00 00		 lea	 eax, DWORD PTR [eax*4+3]
  00036	66 89 45 fd	 mov	 WORD PTR _kPacketSyncPos$[ebp+1], ax

; 208  : 
; 209  : 	rkStream.Send(sizeof(kPacketSyncPos), &kPacketSyncPos);

  0003a	8d 45 fc	 lea	 eax, DWORD PTR _kPacketSyncPos$[ebp]
  0003d	50		 push	 eax
  0003e	6a 03		 push	 3
  00040	e8 00 00 00 00	 call	 ?Send@CNetworkStream@@QAE_NHPBX@Z ; CNetworkStream::Send

; 210  : 
; 211  : 	for (unsigned int i = 0; i < uiVictimCount; ++i)

  00045	85 db		 test	 ebx, ebx
  00047	74 26		 je	 SHORT $LN3@FlushVicti
  00049	56		 push	 esi
; File C:\Program Files\Microsoft Visual Studio\2022\Community\VC\Tools\MSVC\14.44.35207\include\vector

; 1915 :         return static_cast<size_type>(_My_data._Mylast - _My_data._Myfirst);

  0004a	33 f6		 xor	 esi, esi
  0004c	0f 1f 40 00	 npad	 4
$LL4@FlushVicti:

; 1934 :         return _My_data._Myfirst[_Pos];

  00050	8b 47 04	 mov	 eax, DWORD PTR [edi+4]
; File D:\_m2work\txoko-m2-work\txoko-client-src\source\UserInterface\PythonPlayerEventHandler.cpp

; 214  : 		rkStream.SendSyncPositionElementPacket(rkVictim.m_dwVID, rkVictim.m_lPixelX, rkVictim.m_lPixelY);		

  00053	8b 4d f8	 mov	 ecx, DWORD PTR _rkStream$1$[ebp]
  00056	ff 74 30 08	 push	 DWORD PTR [eax+esi+8]
  0005a	ff 74 30 04	 push	 DWORD PTR [eax+esi+4]
  0005e	ff 34 30	 push	 DWORD PTR [eax+esi]
  00061	e8 00 00 00 00	 call	 ?SendSyncPositionElementPacket@CPythonNetworkStream@@QAE_NKKK@Z ; CPythonNetworkStream::SendSyncPositionElementPacket
  00066	8d 76 0c	 lea	 esi, DWORD PTR [esi+12]
  00069	83 eb 01	 sub	 ebx, 1
  0006c	75 e2		 jne	 SHORT $LL4@FlushVicti

; 210  : 
; 211  : 	for (unsigned int i = 0; i < uiVictimCount; ++i)

  0006e	5e		 pop	 esi
$LN3@FlushVicti:

; 215  : 	}
; 216  : 
; 217  : 	rkStream.SendSequence();

  0006f	8b 4d f8	 mov	 ecx, DWORD PTR _rkStream$1$[ebp]
  00072	e8 00 00 00 00	 call	 ?SendSequence@CNetworkStream@@QAE_NXZ ; CNetworkStream::SendSequence
; File C:\Program Files\Microsoft Visual Studio\2022\Community\VC\Tools\MSVC\14.44.35207\include\vector

; 1812 :         if (_Myfirst == _Mylast) { // already empty, nothing to do

  00077	8b 47 04	 mov	 eax, DWORD PTR [edi+4]
  0007a	5b		 pop	 ebx
  0007b	3b 47 08	 cmp	 eax, DWORD PTR [edi+8]
  0007e	74 03		 je	 SHORT $LN16@FlushVicti

; 1813 :             // This is an optimization for debug mode: we can avoid taking the debug lock to invalidate iterators.
; 1814 :             // Note that when clearing an empty vector, this will preserve past-the-end iterators, which is allowed by
; 1815 :             // N4950 [sequence.reqmts]/54 "a.clear() [...] may invalidate the past-the-end iterator".
; 1816 :             return;
; 1817 :         }
; 1818 : 
; 1819 :         _My_data._Orphan_all();
; 1820 :         _Destroy_range(_Myfirst, _Mylast, _Getal());
; 1821 :         _ASAN_VECTOR_MODIFY(static_cast<difference_type>(_Myfirst - _Mylast)); // negative when destroying elements
; 1822 :         _Mylast = _Myfirst;

  00080	89 47 08	 mov	 DWORD PTR [edi+8], eax
$LN16@FlushVicti:
  00083	5f		 pop	 edi
; File D:\_m2work\txoko-m2-work\txoko-client-src\source\UserInterface\PythonPlayerEventHandler.cpp

; 219  : }

  00084	8b e5		 mov	 esp, ebp
  00086	5d		 pop	 ebp
  00087	c3		 ret	 0
?FlushVictimList@CPythonPlayerEventHandler@@QAEXXZ ENDP	; CPythonPlayerEventHandler::FlushVictimList
_TEXT	ENDS
; Function compile flags: /Ogtp
; File D:\_m2work\txoko-m2-work\txoko-client-src\source\UserInterface\PythonPlayerEventHandler.cpp
;	COMDAT ?GetSingleton@CPythonPlayerEventHandler@@SAAAV1@XZ
_TEXT	SEGMENT
?GetSingleton@CPythonPlayerEventHandler@@SAAAV1@XZ PROC	; CPythonPlayerEventHandler::GetSingleton, COMDAT

; 9    : 	static CPythonPlayerEventHandler s_kPlayerEventHandler;

  00000	64 a1 00 00 00
	00		 mov	 eax, DWORD PTR fs:__tls_array
  00006	8b 08		 mov	 ecx, DWORD PTR [eax]
  00008	a1 00 00 00 00	 mov	 eax, DWORD PTR ?$TSS0@?1??GetSingleton@CPythonPlayerEventHandler@@SAAAV2@XZ@4HA
  0000d	3b 81 00 00 00
	00		 cmp	 eax, DWORD PTR __Init_thread_epoch[ecx]
  00013	7f 06		 jg	 SHORT $LN7@GetSinglet
$LN4@GetSinglet:

; 10   : 	return s_kPlayerEventHandler;
; 11   : }

  00015	b8 00 00 00 00	 mov	 eax, OFFSET ?s_kPlayerEventHandler@?1??GetSingleton@CPythonPlayerEventHandler@@SAAAV2@XZ@4V2@A
  0001a	c3		 ret	 0
$LN7@GetSinglet:

; 9    : 	static CPythonPlayerEventHandler s_kPlayerEventHandler;

  0001b	68 00 00 00 00	 push	 OFFSET ?$TSS0@?1??GetSingleton@CPythonPlayerEventHandler@@SAAAV2@XZ@4HA
  00020	e8 00 00 00 00	 call	 __Init_thread_header
  00025	83 c4 04	 add	 esp, 4
  00028	83 3d 00 00 00
	00 ff		 cmp	 DWORD PTR ?$TSS0@?1??GetSingleton@CPythonPlayerEventHandler@@SAAAV2@XZ@4HA, -1
  0002f	75 e4		 jne	 SHORT $LN4@GetSinglet
  00031	e8 00 00 00 00	 call	 ??0CPythonPlayerEventHandler@@IAE@XZ ; CPythonPlayerEventHandler::CPythonPlayerEventHandler
  00036	68 00 00 00 00	 push	 OFFSET ??__Fs_kPlayerEventHandler@?1??GetSingleton@CPythonPlayerEventHandler@@SAAAV1@XZ@YAXXZ ; `CPythonPlayerEventHandler::GetSingleton'::`2'::`dynamic atexit destructor for 's_kPlayerEventHandler''
  0003b	e8 00 00 00 00	 call	 _atexit
  00040	68 00 00 00 00	 push	 OFFSET ?$TSS0@?1??GetSingleton@CPythonPlayerEventHandler@@SAAAV2@XZ@4HA
  00045	e8 00 00 00 00	 call	 __Init_thread_footer
  0004a	83 c4 08	 add	 esp, 8
  0004d	eb c6		 jmp	 SHORT $LN4@GetSinglet
?GetSingleton@CPythonPlayerEventHandler@@SAAAV1@XZ ENDP	; CPythonPlayerEventHandler::GetSingleton
_TEXT	ENDS
; Function compile flags: /Ogtp
; File D:\_m2work\txoko-m2-work\txoko-client-src\source\gamelib\ActorInstance.h
;	COMDAT ??0IEventHandler@CActorInstance@@QAE@XZ
_TEXT	SEGMENT
??0IEventHandler@CActorInstance@@QAE@XZ PROC		; CActorInstance::IEventHandler::IEventHandler, COMDAT
; _this$dead$ = ecx

; 46   : 				IEventHandler() {}

  00000	c7 05 00 00 00
	00 00 00 00 00	 mov	 DWORD PTR ?s_kPlayerEventHandler@?1??GetSingleton@CPythonPlayerEventHandler@@SAAAV2@XZ@4V2@A, OFFSET ??_7IEventHandler@CActorInstance@@6B@
  0000a	b8 00 00 00 00	 mov	 eax, OFFSET ?s_kPlayerEventHandler@?1??GetSingleton@CPythonPlayerEventHandler@@SAAAV2@XZ@4V2@A
  0000f	c3		 ret	 0
??0IEventHandler@CActorInstance@@QAE@XZ ENDP		; CActorInstance::IEventHandler::IEventHandler
_TEXT	ENDS
; Function compile flags: /Ogtp
; File D:\_m2work\txoko-m2-work\txoko-client-src\source\gamelib\ActorInstance.h
;	COMDAT ??1IEventHandler@CActorInstance@@UAE@XZ
_TEXT	SEGMENT
??1IEventHandler@CActorInstance@@UAE@XZ PROC		; CActorInstance::IEventHandler::~IEventHandler, COMDAT
; _this$ = ecx

; 47   : 				virtual ~IEventHandler() {}

  00000	c7 01 00 00 00
	00		 mov	 DWORD PTR [ecx], OFFSET ??_7IEventHandler@CActorInstance@@6B@
  00006	c3		 ret	 0
??1IEventHandler@CActorInstance@@UAE@XZ ENDP		; CActorInstance::IEventHandler::~IEventHandler
_TEXT	ENDS
; Function compile flags: /Ogtp
;	COMDAT ??_GIEventHandler@CActorInstance@@UAEPAXI@Z
_TEXT	SEGMENT
___flags$ = 8						; size = 4
??_GIEventHandler@CActorInstance@@UAEPAXI@Z PROC	; CActorInstance::IEventHandler::`scalar deleting destructor', COMDAT
; _this$ = ecx
  00000	55		 push	 ebp
  00001	8b ec		 mov	 ebp, esp
  00003	f6 45 08 01	 test	 BYTE PTR ___flags$[ebp], 1
  00007	56		 push	 esi
  00008	8b f1		 mov	 esi, ecx
  0000a	c7 06 00 00 00
	00		 mov	 DWORD PTR [esi], OFFSET ??_7IEventHandler@CActorInstance@@6B@
  00010	74 0b		 je	 SHORT $LN5@scalar
  00012	6a 04		 push	 4
  00014	56		 push	 esi
  00015	e8 00 00 00 00	 call	 ??3@YAXPAXI@Z		; operator delete
  0001a	83 c4 08	 add	 esp, 8
$LN5@scalar:
  0001d	8b c6		 mov	 eax, esi
  0001f	5e		 pop	 esi
  00020	5d		 pop	 ebp
  00021	c2 04 00	 ret	 4
??_GIEventHandler@CActorInstance@@UAEPAXI@Z ENDP	; CActorInstance::IEventHandler::`scalar deleting destructor'
_TEXT	ENDS
; Function compile flags: /Ogtp
; File D:\_m2work\txoko-m2-work\txoko-client-src\source\gamelib\FlyHandler.h
;	COMDAT ??0IFlyEventHandler@@QAE@XZ
_TEXT	SEGMENT
??0IFlyEventHandler@@QAE@XZ PROC			; IFlyEventHandler::IFlyEventHandler, COMDAT
; _this$ = ecx

; 6    : 	IFlyEventHandler() {}

  00000	c7 01 00 00 00
	00		 mov	 DWORD PTR [ecx], OFFSET ??_7IFlyEventHandler@@6B@
  00006	8b c1		 mov	 eax, ecx
  00008	c3		 ret	 0
??0IFlyEventHandler@@QAE@XZ ENDP			; IFlyEventHandler::IFlyEventHandler
_TEXT	ENDS
; Function compile flags: /Ogtp
; File D:\_m2work\txoko-m2-work\txoko-client-src\source\gamelib\FlyHandler.h
;	COMDAT ??1IFlyEventHandler@@UAE@XZ
_TEXT	SEGMENT
??1IFlyEventHandler@@UAE@XZ PROC			; IFlyEventHandler::~IFlyEventHandler, COMDAT
; _this$ = ecx

; 7    : 	virtual ~IFlyEventHandler() {}

  00000	c7 01 00 00 00
	00		 mov	 DWORD PTR [ecx], OFFSET ??_7IFlyEventHandler@@6B@
  00006	c3		 ret	 0
??1IFlyEventHandler@@UAE@XZ ENDP			; IFlyEventHandler::~IFlyEventHandler
_TEXT	ENDS
; Function compile flags: /Ogtp
; File D:\_m2work\txoko-m2-work\txoko-client-src\source\gamelib\FlyHandler.h
;	COMDAT ?OnSetFlyTarget@IFlyEventHandler@@UAEXXZ
_TEXT	SEGMENT
?OnSetFlyTarget@IFlyEventHandler@@UAEXXZ PROC		; IFlyEventHandler::OnSetFlyTarget, COMDAT
; _this$ = ecx

; 10   : 	virtual void OnSetFlyTarget() {}

  00000	c2 00 00	 ret	 0
?OnSetFlyTarget@IFlyEventHandler@@UAEXXZ ENDP		; IFlyEventHandler::OnSetFlyTarget
_TEXT	ENDS
; Function compile flags: /Ogtp
; File D:\_m2work\txoko-m2-work\txoko-client-src\source\gamelib\FlyHandler.h
;	COMDAT ?OnShoot@IFlyEventHandler@@UAEXK@Z
_TEXT	SEGMENT
_dwSkillIndex$ = 8					; size = 4
?OnShoot@IFlyEventHandler@@UAEXK@Z PROC			; IFlyEventHandler::OnShoot, COMDAT
; _this$ = ecx

; 11   : 	virtual void OnShoot(DWORD dwSkillIndex) {}

  00000	c2 04 00	 ret	 4
?OnShoot@IFlyEventHandler@@UAEXK@Z ENDP			; IFlyEventHandler::OnShoot
_TEXT	ENDS
; Function compile flags: /Ogtp
; File D:\_m2work\txoko-m2-work\txoko-client-src\source\gamelib\FlyHandler.h
;	COMDAT ?OnNoTarget@IFlyEventHandler@@UAEXXZ
_TEXT	SEGMENT
?OnNoTarget@IFlyEventHandler@@UAEXXZ PROC		; IFlyEventHandler::OnNoTarget, COMDAT
; _this$ = ecx

; 13   : 	virtual void OnNoTarget() {}

  00000	c2 00 00	 ret	 0
?OnNoTarget@IFlyEventHandler@@UAEXXZ ENDP		; IFlyEventHandler::OnNoTarget
_TEXT	ENDS
; Function compile flags: /Ogtp
; File D:\_m2work\txoko-m2-work\txoko-client-src\source\gamelib\FlyHandler.h
;	COMDAT ?OnNoArrow@IFlyEventHandler@@UAEXXZ
_TEXT	SEGMENT
?OnNoArrow@IFlyEventHandler@@UAEXXZ PROC		; IFlyEventHandler::OnNoArrow, COMDAT
; _this$ = ecx

; 14   : 	virtual void OnNoArrow() {}

  00000	c2 00 00	 ret	 0
?OnNoArrow@IFlyEventHandler@@UAEXXZ ENDP		; IFlyEventHandler::OnNoArrow
_TEXT	ENDS
; Function compile flags: /Ogtp
; File D:\_m2work\txoko-m2-work\txoko-client-src\source\gamelib\FlyHandler.h
;	COMDAT ?OnExplodingOutOfRange@IFlyEventHandler@@UAEXXZ
_TEXT	SEGMENT
?OnExplodingOutOfRange@IFlyEventHandler@@UAEXXZ PROC	; IFlyEventHandler::OnExplodingOutOfRange, COMDAT
; _this$ = ecx

; 17   : 	virtual void OnExplodingOutOfRange() {}

  00000	c2 00 00	 ret	 0
?OnExplodingOutOfRange@IFlyEventHandler@@UAEXXZ ENDP	; IFlyEventHandler::OnExplodingOutOfRange
_TEXT	ENDS
; Function compile flags: /Ogtp
; File D:\_m2work\txoko-m2-work\txoko-client-src\source\gamelib\FlyHandler.h
;	COMDAT ?OnExplodingAtBackground@IFlyEventHandler@@UAEXXZ
_TEXT	SEGMENT
?OnExplodingAtBackground@IFlyEventHandler@@UAEXXZ PROC	; IFlyEventHandler::OnExplodingAtBackground, COMDAT
; _this$ = ecx

; 18   : 	virtual void OnExplodingAtBackground() {}

  00000	c2 00 00	 ret	 0
?OnExplodingAtBackground@IFlyEventHandler@@UAEXXZ ENDP	; IFlyEventHandler::OnExplodingAtBackground
_TEXT	ENDS
; Function compile flags: /Ogtp
; File D:\_m2work\txoko-m2-work\txoko-client-src\source\gamelib\FlyHandler.h
;	COMDAT ?OnExplodingAtAnotherTarget@IFlyEventHandler@@UAEXKK@Z
_TEXT	SEGMENT
_dwSkillIndex$ = 8					; size = 4
_dwVID$ = 12						; size = 4
?OnExplodingAtAnotherTarget@IFlyEventHandler@@UAEXKK@Z PROC ; IFlyEventHandler::OnExplodingAtAnotherTarget, COMDAT
; _this$ = ecx

; 19   : 	virtual void OnExplodingAtAnotherTarget(DWORD dwSkillIndex, DWORD dwVID) {}

  00000	c2 08 00	 ret	 8
?OnExplodingAtAnotherTarget@IFlyEventHandler@@UAEXKK@Z ENDP ; IFlyEventHandler::OnExplodingAtAnotherTarget
_TEXT	ENDS
; Function compile flags: /Ogtp
; File D:\_m2work\txoko-m2-work\txoko-client-src\source\gamelib\FlyHandler.h
;	COMDAT ?OnExplodingAtTarget@IFlyEventHandler@@UAEXK@Z
_TEXT	SEGMENT
_dwSkillIndex$ = 8					; size = 4
?OnExplodingAtTarget@IFlyEventHandler@@UAEXK@Z PROC	; IFlyEventHandler::OnExplodingAtTarget, COMDAT
; _this$ = ecx

; 20   : 	virtual void OnExplodingAtTarget(DWORD dwSkillIndex) {}

  00000	c2 04 00	 ret	 4
?OnExplodingAtTarget@IFlyEventHandler@@UAEXK@Z ENDP	; IFlyEventHandler::OnExplodingAtTarget
_TEXT	ENDS
; Function compile flags: /Ogtp
;	COMDAT ??_GIFlyEventHandler@@UAEPAXI@Z
_TEXT	SEGMENT
___flags$ = 8						; size = 4
??_GIFlyEventHandler@@UAEPAXI@Z PROC			; IFlyEventHandler::`scalar deleting destructor', COMDAT
; _this$ = ecx
  00000	55		 push	 ebp
  00001	8b ec		 mov	 ebp, esp
  00003	f6 45 08 01	 test	 BYTE PTR ___flags$[ebp], 1
  00007	56		 push	 esi
  00008	8b f1		 mov	 esi, ecx
  0000a	c7 06 00 00 00
	00		 mov	 DWORD PTR [esi], OFFSET ??_7IFlyEventHandler@@6B@
  00010	74 0b		 je	 SHORT $LN5@scalar
  00012	6a 04		 push	 4
  00014	56		 push	 esi
  00015	e8 00 00 00 00	 call	 ??3@YAXPAXI@Z		; operator delete
  0001a	83 c4 08	 add	 esp, 8
$LN5@scalar:
  0001d	8b c6		 mov	 eax, esi
  0001f	5e		 pop	 esi
  00020	5d		 pop	 ebp
  00021	c2 04 00	 ret	 4
??_GIFlyEventHandler@@UAEPAXI@Z ENDP			; IFlyEventHandler::`scalar deleting destructor'
_TEXT	ENDS
; Function compile flags: /Ogtp
; File D:\_m2work\txoko-m2-work\txoko-client-src\source\UserInterface\PythonPlayerEventHandler.h
;	COMDAT ??0CNormalBowAttack_FlyEventHandler_AutoClear@CPythonPlayerEventHandler@@QAE@XZ
_TEXT	SEGMENT
??0CNormalBowAttack_FlyEventHandler_AutoClear@CPythonPlayerEventHandler@@QAE@XZ PROC ; CPythonPlayerEventHandler::CNormalBowAttack_FlyEventHandler_AutoClear::CNormalBowAttack_FlyEventHandler_AutoClear, COMDAT
; _this$ = ecx

; 57   : 				CNormalBowAttack_FlyEventHandler_AutoClear() {}

  00000	c7 01 00 00 00
	00		 mov	 DWORD PTR [ecx], OFFSET ??_7CNormalBowAttack_FlyEventHandler_AutoClear@CPythonPlayerEventHandler@@6B@
  00006	8b c1		 mov	 eax, ecx
  00008	c3		 ret	 0
??0CNormalBowAttack_FlyEventHandler_AutoClear@CPythonPlayerEventHandler@@QAE@XZ ENDP ; CPythonPlayerEventHandler::CNormalBowAttack_FlyEventHandler_AutoClear::CNormalBowAttack_FlyEventHandler_AutoClear
_TEXT	ENDS
; Function compile flags: /Ogtp
; File D:\_m2work\txoko-m2-work\txoko-client-src\source\UserInterface\PythonPlayerEventHandler.h
;	COMDAT ??1CNormalBowAttack_FlyEventHandler_AutoClear@CPythonPlayerEventHandler@@UAE@XZ
_TEXT	SEGMENT
??1CNormalBowAttack_FlyEventHandler_AutoClear@CPythonPlayerEventHandler@@UAE@XZ PROC ; CPythonPlayerEventHandler::CNormalBowAttack_FlyEventHandler_AutoClear::~CNormalBowAttack_FlyEventHandler_AutoClear, COMDAT
; _this$ = ecx

; 58   : 				virtual ~CNormalBowAttack_FlyEventHandler_AutoClear() {}

  00000	c7 01 00 00 00
	00		 mov	 DWORD PTR [ecx], OFFSET ??_7IFlyEventHandler@@6B@
  00006	c3		 ret	 0
??1CNormalBowAttack_FlyEventHandler_AutoClear@CPythonPlayerEventHandler@@UAE@XZ ENDP ; CPythonPlayerEventHandler::CNormalBowAttack_FlyEventHandler_AutoClear::~CNormalBowAttack_FlyEventHandler_AutoClear
_TEXT	ENDS
; Function compile flags: /Ogtp
; File D:\_m2work\txoko-m2-work\txoko-client-src\source\UserInterface\PythonPlayerEventHandler.h
;	COMDAT ?OnNoTarget@CNormalBowAttack_FlyEventHandler_AutoClear@CPythonPlayerEventHandler@@UAEXXZ
_TEXT	SEGMENT
?OnNoTarget@CNormalBowAttack_FlyEventHandler_AutoClear@CPythonPlayerEventHandler@@UAEXXZ PROC ; CPythonPlayerEventHandler::CNormalBowAttack_FlyEventHandler_AutoClear::OnNoTarget, COMDAT
; _this$ = ecx

; 66   : 				virtual void OnNoTarget() { /*Tracenf("Shoot : target .");*/ }

  00000	c2 00 00	 ret	 0
?OnNoTarget@CNormalBowAttack_FlyEventHandler_AutoClear@CPythonPlayerEventHandler@@UAEXXZ ENDP ; CPythonPlayerEventHandler::CNormalBowAttack_FlyEventHandler_AutoClear::OnNoTarget
_TEXT	ENDS
; Function compile flags: /Ogtp
; File D:\_m2work\txoko-m2-work\txoko-client-src\source\UserInterface\PythonPlayerEventHandler.h
;	COMDAT ?OnExplodingOutOfRange@CNormalBowAttack_FlyEventHandler_AutoClear@CPythonPlayerEventHandler@@UAEXXZ
_TEXT	SEGMENT
?OnExplodingOutOfRange@CNormalBowAttack_FlyEventHandler_AutoClear@CPythonPlayerEventHandler@@UAEXXZ PROC ; CPythonPlayerEventHandler::CNormalBowAttack_FlyEventHandler_AutoClear::OnExplodingOutOfRange, COMDAT
; _this$ = ecx

; 67   : 				virtual void OnExplodingOutOfRange() { /*Tracenf("Shoot :  .");*/ }

  00000	c2 00 00	 ret	 0
?OnExplodingOutOfRange@CNormalBowAttack_FlyEventHandler_AutoClear@CPythonPlayerEventHandler@@UAEXXZ ENDP ; CPythonPlayerEventHandler::CNormalBowAttack_FlyEventHandler_AutoClear::OnExplodingOutOfRange
_TEXT	ENDS
; Function compile flags: /Ogtp
; File D:\_m2work\txoko-m2-work\txoko-client-src\source\UserInterface\PythonPlayerEventHandler.h
;	COMDAT ?OnExplodingAtBackground@CNormalBowAttack_FlyEventHandler_AutoClear@CPythonPlayerEventHandler@@UAEXXZ
_TEXT	SEGMENT
?OnExplodingAtBackground@CNormalBowAttack_FlyEventHandler_AutoClear@CPythonPlayerEventHandler@@UAEXXZ PROC ; CPythonPlayerEventHandler::CNormalBowAttack_FlyEventHandler_AutoClear::OnExplodingAtBackground, COMDAT
; _this$ = ecx

; 68   : 				virtual void OnExplodingAtBackground() { /*Tracenf("Shoot :  .");*/ }

  00000	c2 00 00	 ret	 0
?OnExplodingAtBackground@CNormalBowAttack_FlyEventHandler_AutoClear@CPythonPlayerEventHandler@@UAEXXZ ENDP ; CPythonPlayerEventHandler::CNormalBowAttack_FlyEventHandler_AutoClear::OnExplodingAtBackground
_TEXT	ENDS
; Function compile flags: /Ogtp
;	COMDAT ??_GCNormalBowAttack_FlyEventHandler_AutoClear@CPythonPlayerEventHandler@@UAEPAXI@Z
_TEXT	SEGMENT
___flags$ = 8						; size = 4
??_GCNormalBowAttack_FlyEventHandler_AutoClear@CPythonPlayerEventHandler@@UAEPAXI@Z PROC ; CPythonPlayerEventHandler::CNormalBowAttack_FlyEventHandler_AutoClear::`scalar deleting destructor', COMDAT
; _this$ = ecx
  00000	55		 push	 ebp
  00001	8b ec		 mov	 ebp, esp
  00003	f6 45 08 01	 test	 BYTE PTR ___flags$[ebp], 1
  00007	56		 push	 esi
  00008	8b f1		 mov	 esi, ecx
  0000a	c7 06 00 00 00
	00		 mov	 DWORD PTR [esi], OFFSET ??_7IFlyEventHandler@@6B@
  00010	74 0b		 je	 SHORT $LN5@scalar
  00012	6a 10		 push	 16			; 00000010H
  00014	56		 push	 esi
  00015	e8 00 00 00 00	 call	 ??3@YAXPAXI@Z		; operator delete
  0001a	83 c4 08	 add	 esp, 8
$LN5@scalar:
  0001d	8b c6		 mov	 eax, esi
  0001f	5e		 pop	 esi
  00020	5d		 pop	 ebp
  00021	c2 04 00	 ret	 4
??_GCNormalBowAttack_FlyEventHandler_AutoClear@CPythonPlayerEventHandler@@UAEPAXI@Z ENDP ; CPythonPlayerEventHandler::CNormalBowAttack_FlyEventHandler_AutoClear::`scalar deleting destructor'
_TEXT	ENDS
; Function compile flags: /Ogtp
;	COMDAT ??__Fs_kPlayerEventHandler@?1??GetSingleton@CPythonPlayerEventHandler@@SAAAV1@XZ@YAXXZ
text$yd	SEGMENT
??__Fs_kPlayerEventHandler@?1??GetSingleton@CPythonPlayerEventHandler@@SAAAV1@XZ@YAXXZ PROC ; `CPythonPlayerEventHandler::GetSingleton'::`2'::`dynamic atexit destructor for 's_kPlayerEventHandler'', COMDAT
  00000	b9 00 00 00 00	 mov	 ecx, OFFSET ?s_kPlayerEventHandler@?1??GetSingleton@CPythonPlayerEventHandler@@SAAAV2@XZ@4V2@A
  00005	e9 00 00 00 00	 jmp	 ??1CPythonPlayerEventHandler@@UAE@XZ ; CPythonPlayerEventHandler::~CPythonPlayerEventHandler
??__Fs_kPlayerEventHandler@?1??GetSingleton@CPythonPlayerEventHandler@@SAAAV1@XZ@YAXXZ ENDP ; `CPythonPlayerEventHandler::GetSingleton'::`2'::`dynamic atexit destructor for 's_kPlayerEventHandler''
text$yd	ENDS
; Function compile flags: /Ogtp
; File D:\_m2work\txoko-m2-work\txoko-client-src\source\UserInterface\PythonPlayerEventHandler.cpp
; File D:\_m2work\txoko-m2-work\txoko-client-src\source\gamelib\ActorInstance.h
; File D:\_m2work\txoko-m2-work\txoko-client-src\source\UserInterface\PythonPlayerEventHandler.cpp
;	COMDAT ??1CPythonPlayerEventHandler@@UAE@XZ
_TEXT	SEGMENT
??1CPythonPlayerEventHandler@@UAE@XZ PROC		; CPythonPlayerEventHandler::~CPythonPlayerEventHandler, COMDAT
; _this$ = ecx

; 14   : {

  00000	56		 push	 esi
  00001	8b f1		 mov	 esi, ecx

; 15   : }

  00003	8d 4e 04	 lea	 ecx, DWORD PTR [esi+4]
  00006	c7 06 00 00 00
	00		 mov	 DWORD PTR [esi], OFFSET ??_7CPythonPlayerEventHandler@@6B@
  0000c	c7 46 28 00 00
	00 00		 mov	 DWORD PTR [esi+40], OFFSET ??_7IFlyEventHandler@@6B@
  00013	e8 00 00 00 00	 call	 ??1?$vector@USVictim@CPythonPlayerEventHandler@@V?$allocator@USVictim@CPythonPlayerEventHandler@@@std@@@std@@QAE@XZ ; std::vector<CPythonPlayerEventHandler::SVictim,std::allocator<CPythonPlayerEventHandler::SVictim> >::~vector<CPythonPlayerEventHandler::SVictim,std::allocator<CPythonPlayerEventHandler::SVictim> >
; File D:\_m2work\txoko-m2-work\txoko-client-src\source\gamelib\ActorInstance.h

; 47   : 				virtual ~IEventHandler() {}

  00018	c7 06 00 00 00
	00		 mov	 DWORD PTR [esi], OFFSET ??_7IEventHandler@CActorInstance@@6B@
  0001e	5e		 pop	 esi
; File D:\_m2work\txoko-m2-work\txoko-client-src\source\UserInterface\PythonPlayerEventHandler.cpp

; 15   : }

  0001f	c3		 ret	 0
??1CPythonPlayerEventHandler@@UAE@XZ ENDP		; CPythonPlayerEventHandler::~CPythonPlayerEventHandler
_TEXT	ENDS
; Function compile flags: /Ogtp
;	COMDAT ??_GCPythonPlayerEventHandler@@UAEPAXI@Z
_TEXT	SEGMENT
___flags$ = 8						; size = 4
??_GCPythonPlayerEventHandler@@UAEPAXI@Z PROC		; CPythonPlayerEventHandler::`scalar deleting destructor', COMDAT
; _this$ = ecx
  00000	55		 push	 ebp
  00001	8b ec		 mov	 ebp, esp
  00003	56		 push	 esi
  00004	8b f1		 mov	 esi, ecx
  00006	e8 00 00 00 00	 call	 ??1CPythonPlayerEventHandler@@UAE@XZ ; CPythonPlayerEventHandler::~CPythonPlayerEventHandler
  0000b	f6 45 08 01	 test	 BYTE PTR ___flags$[ebp], 1
  0000f	74 0b		 je	 SHORT $LN5@scalar
  00011	6a 38		 push	 56			; 00000038H
  00013	56		 push	 esi
  00014	e8 00 00 00 00	 call	 ??3@YAXPAXI@Z		; operator delete
  00019	83 c4 08	 add	 esp, 8
$LN5@scalar:
  0001c	8b c6		 mov	 eax, esi
  0001e	5e		 pop	 esi
  0001f	5d		 pop	 ebp
  00020	c2 04 00	 ret	 4
??_GCPythonPlayerEventHandler@@UAEPAXI@Z ENDP		; CPythonPlayerEventHandler::`scalar deleting destructor'
_TEXT	ENDS
; Function compile flags: /Ogtp
; File D:\_m2work\txoko-m2-work\txoko-client-src\source\UserInterface\PythonPlayerEventHandler.cpp
;	COMDAT ?OnClearAffects@CPythonPlayerEventHandler@@UAEXXZ
_TEXT	SEGMENT
?OnClearAffects@CPythonPlayerEventHandler@@UAEXXZ PROC	; CPythonPlayerEventHandler::OnClearAffects, COMDAT
; _this$ = ecx

; 19   : 	CPythonPlayer::Instance().ClearAffects();

  00000	8b 0d 00 00 00
	00		 mov	 ecx, DWORD PTR ?ms_singleton@?$CSingleton@VCPythonPlayer@@@@0PAVCPythonPlayer@@A ; CSingleton<CPythonPlayer>::ms_singleton
  00006	e9 00 00 00 00	 jmp	 ?ClearAffects@CPythonPlayer@@QAEXXZ ; CPythonPlayer::ClearAffects
?OnClearAffects@CPythonPlayerEventHandler@@UAEXXZ ENDP	; CPythonPlayerEventHandler::OnClearAffects
_TEXT	ENDS
; Function compile flags: /Ogtp
; File D:\_m2work\txoko-m2-work\txoko-client-src\source\UserInterface\PythonPlayerEventHandler.cpp
;	COMDAT ?OnSetAffect@CPythonPlayerEventHandler@@UAEXI@Z
_TEXT	SEGMENT
_uAffect$ = 8						; size = 4
?OnSetAffect@CPythonPlayerEventHandler@@UAEXI@Z PROC	; CPythonPlayerEventHandler::OnSetAffect, COMDAT
; _this$ = ecx

; 23   : {

  00000	55		 push	 ebp
  00001	8b ec		 mov	 ebp, esp

; 24   : 	CPythonPlayer::Instance().SetAffect(uAffect);

  00003	8b 0d 00 00 00
	00		 mov	 ecx, DWORD PTR ?ms_singleton@?$CSingleton@VCPythonPlayer@@@@0PAVCPythonPlayer@@A ; CSingleton<CPythonPlayer>::ms_singleton

; 25   : }

  00009	5d		 pop	 ebp

; 24   : 	CPythonPlayer::Instance().SetAffect(uAffect);

  0000a	e9 00 00 00 00	 jmp	 ?SetAffect@CPythonPlayer@@QAEXI@Z ; CPythonPlayer::SetAffect
?OnSetAffect@CPythonPlayerEventHandler@@UAEXI@Z ENDP	; CPythonPlayerEventHandler::OnSetAffect
_TEXT	ENDS
; Function compile flags: /Ogtp
; File D:\_m2work\txoko-m2-work\txoko-client-src\source\UserInterface\PythonPlayerEventHandler.cpp
;	COMDAT ?OnResetAffect@CPythonPlayerEventHandler@@UAEXI@Z
_TEXT	SEGMENT
_uAffect$ = 8						; size = 4
?OnResetAffect@CPythonPlayerEventHandler@@UAEXI@Z PROC	; CPythonPlayerEventHandler::OnResetAffect, COMDAT
; _this$ = ecx

; 28   : {

  00000	55		 push	 ebp
  00001	8b ec		 mov	 ebp, esp

; 29   : 	CPythonPlayer::Instance().ResetAffect(uAffect);

  00003	8b 0d 00 00 00
	00		 mov	 ecx, DWORD PTR ?ms_singleton@?$CSingleton@VCPythonPlayer@@@@0PAVCPythonPlayer@@A ; CSingleton<CPythonPlayer>::ms_singleton

; 30   : }

  00009	5d		 pop	 ebp

; 29   : 	CPythonPlayer::Instance().ResetAffect(uAffect);

  0000a	e9 00 00 00 00	 jmp	 ?ResetAffect@CPythonPlayer@@QAEXI@Z ; CPythonPlayer::ResetAffect
?OnResetAffect@CPythonPlayerEventHandler@@UAEXI@Z ENDP	; CPythonPlayerEventHandler::OnResetAffect
_TEXT	ENDS
; Function compile flags: /Ogtp
; File D:\_m2work\txoko-m2-work\txoko-client-src\source\UserInterface\PythonPlayerEventHandler.cpp
;	COMDAT ?OnSyncing@CPythonPlayerEventHandler@@UAEXABUSState@IEventHandler@CActorInstance@@@Z
_TEXT	SEGMENT
_c_rkState$ = 8						; size = 4
?OnSyncing@CPythonPlayerEventHandler@@UAEXABUSState@IEventHandler@CActorInstance@@@Z PROC ; CPythonPlayerEventHandler::OnSyncing, COMDAT
; _this$ = ecx

; 33   : {

  00000	55		 push	 ebp
  00001	8b ec		 mov	 ebp, esp

; 34   : 	const TPixelPosition& c_rkPPosCurSyncing=c_rkState.kPPosSelf;
; 35   : 	m_kPPosPrevWaiting=c_rkPPosCurSyncing;

  00003	8b 45 08	 mov	 eax, DWORD PTR _c_rkState$[ebp]
  00006	f3 0f 7e 00	 movq	 xmm0, QWORD PTR [eax]
  0000a	66 0f d6 41 1c	 movq	 QWORD PTR [ecx+28], xmm0
  0000f	8b 40 08	 mov	 eax, DWORD PTR [eax+8]
  00012	89 41 24	 mov	 DWORD PTR [ecx+36], eax

; 36   : }

  00015	5d		 pop	 ebp
  00016	c2 04 00	 ret	 4
?OnSyncing@CPythonPlayerEventHandler@@UAEXABUSState@IEventHandler@CActorInstance@@@Z ENDP ; CPythonPlayerEventHandler::OnSyncing
_TEXT	ENDS
; Function compile flags: /Ogtp
; File D:\_m2work\txoko-m2-work\txoko-client-src\source\UserInterface\PythonPlayerEventHandler.cpp
; File C:\Program Files\Microsoft Visual Studio\2022\Community\VC\Tools\MSVC\14.44.35207\include\cmath
; File D:\_m2work\txoko-m2-work\txoko-client-src\source\UserInterface\PythonPlayerEventHandler.cpp
; File C:\Program Files\Microsoft Visual Studio\2022\Community\VC\Tools\MSVC\14.44.35207\include\cmath
; File D:\_m2work\txoko-m2-work\txoko-client-src\source\UserInterface\PythonPlayerEventHandler.cpp
; File C:\Program Files\Microsoft Visual Studio\2022\Community\VC\Tools\MSVC\14.44.35207\include\cmath
; File D:\_m2work\txoko-m2-work\txoko-client-src\source\UserInterface\PythonPlayerEventHandler.cpp
;	COMDAT ?OnWaiting@CPythonPlayerEventHandler@@UAEXABUSState@IEventHandler@CActorInstance@@@Z
_TEXT	SEGMENT
_c_rkState$ = 8						; size = 4
tv210 = 8						; size = 4
?OnWaiting@CPythonPlayerEventHandler@@UAEXABUSState@IEventHandler@CActorInstance@@@Z PROC ; CPythonPlayerEventHandler::OnWaiting, COMDAT
; _this$ = ecx

; 39   : {

  00000	55		 push	 ebp
  00001	8b ec		 mov	 ebp, esp
  00003	56		 push	 esi
  00004	8b f1		 mov	 esi, ecx

; 40   : 	DWORD dwCurTime=ELTimer_GetMSec();

  00006	e8 00 00 00 00	 call	 ?ELTimer_GetMSec@@YAKXZ	; ELTimer_GetMSec

; 41   : 	if (m_dwNextWaitingNotifyTime>dwCurTime)

  0000b	39 46 14	 cmp	 DWORD PTR [esi+20], eax
  0000e	77 73		 ja	 SHORT $LN1@OnWaiting

; 42   : 		return;
; 43   : 
; 44   : 	m_dwNextWaitingNotifyTime=dwCurTime+100;
; 45   : 
; 46   : 	const TPixelPosition& c_rkPPosCurWaiting=c_rkState.kPPosSelf;
; 47   : 	float dx=m_kPPosPrevWaiting.x-c_rkPPosCurWaiting.x;

  00010	f3 0f 10 4e 1c	 movss	 xmm1, DWORD PTR [esi+28]
  00015	83 c0 64	 add	 eax, 100		; 00000064H

; 48   : 	float dy=m_kPPosPrevWaiting.y-c_rkPPosCurWaiting.y;

  00018	f3 0f 10 46 20	 movss	 xmm0, DWORD PTR [esi+32]
  0001d	57		 push	 edi
  0001e	8b 7d 08	 mov	 edi, DWORD PTR _c_rkState$[ebp]
  00021	89 46 14	 mov	 DWORD PTR [esi+20], eax
; File C:\Program Files\Microsoft Visual Studio\2022\Community\VC\Tools\MSVC\14.44.35207\include\cmath

; 265  :     return _CSTD sqrtf(_Xx);

  00024	51		 push	 ecx
; File D:\_m2work\txoko-m2-work\txoko-client-src\source\UserInterface\PythonPlayerEventHandler.cpp

; 48   : 	float dy=m_kPPosPrevWaiting.y-c_rkPPosCurWaiting.y;

  00025	f3 0f 5c 47 04	 subss	 xmm0, DWORD PTR [edi+4]
  0002a	f3 0f 5c 0f	 subss	 xmm1, DWORD PTR [edi]

; 49   : 	float len=sqrt(dx*dx+dy*dy);

  0002e	f3 0f 59 c0	 mulss	 xmm0, xmm0
  00032	f3 0f 59 c9	 mulss	 xmm1, xmm1
  00036	f3 0f 58 c1	 addss	 xmm0, xmm1
; File C:\Program Files\Microsoft Visual Studio\2022\Community\VC\Tools\MSVC\14.44.35207\include\cmath

; 265  :     return _CSTD sqrtf(_Xx);

  0003a	f3 0f 11 04 24	 movss	 DWORD PTR [esp], xmm0
  0003f	e8 00 00 00 00	 call	 _sqrtf
; File D:\_m2work\txoko-m2-work\txoko-client-src\source\UserInterface\PythonPlayerEventHandler.cpp

; 51   : 	if (len<1.0f)

  00044	f3 0f 10 05 00
	00 00 00	 movss	 xmm0, DWORD PTR __real@3f800000
; File C:\Program Files\Microsoft Visual Studio\2022\Community\VC\Tools\MSVC\14.44.35207\include\cmath

; 265  :     return _CSTD sqrtf(_Xx);

  0004c	83 c4 04	 add	 esp, 4
; File D:\_m2work\txoko-m2-work\txoko-client-src\source\UserInterface\PythonPlayerEventHandler.cpp

; 51   : 	if (len<1.0f)

  0004f	d9 5d 08	 fstp	 DWORD PTR tv210[ebp]
  00052	0f 2f 45 08	 comiss	 xmm0, DWORD PTR tv210[ebp]
  00056	77 2a		 ja	 SHORT $LN12@OnWaiting

; 52   : 		return;
; 53   : 
; 54   : 	m_kPPosPrevWaiting=c_rkPPosCurWaiting;

  00058	f3 0f 7e 07	 movq	 xmm0, QWORD PTR [edi]

; 55   : 
; 56   : 	CPythonNetworkStream& rkNetStream=CPythonNetworkStream::Instance();
; 57   : 	rkNetStream.SendCharacterStatePacket(c_rkState.kPPosSelf, c_rkState.fAdvRotSelf, CInstanceBase::FUNC_WAIT, 0);

  0005c	6a 00		 push	 0
  0005e	66 0f d6 46 1c	 movq	 QWORD PTR [esi+28], xmm0
  00063	8b 47 08	 mov	 eax, DWORD PTR [edi+8]
  00066	6a 00		 push	 0
  00068	51		 push	 ecx
  00069	8b 0d 00 00 00
	00		 mov	 ecx, DWORD PTR ?ms_singleton@?$CSingleton@VCPythonNetworkStream@@@@0PAVCPythonNetworkStream@@A ; CSingleton<CPythonNetworkStream>::ms_singleton
  0006f	89 46 24	 mov	 DWORD PTR [esi+36], eax
  00072	f3 0f 10 47 0c	 movss	 xmm0, DWORD PTR [edi+12]
  00077	f3 0f 11 04 24	 movss	 DWORD PTR [esp], xmm0
  0007c	57		 push	 edi
  0007d	e8 00 00 00 00	 call	 ?SendCharacterStatePacket@CPythonNetworkStream@@QAE_NABUD3DXVECTOR3@@MII@Z ; CPythonNetworkStream::SendCharacterStatePacket
$LN12@OnWaiting:
  00082	5f		 pop	 edi
$LN1@OnWaiting:
  00083	5e		 pop	 esi

; 58   : 
; 59   : 	//Trace("waiting\n");
; 60   : }

  00084	5d		 pop	 ebp
  00085	c2 04 00	 ret	 4
?OnWaiting@CPythonPlayerEventHandler@@UAEXABUSState@IEventHandler@CActorInstance@@@Z ENDP ; CPythonPlayerEventHandler::OnWaiting
_TEXT	ENDS
; Function compile flags: /Ogtp
; File D:\_m2work\txoko-m2-work\txoko-client-src\source\UserInterface\PythonPlayerEventHandler.cpp
;	COMDAT ?OnMoving@CPythonPlayerEventHandler@@UAEXABUSState@IEventHandler@CActorInstance@@@Z
_TEXT	SEGMENT
_c_rkState$ = 8						; size = 4
?OnMoving@CPythonPlayerEventHandler@@UAEXABUSState@IEventHandler@CActorInstance@@@Z PROC ; CPythonPlayerEventHandler::OnMoving, COMDAT
; _this$ = ecx

; 63   : {

  00000	55		 push	 ebp
  00001	8b ec		 mov	 ebp, esp
  00003	56		 push	 esi
  00004	8b f1		 mov	 esi, ecx

; 64   : 	DWORD dwCurTime=ELTimer_GetMSec();		

  00006	e8 00 00 00 00	 call	 ?ELTimer_GetMSec@@YAKXZ	; ELTimer_GetMSec

; 65   : 	if (m_dwNextMovingNotifyTime>dwCurTime)

  0000b	39 46 18	 cmp	 DWORD PTR [esi+24], eax
  0000e	77 26		 ja	 SHORT $LN1@OnMoving

; 66   : 		return;
; 67   : 	
; 68   : 	m_dwNextMovingNotifyTime=dwCurTime+300;

  00010	05 2c 01 00 00	 add	 eax, 300		; 0000012cH
  00015	89 46 18	 mov	 DWORD PTR [esi+24], eax

; 69   : 	
; 70   : 	CPythonNetworkStream& rkNetStream=CPythonNetworkStream::Instance();
; 71   : 	rkNetStream.SendCharacterStatePacket(c_rkState.kPPosSelf, c_rkState.fAdvRotSelf, CInstanceBase::FUNC_MOVE, 0);

  00018	8b 45 08	 mov	 eax, DWORD PTR _c_rkState$[ebp]
  0001b	6a 00		 push	 0
  0001d	6a 01		 push	 1
  0001f	51		 push	 ecx
  00020	f3 0f 10 40 0c	 movss	 xmm0, DWORD PTR [eax+12]
  00025	8b 0d 00 00 00
	00		 mov	 ecx, DWORD PTR ?ms_singleton@?$CSingleton@VCPythonNetworkStream@@@@0PAVCPythonNetworkStream@@A ; CSingleton<CPythonNetworkStream>::ms_singleton
  0002b	f3 0f 11 04 24	 movss	 DWORD PTR [esp], xmm0
  00030	50		 push	 eax
  00031	e8 00 00 00 00	 call	 ?SendCharacterStatePacket@CPythonNetworkStream@@QAE_NABUD3DXVECTOR3@@MII@Z ; CPythonNetworkStream::SendCharacterStatePacket
$LN1@OnMoving:
  00036	5e		 pop	 esi

; 72   : 
; 73   : //	Trace("moving\n");
; 74   : }

  00037	5d		 pop	 ebp
  00038	c2 04 00	 ret	 4
?OnMoving@CPythonPlayerEventHandler@@UAEXABUSState@IEventHandler@CActorInstance@@@Z ENDP ; CPythonPlayerEventHandler::OnMoving
_TEXT	ENDS
; Function compile flags: /Ogtp
; File D:\_m2work\txoko-m2-work\txoko-client-src\source\UserInterface\PythonPlayerEventHandler.cpp
;	COMDAT ?OnMove@CPythonPlayerEventHandler@@UAEXABUSState@IEventHandler@CActorInstance@@@Z
_TEXT	SEGMENT
_c_rkState$ = 8						; size = 4
?OnMove@CPythonPlayerEventHandler@@UAEXABUSState@IEventHandler@CActorInstance@@@Z PROC ; CPythonPlayerEventHandler::OnMove, COMDAT
; _this$ = ecx

; 77   : {

  00000	55		 push	 ebp
  00001	8b ec		 mov	 ebp, esp
  00003	56		 push	 esi
  00004	8b f1		 mov	 esi, ecx

; 78   : 	DWORD dwCurTime=ELTimer_GetMSec();

  00006	e8 00 00 00 00	 call	 ?ELTimer_GetMSec@@YAKXZ	; ELTimer_GetMSec

; 79   : 	m_dwNextWaitingNotifyTime=dwCurTime+100;
; 80   : 	m_dwNextMovingNotifyTime=dwCurTime+300;
; 81   : 
; 82   : 	CPythonNetworkStream& rkNetStream=CPythonNetworkStream::Instance();
; 83   : 	rkNetStream.SendCharacterStatePacket(c_rkState.kPPosSelf, c_rkState.fAdvRotSelf, CInstanceBase::FUNC_MOVE, 0);

  0000b	6a 00		 push	 0
  0000d	6a 01		 push	 1
  0000f	51		 push	 ecx
  00010	8b 0d 00 00 00
	00		 mov	 ecx, DWORD PTR ?ms_singleton@?$CSingleton@VCPythonNetworkStream@@@@0PAVCPythonNetworkStream@@A ; CSingleton<CPythonNetworkStream>::ms_singleton
  00016	8d 50 64	 lea	 edx, DWORD PTR [eax+100]
  00019	05 2c 01 00 00	 add	 eax, 300		; 0000012cH
  0001e	89 56 14	 mov	 DWORD PTR [esi+20], edx
  00021	89 46 18	 mov	 DWORD PTR [esi+24], eax
  00024	8b 45 08	 mov	 eax, DWORD PTR _c_rkState$[ebp]
  00027	f3 0f 10 40 0c	 movss	 xmm0, DWORD PTR [eax+12]
  0002c	f3 0f 11 04 24	 movss	 DWORD PTR [esp], xmm0
  00031	50		 push	 eax
  00032	e8 00 00 00 00	 call	 ?SendCharacterStatePacket@CPythonNetworkStream@@QAE_NABUD3DXVECTOR3@@MII@Z ; CPythonNetworkStream::SendCharacterStatePacket
  00037	5e		 pop	 esi

; 84   : 
; 85   : //	Trace("move\n");
; 86   : }

  00038	5d		 pop	 ebp
  00039	c2 04 00	 ret	 4
?OnMove@CPythonPlayerEventHandler@@UAEXABUSState@IEventHandler@CActorInstance@@@Z ENDP ; CPythonPlayerEventHandler::OnMove
_TEXT	ENDS
; Function compile flags: /Ogtp
; File D:\_m2work\txoko-m2-work\txoko-client-src\source\UserInterface\PythonPlayerEventHandler.cpp
;	COMDAT ?OnStop@CPythonPlayerEventHandler@@UAEXABUSState@IEventHandler@CActorInstance@@@Z
_TEXT	SEGMENT
_c_rkState$ = 8						; size = 4
?OnStop@CPythonPlayerEventHandler@@UAEXABUSState@IEventHandler@CActorInstance@@@Z PROC ; CPythonPlayerEventHandler::OnStop, COMDAT
; _this$ = ecx

; 89   : {

  00000	55		 push	 ebp
  00001	8b ec		 mov	 ebp, esp

; 90   : 	CPythonNetworkStream& rkNetStream=CPythonNetworkStream::Instance();
; 91   : 	rkNetStream.SendCharacterStatePacket(c_rkState.kPPosSelf, c_rkState.fAdvRotSelf, CInstanceBase::FUNC_WAIT, 0);

  00003	8b 45 08	 mov	 eax, DWORD PTR _c_rkState$[ebp]
  00006	6a 00		 push	 0
  00008	6a 00		 push	 0
  0000a	51		 push	 ecx
  0000b	f3 0f 10 40 0c	 movss	 xmm0, DWORD PTR [eax+12]
  00010	8b 0d 00 00 00
	00		 mov	 ecx, DWORD PTR ?ms_singleton@?$CSingleton@VCPythonNetworkStream@@@@0PAVCPythonNetworkStream@@A ; CSingleton<CPythonNetworkStream>::ms_singleton
  00016	f3 0f 11 04 24	 movss	 DWORD PTR [esp], xmm0
  0001b	50		 push	 eax
  0001c	e8 00 00 00 00	 call	 ?SendCharacterStatePacket@CPythonNetworkStream@@QAE_NABUD3DXVECTOR3@@MII@Z ; CPythonNetworkStream::SendCharacterStatePacket

; 92   : 
; 93   : //	Trace("stop\n");
; 94   : }

  00021	5d		 pop	 ebp
  00022	c2 04 00	 ret	 4
?OnStop@CPythonPlayerEventHandler@@UAEXABUSState@IEventHandler@CActorInstance@@@Z ENDP ; CPythonPlayerEventHandler::OnStop
_TEXT	ENDS
; Function compile flags: /Ogtp
; File D:\_m2work\txoko-m2-work\txoko-client-src\source\UserInterface\PythonPlayerEventHandler.cpp
;	COMDAT ?OnWarp@CPythonPlayerEventHandler@@UAEXABUSState@IEventHandler@CActorInstance@@@Z
_TEXT	SEGMENT
_c_rkState$ = 8						; size = 4
?OnWarp@CPythonPlayerEventHandler@@UAEXABUSState@IEventHandler@CActorInstance@@@Z PROC ; CPythonPlayerEventHandler::OnWarp, COMDAT
; _this$ = ecx

; 97   : {

  00000	55		 push	 ebp
  00001	8b ec		 mov	 ebp, esp

; 98   : 	CPythonNetworkStream& rkNetStream=CPythonNetworkStream::Instance();
; 99   : 	rkNetStream.SendCharacterStatePacket(c_rkState.kPPosSelf, c_rkState.fAdvRotSelf, CInstanceBase::FUNC_WAIT, 0);

  00003	8b 45 08	 mov	 eax, DWORD PTR _c_rkState$[ebp]
  00006	6a 00		 push	 0
  00008	6a 00		 push	 0
  0000a	51		 push	 ecx
  0000b	f3 0f 10 40 0c	 movss	 xmm0, DWORD PTR [eax+12]
  00010	8b 0d 00 00 00
	00		 mov	 ecx, DWORD PTR ?ms_singleton@?$CSingleton@VCPythonNetworkStream@@@@0PAVCPythonNetworkStream@@A ; CSingleton<CPythonNetworkStream>::ms_singleton
  00016	f3 0f 11 04 24	 movss	 DWORD PTR [esp], xmm0
  0001b	50		 push	 eax
  0001c	e8 00 00 00 00	 call	 ?SendCharacterStatePacket@CPythonNetworkStream@@QAE_NABUD3DXVECTOR3@@MII@Z ; CPythonNetworkStream::SendCharacterStatePacket

; 100  : }

  00021	5d		 pop	 ebp
  00022	c2 04 00	 ret	 4
?OnWarp@CPythonPlayerEventHandler@@UAEXABUSState@IEventHandler@CActorInstance@@@Z ENDP ; CPythonPlayerEventHandler::OnWarp
_TEXT	ENDS
; Function compile flags: /Ogtp
; File D:\_m2work\txoko-m2-work\txoko-client-src\source\UserInterface\PythonPlayerEventHandler.cpp
;	COMDAT ?OnAttack@CPythonPlayerEventHandler@@UAEXABUSState@IEventHandler@CActorInstance@@G@Z
_TEXT	SEGMENT
_c_rkState$ = 8						; size = 4
_wMotionIndex$ = 12					; size = 2
?OnAttack@CPythonPlayerEventHandler@@UAEXABUSState@IEventHandler@CActorInstance@@G@Z PROC ; CPythonPlayerEventHandler::OnAttack, COMDAT
; _this$ = ecx

; 103  : {

  00000	55		 push	 ebp
  00001	8b ec		 mov	 ebp, esp

; 104  : //	Tracef("CPythonPlayerEventHandler::OnAttack [%d]\n", wMotionIndex);
; 105  : 	assert(wMotionIndex < 255);
; 106  : 
; 107  : 	CPythonNetworkStream& rkNetStream=CPythonNetworkStream::Instance();
; 108  : 	rkNetStream.SendCharacterStatePacket(c_rkState.kPPosSelf, c_rkState.fAdvRotSelf, CInstanceBase::FUNC_COMBO, wMotionIndex);

  00003	0f b7 45 0c	 movzx	 eax, WORD PTR _wMotionIndex$[ebp]
  00007	50		 push	 eax
  00008	8b 45 08	 mov	 eax, DWORD PTR _c_rkState$[ebp]
  0000b	6a 03		 push	 3
  0000d	51		 push	 ecx
  0000e	8b 0d 00 00 00
	00		 mov	 ecx, DWORD PTR ?ms_singleton@?$CSingleton@VCPythonNetworkStream@@@@0PAVCPythonNetworkStream@@A ; CSingleton<CPythonNetworkStream>::ms_singleton
  00014	f3 0f 10 40 0c	 movss	 xmm0, DWORD PTR [eax+12]
  00019	f3 0f 11 04 24	 movss	 DWORD PTR [esp], xmm0
  0001e	50		 push	 eax
  0001f	e8 00 00 00 00	 call	 ?SendCharacterStatePacket@CPythonNetworkStream@@QAE_NABUD3DXVECTOR3@@MII@Z ; CPythonNetworkStream::SendCharacterStatePacket

; 109  : 
; 110  : #ifdef __ATTACK_SPEED_CHECK__
; 111  : 	static DWORD s_dwLastTime=timeGetTime();
; 112  : 
; 113  : 	DWORD dwCurTime=timeGetTime();
; 114  : 	Tracef("%d\n", dwCurTime-s_dwLastTime);
; 115  : 	s_dwLastTime=dwCurTime;
; 116  : #endif
; 117  : 
; 118  : }

  00024	5d		 pop	 ebp
  00025	c2 08 00	 ret	 8
?OnAttack@CPythonPlayerEventHandler@@UAEXABUSState@IEventHandler@CActorInstance@@G@Z ENDP ; CPythonPlayerEventHandler::OnAttack
_TEXT	ENDS
; Function compile flags: /Ogtp
; File D:\_m2work\txoko-m2-work\txoko-client-src\source\UserInterface\PythonPlayerEventHandler.cpp
;	COMDAT ?OnUseSkill@CPythonPlayerEventHandler@@UAEXABUSState@IEventHandler@CActorInstance@@II@Z
_TEXT	SEGMENT
_c_rkState$ = 8						; size = 4
_uMotSkill$ = 12					; size = 4
_uArg$ = 16						; size = 4
?OnUseSkill@CPythonPlayerEventHandler@@UAEXABUSState@IEventHandler@CActorInstance@@II@Z PROC ; CPythonPlayerEventHandler::OnUseSkill, COMDAT
; _this$ = ecx

; 121  : {

  00000	55		 push	 ebp
  00001	8b ec		 mov	 ebp, esp

; 122  : 	CPythonNetworkStream& rkNetStream=CPythonNetworkStream::Instance();
; 123  : 	rkNetStream.SendCharacterStatePacket(c_rkState.kPPosSelf, c_rkState.fAdvRotSelf, CInstanceBase::FUNC_SKILL|uMotSkill, uArg);

  00003	ff 75 10	 push	 DWORD PTR _uArg$[ebp]
  00006	8b 45 0c	 mov	 eax, DWORD PTR _uMotSkill$[ebp]
  00009	0d 80 00 00 00	 or	 eax, 128		; 00000080H
  0000e	50		 push	 eax
  0000f	8b 45 08	 mov	 eax, DWORD PTR _c_rkState$[ebp]
  00012	51		 push	 ecx
  00013	8b 0d 00 00 00
	00		 mov	 ecx, DWORD PTR ?ms_singleton@?$CSingleton@VCPythonNetworkStream@@@@0PAVCPythonNetworkStream@@A ; CSingleton<CPythonNetworkStream>::ms_singleton
  00019	f3 0f 10 40 0c	 movss	 xmm0, DWORD PTR [eax+12]
  0001e	f3 0f 11 04 24	 movss	 DWORD PTR [esp], xmm0
  00023	50		 push	 eax
  00024	e8 00 00 00 00	 call	 ?SendCharacterStatePacket@CPythonNetworkStream@@QAE_NABUD3DXVECTOR3@@MII@Z ; CPythonNetworkStream::SendCharacterStatePacket

; 124  : }

  00029	5d		 pop	 ebp
  0002a	c2 0c 00	 ret	 12			; 0000000cH
?OnUseSkill@CPythonPlayerEventHandler@@UAEXABUSState@IEventHandler@CActorInstance@@II@Z ENDP ; CPythonPlayerEventHandler::OnUseSkill
_TEXT	ENDS
; Function compile flags: /Ogtp
; File D:\_m2work\txoko-m2-work\txoko-client-src\source\UserInterface\PythonPlayerEventHandler.cpp
;	COMDAT ?OnUpdate@CPythonPlayerEventHandler@@UAEXXZ
_TEXT	SEGMENT
?OnUpdate@CPythonPlayerEventHandler@@UAEXXZ PROC	; CPythonPlayerEventHandler::OnUpdate, COMDAT
; _this$ = ecx

; 128  : }

  00000	c2 00 00	 ret	 0
?OnUpdate@CPythonPlayerEventHandler@@UAEXXZ ENDP	; CPythonPlayerEventHandler::OnUpdate
_TEXT	ENDS
; Function compile flags: /Ogtp
; File D:\_m2work\txoko-m2-work\txoko-client-src\source\UserInterface\PythonPlayerEventHandler.cpp
;	COMDAT ?OnChangeShape@CPythonPlayerEventHandler@@UAEXXZ
_TEXT	SEGMENT
?OnChangeShape@CPythonPlayerEventHandler@@UAEXXZ PROC	; CPythonPlayerEventHandler::OnChangeShape, COMDAT
; _this$ = ecx

; 132  : 	CPythonPlayer::Instance().NEW_Stop();

  00000	8b 0d 00 00 00
	00		 mov	 ecx, DWORD PTR ?ms_singleton@?$CSingleton@VCPythonPlayer@@@@0PAVCPythonPlayer@@A ; CSingleton<CPythonPlayer>::ms_singleton
  00006	e9 00 00 00 00	 jmp	 ?NEW_Stop@CPythonPlayer@@QAEXXZ ; CPythonPlayer::NEW_Stop
?OnChangeShape@CPythonPlayerEventHandler@@UAEXXZ ENDP	; CPythonPlayerEventHandler::OnChangeShape
_TEXT	ENDS
; Function compile flags: /Ogtp
; File D:\_m2work\txoko-m2-work\txoko-client-src\source\UserInterface\PythonPlayerEventHandler.cpp
; File C:\Program Files\Microsoft Visual Studio\2022\Community\VC\Tools\MSVC\14.44.35207\include\vector
; File D:\_m2work\txoko-m2-work\txoko-client-src\source\UserInterface\PythonPlayerEventHandler.cpp
; File C:\Program Files\Microsoft Visual Studio\2022\Community\VC\Tools\MSVC\14.44.35207\include\vector
; File C:\Program Files\Microsoft Visual Studio\2022\Community\VC\Tools\MSVC\14.44.35207\include\xutility
; File C:\Program Files\Microsoft Visual Studio\2022\Community\VC\Tools\MSVC\14.44.35207\include\vector
; File D:\_m2work\txoko-m2-work\txoko-client-src\source\UserInterface\PythonPlayerEventHandler.cpp
; File C:\Program Files\Microsoft Visual Studio\2022\Community\VC\Tools\MSVC\14.44.35207\include\vector
; File D:\_m2work\txoko-m2-work\txoko-client-src\source\UserInterface\PythonPlayerEventHandler.cpp
;	COMDAT ?OnHit@CPythonPlayerEventHandler@@UAEXIAAVCActorInstance@@H@Z
_TEXT	SEGMENT
_kVictim$ = -12						; size = 12
_uSkill$ = 8						; size = 4
_rkActorVictim$ = 12					; size = 4
_kVictim$1$ = 12					; size = 4
_isSendPacket$ = 16					; size = 4
_kVictim$2$ = 16					; size = 4
?OnHit@CPythonPlayerEventHandler@@UAEXIAAVCActorInstance@@H@Z PROC ; CPythonPlayerEventHandler::OnHit, COMDAT
; _this$ = ecx

; 136  : {

  00000	55		 push	 ebp
  00001	8b ec		 mov	 ebp, esp
  00003	83 ec 0c	 sub	 esp, 12			; 0000000cH
  00006	53		 push	 ebx
  00007	56		 push	 esi

; 137  : 	DWORD dwVIDVictim=rkActorVictim.GetVirtualID();

  00008	8b 75 0c	 mov	 esi, DWORD PTR _rkActorVictim$[ebp]
  0000b	8b d9		 mov	 ebx, ecx
  0000d	57		 push	 edi
  0000e	8b ce		 mov	 ecx, esi
  00010	8b 06		 mov	 eax, DWORD PTR [esi]
  00012	ff 50 48	 call	 DWORD PTR [eax+72]

; 138  : 
; 139  : 	// Update Target
; 140  : 	CPythonPlayer::Instance().SetTarget(dwVIDVictim, FALSE);

  00015	8b 0d 00 00 00
	00		 mov	 ecx, DWORD PTR ?ms_singleton@?$CSingleton@VCPythonPlayer@@@@0PAVCPythonPlayer@@A ; CSingleton<CPythonPlayer>::ms_singleton
  0001b	8b f8		 mov	 edi, eax
  0001d	83 c1 04	 add	 ecx, 4
  00020	6a 00		 push	 0
  00022	57		 push	 edi
  00023	8b 11		 mov	 edx, DWORD PTR [ecx]
  00025	ff 52 60	 call	 DWORD PTR [edx+96]

; 141  : 	// Update Target
; 142  : 
; 143  : 	if (isSendPacket)

  00028	83 7d 10 00	 cmp	 DWORD PTR _isSendPacket$[ebp], 0
  0002c	74 0f		 je	 SHORT $LN2@OnHit

; 144  : 	{
; 145  : //#define ATTACK_TIME_LOG
; 146  : #ifdef ATTACK_TIME_LOG
; 147  : 		static std::map<DWORD, float> s_prevTimed;
; 148  : 		float curTime = timeGetTime() / 1000.0f;
; 149  : 		bool isFirst = false;
; 150  : 		if (s_prevTimed.end() == s_prevTimed.find(dwVIDVictim))
; 151  : 		{
; 152  : 			s_prevTimed[dwVIDVictim] = curTime;
; 153  : 			isFirst = true;
; 154  : 		}
; 155  : 		float diffTime = curTime-s_prevTimed[dwVIDVictim];
; 156  : 		if (diffTime < 0.1f && !isFirst)
; 157  : 		{
; 158  : 			TraceError("ATTACK(SPEED_HACK): %.4f(%.4f) %d", curTime, diffTime, dwVIDVictim);
; 159  : 		}
; 160  : 		else
; 161  : 		{
; 162  : 			TraceError("ATTACK: %.4f(%.4f) %d", curTime, diffTime, dwVIDVictim);
; 163  : 		}
; 164  : 		
; 165  : 		s_prevTimed[dwVIDVictim] = curTime;
; 166  : #endif
; 167  : 		CPythonNetworkStream& rkStream=CPythonNetworkStream::Instance();
; 168  : 		rkStream.SendAttackPacket(uSkill, dwVIDVictim);

  0002e	8b 0d 00 00 00
	00		 mov	 ecx, DWORD PTR ?ms_singleton@?$CSingleton@VCPythonNetworkStream@@@@0PAVCPythonNetworkStream@@A ; CSingleton<CPythonNetworkStream>::ms_singleton
  00034	57		 push	 edi
  00035	ff 75 08	 push	 DWORD PTR _uSkill$[ebp]
  00038	e8 00 00 00 00	 call	 ?SendAttackPacket@CPythonNetworkStream@@QAE_NIK@Z ; CPythonNetworkStream::SendAttackPacket
$LN2@OnHit:

; 169  : 	}
; 170  : 
; 171  : 	if (!rkActorVictim.IsPushing())

  0003d	8b ce		 mov	 ecx, esi
  0003f	e8 00 00 00 00	 call	 ?IsPushing@CActorInstance@@QAE_NXZ ; CActorInstance::IsPushing
  00044	84 c0		 test	 al, al
  00046	74 7b		 je	 SHORT $LN8@OnHit

; 172  : 		return;
; 173  : 
; 174  : 	//    
; 175  : 	extern bool IS_HUGE_RACE(unsigned int vnum);
; 176  : 	if (IS_HUGE_RACE(rkActorVictim.GetRace()))

  00048	8b ce		 mov	 ecx, esi
  0004a	e8 00 00 00 00	 call	 ?GetRace@CActorInstance@@QAEKXZ ; CActorInstance::GetRace
  0004f	50		 push	 eax
  00050	e8 00 00 00 00	 call	 ?IS_HUGE_RACE@@YA_NI@Z	; IS_HUGE_RACE
  00055	83 c4 04	 add	 esp, 4
  00058	84 c0		 test	 al, al
  0005a	75 67		 jne	 SHORT $LN8@OnHit

; 177  : 		return;
; 178  : 
; 179  : 
; 180  : 	CPythonCharacterManager::Instance().AdjustCollisionWithOtherObjects(&rkActorVictim);

  0005c	8b 0d 00 00 00
	00		 mov	 ecx, DWORD PTR ?ms_singleton@?$CSingleton@VCPythonCharacterManager@@@@0PAVCPythonCharacterManager@@A ; CSingleton<CPythonCharacterManager>::ms_singleton
  00062	83 c1 08	 add	 ecx, 8
  00065	56		 push	 esi
  00066	8b 01		 mov	 eax, DWORD PTR [ecx]
  00068	ff 50 04	 call	 DWORD PTR [eax+4]

; 181  : 
; 182  : 	const TPixelPosition& kPPosLast=rkActorVictim.NEW_GetLastPixelPositionRef();

  0006b	8b ce		 mov	 ecx, esi
  0006d	e8 00 00 00 00	 call	 ?NEW_GetLastPixelPositionRef@CActorInstance@@QAEABUD3DXVECTOR3@@XZ ; CActorInstance::NEW_GetLastPixelPositionRef

; 183  : 
; 184  : 	SVictim kVictim;
; 185  : 	kVictim.m_dwVID=dwVIDVictim;

  00072	89 7d f4	 mov	 DWORD PTR _kVictim$[ebp], edi

; 186  : 	kVictim.m_lPixelX=long(kPPosLast.x);

  00075	f3 0f 2c 08	 cvttss2si ecx, DWORD PTR [eax]

; 187  : 	kVictim.m_lPixelY=long(kPPosLast.y);

  00079	f3 0f 2c 40 04	 cvttss2si eax, DWORD PTR [eax+4]
  0007e	89 4d 0c	 mov	 DWORD PTR _kVictim$1$[ebp], ecx
  00081	89 4d f8	 mov	 DWORD PTR _kVictim$[ebp+4], ecx

; 188  : 
; 189  : 	rkActorVictim.TEMP_Push(kVictim.m_lPixelX, kVictim.m_lPixelY);

  00084	50		 push	 eax
  00085	51		 push	 ecx
  00086	8b ce		 mov	 ecx, esi
  00088	89 45 10	 mov	 DWORD PTR _kVictim$2$[ebp], eax
  0008b	89 45 fc	 mov	 DWORD PTR _kVictim$[ebp+8], eax
  0008e	e8 00 00 00 00	 call	 ?TEMP_Push@CActorInstance@@QAEXHH@Z ; CActorInstance::TEMP_Push
; File C:\Program Files\Microsoft Visual Studio\2022\Community\VC\Tools\MSVC\14.44.35207\include\vector

; 844  :         if (_Mylast != _My_data._Myend) {

  00093	8b 43 08	 mov	 eax, DWORD PTR [ebx+8]
; File D:\_m2work\txoko-m2-work\txoko-client-src\source\UserInterface\PythonPlayerEventHandler.cpp

; 191  : 	m_kVctkVictim.push_back(kVictim);

  00096	8d 4b 04	 lea	 ecx, DWORD PTR [ebx+4]
; File C:\Program Files\Microsoft Visual Studio\2022\Community\VC\Tools\MSVC\14.44.35207\include\vector

; 844  :         if (_Mylast != _My_data._Myend) {

  00099	3b 43 0c	 cmp	 eax, DWORD PTR [ebx+12]
  0009c	74 1b		 je	 SHORT $LN9@OnHit
; File C:\Program Files\Microsoft Visual Studio\2022\Community\VC\Tools\MSVC\14.44.35207\include\xutility

; 476  :         ::new (static_cast<void*>(_STD addressof(_Obj))) _Ty(_STD forward<_Types>(_Args)...);

  0009e	89 38		 mov	 DWORD PTR [eax], edi
  000a0	8b 4d 0c	 mov	 ecx, DWORD PTR _kVictim$1$[ebp]
  000a3	89 48 04	 mov	 DWORD PTR [eax+4], ecx
  000a6	8b 4d 10	 mov	 ecx, DWORD PTR _kVictim$2$[ebp]
  000a9	5f		 pop	 edi
  000aa	89 48 08	 mov	 DWORD PTR [eax+8], ecx
; File C:\Program Files\Microsoft Visual Studio\2022\Community\VC\Tools\MSVC\14.44.35207\include\vector

; 869  :         ++_Mylast;

  000ad	83 43 08 0c	 add	 DWORD PTR [ebx+8], 12	; 0000000cH
; File D:\_m2work\txoko-m2-work\txoko-client-src\source\UserInterface\PythonPlayerEventHandler.cpp

; 192  : }

  000b1	5e		 pop	 esi
  000b2	5b		 pop	 ebx
  000b3	8b e5		 mov	 esp, ebp
  000b5	5d		 pop	 ebp
  000b6	c2 0c 00	 ret	 12			; 0000000cH
$LN9@OnHit:
; File C:\Program Files\Microsoft Visual Studio\2022\Community\VC\Tools\MSVC\14.44.35207\include\vector

; 848  :         return *_Emplace_reallocate(_Mylast, _STD forward<_Valty>(_Val)...);

  000b9	8d 55 f4	 lea	 edx, DWORD PTR _kVictim$[ebp]
  000bc	52		 push	 edx
  000bd	50		 push	 eax
  000be	e8 00 00 00 00	 call	 ??$_Emplace_reallocate@ABUSVictim@CPythonPlayerEventHandler@@@?$vector@USVictim@CPythonPlayerEventHandler@@V?$allocator@USVictim@CPythonPlayerEventHandler@@@std@@@std@@AAEPAUSVictim@CPythonPlayerEventHandler@@QAU23@ABU23@@Z ; std::vector<CPythonPlayerEventHandler::SVictim,std::allocator<CPythonPlayerEventHandler::SVictim> >::_Emplace_reallocate<CPythonPlayerEventHandler::SVictim const &>
$LN8@OnHit:
  000c3	5f		 pop	 edi
; File D:\_m2work\txoko-m2-work\txoko-client-src\source\UserInterface\PythonPlayerEventHandler.cpp

; 192  : }

  000c4	5e		 pop	 esi
  000c5	5b		 pop	 ebx
  000c6	8b e5		 mov	 esp, ebp
  000c8	5d		 pop	 ebp
  000c9	c2 0c 00	 ret	 12			; 0000000cH
?OnHit@CPythonPlayerEventHandler@@UAEXIAAVCActorInstance@@H@Z ENDP ; CPythonPlayerEventHandler::OnHit
_TEXT	ENDS
; Function compile flags: /Ogtp
; File D:\_m2work\txoko-m2-work\txoko-client-src\source\UserInterface\PythonPlayerEventHandler.cpp
; File C:\Program Files\Microsoft Visual Studio\2022\Community\VC\Tools\MSVC\14.44.35207\include\vector
; File D:\_m2work\txoko-m2-work\txoko-client-src\source\UserInterface\PythonPlayerEventHandler.h
; File D:\_m2work\txoko-m2-work\txoko-client-src\source\UserInterface\PythonPlayerEventHandler.cpp
;	COMDAT ??0CPythonPlayerEventHandler@@IAE@XZ
_TEXT	SEGMENT
??0CPythonPlayerEventHandler@@IAE@XZ PROC		; CPythonPlayerEventHandler::CPythonPlayerEventHandler, COMDAT
; _this$dead$ = ecx

; 222  : {

  00000	c7 05 00 00 00
	00 00 00 00 00	 mov	 DWORD PTR ?s_kPlayerEventHandler@?1??GetSingleton@CPythonPlayerEventHandler@@SAAAV2@XZ@4V2@A, OFFSET ??_7CPythonPlayerEventHandler@@6B@

; 226  : }

  0000a	b8 00 00 00 00	 mov	 eax, OFFSET ?s_kPlayerEventHandler@?1??GetSingleton@CPythonPlayerEventHandler@@SAAAV2@XZ@4V2@A
; File C:\Program Files\Microsoft Visual Studio\2022\Community\VC\Tools\MSVC\14.44.35207\include\vector

; 400  :     _CONSTEXPR20 _Vector_val() noexcept : _Myfirst(), _Mylast(), _Myend() {}

  0000f	c7 05 04 00 00
	00 00 00 00 00	 mov	 DWORD PTR ?s_kPlayerEventHandler@?1??GetSingleton@CPythonPlayerEventHandler@@SAAAV2@XZ@4V2@A+4, 0
  00019	c7 05 08 00 00
	00 00 00 00 00	 mov	 DWORD PTR ?s_kPlayerEventHandler@?1??GetSingleton@CPythonPlayerEventHandler@@SAAAV2@XZ@4V2@A+8, 0
  00023	c7 05 0c 00 00
	00 00 00 00 00	 mov	 DWORD PTR ?s_kPlayerEventHandler@?1??GetSingleton@CPythonPlayerEventHandler@@SAAAV2@XZ@4V2@A+12, 0
; File D:\_m2work\txoko-m2-work\txoko-client-src\source\UserInterface\PythonPlayerEventHandler.h

; 57   : 				CNormalBowAttack_FlyEventHandler_AutoClear() {}

  0002d	c7 05 28 00 00
	00 00 00 00 00	 mov	 DWORD PTR ?s_kPlayerEventHandler@?1??GetSingleton@CPythonPlayerEventHandler@@SAAAV2@XZ@4V2@A+40, OFFSET ??_7CNormalBowAttack_FlyEventHandler_AutoClear@CPythonPlayerEventHandler@@6B@
; File D:\_m2work\txoko-m2-work\txoko-client-src\source\UserInterface\PythonPlayerEventHandler.cpp

; 223  : 	m_dwPrevComboIndex=0;

  00037	c7 05 10 00 00
	00 00 00 00 00	 mov	 DWORD PTR ?s_kPlayerEventHandler@?1??GetSingleton@CPythonPlayerEventHandler@@SAAAV2@XZ@4V2@A+16, 0

; 224  : 	m_dwNextMovingNotifyTime=0;

  00041	c7 05 18 00 00
	00 00 00 00 00	 mov	 DWORD PTR ?s_kPlayerEventHandler@?1??GetSingleton@CPythonPlayerEventHandler@@SAAAV2@XZ@4V2@A+24, 0

; 225  : 	m_dwNextWaitingNotifyTime=0;

  0004b	c7 05 14 00 00
	00 00 00 00 00	 mov	 DWORD PTR ?s_kPlayerEventHandler@?1??GetSingleton@CPythonPlayerEventHandler@@SAAAV2@XZ@4V2@A+20, 0

; 226  : }

  00055	c3		 ret	 0
??0CPythonPlayerEventHandler@@IAE@XZ ENDP		; CPythonPlayerEventHandler::CPythonPlayerEventHandler
_TEXT	ENDS
; Function compile flags: /Ogtp
; File D:\_m2work\txoko-m2-work\txoko-client-src\source\UserInterface\PythonPlayerEventHandler.cpp
;	COMDAT ?OnSetFlyTarget@CNormalBowAttack_FlyEventHandler_AutoClear@CPythonPlayerEventHandler@@UAEXXZ
_TEXT	SEGMENT
_s$ = -20						; size = 16
$T1 = -16						; size = 12
__$ArrayPad$ = -4					; size = 4
?OnSetFlyTarget@CNormalBowAttack_FlyEventHandler_AutoClear@CPythonPlayerEventHandler@@UAEXXZ PROC ; CPythonPlayerEventHandler::CNormalBowAttack_FlyEventHandler_AutoClear::OnSetFlyTarget, COMDAT
; _this$ = ecx

; 233  : {

  00000	55		 push	 ebp
  00001	8b ec		 mov	 ebp, esp
  00003	83 ec 14	 sub	 esp, 20			; 00000014H
  00006	a1 00 00 00 00	 mov	 eax, DWORD PTR ___security_cookie
  0000b	33 c5		 xor	 eax, ebp
  0000d	89 45 fc	 mov	 DWORD PTR __$ArrayPad$[ebp], eax
  00010	53		 push	 ebx
  00011	56		 push	 esi
  00012	8b d9		 mov	 ebx, ecx

; 234  : 	SState s;
; 235  : 	m_pInstMain->NEW_GetPixelPosition(&s.kPPosSelf);

  00014	8d 45 ec	 lea	 eax, DWORD PTR _s$[ebp]
  00017	57		 push	 edi
  00018	50		 push	 eax
  00019	8b 4b 08	 mov	 ecx, DWORD PTR [ebx+8]
  0001c	e8 00 00 00 00	 call	 ?NEW_GetPixelPosition@CInstanceBase@@QAEXPAUD3DXVECTOR3@@@Z ; CInstanceBase::NEW_GetPixelPosition

; 236  : 	s.fAdvRotSelf=m_pInstMain->GetGraphicThingInstancePtr()->GetTargetRotation();

  00021	8b 4b 08	 mov	 ecx, DWORD PTR [ebx+8]
  00024	e8 00 00 00 00	 call	 ?GetGraphicThingInstancePtr@CInstanceBase@@QAEPAVCActorInstance@@XZ ; CInstanceBase::GetGraphicThingInstancePtr
  00029	8b c8		 mov	 ecx, eax
  0002b	e8 00 00 00 00	 call	 ?GetTargetRotation@CActorInstance@@QAEMXZ ; CActorInstance::GetTargetRotation

; 237  : 
; 238  : 	CPythonNetworkStream& rpns=CPythonNetworkStream::Instance();

  00030	8b 3d 00 00 00
	00		 mov	 edi, DWORD PTR ?ms_singleton@?$CSingleton@VCPythonNetworkStream@@@@0PAVCPythonNetworkStream@@A ; CSingleton<CPythonNetworkStream>::ms_singleton
  00036	dd d8		 fstp	 ST(0)

; 239  : 	rpns.SendFlyTargetingPacket(m_pInstTarget->GetVirtualID(), m_pInstTarget->GetGraphicThingInstancePtr()->OnGetFlyTargetPosition());

  00038	8b 4b 0c	 mov	 ecx, DWORD PTR [ebx+12]
  0003b	e8 00 00 00 00	 call	 ?GetGraphicThingInstancePtr@CInstanceBase@@QAEPAVCActorInstance@@XZ ; CInstanceBase::GetGraphicThingInstancePtr
  00040	8d 55 f0	 lea	 edx, DWORD PTR $T1[ebp]
  00043	52		 push	 edx
  00044	8d 88 dc 01 00
	00		 lea	 ecx, DWORD PTR [eax+476]
  0004a	8b 01		 mov	 eax, DWORD PTR [ecx]
  0004c	ff 50 04	 call	 DWORD PTR [eax+4]
  0004f	8b 4b 0c	 mov	 ecx, DWORD PTR [ebx+12]
  00052	8b f0		 mov	 esi, eax
  00054	e8 00 00 00 00	 call	 ?GetVirtualID@CInstanceBase@@QAEKXZ ; CInstanceBase::GetVirtualID
  00059	56		 push	 esi
  0005a	50		 push	 eax
  0005b	8b cf		 mov	 ecx, edi
  0005d	e8 00 00 00 00	 call	 ?SendFlyTargetingPacket@CPythonNetworkStream@@QAE_NKABUD3DXVECTOR3@@@Z ; CPythonNetworkStream::SendFlyTargetingPacket

; 240  : }

  00062	8b 4d fc	 mov	 ecx, DWORD PTR __$ArrayPad$[ebp]
  00065	5f		 pop	 edi
  00066	5e		 pop	 esi
  00067	33 cd		 xor	 ecx, ebp
  00069	5b		 pop	 ebx
  0006a	e8 00 00 00 00	 call	 @__security_check_cookie@4
  0006f	8b e5		 mov	 esp, ebp
  00071	5d		 pop	 ebp
  00072	c3		 ret	 0
?OnSetFlyTarget@CNormalBowAttack_FlyEventHandler_AutoClear@CPythonPlayerEventHandler@@UAEXXZ ENDP ; CPythonPlayerEventHandler::CNormalBowAttack_FlyEventHandler_AutoClear::OnSetFlyTarget
_TEXT	ENDS
; Function compile flags: /Ogtp
;	COMDAT ??0SState@IEventHandler@CActorInstance@@QAE@XZ
_TEXT	SEGMENT
??0SState@IEventHandler@CActorInstance@@QAE@XZ PROC	; CActorInstance::IEventHandler::SState::SState, COMDAT
; _this$ = ecx
  00000	8b c1		 mov	 eax, ecx
  00002	c3		 ret	 0
??0SState@IEventHandler@CActorInstance@@QAE@XZ ENDP	; CActorInstance::IEventHandler::SState::SState
_TEXT	ENDS
; Function compile flags: /Ogtp
; File D:\_m2work\txoko-m2-work\txoko-client-src\source\UserInterface\PythonPlayerEventHandler.cpp
;	COMDAT ?OnShoot@CNormalBowAttack_FlyEventHandler_AutoClear@CPythonPlayerEventHandler@@UAEXK@Z
_TEXT	SEGMENT
_dwSkillIndex$ = 8					; size = 4
?OnShoot@CNormalBowAttack_FlyEventHandler_AutoClear@CPythonPlayerEventHandler@@UAEXK@Z PROC ; CPythonPlayerEventHandler::CNormalBowAttack_FlyEventHandler_AutoClear::OnShoot, COMDAT
; _this$ = ecx

; 242  : {

  00000	55		 push	 ebp
  00001	8b ec		 mov	 ebp, esp

; 243  : 	CPythonNetworkStream& rpns=CPythonNetworkStream::Instance();
; 244  : 	rpns.SendShootPacket(dwSkillIndex);

  00003	8b 0d 00 00 00
	00		 mov	 ecx, DWORD PTR ?ms_singleton@?$CSingleton@VCPythonNetworkStream@@@@0PAVCPythonNetworkStream@@A ; CSingleton<CPythonNetworkStream>::ms_singleton

; 245  : }

  00009	5d		 pop	 ebp

; 243  : 	CPythonNetworkStream& rpns=CPythonNetworkStream::Instance();
; 244  : 	rpns.SendShootPacket(dwSkillIndex);

  0000a	e9 00 00 00 00	 jmp	 ?SendShootPacket@CPythonNetworkStream@@QAE_NI@Z ; CPythonNetworkStream::SendShootPacket
?OnShoot@CNormalBowAttack_FlyEventHandler_AutoClear@CPythonPlayerEventHandler@@UAEXK@Z ENDP ; CPythonPlayerEventHandler::CNormalBowAttack_FlyEventHandler_AutoClear::OnShoot
_TEXT	ENDS
; Function compile flags: /Ogtp
; File D:\_m2work\txoko-m2-work\txoko-client-src\source\UserInterface\PythonPlayerEventHandler.cpp
;	COMDAT ?Set@CNormalBowAttack_FlyEventHandler_AutoClear@CPythonPlayerEventHandler@@QAEXPAV2@PAVCInstanceBase@@1@Z
_TEXT	SEGMENT
_pParent$ = 8						; size = 4
_pInstMain$ = 12					; size = 4
_pInstTarget$ = 16					; size = 4
?Set@CNormalBowAttack_FlyEventHandler_AutoClear@CPythonPlayerEventHandler@@QAEXPAV2@PAVCInstanceBase@@1@Z PROC ; CPythonPlayerEventHandler::CNormalBowAttack_FlyEventHandler_AutoClear::Set, COMDAT
; _this$ = ecx

; 248  : {

  00000	55		 push	 ebp
  00001	8b ec		 mov	 ebp, esp

; 249  : 	m_pParent=(pParent);

  00003	8b 45 08	 mov	 eax, DWORD PTR _pParent$[ebp]
  00006	89 41 04	 mov	 DWORD PTR [ecx+4], eax

; 250  : 	m_pInstMain=(pInstMain);

  00009	8b 45 0c	 mov	 eax, DWORD PTR _pInstMain$[ebp]
  0000c	89 41 08	 mov	 DWORD PTR [ecx+8], eax

; 251  : 	m_pInstTarget=(pInstTarget);

  0000f	8b 45 10	 mov	 eax, DWORD PTR _pInstTarget$[ebp]
  00012	89 41 0c	 mov	 DWORD PTR [ecx+12], eax

; 252  : }

  00015	5d		 pop	 ebp
  00016	c2 0c 00	 ret	 12			; 0000000cH
?Set@CNormalBowAttack_FlyEventHandler_AutoClear@CPythonPlayerEventHandler@@QAEXPAV2@PAVCInstanceBase@@1@Z ENDP ; CPythonPlayerEventHandler::CNormalBowAttack_FlyEventHandler_AutoClear::Set
_TEXT	ENDS
; Function compile flags: /Ogtp
; File D:\_m2work\txoko-m2-work\txoko-client-src\source\UserInterface\PythonPlayerEventHandler.cpp
;	COMDAT ?OnExplodingAtAnotherTarget@CNormalBowAttack_FlyEventHandler_AutoClear@CPythonPlayerEventHandler@@UAEXKK@Z
_TEXT	SEGMENT
_dwSkillIndex$ = 8					; size = 4
_dwVID$ = 12						; size = 4
?OnExplodingAtAnotherTarget@CNormalBowAttack_FlyEventHandler_AutoClear@CPythonPlayerEventHandler@@UAEXKK@Z PROC ; CPythonPlayerEventHandler::CNormalBowAttack_FlyEventHandler_AutoClear::OnExplodingAtAnotherTarget, COMDAT
; _this$ = ecx

; 261  : 	return;
; 262  : 
; 263  : 	Tracef("Shoot :  target  : %d, %d\n", dwSkillIndex, dwVID);
; 264  : 
; 265  : 	CPythonNetworkStream& rkStream=CPythonNetworkStream::Instance();
; 266  : 	rkStream.SendAttackPacket(dwSkillIndex, dwVID);
; 267  : 
; 268  : 	CPythonCharacterManager& rkChrMgr = CPythonCharacterManager::Instance();
; 269  : 	CInstanceBase * pInstance = rkChrMgr.GetInstancePtr(dwVID);
; 270  : 	if (pInstance)
; 271  : 	{
; 272  : 		pInstance->GetGraphicThingInstanceRef().OnShootDamage();
; 273  : 	}
; 274  : }

  00000	c2 08 00	 ret	 8
?OnExplodingAtAnotherTarget@CNormalBowAttack_FlyEventHandler_AutoClear@CPythonPlayerEventHandler@@UAEXKK@Z ENDP ; CPythonPlayerEventHandler::CNormalBowAttack_FlyEventHandler_AutoClear::OnExplodingAtAnotherTarget
_TEXT	ENDS
; Function compile flags: /Ogtp
; File D:\_m2work\txoko-m2-work\txoko-client-src\source\UserInterface\PythonPlayerEventHandler.cpp
;	COMDAT ?OnExplodingAtTarget@CNormalBowAttack_FlyEventHandler_AutoClear@CPythonPlayerEventHandler@@UAEXK@Z
_TEXT	SEGMENT
_dwSkillIndex$ = 8					; size = 4
?OnExplodingAtTarget@CNormalBowAttack_FlyEventHandler_AutoClear@CPythonPlayerEventHandler@@UAEXK@Z PROC ; CPythonPlayerEventHandler::CNormalBowAttack_FlyEventHandler_AutoClear::OnExplodingAtTarget, COMDAT
; _this$ = ecx

; 277  : //	Tracef("Shoot :  target  : %d, %d\n", dwSkillIndex, m_pInstTarget->GetVirtualID());
; 278  : //	CPythonNetworkStream& rkStream=CPythonNetworkStream::Instance();
; 279  : //	rkStream.SendAttackPacket(dwSkillIndex, m_pInstTarget->GetVirtualID());
; 280  : }

  00000	c2 04 00	 ret	 4
?OnExplodingAtTarget@CNormalBowAttack_FlyEventHandler_AutoClear@CPythonPlayerEventHandler@@UAEXK@Z ENDP ; CPythonPlayerEventHandler::CNormalBowAttack_FlyEventHandler_AutoClear::OnExplodingAtTarget
_TEXT	ENDS
; Function compile flags: /Ogtp
; File C:\Program Files\Microsoft Visual Studio\2022\Community\VC\Tools\MSVC\14.44.35207\include\vector
;	COMDAT ??A?$vector@USVictim@CPythonPlayerEventHandler@@V?$allocator@USVictim@CPythonPlayerEventHandler@@@std@@@std@@QAEAAUSVictim@CPythonPlayerEventHandler@@I@Z
_TEXT	SEGMENT
__Pos$ = 8						; size = 4
??A?$vector@USVictim@CPythonPlayerEventHandler@@V?$allocator@USVictim@CPythonPlayerEventHandler@@@std@@@std@@QAEAAUSVictim@CPythonPlayerEventHandler@@I@Z PROC ; std::vector<CPythonPlayerEventHandler::SVictim,std::allocator<CPythonPlayerEventHandler::SVictim> >::operator[], COMDAT
; _this$ = ecx

; 1927 :     _NODISCARD _CONSTEXPR20 _Ty& operator[](const size_type _Pos) noexcept /* strengthened */ {

  00000	55		 push	 ebp
  00001	8b ec		 mov	 ebp, esp

; 1928 :         auto& _My_data = _Mypair._Myval2;
; 1929 : #if _MSVC_STL_HARDENING_VECTOR || _ITERATOR_DEBUG_LEVEL != 0
; 1930 :         _STL_VERIFY(
; 1931 :             _Pos < static_cast<size_type>(_My_data._Mylast - _My_data._Myfirst), "vector subscript out of range");
; 1932 : #endif
; 1933 : 
; 1934 :         return _My_data._Myfirst[_Pos];

  00003	8b 45 08	 mov	 eax, DWORD PTR __Pos$[ebp]
  00006	8d 14 40	 lea	 edx, DWORD PTR [eax+eax*2]
  00009	8b 01		 mov	 eax, DWORD PTR [ecx]
  0000b	8d 04 90	 lea	 eax, DWORD PTR [eax+edx*4]

; 1935 :     }

  0000e	5d		 pop	 ebp
  0000f	c2 04 00	 ret	 4
??A?$vector@USVictim@CPythonPlayerEventHandler@@V?$allocator@USVictim@CPythonPlayerEventHandler@@@std@@@std@@QAEAAUSVictim@CPythonPlayerEventHandler@@I@Z ENDP ; std::vector<CPythonPlayerEventHandler::SVictim,std::allocator<CPythonPlayerEventHandler::SVictim> >::operator[]
_TEXT	ENDS
; Function compile flags: /Ogtp
; File C:\Program Files\Microsoft Visual Studio\2022\Community\VC\Tools\MSVC\14.44.35207\include\vector
;	COMDAT ?size@?$vector@USVictim@CPythonPlayerEventHandler@@V?$allocator@USVictim@CPythonPlayerEventHandler@@@std@@@std@@QBEIXZ
_TEXT	SEGMENT
?size@?$vector@USVictim@CPythonPlayerEventHandler@@V?$allocator@USVictim@CPythonPlayerEventHandler@@@std@@@std@@QBEIXZ PROC ; std::vector<CPythonPlayerEventHandler::SVictim,std::allocator<CPythonPlayerEventHandler::SVictim> >::size, COMDAT
; _this$ = ecx

; 1914 :         auto& _My_data = _Mypair._Myval2;
; 1915 :         return static_cast<size_type>(_My_data._Mylast - _My_data._Myfirst);

  00000	8b 41 04	 mov	 eax, DWORD PTR [ecx+4]
  00003	2b 01		 sub	 eax, DWORD PTR [ecx]
  00005	c1 f8 02	 sar	 eax, 2
  00008	69 c0 ab aa aa
	aa		 imul	 eax, eax, -1431655765

; 1916 :     }

  0000e	c3		 ret	 0
?size@?$vector@USVictim@CPythonPlayerEventHandler@@V?$allocator@USVictim@CPythonPlayerEventHandler@@@std@@@std@@QBEIXZ ENDP ; std::vector<CPythonPlayerEventHandler::SVictim,std::allocator<CPythonPlayerEventHandler::SVictim> >::size
_TEXT	ENDS
; Function compile flags: /Ogtp
; File C:\Program Files\Microsoft Visual Studio\2022\Community\VC\Tools\MSVC\14.44.35207\include\vector
;	COMDAT ?empty@?$vector@USVictim@CPythonPlayerEventHandler@@V?$allocator@USVictim@CPythonPlayerEventHandler@@@std@@@std@@QBE_NXZ
_TEXT	SEGMENT
?empty@?$vector@USVictim@CPythonPlayerEventHandler@@V?$allocator@USVictim@CPythonPlayerEventHandler@@@std@@@std@@QBE_NXZ PROC ; std::vector<CPythonPlayerEventHandler::SVictim,std::allocator<CPythonPlayerEventHandler::SVictim> >::empty, COMDAT
; _this$ = ecx

; 1909 :         auto& _My_data = _Mypair._Myval2;
; 1910 :         return _My_data._Myfirst == _My_data._Mylast;

  00000	8b 01		 mov	 eax, DWORD PTR [ecx]
  00002	3b 41 04	 cmp	 eax, DWORD PTR [ecx+4]
  00005	0f 94 c0	 sete	 al

; 1911 :     }

  00008	c3		 ret	 0
?empty@?$vector@USVictim@CPythonPlayerEventHandler@@V?$allocator@USVictim@CPythonPlayerEventHandler@@@std@@@std@@QBE_NXZ ENDP ; std::vector<CPythonPlayerEventHandler::SVictim,std::allocator<CPythonPlayerEventHandler::SVictim> >::empty
_TEXT	ENDS
; Function compile flags: /Ogtp
; File C:\Program Files\Microsoft Visual Studio\2022\Community\VC\Tools\MSVC\14.44.35207\include\vector
;	COMDAT ?clear@?$vector@USVictim@CPythonPlayerEventHandler@@V?$allocator@USVictim@CPythonPlayerEventHandler@@@std@@@std@@QAEXXZ
_TEXT	SEGMENT
?clear@?$vector@USVictim@CPythonPlayerEventHandler@@V?$allocator@USVictim@CPythonPlayerEventHandler@@@std@@@std@@QAEXXZ PROC ; std::vector<CPythonPlayerEventHandler::SVictim,std::allocator<CPythonPlayerEventHandler::SVictim> >::clear, COMDAT
; _this$ = ecx

; 1808 :         auto& _My_data    = _Mypair._Myval2;
; 1809 :         pointer& _Myfirst = _My_data._Myfirst;
; 1810 :         pointer& _Mylast  = _My_data._Mylast;
; 1811 : 
; 1812 :         if (_Myfirst == _Mylast) { // already empty, nothing to do

  00000	8b 01		 mov	 eax, DWORD PTR [ecx]
  00002	3b 41 04	 cmp	 eax, DWORD PTR [ecx+4]
  00005	74 03		 je	 SHORT $LN1@clear

; 1813 :             // This is an optimization for debug mode: we can avoid taking the debug lock to invalidate iterators.
; 1814 :             // Note that when clearing an empty vector, this will preserve past-the-end iterators, which is allowed by
; 1815 :             // N4950 [sequence.reqmts]/54 "a.clear() [...] may invalidate the past-the-end iterator".
; 1816 :             return;
; 1817 :         }
; 1818 : 
; 1819 :         _My_data._Orphan_all();
; 1820 :         _Destroy_range(_Myfirst, _Mylast, _Getal());
; 1821 :         _ASAN_VECTOR_MODIFY(static_cast<difference_type>(_Myfirst - _Mylast)); // negative when destroying elements
; 1822 :         _Mylast = _Myfirst;

  00007	89 41 04	 mov	 DWORD PTR [ecx+4], eax
$LN1@clear:

; 1823 :     }

  0000a	c3		 ret	 0
?clear@?$vector@USVictim@CPythonPlayerEventHandler@@V?$allocator@USVictim@CPythonPlayerEventHandler@@@std@@@std@@QAEXXZ ENDP ; std::vector<CPythonPlayerEventHandler::SVictim,std::allocator<CPythonPlayerEventHandler::SVictim> >::clear
_TEXT	ENDS
; Function compile flags: /Ogtp
; File C:\Program Files\Microsoft Visual Studio\2022\Community\VC\Tools\MSVC\14.44.35207\include\vector
; File C:\Program Files\Microsoft Visual Studio\2022\Community\VC\Tools\MSVC\14.44.35207\include\xutility
; File C:\Program Files\Microsoft Visual Studio\2022\Community\VC\Tools\MSVC\14.44.35207\include\vector
;	COMDAT ?push_back@?$vector@USVictim@CPythonPlayerEventHandler@@V?$allocator@USVictim@CPythonPlayerEventHandler@@@std@@@std@@QAEXABUSVictim@CPythonPlayerEventHandler@@@Z
_TEXT	SEGMENT
__Val$ = 8						; size = 4
?push_back@?$vector@USVictim@CPythonPlayerEventHandler@@V?$allocator@USVictim@CPythonPlayerEventHandler@@@std@@@std@@QAEXABUSVictim@CPythonPlayerEventHandler@@@Z PROC ; std::vector<CPythonPlayerEventHandler::SVictim,std::allocator<CPythonPlayerEventHandler::SVictim> >::push_back, COMDAT
; _this$ = ecx

; 932  :     _CONSTEXPR20 void push_back(const _Ty& _Val) { // insert element at end, provide strong guarantee

  00000	55		 push	 ebp
  00001	8b ec		 mov	 ebp, esp

; 844  :         if (_Mylast != _My_data._Myend) {

  00003	8b 51 04	 mov	 edx, DWORD PTR [ecx+4]
  00006	3b 51 08	 cmp	 edx, DWORD PTR [ecx+8]
  00009	74 19		 je	 SHORT $LN4@push_back
; File C:\Program Files\Microsoft Visual Studio\2022\Community\VC\Tools\MSVC\14.44.35207\include\xutility

; 476  :         ::new (static_cast<void*>(_STD addressof(_Obj))) _Ty(_STD forward<_Types>(_Args)...);

  0000b	8b 45 08	 mov	 eax, DWORD PTR __Val$[ebp]
  0000e	f3 0f 7e 00	 movq	 xmm0, QWORD PTR [eax]
  00012	8b 40 08	 mov	 eax, DWORD PTR [eax+8]
  00015	66 0f d6 02	 movq	 QWORD PTR [edx], xmm0
  00019	89 42 08	 mov	 DWORD PTR [edx+8], eax
; File C:\Program Files\Microsoft Visual Studio\2022\Community\VC\Tools\MSVC\14.44.35207\include\vector

; 869  :         ++_Mylast;

  0001c	83 41 04 0c	 add	 DWORD PTR [ecx+4], 12	; 0000000cH

; 933  :         _Emplace_one_at_back(_Val);
; 934  :     }

  00020	5d		 pop	 ebp
  00021	c2 04 00	 ret	 4
$LN4@push_back:

; 848  :         return *_Emplace_reallocate(_Mylast, _STD forward<_Valty>(_Val)...);

  00024	ff 75 08	 push	 DWORD PTR __Val$[ebp]
  00027	52		 push	 edx
  00028	e8 00 00 00 00	 call	 ??$_Emplace_reallocate@ABUSVictim@CPythonPlayerEventHandler@@@?$vector@USVictim@CPythonPlayerEventHandler@@V?$allocator@USVictim@CPythonPlayerEventHandler@@@std@@@std@@AAEPAUSVictim@CPythonPlayerEventHandler@@QAU23@ABU23@@Z ; std::vector<CPythonPlayerEventHandler::SVictim,std::allocator<CPythonPlayerEventHandler::SVictim> >::_Emplace_reallocate<CPythonPlayerEventHandler::SVictim const &>

; 933  :         _Emplace_one_at_back(_Val);
; 934  :     }

  0002d	5d		 pop	 ebp
  0002e	c2 04 00	 ret	 4
?push_back@?$vector@USVictim@CPythonPlayerEventHandler@@V?$allocator@USVictim@CPythonPlayerEventHandler@@@std@@@std@@QAEXABUSVictim@CPythonPlayerEventHandler@@@Z ENDP ; std::vector<CPythonPlayerEventHandler::SVictim,std::allocator<CPythonPlayerEventHandler::SVictim> >::push_back
_TEXT	ENDS
; Function compile flags: /Ogtp
; File C:\Program Files\Microsoft Visual Studio\2022\Community\VC\Tools\MSVC\14.44.35207\include\vector
; File C:\Program Files\Microsoft Visual Studio\2022\Community\VC\Tools\MSVC\14.44.35207\include\xmemory
; File C:\Program Files\Microsoft Visual Studio\2022\Community\VC\Tools\MSVC\14.44.35207\include\vector
; File C:\Program Files\Microsoft Visual Studio\2022\Community\VC\Tools\MSVC\14.44.35207\include\xmemory
; File C:\Program Files\Microsoft Visual Studio\2022\Community\VC\Tools\MSVC\14.44.35207\include\vector
; File C:\Program Files\Microsoft Visual Studio\2022\Community\VC\Tools\MSVC\14.44.35207\include\xmemory
; File C:\Program Files\Microsoft Visual Studio\2022\Community\VC\Tools\MSVC\14.44.35207\include\vector
;	COMDAT ??1?$vector@USVictim@CPythonPlayerEventHandler@@V?$allocator@USVictim@CPythonPlayerEventHandler@@@std@@@std@@QAE@XZ
_TEXT	SEGMENT
??1?$vector@USVictim@CPythonPlayerEventHandler@@V?$allocator@USVictim@CPythonPlayerEventHandler@@@std@@@std@@QAE@XZ PROC ; std::vector<CPythonPlayerEventHandler::SVictim,std::allocator<CPythonPlayerEventHandler::SVictim> >::~vector<CPythonPlayerEventHandler::SVictim,std::allocator<CPythonPlayerEventHandler::SVictim> >, COMDAT
; _this$ = ecx

; 829  :     _CONSTEXPR20 ~vector() noexcept {

  00000	56		 push	 esi
  00001	8b f1		 mov	 esi, ecx

; 2090 :         if (_Myfirst) { // destroy and deallocate old array

  00003	8b 16		 mov	 edx, DWORD PTR [esi]
  00005	85 d2		 test	 edx, edx
  00007	74 4e		 je	 SHORT $LN5@vector

; 2091 :             _STD _Destroy_range(_Myfirst, _Mylast, _Al);
; 2092 :             _ASAN_VECTOR_REMOVE;
; 2093 :             _Al.deallocate(_Myfirst, static_cast<size_type>(_Myend - _Myfirst));

  00009	8b 46 08	 mov	 eax, DWORD PTR [esi+8]
  0000c	2b c2		 sub	 eax, edx
  0000e	c1 f8 02	 sar	 eax, 2
  00011	69 c0 ab aa aa
	aa		 imul	 eax, eax, -1431655765
; File C:\Program Files\Microsoft Visual Studio\2022\Community\VC\Tools\MSVC\14.44.35207\include\xmemory

; 985  :         _STD _Deallocate<_New_alignof<_Ty>>(_Ptr, sizeof(_Ty) * _Count);

  00017	8d 0c 40	 lea	 ecx, DWORD PTR [eax+eax*2]
  0001a	c1 e1 02	 shl	 ecx, 2

; 284  :         if (_Bytes >= _Big_allocation_threshold) {

  0001d	81 f9 00 10 00
	00		 cmp	 ecx, 4096		; 00001000H
  00023	72 14		 jb	 SHORT $LN19@vector
  00025	57		 push	 edi

; 205  :     const uintptr_t _Ptr_container   = _Ptr_user[-1];

  00026	8b 7a fc	 mov	 edi, DWORD PTR [edx-4]
  00029	83 c1 23	 add	 ecx, 35			; 00000023H

; 206  : 
; 207  :     // If the following asserts, it likely means that we are performing
; 208  :     // an aligned delete on memory coming from an unaligned allocation.
; 209  :     _STL_ASSERT(_Ptr_user[-2] == _Big_allocation_sentinel, "invalid argument");
; 210  : 
; 211  :     // Extra paranoia on aligned allocation/deallocation; ensure _Ptr_container is
; 212  :     // in range [_Min_back_shift, _Non_user_size]
; 213  : #ifdef _DEBUG
; 214  :     constexpr uintptr_t _Min_back_shift = 2 * sizeof(void*);
; 215  : #else // ^^^ defined(_DEBUG) / !defined(_DEBUG) vvv
; 216  :     constexpr uintptr_t _Min_back_shift = sizeof(void*);
; 217  : #endif // ^^^ !defined(_DEBUG) ^^^
; 218  :     const uintptr_t _Back_shift = reinterpret_cast<uintptr_t>(_Ptr) - _Ptr_container;

  0002c	2b d7		 sub	 edx, edi

; 219  :     _STL_VERIFY(_Back_shift >= _Min_back_shift && _Back_shift <= _Non_user_size, "invalid argument");

  0002e	8d 42 fc	 lea	 eax, DWORD PTR [edx-4]
  00031	83 f8 1f	 cmp	 eax, 31			; 0000001fH
  00034	77 23		 ja	 SHORT $LN18@vector

; 220  :     _Ptr = reinterpret_cast<void*>(_Ptr_container);

  00036	8b d7		 mov	 edx, edi
  00038	5f		 pop	 edi
$LN19@vector:

; 289  :         ::operator delete(_Ptr, _Bytes);

  00039	51		 push	 ecx
  0003a	52		 push	 edx
  0003b	e8 00 00 00 00	 call	 ??3@YAXPAXI@Z		; operator delete
; File C:\Program Files\Microsoft Visual Studio\2022\Community\VC\Tools\MSVC\14.44.35207\include\vector

; 2095 :             _Myfirst = nullptr;

  00040	c7 06 00 00 00
	00		 mov	 DWORD PTR [esi], 0
; File C:\Program Files\Microsoft Visual Studio\2022\Community\VC\Tools\MSVC\14.44.35207\include\xmemory

; 289  :         ::operator delete(_Ptr, _Bytes);

  00046	83 c4 08	 add	 esp, 8
; File C:\Program Files\Microsoft Visual Studio\2022\Community\VC\Tools\MSVC\14.44.35207\include\vector

; 2096 :             _Mylast  = nullptr;

  00049	c7 46 04 00 00
	00 00		 mov	 DWORD PTR [esi+4], 0

; 2097 :             _Myend   = nullptr;

  00050	c7 46 08 00 00
	00 00		 mov	 DWORD PTR [esi+8], 0
$LN5@vector:
  00057	5e		 pop	 esi

; 835  :     }

  00058	c3		 ret	 0
$LN18@vector:
; File C:\Program Files\Microsoft Visual Studio\2022\Community\VC\Tools\MSVC\14.44.35207\include\xmemory

; 219  :     _STL_VERIFY(_Back_shift >= _Min_back_shift && _Back_shift <= _Non_user_size, "invalid argument");

  00059	6a 00		 push	 0
  0005b	6a 00		 push	 0
  0005d	6a 00		 push	 0
  0005f	6a 00		 push	 0
  00061	6a 00		 push	 0
  00063	e8 00 00 00 00	 call	 __invoke_watson
$LN27@vector:
  00068	cc		 int	 3
??1?$vector@USVictim@CPythonPlayerEventHandler@@V?$allocator@USVictim@CPythonPlayerEventHandler@@@std@@@std@@QAE@XZ ENDP ; std::vector<CPythonPlayerEventHandler::SVictim,std::allocator<CPythonPlayerEventHandler::SVictim> >::~vector<CPythonPlayerEventHandler::SVictim,std::allocator<CPythonPlayerEventHandler::SVictim> >
_TEXT	ENDS
; Function compile flags: /Ogtp
; File C:\Program Files\Microsoft Visual Studio\2022\Community\VC\Tools\MSVC\14.44.35207\include\vector
;	COMDAT ??0?$vector@USVictim@CPythonPlayerEventHandler@@V?$allocator@USVictim@CPythonPlayerEventHandler@@@std@@@std@@QAE@XZ
_TEXT	SEGMENT
??0?$vector@USVictim@CPythonPlayerEventHandler@@V?$allocator@USVictim@CPythonPlayerEventHandler@@@std@@@std@@QAE@XZ PROC ; std::vector<CPythonPlayerEventHandler::SVictim,std::allocator<CPythonPlayerEventHandler::SVictim> >::vector<CPythonPlayerEventHandler::SVictim,std::allocator<CPythonPlayerEventHandler::SVictim> >, COMDAT
; _this$ = ecx

; 400  :     _CONSTEXPR20 _Vector_val() noexcept : _Myfirst(), _Mylast(), _Myend() {}

  00000	c7 01 00 00 00
	00		 mov	 DWORD PTR [ecx], 0

; 671  :         _Mypair._Myval2._Alloc_proxy(_GET_PROXY_ALLOCATOR(_Alty, _Getal()));
; 672  :     }

  00006	8b c1		 mov	 eax, ecx

; 400  :     _CONSTEXPR20 _Vector_val() noexcept : _Myfirst(), _Mylast(), _Myend() {}

  00008	c7 41 04 00 00
	00 00		 mov	 DWORD PTR [ecx+4], 0
  0000f	c7 41 08 00 00
	00 00		 mov	 DWORD PTR [ecx+8], 0

; 671  :         _Mypair._Myval2._Alloc_proxy(_GET_PROXY_ALLOCATOR(_Alty, _Getal()));
; 672  :     }

  00016	c3		 ret	 0
??0?$vector@USVictim@CPythonPlayerEventHandler@@V?$allocator@USVictim@CPythonPlayerEventHandler@@@std@@@std@@QAE@XZ ENDP ; std::vector<CPythonPlayerEventHandler::SVictim,std::allocator<CPythonPlayerEventHandler::SVictim> >::vector<CPythonPlayerEventHandler::SVictim,std::allocator<CPythonPlayerEventHandler::SVictim> >
_TEXT	ENDS
; Function compile flags: /Ogtp
; File C:\Program Files\Microsoft Visual Studio\2022\Community\VC\Tools\MSVC\14.44.35207\include\xmemory
;	COMDAT ??$_Destroy_range@V?$allocator@USVictim@CPythonPlayerEventHandler@@@std@@@std@@YAXPAUSVictim@CPythonPlayerEventHandler@@QAU12@AAV?$allocator@USVictim@CPythonPlayerEventHandler@@@0@@Z
_TEXT	SEGMENT
__Al$dead$ = 8						; size = 4
??$_Destroy_range@V?$allocator@USVictim@CPythonPlayerEventHandler@@@std@@@std@@YAXPAUSVictim@CPythonPlayerEventHandler@@QAU12@AAV?$allocator@USVictim@CPythonPlayerEventHandler@@@0@@Z PROC ; std::_Destroy_range<std::allocator<CPythonPlayerEventHandler::SVictim> >, COMDAT
; __First$dead$ = ecx
; __Last$dead$ = edx

; 1099 :     // note that this is an optimization for debug mode codegen; in release mode the BE removes all of this
; 1100 :     using _Ty = typename _Alloc::value_type;
; 1101 :     if constexpr (!conjunction_v<is_trivially_destructible<_Ty>, _Uses_default_destroy<_Alloc, _Ty*>>) {
; 1102 :         for (; _First != _Last; ++_First) {
; 1103 :             allocator_traits<_Alloc>::destroy(_Al, _STD _Unfancy(_First));
; 1104 :         }
; 1105 :     }
; 1106 : }

  00000	c2 00 00	 ret	 0
??$_Destroy_range@V?$allocator@USVictim@CPythonPlayerEventHandler@@@std@@@std@@YAXPAUSVictim@CPythonPlayerEventHandler@@QAU12@AAV?$allocator@USVictim@CPythonPlayerEventHandler@@@0@@Z ENDP ; std::_Destroy_range<std::allocator<CPythonPlayerEventHandler::SVictim> >
_TEXT	ENDS
; Function compile flags: /Ogtp
; File C:\Program Files\Microsoft Visual Studio\2022\Community\VC\Tools\MSVC\14.44.35207\include\vector
; File C:\Program Files\Microsoft Visual Studio\2022\Community\VC\Tools\MSVC\14.44.35207\include\xutility
; File C:\Program Files\Microsoft Visual Studio\2022\Community\VC\Tools\MSVC\14.44.35207\include\vector
;	COMDAT ??$_Emplace_one_at_back@ABUSVictim@CPythonPlayerEventHandler@@@?$vector@USVictim@CPythonPlayerEventHandler@@V?$allocator@USVictim@CPythonPlayerEventHandler@@@std@@@std@@AAEAAUSVictim@CPythonPlayerEventHandler@@ABU23@@Z
_TEXT	SEGMENT
_<_Val_0>$ = 8						; size = 4
??$_Emplace_one_at_back@ABUSVictim@CPythonPlayerEventHandler@@@?$vector@USVictim@CPythonPlayerEventHandler@@V?$allocator@USVictim@CPythonPlayerEventHandler@@@std@@@std@@AAEAAUSVictim@CPythonPlayerEventHandler@@ABU23@@Z PROC ; std::vector<CPythonPlayerEventHandler::SVictim,std::allocator<CPythonPlayerEventHandler::SVictim> >::_Emplace_one_at_back<CPythonPlayerEventHandler::SVictim const &>, COMDAT
; _this$ = ecx

; 839  :     _CONSTEXPR20 _Ty& _Emplace_one_at_back(_Valty&&... _Val) {

  00000	55		 push	 ebp
  00001	8b ec		 mov	 ebp, esp
  00003	8b d1		 mov	 edx, ecx

; 840  :         // insert by perfectly forwarding into element at end, provide strong guarantee
; 841  :         auto& _My_data   = _Mypair._Myval2;
; 842  :         pointer& _Mylast = _My_data._Mylast;
; 843  : 
; 844  :         if (_Mylast != _My_data._Myend) {

  00005	8b 4a 04	 mov	 ecx, DWORD PTR [edx+4]
  00008	3b 4a 08	 cmp	 ecx, DWORD PTR [edx+8]
  0000b	74 1e		 je	 SHORT $LN2@Emplace_on
; File C:\Program Files\Microsoft Visual Studio\2022\Community\VC\Tools\MSVC\14.44.35207\include\xutility

; 476  :         ::new (static_cast<void*>(_STD addressof(_Obj))) _Ty(_STD forward<_Types>(_Args)...);

  0000d	8b 45 08	 mov	 eax, DWORD PTR _<_Val_0>$[ebp]
  00010	f3 0f 7e 00	 movq	 xmm0, QWORD PTR [eax]
  00014	8b 40 08	 mov	 eax, DWORD PTR [eax+8]
  00017	66 0f d6 01	 movq	 QWORD PTR [ecx], xmm0
  0001b	89 41 08	 mov	 DWORD PTR [ecx+8], eax
; File C:\Program Files\Microsoft Visual Studio\2022\Community\VC\Tools\MSVC\14.44.35207\include\vector

; 868  :         _Ty& _Result = *_Mylast;

  0001e	8b 42 04	 mov	 eax, DWORD PTR [edx+4]

; 869  :         ++_Mylast;

  00021	8d 48 0c	 lea	 ecx, DWORD PTR [eax+12]
  00024	89 4a 04	 mov	 DWORD PTR [edx+4], ecx

; 849  :     }

  00027	5d		 pop	 ebp
  00028	c2 04 00	 ret	 4
$LN2@Emplace_on:

; 845  :             return _Emplace_back_with_unused_capacity(_STD forward<_Valty>(_Val)...);
; 846  :         }
; 847  : 
; 848  :         return *_Emplace_reallocate(_Mylast, _STD forward<_Valty>(_Val)...);

  0002b	ff 75 08	 push	 DWORD PTR _<_Val_0>$[ebp]
  0002e	51		 push	 ecx
  0002f	8b ca		 mov	 ecx, edx
  00031	e8 00 00 00 00	 call	 ??$_Emplace_reallocate@ABUSVictim@CPythonPlayerEventHandler@@@?$vector@USVictim@CPythonPlayerEventHandler@@V?$allocator@USVictim@CPythonPlayerEventHandler@@@std@@@std@@AAEPAUSVictim@CPythonPlayerEventHandler@@QAU23@ABU23@@Z ; std::vector<CPythonPlayerEventHandler::SVictim,std::allocator<CPythonPlayerEventHandler::SVictim> >::_Emplace_reallocate<CPythonPlayerEventHandler::SVictim const &>

; 849  :     }

  00036	5d		 pop	 ebp
  00037	c2 04 00	 ret	 4
??$_Emplace_one_at_back@ABUSVictim@CPythonPlayerEventHandler@@@?$vector@USVictim@CPythonPlayerEventHandler@@V?$allocator@USVictim@CPythonPlayerEventHandler@@@std@@@std@@AAEAAUSVictim@CPythonPlayerEventHandler@@ABU23@@Z ENDP ; std::vector<CPythonPlayerEventHandler::SVictim,std::allocator<CPythonPlayerEventHandler::SVictim> >::_Emplace_one_at_back<CPythonPlayerEventHandler::SVictim const &>
_TEXT	ENDS
; Function compile flags: /Ogtp
; File C:\Program Files\Microsoft Visual Studio\2022\Community\VC\Tools\MSVC\14.44.35207\include\xmemory
; File C:\Program Files\Microsoft Visual Studio\2022\Community\VC\Tools\MSVC\14.44.35207\include\vector
; File C:\Program Files\Microsoft Visual Studio\2022\Community\VC\Tools\MSVC\14.44.35207\include\xmemory
; File C:\Program Files\Microsoft Visual Studio\2022\Community\VC\Tools\MSVC\14.44.35207\include\vector
; File C:\Program Files\Microsoft Visual Studio\2022\Community\VC\Tools\MSVC\14.44.35207\include\xmemory
;	COMDAT ??$?0$$V@?$_Compressed_pair@V?$allocator@USVictim@CPythonPlayerEventHandler@@@std@@V?$_Vector_val@U?$_Simple_types@USVictim@CPythonPlayerEventHandler@@@std@@@2@$00@std@@QAE@U_Zero_then_variadic_args_t@1@@Z
_TEXT	SEGMENT
___formal$ = 8						; size = 1
??$?0$$V@?$_Compressed_pair@V?$allocator@USVictim@CPythonPlayerEventHandler@@@std@@V?$_Vector_val@U?$_Simple_types@USVictim@CPythonPlayerEventHandler@@@std@@@2@$00@std@@QAE@U_Zero_then_variadic_args_t@1@@Z PROC ; std::_Compressed_pair<std::allocator<CPythonPlayerEventHandler::SVictim>,std::_Vector_val<std::_Simple_types<CPythonPlayerEventHandler::SVictim> >,1>::_Compressed_pair<std::allocator<CPythonPlayerEventHandler::SVictim>,std::_Vector_val<std::_Simple_types<CPythonPlayerEventHandler::SVictim> >,1><>, COMDAT
; _this$ = ecx
; File C:\Program Files\Microsoft Visual Studio\2022\Community\VC\Tools\MSVC\14.44.35207\include\vector

; 400  :     _CONSTEXPR20 _Vector_val() noexcept : _Myfirst(), _Mylast(), _Myend() {}

  00000	c7 01 00 00 00
	00		 mov	 DWORD PTR [ecx], 0
; File C:\Program Files\Microsoft Visual Studio\2022\Community\VC\Tools\MSVC\14.44.35207\include\xmemory

; 1531 :         : _Ty1(), _Myval2(_STD forward<_Other2>(_Val2)...) {}

  00006	8b c1		 mov	 eax, ecx
; File C:\Program Files\Microsoft Visual Studio\2022\Community\VC\Tools\MSVC\14.44.35207\include\vector

; 400  :     _CONSTEXPR20 _Vector_val() noexcept : _Myfirst(), _Mylast(), _Myend() {}

  00008	c7 41 04 00 00
	00 00		 mov	 DWORD PTR [ecx+4], 0
  0000f	c7 41 08 00 00
	00 00		 mov	 DWORD PTR [ecx+8], 0
; File C:\Program Files\Microsoft Visual Studio\2022\Community\VC\Tools\MSVC\14.44.35207\include\xmemory

; 1531 :         : _Ty1(), _Myval2(_STD forward<_Other2>(_Val2)...) {}

  00016	c2 04 00	 ret	 4
??$?0$$V@?$_Compressed_pair@V?$allocator@USVictim@CPythonPlayerEventHandler@@@std@@V?$_Vector_val@U?$_Simple_types@USVictim@CPythonPlayerEventHandler@@@std@@@2@$00@std@@QAE@U_Zero_then_variadic_args_t@1@@Z ENDP ; std::_Compressed_pair<std::allocator<CPythonPlayerEventHandler::SVictim>,std::_Vector_val<std::_Simple_types<CPythonPlayerEventHandler::SVictim> >,1>::_Compressed_pair<std::allocator<CPythonPlayerEventHandler::SVictim>,std::_Vector_val<std::_Simple_types<CPythonPlayerEventHandler::SVictim> >,1><>
_TEXT	ENDS
; Function compile flags: /Ogtp
; File C:\Program Files\Microsoft Visual Studio\2022\Community\VC\Tools\MSVC\14.44.35207\include\vector
;	COMDAT ?_Getal@?$vector@USVictim@CPythonPlayerEventHandler@@V?$allocator@USVictim@CPythonPlayerEventHandler@@@std@@@std@@AAEAAV?$allocator@USVictim@CPythonPlayerEventHandler@@@2@XZ
_TEXT	SEGMENT
?_Getal@?$vector@USVictim@CPythonPlayerEventHandler@@V?$allocator@USVictim@CPythonPlayerEventHandler@@@std@@@std@@AAEAAV?$allocator@USVictim@CPythonPlayerEventHandler@@@2@XZ PROC ; std::vector<CPythonPlayerEventHandler::SVictim,std::allocator<CPythonPlayerEventHandler::SVictim> >::_Getal, COMDAT
; _this$ = ecx

; 2227 :         return _Mypair._Get_first();

  00000	8b c1		 mov	 eax, ecx

; 2228 :     }

  00002	c3		 ret	 0
?_Getal@?$vector@USVictim@CPythonPlayerEventHandler@@V?$allocator@USVictim@CPythonPlayerEventHandler@@@std@@@std@@AAEAAV?$allocator@USVictim@CPythonPlayerEventHandler@@@2@XZ ENDP ; std::vector<CPythonPlayerEventHandler::SVictim,std::allocator<CPythonPlayerEventHandler::SVictim> >::_Getal
_TEXT	ENDS
; Function compile flags: /Ogtp
; File C:\Program Files\Microsoft Visual Studio\2022\Community\VC\Tools\MSVC\14.44.35207\include\vector
; File C:\Program Files\Microsoft Visual Studio\2022\Community\VC\Tools\MSVC\14.44.35207\include\xmemory
; File C:\Program Files\Microsoft Visual Studio\2022\Community\VC\Tools\MSVC\14.44.35207\include\vector
; File C:\Program Files\Microsoft Visual Studio\2022\Community\VC\Tools\MSVC\14.44.35207\include\xmemory
; File C:\Program Files\Microsoft Visual Studio\2022\Community\VC\Tools\MSVC\14.44.35207\include\vector
; File C:\Program Files\Microsoft Visual Studio\2022\Community\VC\Tools\MSVC\14.44.35207\include\xmemory
; File C:\Program Files\Microsoft Visual Studio\2022\Community\VC\Tools\MSVC\14.44.35207\include\vector
;	COMDAT ?_Tidy@?$vector@USVictim@CPythonPlayerEventHandler@@V?$allocator@USVictim@CPythonPlayerEventHandler@@@std@@@std@@AAEXXZ
_TEXT	SEGMENT
?_Tidy@?$vector@USVictim@CPythonPlayerEventHandler@@V?$allocator@USVictim@CPythonPlayerEventHandler@@@std@@@std@@AAEXXZ PROC ; std::vector<CPythonPlayerEventHandler::SVictim,std::allocator<CPythonPlayerEventHandler::SVictim> >::_Tidy, COMDAT
; _this$ = ecx

; 2081 :     _CONSTEXPR20 void _Tidy() noexcept { // free all storage

  00000	56		 push	 esi
  00001	8b f1		 mov	 esi, ecx

; 2082 :         auto& _Al         = _Getal();
; 2083 :         auto& _My_data    = _Mypair._Myval2;
; 2084 :         pointer& _Myfirst = _My_data._Myfirst;
; 2085 :         pointer& _Mylast  = _My_data._Mylast;
; 2086 :         pointer& _Myend   = _My_data._Myend;
; 2087 : 
; 2088 :         _My_data._Orphan_all();
; 2089 : 
; 2090 :         if (_Myfirst) { // destroy and deallocate old array

  00003	8b 16		 mov	 edx, DWORD PTR [esi]
  00005	85 d2		 test	 edx, edx
  00007	74 4e		 je	 SHORT $LN2@Tidy

; 2091 :             _STD _Destroy_range(_Myfirst, _Mylast, _Al);
; 2092 :             _ASAN_VECTOR_REMOVE;
; 2093 :             _Al.deallocate(_Myfirst, static_cast<size_type>(_Myend - _Myfirst));

  00009	8b 46 08	 mov	 eax, DWORD PTR [esi+8]
  0000c	2b c2		 sub	 eax, edx
  0000e	c1 f8 02	 sar	 eax, 2
  00011	69 c0 ab aa aa
	aa		 imul	 eax, eax, -1431655765
; File C:\Program Files\Microsoft Visual Studio\2022\Community\VC\Tools\MSVC\14.44.35207\include\xmemory

; 985  :         _STD _Deallocate<_New_alignof<_Ty>>(_Ptr, sizeof(_Ty) * _Count);

  00017	8d 0c 40	 lea	 ecx, DWORD PTR [eax+eax*2]
  0001a	c1 e1 02	 shl	 ecx, 2

; 284  :         if (_Bytes >= _Big_allocation_threshold) {

  0001d	81 f9 00 10 00
	00		 cmp	 ecx, 4096		; 00001000H
  00023	72 14		 jb	 SHORT $LN16@Tidy
  00025	57		 push	 edi

; 205  :     const uintptr_t _Ptr_container   = _Ptr_user[-1];

  00026	8b 7a fc	 mov	 edi, DWORD PTR [edx-4]
  00029	83 c1 23	 add	 ecx, 35			; 00000023H

; 206  : 
; 207  :     // If the following asserts, it likely means that we are performing
; 208  :     // an aligned delete on memory coming from an unaligned allocation.
; 209  :     _STL_ASSERT(_Ptr_user[-2] == _Big_allocation_sentinel, "invalid argument");
; 210  : 
; 211  :     // Extra paranoia on aligned allocation/deallocation; ensure _Ptr_container is
; 212  :     // in range [_Min_back_shift, _Non_user_size]
; 213  : #ifdef _DEBUG
; 214  :     constexpr uintptr_t _Min_back_shift = 2 * sizeof(void*);
; 215  : #else // ^^^ defined(_DEBUG) / !defined(_DEBUG) vvv
; 216  :     constexpr uintptr_t _Min_back_shift = sizeof(void*);
; 217  : #endif // ^^^ !defined(_DEBUG) ^^^
; 218  :     const uintptr_t _Back_shift = reinterpret_cast<uintptr_t>(_Ptr) - _Ptr_container;

  0002c	2b d7		 sub	 edx, edi

; 219  :     _STL_VERIFY(_Back_shift >= _Min_back_shift && _Back_shift <= _Non_user_size, "invalid argument");

  0002e	8d 42 fc	 lea	 eax, DWORD PTR [edx-4]
  00031	83 f8 1f	 cmp	 eax, 31			; 0000001fH
  00034	77 23		 ja	 SHORT $LN15@Tidy

; 220  :     _Ptr = reinterpret_cast<void*>(_Ptr_container);

  00036	8b d7		 mov	 edx, edi
  00038	5f		 pop	 edi
$LN16@Tidy:

; 289  :         ::operator delete(_Ptr, _Bytes);

  00039	51		 push	 ecx
  0003a	52		 push	 edx
  0003b	e8 00 00 00 00	 call	 ??3@YAXPAXI@Z		; operator delete
; File C:\Program Files\Microsoft Visual Studio\2022\Community\VC\Tools\MSVC\14.44.35207\include\vector

; 2095 :             _Myfirst = nullptr;

  00040	c7 06 00 00 00
	00		 mov	 DWORD PTR [esi], 0
; File C:\Program Files\Microsoft Visual Studio\2022\Community\VC\Tools\MSVC\14.44.35207\include\xmemory

; 289  :         ::operator delete(_Ptr, _Bytes);

  00046	83 c4 08	 add	 esp, 8
; File C:\Program Files\Microsoft Visual Studio\2022\Community\VC\Tools\MSVC\14.44.35207\include\vector

; 2096 :             _Mylast  = nullptr;

  00049	c7 46 04 00 00
	00 00		 mov	 DWORD PTR [esi+4], 0

; 2097 :             _Myend   = nullptr;

  00050	c7 46 08 00 00
	00 00		 mov	 DWORD PTR [esi+8], 0
$LN2@Tidy:

; 2099 :     }

  00057	5e		 pop	 esi
  00058	c3		 ret	 0
$LN15@Tidy:
; File C:\Program Files\Microsoft Visual Studio\2022\Community\VC\Tools\MSVC\14.44.35207\include\xmemory

; 219  :     _STL_VERIFY(_Back_shift >= _Min_back_shift && _Back_shift <= _Non_user_size, "invalid argument");

  00059	6a 00		 push	 0
  0005b	6a 00		 push	 0
  0005d	6a 00		 push	 0
  0005f	6a 00		 push	 0
  00061	6a 00		 push	 0
  00063	e8 00 00 00 00	 call	 __invoke_watson
$LN23@Tidy:
  00068	cc		 int	 3
?_Tidy@?$vector@USVictim@CPythonPlayerEventHandler@@V?$allocator@USVictim@CPythonPlayerEventHandler@@@std@@@std@@AAEXXZ ENDP ; std::vector<CPythonPlayerEventHandler::SVictim,std::allocator<CPythonPlayerEventHandler::SVictim> >::_Tidy
_TEXT	ENDS
; Function compile flags: /Ogtp
; File C:\Program Files\Microsoft Visual Studio\2022\Community\VC\Tools\MSVC\14.44.35207\include\type_traits
;	COMDAT ??$forward@ABUSVictim@CPythonPlayerEventHandler@@@std@@YAABUSVictim@CPythonPlayerEventHandler@@ABU12@@Z
_TEXT	SEGMENT
??$forward@ABUSVictim@CPythonPlayerEventHandler@@@std@@YAABUSVictim@CPythonPlayerEventHandler@@ABU12@@Z PROC ; std::forward<CPythonPlayerEventHandler::SVictim const &>, COMDAT
; __Arg$ = ecx

; 1502 :     return static_cast<_Ty&&>(_Arg);

  00000	8b c1		 mov	 eax, ecx

; 1503 : }

  00002	c3		 ret	 0
??$forward@ABUSVictim@CPythonPlayerEventHandler@@@std@@YAABUSVictim@CPythonPlayerEventHandler@@ABU12@@Z ENDP ; std::forward<CPythonPlayerEventHandler::SVictim const &>
_TEXT	ENDS
; Function compile flags: /Ogtp
; File C:\Program Files\Microsoft Visual Studio\2022\Community\VC\Tools\MSVC\14.44.35207\include\vector
; File C:\Program Files\Microsoft Visual Studio\2022\Community\VC\Tools\MSVC\14.44.35207\include\xutility
; File C:\Program Files\Microsoft Visual Studio\2022\Community\VC\Tools\MSVC\14.44.35207\include\vector
; File C:\Program Files\Microsoft Visual Studio\2022\Community\VC\Tools\MSVC\14.44.35207\include\xutility
; File C:\Program Files\Microsoft Visual Studio\2022\Community\VC\Tools\MSVC\14.44.35207\include\vector
; File C:\Program Files\Microsoft Visual Studio\2022\Community\VC\Tools\MSVC\14.44.35207\include\xutility
; File C:\Program Files\Microsoft Visual Studio\2022\Community\VC\Tools\MSVC\14.44.35207\include\vector
;	COMDAT ??$_Emplace_back_with_unused_capacity@ABUSVictim@CPythonPlayerEventHandler@@@?$vector@USVictim@CPythonPlayerEventHandler@@V?$allocator@USVictim@CPythonPlayerEventHandler@@@std@@@std@@AAEAAUSVictim@CPythonPlayerEventHandler@@ABU23@@Z
_TEXT	SEGMENT
_<_Val_0>$ = 8						; size = 4
??$_Emplace_back_with_unused_capacity@ABUSVictim@CPythonPlayerEventHandler@@@?$vector@USVictim@CPythonPlayerEventHandler@@V?$allocator@USVictim@CPythonPlayerEventHandler@@@std@@@std@@AAEAAUSVictim@CPythonPlayerEventHandler@@ABU23@@Z PROC ; std::vector<CPythonPlayerEventHandler::SVictim,std::allocator<CPythonPlayerEventHandler::SVictim> >::_Emplace_back_with_unused_capacity<CPythonPlayerEventHandler::SVictim const &>, COMDAT
; _this$ = ecx

; 852  :     _CONSTEXPR20 _Ty& _Emplace_back_with_unused_capacity(_Valty&&... _Val) {

  00000	55		 push	 ebp
  00001	8b ec		 mov	 ebp, esp
; File C:\Program Files\Microsoft Visual Studio\2022\Community\VC\Tools\MSVC\14.44.35207\include\xutility

; 476  :         ::new (static_cast<void*>(_STD addressof(_Obj))) _Ty(_STD forward<_Types>(_Args)...);

  00003	8b 45 08	 mov	 eax, DWORD PTR _<_Val_0>$[ebp]
; File C:\Program Files\Microsoft Visual Studio\2022\Community\VC\Tools\MSVC\14.44.35207\include\vector

; 852  :     _CONSTEXPR20 _Ty& _Emplace_back_with_unused_capacity(_Valty&&... _Val) {

  00006	56		 push	 esi
  00007	8b f1		 mov	 esi, ecx
; File C:\Program Files\Microsoft Visual Studio\2022\Community\VC\Tools\MSVC\14.44.35207\include\xutility

; 476  :         ::new (static_cast<void*>(_STD addressof(_Obj))) _Ty(_STD forward<_Types>(_Args)...);

  00009	f3 0f 7e 00	 movq	 xmm0, QWORD PTR [eax]
  0000d	8b 40 08	 mov	 eax, DWORD PTR [eax+8]
; File C:\Program Files\Microsoft Visual Studio\2022\Community\VC\Tools\MSVC\14.44.35207\include\vector

; 860  :             _STD _Construct_in_place(*_Mylast, _STD forward<_Valty>(_Val)...);

  00010	8b 56 04	 mov	 edx, DWORD PTR [esi+4]
; File C:\Program Files\Microsoft Visual Studio\2022\Community\VC\Tools\MSVC\14.44.35207\include\xutility

; 476  :         ::new (static_cast<void*>(_STD addressof(_Obj))) _Ty(_STD forward<_Types>(_Args)...);

  00013	66 0f d6 02	 movq	 QWORD PTR [edx], xmm0
  00017	89 42 08	 mov	 DWORD PTR [edx+8], eax
; File C:\Program Files\Microsoft Visual Studio\2022\Community\VC\Tools\MSVC\14.44.35207\include\vector

; 868  :         _Ty& _Result = *_Mylast;

  0001a	8b 46 04	 mov	 eax, DWORD PTR [esi+4]

; 869  :         ++_Mylast;

  0001d	8d 48 0c	 lea	 ecx, DWORD PTR [eax+12]
  00020	89 4e 04	 mov	 DWORD PTR [esi+4], ecx

; 870  : 
; 871  :         return _Result;

  00023	5e		 pop	 esi

; 872  :     }

  00024	5d		 pop	 ebp
  00025	c2 04 00	 ret	 4
??$_Emplace_back_with_unused_capacity@ABUSVictim@CPythonPlayerEventHandler@@@?$vector@USVictim@CPythonPlayerEventHandler@@V?$allocator@USVictim@CPythonPlayerEventHandler@@@std@@@std@@AAEAAUSVictim@CPythonPlayerEventHandler@@ABU23@@Z ENDP ; std::vector<CPythonPlayerEventHandler::SVictim,std::allocator<CPythonPlayerEventHandler::SVictim> >::_Emplace_back_with_unused_capacity<CPythonPlayerEventHandler::SVictim const &>
_TEXT	ENDS
; Function compile flags: /Ogtp
; File C:\Program Files\Microsoft Visual Studio\2022\Community\VC\Tools\MSVC\14.44.35207\include\vector
; File C:\Program Files\Microsoft Visual Studio\2022\Community\VC\Tools\MSVC\14.44.35207\include\xmemory
; File C:\Program Files\Microsoft Visual Studio\2022\Community\VC\Tools\MSVC\14.44.35207\include\vector
; File C:\Program Files\Microsoft Visual Studio\2022\Community\VC\Tools\MSVC\14.44.35207\include\xmemory
; File C:\Program Files\Microsoft Visual Studio\2022\Community\VC\Tools\MSVC\14.44.35207\include\vector
; File C:\Program Files\Microsoft Visual Studio\2022\Community\VC\Tools\MSVC\14.44.35207\include\xutility
; File C:\Program Files\Microsoft Visual Studio\2022\Community\VC\Tools\MSVC\14.44.35207\include\vector
; File C:\Program Files\Microsoft Visual Studio\2022\Community\VC\Tools\MSVC\14.44.35207\include\xutility
; File C:\Program Files\Microsoft Visual Studio\2022\Community\VC\Tools\MSVC\14.44.35207\include\vector
; File C:\Program Files\Microsoft Visual Studio\2022\Community\VC\Tools\MSVC\14.44.35207\include\xmemory
; File C:\Program Files\Microsoft Visual Studio\2022\Community\VC\Tools\MSVC\14.44.35207\include\vector
; File C:\Program Files\Microsoft Visual Studio\2022\Community\VC\Tools\MSVC\14.44.35207\include\xmemory
; File C:\Program Files\Microsoft Visual Studio\2022\Community\VC\Tools\MSVC\14.44.35207\include\vector
; File C:\Program Files\Microsoft Visual Studio\2022\Community\VC\Tools\MSVC\14.44.35207\include\xmemory
; File C:\Program Files\Microsoft Visual Studio\2022\Community\VC\Tools\MSVC\14.44.35207\include\vector
; File C:\Program Files\Microsoft Visual Studio\2022\Community\VC\Tools\MSVC\14.44.35207\include\xmemory
; File C:\Program Files\Microsoft Visual Studio\2022\Community\VC\Tools\MSVC\14.44.35207\include\vector
; File C:\Program Files\Microsoft Visual Studio\2022\Community\VC\Tools\MSVC\14.44.35207\include\xmemory
; File C:\Program Files\Microsoft Visual Studio\2022\Community\VC\Tools\MSVC\14.44.35207\include\vector
; File C:\Program Files\Microsoft Visual Studio\2022\Community\VC\Tools\MSVC\14.44.35207\include\xmemory
; File C:\Program Files\Microsoft Visual Studio\2022\Community\VC\Tools\MSVC\14.44.35207\include\vector
; File C:\Program Files\Microsoft Visual Studio\2022\Community\VC\Tools\MSVC\14.44.35207\include\xmemory
; File C:\Program Files\Microsoft Visual Studio\2022\Community\VC\Tools\MSVC\14.44.35207\include\vector
;	COMDAT ??$_Emplace_reallocate@ABUSVictim@CPythonPlayerEventHandler@@@?$vector@USVictim@CPythonPlayerEventHandler@@V?$allocator@USVictim@CPythonPlayerEventHandler@@@std@@@std@@AAEPAUSVictim@CPythonPlayerEventHandler@@QAU23@ABU23@@Z
_TEXT	SEGMENT
__Oldsize$1$ = -8					; size = 4
__Whereoff$1$ = -4					; size = 4
tv702 = -4						; size = 4
__Whereptr$ = 8						; size = 4
__Ptr_container$1$ = 8					; size = 4
_<_Val_0>$ = 12						; size = 4
??$_Emplace_reallocate@ABUSVictim@CPythonPlayerEventHandler@@@?$vector@USVictim@CPythonPlayerEventHandler@@V?$allocator@USVictim@CPythonPlayerEventHandler@@@std@@@std@@AAEPAUSVictim@CPythonPlayerEventHandler@@QAU23@ABU23@@Z PROC ; std::vector<CPythonPlayerEventHandler::SVictim,std::allocator<CPythonPlayerEventHandler::SVictim> >::_Emplace_reallocate<CPythonPlayerEventHandler::SVictim const &>, COMDAT
; _this$ = ecx

; 875  :     _CONSTEXPR20 pointer _Emplace_reallocate(const pointer _Whereptr, _Valty&&... _Val) {

  00000	55		 push	 ebp
  00001	8b ec		 mov	 ebp, esp
  00003	83 ec 08	 sub	 esp, 8

; 876  :         // reallocate and insert by perfectly forwarding _Val at _Whereptr
; 877  :         _Alty& _Al        = _Getal();
; 878  :         auto& _My_data    = _Mypair._Myval2;
; 879  :         pointer& _Myfirst = _My_data._Myfirst;
; 880  :         pointer& _Mylast  = _My_data._Mylast;
; 881  : 
; 882  :         _STL_INTERNAL_CHECK(_Mylast == _My_data._Myend); // check that we have no unused capacity
; 883  : 
; 884  :         const auto _Whereoff = static_cast<size_type>(_Whereptr - _Myfirst);

  00006	8b 55 08	 mov	 edx, DWORD PTR __Whereptr$[ebp]
  00009	b8 ab aa aa 2a	 mov	 eax, 715827883		; 2aaaaaabH
  0000e	53		 push	 ebx
  0000f	56		 push	 esi
  00010	57		 push	 edi
  00011	8b f9		 mov	 edi, ecx
  00013	8b 0f		 mov	 ecx, DWORD PTR [edi]
  00015	2b d1		 sub	 edx, ecx
  00017	f7 ea		 imul	 edx
  00019	d1 fa		 sar	 edx, 1
  0001b	8b c2		 mov	 eax, edx
  0001d	c1 e8 1f	 shr	 eax, 31			; 0000001fH
  00020	03 c2		 add	 eax, edx
  00022	89 45 fc	 mov	 DWORD PTR __Whereoff$1$[ebp], eax

; 885  :         const auto _Oldsize  = static_cast<size_type>(_Mylast - _Myfirst);

  00025	8b 47 04	 mov	 eax, DWORD PTR [edi+4]
  00028	2b c1		 sub	 eax, ecx
  0002a	c1 f8 02	 sar	 eax, 2
  0002d	69 c0 ab aa aa
	aa		 imul	 eax, eax, -1431655765
  00033	89 45 f8	 mov	 DWORD PTR __Oldsize$1$[ebp], eax

; 886  : 
; 887  :         if (_Oldsize == max_size()) {

  00036	3d 55 55 55 15	 cmp	 eax, 357913941		; 15555555H
  0003b	0f 84 2e 01 00
	00		 je	 $LN151@Emplace_re

; 889  :         }
; 890  : 
; 891  :         const size_type _Newsize = _Oldsize + 1;

  00041	8d 50 01	 lea	 edx, DWORD PTR [eax+1]

; 1924 :         return static_cast<size_type>(_My_data._Myend - _My_data._Myfirst);

  00044	8b 47 08	 mov	 eax, DWORD PTR [edi+8]
  00047	2b c1		 sub	 eax, ecx
  00049	c1 f8 02	 sar	 eax, 2
  0004c	69 f0 ab aa aa
	aa		 imul	 esi, eax, -1431655765

; 2011 :         if (_Oldcapacity > _Max - _Oldcapacity / 2) {

  00052	b8 55 55 55 15	 mov	 eax, 357913941		; 15555555H
  00057	8b ce		 mov	 ecx, esi
  00059	d1 e9		 shr	 ecx, 1
  0005b	2b c1		 sub	 eax, ecx
  0005d	3b f0		 cmp	 esi, eax
  0005f	76 0f		 jbe	 SHORT $LN8@Emplace_re

; 2012 :             return _Max; // geometric growth would overflow

  00061	bb fc ff ff ff	 mov	 ebx, -4			; fffffffcH
  00066	8b c3		 mov	 eax, ebx
; File C:\Program Files\Microsoft Visual Studio\2022\Community\VC\Tools\MSVC\14.44.35207\include\xmemory

; 253  :             return _Allocate_manually_vector_aligned<_Traits>(_Bytes);

  00068	50		 push	 eax
  00069	e8 00 00 00 00	 call	 ??$_Allocate_manually_vector_aligned@U_Default_allocate_traits@std@@@std@@YAPAXI@Z ; std::_Allocate_manually_vector_aligned<std::_Default_allocate_traits>
  0006e	eb 3b		 jmp	 SHORT $LN149@Emplace_re
$LN8@Emplace_re:
; File C:\Program Files\Microsoft Visual Studio\2022\Community\VC\Tools\MSVC\14.44.35207\include\vector

; 2015 :         const size_type _Geometric = _Oldcapacity + _Oldcapacity / 2;

  00070	8d 04 31	 lea	 eax, DWORD PTR [ecx+esi]
; File C:\Program Files\Microsoft Visual Studio\2022\Community\VC\Tools\MSVC\14.44.35207\include\xmemory

; 117  :         if (_Count > _Max_possible) {

  00073	8b ca		 mov	 ecx, edx
  00075	3b c2		 cmp	 eax, edx
  00077	0f 43 c8	 cmovae	 ecx, eax
  0007a	81 f9 55 55 55
	15		 cmp	 ecx, 357913941		; 15555555H
  00080	0f 87 ee 00 00
	00		 ja	 $LN152@Emplace_re

; 119  :         }
; 120  :     }
; 121  : 
; 122  :     return _Count * _Ty_size;

  00086	8d 1c 49	 lea	 ebx, DWORD PTR [ecx+ecx*2]
  00089	c1 e3 02	 shl	 ebx, 2

; 990  :         return static_cast<_Ty*>(_STD _Allocate<_New_alignof<_Ty>>(_Get_size_of_n<sizeof(_Ty)>(_Count)));

  0008c	8b c3		 mov	 eax, ebx

; 227  :     if (_Bytes == 0) {

  0008e	85 c0		 test	 eax, eax
  00090	75 04		 jne	 SHORT $LN23@Emplace_re

; 228  :         return nullptr;

  00092	33 f6		 xor	 esi, esi
  00094	eb 1a		 jmp	 SHORT $LN22@Emplace_re
$LN23@Emplace_re:

; 229  :     }
; 230  : 
; 231  : #if _HAS_CXX20 // TRANSITION, GH-1532
; 232  :     if (_STD is_constant_evaluated()) {
; 233  :         return _Traits::_Allocate(_Bytes);
; 234  :     }
; 235  : #endif // _HAS_CXX20
; 236  : 
; 237  : #ifdef __cpp_aligned_new
; 238  :     if constexpr (_Align > __STDCPP_DEFAULT_NEW_ALIGNMENT__) {
; 239  :         size_t _Passed_align = _Align;
; 240  : #if defined(_M_IX86) || defined(_M_X64)
; 241  :         if (_Bytes >= _Big_allocation_threshold) {
; 242  :             // boost the alignment of big allocations to help autovectorization
; 243  :             _Passed_align = (_STD max)(_Align, _Big_allocation_alignment);
; 244  :         }
; 245  : #endif // defined(_M_IX86) || defined(_M_X64)
; 246  :         return _Traits::_Allocate_aligned(_Bytes, _Passed_align);
; 247  :     } else
; 248  : #endif // defined(__cpp_aligned_new)
; 249  :     {
; 250  : #if defined(_M_IX86) || defined(_M_X64)
; 251  :         if (_Bytes >= _Big_allocation_threshold) {

  00096	3d 00 10 00 00	 cmp	 eax, 4096		; 00001000H
  0009b	72 08		 jb	 SHORT $LN25@Emplace_re

; 253  :             return _Allocate_manually_vector_aligned<_Traits>(_Bytes);

  0009d	50		 push	 eax
  0009e	e8 00 00 00 00	 call	 ??$_Allocate_manually_vector_aligned@U_Default_allocate_traits@std@@@std@@YAPAXI@Z ; std::_Allocate_manually_vector_aligned<std::_Default_allocate_traits>
  000a3	eb 06		 jmp	 SHORT $LN149@Emplace_re
$LN25@Emplace_re:

; 136  :         return ::operator new(_Bytes);

  000a5	50		 push	 eax
  000a6	e8 00 00 00 00	 call	 ??2@YAPAXI@Z		; operator new
$LN149@Emplace_re:
; File C:\Program Files\Microsoft Visual Studio\2022\Community\VC\Tools\MSVC\14.44.35207\include\vector

; 900  :         _Alty_traits::construct(_Al, _STD _Unfancy(_Newvec + _Whereoff), _STD forward<_Valty>(_Val)...);

  000ab	8b f0		 mov	 esi, eax
  000ad	83 c4 04	 add	 esp, 4
$LN22@Emplace_re:
  000b0	8b 45 fc	 mov	 eax, DWORD PTR __Whereoff$1$[ebp]
  000b3	8d 04 40	 lea	 eax, DWORD PTR [eax+eax*2]
  000b6	8d 0c 86	 lea	 ecx, DWORD PTR [esi+eax*4]
; File C:\Program Files\Microsoft Visual Studio\2022\Community\VC\Tools\MSVC\14.44.35207\include\xutility

; 463  :     _MSVC_CONSTEXPR return ::new (static_cast<void*>(_Location)) _Ty(_STD forward<_Types>(_Args)...);

  000b9	8b 45 0c	 mov	 eax, DWORD PTR _<_Val_0>$[ebp]
; File C:\Program Files\Microsoft Visual Studio\2022\Community\VC\Tools\MSVC\14.44.35207\include\vector

; 900  :         _Alty_traits::construct(_Al, _STD _Unfancy(_Newvec + _Whereoff), _STD forward<_Valty>(_Val)...);

  000bc	89 4d fc	 mov	 DWORD PTR tv702[ebp], ecx
; File C:\Program Files\Microsoft Visual Studio\2022\Community\VC\Tools\MSVC\14.44.35207\include\xutility

; 463  :     _MSVC_CONSTEXPR return ::new (static_cast<void*>(_Location)) _Ty(_STD forward<_Types>(_Args)...);

  000bf	f3 0f 7e 00	 movq	 xmm0, QWORD PTR [eax]
  000c3	8b 40 08	 mov	 eax, DWORD PTR [eax+8]
  000c6	66 0f d6 01	 movq	 QWORD PTR [ecx], xmm0
  000ca	89 41 08	 mov	 DWORD PTR [ecx+8], eax
; File C:\Program Files\Microsoft Visual Studio\2022\Community\VC\Tools\MSVC\14.44.35207\include\vector

; 903  :         if (_Whereptr == _Mylast) { // at back, provide strong guarantee

  000cd	8b 57 04	 mov	 edx, DWORD PTR [edi+4]
  000d0	8b 45 08	 mov	 eax, DWORD PTR __Whereptr$[ebp]
  000d3	8b 0f		 mov	 ecx, DWORD PTR [edi]
  000d5	3b c2		 cmp	 eax, edx
  000d7	75 04		 jne	 SHORT $LN3@Emplace_re
; File C:\Program Files\Microsoft Visual Studio\2022\Community\VC\Tools\MSVC\14.44.35207\include\xmemory

; 1992 :             _STD _Copy_memmove(_UFirst, _ULast, _STD _Unfancy(_Dest));

  000d9	8b c6		 mov	 eax, esi
; File C:\Program Files\Microsoft Visual Studio\2022\Community\VC\Tools\MSVC\14.44.35207\include\vector

; 909  :         } else { // provide basic guarantee

  000db	eb 17		 jmp	 SHORT $LN74@Emplace_re
$LN3@Emplace_re:
; File C:\Program Files\Microsoft Visual Studio\2022\Community\VC\Tools\MSVC\14.44.35207\include\xmemory

; 1992 :             _STD _Copy_memmove(_UFirst, _ULast, _STD _Unfancy(_Dest));

  000dd	56		 push	 esi
  000de	8b d0		 mov	 edx, eax
  000e0	e8 00 00 00 00	 call	 ??$_Copy_memmove@PAUSVictim@CPythonPlayerEventHandler@@PAU12@@std@@YAPAUSVictim@CPythonPlayerEventHandler@@PAU12@00@Z ; std::_Copy_memmove<CPythonPlayerEventHandler::SVictim *,CPythonPlayerEventHandler::SVictim *>
; File C:\Program Files\Microsoft Visual Studio\2022\Community\VC\Tools\MSVC\14.44.35207\include\vector

; 912  :             _STD _Uninitialized_move(_Whereptr, _Mylast, _Newvec + _Whereoff + 1, _Al);

  000e5	8b 45 fc	 mov	 eax, DWORD PTR tv702[ebp]
; File C:\Program Files\Microsoft Visual Studio\2022\Community\VC\Tools\MSVC\14.44.35207\include\xmemory

; 1992 :             _STD _Copy_memmove(_UFirst, _ULast, _STD _Unfancy(_Dest));

  000e8	83 c4 04	 add	 esp, 4

; 1985 :     const auto _ULast = _STD _Get_unwrapped(_Last);

  000eb	8b 57 04	 mov	 edx, DWORD PTR [edi+4]
; File C:\Program Files\Microsoft Visual Studio\2022\Community\VC\Tools\MSVC\14.44.35207\include\vector

; 912  :             _STD _Uninitialized_move(_Whereptr, _Mylast, _Newvec + _Whereoff + 1, _Al);

  000ee	83 c0 0c	 add	 eax, 12			; 0000000cH
; File C:\Program Files\Microsoft Visual Studio\2022\Community\VC\Tools\MSVC\14.44.35207\include\xmemory

; 1992 :             _STD _Copy_memmove(_UFirst, _ULast, _STD _Unfancy(_Dest));

  000f1	8b 4d 08	 mov	 ecx, DWORD PTR __Whereptr$[ebp]
$LN74@Emplace_re:
; File C:\Program Files\Microsoft Visual Studio\2022\Community\VC\Tools\MSVC\14.44.35207\include\vector

; 2064 :         pointer& _Mylast  = _My_data._Mylast;

  000f4	50		 push	 eax
  000f5	e8 00 00 00 00	 call	 ??$_Copy_memmove@PAUSVictim@CPythonPlayerEventHandler@@PAU12@@std@@YAPAUSVictim@CPythonPlayerEventHandler@@PAU12@00@Z ; std::_Copy_memmove<CPythonPlayerEventHandler::SVictim *,CPythonPlayerEventHandler::SVictim *>

; 2065 :         pointer& _Myend   = _My_data._Myend;
; 2066 : 
; 2067 :         _My_data._Orphan_all();
; 2068 : 
; 2069 :         if (_Myfirst) { // destroy and deallocate old array

  000fa	8b 0f		 mov	 ecx, DWORD PTR [edi]
  000fc	83 c4 04	 add	 esp, 4
  000ff	85 c9		 test	 ecx, ecx
  00101	74 3c		 je	 SHORT $LN96@Emplace_re

; 2070 :             _STD _Destroy_range(_Myfirst, _Mylast, _Al);
; 2071 :             _ASAN_VECTOR_REMOVE;
; 2072 :             _Al.deallocate(_Myfirst, static_cast<size_type>(_Myend - _Myfirst));

  00103	8b 47 08	 mov	 eax, DWORD PTR [edi+8]
  00106	2b c1		 sub	 eax, ecx
  00108	c1 f8 02	 sar	 eax, 2
  0010b	69 c0 ab aa aa
	aa		 imul	 eax, eax, -1431655765
; File C:\Program Files\Microsoft Visual Studio\2022\Community\VC\Tools\MSVC\14.44.35207\include\xmemory

; 985  :         _STD _Deallocate<_New_alignof<_Ty>>(_Ptr, sizeof(_Ty) * _Count);

  00111	8d 14 40	 lea	 edx, DWORD PTR [eax+eax*2]
  00114	c1 e2 02	 shl	 edx, 2

; 284  :         if (_Bytes >= _Big_allocation_threshold) {

  00117	81 fa 00 10 00
	00		 cmp	 edx, 4096		; 00001000H
  0011d	72 16		 jb	 SHORT $LN104@Emplace_re

; 205  :     const uintptr_t _Ptr_container   = _Ptr_user[-1];

  0011f	8b 41 fc	 mov	 eax, DWORD PTR [ecx-4]
  00122	83 c2 23	 add	 edx, 35			; 00000023H

; 206  : 
; 207  :     // If the following asserts, it likely means that we are performing
; 208  :     // an aligned delete on memory coming from an unaligned allocation.
; 209  :     _STL_ASSERT(_Ptr_user[-2] == _Big_allocation_sentinel, "invalid argument");
; 210  : 
; 211  :     // Extra paranoia on aligned allocation/deallocation; ensure _Ptr_container is
; 212  :     // in range [_Min_back_shift, _Non_user_size]
; 213  : #ifdef _DEBUG
; 214  :     constexpr uintptr_t _Min_back_shift = 2 * sizeof(void*);
; 215  : #else // ^^^ defined(_DEBUG) / !defined(_DEBUG) vvv
; 216  :     constexpr uintptr_t _Min_back_shift = sizeof(void*);
; 217  : #endif // ^^^ !defined(_DEBUG) ^^^
; 218  :     const uintptr_t _Back_shift = reinterpret_cast<uintptr_t>(_Ptr) - _Ptr_container;

  00125	2b c8		 sub	 ecx, eax
  00127	89 45 08	 mov	 DWORD PTR __Ptr_container$1$[ebp], eax

; 219  :     _STL_VERIFY(_Back_shift >= _Min_back_shift && _Back_shift <= _Non_user_size, "invalid argument");

  0012a	8d 41 fc	 lea	 eax, DWORD PTR [ecx-4]
  0012d	83 f8 1f	 cmp	 eax, 31			; 0000001fH
  00130	77 2e		 ja	 SHORT $LN103@Emplace_re

; 220  :     _Ptr = reinterpret_cast<void*>(_Ptr_container);

  00132	8b 4d 08	 mov	 ecx, DWORD PTR __Ptr_container$1$[ebp]
$LN104@Emplace_re:

; 289  :         ::operator delete(_Ptr, _Bytes);

  00135	52		 push	 edx
  00136	51		 push	 ecx
  00137	e8 00 00 00 00	 call	 ??3@YAXPAXI@Z		; operator delete
  0013c	83 c4 08	 add	 esp, 8
$LN96@Emplace_re:
; File C:\Program Files\Microsoft Visual Studio\2022\Community\VC\Tools\MSVC\14.44.35207\include\vector

; 2076 :         _Mylast  = _Newvec + _Newsize;

  0013f	8b 45 f8	 mov	 eax, DWORD PTR __Oldsize$1$[ebp]
  00142	40		 inc	 eax
  00143	89 37		 mov	 DWORD PTR [edi], esi
  00145	8d 0c 40	 lea	 ecx, DWORD PTR [eax+eax*2]

; 913  :         }
; 914  : 
; 915  :         _Guard._New_begin = nullptr;
; 916  :         _Change_array(_Newvec, _Newsize, _Newcapacity);
; 917  :         return _Newvec + _Whereoff;

  00148	8b 45 fc	 mov	 eax, DWORD PTR tv702[ebp]

; 2076 :         _Mylast  = _Newvec + _Newsize;

  0014b	8d 0c 8e	 lea	 ecx, DWORD PTR [esi+ecx*4]
  0014e	89 4f 04	 mov	 DWORD PTR [edi+4], ecx

; 2077 :         _Myend   = _Newvec + _Newcapacity;

  00151	8d 0c 33	 lea	 ecx, DWORD PTR [ebx+esi]
  00154	89 4f 08	 mov	 DWORD PTR [edi+8], ecx

; 918  :     }

  00157	5f		 pop	 edi
  00158	5e		 pop	 esi
  00159	5b		 pop	 ebx
  0015a	8b e5		 mov	 esp, ebp
  0015c	5d		 pop	 ebp
  0015d	c2 08 00	 ret	 8
$LN103@Emplace_re:
; File C:\Program Files\Microsoft Visual Studio\2022\Community\VC\Tools\MSVC\14.44.35207\include\xmemory

; 219  :     _STL_VERIFY(_Back_shift >= _Min_back_shift && _Back_shift <= _Non_user_size, "invalid argument");

  00160	6a 00		 push	 0
  00162	6a 00		 push	 0
  00164	6a 00		 push	 0
  00166	6a 00		 push	 0
  00168	6a 00		 push	 0
  0016a	e8 00 00 00 00	 call	 __invoke_watson
$LN151@Emplace_re:
; File C:\Program Files\Microsoft Visual Studio\2022\Community\VC\Tools\MSVC\14.44.35207\include\vector

; 888  :             _Xlength();

  0016f	e8 00 00 00 00	 call	 ?_Xlength@?$vector@USVictim@CPythonPlayerEventHandler@@V?$allocator@USVictim@CPythonPlayerEventHandler@@@std@@@std@@CAXXZ ; std::vector<CPythonPlayerEventHandler::SVictim,std::allocator<CPythonPlayerEventHandler::SVictim> >::_Xlength
$LN152@Emplace_re:
; File C:\Program Files\Microsoft Visual Studio\2022\Community\VC\Tools\MSVC\14.44.35207\include\xmemory

; 118  :             _Throw_bad_array_new_length(); // multiply overflow

  00174	e8 00 00 00 00	 call	 ?_Throw_bad_array_new_length@std@@YAXXZ ; std::_Throw_bad_array_new_length
$LN148@Emplace_re:
  00179	cc		 int	 3
??$_Emplace_reallocate@ABUSVictim@CPythonPlayerEventHandler@@@?$vector@USVictim@CPythonPlayerEventHandler@@V?$allocator@USVictim@CPythonPlayerEventHandler@@@std@@@std@@AAEPAUSVictim@CPythonPlayerEventHandler@@QAU23@ABU23@@Z ENDP ; std::vector<CPythonPlayerEventHandler::SVictim,std::allocator<CPythonPlayerEventHandler::SVictim> >::_Emplace_reallocate<CPythonPlayerEventHandler::SVictim const &>
_TEXT	ENDS
; Function compile flags: /Ogtp
; File C:\Program Files\Microsoft Visual Studio\2022\Community\VC\Tools\MSVC\14.44.35207\include\xmemory
;	COMDAT ?_Get_first@?$_Compressed_pair@V?$allocator@USVictim@CPythonPlayerEventHandler@@@std@@V?$_Vector_val@U?$_Simple_types@USVictim@CPythonPlayerEventHandler@@@std@@@2@$00@std@@QAEAAV?$allocator@USVictim@CPythonPlayerEventHandler@@@2@XZ
_TEXT	SEGMENT
?_Get_first@?$_Compressed_pair@V?$allocator@USVictim@CPythonPlayerEventHandler@@@std@@V?$_Vector_val@U?$_Simple_types@USVictim@CPythonPlayerEventHandler@@@std@@@2@$00@std@@QAEAAV?$allocator@USVictim@CPythonPlayerEventHandler@@@2@XZ PROC ; std::_Compressed_pair<std::allocator<CPythonPlayerEventHandler::SVictim>,std::_Vector_val<std::_Simple_types<CPythonPlayerEventHandler::SVictim> >,1>::_Get_first, COMDAT
; _this$ = ecx

; 1539 :         return *this;

  00000	8b c1		 mov	 eax, ecx

; 1540 :     }

  00002	c3		 ret	 0
?_Get_first@?$_Compressed_pair@V?$allocator@USVictim@CPythonPlayerEventHandler@@@std@@V?$_Vector_val@U?$_Simple_types@USVictim@CPythonPlayerEventHandler@@@std@@@2@$00@std@@QAEAAV?$allocator@USVictim@CPythonPlayerEventHandler@@@2@XZ ENDP ; std::_Compressed_pair<std::allocator<CPythonPlayerEventHandler::SVictim>,std::_Vector_val<std::_Simple_types<CPythonPlayerEventHandler::SVictim> >,1>::_Get_first
_TEXT	ENDS
; Function compile flags: /Ogtp
; File C:\Program Files\Microsoft Visual Studio\2022\Community\VC\Tools\MSVC\14.44.35207\include\vector
;	COMDAT ??0?$_Vector_val@U?$_Simple_types@USVictim@CPythonPlayerEventHandler@@@std@@@std@@QAE@XZ
_TEXT	SEGMENT
??0?$_Vector_val@U?$_Simple_types@USVictim@CPythonPlayerEventHandler@@@std@@@std@@QAE@XZ PROC ; std::_Vector_val<std::_Simple_types<CPythonPlayerEventHandler::SVictim> >::_Vector_val<std::_Simple_types<CPythonPlayerEventHandler::SVictim> >, COMDAT
; _this$ = ecx

; 400  :     _CONSTEXPR20 _Vector_val() noexcept : _Myfirst(), _Mylast(), _Myend() {}

  00000	c7 01 00 00 00
	00		 mov	 DWORD PTR [ecx], 0
  00006	8b c1		 mov	 eax, ecx
  00008	c7 41 04 00 00
	00 00		 mov	 DWORD PTR [ecx+4], 0
  0000f	c7 41 08 00 00
	00 00		 mov	 DWORD PTR [ecx+8], 0
  00016	c3		 ret	 0
??0?$_Vector_val@U?$_Simple_types@USVictim@CPythonPlayerEventHandler@@@std@@@std@@QAE@XZ ENDP ; std::_Vector_val<std::_Simple_types<CPythonPlayerEventHandler::SVictim> >::_Vector_val<std::_Simple_types<CPythonPlayerEventHandler::SVictim> >
_TEXT	ENDS
; Function compile flags: /Ogtp
; File C:\Program Files\Microsoft Visual Studio\2022\Community\VC\Tools\MSVC\14.44.35207\include\xmemory
;	COMDAT ?deallocate@?$allocator@USVictim@CPythonPlayerEventHandler@@@std@@QAEXQAUSVictim@CPythonPlayerEventHandler@@I@Z
_TEXT	SEGMENT
__Ptr$ = 8						; size = 4
__Count$ = 12						; size = 4
?deallocate@?$allocator@USVictim@CPythonPlayerEventHandler@@@std@@QAEXQAUSVictim@CPythonPlayerEventHandler@@I@Z PROC ; std::allocator<CPythonPlayerEventHandler::SVictim>::deallocate, COMDAT
; _this$dead$ = ecx

; 982  :     _CONSTEXPR20 void deallocate(_Ty* const _Ptr, const size_t _Count) noexcept /* strengthened */ {

  00000	55		 push	 ebp
  00001	8b ec		 mov	 ebp, esp

; 983  :         _STL_ASSERT(_Ptr != nullptr || _Count == 0, "null pointer cannot point to a block of non-zero size");
; 984  :         // no overflow check on the following multiply; we assume _Allocate did that check
; 985  :         _STD _Deallocate<_New_alignof<_Ty>>(_Ptr, sizeof(_Ty) * _Count);

  00003	8b 45 0c	 mov	 eax, DWORD PTR __Count$[ebp]
  00006	8d 0c 40	 lea	 ecx, DWORD PTR [eax+eax*2]
  00009	8b 45 08	 mov	 eax, DWORD PTR __Ptr$[ebp]
  0000c	c1 e1 02	 shl	 ecx, 2

; 284  :         if (_Bytes >= _Big_allocation_threshold) {

  0000f	81 f9 00 10 00
	00		 cmp	 ecx, 4096		; 00001000H
  00015	72 12		 jb	 SHORT $LN12@deallocate

; 205  :     const uintptr_t _Ptr_container   = _Ptr_user[-1];

  00017	8b 50 fc	 mov	 edx, DWORD PTR [eax-4]
  0001a	83 c1 23	 add	 ecx, 35			; 00000023H

; 206  : 
; 207  :     // If the following asserts, it likely means that we are performing
; 208  :     // an aligned delete on memory coming from an unaligned allocation.
; 209  :     _STL_ASSERT(_Ptr_user[-2] == _Big_allocation_sentinel, "invalid argument");
; 210  : 
; 211  :     // Extra paranoia on aligned allocation/deallocation; ensure _Ptr_container is
; 212  :     // in range [_Min_back_shift, _Non_user_size]
; 213  : #ifdef _DEBUG
; 214  :     constexpr uintptr_t _Min_back_shift = 2 * sizeof(void*);
; 215  : #else // ^^^ defined(_DEBUG) / !defined(_DEBUG) vvv
; 216  :     constexpr uintptr_t _Min_back_shift = sizeof(void*);
; 217  : #endif // ^^^ !defined(_DEBUG) ^^^
; 218  :     const uintptr_t _Back_shift = reinterpret_cast<uintptr_t>(_Ptr) - _Ptr_container;

  0001d	2b c2		 sub	 eax, edx

; 219  :     _STL_VERIFY(_Back_shift >= _Min_back_shift && _Back_shift <= _Non_user_size, "invalid argument");

  0001f	83 c0 fc	 add	 eax, -4			; fffffffcH
  00022	83 f8 1f	 cmp	 eax, 31			; 0000001fH
  00025	77 10		 ja	 SHORT $LN11@deallocate

; 220  :     _Ptr = reinterpret_cast<void*>(_Ptr_container);

  00027	8b c2		 mov	 eax, edx
$LN12@deallocate:

; 289  :         ::operator delete(_Ptr, _Bytes);

  00029	51		 push	 ecx
  0002a	50		 push	 eax
  0002b	e8 00 00 00 00	 call	 ??3@YAXPAXI@Z		; operator delete
  00030	83 c4 08	 add	 esp, 8

; 986  :     }

  00033	5d		 pop	 ebp
  00034	c2 08 00	 ret	 8
$LN11@deallocate:

; 219  :     _STL_VERIFY(_Back_shift >= _Min_back_shift && _Back_shift <= _Non_user_size, "invalid argument");

  00037	6a 00		 push	 0
  00039	6a 00		 push	 0
  0003b	6a 00		 push	 0
  0003d	6a 00		 push	 0
  0003f	6a 00		 push	 0
  00041	e8 00 00 00 00	 call	 __invoke_watson
$LN15@deallocate:
  00046	cc		 int	 3
?deallocate@?$allocator@USVictim@CPythonPlayerEventHandler@@@std@@QAEXQAUSVictim@CPythonPlayerEventHandler@@I@Z ENDP ; std::allocator<CPythonPlayerEventHandler::SVictim>::deallocate
_TEXT	ENDS
; Function compile flags: /Ogtp
; File C:\Program Files\Microsoft Visual Studio\2022\Community\VC\Tools\MSVC\14.44.35207\include\xmemory
;	COMDAT ??0?$allocator@USVictim@CPythonPlayerEventHandler@@@std@@QAE@XZ
_TEXT	SEGMENT
??0?$allocator@USVictim@CPythonPlayerEventHandler@@@std@@QAE@XZ PROC ; std::allocator<CPythonPlayerEventHandler::SVictim>::allocator<CPythonPlayerEventHandler::SVictim>, COMDAT
; _this$ = ecx

; 974  :     constexpr allocator() noexcept {}

  00000	8b c1		 mov	 eax, ecx
  00002	c3		 ret	 0
??0?$allocator@USVictim@CPythonPlayerEventHandler@@@std@@QAE@XZ ENDP ; std::allocator<CPythonPlayerEventHandler::SVictim>::allocator<CPythonPlayerEventHandler::SVictim>
_TEXT	ENDS
; Function compile flags: /Ogtp
; File C:\Program Files\Microsoft Visual Studio\2022\Community\VC\Tools\MSVC\14.44.35207\include\xutility
;	COMDAT ??$_Construct_in_place@USVictim@CPythonPlayerEventHandler@@ABU12@@std@@YAXAAUSVictim@CPythonPlayerEventHandler@@ABU12@@Z
_TEXT	SEGMENT
??$_Construct_in_place@USVictim@CPythonPlayerEventHandler@@ABU12@@std@@YAXAAUSVictim@CPythonPlayerEventHandler@@ABU12@@Z PROC ; std::_Construct_in_place<CPythonPlayerEventHandler::SVictim,CPythonPlayerEventHandler::SVictim const &>, COMDAT
; __Obj$ = ecx
; _<_Args_0>$ = edx

; 470  : #if _HAS_CXX20
; 471  :     if (_STD is_constant_evaluated()) {
; 472  :         _STD construct_at(_STD addressof(_Obj), _STD forward<_Types>(_Args)...);
; 473  :     } else
; 474  : #endif // _HAS_CXX20
; 475  :     {
; 476  :         ::new (static_cast<void*>(_STD addressof(_Obj))) _Ty(_STD forward<_Types>(_Args)...);

  00000	f3 0f 7e 02	 movq	 xmm0, QWORD PTR [edx]
  00004	8b 42 08	 mov	 eax, DWORD PTR [edx+8]
  00007	66 0f d6 01	 movq	 QWORD PTR [ecx], xmm0
  0000b	89 41 08	 mov	 DWORD PTR [ecx+8], eax

; 477  :     }
; 478  : }

  0000e	c3		 ret	 0
??$_Construct_in_place@USVictim@CPythonPlayerEventHandler@@ABU12@@std@@YAXAAUSVictim@CPythonPlayerEventHandler@@ABU12@@Z ENDP ; std::_Construct_in_place<CPythonPlayerEventHandler::SVictim,CPythonPlayerEventHandler::SVictim const &>
_TEXT	ENDS
; Function compile flags: /Ogtp
; File C:\Program Files\Microsoft Visual Studio\2022\Community\VC\Tools\MSVC\14.44.35207\include\xmemory
;	COMDAT ??$_Allocate_at_least_helper@V?$allocator@USVictim@CPythonPlayerEventHandler@@@std@@@std@@YAPAUSVictim@CPythonPlayerEventHandler@@AAV?$allocator@USVictim@CPythonPlayerEventHandler@@@0@AAI@Z
_TEXT	SEGMENT
??$_Allocate_at_least_helper@V?$allocator@USVictim@CPythonPlayerEventHandler@@@std@@@std@@YAPAUSVictim@CPythonPlayerEventHandler@@AAV?$allocator@USVictim@CPythonPlayerEventHandler@@@0@AAI@Z PROC ; std::_Allocate_at_least_helper<std::allocator<CPythonPlayerEventHandler::SVictim> >, COMDAT
; __Al$dead$ = ecx
; __Count$ = edx

; 2295 : #if _HAS_CXX23
; 2296 :     if constexpr (_Should_allocate_at_least<_Alloc>) {
; 2297 :         auto [_Ptr, _Allocated] = _Al.allocate_at_least(_Count);
; 2298 :         _Count                  = _Allocated;
; 2299 :         return _Ptr;
; 2300 :     } else
; 2301 : #endif // _HAS_CXX23
; 2302 :     {
; 2303 :         return _Al.allocate(_Count);

  00000	8b 02		 mov	 eax, DWORD PTR [edx]

; 117  :         if (_Count > _Max_possible) {

  00002	3d 55 55 55 15	 cmp	 eax, 357913941		; 15555555H
  00007	0f 87 00 00 00
	00		 ja	 ?_Throw_bad_array_new_length@std@@YAXXZ ; std::_Throw_bad_array_new_length

; 118  :             _Throw_bad_array_new_length(); // multiply overflow
; 119  :         }
; 120  :     }
; 121  : 
; 122  :     return _Count * _Ty_size;

  0000d	8d 04 40	 lea	 eax, DWORD PTR [eax+eax*2]
  00010	c1 e0 02	 shl	 eax, 2

; 227  :     if (_Bytes == 0) {

  00013	85 c0		 test	 eax, eax
  00015	75 01		 jne	 SHORT $LN10@Allocate_a

; 2304 :     }
; 2305 : }

  00017	c3		 ret	 0
$LN10@Allocate_a:

; 251  :         if (_Bytes >= _Big_allocation_threshold) {

  00018	50		 push	 eax
  00019	3d 00 10 00 00	 cmp	 eax, 4096		; 00001000H
  0001e	72 09		 jb	 SHORT $LN12@Allocate_a

; 252  :             // boost the alignment of big allocations to help autovectorization
; 253  :             return _Allocate_manually_vector_aligned<_Traits>(_Bytes);

  00020	e8 00 00 00 00	 call	 ??$_Allocate_manually_vector_aligned@U_Default_allocate_traits@std@@@std@@YAPAXI@Z ; std::_Allocate_manually_vector_aligned<std::_Default_allocate_traits>

; 2304 :     }
; 2305 : }

  00025	83 c4 04	 add	 esp, 4
  00028	c3		 ret	 0
$LN12@Allocate_a:

; 136  :         return ::operator new(_Bytes);

  00029	e8 00 00 00 00	 call	 ??2@YAPAXI@Z		; operator new

; 2304 :     }
; 2305 : }

  0002e	83 c4 04	 add	 esp, 4
  00031	c3		 ret	 0
??$_Allocate_at_least_helper@V?$allocator@USVictim@CPythonPlayerEventHandler@@@std@@@std@@YAPAUSVictim@CPythonPlayerEventHandler@@AAV?$allocator@USVictim@CPythonPlayerEventHandler@@@0@AAI@Z ENDP ; std::_Allocate_at_least_helper<std::allocator<CPythonPlayerEventHandler::SVictim> >
_TEXT	ENDS
; Function compile flags: /Ogtp
; File C:\Program Files\Microsoft Visual Studio\2022\Community\VC\Tools\MSVC\14.44.35207\include\xmemory
;	COMDAT ??$_Unfancy@USVictim@CPythonPlayerEventHandler@@@std@@YAPAUSVictim@CPythonPlayerEventHandler@@PAU12@@Z
_TEXT	SEGMENT
??$_Unfancy@USVictim@CPythonPlayerEventHandler@@@std@@YAPAUSVictim@CPythonPlayerEventHandler@@PAU12@@Z PROC ; std::_Unfancy<CPythonPlayerEventHandler::SVictim>, COMDAT
; __Ptr$ = ecx

; 69   :     return _Ptr;

  00000	8b c1		 mov	 eax, ecx

; 70   : }

  00002	c3		 ret	 0
??$_Unfancy@USVictim@CPythonPlayerEventHandler@@@std@@YAPAUSVictim@CPythonPlayerEventHandler@@PAU12@@Z ENDP ; std::_Unfancy<CPythonPlayerEventHandler::SVictim>
_TEXT	ENDS
; Function compile flags: /Ogtp
; File C:\Program Files\Microsoft Visual Studio\2022\Community\VC\Tools\MSVC\14.44.35207\include\xmemory
; File C:\Program Files\Microsoft Visual Studio\2022\Community\VC\Tools\MSVC\14.44.35207\include\xutility
; File C:\Program Files\Microsoft Visual Studio\2022\Community\VC\Tools\MSVC\14.44.35207\include\xmemory
;	COMDAT ??$construct@USVictim@CPythonPlayerEventHandler@@ABU12@@?$_Default_allocator_traits@V?$allocator@USVictim@CPythonPlayerEventHandler@@@std@@@std@@SAXAAV?$allocator@USVictim@CPythonPlayerEventHandler@@@1@QAUSVictim@CPythonPlayerEventHandler@@ABU34@@Z
_TEXT	SEGMENT
_<_Args_0>$ = 8						; size = 4
??$construct@USVictim@CPythonPlayerEventHandler@@ABU12@@?$_Default_allocator_traits@V?$allocator@USVictim@CPythonPlayerEventHandler@@@std@@@std@@SAXAAV?$allocator@USVictim@CPythonPlayerEventHandler@@@1@QAUSVictim@CPythonPlayerEventHandler@@ABU34@@Z PROC ; std::_Default_allocator_traits<std::allocator<CPythonPlayerEventHandler::SVictim> >::construct<CPythonPlayerEventHandler::SVictim,CPythonPlayerEventHandler::SVictim const &>, COMDAT
; ___formal$dead$ = ecx
; __Ptr$ = edx

; 728  :     static _CONSTEXPR20 void construct(_Alloc&, _Objty* const _Ptr, _Types&&... _Args) {

  00000	55		 push	 ebp
  00001	8b ec		 mov	 ebp, esp
; File C:\Program Files\Microsoft Visual Studio\2022\Community\VC\Tools\MSVC\14.44.35207\include\xutility

; 463  :     _MSVC_CONSTEXPR return ::new (static_cast<void*>(_Location)) _Ty(_STD forward<_Types>(_Args)...);

  00003	8b 45 08	 mov	 eax, DWORD PTR _<_Args_0>$[ebp]
  00006	f3 0f 7e 00	 movq	 xmm0, QWORD PTR [eax]
  0000a	8b 40 08	 mov	 eax, DWORD PTR [eax+8]
  0000d	66 0f d6 02	 movq	 QWORD PTR [edx], xmm0
  00011	89 42 08	 mov	 DWORD PTR [edx+8], eax
; File C:\Program Files\Microsoft Visual Studio\2022\Community\VC\Tools\MSVC\14.44.35207\include\xmemory

; 734  :     }

  00014	5d		 pop	 ebp
  00015	c3		 ret	 0
??$construct@USVictim@CPythonPlayerEventHandler@@ABU12@@?$_Default_allocator_traits@V?$allocator@USVictim@CPythonPlayerEventHandler@@@std@@@std@@SAXAAV?$allocator@USVictim@CPythonPlayerEventHandler@@@1@QAUSVictim@CPythonPlayerEventHandler@@ABU34@@Z ENDP ; std::_Default_allocator_traits<std::allocator<CPythonPlayerEventHandler::SVictim> >::construct<CPythonPlayerEventHandler::SVictim,CPythonPlayerEventHandler::SVictim const &>
_TEXT	ENDS
; Function compile flags: /Ogtp
; File C:\Program Files\Microsoft Visual Studio\2022\Community\VC\Tools\MSVC\14.44.35207\include\xutility
;	COMDAT ??$_Get_unwrapped@ABQAUSVictim@CPythonPlayerEventHandler@@@std@@YA?A_TABQAUSVictim@CPythonPlayerEventHandler@@@Z
_TEXT	SEGMENT
??$_Get_unwrapped@ABQAUSVictim@CPythonPlayerEventHandler@@@std@@YA?A_TABQAUSVictim@CPythonPlayerEventHandler@@@Z PROC ; std::_Get_unwrapped<CPythonPlayerEventHandler::SVictim * const &>, COMDAT
; __It$ = ecx

; 1380 :     // unwrap an iterator previously subjected to _Adl_verify_range or otherwise validated
; 1381 :     if constexpr (is_pointer_v<decay_t<_Iter>>) { // special-case pointers and arrays
; 1382 :         return _It + 0;

  00000	8b 01		 mov	 eax, DWORD PTR [ecx]

; 1383 :     } else if constexpr (_Unwrappable_v<_Iter>) {
; 1384 :         return static_cast<_Iter&&>(_It)._Unwrapped();
; 1385 :     } else {
; 1386 :         return static_cast<_Iter&&>(_It);
; 1387 :     }
; 1388 : }

  00002	c3		 ret	 0
??$_Get_unwrapped@ABQAUSVictim@CPythonPlayerEventHandler@@@std@@YA?A_TABQAUSVictim@CPythonPlayerEventHandler@@@Z ENDP ; std::_Get_unwrapped<CPythonPlayerEventHandler::SVictim * const &>
_TEXT	ENDS
; Function compile flags: /Ogtp
; File C:\Program Files\Microsoft Visual Studio\2022\Community\VC\Tools\MSVC\14.44.35207\include\xmemory
;	COMDAT ??$_Uninitialized_move@PAUSVictim@CPythonPlayerEventHandler@@V?$allocator@USVictim@CPythonPlayerEventHandler@@@std@@@std@@YAPAUSVictim@CPythonPlayerEventHandler@@QAU12@0PAU12@AAV?$allocator@USVictim@CPythonPlayerEventHandler@@@0@@Z
_TEXT	SEGMENT
__Dest$ = 8						; size = 4
__Al$dead$ = 12						; size = 4
??$_Uninitialized_move@PAUSVictim@CPythonPlayerEventHandler@@V?$allocator@USVictim@CPythonPlayerEventHandler@@@std@@@std@@YAPAUSVictim@CPythonPlayerEventHandler@@QAU12@0PAU12@AAV?$allocator@USVictim@CPythonPlayerEventHandler@@@0@@Z PROC ; std::_Uninitialized_move<CPythonPlayerEventHandler::SVictim *,std::allocator<CPythonPlayerEventHandler::SVictim> >, COMDAT
; __First$ = ecx
; __Last$ = edx

; 1977 :     const _InIt _First, const _InIt _Last, _Alloc_ptr_t<_Alloc> _Dest, _Alloc& _Al) {

  00000	55		 push	 ebp
  00001	8b ec		 mov	 ebp, esp
  00003	53		 push	 ebx

; 1978 :     // move [_First, _Last) to raw _Dest, using _Al
; 1979 :     // note: only called internally from elsewhere in the STL
; 1980 : #ifdef _ENABLE_STL_INTERNAL_CHECK
; 1981 :     _STD _Adl_verify_range(_First, _Last);
; 1982 : #endif // ^^^ defined(_ENABLE_STL_INTERNAL_CHECK) ^^^
; 1983 :     using _Ptrval     = typename _Alloc::value_type*;
; 1984 :     auto _UFirst      = _STD _Get_unwrapped(_First);
; 1985 :     const auto _ULast = _STD _Get_unwrapped(_Last);
; 1986 :     if constexpr (conjunction_v<bool_constant<_Iter_move_cat<decltype(_UFirst), _Ptrval>::_Bitcopy_constructible>,
; 1987 :                       _Uses_default_construct<_Alloc, _Ptrval, decltype(_STD move(*_UFirst))>>) {
; 1988 : #if _HAS_CXX20
; 1989 :         if (!_STD is_constant_evaluated())
; 1990 : #endif // _HAS_CXX20
; 1991 :         {
; 1992 :             _STD _Copy_memmove(_UFirst, _ULast, _STD _Unfancy(_Dest));

  00004	8b 5d 08	 mov	 ebx, DWORD PTR __Dest$[ebp]
  00007	56		 push	 esi
  00008	57		 push	 edi
  00009	53		 push	 ebx
  0000a	8b fa		 mov	 edi, edx
  0000c	8b f1		 mov	 esi, ecx
  0000e	e8 00 00 00 00	 call	 ??$_Copy_memmove@PAUSVictim@CPythonPlayerEventHandler@@PAU12@@std@@YAPAUSVictim@CPythonPlayerEventHandler@@PAU12@00@Z ; std::_Copy_memmove<CPythonPlayerEventHandler::SVictim *,CPythonPlayerEventHandler::SVictim *>

; 1993 :             return _Dest + (_ULast - _UFirst);

  00013	2b fe		 sub	 edi, esi
  00015	b8 ab aa aa 2a	 mov	 eax, 715827883		; 2aaaaaabH
  0001a	f7 ef		 imul	 edi
  0001c	83 c4 04	 add	 esp, 4
  0001f	d1 fa		 sar	 edx, 1
  00021	8b c2		 mov	 eax, edx
  00023	c1 e8 1f	 shr	 eax, 31			; 0000001fH
  00026	03 c2		 add	 eax, edx
  00028	5f		 pop	 edi
  00029	5e		 pop	 esi
  0002a	8d 04 40	 lea	 eax, DWORD PTR [eax+eax*2]
  0002d	8d 04 83	 lea	 eax, DWORD PTR [ebx+eax*4]
  00030	5b		 pop	 ebx

; 1994 :         }
; 1995 :     }
; 1996 : 
; 1997 :     _Uninitialized_backout_al<_Alloc> _Backout{_Dest, _Al};
; 1998 :     for (; _UFirst != _ULast; ++_UFirst) {
; 1999 :         _Backout._Emplace_back(_STD move(*_UFirst));
; 2000 :     }
; 2001 : 
; 2002 :     return _Backout._Release();
; 2003 : }

  00031	5d		 pop	 ebp
  00032	c3		 ret	 0
??$_Uninitialized_move@PAUSVictim@CPythonPlayerEventHandler@@V?$allocator@USVictim@CPythonPlayerEventHandler@@@std@@@std@@YAPAUSVictim@CPythonPlayerEventHandler@@QAU12@0PAU12@AAV?$allocator@USVictim@CPythonPlayerEventHandler@@@0@@Z ENDP ; std::_Uninitialized_move<CPythonPlayerEventHandler::SVictim *,std::allocator<CPythonPlayerEventHandler::SVictim> >
_TEXT	ENDS
; Function compile flags: /Ogtp
; File C:\Program Files\Microsoft Visual Studio\2022\Community\VC\Tools\MSVC\14.44.35207\include\vector
; File C:\Program Files\Microsoft Visual Studio\2022\Community\VC\Tools\MSVC\14.44.35207\include\xmemory
; File C:\Program Files\Microsoft Visual Studio\2022\Community\VC\Tools\MSVC\14.44.35207\include\vector
; File C:\Program Files\Microsoft Visual Studio\2022\Community\VC\Tools\MSVC\14.44.35207\include\xmemory
; File C:\Program Files\Microsoft Visual Studio\2022\Community\VC\Tools\MSVC\14.44.35207\include\vector
;	COMDAT ??1_Reallocation_guard@?$vector@USVictim@CPythonPlayerEventHandler@@V?$allocator@USVictim@CPythonPlayerEventHandler@@@std@@@std@@QAE@XZ
_TEXT	SEGMENT
??1_Reallocation_guard@?$vector@USVictim@CPythonPlayerEventHandler@@V?$allocator@USVictim@CPythonPlayerEventHandler@@@std@@@std@@QAE@XZ PROC ; std::vector<CPythonPlayerEventHandler::SVictim,std::allocator<CPythonPlayerEventHandler::SVictim> >::_Reallocation_guard::~_Reallocation_guard, COMDAT
; _this$ = ecx

; 621  :             if (_New_begin != nullptr) {

  00000	8b 51 04	 mov	 edx, DWORD PTR [ecx+4]
  00003	85 d2		 test	 edx, edx
  00005	74 2f		 je	 SHORT $LN8@Reallocati
; File C:\Program Files\Microsoft Visual Studio\2022\Community\VC\Tools\MSVC\14.44.35207\include\xmemory

; 985  :         _STD _Deallocate<_New_alignof<_Ty>>(_Ptr, sizeof(_Ty) * _Count);

  00007	8b 41 08	 mov	 eax, DWORD PTR [ecx+8]
  0000a	8d 0c 40	 lea	 ecx, DWORD PTR [eax+eax*2]
  0000d	c1 e1 02	 shl	 ecx, 2

; 284  :         if (_Bytes >= _Big_allocation_threshold) {

  00010	81 f9 00 10 00
	00		 cmp	 ecx, 4096		; 00001000H
  00016	72 14		 jb	 SHORT $LN16@Reallocati
  00018	56		 push	 esi

; 205  :     const uintptr_t _Ptr_container   = _Ptr_user[-1];

  00019	8b 72 fc	 mov	 esi, DWORD PTR [edx-4]
  0001c	83 c1 23	 add	 ecx, 35			; 00000023H

; 206  : 
; 207  :     // If the following asserts, it likely means that we are performing
; 208  :     // an aligned delete on memory coming from an unaligned allocation.
; 209  :     _STL_ASSERT(_Ptr_user[-2] == _Big_allocation_sentinel, "invalid argument");
; 210  : 
; 211  :     // Extra paranoia on aligned allocation/deallocation; ensure _Ptr_container is
; 212  :     // in range [_Min_back_shift, _Non_user_size]
; 213  : #ifdef _DEBUG
; 214  :     constexpr uintptr_t _Min_back_shift = 2 * sizeof(void*);
; 215  : #else // ^^^ defined(_DEBUG) / !defined(_DEBUG) vvv
; 216  :     constexpr uintptr_t _Min_back_shift = sizeof(void*);
; 217  : #endif // ^^^ !defined(_DEBUG) ^^^
; 218  :     const uintptr_t _Back_shift = reinterpret_cast<uintptr_t>(_Ptr) - _Ptr_container;

  0001f	2b d6		 sub	 edx, esi

; 219  :     _STL_VERIFY(_Back_shift >= _Min_back_shift && _Back_shift <= _Non_user_size, "invalid argument");

  00021	8d 42 fc	 lea	 eax, DWORD PTR [edx-4]
  00024	83 f8 1f	 cmp	 eax, 31			; 0000001fH
  00027	77 0e		 ja	 SHORT $LN15@Reallocati

; 220  :     _Ptr = reinterpret_cast<void*>(_Ptr_container);

  00029	8b d6		 mov	 edx, esi
  0002b	5e		 pop	 esi
$LN16@Reallocati:

; 289  :         ::operator delete(_Ptr, _Bytes);

  0002c	51		 push	 ecx
  0002d	52		 push	 edx
  0002e	e8 00 00 00 00	 call	 ??3@YAXPAXI@Z		; operator delete
  00033	83 c4 08	 add	 esp, 8
$LN8@Reallocati:
; File C:\Program Files\Microsoft Visual Studio\2022\Community\VC\Tools\MSVC\14.44.35207\include\vector

; 625  :         }

  00036	c3		 ret	 0
$LN15@Reallocati:
; File C:\Program Files\Microsoft Visual Studio\2022\Community\VC\Tools\MSVC\14.44.35207\include\xmemory

; 219  :     _STL_VERIFY(_Back_shift >= _Min_back_shift && _Back_shift <= _Non_user_size, "invalid argument");

  00037	6a 00		 push	 0
  00039	6a 00		 push	 0
  0003b	6a 00		 push	 0
  0003d	6a 00		 push	 0
  0003f	6a 00		 push	 0
  00041	e8 00 00 00 00	 call	 __invoke_watson
$LN23@Reallocati:
  00046	cc		 int	 3
??1_Reallocation_guard@?$vector@USVictim@CPythonPlayerEventHandler@@V?$allocator@USVictim@CPythonPlayerEventHandler@@@std@@@std@@QAE@XZ ENDP ; std::vector<CPythonPlayerEventHandler::SVictim,std::allocator<CPythonPlayerEventHandler::SVictim> >::_Reallocation_guard::~_Reallocation_guard
_TEXT	ENDS
; Function compile flags: /Ogtp
; File C:\Program Files\Microsoft Visual Studio\2022\Community\VC\Tools\MSVC\14.44.35207\include\vector
;	COMDAT ?_Orphan_range@?$vector@USVictim@CPythonPlayerEventHandler@@V?$allocator@USVictim@CPythonPlayerEventHandler@@@std@@@std@@ABEXPAUSVictim@CPythonPlayerEventHandler@@0@Z
_TEXT	SEGMENT
___formal$dead$ = 8					; size = 4
___formal$dead$ = 12					; size = 4
?_Orphan_range@?$vector@USVictim@CPythonPlayerEventHandler@@V?$allocator@USVictim@CPythonPlayerEventHandler@@@std@@@std@@ABEXPAUSVictim@CPythonPlayerEventHandler@@0@Z PROC ; std::vector<CPythonPlayerEventHandler::SVictim,std::allocator<CPythonPlayerEventHandler::SVictim> >::_Orphan_range, COMDAT
; _this$dead$ = ecx

; 2223 :     _CONSTEXPR20 void _Orphan_range(pointer, pointer) const {}

  00000	c2 08 00	 ret	 8
?_Orphan_range@?$vector@USVictim@CPythonPlayerEventHandler@@V?$allocator@USVictim@CPythonPlayerEventHandler@@@std@@@std@@ABEXPAUSVictim@CPythonPlayerEventHandler@@0@Z ENDP ; std::vector<CPythonPlayerEventHandler::SVictim,std::allocator<CPythonPlayerEventHandler::SVictim> >::_Orphan_range
_TEXT	ENDS
; Function compile flags: /Ogtp
; File C:\Program Files\Microsoft Visual Studio\2022\Community\VC\Tools\MSVC\14.44.35207\include\vector
;	COMDAT ?_Xlength@?$vector@USVictim@CPythonPlayerEventHandler@@V?$allocator@USVictim@CPythonPlayerEventHandler@@@std@@@std@@CAXXZ
_TEXT	SEGMENT
?_Xlength@?$vector@USVictim@CPythonPlayerEventHandler@@V?$allocator@USVictim@CPythonPlayerEventHandler@@@std@@@std@@CAXXZ PROC ; std::vector<CPythonPlayerEventHandler::SVictim,std::allocator<CPythonPlayerEventHandler::SVictim> >::_Xlength, COMDAT

; 2184 :         _Xlength_error("vector too long");

  00000	68 00 00 00 00	 push	 OFFSET ??_C@_0BA@FOIKENOD@vector?5too?5long@
  00005	e8 00 00 00 00	 call	 ?_Xlength_error@std@@YAXPBD@Z ; std::_Xlength_error
$LN3@Xlength:
  0000a	cc		 int	 3
?_Xlength@?$vector@USVictim@CPythonPlayerEventHandler@@V?$allocator@USVictim@CPythonPlayerEventHandler@@@std@@@std@@CAXXZ ENDP ; std::vector<CPythonPlayerEventHandler::SVictim,std::allocator<CPythonPlayerEventHandler::SVictim> >::_Xlength
_TEXT	ENDS
; Function compile flags: /Ogtp
; File C:\Program Files\Microsoft Visual Studio\2022\Community\VC\Tools\MSVC\14.44.35207\include\vector
; File C:\Program Files\Microsoft Visual Studio\2022\Community\VC\Tools\MSVC\14.44.35207\include\xmemory
; File C:\Program Files\Microsoft Visual Studio\2022\Community\VC\Tools\MSVC\14.44.35207\include\vector
; File C:\Program Files\Microsoft Visual Studio\2022\Community\VC\Tools\MSVC\14.44.35207\include\xmemory
; File C:\Program Files\Microsoft Visual Studio\2022\Community\VC\Tools\MSVC\14.44.35207\include\vector
;	COMDAT ?_Change_array@?$vector@USVictim@CPythonPlayerEventHandler@@V?$allocator@USVictim@CPythonPlayerEventHandler@@@std@@@std@@AAEXQAUSVictim@CPythonPlayerEventHandler@@II@Z
_TEXT	SEGMENT
__Newvec$ = 8						; size = 4
__Newsize$ = 12						; size = 4
__Newcapacity$ = 16					; size = 4
?_Change_array@?$vector@USVictim@CPythonPlayerEventHandler@@V?$allocator@USVictim@CPythonPlayerEventHandler@@@std@@@std@@AAEXQAUSVictim@CPythonPlayerEventHandler@@II@Z PROC ; std::vector<CPythonPlayerEventHandler::SVictim,std::allocator<CPythonPlayerEventHandler::SVictim> >::_Change_array, COMDAT
; _this$ = ecx

; 2059 :         const pointer _Newvec, const size_type _Newsize, const size_type _Newcapacity) noexcept {

  00000	55		 push	 ebp
  00001	8b ec		 mov	 ebp, esp
  00003	56		 push	 esi
  00004	8b f1		 mov	 esi, ecx

; 2060 :         // orphan all iterators, discard old array, acquire new array
; 2061 :         auto& _Al         = _Getal();
; 2062 :         auto& _My_data    = _Mypair._Myval2;
; 2063 :         pointer& _Myfirst = _My_data._Myfirst;
; 2064 :         pointer& _Mylast  = _My_data._Mylast;
; 2065 :         pointer& _Myend   = _My_data._Myend;
; 2066 : 
; 2067 :         _My_data._Orphan_all();
; 2068 : 
; 2069 :         if (_Myfirst) { // destroy and deallocate old array

  00006	8b 16		 mov	 edx, DWORD PTR [esi]
  00008	85 d2		 test	 edx, edx
  0000a	74 3a		 je	 SHORT $LN8@Change_arr

; 2070 :             _STD _Destroy_range(_Myfirst, _Mylast, _Al);
; 2071 :             _ASAN_VECTOR_REMOVE;
; 2072 :             _Al.deallocate(_Myfirst, static_cast<size_type>(_Myend - _Myfirst));

  0000c	8b 46 08	 mov	 eax, DWORD PTR [esi+8]
  0000f	2b c2		 sub	 eax, edx
  00011	c1 f8 02	 sar	 eax, 2
  00014	69 c0 ab aa aa
	aa		 imul	 eax, eax, -1431655765
; File C:\Program Files\Microsoft Visual Studio\2022\Community\VC\Tools\MSVC\14.44.35207\include\xmemory

; 985  :         _STD _Deallocate<_New_alignof<_Ty>>(_Ptr, sizeof(_Ty) * _Count);

  0001a	8d 0c 40	 lea	 ecx, DWORD PTR [eax+eax*2]
  0001d	c1 e1 02	 shl	 ecx, 2

; 284  :         if (_Bytes >= _Big_allocation_threshold) {

  00020	81 f9 00 10 00
	00		 cmp	 ecx, 4096		; 00001000H
  00026	72 14		 jb	 SHORT $LN16@Change_arr
  00028	57		 push	 edi

; 205  :     const uintptr_t _Ptr_container   = _Ptr_user[-1];

  00029	8b 7a fc	 mov	 edi, DWORD PTR [edx-4]
  0002c	83 c1 23	 add	 ecx, 35			; 00000023H

; 206  : 
; 207  :     // If the following asserts, it likely means that we are performing
; 208  :     // an aligned delete on memory coming from an unaligned allocation.
; 209  :     _STL_ASSERT(_Ptr_user[-2] == _Big_allocation_sentinel, "invalid argument");
; 210  : 
; 211  :     // Extra paranoia on aligned allocation/deallocation; ensure _Ptr_container is
; 212  :     // in range [_Min_back_shift, _Non_user_size]
; 213  : #ifdef _DEBUG
; 214  :     constexpr uintptr_t _Min_back_shift = 2 * sizeof(void*);
; 215  : #else // ^^^ defined(_DEBUG) / !defined(_DEBUG) vvv
; 216  :     constexpr uintptr_t _Min_back_shift = sizeof(void*);
; 217  : #endif // ^^^ !defined(_DEBUG) ^^^
; 218  :     const uintptr_t _Back_shift = reinterpret_cast<uintptr_t>(_Ptr) - _Ptr_container;

  0002f	2b d7		 sub	 edx, edi

; 219  :     _STL_VERIFY(_Back_shift >= _Min_back_shift && _Back_shift <= _Non_user_size, "invalid argument");

  00031	8d 42 fc	 lea	 eax, DWORD PTR [edx-4]
  00034	83 f8 1f	 cmp	 eax, 31			; 0000001fH
  00037	77 2f		 ja	 SHORT $LN15@Change_arr

; 220  :     _Ptr = reinterpret_cast<void*>(_Ptr_container);

  00039	8b d7		 mov	 edx, edi
  0003b	5f		 pop	 edi
$LN16@Change_arr:

; 289  :         ::operator delete(_Ptr, _Bytes);

  0003c	51		 push	 ecx
  0003d	52		 push	 edx
  0003e	e8 00 00 00 00	 call	 ??3@YAXPAXI@Z		; operator delete
  00043	83 c4 08	 add	 esp, 8
$LN8@Change_arr:
; File C:\Program Files\Microsoft Visual Studio\2022\Community\VC\Tools\MSVC\14.44.35207\include\vector

; 2075 :         _Myfirst = _Newvec;

  00046	8b 4d 08	 mov	 ecx, DWORD PTR __Newvec$[ebp]

; 2076 :         _Mylast  = _Newvec + _Newsize;

  00049	8b 45 0c	 mov	 eax, DWORD PTR __Newsize$[ebp]
  0004c	89 0e		 mov	 DWORD PTR [esi], ecx
  0004e	8d 04 40	 lea	 eax, DWORD PTR [eax+eax*2]
  00051	8d 04 81	 lea	 eax, DWORD PTR [ecx+eax*4]
  00054	89 46 04	 mov	 DWORD PTR [esi+4], eax

; 2077 :         _Myend   = _Newvec + _Newcapacity;

  00057	8b 45 10	 mov	 eax, DWORD PTR __Newcapacity$[ebp]
  0005a	8d 04 40	 lea	 eax, DWORD PTR [eax+eax*2]
  0005d	8d 04 81	 lea	 eax, DWORD PTR [ecx+eax*4]
  00060	89 46 08	 mov	 DWORD PTR [esi+8], eax
  00063	5e		 pop	 esi

; 2079 :     }

  00064	5d		 pop	 ebp
  00065	c2 0c 00	 ret	 12			; 0000000cH
$LN15@Change_arr:
; File C:\Program Files\Microsoft Visual Studio\2022\Community\VC\Tools\MSVC\14.44.35207\include\xmemory

; 219  :     _STL_VERIFY(_Back_shift >= _Min_back_shift && _Back_shift <= _Non_user_size, "invalid argument");

  00068	6a 00		 push	 0
  0006a	6a 00		 push	 0
  0006c	6a 00		 push	 0
  0006e	6a 00		 push	 0
  00070	6a 00		 push	 0
  00072	e8 00 00 00 00	 call	 __invoke_watson
$LN23@Change_arr:
  00077	cc		 int	 3
?_Change_array@?$vector@USVictim@CPythonPlayerEventHandler@@V?$allocator@USVictim@CPythonPlayerEventHandler@@@std@@@std@@AAEXQAUSVictim@CPythonPlayerEventHandler@@II@Z ENDP ; std::vector<CPythonPlayerEventHandler::SVictim,std::allocator<CPythonPlayerEventHandler::SVictim> >::_Change_array
_TEXT	ENDS
; Function compile flags: /Ogtp
; File C:\Program Files\Microsoft Visual Studio\2022\Community\VC\Tools\MSVC\14.44.35207\include\vector
;	COMDAT ?_Calculate_growth@?$vector@USVictim@CPythonPlayerEventHandler@@V?$allocator@USVictim@CPythonPlayerEventHandler@@@std@@@std@@ABEII@Z
_TEXT	SEGMENT
__Newsize$ = 8						; size = 4
?_Calculate_growth@?$vector@USVictim@CPythonPlayerEventHandler@@V?$allocator@USVictim@CPythonPlayerEventHandler@@@std@@@std@@ABEII@Z PROC ; std::vector<CPythonPlayerEventHandler::SVictim,std::allocator<CPythonPlayerEventHandler::SVictim> >::_Calculate_growth, COMDAT
; _this$ = ecx

; 2006 :     _CONSTEXPR20 size_type _Calculate_growth(const size_type _Newsize) const {

  00000	55		 push	 ebp
  00001	8b ec		 mov	 ebp, esp

; 1924 :         return static_cast<size_type>(_My_data._Myend - _My_data._Myfirst);

  00003	8b 41 08	 mov	 eax, DWORD PTR [ecx+8]
  00006	2b 01		 sub	 eax, DWORD PTR [ecx]

; 2007 :         // given _Oldcapacity and _Newsize, calculate geometric growth
; 2008 :         const size_type _Oldcapacity = capacity();
; 2009 :         const auto _Max              = max_size();
; 2010 : 
; 2011 :         if (_Oldcapacity > _Max - _Oldcapacity / 2) {

  00008	b9 55 55 55 15	 mov	 ecx, 357913941		; 15555555H

; 1924 :         return static_cast<size_type>(_My_data._Myend - _My_data._Myfirst);

  0000d	c1 f8 02	 sar	 eax, 2

; 2006 :     _CONSTEXPR20 size_type _Calculate_growth(const size_type _Newsize) const {

  00010	57		 push	 edi

; 1924 :         return static_cast<size_type>(_My_data._Myend - _My_data._Myfirst);

  00011	69 f8 ab aa aa
	aa		 imul	 edi, eax, -1431655765

; 2007 :         // given _Oldcapacity and _Newsize, calculate geometric growth
; 2008 :         const size_type _Oldcapacity = capacity();
; 2009 :         const auto _Max              = max_size();
; 2010 : 
; 2011 :         if (_Oldcapacity > _Max - _Oldcapacity / 2) {

  00017	8b d7		 mov	 edx, edi
  00019	d1 ea		 shr	 edx, 1
  0001b	2b ca		 sub	 ecx, edx
  0001d	3b f9		 cmp	 edi, ecx
  0001f	76 0a		 jbe	 SHORT $LN2@Calculate_

; 2012 :             return _Max; // geometric growth would overflow

  00021	b8 55 55 55 15	 mov	 eax, 357913941		; 15555555H
  00026	5f		 pop	 edi

; 2018 :             return _Newsize; // geometric growth would be insufficient
; 2019 :         }
; 2020 : 
; 2021 :         return _Geometric; // geometric growth is sufficient
; 2022 :     }

  00027	5d		 pop	 ebp
  00028	c2 04 00	 ret	 4
$LN2@Calculate_:

; 2013 :         }
; 2014 : 
; 2015 :         const size_type _Geometric = _Oldcapacity + _Oldcapacity / 2;

  0002b	8d 04 3a	 lea	 eax, DWORD PTR [edx+edi]

; 2016 : 
; 2017 :         if (_Geometric < _Newsize) {

  0002e	3b 45 08	 cmp	 eax, DWORD PTR __Newsize$[ebp]
  00031	5f		 pop	 edi
  00032	0f 42 45 08	 cmovb	 eax, DWORD PTR __Newsize$[ebp]

; 2018 :             return _Newsize; // geometric growth would be insufficient
; 2019 :         }
; 2020 : 
; 2021 :         return _Geometric; // geometric growth is sufficient
; 2022 :     }

  00036	5d		 pop	 ebp
  00037	c2 04 00	 ret	 4
?_Calculate_growth@?$vector@USVictim@CPythonPlayerEventHandler@@V?$allocator@USVictim@CPythonPlayerEventHandler@@@std@@@std@@ABEII@Z ENDP ; std::vector<CPythonPlayerEventHandler::SVictim,std::allocator<CPythonPlayerEventHandler::SVictim> >::_Calculate_growth
_TEXT	ENDS
; Function compile flags: /Ogtp
; File C:\Program Files\Microsoft Visual Studio\2022\Community\VC\Tools\MSVC\14.44.35207\include\vector
;	COMDAT ?max_size@?$vector@USVictim@CPythonPlayerEventHandler@@V?$allocator@USVictim@CPythonPlayerEventHandler@@@std@@@std@@QBEIXZ
_TEXT	SEGMENT
?max_size@?$vector@USVictim@CPythonPlayerEventHandler@@V?$allocator@USVictim@CPythonPlayerEventHandler@@@std@@@std@@QBEIXZ PROC ; std::vector<CPythonPlayerEventHandler::SVictim,std::allocator<CPythonPlayerEventHandler::SVictim> >::max_size, COMDAT
; _this$dead$ = ecx

; 1919 :         return (_STD min)(static_cast<size_type>(_STD _Max_limit<difference_type>()), _Alty_traits::max_size(_Getal()));

  00000	b8 55 55 55 15	 mov	 eax, 357913941		; 15555555H

; 1920 :     }

  00005	c3		 ret	 0
?max_size@?$vector@USVictim@CPythonPlayerEventHandler@@V?$allocator@USVictim@CPythonPlayerEventHandler@@@std@@@std@@QBEIXZ ENDP ; std::vector<CPythonPlayerEventHandler::SVictim,std::allocator<CPythonPlayerEventHandler::SVictim> >::max_size
_TEXT	ENDS
; Function compile flags: /Ogtp
; File C:\Program Files\Microsoft Visual Studio\2022\Community\VC\Tools\MSVC\14.44.35207\include\type_traits
;	COMDAT ??$addressof@USVictim@CPythonPlayerEventHandler@@@std@@YAPAUSVictim@CPythonPlayerEventHandler@@AAU12@@Z
_TEXT	SEGMENT
??$addressof@USVictim@CPythonPlayerEventHandler@@@std@@YAPAUSVictim@CPythonPlayerEventHandler@@AAU12@@Z PROC ; std::addressof<CPythonPlayerEventHandler::SVictim>, COMDAT
; __Val$ = ecx

; 1525 :     return __builtin_addressof(_Val);

  00000	8b c1		 mov	 eax, ecx

; 1526 : }

  00002	c3		 ret	 0
??$addressof@USVictim@CPythonPlayerEventHandler@@@std@@YAPAUSVictim@CPythonPlayerEventHandler@@AAU12@@Z ENDP ; std::addressof<CPythonPlayerEventHandler::SVictim>
_TEXT	ENDS
; Function compile flags: /Ogtp
; File C:\Program Files\Microsoft Visual Studio\2022\Community\VC\Tools\MSVC\14.44.35207\include\xutility
;	COMDAT ??$construct_at@USVictim@CPythonPlayerEventHandler@@ABU12@@std@@YAPAUSVictim@CPythonPlayerEventHandler@@QAU12@ABU12@@Z
_TEXT	SEGMENT
??$construct_at@USVictim@CPythonPlayerEventHandler@@ABU12@@std@@YAPAUSVictim@CPythonPlayerEventHandler@@QAU12@ABU12@@Z PROC ; std::construct_at<CPythonPlayerEventHandler::SVictim,CPythonPlayerEventHandler::SVictim const &>, COMDAT
; __Location$ = ecx
; _<_Args_0>$ = edx

; 463  :     _MSVC_CONSTEXPR return ::new (static_cast<void*>(_Location)) _Ty(_STD forward<_Types>(_Args)...);

  00000	f3 0f 7e 02	 movq	 xmm0, QWORD PTR [edx]
  00004	8b 42 08	 mov	 eax, DWORD PTR [edx+8]
  00007	66 0f d6 01	 movq	 QWORD PTR [ecx], xmm0
  0000b	89 41 08	 mov	 DWORD PTR [ecx+8], eax
  0000e	8b c1		 mov	 eax, ecx

; 464  : }

  00010	c3		 ret	 0
??$construct_at@USVictim@CPythonPlayerEventHandler@@ABU12@@std@@YAPAUSVictim@CPythonPlayerEventHandler@@QAU12@ABU12@@Z ENDP ; std::construct_at<CPythonPlayerEventHandler::SVictim,CPythonPlayerEventHandler::SVictim const &>
_TEXT	ENDS
; Function compile flags: /Ogtp
; File C:\Program Files\Microsoft Visual Studio\2022\Community\VC\Tools\MSVC\14.44.35207\include\type_traits
;	COMDAT ??$move@AAUSVictim@CPythonPlayerEventHandler@@@std@@YA$$QAUSVictim@CPythonPlayerEventHandler@@AAU12@@Z
_TEXT	SEGMENT
??$move@AAUSVictim@CPythonPlayerEventHandler@@@std@@YA$$QAUSVictim@CPythonPlayerEventHandler@@AAU12@@Z PROC ; std::move<CPythonPlayerEventHandler::SVictim &>, COMDAT
; __Arg$ = ecx

; 1513 :     return static_cast<remove_reference_t<_Ty>&&>(_Arg);

  00000	8b c1		 mov	 eax, ecx

; 1514 : }

  00002	c3		 ret	 0
??$move@AAUSVictim@CPythonPlayerEventHandler@@@std@@YA$$QAUSVictim@CPythonPlayerEventHandler@@AAU12@@Z ENDP ; std::move<CPythonPlayerEventHandler::SVictim &>
_TEXT	ENDS
; Function compile flags: /Ogtp
; File C:\Program Files\Microsoft Visual Studio\2022\Community\VC\Tools\MSVC\14.44.35207\include\xutility
;	COMDAT ??$_Copy_memmove@PAUSVictim@CPythonPlayerEventHandler@@PAU12@@std@@YAPAUSVictim@CPythonPlayerEventHandler@@PAU12@00@Z
_TEXT	SEGMENT
__Dest$ = 8						; size = 4
??$_Copy_memmove@PAUSVictim@CPythonPlayerEventHandler@@PAU12@@std@@YAPAUSVictim@CPythonPlayerEventHandler@@PAU12@00@Z PROC ; std::_Copy_memmove<CPythonPlayerEventHandler::SVictim *,CPythonPlayerEventHandler::SVictim *>, COMDAT
; __First$ = ecx
; __Last$ = edx

; 4762 : _OutCtgIt _Copy_memmove(_CtgIt _First, _CtgIt _Last, _OutCtgIt _Dest) {

  00000	55		 push	 ebp
  00001	8b ec		 mov	 ebp, esp

; 4763 :     _STL_INTERNAL_CHECK(_First <= _Last);
; 4764 :     const auto _First_ptr    = _STD _To_address(_First);
; 4765 :     const auto _Last_ptr     = _STD _To_address(_Last);
; 4766 :     const auto _Object_count = static_cast<size_t>(_Last_ptr - _First_ptr);
; 4767 :     const auto _First_ch     = const_cast<const char*>(reinterpret_cast<const volatile char*>(_First_ptr));
; 4768 :     const auto _Last_ch      = const_cast<const char*>(reinterpret_cast<const volatile char*>(_Last_ptr));
; 4769 :     const auto _Byte_count   = static_cast<size_t>(_Last_ch - _First_ch);

  00003	2b d1		 sub	 edx, ecx

; 4770 :     return _STD _Copy_memmove_tail(_First_ch, _STD move(_Dest), _Byte_count, _Object_count);

  00005	51		 push	 ecx
  00006	52		 push	 edx
  00007	8b 55 08	 mov	 edx, DWORD PTR __Dest$[ebp]
  0000a	e8 00 00 00 00	 call	 ??$_Copy_memmove_tail@PAUSVictim@CPythonPlayerEventHandler@@@std@@YAPAUSVictim@CPythonPlayerEventHandler@@QBDQAU12@II@Z ; std::_Copy_memmove_tail<CPythonPlayerEventHandler::SVictim *>
  0000f	83 c4 08	 add	 esp, 8

; 4771 : }

  00012	5d		 pop	 ebp
  00013	c3		 ret	 0
??$_Copy_memmove@PAUSVictim@CPythonPlayerEventHandler@@PAU12@@std@@YAPAUSVictim@CPythonPlayerEventHandler@@PAU12@00@Z ENDP ; std::_Copy_memmove<CPythonPlayerEventHandler::SVictim *,CPythonPlayerEventHandler::SVictim *>
_TEXT	ENDS
; Function compile flags: /Ogtp
; File C:\Program Files\Microsoft Visual Studio\2022\Community\VC\Tools\MSVC\14.44.35207\include\xutility
;	COMDAT ??$_To_address@PAUSVictim@CPythonPlayerEventHandler@@@std@@YA?A_PABQAUSVictim@CPythonPlayerEventHandler@@@Z
_TEXT	SEGMENT
??$_To_address@PAUSVictim@CPythonPlayerEventHandler@@@std@@YA?A_PABQAUSVictim@CPythonPlayerEventHandler@@@Z PROC ; std::_To_address<CPythonPlayerEventHandler::SVictim *>, COMDAT
; __Val$ = ecx

; 4616 :     _STL_INTERNAL_STATIC_ASSERT(contiguous_iterator<_Iter>);
; 4617 :     return _STD to_address(_Val);

  00000	8b 01		 mov	 eax, DWORD PTR [ecx]

; 4618 : }

  00002	c3		 ret	 0
??$_To_address@PAUSVictim@CPythonPlayerEventHandler@@@std@@YA?A_PABQAUSVictim@CPythonPlayerEventHandler@@@Z ENDP ; std::_To_address<CPythonPlayerEventHandler::SVictim *>
_TEXT	ENDS
; Function compile flags: /Ogtp
; File C:\Program Files\Microsoft Visual Studio\2022\Community\VC\Tools\MSVC\14.44.35207\include\xmemory
; File C:\Program Files\Microsoft Visual Studio\2022\Community\VC\Tools\MSVC\14.44.35207\include\xutility
; File C:\Program Files\Microsoft Visual Studio\2022\Community\VC\Tools\MSVC\14.44.35207\include\xmemory
;	COMDAT ??$_Emplace_back@USVictim@CPythonPlayerEventHandler@@@?$_Uninitialized_backout_al@V?$allocator@USVictim@CPythonPlayerEventHandler@@@std@@@std@@QAEX$$QAUSVictim@CPythonPlayerEventHandler@@@Z
_TEXT	SEGMENT
_<_Vals_0>$ = 8						; size = 4
??$_Emplace_back@USVictim@CPythonPlayerEventHandler@@@?$_Uninitialized_backout_al@V?$allocator@USVictim@CPythonPlayerEventHandler@@@std@@@std@@QAEX$$QAUSVictim@CPythonPlayerEventHandler@@@Z PROC ; std::_Uninitialized_backout_al<std::allocator<CPythonPlayerEventHandler::SVictim> >::_Emplace_back<CPythonPlayerEventHandler::SVictim>, COMDAT
; _this$ = ecx

; 1843 :     _CONSTEXPR20 void _Emplace_back(_Types&&... _Vals) { // construct a new element at *_Last and increment

  00000	55		 push	 ebp
  00001	8b ec		 mov	 ebp, esp
; File C:\Program Files\Microsoft Visual Studio\2022\Community\VC\Tools\MSVC\14.44.35207\include\xutility

; 463  :     _MSVC_CONSTEXPR return ::new (static_cast<void*>(_Location)) _Ty(_STD forward<_Types>(_Args)...);

  00003	8b 45 08	 mov	 eax, DWORD PTR _<_Vals_0>$[ebp]
  00006	8b 51 04	 mov	 edx, DWORD PTR [ecx+4]
  00009	f3 0f 7e 00	 movq	 xmm0, QWORD PTR [eax]
  0000d	66 0f d6 02	 movq	 QWORD PTR [edx], xmm0
  00011	8b 40 08	 mov	 eax, DWORD PTR [eax+8]
  00014	89 42 08	 mov	 DWORD PTR [edx+8], eax
; File C:\Program Files\Microsoft Visual Studio\2022\Community\VC\Tools\MSVC\14.44.35207\include\xmemory

; 1845 :         ++_Last;

  00017	83 41 04 0c	 add	 DWORD PTR [ecx+4], 12	; 0000000cH

; 1846 :     }

  0001b	5d		 pop	 ebp
  0001c	c2 04 00	 ret	 4
??$_Emplace_back@USVictim@CPythonPlayerEventHandler@@@?$_Uninitialized_backout_al@V?$allocator@USVictim@CPythonPlayerEventHandler@@@std@@@std@@QAEX$$QAUSVictim@CPythonPlayerEventHandler@@@Z ENDP ; std::_Uninitialized_backout_al<std::allocator<CPythonPlayerEventHandler::SVictim> >::_Emplace_back<CPythonPlayerEventHandler::SVictim>
_TEXT	ENDS
; Function compile flags: /Ogtp
; File C:\Program Files\Microsoft Visual Studio\2022\Community\VC\Tools\MSVC\14.44.35207\include\xmemory
;	COMDAT ?_Release@?$_Uninitialized_backout_al@V?$allocator@USVictim@CPythonPlayerEventHandler@@@std@@@std@@QAEPAUSVictim@CPythonPlayerEventHandler@@XZ
_TEXT	SEGMENT
?_Release@?$_Uninitialized_backout_al@V?$allocator@USVictim@CPythonPlayerEventHandler@@@std@@@std@@QAEPAUSVictim@CPythonPlayerEventHandler@@XZ PROC ; std::_Uninitialized_backout_al<std::allocator<CPythonPlayerEventHandler::SVictim> >::_Release, COMDAT
; _this$ = ecx

; 1849 :         _First = _Last;

  00000	8b 41 04	 mov	 eax, DWORD PTR [ecx+4]
  00003	89 01		 mov	 DWORD PTR [ecx], eax

; 1850 :         return _Last;
; 1851 :     }

  00005	c3		 ret	 0
?_Release@?$_Uninitialized_backout_al@V?$allocator@USVictim@CPythonPlayerEventHandler@@@std@@@std@@QAEPAUSVictim@CPythonPlayerEventHandler@@XZ ENDP ; std::_Uninitialized_backout_al<std::allocator<CPythonPlayerEventHandler::SVictim> >::_Release
_TEXT	ENDS
; Function compile flags: /Ogtp
; File C:\Program Files\Microsoft Visual Studio\2022\Community\VC\Tools\MSVC\14.44.35207\include\xmemory
;	COMDAT ??1?$_Uninitialized_backout_al@V?$allocator@USVictim@CPythonPlayerEventHandler@@@std@@@std@@QAE@XZ
_TEXT	SEGMENT
??1?$_Uninitialized_backout_al@V?$allocator@USVictim@CPythonPlayerEventHandler@@@std@@@std@@QAE@XZ PROC ; std::_Uninitialized_backout_al<std::allocator<CPythonPlayerEventHandler::SVictim> >::~_Uninitialized_backout_al<std::allocator<CPythonPlayerEventHandler::SVictim> >, COMDAT
; _this$ = ecx

; 1839 :         _STD _Destroy_range(_First, _Last, _Al);
; 1840 :     }

  00000	c2 00 00	 ret	 0
??1?$_Uninitialized_backout_al@V?$allocator@USVictim@CPythonPlayerEventHandler@@@std@@@std@@QAE@XZ ENDP ; std::_Uninitialized_backout_al<std::allocator<CPythonPlayerEventHandler::SVictim> >::~_Uninitialized_backout_al<std::allocator<CPythonPlayerEventHandler::SVictim> >
_TEXT	ENDS
; Function compile flags: /Ogtp
; File C:\Program Files\Microsoft Visual Studio\2022\Community\VC\Tools\MSVC\14.44.35207\include\xmemory
;	COMDAT ??0?$_Uninitialized_backout_al@V?$allocator@USVictim@CPythonPlayerEventHandler@@@std@@@std@@QAE@PAUSVictim@CPythonPlayerEventHandler@@AAV?$allocator@USVictim@CPythonPlayerEventHandler@@@1@@Z
_TEXT	SEGMENT
__Dest$ = 8						; size = 4
__Al_$ = 12						; size = 4
??0?$_Uninitialized_backout_al@V?$allocator@USVictim@CPythonPlayerEventHandler@@@std@@@std@@QAE@PAUSVictim@CPythonPlayerEventHandler@@AAV?$allocator@USVictim@CPythonPlayerEventHandler@@@1@@Z PROC ; std::_Uninitialized_backout_al<std::allocator<CPythonPlayerEventHandler::SVictim> >::_Uninitialized_backout_al<std::allocator<CPythonPlayerEventHandler::SVictim> >, COMDAT
; _this$ = ecx

; 1833 :     _CONSTEXPR20 _Uninitialized_backout_al(pointer _Dest, _Alloc& _Al_) : _First(_Dest), _Last(_Dest), _Al(_Al_) {}

  00000	55		 push	 ebp
  00001	8b ec		 mov	 ebp, esp
  00003	8b 45 08	 mov	 eax, DWORD PTR __Dest$[ebp]
  00006	89 01		 mov	 DWORD PTR [ecx], eax
  00008	89 41 04	 mov	 DWORD PTR [ecx+4], eax
  0000b	8b 45 0c	 mov	 eax, DWORD PTR __Al_$[ebp]
  0000e	89 41 08	 mov	 DWORD PTR [ecx+8], eax
  00011	8b c1		 mov	 eax, ecx
  00013	5d		 pop	 ebp
  00014	c2 08 00	 ret	 8
??0?$_Uninitialized_backout_al@V?$allocator@USVictim@CPythonPlayerEventHandler@@@std@@@std@@QAE@PAUSVictim@CPythonPlayerEventHandler@@AAV?$allocator@USVictim@CPythonPlayerEventHandler@@@1@@Z ENDP ; std::_Uninitialized_backout_al<std::allocator<CPythonPlayerEventHandler::SVictim> >::_Uninitialized_backout_al<std::allocator<CPythonPlayerEventHandler::SVictim> >
_TEXT	ENDS
; Function compile flags: /Ogtp
; File C:\Program Files\Microsoft Visual Studio\2022\Community\VC\Tools\MSVC\14.44.35207\include\xmemory
;	COMDAT ?max_size@?$_Default_allocator_traits@V?$allocator@USVictim@CPythonPlayerEventHandler@@@std@@@std@@SAIABV?$allocator@USVictim@CPythonPlayerEventHandler@@@2@@Z
_TEXT	SEGMENT
?max_size@?$_Default_allocator_traits@V?$allocator@USVictim@CPythonPlayerEventHandler@@@std@@@std@@SAIABV?$allocator@USVictim@CPythonPlayerEventHandler@@@2@@Z PROC ; std::_Default_allocator_traits<std::allocator<CPythonPlayerEventHandler::SVictim> >::max_size, COMDAT
; ___formal$dead$ = ecx

; 746  :         return static_cast<size_t>(-1) / sizeof(value_type);

  00000	b8 55 55 55 15	 mov	 eax, 357913941		; 15555555H

; 747  :     }

  00005	c3		 ret	 0
?max_size@?$_Default_allocator_traits@V?$allocator@USVictim@CPythonPlayerEventHandler@@@std@@@std@@SAIABV?$allocator@USVictim@CPythonPlayerEventHandler@@@2@@Z ENDP ; std::_Default_allocator_traits<std::allocator<CPythonPlayerEventHandler::SVictim> >::max_size
_TEXT	ENDS
; Function compile flags: /Ogtp
; File C:\Program Files\Microsoft Visual Studio\2022\Community\VC\Tools\MSVC\14.44.35207\include\vector
;	COMDAT ?_Getal@?$vector@USVictim@CPythonPlayerEventHandler@@V?$allocator@USVictim@CPythonPlayerEventHandler@@@std@@@std@@ABEABV?$allocator@USVictim@CPythonPlayerEventHandler@@@2@XZ
_TEXT	SEGMENT
?_Getal@?$vector@USVictim@CPythonPlayerEventHandler@@V?$allocator@USVictim@CPythonPlayerEventHandler@@@std@@@std@@ABEABV?$allocator@USVictim@CPythonPlayerEventHandler@@@2@XZ PROC ; std::vector<CPythonPlayerEventHandler::SVictim,std::allocator<CPythonPlayerEventHandler::SVictim> >::_Getal, COMDAT
; _this$ = ecx

; 2231 :         return _Mypair._Get_first();

  00000	8b c1		 mov	 eax, ecx

; 2232 :     }

  00002	c3		 ret	 0
?_Getal@?$vector@USVictim@CPythonPlayerEventHandler@@V?$allocator@USVictim@CPythonPlayerEventHandler@@@std@@@std@@ABEABV?$allocator@USVictim@CPythonPlayerEventHandler@@@2@XZ ENDP ; std::vector<CPythonPlayerEventHandler::SVictim,std::allocator<CPythonPlayerEventHandler::SVictim> >::_Getal
_TEXT	ENDS
; Function compile flags: /Ogtp
; File C:\Program Files\Microsoft Visual Studio\2022\Community\VC\Tools\MSVC\14.44.35207\include\vector
;	COMDAT ?capacity@?$vector@USVictim@CPythonPlayerEventHandler@@V?$allocator@USVictim@CPythonPlayerEventHandler@@@std@@@std@@QBEIXZ
_TEXT	SEGMENT
?capacity@?$vector@USVictim@CPythonPlayerEventHandler@@V?$allocator@USVictim@CPythonPlayerEventHandler@@@std@@@std@@QBEIXZ PROC ; std::vector<CPythonPlayerEventHandler::SVictim,std::allocator<CPythonPlayerEventHandler::SVictim> >::capacity, COMDAT
; _this$ = ecx

; 1923 :         auto& _My_data = _Mypair._Myval2;
; 1924 :         return static_cast<size_type>(_My_data._Myend - _My_data._Myfirst);

  00000	8b 41 08	 mov	 eax, DWORD PTR [ecx+8]
  00003	2b 01		 sub	 eax, DWORD PTR [ecx]
  00005	c1 f8 02	 sar	 eax, 2
  00008	69 c0 ab aa aa
	aa		 imul	 eax, eax, -1431655765

; 1925 :     }

  0000e	c3		 ret	 0
?capacity@?$vector@USVictim@CPythonPlayerEventHandler@@V?$allocator@USVictim@CPythonPlayerEventHandler@@@std@@@std@@QBEIXZ ENDP ; std::vector<CPythonPlayerEventHandler::SVictim,std::allocator<CPythonPlayerEventHandler::SVictim> >::capacity
_TEXT	ENDS
; Function compile flags: /Ogtp
; File C:\Program Files\Microsoft Visual Studio\2022\Community\VC\Tools\MSVC\14.44.35207\include\xmemory
;	COMDAT ?allocate@?$allocator@USVictim@CPythonPlayerEventHandler@@@std@@QAEPAUSVictim@CPythonPlayerEventHandler@@I@Z
_TEXT	SEGMENT
__Count$ = 8						; size = 4
?allocate@?$allocator@USVictim@CPythonPlayerEventHandler@@@std@@QAEPAUSVictim@CPythonPlayerEventHandler@@I@Z PROC ; std::allocator<CPythonPlayerEventHandler::SVictim>::allocate, COMDAT
; _this$dead$ = ecx

; 988  :     _NODISCARD_RAW_PTR_ALLOC _CONSTEXPR20 __declspec(allocator) _Ty* allocate(_CRT_GUARDOVERFLOW const size_t _Count) {

  00000	55		 push	 ebp
  00001	8b ec		 mov	 ebp, esp

; 117  :         if (_Count > _Max_possible) {

  00003	8b 45 08	 mov	 eax, DWORD PTR __Count$[ebp]
  00006	3d 55 55 55 15	 cmp	 eax, 357913941		; 15555555H
  0000b	77 2e		 ja	 SHORT $LN19@allocate

; 119  :         }
; 120  :     }
; 121  : 
; 122  :     return _Count * _Ty_size;

  0000d	8d 04 40	 lea	 eax, DWORD PTR [eax+eax*2]
  00010	c1 e0 02	 shl	 eax, 2

; 227  :     if (_Bytes == 0) {

  00013	85 c0		 test	 eax, eax
  00015	75 04		 jne	 SHORT $LN8@allocate

; 989  :         static_assert(sizeof(value_type) > 0, "value_type must be complete before calling allocate.");
; 990  :         return static_cast<_Ty*>(_STD _Allocate<_New_alignof<_Ty>>(_Get_size_of_n<sizeof(_Ty)>(_Count)));
; 991  :     }

  00017	5d		 pop	 ebp
  00018	c2 04 00	 ret	 4
$LN8@allocate:

; 251  :         if (_Bytes >= _Big_allocation_threshold) {

  0001b	50		 push	 eax
  0001c	3d 00 10 00 00	 cmp	 eax, 4096		; 00001000H
  00021	72 0c		 jb	 SHORT $LN10@allocate

; 252  :             // boost the alignment of big allocations to help autovectorization
; 253  :             return _Allocate_manually_vector_aligned<_Traits>(_Bytes);

  00023	e8 00 00 00 00	 call	 ??$_Allocate_manually_vector_aligned@U_Default_allocate_traits@std@@@std@@YAPAXI@Z ; std::_Allocate_manually_vector_aligned<std::_Default_allocate_traits>

; 989  :         static_assert(sizeof(value_type) > 0, "value_type must be complete before calling allocate.");
; 990  :         return static_cast<_Ty*>(_STD _Allocate<_New_alignof<_Ty>>(_Get_size_of_n<sizeof(_Ty)>(_Count)));
; 991  :     }

  00028	83 c4 04	 add	 esp, 4
  0002b	5d		 pop	 ebp
  0002c	c2 04 00	 ret	 4
$LN10@allocate:

; 136  :         return ::operator new(_Bytes);

  0002f	e8 00 00 00 00	 call	 ??2@YAPAXI@Z		; operator new

; 989  :         static_assert(sizeof(value_type) > 0, "value_type must be complete before calling allocate.");
; 990  :         return static_cast<_Ty*>(_STD _Allocate<_New_alignof<_Ty>>(_Get_size_of_n<sizeof(_Ty)>(_Count)));
; 991  :     }

  00034	83 c4 04	 add	 esp, 4
  00037	5d		 pop	 ebp
  00038	c2 04 00	 ret	 4
$LN19@allocate:

; 118  :             _Throw_bad_array_new_length(); // multiply overflow

  0003b	e8 00 00 00 00	 call	 ?_Throw_bad_array_new_length@std@@YAXXZ ; std::_Throw_bad_array_new_length
$LN16@allocate:
  00040	cc		 int	 3
?allocate@?$allocator@USVictim@CPythonPlayerEventHandler@@@std@@QAEPAUSVictim@CPythonPlayerEventHandler@@I@Z ENDP ; std::allocator<CPythonPlayerEventHandler::SVictim>::allocate
_TEXT	ENDS
; Function compile flags: /Ogtp
; File C:\Program Files\Microsoft Visual Studio\2022\Community\VC\Tools\MSVC\14.44.35207\include\xutility
;	COMDAT ??$to_address@USVictim@CPythonPlayerEventHandler@@@std@@YAPAUSVictim@CPythonPlayerEventHandler@@QAU12@@Z
_TEXT	SEGMENT
??$to_address@USVictim@CPythonPlayerEventHandler@@@std@@YAPAUSVictim@CPythonPlayerEventHandler@@QAU12@@Z PROC ; std::to_address<CPythonPlayerEventHandler::SVictim>, COMDAT
; __Val$ = ecx

; 541  :     static_assert(!is_function_v<_Ty>, "N4950 [pointer.conversion]/1: Mandates: T is not a function type.");
; 542  :     return _Val;

  00000	8b c1		 mov	 eax, ecx

; 543  : }

  00002	c3		 ret	 0
??$to_address@USVictim@CPythonPlayerEventHandler@@@std@@YAPAUSVictim@CPythonPlayerEventHandler@@QAU12@@Z ENDP ; std::to_address<CPythonPlayerEventHandler::SVictim>
_TEXT	ENDS
; Function compile flags: /Ogtp
; File C:\Program Files\Microsoft Visual Studio\2022\Community\VC\Tools\MSVC\14.44.35207\include\type_traits
;	COMDAT ??$move@AAPAUSVictim@CPythonPlayerEventHandler@@@std@@YA$$QAPAUSVictim@CPythonPlayerEventHandler@@AAPAU12@@Z
_TEXT	SEGMENT
??$move@AAPAUSVictim@CPythonPlayerEventHandler@@@std@@YA$$QAPAUSVictim@CPythonPlayerEventHandler@@AAPAU12@@Z PROC ; std::move<CPythonPlayerEventHandler::SVictim * &>, COMDAT
; __Arg$ = ecx

; 1513 :     return static_cast<remove_reference_t<_Ty>&&>(_Arg);

  00000	8b c1		 mov	 eax, ecx

; 1514 : }

  00002	c3		 ret	 0
??$move@AAPAUSVictim@CPythonPlayerEventHandler@@@std@@YA$$QAPAUSVictim@CPythonPlayerEventHandler@@AAPAU12@@Z ENDP ; std::move<CPythonPlayerEventHandler::SVictim * &>
_TEXT	ENDS
; Function compile flags: /Ogtp
; File C:\Program Files\Microsoft Visual Studio\2022\Community\VC\Tools\MSVC\14.44.35207\include\xutility
;	COMDAT ??$_Copy_memmove_tail@PAUSVictim@CPythonPlayerEventHandler@@@std@@YAPAUSVictim@CPythonPlayerEventHandler@@QBDQAU12@II@Z
_TEXT	SEGMENT
__Byte_count$ = 8					; size = 4
__Object_count$dead$ = 12				; size = 4
??$_Copy_memmove_tail@PAUSVictim@CPythonPlayerEventHandler@@@std@@YAPAUSVictim@CPythonPlayerEventHandler@@QBDQAU12@II@Z PROC ; std::_Copy_memmove_tail<CPythonPlayerEventHandler::SVictim *>, COMDAT
; __First_ch$ = ecx
; __Dest$ = edx

; 4747 :     const char* const _First_ch, const _OutCtgIt _Dest, const size_t _Byte_count, const size_t _Object_count) {

  00000	55		 push	 ebp
  00001	8b ec		 mov	 ebp, esp
  00003	56		 push	 esi

; 4748 :     _STL_INTERNAL_CHECK(_Byte_count == _Object_count * sizeof(*_Dest));
; 4749 :     const auto _Dest_ptr = _STD _To_address(_Dest);
; 4750 :     const auto _Dest_ch  = const_cast<char*>(reinterpret_cast<const volatile char*>(_Dest_ptr));
; 4751 :     _CSTD memmove(_Dest_ch, _First_ch, _Byte_count);

  00004	8b 75 08	 mov	 esi, DWORD PTR __Byte_count$[ebp]
  00007	57		 push	 edi
  00008	56		 push	 esi
  00009	8b fa		 mov	 edi, edx
  0000b	51		 push	 ecx
  0000c	57		 push	 edi
  0000d	e8 00 00 00 00	 call	 _memmove
  00012	83 c4 0c	 add	 esp, 12			; 0000000cH

; 4752 :     if constexpr (is_pointer_v<_OutCtgIt>) {
; 4753 :         (void) _Object_count;
; 4754 :         // CodeQL [SM02986] This cast is correct: we're bypassing pointer arithmetic for performance.
; 4755 :         return reinterpret_cast<_OutCtgIt>(_Dest_ch + _Byte_count);

  00015	8d 04 37	 lea	 eax, DWORD PTR [edi+esi]
  00018	5f		 pop	 edi
  00019	5e		 pop	 esi

; 4756 :     } else {
; 4757 :         return _Dest + static_cast<_Iter_diff_t<_OutCtgIt>>(_Object_count);
; 4758 :     }
; 4759 : }

  0001a	5d		 pop	 ebp
  0001b	c3		 ret	 0
??$_Copy_memmove_tail@PAUSVictim@CPythonPlayerEventHandler@@@std@@YAPAUSVictim@CPythonPlayerEventHandler@@QBDQAU12@II@Z ENDP ; std::_Copy_memmove_tail<CPythonPlayerEventHandler::SVictim *>
_TEXT	ENDS
; Function compile flags: /Ogtp
; File C:\Program Files\Microsoft Visual Studio\2022\Community\VC\Tools\MSVC\14.44.35207\include\type_traits
;	COMDAT ??$forward@USVictim@CPythonPlayerEventHandler@@@std@@YA$$QAUSVictim@CPythonPlayerEventHandler@@AAU12@@Z
_TEXT	SEGMENT
??$forward@USVictim@CPythonPlayerEventHandler@@@std@@YA$$QAUSVictim@CPythonPlayerEventHandler@@AAU12@@Z PROC ; std::forward<CPythonPlayerEventHandler::SVictim>, COMDAT
; __Arg$ = ecx

; 1502 :     return static_cast<_Ty&&>(_Arg);

  00000	8b c1		 mov	 eax, ecx

; 1503 : }

  00002	c3		 ret	 0
??$forward@USVictim@CPythonPlayerEventHandler@@@std@@YA$$QAUSVictim@CPythonPlayerEventHandler@@AAU12@@Z ENDP ; std::forward<CPythonPlayerEventHandler::SVictim>
_TEXT	ENDS
; Function compile flags: /Ogtp
; File C:\Program Files\Microsoft Visual Studio\2022\Community\VC\Tools\MSVC\14.44.35207\include\xmemory
; File C:\Program Files\Microsoft Visual Studio\2022\Community\VC\Tools\MSVC\14.44.35207\include\xutility
; File C:\Program Files\Microsoft Visual Studio\2022\Community\VC\Tools\MSVC\14.44.35207\include\xmemory
;	COMDAT ??$construct@USVictim@CPythonPlayerEventHandler@@U12@@?$_Default_allocator_traits@V?$allocator@USVictim@CPythonPlayerEventHandler@@@std@@@std@@SAXAAV?$allocator@USVictim@CPythonPlayerEventHandler@@@1@QAUSVictim@CPythonPlayerEventHandler@@$$QAU34@@Z
_TEXT	SEGMENT
_<_Args_0>$ = 8						; size = 4
??$construct@USVictim@CPythonPlayerEventHandler@@U12@@?$_Default_allocator_traits@V?$allocator@USVictim@CPythonPlayerEventHandler@@@std@@@std@@SAXAAV?$allocator@USVictim@CPythonPlayerEventHandler@@@1@QAUSVictim@CPythonPlayerEventHandler@@$$QAU34@@Z PROC ; std::_Default_allocator_traits<std::allocator<CPythonPlayerEventHandler::SVictim> >::construct<CPythonPlayerEventHandler::SVictim,CPythonPlayerEventHandler::SVictim>, COMDAT
; ___formal$dead$ = ecx
; __Ptr$ = edx

; 728  :     static _CONSTEXPR20 void construct(_Alloc&, _Objty* const _Ptr, _Types&&... _Args) {

  00000	55		 push	 ebp
  00001	8b ec		 mov	 ebp, esp
; File C:\Program Files\Microsoft Visual Studio\2022\Community\VC\Tools\MSVC\14.44.35207\include\xutility

; 463  :     _MSVC_CONSTEXPR return ::new (static_cast<void*>(_Location)) _Ty(_STD forward<_Types>(_Args)...);

  00003	8b 45 08	 mov	 eax, DWORD PTR _<_Args_0>$[ebp]
  00006	f3 0f 7e 00	 movq	 xmm0, QWORD PTR [eax]
  0000a	66 0f d6 02	 movq	 QWORD PTR [edx], xmm0
  0000e	8b 40 08	 mov	 eax, DWORD PTR [eax+8]
  00011	89 42 08	 mov	 DWORD PTR [edx+8], eax
; File C:\Program Files\Microsoft Visual Studio\2022\Community\VC\Tools\MSVC\14.44.35207\include\xmemory

; 734  :     }

  00014	5d		 pop	 ebp
  00015	c3		 ret	 0
??$construct@USVictim@CPythonPlayerEventHandler@@U12@@?$_Default_allocator_traits@V?$allocator@USVictim@CPythonPlayerEventHandler@@@std@@@std@@SAXAAV?$allocator@USVictim@CPythonPlayerEventHandler@@@1@QAUSVictim@CPythonPlayerEventHandler@@$$QAU34@@Z ENDP ; std::_Default_allocator_traits<std::allocator<CPythonPlayerEventHandler::SVictim> >::construct<CPythonPlayerEventHandler::SVictim,CPythonPlayerEventHandler::SVictim>
_TEXT	ENDS
; Function compile flags: /Ogtp
; File C:\Program Files\Microsoft Visual Studio\2022\Community\VC\Tools\MSVC\14.44.35207\include\xmemory
;	COMDAT ?_Get_first@?$_Compressed_pair@V?$allocator@USVictim@CPythonPlayerEventHandler@@@std@@V?$_Vector_val@U?$_Simple_types@USVictim@CPythonPlayerEventHandler@@@std@@@2@$00@std@@QBEABV?$allocator@USVictim@CPythonPlayerEventHandler@@@2@XZ
_TEXT	SEGMENT
?_Get_first@?$_Compressed_pair@V?$allocator@USVictim@CPythonPlayerEventHandler@@@std@@V?$_Vector_val@U?$_Simple_types@USVictim@CPythonPlayerEventHandler@@@std@@@2@$00@std@@QBEABV?$allocator@USVictim@CPythonPlayerEventHandler@@@2@XZ PROC ; std::_Compressed_pair<std::allocator<CPythonPlayerEventHandler::SVictim>,std::_Vector_val<std::_Simple_types<CPythonPlayerEventHandler::SVictim> >,1>::_Get_first, COMDAT
; _this$ = ecx

; 1543 :         return *this;

  00000	8b c1		 mov	 eax, ecx

; 1544 :     }

  00002	c3		 ret	 0
?_Get_first@?$_Compressed_pair@V?$allocator@USVictim@CPythonPlayerEventHandler@@@std@@V?$_Vector_val@U?$_Simple_types@USVictim@CPythonPlayerEventHandler@@@std@@@2@$00@std@@QBEABV?$allocator@USVictim@CPythonPlayerEventHandler@@@2@XZ ENDP ; std::_Compressed_pair<std::allocator<CPythonPlayerEventHandler::SVictim>,std::_Vector_val<std::_Simple_types<CPythonPlayerEventHandler::SVictim> >,1>::_Get_first
_TEXT	ENDS
; Function compile flags: /Ogtp
; File C:\Program Files\Microsoft Visual Studio\2022\Community\VC\Tools\MSVC\14.44.35207\include\xutility
;	COMDAT ??$construct_at@USVictim@CPythonPlayerEventHandler@@U12@@std@@YAPAUSVictim@CPythonPlayerEventHandler@@QAU12@$$QAU12@@Z
_TEXT	SEGMENT
??$construct_at@USVictim@CPythonPlayerEventHandler@@U12@@std@@YAPAUSVictim@CPythonPlayerEventHandler@@QAU12@$$QAU12@@Z PROC ; std::construct_at<CPythonPlayerEventHandler::SVictim,CPythonPlayerEventHandler::SVictim>, COMDAT
; __Location$ = ecx
; _<_Args_0>$ = edx

; 463  :     _MSVC_CONSTEXPR return ::new (static_cast<void*>(_Location)) _Ty(_STD forward<_Types>(_Args)...);

  00000	f3 0f 7e 02	 movq	 xmm0, QWORD PTR [edx]
  00004	66 0f d6 01	 movq	 QWORD PTR [ecx], xmm0
  00008	8b 42 08	 mov	 eax, DWORD PTR [edx+8]
  0000b	89 41 08	 mov	 DWORD PTR [ecx+8], eax
  0000e	8b c1		 mov	 eax, ecx

; 464  : }

  00010	c3		 ret	 0
??$construct_at@USVictim@CPythonPlayerEventHandler@@U12@@std@@YAPAUSVictim@CPythonPlayerEventHandler@@QAU12@$$QAU12@@Z ENDP ; std::construct_at<CPythonPlayerEventHandler::SVictim,CPythonPlayerEventHandler::SVictim>
_TEXT	ENDS
END
