; Listing generated by Microsoft (R) Optimizing Compiler Version 19.44.35217.0 

	TITLE	d:\_m2work\txoko-m2-work\txoko-client-src\vs_files\userinterface\distribute\pythonnetworkstreamphaselogin.obj
	.686P
	.XMM
	include listing.inc
	.model	flat

INCLUDELIB OLDNAMES

PUBLIC	??_C@_05DHEMANOL@Login@				; `string'
PUBLIC	??_C@_0N@GCHAFKJJ@OnLoginStart@			; `string'
PUBLIC	??_C@_0BM@GIOJNFMI@?$CD?$CD?5Network?5?9?5Login?5Phase?5?$CD?$CD@ ; `string'
PUBLIC	??_C@_0BP@LPFBEHCD@BINARY_OnNEWCIBNPasspodFailure@ ; `string'
PUBLIC	??_C@_0BA@HOEIMIKO@SendDirectEnter@		; `string'
;	COMDAT ??_C@_0BA@HOEIMIKO@SendDirectEnter@
CONST	SEGMENT
??_C@_0BA@HOEIMIKO@SendDirectEnter@ DB 'SendDirectEnter', 00H ; `string'
CONST	ENDS
;	COMDAT ??_C@_0BP@LPFBEHCD@BINARY_OnNEWCIBNPasspodFailure@
CONST	SEGMENT
??_C@_0BP@LPFBEHCD@BINARY_OnNEWCIBNPasspodFailure@ DB 'BINARY_OnNEWCIBNPa'
	DB	'sspodFailure', 00H				; `string'
CONST	ENDS
;	COMDAT ??_C@_0BM@GIOJNFMI@?$CD?$CD?5Network?5?9?5Login?5Phase?5?$CD?$CD@
CONST	SEGMENT
??_C@_0BM@GIOJNFMI@?$CD?$CD?5Network?5?9?5Login?5Phase?5?$CD?$CD@ DB '## '
	DB	'Network - Login Phase ##', 00H		; `string'
CONST	ENDS
;	COMDAT ??_C@_0N@GCHAFKJJ@OnLoginStart@
CONST	SEGMENT
??_C@_0N@GCHAFKJJ@OnLoginStart@ DB 'OnLoginStart', 00H	; `string'
CONST	ENDS
;	COMDAT ??_C@_05DHEMANOL@Login@
CONST	SEGMENT
??_C@_05DHEMANOL@Login@ DB 'Login', 00H			; `string'
PUBLIC	?__RecvLoginKeyPacket@CPythonNetworkStream@@IAE_NXZ ; CPythonNetworkStream::__RecvLoginKeyPacket
PUBLIC	?__RecvChinaMatrixCardPacket@CPythonNetworkStream@@IAE_NXZ ; CPythonNetworkStream::__RecvChinaMatrixCardPacket
PUBLIC	?__RecvNEWCIBNPasspodFailurePacket@CPythonNetworkStream@@IAE_NXZ ; CPythonNetworkStream::__RecvNEWCIBNPasspodFailurePacket
PUBLIC	?__RecvNEWCIBNPasspodRequestPacket@CPythonNetworkStream@@IAE_NXZ ; CPythonNetworkStream::__RecvNEWCIBNPasspodRequestPacket
PUBLIC	?__RecvRunupMatrixQuizPacket@CPythonNetworkStream@@IAE_NXZ ; CPythonNetworkStream::__RecvRunupMatrixQuizPacket
PUBLIC	?SendLoginPacketNew@CPythonNetworkStream@@QAE_NPBD0@Z ; CPythonNetworkStream::SendLoginPacketNew
PUBLIC	?__RecvLoginFailurePacket@CPythonNetworkStream@@IAE_NXZ ; CPythonNetworkStream::__RecvLoginFailurePacket
PUBLIC	?__RecvLoginSuccessPacket4@CPythonNetworkStream@@IAE_NXZ ; CPythonNetworkStream::__RecvLoginSuccessPacket4
PUBLIC	?__RecvLoginSuccessPacket3@CPythonNetworkStream@@IAE_NXZ ; CPythonNetworkStream::__RecvLoginSuccessPacket3
PUBLIC	?__RecvEmpirePacket@CPythonNetworkStream@@IAE_NXZ ; CPythonNetworkStream::__RecvEmpirePacket
PUBLIC	?LoginPhase@CPythonNetworkStream@@IAEXXZ	; CPythonNetworkStream::LoginPhase
PUBLIC	?__LeaveLoginPhase@CPythonNetworkStream@@IAEXXZ	; CPythonNetworkStream::__LeaveLoginPhase
PUBLIC	?SendLoginPacket@CPythonNetworkStream@@QAE_NPBD0@Z ; CPythonNetworkStream::SendLoginPacket
PUBLIC	?SetLoginPhase@CPythonNetworkStream@@QAEXXZ	; CPythonNetworkStream::SetLoginPhase
PUBLIC	?OnConnectFailure@CPythonNetworkStream@@MAEXXZ	; CPythonNetworkStream::OnConnectFailure
; Function compile flags: /Ogtp
; File D:\_m2work\txoko-m2-work\txoko-client-src\source\UserInterface\PythonNetworkStreamPhaseLogin.cpp
;	COMDAT ?OnConnectFailure@CPythonNetworkStream@@MAEXXZ
_TEXT	SEGMENT
?OnConnectFailure@CPythonNetworkStream@@MAEXXZ PROC	; CPythonNetworkStream::OnConnectFailure, COMDAT
; _this$ = ecx

; 212  : {

  00000	56		 push	 esi
  00001	8b f1		 mov	 esi, ecx

; 213  : 	if (__DirectEnterMode_IsSet())

  00003	e8 00 00 00 00	 call	 ?__DirectEnterMode_IsSet@CPythonNetworkStream@@AAE_NXZ ; CPythonNetworkStream::__DirectEnterMode_IsSet
  00008	84 c0		 test	 al, al
  0000a	74 06		 je	 SHORT $LN2@OnConnectF
  0000c	5e		 pop	 esi

; 214  : 	{
; 215  : 		ClosePhase();

  0000d	e9 00 00 00 00	 jmp	 ?ClosePhase@CPythonNetworkStream@@QAEXXZ ; CPythonNetworkStream::ClosePhase
$LN2@OnConnectF:

; 216  : 	}
; 217  : 	else
; 218  : 	{
; 219  : 		PyCallClassMemberFunc(m_apoPhaseWnd[PHASE_WINDOW_LOGIN], "OnConnectFailure", Py_BuildValue("()"));	

  00012	68 00 00 00 00	 push	 OFFSET ??_C@_02HCKGKOFO@?$CI?$CJ@
  00017	ff 15 00 00 00
	00		 call	 DWORD PTR __imp__Py_BuildValue
  0001d	50		 push	 eax
  0001e	68 00 00 00 00	 push	 OFFSET ??_C@_0BB@JEKGEMCL@OnConnectFailure@
  00023	ff b6 80 01 00
	00		 push	 DWORD PTR [esi+384]
  00029	e8 00 00 00 00	 call	 ?PyCallClassMemberFunc@@YA_NPAU_object@@PBD0@Z ; PyCallClassMemberFunc
  0002e	83 c4 10	 add	 esp, 16			; 00000010H
  00031	5e		 pop	 esi

; 220  : 	}
; 221  : }

  00032	c3		 ret	 0
?OnConnectFailure@CPythonNetworkStream@@MAEXXZ ENDP	; CPythonNetworkStream::OnConnectFailure
_TEXT	ENDS
; Function compile flags: /Ogtp
; File D:\_m2work\txoko-m2-work\txoko-client-src\source\UserInterface\PythonNetworkStreamPhaseLogin.cpp
; File D:\_m2work\txoko-m2-work\txoko-client-src\source\EterLib\FuncObject.h
; File D:\_m2work\txoko-m2-work\txoko-client-src\source\UserInterface\PythonNetworkStreamPhaseLogin.cpp
; File C:\Program Files\Microsoft Visual Studio\2022\Community\VC\Tools\MSVC\14.44.35207\include\xstring
; File D:\_m2work\txoko-m2-work\txoko-client-src\source\EterLib\FuncObject.h
; File D:\_m2work\txoko-m2-work\txoko-client-src\source\UserInterface\PythonNetworkStreamPhaseLogin.cpp
; File C:\Program Files\Microsoft Visual Studio\2022\Community\VC\Tools\MSVC\14.44.35207\include\xstring
; File D:\_m2work\txoko-m2-work\txoko-client-src\source\UserInterface\PythonNetworkStreamPhaseLogin.cpp
; File C:\Program Files\Microsoft Visual Studio\2022\Community\VC\Tools\MSVC\14.44.35207\include\xstring
; File D:\_m2work\txoko-m2-work\txoko-client-src\source\UserInterface\PythonNetworkStreamPhaseLogin.cpp
; File C:\Program Files\Microsoft Visual Studio\2022\Community\VC\Tools\MSVC\14.44.35207\include\xstring
; File D:\_m2work\txoko-m2-work\txoko-client-src\source\UserInterface\PythonNetworkStreamPhaseLogin.cpp
; File C:\Program Files\Microsoft Visual Studio\2022\Community\VC\Tools\MSVC\14.44.35207\include\xstring
; File D:\_m2work\txoko-m2-work\txoko-client-src\source\UserInterface\PythonNetworkStreamPhaseLogin.cpp
;	COMDAT ?SetLoginPhase@CPythonNetworkStream@@QAEXXZ
_TEXT	SEGMENT
?SetLoginPhase@CPythonNetworkStream@@QAEXXZ PROC	; CPythonNetworkStream::SetLoginPhase, COMDAT
; _this$ = ecx

; 94   : {

  00000	51		 push	 ecx
  00001	56		 push	 esi
  00002	8b f1		 mov	 esi, ecx
  00004	57		 push	 edi

; 95   : 	const char* key = LocaleService_GetSecurityKey();
; 96   : #ifndef _IMPROVED_PACKET_ENCRYPTION_
; 97   : 	SetSecurityMode(true, key);
; 98   : #endif
; 99   : 
; 100  : 	if ("Login" != m_strPhase)

  00005	68 00 00 00 00	 push	 OFFSET ??_C@_05DHEMANOL@Login@
  0000a	8d be 0c 01 00
	00		 lea	 edi, DWORD PTR [esi+268]
  00010	57		 push	 edi
  00011	e8 00 00 00 00	 call	 ??$?8DU?$char_traits@D@std@@V?$allocator@D@1@@std@@YA_NABV?$basic_string@DU?$char_traits@D@std@@V?$allocator@D@2@@0@QBD@Z ; std::operator==<char,std::char_traits<char>,std::allocator<char> >
  00016	83 c4 08	 add	 esp, 8
  00019	84 c0		 test	 al, al
  0001b	75 1e		 jne	 SHORT $LN23@SetLoginPh
; File D:\_m2work\txoko-m2-work\txoko-client-src\source\EterLib\FuncObject.h

; 41   : 			if (m_pSelfObject)

  0001d	8b 86 68 01 00
	00		 mov	 eax, DWORD PTR [esi+360]
  00023	85 c0		 test	 eax, eax
  00025	74 14		 je	 SHORT $LN23@SetLoginPh

; 42   : 				if (m_pFuncObject)

  00027	8b 96 70 01 00
	00		 mov	 edx, DWORD PTR [esi+368]
  0002d	85 d2		 test	 edx, edx
  0002f	74 0a		 je	 SHORT $LN23@SetLoginPh

; 43   : 					(m_pSelfObject->*m_pFuncObject)();

  00031	8b 8e 74 01 00
	00		 mov	 ecx, DWORD PTR [esi+372]
  00037	03 c8		 add	 ecx, eax
  00039	ff d2		 call	 edx
$LN23@SetLoginPh:
; File D:\_m2work\txoko-m2-work\txoko-client-src\source\UserInterface\PythonNetworkStreamPhaseLogin.cpp

; 103  : 	Tracen("");

  0003b	68 00 00 00 00	 push	 OFFSET ??_C@_00CNPNBAHC@@
  00040	e8 00 00 00 00	 call	 ?Tracen@@YAXPBD@Z	; Tracen
  00045	83 c4 04	 add	 esp, 4

; 104  : 	Tracen("## Network - Login Phase ##");

  00048	68 00 00 00 00	 push	 OFFSET ??_C@_0BM@GIOJNFMI@?$CD?$CD?5Network?5?9?5Login?5Phase?5?$CD?$CD@
  0004d	e8 00 00 00 00	 call	 ?Tracen@@YAXPBD@Z	; Tracen
  00052	83 c4 04	 add	 esp, 4

; 105  : 	Tracen("");

  00055	68 00 00 00 00	 push	 OFFSET ??_C@_00CNPNBAHC@@
  0005a	e8 00 00 00 00	 call	 ?Tracen@@YAXPBD@Z	; Tracen
  0005f	83 c4 04	 add	 esp, 4
; File C:\Program Files\Microsoft Visual Studio\2022\Community\VC\Tools\MSVC\14.44.35207\include\xstring

; 1638 :         return assign(_Ptr, _Convert_size<size_type>(_Traits::length(_Ptr)));

  00062	8b cf		 mov	 ecx, edi
  00064	6a 05		 push	 5
  00066	68 00 00 00 00	 push	 OFFSET ??_C@_05DHEMANOL@Login@
  0006b	e8 00 00 00 00	 call	 ?assign@?$basic_string@DU?$char_traits@D@std@@V?$allocator@D@2@@std@@QAEAAV12@QBDI@Z ; std::basic_string<char,std::char_traits<char>,std::allocator<char> >::assign
; File D:\_m2work\txoko-m2-work\txoko-client-src\source\EterLib\FuncObject.h

; 24   : 			m_pSelfObject = pSelfObject;

  00070	89 b6 50 01 00
	00		 mov	 DWORD PTR [esi+336], esi

; 25   : 			m_pFuncObject = pFuncObject;

  00076	c7 86 58 01 00
	00 00 00 00 00	 mov	 DWORD PTR [esi+344], OFFSET ?LoginPhase@CPythonNetworkStream@@IAEXXZ ; CPythonNetworkStream::LoginPhase
  00080	c7 86 5c 01 00
	00 00 00 00 00	 mov	 DWORD PTR [esi+348], 0

; 24   : 			m_pSelfObject = pSelfObject;

  0008a	89 b6 68 01 00
	00		 mov	 DWORD PTR [esi+360], esi

; 25   : 			m_pFuncObject = pFuncObject;

  00090	c7 86 70 01 00
	00 00 00 00 00	 mov	 DWORD PTR [esi+368], OFFSET ?__LeaveLoginPhase@CPythonNetworkStream@@IAEXXZ ; CPythonNetworkStream::__LeaveLoginPhase
  0009a	c7 86 74 01 00
	00 00 00 00 00	 mov	 DWORD PTR [esi+372], 0
; File D:\_m2work\txoko-m2-work\txoko-client-src\source\UserInterface\PythonNetworkStreamPhaseLogin.cpp

; 112  : 	m_dwChangingPhaseTime = ELTimer_GetMSec();

  000a4	e8 00 00 00 00	 call	 ?ELTimer_GetMSec@@YAKXZ	; ELTimer_GetMSec

; 113  : 
; 114  : 	if (__DirectEnterMode_IsSet())

  000a9	8b 96 24 01 00
	00		 mov	 edx, DWORD PTR [esi+292]
  000af	8b ce		 mov	 ecx, esi
  000b1	89 86 90 00 00
	00		 mov	 DWORD PTR [esi+144], eax
  000b7	e8 00 00 00 00	 call	 ?__DirectEnterMode_IsSet@CPythonNetworkStream@@AAE_NXZ ; CPythonNetworkStream::__DirectEnterMode_IsSet
  000bc	84 c0		 test	 al, al
  000be	74 5f		 je	 SHORT $LN3@SetLoginPh

; 115  : 	{
; 116  : 		if (0 != m_dwLoginKey)

  000c0	85 d2		 test	 edx, edx
  000c2	74 1a		 je	 SHORT $LN5@SetLoginPh
; File C:\Program Files\Microsoft Visual Studio\2022\Community\VC\Tools\MSVC\14.44.35207\include\xstring

; 453  :         return _Myres > _Small_string_capacity;

  000c4	83 be d8 00 00
	00 0f		 cmp	 DWORD PTR [esi+216], 15	; 0000000fH

; 2356 :         return _Mypair._Myval2._Myptr();

  000cb	8d 86 c4 00 00
	00		 lea	 eax, DWORD PTR [esi+196]

; 445  :         if (_Large_mode_engaged()) {

  000d1	76 02		 jbe	 SHORT $LN46@SetLoginPh

; 446  :             _Result = _Unfancy(_Bx._Ptr);

  000d3	8b 00		 mov	 eax, DWORD PTR [eax]
$LN46@SetLoginPh:
; File D:\_m2work\txoko-m2-work\txoko-client-src\source\UserInterface\PythonNetworkStreamPhaseLogin.cpp

; 117  : 			SendLoginPacketNew(m_stID.c_str(), m_stPassword.c_str());

  000d5	51		 push	 ecx
  000d6	50		 push	 eax
  000d7	e8 00 00 00 00	 call	 ?SendLoginPacketNew@CPythonNetworkStream@@QAE_NPBD0@Z ; CPythonNetworkStream::SendLoginPacketNew
  000dc	eb 2b		 jmp	 SHORT $LN6@SetLoginPh
$LN5@SetLoginPh:
; File C:\Program Files\Microsoft Visual Studio\2022\Community\VC\Tools\MSVC\14.44.35207\include\xstring

; 453  :         return _Myres > _Small_string_capacity;

  000de	83 be f0 00 00
	00 0f		 cmp	 DWORD PTR [esi+240], 15	; 0000000fH

; 2356 :         return _Mypair._Myval2._Myptr();

  000e5	8d 86 dc 00 00
	00		 lea	 eax, DWORD PTR [esi+220]

; 445  :         if (_Large_mode_engaged()) {

  000eb	76 02		 jbe	 SHORT $LN56@SetLoginPh

; 446  :             _Result = _Unfancy(_Bx._Ptr);

  000ed	8b 00		 mov	 eax, DWORD PTR [eax]
$LN56@SetLoginPh:

; 453  :         return _Myres > _Small_string_capacity;

  000ef	83 be d8 00 00
	00 0f		 cmp	 DWORD PTR [esi+216], 15	; 0000000fH

; 2356 :         return _Mypair._Myval2._Myptr();

  000f6	8d 8e c4 00 00
	00		 lea	 ecx, DWORD PTR [esi+196]

; 445  :         if (_Large_mode_engaged()) {

  000fc	76 02		 jbe	 SHORT $LN66@SetLoginPh

; 446  :             _Result = _Unfancy(_Bx._Ptr);

  000fe	8b 09		 mov	 ecx, DWORD PTR [ecx]
$LN66@SetLoginPh:
; File D:\_m2work\txoko-m2-work\txoko-client-src\source\UserInterface\PythonNetworkStreamPhaseLogin.cpp

; 119  : 			SendLoginPacket(m_stID.c_str(), m_stPassword.c_str());

  00100	50		 push	 eax
  00101	51		 push	 ecx
  00102	8b ce		 mov	 ecx, esi
  00104	e8 00 00 00 00	 call	 ?SendLoginPacket@CPythonNetworkStream@@QAE_NPBD0@Z ; CPythonNetworkStream::SendLoginPacket
$LN6@SetLoginPh:

; 120  : 
; 121  : 		// 비밀번호를 메모리에 계속 갖고 있는 문제가 있어서, 사용 즉시 날리는 것으로 변경
; 122  : 		ClearLoginInfo();

  00109	8b ce		 mov	 ecx, esi
  0010b	e8 00 00 00 00	 call	 ?ClearLoginInfo@CPythonNetworkStream@@QAEXXZ ; CPythonNetworkStream::ClearLoginInfo

; 123  : 		CAccountConnector & rkAccountConnector = CAccountConnector::Instance();
; 124  : 		rkAccountConnector.ClearLoginInfo();

  00110	8b 0d 00 00 00
	00		 mov	 ecx, DWORD PTR ?ms_singleton@?$CSingleton@VCAccountConnector@@@@0PAVCAccountConnector@@A ; CSingleton<CAccountConnector>::ms_singleton
  00116	e8 00 00 00 00	 call	 ?ClearLoginInfo@CAccountConnector@@QAEXXZ ; CAccountConnector::ClearLoginInfo

; 141  : 	}
; 142  : }

  0011b	5f		 pop	 edi
  0011c	5e		 pop	 esi
  0011d	59		 pop	 ecx
  0011e	c3		 ret	 0
$LN3@SetLoginPh:

; 125  : 	}
; 126  : 	else
; 127  : 	{
; 128  : 		if (0 != m_dwLoginKey)

  0011f	85 d2		 test	 edx, edx
  00121	74 1a		 je	 SHORT $LN7@SetLoginPh
; File C:\Program Files\Microsoft Visual Studio\2022\Community\VC\Tools\MSVC\14.44.35207\include\xstring

; 453  :         return _Myres > _Small_string_capacity;

  00123	83 be d8 00 00
	00 0f		 cmp	 DWORD PTR [esi+216], 15	; 0000000fH

; 2356 :         return _Mypair._Myval2._Myptr();

  0012a	8d 86 c4 00 00
	00		 lea	 eax, DWORD PTR [esi+196]

; 445  :         if (_Large_mode_engaged()) {

  00130	76 02		 jbe	 SHORT $LN86@SetLoginPh

; 446  :             _Result = _Unfancy(_Bx._Ptr);

  00132	8b 00		 mov	 eax, DWORD PTR [eax]
$LN86@SetLoginPh:
; File D:\_m2work\txoko-m2-work\txoko-client-src\source\UserInterface\PythonNetworkStreamPhaseLogin.cpp

; 129  : 			SendLoginPacketNew(m_stID.c_str(), m_stPassword.c_str());

  00134	51		 push	 ecx
  00135	50		 push	 eax
  00136	e8 00 00 00 00	 call	 ?SendLoginPacketNew@CPythonNetworkStream@@QAE_NPBD0@Z ; CPythonNetworkStream::SendLoginPacketNew
  0013b	eb 2b		 jmp	 SHORT $LN8@SetLoginPh
$LN7@SetLoginPh:
; File C:\Program Files\Microsoft Visual Studio\2022\Community\VC\Tools\MSVC\14.44.35207\include\xstring

; 453  :         return _Myres > _Small_string_capacity;

  0013d	83 be f0 00 00
	00 0f		 cmp	 DWORD PTR [esi+240], 15	; 0000000fH

; 2356 :         return _Mypair._Myval2._Myptr();

  00144	8d 86 dc 00 00
	00		 lea	 eax, DWORD PTR [esi+220]

; 445  :         if (_Large_mode_engaged()) {

  0014a	76 02		 jbe	 SHORT $LN96@SetLoginPh

; 446  :             _Result = _Unfancy(_Bx._Ptr);

  0014c	8b 00		 mov	 eax, DWORD PTR [eax]
$LN96@SetLoginPh:

; 453  :         return _Myres > _Small_string_capacity;

  0014e	83 be d8 00 00
	00 0f		 cmp	 DWORD PTR [esi+216], 15	; 0000000fH

; 2356 :         return _Mypair._Myval2._Myptr();

  00155	8d 8e c4 00 00
	00		 lea	 ecx, DWORD PTR [esi+196]

; 445  :         if (_Large_mode_engaged()) {

  0015b	76 02		 jbe	 SHORT $LN106@SetLoginPh

; 446  :             _Result = _Unfancy(_Bx._Ptr);

  0015d	8b 09		 mov	 ecx, DWORD PTR [ecx]
$LN106@SetLoginPh:
; File D:\_m2work\txoko-m2-work\txoko-client-src\source\UserInterface\PythonNetworkStreamPhaseLogin.cpp

; 131  : 			SendLoginPacket(m_stID.c_str(), m_stPassword.c_str());

  0015f	50		 push	 eax
  00160	51		 push	 ecx
  00161	8b ce		 mov	 ecx, esi
  00163	e8 00 00 00 00	 call	 ?SendLoginPacket@CPythonNetworkStream@@QAE_NPBD0@Z ; CPythonNetworkStream::SendLoginPacket
$LN8@SetLoginPh:

; 132  : 
; 133  : 		// 비밀번호를 메모리에 계속 갖고 있는 문제가 있어서, 사용 즉시 날리는 것으로 변경
; 134  : 		ClearLoginInfo();

  00168	8b ce		 mov	 ecx, esi
  0016a	e8 00 00 00 00	 call	 ?ClearLoginInfo@CPythonNetworkStream@@QAEXXZ ; CPythonNetworkStream::ClearLoginInfo

; 135  : 		CAccountConnector & rkAccountConnector = CAccountConnector::Instance();
; 136  : 		rkAccountConnector.ClearLoginInfo();

  0016f	8b 0d 00 00 00
	00		 mov	 ecx, DWORD PTR ?ms_singleton@?$CSingleton@VCAccountConnector@@@@0PAVCAccountConnector@@A ; CSingleton<CAccountConnector>::ms_singleton
  00175	e8 00 00 00 00	 call	 ?ClearLoginInfo@CAccountConnector@@QAEXXZ ; CAccountConnector::ClearLoginInfo

; 137  : 
; 138  : 		PyCallClassMemberFunc(m_apoPhaseWnd[PHASE_WINDOW_LOGIN], "OnLoginStart", Py_BuildValue("()"));

  0017a	68 00 00 00 00	 push	 OFFSET ??_C@_02HCKGKOFO@?$CI?$CJ@
  0017f	ff 15 00 00 00
	00		 call	 DWORD PTR __imp__Py_BuildValue
  00185	83 c4 04	 add	 esp, 4
  00188	50		 push	 eax
  00189	68 00 00 00 00	 push	 OFFSET ??_C@_0N@GCHAFKJJ@OnLoginStart@
  0018e	ff b6 80 01 00
	00		 push	 DWORD PTR [esi+384]
  00194	e8 00 00 00 00	 call	 ?PyCallClassMemberFunc@@YA_NPAU_object@@PBD0@Z ; PyCallClassMemberFunc
  00199	83 c4 0c	 add	 esp, 12			; 0000000cH

; 139  : 
; 140  : 		__ClearSelectCharacterData();

  0019c	8b ce		 mov	 ecx, esi
  0019e	e8 00 00 00 00	 call	 ?__ClearSelectCharacterData@CPythonNetworkStream@@IAEXXZ ; CPythonNetworkStream::__ClearSelectCharacterData

; 141  : 	}
; 142  : }

  001a3	5f		 pop	 edi
  001a4	5e		 pop	 esi
  001a5	59		 pop	 ecx
  001a6	c3		 ret	 0
?SetLoginPhase@CPythonNetworkStream@@QAEXXZ ENDP	; CPythonNetworkStream::SetLoginPhase
_TEXT	ENDS
; Function compile flags: /Ogtp
; File D:\_m2work\txoko-m2-work\txoko-client-src\source\UserInterface\PythonNetworkStreamPhaseLogin.cpp
;	COMDAT ?SendLoginPacket@CPythonNetworkStream@@QAE_NPBD0@Z
_TEXT	SEGMENT
_LoginPacket$ = -56					; size = 49
__$ArrayPad$ = -4					; size = 4
_c_szName$ = 8						; size = 4
_c_szPassword$ = 12					; size = 4
?SendLoginPacket@CPythonNetworkStream@@QAE_NPBD0@Z PROC	; CPythonNetworkStream::SendLoginPacket, COMDAT
; _this$ = ecx

; 255  : {

  00000	55		 push	 ebp
  00001	8b ec		 mov	 ebp, esp
  00003	83 ec 38	 sub	 esp, 56			; 00000038H
  00006	a1 00 00 00 00	 mov	 eax, DWORD PTR ___security_cookie
  0000b	33 c5		 xor	 eax, ebp
  0000d	89 45 fc	 mov	 DWORD PTR __$ArrayPad$[ebp], eax
  00010	8b 45 08	 mov	 eax, DWORD PTR _c_szName$[ebp]
  00013	56		 push	 esi
  00014	8b 75 0c	 mov	 esi, DWORD PTR _c_szPassword$[ebp]
  00017	57		 push	 edi

; 256  : 	TPacketCGLogin LoginPacket;
; 257  : 	LoginPacket.header = HEADER_CG_LOGIN;
; 258  : 
; 259  : 	strncpy(LoginPacket.name, c_szName, sizeof(LoginPacket.name)-1);

  00018	6a 1e		 push	 30			; 0000001eH
  0001a	50		 push	 eax
  0001b	8d 45 c9	 lea	 eax, DWORD PTR _LoginPacket$[ebp+1]
  0001e	c6 45 c8 01	 mov	 BYTE PTR _LoginPacket$[ebp], 1
  00022	50		 push	 eax
  00023	8b f9		 mov	 edi, ecx
  00025	e8 00 00 00 00	 call	 _strncpy

; 260  : 	strncpy(LoginPacket.pwd, c_szPassword, sizeof(LoginPacket.pwd)-1);

  0002a	6a 10		 push	 16			; 00000010H
  0002c	8d 45 e8	 lea	 eax, DWORD PTR _LoginPacket$[ebp+32]
  0002f	56		 push	 esi
  00030	50		 push	 eax
  00031	e8 00 00 00 00	 call	 _strncpy
  00036	83 c4 18	 add	 esp, 24			; 00000018H

; 261  : 
; 262  : 	LoginPacket.name[ID_MAX_NUM]='\0';

  00039	c6 45 e7 00	 mov	 BYTE PTR _LoginPacket$[ebp+31], 0

; 263  : 	LoginPacket.pwd[PASS_MAX_NUM]='\0';
; 264  : 
; 265  : 	if (!Send(sizeof(LoginPacket), &LoginPacket))

  0003d	8d 45 c8	 lea	 eax, DWORD PTR _LoginPacket$[ebp]
  00040	c6 45 f8 00	 mov	 BYTE PTR _LoginPacket$[ebp+48], 0
  00044	8b cf		 mov	 ecx, edi
  00046	50		 push	 eax
  00047	6a 31		 push	 49			; 00000031H
  00049	e8 00 00 00 00	 call	 ?Send@CNetworkStream@@QAE_NHPBX@Z ; CNetworkStream::Send
  0004e	84 c0		 test	 al, al
  00050	75 21		 jne	 SHORT $LN2@SendLoginP

; 266  : 	{
; 267  : 		Tracen("SendLogin Error");

  00052	68 00 00 00 00	 push	 OFFSET ??_C@_0BA@HGDBLFFH@SendLogin?5Error@
  00057	e8 00 00 00 00	 call	 ?Tracen@@YAXPBD@Z	; Tracen
  0005c	83 c4 04	 add	 esp, 4

; 268  : 		return false;

  0005f	32 c0		 xor	 al, al
  00061	5f		 pop	 edi

; 272  : }

  00062	5e		 pop	 esi
  00063	8b 4d fc	 mov	 ecx, DWORD PTR __$ArrayPad$[ebp]
  00066	33 cd		 xor	 ecx, ebp
  00068	e8 00 00 00 00	 call	 @__security_check_cookie@4
  0006d	8b e5		 mov	 esp, ebp
  0006f	5d		 pop	 ebp
  00070	c2 08 00	 ret	 8
$LN2@SendLoginP:

; 269  : 	}
; 270  : 
; 271  : 	return SendSequence();

  00073	8b cf		 mov	 ecx, edi
  00075	e8 00 00 00 00	 call	 ?SendSequence@CNetworkStream@@QAE_NXZ ; CNetworkStream::SendSequence

; 272  : }

  0007a	8b 4d fc	 mov	 ecx, DWORD PTR __$ArrayPad$[ebp]
  0007d	5f		 pop	 edi
  0007e	33 cd		 xor	 ecx, ebp
  00080	5e		 pop	 esi
  00081	e8 00 00 00 00	 call	 @__security_check_cookie@4
  00086	8b e5		 mov	 esp, ebp
  00088	5d		 pop	 ebp
  00089	c2 08 00	 ret	 8
?SendLoginPacket@CPythonNetworkStream@@QAE_NPBD0@Z ENDP	; CPythonNetworkStream::SendLoginPacket
_TEXT	ENDS
; Function compile flags: /Ogtp
; File D:\_m2work\txoko-m2-work\txoko-client-src\source\UserInterface\PythonNetworkStream.h
;	COMDAT ?__LeaveLoginPhase@CPythonNetworkStream@@IAEXXZ
_TEXT	SEGMENT
?__LeaveLoginPhase@CPythonNetworkStream@@IAEXXZ PROC	; CPythonNetworkStream::__LeaveLoginPhase, COMDAT
; _this$ = ecx

; 596  : 		void __LeaveLoginPhase() {}

  00000	c2 00 00	 ret	 0
?__LeaveLoginPhase@CPythonNetworkStream@@IAEXXZ ENDP	; CPythonNetworkStream::__LeaveLoginPhase
_TEXT	ENDS
; Function compile flags: /Ogtp
; File D:\_m2work\txoko-m2-work\txoko-client-src\source\UserInterface\PythonNetworkStreamPhaseLogin.cpp
;	COMDAT ?LoginPhase@CPythonNetworkStream@@IAEXXZ
_TEXT	SEGMENT
_header$ = -1						; size = 1
?LoginPhase@CPythonNetworkStream@@IAEXXZ PROC		; CPythonNetworkStream::LoginPhase, COMDAT
; _this$ = ecx

; 12   : {

  00000	55		 push	 ebp
  00001	8b ec		 mov	 ebp, esp
  00003	83 ec 08	 sub	 esp, 8

; 13   : 	TPacketHeader header;
; 14   : 	if (!CheckPacket(&header))

  00006	8d 45 ff	 lea	 eax, DWORD PTR _header$[ebp]
  00009	56		 push	 esi
  0000a	57		 push	 edi
  0000b	50		 push	 eax
  0000c	8b f1		 mov	 esi, ecx
  0000e	e8 00 00 00 00	 call	 ?CheckPacket@CPythonNetworkStream@@IAE_NPAE@Z ; CPythonNetworkStream::CheckPacket
  00013	84 c0		 test	 al, al
  00015	0f 84 b1 00 00
	00		 je	 $LN1@LoginPhase

; 15   : 		return;
; 16   : 
; 17   : 	switch (header)

  0001b	0f b6 7d ff	 movzx	 edi, BYTE PTR _header$[ebp]
  0001f	8d 47 fa	 lea	 eax, DWORD PTR [edi-6]
  00022	3d f7 00 00 00	 cmp	 eax, 247		; 000000f7H
  00027	0f 87 8b 00 00
	00		 ja	 $LN29@LoginPhase
  0002d	0f b6 80 00 00
	00 00		 movzx	 eax, BYTE PTR $LN32@LoginPhase[eax]
  00034	ff 24 85 00 00
	00 00		 jmp	 DWORD PTR $LN33@LoginPhase[eax*4]
$LN5@LoginPhase:

; 18   : 	{
; 19   : 		case HEADER_GC_PHASE:
; 20   : 			if (RecvPhasePacket())

  0003b	8b ce		 mov	 ecx, esi
  0003d	e8 00 00 00 00	 call	 ?RecvPhasePacket@CPythonNetworkStream@@IAE_NXZ ; CPythonNetworkStream::RecvPhasePacket

; 21   : 				return;
; 22   : 			break;

  00042	eb 7c		 jmp	 SHORT $LN35@LoginPhase
$LN7@LoginPhase:

; 23   : 
; 24   : 		case HEADER_GC_LOGIN_SUCCESS3:
; 25   : 			if (__RecvLoginSuccessPacket3())

  00044	8b ce		 mov	 ecx, esi
  00046	e8 00 00 00 00	 call	 ?__RecvLoginSuccessPacket3@CPythonNetworkStream@@IAE_NXZ ; CPythonNetworkStream::__RecvLoginSuccessPacket3

; 26   : 				return;
; 27   : 			break;

  0004b	eb 73		 jmp	 SHORT $LN35@LoginPhase
$LN9@LoginPhase:

; 28   : 		case HEADER_GC_LOGIN_SUCCESS4:
; 29   : 			if (__RecvLoginSuccessPacket4())

  0004d	8b ce		 mov	 ecx, esi
  0004f	e8 00 00 00 00	 call	 ?__RecvLoginSuccessPacket4@CPythonNetworkStream@@IAE_NXZ ; CPythonNetworkStream::__RecvLoginSuccessPacket4

; 30   : 				return;
; 31   : 			break;

  00054	eb 6a		 jmp	 SHORT $LN35@LoginPhase
$LN11@LoginPhase:

; 32   : 
; 33   : 
; 34   : 		case HEADER_GC_LOGIN_FAILURE:
; 35   : 			if (__RecvLoginFailurePacket())

  00056	8b ce		 mov	 ecx, esi
  00058	e8 00 00 00 00	 call	 ?__RecvLoginFailurePacket@CPythonNetworkStream@@IAE_NXZ ; CPythonNetworkStream::__RecvLoginFailurePacket

; 36   : 				return;		
; 37   : 			break;

  0005d	eb 61		 jmp	 SHORT $LN35@LoginPhase
$LN13@LoginPhase:

; 38   : 
; 39   : 		case HEADER_GC_EMPIRE:
; 40   : 			if (__RecvEmpirePacket())

  0005f	8b ce		 mov	 ecx, esi
  00061	e8 00 00 00 00	 call	 ?__RecvEmpirePacket@CPythonNetworkStream@@IAE_NXZ ; CPythonNetworkStream::__RecvEmpirePacket

; 41   : 				return;
; 42   : 			break;

  00066	eb 58		 jmp	 SHORT $LN35@LoginPhase
$LN15@LoginPhase:

; 43   : 
; 44   : 		case HEADER_GC_CHINA_MATRIX_CARD:
; 45   : 			if (__RecvChinaMatrixCardPacket())

  00068	8b ce		 mov	 ecx, esi
  0006a	e8 00 00 00 00	 call	 ?__RecvChinaMatrixCardPacket@CPythonNetworkStream@@IAE_NXZ ; CPythonNetworkStream::__RecvChinaMatrixCardPacket

; 46   : 				return;
; 47   : 			break;

  0006f	eb 4f		 jmp	 SHORT $LN35@LoginPhase
$LN17@LoginPhase:

; 48   : 
; 49   : 		case HEADER_GC_RUNUP_MATRIX_QUIZ:
; 50   : 			if (__RecvRunupMatrixQuizPacket())

  00071	8b ce		 mov	 ecx, esi
  00073	e8 00 00 00 00	 call	 ?__RecvRunupMatrixQuizPacket@CPythonNetworkStream@@IAE_NXZ ; CPythonNetworkStream::__RecvRunupMatrixQuizPacket

; 51   : 				return;
; 52   : 			break;

  00078	eb 46		 jmp	 SHORT $LN35@LoginPhase
$LN19@LoginPhase:

; 53   : 
; 54   : 		case HEADER_GC_NEWCIBN_PASSPOD_REQUEST:
; 55   : 			if (__RecvNEWCIBNPasspodRequestPacket())

  0007a	8b ce		 mov	 ecx, esi
  0007c	e8 00 00 00 00	 call	 ?__RecvNEWCIBNPasspodRequestPacket@CPythonNetworkStream@@IAE_NXZ ; CPythonNetworkStream::__RecvNEWCIBNPasspodRequestPacket

; 56   : 				return;
; 57   : 			break;

  00081	eb 3d		 jmp	 SHORT $LN35@LoginPhase
$LN21@LoginPhase:

; 58   : 		case HEADER_GC_NEWCIBN_PASSPOD_FAILURE:
; 59   : 			if (__RecvNEWCIBNPasspodFailurePacket())

  00083	8b ce		 mov	 ecx, esi
  00085	e8 00 00 00 00	 call	 ?__RecvNEWCIBNPasspodFailurePacket@CPythonNetworkStream@@IAE_NXZ ; CPythonNetworkStream::__RecvNEWCIBNPasspodFailurePacket

; 60   : 				return;
; 61   : 			break;

  0008a	eb 34		 jmp	 SHORT $LN35@LoginPhase
$LN23@LoginPhase:

; 62   : 
; 63   : 
; 64   : 		case HEADER_GC_LOGIN_KEY:
; 65   : 			if (__RecvLoginKeyPacket())

  0008c	8b ce		 mov	 ecx, esi
  0008e	e8 00 00 00 00	 call	 ?__RecvLoginKeyPacket@CPythonNetworkStream@@IAE_NXZ ; CPythonNetworkStream::__RecvLoginKeyPacket

; 66   : 				return;
; 67   : 			break;

  00093	eb 2b		 jmp	 SHORT $LN35@LoginPhase
$LN25@LoginPhase:

; 68   : 
; 69   : 		case HEADER_GC_PING:
; 70   : 			if (RecvPingPacket())

  00095	8b ce		 mov	 ecx, esi
  00097	e8 00 00 00 00	 call	 ?RecvPingPacket@CPythonNetworkStream@@IAE_NXZ ; CPythonNetworkStream::RecvPingPacket

; 71   : 				return;
; 72   : 			break;

  0009c	eb 22		 jmp	 SHORT $LN35@LoginPhase
$LN27@LoginPhase:

; 73   : 
; 74   : 		case HEADER_GC_HYBRIDCRYPT_KEYS:
; 75   : 			RecvHybridCryptKeyPacket();

  0009e	8b ce		 mov	 ecx, esi
  000a0	e8 00 00 00 00	 call	 ?RecvHybridCryptKeyPacket@CPythonNetworkStream@@QAE_NXZ ; CPythonNetworkStream::RecvHybridCryptKeyPacket

; 91   : }

  000a5	5f		 pop	 edi
  000a6	5e		 pop	 esi
  000a7	8b e5		 mov	 esp, ebp
  000a9	5d		 pop	 ebp
  000aa	c3		 ret	 0
$LN28@LoginPhase:

; 76   : 			return;
; 77   : 			break;
; 78   : 
; 79   : 		case HEADER_GC_HYBRIDCRYPT_SDB:
; 80   : 			RecvHybridCryptSDBPacket();

  000ab	8b ce		 mov	 ecx, esi
  000ad	e8 00 00 00 00	 call	 ?RecvHybridCryptSDBPacket@CPythonNetworkStream@@QAE_NXZ ; CPythonNetworkStream::RecvHybridCryptSDBPacket

; 91   : }

  000b2	5f		 pop	 edi
  000b3	5e		 pop	 esi
  000b4	8b e5		 mov	 esp, ebp
  000b6	5d		 pop	 ebp
  000b7	c3		 ret	 0
$LN29@LoginPhase:

; 81   : 			return;
; 82   : 			break;
; 83   : 
; 84   : 		default:
; 85   : 			if (RecvDefaultPacket(header))

  000b8	57		 push	 edi
  000b9	8b ce		 mov	 ecx, esi
  000bb	e8 00 00 00 00	 call	 ?RecvDefaultPacket@CPythonNetworkStream@@IAE_NH@Z ; CPythonNetworkStream::RecvDefaultPacket
$LN35@LoginPhase:

; 86   : 				return;
; 87   : 			break;
; 88   : 	}
; 89   : 
; 90   : 	RecvErrorPacket(header);

  000c0	84 c0		 test	 al, al
  000c2	75 08		 jne	 SHORT $LN1@LoginPhase
  000c4	57		 push	 edi
  000c5	8b ce		 mov	 ecx, esi
  000c7	e8 00 00 00 00	 call	 ?RecvErrorPacket@CPythonNetworkStream@@IAE_NH@Z ; CPythonNetworkStream::RecvErrorPacket
$LN1@LoginPhase:

; 91   : }

  000cc	5f		 pop	 edi
  000cd	5e		 pop	 esi
  000ce	8b e5		 mov	 esp, ebp
  000d0	5d		 pop	 ebp
  000d1	c3		 ret	 0
  000d2	66 90		 npad	 2
$LN33@LoginPhase:
  000d4	00 00 00 00	 DD	 $LN7@LoginPhase
  000d8	00 00 00 00	 DD	 $LN11@LoginPhase
  000dc	00 00 00 00	 DD	 $LN9@LoginPhase
  000e0	00 00 00 00	 DD	 $LN25@LoginPhase
  000e4	00 00 00 00	 DD	 $LN13@LoginPhase
  000e8	00 00 00 00	 DD	 $LN15@LoginPhase
  000ec	00 00 00 00	 DD	 $LN23@LoginPhase
  000f0	00 00 00 00	 DD	 $LN27@LoginPhase
  000f4	00 00 00 00	 DD	 $LN28@LoginPhase
  000f8	00 00 00 00	 DD	 $LN17@LoginPhase
  000fc	00 00 00 00	 DD	 $LN19@LoginPhase
  00100	00 00 00 00	 DD	 $LN21@LoginPhase
  00104	00 00 00 00	 DD	 $LN5@LoginPhase
  00108	00 00 00 00	 DD	 $LN29@LoginPhase
$LN32@LoginPhase:
  0010c	00		 DB	 0
  0010d	01		 DB	 1
  0010e	0d		 DB	 13			; 0000000dH
  0010f	0d		 DB	 13			; 0000000dH
  00110	0d		 DB	 13			; 0000000dH
  00111	0d		 DB	 13			; 0000000dH
  00112	0d		 DB	 13			; 0000000dH
  00113	0d		 DB	 13			; 0000000dH
  00114	0d		 DB	 13			; 0000000dH
  00115	0d		 DB	 13			; 0000000dH
  00116	0d		 DB	 13			; 0000000dH
  00117	0d		 DB	 13			; 0000000dH
  00118	0d		 DB	 13			; 0000000dH
  00119	0d		 DB	 13			; 0000000dH
  0011a	0d		 DB	 13			; 0000000dH
  0011b	0d		 DB	 13			; 0000000dH
  0011c	0d		 DB	 13			; 0000000dH
  0011d	0d		 DB	 13			; 0000000dH
  0011e	0d		 DB	 13			; 0000000dH
  0011f	0d		 DB	 13			; 0000000dH
  00120	0d		 DB	 13			; 0000000dH
  00121	0d		 DB	 13			; 0000000dH
  00122	0d		 DB	 13			; 0000000dH
  00123	0d		 DB	 13			; 0000000dH
  00124	0d		 DB	 13			; 0000000dH
  00125	0d		 DB	 13			; 0000000dH
  00126	02		 DB	 2
  00127	0d		 DB	 13			; 0000000dH
  00128	0d		 DB	 13			; 0000000dH
  00129	0d		 DB	 13			; 0000000dH
  0012a	0d		 DB	 13			; 0000000dH
  0012b	0d		 DB	 13			; 0000000dH
  0012c	0d		 DB	 13			; 0000000dH
  0012d	0d		 DB	 13			; 0000000dH
  0012e	0d		 DB	 13			; 0000000dH
  0012f	0d		 DB	 13			; 0000000dH
  00130	0d		 DB	 13			; 0000000dH
  00131	0d		 DB	 13			; 0000000dH
  00132	03		 DB	 3
  00133	0d		 DB	 13			; 0000000dH
  00134	0d		 DB	 13			; 0000000dH
  00135	0d		 DB	 13			; 0000000dH
  00136	0d		 DB	 13			; 0000000dH
  00137	0d		 DB	 13			; 0000000dH
  00138	0d		 DB	 13			; 0000000dH
  00139	0d		 DB	 13			; 0000000dH
  0013a	0d		 DB	 13			; 0000000dH
  0013b	0d		 DB	 13			; 0000000dH
  0013c	0d		 DB	 13			; 0000000dH
  0013d	0d		 DB	 13			; 0000000dH
  0013e	0d		 DB	 13			; 0000000dH
  0013f	0d		 DB	 13			; 0000000dH
  00140	0d		 DB	 13			; 0000000dH
  00141	0d		 DB	 13			; 0000000dH
  00142	0d		 DB	 13			; 0000000dH
  00143	0d		 DB	 13			; 0000000dH
  00144	0d		 DB	 13			; 0000000dH
  00145	0d		 DB	 13			; 0000000dH
  00146	0d		 DB	 13			; 0000000dH
  00147	0d		 DB	 13			; 0000000dH
  00148	0d		 DB	 13			; 0000000dH
  00149	0d		 DB	 13			; 0000000dH
  0014a	0d		 DB	 13			; 0000000dH
  0014b	0d		 DB	 13			; 0000000dH
  0014c	0d		 DB	 13			; 0000000dH
  0014d	0d		 DB	 13			; 0000000dH
  0014e	0d		 DB	 13			; 0000000dH
  0014f	0d		 DB	 13			; 0000000dH
  00150	0d		 DB	 13			; 0000000dH
  00151	0d		 DB	 13			; 0000000dH
  00152	0d		 DB	 13			; 0000000dH
  00153	0d		 DB	 13			; 0000000dH
  00154	0d		 DB	 13			; 0000000dH
  00155	0d		 DB	 13			; 0000000dH
  00156	0d		 DB	 13			; 0000000dH
  00157	0d		 DB	 13			; 0000000dH
  00158	0d		 DB	 13			; 0000000dH
  00159	0d		 DB	 13			; 0000000dH
  0015a	0d		 DB	 13			; 0000000dH
  0015b	0d		 DB	 13			; 0000000dH
  0015c	0d		 DB	 13			; 0000000dH
  0015d	0d		 DB	 13			; 0000000dH
  0015e	0d		 DB	 13			; 0000000dH
  0015f	0d		 DB	 13			; 0000000dH
  00160	04		 DB	 4
  00161	0d		 DB	 13			; 0000000dH
  00162	0d		 DB	 13			; 0000000dH
  00163	0d		 DB	 13			; 0000000dH
  00164	0d		 DB	 13			; 0000000dH
  00165	0d		 DB	 13			; 0000000dH
  00166	0d		 DB	 13			; 0000000dH
  00167	0d		 DB	 13			; 0000000dH
  00168	0d		 DB	 13			; 0000000dH
  00169	0d		 DB	 13			; 0000000dH
  0016a	0d		 DB	 13			; 0000000dH
  0016b	0d		 DB	 13			; 0000000dH
  0016c	0d		 DB	 13			; 0000000dH
  0016d	0d		 DB	 13			; 0000000dH
  0016e	0d		 DB	 13			; 0000000dH
  0016f	0d		 DB	 13			; 0000000dH
  00170	0d		 DB	 13			; 0000000dH
  00171	0d		 DB	 13			; 0000000dH
  00172	0d		 DB	 13			; 0000000dH
  00173	0d		 DB	 13			; 0000000dH
  00174	0d		 DB	 13			; 0000000dH
  00175	0d		 DB	 13			; 0000000dH
  00176	0d		 DB	 13			; 0000000dH
  00177	0d		 DB	 13			; 0000000dH
  00178	0d		 DB	 13			; 0000000dH
  00179	0d		 DB	 13			; 0000000dH
  0017a	05		 DB	 5
  0017b	0d		 DB	 13			; 0000000dH
  0017c	06		 DB	 6
  0017d	0d		 DB	 13			; 0000000dH
  0017e	0d		 DB	 13			; 0000000dH
  0017f	0d		 DB	 13			; 0000000dH
  00180	0d		 DB	 13			; 0000000dH
  00181	0d		 DB	 13			; 0000000dH
  00182	0d		 DB	 13			; 0000000dH
  00183	0d		 DB	 13			; 0000000dH
  00184	0d		 DB	 13			; 0000000dH
  00185	0d		 DB	 13			; 0000000dH
  00186	0d		 DB	 13			; 0000000dH
  00187	0d		 DB	 13			; 0000000dH
  00188	0d		 DB	 13			; 0000000dH
  00189	0d		 DB	 13			; 0000000dH
  0018a	0d		 DB	 13			; 0000000dH
  0018b	0d		 DB	 13			; 0000000dH
  0018c	0d		 DB	 13			; 0000000dH
  0018d	0d		 DB	 13			; 0000000dH
  0018e	0d		 DB	 13			; 0000000dH
  0018f	0d		 DB	 13			; 0000000dH
  00190	0d		 DB	 13			; 0000000dH
  00191	0d		 DB	 13			; 0000000dH
  00192	0d		 DB	 13			; 0000000dH
  00193	0d		 DB	 13			; 0000000dH
  00194	0d		 DB	 13			; 0000000dH
  00195	0d		 DB	 13			; 0000000dH
  00196	0d		 DB	 13			; 0000000dH
  00197	0d		 DB	 13			; 0000000dH
  00198	0d		 DB	 13			; 0000000dH
  00199	0d		 DB	 13			; 0000000dH
  0019a	0d		 DB	 13			; 0000000dH
  0019b	0d		 DB	 13			; 0000000dH
  0019c	0d		 DB	 13			; 0000000dH
  0019d	0d		 DB	 13			; 0000000dH
  0019e	07		 DB	 7
  0019f	08		 DB	 8
  001a0	0d		 DB	 13			; 0000000dH
  001a1	0d		 DB	 13			; 0000000dH
  001a2	0d		 DB	 13			; 0000000dH
  001a3	0d		 DB	 13			; 0000000dH
  001a4	0d		 DB	 13			; 0000000dH
  001a5	0d		 DB	 13			; 0000000dH
  001a6	0d		 DB	 13			; 0000000dH
  001a7	0d		 DB	 13			; 0000000dH
  001a8	0d		 DB	 13			; 0000000dH
  001a9	0d		 DB	 13			; 0000000dH
  001aa	0d		 DB	 13			; 0000000dH
  001ab	0d		 DB	 13			; 0000000dH
  001ac	0d		 DB	 13			; 0000000dH
  001ad	0d		 DB	 13			; 0000000dH
  001ae	0d		 DB	 13			; 0000000dH
  001af	0d		 DB	 13			; 0000000dH
  001b0	0d		 DB	 13			; 0000000dH
  001b1	0d		 DB	 13			; 0000000dH
  001b2	0d		 DB	 13			; 0000000dH
  001b3	0d		 DB	 13			; 0000000dH
  001b4	0d		 DB	 13			; 0000000dH
  001b5	0d		 DB	 13			; 0000000dH
  001b6	0d		 DB	 13			; 0000000dH
  001b7	0d		 DB	 13			; 0000000dH
  001b8	0d		 DB	 13			; 0000000dH
  001b9	0d		 DB	 13			; 0000000dH
  001ba	0d		 DB	 13			; 0000000dH
  001bb	0d		 DB	 13			; 0000000dH
  001bc	0d		 DB	 13			; 0000000dH
  001bd	0d		 DB	 13			; 0000000dH
  001be	0d		 DB	 13			; 0000000dH
  001bf	0d		 DB	 13			; 0000000dH
  001c0	0d		 DB	 13			; 0000000dH
  001c1	0d		 DB	 13			; 0000000dH
  001c2	0d		 DB	 13			; 0000000dH
  001c3	0d		 DB	 13			; 0000000dH
  001c4	0d		 DB	 13			; 0000000dH
  001c5	0d		 DB	 13			; 0000000dH
  001c6	0d		 DB	 13			; 0000000dH
  001c7	0d		 DB	 13			; 0000000dH
  001c8	0d		 DB	 13			; 0000000dH
  001c9	0d		 DB	 13			; 0000000dH
  001ca	0d		 DB	 13			; 0000000dH
  001cb	0d		 DB	 13			; 0000000dH
  001cc	0d		 DB	 13			; 0000000dH
  001cd	0d		 DB	 13			; 0000000dH
  001ce	0d		 DB	 13			; 0000000dH
  001cf	09		 DB	 9
  001d0	0a		 DB	 10			; 0000000aH
  001d1	0b		 DB	 11			; 0000000bH
  001d2	0d		 DB	 13			; 0000000dH
  001d3	0d		 DB	 13			; 0000000dH
  001d4	0d		 DB	 13			; 0000000dH
  001d5	0d		 DB	 13			; 0000000dH
  001d6	0d		 DB	 13			; 0000000dH
  001d7	0d		 DB	 13			; 0000000dH
  001d8	0d		 DB	 13			; 0000000dH
  001d9	0d		 DB	 13			; 0000000dH
  001da	0d		 DB	 13			; 0000000dH
  001db	0d		 DB	 13			; 0000000dH
  001dc	0d		 DB	 13			; 0000000dH
  001dd	0d		 DB	 13			; 0000000dH
  001de	0d		 DB	 13			; 0000000dH
  001df	0d		 DB	 13			; 0000000dH
  001e0	0d		 DB	 13			; 0000000dH
  001e1	0d		 DB	 13			; 0000000dH
  001e2	0d		 DB	 13			; 0000000dH
  001e3	0d		 DB	 13			; 0000000dH
  001e4	0d		 DB	 13			; 0000000dH
  001e5	0d		 DB	 13			; 0000000dH
  001e6	0d		 DB	 13			; 0000000dH
  001e7	0d		 DB	 13			; 0000000dH
  001e8	0d		 DB	 13			; 0000000dH
  001e9	0d		 DB	 13			; 0000000dH
  001ea	0d		 DB	 13			; 0000000dH
  001eb	0d		 DB	 13			; 0000000dH
  001ec	0d		 DB	 13			; 0000000dH
  001ed	0d		 DB	 13			; 0000000dH
  001ee	0d		 DB	 13			; 0000000dH
  001ef	0d		 DB	 13			; 0000000dH
  001f0	0d		 DB	 13			; 0000000dH
  001f1	0d		 DB	 13			; 0000000dH
  001f2	0d		 DB	 13			; 0000000dH
  001f3	0d		 DB	 13			; 0000000dH
  001f4	0d		 DB	 13			; 0000000dH
  001f5	0d		 DB	 13			; 0000000dH
  001f6	0d		 DB	 13			; 0000000dH
  001f7	0d		 DB	 13			; 0000000dH
  001f8	0d		 DB	 13			; 0000000dH
  001f9	0d		 DB	 13			; 0000000dH
  001fa	0d		 DB	 13			; 0000000dH
  001fb	0d		 DB	 13			; 0000000dH
  001fc	0d		 DB	 13			; 0000000dH
  001fd	0d		 DB	 13			; 0000000dH
  001fe	0d		 DB	 13			; 0000000dH
  001ff	0d		 DB	 13			; 0000000dH
  00200	0d		 DB	 13			; 0000000dH
  00201	0d		 DB	 13			; 0000000dH
  00202	0d		 DB	 13			; 0000000dH
  00203	0c		 DB	 12			; 0000000cH
?LoginPhase@CPythonNetworkStream@@IAEXXZ ENDP		; CPythonNetworkStream::LoginPhase
_TEXT	ENDS
; Function compile flags: /Ogtp
; File D:\_m2work\txoko-m2-work\txoko-client-src\source\UserInterface\PythonNetworkStreamPhaseLogin.cpp
;	COMDAT ?__RecvEmpirePacket@CPythonNetworkStream@@IAE_NXZ
_TEXT	SEGMENT
_kPacketEmpire$ = -4					; size = 2
?__RecvEmpirePacket@CPythonNetworkStream@@IAE_NXZ PROC	; CPythonNetworkStream::__RecvEmpirePacket, COMDAT
; _this$ = ecx

; 145  : {

  00000	55		 push	 ebp
  00001	8b ec		 mov	 ebp, esp
  00003	51		 push	 ecx
  00004	56		 push	 esi

; 146  : 	TPacketGCEmpire kPacketEmpire;
; 147  : 	if (!Recv(sizeof(kPacketEmpire), &kPacketEmpire))

  00005	8d 45 fc	 lea	 eax, DWORD PTR _kPacketEmpire$[ebp]
  00008	8b f1		 mov	 esi, ecx
  0000a	50		 push	 eax
  0000b	6a 02		 push	 2
  0000d	e8 00 00 00 00	 call	 ?Recv@CNetworkStream@@QAE_NHPAX@Z ; CNetworkStream::Recv
  00012	84 c0		 test	 al, al
  00014	75 05		 jne	 SHORT $LN2@RecvEmpire
  00016	5e		 pop	 esi

; 152  : }

  00017	8b e5		 mov	 esp, ebp
  00019	5d		 pop	 ebp
  0001a	c3		 ret	 0
$LN2@RecvEmpire:

; 148  : 		return false;
; 149  : 
; 150  : 	m_dwEmpireID=kPacketEmpire.bEmpire;

  0001b	0f b6 45 fd	 movzx	 eax, BYTE PTR _kPacketEmpire$[ebp+1]
  0001f	89 86 b4 00 00
	00		 mov	 DWORD PTR [esi+180], eax

; 151  : 	return true;

  00025	b0 01		 mov	 al, 1
  00027	5e		 pop	 esi

; 152  : }

  00028	8b e5		 mov	 esp, ebp
  0002a	5d		 pop	 ebp
  0002b	c3		 ret	 0
?__RecvEmpirePacket@CPythonNetworkStream@@IAE_NXZ ENDP	; CPythonNetworkStream::__RecvEmpirePacket
_TEXT	ENDS
; Function compile flags: /Ogtp
; File D:\_m2work\txoko-m2-work\txoko-client-src\source\UserInterface\PythonNetworkStreamPhaseLogin.cpp
; File C:\Program Files\Microsoft Visual Studio\2022\Community\VC\Tools\MSVC\14.44.35207\include\__msvc_string_view.hpp
; File C:\Program Files\Microsoft Visual Studio\2022\Community\VC\Tools\MSVC\14.44.35207\include\xstring
; File D:\_m2work\txoko-m2-work\txoko-client-src\source\UserInterface\PythonNetworkStreamPhaseLogin.cpp
;	COMDAT ?__RecvLoginSuccessPacket3@CPythonNetworkStream@@IAE_NXZ
_TEXT	SEGMENT
_this$GSCopy$1$ = -280					; size = 4
tv317 = -276						; size = 4
tv320 = -272						; size = 4
tv314 = -268						; size = 4
tv319 = -264						; size = 4
tv316 = -260						; size = 4
_kPacketLoginSuccess$ = -256				; size = 249
__$ArrayPad$ = -4					; size = 4
?__RecvLoginSuccessPacket3@CPythonNetworkStream@@IAE_NXZ PROC ; CPythonNetworkStream::__RecvLoginSuccessPacket3, COMDAT
; _this$ = ecx

; 155  : {

  00000	55		 push	 ebp
  00001	8b ec		 mov	 ebp, esp
  00003	81 ec 18 01 00
	00		 sub	 esp, 280		; 00000118H
  00009	a1 00 00 00 00	 mov	 eax, DWORD PTR ___security_cookie
  0000e	33 c5		 xor	 eax, ebp
  00010	89 45 fc	 mov	 DWORD PTR __$ArrayPad$[ebp], eax
  00013	56		 push	 esi

; 156  : 	TPacketGCLoginSuccess3 kPacketLoginSuccess;
; 157  : 
; 158  : 	if (!Recv(sizeof(kPacketLoginSuccess), &kPacketLoginSuccess))

  00014	8d 85 00 ff ff
	ff		 lea	 eax, DWORD PTR _kPacketLoginSuccess$[ebp]
  0001a	8b f1		 mov	 esi, ecx
  0001c	50		 push	 eax
  0001d	68 f9 00 00 00	 push	 249			; 000000f9H
  00022	89 b5 e8 fe ff
	ff		 mov	 DWORD PTR _this$GSCopy$1$[ebp], esi
  00028	e8 00 00 00 00	 call	 ?Recv@CNetworkStream@@QAE_NHPAX@Z ; CNetworkStream::Recv
  0002d	84 c0		 test	 al, al
  0002f	75 0f		 jne	 SHORT $LN5@RecvLoginS
  00031	5e		 pop	 esi

; 177  : 	}
; 178  : 
; 179  : 	return true;
; 180  : }

  00032	8b 4d fc	 mov	 ecx, DWORD PTR __$ArrayPad$[ebp]
  00035	33 cd		 xor	 ecx, ebp
  00037	e8 00 00 00 00	 call	 @__security_check_cookie@4
  0003c	8b e5		 mov	 esp, ebp
  0003e	5d		 pop	 ebp
  0003f	c3		 ret	 0
$LN5@RecvLoginS:

; 161  : 	for (int i = 0; i<PLAYER_PER_ACCOUNT3; ++i)

  00040	8d 86 a8 02 00
	00		 lea	 eax, DWORD PTR [esi+680]
  00046	89 85 ec fe ff
	ff		 mov	 DWORD PTR tv317[ebp], eax
  0004c	8d 55 ca	 lea	 edx, DWORD PTR _kPacketLoginSuccess$[ebp+202]
  0004f	53		 push	 ebx
  00050	8d 86 98 02 00
	00		 lea	 eax, DWORD PTR [esi+664]
  00056	89 95 f0 fe ff
	ff		 mov	 DWORD PTR tv320[ebp], edx
  0005c	57		 push	 edi
  0005d	89 85 fc fe ff
	ff		 mov	 DWORD PTR tv316[ebp], eax
  00063	8d bd 01 ff ff
	ff		 lea	 edi, DWORD PTR _kPacketLoginSuccess$[ebp+1]
  00069	8d 86 9c 01 00
	00		 lea	 eax, DWORD PTR [esi+412]
  0006f	89 bd f8 fe ff
	ff		 mov	 DWORD PTR tv319[ebp], edi
  00075	33 db		 xor	 ebx, ebx
  00077	89 85 f4 fe ff
	ff		 mov	 DWORD PTR tv314[ebp], eax
  0007d	0f 1f 00	 npad	 3
$LL4@RecvLoginS:

; 162  : 	{
; 163  : 		m_akSimplePlayerInfo[i]=kPacketLoginSuccess.akSimplePlayerInformation[i];

  00080	8b f7		 mov	 esi, edi
  00082	b9 0f 00 00 00	 mov	 ecx, 15			; 0000000fH
  00087	8b f8		 mov	 edi, eax

; 164  : 		m_adwGuildID[i]=kPacketLoginSuccess.guild_id[i];

  00089	8b 44 9d be	 mov	 eax, DWORD PTR _kPacketLoginSuccess$[ebp+ebx*4+190]
  0008d	f3 a5		 rep movsd
  0008f	8b 8d fc fe ff
	ff		 mov	 ecx, DWORD PTR tv316[ebp]
  00095	66 a5		 movsw
  00097	a4		 movsb
  00098	89 01		 mov	 DWORD PTR [ecx], eax
; File C:\Program Files\Microsoft Visual Studio\2022\Community\VC\Tools\MSVC\14.44.35207\include\__msvc_string_view.hpp

; 456  :             return __builtin_strlen(_First);

  0009a	8b c2		 mov	 eax, edx
  0009c	8d 70 01	 lea	 esi, DWORD PTR [eax+1]
  0009f	90		 npad	 1
$LL20@RecvLoginS:
  000a0	8a 08		 mov	 cl, BYTE PTR [eax]
  000a2	40		 inc	 eax
  000a3	84 c9		 test	 cl, cl
  000a5	75 f9		 jne	 SHORT $LL20@RecvLoginS
  000a7	2b c6		 sub	 eax, esi
; File C:\Program Files\Microsoft Visual Studio\2022\Community\VC\Tools\MSVC\14.44.35207\include\xstring

; 1638 :         return assign(_Ptr, _Convert_size<size_type>(_Traits::length(_Ptr)));

  000a9	8b b5 ec fe ff
	ff		 mov	 esi, DWORD PTR tv317[ebp]
  000af	50		 push	 eax
  000b0	52		 push	 edx
  000b1	8b ce		 mov	 ecx, esi
  000b3	e8 00 00 00 00	 call	 ?assign@?$basic_string@DU?$char_traits@D@std@@V?$allocator@D@2@@std@@QAEAAV12@QBDI@Z ; std::basic_string<char,std::char_traits<char>,std::allocator<char> >::assign
; File D:\_m2work\txoko-m2-work\txoko-client-src\source\UserInterface\PythonNetworkStreamPhaseLogin.cpp

; 161  : 	for (int i = 0; i<PLAYER_PER_ACCOUNT3; ++i)

  000b8	8b bd f8 fe ff
	ff		 mov	 edi, DWORD PTR tv319[ebp]
  000be	43		 inc	 ebx
  000bf	8b 85 f4 fe ff
	ff		 mov	 eax, DWORD PTR tv314[ebp]
  000c5	83 c7 3f	 add	 edi, 63			; 0000003fH
  000c8	8b 95 f0 fe ff
	ff		 mov	 edx, DWORD PTR tv320[ebp]
  000ce	83 c0 3f	 add	 eax, 63			; 0000003fH
  000d1	83 85 fc fe ff
	ff 04		 add	 DWORD PTR tv316[ebp], 4
  000d8	83 c2 0d	 add	 edx, 13			; 0000000dH
  000db	83 c6 18	 add	 esi, 24			; 00000018H
  000de	89 bd f8 fe ff
	ff		 mov	 DWORD PTR tv319[ebp], edi
  000e4	89 85 f4 fe ff
	ff		 mov	 DWORD PTR tv314[ebp], eax
  000ea	89 95 f0 fe ff
	ff		 mov	 DWORD PTR tv320[ebp], edx
  000f0	89 b5 ec fe ff
	ff		 mov	 DWORD PTR tv317[ebp], esi
  000f6	83 fb 03	 cmp	 ebx, 3
  000f9	7c 85		 jl	 SHORT $LL4@RecvLoginS

; 165  : 		m_astrGuildName[i]=kPacketLoginSuccess.guild_name[i];
; 166  : 	}
; 167  : 
; 168  : 	m_kMarkAuth.m_dwHandle=kPacketLoginSuccess.handle;

  000fb	8b b5 e8 fe ff
	ff		 mov	 esi, DWORD PTR _this$GSCopy$1$[ebp]

; 169  : 	m_kMarkAuth.m_dwRandomKey=kPacketLoginSuccess.random_key;	
; 170  : 
; 171  : 	if (__DirectEnterMode_IsSet())

  00101	8b ce		 mov	 ecx, esi
  00103	8b 45 f1	 mov	 eax, DWORD PTR _kPacketLoginSuccess$[ebp+241]
  00106	5f		 pop	 edi
  00107	5b		 pop	 ebx
  00108	89 86 08 79 00
	00		 mov	 DWORD PTR [esi+30984], eax
  0010e	8b 45 f5	 mov	 eax, DWORD PTR _kPacketLoginSuccess$[ebp+245]
  00111	89 86 0c 79 00
	00		 mov	 DWORD PTR [esi+30988], eax
  00117	e8 00 00 00 00	 call	 ?__DirectEnterMode_IsSet@CPythonNetworkStream@@AAE_NXZ ; CPythonNetworkStream::__DirectEnterMode_IsSet
  0011c	84 c0		 test	 al, al
  0011e	75 1f		 jne	 SHORT $LN7@RecvLoginS

; 172  : 	{
; 173  : 	}
; 174  : 	else
; 175  : 	{
; 176  : 		PyCallClassMemberFunc(m_apoPhaseWnd[PHASE_WINDOW_SELECT], "Refresh", Py_BuildValue("()"));		

  00120	68 00 00 00 00	 push	 OFFSET ??_C@_02HCKGKOFO@?$CI?$CJ@
  00125	ff 15 00 00 00
	00		 call	 DWORD PTR __imp__Py_BuildValue
  0012b	50		 push	 eax
  0012c	68 00 00 00 00	 push	 OFFSET ??_C@_07POIENIBA@Refresh@
  00131	ff b6 84 01 00
	00		 push	 DWORD PTR [esi+388]
  00137	e8 00 00 00 00	 call	 ?PyCallClassMemberFunc@@YA_NPAU_object@@PBD0@Z ; PyCallClassMemberFunc
  0013c	83 c4 10	 add	 esp, 16			; 00000010H
$LN7@RecvLoginS:

; 177  : 	}
; 178  : 
; 179  : 	return true;
; 180  : }

  0013f	8b 4d fc	 mov	 ecx, DWORD PTR __$ArrayPad$[ebp]
  00142	b0 01		 mov	 al, 1
  00144	33 cd		 xor	 ecx, ebp
  00146	5e		 pop	 esi
  00147	e8 00 00 00 00	 call	 @__security_check_cookie@4
  0014c	8b e5		 mov	 esp, ebp
  0014e	5d		 pop	 ebp
  0014f	c3		 ret	 0
?__RecvLoginSuccessPacket3@CPythonNetworkStream@@IAE_NXZ ENDP ; CPythonNetworkStream::__RecvLoginSuccessPacket3
_TEXT	ENDS
; Function compile flags: /Ogtp
; File D:\_m2work\txoko-m2-work\txoko-client-src\source\UserInterface\PythonNetworkStreamPhaseLogin.cpp
; File C:\Program Files\Microsoft Visual Studio\2022\Community\VC\Tools\MSVC\14.44.35207\include\__msvc_string_view.hpp
; File C:\Program Files\Microsoft Visual Studio\2022\Community\VC\Tools\MSVC\14.44.35207\include\xstring
; File D:\_m2work\txoko-m2-work\txoko-client-src\source\UserInterface\PythonNetworkStreamPhaseLogin.cpp
;	COMDAT ?__RecvLoginSuccessPacket4@CPythonNetworkStream@@IAE_NXZ
_TEXT	SEGMENT
_this$GSCopy$1$ = -360					; size = 4
tv317 = -356						; size = 4
tv320 = -352						; size = 4
tv314 = -348						; size = 4
tv319 = -344						; size = 4
tv316 = -340						; size = 4
_kPacketLoginSuccess$ = -336				; size = 329
__$ArrayPad$ = -4					; size = 4
?__RecvLoginSuccessPacket4@CPythonNetworkStream@@IAE_NXZ PROC ; CPythonNetworkStream::__RecvLoginSuccessPacket4, COMDAT
; _this$ = ecx

; 183  : {

  00000	55		 push	 ebp
  00001	8b ec		 mov	 ebp, esp
  00003	81 ec 68 01 00
	00		 sub	 esp, 360		; 00000168H
  00009	a1 00 00 00 00	 mov	 eax, DWORD PTR ___security_cookie
  0000e	33 c5		 xor	 eax, ebp
  00010	89 45 fc	 mov	 DWORD PTR __$ArrayPad$[ebp], eax
  00013	56		 push	 esi

; 184  : 	TPacketGCLoginSuccess4 kPacketLoginSuccess;
; 185  : 
; 186  : 	if (!Recv(sizeof(kPacketLoginSuccess), &kPacketLoginSuccess))

  00014	8d 85 b0 fe ff
	ff		 lea	 eax, DWORD PTR _kPacketLoginSuccess$[ebp]
  0001a	8b f1		 mov	 esi, ecx
  0001c	50		 push	 eax
  0001d	68 49 01 00 00	 push	 329			; 00000149H
  00022	89 b5 98 fe ff
	ff		 mov	 DWORD PTR _this$GSCopy$1$[ebp], esi
  00028	e8 00 00 00 00	 call	 ?Recv@CNetworkStream@@QAE_NHPAX@Z ; CNetworkStream::Recv
  0002d	84 c0		 test	 al, al
  0002f	75 0f		 jne	 SHORT $LN5@RecvLoginS
  00031	5e		 pop	 esi

; 205  : 	}
; 206  : 
; 207  : 	return true;
; 208  : }

  00032	8b 4d fc	 mov	 ecx, DWORD PTR __$ArrayPad$[ebp]
  00035	33 cd		 xor	 ecx, ebp
  00037	e8 00 00 00 00	 call	 @__security_check_cookie@4
  0003c	8b e5		 mov	 esp, ebp
  0003e	5d		 pop	 ebp
  0003f	c3		 ret	 0
$LN5@RecvLoginS:

; 189  : 	for (int i = 0; i<PLAYER_PER_ACCOUNT4; ++i)

  00040	8d 86 a8 02 00
	00		 lea	 eax, DWORD PTR [esi+680]
  00046	89 85 9c fe ff
	ff		 mov	 DWORD PTR tv317[ebp], eax
  0004c	8d 55 bd	 lea	 edx, DWORD PTR _kPacketLoginSuccess$[ebp+269]
  0004f	53		 push	 ebx
  00050	8d 86 98 02 00
	00		 lea	 eax, DWORD PTR [esi+664]
  00056	89 95 a0 fe ff
	ff		 mov	 DWORD PTR tv320[ebp], edx
  0005c	57		 push	 edi
  0005d	89 85 ac fe ff
	ff		 mov	 DWORD PTR tv316[ebp], eax
  00063	8d bd b1 fe ff
	ff		 lea	 edi, DWORD PTR _kPacketLoginSuccess$[ebp+1]
  00069	8d 86 9c 01 00
	00		 lea	 eax, DWORD PTR [esi+412]
  0006f	89 bd a8 fe ff
	ff		 mov	 DWORD PTR tv319[ebp], edi
  00075	33 db		 xor	 ebx, ebx
  00077	89 85 a4 fe ff
	ff		 mov	 DWORD PTR tv314[ebp], eax
  0007d	0f 1f 00	 npad	 3
$LL4@RecvLoginS:

; 190  : 	{
; 191  : 		m_akSimplePlayerInfo[i]=kPacketLoginSuccess.akSimplePlayerInformation[i];

  00080	8b f7		 mov	 esi, edi
  00082	b9 0f 00 00 00	 mov	 ecx, 15			; 0000000fH
  00087	8b f8		 mov	 edi, eax

; 192  : 		m_adwGuildID[i]=kPacketLoginSuccess.guild_id[i];

  00089	8b 44 9d ad	 mov	 eax, DWORD PTR _kPacketLoginSuccess$[ebp+ebx*4+253]
  0008d	f3 a5		 rep movsd
  0008f	8b 8d ac fe ff
	ff		 mov	 ecx, DWORD PTR tv316[ebp]
  00095	66 a5		 movsw
  00097	a4		 movsb
  00098	89 01		 mov	 DWORD PTR [ecx], eax
; File C:\Program Files\Microsoft Visual Studio\2022\Community\VC\Tools\MSVC\14.44.35207\include\__msvc_string_view.hpp

; 456  :             return __builtin_strlen(_First);

  0009a	8b c2		 mov	 eax, edx
  0009c	8d 70 01	 lea	 esi, DWORD PTR [eax+1]
  0009f	90		 npad	 1
$LL20@RecvLoginS:
  000a0	8a 08		 mov	 cl, BYTE PTR [eax]
  000a2	40		 inc	 eax
  000a3	84 c9		 test	 cl, cl
  000a5	75 f9		 jne	 SHORT $LL20@RecvLoginS
  000a7	2b c6		 sub	 eax, esi
; File C:\Program Files\Microsoft Visual Studio\2022\Community\VC\Tools\MSVC\14.44.35207\include\xstring

; 1638 :         return assign(_Ptr, _Convert_size<size_type>(_Traits::length(_Ptr)));

  000a9	8b b5 9c fe ff
	ff		 mov	 esi, DWORD PTR tv317[ebp]
  000af	50		 push	 eax
  000b0	52		 push	 edx
  000b1	8b ce		 mov	 ecx, esi
  000b3	e8 00 00 00 00	 call	 ?assign@?$basic_string@DU?$char_traits@D@std@@V?$allocator@D@2@@std@@QAEAAV12@QBDI@Z ; std::basic_string<char,std::char_traits<char>,std::allocator<char> >::assign
; File D:\_m2work\txoko-m2-work\txoko-client-src\source\UserInterface\PythonNetworkStreamPhaseLogin.cpp

; 189  : 	for (int i = 0; i<PLAYER_PER_ACCOUNT4; ++i)

  000b8	8b bd a8 fe ff
	ff		 mov	 edi, DWORD PTR tv319[ebp]
  000be	43		 inc	 ebx
  000bf	8b 85 a4 fe ff
	ff		 mov	 eax, DWORD PTR tv314[ebp]
  000c5	83 c7 3f	 add	 edi, 63			; 0000003fH
  000c8	8b 95 a0 fe ff
	ff		 mov	 edx, DWORD PTR tv320[ebp]
  000ce	83 c0 3f	 add	 eax, 63			; 0000003fH
  000d1	83 85 ac fe ff
	ff 04		 add	 DWORD PTR tv316[ebp], 4
  000d8	83 c2 0d	 add	 edx, 13			; 0000000dH
  000db	83 c6 18	 add	 esi, 24			; 00000018H
  000de	89 bd a8 fe ff
	ff		 mov	 DWORD PTR tv319[ebp], edi
  000e4	89 85 a4 fe ff
	ff		 mov	 DWORD PTR tv314[ebp], eax
  000ea	89 95 a0 fe ff
	ff		 mov	 DWORD PTR tv320[ebp], edx
  000f0	89 b5 9c fe ff
	ff		 mov	 DWORD PTR tv317[ebp], esi
  000f6	83 fb 04	 cmp	 ebx, 4
  000f9	7c 85		 jl	 SHORT $LL4@RecvLoginS

; 193  : 		m_astrGuildName[i]=kPacketLoginSuccess.guild_name[i];
; 194  : 	}
; 195  : 
; 196  : 	m_kMarkAuth.m_dwHandle=kPacketLoginSuccess.handle;

  000fb	8b b5 98 fe ff
	ff		 mov	 esi, DWORD PTR _this$GSCopy$1$[ebp]

; 197  : 	m_kMarkAuth.m_dwRandomKey=kPacketLoginSuccess.random_key;	
; 198  : 
; 199  : 	if (__DirectEnterMode_IsSet())

  00101	8b ce		 mov	 ecx, esi
  00103	8b 45 f1	 mov	 eax, DWORD PTR _kPacketLoginSuccess$[ebp+321]
  00106	5f		 pop	 edi
  00107	5b		 pop	 ebx
  00108	89 86 08 79 00
	00		 mov	 DWORD PTR [esi+30984], eax
  0010e	8b 45 f5	 mov	 eax, DWORD PTR _kPacketLoginSuccess$[ebp+325]
  00111	89 86 0c 79 00
	00		 mov	 DWORD PTR [esi+30988], eax
  00117	e8 00 00 00 00	 call	 ?__DirectEnterMode_IsSet@CPythonNetworkStream@@AAE_NXZ ; CPythonNetworkStream::__DirectEnterMode_IsSet
  0011c	84 c0		 test	 al, al
  0011e	75 1f		 jne	 SHORT $LN7@RecvLoginS

; 200  : 	{
; 201  : 	}
; 202  : 	else
; 203  : 	{
; 204  : 		PyCallClassMemberFunc(m_apoPhaseWnd[PHASE_WINDOW_SELECT], "Refresh", Py_BuildValue("()"));		

  00120	68 00 00 00 00	 push	 OFFSET ??_C@_02HCKGKOFO@?$CI?$CJ@
  00125	ff 15 00 00 00
	00		 call	 DWORD PTR __imp__Py_BuildValue
  0012b	50		 push	 eax
  0012c	68 00 00 00 00	 push	 OFFSET ??_C@_07POIENIBA@Refresh@
  00131	ff b6 84 01 00
	00		 push	 DWORD PTR [esi+388]
  00137	e8 00 00 00 00	 call	 ?PyCallClassMemberFunc@@YA_NPAU_object@@PBD0@Z ; PyCallClassMemberFunc
  0013c	83 c4 10	 add	 esp, 16			; 00000010H
$LN7@RecvLoginS:

; 205  : 	}
; 206  : 
; 207  : 	return true;
; 208  : }

  0013f	8b 4d fc	 mov	 ecx, DWORD PTR __$ArrayPad$[ebp]
  00142	b0 01		 mov	 al, 1
  00144	33 cd		 xor	 ecx, ebp
  00146	5e		 pop	 esi
  00147	e8 00 00 00 00	 call	 @__security_check_cookie@4
  0014c	8b e5		 mov	 esp, ebp
  0014e	5d		 pop	 ebp
  0014f	c3		 ret	 0
?__RecvLoginSuccessPacket4@CPythonNetworkStream@@IAE_NXZ ENDP ; CPythonNetworkStream::__RecvLoginSuccessPacket4
_TEXT	ENDS
; Function compile flags: /Ogtp
; File D:\_m2work\txoko-m2-work\txoko-client-src\source\UserInterface\PythonNetworkStreamPhaseLogin.cpp
;	COMDAT ?__RecvLoginFailurePacket@CPythonNetworkStream@@IAE_NXZ
_TEXT	SEGMENT
_packet_failure$ = -16					; size = 10
__$ArrayPad$ = -4					; size = 4
?__RecvLoginFailurePacket@CPythonNetworkStream@@IAE_NXZ PROC ; CPythonNetworkStream::__RecvLoginFailurePacket, COMDAT
; _this$ = ecx

; 225  : {

  00000	55		 push	 ebp
  00001	8b ec		 mov	 ebp, esp
  00003	83 ec 10	 sub	 esp, 16			; 00000010H
  00006	a1 00 00 00 00	 mov	 eax, DWORD PTR ___security_cookie
  0000b	33 c5		 xor	 eax, ebp
  0000d	89 45 fc	 mov	 DWORD PTR __$ArrayPad$[ebp], eax
  00010	56		 push	 esi

; 226  : 	TPacketGCLoginFailure packet_failure;
; 227  : 	if (!Recv(sizeof(TPacketGCLoginFailure), &packet_failure))

  00011	8d 45 f0	 lea	 eax, DWORD PTR _packet_failure$[ebp]
  00014	8b f1		 mov	 esi, ecx
  00016	50		 push	 eax
  00017	6a 0a		 push	 10			; 0000000aH
  00019	e8 00 00 00 00	 call	 ?Recv@CNetworkStream@@QAE_NHPAX@Z ; CNetworkStream::Recv
  0001e	84 c0		 test	 al, al
  00020	75 0f		 jne	 SHORT $LN2@RecvLoginF
  00022	5e		 pop	 esi

; 231  : #ifdef _DEBUG
; 232  : 	Tracef(" RecvLoginFailurePacket : [%s]\n", packet_failure.szStatus);
; 233  : #endif
; 234  : 	return true;
; 235  : }

  00023	8b 4d fc	 mov	 ecx, DWORD PTR __$ArrayPad$[ebp]
  00026	33 cd		 xor	 ecx, ebp
  00028	e8 00 00 00 00	 call	 @__security_check_cookie@4
  0002d	8b e5		 mov	 esp, ebp
  0002f	5d		 pop	 ebp
  00030	c3		 ret	 0
$LN2@RecvLoginF:

; 228  : 		return false;
; 229  : 
; 230  : 	PyCallClassMemberFunc(m_apoPhaseWnd[PHASE_WINDOW_LOGIN], "OnLoginFailure", Py_BuildValue("(s)", packet_failure.szStatus));

  00031	8d 45 f1	 lea	 eax, DWORD PTR _packet_failure$[ebp+1]
  00034	50		 push	 eax
  00035	68 00 00 00 00	 push	 OFFSET ??_C@_03KJMMOONA@?$CIs?$CJ@
  0003a	ff 15 00 00 00
	00		 call	 DWORD PTR __imp__Py_BuildValue
  00040	50		 push	 eax
  00041	68 00 00 00 00	 push	 OFFSET ??_C@_0P@OOEAIINI@OnLoginFailure@
  00046	ff b6 80 01 00
	00		 push	 DWORD PTR [esi+384]
  0004c	e8 00 00 00 00	 call	 ?PyCallClassMemberFunc@@YA_NPAU_object@@PBD0@Z ; PyCallClassMemberFunc

; 231  : #ifdef _DEBUG
; 232  : 	Tracef(" RecvLoginFailurePacket : [%s]\n", packet_failure.szStatus);
; 233  : #endif
; 234  : 	return true;
; 235  : }

  00051	8b 4d fc	 mov	 ecx, DWORD PTR __$ArrayPad$[ebp]
  00054	83 c4 14	 add	 esp, 20			; 00000014H
  00057	33 cd		 xor	 ecx, ebp
  00059	b0 01		 mov	 al, 1
  0005b	5e		 pop	 esi
  0005c	e8 00 00 00 00	 call	 @__security_check_cookie@4
  00061	8b e5		 mov	 esp, ebp
  00063	5d		 pop	 ebp
  00064	c3		 ret	 0
?__RecvLoginFailurePacket@CPythonNetworkStream@@IAE_NXZ ENDP ; CPythonNetworkStream::__RecvLoginFailurePacket
_TEXT	ENDS
; Function compile flags: /Ogtp
; File D:\_m2work\txoko-m2-work\txoko-client-src\source\UserInterface\PythonNetworkStreamPhaseLogin.cpp
;	COMDAT ?SendLoginPacketNew@CPythonNetworkStream@@QAE_NPBD0@Z
_TEXT	SEGMENT
_LoginPacket$ = -56					; size = 52
__$ArrayPad$ = -4					; size = 4
_c_szName$ = 8						; size = 4
_c_szPassword$dead$ = 12				; size = 4
?SendLoginPacketNew@CPythonNetworkStream@@QAE_NPBD0@Z PROC ; CPythonNetworkStream::SendLoginPacketNew, COMDAT
; _this$ = ecx

; 275  : {

  00000	55		 push	 ebp
  00001	8b ec		 mov	 ebp, esp
  00003	83 ec 38	 sub	 esp, 56			; 00000038H
  00006	a1 00 00 00 00	 mov	 eax, DWORD PTR ___security_cookie
  0000b	33 c5		 xor	 eax, ebp
  0000d	89 45 fc	 mov	 DWORD PTR __$ArrayPad$[ebp], eax
  00010	56		 push	 esi
  00011	8b f1		 mov	 esi, ecx

; 276  : 	TPacketCGLogin2 LoginPacket;
; 277  : 	LoginPacket.header = HEADER_CG_LOGIN2;

  00013	c6 45 c8 6d	 mov	 BYTE PTR _LoginPacket$[ebp], 109 ; 0000006dH
  00017	8b 4d 08	 mov	 ecx, DWORD PTR _c_szName$[ebp]

; 278  : 	LoginPacket.login_key = m_dwLoginKey;
; 279  : 
; 280  : 	strncpy(LoginPacket.name, c_szName, sizeof(LoginPacket.name)-1);

  0001a	6a 1e		 push	 30			; 0000001eH
  0001c	51		 push	 ecx
  0001d	8b 86 24 01 00
	00		 mov	 eax, DWORD PTR [esi+292]
  00023	89 45 e8	 mov	 DWORD PTR _LoginPacket$[ebp+32], eax
  00026	8d 45 c9	 lea	 eax, DWORD PTR _LoginPacket$[ebp+1]
  00029	50		 push	 eax
  0002a	e8 00 00 00 00	 call	 _strncpy
  0002f	0f 10 05 00 00
	00 00		 movups	 xmm0, XMMWORD PTR ?g_adwEncryptKey@@3PAKA
  00036	83 c4 0c	 add	 esp, 12			; 0000000cH

; 281  : 	LoginPacket.name[ID_MAX_NUM]='\0';

  00039	c6 45 e7 00	 mov	 BYTE PTR _LoginPacket$[ebp+31], 0

; 282  : 
; 283  : 	extern DWORD g_adwEncryptKey[4];
; 284  : 	extern DWORD g_adwDecryptKey[4];
; 285  : 	for (DWORD i = 0; i < 4; ++i)
; 286  : 		LoginPacket.adwClientKey[i] = g_adwEncryptKey[i];
; 287  : 
; 288  : 	if (!Send(sizeof(LoginPacket), &LoginPacket))

  0003d	8d 45 c8	 lea	 eax, DWORD PTR _LoginPacket$[ebp]
  00040	8b ce		 mov	 ecx, esi
  00042	0f 11 45 ec	 movups	 XMMWORD PTR _LoginPacket$[ebp+36], xmm0
  00046	50		 push	 eax
  00047	6a 34		 push	 52			; 00000034H
  00049	e8 00 00 00 00	 call	 ?Send@CNetworkStream@@QAE_NHPBX@Z ; CNetworkStream::Send
  0004e	84 c0		 test	 al, al
  00050	74 25		 je	 SHORT $LN16@SendLoginP

; 289  : 	{
; 290  : 		Tracen("SendLogin Error");
; 291  : 		return false;
; 292  : 	}
; 293  : 
; 294  : 	if (!SendSequence())

  00052	8b ce		 mov	 ecx, esi
  00054	e8 00 00 00 00	 call	 ?SendSequence@CNetworkStream@@QAE_NXZ ; CNetworkStream::SendSequence
  00059	84 c0		 test	 al, al
  0005b	74 1a		 je	 SHORT $LN16@SendLoginP

; 297  : 		return false;
; 298  : 	}
; 299  : 
; 300  : 	__SendInternalBuffer();

  0005d	8b ce		 mov	 ecx, esi
  0005f	e8 00 00 00 00	 call	 ?__SendInternalBuffer@CNetworkStream@@IAE_NXZ ; CNetworkStream::__SendInternalBuffer

; 301  : 
; 302  : #ifndef _IMPROVED_PACKET_ENCRYPTION_
; 303  : 	SetSecurityMode(true, (const char *) g_adwEncryptKey, (const char *) g_adwDecryptKey);
; 304  : #endif
; 305  : 	return true;

  00064	b0 01		 mov	 al, 1
  00066	5e		 pop	 esi

; 306  : }

  00067	8b 4d fc	 mov	 ecx, DWORD PTR __$ArrayPad$[ebp]
  0006a	33 cd		 xor	 ecx, ebp
  0006c	e8 00 00 00 00	 call	 @__security_check_cookie@4
  00071	8b e5		 mov	 esp, ebp
  00073	5d		 pop	 ebp
  00074	c2 08 00	 ret	 8
$LN16@SendLoginP:

; 295  : 	{
; 296  : 		Tracen("SendLogin Error");

  00077	68 00 00 00 00	 push	 OFFSET ??_C@_0BA@HGDBLFFH@SendLogin?5Error@
  0007c	e8 00 00 00 00	 call	 ?Tracen@@YAXPBD@Z	; Tracen

; 306  : }

  00081	8b 4d fc	 mov	 ecx, DWORD PTR __$ArrayPad$[ebp]
  00084	83 c4 04	 add	 esp, 4
  00087	33 cd		 xor	 ecx, ebp
  00089	32 c0		 xor	 al, al
  0008b	5e		 pop	 esi
  0008c	e8 00 00 00 00	 call	 @__security_check_cookie@4
  00091	8b e5		 mov	 esp, ebp
  00093	5d		 pop	 ebp
  00094	c2 08 00	 ret	 8
?SendLoginPacketNew@CPythonNetworkStream@@QAE_NPBD0@Z ENDP ; CPythonNetworkStream::SendLoginPacketNew
_TEXT	ENDS
; Function compile flags: /Ogtp
; File D:\_m2work\txoko-m2-work\txoko-client-src\source\UserInterface\PythonNetworkStreamPhaseLogin.cpp
;	COMDAT ?__RecvRunupMatrixQuizPacket@CPythonNetworkStream@@IAE_NXZ
_TEXT	SEGMENT
_kMatrixQuizPacket$ = -16				; size = 10
__$ArrayPad$ = -4					; size = 4
?__RecvRunupMatrixQuizPacket@CPythonNetworkStream@@IAE_NXZ PROC ; CPythonNetworkStream::__RecvRunupMatrixQuizPacket, COMDAT
; _this$ = ecx

; 309  : {

  00000	55		 push	 ebp
  00001	8b ec		 mov	 ebp, esp
  00003	83 ec 10	 sub	 esp, 16			; 00000010H
  00006	a1 00 00 00 00	 mov	 eax, DWORD PTR ___security_cookie
  0000b	33 c5		 xor	 eax, ebp
  0000d	89 45 fc	 mov	 DWORD PTR __$ArrayPad$[ebp], eax
  00010	56		 push	 esi

; 310  : 	TPacketGCRunupMatrixQuiz kMatrixQuizPacket;
; 311  : 	if (!Recv(sizeof(TPacketGCRunupMatrixQuiz), &kMatrixQuizPacket))

  00011	8d 45 f0	 lea	 eax, DWORD PTR _kMatrixQuizPacket$[ebp]
  00014	8b f1		 mov	 esi, ecx
  00016	50		 push	 eax
  00017	6a 0a		 push	 10			; 0000000aH
  00019	e8 00 00 00 00	 call	 ?Recv@CNetworkStream@@QAE_NHPAX@Z ; CNetworkStream::Recv
  0001e	84 c0		 test	 al, al
  00020	75 0f		 jne	 SHORT $LN2@RecvRunupM
  00022	5e		 pop	 esi

; 315  : 	return true;
; 316  : }

  00023	8b 4d fc	 mov	 ecx, DWORD PTR __$ArrayPad$[ebp]
  00026	33 cd		 xor	 ecx, ebp
  00028	e8 00 00 00 00	 call	 @__security_check_cookie@4
  0002d	8b e5		 mov	 esp, ebp
  0002f	5d		 pop	 ebp
  00030	c3		 ret	 0
$LN2@RecvRunupM:

; 312  : 		return false;
; 313  : 
; 314  : 	PyCallClassMemberFunc(m_apoPhaseWnd[PHASE_WINDOW_LOGIN], "BINARY_OnRunupMatrixQuiz", Py_BuildValue("(s)", kMatrixQuizPacket.szQuiz));	

  00031	8d 45 f1	 lea	 eax, DWORD PTR _kMatrixQuizPacket$[ebp+1]
  00034	50		 push	 eax
  00035	68 00 00 00 00	 push	 OFFSET ??_C@_03KJMMOONA@?$CIs?$CJ@
  0003a	ff 15 00 00 00
	00		 call	 DWORD PTR __imp__Py_BuildValue
  00040	50		 push	 eax
  00041	68 00 00 00 00	 push	 OFFSET ??_C@_0BJ@IENIHBKM@BINARY_OnRunupMatrixQuiz@
  00046	ff b6 80 01 00
	00		 push	 DWORD PTR [esi+384]
  0004c	e8 00 00 00 00	 call	 ?PyCallClassMemberFunc@@YA_NPAU_object@@PBD0@Z ; PyCallClassMemberFunc

; 315  : 	return true;
; 316  : }

  00051	8b 4d fc	 mov	 ecx, DWORD PTR __$ArrayPad$[ebp]
  00054	83 c4 14	 add	 esp, 20			; 00000014H
  00057	33 cd		 xor	 ecx, ebp
  00059	b0 01		 mov	 al, 1
  0005b	5e		 pop	 esi
  0005c	e8 00 00 00 00	 call	 @__security_check_cookie@4
  00061	8b e5		 mov	 esp, ebp
  00063	5d		 pop	 ebp
  00064	c3		 ret	 0
?__RecvRunupMatrixQuizPacket@CPythonNetworkStream@@IAE_NXZ ENDP ; CPythonNetworkStream::__RecvRunupMatrixQuizPacket
_TEXT	ENDS
; Function compile flags: /Ogtp
; File D:\_m2work\txoko-m2-work\txoko-client-src\source\UserInterface\PythonNetworkStreamPhaseLogin.cpp
;	COMDAT ?__RecvNEWCIBNPasspodRequestPacket@CPythonNetworkStream@@IAE_NXZ
_TEXT	SEGMENT
_kRequestPacket$ = -1					; size = 1
?__RecvNEWCIBNPasspodRequestPacket@CPythonNetworkStream@@IAE_NXZ PROC ; CPythonNetworkStream::__RecvNEWCIBNPasspodRequestPacket, COMDAT
; _this$ = ecx

; 333  : {

  00000	55		 push	 ebp
  00001	8b ec		 mov	 ebp, esp
  00003	51		 push	 ecx
  00004	56		 push	 esi

; 334  : 	TPacketGCNEWCIBNPasspodRequest kRequestPacket;
; 335  : 	if (!Recv(sizeof(kRequestPacket), &kRequestPacket))

  00005	8d 45 ff	 lea	 eax, DWORD PTR _kRequestPacket$[ebp]
  00008	8b f1		 mov	 esi, ecx
  0000a	50		 push	 eax
  0000b	6a 01		 push	 1
  0000d	e8 00 00 00 00	 call	 ?Recv@CNetworkStream@@QAE_NHPAX@Z ; CNetworkStream::Recv
  00012	84 c0		 test	 al, al
  00014	75 05		 jne	 SHORT $LN2@RecvNEWCIB
  00016	5e		 pop	 esi

; 340  : }

  00017	8b e5		 mov	 esp, ebp
  00019	5d		 pop	 ebp
  0001a	c3		 ret	 0
$LN2@RecvNEWCIB:

; 336  : 		return false;
; 337  : 
; 338  : 	PyCallClassMemberFunc(m_apoPhaseWnd[PHASE_WINDOW_LOGIN], "BINARY_OnNEWCIBNPasspodRequest", Py_BuildValue("()"));	

  0001b	68 00 00 00 00	 push	 OFFSET ??_C@_02HCKGKOFO@?$CI?$CJ@
  00020	ff 15 00 00 00
	00		 call	 DWORD PTR __imp__Py_BuildValue
  00026	50		 push	 eax
  00027	68 00 00 00 00	 push	 OFFSET ??_C@_0BP@DDJIDHFM@BINARY_OnNEWCIBNPasspodRequest@
  0002c	ff b6 80 01 00
	00		 push	 DWORD PTR [esi+384]
  00032	e8 00 00 00 00	 call	 ?PyCallClassMemberFunc@@YA_NPAU_object@@PBD0@Z ; PyCallClassMemberFunc
  00037	83 c4 10	 add	 esp, 16			; 00000010H

; 339  : 	return true;

  0003a	b0 01		 mov	 al, 1
  0003c	5e		 pop	 esi

; 340  : }

  0003d	8b e5		 mov	 esp, ebp
  0003f	5d		 pop	 ebp
  00040	c3		 ret	 0
?__RecvNEWCIBNPasspodRequestPacket@CPythonNetworkStream@@IAE_NXZ ENDP ; CPythonNetworkStream::__RecvNEWCIBNPasspodRequestPacket
_TEXT	ENDS
; Function compile flags: /Ogtp
; File D:\_m2work\txoko-m2-work\txoko-client-src\source\UserInterface\PythonNetworkStreamPhaseLogin.cpp
;	COMDAT ?__RecvNEWCIBNPasspodFailurePacket@CPythonNetworkStream@@IAE_NXZ
_TEXT	SEGMENT
_kFailurePacket$ = -136					; size = 130
__$ArrayPad$ = -4					; size = 4
?__RecvNEWCIBNPasspodFailurePacket@CPythonNetworkStream@@IAE_NXZ PROC ; CPythonNetworkStream::__RecvNEWCIBNPasspodFailurePacket, COMDAT
; _this$ = ecx

; 343  : {

  00000	55		 push	 ebp
  00001	8b ec		 mov	 ebp, esp
  00003	81 ec 88 00 00
	00		 sub	 esp, 136		; 00000088H
  00009	a1 00 00 00 00	 mov	 eax, DWORD PTR ___security_cookie
  0000e	33 c5		 xor	 eax, ebp
  00010	89 45 fc	 mov	 DWORD PTR __$ArrayPad$[ebp], eax
  00013	56		 push	 esi

; 344  : 	TPacketGCNEWCIBNPasspodFailure kFailurePacket;
; 345  : 	if (!Recv(sizeof(kFailurePacket), &kFailurePacket))

  00014	8d 85 78 ff ff
	ff		 lea	 eax, DWORD PTR _kFailurePacket$[ebp]
  0001a	8b f1		 mov	 esi, ecx
  0001c	50		 push	 eax
  0001d	68 82 00 00 00	 push	 130			; 00000082H
  00022	e8 00 00 00 00	 call	 ?Recv@CNetworkStream@@QAE_NHPAX@Z ; CNetworkStream::Recv
  00027	84 c0		 test	 al, al
  00029	75 0f		 jne	 SHORT $LN2@RecvNEWCIB
  0002b	5e		 pop	 esi

; 349  : 	return true;
; 350  : }

  0002c	8b 4d fc	 mov	 ecx, DWORD PTR __$ArrayPad$[ebp]
  0002f	33 cd		 xor	 ecx, ebp
  00031	e8 00 00 00 00	 call	 @__security_check_cookie@4
  00036	8b e5		 mov	 esp, ebp
  00038	5d		 pop	 ebp
  00039	c3		 ret	 0
$LN2@RecvNEWCIB:

; 346  : 		return false;
; 347  : 
; 348  : 	PyCallClassMemberFunc(m_apoPhaseWnd[PHASE_WINDOW_LOGIN], "BINARY_OnNEWCIBNPasspodFailure", Py_BuildValue("()"));	

  0003a	68 00 00 00 00	 push	 OFFSET ??_C@_02HCKGKOFO@?$CI?$CJ@
  0003f	ff 15 00 00 00
	00		 call	 DWORD PTR __imp__Py_BuildValue
  00045	50		 push	 eax
  00046	68 00 00 00 00	 push	 OFFSET ??_C@_0BP@LPFBEHCD@BINARY_OnNEWCIBNPasspodFailure@
  0004b	ff b6 80 01 00
	00		 push	 DWORD PTR [esi+384]
  00051	e8 00 00 00 00	 call	 ?PyCallClassMemberFunc@@YA_NPAU_object@@PBD0@Z ; PyCallClassMemberFunc

; 349  : 	return true;
; 350  : }

  00056	8b 4d fc	 mov	 ecx, DWORD PTR __$ArrayPad$[ebp]
  00059	83 c4 10	 add	 esp, 16			; 00000010H
  0005c	33 cd		 xor	 ecx, ebp
  0005e	b0 01		 mov	 al, 1
  00060	5e		 pop	 esi
  00061	e8 00 00 00 00	 call	 @__security_check_cookie@4
  00066	8b e5		 mov	 esp, ebp
  00068	5d		 pop	 ebp
  00069	c3		 ret	 0
?__RecvNEWCIBNPasspodFailurePacket@CPythonNetworkStream@@IAE_NXZ ENDP ; CPythonNetworkStream::__RecvNEWCIBNPasspodFailurePacket
_TEXT	ENDS
; Function compile flags: /Ogtp
; File D:\_m2work\txoko-m2-work\txoko-client-src\source\UserInterface\PythonNetworkStreamPhaseLogin.cpp
;	COMDAT ?__RecvChinaMatrixCardPacket@CPythonNetworkStream@@IAE_NXZ
_TEXT	SEGMENT
_kMatrixCardPacket$ = -16				; size = 9
__$ArrayPad$ = -4					; size = 4
?__RecvChinaMatrixCardPacket@CPythonNetworkStream@@IAE_NXZ PROC ; CPythonNetworkStream::__RecvChinaMatrixCardPacket, COMDAT
; _this$ = ecx

; 389  : {

  00000	55		 push	 ebp
  00001	8b ec		 mov	 ebp, esp
  00003	83 ec 10	 sub	 esp, 16			; 00000010H
  00006	a1 00 00 00 00	 mov	 eax, DWORD PTR ___security_cookie
  0000b	33 c5		 xor	 eax, ebp
  0000d	89 45 fc	 mov	 DWORD PTR __$ArrayPad$[ebp], eax
  00010	56		 push	 esi

; 390  : 	TPacketGCChinaMatrixCard kMatrixCardPacket;
; 391  : 	if (!Recv(sizeof(TPacketGCChinaMatrixCard), &kMatrixCardPacket))

  00011	8d 45 f0	 lea	 eax, DWORD PTR _kMatrixCardPacket$[ebp]
  00014	8b f1		 mov	 esi, ecx
  00016	50		 push	 eax
  00017	6a 09		 push	 9
  00019	e8 00 00 00 00	 call	 ?Recv@CNetworkStream@@QAE_NHPAX@Z ; CNetworkStream::Recv
  0001e	84 c0		 test	 al, al
  00020	75 0f		 jne	 SHORT $LN2@RecvChinaM
  00022	5e		 pop	 esi

; 403  : 	return true;
; 404  : }

  00023	8b 4d fc	 mov	 ecx, DWORD PTR __$ArrayPad$[ebp]
  00026	33 cd		 xor	 ecx, ebp
  00028	e8 00 00 00 00	 call	 @__security_check_cookie@4
  0002d	8b e5		 mov	 esp, ebp
  0002f	5d		 pop	 ebp
  00030	c3		 ret	 0
$LN2@RecvChinaM:

; 392  : 		return false;
; 393  : 
; 394  : 	PyObject * pyValue = Py_BuildValue("(iiiiiiii)",	ROW(kMatrixCardPacket.dwRows, 0),

  00031	8b 4d f5	 mov	 ecx, DWORD PTR _kMatrixCardPacket$[ebp+5]
  00034	0f b6 c1	 movzx	 eax, cl
  00037	50		 push	 eax
  00038	8b c1		 mov	 eax, ecx
  0003a	c1 e8 08	 shr	 eax, 8
  0003d	0f b6 c0	 movzx	 eax, al
  00040	50		 push	 eax
  00041	8b c1		 mov	 eax, ecx
  00043	c1 e9 18	 shr	 ecx, 24			; 00000018H
  00046	c1 e8 10	 shr	 eax, 16			; 00000010H
  00049	0f b6 c0	 movzx	 eax, al
  0004c	50		 push	 eax
  0004d	51		 push	 ecx
  0004e	8b 4d f1	 mov	 ecx, DWORD PTR _kMatrixCardPacket$[ebp+1]
  00051	0f b6 c1	 movzx	 eax, cl
  00054	50		 push	 eax
  00055	8b c1		 mov	 eax, ecx
  00057	c1 e8 08	 shr	 eax, 8
  0005a	0f b6 c0	 movzx	 eax, al
  0005d	50		 push	 eax
  0005e	8b c1		 mov	 eax, ecx
  00060	c1 e9 18	 shr	 ecx, 24			; 00000018H
  00063	c1 e8 10	 shr	 eax, 16			; 00000010H
  00066	0f b6 c0	 movzx	 eax, al
  00069	50		 push	 eax
  0006a	51		 push	 ecx
  0006b	68 00 00 00 00	 push	 OFFSET ??_C@_0L@FKCIBGAB@?$CIiiiiiiii?$CJ@
  00070	ff 15 00 00 00
	00		 call	 DWORD PTR __imp__Py_BuildValue

; 395  : 														ROW(kMatrixCardPacket.dwRows, 1),
; 396  : 														ROW(kMatrixCardPacket.dwRows, 2),
; 397  : 														ROW(kMatrixCardPacket.dwRows, 3),
; 398  : 														COL(kMatrixCardPacket.dwCols, 0),
; 399  : 														COL(kMatrixCardPacket.dwCols, 1),
; 400  : 														COL(kMatrixCardPacket.dwCols, 2),
; 401  : 														COL(kMatrixCardPacket.dwCols, 3));
; 402  : 	PyCallClassMemberFunc(m_apoPhaseWnd[PHASE_WINDOW_LOGIN], "OnMatrixCard", pyValue);

  00076	50		 push	 eax
  00077	68 00 00 00 00	 push	 OFFSET ??_C@_0N@PIKEFLJP@OnMatrixCard@
  0007c	ff b6 80 01 00
	00		 push	 DWORD PTR [esi+384]
  00082	e8 00 00 00 00	 call	 ?PyCallClassMemberFunc@@YA_NPAU_object@@PBD0@Z ; PyCallClassMemberFunc

; 403  : 	return true;
; 404  : }

  00087	8b 4d fc	 mov	 ecx, DWORD PTR __$ArrayPad$[ebp]
  0008a	83 c4 30	 add	 esp, 48			; 00000030H
  0008d	33 cd		 xor	 ecx, ebp
  0008f	b0 01		 mov	 al, 1
  00091	5e		 pop	 esi
  00092	e8 00 00 00 00	 call	 @__security_check_cookie@4
  00097	8b e5		 mov	 esp, ebp
  00099	5d		 pop	 ebp
  0009a	c3		 ret	 0
?__RecvChinaMatrixCardPacket@CPythonNetworkStream@@IAE_NXZ ENDP ; CPythonNetworkStream::__RecvChinaMatrixCardPacket
_TEXT	ENDS
; Function compile flags: /Ogtp
; File D:\_m2work\txoko-m2-work\txoko-client-src\source\UserInterface\PythonNetworkStreamPhaseLogin.cpp
;	COMDAT ?__RecvLoginKeyPacket@CPythonNetworkStream@@IAE_NXZ
_TEXT	SEGMENT
_kLoginKeyPacket$ = -8					; size = 5
?__RecvLoginKeyPacket@CPythonNetworkStream@@IAE_NXZ PROC ; CPythonNetworkStream::__RecvLoginKeyPacket, COMDAT
; _this$ = ecx

; 407  : {

  00000	55		 push	 ebp
  00001	8b ec		 mov	 ebp, esp
  00003	83 ec 08	 sub	 esp, 8

; 408  : 	TPacketGCLoginKey kLoginKeyPacket;
; 409  : 	if (!Recv(sizeof(TPacketGCLoginKey), &kLoginKeyPacket))

  00006	8d 45 f8	 lea	 eax, DWORD PTR _kLoginKeyPacket$[ebp]
  00009	56		 push	 esi
  0000a	50		 push	 eax
  0000b	6a 05		 push	 5
  0000d	8b f1		 mov	 esi, ecx
  0000f	e8 00 00 00 00	 call	 ?Recv@CNetworkStream@@QAE_NHPAX@Z ; CNetworkStream::Recv
  00014	84 c0		 test	 al, al
  00016	75 05		 jne	 SHORT $LN2@RecvLoginK
  00018	5e		 pop	 esi

; 416  : }

  00019	8b e5		 mov	 esp, ebp
  0001b	5d		 pop	 ebp
  0001c	c3		 ret	 0
$LN2@RecvLoginK:

; 410  : 		return false;
; 411  : 
; 412  : 	m_dwLoginKey = kLoginKeyPacket.dwLoginKey;

  0001d	8b 45 f9	 mov	 eax, DWORD PTR _kLoginKeyPacket$[ebp+1]
  00020	89 86 24 01 00
	00		 mov	 DWORD PTR [esi+292], eax

; 413  : 	m_isWaitLoginKey = FALSE;
; 414  : 
; 415  : 	return true;

  00026	b0 01		 mov	 al, 1
  00028	c7 86 28 01 00
	00 00 00 00 00	 mov	 DWORD PTR [esi+296], 0
  00032	5e		 pop	 esi

; 416  : }

  00033	8b e5		 mov	 esp, ebp
  00035	5d		 pop	 ebp
  00036	c3		 ret	 0
?__RecvLoginKeyPacket@CPythonNetworkStream@@IAE_NXZ ENDP ; CPythonNetworkStream::__RecvLoginKeyPacket
_TEXT	ENDS
END
