; Listing generated by Microsoft (R) Optimizing Compiler Version 19.44.35217.0 

	TITLE	d:\_m2work\server client tmp4\clientvs22\vs_files\userinterface\distribute\pythonplayer.obj
	.686P
	.XMM
	include listing.inc
	.model	flat

INCLUDELIB OLDNAMES

PUBLIC	??_C@_0P@KCGJBOBB@RefreshStamina@		; `string'
PUBLIC	??_C@_0BL@KCKDPCFN@BINARY_Guild_ExitGuildArea@	; `string'
PUBLIC	??_C@_0BM@OMJPBBKE@BINARY_Guild_EnterGuildArea@	; `string'
PUBLIC	??_C@_0DC@LHJHEHHP@CPythonPlayer?3?3GetStatus?5?9?5Get?5@ ; `string'
PUBLIC	??_C@_0DC@HBNJHHEJ@CPythonPlayer?3?3SetStatus?5?9?5Set?5@ ; `string'
PUBLIC	??_C@_0GC@FMCMFPCN@CPythonPlayer?3?3SetItemData?$CIwind@ ; `string'
PUBLIC	??_C@_0P@PDEFNCOA@OnChangePKMode@		; `string'
PUBLIC	??_C@_0FF@PCELILMJ@Failed?5to?5find?5ItemData?5?9?5CPyth@ ; `string'
PUBLIC	??_C@_0BC@GAEKBOHM@BINARY_ActEmotion@		; `string'
PUBLIC	??_C@_0ED@OIFHNIC@CPythonPlayer?3?3SetSkillCoolTime@ ; `string'
PUBLIC	??_C@_0DK@OJMDGNKA@CPythonPlayer?3?3SetSkillLevel?$CISl@ ; `string'
PUBLIC	??_C@_0ED@MHHIIPAM@CPythonPlayer?3?3EndSkillCoolTime@ ; `string'
PUBLIC	??_C@_0FC@CAEKCLMF@CPythonPlayer?3?3SetSkillCoolTime@ ; `string'
PUBLIC	??_C@_0EA@BNHLOMGN@CPythonPlayer?3?3ActivavteSkill?$CId@ ; `string'
PUBLIC	??_C@_0FC@JLHDIAGN@CPythonPlayer?3?3EndSkillCoolTime@ ; `string'
PUBLIC	??_C@_0EC@BHLLACII@CPythonPlayer?3?3DeactivavteSkill@ ; `string'
PUBLIC	??_C@_0BC@GDFCJBCP@ActivateSkillSlot@		; `string'
PUBLIC	??_C@_0DP@MLLABPNJ@CPythonPlayer?3?3SendClickItemPac@ ; `string'
PUBLIC	??_C@_0BE@HIMJCBBG@DeactivateSkillSlot@		; `string'
PUBLIC	??_C@_0P@CGBLDLHF@OnCannotMining@		; `string'
PUBLIC	??_C@_0BB@DNNBDACF@OnCannotPickItem@		; `string'
PUBLIC	??_C@_0BC@FKINMGLI@OnCannotShotError@		; `string'
PUBLIC	??_C@_0M@HCIEKIGP@NEED_TARGET@			; `string'
PUBLIC	??_C@_0FC@JHEGNFED@?5CPythonPlayer?3?3LinkPartyMember@ ; `string'
PUBLIC	??_C@_08HOHDPHII@?1kiss?5?$CFs@			; `string'
PUBLIC	??_C@_0GK@FIFNELKC@?5CPythonPlayer?3?3UpdatePartyMemb@ ; `string'
PUBLIC	??_C@_0EK@OICEDEOK@?5CPythonPlayer?3?3UnlinkPartyMemb@ ; `string'
PUBLIC	??_C@_0HF@NJGIGGLI@?5CPythonPlayer?3?3UpdatePartyMemb@ ; `string'
PUBLIC	??_C@_0HG@LLGBHOIA@?5CPythonPlayer?3?3UpdatePartyMemb@ ; `string'
PUBLIC	??_C@_0BH@PIKHDMAM@BINARY_CheckGameButton@	; `string'
PUBLIC	??_C@_0O@EHNHNBIB@RefreshMobile@		; `string'
PUBLIC	??_R2CPythonPlayer@@8				; CPythonPlayer::`RTTI Base Class Array'
PUBLIC	??_R2?$CSingleton@VCPythonPlayer@@@@8		; CSingleton<CPythonPlayer>::`RTTI Base Class Array'
PUBLIC	??_R2?$TAbstractSingleton@VIAbstractPlayer@@@@8	; TAbstractSingleton<IAbstractPlayer>::`RTTI Base Class Array'
PUBLIC	??_R2IAbstractPlayer@@8				; IAbstractPlayer::`RTTI Base Class Array'
PUBLIC	??_R13?0A@EA@?$TAbstractSingleton@VIAbstractPlayer@@@@8 ; TAbstractSingleton<IAbstractPlayer>::`RTTI Base Class Descriptor at (4,-1,0,64)'
PUBLIC	??_R1A@?0A@EA@CPythonPlayer@@8			; CPythonPlayer::`RTTI Base Class Descriptor at (0,-1,0,64)'
PUBLIC	??_R13?0A@EA@IAbstractPlayer@@8			; IAbstractPlayer::`RTTI Base Class Descriptor at (4,-1,0,64)'
PUBLIC	??_R1A@?0A@EA@?$CSingleton@VCPythonPlayer@@@@8	; CSingleton<CPythonPlayer>::`RTTI Base Class Descriptor at (0,-1,0,64)'
PUBLIC	??_R1A@?0A@EA@?$TAbstractSingleton@VIAbstractPlayer@@@@8 ; TAbstractSingleton<IAbstractPlayer>::`RTTI Base Class Descriptor at (0,-1,0,64)'
PUBLIC	??_R1A@?0A@EA@IAbstractPlayer@@8		; IAbstractPlayer::`RTTI Base Class Descriptor at (0,-1,0,64)'
PUBLIC	??_R3?$CSingleton@VCPythonPlayer@@@@8		; CSingleton<CPythonPlayer>::`RTTI Class Hierarchy Descriptor'
PUBLIC	??_R3CPythonPlayer@@8				; CPythonPlayer::`RTTI Class Hierarchy Descriptor'
PUBLIC	??_R0?AV?$CSingleton@VCPythonPlayer@@@@@8	; CSingleton<CPythonPlayer> `RTTI Type Descriptor'
PUBLIC	??_R0?AVCPythonPlayer@@@8			; CPythonPlayer `RTTI Type Descriptor'
PUBLIC	??_R3?$TAbstractSingleton@VIAbstractPlayer@@@@8	; TAbstractSingleton<IAbstractPlayer>::`RTTI Class Hierarchy Descriptor'
PUBLIC	??_R3IAbstractPlayer@@8				; IAbstractPlayer::`RTTI Class Hierarchy Descriptor'
PUBLIC	??_R0?AV?$TAbstractSingleton@VIAbstractPlayer@@@@@8 ; TAbstractSingleton<IAbstractPlayer> `RTTI Type Descriptor'
PUBLIC	??_R0?AVIAbstractPlayer@@@8			; IAbstractPlayer `RTTI Type Descriptor'
PUBLIC	??_R4?$CSingleton@VCPythonPlayer@@@@6B@		; CSingleton<CPythonPlayer>::`RTTI Complete Object Locator'
PUBLIC	??_R4CPythonPlayer@@6BIAbstractPlayer@@@	; CPythonPlayer::`RTTI Complete Object Locator'
PUBLIC	??_R4CPythonPlayer@@6B?$CSingleton@VCPythonPlayer@@@@@ ; CPythonPlayer::`RTTI Complete Object Locator'
PUBLIC	??_R4?$TAbstractSingleton@VIAbstractPlayer@@@@6B@ ; TAbstractSingleton<IAbstractPlayer>::`RTTI Complete Object Locator'
PUBLIC	??_R4IAbstractPlayer@@6B@			; IAbstractPlayer::`RTTI Complete Object Locator'
PUBLIC	??_7?$TAbstractSingleton@VIAbstractPlayer@@@@6B@ ; TAbstractSingleton<IAbstractPlayer>::`vftable'
PUBLIC	??_7?$CSingleton@VCPythonPlayer@@@@6B@		; CSingleton<CPythonPlayer>::`vftable'
PUBLIC	??_7CPythonPlayer@@6BIAbstractPlayer@@@		; CPythonPlayer::`vftable'
PUBLIC	??_7CPythonPlayer@@6B?$CSingleton@VCPythonPlayer@@@@@ ; CPythonPlayer::`vftable'
PUBLIC	??_7IAbstractPlayer@@6B@			; IAbstractPlayer::`vftable'
;	COMDAT ?s_dwNextTCPTime@?1??SendClickItemPacket@CPythonPlayer@@QAEXK@Z@4KA
_BSS	SEGMENT
?s_dwNextTCPTime@?1??SendClickItemPacket@CPythonPlayer@@QAEXK@Z@4KA DD 01H DUP (?) ; `CPythonPlayer::SendClickItemPacket'::`2'::s_dwNextTCPTime
_BSS	ENDS
;	COMDAT ?s_dwNextTCPTime@?1??__SendClickActorPacket@CPythonPlayer@@IAEXAAVCInstanceBase@@@Z@4KA
_BSS	SEGMENT
?s_dwNextTCPTime@?1??__SendClickActorPacket@CPythonPlayer@@IAEXAAVCInstanceBase@@@Z@4KA DD 01H DUP (?) ; `CPythonPlayer::__SendClickActorPacket'::`2'::s_dwNextTCPTime
_BSS	ENDS
;	COMDAT ??_7IAbstractPlayer@@6B@
CONST	SEGMENT
??_7IAbstractPlayer@@6B@ DD FLAT:??_R4IAbstractPlayer@@6B@ ; IAbstractPlayer::`vftable'
	DD	FLAT:??_EIAbstractPlayer@@UAEPAXI@Z
	DD	FLAT:__purecall
	DD	FLAT:__purecall
	DD	FLAT:__purecall
	DD	FLAT:__purecall
	DD	FLAT:__purecall
	DD	FLAT:__purecall
	DD	FLAT:__purecall
	DD	FLAT:__purecall
	DD	FLAT:__purecall
	DD	FLAT:__purecall
	DD	FLAT:__purecall
	DD	FLAT:__purecall
	DD	FLAT:__purecall
	DD	FLAT:__purecall
	DD	FLAT:__purecall
	DD	FLAT:__purecall
	DD	FLAT:__purecall
	DD	FLAT:__purecall
	DD	FLAT:__purecall
	DD	FLAT:__purecall
	DD	FLAT:__purecall
	DD	FLAT:__purecall
	DD	FLAT:__purecall
	DD	FLAT:__purecall
	DD	FLAT:__purecall
	DD	FLAT:__purecall
	DD	FLAT:__purecall
	DD	FLAT:__purecall
	DD	FLAT:__purecall
	DD	FLAT:__purecall
	DD	FLAT:__purecall
	DD	FLAT:__purecall
	DD	FLAT:__purecall
	DD	FLAT:__purecall
CONST	ENDS
;	COMDAT ??_7CPythonPlayer@@6B?$CSingleton@VCPythonPlayer@@@@@
CONST	SEGMENT
??_7CPythonPlayer@@6B?$CSingleton@VCPythonPlayer@@@@@ DD FLAT:??_R4CPythonPlayer@@6B?$CSingleton@VCPythonPlayer@@@@@ ; CPythonPlayer::`vftable'
	DD	FLAT:??_ECPythonPlayer@@UAEPAXI@Z
CONST	ENDS
;	COMDAT ??_7CPythonPlayer@@6BIAbstractPlayer@@@
CONST	SEGMENT
??_7CPythonPlayer@@6BIAbstractPlayer@@@ DD FLAT:??_R4CPythonPlayer@@6BIAbstractPlayer@@@ ; CPythonPlayer::`vftable'
	DD	FLAT:??_ECPythonPlayer@@W3AEPAXI@Z
	DD	FLAT:?GetMainCharacterIndex@CPythonPlayer@@UAEKXZ
	DD	FLAT:?SetMainCharacterIndex@CPythonPlayer@@UAEXH@Z
	DD	FLAT:?IsMainCharacterIndex@CPythonPlayer@@UAE_NK@Z
	DD	FLAT:?GetStatus@CPythonPlayer@@UAEHK@Z
	DD	FLAT:?GetName@CPythonPlayer@@UAEPBDXZ
	DD	FLAT:?SetRace@CPythonPlayer@@UAEXK@Z
	DD	FLAT:?StartStaminaConsume@CPythonPlayer@@UAEXKK@Z
	DD	FLAT:?StopStaminaConsume@CPythonPlayer@@UAEXK@Z
	DD	FLAT:?IsPartyMemberByVID@CPythonPlayer@@UAE_NK@Z
	DD	FLAT:?PartyMemberVIDToPID@CPythonPlayer@@UAE_NKPAK@Z
	DD	FLAT:?IsSamePartyMember@CPythonPlayer@@UAE_NKK@Z
	DD	FLAT:?SetItemData@CPythonPlayer@@UAEXUSItemPos@@ABUpacket_item@@@Z
	DD	FLAT:?SetItemCount@CPythonPlayer@@UAEXUSItemPos@@E@Z
	DD	FLAT:?SetItemMetinSocket@CPythonPlayer@@UAEXUSItemPos@@KK@Z
	DD	FLAT:?SetItemAttribute@CPythonPlayer@@UAEXUSItemPos@@KEF@Z
	DD	FLAT:?GetItemIndex@CPythonPlayer@@UAEKUSItemPos@@@Z
	DD	FLAT:?GetItemFlags@CPythonPlayer@@UAEKUSItemPos@@@Z
	DD	FLAT:?GetItemCount@CPythonPlayer@@UAEKUSItemPos@@@Z
	DD	FLAT:?IsEquipItemInSlot@CPythonPlayer@@UAE_NUSItemPos@@@Z
	DD	FLAT:?AddQuickSlot@CPythonPlayer@@UAEXHDD@Z
	DD	FLAT:?DeleteQuickSlot@CPythonPlayer@@UAEXH@Z
	DD	FLAT:?MoveQuickSlot@CPythonPlayer@@UAEXHH@Z
	DD	FLAT:?SetWeaponPower@CPythonPlayer@@UAEXKKKKK@Z
	DD	FLAT:?SetTarget@CPythonPlayer@@UAEXKH@Z
	DD	FLAT:?NotifyCharacterUpdate@CPythonPlayer@@UAEXK@Z
	DD	FLAT:?NotifyCharacterDead@CPythonPlayer@@UAEXK@Z
	DD	FLAT:?NotifyDeletingCharacterInstance@CPythonPlayer@@UAEXK@Z
	DD	FLAT:?NotifyChangePKMode@CPythonPlayer@@UAEXXZ
	DD	FLAT:?SetObserverMode@CPythonPlayer@@UAEX_N@Z
	DD	FLAT:?SetMobileFlag@CPythonPlayer@@UAEXH@Z
	DD	FLAT:?SetComboSkillFlag@CPythonPlayer@@UAEXH@Z
	DD	FLAT:?StartEmotionProcess@CPythonPlayer@@UAEXXZ
	DD	FLAT:?EndEmotionProcess@CPythonPlayer@@UAEXXZ
	DD	FLAT:?NEW_GetMainActorPtr@CPythonPlayer@@UAEPAVCInstanceBase@@XZ
CONST	ENDS
;	COMDAT ??_7?$CSingleton@VCPythonPlayer@@@@6B@
CONST	SEGMENT
??_7?$CSingleton@VCPythonPlayer@@@@6B@ DD FLAT:??_R4?$CSingleton@VCPythonPlayer@@@@6B@ ; CSingleton<CPythonPlayer>::`vftable'
	DD	FLAT:??_E?$CSingleton@VCPythonPlayer@@@@UAEPAXI@Z
CONST	ENDS
;	COMDAT ??_7?$TAbstractSingleton@VIAbstractPlayer@@@@6B@
CONST	SEGMENT
??_7?$TAbstractSingleton@VIAbstractPlayer@@@@6B@ DD FLAT:??_R4?$TAbstractSingleton@VIAbstractPlayer@@@@6B@ ; TAbstractSingleton<IAbstractPlayer>::`vftable'
	DD	FLAT:??_E?$TAbstractSingleton@VIAbstractPlayer@@@@UAEPAXI@Z
CONST	ENDS
;	COMDAT ??_R4IAbstractPlayer@@6B@
rdata$r	SEGMENT
??_R4IAbstractPlayer@@6B@ DD 00H			; IAbstractPlayer::`RTTI Complete Object Locator'
	DD	00H
	DD	00H
	DD	FLAT:??_R0?AVIAbstractPlayer@@@8
	DD	FLAT:??_R3IAbstractPlayer@@8
rdata$r	ENDS
;	COMDAT ??_R4?$TAbstractSingleton@VIAbstractPlayer@@@@6B@
rdata$r	SEGMENT
??_R4?$TAbstractSingleton@VIAbstractPlayer@@@@6B@ DD 00H ; TAbstractSingleton<IAbstractPlayer>::`RTTI Complete Object Locator'
	DD	00H
	DD	00H
	DD	FLAT:??_R0?AV?$TAbstractSingleton@VIAbstractPlayer@@@@@8
	DD	FLAT:??_R3?$TAbstractSingleton@VIAbstractPlayer@@@@8
rdata$r	ENDS
;	COMDAT ??_R4CPythonPlayer@@6B?$CSingleton@VCPythonPlayer@@@@@
rdata$r	SEGMENT
??_R4CPythonPlayer@@6B?$CSingleton@VCPythonPlayer@@@@@ DD 00H ; CPythonPlayer::`RTTI Complete Object Locator'
	DD	00H
	DD	00H
	DD	FLAT:??_R0?AVCPythonPlayer@@@8
	DD	FLAT:??_R3CPythonPlayer@@8
rdata$r	ENDS
;	COMDAT ??_R4CPythonPlayer@@6BIAbstractPlayer@@@
rdata$r	SEGMENT
??_R4CPythonPlayer@@6BIAbstractPlayer@@@ DD 00H		; CPythonPlayer::`RTTI Complete Object Locator'
	DD	04H
	DD	00H
	DD	FLAT:??_R0?AVCPythonPlayer@@@8
	DD	FLAT:??_R3CPythonPlayer@@8
rdata$r	ENDS
;	COMDAT ??_R4?$CSingleton@VCPythonPlayer@@@@6B@
rdata$r	SEGMENT
??_R4?$CSingleton@VCPythonPlayer@@@@6B@ DD 00H		; CSingleton<CPythonPlayer>::`RTTI Complete Object Locator'
	DD	00H
	DD	00H
	DD	FLAT:??_R0?AV?$CSingleton@VCPythonPlayer@@@@@8
	DD	FLAT:??_R3?$CSingleton@VCPythonPlayer@@@@8
rdata$r	ENDS
;	COMDAT ??_R0?AVIAbstractPlayer@@@8
data$rs	SEGMENT
??_R0?AVIAbstractPlayer@@@8 DD FLAT:??_7type_info@@6B@	; IAbstractPlayer `RTTI Type Descriptor'
	DD	00H
	DB	'.?AVIAbstractPlayer@@', 00H
data$rs	ENDS
;	COMDAT ??_R0?AV?$TAbstractSingleton@VIAbstractPlayer@@@@@8
data$rs	SEGMENT
??_R0?AV?$TAbstractSingleton@VIAbstractPlayer@@@@@8 DD FLAT:??_7type_info@@6B@ ; TAbstractSingleton<IAbstractPlayer> `RTTI Type Descriptor'
	DD	00H
	DB	'.?AV?$TAbstractSingleton@VIAbstractPlayer@@@@', 00H
data$rs	ENDS
;	COMDAT ??_R3IAbstractPlayer@@8
rdata$r	SEGMENT
??_R3IAbstractPlayer@@8 DD 00H				; IAbstractPlayer::`RTTI Class Hierarchy Descriptor'
	DD	00H
	DD	02H
	DD	FLAT:??_R2IAbstractPlayer@@8
rdata$r	ENDS
;	COMDAT ??_R3?$TAbstractSingleton@VIAbstractPlayer@@@@8
rdata$r	SEGMENT
??_R3?$TAbstractSingleton@VIAbstractPlayer@@@@8 DD 00H	; TAbstractSingleton<IAbstractPlayer>::`RTTI Class Hierarchy Descriptor'
	DD	00H
	DD	01H
	DD	FLAT:??_R2?$TAbstractSingleton@VIAbstractPlayer@@@@8
rdata$r	ENDS
;	COMDAT ??_R0?AVCPythonPlayer@@@8
data$rs	SEGMENT
??_R0?AVCPythonPlayer@@@8 DD FLAT:??_7type_info@@6B@	; CPythonPlayer `RTTI Type Descriptor'
	DD	00H
	DB	'.?AVCPythonPlayer@@', 00H
data$rs	ENDS
;	COMDAT ??_R0?AV?$CSingleton@VCPythonPlayer@@@@@8
data$rs	SEGMENT
??_R0?AV?$CSingleton@VCPythonPlayer@@@@@8 DD FLAT:??_7type_info@@6B@ ; CSingleton<CPythonPlayer> `RTTI Type Descriptor'
	DD	00H
	DB	'.?AV?$CSingleton@VCPythonPlayer@@@@', 00H
data$rs	ENDS
;	COMDAT ??_R3CPythonPlayer@@8
rdata$r	SEGMENT
??_R3CPythonPlayer@@8 DD 00H				; CPythonPlayer::`RTTI Class Hierarchy Descriptor'
	DD	01H
	DD	04H
	DD	FLAT:??_R2CPythonPlayer@@8
rdata$r	ENDS
;	COMDAT ??_R3?$CSingleton@VCPythonPlayer@@@@8
rdata$r	SEGMENT
??_R3?$CSingleton@VCPythonPlayer@@@@8 DD 00H		; CSingleton<CPythonPlayer>::`RTTI Class Hierarchy Descriptor'
	DD	00H
	DD	01H
	DD	FLAT:??_R2?$CSingleton@VCPythonPlayer@@@@8
rdata$r	ENDS
;	COMDAT ??_R1A@?0A@EA@IAbstractPlayer@@8
rdata$r	SEGMENT
??_R1A@?0A@EA@IAbstractPlayer@@8 DD FLAT:??_R0?AVIAbstractPlayer@@@8 ; IAbstractPlayer::`RTTI Base Class Descriptor at (0,-1,0,64)'
	DD	01H
	DD	00H
	DD	0ffffffffH
	DD	00H
	DD	040H
	DD	FLAT:??_R3IAbstractPlayer@@8
rdata$r	ENDS
;	COMDAT ??_R1A@?0A@EA@?$TAbstractSingleton@VIAbstractPlayer@@@@8
rdata$r	SEGMENT
??_R1A@?0A@EA@?$TAbstractSingleton@VIAbstractPlayer@@@@8 DD FLAT:??_R0?AV?$TAbstractSingleton@VIAbstractPlayer@@@@@8 ; TAbstractSingleton<IAbstractPlayer>::`RTTI Base Class Descriptor at (0,-1,0,64)'
	DD	00H
	DD	00H
	DD	0ffffffffH
	DD	00H
	DD	040H
	DD	FLAT:??_R3?$TAbstractSingleton@VIAbstractPlayer@@@@8
rdata$r	ENDS
;	COMDAT ??_R1A@?0A@EA@?$CSingleton@VCPythonPlayer@@@@8
rdata$r	SEGMENT
??_R1A@?0A@EA@?$CSingleton@VCPythonPlayer@@@@8 DD FLAT:??_R0?AV?$CSingleton@VCPythonPlayer@@@@@8 ; CSingleton<CPythonPlayer>::`RTTI Base Class Descriptor at (0,-1,0,64)'
	DD	00H
	DD	00H
	DD	0ffffffffH
	DD	00H
	DD	040H
	DD	FLAT:??_R3?$CSingleton@VCPythonPlayer@@@@8
rdata$r	ENDS
;	COMDAT ??_R13?0A@EA@IAbstractPlayer@@8
rdata$r	SEGMENT
??_R13?0A@EA@IAbstractPlayer@@8 DD FLAT:??_R0?AVIAbstractPlayer@@@8 ; IAbstractPlayer::`RTTI Base Class Descriptor at (4,-1,0,64)'
	DD	01H
	DD	04H
	DD	0ffffffffH
	DD	00H
	DD	040H
	DD	FLAT:??_R3IAbstractPlayer@@8
rdata$r	ENDS
;	COMDAT ??_R1A@?0A@EA@CPythonPlayer@@8
rdata$r	SEGMENT
??_R1A@?0A@EA@CPythonPlayer@@8 DD FLAT:??_R0?AVCPythonPlayer@@@8 ; CPythonPlayer::`RTTI Base Class Descriptor at (0,-1,0,64)'
	DD	03H
	DD	00H
	DD	0ffffffffH
	DD	00H
	DD	040H
	DD	FLAT:??_R3CPythonPlayer@@8
rdata$r	ENDS
;	COMDAT ??_R13?0A@EA@?$TAbstractSingleton@VIAbstractPlayer@@@@8
rdata$r	SEGMENT
??_R13?0A@EA@?$TAbstractSingleton@VIAbstractPlayer@@@@8 DD FLAT:??_R0?AV?$TAbstractSingleton@VIAbstractPlayer@@@@@8 ; TAbstractSingleton<IAbstractPlayer>::`RTTI Base Class Descriptor at (4,-1,0,64)'
	DD	00H
	DD	04H
	DD	0ffffffffH
	DD	00H
	DD	040H
	DD	FLAT:??_R3?$TAbstractSingleton@VIAbstractPlayer@@@@8
rdata$r	ENDS
;	COMDAT ??_R2IAbstractPlayer@@8
rdata$r	SEGMENT
??_R2IAbstractPlayer@@8 DD FLAT:??_R1A@?0A@EA@IAbstractPlayer@@8 ; IAbstractPlayer::`RTTI Base Class Array'
	DD	FLAT:??_R1A@?0A@EA@?$TAbstractSingleton@VIAbstractPlayer@@@@8
rdata$r	ENDS
;	COMDAT ??_R2?$TAbstractSingleton@VIAbstractPlayer@@@@8
rdata$r	SEGMENT
??_R2?$TAbstractSingleton@VIAbstractPlayer@@@@8 DD FLAT:??_R1A@?0A@EA@?$TAbstractSingleton@VIAbstractPlayer@@@@8 ; TAbstractSingleton<IAbstractPlayer>::`RTTI Base Class Array'
rdata$r	ENDS
;	COMDAT ??_R2?$CSingleton@VCPythonPlayer@@@@8
rdata$r	SEGMENT
??_R2?$CSingleton@VCPythonPlayer@@@@8 DD FLAT:??_R1A@?0A@EA@?$CSingleton@VCPythonPlayer@@@@8 ; CSingleton<CPythonPlayer>::`RTTI Base Class Array'
rdata$r	ENDS
;	COMDAT ??_R2CPythonPlayer@@8
rdata$r	SEGMENT
??_R2CPythonPlayer@@8 DD FLAT:??_R1A@?0A@EA@CPythonPlayer@@8 ; CPythonPlayer::`RTTI Base Class Array'
	DD	FLAT:??_R1A@?0A@EA@?$CSingleton@VCPythonPlayer@@@@8
	DD	FLAT:??_R13?0A@EA@IAbstractPlayer@@8
	DD	FLAT:??_R13?0A@EA@?$TAbstractSingleton@VIAbstractPlayer@@@@8
rdata$r	ENDS
;	COMDAT ??_C@_0O@EHNHNBIB@RefreshMobile@
CONST	SEGMENT
??_C@_0O@EHNHNBIB@RefreshMobile@ DB 'RefreshMobile', 00H ; `string'
CONST	ENDS
;	COMDAT ??_C@_0BH@PIKHDMAM@BINARY_CheckGameButton@
CONST	SEGMENT
??_C@_0BH@PIKHDMAM@BINARY_CheckGameButton@ DB 'BINARY_CheckGameButton', 00H ; `string'
CONST	ENDS
;	COMDAT ??_C@_0HG@LLGBHOIA@?5CPythonPlayer?3?3UpdatePartyMemb@
CONST	SEGMENT
??_C@_0HG@LLGBHOIA@?5CPythonPlayer?3?3UpdatePartyMemb@ DB ' CPythonPlayer'
	DB	'::UpdatePartyMemberAffect(dwPID=%d, byAffectSlotIndex=%d, sAf'
	DB	'fectNumber=%d) - Strange affect slot index', 00H ; `string'
CONST	ENDS
;	COMDAT ??_C@_0HF@NJGIGGLI@?5CPythonPlayer?3?3UpdatePartyMemb@
CONST	SEGMENT
??_C@_0HF@NJGIGGLI@?5CPythonPlayer?3?3UpdatePartyMemb@ DB ' CPythonPlayer'
	DB	'::UpdatePartyMemberAffect(dwPID=%d, byAffectSlotIndex=%d, sAf'
	DB	'fectNumber=%d) - Failed to find character', 00H ; `string'
CONST	ENDS
;	COMDAT ??_C@_0EK@OICEDEOK@?5CPythonPlayer?3?3UnlinkPartyMemb@
CONST	SEGMENT
??_C@_0EK@OICEDEOK@?5CPythonPlayer?3?3UnlinkPartyMemb@ DB ' CPythonPlayer'
	DB	'::UnlinkPartyMember(dwPID=%d) - Failed to find party member', 00H ; `string'
CONST	ENDS
;	COMDAT ??_C@_0GK@FIFNELKC@?5CPythonPlayer?3?3UpdatePartyMemb@
CONST	SEGMENT
??_C@_0GK@FIFNELKC@?5CPythonPlayer?3?3UpdatePartyMemb@ DB ' CPythonPlayer'
	DB	'::UpdatePartyMemberInfo(dwPID=%d, byState=%d, byHPPercentage='
	DB	'%d) - Failed to find character', 00H	; `string'
CONST	ENDS
;	COMDAT ??_C@_08HOHDPHII@?1kiss?5?$CFs@
CONST	SEGMENT
??_C@_08HOHDPHII@?1kiss?5?$CFs@ DB '/kiss %s', 00H	; `string'
CONST	ENDS
;	COMDAT ??_C@_0FC@JHEGNFED@?5CPythonPlayer?3?3LinkPartyMember@
CONST	SEGMENT
??_C@_0FC@JHEGNFED@?5CPythonPlayer?3?3LinkPartyMember@ DB ' CPythonPlayer'
	DB	'::LinkPartyMember(dwPID=%d, dwVID=%d) - Failed to find party '
	DB	'member', 00H				; `string'
CONST	ENDS
;	COMDAT ??_C@_0M@HCIEKIGP@NEED_TARGET@
CONST	SEGMENT
??_C@_0M@HCIEKIGP@NEED_TARGET@ DB 'NEED_TARGET', 00H	; `string'
CONST	ENDS
;	COMDAT ??_C@_0BC@FKINMGLI@OnCannotShotError@
CONST	SEGMENT
??_C@_0BC@FKINMGLI@OnCannotShotError@ DB 'OnCannotShotError', 00H ; `string'
CONST	ENDS
;	COMDAT ??_C@_0BB@DNNBDACF@OnCannotPickItem@
CONST	SEGMENT
??_C@_0BB@DNNBDACF@OnCannotPickItem@ DB 'OnCannotPickItem', 00H ; `string'
CONST	ENDS
;	COMDAT ??_C@_0P@CGBLDLHF@OnCannotMining@
CONST	SEGMENT
??_C@_0P@CGBLDLHF@OnCannotMining@ DB 'OnCannotMining', 00H ; `string'
CONST	ENDS
;	COMDAT ??_C@_0BE@HIMJCBBG@DeactivateSkillSlot@
CONST	SEGMENT
??_C@_0BE@HIMJCBBG@DeactivateSkillSlot@ DB 'DeactivateSkillSlot', 00H ; `string'
CONST	ENDS
;	COMDAT ??_C@_0DP@MLLABPNJ@CPythonPlayer?3?3SendClickItemPac@
CONST	SEGMENT
??_C@_0DP@MLLABPNJ@CPythonPlayer?3?3SendClickItemPac@ DB 'CPythonPlayer::'
	DB	'SendClickItemPacket(dwIID=%d) : Non-exist item.', 00H ; `string'
CONST	ENDS
;	COMDAT ??_C@_0BC@GDFCJBCP@ActivateSkillSlot@
CONST	SEGMENT
??_C@_0BC@GDFCJBCP@ActivateSkillSlot@ DB 'ActivateSkillSlot', 00H ; `string'
CONST	ENDS
;	COMDAT ??_C@_0EC@BHLLACII@CPythonPlayer?3?3DeactivavteSkill@
CONST	SEGMENT
??_C@_0EC@BHLLACII@CPythonPlayer?3?3DeactivavteSkill@ DB 'CPythonPlayer::'
	DB	'DeactivavteSkill(dwSlotIndex=%d/%d) - OUT OF RANGE', 00H ; `string'
CONST	ENDS
;	COMDAT ??_C@_0FC@JLHDIAGN@CPythonPlayer?3?3EndSkillCoolTime@
CONST	SEGMENT
??_C@_0FC@JLHDIAGN@CPythonPlayer?3?3EndSkillCoolTime@ DB 'CPythonPlayer::'
	DB	'EndSkillCoolTime(dwSkillIndex=%d) - dwSlotIndex=%d/%d OUT OF '
	DB	'RANGE', 00H					; `string'
CONST	ENDS
;	COMDAT ??_C@_0EA@BNHLOMGN@CPythonPlayer?3?3ActivavteSkill?$CId@
CONST	SEGMENT
??_C@_0EA@BNHLOMGN@CPythonPlayer?3?3ActivavteSkill?$CId@ DB 'CPythonPlaye'
	DB	'r::ActivavteSkill(dwSlotIndex=%d/%d) - OUT OF RANGE', 00H ; `string'
CONST	ENDS
;	COMDAT ??_C@_0FC@CAEKCLMF@CPythonPlayer?3?3SetSkillCoolTime@
CONST	SEGMENT
??_C@_0FC@CAEKCLMF@CPythonPlayer?3?3SetSkillCoolTime@ DB 'CPythonPlayer::'
	DB	'SetSkillCoolTime(dwSkillIndex=%d) - dwSlotIndex=%d/%d OUT OF '
	DB	'RANGE', 00H					; `string'
CONST	ENDS
;	COMDAT ??_C@_0ED@MHHIIPAM@CPythonPlayer?3?3EndSkillCoolTime@
CONST	SEGMENT
??_C@_0ED@MHHIIPAM@CPythonPlayer?3?3EndSkillCoolTime@ DB 'CPythonPlayer::'
	DB	'EndSkillCoolTime(dwSkillIndex=%d) - FIND SLOT ERROR', 00H ; `string'
CONST	ENDS
;	COMDAT ??_C@_0DK@OJMDGNKA@CPythonPlayer?3?3SetSkillLevel?$CISl@
CONST	SEGMENT
??_C@_0DK@OJMDGNKA@CPythonPlayer?3?3SetSkillLevel?$CISl@ DB 'CPythonPlaye'
	DB	'r::SetSkillLevel(SlotIndex=%d, SkillLevel=%d)', 00H ; `string'
CONST	ENDS
;	COMDAT ??_C@_0ED@OIFHNIC@CPythonPlayer?3?3SetSkillCoolTime@
CONST	SEGMENT
??_C@_0ED@OIFHNIC@CPythonPlayer?3?3SetSkillCoolTime@ DB 'CPythonPlayer::S'
	DB	'etSkillCoolTime(dwSkillIndex=%d) - FIND SLOT ERROR', 00H ; `string'
CONST	ENDS
;	COMDAT ??_C@_0BC@GAEKBOHM@BINARY_ActEmotion@
CONST	SEGMENT
??_C@_0BC@GAEKBOHM@BINARY_ActEmotion@ DB 'BINARY_ActEmotion', 00H ; `string'
CONST	ENDS
;	COMDAT ??_C@_0FF@PCELILMJ@Failed?5to?5find?5ItemData?5?9?5CPyth@
CONST	SEGMENT
??_C@_0FF@PCELILMJ@Failed?5to?5find?5ItemData?5?9?5CPyth@ DB 'Failed to f'
	DB	'ind ItemData - CPythonPlayer::IsEquipItem(window_type=%d, iSl'
	DB	'otindex=%d)', 0aH, 00H			; `string'
CONST	ENDS
;	COMDAT ??_C@_0P@PDEFNCOA@OnChangePKMode@
CONST	SEGMENT
??_C@_0P@PDEFNCOA@OnChangePKMode@ DB 'OnChangePKMode', 00H ; `string'
CONST	ENDS
;	COMDAT ??_C@_0GC@FMCMFPCN@CPythonPlayer?3?3SetItemData?$CIwind@
CONST	SEGMENT
??_C@_0GC@FMCMFPCN@CPythonPlayer?3?3SetItemData?$CIwind@ DB 'CPythonPlaye'
	DB	'r::SetItemData(window_type : %d, dwSlotIndex=%d, itemIndex=%d'
	DB	') - Failed to item data', 0aH, 00H		; `string'
CONST	ENDS
;	COMDAT ??_C@_0DC@HBNJHHEJ@CPythonPlayer?3?3SetStatus?5?9?5Set?5@
CONST	SEGMENT
??_C@_0DC@HBNJHHEJ@CPythonPlayer?3?3SetStatus?5?9?5Set?5@ DB 'CPythonPlay'
	DB	'er::SetStatus - Set Status Type Error', 0aH, 00H ; `string'
CONST	ENDS
;	COMDAT ??_C@_0DC@LHJHEHHP@CPythonPlayer?3?3GetStatus?5?9?5Get?5@
CONST	SEGMENT
??_C@_0DC@LHJHEHHP@CPythonPlayer?3?3GetStatus?5?9?5Get?5@ DB 'CPythonPlay'
	DB	'er::GetStatus - Get Status Type Error', 0aH, 00H ; `string'
CONST	ENDS
;	COMDAT ??_C@_0BM@OMJPBBKE@BINARY_Guild_EnterGuildArea@
CONST	SEGMENT
??_C@_0BM@OMJPBBKE@BINARY_Guild_EnterGuildArea@ DB 'BINARY_Guild_EnterGui'
	DB	'ldArea', 00H				; `string'
CONST	ENDS
;	COMDAT ??_C@_0BL@KCKDPCFN@BINARY_Guild_ExitGuildArea@
CONST	SEGMENT
??_C@_0BL@KCKDPCFN@BINARY_Guild_ExitGuildArea@ DB 'BINARY_Guild_ExitGuild'
	DB	'Area', 00H					; `string'
CONST	ENDS
;	COMDAT ??_C@_0P@KCGJBOBB@RefreshStamina@
CONST	SEGMENT
??_C@_0P@KCGJBOBB@RefreshStamina@ DB 'RefreshStamina', 00H ; `string'
PUBLIC	?IsValidCell@SItemPos@@QAE_NXZ			; SItemPos::IsValidCell
PUBLIC	?IsBeltInventoryCell@SItemPos@@QAE_NXZ		; SItemPos::IsBeltInventoryCell
PUBLIC	??_ECPythonPlayer@@W3AEPAXI@Z			; [thunk]:CPythonPlayer::`vector deleting destructor'
PUBLIC	?_Get_first@?$_Compressed_pair@V?$allocator@U?$_Tree_node@U?$pair@$$CBKUSPartyMemberInfo@CPythonPlayer@@@std@@PAX@std@@@std@@V?$_Tree_val@U?$_Tree_simple_types@U?$pair@$$CBKUSPartyMemberInfo@CPythonPlayer@@@std@@@std@@@2@$00@std@@QBEABV?$allocator@U?$_Tree_node@U?$pair@$$CBKUSPartyMemberInfo@CPythonPlayer@@@std@@PAX@std@@@2@XZ ; std::_Compressed_pair<std::allocator<std::_Tree_node<std::pair<unsigned long const ,CPythonPlayer::SPartyMemberInfo>,void *> >,std::_Tree_val<std::_Tree_simple_types<std::pair<unsigned long const ,CPythonPlayer::SPartyMemberInfo> > >,1>::_Get_first
PUBLIC	??$?0V?$tuple@ABK@std@@V?$tuple@$$V@1@$0A@$$Z$S@?$pair@$$CBKK@std@@AAE@AAV?$tuple@ABK@1@AAV?$tuple@$$V@1@U?$integer_sequence@I$0A@@1@U?$integer_sequence@I$S@1@@Z ; std::pair<unsigned long const ,unsigned long>::pair<unsigned long const ,unsigned long><std::tuple<unsigned long const &>,std::tuple<>,0>
PUBLIC	??$?0KUSPartyMemberInfo@CPythonPlayer@@$0A@@?$pair@$$CBKUSPartyMemberInfo@CPythonPlayer@@@std@@QAE@$$QAU?$pair@KUSPartyMemberInfo@CPythonPlayer@@@1@@Z ; std::pair<unsigned long const ,CPythonPlayer::SPartyMemberInfo>::pair<unsigned long const ,CPythonPlayer::SPartyMemberInfo><unsigned long,CPythonPlayer::SPartyMemberInfo,0>
PUBLIC	?_Getal@?$_Tree@V?$_Tmap_traits@KUSPartyMemberInfo@CPythonPlayer@@U?$less@K@std@@V?$allocator@U?$pair@$$CBKUSPartyMemberInfo@CPythonPlayer@@@std@@@4@$0A@@std@@@std@@IBEABV?$allocator@U?$_Tree_node@U?$pair@$$CBKUSPartyMemberInfo@CPythonPlayer@@@std@@PAX@std@@@2@XZ ; std::_Tree<std::_Tmap_traits<unsigned long,CPythonPlayer::SPartyMemberInfo,std::less<unsigned long>,std::allocator<std::pair<unsigned long const ,CPythonPlayer::SPartyMemberInfo> >,0> >::_Getal
PUBLIC	?max_size@?$_Default_allocator_traits@V?$allocator@U?$_Tree_node@U?$pair@$$CBKUSPartyMemberInfo@CPythonPlayer@@@std@@PAX@std@@@std@@@std@@SAIABV?$allocator@U?$_Tree_node@U?$pair@$$CBKUSPartyMemberInfo@CPythonPlayer@@@std@@PAX@std@@@2@@Z ; std::_Default_allocator_traits<std::allocator<std::_Tree_node<std::pair<unsigned long const ,CPythonPlayer::SPartyMemberInfo>,void *> > >::max_size
PUBLIC	?_Max@?$_Tree_val@U?$_Tree_simple_types@U?$pair@$$CBKUSPartyMemberInfo@CPythonPlayer@@@std@@@std@@@std@@SAPAU?$_Tree_node@U?$pair@$$CBKUSPartyMemberInfo@CPythonPlayer@@@std@@PAX@2@PAU32@@Z ; std::_Tree_val<std::_Tree_simple_types<std::pair<unsigned long const ,CPythonPlayer::SPartyMemberInfo> > >::_Max
PUBLIC	??0?$_Alloc_construct_ptr@V?$allocator@U?$_Tree_node@U?$pair@$$CBKUSPartyMemberInfo@CPythonPlayer@@@std@@PAX@std@@@std@@@std@@QAE@AAV?$allocator@U?$_Tree_node@U?$pair@$$CBKUSPartyMemberInfo@CPythonPlayer@@@std@@PAX@std@@@1@@Z ; std::_Alloc_construct_ptr<std::allocator<std::_Tree_node<std::pair<unsigned long const ,CPythonPlayer::SPartyMemberInfo>,void *> > >::_Alloc_construct_ptr<std::allocator<std::_Tree_node<std::pair<unsigned long const ,CPythonPlayer::SPartyMemberInfo>,void *> > >
PUBLIC	?_Allocate@?$_Alloc_construct_ptr@V?$allocator@U?$_Tree_node@U?$pair@$$CBKUSPartyMemberInfo@CPythonPlayer@@@std@@PAX@std@@@std@@@std@@QAEXXZ ; std::_Alloc_construct_ptr<std::allocator<std::_Tree_node<std::pair<unsigned long const ,CPythonPlayer::SPartyMemberInfo>,void *> > >::_Allocate
PUBLIC	??$_Get_size_of_n@$0EE@@std@@YAII@Z		; std::_Get_size_of_n<68>
PUBLIC	??$construct_at@PAU?$_Tree_node@U?$pair@$$CBKUSPartyMemberInfo@CPythonPlayer@@@std@@PAX@std@@ABQAU12@@std@@YAPAPAU?$_Tree_node@U?$pair@$$CBKUSPartyMemberInfo@CPythonPlayer@@@std@@PAX@0@QAPAU10@ABQAU10@@Z ; std::construct_at<std::_Tree_node<std::pair<unsigned long const ,CPythonPlayer::SPartyMemberInfo>,void *> *,std::_Tree_node<std::pair<unsigned long const ,CPythonPlayer::SPartyMemberInfo>,void *> * const &>
PUBLIC	??$forward@ABQAU?$_Tree_node@U?$pair@$$CBKUSPartyMemberInfo@CPythonPlayer@@@std@@PAX@std@@@std@@YAABQAU?$_Tree_node@U?$pair@$$CBKUSPartyMemberInfo@CPythonPlayer@@@std@@PAX@0@ABQAU10@@Z ; std::forward<std::_Tree_node<std::pair<unsigned long const ,CPythonPlayer::SPartyMemberInfo>,void *> * const &>
PUBLIC	??$construct_at@PAU?$_Tree_node@U?$pair@$$CBKUSPartyMemberInfo@CPythonPlayer@@@std@@PAX@std@@AAPAU12@@std@@YAPAPAU?$_Tree_node@U?$pair@$$CBKUSPartyMemberInfo@CPythonPlayer@@@std@@PAX@0@QAPAU10@AAPAU10@@Z ; std::construct_at<std::_Tree_node<std::pair<unsigned long const ,CPythonPlayer::SPartyMemberInfo>,void *> *,std::_Tree_node<std::pair<unsigned long const ,CPythonPlayer::SPartyMemberInfo>,void *> * &>
PUBLIC	??$addressof@PAU?$_Tree_node@U?$pair@$$CBKUSPartyMemberInfo@CPythonPlayer@@@std@@PAX@std@@@std@@YAPAPAU?$_Tree_node@U?$pair@$$CBKUSPartyMemberInfo@CPythonPlayer@@@std@@PAX@0@AAPAU10@@Z ; std::addressof<std::_Tree_node<std::pair<unsigned long const ,CPythonPlayer::SPartyMemberInfo>,void *> *>
PUBLIC	??$construct_at@U?$pair@$$CBKUSPartyMemberInfo@CPythonPlayer@@@std@@U?$pair@KUSPartyMemberInfo@CPythonPlayer@@@2@@std@@YAPAU?$pair@$$CBKUSPartyMemberInfo@CPythonPlayer@@@0@QAU10@$$QAU?$pair@KUSPartyMemberInfo@CPythonPlayer@@@0@@Z ; std::construct_at<std::pair<unsigned long const ,CPythonPlayer::SPartyMemberInfo>,std::pair<unsigned long,CPythonPlayer::SPartyMemberInfo> >
PUBLIC	??$?0ABK$$Z$$V@?$pair@$$CBKK@std@@QAE@Upiecewise_construct_t@1@V?$tuple@ABK@1@V?$tuple@$$V@1@@Z ; std::pair<unsigned long const ,unsigned long>::pair<unsigned long const ,unsigned long><unsigned long const &>
PUBLIC	??_G?$pair@$$CBKUSPartyMemberInfo@CPythonPlayer@@@std@@QAEPAXI@Z ; std::pair<unsigned long const ,CPythonPlayer::SPartyMemberInfo>::`scalar deleting destructor'
PUBLIC	?max_size@?$_Tree@V?$_Tmap_traits@KUSPartyMemberInfo@CPythonPlayer@@U?$less@K@std@@V?$allocator@U?$pair@$$CBKUSPartyMemberInfo@CPythonPlayer@@@std@@@4@$0A@@std@@@std@@QBEIXZ ; std::_Tree<std::_Tmap_traits<unsigned long,CPythonPlayer::SPartyMemberInfo,std::less<unsigned long>,std::allocator<std::pair<unsigned long const ,CPythonPlayer::SPartyMemberInfo> >,0> >::max_size
PUBLIC	??0?$allocator@U?$_Tree_node@U?$pair@$$CBKUSPartyMemberInfo@CPythonPlayer@@@std@@PAX@std@@@std@@QAE@XZ ; std::allocator<std::_Tree_node<std::pair<unsigned long const ,CPythonPlayer::SPartyMemberInfo>,void *> >::allocator<std::_Tree_node<std::pair<unsigned long const ,CPythonPlayer::SPartyMemberInfo>,void *> >
PUBLIC	?deallocate@?$allocator@U?$_Tree_node@U?$pair@$$CBKUSPartyMemberInfo@CPythonPlayer@@@std@@PAX@std@@@std@@QAEXQAU?$_Tree_node@U?$pair@$$CBKUSPartyMemberInfo@CPythonPlayer@@@std@@PAX@2@I@Z ; std::allocator<std::_Tree_node<std::pair<unsigned long const ,CPythonPlayer::SPartyMemberInfo>,void *> >::deallocate
PUBLIC	?allocate@?$allocator@U?$_Tree_node@U?$pair@$$CBKUSPartyMemberInfo@CPythonPlayer@@@std@@PAX@std@@@std@@QAEPAU?$_Tree_node@U?$pair@$$CBKUSPartyMemberInfo@CPythonPlayer@@@std@@PAX@2@I@Z ; std::allocator<std::_Tree_node<std::pair<unsigned long const ,CPythonPlayer::SPartyMemberInfo>,void *> >::allocate
PUBLIC	??0?$_Tree_val@U?$_Tree_simple_types@U?$pair@$$CBKUSPartyMemberInfo@CPythonPlayer@@@std@@@std@@@std@@QAE@XZ ; std::_Tree_val<std::_Tree_simple_types<std::pair<unsigned long const ,CPythonPlayer::SPartyMemberInfo> > >::_Tree_val<std::_Tree_simple_types<std::pair<unsigned long const ,CPythonPlayer::SPartyMemberInfo> > >
PUBLIC	?_Lrotate@?$_Tree_val@U?$_Tree_simple_types@U?$pair@$$CBKUSPartyMemberInfo@CPythonPlayer@@@std@@@std@@@std@@QAEXPAU?$_Tree_node@U?$pair@$$CBKUSPartyMemberInfo@CPythonPlayer@@@std@@PAX@2@@Z ; std::_Tree_val<std::_Tree_simple_types<std::pair<unsigned long const ,CPythonPlayer::SPartyMemberInfo> > >::_Lrotate
PUBLIC	?_Rrotate@?$_Tree_val@U?$_Tree_simple_types@U?$pair@$$CBKUSPartyMemberInfo@CPythonPlayer@@@std@@@std@@@std@@QAEXPAU?$_Tree_node@U?$pair@$$CBKUSPartyMemberInfo@CPythonPlayer@@@std@@PAX@2@@Z ; std::_Tree_val<std::_Tree_simple_types<std::pair<unsigned long const ,CPythonPlayer::SPartyMemberInfo> > >::_Rrotate
PUBLIC	?_Extract@?$_Tree_val@U?$_Tree_simple_types@U?$pair@$$CBKUSPartyMemberInfo@CPythonPlayer@@@std@@@std@@@std@@QAEPAU?$_Tree_node@U?$pair@$$CBKUSPartyMemberInfo@CPythonPlayer@@@std@@PAX@2@V?$_Tree_unchecked_const_iterator@V?$_Tree_val@U?$_Tree_simple_types@U?$pair@$$CBKUSPartyMemberInfo@CPythonPlayer@@@std@@@std@@@std@@U_Iterator_base0@2@@2@@Z ; std::_Tree_val<std::_Tree_simple_types<std::pair<unsigned long const ,CPythonPlayer::SPartyMemberInfo> > >::_Extract
PUBLIC	??0?$_Tree_temp_node_alloc@V?$allocator@U?$_Tree_node@U?$pair@$$CBKUSPartyMemberInfo@CPythonPlayer@@@std@@PAX@std@@@std@@@std@@QAE@AAV?$allocator@U?$_Tree_node@U?$pair@$$CBKUSPartyMemberInfo@CPythonPlayer@@@std@@PAX@std@@@1@@Z ; std::_Tree_temp_node_alloc<std::allocator<std::_Tree_node<std::pair<unsigned long const ,CPythonPlayer::SPartyMemberInfo>,void *> > >::_Tree_temp_node_alloc<std::allocator<std::_Tree_node<std::pair<unsigned long const ,CPythonPlayer::SPartyMemberInfo>,void *> > >
PUBLIC	??1?$_Alloc_construct_ptr@V?$allocator@U?$_Tree_node@U?$pair@$$CBKUSPartyMemberInfo@CPythonPlayer@@@std@@PAX@std@@@std@@@std@@QAE@XZ ; std::_Alloc_construct_ptr<std::allocator<std::_Tree_node<std::pair<unsigned long const ,CPythonPlayer::SPartyMemberInfo>,void *> > >::~_Alloc_construct_ptr<std::allocator<std::_Tree_node<std::pair<unsigned long const ,CPythonPlayer::SPartyMemberInfo>,void *> > >
PUBLIC	??$exchange@PAU?$_Tree_node@U?$pair@$$CBKUSPartyMemberInfo@CPythonPlayer@@@std@@PAX@std@@$$T@std@@YAPAU?$_Tree_node@U?$pair@$$CBKUSPartyMemberInfo@CPythonPlayer@@@std@@PAX@0@AAPAU10@$$QA$$T@Z ; std::exchange<std::_Tree_node<std::pair<unsigned long const ,CPythonPlayer::SPartyMemberInfo>,void *> *,std::nullptr_t>
PUBLIC	??$_Construct_in_place@PAU?$_Tree_node@U?$pair@$$CBKUSPartyMemberInfo@CPythonPlayer@@@std@@PAX@std@@ABQAU12@@std@@YAXAAPAU?$_Tree_node@U?$pair@$$CBKUSPartyMemberInfo@CPythonPlayer@@@std@@PAX@0@ABQAU10@@Z ; std::_Construct_in_place<std::_Tree_node<std::pair<unsigned long const ,CPythonPlayer::SPartyMemberInfo>,void *> *,std::_Tree_node<std::pair<unsigned long const ,CPythonPlayer::SPartyMemberInfo>,void *> * const &>
PUBLIC	??$construct_at@U?$pair@$$CBKK@std@@ABUpiecewise_construct_t@2@V?$tuple@ABK@2@V?$tuple@$$V@2@@std@@YAPAU?$pair@$$CBKK@0@QAU10@ABUpiecewise_construct_t@0@$$QAV?$tuple@ABK@0@$$QAV?$tuple@$$V@0@@Z ; std::construct_at<std::pair<unsigned long const ,unsigned long>,std::piecewise_construct_t const &,std::tuple<unsigned long const &>,std::tuple<> >
PUBLIC	??1?$pair@$$CBKUSPartyMemberInfo@CPythonPlayer@@@std@@QAE@XZ ; std::pair<unsigned long const ,CPythonPlayer::SPartyMemberInfo>::~pair<unsigned long const ,CPythonPlayer::SPartyMemberInfo>
PUBLIC	??$destroy_at@U?$pair@$$CBKUSPartyMemberInfo@CPythonPlayer@@@std@@@std@@YAXQAU?$pair@$$CBKUSPartyMemberInfo@CPythonPlayer@@@0@@Z ; std::destroy_at<std::pair<unsigned long const ,CPythonPlayer::SPartyMemberInfo> >
PUBLIC	??$forward@PAU?$_Tree_node@U?$pair@$$CBKUSPartyMemberInfo@CPythonPlayer@@@std@@PAX@std@@@std@@YA$$QAPAU?$_Tree_node@U?$pair@$$CBKUSPartyMemberInfo@CPythonPlayer@@@std@@PAX@0@AAPAU10@@Z ; std::forward<std::_Tree_node<std::pair<unsigned long const ,CPythonPlayer::SPartyMemberInfo>,void *> *>
PUBLIC	??$_Construct_in_place@PAU?$_Tree_node@U?$pair@$$CBKUSPartyMemberInfo@CPythonPlayer@@@std@@PAX@std@@AAPAU12@@std@@YAXAAPAU?$_Tree_node@U?$pair@$$CBKUSPartyMemberInfo@CPythonPlayer@@@std@@PAX@0@0@Z ; std::_Construct_in_place<std::_Tree_node<std::pair<unsigned long const ,CPythonPlayer::SPartyMemberInfo>,void *> *,std::_Tree_node<std::pair<unsigned long const ,CPythonPlayer::SPartyMemberInfo>,void *> * &>
PUBLIC	??$construct@U?$pair@$$CBKUSPartyMemberInfo@CPythonPlayer@@@std@@U?$pair@KUSPartyMemberInfo@CPythonPlayer@@@2@@?$_Default_allocator_traits@V?$allocator@U?$_Tree_node@U?$pair@$$CBKUSPartyMemberInfo@CPythonPlayer@@@std@@PAX@std@@@std@@@std@@SAXAAV?$allocator@U?$_Tree_node@U?$pair@$$CBKUSPartyMemberInfo@CPythonPlayer@@@std@@PAX@std@@@1@QAU?$pair@$$CBKUSPartyMemberInfo@CPythonPlayer@@@1@$$QAU?$pair@KUSPartyMemberInfo@CPythonPlayer@@@1@@Z ; std::_Default_allocator_traits<std::allocator<std::_Tree_node<std::pair<unsigned long const ,CPythonPlayer::SPartyMemberInfo>,void *> > >::construct<std::pair<unsigned long const ,CPythonPlayer::SPartyMemberInfo>,std::pair<unsigned long,CPythonPlayer::SPartyMemberInfo> >
PUBLIC	??0?$_Tree_unchecked_iterator@V?$_Tree_val@U?$_Tree_simple_types@U?$pair@$$CBKUSPartyMemberInfo@CPythonPlayer@@@std@@@std@@@std@@@std@@QAE@PAU?$_Tree_node@U?$pair@$$CBKUSPartyMemberInfo@CPythonPlayer@@@std@@PAX@1@PBV?$_Tree_val@U?$_Tree_simple_types@U?$pair@$$CBKUSPartyMemberInfo@CPythonPlayer@@@std@@@std@@@1@@Z ; std::_Tree_unchecked_iterator<std::_Tree_val<std::_Tree_simple_types<std::pair<unsigned long const ,CPythonPlayer::SPartyMemberInfo> > > >::_Tree_unchecked_iterator<std::_Tree_val<std::_Tree_simple_types<std::pair<unsigned long const ,CPythonPlayer::SPartyMemberInfo> > > >
PUBLIC	??1?$_Tree_temp_node_alloc@V?$allocator@U?$_Tree_node@U?$pair@$$CBKUSPartyMemberInfo@CPythonPlayer@@@std@@PAX@std@@@std@@@std@@QAE@XZ ; std::_Tree_temp_node_alloc<std::allocator<std::_Tree_node<std::pair<unsigned long const ,CPythonPlayer::SPartyMemberInfo>,void *> > >::~_Tree_temp_node_alloc<std::allocator<std::_Tree_node<std::pair<unsigned long const ,CPythonPlayer::SPartyMemberInfo>,void *> > >
PUBLIC	?_Unchecked_begin@?$_Tree@V?$_Tmap_traits@KUSPartyMemberInfo@CPythonPlayer@@U?$less@K@std@@V?$allocator@U?$pair@$$CBKUSPartyMemberInfo@CPythonPlayer@@@std@@@4@$0A@@std@@@std@@QAE?AV?$_Tree_unchecked_iterator@V?$_Tree_val@U?$_Tree_simple_types@U?$pair@$$CBKUSPartyMemberInfo@CPythonPlayer@@@std@@@std@@@std@@@2@XZ ; std::_Tree<std::_Tmap_traits<unsigned long,CPythonPlayer::SPartyMemberInfo,std::less<unsigned long>,std::allocator<std::pair<unsigned long const ,CPythonPlayer::SPartyMemberInfo> >,0> >::_Unchecked_begin
PUBLIC	?_Erase_unchecked@?$_Tree@V?$_Tmap_traits@KUSPartyMemberInfo@CPythonPlayer@@U?$less@K@std@@V?$allocator@U?$pair@$$CBKUSPartyMemberInfo@CPythonPlayer@@@std@@@4@$0A@@std@@@std@@AAEPAU?$_Tree_node@U?$pair@$$CBKUSPartyMemberInfo@CPythonPlayer@@@std@@PAX@2@V?$_Tree_unchecked_const_iterator@V?$_Tree_val@U?$_Tree_simple_types@U?$pair@$$CBKUSPartyMemberInfo@CPythonPlayer@@@std@@@std@@@std@@U_Iterator_base0@2@@2@@Z ; std::_Tree<std::_Tmap_traits<unsigned long,CPythonPlayer::SPartyMemberInfo,std::less<unsigned long>,std::allocator<std::pair<unsigned long const ,CPythonPlayer::SPartyMemberInfo> >,0> >::_Erase_unchecked
PUBLIC	?_Check_grow_by_1@?$_Tree@V?$_Tmap_traits@KUSPartyMemberInfo@CPythonPlayer@@U?$less@K@std@@V?$allocator@U?$pair@$$CBKUSPartyMemberInfo@CPythonPlayer@@@std@@@4@$0A@@std@@@std@@IAEXXZ ; std::_Tree<std::_Tmap_traits<unsigned long,CPythonPlayer::SPartyMemberInfo,std::less<unsigned long>,std::allocator<std::pair<unsigned long const ,CPythonPlayer::SPartyMemberInfo> >,0> >::_Check_grow_by_1
PUBLIC	?deallocate@?$_Default_allocator_traits@V?$allocator@U?$_Tree_node@U?$pair@$$CBKUSPartyMemberInfo@CPythonPlayer@@@std@@PAX@std@@@std@@@std@@SAXAAV?$allocator@U?$_Tree_node@U?$pair@$$CBKUSPartyMemberInfo@CPythonPlayer@@@std@@PAX@std@@@2@QAU?$_Tree_node@U?$pair@$$CBKUSPartyMemberInfo@CPythonPlayer@@@std@@PAX@2@I@Z ; std::_Default_allocator_traits<std::allocator<std::_Tree_node<std::pair<unsigned long const ,CPythonPlayer::SPartyMemberInfo>,void *> > >::deallocate
PUBLIC	?_Min@?$_Tree_val@U?$_Tree_simple_types@U?$pair@$$CBKUSPartyMemberInfo@CPythonPlayer@@@std@@@std@@@std@@SAPAU?$_Tree_node@U?$pair@$$CBKUSPartyMemberInfo@CPythonPlayer@@@std@@PAX@2@PAU32@@Z ; std::_Tree_val<std::_Tree_simple_types<std::pair<unsigned long const ,CPythonPlayer::SPartyMemberInfo> > >::_Min
PUBLIC	?_Insert_node@?$_Tree_val@U?$_Tree_simple_types@U?$pair@$$CBKUSPartyMemberInfo@CPythonPlayer@@@std@@@std@@@std@@QAEPAU?$_Tree_node@U?$pair@$$CBKUSPartyMemberInfo@CPythonPlayer@@@std@@PAX@2@U?$_Tree_id@PAU?$_Tree_node@U?$pair@$$CBKUSPartyMemberInfo@CPythonPlayer@@@std@@PAX@std@@@2@QAU32@@Z ; std::_Tree_val<std::_Tree_simple_types<std::pair<unsigned long const ,CPythonPlayer::SPartyMemberInfo> > >::_Insert_node
PUBLIC	??E?$_Tree_unchecked_const_iterator@V?$_Tree_val@U?$_Tree_simple_types@U?$pair@$$CBKUSPartyMemberInfo@CPythonPlayer@@@std@@@std@@@std@@U_Iterator_base0@2@@std@@QAE?AV01@H@Z ; std::_Tree_unchecked_const_iterator<std::_Tree_val<std::_Tree_simple_types<std::pair<unsigned long const ,CPythonPlayer::SPartyMemberInfo> > >,std::_Iterator_base0>::operator++
PUBLIC	??8?$_Tree_unchecked_const_iterator@V?$_Tree_val@U?$_Tree_simple_types@U?$pair@$$CBKUSPartyMemberInfo@CPythonPlayer@@@std@@@std@@@std@@U_Iterator_base0@2@@std@@QBE_NABV01@@Z ; std::_Tree_unchecked_const_iterator<std::_Tree_val<std::_Tree_simple_types<std::pair<unsigned long const ,CPythonPlayer::SPartyMemberInfo> > >,std::_Iterator_base0>::operator==
PUBLIC	?_Get_first@?$_Compressed_pair@U?$less@K@std@@V?$_Compressed_pair@V?$allocator@U?$_Tree_node@U?$pair@$$CBKUSPartyMemberInfo@CPythonPlayer@@@std@@PAX@std@@@std@@V?$_Tree_val@U?$_Tree_simple_types@U?$pair@$$CBKUSPartyMemberInfo@CPythonPlayer@@@std@@@std@@@2@$00@2@$00@std@@QBEABU?$less@K@2@XZ ; std::_Compressed_pair<std::less<unsigned long>,std::_Compressed_pair<std::allocator<std::_Tree_node<std::pair<unsigned long const ,CPythonPlayer::SPartyMemberInfo>,void *> >,std::_Tree_val<std::_Tree_simple_types<std::pair<unsigned long const ,CPythonPlayer::SPartyMemberInfo> > >,1>,1>::_Get_first
PUBLIC	?_Extract@?$_In_place_key_extract_map_impl@KU?$pair@KUSPartyMemberInfo@CPythonPlayer@@@std@@@std@@SAABKABU?$pair@KUSPartyMemberInfo@CPythonPlayer@@@2@@Z ; std::_In_place_key_extract_map_impl<unsigned long,std::pair<unsigned long,CPythonPlayer::SPartyMemberInfo> >::_Extract
PUBLIC	??1?$_Tree_temp_node@V?$allocator@U?$_Tree_node@U?$pair@$$CBKUSPartyMemberInfo@CPythonPlayer@@@std@@PAX@std@@@std@@@std@@QAE@XZ ; std::_Tree_temp_node<std::allocator<std::_Tree_node<std::pair<unsigned long const ,CPythonPlayer::SPartyMemberInfo>,void *> > >::~_Tree_temp_node<std::allocator<std::_Tree_node<std::pair<unsigned long const ,CPythonPlayer::SPartyMemberInfo>,void *> > >
PUBLIC	?_Release@?$_Alloc_construct_ptr@V?$allocator@U?$_Tree_node@U?$pair@$$CBKUSPartyMemberInfo@CPythonPlayer@@@std@@PAX@std@@@std@@@std@@QAEPAU?$_Tree_node@U?$pair@$$CBKUSPartyMemberInfo@CPythonPlayer@@@std@@PAX@2@XZ ; std::_Alloc_construct_ptr<std::allocator<std::_Tree_node<std::pair<unsigned long const ,CPythonPlayer::SPartyMemberInfo>,void *> > >::_Release
PUBLIC	??$_Buyheadnode@V?$allocator@U?$_Tree_node@U?$pair@$$CBKUSPartyMemberInfo@CPythonPlayer@@@std@@PAX@std@@@std@@@?$_Tree_node@U?$pair@$$CBKUSPartyMemberInfo@CPythonPlayer@@@std@@PAX@std@@SAPAU01@AAV?$allocator@U?$_Tree_node@U?$pair@$$CBKUSPartyMemberInfo@CPythonPlayer@@@std@@PAX@std@@@1@@Z ; std::_Tree_node<std::pair<unsigned long const ,CPythonPlayer::SPartyMemberInfo>,void *>::_Buyheadnode<std::allocator<std::_Tree_node<std::pair<unsigned long const ,CPythonPlayer::SPartyMemberInfo>,void *> > >
PUBLIC	??$addressof@$$CBV?$_Tree_val@U?$_Tree_simple_types@U?$pair@$$CBKUSPartyMemberInfo@CPythonPlayer@@@std@@@std@@@std@@@std@@YAPBV?$_Tree_val@U?$_Tree_simple_types@U?$pair@$$CBKUSPartyMemberInfo@CPythonPlayer@@@std@@@std@@@0@ABV10@@Z ; std::addressof<std::_Tree_val<std::_Tree_simple_types<std::pair<unsigned long const ,CPythonPlayer::SPartyMemberInfo> > > const >
PUBLIC	??$_Adl_verify_range@V?$_Tree_unchecked_const_iterator@V?$_Tree_val@U?$_Tree_simple_types@U?$pair@$$CBKUSPartyMemberInfo@CPythonPlayer@@@std@@@std@@@std@@U_Iterator_base0@2@@std@@V12@@std@@YAXABV?$_Tree_unchecked_const_iterator@V?$_Tree_val@U?$_Tree_simple_types@U?$pair@$$CBKUSPartyMemberInfo@CPythonPlayer@@@std@@@std@@@std@@U_Iterator_base0@2@@0@0@Z ; std::_Adl_verify_range<std::_Tree_unchecked_const_iterator<std::_Tree_val<std::_Tree_simple_types<std::pair<unsigned long const ,CPythonPlayer::SPartyMemberInfo> > >,std::_Iterator_base0>,std::_Tree_unchecked_const_iterator<std::_Tree_val<std::_Tree_simple_types<std::pair<unsigned long const ,CPythonPlayer::SPartyMemberInfo> > >,std::_Iterator_base0> >
PUBLIC	??$construct@U?$pair@$$CBKK@std@@ABUpiecewise_construct_t@2@V?$tuple@ABK@2@V?$tuple@$$V@2@@?$_Default_allocator_traits@V?$allocator@U?$_Tree_node@U?$pair@$$CBKK@std@@PAX@std@@@std@@@std@@SAXAAV?$allocator@U?$_Tree_node@U?$pair@$$CBKK@std@@PAX@std@@@1@QAU?$pair@$$CBKK@1@ABUpiecewise_construct_t@1@$$QAV?$tuple@ABK@1@$$QAV?$tuple@$$V@1@@Z ; std::_Default_allocator_traits<std::allocator<std::_Tree_node<std::pair<unsigned long const ,unsigned long>,void *> > >::construct<std::pair<unsigned long const ,unsigned long>,std::piecewise_construct_t const &,std::tuple<unsigned long const &>,std::tuple<> >
PUBLIC	??$_Destroy_in_place@PAU?$_Tree_node@U?$pair@$$CBKUSPartyMemberInfo@CPythonPlayer@@@std@@PAX@std@@@std@@YAXAAPAU?$_Tree_node@U?$pair@$$CBKUSPartyMemberInfo@CPythonPlayer@@@std@@PAX@0@@Z ; std::_Destroy_in_place<std::_Tree_node<std::pair<unsigned long const ,CPythonPlayer::SPartyMemberInfo>,void *> *>
PUBLIC	??$destroy@U?$pair@$$CBKUSPartyMemberInfo@CPythonPlayer@@@std@@@?$_Default_allocator_traits@V?$allocator@U?$_Tree_node@U?$pair@$$CBKUSPartyMemberInfo@CPythonPlayer@@@std@@PAX@std@@@std@@@std@@SAXAAV?$allocator@U?$_Tree_node@U?$pair@$$CBKUSPartyMemberInfo@CPythonPlayer@@@std@@PAX@std@@@1@QAU?$pair@$$CBKUSPartyMemberInfo@CPythonPlayer@@@1@@Z ; std::_Default_allocator_traits<std::allocator<std::_Tree_node<std::pair<unsigned long const ,CPythonPlayer::SPartyMemberInfo>,void *> > >::destroy<std::pair<unsigned long const ,CPythonPlayer::SPartyMemberInfo> >
PUBLIC	??$forward@V?$_Tree_iterator@V?$_Tree_val@U?$_Tree_simple_types@U?$pair@$$CBKUSPartyMemberInfo@CPythonPlayer@@@std@@@std@@@std@@@std@@@std@@YA$$QAV?$_Tree_iterator@V?$_Tree_val@U?$_Tree_simple_types@U?$pair@$$CBKUSPartyMemberInfo@CPythonPlayer@@@std@@@std@@@std@@@0@AAV10@@Z ; std::forward<std::_Tree_iterator<std::_Tree_val<std::_Tree_simple_types<std::pair<unsigned long const ,CPythonPlayer::SPartyMemberInfo> > > > >
PUBLIC	??$?0PAU?$_Tree_node@U?$pair@$$CBKUSPartyMemberInfo@CPythonPlayer@@@std@@PAX@std@@_N$0A@@?$pair@PAU?$_Tree_node@U?$pair@$$CBKUSPartyMemberInfo@CPythonPlayer@@@std@@PAX@std@@_N@std@@QAE@$$QAPAU?$_Tree_node@U?$pair@$$CBKUSPartyMemberInfo@CPythonPlayer@@@std@@PAX@1@$$QA_N@Z ; std::pair<std::_Tree_node<std::pair<unsigned long const ,CPythonPlayer::SPartyMemberInfo>,void *> *,bool>::pair<std::_Tree_node<std::pair<unsigned long const ,CPythonPlayer::SPartyMemberInfo>,void *> *,bool><std::_Tree_node<std::pair<unsigned long const ,CPythonPlayer::SPartyMemberInfo>,void *> *,bool,0>
PUBLIC	??$?0AAPAU?$_Tree_node@U?$pair@$$CBKUSPartyMemberInfo@CPythonPlayer@@@std@@PAX@std@@_N$0A@@?$pair@PAU?$_Tree_node@U?$pair@$$CBKUSPartyMemberInfo@CPythonPlayer@@@std@@PAX@std@@_N@std@@QAE@AAPAU?$_Tree_node@U?$pair@$$CBKUSPartyMemberInfo@CPythonPlayer@@@std@@PAX@1@$$QA_N@Z ; std::pair<std::_Tree_node<std::pair<unsigned long const ,CPythonPlayer::SPartyMemberInfo>,void *> *,bool>::pair<std::_Tree_node<std::pair<unsigned long const ,CPythonPlayer::SPartyMemberInfo>,void *> *,bool><std::_Tree_node<std::pair<unsigned long const ,CPythonPlayer::SPartyMemberInfo>,void *> * &,bool,0>
PUBLIC	??$?0U?$pair@KUSPartyMemberInfo@CPythonPlayer@@@std@@@?$_Tree_temp_node@V?$allocator@U?$_Tree_node@U?$pair@$$CBKUSPartyMemberInfo@CPythonPlayer@@@std@@PAX@std@@@std@@@std@@QAE@AAV?$allocator@U?$_Tree_node@U?$pair@$$CBKUSPartyMemberInfo@CPythonPlayer@@@std@@PAX@std@@@1@PAU?$_Tree_node@U?$pair@$$CBKUSPartyMemberInfo@CPythonPlayer@@@std@@PAX@1@$$QAU?$pair@KUSPartyMemberInfo@CPythonPlayer@@@1@@Z ; std::_Tree_temp_node<std::allocator<std::_Tree_node<std::pair<unsigned long const ,CPythonPlayer::SPartyMemberInfo>,void *> > >::_Tree_temp_node<std::allocator<std::_Tree_node<std::pair<unsigned long const ,CPythonPlayer::SPartyMemberInfo>,void *> > ><std::pair<unsigned long,CPythonPlayer::SPartyMemberInfo> >
PUBLIC	??$forward@AAPAU?$_Tree_node@U?$pair@$$CBKUSPartyMemberInfo@CPythonPlayer@@@std@@PAX@std@@@std@@YAAAPAU?$_Tree_node@U?$pair@$$CBKUSPartyMemberInfo@CPythonPlayer@@@std@@PAX@0@AAPAU10@@Z ; std::forward<std::_Tree_node<std::pair<unsigned long const ,CPythonPlayer::SPartyMemberInfo>,void *> * &>
PUBLIC	??$?0$$V@?$_Compressed_pair@V?$allocator@U?$_Tree_node@U?$pair@$$CBKUSPartyMemberInfo@CPythonPlayer@@@std@@PAX@std@@@std@@V?$_Tree_val@U?$_Tree_simple_types@U?$pair@$$CBKUSPartyMemberInfo@CPythonPlayer@@@std@@@std@@@2@$00@std@@QAE@U_Zero_then_variadic_args_t@1@@Z ; std::_Compressed_pair<std::allocator<std::_Tree_node<std::pair<unsigned long const ,CPythonPlayer::SPartyMemberInfo>,void *> >,std::_Tree_val<std::_Tree_simple_types<std::pair<unsigned long const ,CPythonPlayer::SPartyMemberInfo> > >,1>::_Compressed_pair<std::allocator<std::_Tree_node<std::pair<unsigned long const ,CPythonPlayer::SPartyMemberInfo>,void *> >,std::_Tree_val<std::_Tree_simple_types<std::pair<unsigned long const ,CPythonPlayer::SPartyMemberInfo> > >,1><>
PUBLIC	?_Erase_unchecked@?$_Tree@V?$_Tmap_traits@KUSPartyMemberInfo@CPythonPlayer@@U?$less@K@std@@V?$allocator@U?$pair@$$CBKUSPartyMemberInfo@CPythonPlayer@@@std@@@4@$0A@@std@@@std@@AAEPAU?$_Tree_node@U?$pair@$$CBKUSPartyMemberInfo@CPythonPlayer@@@std@@PAX@2@V?$_Tree_unchecked_const_iterator@V?$_Tree_val@U?$_Tree_simple_types@U?$pair@$$CBKUSPartyMemberInfo@CPythonPlayer@@@std@@@std@@@std@@U_Iterator_base0@2@@2@0@Z ; std::_Tree<std::_Tmap_traits<unsigned long,CPythonPlayer::SPartyMemberInfo,std::less<unsigned long>,std::allocator<std::pair<unsigned long const ,CPythonPlayer::SPartyMemberInfo> >,0> >::_Erase_unchecked
PUBLIC	?_Alloc_sentinel_and_proxy@?$_Tree@V?$_Tmap_traits@KUSPartyMemberInfo@CPythonPlayer@@U?$less@K@std@@V?$allocator@U?$pair@$$CBKUSPartyMemberInfo@CPythonPlayer@@@std@@@4@$0A@@std@@@std@@IAEXXZ ; std::_Tree<std::_Tmap_traits<unsigned long,CPythonPlayer::SPartyMemberInfo,std::less<unsigned long>,std::allocator<std::pair<unsigned long const ,CPythonPlayer::SPartyMemberInfo> >,0> >::_Alloc_sentinel_and_proxy
PUBLIC	?_Getcomp@?$_Tree@V?$_Tmap_traits@KUSPartyMemberInfo@CPythonPlayer@@U?$less@K@std@@V?$allocator@U?$pair@$$CBKUSPartyMemberInfo@CPythonPlayer@@@std@@@4@$0A@@std@@@std@@IBEABU?$less@K@2@XZ ; std::_Tree<std::_Tmap_traits<unsigned long,CPythonPlayer::SPartyMemberInfo,std::less<unsigned long>,std::allocator<std::pair<unsigned long const ,CPythonPlayer::SPartyMemberInfo> >,0> >::_Getcomp
PUBLIC	?_Get_scary@?$_Tree@V?$_Tmap_traits@KUSPartyMemberInfo@CPythonPlayer@@U?$less@K@std@@V?$allocator@U?$pair@$$CBKUSPartyMemberInfo@CPythonPlayer@@@std@@@4@$0A@@std@@@std@@IBEPBV?$_Tree_val@U?$_Tree_simple_types@U?$pair@$$CBKUSPartyMemberInfo@CPythonPlayer@@@std@@@std@@@2@XZ ; std::_Tree<std::_Tmap_traits<unsigned long,CPythonPlayer::SPartyMemberInfo,std::less<unsigned long>,std::allocator<std::pair<unsigned long const ,CPythonPlayer::SPartyMemberInfo> >,0> >::_Get_scary
PUBLIC	??D?$_Tree_const_iterator@V?$_Tree_val@U?$_Tree_simple_types@U?$pair@$$CBKUSPartyMemberInfo@CPythonPlayer@@@std@@@std@@@std@@@std@@QBEABU?$pair@$$CBKUSPartyMemberInfo@CPythonPlayer@@@1@XZ ; std::_Tree_const_iterator<std::_Tree_val<std::_Tree_simple_types<std::pair<unsigned long const ,CPythonPlayer::SPartyMemberInfo> > > >::operator*
PUBLIC	??E?$_Tree_unchecked_const_iterator@V?$_Tree_val@U?$_Tree_simple_types@U?$pair@$$CBKUSPartyMemberInfo@CPythonPlayer@@@std@@@std@@@std@@U_Iterator_base0@2@@std@@QAEAAV01@XZ ; std::_Tree_unchecked_const_iterator<std::_Tree_val<std::_Tree_simple_types<std::pair<unsigned long const ,CPythonPlayer::SPartyMemberInfo> > >,std::_Iterator_base0>::operator++
PUBLIC	?_Get_first@?$_Compressed_pair@V?$allocator@U?$_Tree_node@U?$pair@$$CBKUSPartyMemberInfo@CPythonPlayer@@@std@@PAX@std@@@std@@V?$_Tree_val@U?$_Tree_simple_types@U?$pair@$$CBKUSPartyMemberInfo@CPythonPlayer@@@std@@@std@@@2@$00@std@@QAEAAV?$allocator@U?$_Tree_node@U?$pair@$$CBKUSPartyMemberInfo@CPythonPlayer@@@std@@PAX@std@@@2@XZ ; std::_Compressed_pair<std::allocator<std::_Tree_node<std::pair<unsigned long const ,CPythonPlayer::SPartyMemberInfo>,void *> >,std::_Tree_val<std::_Tree_simple_types<std::pair<unsigned long const ,CPythonPlayer::SPartyMemberInfo> > >,1>::_Get_first
PUBLIC	??$?0ABU?$less@K@std@@U_Zero_then_variadic_args_t@1@@?$_Compressed_pair@U?$less@K@std@@V?$_Compressed_pair@V?$allocator@U?$_Tree_node@U?$pair@$$CBKUSPartyMemberInfo@CPythonPlayer@@@std@@PAX@std@@@std@@V?$_Tree_val@U?$_Tree_simple_types@U?$pair@$$CBKUSPartyMemberInfo@CPythonPlayer@@@std@@@std@@@2@$00@2@$00@std@@QAE@U_One_then_variadic_args_t@1@ABU?$less@K@1@$$QAU_Zero_then_variadic_args_t@1@@Z ; std::_Compressed_pair<std::less<unsigned long>,std::_Compressed_pair<std::allocator<std::_Tree_node<std::pair<unsigned long const ,CPythonPlayer::SPartyMemberInfo>,void *> >,std::_Tree_val<std::_Tree_simple_types<std::pair<unsigned long const ,CPythonPlayer::SPartyMemberInfo> > >,1>,1>::_Compressed_pair<std::less<unsigned long>,std::_Compressed_pair<std::allocator<std::_Tree_node<std::pair<unsigned long const ,CPythonPlayer::SPartyMemberInfo>,void *> >,std::_Tree_val<std::_Tree_simple_types<std::pair<unsigned long const ,CPythonPlayer::SPartyMemberInfo> > >,1>,1><std::less<unsigned long> const &,std::_Zero_then_variadic_args_t>
PUBLIC	??$_Get_unwrapped@AAV?$_Tree_unchecked_const_iterator@V?$_Tree_val@U?$_Tree_simple_types@U?$pair@$$CBKUSPartyMemberInfo@CPythonPlayer@@@std@@@std@@@std@@U_Iterator_base0@2@@std@@@std@@YA?A_TAAV?$_Tree_unchecked_const_iterator@V?$_Tree_val@U?$_Tree_simple_types@U?$pair@$$CBKUSPartyMemberInfo@CPythonPlayer@@@std@@@std@@@std@@U_Iterator_base0@2@@0@@Z ; std::_Get_unwrapped<std::_Tree_unchecked_const_iterator<std::_Tree_val<std::_Tree_simple_types<std::pair<unsigned long const ,CPythonPlayer::SPartyMemberInfo> > >,std::_Iterator_base0> &>
PUBLIC	??$distance@V?$_Tree_unchecked_const_iterator@V?$_Tree_val@U?$_Tree_simple_types@U?$pair@$$CBKUSPartyMemberInfo@CPythonPlayer@@@std@@@std@@@std@@U_Iterator_base0@2@@std@@@std@@YAHV?$_Tree_unchecked_const_iterator@V?$_Tree_val@U?$_Tree_simple_types@U?$pair@$$CBKUSPartyMemberInfo@CPythonPlayer@@@std@@@std@@@std@@U_Iterator_base0@2@@0@0@Z ; std::distance<std::_Tree_unchecked_const_iterator<std::_Tree_val<std::_Tree_simple_types<std::pair<unsigned long const ,CPythonPlayer::SPartyMemberInfo> > >,std::_Iterator_base0> >
PUBLIC	??$addressof@V?$_Tree_val@U?$_Tree_simple_types@U?$pair@$$CBKUSPartyMemberInfo@CPythonPlayer@@@std@@@std@@@std@@@std@@YAPAV?$_Tree_val@U?$_Tree_simple_types@U?$pair@$$CBKUSPartyMemberInfo@CPythonPlayer@@@std@@@std@@@0@AAV10@@Z ; std::addressof<std::_Tree_val<std::_Tree_simple_types<std::pair<unsigned long const ,CPythonPlayer::SPartyMemberInfo> > > >
PUBLIC	??$addressof@U?$pair@$$CBKUSPartyMemberInfo@CPythonPlayer@@@std@@@std@@YAPAU?$pair@$$CBKUSPartyMemberInfo@CPythonPlayer@@@0@AAU10@@Z ; std::addressof<std::pair<unsigned long const ,CPythonPlayer::SPartyMemberInfo> >
PUBLIC	??$?0ABQAU?$_Tree_node@U?$pair@$$CBKK@std@@PAX@std@@_N$0A@@?$pair@PAU?$_Tree_node@U?$pair@$$CBKK@std@@PAX@std@@_N@std@@QAE@ABQAU?$_Tree_node@U?$pair@$$CBKK@std@@PAX@1@$$QA_N@Z ; std::pair<std::_Tree_node<std::pair<unsigned long const ,unsigned long>,void *> *,bool>::pair<std::_Tree_node<std::pair<unsigned long const ,unsigned long>,void *> *,bool><std::_Tree_node<std::pair<unsigned long const ,unsigned long>,void *> * const &,bool,0>
PUBLIC	??$?0ABUpiecewise_construct_t@std@@V?$tuple@ABK@1@V?$tuple@$$V@1@@?$_Tree_temp_node@V?$allocator@U?$_Tree_node@U?$pair@$$CBKK@std@@PAX@std@@@std@@@std@@QAE@AAV?$allocator@U?$_Tree_node@U?$pair@$$CBKK@std@@PAX@std@@@1@PAU?$_Tree_node@U?$pair@$$CBKK@std@@PAX@1@ABUpiecewise_construct_t@1@$$QAV?$tuple@ABK@1@$$QAV?$tuple@$$V@1@@Z ; std::_Tree_temp_node<std::allocator<std::_Tree_node<std::pair<unsigned long const ,unsigned long>,void *> > >::_Tree_temp_node<std::allocator<std::_Tree_node<std::pair<unsigned long const ,unsigned long>,void *> > ><std::piecewise_construct_t const &,std::tuple<unsigned long const &>,std::tuple<> >
PUBLIC	??$_Freenode0@V?$allocator@U?$_Tree_node@U?$pair@$$CBKUSPartyMemberInfo@CPythonPlayer@@@std@@PAX@std@@@std@@@?$_Tree_node@U?$pair@$$CBKUSPartyMemberInfo@CPythonPlayer@@@std@@PAX@std@@SAXAAV?$allocator@U?$_Tree_node@U?$pair@$$CBKUSPartyMemberInfo@CPythonPlayer@@@std@@PAX@std@@@1@PAU01@@Z ; std::_Tree_node<std::pair<unsigned long const ,CPythonPlayer::SPartyMemberInfo>,void *>::_Freenode0<std::allocator<std::_Tree_node<std::pair<unsigned long const ,CPythonPlayer::SPartyMemberInfo>,void *> > >
PUBLIC	??$_Freenode@V?$allocator@U?$_Tree_node@U?$pair@$$CBKUSPartyMemberInfo@CPythonPlayer@@@std@@PAX@std@@@std@@@?$_Tree_node@U?$pair@$$CBKUSPartyMemberInfo@CPythonPlayer@@@std@@PAX@std@@SAXAAV?$allocator@U?$_Tree_node@U?$pair@$$CBKUSPartyMemberInfo@CPythonPlayer@@@std@@PAX@std@@@1@PAU01@@Z ; std::_Tree_node<std::pair<unsigned long const ,CPythonPlayer::SPartyMemberInfo>,void *>::_Freenode<std::allocator<std::_Tree_node<std::pair<unsigned long const ,CPythonPlayer::SPartyMemberInfo>,void *> > >
PUBLIC	??$exchange@PAU?$_Tree_node@U?$pair@$$CBKUSPartyMemberInfo@CPythonPlayer@@@std@@PAX@std@@AAPAU12@@std@@YAPAU?$_Tree_node@U?$pair@$$CBKUSPartyMemberInfo@CPythonPlayer@@@std@@PAX@0@AAPAU10@0@Z ; std::exchange<std::_Tree_node<std::pair<unsigned long const ,CPythonPlayer::SPartyMemberInfo>,void *> *,std::_Tree_node<std::pair<unsigned long const ,CPythonPlayer::SPartyMemberInfo>,void *> * &>
PUBLIC	??$_Lower_bound_duplicate@K@?$_Tree@V?$_Tmap_traits@KUSPartyMemberInfo@CPythonPlayer@@U?$less@K@std@@V?$allocator@U?$pair@$$CBKUSPartyMemberInfo@CPythonPlayer@@@std@@@4@$0A@@std@@@std@@IBE_NQAU?$_Tree_node@U?$pair@$$CBKUSPartyMemberInfo@CPythonPlayer@@@std@@PAX@1@ABK@Z ; std::_Tree<std::_Tmap_traits<unsigned long,CPythonPlayer::SPartyMemberInfo,std::less<unsigned long>,std::allocator<std::pair<unsigned long const ,CPythonPlayer::SPartyMemberInfo> >,0> >::_Lower_bound_duplicate<unsigned long>
PUBLIC	??$_Find_lower_bound@K@?$_Tree@V?$_Tmap_traits@KUSPartyMemberInfo@CPythonPlayer@@U?$less@K@std@@V?$allocator@U?$pair@$$CBKUSPartyMemberInfo@CPythonPlayer@@@std@@@4@$0A@@std@@@std@@IBE?AU?$_Tree_find_result@PAU?$_Tree_node@U?$pair@$$CBKUSPartyMemberInfo@CPythonPlayer@@@std@@PAX@std@@@1@ABK@Z ; std::_Tree<std::_Tmap_traits<unsigned long,CPythonPlayer::SPartyMemberInfo,std::less<unsigned long>,std::allocator<std::pair<unsigned long const ,CPythonPlayer::SPartyMemberInfo> >,0> >::_Find_lower_bound<unsigned long>
PUBLIC	??$?0V?$_Tree_iterator@V?$_Tree_val@U?$_Tree_simple_types@U?$pair@$$CBKUSPartyMemberInfo@CPythonPlayer@@@std@@@std@@@std@@@std@@AB_N$0A@@?$pair@V?$_Tree_iterator@V?$_Tree_val@U?$_Tree_simple_types@U?$pair@$$CBKUSPartyMemberInfo@CPythonPlayer@@@std@@@std@@@std@@@std@@_N@std@@QAE@$$QAV?$_Tree_iterator@V?$_Tree_val@U?$_Tree_simple_types@U?$pair@$$CBKUSPartyMemberInfo@CPythonPlayer@@@std@@@std@@@std@@@1@AB_N@Z ; std::pair<std::_Tree_iterator<std::_Tree_val<std::_Tree_simple_types<std::pair<unsigned long const ,CPythonPlayer::SPartyMemberInfo> > > >,bool>::pair<std::_Tree_iterator<std::_Tree_val<std::_Tree_simple_types<std::pair<unsigned long const ,CPythonPlayer::SPartyMemberInfo> > > >,bool><std::_Tree_iterator<std::_Tree_val<std::_Tree_simple_types<std::pair<unsigned long const ,CPythonPlayer::SPartyMemberInfo> > > >,bool const &,0>
PUBLIC	??$_Emplace@U?$pair@KUSPartyMemberInfo@CPythonPlayer@@@std@@@?$_Tree@V?$_Tmap_traits@KUSPartyMemberInfo@CPythonPlayer@@U?$less@K@std@@V?$allocator@U?$pair@$$CBKUSPartyMemberInfo@CPythonPlayer@@@std@@@4@$0A@@std@@@std@@IAE?AU?$pair@PAU?$_Tree_node@U?$pair@$$CBKUSPartyMemberInfo@CPythonPlayer@@@std@@PAX@std@@_N@1@$$QAU?$pair@KUSPartyMemberInfo@CPythonPlayer@@@1@@Z ; std::_Tree<std::_Tmap_traits<unsigned long,CPythonPlayer::SPartyMemberInfo,std::less<unsigned long>,std::allocator<std::pair<unsigned long const ,CPythonPlayer::SPartyMemberInfo> >,0> >::_Emplace<std::pair<unsigned long,CPythonPlayer::SPartyMemberInfo> >
PUBLIC	??$?0AAPAU?$_Tree_node@U?$pair@$$CBKUSPartyMemberInfo@CPythonPlayer@@@std@@PAX@std@@AAPAU01@$0A@@?$pair@PAU?$_Tree_node@U?$pair@$$CBKUSPartyMemberInfo@CPythonPlayer@@@std@@PAX@std@@PAU12@@std@@QAE@AAPAU?$_Tree_node@U?$pair@$$CBKUSPartyMemberInfo@CPythonPlayer@@@std@@PAX@1@0@Z ; std::pair<std::_Tree_node<std::pair<unsigned long const ,CPythonPlayer::SPartyMemberInfo>,void *> *,std::_Tree_node<std::pair<unsigned long const ,CPythonPlayer::SPartyMemberInfo>,void *> *>::pair<std::_Tree_node<std::pair<unsigned long const ,CPythonPlayer::SPartyMemberInfo>,void *> *,std::_Tree_node<std::pair<unsigned long const ,CPythonPlayer::SPartyMemberInfo>,void *> *><std::_Tree_node<std::pair<unsigned long const ,CPythonPlayer::SPartyMemberInfo>,void *> * &,std::_Tree_node<std::pair<unsigned long const ,CPythonPlayer::SPartyMemberInfo>,void *> * &,0>
PUBLIC	??$_Kfn@$$CBKUSPartyMemberInfo@CPythonPlayer@@@?$_Tmap_traits@KUSPartyMemberInfo@CPythonPlayer@@U?$less@K@std@@V?$allocator@U?$pair@$$CBKUSPartyMemberInfo@CPythonPlayer@@@std@@@4@$0A@@std@@SAABKABU?$pair@$$CBKUSPartyMemberInfo@CPythonPlayer@@@1@@Z ; std::_Tmap_traits<unsigned long,CPythonPlayer::SPartyMemberInfo,std::less<unsigned long>,std::allocator<std::pair<unsigned long const ,CPythonPlayer::SPartyMemberInfo> >,0>::_Kfn<unsigned long const ,CPythonPlayer::SPartyMemberInfo>
PUBLIC	??0?$_Tree@V?$_Tmap_traits@KUSPartyMemberInfo@CPythonPlayer@@U?$less@K@std@@V?$allocator@U?$pair@$$CBKUSPartyMemberInfo@CPythonPlayer@@@std@@@4@$0A@@std@@@std@@QAE@ABU?$less@K@1@@Z ; std::_Tree<std::_Tmap_traits<unsigned long,CPythonPlayer::SPartyMemberInfo,std::less<unsigned long>,std::allocator<std::pair<unsigned long const ,CPythonPlayer::SPartyMemberInfo> >,0> >::_Tree<std::_Tmap_traits<unsigned long,CPythonPlayer::SPartyMemberInfo,std::less<unsigned long>,std::allocator<std::pair<unsigned long const ,CPythonPlayer::SPartyMemberInfo> >,0> >
PUBLIC	?_Erase@?$_Tree@V?$_Tmap_traits@KUSPartyMemberInfo@CPythonPlayer@@U?$less@K@std@@V?$allocator@U?$pair@$$CBKUSPartyMemberInfo@CPythonPlayer@@@std@@@4@$0A@@std@@@std@@AAEIU?$pair@PAU?$_Tree_node@U?$pair@$$CBKUSPartyMemberInfo@CPythonPlayer@@@std@@PAX@std@@PAU12@@2@@Z ; std::_Tree<std::_Tmap_traits<unsigned long,CPythonPlayer::SPartyMemberInfo,std::less<unsigned long>,std::allocator<std::pair<unsigned long const ,CPythonPlayer::SPartyMemberInfo> >,0> >::_Erase
PUBLIC	?_Getal@?$_Tree@V?$_Tmap_traits@KUSPartyMemberInfo@CPythonPlayer@@U?$less@K@std@@V?$allocator@U?$pair@$$CBKUSPartyMemberInfo@CPythonPlayer@@@std@@@4@$0A@@std@@@std@@IAEAAV?$allocator@U?$_Tree_node@U?$pair@$$CBKUSPartyMemberInfo@CPythonPlayer@@@std@@PAX@std@@@2@XZ ; std::_Tree<std::_Tmap_traits<unsigned long,CPythonPlayer::SPartyMemberInfo,std::less<unsigned long>,std::allocator<std::pair<unsigned long const ,CPythonPlayer::SPartyMemberInfo> >,0> >::_Getal
PUBLIC	?_Get_scary@?$_Tree@V?$_Tmap_traits@KUSPartyMemberInfo@CPythonPlayer@@U?$less@K@std@@V?$allocator@U?$pair@$$CBKUSPartyMemberInfo@CPythonPlayer@@@std@@@4@$0A@@std@@@std@@IAEPAV?$_Tree_val@U?$_Tree_simple_types@U?$pair@$$CBKUSPartyMemberInfo@CPythonPlayer@@@std@@@std@@@2@XZ ; std::_Tree<std::_Tmap_traits<unsigned long,CPythonPlayer::SPartyMemberInfo,std::less<unsigned long>,std::allocator<std::pair<unsigned long const ,CPythonPlayer::SPartyMemberInfo> >,0> >::_Get_scary
PUBLIC	?_Orphan_ptr@?$_Tree_val@U?$_Tree_simple_types@U?$pair@$$CBKUSPartyMemberInfo@CPythonPlayer@@@std@@@std@@@std@@QAEXQAU?$_Tree_node@U?$pair@$$CBKUSPartyMemberInfo@CPythonPlayer@@@std@@PAX@2@@Z ; std::_Tree_val<std::_Tree_simple_types<std::pair<unsigned long const ,CPythonPlayer::SPartyMemberInfo> > >::_Orphan_ptr
PUBLIC	??E?$_Tree_const_iterator@V?$_Tree_val@U?$_Tree_simple_types@U?$pair@$$CBKUSPartyMemberInfo@CPythonPlayer@@@std@@@std@@@std@@@std@@QAEAAV01@XZ ; std::_Tree_const_iterator<std::_Tree_val<std::_Tree_simple_types<std::pair<unsigned long const ,CPythonPlayer::SPartyMemberInfo> > > >::operator++
PUBLIC	??D?$_Tree_iterator@V?$_Tree_val@U?$_Tree_simple_types@U?$pair@$$CBKUSPartyMemberInfo@CPythonPlayer@@@std@@@std@@@std@@@std@@QBEAAU?$pair@$$CBKUSPartyMemberInfo@CPythonPlayer@@@1@XZ ; std::_Tree_iterator<std::_Tree_val<std::_Tree_simple_types<std::pair<unsigned long const ,CPythonPlayer::SPartyMemberInfo> > > >::operator*
PUBLIC	??0?$_Tree_unchecked_const_iterator@V?$_Tree_val@U?$_Tree_simple_types@U?$pair@$$CBKUSPartyMemberInfo@CPythonPlayer@@@std@@@std@@@std@@U_Iterator_base0@2@@std@@QAE@PAU?$_Tree_node@U?$pair@$$CBKUSPartyMemberInfo@CPythonPlayer@@@std@@PAX@1@PBV?$_Tree_val@U?$_Tree_simple_types@U?$pair@$$CBKUSPartyMemberInfo@CPythonPlayer@@@std@@@std@@@1@@Z ; std::_Tree_unchecked_const_iterator<std::_Tree_val<std::_Tree_simple_types<std::pair<unsigned long const ,CPythonPlayer::SPartyMemberInfo> > >,std::_Iterator_base0>::_Tree_unchecked_const_iterator<std::_Tree_val<std::_Tree_simple_types<std::pair<unsigned long const ,CPythonPlayer::SPartyMemberInfo> > >,std::_Iterator_base0>
PUBLIC	?pointer_to@?$pointer_traits@PAU?$pair@$$CBKUSPartyMemberInfo@CPythonPlayer@@@std@@@std@@SAPAU?$pair@$$CBKUSPartyMemberInfo@CPythonPlayer@@@2@AAU32@@Z ; std::pointer_traits<std::pair<unsigned long const ,CPythonPlayer::SPartyMemberInfo> *>::pointer_to
PUBLIC	??$_Try_emplace@ABK$$V@?$map@KKU?$less@K@std@@V?$allocator@U?$pair@$$CBKK@std@@@2@@std@@AAE?AU?$pair@PAU?$_Tree_node@U?$pair@$$CBKK@std@@PAX@std@@_N@1@ABK@Z ; std::map<unsigned long,unsigned long,std::less<unsigned long>,std::allocator<std::pair<unsigned long const ,unsigned long> > >::_Try_emplace<unsigned long const &>
PUBLIC	??$_Erase_head@V?$allocator@U?$_Tree_node@U?$pair@$$CBKUSPartyMemberInfo@CPythonPlayer@@@std@@PAX@std@@@std@@@?$_Tree_val@U?$_Tree_simple_types@U?$pair@$$CBKUSPartyMemberInfo@CPythonPlayer@@@std@@@std@@@std@@QAEXAAV?$allocator@U?$_Tree_node@U?$pair@$$CBKUSPartyMemberInfo@CPythonPlayer@@@std@@PAX@std@@@1@@Z ; std::_Tree_val<std::_Tree_simple_types<std::pair<unsigned long const ,CPythonPlayer::SPartyMemberInfo> > >::_Erase_head<std::allocator<std::_Tree_node<std::pair<unsigned long const ,CPythonPlayer::SPartyMemberInfo>,void *> > >
PUBLIC	??$_Erase_tree@V?$allocator@U?$_Tree_node@U?$pair@$$CBKUSPartyMemberInfo@CPythonPlayer@@@std@@PAX@std@@@std@@@?$_Tree_val@U?$_Tree_simple_types@U?$pair@$$CBKUSPartyMemberInfo@CPythonPlayer@@@std@@@std@@@std@@QAEXAAV?$allocator@U?$_Tree_node@U?$pair@$$CBKUSPartyMemberInfo@CPythonPlayer@@@std@@PAX@std@@@1@PAU?$_Tree_node@U?$pair@$$CBKUSPartyMemberInfo@CPythonPlayer@@@std@@PAX@1@@Z ; std::_Tree_val<std::_Tree_simple_types<std::pair<unsigned long const ,CPythonPlayer::SPartyMemberInfo> > >::_Erase_tree<std::allocator<std::_Tree_node<std::pair<unsigned long const ,CPythonPlayer::SPartyMemberInfo>,void *> > >
PUBLIC	??$_Find@K@?$_Tree@V?$_Tmap_traits@KUSPartyMemberInfo@CPythonPlayer@@U?$less@K@std@@V?$allocator@U?$pair@$$CBKUSPartyMemberInfo@CPythonPlayer@@@std@@@4@$0A@@std@@@std@@ABEPAU?$_Tree_node@U?$pair@$$CBKUSPartyMemberInfo@CPythonPlayer@@@std@@PAX@1@ABK@Z ; std::_Tree<std::_Tmap_traits<unsigned long,CPythonPlayer::SPartyMemberInfo,std::less<unsigned long>,std::allocator<std::pair<unsigned long const ,CPythonPlayer::SPartyMemberInfo> >,0> >::_Find<unsigned long>
PUBLIC	??$?0HH$0A@@?$pair@HH@std@@QAE@$$QAH0@Z		; std::pair<int,int>::pair<int,int><int,int,0>
PUBLIC	??$emplace@U?$pair@KUSPartyMemberInfo@CPythonPlayer@@@std@@@?$_Tree@V?$_Tmap_traits@KUSPartyMemberInfo@CPythonPlayer@@U?$less@K@std@@V?$allocator@U?$pair@$$CBKUSPartyMemberInfo@CPythonPlayer@@@std@@@4@$0A@@std@@@std@@QAE?AU?$pair@V?$_Tree_iterator@V?$_Tree_val@U?$_Tree_simple_types@U?$pair@$$CBKUSPartyMemberInfo@CPythonPlayer@@@std@@@std@@@std@@@std@@_N@1@$$QAU?$pair@KUSPartyMemberInfo@CPythonPlayer@@@1@@Z ; std::_Tree<std::_Tmap_traits<unsigned long,CPythonPlayer::SPartyMemberInfo,std::less<unsigned long>,std::allocator<std::pair<unsigned long const ,CPythonPlayer::SPartyMemberInfo> >,0> >::emplace<std::pair<unsigned long,CPythonPlayer::SPartyMemberInfo> >
PUBLIC	??$forward@U?$pair@KUSPartyMemberInfo@CPythonPlayer@@@std@@@std@@YA$$QAU?$pair@KUSPartyMemberInfo@CPythonPlayer@@@0@AAU10@@Z ; std::forward<std::pair<unsigned long,CPythonPlayer::SPartyMemberInfo> >
PUBLIC	??0SPartyMemberInfo@CPythonPlayer@@QAE@$$QAU01@@Z ; CPythonPlayer::SPartyMemberInfo::SPartyMemberInfo
PUBLIC	??$?0AAKUSPartyMemberInfo@CPythonPlayer@@$0A@@?$pair@KUSPartyMemberInfo@CPythonPlayer@@@std@@QAE@AAK$$QAUSPartyMemberInfo@CPythonPlayer@@@Z ; std::pair<unsigned long,CPythonPlayer::SPartyMemberInfo>::pair<unsigned long,CPythonPlayer::SPartyMemberInfo><unsigned long &,CPythonPlayer::SPartyMemberInfo,0>
PUBLIC	??$forward@USPartyMemberInfo@CPythonPlayer@@@std@@YA$$QAUSPartyMemberInfo@CPythonPlayer@@AAU12@@Z ; std::forward<CPythonPlayer::SPartyMemberInfo>
PUBLIC	??$move@AAUSQuickSlot@@@std@@YA$$QAUSQuickSlot@@AAU1@@Z ; std::move<SQuickSlot &>
PUBLIC	??$_Eqrange@K@?$_Tree@V?$_Tmap_traits@KUSPartyMemberInfo@CPythonPlayer@@U?$less@K@std@@V?$allocator@U?$pair@$$CBKUSPartyMemberInfo@CPythonPlayer@@@std@@@4@$0A@@std@@@std@@IBE?AU?$pair@PAU?$_Tree_node@U?$pair@$$CBKUSPartyMemberInfo@CPythonPlayer@@@std@@PAX@std@@PAU12@@1@ABK@Z ; std::_Tree<std::_Tmap_traits<unsigned long,CPythonPlayer::SPartyMemberInfo,std::less<unsigned long>,std::allocator<std::pair<unsigned long const ,CPythonPlayer::SPartyMemberInfo> >,0> >::_Eqrange<unsigned long>
PUBLIC	??0?$_Tree_const_iterator@V?$_Tree_val@U?$_Tree_simple_types@U?$pair@$$CBKUSPartyMemberInfo@CPythonPlayer@@@std@@@std@@@std@@@std@@QAE@PAU?$_Tree_node@U?$pair@$$CBKUSPartyMemberInfo@CPythonPlayer@@@std@@PAX@1@PBV?$_Tree_val@U?$_Tree_simple_types@U?$pair@$$CBKUSPartyMemberInfo@CPythonPlayer@@@std@@@std@@@1@@Z ; std::_Tree_const_iterator<std::_Tree_val<std::_Tree_simple_types<std::pair<unsigned long const ,CPythonPlayer::SPartyMemberInfo> > > >::_Tree_const_iterator<std::_Tree_val<std::_Tree_simple_types<std::pair<unsigned long const ,CPythonPlayer::SPartyMemberInfo> > > >
PUBLIC	??_G?$TAbstractSingleton@VIAbstractPlayer@@@@UAEPAXI@Z ; TAbstractSingleton<IAbstractPlayer>::`scalar deleting destructor'
PUBLIC	??_G?$CSingleton@VCPythonPlayer@@@@UAEPAXI@Z	; CSingleton<CPythonPlayer>::`scalar deleting destructor'
PUBLIC	??0?$_Tree_iterator@V?$_Tree_val@U?$_Tree_simple_types@U?$pair@$$CBKUSPartyMemberInfo@CPythonPlayer@@@std@@@std@@@std@@@std@@QAE@PAU?$_Tree_node@U?$pair@$$CBKUSPartyMemberInfo@CPythonPlayer@@@std@@PAX@1@PBV?$_Tree_val@U?$_Tree_simple_types@U?$pair@$$CBKUSPartyMemberInfo@CPythonPlayer@@@std@@@std@@@1@@Z ; std::_Tree_iterator<std::_Tree_val<std::_Tree_simple_types<std::pair<unsigned long const ,CPythonPlayer::SPartyMemberInfo> > > >::_Tree_iterator<std::_Tree_val<std::_Tree_simple_types<std::pair<unsigned long const ,CPythonPlayer::SPartyMemberInfo> > > >
PUBLIC	??A?$map@KKU?$less@K@std@@V?$allocator@U?$pair@$$CBKK@std@@@2@@std@@QAEAAKABK@Z ; std::map<unsigned long,unsigned long,std::less<unsigned long>,std::allocator<std::pair<unsigned long const ,unsigned long> > >::operator[]
PUBLIC	??0?$TAbstractSingleton@VIAbstractPlayer@@@@QAE@XZ ; TAbstractSingleton<IAbstractPlayer>::TAbstractSingleton<IAbstractPlayer>
PUBLIC	??1?$TAbstractSingleton@VIAbstractPlayer@@@@UAE@XZ ; TAbstractSingleton<IAbstractPlayer>::~TAbstractSingleton<IAbstractPlayer>
PUBLIC	??0?$CSingleton@VCPythonPlayer@@@@QAE@XZ	; CSingleton<CPythonPlayer>::CSingleton<CPythonPlayer>
PUBLIC	??1?$CSingleton@VCPythonPlayer@@@@UAE@XZ	; CSingleton<CPythonPlayer>::~CSingleton<CPythonPlayer>
PUBLIC	??0?$map@KUSPartyMemberInfo@CPythonPlayer@@U?$less@K@std@@V?$allocator@U?$pair@$$CBKUSPartyMemberInfo@CPythonPlayer@@@std@@@4@@std@@QAE@XZ ; std::map<unsigned long,CPythonPlayer::SPartyMemberInfo,std::less<unsigned long>,std::allocator<std::pair<unsigned long const ,CPythonPlayer::SPartyMemberInfo> > >::map<unsigned long,CPythonPlayer::SPartyMemberInfo,std::less<unsigned long>,std::allocator<std::pair<unsigned long const ,CPythonPlayer::SPartyMemberInfo> > >
PUBLIC	??1?$_Tree@V?$_Tmap_traits@KUSPartyMemberInfo@CPythonPlayer@@U?$less@K@std@@V?$allocator@U?$pair@$$CBKUSPartyMemberInfo@CPythonPlayer@@@std@@@4@$0A@@std@@@std@@QAE@XZ ; std::_Tree<std::_Tmap_traits<unsigned long,CPythonPlayer::SPartyMemberInfo,std::less<unsigned long>,std::allocator<std::pair<unsigned long const ,CPythonPlayer::SPartyMemberInfo> >,0> >::~_Tree<std::_Tmap_traits<unsigned long,CPythonPlayer::SPartyMemberInfo,std::less<unsigned long>,std::allocator<std::pair<unsigned long const ,CPythonPlayer::SPartyMemberInfo> >,0> >
PUBLIC	?begin@?$_Tree@V?$_Tmap_traits@KUSPartyMemberInfo@CPythonPlayer@@U?$less@K@std@@V?$allocator@U?$pair@$$CBKUSPartyMemberInfo@CPythonPlayer@@@std@@@4@$0A@@std@@@std@@QAE?AV?$_Tree_iterator@V?$_Tree_val@U?$_Tree_simple_types@U?$pair@$$CBKUSPartyMemberInfo@CPythonPlayer@@@std@@@std@@@std@@@2@XZ ; std::_Tree<std::_Tmap_traits<unsigned long,CPythonPlayer::SPartyMemberInfo,std::less<unsigned long>,std::allocator<std::pair<unsigned long const ,CPythonPlayer::SPartyMemberInfo> >,0> >::begin
PUBLIC	?end@?$_Tree@V?$_Tmap_traits@KUSPartyMemberInfo@CPythonPlayer@@U?$less@K@std@@V?$allocator@U?$pair@$$CBKUSPartyMemberInfo@CPythonPlayer@@@std@@@4@$0A@@std@@@std@@QAE?AV?$_Tree_iterator@V?$_Tree_val@U?$_Tree_simple_types@U?$pair@$$CBKUSPartyMemberInfo@CPythonPlayer@@@std@@@std@@@std@@@2@XZ ; std::_Tree<std::_Tmap_traits<unsigned long,CPythonPlayer::SPartyMemberInfo,std::less<unsigned long>,std::allocator<std::pair<unsigned long const ,CPythonPlayer::SPartyMemberInfo> >,0> >::end
PUBLIC	?erase@?$_Tree@V?$_Tmap_traits@KUSPartyMemberInfo@CPythonPlayer@@U?$less@K@std@@V?$allocator@U?$pair@$$CBKUSPartyMemberInfo@CPythonPlayer@@@std@@@4@$0A@@std@@@std@@QAEIABK@Z ; std::_Tree<std::_Tmap_traits<unsigned long,CPythonPlayer::SPartyMemberInfo,std::less<unsigned long>,std::allocator<std::pair<unsigned long const ,CPythonPlayer::SPartyMemberInfo> >,0> >::erase
PUBLIC	?clear@?$_Tree@V?$_Tmap_traits@KUSPartyMemberInfo@CPythonPlayer@@U?$less@K@std@@V?$allocator@U?$pair@$$CBKUSPartyMemberInfo@CPythonPlayer@@@std@@@4@$0A@@std@@@std@@QAEXXZ ; std::_Tree<std::_Tmap_traits<unsigned long,CPythonPlayer::SPartyMemberInfo,std::less<unsigned long>,std::allocator<std::pair<unsigned long const ,CPythonPlayer::SPartyMemberInfo> >,0> >::clear
PUBLIC	?find@?$_Tree@V?$_Tmap_traits@KUSPartyMemberInfo@CPythonPlayer@@U?$less@K@std@@V?$allocator@U?$pair@$$CBKUSPartyMemberInfo@CPythonPlayer@@@std@@@4@$0A@@std@@@std@@QAE?AV?$_Tree_iterator@V?$_Tree_val@U?$_Tree_simple_types@U?$pair@$$CBKUSPartyMemberInfo@CPythonPlayer@@@std@@@std@@@std@@@2@ABK@Z ; std::_Tree<std::_Tmap_traits<unsigned long,CPythonPlayer::SPartyMemberInfo,std::less<unsigned long>,std::allocator<std::pair<unsigned long const ,CPythonPlayer::SPartyMemberInfo> >,0> >::find
PUBLIC	??8?$_Tree_const_iterator@V?$_Tree_val@U?$_Tree_simple_types@U?$pair@$$CBKUSPartyMemberInfo@CPythonPlayer@@@std@@@std@@@std@@@std@@QBE_NABV01@@Z ; std::_Tree_const_iterator<std::_Tree_val<std::_Tree_simple_types<std::pair<unsigned long const ,CPythonPlayer::SPartyMemberInfo> > > >::operator==
PUBLIC	??C?$_Tree_iterator@V?$_Tree_val@U?$_Tree_simple_types@U?$pair@$$CBKUSPartyMemberInfo@CPythonPlayer@@@std@@@std@@@std@@@std@@QBEPAU?$pair@$$CBKUSPartyMemberInfo@CPythonPlayer@@@1@XZ ; std::_Tree_iterator<std::_Tree_val<std::_Tree_simple_types<std::pair<unsigned long const ,CPythonPlayer::SPartyMemberInfo> > > >::operator->
PUBLIC	??E?$_Tree_iterator@V?$_Tree_val@U?$_Tree_simple_types@U?$pair@$$CBKUSPartyMemberInfo@CPythonPlayer@@@std@@@std@@@std@@@std@@QAEAAV01@XZ ; std::_Tree_iterator<std::_Tree_val<std::_Tree_simple_types<std::pair<unsigned long const ,CPythonPlayer::SPartyMemberInfo> > > >::operator++
PUBLIC	??$make_pair@HH@std@@YA?AU?$pair@HH@0@$$QAH0@Z	; std::make_pair<int,int>
PUBLIC	??$insert@U?$pair@KUSPartyMemberInfo@CPythonPlayer@@@std@@$0A@@?$map@KUSPartyMemberInfo@CPythonPlayer@@U?$less@K@std@@V?$allocator@U?$pair@$$CBKUSPartyMemberInfo@CPythonPlayer@@@std@@@4@@std@@QAE?AU?$pair@V?$_Tree_iterator@V?$_Tree_val@U?$_Tree_simple_types@U?$pair@$$CBKUSPartyMemberInfo@CPythonPlayer@@@std@@@std@@@std@@@std@@_N@1@$$QAU?$pair@KUSPartyMemberInfo@CPythonPlayer@@@1@@Z ; std::map<unsigned long,CPythonPlayer::SPartyMemberInfo,std::less<unsigned long>,std::allocator<std::pair<unsigned long const ,CPythonPlayer::SPartyMemberInfo> > >::insert<std::pair<unsigned long,CPythonPlayer::SPartyMemberInfo>,0>
PUBLIC	??$make_pair@AAKUSPartyMemberInfo@CPythonPlayer@@@std@@YA?AU?$pair@KUSPartyMemberInfo@CPythonPlayer@@@0@AAK$$QAUSPartyMemberInfo@CPythonPlayer@@@Z ; std::make_pair<unsigned long &,CPythonPlayer::SPartyMemberInfo>
PUBLIC	??$swap@USQuickSlot@@$0A@@std@@YAXAAUSQuickSlot@@0@Z ; std::swap<SQuickSlot,0>
PUBLIC	??1?$map@KUSPartyMemberInfo@CPythonPlayer@@U?$less@K@std@@V?$allocator@U?$pair@$$CBKUSPartyMemberInfo@CPythonPlayer@@@std@@@4@@std@@QAE@XZ ; std::map<unsigned long,CPythonPlayer::SPartyMemberInfo,std::less<unsigned long>,std::allocator<std::pair<unsigned long const ,CPythonPlayer::SPartyMemberInfo> > >::~map<unsigned long,CPythonPlayer::SPartyMemberInfo,std::less<unsigned long>,std::allocator<std::pair<unsigned long const ,CPythonPlayer::SPartyMemberInfo> > >
PUBLIC	??_GCPythonPlayer@@UAEPAXI@Z			; CPythonPlayer::`scalar deleting destructor'
PUBLIC	?ClearSkillDict@CPythonPlayer@@QAEXXZ		; CPythonPlayer::ClearSkillDict
PUBLIC	?SetGameWindow@CPythonPlayer@@QAEXPAU_object@@@Z ; CPythonPlayer::SetGameWindow
PUBLIC	?HasMobilePhoneNumber@CPythonPlayer@@QAEHXZ	; CPythonPlayer::HasMobilePhoneNumber
PUBLIC	?SetMobileFlag@CPythonPlayer@@UAEXH@Z		; CPythonPlayer::SetMobileFlag
PUBLIC	?GetPKMode@CPythonPlayer@@QAEKXZ		; CPythonPlayer::GetPKMode
PUBLIC	?StopStaminaConsume@CPythonPlayer@@UAEXK@Z	; CPythonPlayer::StopStaminaConsume
PUBLIC	?StartStaminaConsume@CPythonPlayer@@UAEXKK@Z	; CPythonPlayer::StartStaminaConsume
PUBLIC	?__ToggleLevelLimit@CPythonPlayer@@QAEHXZ	; CPythonPlayer::__ToggleLevelLimit
PUBLIC	?__ToggleCoolTime@CPythonPlayer@@QAEHXZ		; CPythonPlayer::__ToggleCoolTime
PUBLIC	?SetObserverMode@CPythonPlayer@@UAEX_N@Z	; CPythonPlayer::SetObserverMode
PUBLIC	?IsOpenPrivateShop@CPythonPlayer@@QAE_NXZ	; CPythonPlayer::IsOpenPrivateShop
PUBLIC	?IsCantFightInstance@CPythonPlayer@@QAE_NK@Z	; CPythonPlayer::IsCantFightInstance
PUBLIC	?IsRevengeInstance@CPythonPlayer@@QAE_NK@Z	; CPythonPlayer::IsRevengeInstance
PUBLIC	?IsChallengeInstance@CPythonPlayer@@QAE_NK@Z	; CPythonPlayer::IsChallengeInstance
PUBLIC	?IsSamePartyMember@CPythonPlayer@@UAE_NKK@Z	; CPythonPlayer::IsSamePartyMember
PUBLIC	?PartyMemberVIDToPID@CPythonPlayer@@UAE_NKPAK@Z	; CPythonPlayer::PartyMemberVIDToPID
PUBLIC	?IsPartyMemberByName@CPythonPlayer@@QAE_NPBD@Z	; CPythonPlayer::IsPartyMemberByName
PUBLIC	?IsPartyMemberByVID@CPythonPlayer@@UAE_NK@Z	; CPythonPlayer::IsPartyMemberByVID
PUBLIC	?RemovePartyMember@CPythonPlayer@@QAEXK@Z	; CPythonPlayer::RemovePartyMember
PUBLIC	??1?$pair@KUSPartyMemberInfo@CPythonPlayer@@@std@@QAE@XZ ; std::pair<unsigned long,CPythonPlayer::SPartyMemberInfo>::~pair<unsigned long,CPythonPlayer::SPartyMemberInfo>
PUBLIC	??1SPartyMemberInfo@CPythonPlayer@@QAE@XZ	; CPythonPlayer::SPartyMemberInfo::~SPartyMemberInfo
PUBLIC	?ExitParty@CPythonPlayer@@QAEXXZ		; CPythonPlayer::ExitParty
PUBLIC	?AlarmHaveToGo@CPythonPlayer@@QAEXXZ		; CPythonPlayer::AlarmHaveToGo
PUBLIC	?__IsProcessingEmotion@CPythonPlayer@@IAEHXZ	; CPythonPlayer::__IsProcessingEmotion
PUBLIC	?EndEmotionProcess@CPythonPlayer@@UAEXXZ	; CPythonPlayer::EndEmotionProcess
PUBLIC	?StartEmotionProcess@CPythonPlayer@@UAEXXZ	; CPythonPlayer::StartEmotionProcess
PUBLIC	?ActEmotion@CPythonPlayer@@QAEXK@Z		; CPythonPlayer::ActEmotion
PUBLIC	?__SendClickActorPacket@CPythonPlayer@@IAEXAAVCInstanceBase@@@Z ; CPythonPlayer::__SendClickActorPacket
PUBLIC	?SendClickItemPacket@CPythonPlayer@@QAEXK@Z	; CPythonPlayer::SendClickItemPacket
PUBLIC	?GetPlayTime@CPythonPlayer@@QAEKXZ		; CPythonPlayer::GetPlayTime
PUBLIC	?SetPlayTime@CPythonPlayer@@QAEXK@Z		; CPythonPlayer::SetPlayTime
PUBLIC	?IsSkillActive@CPythonPlayer@@QAEHK@Z		; CPythonPlayer::IsSkillActive
PUBLIC	?IsSkillCoolTime@CPythonPlayer@@QAEHK@Z		; CPythonPlayer::IsSkillCoolTime
PUBLIC	?__DeactivateSkillSlot@CPythonPlayer@@IAEXK@Z	; CPythonPlayer::__DeactivateSkillSlot
PUBLIC	?__ActivateSkillSlot@CPythonPlayer@@IAEXK@Z	; CPythonPlayer::__ActivateSkillSlot
PUBLIC	?GetSkillElapsedCoolTime@CPythonPlayer@@QAEMK@Z	; CPythonPlayer::GetSkillElapsedCoolTime
PUBLIC	?GetSkillCoolTime@CPythonPlayer@@QAEMK@Z	; CPythonPlayer::GetSkillCoolTime
PUBLIC	?GetSkillNextEfficientPercentage@CPythonPlayer@@QAEMK@Z ; CPythonPlayer::GetSkillNextEfficientPercentage
PUBLIC	?GetSkillCurrentEfficientPercentage@CPythonPlayer@@QAEMK@Z ; CPythonPlayer::GetSkillCurrentEfficientPercentage
PUBLIC	?GetSkillLevel@CPythonPlayer@@QAEHK@Z		; CPythonPlayer::GetSkillLevel
PUBLIC	?GetSkillGrade@CPythonPlayer@@QAEHK@Z		; CPythonPlayer::GetSkillGrade
PUBLIC	?GetSkillIndex@CPythonPlayer@@QAEHK@Z		; CPythonPlayer::GetSkillIndex
PUBLIC	?IsEquipItemInSlot@CPythonPlayer@@UAE_NUSItemPos@@@Z ; CPythonPlayer::IsEquipItemInSlot
PUBLIC	?IsEquipmentSlot@CPythonPlayer@@QAE_NUSItemPos@@@Z ; CPythonPlayer::IsEquipmentSlot
PUBLIC	?IsBeltInventorySlot@CPythonPlayer@@QAE_NUSItemPos@@@Z ; CPythonPlayer::IsBeltInventorySlot
PUBLIC	?MoveQuickSlot@CPythonPlayer@@UAEXHH@Z		; CPythonPlayer::MoveQuickSlot
PUBLIC	?DeleteQuickSlot@CPythonPlayer@@UAEXH@Z		; CPythonPlayer::DeleteQuickSlot
PUBLIC	?AddQuickSlot@CPythonPlayer@@UAEXHDD@Z		; CPythonPlayer::AddQuickSlot
PUBLIC	?RequestUseLocalQuickSlot@CPythonPlayer@@QAEXK@Z ; CPythonPlayer::RequestUseLocalQuickSlot
PUBLIC	?RequestDeleteGlobalQuickSlot@CPythonPlayer@@QAEXK@Z ; CPythonPlayer::RequestDeleteGlobalQuickSlot
PUBLIC	?RequestAddToEmptyLocalQuickSlot@CPythonPlayer@@QAEXKK@Z ; CPythonPlayer::RequestAddToEmptyLocalQuickSlot
PUBLIC	?RequestAddLocalQuickSlot@CPythonPlayer@@QAEXKKK@Z ; CPythonPlayer::RequestAddLocalQuickSlot
PUBLIC	?RequestMoveGlobalQuickSlotToLocalQuickSlot@CPythonPlayer@@QAEXKK@Z ; CPythonPlayer::RequestMoveGlobalQuickSlotToLocalQuickSlot
PUBLIC	?IsItem@CPythonPlayer@@QAEDUSItemPos@@@Z	; CPythonPlayer::IsItem
PUBLIC	?RemoveQuickSlotByValue@CPythonPlayer@@QAEXHH@Z	; CPythonPlayer::RemoveQuickSlotByValue
PUBLIC	?__RefGlobalQuickSlot@CPythonPlayer@@IAEAAUSQuickSlot@@H@Z ; CPythonPlayer::__RefGlobalQuickSlot
PUBLIC	?__RefLocalQuickSlot@CPythonPlayer@@IAEAAUSQuickSlot@@H@Z ; CPythonPlayer::__RefLocalQuickSlot
PUBLIC	?GetLocalQuickSlotData@CPythonPlayer@@QAEXKPAK0@Z ; CPythonPlayer::GetLocalQuickSlotData
PUBLIC	?GetGlobalQuickSlotData@CPythonPlayer@@QAEXKPAK0@Z ; CPythonPlayer::GetGlobalQuickSlotData
PUBLIC	?LocalQuickSlotIndexToGlobalQuickSlotIndex@CPythonPlayer@@QAEKK@Z ; CPythonPlayer::LocalQuickSlotIndexToGlobalQuickSlotIndex
PUBLIC	?SetQuickPage@CPythonPlayer@@QAEXH@Z		; CPythonPlayer::SetQuickPage
PUBLIC	?GetQuickPage@CPythonPlayer@@QAEHXZ		; CPythonPlayer::GetQuickPage
PUBLIC	?SetItemAttribute@CPythonPlayer@@UAEXUSItemPos@@KEF@Z ; CPythonPlayer::SetItemAttribute
PUBLIC	?SetItemMetinSocket@CPythonPlayer@@UAEXUSItemPos@@KK@Z ; CPythonPlayer::SetItemMetinSocket
PUBLIC	?SetItemCount@CPythonPlayer@@UAEXUSItemPos@@E@Z	; CPythonPlayer::SetItemCount
PUBLIC	?GetItemAttribute@CPythonPlayer@@QAEXUSItemPos@@KPAEPAF@Z ; CPythonPlayer::GetItemAttribute
PUBLIC	?GetItemMetinSocket@CPythonPlayer@@QAEKUSItemPos@@K@Z ; CPythonPlayer::GetItemMetinSocket
PUBLIC	?GetItemCountByVnum@CPythonPlayer@@QAEKK@Z	; CPythonPlayer::GetItemCountByVnum
PUBLIC	?GetItemCount@CPythonPlayer@@UAEKUSItemPos@@@Z	; CPythonPlayer::GetItemCount
PUBLIC	?GetItemFlags@CPythonPlayer@@UAEKUSItemPos@@@Z	; CPythonPlayer::GetItemFlags
PUBLIC	?GetItemIndex@CPythonPlayer@@UAEKUSItemPos@@@Z	; CPythonPlayer::GetItemIndex
PUBLIC	?SetItemData@CPythonPlayer@@UAEXUSItemPos@@ABUpacket_item@@@Z ; CPythonPlayer::SetItemData
PUBLIC	?GetItemData@CPythonPlayer@@QBEPBUpacket_item@@USItemPos@@@Z ; CPythonPlayer::GetItemData
PUBLIC	?MoveItemData@CPythonPlayer@@QAEXUSItemPos@@0@Z	; CPythonPlayer::MoveItemData
PUBLIC	?NotifyChangePKMode@CPythonPlayer@@UAEXXZ	; CPythonPlayer::NotifyChangePKMode
PUBLIC	?NotifyCharacterUpdate@CPythonPlayer@@UAEXK@Z	; CPythonPlayer::NotifyCharacterUpdate
PUBLIC	?NotifyCharacterDead@CPythonPlayer@@UAEXK@Z	; CPythonPlayer::NotifyCharacterDead
PUBLIC	?NotifyDeletingCharacterInstance@CPythonPlayer@@UAEXK@Z ; CPythonPlayer::NotifyDeletingCharacterInstance
PUBLIC	?GetName@CPythonPlayer@@UAEPBDXZ		; CPythonPlayer::GetName
PUBLIC	?GetStatus@CPythonPlayer@@UAEHK@Z		; CPythonPlayer::GetStatus
PUBLIC	?__UpdateBattleStatus@CPythonPlayer@@IAEXXZ	; CPythonPlayer::__UpdateBattleStatus
PUBLIC	?__GetEvadeRate@CPythonPlayer@@IAEKXZ		; CPythonPlayer::__GetEvadeRate
PUBLIC	?__GetHitRate@CPythonPlayer@@IAEKXZ		; CPythonPlayer::__GetHitRate
PUBLIC	?__GetTotalAtk@CPythonPlayer@@IAEKKK@Z		; CPythonPlayer::__GetTotalAtk
PUBLIC	?__GetWeaponAtk@CPythonPlayer@@IAEKK@Z		; CPythonPlayer::__GetWeaponAtk
PUBLIC	?__GetStatAtk@CPythonPlayer@@IAEKXZ		; CPythonPlayer::__GetStatAtk
PUBLIC	?__GetLevelAtk@CPythonPlayer@@IAEKXZ		; CPythonPlayer::__GetLevelAtk
PUBLIC	?__GetRaceStat@CPythonPlayer@@IAEKXZ		; CPythonPlayer::__GetRaceStat
PUBLIC	?GetRace@CPythonPlayer@@QAEKXZ			; CPythonPlayer::GetRace
PUBLIC	?SetRace@CPythonPlayer@@UAEXK@Z			; CPythonPlayer::SetRace
PUBLIC	?SetWeaponPower@CPythonPlayer@@UAEXKKKKK@Z	; CPythonPlayer::SetWeaponPower
PUBLIC	?IsMainCharacterIndex@CPythonPlayer@@UAE_NK@Z	; CPythonPlayer::IsMainCharacterIndex
PUBLIC	?GetMainCharacterIndex@CPythonPlayer@@UAEKXZ	; CPythonPlayer::GetMainCharacterIndex
PUBLIC	?SetMainCharacterIndex@CPythonPlayer@@UAEXH@Z	; CPythonPlayer::SetMainCharacterIndex
PUBLIC	?__Update_NotifyGuildAreaEvent@CPythonPlayer@@IAEXXZ ; CPythonPlayer::__Update_NotifyGuildAreaEvent
PUBLIC	?__Update_AutoAttack@CPythonPlayer@@IAEXXZ	; CPythonPlayer::__Update_AutoAttack
PUBLIC	?__IsUsingChargeSkill@CPythonPlayer@@IAE_NXZ	; CPythonPlayer::__IsUsingChargeSkill
PUBLIC	?NEW_GetMainActorPtr@CPythonPlayer@@UAEPAVCInstanceBase@@XZ ; CPythonPlayer::NEW_GetMainActorPtr
PUBLIC	?NEW_FindActorPtr@CPythonPlayer@@QAEPAVCInstanceBase@@K@Z ; CPythonPlayer::NEW_FindActorPtr
PUBLIC	?NEW_ShowEffect@CPythonPlayer@@IAEXHUD3DXVECTOR3@@@Z ; CPythonPlayer::NEW_ShowEffect
PUBLIC	?RegisterEffect@CPythonPlayer@@QAE_NKPBD_N@Z	; CPythonPlayer::RegisterEffect
PUBLIC	?__GetPickedGroundPos@CPythonPlayer@@IAE_NPAUD3DXVECTOR3@@@Z ; CPythonPlayer::__GetPickedGroundPos
PUBLIC	?__GetPickedItemID@CPythonPlayer@@IAE_NPAK@Z	; CPythonPlayer::__GetPickedItemID
PUBLIC	?__GetPickedActorID@CPythonPlayer@@IAE_NPAK@Z	; CPythonPlayer::__GetPickedActorID
PUBLIC	?__GetPickedActorPtr@CPythonPlayer@@IAE_NPAPAVCInstanceBase@@@Z ; CPythonPlayer::__GetPickedActorPtr
PUBLIC	?AffectIndexToSkillIndex@CPythonPlayer@@QAE_NKPAK@Z ; CPythonPlayer::AffectIndexToSkillIndex
PUBLIC	?GetPoint@SPlayerStatus@CPythonPlayer@@QAEJI@Z	; CPythonPlayer::SPlayerStatus::GetPoint
PUBLIC	?SetPoint@SPlayerStatus@CPythonPlayer@@QAEXIJ@Z	; CPythonPlayer::SPlayerStatus::SetPoint
PUBLIC	??0SAutoPotionInfo@CPythonPlayer@@QAE@XZ	; CPythonPlayer::SAutoPotionInfo::SAutoPotionInfo
PUBLIC	??0SPartyMemberInfo@CPythonPlayer@@QAE@KPBD@Z	; CPythonPlayer::SPartyMemberInfo::SPartyMemberInfo
PUBLIC	??_GIAbstractPlayer@@UAEPAXI@Z			; IAbstractPlayer::`scalar deleting destructor'
PUBLIC	??1IAbstractPlayer@@UAE@XZ			; IAbstractPlayer::~IAbstractPlayer
PUBLIC	??0IAbstractPlayer@@QAE@XZ			; IAbstractPlayer::IAbstractPlayer
PUBLIC	?Clear@CPythonPlayer@@QAEXXZ			; CPythonPlayer::Clear
PUBLIC	?SetName@CPythonPlayer@@QAEXPBD@Z		; CPythonPlayer::SetName
PUBLIC	?RememberChallengeInstance@CPythonPlayer@@QAEXK@Z ; CPythonPlayer::RememberChallengeInstance
PUBLIC	?RememberCantFightInstance@CPythonPlayer@@QAEXK@Z ; CPythonPlayer::RememberCantFightInstance
PUBLIC	?RememberRevengeInstance@CPythonPlayer@@QAEXK@Z	; CPythonPlayer::RememberRevengeInstance
PUBLIC	?ForgetInstance@CPythonPlayer@@QAEXK@Z		; CPythonPlayer::ForgetInstance
PUBLIC	?SetStatus@CPythonPlayer@@QAEXKJ@Z		; CPythonPlayer::SetStatus
PUBLIC	?NotifyDeadMainCharacter@CPythonPlayer@@QAEXXZ	; CPythonPlayer::NotifyDeadMainCharacter
PUBLIC	?GetSkillSlotIndex@CPythonPlayer@@QAE_NKPAK@Z	; CPythonPlayer::GetSkillSlotIndex
PUBLIC	?SetSkillLevel@CPythonPlayer@@QAEXKK@Z		; CPythonPlayer::SetSkillLevel
PUBLIC	?SetSkill@CPythonPlayer@@QAEXKK@Z		; CPythonPlayer::SetSkill
PUBLIC	?SetSkillLevel_@CPythonPlayer@@QAEXKKK@Z	; CPythonPlayer::SetSkillLevel_
PUBLIC	?AppendPartyMember@CPythonPlayer@@QAEXKPBD@Z	; CPythonPlayer::AppendPartyMember
PUBLIC	?GetPartyMemberPtr@CPythonPlayer@@QAE_NKPAPAUSPartyMemberInfo@1@@Z ; CPythonPlayer::GetPartyMemberPtr
PUBLIC	?UpdatePartyMemberInfo@CPythonPlayer@@QAEXKEE@Z	; CPythonPlayer::UpdatePartyMemberInfo
PUBLIC	?UpdatePartyMemberAffect@CPythonPlayer@@QAEXKEF@Z ; CPythonPlayer::UpdatePartyMemberAffect
PUBLIC	?PartyMemberPIDToVID@CPythonPlayer@@QAE_NKPAK@Z	; CPythonPlayer::PartyMemberPIDToVID
PUBLIC	?LinkPartyMember@CPythonPlayer@@QAEXKK@Z	; CPythonPlayer::LinkPartyMember
PUBLIC	?UnlinkPartyMember@CPythonPlayer@@QAEXK@Z	; CPythonPlayer::UnlinkPartyMember
PUBLIC	?SetDungeonDestinationPosition@CPythonPlayer@@QAEXHH@Z ; CPythonPlayer::SetDungeonDestinationPosition
PUBLIC	?ClosePrivateShop@CPythonPlayer@@QAEXXZ		; CPythonPlayer::ClosePrivateShop
PUBLIC	?OpenPrivateShop@CPythonPlayer@@QAEXXZ		; CPythonPlayer::OpenPrivateShop
PUBLIC	?NEW_ClearSkillData@CPythonPlayer@@QAEX_N@Z	; CPythonPlayer::NEW_ClearSkillData
PUBLIC	??0CPythonPlayer@@QAE@XZ			; CPythonPlayer::CPythonPlayer
PUBLIC	??1CPythonPlayer@@UAE@XZ			; CPythonPlayer::~CPythonPlayer
PUBLIC	?NEW_GetMainActorPosition@CPythonPlayer@@QAEXPAUD3DXVECTOR3@@@Z ; CPythonPlayer::NEW_GetMainActorPosition
PUBLIC	?Update@CPythonPlayer@@QAEXXZ			; CPythonPlayer::Update
PUBLIC	?IsObserverMode@CPythonPlayer@@QAE_NXZ		; CPythonPlayer::IsObserverMode
EXTRN	??_EIAbstractPlayer@@UAEPAXI@Z:PROC		; IAbstractPlayer::`vector deleting destructor'
EXTRN	??_E?$TAbstractSingleton@VIAbstractPlayer@@@@UAEPAXI@Z:PROC ; TAbstractSingleton<IAbstractPlayer>::`vector deleting destructor'
EXTRN	??_ECPythonPlayer@@UAEPAXI@Z:PROC		; CPythonPlayer::`vector deleting destructor'
EXTRN	??_E?$CSingleton@VCPythonPlayer@@@@UAEPAXI@Z:PROC ; CSingleton<CPythonPlayer>::`vector deleting destructor'
;	COMDAT ?s_kQuickSlot@?4??__RefGlobalQuickSlot@CPythonPlayer@@IAEAAUSQuickSlot@@H@Z@4U3@A
_BSS	SEGMENT
?s_kQuickSlot@?4??__RefGlobalQuickSlot@CPythonPlayer@@IAEAAUSQuickSlot@@H@Z@4U3@A DW 01H DUP (?) ; `CPythonPlayer::__RefGlobalQuickSlot'::`5'::s_kQuickSlot
_BSS	ENDS
;	COMDAT xdata$x
xdata$x	SEGMENT
__ehfuncinfo$??0CPythonPlayer@@QAE@XZ DD 019930522H
	DD	09H
	DD	FLAT:__unwindtable$??0CPythonPlayer@@QAE@XZ
	DD	2 DUP(00H)
	DD	2 DUP(00H)
	DD	00H
	DD	01H
	ORG $+4
__unwindtable$??0CPythonPlayer@@QAE@XZ DD 0ffffffffH
	DD	FLAT:__unwindfunclet$??0CPythonPlayer@@QAE@XZ$0
	DD	00H
	DD	FLAT:__unwindfunclet$??0CPythonPlayer@@QAE@XZ$1
	DD	01H
	DD	FLAT:__unwindfunclet$??0CPythonPlayer@@QAE@XZ$2
	DD	02H
	DD	FLAT:__unwindfunclet$??0CPythonPlayer@@QAE@XZ$3
	DD	03H
	DD	FLAT:__unwindfunclet$??0CPythonPlayer@@QAE@XZ$4
	DD	04H
	DD	FLAT:__unwindfunclet$??0CPythonPlayer@@QAE@XZ$5
	DD	05H
	DD	FLAT:__unwindfunclet$??0CPythonPlayer@@QAE@XZ$6
	DD	06H
	DD	FLAT:__unwindfunclet$??0CPythonPlayer@@QAE@XZ$7
	DD	07H
	DD	FLAT:__unwindfunclet$??0CPythonPlayer@@QAE@XZ$8
xdata$x	ENDS
;	COMDAT xdata$x
xdata$x	SEGMENT
__ehfuncinfo$?AppendPartyMember@CPythonPlayer@@QAEXKPBD@Z DD 019930522H
	DD	02H
	DD	FLAT:__unwindtable$?AppendPartyMember@CPythonPlayer@@QAEXKPBD@Z
	DD	2 DUP(00H)
	DD	2 DUP(00H)
	DD	00H
	DD	01H
__unwindtable$?AppendPartyMember@CPythonPlayer@@QAEXKPBD@Z DD 0ffffffffH
	DD	FLAT:__unwindfunclet$?AppendPartyMember@CPythonPlayer@@QAEXKPBD@Z$0
	DD	00H
	DD	FLAT:__unwindfunclet$?AppendPartyMember@CPythonPlayer@@QAEXKPBD@Z$1
xdata$x	ENDS
;	COMDAT xdata$x
xdata$x	SEGMENT
__ehfuncinfo$??A?$map@KKU?$less@K@std@@V?$allocator@U?$pair@$$CBKK@std@@@2@@std@@QAEAAKABK@Z DD 019930522H
	DD	01H
	DD	FLAT:__unwindtable$??A?$map@KKU?$less@K@std@@V?$allocator@U?$pair@$$CBKK@std@@@2@@std@@QAEAAKABK@Z
	DD	2 DUP(00H)
	DD	2 DUP(00H)
	DD	00H
	DD	01H
__unwindtable$??A?$map@KKU?$less@K@std@@V?$allocator@U?$pair@$$CBKK@std@@@2@@std@@QAEAAKABK@Z DD 0ffffffffH
	DD	FLAT:__unwindfunclet$??A?$map@KKU?$less@K@std@@V?$allocator@U?$pair@$$CBKK@std@@@2@@std@@QAEAAKABK@Z$2
xdata$x	ENDS
;	COMDAT xdata$x
xdata$x	SEGMENT
__ehfuncinfo$??$emplace@U?$pair@KUSPartyMemberInfo@CPythonPlayer@@@std@@@?$_Tree@V?$_Tmap_traits@KUSPartyMemberInfo@CPythonPlayer@@U?$less@K@std@@V?$allocator@U?$pair@$$CBKUSPartyMemberInfo@CPythonPlayer@@@std@@@4@$0A@@std@@@std@@QAE?AU?$pair@V?$_Tree_iterator@V?$_Tree_val@U?$_Tree_simple_types@U?$pair@$$CBKUSPartyMemberInfo@CPythonPlayer@@@std@@@std@@@std@@@std@@_N@1@$$QAU?$pair@KUSPartyMemberInfo@CPythonPlayer@@@1@@Z DD 019930522H
	DD	01H
	DD	FLAT:__unwindtable$??$emplace@U?$pair@KUSPartyMemberInfo@CPythonPlayer@@@std@@@?$_Tree@V?$_Tmap_traits@KUSPartyMemberInfo@CPythonPlayer@@U?$less@K@std@@V?$allocator@U?$pair@$$CBKUSPartyMemberInfo@CPythonPlayer@@@std@@@4@$0A@@std@@@std@@QAE?AU?$pair@V?$_Tree_iterator@V?$_Tree_val@U?$_Tree_simple_types@U?$pair@$$CBKUSPartyMemberInfo@CPythonPlayer@@@std@@@std@@@std@@@std@@_N@1@$$QAU?$pair@KUSPartyMemberInfo@CPythonPlayer@@@1@@Z
	DD	2 DUP(00H)
	DD	2 DUP(00H)
	DD	00H
	DD	01H
__unwindtable$??$emplace@U?$pair@KUSPartyMemberInfo@CPythonPlayer@@@std@@@?$_Tree@V?$_Tmap_traits@KUSPartyMemberInfo@CPythonPlayer@@U?$less@K@std@@V?$allocator@U?$pair@$$CBKUSPartyMemberInfo@CPythonPlayer@@@std@@@4@$0A@@std@@@std@@QAE?AU?$pair@V?$_Tree_iterator@V?$_Tree_val@U?$_Tree_simple_types@U?$pair@$$CBKUSPartyMemberInfo@CPythonPlayer@@@std@@@std@@@std@@@std@@_N@1@$$QAU?$pair@KUSPartyMemberInfo@CPythonPlayer@@@1@@Z DD 0ffffffffH
	DD	FLAT:__unwindfunclet$??$emplace@U?$pair@KUSPartyMemberInfo@CPythonPlayer@@@std@@@?$_Tree@V?$_Tmap_traits@KUSPartyMemberInfo@CPythonPlayer@@U?$less@K@std@@V?$allocator@U?$pair@$$CBKUSPartyMemberInfo@CPythonPlayer@@@std@@@4@$0A@@std@@@std@@QAE?AU?$pair@V?$_Tree_iterator@V?$_Tree_val@U?$_Tree_simple_types@U?$pair@$$CBKUSPartyMemberInfo@CPythonPlayer@@@std@@@std@@@std@@@std@@_N@1@$$QAU?$pair@KUSPartyMemberInfo@CPythonPlayer@@@1@@Z$2
xdata$x	ENDS
;	COMDAT xdata$x
xdata$x	SEGMENT
__ehfuncinfo$??$_Try_emplace@ABK$$V@?$map@KKU?$less@K@std@@V?$allocator@U?$pair@$$CBKK@std@@@2@@std@@AAE?AU?$pair@PAU?$_Tree_node@U?$pair@$$CBKK@std@@PAX@std@@_N@1@ABK@Z DD 019930522H
	DD	01H
	DD	FLAT:__unwindtable$??$_Try_emplace@ABK$$V@?$map@KKU?$less@K@std@@V?$allocator@U?$pair@$$CBKK@std@@@2@@std@@AAE?AU?$pair@PAU?$_Tree_node@U?$pair@$$CBKK@std@@PAX@std@@_N@1@ABK@Z
	DD	2 DUP(00H)
	DD	2 DUP(00H)
	DD	00H
	DD	01H
__unwindtable$??$_Try_emplace@ABK$$V@?$map@KKU?$less@K@std@@V?$allocator@U?$pair@$$CBKK@std@@@2@@std@@AAE?AU?$pair@PAU?$_Tree_node@U?$pair@$$CBKK@std@@PAX@std@@_N@1@ABK@Z DD 0ffffffffH
	DD	FLAT:__unwindfunclet$??$_Try_emplace@ABK$$V@?$map@KKU?$less@K@std@@V?$allocator@U?$pair@$$CBKK@std@@@2@@std@@AAE?AU?$pair@PAU?$_Tree_node@U?$pair@$$CBKK@std@@PAX@std@@_N@1@ABK@Z$2
xdata$x	ENDS
;	COMDAT xdata$x
xdata$x	SEGMENT
__ehfuncinfo$??$_Emplace@U?$pair@KUSPartyMemberInfo@CPythonPlayer@@@std@@@?$_Tree@V?$_Tmap_traits@KUSPartyMemberInfo@CPythonPlayer@@U?$less@K@std@@V?$allocator@U?$pair@$$CBKUSPartyMemberInfo@CPythonPlayer@@@std@@@4@$0A@@std@@@std@@IAE?AU?$pair@PAU?$_Tree_node@U?$pair@$$CBKUSPartyMemberInfo@CPythonPlayer@@@std@@PAX@std@@_N@1@$$QAU?$pair@KUSPartyMemberInfo@CPythonPlayer@@@1@@Z DD 019930522H
	DD	01H
	DD	FLAT:__unwindtable$??$_Emplace@U?$pair@KUSPartyMemberInfo@CPythonPlayer@@@std@@@?$_Tree@V?$_Tmap_traits@KUSPartyMemberInfo@CPythonPlayer@@U?$less@K@std@@V?$allocator@U?$pair@$$CBKUSPartyMemberInfo@CPythonPlayer@@@std@@@4@$0A@@std@@@std@@IAE?AU?$pair@PAU?$_Tree_node@U?$pair@$$CBKUSPartyMemberInfo@CPythonPlayer@@@std@@PAX@std@@_N@1@$$QAU?$pair@KUSPartyMemberInfo@CPythonPlayer@@@1@@Z
	DD	2 DUP(00H)
	DD	2 DUP(00H)
	DD	00H
	DD	01H
__unwindtable$??$_Emplace@U?$pair@KUSPartyMemberInfo@CPythonPlayer@@@std@@@?$_Tree@V?$_Tmap_traits@KUSPartyMemberInfo@CPythonPlayer@@U?$less@K@std@@V?$allocator@U?$pair@$$CBKUSPartyMemberInfo@CPythonPlayer@@@std@@@4@$0A@@std@@@std@@IAE?AU?$pair@PAU?$_Tree_node@U?$pair@$$CBKUSPartyMemberInfo@CPythonPlayer@@@std@@PAX@std@@_N@1@$$QAU?$pair@KUSPartyMemberInfo@CPythonPlayer@@@1@@Z DD 0ffffffffH
	DD	FLAT:__unwindfunclet$??$_Emplace@U?$pair@KUSPartyMemberInfo@CPythonPlayer@@@std@@@?$_Tree@V?$_Tmap_traits@KUSPartyMemberInfo@CPythonPlayer@@U?$less@K@std@@V?$allocator@U?$pair@$$CBKUSPartyMemberInfo@CPythonPlayer@@@std@@@4@$0A@@std@@@std@@IAE?AU?$pair@PAU?$_Tree_node@U?$pair@$$CBKUSPartyMemberInfo@CPythonPlayer@@@std@@PAX@std@@_N@1@$$QAU?$pair@KUSPartyMemberInfo@CPythonPlayer@@@1@@Z$2
xdata$x	ENDS
;	COMDAT xdata$x
xdata$x	SEGMENT
__ehfuncinfo$??$?0ABUpiecewise_construct_t@std@@V?$tuple@ABK@1@V?$tuple@$$V@1@@?$_Tree_temp_node@V?$allocator@U?$_Tree_node@U?$pair@$$CBKK@std@@PAX@std@@@std@@@std@@QAE@AAV?$allocator@U?$_Tree_node@U?$pair@$$CBKK@std@@PAX@std@@@1@PAU?$_Tree_node@U?$pair@$$CBKK@std@@PAX@1@ABUpiecewise_construct_t@1@$$QAV?$tuple@ABK@1@$$QAV?$tuple@$$V@1@@Z DD 019930522H
	DD	01H
	DD	FLAT:__unwindtable$??$?0ABUpiecewise_construct_t@std@@V?$tuple@ABK@1@V?$tuple@$$V@1@@?$_Tree_temp_node@V?$allocator@U?$_Tree_node@U?$pair@$$CBKK@std@@PAX@std@@@std@@@std@@QAE@AAV?$allocator@U?$_Tree_node@U?$pair@$$CBKK@std@@PAX@std@@@1@PAU?$_Tree_node@U?$pair@$$CBKK@std@@PAX@1@ABUpiecewise_construct_t@1@$$QAV?$tuple@ABK@1@$$QAV?$tuple@$$V@1@@Z
	DD	2 DUP(00H)
	DD	2 DUP(00H)
	DD	00H
	DD	01H
__unwindtable$??$?0ABUpiecewise_construct_t@std@@V?$tuple@ABK@1@V?$tuple@$$V@1@@?$_Tree_temp_node@V?$allocator@U?$_Tree_node@U?$pair@$$CBKK@std@@PAX@std@@@std@@@std@@QAE@AAV?$allocator@U?$_Tree_node@U?$pair@$$CBKK@std@@PAX@std@@@1@PAU?$_Tree_node@U?$pair@$$CBKK@std@@PAX@1@ABUpiecewise_construct_t@1@$$QAV?$tuple@ABK@1@$$QAV?$tuple@$$V@1@@Z DD 0ffffffffH
	DD	FLAT:__unwindfunclet$??$?0ABUpiecewise_construct_t@std@@V?$tuple@ABK@1@V?$tuple@$$V@1@@?$_Tree_temp_node@V?$allocator@U?$_Tree_node@U?$pair@$$CBKK@std@@PAX@std@@@std@@@std@@QAE@AAV?$allocator@U?$_Tree_node@U?$pair@$$CBKK@std@@PAX@std@@@1@PAU?$_Tree_node@U?$pair@$$CBKK@std@@PAX@1@ABUpiecewise_construct_t@1@$$QAV?$tuple@ABK@1@$$QAV?$tuple@$$V@1@@Z$1
xdata$x	ENDS
;	COMDAT xdata$x
xdata$x	SEGMENT
__ehfuncinfo$??$?0U?$pair@KUSPartyMemberInfo@CPythonPlayer@@@std@@@?$_Tree_temp_node@V?$allocator@U?$_Tree_node@U?$pair@$$CBKUSPartyMemberInfo@CPythonPlayer@@@std@@PAX@std@@@std@@@std@@QAE@AAV?$allocator@U?$_Tree_node@U?$pair@$$CBKUSPartyMemberInfo@CPythonPlayer@@@std@@PAX@std@@@1@PAU?$_Tree_node@U?$pair@$$CBKUSPartyMemberInfo@CPythonPlayer@@@std@@PAX@1@$$QAU?$pair@KUSPartyMemberInfo@CPythonPlayer@@@1@@Z DD 019930522H
	DD	01H
	DD	FLAT:__unwindtable$??$?0U?$pair@KUSPartyMemberInfo@CPythonPlayer@@@std@@@?$_Tree_temp_node@V?$allocator@U?$_Tree_node@U?$pair@$$CBKUSPartyMemberInfo@CPythonPlayer@@@std@@PAX@std@@@std@@@std@@QAE@AAV?$allocator@U?$_Tree_node@U?$pair@$$CBKUSPartyMemberInfo@CPythonPlayer@@@std@@PAX@std@@@1@PAU?$_Tree_node@U?$pair@$$CBKUSPartyMemberInfo@CPythonPlayer@@@std@@PAX@1@$$QAU?$pair@KUSPartyMemberInfo@CPythonPlayer@@@1@@Z
	DD	2 DUP(00H)
	DD	2 DUP(00H)
	DD	00H
	DD	01H
__unwindtable$??$?0U?$pair@KUSPartyMemberInfo@CPythonPlayer@@@std@@@?$_Tree_temp_node@V?$allocator@U?$_Tree_node@U?$pair@$$CBKUSPartyMemberInfo@CPythonPlayer@@@std@@PAX@std@@@std@@@std@@QAE@AAV?$allocator@U?$_Tree_node@U?$pair@$$CBKUSPartyMemberInfo@CPythonPlayer@@@std@@PAX@std@@@1@PAU?$_Tree_node@U?$pair@$$CBKUSPartyMemberInfo@CPythonPlayer@@@std@@PAX@1@$$QAU?$pair@KUSPartyMemberInfo@CPythonPlayer@@@1@@Z DD 0ffffffffH
	DD	FLAT:__unwindfunclet$??$?0U?$pair@KUSPartyMemberInfo@CPythonPlayer@@@std@@@?$_Tree_temp_node@V?$allocator@U?$_Tree_node@U?$pair@$$CBKUSPartyMemberInfo@CPythonPlayer@@@std@@PAX@std@@@std@@@std@@QAE@AAV?$allocator@U?$_Tree_node@U?$pair@$$CBKUSPartyMemberInfo@CPythonPlayer@@@std@@PAX@std@@@1@PAU?$_Tree_node@U?$pair@$$CBKUSPartyMemberInfo@CPythonPlayer@@@std@@PAX@1@$$QAU?$pair@KUSPartyMemberInfo@CPythonPlayer@@@1@@Z$1
xdata$x	ENDS
;	COMDAT xdata$x
xdata$x	SEGMENT
__ehfuncinfo$??0?$_Tree_temp_node_alloc@V?$allocator@U?$_Tree_node@U?$pair@$$CBKUSPartyMemberInfo@CPythonPlayer@@@std@@PAX@std@@@std@@@std@@QAE@AAV?$allocator@U?$_Tree_node@U?$pair@$$CBKUSPartyMemberInfo@CPythonPlayer@@@std@@PAX@std@@@1@@Z DD 019930522H
	DD	01H
	DD	FLAT:__unwindtable$??0?$_Tree_temp_node_alloc@V?$allocator@U?$_Tree_node@U?$pair@$$CBKUSPartyMemberInfo@CPythonPlayer@@@std@@PAX@std@@@std@@@std@@QAE@AAV?$allocator@U?$_Tree_node@U?$pair@$$CBKUSPartyMemberInfo@CPythonPlayer@@@std@@PAX@std@@@1@@Z
	DD	2 DUP(00H)
	DD	2 DUP(00H)
	DD	00H
	DD	01H
__unwindtable$??0?$_Tree_temp_node_alloc@V?$allocator@U?$_Tree_node@U?$pair@$$CBKUSPartyMemberInfo@CPythonPlayer@@@std@@PAX@std@@@std@@@std@@QAE@AAV?$allocator@U?$_Tree_node@U?$pair@$$CBKUSPartyMemberInfo@CPythonPlayer@@@std@@PAX@std@@@1@@Z DD 0ffffffffH
	DD	FLAT:__unwindfunclet$??0?$_Tree_temp_node_alloc@V?$allocator@U?$_Tree_node@U?$pair@$$CBKUSPartyMemberInfo@CPythonPlayer@@@std@@PAX@std@@@std@@@std@@QAE@AAV?$allocator@U?$_Tree_node@U?$pair@$$CBKUSPartyMemberInfo@CPythonPlayer@@@std@@PAX@std@@@1@@Z$0
; Function compile flags: /Ogtp
; File D:\_m2work\Server Client TMP4\ClientVS22\source\UserInterface\PythonPlayer.cpp
;	COMDAT ?IsObserverMode@CPythonPlayer@@QAE_NXZ
_TEXT	SEGMENT
?IsObserverMode@CPythonPlayer@@QAE_NXZ PROC		; CPythonPlayer::IsObserverMode, COMDAT
; _this$ = ecx

; 1506 : 	return m_isObserverMode;

  00000	8a 81 a5 f7 00
	00		 mov	 al, BYTE PTR [ecx+63397]

; 1507 : }

  00006	c3		 ret	 0
?IsObserverMode@CPythonPlayer@@QAE_NXZ ENDP		; CPythonPlayer::IsObserverMode
_TEXT	ENDS
; Function compile flags: /Ogtp
; File D:\_m2work\Server Client TMP4\ClientVS22\source\UserInterface\PythonPlayer.cpp
;	COMDAT ?Update@CPythonPlayer@@QAEXXZ
_TEXT	SEGMENT
_PixelPosition$1 = -16					; size = 12
_fElapsedTime$2 = -4					; size = 4
?Update@CPythonPlayer@@QAEXXZ PROC			; CPythonPlayer::Update, COMDAT
; _this$ = ecx

; 141  : {

  00000	55		 push	 ebp
  00001	8b ec		 mov	 ebp, esp
  00003	83 ec 10	 sub	 esp, 16			; 00000010H
  00006	57		 push	 edi
  00007	8b f9		 mov	 edi, ecx

; 142  : 	NEW_RefreshMouseWalkingDirection();

  00009	e8 00 00 00 00	 call	 ?NEW_RefreshMouseWalkingDirection@CPythonPlayer@@IAEXXZ ; CPythonPlayer::NEW_RefreshMouseWalkingDirection

; 143  : 
; 144  : 	CPythonPlayerEventHandler& rkPlayerEventHandler=CPythonPlayerEventHandler::GetSingleton();

  0000e	e8 00 00 00 00	 call	 ?GetSingleton@CPythonPlayerEventHandler@@SAAAV1@XZ ; CPythonPlayerEventHandler::GetSingleton

; 145  : 	rkPlayerEventHandler.FlushVictimList();

  00013	8b c8		 mov	 ecx, eax
  00015	e8 00 00 00 00	 call	 ?FlushVictimList@CPythonPlayerEventHandler@@QAEXXZ ; CPythonPlayerEventHandler::FlushVictimList

; 146  : 
; 147  : 	if (m_isDestPosition)

  0001a	83 bf 74 f7 00
	00 00		 cmp	 DWORD PTR [edi+63348], 0
  00021	74 76		 je	 SHORT $LN6@Update

; 148  : 	{
; 149  : 		CInstanceBase * pInstance = NEW_GetMainActorPtr();

  00023	8b 47 04	 mov	 eax, DWORD PTR [edi+4]
  00026	8d 4f 04	 lea	 ecx, DWORD PTR [edi+4]
  00029	ff 90 88 00 00
	00		 call	 DWORD PTR [eax+136]

; 150  : 		if (pInstance)

  0002f	85 c0		 test	 eax, eax
  00031	74 66		 je	 SHORT $LN6@Update

; 151  : 		{
; 152  : 			TPixelPosition PixelPosition;
; 153  : 			pInstance->NEW_GetPixelPosition(&PixelPosition);

  00033	8d 4d f0	 lea	 ecx, DWORD PTR _PixelPosition$1[ebp]
  00036	51		 push	 ecx
  00037	8b c8		 mov	 ecx, eax
  00039	e8 00 00 00 00	 call	 ?NEW_GetPixelPosition@CInstanceBase@@QAEXPAUD3DXVECTOR3@@@Z ; CInstanceBase::NEW_GetPixelPosition

; 154  : 
; 155  : 			if (abs(int(PixelPosition.x) - m_ixDestPos) + abs(int(PixelPosition.y) - m_iyDestPos) < 10000)

  0003e	f3 0f 2c 45 f4	 cvttss2si eax, DWORD PTR _PixelPosition$1[ebp+4]
  00043	2b 87 7c f7 00
	00		 sub	 eax, DWORD PTR [edi+63356]
  00049	99		 cdq
  0004a	8b c8		 mov	 ecx, eax
  0004c	f3 0f 2c 45 f0	 cvttss2si eax, DWORD PTR _PixelPosition$1[ebp]
  00051	33 ca		 xor	 ecx, edx
  00053	2b ca		 sub	 ecx, edx
  00055	2b 87 78 f7 00
	00		 sub	 eax, DWORD PTR [edi+63352]
  0005b	99		 cdq
  0005c	33 c2		 xor	 eax, edx
  0005e	2b c2		 sub	 eax, edx
  00060	03 c8		 add	 ecx, eax
  00062	81 f9 10 27 00
	00		 cmp	 ecx, 10000		; 00002710H
  00068	7d 0c		 jge	 SHORT $LN4@Update

; 156  : 			{
; 157  : 				m_isDestPosition = FALSE;

  0006a	c7 87 74 f7 00
	00 00 00 00 00	 mov	 DWORD PTR [edi+63348], 0

; 158  : 			}

  00074	eb 23		 jmp	 SHORT $LN6@Update
$LN4@Update:

; 159  : 			else
; 160  : 			{
; 161  : 				if (CTimer::Instance().GetCurrentMillisecond() - m_iLastAlarmTime > 20000)

  00076	8b 0d 00 00 00
	00		 mov	 ecx, DWORD PTR ?ms_singleton@?$CSingleton@VCTimer@@@@0PAVCTimer@@A ; CSingleton<CTimer>::ms_singleton
  0007c	56		 push	 esi
  0007d	8b b7 80 f7 00
	00		 mov	 esi, DWORD PTR [edi+63360]
  00083	e8 00 00 00 00	 call	 ?GetCurrentMillisecond@CTimer@@QAEKXZ ; CTimer::GetCurrentMillisecond
  00088	2b c6		 sub	 eax, esi
  0008a	5e		 pop	 esi
  0008b	3d 20 4e 00 00	 cmp	 eax, 20000		; 00004e20H
  00090	76 07		 jbe	 SHORT $LN6@Update

; 162  : 				{
; 163  : 					AlarmHaveToGo();

  00092	8b cf		 mov	 ecx, edi
  00094	e8 00 00 00 00	 call	 ?AlarmHaveToGo@CPythonPlayer@@QAEXXZ ; CPythonPlayer::AlarmHaveToGo
$LN6@Update:

; 164  : 				}
; 165  : 			}
; 166  : 		}
; 167  : 	}
; 168  : 
; 169  : 	if (m_isConsumingStamina)

  00099	83 bf a8 f7 00
	00 00		 cmp	 DWORD PTR [edi+63400], 0
  000a0	74 5a		 je	 SHORT $LN7@Update

; 170  : 	{
; 171  : 		float fElapsedTime = CTimer::Instance().GetElapsedSecond();

  000a2	8b 0d 00 00 00
	00		 mov	 ecx, DWORD PTR ?ms_singleton@?$CSingleton@VCTimer@@@@0PAVCTimer@@A ; CSingleton<CTimer>::ms_singleton
  000a8	e8 00 00 00 00	 call	 ?GetElapsedSecond@CTimer@@QAEMXZ ; CTimer::GetElapsedSecond

; 172  : 		m_fCurrentStamina -= (fElapsedTime * m_fConsumeStaminaPerSec);

  000ad	f3 0f 10 87 ac
	f7 00 00	 movss	 xmm0, DWORD PTR [edi+63404]
  000b5	d9 5d fc	 fstp	 DWORD PTR _fElapsedTime$2[ebp]
  000b8	f3 0f 10 4d fc	 movss	 xmm1, DWORD PTR _fElapsedTime$2[ebp]
  000bd	f3 0f 59 8f b0
	f7 00 00	 mulss	 xmm1, DWORD PTR [edi+63408]
  000c5	f3 0f 5c c1	 subss	 xmm0, xmm1
  000c9	f3 0f 11 87 ac
	f7 00 00	 movss	 DWORD PTR [edi+63404], xmm0

; 173  : 
; 174  : 		SetStatus(POINT_STAMINA, DWORD(m_fCurrentStamina));

  000d1	e8 00 00 00 00	 call	 __ftol3
  000d6	50		 push	 eax
  000d7	6a 09		 push	 9
  000d9	8b cf		 mov	 ecx, edi
  000db	e8 00 00 00 00	 call	 ?SetStatus@CPythonPlayer@@QAEXKJ@Z ; CPythonPlayer::SetStatus

; 175  : 
; 176  : 		PyCallClassMemberFunc(m_ppyGameWindow, "RefreshStamina", Py_BuildValue("()"));

  000e0	68 00 00 00 00	 push	 OFFSET ??_C@_02HCKGKOFO@?$CI?$CJ@
  000e5	ff 15 00 00 00
	00		 call	 DWORD PTR __imp__Py_BuildValue
  000eb	50		 push	 eax
  000ec	68 00 00 00 00	 push	 OFFSET ??_C@_0P@KCGJBOBB@RefreshStamina@
  000f1	ff 77 08	 push	 DWORD PTR [edi+8]
  000f4	e8 00 00 00 00	 call	 ?PyCallClassMemberFunc@@YA_NPAU_object@@PBD0@Z ; PyCallClassMemberFunc
  000f9	83 c4 10	 add	 esp, 16			; 00000010H
$LN7@Update:

; 177  : 	}
; 178  : 
; 179  : 	__Update_AutoAttack();

  000fc	8b cf		 mov	 ecx, edi
  000fe	e8 00 00 00 00	 call	 ?__Update_AutoAttack@CPythonPlayer@@IAEXXZ ; CPythonPlayer::__Update_AutoAttack

; 180  : 	__Update_NotifyGuildAreaEvent();

  00103	8b cf		 mov	 ecx, edi
  00105	e8 00 00 00 00	 call	 ?__Update_NotifyGuildAreaEvent@CPythonPlayer@@IAEXXZ ; CPythonPlayer::__Update_NotifyGuildAreaEvent
  0010a	5f		 pop	 edi

; 181  : }

  0010b	8b e5		 mov	 esp, ebp
  0010d	5d		 pop	 ebp
  0010e	c3		 ret	 0
?Update@CPythonPlayer@@QAEXXZ ENDP			; CPythonPlayer::Update
_TEXT	ENDS
; Function compile flags: /Ogtp
; File D:\_m2work\Server Client TMP4\ClientVS22\source\UserInterface\PythonPlayer.cpp
;	COMDAT ?NEW_GetMainActorPosition@CPythonPlayer@@QAEXPAUD3DXVECTOR3@@@Z
_TEXT	SEGMENT
_pkPPosActor$ = 8					; size = 4
?NEW_GetMainActorPosition@CPythonPlayer@@QAEXPAUD3DXVECTOR3@@@Z PROC ; CPythonPlayer::NEW_GetMainActorPosition, COMDAT
; _this$dead$ = ecx

; 88   : {

  00000	55		 push	 ebp
  00001	8b ec		 mov	 ebp, esp

; 89   : 	TPixelPosition kPPosMainActor;
; 90   : 
; 91   : 	IAbstractPlayer& rkPlayer=IAbstractPlayer::GetSingleton();

  00003	8b 0d 00 00 00
	00		 mov	 ecx, DWORD PTR ?ms_singleton@?$TAbstractSingleton@VIAbstractPlayer@@@@0PAVIAbstractPlayer@@A ; TAbstractSingleton<IAbstractPlayer>::ms_singleton

; 92   : 	CInstanceBase * pInstance = rkPlayer.NEW_GetMainActorPtr();

  00009	8b 01		 mov	 eax, DWORD PTR [ecx]
  0000b	ff 90 88 00 00
	00		 call	 DWORD PTR [eax+136]

; 93   : 	if (pInstance)

  00011	85 c0		 test	 eax, eax
  00013	74 08		 je	 SHORT $LN2@NEW_GetMai

; 94   : 	{
; 95   : 		pInstance->NEW_GetPixelPosition(pkPPosActor);

  00015	8b c8		 mov	 ecx, eax

; 100  : 	}
; 101  : }

  00017	5d		 pop	 ebp

; 94   : 	{
; 95   : 		pInstance->NEW_GetPixelPosition(pkPPosActor);

  00018	e9 00 00 00 00	 jmp	 ?NEW_GetPixelPosition@CInstanceBase@@QAEXPAUD3DXVECTOR3@@@Z ; CInstanceBase::NEW_GetPixelPosition
$LN2@NEW_GetMai:

; 96   : 	}
; 97   : 	else
; 98   : 	{
; 99   : 		CPythonApplication::Instance().GetCenterPosition(pkPPosActor);

  0001d	8b 0d 00 00 00
	00		 mov	 ecx, DWORD PTR ?ms_pInstance@CPythonApplication@@1PAV1@A ; CPythonApplication::ms_pInstance

; 100  : 	}
; 101  : }

  00023	5d		 pop	 ebp

; 96   : 	}
; 97   : 	else
; 98   : 	{
; 99   : 		CPythonApplication::Instance().GetCenterPosition(pkPPosActor);

  00024	e9 00 00 00 00	 jmp	 ?GetCenterPosition@CPythonApplication@@QAEXPAUD3DXVECTOR3@@@Z ; CPythonApplication::GetCenterPosition
?NEW_GetMainActorPosition@CPythonPlayer@@QAEXPAUD3DXVECTOR3@@@Z ENDP ; CPythonPlayer::NEW_GetMainActorPosition
_TEXT	ENDS
; Function compile flags: /Ogtp
; File D:\_m2work\Server Client TMP4\ClientVS22\source\UserInterface\PythonPlayer.cpp
; File C:\Program Files\Microsoft Visual Studio\2022\Community\VC\Tools\MSVC\14.44.35207\include\xtree
; File D:\_m2work\Server Client TMP4\ClientVS22\source\UserInterface\PythonPlayer.cpp
; File C:\Program Files\Microsoft Visual Studio\2022\Community\VC\Tools\MSVC\14.44.35207\include\xtree
; File C:\Program Files\Microsoft Visual Studio\2022\Community\VC\Tools\MSVC\14.44.35207\include\xmemory
; File C:\Program Files\Microsoft Visual Studio\2022\Community\VC\Tools\MSVC\14.44.35207\include\xtree
; File D:\_m2work\Server Client TMP4\ClientVS22\source\UserInterface\PythonPlayer.cpp
; File C:\Program Files\Microsoft Visual Studio\2022\Community\VC\Tools\MSVC\14.44.35207\include\xmemory
; File C:\Program Files\Microsoft Visual Studio\2022\Community\VC\Tools\MSVC\14.44.35207\include\xtree
; File C:\Program Files\Microsoft Visual Studio\2022\Community\VC\Tools\MSVC\14.44.35207\include\xmemory
; File C:\Program Files\Microsoft Visual Studio\2022\Community\VC\Tools\MSVC\14.44.35207\include\xtree
; File D:\_m2work\Server Client TMP4\ClientVS22\source\UserInterface\PythonPlayer.cpp
; File C:\Program Files\Microsoft Visual Studio\2022\Community\VC\Tools\MSVC\14.44.35207\include\xmemory
; File C:\Program Files\Microsoft Visual Studio\2022\Community\VC\Tools\MSVC\14.44.35207\include\xtree
; File C:\Program Files\Microsoft Visual Studio\2022\Community\VC\Tools\MSVC\14.44.35207\include\xmemory
; File C:\Program Files\Microsoft Visual Studio\2022\Community\VC\Tools\MSVC\14.44.35207\include\xtree
; File D:\_m2work\Server Client TMP4\ClientVS22\source\UserInterface\PythonPlayer.cpp
; File C:\Program Files\Microsoft Visual Studio\2022\Community\VC\Tools\MSVC\14.44.35207\include\xmemory
; File C:\Program Files\Microsoft Visual Studio\2022\Community\VC\Tools\MSVC\14.44.35207\include\xtree
; File C:\Program Files\Microsoft Visual Studio\2022\Community\VC\Tools\MSVC\14.44.35207\include\xmemory
; File C:\Program Files\Microsoft Visual Studio\2022\Community\VC\Tools\MSVC\14.44.35207\include\xtree
; File D:\_m2work\Server Client TMP4\ClientVS22\source\UserInterface\PythonPlayer.cpp
; File C:\Program Files\Microsoft Visual Studio\2022\Community\VC\Tools\MSVC\14.44.35207\include\xmemory
; File C:\Program Files\Microsoft Visual Studio\2022\Community\VC\Tools\MSVC\14.44.35207\include\xtree
; File C:\Program Files\Microsoft Visual Studio\2022\Community\VC\Tools\MSVC\14.44.35207\include\xmemory
; File D:\_m2work\Server Client TMP4\ClientVS22\source\UserInterface\PythonPlayer.cpp
; File C:\Program Files\Microsoft Visual Studio\2022\Community\VC\Tools\MSVC\14.44.35207\include\xstring
; File C:\Program Files\Microsoft Visual Studio\2022\Community\VC\Tools\MSVC\14.44.35207\include\xtree
; File D:\_m2work\Server Client TMP4\ClientVS22\source\UserInterface\PythonPlayer.cpp
; File C:\Program Files\Microsoft Visual Studio\2022\Community\VC\Tools\MSVC\14.44.35207\include\xtree
; File C:\Program Files\Microsoft Visual Studio\2022\Community\VC\Tools\MSVC\14.44.35207\include\xmemory
; File D:\_m2work\Server Client TMP4\ClientVS22\source\UserInterface\AbstractSingleton.h
; File D:\_m2work\Server Client TMP4\ClientVS22\source\eterBase\Singleton.h
; File D:\_m2work\Server Client TMP4\ClientVS22\source\UserInterface\AbstractSingleton.h
; File D:\_m2work\Server Client TMP4\ClientVS22\source\eterBase\Singleton.h
; File D:\_m2work\Server Client TMP4\ClientVS22\source\UserInterface\PythonPlayer.cpp
;	COMDAT ??1CPythonPlayer@@UAE@XZ
_TEXT	SEGMENT
??1CPythonPlayer@@UAE@XZ PROC				; CPythonPlayer::~CPythonPlayer, COMDAT
; _this$ = ecx

; 1730 : {

  00000	56		 push	 esi
  00001	57		 push	 edi
  00002	8b f9		 mov	 edi, ecx

; 1731 : }

  00004	8d b7 1c f8 00
	00		 lea	 esi, DWORD PTR [edi+63516]
; File C:\Program Files\Microsoft Visual Studio\2022\Community\VC\Tools\MSVC\14.44.35207\include\xtree

; 777  :         _Erase_tree(_Al, _Myhead->_Parent);

  0000a	8b ce		 mov	 ecx, esi
; File D:\_m2work\Server Client TMP4\ClientVS22\source\UserInterface\PythonPlayer.cpp

; 1730 : {

  0000c	c7 07 00 00 00
	00		 mov	 DWORD PTR [edi], OFFSET ??_7CPythonPlayer@@6B?$CSingleton@VCPythonPlayer@@@@@
  00012	c7 47 04 00 00
	00 00		 mov	 DWORD PTR [edi+4], OFFSET ??_7CPythonPlayer@@6BIAbstractPlayer@@@
; File C:\Program Files\Microsoft Visual Studio\2022\Community\VC\Tools\MSVC\14.44.35207\include\xtree

; 777  :         _Erase_tree(_Al, _Myhead->_Parent);

  00019	8b 06		 mov	 eax, DWORD PTR [esi]
  0001b	ff 70 04	 push	 DWORD PTR [eax+4]
  0001e	56		 push	 esi
  0001f	e8 00 00 00 00	 call	 ??$_Erase_tree@V?$allocator@U?$_Tree_node@U?$pair@$$CBKK@std@@PAX@std@@@std@@@?$_Tree_val@U?$_Tree_simple_types@U?$pair@$$CBKK@std@@@std@@@std@@QAEXAAV?$allocator@U?$_Tree_node@U?$pair@$$CBKK@std@@PAX@std@@@1@PAU?$_Tree_node@U?$pair@$$CBKK@std@@PAX@1@@Z ; std::_Tree_val<std::_Tree_simple_types<std::pair<unsigned long const ,unsigned long> > >::_Erase_tree<std::allocator<std::_Tree_node<std::pair<unsigned long const ,unsigned long>,void *> > >
; File C:\Program Files\Microsoft Visual Studio\2022\Community\VC\Tools\MSVC\14.44.35207\include\xmemory

; 289  :         ::operator delete(_Ptr, _Bytes);

  00024	6a 18		 push	 24			; 00000018H
  00026	ff 36		 push	 DWORD PTR [esi]
  00028	e8 00 00 00 00	 call	 ??3@YAXPAXI@Z		; operator delete
; File C:\Program Files\Microsoft Visual Studio\2022\Community\VC\Tools\MSVC\14.44.35207\include\xtree

; 777  :         _Erase_tree(_Al, _Myhead->_Parent);

  0002d	8b 87 9c f7 00
	00		 mov	 eax, DWORD PTR [edi+63388]
; File D:\_m2work\Server Client TMP4\ClientVS22\source\UserInterface\PythonPlayer.cpp

; 1731 : }

  00033	8d b7 9c f7 00
	00		 lea	 esi, DWORD PTR [edi+63388]
; File C:\Program Files\Microsoft Visual Studio\2022\Community\VC\Tools\MSVC\14.44.35207\include\xmemory

; 289  :         ::operator delete(_Ptr, _Bytes);

  00039	83 c4 08	 add	 esp, 8
; File C:\Program Files\Microsoft Visual Studio\2022\Community\VC\Tools\MSVC\14.44.35207\include\xtree

; 777  :         _Erase_tree(_Al, _Myhead->_Parent);

  0003c	8b ce		 mov	 ecx, esi
  0003e	ff 70 04	 push	 DWORD PTR [eax+4]
  00041	56		 push	 esi
  00042	e8 00 00 00 00	 call	 ??$_Erase_tree@V?$allocator@U?$_Tree_node@KPAX@std@@@std@@@?$_Tree_val@U?$_Tree_simple_types@K@std@@@std@@QAEXAAV?$allocator@U?$_Tree_node@KPAX@std@@@1@PAU?$_Tree_node@KPAX@1@@Z ; std::_Tree_val<std::_Tree_simple_types<unsigned long> >::_Erase_tree<std::allocator<std::_Tree_node<unsigned long,void *> > >
; File C:\Program Files\Microsoft Visual Studio\2022\Community\VC\Tools\MSVC\14.44.35207\include\xmemory

; 289  :         ::operator delete(_Ptr, _Bytes);

  00047	6a 14		 push	 20			; 00000014H
  00049	ff 36		 push	 DWORD PTR [esi]
  0004b	e8 00 00 00 00	 call	 ??3@YAXPAXI@Z		; operator delete
; File C:\Program Files\Microsoft Visual Studio\2022\Community\VC\Tools\MSVC\14.44.35207\include\xtree

; 777  :         _Erase_tree(_Al, _Myhead->_Parent);

  00050	8b 87 94 f7 00
	00		 mov	 eax, DWORD PTR [edi+63380]
; File D:\_m2work\Server Client TMP4\ClientVS22\source\UserInterface\PythonPlayer.cpp

; 1731 : }

  00056	8d b7 94 f7 00
	00		 lea	 esi, DWORD PTR [edi+63380]
; File C:\Program Files\Microsoft Visual Studio\2022\Community\VC\Tools\MSVC\14.44.35207\include\xmemory

; 289  :         ::operator delete(_Ptr, _Bytes);

  0005c	83 c4 08	 add	 esp, 8
; File C:\Program Files\Microsoft Visual Studio\2022\Community\VC\Tools\MSVC\14.44.35207\include\xtree

; 777  :         _Erase_tree(_Al, _Myhead->_Parent);

  0005f	8b ce		 mov	 ecx, esi
  00061	ff 70 04	 push	 DWORD PTR [eax+4]
  00064	56		 push	 esi
  00065	e8 00 00 00 00	 call	 ??$_Erase_tree@V?$allocator@U?$_Tree_node@KPAX@std@@@std@@@?$_Tree_val@U?$_Tree_simple_types@K@std@@@std@@QAEXAAV?$allocator@U?$_Tree_node@KPAX@std@@@1@PAU?$_Tree_node@KPAX@1@@Z ; std::_Tree_val<std::_Tree_simple_types<unsigned long> >::_Erase_tree<std::allocator<std::_Tree_node<unsigned long,void *> > >
; File C:\Program Files\Microsoft Visual Studio\2022\Community\VC\Tools\MSVC\14.44.35207\include\xmemory

; 289  :         ::operator delete(_Ptr, _Bytes);

  0006a	6a 14		 push	 20			; 00000014H
  0006c	ff 36		 push	 DWORD PTR [esi]
  0006e	e8 00 00 00 00	 call	 ??3@YAXPAXI@Z		; operator delete
; File C:\Program Files\Microsoft Visual Studio\2022\Community\VC\Tools\MSVC\14.44.35207\include\xtree

; 777  :         _Erase_tree(_Al, _Myhead->_Parent);

  00073	8b 87 8c f7 00
	00		 mov	 eax, DWORD PTR [edi+63372]
; File D:\_m2work\Server Client TMP4\ClientVS22\source\UserInterface\PythonPlayer.cpp

; 1731 : }

  00079	8d b7 8c f7 00
	00		 lea	 esi, DWORD PTR [edi+63372]
; File C:\Program Files\Microsoft Visual Studio\2022\Community\VC\Tools\MSVC\14.44.35207\include\xmemory

; 289  :         ::operator delete(_Ptr, _Bytes);

  0007f	83 c4 08	 add	 esp, 8
; File C:\Program Files\Microsoft Visual Studio\2022\Community\VC\Tools\MSVC\14.44.35207\include\xtree

; 777  :         _Erase_tree(_Al, _Myhead->_Parent);

  00082	8b ce		 mov	 ecx, esi
  00084	ff 70 04	 push	 DWORD PTR [eax+4]
  00087	56		 push	 esi
  00088	e8 00 00 00 00	 call	 ??$_Erase_tree@V?$allocator@U?$_Tree_node@KPAX@std@@@std@@@?$_Tree_val@U?$_Tree_simple_types@K@std@@@std@@QAEXAAV?$allocator@U?$_Tree_node@KPAX@std@@@1@PAU?$_Tree_node@KPAX@1@@Z ; std::_Tree_val<std::_Tree_simple_types<unsigned long> >::_Erase_tree<std::allocator<std::_Tree_node<unsigned long,void *> > >
; File C:\Program Files\Microsoft Visual Studio\2022\Community\VC\Tools\MSVC\14.44.35207\include\xmemory

; 289  :         ::operator delete(_Ptr, _Bytes);

  0008d	6a 14		 push	 20			; 00000014H
  0008f	ff 36		 push	 DWORD PTR [esi]
  00091	e8 00 00 00 00	 call	 ??3@YAXPAXI@Z		; operator delete
; File C:\Program Files\Microsoft Visual Studio\2022\Community\VC\Tools\MSVC\14.44.35207\include\xtree

; 777  :         _Erase_tree(_Al, _Myhead->_Parent);

  00096	8b 87 84 f7 00
	00		 mov	 eax, DWORD PTR [edi+63364]
; File D:\_m2work\Server Client TMP4\ClientVS22\source\UserInterface\PythonPlayer.cpp

; 1731 : }

  0009c	8d b7 84 f7 00
	00		 lea	 esi, DWORD PTR [edi+63364]
; File C:\Program Files\Microsoft Visual Studio\2022\Community\VC\Tools\MSVC\14.44.35207\include\xmemory

; 289  :         ::operator delete(_Ptr, _Bytes);

  000a2	83 c4 08	 add	 esp, 8
; File C:\Program Files\Microsoft Visual Studio\2022\Community\VC\Tools\MSVC\14.44.35207\include\xtree

; 777  :         _Erase_tree(_Al, _Myhead->_Parent);

  000a5	8b ce		 mov	 ecx, esi
  000a7	ff 70 04	 push	 DWORD PTR [eax+4]
  000aa	56		 push	 esi
  000ab	e8 00 00 00 00	 call	 ??$_Erase_tree@V?$allocator@U?$_Tree_node@U?$pair@$$CBKUSPartyMemberInfo@CPythonPlayer@@@std@@PAX@std@@@std@@@?$_Tree_val@U?$_Tree_simple_types@U?$pair@$$CBKUSPartyMemberInfo@CPythonPlayer@@@std@@@std@@@std@@QAEXAAV?$allocator@U?$_Tree_node@U?$pair@$$CBKUSPartyMemberInfo@CPythonPlayer@@@std@@PAX@std@@@1@PAU?$_Tree_node@U?$pair@$$CBKUSPartyMemberInfo@CPythonPlayer@@@std@@PAX@1@@Z ; std::_Tree_val<std::_Tree_simple_types<std::pair<unsigned long const ,CPythonPlayer::SPartyMemberInfo> > >::_Erase_tree<std::allocator<std::_Tree_node<std::pair<unsigned long const ,CPythonPlayer::SPartyMemberInfo>,void *> > >
; File C:\Program Files\Microsoft Visual Studio\2022\Community\VC\Tools\MSVC\14.44.35207\include\xmemory

; 289  :         ::operator delete(_Ptr, _Bytes);

  000b0	6a 44		 push	 68			; 00000044H
  000b2	ff 36		 push	 DWORD PTR [esi]
  000b4	e8 00 00 00 00	 call	 ??3@YAXPAXI@Z		; operator delete
  000b9	83 c4 08	 add	 esp, 8
; File D:\_m2work\Server Client TMP4\ClientVS22\source\UserInterface\PythonPlayer.cpp

; 1731 : }

  000bc	8d 4f 14	 lea	 ecx, DWORD PTR [edi+20]
; File C:\Program Files\Microsoft Visual Studio\2022\Community\VC\Tools\MSVC\14.44.35207\include\xstring

; 1383 :         _Tidy_deallocate();

  000bf	e8 00 00 00 00	 call	 ?_Tidy_deallocate@?$basic_string@DU?$char_traits@D@std@@V?$allocator@D@2@@std@@AAEXXZ ; std::basic_string<char,std::char_traits<char>,std::allocator<char> >::_Tidy_deallocate
; File C:\Program Files\Microsoft Visual Studio\2022\Community\VC\Tools\MSVC\14.44.35207\include\xtree

; 777  :         _Erase_tree(_Al, _Myhead->_Parent);

  000c4	8b 47 0c	 mov	 eax, DWORD PTR [edi+12]
; File D:\_m2work\Server Client TMP4\ClientVS22\source\UserInterface\PythonPlayer.cpp

; 1731 : }

  000c7	8d 77 0c	 lea	 esi, DWORD PTR [edi+12]
; File C:\Program Files\Microsoft Visual Studio\2022\Community\VC\Tools\MSVC\14.44.35207\include\xtree

; 777  :         _Erase_tree(_Al, _Myhead->_Parent);

  000ca	8b ce		 mov	 ecx, esi
  000cc	ff 70 04	 push	 DWORD PTR [eax+4]
  000cf	56		 push	 esi
  000d0	e8 00 00 00 00	 call	 ??$_Erase_tree@V?$allocator@U?$_Tree_node@U?$pair@$$CBKK@std@@PAX@std@@@std@@@?$_Tree_val@U?$_Tree_simple_types@U?$pair@$$CBKK@std@@@std@@@std@@QAEXAAV?$allocator@U?$_Tree_node@U?$pair@$$CBKK@std@@PAX@std@@@1@PAU?$_Tree_node@U?$pair@$$CBKK@std@@PAX@1@@Z ; std::_Tree_val<std::_Tree_simple_types<std::pair<unsigned long const ,unsigned long> > >::_Erase_tree<std::allocator<std::_Tree_node<std::pair<unsigned long const ,unsigned long>,void *> > >
; File C:\Program Files\Microsoft Visual Studio\2022\Community\VC\Tools\MSVC\14.44.35207\include\xmemory

; 289  :         ::operator delete(_Ptr, _Bytes);

  000d5	6a 18		 push	 24			; 00000018H
  000d7	ff 36		 push	 DWORD PTR [esi]
  000d9	e8 00 00 00 00	 call	 ??3@YAXPAXI@Z		; operator delete
  000de	83 c4 08	 add	 esp, 8
; File D:\_m2work\Server Client TMP4\ClientVS22\source\UserInterface\AbstractSingleton.h

; 17   : 	{ 

  000e1	c7 47 04 00 00
	00 00		 mov	 DWORD PTR [edi+4], OFFSET ??_7?$TAbstractSingleton@VIAbstractPlayer@@@@6B@
; File D:\_m2work\Server Client TMP4\ClientVS22\source\eterBase\Singleton.h

; 19   : 	{ 

  000e8	c7 07 00 00 00
	00		 mov	 DWORD PTR [edi], OFFSET ??_7?$CSingleton@VCPythonPlayer@@@@6B@
; File D:\_m2work\Server Client TMP4\ClientVS22\source\UserInterface\AbstractSingleton.h

; 19   : 		ms_singleton = 0; 

  000ee	c7 05 00 00 00
	00 00 00 00 00	 mov	 DWORD PTR ?ms_singleton@?$TAbstractSingleton@VIAbstractPlayer@@@@0PAVIAbstractPlayer@@A, 0 ; TAbstractSingleton<IAbstractPlayer>::ms_singleton
; File D:\_m2work\Server Client TMP4\ClientVS22\source\eterBase\Singleton.h

; 21   : 		ms_singleton = 0; 

  000f8	c7 05 00 00 00
	00 00 00 00 00	 mov	 DWORD PTR ?ms_singleton@?$CSingleton@VCPythonPlayer@@@@0PAVCPythonPlayer@@A, 0 ; CSingleton<CPythonPlayer>::ms_singleton
  00102	5f		 pop	 edi
  00103	5e		 pop	 esi
; File D:\_m2work\Server Client TMP4\ClientVS22\source\UserInterface\PythonPlayer.cpp

; 1731 : }

  00104	c3		 ret	 0
??1CPythonPlayer@@UAE@XZ ENDP				; CPythonPlayer::~CPythonPlayer
_TEXT	ENDS
; Function compile flags: /Ogtp
; File D:\_m2work\Server Client TMP4\ClientVS22\source\UserInterface\PythonPlayer.cpp
; File D:\_m2work\Server Client TMP4\ClientVS22\source\eterBase\Singleton.h
; File D:\_m2work\Server Client TMP4\ClientVS22\source\UserInterface\PythonPlayer.cpp
; File D:\_m2work\Server Client TMP4\ClientVS22\source\UserInterface\AbstractSingleton.h
; File D:\_m2work\Server Client TMP4\ClientVS22\source\UserInterface\PythonPlayer.cpp
; File C:\Program Files\Microsoft Visual Studio\2022\Community\VC\Tools\MSVC\14.44.35207\include\xmemory
; File C:\Program Files\Microsoft Visual Studio\2022\Community\VC\Tools\MSVC\14.44.35207\include\xtree
; File C:\Program Files\Microsoft Visual Studio\2022\Community\VC\Tools\MSVC\14.44.35207\include\xmemory
; File C:\Program Files\Microsoft Visual Studio\2022\Community\VC\Tools\MSVC\14.44.35207\include\xtree
; File D:\_m2work\Server Client TMP4\ClientVS22\source\UserInterface\PythonPlayer.cpp
; File C:\Program Files\Microsoft Visual Studio\2022\Community\VC\Tools\MSVC\14.44.35207\include\xstring
; File D:\_m2work\Server Client TMP4\ClientVS22\source\UserInterface\PythonPlayer.cpp
; File C:\Program Files\Microsoft Visual Studio\2022\Community\VC\Tools\MSVC\14.44.35207\include\xtree
; File D:\_m2work\Server Client TMP4\ClientVS22\source\UserInterface\PythonPlayer.cpp
; File C:\Program Files\Microsoft Visual Studio\2022\Community\VC\Tools\MSVC\14.44.35207\include\xtree
; File D:\_m2work\Server Client TMP4\ClientVS22\source\UserInterface\PythonPlayer.cpp
; File C:\Program Files\Microsoft Visual Studio\2022\Community\VC\Tools\MSVC\14.44.35207\include\xtree
; File D:\_m2work\Server Client TMP4\ClientVS22\source\UserInterface\PythonPlayer.cpp
; File C:\Program Files\Microsoft Visual Studio\2022\Community\VC\Tools\MSVC\14.44.35207\include\xtree
; File D:\_m2work\Server Client TMP4\ClientVS22\source\UserInterface\PythonPlayer.cpp
; File C:\Program Files\Microsoft Visual Studio\2022\Community\VC\Tools\MSVC\14.44.35207\include\xtree
; File D:\_m2work\Server Client TMP4\ClientVS22\source\UserInterface\PythonPlayer.h
; File D:\_m2work\Server Client TMP4\ClientVS22\source\UserInterface\PythonPlayer.cpp
; File C:\Program Files\Microsoft Visual Studio\2022\Community\VC\Tools\MSVC\14.44.35207\include\xmemory
; File C:\Program Files\Microsoft Visual Studio\2022\Community\VC\Tools\MSVC\14.44.35207\include\xtree
; File C:\Program Files\Microsoft Visual Studio\2022\Community\VC\Tools\MSVC\14.44.35207\include\xmemory
; File C:\Program Files\Microsoft Visual Studio\2022\Community\VC\Tools\MSVC\14.44.35207\include\xtree
; File D:\_m2work\Server Client TMP4\ClientVS22\source\UserInterface\PythonPlayer.cpp
; File C:\Program Files\Microsoft Visual Studio\2022\Community\VC\Tools\MSVC\14.44.35207\include\map
; File C:\Program Files\Microsoft Visual Studio\2022\Community\VC\Tools\MSVC\14.44.35207\include\utility
; File C:\Program Files\Microsoft Visual Studio\2022\Community\VC\Tools\MSVC\14.44.35207\include\map
; File C:\Program Files\Microsoft Visual Studio\2022\Community\VC\Tools\MSVC\14.44.35207\include\utility
; File C:\Program Files\Microsoft Visual Studio\2022\Community\VC\Tools\MSVC\14.44.35207\include\map
; File C:\Program Files\Microsoft Visual Studio\2022\Community\VC\Tools\MSVC\14.44.35207\include\utility
; File C:\Program Files\Microsoft Visual Studio\2022\Community\VC\Tools\MSVC\14.44.35207\include\map
; File C:\Program Files\Microsoft Visual Studio\2022\Community\VC\Tools\MSVC\14.44.35207\include\utility
; File C:\Program Files\Microsoft Visual Studio\2022\Community\VC\Tools\MSVC\14.44.35207\include\map
; File C:\Program Files\Microsoft Visual Studio\2022\Community\VC\Tools\MSVC\14.44.35207\include\utility
; File C:\Program Files\Microsoft Visual Studio\2022\Community\VC\Tools\MSVC\14.44.35207\include\map
; File C:\Program Files\Microsoft Visual Studio\2022\Community\VC\Tools\MSVC\14.44.35207\include\utility
; File C:\Program Files\Microsoft Visual Studio\2022\Community\VC\Tools\MSVC\14.44.35207\include\map
; File C:\Program Files\Microsoft Visual Studio\2022\Community\VC\Tools\MSVC\14.44.35207\include\utility
; File C:\Program Files\Microsoft Visual Studio\2022\Community\VC\Tools\MSVC\14.44.35207\include\map
; File C:\Program Files\Microsoft Visual Studio\2022\Community\VC\Tools\MSVC\14.44.35207\include\utility
; File C:\Program Files\Microsoft Visual Studio\2022\Community\VC\Tools\MSVC\14.44.35207\include\map
; File C:\Program Files\Microsoft Visual Studio\2022\Community\VC\Tools\MSVC\14.44.35207\include\utility
; File C:\Program Files\Microsoft Visual Studio\2022\Community\VC\Tools\MSVC\14.44.35207\include\map
; File C:\Program Files\Microsoft Visual Studio\2022\Community\VC\Tools\MSVC\14.44.35207\include\utility
; File C:\Program Files\Microsoft Visual Studio\2022\Community\VC\Tools\MSVC\14.44.35207\include\map
; File C:\Program Files\Microsoft Visual Studio\2022\Community\VC\Tools\MSVC\14.44.35207\include\utility
; File C:\Program Files\Microsoft Visual Studio\2022\Community\VC\Tools\MSVC\14.44.35207\include\map
; File C:\Program Files\Microsoft Visual Studio\2022\Community\VC\Tools\MSVC\14.44.35207\include\utility
; File C:\Program Files\Microsoft Visual Studio\2022\Community\VC\Tools\MSVC\14.44.35207\include\map
; File C:\Program Files\Microsoft Visual Studio\2022\Community\VC\Tools\MSVC\14.44.35207\include\utility
; File C:\Program Files\Microsoft Visual Studio\2022\Community\VC\Tools\MSVC\14.44.35207\include\map
; File C:\Program Files\Microsoft Visual Studio\2022\Community\VC\Tools\MSVC\14.44.35207\include\utility
; File C:\Program Files\Microsoft Visual Studio\2022\Community\VC\Tools\MSVC\14.44.35207\include\map
; File C:\Program Files\Microsoft Visual Studio\2022\Community\VC\Tools\MSVC\14.44.35207\include\utility
; File C:\Program Files\Microsoft Visual Studio\2022\Community\VC\Tools\MSVC\14.44.35207\include\map
; File C:\Program Files\Microsoft Visual Studio\2022\Community\VC\Tools\MSVC\14.44.35207\include\utility
; File C:\Program Files\Microsoft Visual Studio\2022\Community\VC\Tools\MSVC\14.44.35207\include\map
; File C:\Program Files\Microsoft Visual Studio\2022\Community\VC\Tools\MSVC\14.44.35207\include\utility
; File C:\Program Files\Microsoft Visual Studio\2022\Community\VC\Tools\MSVC\14.44.35207\include\map
; File C:\Program Files\Microsoft Visual Studio\2022\Community\VC\Tools\MSVC\14.44.35207\include\utility
; File C:\Program Files\Microsoft Visual Studio\2022\Community\VC\Tools\MSVC\14.44.35207\include\map
; File C:\Program Files\Microsoft Visual Studio\2022\Community\VC\Tools\MSVC\14.44.35207\include\utility
; File C:\Program Files\Microsoft Visual Studio\2022\Community\VC\Tools\MSVC\14.44.35207\include\map
; File C:\Program Files\Microsoft Visual Studio\2022\Community\VC\Tools\MSVC\14.44.35207\include\utility
; File C:\Program Files\Microsoft Visual Studio\2022\Community\VC\Tools\MSVC\14.44.35207\include\map
; File C:\Program Files\Microsoft Visual Studio\2022\Community\VC\Tools\MSVC\14.44.35207\include\utility
; File C:\Program Files\Microsoft Visual Studio\2022\Community\VC\Tools\MSVC\14.44.35207\include\map
; File C:\Program Files\Microsoft Visual Studio\2022\Community\VC\Tools\MSVC\14.44.35207\include\utility
; File C:\Program Files\Microsoft Visual Studio\2022\Community\VC\Tools\MSVC\14.44.35207\include\map
; File C:\Program Files\Microsoft Visual Studio\2022\Community\VC\Tools\MSVC\14.44.35207\include\utility
; File C:\Program Files\Microsoft Visual Studio\2022\Community\VC\Tools\MSVC\14.44.35207\include\map
; File C:\Program Files\Microsoft Visual Studio\2022\Community\VC\Tools\MSVC\14.44.35207\include\utility
; File C:\Program Files\Microsoft Visual Studio\2022\Community\VC\Tools\MSVC\14.44.35207\include\map
; File D:\_m2work\Server Client TMP4\ClientVS22\source\UserInterface\PythonPlayer.cpp
; File C:\Program Files\Microsoft Visual Studio\2022\Community\VC\Tools\MSVC\14.44.35207\include\utility
; File D:\_m2work\Server Client TMP4\ClientVS22\source\UserInterface\PythonPlayer.cpp
; File C:\Program Files\Microsoft Visual Studio\2022\Community\VC\Tools\MSVC\14.44.35207\include\utility
; File D:\_m2work\Server Client TMP4\ClientVS22\source\UserInterface\PythonPlayer.cpp
; File C:\Program Files\Microsoft Visual Studio\2022\Community\VC\Tools\MSVC\14.44.35207\include\utility
; File D:\_m2work\Server Client TMP4\ClientVS22\source\UserInterface\PythonPlayer.cpp
; File C:\Program Files\Microsoft Visual Studio\2022\Community\VC\Tools\MSVC\14.44.35207\include\utility
; File D:\_m2work\Server Client TMP4\ClientVS22\source\UserInterface\PythonPlayer.cpp
; File C:\Program Files\Microsoft Visual Studio\2022\Community\VC\Tools\MSVC\14.44.35207\include\utility
; File D:\_m2work\Server Client TMP4\ClientVS22\source\UserInterface\PythonPlayer.cpp
; File C:\Program Files\Microsoft Visual Studio\2022\Community\VC\Tools\MSVC\14.44.35207\include\utility
; File D:\_m2work\Server Client TMP4\ClientVS22\source\UserInterface\PythonPlayer.cpp
; File C:\Program Files\Microsoft Visual Studio\2022\Community\VC\Tools\MSVC\14.44.35207\include\utility
; File D:\_m2work\Server Client TMP4\ClientVS22\source\UserInterface\PythonPlayer.cpp
; File C:\Program Files\Microsoft Visual Studio\2022\Community\VC\Tools\MSVC\14.44.35207\include\utility
; File D:\_m2work\Server Client TMP4\ClientVS22\source\UserInterface\PythonPlayer.cpp
; File C:\Program Files\Microsoft Visual Studio\2022\Community\VC\Tools\MSVC\14.44.35207\include\utility
; File D:\_m2work\Server Client TMP4\ClientVS22\source\UserInterface\PythonPlayer.cpp
; File C:\Program Files\Microsoft Visual Studio\2022\Community\VC\Tools\MSVC\14.44.35207\include\utility
; File D:\_m2work\Server Client TMP4\ClientVS22\source\UserInterface\PythonPlayer.cpp
;	COMDAT ??0CPythonPlayer@@QAE@XZ
_TEXT	SEGMENT
$T2 = -32						; size = 8
$T3 = -32						; size = 8
$T4 = -32						; size = 8
$T5 = -32						; size = 8
$T6 = -32						; size = 8
$T7 = -32						; size = 8
$T8 = -32						; size = 8
$T9 = -32						; size = 8
$T10 = -32						; size = 8
$T11 = -32						; size = 8
$T12 = -32						; size = 8
$T13 = -32						; size = 8
$T14 = -32						; size = 8
$T15 = -32						; size = 8
$T16 = -32						; size = 8
$T17 = -32						; size = 8
$T18 = -32						; size = 8
$T19 = -24						; size = 8
$T20 = -24						; size = 8
$T21 = -24						; size = 8
$T22 = -24						; size = 8
$T23 = -24						; size = 8
$T24 = -24						; size = 8
$T25 = -24						; size = 8
$T26 = -24						; size = 8
$T27 = -24						; size = 8
$T28 = -24						; size = 8
$T29 = -24						; size = 8
$T30 = -24						; size = 8
$T31 = -24						; size = 8
$T32 = -24						; size = 8
$T33 = -24						; size = 8
$T34 = -24						; size = 8
$T35 = -24						; size = 8
_this$ = -20						; size = 4
_this$ = -20						; size = 4
_this$ = -20						; size = 4
_this$ = -20						; size = 4
_this$ = -20						; size = 4
_this$ = -20						; size = 4
_this$ = -16						; size = 4
__$EHRec$ = -12						; size = 12
??0CPythonPlayer@@QAE@XZ PROC				; CPythonPlayer::CPythonPlayer, COMDAT
; _this$ = ecx

; 1686 : {

  00000	55		 push	 ebp
  00001	8b ec		 mov	 ebp, esp
  00003	6a ff		 push	 -1
  00005	68 00 00 00 00	 push	 __ehhandler$??0CPythonPlayer@@QAE@XZ
  0000a	64 a1 00 00 00
	00		 mov	 eax, DWORD PTR fs:0
  00010	50		 push	 eax
  00011	83 ec 14	 sub	 esp, 20			; 00000014H
  00014	56		 push	 esi
  00015	57		 push	 edi
  00016	a1 00 00 00 00	 mov	 eax, DWORD PTR ___security_cookie
  0001b	33 c5		 xor	 eax, ebp
  0001d	50		 push	 eax
  0001e	8d 45 f4	 lea	 eax, DWORD PTR __$EHRec$[ebp]
  00021	64 a3 00 00 00
	00		 mov	 DWORD PTR fs:0, eax
  00027	8b f9		 mov	 edi, ecx
  00029	89 7d f0	 mov	 DWORD PTR _this$[ebp], edi
; File D:\_m2work\Server Client TMP4\ClientVS22\source\eterBase\Singleton.h

; 15   : 		ms_singleton = (T*) ((int) this + offset);

  0002c	89 3d 00 00 00
	00		 mov	 DWORD PTR ?ms_singleton@?$CSingleton@VCPythonPlayer@@@@0PAVCPythonPlayer@@A, edi ; CSingleton<CPythonPlayer>::ms_singleton
; File D:\_m2work\Server Client TMP4\ClientVS22\source\UserInterface\PythonPlayer.cpp

; 1686 : {

  00032	8d 47 04	 lea	 eax, DWORD PTR [edi+4]
  00035	c7 45 fc 00 00
	00 00		 mov	 DWORD PTR __$EHRec$[ebp+8], 0
; File D:\_m2work\Server Client TMP4\ClientVS22\source\UserInterface\AbstractSingleton.h

; 13   : 		ms_singleton = (T*) ((int) this + offset);

  0003c	a3 00 00 00 00	 mov	 DWORD PTR ?ms_singleton@?$TAbstractSingleton@VIAbstractPlayer@@@@0PAVIAbstractPlayer@@A, eax ; TAbstractSingleton<IAbstractPlayer>::ms_singleton
; File D:\_m2work\Server Client TMP4\ClientVS22\source\UserInterface\PythonPlayer.cpp

; 1686 : {

  00041	c6 45 fc 01	 mov	 BYTE PTR __$EHRec$[ebp+8], 1
  00045	8d 77 0c	 lea	 esi, DWORD PTR [edi+12]
  00048	c7 07 00 00 00
	00		 mov	 DWORD PTR [edi], OFFSET ??_7CPythonPlayer@@6B?$CSingleton@VCPythonPlayer@@@@@
  0004e	c7 00 00 00 00
	00		 mov	 DWORD PTR [eax], OFFSET ??_7CPythonPlayer@@6BIAbstractPlayer@@@
  00054	89 75 ec	 mov	 DWORD PTR _this$[ebp], esi
; File C:\Program Files\Microsoft Visual Studio\2022\Community\VC\Tools\MSVC\14.44.35207\include\xmemory

; 136  :         return ::operator new(_Bytes);

  00057	6a 18		 push	 24			; 00000018H
; File C:\Program Files\Microsoft Visual Studio\2022\Community\VC\Tools\MSVC\14.44.35207\include\xtree

; 450  :     _Tree_val() noexcept : _Myhead(), _Mysize(0) {}

  00059	c7 06 00 00 00
	00		 mov	 DWORD PTR [esi], 0
  0005f	c7 46 04 00 00
	00 00		 mov	 DWORD PTR [esi+4], 0
; File C:\Program Files\Microsoft Visual Studio\2022\Community\VC\Tools\MSVC\14.44.35207\include\xmemory

; 136  :         return ::operator new(_Bytes);

  00066	e8 00 00 00 00	 call	 ??2@YAPAXI@Z		; operator new
; File C:\Program Files\Microsoft Visual Studio\2022\Community\VC\Tools\MSVC\14.44.35207\include\xtree

; 346  :         _Construct_in_place(_Pnode->_Left, _Pnode);

  0006b	89 00		 mov	 DWORD PTR [eax], eax

; 347  :         _Construct_in_place(_Pnode->_Parent, _Pnode);

  0006d	89 40 04	 mov	 DWORD PTR [eax+4], eax

; 348  :         _Construct_in_place(_Pnode->_Right, _Pnode);

  00070	89 40 08	 mov	 DWORD PTR [eax+8], eax

; 349  :         _Pnode->_Color = _Black;

  00073	66 c7 40 0c 01
	01		 mov	 WORD PTR [eax+12], 257	; 00000101H

; 1957 :         _Scary->_Myhead = _Node::_Buyheadnode(_Getal());

  00079	89 06		 mov	 DWORD PTR [esi], eax
; File D:\_m2work\Server Client TMP4\ClientVS22\source\UserInterface\PythonPlayer.cpp

; 1686 : {

  0007b	0f 57 c0	 xorps	 xmm0, xmm0
; File C:\Program Files\Microsoft Visual Studio\2022\Community\VC\Tools\MSVC\14.44.35207\include\xstring

; 493  :         _CONSTEXPR20 _Bxty() noexcept : _Buf() {} // user-provided, for fancy pointers

  0007e	0f 11 47 14	 movups	 XMMWORD PTR [edi+20], xmm0

; 860  :         _My_data._Mysize = 0;

  00082	c7 47 24 00 00
	00 00		 mov	 DWORD PTR [edi+36], 0

; 861  :         _My_data._Myres  = _Small_string_capacity;

  00089	c7 47 28 0f 00
	00 00		 mov	 DWORD PTR [edi+40], 15	; 0000000fH

; 862  :         _My_data._Activate_SSO_buffer();
; 863  : 
; 864  :         // the _Traits::assign is last so the codegen doesn't think the char write can alias this
; 865  :         _Traits::assign(_My_data._Bx._Buf[0], _Elem());

  00090	c6 47 14 00	 mov	 BYTE PTR [edi+20], 0
; File D:\_m2work\Server Client TMP4\ClientVS22\source\UserInterface\PythonPlayer.cpp

; 1686 : {

  00094	c6 45 fc 03	 mov	 BYTE PTR __$EHRec$[ebp+8], 3
  00098	8d b7 84 f7 00
	00		 lea	 esi, DWORD PTR [edi+63364]
  0009e	89 75 ec	 mov	 DWORD PTR _this$[ebp], esi
; File C:\Program Files\Microsoft Visual Studio\2022\Community\VC\Tools\MSVC\14.44.35207\include\xtree

; 345  :         const auto _Pnode = _Al.allocate(1);

  000a1	6a 44		 push	 68			; 00000044H

; 450  :     _Tree_val() noexcept : _Myhead(), _Mysize(0) {}

  000a3	c7 06 00 00 00
	00		 mov	 DWORD PTR [esi], 0
  000a9	c7 46 04 00 00
	00 00		 mov	 DWORD PTR [esi+4], 0

; 345  :         const auto _Pnode = _Al.allocate(1);

  000b0	e8 00 00 00 00	 call	 ??2@YAPAXI@Z		; operator new

; 346  :         _Construct_in_place(_Pnode->_Left, _Pnode);

  000b5	89 00		 mov	 DWORD PTR [eax], eax

; 347  :         _Construct_in_place(_Pnode->_Parent, _Pnode);

  000b7	89 40 04	 mov	 DWORD PTR [eax+4], eax

; 348  :         _Construct_in_place(_Pnode->_Right, _Pnode);

  000ba	89 40 08	 mov	 DWORD PTR [eax+8], eax

; 349  :         _Pnode->_Color = _Black;

  000bd	66 c7 40 0c 01
	01		 mov	 WORD PTR [eax+12], 257	; 00000101H

; 1957 :         _Scary->_Myhead = _Node::_Buyheadnode(_Getal());

  000c3	89 06		 mov	 DWORD PTR [esi], eax
; File D:\_m2work\Server Client TMP4\ClientVS22\source\UserInterface\PythonPlayer.cpp

; 1686 : {

  000c5	c6 45 fc 04	 mov	 BYTE PTR __$EHRec$[ebp+8], 4
  000c9	8d b7 8c f7 00
	00		 lea	 esi, DWORD PTR [edi+63372]
  000cf	89 75 ec	 mov	 DWORD PTR _this$[ebp], esi
; File C:\Program Files\Microsoft Visual Studio\2022\Community\VC\Tools\MSVC\14.44.35207\include\xtree

; 345  :         const auto _Pnode = _Al.allocate(1);

  000d2	6a 14		 push	 20			; 00000014H

; 450  :     _Tree_val() noexcept : _Myhead(), _Mysize(0) {}

  000d4	c7 06 00 00 00
	00		 mov	 DWORD PTR [esi], 0
  000da	c7 46 04 00 00
	00 00		 mov	 DWORD PTR [esi+4], 0

; 345  :         const auto _Pnode = _Al.allocate(1);

  000e1	e8 00 00 00 00	 call	 ??2@YAPAXI@Z		; operator new

; 346  :         _Construct_in_place(_Pnode->_Left, _Pnode);

  000e6	89 00		 mov	 DWORD PTR [eax], eax

; 347  :         _Construct_in_place(_Pnode->_Parent, _Pnode);

  000e8	89 40 04	 mov	 DWORD PTR [eax+4], eax

; 348  :         _Construct_in_place(_Pnode->_Right, _Pnode);

  000eb	89 40 08	 mov	 DWORD PTR [eax+8], eax

; 349  :         _Pnode->_Color = _Black;

  000ee	66 c7 40 0c 01
	01		 mov	 WORD PTR [eax+12], 257	; 00000101H

; 1957 :         _Scary->_Myhead = _Node::_Buyheadnode(_Getal());

  000f4	89 06		 mov	 DWORD PTR [esi], eax
; File D:\_m2work\Server Client TMP4\ClientVS22\source\UserInterface\PythonPlayer.cpp

; 1686 : {

  000f6	c6 45 fc 05	 mov	 BYTE PTR __$EHRec$[ebp+8], 5
  000fa	8d b7 94 f7 00
	00		 lea	 esi, DWORD PTR [edi+63380]
  00100	89 75 ec	 mov	 DWORD PTR _this$[ebp], esi
; File C:\Program Files\Microsoft Visual Studio\2022\Community\VC\Tools\MSVC\14.44.35207\include\xtree

; 345  :         const auto _Pnode = _Al.allocate(1);

  00103	6a 14		 push	 20			; 00000014H

; 450  :     _Tree_val() noexcept : _Myhead(), _Mysize(0) {}

  00105	c7 06 00 00 00
	00		 mov	 DWORD PTR [esi], 0
  0010b	c7 46 04 00 00
	00 00		 mov	 DWORD PTR [esi+4], 0

; 345  :         const auto _Pnode = _Al.allocate(1);

  00112	e8 00 00 00 00	 call	 ??2@YAPAXI@Z		; operator new

; 346  :         _Construct_in_place(_Pnode->_Left, _Pnode);

  00117	89 00		 mov	 DWORD PTR [eax], eax

; 347  :         _Construct_in_place(_Pnode->_Parent, _Pnode);

  00119	89 40 04	 mov	 DWORD PTR [eax+4], eax

; 348  :         _Construct_in_place(_Pnode->_Right, _Pnode);

  0011c	89 40 08	 mov	 DWORD PTR [eax+8], eax

; 349  :         _Pnode->_Color = _Black;

  0011f	66 c7 40 0c 01
	01		 mov	 WORD PTR [eax+12], 257	; 00000101H

; 1957 :         _Scary->_Myhead = _Node::_Buyheadnode(_Getal());

  00125	89 06		 mov	 DWORD PTR [esi], eax
; File D:\_m2work\Server Client TMP4\ClientVS22\source\UserInterface\PythonPlayer.cpp

; 1686 : {

  00127	c6 45 fc 06	 mov	 BYTE PTR __$EHRec$[ebp+8], 6
  0012b	8d b7 9c f7 00
	00		 lea	 esi, DWORD PTR [edi+63388]
  00131	89 75 ec	 mov	 DWORD PTR _this$[ebp], esi
; File C:\Program Files\Microsoft Visual Studio\2022\Community\VC\Tools\MSVC\14.44.35207\include\xtree

; 345  :         const auto _Pnode = _Al.allocate(1);

  00134	6a 14		 push	 20			; 00000014H

; 450  :     _Tree_val() noexcept : _Myhead(), _Mysize(0) {}

  00136	c7 06 00 00 00
	00		 mov	 DWORD PTR [esi], 0
  0013c	c7 46 04 00 00
	00 00		 mov	 DWORD PTR [esi+4], 0

; 345  :         const auto _Pnode = _Al.allocate(1);

  00143	e8 00 00 00 00	 call	 ??2@YAPAXI@Z		; operator new
  00148	83 c4 14	 add	 esp, 20			; 00000014H

; 346  :         _Construct_in_place(_Pnode->_Left, _Pnode);

  0014b	89 00		 mov	 DWORD PTR [eax], eax

; 347  :         _Construct_in_place(_Pnode->_Parent, _Pnode);

  0014d	89 40 04	 mov	 DWORD PTR [eax+4], eax

; 348  :         _Construct_in_place(_Pnode->_Right, _Pnode);

  00150	89 40 08	 mov	 DWORD PTR [eax+8], eax

; 349  :         _Pnode->_Color = _Black;

  00153	66 c7 40 0c 01
	01		 mov	 WORD PTR [eax+12], 257	; 00000101H

; 1957 :         _Scary->_Myhead = _Node::_Buyheadnode(_Getal());

  00159	89 06		 mov	 DWORD PTR [esi], eax
; File D:\_m2work\Server Client TMP4\ClientVS22\source\UserInterface\PythonPlayer.cpp

; 1686 : {

  0015b	c6 45 fc 07	 mov	 BYTE PTR __$EHRec$[ebp+8], 7
  0015f	8d 87 f8 f7 00
	00		 lea	 eax, DWORD PTR [edi+63480]
; File C:\Program Files\Microsoft Visual Studio\2022\Community\VC\Tools\MSVC\14.44.35207\include\xtree

; 345  :         const auto _Pnode = _Al.allocate(1);

  00165	b9 02 00 00 00	 mov	 ecx, 2
  0016a	66 0f 1f 44 00
	00		 npad	 6
$LL2070@CPythonPla:
; File D:\_m2work\Server Client TMP4\ClientVS22\source\UserInterface\PythonPlayer.h

; 167  : 			SAutoPotionInfo() : bActivated(false), totalAmount(0), currentAmount(0) {}

  00170	c6 00 00	 mov	 BYTE PTR [eax], 0
  00173	8d 40 10	 lea	 eax, DWORD PTR [eax+16]
  00176	c7 40 f4 00 00
	00 00		 mov	 DWORD PTR [eax-12], 0
  0017d	c7 40 f8 00 00
	00 00		 mov	 DWORD PTR [eax-8], 0
  00184	83 e9 01	 sub	 ecx, 1
  00187	75 e7		 jne	 SHORT $LL2070@CPythonPla
; File D:\_m2work\Server Client TMP4\ClientVS22\source\UserInterface\PythonPlayer.cpp

; 1686 : {

  00189	8d b7 1c f8 00
	00		 lea	 esi, DWORD PTR [edi+63516]
  0018f	89 75 ec	 mov	 DWORD PTR _this$[ebp], esi
; File C:\Program Files\Microsoft Visual Studio\2022\Community\VC\Tools\MSVC\14.44.35207\include\xmemory

; 136  :         return ::operator new(_Bytes);

  00192	6a 18		 push	 24			; 00000018H
; File C:\Program Files\Microsoft Visual Studio\2022\Community\VC\Tools\MSVC\14.44.35207\include\xtree

; 450  :     _Tree_val() noexcept : _Myhead(), _Mysize(0) {}

  00194	89 0e		 mov	 DWORD PTR [esi], ecx
  00196	89 4e 04	 mov	 DWORD PTR [esi+4], ecx
; File C:\Program Files\Microsoft Visual Studio\2022\Community\VC\Tools\MSVC\14.44.35207\include\xmemory

; 136  :         return ::operator new(_Bytes);

  00199	e8 00 00 00 00	 call	 ??2@YAPAXI@Z		; operator new
  0019e	83 c4 04	 add	 esp, 4
; File C:\Program Files\Microsoft Visual Studio\2022\Community\VC\Tools\MSVC\14.44.35207\include\xtree

; 346  :         _Construct_in_place(_Pnode->_Left, _Pnode);

  001a1	89 00		 mov	 DWORD PTR [eax], eax

; 347  :         _Construct_in_place(_Pnode->_Parent, _Pnode);

  001a3	89 40 04	 mov	 DWORD PTR [eax+4], eax

; 348  :         _Construct_in_place(_Pnode->_Right, _Pnode);

  001a6	89 40 08	 mov	 DWORD PTR [eax+8], eax

; 349  :         _Pnode->_Color = _Black;

  001a9	66 c7 40 0c 01
	01		 mov	 WORD PTR [eax+12], 257	; 00000101H

; 1957 :         _Scary->_Myhead = _Node::_Buyheadnode(_Getal());

  001af	89 06		 mov	 DWORD PTR [esi], eax
; File D:\_m2work\Server Client TMP4\ClientVS22\source\UserInterface\PythonPlayer.cpp

; 1686 : {

  001b1	c6 45 fc 08	 mov	 BYTE PTR __$EHRec$[ebp+8], 8

; 1687 : 	SetMovableGroundDistance(40.0f);

  001b5	8b cf		 mov	 ecx, edi
  001b7	f3 0f 10 0d 00
	00 00 00	 movss	 xmm1, DWORD PTR __real@42200000
  001bf	e8 00 00 00 00	 call	 ?SetMovableGroundDistance@CPythonPlayer@@QAEXM@Z ; CPythonPlayer::SetMovableGroundDistance
; File C:\Program Files\Microsoft Visual Studio\2022\Community\VC\Tools\MSVC\14.44.35207\include\map

; 186  :         return this->emplace(_STD forward<_Valty>(_Val));

  001c4	8d 45 e8	 lea	 eax, DWORD PTR $T25[ebp]
; File C:\Program Files\Microsoft Visual Studio\2022\Community\VC\Tools\MSVC\14.44.35207\include\utility

; 274  :         : first(_STD forward<_Other1>(_Val1)), second(_STD forward<_Other2>(_Val2)) {

  001c7	c7 45 e8 0e 00
	00 00		 mov	 DWORD PTR $T25[ebp], 14	; 0000000eH
; File C:\Program Files\Microsoft Visual Studio\2022\Community\VC\Tools\MSVC\14.44.35207\include\map

; 186  :         return this->emplace(_STD forward<_Valty>(_Val));

  001ce	50		 push	 eax
  001cf	8d 45 e0	 lea	 eax, DWORD PTR $T4[ebp]
; File C:\Program Files\Microsoft Visual Studio\2022\Community\VC\Tools\MSVC\14.44.35207\include\utility

; 274  :         : first(_STD forward<_Other1>(_Val1)), second(_STD forward<_Other2>(_Val2)) {

  001d2	c7 45 ec 03 00
	00 00		 mov	 DWORD PTR $T25[ebp+4], 3
; File C:\Program Files\Microsoft Visual Studio\2022\Community\VC\Tools\MSVC\14.44.35207\include\map

; 186  :         return this->emplace(_STD forward<_Valty>(_Val));

  001d9	50		 push	 eax
  001da	8b ce		 mov	 ecx, esi
  001dc	e8 00 00 00 00	 call	 ??$emplace@U?$pair@HH@std@@@?$_Tree@V?$_Tmap_traits@KKU?$less@K@std@@V?$allocator@U?$pair@$$CBKK@std@@@2@$0A@@std@@@std@@QAE?AU?$pair@V?$_Tree_iterator@V?$_Tree_val@U?$_Tree_simple_types@U?$pair@$$CBKK@std@@@std@@@std@@@std@@_N@1@$$QAU?$pair@HH@1@@Z ; std::_Tree<std::_Tmap_traits<unsigned long,unsigned long,std::less<unsigned long>,std::allocator<std::pair<unsigned long const ,unsigned long> >,0> >::emplace<std::pair<int,int> >
  001e1	8d 45 e8	 lea	 eax, DWORD PTR $T29[ebp]
; File C:\Program Files\Microsoft Visual Studio\2022\Community\VC\Tools\MSVC\14.44.35207\include\utility

; 274  :         : first(_STD forward<_Other1>(_Val1)), second(_STD forward<_Other2>(_Val2)) {

  001e4	c7 45 e8 0f 00
	00 00		 mov	 DWORD PTR $T29[ebp], 15	; 0000000fH
; File C:\Program Files\Microsoft Visual Studio\2022\Community\VC\Tools\MSVC\14.44.35207\include\map

; 186  :         return this->emplace(_STD forward<_Valty>(_Val));

  001eb	50		 push	 eax
  001ec	8d 45 e0	 lea	 eax, DWORD PTR $T6[ebp]
; File C:\Program Files\Microsoft Visual Studio\2022\Community\VC\Tools\MSVC\14.44.35207\include\utility

; 274  :         : first(_STD forward<_Other1>(_Val1)), second(_STD forward<_Other2>(_Val2)) {

  001ef	c7 45 ec 04 00
	00 00		 mov	 DWORD PTR $T29[ebp+4], 4
; File C:\Program Files\Microsoft Visual Studio\2022\Community\VC\Tools\MSVC\14.44.35207\include\map

; 186  :         return this->emplace(_STD forward<_Valty>(_Val));

  001f6	50		 push	 eax
  001f7	8b ce		 mov	 ecx, esi
  001f9	e8 00 00 00 00	 call	 ??$emplace@U?$pair@HH@std@@@?$_Tree@V?$_Tmap_traits@KKU?$less@K@std@@V?$allocator@U?$pair@$$CBKK@std@@@2@$0A@@std@@@std@@QAE?AU?$pair@V?$_Tree_iterator@V?$_Tree_val@U?$_Tree_simple_types@U?$pair@$$CBKK@std@@@std@@@std@@@std@@_N@1@$$QAU?$pair@HH@1@@Z ; std::_Tree<std::_Tmap_traits<unsigned long,unsigned long,std::less<unsigned long>,std::allocator<std::pair<unsigned long const ,unsigned long> >,0> >::emplace<std::pair<int,int> >
  001fe	8d 45 e8	 lea	 eax, DWORD PTR $T23[ebp]
; File C:\Program Files\Microsoft Visual Studio\2022\Community\VC\Tools\MSVC\14.44.35207\include\utility

; 274  :         : first(_STD forward<_Other1>(_Val1)), second(_STD forward<_Other2>(_Val2)) {

  00201	c7 45 e8 10 00
	00 00		 mov	 DWORD PTR $T23[ebp], 16	; 00000010H
; File C:\Program Files\Microsoft Visual Studio\2022\Community\VC\Tools\MSVC\14.44.35207\include\map

; 186  :         return this->emplace(_STD forward<_Valty>(_Val));

  00208	50		 push	 eax
  00209	8d 45 e0	 lea	 eax, DWORD PTR $T8[ebp]
; File C:\Program Files\Microsoft Visual Studio\2022\Community\VC\Tools\MSVC\14.44.35207\include\utility

; 274  :         : first(_STD forward<_Other1>(_Val1)), second(_STD forward<_Other2>(_Val2)) {

  0020c	c7 45 ec 13 00
	00 00		 mov	 DWORD PTR $T23[ebp+4], 19 ; 00000013H
; File C:\Program Files\Microsoft Visual Studio\2022\Community\VC\Tools\MSVC\14.44.35207\include\map

; 186  :         return this->emplace(_STD forward<_Valty>(_Val));

  00213	50		 push	 eax
  00214	8b ce		 mov	 ecx, esi
  00216	e8 00 00 00 00	 call	 ??$emplace@U?$pair@HH@std@@@?$_Tree@V?$_Tmap_traits@KKU?$less@K@std@@V?$allocator@U?$pair@$$CBKK@std@@@2@$0A@@std@@@std@@QAE?AU?$pair@V?$_Tree_iterator@V?$_Tree_val@U?$_Tree_simple_types@U?$pair@$$CBKK@std@@@std@@@std@@@std@@_N@1@$$QAU?$pair@HH@1@@Z ; std::_Tree<std::_Tmap_traits<unsigned long,unsigned long,std::less<unsigned long>,std::allocator<std::pair<unsigned long const ,unsigned long> >,0> >::emplace<std::pair<int,int> >
  0021b	8d 45 e8	 lea	 eax, DWORD PTR $T31[ebp]
; File C:\Program Files\Microsoft Visual Studio\2022\Community\VC\Tools\MSVC\14.44.35207\include\utility

; 274  :         : first(_STD forward<_Other1>(_Val1)), second(_STD forward<_Other2>(_Val2)) {

  0021e	c7 45 e8 11 00
	00 00		 mov	 DWORD PTR $T31[ebp], 17	; 00000011H
; File C:\Program Files\Microsoft Visual Studio\2022\Community\VC\Tools\MSVC\14.44.35207\include\map

; 186  :         return this->emplace(_STD forward<_Valty>(_Val));

  00225	50		 push	 eax
  00226	8d 45 e0	 lea	 eax, DWORD PTR $T10[ebp]
; File C:\Program Files\Microsoft Visual Studio\2022\Community\VC\Tools\MSVC\14.44.35207\include\utility

; 274  :         : first(_STD forward<_Other1>(_Val1)), second(_STD forward<_Other2>(_Val2)) {

  00229	c7 45 ec 31 00
	00 00		 mov	 DWORD PTR $T31[ebp+4], 49 ; 00000031H
; File C:\Program Files\Microsoft Visual Studio\2022\Community\VC\Tools\MSVC\14.44.35207\include\map

; 186  :         return this->emplace(_STD forward<_Valty>(_Val));

  00230	50		 push	 eax
  00231	8b ce		 mov	 ecx, esi
  00233	e8 00 00 00 00	 call	 ??$emplace@U?$pair@HH@std@@@?$_Tree@V?$_Tmap_traits@KKU?$less@K@std@@V?$allocator@U?$pair@$$CBKK@std@@@2@$0A@@std@@@std@@QAE?AU?$pair@V?$_Tree_iterator@V?$_Tree_val@U?$_Tree_simple_types@U?$pair@$$CBKK@std@@@std@@@std@@@std@@_N@1@$$QAU?$pair@HH@1@@Z ; std::_Tree<std::_Tmap_traits<unsigned long,unsigned long,std::less<unsigned long>,std::allocator<std::pair<unsigned long const ,unsigned long> >,0> >::emplace<std::pair<int,int> >
  00238	8d 45 e8	 lea	 eax, DWORD PTR $T33[ebp]
; File C:\Program Files\Microsoft Visual Studio\2022\Community\VC\Tools\MSVC\14.44.35207\include\utility

; 274  :         : first(_STD forward<_Other1>(_Val1)), second(_STD forward<_Other2>(_Val2)) {

  0023b	c7 45 e8 12 00
	00 00		 mov	 DWORD PTR $T33[ebp], 18	; 00000012H
; File C:\Program Files\Microsoft Visual Studio\2022\Community\VC\Tools\MSVC\14.44.35207\include\map

; 186  :         return this->emplace(_STD forward<_Valty>(_Val));

  00242	50		 push	 eax
  00243	8d 45 e0	 lea	 eax, DWORD PTR $T2[ebp]
; File C:\Program Files\Microsoft Visual Studio\2022\Community\VC\Tools\MSVC\14.44.35207\include\utility

; 274  :         : first(_STD forward<_Other1>(_Val1)), second(_STD forward<_Other2>(_Val2)) {

  00246	c7 45 ec 22 00
	00 00		 mov	 DWORD PTR $T33[ebp+4], 34 ; 00000022H
; File C:\Program Files\Microsoft Visual Studio\2022\Community\VC\Tools\MSVC\14.44.35207\include\map

; 186  :         return this->emplace(_STD forward<_Valty>(_Val));

  0024d	50		 push	 eax
  0024e	8b ce		 mov	 ecx, esi
  00250	e8 00 00 00 00	 call	 ??$emplace@U?$pair@HH@std@@@?$_Tree@V?$_Tmap_traits@KKU?$less@K@std@@V?$allocator@U?$pair@$$CBKK@std@@@2@$0A@@std@@@std@@QAE?AU?$pair@V?$_Tree_iterator@V?$_Tree_val@U?$_Tree_simple_types@U?$pair@$$CBKK@std@@@std@@@std@@@std@@_N@1@$$QAU?$pair@HH@1@@Z ; std::_Tree<std::_Tmap_traits<unsigned long,unsigned long,std::less<unsigned long>,std::allocator<std::pair<unsigned long const ,unsigned long> >,0> >::emplace<std::pair<int,int> >
  00255	8d 45 e8	 lea	 eax, DWORD PTR $T35[ebp]
; File C:\Program Files\Microsoft Visual Studio\2022\Community\VC\Tools\MSVC\14.44.35207\include\utility

; 274  :         : first(_STD forward<_Other1>(_Val1)), second(_STD forward<_Other2>(_Val2)) {

  00258	c7 45 e8 14 00
	00 00		 mov	 DWORD PTR $T35[ebp], 20	; 00000014H
; File C:\Program Files\Microsoft Visual Studio\2022\Community\VC\Tools\MSVC\14.44.35207\include\map

; 186  :         return this->emplace(_STD forward<_Valty>(_Val));

  0025f	50		 push	 eax
  00260	8d 45 e0	 lea	 eax, DWORD PTR $T3[ebp]
; File C:\Program Files\Microsoft Visual Studio\2022\Community\VC\Tools\MSVC\14.44.35207\include\utility

; 274  :         : first(_STD forward<_Other1>(_Val1)), second(_STD forward<_Other2>(_Val2)) {

  00263	c7 45 ec 40 00
	00 00		 mov	 DWORD PTR $T35[ebp+4], 64 ; 00000040H
; File C:\Program Files\Microsoft Visual Studio\2022\Community\VC\Tools\MSVC\14.44.35207\include\map

; 186  :         return this->emplace(_STD forward<_Valty>(_Val));

  0026a	50		 push	 eax
  0026b	8b ce		 mov	 ecx, esi
  0026d	e8 00 00 00 00	 call	 ??$emplace@U?$pair@HH@std@@@?$_Tree@V?$_Tmap_traits@KKU?$less@K@std@@V?$allocator@U?$pair@$$CBKK@std@@@2@$0A@@std@@@std@@QAE?AU?$pair@V?$_Tree_iterator@V?$_Tree_val@U?$_Tree_simple_types@U?$pair@$$CBKK@std@@@std@@@std@@@std@@_N@1@$$QAU?$pair@HH@1@@Z ; std::_Tree<std::_Tmap_traits<unsigned long,unsigned long,std::less<unsigned long>,std::allocator<std::pair<unsigned long const ,unsigned long> >,0> >::emplace<std::pair<int,int> >
  00272	8d 45 e8	 lea	 eax, DWORD PTR $T19[ebp]
; File C:\Program Files\Microsoft Visual Studio\2022\Community\VC\Tools\MSVC\14.44.35207\include\utility

; 274  :         : first(_STD forward<_Other1>(_Val1)), second(_STD forward<_Other2>(_Val2)) {

  00275	c7 45 e8 15 00
	00 00		 mov	 DWORD PTR $T19[ebp], 21	; 00000015H
; File C:\Program Files\Microsoft Visual Studio\2022\Community\VC\Tools\MSVC\14.44.35207\include\map

; 186  :         return this->emplace(_STD forward<_Valty>(_Val));

  0027c	50		 push	 eax
  0027d	8d 45 e0	 lea	 eax, DWORD PTR $T9[ebp]
; File C:\Program Files\Microsoft Visual Studio\2022\Community\VC\Tools\MSVC\14.44.35207\include\utility

; 274  :         : first(_STD forward<_Other1>(_Val1)), second(_STD forward<_Other2>(_Val2)) {

  00280	c7 45 ec 41 00
	00 00		 mov	 DWORD PTR $T19[ebp+4], 65 ; 00000041H
; File C:\Program Files\Microsoft Visual Studio\2022\Community\VC\Tools\MSVC\14.44.35207\include\map

; 186  :         return this->emplace(_STD forward<_Valty>(_Val));

  00287	50		 push	 eax
  00288	8b ce		 mov	 ecx, esi
  0028a	e8 00 00 00 00	 call	 ??$emplace@U?$pair@HH@std@@@?$_Tree@V?$_Tmap_traits@KKU?$less@K@std@@V?$allocator@U?$pair@$$CBKK@std@@@2@$0A@@std@@@std@@QAE?AU?$pair@V?$_Tree_iterator@V?$_Tree_val@U?$_Tree_simple_types@U?$pair@$$CBKK@std@@@std@@@std@@@std@@_N@1@$$QAU?$pair@HH@1@@Z ; std::_Tree<std::_Tmap_traits<unsigned long,unsigned long,std::less<unsigned long>,std::allocator<std::pair<unsigned long const ,unsigned long> >,0> >::emplace<std::pair<int,int> >
  0028f	8d 45 e8	 lea	 eax, DWORD PTR $T20[ebp]
; File C:\Program Files\Microsoft Visual Studio\2022\Community\VC\Tools\MSVC\14.44.35207\include\utility

; 274  :         : first(_STD forward<_Other1>(_Val1)), second(_STD forward<_Other2>(_Val2)) {

  00292	c7 45 e8 16 00
	00 00		 mov	 DWORD PTR $T20[ebp], 22	; 00000016H
; File C:\Program Files\Microsoft Visual Studio\2022\Community\VC\Tools\MSVC\14.44.35207\include\map

; 186  :         return this->emplace(_STD forward<_Valty>(_Val));

  00299	50		 push	 eax
  0029a	8d 45 e0	 lea	 eax, DWORD PTR $T13[ebp]
; File C:\Program Files\Microsoft Visual Studio\2022\Community\VC\Tools\MSVC\14.44.35207\include\utility

; 274  :         : first(_STD forward<_Other1>(_Val1)), second(_STD forward<_Other2>(_Val2)) {

  0029d	c7 45 ec 5e 00
	00 00		 mov	 DWORD PTR $T20[ebp+4], 94 ; 0000005eH
; File C:\Program Files\Microsoft Visual Studio\2022\Community\VC\Tools\MSVC\14.44.35207\include\map

; 186  :         return this->emplace(_STD forward<_Valty>(_Val));

  002a4	50		 push	 eax
  002a5	8b ce		 mov	 ecx, esi
  002a7	e8 00 00 00 00	 call	 ??$emplace@U?$pair@HH@std@@@?$_Tree@V?$_Tmap_traits@KKU?$less@K@std@@V?$allocator@U?$pair@$$CBKK@std@@@2@$0A@@std@@@std@@QAE?AU?$pair@V?$_Tree_iterator@V?$_Tree_val@U?$_Tree_simple_types@U?$pair@$$CBKK@std@@@std@@@std@@@std@@_N@1@$$QAU?$pair@HH@1@@Z ; std::_Tree<std::_Tmap_traits<unsigned long,unsigned long,std::less<unsigned long>,std::allocator<std::pair<unsigned long const ,unsigned long> >,0> >::emplace<std::pair<int,int> >
  002ac	8d 45 e8	 lea	 eax, DWORD PTR $T21[ebp]
; File C:\Program Files\Microsoft Visual Studio\2022\Community\VC\Tools\MSVC\14.44.35207\include\utility

; 274  :         : first(_STD forward<_Other1>(_Val1)), second(_STD forward<_Other2>(_Val2)) {

  002af	c7 45 e8 17 00
	00 00		 mov	 DWORD PTR $T21[ebp], 23	; 00000017H
; File C:\Program Files\Microsoft Visual Studio\2022\Community\VC\Tools\MSVC\14.44.35207\include\map

; 186  :         return this->emplace(_STD forward<_Valty>(_Val));

  002b6	50		 push	 eax
  002b7	8d 45 e0	 lea	 eax, DWORD PTR $T11[ebp]
; File C:\Program Files\Microsoft Visual Studio\2022\Community\VC\Tools\MSVC\14.44.35207\include\utility

; 274  :         : first(_STD forward<_Other1>(_Val1)), second(_STD forward<_Other2>(_Val2)) {

  002ba	c7 45 ec 5f 00
	00 00		 mov	 DWORD PTR $T21[ebp+4], 95 ; 0000005fH
; File C:\Program Files\Microsoft Visual Studio\2022\Community\VC\Tools\MSVC\14.44.35207\include\map

; 186  :         return this->emplace(_STD forward<_Valty>(_Val));

  002c1	50		 push	 eax
  002c2	8b ce		 mov	 ecx, esi
  002c4	e8 00 00 00 00	 call	 ??$emplace@U?$pair@HH@std@@@?$_Tree@V?$_Tmap_traits@KKU?$less@K@std@@V?$allocator@U?$pair@$$CBKK@std@@@2@$0A@@std@@@std@@QAE?AU?$pair@V?$_Tree_iterator@V?$_Tree_val@U?$_Tree_simple_types@U?$pair@$$CBKK@std@@@std@@@std@@@std@@_N@1@$$QAU?$pair@HH@1@@Z ; std::_Tree<std::_Tmap_traits<unsigned long,unsigned long,std::less<unsigned long>,std::allocator<std::pair<unsigned long const ,unsigned long> >,0> >::emplace<std::pair<int,int> >
  002c9	8d 45 e8	 lea	 eax, DWORD PTR $T22[ebp]
; File C:\Program Files\Microsoft Visual Studio\2022\Community\VC\Tools\MSVC\14.44.35207\include\utility

; 274  :         : first(_STD forward<_Other1>(_Val1)), second(_STD forward<_Other2>(_Val2)) {

  002cc	c7 45 e8 18 00
	00 00		 mov	 DWORD PTR $T22[ebp], 24	; 00000018H
; File C:\Program Files\Microsoft Visual Studio\2022\Community\VC\Tools\MSVC\14.44.35207\include\map

; 186  :         return this->emplace(_STD forward<_Valty>(_Val));

  002d3	50		 push	 eax
  002d4	8d 45 e0	 lea	 eax, DWORD PTR $T5[ebp]
; File C:\Program Files\Microsoft Visual Studio\2022\Community\VC\Tools\MSVC\14.44.35207\include\utility

; 274  :         : first(_STD forward<_Other1>(_Val1)), second(_STD forward<_Other2>(_Val2)) {

  002d7	c7 45 ec 6e 00
	00 00		 mov	 DWORD PTR $T22[ebp+4], 110 ; 0000006eH
; File C:\Program Files\Microsoft Visual Studio\2022\Community\VC\Tools\MSVC\14.44.35207\include\map

; 186  :         return this->emplace(_STD forward<_Valty>(_Val));

  002de	50		 push	 eax
  002df	8b ce		 mov	 ecx, esi
  002e1	e8 00 00 00 00	 call	 ??$emplace@U?$pair@HH@std@@@?$_Tree@V?$_Tmap_traits@KKU?$less@K@std@@V?$allocator@U?$pair@$$CBKK@std@@@2@$0A@@std@@@std@@QAE?AU?$pair@V?$_Tree_iterator@V?$_Tree_val@U?$_Tree_simple_types@U?$pair@$$CBKK@std@@@std@@@std@@@std@@_N@1@$$QAU?$pair@HH@1@@Z ; std::_Tree<std::_Tmap_traits<unsigned long,unsigned long,std::less<unsigned long>,std::allocator<std::pair<unsigned long const ,unsigned long> >,0> >::emplace<std::pair<int,int> >
  002e6	8d 45 e8	 lea	 eax, DWORD PTR $T27[ebp]
; File C:\Program Files\Microsoft Visual Studio\2022\Community\VC\Tools\MSVC\14.44.35207\include\utility

; 274  :         : first(_STD forward<_Other1>(_Val1)), second(_STD forward<_Other2>(_Val2)) {

  002e9	c7 45 e8 1d 00
	00 00		 mov	 DWORD PTR $T27[ebp], 29	; 0000001dH
; File C:\Program Files\Microsoft Visual Studio\2022\Community\VC\Tools\MSVC\14.44.35207\include\map

; 186  :         return this->emplace(_STD forward<_Valty>(_Val));

  002f0	50		 push	 eax
  002f1	8d 45 e0	 lea	 eax, DWORD PTR $T12[ebp]
; File C:\Program Files\Microsoft Visual Studio\2022\Community\VC\Tools\MSVC\14.44.35207\include\utility

; 274  :         : first(_STD forward<_Other1>(_Val1)), second(_STD forward<_Other2>(_Val2)) {

  002f4	c7 45 ec 60 00
	00 00		 mov	 DWORD PTR $T27[ebp+4], 96 ; 00000060H
; File C:\Program Files\Microsoft Visual Studio\2022\Community\VC\Tools\MSVC\14.44.35207\include\map

; 186  :         return this->emplace(_STD forward<_Valty>(_Val));

  002fb	50		 push	 eax
  002fc	8b ce		 mov	 ecx, esi
  002fe	e8 00 00 00 00	 call	 ??$emplace@U?$pair@HH@std@@@?$_Tree@V?$_Tmap_traits@KKU?$less@K@std@@V?$allocator@U?$pair@$$CBKK@std@@@2@$0A@@std@@@std@@QAE?AU?$pair@V?$_Tree_iterator@V?$_Tree_val@U?$_Tree_simple_types@U?$pair@$$CBKK@std@@@std@@@std@@@std@@_N@1@$$QAU?$pair@HH@1@@Z ; std::_Tree<std::_Tmap_traits<unsigned long,unsigned long,std::less<unsigned long>,std::allocator<std::pair<unsigned long const ,unsigned long> >,0> >::emplace<std::pair<int,int> >
  00303	8d 45 e8	 lea	 eax, DWORD PTR $T24[ebp]
; File C:\Program Files\Microsoft Visual Studio\2022\Community\VC\Tools\MSVC\14.44.35207\include\utility

; 274  :         : first(_STD forward<_Other1>(_Val1)), second(_STD forward<_Other2>(_Val2)) {

  00306	c7 45 e8 1e 00
	00 00		 mov	 DWORD PTR $T24[ebp], 30	; 0000001eH
; File C:\Program Files\Microsoft Visual Studio\2022\Community\VC\Tools\MSVC\14.44.35207\include\map

; 186  :         return this->emplace(_STD forward<_Valty>(_Val));

  0030d	50		 push	 eax
  0030e	8d 45 e0	 lea	 eax, DWORD PTR $T14[ebp]
; File C:\Program Files\Microsoft Visual Studio\2022\Community\VC\Tools\MSVC\14.44.35207\include\utility

; 274  :         : first(_STD forward<_Other1>(_Val1)), second(_STD forward<_Other2>(_Val2)) {

  00311	c7 45 ec 6f 00
	00 00		 mov	 DWORD PTR $T24[ebp+4], 111 ; 0000006fH
; File C:\Program Files\Microsoft Visual Studio\2022\Community\VC\Tools\MSVC\14.44.35207\include\map

; 186  :         return this->emplace(_STD forward<_Valty>(_Val));

  00318	50		 push	 eax
  00319	8b ce		 mov	 ecx, esi
  0031b	e8 00 00 00 00	 call	 ??$emplace@U?$pair@HH@std@@@?$_Tree@V?$_Tmap_traits@KKU?$less@K@std@@V?$allocator@U?$pair@$$CBKK@std@@@2@$0A@@std@@@std@@QAE?AU?$pair@V?$_Tree_iterator@V?$_Tree_val@U?$_Tree_simple_types@U?$pair@$$CBKK@std@@@std@@@std@@@std@@_N@1@$$QAU?$pair@HH@1@@Z ; std::_Tree<std::_Tmap_traits<unsigned long,unsigned long,std::less<unsigned long>,std::allocator<std::pair<unsigned long const ,unsigned long> >,0> >::emplace<std::pair<int,int> >
; File D:\_m2work\Server Client TMP4\ClientVS22\source\UserInterface\PythonPlayer.cpp

; 1702 : 	m_kMap_dwAffectIndexToSkillIndex.insert(std::make_pair(int(CInstanceBase::AFFECT_PABEOP), 66));

  00320	8d 45 e8	 lea	 eax, DWORD PTR $T26[ebp]
; File C:\Program Files\Microsoft Visual Studio\2022\Community\VC\Tools\MSVC\14.44.35207\include\utility

; 274  :         : first(_STD forward<_Other1>(_Val1)), second(_STD forward<_Other2>(_Val2)) {

  00323	c7 45 e8 20 00
	00 00		 mov	 DWORD PTR $T26[ebp], 32	; 00000020H
; File D:\_m2work\Server Client TMP4\ClientVS22\source\UserInterface\PythonPlayer.cpp

; 1702 : 	m_kMap_dwAffectIndexToSkillIndex.insert(std::make_pair(int(CInstanceBase::AFFECT_PABEOP), 66));

  0032a	50		 push	 eax
  0032b	8d 45 e0	 lea	 eax, DWORD PTR $T7[ebp]
; File C:\Program Files\Microsoft Visual Studio\2022\Community\VC\Tools\MSVC\14.44.35207\include\utility

; 274  :         : first(_STD forward<_Other1>(_Val1)), second(_STD forward<_Other2>(_Val2)) {

  0032e	c7 45 ec 42 00
	00 00		 mov	 DWORD PTR $T26[ebp+4], 66 ; 00000042H
; File D:\_m2work\Server Client TMP4\ClientVS22\source\UserInterface\PythonPlayer.cpp

; 1702 : 	m_kMap_dwAffectIndexToSkillIndex.insert(std::make_pair(int(CInstanceBase::AFFECT_PABEOP), 66));

  00335	50		 push	 eax
  00336	8b ce		 mov	 ecx, esi
  00338	e8 00 00 00 00	 call	 ??$insert@U?$pair@HH@std@@$0A@@?$map@KKU?$less@K@std@@V?$allocator@U?$pair@$$CBKK@std@@@2@@std@@QAE?AU?$pair@V?$_Tree_iterator@V?$_Tree_val@U?$_Tree_simple_types@U?$pair@$$CBKK@std@@@std@@@std@@@std@@_N@1@$$QAU?$pair@HH@1@@Z ; std::map<unsigned long,unsigned long,std::less<unsigned long>,std::allocator<std::pair<unsigned long const ,unsigned long> > >::insert<std::pair<int,int>,0>

; 1703 : 	m_kMap_dwAffectIndexToSkillIndex.insert(std::make_pair(int(CInstanceBase::AFFECT_FALLEN_CHEONGEUN), 19));

  0033d	8d 45 e8	 lea	 eax, DWORD PTR $T28[ebp]
; File C:\Program Files\Microsoft Visual Studio\2022\Community\VC\Tools\MSVC\14.44.35207\include\utility

; 274  :         : first(_STD forward<_Other1>(_Val1)), second(_STD forward<_Other2>(_Val2)) {

  00340	c7 45 e8 21 00
	00 00		 mov	 DWORD PTR $T28[ebp], 33	; 00000021H
; File D:\_m2work\Server Client TMP4\ClientVS22\source\UserInterface\PythonPlayer.cpp

; 1703 : 	m_kMap_dwAffectIndexToSkillIndex.insert(std::make_pair(int(CInstanceBase::AFFECT_FALLEN_CHEONGEUN), 19));

  00347	50		 push	 eax
  00348	8d 45 e0	 lea	 eax, DWORD PTR $T15[ebp]
; File C:\Program Files\Microsoft Visual Studio\2022\Community\VC\Tools\MSVC\14.44.35207\include\utility

; 274  :         : first(_STD forward<_Other1>(_Val1)), second(_STD forward<_Other2>(_Val2)) {

  0034b	c7 45 ec 13 00
	00 00		 mov	 DWORD PTR $T28[ebp+4], 19 ; 00000013H
; File D:\_m2work\Server Client TMP4\ClientVS22\source\UserInterface\PythonPlayer.cpp

; 1703 : 	m_kMap_dwAffectIndexToSkillIndex.insert(std::make_pair(int(CInstanceBase::AFFECT_FALLEN_CHEONGEUN), 19));

  00352	50		 push	 eax
  00353	8b ce		 mov	 ecx, esi
  00355	e8 00 00 00 00	 call	 ??$insert@U?$pair@HH@std@@$0A@@?$map@KKU?$less@K@std@@V?$allocator@U?$pair@$$CBKK@std@@@2@@std@@QAE?AU?$pair@V?$_Tree_iterator@V?$_Tree_val@U?$_Tree_simple_types@U?$pair@$$CBKK@std@@@std@@@std@@@std@@_N@1@$$QAU?$pair@HH@1@@Z ; std::map<unsigned long,unsigned long,std::less<unsigned long>,std::allocator<std::pair<unsigned long const ,unsigned long> > >::insert<std::pair<int,int>,0>

; 1705 : 	m_kMap_dwAffectIndexToSkillIndex.insert(std::make_pair(int(CInstanceBase::AFFECT_GWIGEOM), 63));

  0035a	8d 45 e8	 lea	 eax, DWORD PTR $T30[ebp]
; File C:\Program Files\Microsoft Visual Studio\2022\Community\VC\Tools\MSVC\14.44.35207\include\utility

; 274  :         : first(_STD forward<_Other1>(_Val1)), second(_STD forward<_Other2>(_Val2)) {

  0035d	c7 45 e8 13 00
	00 00		 mov	 DWORD PTR $T30[ebp], 19	; 00000013H
; File D:\_m2work\Server Client TMP4\ClientVS22\source\UserInterface\PythonPlayer.cpp

; 1705 : 	m_kMap_dwAffectIndexToSkillIndex.insert(std::make_pair(int(CInstanceBase::AFFECT_GWIGEOM), 63));

  00364	50		 push	 eax
  00365	8d 45 e0	 lea	 eax, DWORD PTR $T16[ebp]
; File C:\Program Files\Microsoft Visual Studio\2022\Community\VC\Tools\MSVC\14.44.35207\include\utility

; 274  :         : first(_STD forward<_Other1>(_Val1)), second(_STD forward<_Other2>(_Val2)) {

  00368	c7 45 ec 3f 00
	00 00		 mov	 DWORD PTR $T30[ebp+4], 63 ; 0000003fH
; File D:\_m2work\Server Client TMP4\ClientVS22\source\UserInterface\PythonPlayer.cpp

; 1705 : 	m_kMap_dwAffectIndexToSkillIndex.insert(std::make_pair(int(CInstanceBase::AFFECT_GWIGEOM), 63));

  0036f	50		 push	 eax
  00370	8b ce		 mov	 ecx, esi
  00372	e8 00 00 00 00	 call	 ??$insert@U?$pair@HH@std@@$0A@@?$map@KKU?$less@K@std@@V?$allocator@U?$pair@$$CBKK@std@@@2@@std@@QAE?AU?$pair@V?$_Tree_iterator@V?$_Tree_val@U?$_Tree_simple_types@U?$pair@$$CBKK@std@@@std@@@std@@@std@@_N@1@$$QAU?$pair@HH@1@@Z ; std::map<unsigned long,unsigned long,std::less<unsigned long>,std::allocator<std::pair<unsigned long const ,unsigned long> > >::insert<std::pair<int,int>,0>

; 1706 : 	m_kMap_dwAffectIndexToSkillIndex.insert(std::make_pair(int(CInstanceBase::AFFECT_MUYEONG), 78));

  00377	8d 45 e8	 lea	 eax, DWORD PTR $T32[ebp]
; File C:\Program Files\Microsoft Visual Studio\2022\Community\VC\Tools\MSVC\14.44.35207\include\utility

; 274  :         : first(_STD forward<_Other1>(_Val1)), second(_STD forward<_Other2>(_Val2)) {

  0037a	c7 45 e8 1a 00
	00 00		 mov	 DWORD PTR $T32[ebp], 26	; 0000001aH
; File D:\_m2work\Server Client TMP4\ClientVS22\source\UserInterface\PythonPlayer.cpp

; 1706 : 	m_kMap_dwAffectIndexToSkillIndex.insert(std::make_pair(int(CInstanceBase::AFFECT_MUYEONG), 78));

  00381	50		 push	 eax
  00382	8d 45 e0	 lea	 eax, DWORD PTR $T17[ebp]
; File C:\Program Files\Microsoft Visual Studio\2022\Community\VC\Tools\MSVC\14.44.35207\include\utility

; 274  :         : first(_STD forward<_Other1>(_Val1)), second(_STD forward<_Other2>(_Val2)) {

  00385	c7 45 ec 4e 00
	00 00		 mov	 DWORD PTR $T32[ebp+4], 78 ; 0000004eH
; File D:\_m2work\Server Client TMP4\ClientVS22\source\UserInterface\PythonPlayer.cpp

; 1706 : 	m_kMap_dwAffectIndexToSkillIndex.insert(std::make_pair(int(CInstanceBase::AFFECT_MUYEONG), 78));

  0038c	50		 push	 eax
  0038d	8b ce		 mov	 ecx, esi
  0038f	e8 00 00 00 00	 call	 ??$insert@U?$pair@HH@std@@$0A@@?$map@KKU?$less@K@std@@V?$allocator@U?$pair@$$CBKK@std@@@2@@std@@QAE?AU?$pair@V?$_Tree_iterator@V?$_Tree_val@U?$_Tree_simple_types@U?$pair@$$CBKK@std@@@std@@@std@@@std@@_N@1@$$QAU?$pair@HH@1@@Z ; std::map<unsigned long,unsigned long,std::less<unsigned long>,std::allocator<std::pair<unsigned long const ,unsigned long> > >::insert<std::pair<int,int>,0>

; 1707 : 	m_kMap_dwAffectIndexToSkillIndex.insert(std::make_pair(int(CInstanceBase::AFFECT_HEUKSIN), 79));

  00394	8d 45 e8	 lea	 eax, DWORD PTR $T34[ebp]
; File C:\Program Files\Microsoft Visual Studio\2022\Community\VC\Tools\MSVC\14.44.35207\include\utility

; 274  :         : first(_STD forward<_Other1>(_Val1)), second(_STD forward<_Other2>(_Val2)) {

  00397	c7 45 e8 19 00
	00 00		 mov	 DWORD PTR $T34[ebp], 25	; 00000019H
; File D:\_m2work\Server Client TMP4\ClientVS22\source\UserInterface\PythonPlayer.cpp

; 1707 : 	m_kMap_dwAffectIndexToSkillIndex.insert(std::make_pair(int(CInstanceBase::AFFECT_HEUKSIN), 79));

  0039e	50		 push	 eax
  0039f	8d 45 e0	 lea	 eax, DWORD PTR $T18[ebp]
; File C:\Program Files\Microsoft Visual Studio\2022\Community\VC\Tools\MSVC\14.44.35207\include\utility

; 274  :         : first(_STD forward<_Other1>(_Val1)), second(_STD forward<_Other2>(_Val2)) {

  003a2	c7 45 ec 4f 00
	00 00		 mov	 DWORD PTR $T34[ebp+4], 79 ; 0000004fH
; File D:\_m2work\Server Client TMP4\ClientVS22\source\UserInterface\PythonPlayer.cpp

; 1707 : 	m_kMap_dwAffectIndexToSkillIndex.insert(std::make_pair(int(CInstanceBase::AFFECT_HEUKSIN), 79));

  003a9	50		 push	 eax
  003aa	8b ce		 mov	 ecx, esi
  003ac	e8 00 00 00 00	 call	 ??$insert@U?$pair@HH@std@@$0A@@?$map@KKU?$less@K@std@@V?$allocator@U?$pair@$$CBKK@std@@@2@@std@@QAE?AU?$pair@V?$_Tree_iterator@V?$_Tree_val@U?$_Tree_simple_types@U?$pair@$$CBKK@std@@@std@@@std@@@std@@_N@1@$$QAU?$pair@HH@1@@Z ; std::map<unsigned long,unsigned long,std::less<unsigned long>,std::allocator<std::pair<unsigned long const ,unsigned long> > >::insert<std::pair<int,int>,0>

; 1708 : 
; 1709 : 	m_ppyGameWindow = NULL;

  003b1	c7 47 08 00 00
	00 00		 mov	 DWORD PTR [edi+8], 0

; 1710 : 
; 1711 : 	m_sysIsCoolTime = TRUE;

  003b8	c7 87 bc f7 00
	00 01 00 00 00	 mov	 DWORD PTR [edi+63420], 1

; 1712 : 	m_sysIsLevelLimit = TRUE;

  003c2	c7 87 c0 f7 00
	00 01 00 00 00	 mov	 DWORD PTR [edi+63424], 1

; 1713 : 	m_dwPlayTime = 0;

  003cc	c7 87 f4 f7 00
	00 00 00 00 00	 mov	 DWORD PTR [edi+63476], 0

; 1714 : 
; 1715 : 	m_aeMBFButton[MBT_LEFT]=CPythonPlayer::MBF_SMART;

  003d6	c7 87 e0 f7 00
	00 00 00 00 00	 mov	 DWORD PTR [edi+63456], 0

; 1716 : 	m_aeMBFButton[MBT_RIGHT]=CPythonPlayer::MBF_CAMERA;

  003e0	c7 87 e4 f7 00
	00 02 00 00 00	 mov	 DWORD PTR [edi+63460], 2

; 1717 : 	m_aeMBFButton[MBT_MIDDLE]=CPythonPlayer::MBF_CAMERA;

  003ea	c7 87 e8 f7 00
	00 02 00 00 00	 mov	 DWORD PTR [edi+63464], 2

; 1718 : 
; 1719 : 	memset(m_adwEffect, 0, sizeof(m_adwEffect));

  003f4	c7 87 d4 f7 00
	00 00 00 00 00	 mov	 DWORD PTR [edi+63444], 0

; 1720 : 
; 1721 : 	m_isDestPosition = FALSE;

  003fe	c7 87 74 f7 00
	00 00 00 00 00	 mov	 DWORD PTR [edi+63348], 0

; 1722 : 	m_ixDestPos = 0;
; 1723 : 	m_iyDestPos = 0;
; 1724 : 	m_iLastAlarmTime = 0;
; 1725 : 
; 1726 : 	Clear();

  00408	8b cf		 mov	 ecx, edi
  0040a	c7 87 78 f7 00
	00 00 00 00 00	 mov	 DWORD PTR [edi+63352], 0
  00414	c7 87 7c f7 00
	00 00 00 00 00	 mov	 DWORD PTR [edi+63356], 0
  0041e	c7 87 80 f7 00
	00 00 00 00 00	 mov	 DWORD PTR [edi+63360], 0
  00428	e8 00 00 00 00	 call	 ?Clear@CPythonPlayer@@QAEXXZ ; CPythonPlayer::Clear

; 1727 : }

  0042d	8b c7		 mov	 eax, edi
  0042f	8b 4d f4	 mov	 ecx, DWORD PTR __$EHRec$[ebp]
  00432	64 89 0d 00 00
	00 00		 mov	 DWORD PTR fs:0, ecx
  00439	59		 pop	 ecx
  0043a	5f		 pop	 edi
  0043b	5e		 pop	 esi
  0043c	8b e5		 mov	 esp, ebp
  0043e	5d		 pop	 ebp
  0043f	c3		 ret	 0
_TEXT	ENDS
;	COMDAT text$x
text$x	SEGMENT
__unwindfunclet$??0CPythonPlayer@@QAE@XZ$0:
  00000	8b 4d f0	 mov	 ecx, DWORD PTR _this$[ebp]
  00003	e9 00 00 00 00	 jmp	 ??1?$CSingleton@VCPythonPlayer@@@@UAE@XZ ; CSingleton<CPythonPlayer>::~CSingleton<CPythonPlayer>
__unwindfunclet$??0CPythonPlayer@@QAE@XZ$1:
  00008	8b 4d f0	 mov	 ecx, DWORD PTR _this$[ebp]
  0000b	83 c1 04	 add	 ecx, 4
  0000e	e9 00 00 00 00	 jmp	 ??1IAbstractPlayer@@UAE@XZ ; IAbstractPlayer::~IAbstractPlayer
__unwindfunclet$??0CPythonPlayer@@QAE@XZ$2:
  00013	8b 4d f0	 mov	 ecx, DWORD PTR _this$[ebp]
  00016	83 c1 0c	 add	 ecx, 12			; 0000000cH
  00019	e9 00 00 00 00	 jmp	 ??1?$map@KKU?$less@K@std@@V?$allocator@U?$pair@$$CBKK@std@@@2@@std@@QAE@XZ
__unwindfunclet$??0CPythonPlayer@@QAE@XZ$3:
  0001e	8b 4d f0	 mov	 ecx, DWORD PTR _this$[ebp]
  00021	83 c1 14	 add	 ecx, 20			; 00000014H
  00024	e9 00 00 00 00	 jmp	 ??1?$basic_string@DU?$char_traits@D@std@@V?$allocator@D@2@@std@@QAE@XZ ; std::basic_string<char,std::char_traits<char>,std::allocator<char> >::~basic_string<char,std::char_traits<char>,std::allocator<char> >
__unwindfunclet$??0CPythonPlayer@@QAE@XZ$4:
  00029	8b 4d f0	 mov	 ecx, DWORD PTR _this$[ebp]
  0002c	81 c1 84 f7 00
	00		 add	 ecx, 63364		; 0000f784H
  00032	e9 00 00 00 00	 jmp	 ??1?$map@KUSPartyMemberInfo@CPythonPlayer@@U?$less@K@std@@V?$allocator@U?$pair@$$CBKUSPartyMemberInfo@CPythonPlayer@@@std@@@4@@std@@QAE@XZ
__unwindfunclet$??0CPythonPlayer@@QAE@XZ$5:
  00037	8b 4d f0	 mov	 ecx, DWORD PTR _this$[ebp]
  0003a	81 c1 8c f7 00
	00		 add	 ecx, 63372		; 0000f78cH
  00040	e9 00 00 00 00	 jmp	 ??1?$set@KU?$less@K@std@@V?$allocator@K@2@@std@@QAE@XZ
__unwindfunclet$??0CPythonPlayer@@QAE@XZ$6:
  00045	8b 4d f0	 mov	 ecx, DWORD PTR _this$[ebp]
  00048	81 c1 94 f7 00
	00		 add	 ecx, 63380		; 0000f794H
  0004e	e9 00 00 00 00	 jmp	 ??1?$set@KU?$less@K@std@@V?$allocator@K@2@@std@@QAE@XZ
__unwindfunclet$??0CPythonPlayer@@QAE@XZ$7:
  00053	8b 4d f0	 mov	 ecx, DWORD PTR _this$[ebp]
  00056	81 c1 9c f7 00
	00		 add	 ecx, 63388		; 0000f79cH
  0005c	e9 00 00 00 00	 jmp	 ??1?$set@KU?$less@K@std@@V?$allocator@K@2@@std@@QAE@XZ
__unwindfunclet$??0CPythonPlayer@@QAE@XZ$8:
  00061	8b 4d f0	 mov	 ecx, DWORD PTR _this$[ebp]
  00064	81 c1 1c f8 00
	00		 add	 ecx, 63516		; 0000f81cH
  0006a	e9 00 00 00 00	 jmp	 ??1?$map@KKU?$less@K@std@@V?$allocator@U?$pair@$$CBKK@std@@@2@@std@@QAE@XZ
  0006f	cc		 int	 3
  00070	cc		 int	 3
  00071	cc		 int	 3
  00072	cc		 int	 3
  00073	cc		 int	 3
__ehhandler$??0CPythonPlayer@@QAE@XZ:
  00074	90		 npad	 1
  00075	90		 npad	 1
  00076	8b 54 24 08	 mov	 edx, DWORD PTR [esp+8]
  0007a	8d 42 0c	 lea	 eax, DWORD PTR [edx+12]
  0007d	8b 4a e0	 mov	 ecx, DWORD PTR [edx-32]
  00080	33 c8		 xor	 ecx, eax
  00082	e8 00 00 00 00	 call	 @__security_check_cookie@4
  00087	b8 00 00 00 00	 mov	 eax, OFFSET __ehfuncinfo$??0CPythonPlayer@@QAE@XZ
  0008c	e9 00 00 00 00	 jmp	 ___CxxFrameHandler3
text$x	ENDS
??0CPythonPlayer@@QAE@XZ ENDP				; CPythonPlayer::CPythonPlayer
; Function compile flags: /Ogtp
; File D:\_m2work\Server Client TMP4\ClientVS22\source\UserInterface\PythonPlayer.cpp
; File C:\Program Files\Microsoft Visual Studio\2022\Community\VC\Tools\MSVC\14.44.35207\include\xtree
; File D:\_m2work\Server Client TMP4\ClientVS22\source\UserInterface\PythonPlayer.cpp
; File C:\Program Files\Microsoft Visual Studio\2022\Community\VC\Tools\MSVC\14.44.35207\include\xtree
; File D:\_m2work\Server Client TMP4\ClientVS22\source\UserInterface\PythonPlayer.cpp
; File C:\Program Files\Microsoft Visual Studio\2022\Community\VC\Tools\MSVC\14.44.35207\include\xtree
; File C:\Program Files\Microsoft Visual Studio\2022\Community\VC\Tools\MSVC\14.44.35207\include\xmemory
; File D:\_m2work\Server Client TMP4\ClientVS22\source\UserInterface\PythonPlayer.cpp
; File C:\Program Files\Microsoft Visual Studio\2022\Community\VC\Tools\MSVC\14.44.35207\include\xmemory
; File D:\_m2work\Server Client TMP4\ClientVS22\source\UserInterface\PythonPlayer.cpp
; File C:\Program Files\Microsoft Visual Studio\2022\Community\VC\Tools\MSVC\14.44.35207\include\xtree
; File D:\_m2work\Server Client TMP4\ClientVS22\source\UserInterface\PythonPlayer.cpp
;	COMDAT ?NEW_ClearSkillData@CPythonPlayer@@QAEX_N@Z
_TEXT	SEGMENT
_it$ = -4						; size = 4
__Successor$1 = -4					; size = 4
_bAll$ = 8						; size = 1
?NEW_ClearSkillData@CPythonPlayer@@QAEX_N@Z PROC	; CPythonPlayer::NEW_ClearSkillData, COMDAT
; _this$ = ecx

; 1566 : {

  00000	55		 push	 ebp
  00001	8b ec		 mov	 ebp, esp
  00003	51		 push	 ecx
  00004	53		 push	 ebx
  00005	56		 push	 esi
  00006	57		 push	 edi
  00007	8b f9		 mov	 edi, ecx
; File C:\Program Files\Microsoft Visual Studio\2022\Community\VC\Tools\MSVC\14.44.35207\include\xtree

; 1142 :         return iterator(_Scary->_Myhead->_Left, _Scary);

  00009	8b 47 0c	 mov	 eax, DWORD PTR [edi+12]

; 37   :     _Tree_unchecked_const_iterator(_Nodeptr _Pnode, const _Mytree* _Plist) noexcept : _Ptr(_Pnode) {

  0000c	8b 30		 mov	 esi, DWORD PTR [eax]
; File D:\_m2work\Server Client TMP4\ClientVS22\source\UserInterface\PythonPlayer.cpp

; 1569 : 	for (it = m_skillSlotDict.begin(); it != m_skillSlotDict.end();)

  0000e	89 75 fc	 mov	 DWORD PTR _it$[ebp], esi
; File C:\Program Files\Microsoft Visual Studio\2022\Community\VC\Tools\MSVC\14.44.35207\include\xtree

; 37   :     _Tree_unchecked_const_iterator(_Nodeptr _Pnode, const _Mytree* _Plist) noexcept : _Ptr(_Pnode) {

  00011	3b f0		 cmp	 esi, eax
; File D:\_m2work\Server Client TMP4\ClientVS22\source\UserInterface\PythonPlayer.cpp

; 1569 : 	for (it = m_skillSlotDict.begin(); it != m_skillSlotDict.end();)

  00013	74 4b		 je	 SHORT $LN140@NEW_ClearS
$LL4@NEW_ClearS:

; 1570 : 	{
; 1571 : 		if (bAll || __GetSkillType(it->first) == CPythonSkill::SKILL_TYPE_ACTIVE)

  00015	80 7d 08 00	 cmp	 BYTE PTR _bAll$[ebp], 0
  00019	75 1b		 jne	 SHORT $LN148@NEW_ClearS
  0001b	ff 76 10	 push	 DWORD PTR [esi+16]
  0001e	8b cf		 mov	 ecx, edi
  00020	e8 00 00 00 00	 call	 ?__GetSkillType@CPythonPlayer@@IAEEK@Z ; CPythonPlayer::__GetSkillType
  00025	3c 01		 cmp	 al, 1
  00027	74 0d		 je	 SHORT $LN148@NEW_ClearS
; File C:\Program Files\Microsoft Visual Studio\2022\Community\VC\Tools\MSVC\14.44.35207\include\xtree

; 198  :         _Mybase::operator++();

  00029	8d 4d fc	 lea	 ecx, DWORD PTR _it$[ebp]
  0002c	e8 00 00 00 00	 call	 ??E?$_Tree_unchecked_const_iterator@V?$_Tree_val@U?$_Tree_simple_types@U?$pair@$$CBKK@std@@@std@@@std@@U_Iterator_base0@2@@std@@QAEAAV01@XZ ; std::_Tree_unchecked_const_iterator<std::_Tree_val<std::_Tree_simple_types<std::pair<unsigned long const ,unsigned long> > >,std::_Iterator_base0>::operator++
  00031	8b 75 fc	 mov	 esi, DWORD PTR _it$[ebp]
  00034	eb 25		 jmp	 SHORT $LN2@NEW_ClearS
$LN148@NEW_ClearS:

; 1302 :         ++_Successor; // save successor iterator for return

  00036	8d 4d fc	 lea	 ecx, DWORD PTR __Successor$1[ebp]
  00039	89 75 fc	 mov	 DWORD PTR __Successor$1[ebp], esi
  0003c	e8 00 00 00 00	 call	 ??E?$_Tree_unchecked_const_iterator@V?$_Tree_val@U?$_Tree_simple_types@U?$pair@$$CBKK@std@@@std@@@std@@U_Iterator_base0@2@@std@@QAEAAV01@XZ ; std::_Tree_unchecked_const_iterator<std::_Tree_val<std::_Tree_simple_types<std::pair<unsigned long const ,unsigned long> > >,std::_Iterator_base0>::operator++

; 1303 :         _Nodeptr _Erasednode = _Scary->_Extract(_Where); // node to erase

  00041	56		 push	 esi
  00042	8d 4f 0c	 lea	 ecx, DWORD PTR [edi+12]
  00045	e8 00 00 00 00	 call	 ?_Extract@?$_Tree_val@U?$_Tree_simple_types@U?$pair@$$CBKK@std@@@std@@@std@@QAEPAU?$_Tree_node@U?$pair@$$CBKK@std@@PAX@2@V?$_Tree_unchecked_const_iterator@V?$_Tree_val@U?$_Tree_simple_types@U?$pair@$$CBKK@std@@@std@@@std@@U_Iterator_base0@2@@2@@Z ; std::_Tree_val<std::_Tree_simple_types<std::pair<unsigned long const ,unsigned long> > >::_Extract
; File C:\Program Files\Microsoft Visual Studio\2022\Community\VC\Tools\MSVC\14.44.35207\include\xmemory

; 289  :         ::operator delete(_Ptr, _Bytes);

  0004a	6a 18		 push	 24			; 00000018H
  0004c	50		 push	 eax
  0004d	e8 00 00 00 00	 call	 ??3@YAXPAXI@Z		; operator delete
; File D:\_m2work\Server Client TMP4\ClientVS22\source\UserInterface\PythonPlayer.cpp

; 1572 : 			it = m_skillSlotDict.erase(it);

  00052	8b 75 fc	 mov	 esi, DWORD PTR __Successor$1[ebp]
; File C:\Program Files\Microsoft Visual Studio\2022\Community\VC\Tools\MSVC\14.44.35207\include\xmemory

; 289  :         ::operator delete(_Ptr, _Bytes);

  00055	83 c4 08	 add	 esp, 8
; File D:\_m2work\Server Client TMP4\ClientVS22\source\UserInterface\PythonPlayer.cpp

; 1572 : 			it = m_skillSlotDict.erase(it);

  00058	89 75 fc	 mov	 DWORD PTR _it$[ebp], esi
$LN2@NEW_ClearS:
; File C:\Program Files\Microsoft Visual Studio\2022\Community\VC\Tools\MSVC\14.44.35207\include\xtree

; 37   :     _Tree_unchecked_const_iterator(_Nodeptr _Pnode, const _Mytree* _Plist) noexcept : _Ptr(_Pnode) {

  0005b	3b 77 0c	 cmp	 esi, DWORD PTR [edi+12]
; File D:\_m2work\Server Client TMP4\ClientVS22\source\UserInterface\PythonPlayer.cpp

; 1569 : 	for (it = m_skillSlotDict.begin(); it != m_skillSlotDict.end();)

  0005e	75 b5		 jne	 SHORT $LL4@NEW_ClearS
$LN140@NEW_ClearS:

; 1573 : 		else
; 1574 : 			++it;
; 1575 : 	}
; 1576 : 
; 1577 : 	for (int i = 0; i < SKILL_MAX_NUM; ++i)

  00060	68 d8 27 00 00	 push	 10200			; 000027d8H
  00065	8d 87 68 cb 00
	00		 lea	 eax, DWORD PTR [edi+52072]
  0006b	6a 00		 push	 0
  0006d	50		 push	 eax
  0006e	e8 00 00 00 00	 call	 _memset
  00073	83 c4 0c	 add	 esp, 12			; 0000000cH

; 1578 : 	{
; 1579 : 		ZeroMemory(&m_playerStatus.aSkill[i], sizeof(TSkillInstance));
; 1580 : 	}
; 1581 : 
; 1582 : 	for (int j = 0; j < SKILL_MAX_NUM; ++j)

  00076	8d 87 78 cb 00
	00		 lea	 eax, DWORD PTR [edi+52088]
  0007c	b9 ff 00 00 00	 mov	 ecx, 255		; 000000ffH
$LL10@NEW_ClearS:

; 1583 : 	{
; 1584 : 		// 2004.09.30.myevan.  [+]   
; 1585 : 		m_playerStatus.aSkill[j].iGrade = 0;

  00081	c7 40 f8 00 00
	00 00		 mov	 DWORD PTR [eax-8], 0
  00088	8d 40 28	 lea	 eax, DWORD PTR [eax+40]

; 1586 : 		m_playerStatus.aSkill[j].fcurEfficientPercentage=0.0f;

  0008b	c7 40 d8 00 00
	00 00		 mov	 DWORD PTR [eax-40], 0

; 1587 : 		m_playerStatus.aSkill[j].fnextEfficientPercentage=0.05f;

  00092	c7 40 dc cd cc
	4c 3d		 mov	 DWORD PTR [eax-36], 1028443341 ; 3d4ccccdH
  00099	83 e9 01	 sub	 ecx, 1
  0009c	75 e3		 jne	 SHORT $LL10@NEW_ClearS

; 1588 : 	}
; 1589 : 
; 1590 : 	if (m_ppyGameWindow)

  0009e	39 4f 08	 cmp	 DWORD PTR [edi+8], ecx
  000a1	74 16		 je	 SHORT $LN14@NEW_ClearS

; 1591 : 		PyCallClassMemberFunc(m_ppyGameWindow, "BINARY_CheckGameButton", Py_BuildNone());

  000a3	e8 00 00 00 00	 call	 ?Py_BuildNone@@YAPAU_object@@XZ ; Py_BuildNone
  000a8	50		 push	 eax
  000a9	68 00 00 00 00	 push	 OFFSET ??_C@_0BH@PIKHDMAM@BINARY_CheckGameButton@
  000ae	ff 77 08	 push	 DWORD PTR [edi+8]
  000b1	e8 00 00 00 00	 call	 ?PyCallClassMemberFunc@@YA_NPAU_object@@PBD0@Z ; PyCallClassMemberFunc
  000b6	83 c4 0c	 add	 esp, 12			; 0000000cH
$LN14@NEW_ClearS:

; 1592 : }

  000b9	5f		 pop	 edi
  000ba	5e		 pop	 esi
  000bb	5b		 pop	 ebx
  000bc	8b e5		 mov	 esp, ebp
  000be	5d		 pop	 ebp
  000bf	c2 04 00	 ret	 4
?NEW_ClearSkillData@CPythonPlayer@@QAEX_N@Z ENDP	; CPythonPlayer::NEW_ClearSkillData
_TEXT	ENDS
; Function compile flags: /Ogtp
; File D:\_m2work\Server Client TMP4\ClientVS22\source\UserInterface\PythonPlayer.cpp
;	COMDAT ?OpenPrivateShop@CPythonPlayer@@QAEXXZ
_TEXT	SEGMENT
?OpenPrivateShop@CPythonPlayer@@QAEXXZ PROC		; CPythonPlayer::OpenPrivateShop, COMDAT
; _this$ = ecx

; 1487 : 	m_isOpenPrivateShop = TRUE;

  00000	c6 81 a4 f7 00
	00 01		 mov	 BYTE PTR [ecx+63396], 1

; 1488 : }

  00007	c3		 ret	 0
?OpenPrivateShop@CPythonPlayer@@QAEXXZ ENDP		; CPythonPlayer::OpenPrivateShop
_TEXT	ENDS
; Function compile flags: /Ogtp
; File D:\_m2work\Server Client TMP4\ClientVS22\source\UserInterface\PythonPlayer.cpp
;	COMDAT ?ClosePrivateShop@CPythonPlayer@@QAEXXZ
_TEXT	SEGMENT
?ClosePrivateShop@CPythonPlayer@@QAEXXZ PROC		; CPythonPlayer::ClosePrivateShop, COMDAT
; _this$ = ecx

; 1491 : 	m_isOpenPrivateShop = FALSE;

  00000	c6 81 a4 f7 00
	00 00		 mov	 BYTE PTR [ecx+63396], 0

; 1492 : }

  00007	c3		 ret	 0
?ClosePrivateShop@CPythonPlayer@@QAEXXZ ENDP		; CPythonPlayer::ClosePrivateShop
_TEXT	ENDS
; Function compile flags: /Ogtp
; File D:\_m2work\Server Client TMP4\ClientVS22\source\UserInterface\PythonPlayer.cpp
;	COMDAT ?SetDungeonDestinationPosition@CPythonPlayer@@QAEXHH@Z
_TEXT	SEGMENT
_ix$ = 8						; size = 4
_iy$ = 12						; size = 4
?SetDungeonDestinationPosition@CPythonPlayer@@QAEXHH@Z PROC ; CPythonPlayer::SetDungeonDestinationPosition, COMDAT
; _this$ = ecx

; 1256 : {

  00000	55		 push	 ebp
  00001	8b ec		 mov	 ebp, esp

; 1257 : 	m_isDestPosition = TRUE;
; 1258 : 	m_ixDestPos = ix;

  00003	8b 45 08	 mov	 eax, DWORD PTR _ix$[ebp]
  00006	89 81 78 f7 00
	00		 mov	 DWORD PTR [ecx+63352], eax

; 1259 : 	m_iyDestPos = iy;

  0000c	8b 45 0c	 mov	 eax, DWORD PTR _iy$[ebp]
  0000f	c7 81 74 f7 00
	00 01 00 00 00	 mov	 DWORD PTR [ecx+63348], 1
  00019	89 81 7c f7 00
	00		 mov	 DWORD PTR [ecx+63356], eax

; 1260 : 
; 1261 : 	AlarmHaveToGo();

  0001f	e8 00 00 00 00	 call	 ?AlarmHaveToGo@CPythonPlayer@@QAEXXZ ; CPythonPlayer::AlarmHaveToGo

; 1262 : }

  00024	5d		 pop	 ebp
  00025	c2 08 00	 ret	 8
?SetDungeonDestinationPosition@CPythonPlayer@@QAEXHH@Z ENDP ; CPythonPlayer::SetDungeonDestinationPosition
_TEXT	ENDS
; Function compile flags: /Ogtp
; File D:\_m2work\Server Client TMP4\ClientVS22\source\UserInterface\PythonPlayer.cpp
;	COMDAT ?UnlinkPartyMember@CPythonPlayer@@QAEXK@Z
_TEXT	SEGMENT
_pPartyMemberInfo$ = -4					; size = 4
_dwPID$ = 8						; size = 4
?UnlinkPartyMember@CPythonPlayer@@QAEXK@Z PROC		; CPythonPlayer::UnlinkPartyMember, COMDAT
; _this$ = ecx

; 1317 : {

  00000	55		 push	 ebp
  00001	8b ec		 mov	 ebp, esp
  00003	51		 push	 ecx

; 1318 : 	TPartyMemberInfo * pPartyMemberInfo;
; 1319 : 	if (!GetPartyMemberPtr(dwPID, &pPartyMemberInfo))

  00004	8d 45 fc	 lea	 eax, DWORD PTR _pPartyMemberInfo$[ebp]
  00007	50		 push	 eax
  00008	ff 75 08	 push	 DWORD PTR _dwPID$[ebp]
  0000b	e8 00 00 00 00	 call	 ?GetPartyMemberPtr@CPythonPlayer@@QAE_NKPAPAUSPartyMemberInfo@1@@Z ; CPythonPlayer::GetPartyMemberPtr
  00010	84 c0		 test	 al, al
  00012	75 16		 jne	 SHORT $LN2@UnlinkPart

; 1320 : 	{
; 1321 : 		TraceError(" CPythonPlayer::UnlinkPartyMember(dwPID=%d) - Failed to find party member", dwPID);

  00014	ff 75 08	 push	 DWORD PTR _dwPID$[ebp]
  00017	68 00 00 00 00	 push	 OFFSET ??_C@_0EK@OICEDEOK@?5CPythonPlayer?3?3UnlinkPartyMemb@
  0001c	e8 00 00 00 00	 call	 ?TraceError@@YAXPBDZZ	; TraceError
  00021	83 c4 08	 add	 esp, 8

; 1326 : }

  00024	8b e5		 mov	 esp, ebp
  00026	5d		 pop	 ebp
  00027	c2 04 00	 ret	 4
$LN2@UnlinkPart:

; 1322 : 		return;
; 1323 : 	}
; 1324 : 
; 1325 : 	pPartyMemberInfo->dwVID = 0;

  0002a	8b 45 fc	 mov	 eax, DWORD PTR _pPartyMemberInfo$[ebp]
  0002d	c7 00 00 00 00
	00		 mov	 DWORD PTR [eax], 0

; 1326 : }

  00033	8b e5		 mov	 esp, ebp
  00035	5d		 pop	 ebp
  00036	c2 04 00	 ret	 4
?UnlinkPartyMember@CPythonPlayer@@QAEXK@Z ENDP		; CPythonPlayer::UnlinkPartyMember
_TEXT	ENDS
; Function compile flags: /Ogtp
; File D:\_m2work\Server Client TMP4\ClientVS22\source\UserInterface\PythonPlayer.cpp
;	COMDAT ?LinkPartyMember@CPythonPlayer@@QAEXKK@Z
_TEXT	SEGMENT
_pPartyMemberInfo$ = -4					; size = 4
_dwPID$ = 8						; size = 4
_dwVID$ = 12						; size = 4
?LinkPartyMember@CPythonPlayer@@QAEXKK@Z PROC		; CPythonPlayer::LinkPartyMember, COMDAT
; _this$ = ecx

; 1301 : {

  00000	55		 push	 ebp
  00001	8b ec		 mov	 ebp, esp
  00003	51		 push	 ecx

; 1302 : 	TPartyMemberInfo * pPartyMemberInfo;
; 1303 : 	if (!GetPartyMemberPtr(dwPID, &pPartyMemberInfo))

  00004	8d 45 fc	 lea	 eax, DWORD PTR _pPartyMemberInfo$[ebp]
  00007	50		 push	 eax
  00008	ff 75 08	 push	 DWORD PTR _dwPID$[ebp]
  0000b	e8 00 00 00 00	 call	 ?GetPartyMemberPtr@CPythonPlayer@@QAE_NKPAPAUSPartyMemberInfo@1@@Z ; CPythonPlayer::GetPartyMemberPtr
  00010	84 c0		 test	 al, al
  00012	75 19		 jne	 SHORT $LN2@LinkPartyM

; 1304 : 	{
; 1305 : 		TraceError(" CPythonPlayer::LinkPartyMember(dwPID=%d, dwVID=%d) - Failed to find party member", dwPID, dwVID);

  00014	ff 75 0c	 push	 DWORD PTR _dwVID$[ebp]
  00017	ff 75 08	 push	 DWORD PTR _dwPID$[ebp]
  0001a	68 00 00 00 00	 push	 OFFSET ??_C@_0FC@JHEGNFED@?5CPythonPlayer?3?3LinkPartyMember@
  0001f	e8 00 00 00 00	 call	 ?TraceError@@YAXPBDZZ	; TraceError
  00024	83 c4 0c	 add	 esp, 12			; 0000000cH

; 1314 : }

  00027	8b e5		 mov	 esp, ebp
  00029	5d		 pop	 ebp
  0002a	c2 08 00	 ret	 8
$LN2@LinkPartyM:

; 1306 : 		return;
; 1307 : 	}
; 1308 : 
; 1309 : 	pPartyMemberInfo->dwVID = dwVID;

  0002d	8b 45 fc	 mov	 eax, DWORD PTR _pPartyMemberInfo$[ebp]
  00030	8b 4d 0c	 mov	 ecx, DWORD PTR _dwVID$[ebp]

; 1310 : 
; 1311 : 	CInstanceBase * pInstance = NEW_FindActorPtr(dwVID);

  00033	51		 push	 ecx
  00034	89 08		 mov	 DWORD PTR [eax], ecx
  00036	e8 00 00 00 00	 call	 ?NEW_FindActorPtr@CPythonPlayer@@QAEPAVCInstanceBase@@K@Z ; CPythonPlayer::NEW_FindActorPtr

; 1312 : 	if (pInstance)

  0003b	85 c0		 test	 eax, eax
  0003d	74 07		 je	 SHORT $LN3@LinkPartyM

; 1313 : 		pInstance->RefreshTextTail();

  0003f	8b c8		 mov	 ecx, eax
  00041	e8 00 00 00 00	 call	 ?RefreshTextTail@CInstanceBase@@QAEXXZ ; CInstanceBase::RefreshTextTail
$LN3@LinkPartyM:

; 1314 : }

  00046	8b e5		 mov	 esp, ebp
  00048	5d		 pop	 ebp
  00049	c2 08 00	 ret	 8
?LinkPartyMember@CPythonPlayer@@QAEXKK@Z ENDP		; CPythonPlayer::LinkPartyMember
_TEXT	ENDS
; Function compile flags: /Ogtp
; File D:\_m2work\Server Client TMP4\ClientVS22\source\UserInterface\PythonPlayer.cpp
; File C:\Program Files\Microsoft Visual Studio\2022\Community\VC\Tools\MSVC\14.44.35207\include\xtree
; File D:\_m2work\Server Client TMP4\ClientVS22\source\UserInterface\PythonPlayer.cpp
; File C:\Program Files\Microsoft Visual Studio\2022\Community\VC\Tools\MSVC\14.44.35207\include\xtree
; File C:\Program Files\Microsoft Visual Studio\2022\Community\VC\Tools\MSVC\14.44.35207\include\type_traits
; File C:\Program Files\Microsoft Visual Studio\2022\Community\VC\Tools\MSVC\14.44.35207\include\xtree
; File D:\_m2work\Server Client TMP4\ClientVS22\source\UserInterface\PythonPlayer.cpp
;	COMDAT ?PartyMemberPIDToVID@CPythonPlayer@@QAE_NKPAK@Z
_TEXT	SEGMENT
__Loc$1 = -12						; size = 12
_dwPID$ = 8						; size = 4
_pdwVID$ = 12						; size = 4
?PartyMemberPIDToVID@CPythonPlayer@@QAE_NKPAK@Z PROC	; CPythonPlayer::PartyMemberPIDToVID, COMDAT
; _this$ = ecx

; 1417 : {

  00000	55		 push	 ebp
  00001	8b ec		 mov	 ebp, esp
  00003	83 ec 0c	 sub	 esp, 12			; 0000000cH
  00006	56		 push	 esi
; File C:\Program Files\Microsoft Visual Studio\2022\Community\VC\Tools\MSVC\14.44.35207\include\xtree

; 1384 :         const _Tree_find_result<_Nodeptr> _Loc = _Find_lower_bound(_Keyval);

  00007	8d 45 08	 lea	 eax, DWORD PTR _dwPID$[ebp]
  0000a	50		 push	 eax
; File D:\_m2work\Server Client TMP4\ClientVS22\source\UserInterface\PythonPlayer.cpp

; 1418 : 	std::map<DWORD, TPartyMemberInfo>::iterator itor = m_PartyMemberMap.find(dwPID);

  0000b	8d b1 84 f7 00
	00		 lea	 esi, DWORD PTR [ecx+63364]
; File C:\Program Files\Microsoft Visual Studio\2022\Community\VC\Tools\MSVC\14.44.35207\include\xtree

; 1384 :         const _Tree_find_result<_Nodeptr> _Loc = _Find_lower_bound(_Keyval);

  00011	8d 45 f4	 lea	 eax, DWORD PTR __Loc$1[ebp]
  00014	8b ce		 mov	 ecx, esi
  00016	50		 push	 eax
  00017	e8 00 00 00 00	 call	 ??$_Find_lower_bound@K@?$_Tree@V?$_Tmap_traits@KUSPartyMemberInfo@CPythonPlayer@@U?$less@K@std@@V?$allocator@U?$pair@$$CBKUSPartyMemberInfo@CPythonPlayer@@@std@@@4@$0A@@std@@@std@@IBE?AU?$_Tree_find_result@PAU?$_Tree_node@U?$pair@$$CBKUSPartyMemberInfo@CPythonPlayer@@@std@@PAX@std@@@1@ABK@Z ; std::_Tree<std::_Tmap_traits<unsigned long,CPythonPlayer::SPartyMemberInfo,std::less<unsigned long>,std::allocator<std::pair<unsigned long const ,CPythonPlayer::SPartyMemberInfo> >,0> >::_Find_lower_bound<unsigned long>

; 1624 :         return !_Bound->_Isnil && !_DEBUG_LT_PRED(_Getcomp(), _Keyval, _Traits::_Kfn(_Bound->_Myval));

  0001c	8b 4d fc	 mov	 ecx, DWORD PTR __Loc$1[ebp+8]
  0001f	80 79 0d 00	 cmp	 BYTE PTR [ecx+13], 0
  00023	75 1d		 jne	 SHORT $LN50@PartyMembe
; File C:\Program Files\Microsoft Visual Studio\2022\Community\VC\Tools\MSVC\14.44.35207\include\type_traits

; 2380 :         return _Left < _Right;

  00025	8b 45 08	 mov	 eax, DWORD PTR _dwPID$[ebp]
  00028	3b 41 10	 cmp	 eax, DWORD PTR [ecx+16]
; File C:\Program Files\Microsoft Visual Studio\2022\Community\VC\Tools\MSVC\14.44.35207\include\xtree

; 1624 :         return !_Bound->_Isnil && !_DEBUG_LT_PRED(_Getcomp(), _Keyval, _Traits::_Kfn(_Bound->_Myval));

  0002b	72 15		 jb	 SHORT $LN50@PartyMembe

; 37   :     _Tree_unchecked_const_iterator(_Nodeptr _Pnode, const _Mytree* _Plist) noexcept : _Ptr(_Pnode) {

  0002d	39 0e		 cmp	 DWORD PTR [esi], ecx
; File D:\_m2work\Server Client TMP4\ClientVS22\source\UserInterface\PythonPlayer.cpp

; 1420 : 	if (m_PartyMemberMap.end() == itor)

  0002f	74 11		 je	 SHORT $LN50@PartyMembe

; 1422 : 
; 1423 : 	const TPartyMemberInfo & c_rPartyMemberInfo = itor->second;
; 1424 : 	*pdwVID = c_rPartyMemberInfo.dwVID;

  00031	8b 45 0c	 mov	 eax, DWORD PTR _pdwVID$[ebp]
  00034	8b 49 14	 mov	 ecx, DWORD PTR [ecx+20]
  00037	5e		 pop	 esi
  00038	89 08		 mov	 DWORD PTR [eax], ecx

; 1425 : 
; 1426 : 	return true;

  0003a	b0 01		 mov	 al, 1

; 1427 : }

  0003c	8b e5		 mov	 esp, ebp
  0003e	5d		 pop	 ebp
  0003f	c2 08 00	 ret	 8
$LN50@PartyMembe:

; 1421 : 		return false;

  00042	32 c0		 xor	 al, al
  00044	5e		 pop	 esi

; 1427 : }

  00045	8b e5		 mov	 esp, ebp
  00047	5d		 pop	 ebp
  00048	c2 08 00	 ret	 8
?PartyMemberPIDToVID@CPythonPlayer@@QAE_NKPAK@Z ENDP	; CPythonPlayer::PartyMemberPIDToVID
_TEXT	ENDS
; Function compile flags: /Ogtp
; File D:\_m2work\Server Client TMP4\ClientVS22\source\UserInterface\PythonPlayer.cpp
;	COMDAT ?UpdatePartyMemberAffect@CPythonPlayer@@QAEXKEF@Z
_TEXT	SEGMENT
_dwPID$ = 8						; size = 4
_byAffectSlotIndex$ = 12				; size = 1
_pPartyMemberInfo$ = 12					; size = 4
_sAffectNumber$ = 16					; size = 2
?UpdatePartyMemberAffect@CPythonPlayer@@QAEXKEF@Z PROC	; CPythonPlayer::UpdatePartyMemberAffect, COMDAT
; _this$ = ecx

; 1342 : {

  00000	55		 push	 ebp
  00001	8b ec		 mov	 ebp, esp

; 1343 : 	if (byAffectSlotIndex >= PARTY_AFFECT_SLOT_MAX_NUM)

  00003	80 7d 0c 07	 cmp	 BYTE PTR _byAffectSlotIndex$[ebp], 7
  00007	56		 push	 esi
  00008	0f b6 75 0c	 movzx	 esi, BYTE PTR _byAffectSlotIndex$[ebp]
  0000c	72 1b		 jb	 SHORT $LN2@UpdatePart

; 1344 : 	{
; 1345 : 		TraceError(" CPythonPlayer::UpdatePartyMemberAffect(dwPID=%d, byAffectSlotIndex=%d, sAffectNumber=%d) - Strange affect slot index", dwPID, byAffectSlotIndex, sAffectNumber);

  0000e	0f bf 45 10	 movsx	 eax, WORD PTR _sAffectNumber$[ebp]
  00012	50		 push	 eax
  00013	56		 push	 esi
  00014	ff 75 08	 push	 DWORD PTR _dwPID$[ebp]
  00017	68 00 00 00 00	 push	 OFFSET ??_C@_0HG@LLGBHOIA@?5CPythonPlayer?3?3UpdatePartyMemb@
  0001c	e8 00 00 00 00	 call	 ?TraceError@@YAXPBDZZ	; TraceError
  00021	83 c4 10	 add	 esp, 16			; 00000010H
  00024	5e		 pop	 esi

; 1357 : }

  00025	5d		 pop	 ebp
  00026	c2 0c 00	 ret	 12			; 0000000cH
$LN2@UpdatePart:

; 1346 : 		return;
; 1347 : 	}
; 1348 : 
; 1349 : 	TPartyMemberInfo * pPartyMemberInfo;
; 1350 : 	if (!GetPartyMemberPtr(dwPID, &pPartyMemberInfo))

  00029	8d 45 0c	 lea	 eax, DWORD PTR _pPartyMemberInfo$[ebp]
  0002c	50		 push	 eax
  0002d	ff 75 08	 push	 DWORD PTR _dwPID$[ebp]
  00030	e8 00 00 00 00	 call	 ?GetPartyMemberPtr@CPythonPlayer@@QAE_NKPAPAUSPartyMemberInfo@1@@Z ; CPythonPlayer::GetPartyMemberPtr
  00035	84 c0		 test	 al, al
  00037	75 1b		 jne	 SHORT $LN3@UpdatePart

; 1351 : 	{
; 1352 : 		TraceError(" CPythonPlayer::UpdatePartyMemberAffect(dwPID=%d, byAffectSlotIndex=%d, sAffectNumber=%d) - Failed to find character", dwPID, byAffectSlotIndex, sAffectNumber);

  00039	0f bf 45 10	 movsx	 eax, WORD PTR _sAffectNumber$[ebp]
  0003d	50		 push	 eax
  0003e	56		 push	 esi
  0003f	ff 75 08	 push	 DWORD PTR _dwPID$[ebp]
  00042	68 00 00 00 00	 push	 OFFSET ??_C@_0HF@NJGIGGLI@?5CPythonPlayer?3?3UpdatePartyMemb@
  00047	e8 00 00 00 00	 call	 ?TraceError@@YAXPBDZZ	; TraceError
  0004c	83 c4 10	 add	 esp, 16			; 00000010H
  0004f	5e		 pop	 esi

; 1357 : }

  00050	5d		 pop	 ebp
  00051	c2 0c 00	 ret	 12			; 0000000cH
$LN3@UpdatePart:

; 1353 : 		return;
; 1354 : 	}
; 1355 : 
; 1356 : 	pPartyMemberInfo->sAffects[byAffectSlotIndex] = sAffectNumber;

  00054	8b 45 0c	 mov	 eax, DWORD PTR _pPartyMemberInfo$[ebp]
  00057	66 8b 4d 10	 mov	 cx, WORD PTR _sAffectNumber$[ebp]
  0005b	66 89 4c 70 22	 mov	 WORD PTR [eax+esi*2+34], cx
  00060	5e		 pop	 esi

; 1357 : }

  00061	5d		 pop	 ebp
  00062	c2 0c 00	 ret	 12			; 0000000cH
?UpdatePartyMemberAffect@CPythonPlayer@@QAEXKEF@Z ENDP	; CPythonPlayer::UpdatePartyMemberAffect
_TEXT	ENDS
; Function compile flags: /Ogtp
; File D:\_m2work\Server Client TMP4\ClientVS22\source\UserInterface\PythonPlayer.cpp
;	COMDAT ?UpdatePartyMemberInfo@CPythonPlayer@@QAEXKEE@Z
_TEXT	SEGMENT
_pPartyMemberInfo$ = -4					; size = 4
_dwPID$ = 8						; size = 4
_byState$ = 12						; size = 1
_byHPPercentage$ = 16					; size = 1
?UpdatePartyMemberInfo@CPythonPlayer@@QAEXKEE@Z PROC	; CPythonPlayer::UpdatePartyMemberInfo, COMDAT
; _this$ = ecx

; 1329 : {

  00000	55		 push	 ebp
  00001	8b ec		 mov	 ebp, esp
  00003	51		 push	 ecx

; 1330 : 	TPartyMemberInfo * pPartyMemberInfo;
; 1331 : 	if (!GetPartyMemberPtr(dwPID, &pPartyMemberInfo))

  00004	8d 45 fc	 lea	 eax, DWORD PTR _pPartyMemberInfo$[ebp]
  00007	50		 push	 eax
  00008	ff 75 08	 push	 DWORD PTR _dwPID$[ebp]
  0000b	e8 00 00 00 00	 call	 ?GetPartyMemberPtr@CPythonPlayer@@QAE_NKPAPAUSPartyMemberInfo@1@@Z ; CPythonPlayer::GetPartyMemberPtr
  00010	84 c0		 test	 al, al
  00012	75 20		 jne	 SHORT $LN2@UpdatePart

; 1332 : 	{
; 1333 : 		TraceError(" CPythonPlayer::UpdatePartyMemberInfo(dwPID=%d, byState=%d, byHPPercentage=%d) - Failed to find character", dwPID, byState, byHPPercentage);

  00014	0f b6 45 10	 movzx	 eax, BYTE PTR _byHPPercentage$[ebp]
  00018	50		 push	 eax
  00019	0f b6 45 0c	 movzx	 eax, BYTE PTR _byState$[ebp]
  0001d	50		 push	 eax
  0001e	ff 75 08	 push	 DWORD PTR _dwPID$[ebp]
  00021	68 00 00 00 00	 push	 OFFSET ??_C@_0GK@FIFNELKC@?5CPythonPlayer?3?3UpdatePartyMemb@
  00026	e8 00 00 00 00	 call	 ?TraceError@@YAXPBDZZ	; TraceError
  0002b	83 c4 10	 add	 esp, 16			; 00000010H

; 1339 : }

  0002e	8b e5		 mov	 esp, ebp
  00030	5d		 pop	 ebp
  00031	c2 0c 00	 ret	 12			; 0000000cH
$LN2@UpdatePart:

; 1334 : 		return;
; 1335 : 	}
; 1336 : 
; 1337 : 	pPartyMemberInfo->byState = byState;

  00034	8b 4d fc	 mov	 ecx, DWORD PTR _pPartyMemberInfo$[ebp]
  00037	8a 45 0c	 mov	 al, BYTE PTR _byState$[ebp]
  0003a	88 41 20	 mov	 BYTE PTR [ecx+32], al

; 1338 : 	pPartyMemberInfo->byHPPercentage = byHPPercentage;

  0003d	8a 45 10	 mov	 al, BYTE PTR _byHPPercentage$[ebp]
  00040	88 41 21	 mov	 BYTE PTR [ecx+33], al

; 1339 : }

  00043	8b e5		 mov	 esp, ebp
  00045	5d		 pop	 ebp
  00046	c2 0c 00	 ret	 12			; 0000000cH
?UpdatePartyMemberInfo@CPythonPlayer@@QAEXKEE@Z ENDP	; CPythonPlayer::UpdatePartyMemberInfo
_TEXT	ENDS
; Function compile flags: /Ogtp
; File D:\_m2work\Server Client TMP4\ClientVS22\source\UserInterface\PythonPlayer.cpp
; File C:\Program Files\Microsoft Visual Studio\2022\Community\VC\Tools\MSVC\14.44.35207\include\xtree
; File D:\_m2work\Server Client TMP4\ClientVS22\source\UserInterface\PythonPlayer.cpp
; File C:\Program Files\Microsoft Visual Studio\2022\Community\VC\Tools\MSVC\14.44.35207\include\xtree
; File C:\Program Files\Microsoft Visual Studio\2022\Community\VC\Tools\MSVC\14.44.35207\include\type_traits
; File C:\Program Files\Microsoft Visual Studio\2022\Community\VC\Tools\MSVC\14.44.35207\include\xtree
; File D:\_m2work\Server Client TMP4\ClientVS22\source\UserInterface\PythonPlayer.cpp
;	COMDAT ?GetPartyMemberPtr@CPythonPlayer@@QAE_NKPAPAUSPartyMemberInfo@1@@Z
_TEXT	SEGMENT
__Loc$1 = -12						; size = 12
_dwPID$ = 8						; size = 4
_ppPartyMemberInfo$ = 12				; size = 4
?GetPartyMemberPtr@CPythonPlayer@@QAE_NKPAPAUSPartyMemberInfo@1@@Z PROC ; CPythonPlayer::GetPartyMemberPtr, COMDAT
; _this$ = ecx

; 1405 : {

  00000	55		 push	 ebp
  00001	8b ec		 mov	 ebp, esp
  00003	83 ec 0c	 sub	 esp, 12			; 0000000cH
  00006	56		 push	 esi
; File C:\Program Files\Microsoft Visual Studio\2022\Community\VC\Tools\MSVC\14.44.35207\include\xtree

; 1384 :         const _Tree_find_result<_Nodeptr> _Loc = _Find_lower_bound(_Keyval);

  00007	8d 45 08	 lea	 eax, DWORD PTR _dwPID$[ebp]
  0000a	50		 push	 eax
; File D:\_m2work\Server Client TMP4\ClientVS22\source\UserInterface\PythonPlayer.cpp

; 1406 : 	std::map<DWORD, TPartyMemberInfo>::iterator itor = m_PartyMemberMap.find(dwPID);

  0000b	8d b1 84 f7 00
	00		 lea	 esi, DWORD PTR [ecx+63364]
; File C:\Program Files\Microsoft Visual Studio\2022\Community\VC\Tools\MSVC\14.44.35207\include\xtree

; 1384 :         const _Tree_find_result<_Nodeptr> _Loc = _Find_lower_bound(_Keyval);

  00011	8d 45 f4	 lea	 eax, DWORD PTR __Loc$1[ebp]
  00014	8b ce		 mov	 ecx, esi
  00016	50		 push	 eax
  00017	e8 00 00 00 00	 call	 ??$_Find_lower_bound@K@?$_Tree@V?$_Tmap_traits@KUSPartyMemberInfo@CPythonPlayer@@U?$less@K@std@@V?$allocator@U?$pair@$$CBKUSPartyMemberInfo@CPythonPlayer@@@std@@@4@$0A@@std@@@std@@IBE?AU?$_Tree_find_result@PAU?$_Tree_node@U?$pair@$$CBKUSPartyMemberInfo@CPythonPlayer@@@std@@PAX@std@@@1@ABK@Z ; std::_Tree<std::_Tmap_traits<unsigned long,CPythonPlayer::SPartyMemberInfo,std::less<unsigned long>,std::allocator<std::pair<unsigned long const ,CPythonPlayer::SPartyMemberInfo> >,0> >::_Find_lower_bound<unsigned long>

; 1624 :         return !_Bound->_Isnil && !_DEBUG_LT_PRED(_Getcomp(), _Keyval, _Traits::_Kfn(_Bound->_Myval));

  0001c	8b 4d fc	 mov	 ecx, DWORD PTR __Loc$1[ebp+8]
  0001f	80 79 0d 00	 cmp	 BYTE PTR [ecx+13], 0
  00023	75 1d		 jne	 SHORT $LN50@GetPartyMe
; File C:\Program Files\Microsoft Visual Studio\2022\Community\VC\Tools\MSVC\14.44.35207\include\type_traits

; 2380 :         return _Left < _Right;

  00025	8b 45 08	 mov	 eax, DWORD PTR _dwPID$[ebp]
  00028	3b 41 10	 cmp	 eax, DWORD PTR [ecx+16]
; File C:\Program Files\Microsoft Visual Studio\2022\Community\VC\Tools\MSVC\14.44.35207\include\xtree

; 1624 :         return !_Bound->_Isnil && !_DEBUG_LT_PRED(_Getcomp(), _Keyval, _Traits::_Kfn(_Bound->_Myval));

  0002b	72 15		 jb	 SHORT $LN50@GetPartyMe

; 37   :     _Tree_unchecked_const_iterator(_Nodeptr _Pnode, const _Mytree* _Plist) noexcept : _Ptr(_Pnode) {

  0002d	39 0e		 cmp	 DWORD PTR [esi], ecx
; File D:\_m2work\Server Client TMP4\ClientVS22\source\UserInterface\PythonPlayer.cpp

; 1408 : 	if (m_PartyMemberMap.end() == itor)

  0002f	74 11		 je	 SHORT $LN50@GetPartyMe

; 1410 : 
; 1411 : 	*ppPartyMemberInfo = &(itor->second);

  00031	8b 45 0c	 mov	 eax, DWORD PTR _ppPartyMemberInfo$[ebp]
  00034	83 c1 14	 add	 ecx, 20			; 00000014H
  00037	5e		 pop	 esi
  00038	89 08		 mov	 DWORD PTR [eax], ecx

; 1412 : 
; 1413 : 	return true;

  0003a	b0 01		 mov	 al, 1

; 1414 : }

  0003c	8b e5		 mov	 esp, ebp
  0003e	5d		 pop	 ebp
  0003f	c2 08 00	 ret	 8
$LN50@GetPartyMe:

; 1409 : 		return false;

  00042	32 c0		 xor	 al, al
  00044	5e		 pop	 esi

; 1414 : }

  00045	8b e5		 mov	 esp, ebp
  00047	5d		 pop	 ebp
  00048	c2 08 00	 ret	 8
?GetPartyMemberPtr@CPythonPlayer@@QAE_NKPAPAUSPartyMemberInfo@1@@Z ENDP ; CPythonPlayer::GetPartyMemberPtr
_TEXT	ENDS
; Function compile flags: /Ogtp
; File D:\_m2work\Server Client TMP4\ClientVS22\source\UserInterface\PythonPlayer.cpp
; File D:\_m2work\Server Client TMP4\ClientVS22\source\UserInterface\PythonPlayer.h
; File C:\Program Files\Microsoft Visual Studio\2022\Community\VC\Tools\MSVC\14.44.35207\include\__msvc_string_view.hpp
; File D:\_m2work\Server Client TMP4\ClientVS22\source\UserInterface\PythonPlayer.h
; File C:\Program Files\Microsoft Visual Studio\2022\Community\VC\Tools\MSVC\14.44.35207\include\xstring
; File C:\Program Files\Microsoft Visual Studio\2022\Community\VC\Tools\MSVC\14.44.35207\include\__msvc_string_view.hpp
; File C:\Program Files\Microsoft Visual Studio\2022\Community\VC\Tools\MSVC\14.44.35207\include\xstring
; File C:\Program Files\Microsoft Visual Studio\2022\Community\VC\Tools\MSVC\14.44.35207\include\__msvc_string_view.hpp
; File C:\Program Files\Microsoft Visual Studio\2022\Community\VC\Tools\MSVC\14.44.35207\include\xstring
; File C:\Program Files\Microsoft Visual Studio\2022\Community\VC\Tools\MSVC\14.44.35207\include\utility
; File D:\_m2work\Server Client TMP4\ClientVS22\source\UserInterface\PythonPlayer.cpp
; File C:\Program Files\Microsoft Visual Studio\2022\Community\VC\Tools\MSVC\14.44.35207\include\utility
; File C:\Program Files\Microsoft Visual Studio\2022\Community\VC\Tools\MSVC\14.44.35207\include\map
; File D:\_m2work\Server Client TMP4\ClientVS22\source\UserInterface\PythonPlayer.cpp
; File C:\Program Files\Microsoft Visual Studio\2022\Community\VC\Tools\MSVC\14.44.35207\include\map
; File C:\Program Files\Microsoft Visual Studio\2022\Community\VC\Tools\MSVC\14.44.35207\include\xstring
; File C:\Program Files\Microsoft Visual Studio\2022\Community\VC\Tools\MSVC\14.44.35207\include\xmemory
; File C:\Program Files\Microsoft Visual Studio\2022\Community\VC\Tools\MSVC\14.44.35207\include\xstring
; File C:\Program Files\Microsoft Visual Studio\2022\Community\VC\Tools\MSVC\14.44.35207\include\xmemory
; File D:\_m2work\Server Client TMP4\ClientVS22\source\UserInterface\PythonPlayer.cpp
; File C:\Program Files\Microsoft Visual Studio\2022\Community\VC\Tools\MSVC\14.44.35207\include\xmemory
; File D:\_m2work\Server Client TMP4\ClientVS22\source\UserInterface\PythonPlayer.cpp
;	COMDAT ?AppendPartyMember@CPythonPlayer@@QAEXKPBD@Z
_TEXT	SEGMENT
$T2 = -128						; size = 8
tv614 = -124						; size = 4
$T3 = -120						; size = 52
$T4 = -68						; size = 48
__$ArrayPad$ = -20					; size = 4
__$EHRec$ = -12						; size = 12
_dwPID$ = 8						; size = 4
_c_szName$ = 12						; size = 4
?AppendPartyMember@CPythonPlayer@@QAEXKPBD@Z PROC	; CPythonPlayer::AppendPartyMember, COMDAT
; _this$ = ecx

; 1296 : {

  00000	53		 push	 ebx
  00001	8b dc		 mov	 ebx, esp
  00003	83 ec 08	 sub	 esp, 8
  00006	83 e4 f8	 and	 esp, -8			; fffffff8H
  00009	83 c4 04	 add	 esp, 4
  0000c	55		 push	 ebp
  0000d	8b 6b 04	 mov	 ebp, DWORD PTR [ebx+4]
  00010	89 6c 24 04	 mov	 DWORD PTR [esp+4], ebp
  00014	8b ec		 mov	 ebp, esp
  00016	6a ff		 push	 -1
  00018	68 00 00 00 00	 push	 __ehhandler$?AppendPartyMember@CPythonPlayer@@QAEXKPBD@Z
  0001d	64 a1 00 00 00
	00		 mov	 eax, DWORD PTR fs:0
  00023	50		 push	 eax
  00024	53		 push	 ebx
  00025	83 ec 70	 sub	 esp, 112		; 00000070H
  00028	a1 00 00 00 00	 mov	 eax, DWORD PTR ___security_cookie
  0002d	33 c5		 xor	 eax, ebp
  0002f	89 45 ec	 mov	 DWORD PTR __$ArrayPad$[ebp], eax
  00032	56		 push	 esi
  00033	57		 push	 edi
  00034	50		 push	 eax
  00035	8d 45 f4	 lea	 eax, DWORD PTR __$EHRec$[ebp]
  00038	64 a3 00 00 00
	00		 mov	 DWORD PTR fs:0, eax
  0003e	8b 53 0c	 mov	 edx, DWORD PTR _c_szName$[ebx]

; 1297 : 	m_PartyMemberMap.insert(std::make_pair(dwPID, TPartyMemberInfo(dwPID, c_szName)));

  00041	8d b9 84 f7 00
	00		 lea	 edi, DWORD PTR [ecx+63364]
; File D:\_m2work\Server Client TMP4\ClientVS22\source\UserInterface\PythonPlayer.h

; 133  : 			SPartyMemberInfo(DWORD _dwPID, const char * c_szName) : dwPID(_dwPID), strName(c_szName), dwVID(0) {}

  00047	8b 73 08	 mov	 esi, DWORD PTR _dwPID$[ebx]
; File C:\Program Files\Microsoft Visual Studio\2022\Community\VC\Tools\MSVC\14.44.35207\include\__msvc_string_view.hpp

; 456  :             return __builtin_strlen(_First);

  0004a	8b ca		 mov	 ecx, edx
  0004c	0f 57 c0	 xorps	 xmm0, xmm0
; File D:\_m2work\Server Client TMP4\ClientVS22\source\UserInterface\PythonPlayer.h

; 133  : 			SPartyMemberInfo(DWORD _dwPID, const char * c_szName) : dwPID(_dwPID), strName(c_szName), dwVID(0) {}

  0004f	c7 45 bc 00 00
	00 00		 mov	 DWORD PTR $T4[ebp], 0
  00056	89 75 c0	 mov	 DWORD PTR $T4[ebp+4], esi
; File C:\Program Files\Microsoft Visual Studio\2022\Community\VC\Tools\MSVC\14.44.35207\include\xstring

; 493  :         _CONSTEXPR20 _Bxty() noexcept : _Buf() {} // user-provided, for fancy pointers

  00059	0f 11 45 c4	 movups	 XMMWORD PTR $T4[ebp+8], xmm0
; File C:\Program Files\Microsoft Visual Studio\2022\Community\VC\Tools\MSVC\14.44.35207\include\__msvc_string_view.hpp

; 456  :             return __builtin_strlen(_First);

  0005d	8d 41 01	 lea	 eax, DWORD PTR [ecx+1]
; File C:\Program Files\Microsoft Visual Studio\2022\Community\VC\Tools\MSVC\14.44.35207\include\xstring

; 517  :     size_type _Mysize = 0; // current length of string (size)

  00060	c7 45 d4 00 00
	00 00		 mov	 DWORD PTR $T4[ebp+24], 0

; 518  :     size_type _Myres  = 0; // current storage reserved for string (capacity)

  00067	c7 45 d8 00 00
	00 00		 mov	 DWORD PTR $T4[ebp+28], 0
; File C:\Program Files\Microsoft Visual Studio\2022\Community\VC\Tools\MSVC\14.44.35207\include\__msvc_string_view.hpp

; 456  :             return __builtin_strlen(_First);

  0006e	89 45 84	 mov	 DWORD PTR tv614[ebp], eax
$LL221@AppendPart:
  00071	8a 01		 mov	 al, BYTE PTR [ecx]
  00073	41		 inc	 ecx
  00074	84 c0		 test	 al, al
  00076	75 f9		 jne	 SHORT $LL221@AppendPart
  00078	2b 4d 84	 sub	 ecx, DWORD PTR tv614[ebp]
; File C:\Program Files\Microsoft Visual Studio\2022\Community\VC\Tools\MSVC\14.44.35207\include\xstring

; 769  :         _Construct<_Construct_strategy::_From_ptr>(_Ptr, _Convert_size<size_type>(_Traits::length(_Ptr)));

  0007b	51		 push	 ecx
  0007c	52		 push	 edx
  0007d	8d 4d c4	 lea	 ecx, DWORD PTR $T4[ebp+8]
  00080	e8 00 00 00 00	 call	 ??$_Construct@$00PBD@?$basic_string@DU?$char_traits@D@std@@V?$allocator@D@2@@std@@AAEXQBDI@Z ; std::basic_string<char,std::char_traits<char>,std::allocator<char> >::_Construct<1,char const *>
; File C:\Program Files\Microsoft Visual Studio\2022\Community\VC\Tools\MSVC\14.44.35207\include\utility

; 274  :         : first(_STD forward<_Other1>(_Val1)), second(_STD forward<_Other2>(_Val2)) {

  00085	8d 45 bc	 lea	 eax, DWORD PTR $T4[ebp]
; File D:\_m2work\Server Client TMP4\ClientVS22\source\UserInterface\PythonPlayer.cpp

; 1297 : 	m_PartyMemberMap.insert(std::make_pair(dwPID, TPartyMemberInfo(dwPID, c_szName)));

  00088	c7 45 fc 00 00
	00 00		 mov	 DWORD PTR __$EHRec$[ebp+8], 0
; File C:\Program Files\Microsoft Visual Studio\2022\Community\VC\Tools\MSVC\14.44.35207\include\utility

; 274  :         : first(_STD forward<_Other1>(_Val1)), second(_STD forward<_Other2>(_Val2)) {

  0008f	50		 push	 eax
  00090	8d 4d 8c	 lea	 ecx, DWORD PTR $T3[ebp+4]
  00093	89 75 88	 mov	 DWORD PTR $T3[ebp], esi
  00096	e8 00 00 00 00	 call	 ??0SPartyMemberInfo@CPythonPlayer@@QAE@$$QAU01@@Z
; File C:\Program Files\Microsoft Visual Studio\2022\Community\VC\Tools\MSVC\14.44.35207\include\map

; 186  :         return this->emplace(_STD forward<_Valty>(_Val));

  0009b	8d 45 88	 lea	 eax, DWORD PTR $T3[ebp]
; File D:\_m2work\Server Client TMP4\ClientVS22\source\UserInterface\PythonPlayer.cpp

; 1297 : 	m_PartyMemberMap.insert(std::make_pair(dwPID, TPartyMemberInfo(dwPID, c_szName)));

  0009e	c6 45 fc 01	 mov	 BYTE PTR __$EHRec$[ebp+8], 1
; File C:\Program Files\Microsoft Visual Studio\2022\Community\VC\Tools\MSVC\14.44.35207\include\map

; 186  :         return this->emplace(_STD forward<_Valty>(_Val));

  000a2	50		 push	 eax
  000a3	8d 45 80	 lea	 eax, DWORD PTR $T2[ebp]
  000a6	8b cf		 mov	 ecx, edi
  000a8	50		 push	 eax
  000a9	e8 00 00 00 00	 call	 ??$emplace@U?$pair@KUSPartyMemberInfo@CPythonPlayer@@@std@@@?$_Tree@V?$_Tmap_traits@KUSPartyMemberInfo@CPythonPlayer@@U?$less@K@std@@V?$allocator@U?$pair@$$CBKUSPartyMemberInfo@CPythonPlayer@@@std@@@4@$0A@@std@@@std@@QAE?AU?$pair@V?$_Tree_iterator@V?$_Tree_val@U?$_Tree_simple_types@U?$pair@$$CBKUSPartyMemberInfo@CPythonPlayer@@@std@@@std@@@std@@@std@@_N@1@$$QAU?$pair@KUSPartyMemberInfo@CPythonPlayer@@@1@@Z ; std::_Tree<std::_Tmap_traits<unsigned long,CPythonPlayer::SPartyMemberInfo,std::less<unsigned long>,std::allocator<std::pair<unsigned long const ,CPythonPlayer::SPartyMemberInfo> >,0> >::emplace<std::pair<unsigned long,CPythonPlayer::SPartyMemberInfo> >
; File C:\Program Files\Microsoft Visual Studio\2022\Community\VC\Tools\MSVC\14.44.35207\include\xstring

; 1383 :         _Tidy_deallocate();

  000ae	8d 4d 94	 lea	 ecx, DWORD PTR $T3[ebp+12]
  000b1	e8 00 00 00 00	 call	 ?_Tidy_deallocate@?$basic_string@DU?$char_traits@D@std@@V?$allocator@D@2@@std@@AAEXXZ ; std::basic_string<char,std::char_traits<char>,std::allocator<char> >::_Tidy_deallocate

; 453  :         return _Myres > _Small_string_capacity;

  000b6	8b 4d d8	 mov	 ecx, DWORD PTR $T4[ebp+28]
  000b9	83 f9 0f	 cmp	 ecx, 15			; 0000000fH

; 3083 :         if (_My_data._Large_mode_engaged()) {

  000bc	76 28		 jbe	 SHORT $LN205@AppendPart
; File C:\Program Files\Microsoft Visual Studio\2022\Community\VC\Tools\MSVC\14.44.35207\include\xmemory

; 985  :         _STD _Deallocate<_New_alignof<_Ty>>(_Ptr, sizeof(_Ty) * _Count);

  000be	8b 55 c4	 mov	 edx, DWORD PTR $T4[ebp+8]
; File C:\Program Files\Microsoft Visual Studio\2022\Community\VC\Tools\MSVC\14.44.35207\include\xstring

; 852  :         _Al.deallocate(_Old_ptr, _Capacity + 1); // +1 for null terminator

  000c1	41		 inc	 ecx
; File C:\Program Files\Microsoft Visual Studio\2022\Community\VC\Tools\MSVC\14.44.35207\include\xmemory

; 985  :         _STD _Deallocate<_New_alignof<_Ty>>(_Ptr, sizeof(_Ty) * _Count);

  000c2	8b c2		 mov	 eax, edx

; 284  :         if (_Bytes >= _Big_allocation_threshold) {

  000c4	81 f9 00 10 00
	00		 cmp	 ecx, 4096		; 00001000H
  000ca	72 10		 jb	 SHORT $LN213@AppendPart

; 205  :     const uintptr_t _Ptr_container   = _Ptr_user[-1];

  000cc	8b 50 fc	 mov	 edx, DWORD PTR [eax-4]
  000cf	83 c1 23	 add	 ecx, 35			; 00000023H
  000d2	2b c2		 sub	 eax, edx

; 219  :     _STL_VERIFY(_Back_shift >= _Min_back_shift && _Back_shift <= _Non_user_size, "invalid argument");

  000d4	83 c0 fc	 add	 eax, -4			; fffffffcH
  000d7	83 f8 1f	 cmp	 eax, 31			; 0000001fH
  000da	77 2a		 ja	 SHORT $LN225@AppendPart
$LN213@AppendPart:

; 289  :         ::operator delete(_Ptr, _Bytes);

  000dc	51		 push	 ecx
  000dd	52		 push	 edx
  000de	e8 00 00 00 00	 call	 ??3@YAXPAXI@Z		; operator delete
  000e3	83 c4 08	 add	 esp, 8
$LN205@AppendPart:
; File D:\_m2work\Server Client TMP4\ClientVS22\source\UserInterface\PythonPlayer.cpp

; 1298 : }

  000e6	8b 4d f4	 mov	 ecx, DWORD PTR __$EHRec$[ebp]
  000e9	64 89 0d 00 00
	00 00		 mov	 DWORD PTR fs:0, ecx
  000f0	59		 pop	 ecx
  000f1	5f		 pop	 edi
  000f2	5e		 pop	 esi
  000f3	8b 4d ec	 mov	 ecx, DWORD PTR __$ArrayPad$[ebp]
  000f6	33 cd		 xor	 ecx, ebp
  000f8	e8 00 00 00 00	 call	 @__security_check_cookie@4
  000fd	8b e5		 mov	 esp, ebp
  000ff	5d		 pop	 ebp
  00100	8b e3		 mov	 esp, ebx
  00102	5b		 pop	 ebx
  00103	c2 08 00	 ret	 8
$LN225@AppendPart:
; File C:\Program Files\Microsoft Visual Studio\2022\Community\VC\Tools\MSVC\14.44.35207\include\xmemory

; 219  :     _STL_VERIFY(_Back_shift >= _Min_back_shift && _Back_shift <= _Non_user_size, "invalid argument");

  00106	6a 00		 push	 0
  00108	6a 00		 push	 0
  0010a	6a 00		 push	 0
  0010c	6a 00		 push	 0
  0010e	6a 00		 push	 0
  00110	e8 00 00 00 00	 call	 __invoke_watson
$LN223@AppendPart:
  00115	cc		 int	 3
_TEXT	ENDS
;	COMDAT text$x
text$x	SEGMENT
__unwindfunclet$?AppendPartyMember@CPythonPlayer@@QAEXKPBD@Z$0:
  00000	8d 4d bc	 lea	 ecx, DWORD PTR $T4[ebp]
  00003	e9 00 00 00 00	 jmp	 ??1SPartyMemberInfo@CPythonPlayer@@QAE@XZ
__unwindfunclet$?AppendPartyMember@CPythonPlayer@@QAEXKPBD@Z$1:
  00008	8d 4d 88	 lea	 ecx, DWORD PTR $T3[ebp]
  0000b	e9 00 00 00 00	 jmp	 ??1?$pair@KUSPartyMemberInfo@CPythonPlayer@@@std@@QAE@XZ
  00010	cc		 int	 3
  00011	cc		 int	 3
  00012	cc		 int	 3
  00013	cc		 int	 3
  00014	cc		 int	 3
__ehhandler$?AppendPartyMember@CPythonPlayer@@QAEXKPBD@Z:
  00015	90		 npad	 1
  00016	90		 npad	 1
  00017	8b 54 24 08	 mov	 edx, DWORD PTR [esp+8]
  0001b	8d 42 0c	 lea	 eax, DWORD PTR [edx+12]
  0001e	8b 4a 80	 mov	 ecx, DWORD PTR [edx-128]
  00021	33 c8		 xor	 ecx, eax
  00023	e8 00 00 00 00	 call	 @__security_check_cookie@4
  00028	8b 4a f8	 mov	 ecx, DWORD PTR [edx-8]
  0002b	33 c8		 xor	 ecx, eax
  0002d	e8 00 00 00 00	 call	 @__security_check_cookie@4
  00032	b8 00 00 00 00	 mov	 eax, OFFSET __ehfuncinfo$?AppendPartyMember@CPythonPlayer@@QAEXKPBD@Z
  00037	e9 00 00 00 00	 jmp	 ___CxxFrameHandler3
text$x	ENDS
?AppendPartyMember@CPythonPlayer@@QAEXKPBD@Z ENDP	; CPythonPlayer::AppendPartyMember
; Function compile flags: /Ogtp
; File D:\_m2work\Server Client TMP4\ClientVS22\source\UserInterface\PythonPlayer.cpp
;	COMDAT ?SetSkillLevel_@CPythonPlayer@@QAEXKKK@Z
_TEXT	SEGMENT
_dwSlotIndex$ = -4					; size = 4
_dwSkillIndex$ = 8					; size = 4
_dwSkillGrade$ = 12					; size = 4
_dwSkillLevel$ = 16					; size = 4
?SetSkillLevel_@CPythonPlayer@@QAEXKKK@Z PROC		; CPythonPlayer::SetSkillLevel_, COMDAT
; _this$ = ecx

; 994  : {

  00000	55		 push	 ebp
  00001	8b ec		 mov	 ebp, esp
  00003	51		 push	 ecx
  00004	57		 push	 edi

; 995  : 	DWORD dwSlotIndex;
; 996  : 	if (!GetSkillSlotIndex(dwSkillIndex, &dwSlotIndex))

  00005	8d 45 fc	 lea	 eax, DWORD PTR _dwSlotIndex$[ebp]
  00008	8b f9		 mov	 edi, ecx
  0000a	50		 push	 eax
  0000b	ff 75 08	 push	 DWORD PTR _dwSkillIndex$[ebp]
  0000e	e8 00 00 00 00	 call	 ?GetSkillSlotIndex@CPythonPlayer@@QAE_NKPAK@Z ; CPythonPlayer::GetSkillSlotIndex
  00013	84 c0		 test	 al, al
  00015	0f 84 e7 00 00
	00		 je	 $LN1@SetSkillLe

; 997  : 		return;
; 998  : 
; 999  : 	if (dwSlotIndex >= SKILL_MAX_NUM)

  0001b	8b 55 fc	 mov	 edx, DWORD PTR _dwSlotIndex$[ebp]
  0001e	81 fa ff 00 00
	00		 cmp	 edx, 255		; 000000ffH
  00024	0f 83 d8 00 00
	00		 jae	 $LN1@SetSkillLe

; 1000 : 		return;
; 1001 : 
; 1002 : 	switch (dwSkillGrade)

  0002a	8b 4d 0c	 mov	 ecx, DWORD PTR _dwSkillGrade$[ebp]
  0002d	53		 push	 ebx
  0002e	8b 5d 10	 mov	 ebx, DWORD PTR _dwSkillLevel$[ebp]
  00031	83 f9 03	 cmp	 ecx, 3
  00034	77 52		 ja	 SHORT $LN2@SetSkillLe
  00036	ff 24 8d 00 00
	00 00		 jmp	 DWORD PTR $LN12@SetSkillLe[ecx*4]
$LN6@SetSkillLe:

; 1003 : 	{
; 1004 : 		case 0:
; 1005 : 			m_playerStatus.aSkill[dwSlotIndex].iGrade = dwSkillGrade;

  0003d	8d 04 92	 lea	 eax, DWORD PTR [edx+edx*4]
  00040	89 8c c7 70 cb
	00 00		 mov	 DWORD PTR [edi+eax*8+52080], ecx

; 1006 : 			m_playerStatus.aSkill[dwSlotIndex].iLevel = dwSkillLevel;

  00047	8d 04 92	 lea	 eax, DWORD PTR [edx+edx*4]
  0004a	89 9c c7 74 cb
	00 00		 mov	 DWORD PTR [edi+eax*8+52084], ebx

; 1007 : 			break;

  00051	eb 35		 jmp	 SHORT $LN2@SetSkillLe
$LN7@SetSkillLe:

; 1008 : 		case 1:
; 1009 : 			m_playerStatus.aSkill[dwSlotIndex].iGrade = dwSkillGrade;

  00053	8d 04 92	 lea	 eax, DWORD PTR [edx+edx*4]
  00056	89 8c c7 70 cb
	00 00		 mov	 DWORD PTR [edi+eax*8+52080], ecx

; 1010 : 			m_playerStatus.aSkill[dwSlotIndex].iLevel = dwSkillLevel-20+1;

  0005d	8d 4b ed	 lea	 ecx, DWORD PTR [ebx-19]

; 1011 : 			break;

  00060	eb 1c		 jmp	 SHORT $LN18@SetSkillLe
$LN8@SetSkillLe:

; 1012 : 		case 2:
; 1013 : 			m_playerStatus.aSkill[dwSlotIndex].iGrade = dwSkillGrade;

  00062	8d 04 92	 lea	 eax, DWORD PTR [edx+edx*4]
  00065	89 8c c7 70 cb
	00 00		 mov	 DWORD PTR [edi+eax*8+52080], ecx

; 1014 : 			m_playerStatus.aSkill[dwSlotIndex].iLevel = dwSkillLevel-30+1;

  0006c	8d 4b e3	 lea	 ecx, DWORD PTR [ebx-29]

; 1015 : 			break;

  0006f	eb 0d		 jmp	 SHORT $LN18@SetSkillLe
$LN9@SetSkillLe:

; 1016 : 		case 3:
; 1017 : 			m_playerStatus.aSkill[dwSlotIndex].iGrade = dwSkillGrade;

  00071	8d 04 92	 lea	 eax, DWORD PTR [edx+edx*4]
  00074	89 8c c7 70 cb
	00 00		 mov	 DWORD PTR [edi+eax*8+52080], ecx

; 1018 : 			m_playerStatus.aSkill[dwSlotIndex].iLevel = dwSkillLevel-40+1;

  0007b	8d 4b d9	 lea	 ecx, DWORD PTR [ebx-39]
$LN18@SetSkillLe:

; 1019 : 			break;
; 1020 : 	}
; 1021 : 
; 1022 : 	const DWORD SKILL_MAX_LEVEL = 40;
; 1023 : 
; 1024 : 
; 1025 : 
; 1026 : 
; 1027 : 
; 1028 : 	if (dwSkillLevel>SKILL_MAX_LEVEL)

  0007e	8d 04 92	 lea	 eax, DWORD PTR [edx+edx*4]
  00081	89 8c c7 74 cb
	00 00		 mov	 DWORD PTR [edi+eax*8+52084], ecx
$LN2@SetSkillLe:
  00088	83 fb 28	 cmp	 ebx, 40			; 00000028H
  0008b	76 30		 jbe	 SHORT $LN10@SetSkillLe

; 1029 : 	{
; 1030 : 		m_playerStatus.aSkill[dwSlotIndex].fcurEfficientPercentage = 0.0f;
; 1031 : 		m_playerStatus.aSkill[dwSlotIndex].fnextEfficientPercentage = 0.0f;
; 1032 : 
; 1033 : 		TraceError("CPythonPlayer::SetSkillLevel(SlotIndex=%d, SkillLevel=%d)", dwSlotIndex, dwSkillLevel);

  0008d	53		 push	 ebx
  0008e	8d 04 92	 lea	 eax, DWORD PTR [edx+edx*4]
  00091	52		 push	 edx
  00092	c7 84 c7 78 cb
	00 00 00 00 00
	00		 mov	 DWORD PTR [edi+eax*8+52088], 0
  0009d	68 00 00 00 00	 push	 OFFSET ??_C@_0DK@OJMDGNKA@CPythonPlayer?3?3SetSkillLevel?$CISl@
  000a2	c7 84 c7 7c cb
	00 00 00 00 00
	00		 mov	 DWORD PTR [edi+eax*8+52092], 0
  000ad	e8 00 00 00 00	 call	 ?TraceError@@YAXPBDZZ	; TraceError
  000b2	83 c4 0c	 add	 esp, 12			; 0000000cH
  000b5	5b		 pop	 ebx
  000b6	5f		 pop	 edi

; 1039 : 
; 1040 : }

  000b7	8b e5		 mov	 esp, ebp
  000b9	5d		 pop	 ebp
  000ba	c2 0c 00	 ret	 12			; 0000000cH
$LN10@SetSkillLe:
  000bd	56		 push	 esi

; 1034 : 		return;
; 1035 : 	}
; 1036 : 
; 1037 : 	m_playerStatus.aSkill[dwSlotIndex].fcurEfficientPercentage	= LocaleService_GetSkillPower(dwSkillLevel)/100.0f;

  000be	8b cb		 mov	 ecx, ebx
  000c0	8d 34 92	 lea	 esi, DWORD PTR [edx+edx*4]
  000c3	e8 00 00 00 00	 call	 ?LocaleService_GetSkillPower@@YAHI@Z ; LocaleService_GetSkillPower

; 1038 : 	m_playerStatus.aSkill[dwSlotIndex].fnextEfficientPercentage = LocaleService_GetSkillPower(dwSkillLevel+1)/100.0f;

  000c8	8d 4b 01	 lea	 ecx, DWORD PTR [ebx+1]
  000cb	66 0f 6e c0	 movd	 xmm0, eax
  000cf	0f 5b c0	 cvtdq2ps xmm0, xmm0
  000d2	f3 0f 5e 05 00
	00 00 00	 divss	 xmm0, DWORD PTR __real@42c80000
  000da	f3 0f 11 84 f7
	78 cb 00 00	 movss	 DWORD PTR [edi+esi*8+52088], xmm0
  000e3	e8 00 00 00 00	 call	 ?LocaleService_GetSkillPower@@YAHI@Z ; LocaleService_GetSkillPower
  000e8	66 0f 6e c0	 movd	 xmm0, eax
  000ec	0f 5b c0	 cvtdq2ps xmm0, xmm0
  000ef	f3 0f 5e 05 00
	00 00 00	 divss	 xmm0, DWORD PTR __real@42c80000
  000f7	f3 0f 11 84 f7
	7c cb 00 00	 movss	 DWORD PTR [edi+esi*8+52092], xmm0
  00100	5e		 pop	 esi
  00101	5b		 pop	 ebx
$LN1@SetSkillLe:
  00102	5f		 pop	 edi

; 1039 : 
; 1040 : }

  00103	8b e5		 mov	 esp, ebp
  00105	5d		 pop	 ebp
  00106	c2 0c 00	 ret	 12			; 0000000cH
  00109	0f 1f 00	 npad	 3
$LN12@SetSkillLe:
  0010c	00 00 00 00	 DD	 $LN6@SetSkillLe
  00110	00 00 00 00	 DD	 $LN7@SetSkillLe
  00114	00 00 00 00	 DD	 $LN8@SetSkillLe
  00118	00 00 00 00	 DD	 $LN9@SetSkillLe
?SetSkillLevel_@CPythonPlayer@@QAEXKKK@Z ENDP		; CPythonPlayer::SetSkillLevel_
_TEXT	ENDS
; Function compile flags: /Ogtp
; File D:\_m2work\Server Client TMP4\ClientVS22\source\UserInterface\PythonPlayer.cpp
;	COMDAT ?SetSkill@CPythonPlayer@@QAEXKK@Z
_TEXT	SEGMENT
_dwSlotIndex$ = 8					; size = 4
_dwSkillIndex$ = 12					; size = 4
?SetSkill@CPythonPlayer@@QAEXKK@Z PROC			; CPythonPlayer::SetSkill, COMDAT
; _this$ = ecx

; 922  : {

  00000	55		 push	 ebp
  00001	8b ec		 mov	 ebp, esp
  00003	56		 push	 esi

; 923  : 	if (dwSlotIndex >= SKILL_MAX_NUM)

  00004	8b 75 08	 mov	 esi, DWORD PTR _dwSlotIndex$[ebp]
  00007	81 fe ff 00 00
	00		 cmp	 esi, 255		; 000000ffH
  0000d	73 1b		 jae	 SHORT $LN1@SetSkill

; 924  : 		return;
; 925  : 
; 926  : 	m_playerStatus.aSkill[dwSlotIndex].dwIndex = dwSkillIndex;

  0000f	8b 45 0c	 mov	 eax, DWORD PTR _dwSkillIndex$[ebp]
  00012	8d 14 b6	 lea	 edx, DWORD PTR [esi+esi*4]
  00015	89 84 d1 68 cb
	00 00		 mov	 DWORD PTR [ecx+edx*8+52072], eax

; 927  : 	m_skillSlotDict[dwSkillIndex] = dwSlotIndex;

  0001c	8d 45 0c	 lea	 eax, DWORD PTR _dwSkillIndex$[ebp]
  0001f	50		 push	 eax
  00020	83 c1 0c	 add	 ecx, 12			; 0000000cH
  00023	e8 00 00 00 00	 call	 ??A?$map@KKU?$less@K@std@@V?$allocator@U?$pair@$$CBKK@std@@@2@@std@@QAEAAKABK@Z ; std::map<unsigned long,unsigned long,std::less<unsigned long>,std::allocator<std::pair<unsigned long const ,unsigned long> > >::operator[]
  00028	89 30		 mov	 DWORD PTR [eax], esi
$LN1@SetSkill:

; 928  : }

  0002a	5e		 pop	 esi
  0002b	5d		 pop	 ebp
  0002c	c2 08 00	 ret	 8
?SetSkill@CPythonPlayer@@QAEXKK@Z ENDP			; CPythonPlayer::SetSkill
_TEXT	ENDS
; Function compile flags: /Ogtp
; File D:\_m2work\Server Client TMP4\ClientVS22\source\UserInterface\PythonPlayer.cpp
;	COMDAT ?SetSkillLevel@CPythonPlayer@@QAEXKK@Z
_TEXT	SEGMENT
_dwSlotIndex$ = 8					; size = 4
_dwSkillLevel$ = 12					; size = 4
?SetSkillLevel@CPythonPlayer@@QAEXKK@Z PROC		; CPythonPlayer::SetSkillLevel, COMDAT
; _this$ = ecx

; 984  : {

  00000	55		 push	 ebp
  00001	8b ec		 mov	 ebp, esp

; 985  : 	assert(!"CPythonPlayer::SetSkillLevel -   ");
; 986  : 	if (dwSlotIndex >= SKILL_MAX_NUM)

  00003	8b 55 08	 mov	 edx, DWORD PTR _dwSlotIndex$[ebp]
  00006	56		 push	 esi
  00007	8b f1		 mov	 esi, ecx
  00009	81 fa ff 00 00
	00		 cmp	 edx, 255		; 000000ffH
  0000f	73 1b		 jae	 SHORT $LN1@SetSkillLe

; 987  : 		return;
; 988  : 
; 989  : 	m_playerStatus.aSkill[dwSlotIndex].iGrade = -1;

  00011	8d 04 92	 lea	 eax, DWORD PTR [edx+edx*4]
  00014	c7 84 c6 70 cb
	00 00 ff ff ff
	ff		 mov	 DWORD PTR [esi+eax*8+52080], -1

; 990  : 	m_playerStatus.aSkill[dwSlotIndex].iLevel = dwSkillLevel;

  0001f	8d 0c 92	 lea	 ecx, DWORD PTR [edx+edx*4]
  00022	8b 45 0c	 mov	 eax, DWORD PTR _dwSkillLevel$[ebp]
  00025	89 84 ce 74 cb
	00 00		 mov	 DWORD PTR [esi+ecx*8+52084], eax
$LN1@SetSkillLe:
  0002c	5e		 pop	 esi

; 991  : }

  0002d	5d		 pop	 ebp
  0002e	c2 08 00	 ret	 8
?SetSkillLevel@CPythonPlayer@@QAEXKK@Z ENDP		; CPythonPlayer::SetSkillLevel
_TEXT	ENDS
; Function compile flags: /Ogtp
; File D:\_m2work\Server Client TMP4\ClientVS22\source\UserInterface\PythonPlayer.cpp
; File C:\Program Files\Microsoft Visual Studio\2022\Community\VC\Tools\MSVC\14.44.35207\include\xtree
; File D:\_m2work\Server Client TMP4\ClientVS22\source\UserInterface\PythonPlayer.cpp
; File C:\Program Files\Microsoft Visual Studio\2022\Community\VC\Tools\MSVC\14.44.35207\include\xtree
; File C:\Program Files\Microsoft Visual Studio\2022\Community\VC\Tools\MSVC\14.44.35207\include\type_traits
; File C:\Program Files\Microsoft Visual Studio\2022\Community\VC\Tools\MSVC\14.44.35207\include\xtree
; File D:\_m2work\Server Client TMP4\ClientVS22\source\UserInterface\PythonPlayer.cpp
;	COMDAT ?GetSkillSlotIndex@CPythonPlayer@@QAE_NKPAK@Z
_TEXT	SEGMENT
__Loc$1 = -12						; size = 12
_dwSkillIndex$ = 8					; size = 4
_pdwSlotIndex$ = 12					; size = 4
?GetSkillSlotIndex@CPythonPlayer@@QAE_NKPAK@Z PROC	; CPythonPlayer::GetSkillSlotIndex, COMDAT
; _this$ = ecx

; 939  : {

  00000	55		 push	 ebp
  00001	8b ec		 mov	 ebp, esp
  00003	83 ec 0c	 sub	 esp, 12			; 0000000cH
  00006	56		 push	 esi
; File C:\Program Files\Microsoft Visual Studio\2022\Community\VC\Tools\MSVC\14.44.35207\include\xtree

; 1384 :         const _Tree_find_result<_Nodeptr> _Loc = _Find_lower_bound(_Keyval);

  00007	8d 45 08	 lea	 eax, DWORD PTR _dwSkillIndex$[ebp]
  0000a	50		 push	 eax
; File D:\_m2work\Server Client TMP4\ClientVS22\source\UserInterface\PythonPlayer.cpp

; 940  : 	std::map<DWORD, DWORD>::iterator f=m_skillSlotDict.find(dwSkillIndex);

  0000b	8d 71 0c	 lea	 esi, DWORD PTR [ecx+12]
; File C:\Program Files\Microsoft Visual Studio\2022\Community\VC\Tools\MSVC\14.44.35207\include\xtree

; 1384 :         const _Tree_find_result<_Nodeptr> _Loc = _Find_lower_bound(_Keyval);

  0000e	8d 45 f4	 lea	 eax, DWORD PTR __Loc$1[ebp]
  00011	8b ce		 mov	 ecx, esi
  00013	50		 push	 eax
  00014	e8 00 00 00 00	 call	 ??$_Find_lower_bound@K@?$_Tree@V?$_Tmap_traits@KKU?$less@K@std@@V?$allocator@U?$pair@$$CBKK@std@@@2@$0A@@std@@@std@@IBE?AU?$_Tree_find_result@PAU?$_Tree_node@U?$pair@$$CBKK@std@@PAX@std@@@1@ABK@Z ; std::_Tree<std::_Tmap_traits<unsigned long,unsigned long,std::less<unsigned long>,std::allocator<std::pair<unsigned long const ,unsigned long> >,0> >::_Find_lower_bound<unsigned long>

; 1624 :         return !_Bound->_Isnil && !_DEBUG_LT_PRED(_Getcomp(), _Keyval, _Traits::_Kfn(_Bound->_Myval));

  00019	8b 4d fc	 mov	 ecx, DWORD PTR __Loc$1[ebp+8]
  0001c	80 79 0d 00	 cmp	 BYTE PTR [ecx+13], 0
  00020	75 1d		 jne	 SHORT $LN50@GetSkillSl
; File C:\Program Files\Microsoft Visual Studio\2022\Community\VC\Tools\MSVC\14.44.35207\include\type_traits

; 2380 :         return _Left < _Right;

  00022	8b 45 08	 mov	 eax, DWORD PTR _dwSkillIndex$[ebp]
  00025	3b 41 10	 cmp	 eax, DWORD PTR [ecx+16]
; File C:\Program Files\Microsoft Visual Studio\2022\Community\VC\Tools\MSVC\14.44.35207\include\xtree

; 1624 :         return !_Bound->_Isnil && !_DEBUG_LT_PRED(_Getcomp(), _Keyval, _Traits::_Kfn(_Bound->_Myval));

  00028	72 15		 jb	 SHORT $LN50@GetSkillSl

; 37   :     _Tree_unchecked_const_iterator(_Nodeptr _Pnode, const _Mytree* _Plist) noexcept : _Ptr(_Pnode) {

  0002a	39 0e		 cmp	 DWORD PTR [esi], ecx
; File D:\_m2work\Server Client TMP4\ClientVS22\source\UserInterface\PythonPlayer.cpp

; 941  : 	if (m_skillSlotDict.end()==f)

  0002c	74 11		 je	 SHORT $LN50@GetSkillSl

; 944  : 	}
; 945  : 
; 946  : 	*pdwSlotIndex=f->second;

  0002e	8b 45 0c	 mov	 eax, DWORD PTR _pdwSlotIndex$[ebp]
  00031	8b 49 14	 mov	 ecx, DWORD PTR [ecx+20]
  00034	5e		 pop	 esi
  00035	89 08		 mov	 DWORD PTR [eax], ecx

; 947  : 
; 948  : 	return true;

  00037	b0 01		 mov	 al, 1

; 949  : }

  00039	8b e5		 mov	 esp, ebp
  0003b	5d		 pop	 ebp
  0003c	c2 08 00	 ret	 8
$LN50@GetSkillSl:

; 942  : 	{
; 943  : 		return false;

  0003f	32 c0		 xor	 al, al
  00041	5e		 pop	 esi

; 949  : }

  00042	8b e5		 mov	 esp, ebp
  00044	5d		 pop	 ebp
  00045	c2 08 00	 ret	 8
?GetSkillSlotIndex@CPythonPlayer@@QAE_NKPAK@Z ENDP	; CPythonPlayer::GetSkillSlotIndex
_TEXT	ENDS
; Function compile flags: /Ogtp
; File D:\_m2work\Server Client TMP4\ClientVS22\source\UserInterface\PythonPlayer.cpp
;	COMDAT ?NotifyDeadMainCharacter@CPythonPlayer@@QAEXXZ
_TEXT	SEGMENT
?NotifyDeadMainCharacter@CPythonPlayer@@QAEXXZ PROC	; CPythonPlayer::NotifyDeadMainCharacter, COMDAT
; _this$ = ecx

; 527  : 	__ClearAutoAttackTargetActorID();

  00000	e9 00 00 00 00	 jmp	 ?__ClearAutoAttackTargetActorID@CPythonPlayer@@IAEXXZ ; CPythonPlayer::__ClearAutoAttackTargetActorID
?NotifyDeadMainCharacter@CPythonPlayer@@QAEXXZ ENDP	; CPythonPlayer::NotifyDeadMainCharacter
_TEXT	ENDS
; Function compile flags: /Ogtp
; File D:\_m2work\Server Client TMP4\ClientVS22\source\UserInterface\PythonPlayer.cpp
;	COMDAT ?SetStatus@CPythonPlayer@@QAEXKJ@Z
_TEXT	SEGMENT
_dwType$ = 8						; size = 4
_lValue$ = 12						; size = 4
?SetStatus@CPythonPlayer@@QAEXKJ@Z PROC			; CPythonPlayer::SetStatus, COMDAT
; _this$ = ecx

; 427  : {

  00000	55		 push	 ebp
  00001	8b ec		 mov	 ebp, esp
  00003	53		 push	 ebx
  00004	56		 push	 esi
  00005	8b 75 08	 mov	 esi, DWORD PTR _dwType$[ebp]
  00008	8b d9		 mov	 ebx, ecx

; 428  : 	if (dwType >= POINT_MAX_NUM)

  0000a	81 fe ff 00 00
	00		 cmp	 esi, 255		; 000000ffH
  00010	72 13		 jb	 SHORT $LN4@SetStatus

; 429  : 	{
; 430  : 		assert(!" CPythonPlayer::SetStatus - Strange Status Type!");
; 431  : 		Tracef("CPythonPlayer::SetStatus - Set Status Type Error\n");

  00012	68 00 00 00 00	 push	 OFFSET ??_C@_0DC@HBNJHHEJ@CPythonPlayer?3?3SetStatus?5?9?5Set?5@
  00017	e8 00 00 00 00	 call	 ?Tracef@@YAXPBDZZ	; Tracef
  0001c	83 c4 04	 add	 esp, 4
  0001f	5e		 pop	 esi

; 464  : 			break;
; 465  : 	}		
; 466  : }

  00020	5b		 pop	 ebx
  00021	5d		 pop	 ebp
  00022	c2 08 00	 ret	 8
$LN4@SetStatus:
  00025	57		 push	 edi

; 432  : 		return;
; 433  : 	}
; 434  : 
; 435  : 	if (dwType == POINT_LEVEL)

  00026	8b 7d 0c	 mov	 edi, DWORD PTR _lValue$[ebp]
  00029	83 fe 01	 cmp	 esi, 1
  0002c	75 23		 jne	 SHORT $LN6@SetStatus

; 436  : 	{
; 437  : 		CInstanceBase* pkPlayer = NEW_GetMainActorPtr();

  0002e	8b 43 04	 mov	 eax, DWORD PTR [ebx+4]
  00031	8d 4b 04	 lea	 ecx, DWORD PTR [ebx+4]
  00034	ff 90 88 00 00
	00		 call	 DWORD PTR [eax+136]
  0003a	8b c8		 mov	 ecx, eax

; 438  : 
; 439  : 		if (pkPlayer)

  0003c	85 c9		 test	 ecx, ecx
  0003e	74 11		 je	 SHORT $LN6@SetStatus

; 440  : 		{
; 441  : 			pkPlayer->SetLevel(lValue);

  00040	57		 push	 edi
  00041	e8 00 00 00 00	 call	 ?SetLevel@CInstanceBase@@QAEXK@Z ; CInstanceBase::SetLevel

; 442  : 			pkPlayer->UpdateTextTailLevel(lValue);

  00046	57		 push	 edi
  00047	e8 00 00 00 00	 call	 ?UpdateTextTailLevel@CInstanceBase@@QAEXK@Z ; CInstanceBase::UpdateTextTailLevel
  0004c	8d 46 ff	 lea	 eax, DWORD PTR [esi-1]
  0004f	eb 0a		 jmp	 SHORT $LN19@SetStatus
$LN6@SetStatus:

; 443  : 		}
; 444  : 
; 445  : 	}
; 446  : 
; 447  : 	switch (dwType)

  00051	8d 46 ff	 lea	 eax, DWORD PTR [esi-1]
  00054	3d cb 00 00 00	 cmp	 eax, 203		; 000000cbH
  00059	77 26		 ja	 SHORT $LN17@SetStatus
$LN19@SetStatus:
  0005b	0f b6 80 00 00
	00 00		 movzx	 eax, BYTE PTR $LN20@SetStatus[eax]
  00062	ff 24 85 00 00
	00 00		 jmp	 DWORD PTR $LN21@SetStatus[eax*4]
$LN7@SetStatus:

; 448  : 	{
; 449  : 		case POINT_MIN_WEP:
; 450  : 		case POINT_MAX_WEP:
; 451  : 		case POINT_MIN_ATK:
; 452  : 		case POINT_MAX_ATK:
; 453  : 		case POINT_HIT_RATE:
; 454  : 		case POINT_EVADE_RATE:
; 455  : 		case POINT_LEVEL:
; 456  : 		case POINT_ST:
; 457  : 		case POINT_DX:
; 458  : 		case POINT_IQ:
; 459  : 			m_playerStatus.SetPoint(dwType, lValue);

  00069	57		 push	 edi
  0006a	56		 push	 esi
  0006b	8d 4b 70	 lea	 ecx, DWORD PTR [ebx+112]
  0006e	e8 00 00 00 00	 call	 ?SetPoint@SPlayerStatus@CPythonPlayer@@QAEXIJ@Z ; CPythonPlayer::SPlayerStatus::SetPoint

; 460  : 			__UpdateBattleStatus();

  00073	8b cb		 mov	 ecx, ebx
  00075	e8 00 00 00 00	 call	 ?__UpdateBattleStatus@CPythonPlayer@@IAEXXZ ; CPythonPlayer::__UpdateBattleStatus
  0007a	5f		 pop	 edi
  0007b	5e		 pop	 esi

; 464  : 			break;
; 465  : 	}		
; 466  : }

  0007c	5b		 pop	 ebx
  0007d	5d		 pop	 ebp
  0007e	c2 08 00	 ret	 8
$LN17@SetStatus:

; 461  : 			break;
; 462  : 		default:
; 463  : 			m_playerStatus.SetPoint(dwType, lValue);

  00081	57		 push	 edi
  00082	56		 push	 esi
  00083	8d 4b 70	 lea	 ecx, DWORD PTR [ebx+112]
  00086	e8 00 00 00 00	 call	 ?SetPoint@SPlayerStatus@CPythonPlayer@@QAEXIJ@Z ; CPythonPlayer::SPlayerStatus::SetPoint
  0008b	5f		 pop	 edi
  0008c	5e		 pop	 esi

; 464  : 			break;
; 465  : 	}		
; 466  : }

  0008d	5b		 pop	 ebx
  0008e	5d		 pop	 ebp
  0008f	c2 08 00	 ret	 8
  00092	66 90		 npad	 2
$LN21@SetStatus:
  00094	00 00 00 00	 DD	 $LN7@SetStatus
  00098	00 00 00 00	 DD	 $LN17@SetStatus
$LN20@SetStatus:
  0009c	00		 DB	 0
  0009d	01		 DB	 1
  0009e	01		 DB	 1
  0009f	01		 DB	 1
  000a0	01		 DB	 1
  000a1	01		 DB	 1
  000a2	01		 DB	 1
  000a3	01		 DB	 1
  000a4	01		 DB	 1
  000a5	01		 DB	 1
  000a6	01		 DB	 1
  000a7	00		 DB	 0
  000a8	01		 DB	 1
  000a9	00		 DB	 0
  000aa	00		 DB	 0
  000ab	01		 DB	 1
  000ac	01		 DB	 1
  000ad	00		 DB	 0
  000ae	01		 DB	 1
  000af	01		 DB	 1
  000b0	01		 DB	 1
  000b1	01		 DB	 1
  000b2	01		 DB	 1
  000b3	01		 DB	 1
  000b4	01		 DB	 1
  000b5	01		 DB	 1
  000b6	01		 DB	 1
  000b7	01		 DB	 1
  000b8	00		 DB	 0
  000b9	00		 DB	 0
  000ba	01		 DB	 1
  000bb	01		 DB	 1
  000bc	01		 DB	 1
  000bd	01		 DB	 1
  000be	01		 DB	 1
  000bf	01		 DB	 1
  000c0	01		 DB	 1
  000c1	01		 DB	 1
  000c2	01		 DB	 1
  000c3	01		 DB	 1
  000c4	01		 DB	 1
  000c5	01		 DB	 1
  000c6	01		 DB	 1
  000c7	01		 DB	 1
  000c8	01		 DB	 1
  000c9	01		 DB	 1
  000ca	01		 DB	 1
  000cb	01		 DB	 1
  000cc	01		 DB	 1
  000cd	01		 DB	 1
  000ce	01		 DB	 1
  000cf	01		 DB	 1
  000d0	01		 DB	 1
  000d1	01		 DB	 1
  000d2	01		 DB	 1
  000d3	01		 DB	 1
  000d4	01		 DB	 1
  000d5	01		 DB	 1
  000d6	01		 DB	 1
  000d7	01		 DB	 1
  000d8	01		 DB	 1
  000d9	01		 DB	 1
  000da	01		 DB	 1
  000db	01		 DB	 1
  000dc	01		 DB	 1
  000dd	01		 DB	 1
  000de	01		 DB	 1
  000df	01		 DB	 1
  000e0	01		 DB	 1
  000e1	01		 DB	 1
  000e2	01		 DB	 1
  000e3	01		 DB	 1
  000e4	01		 DB	 1
  000e5	01		 DB	 1
  000e6	01		 DB	 1
  000e7	01		 DB	 1
  000e8	01		 DB	 1
  000e9	01		 DB	 1
  000ea	01		 DB	 1
  000eb	01		 DB	 1
  000ec	01		 DB	 1
  000ed	01		 DB	 1
  000ee	01		 DB	 1
  000ef	01		 DB	 1
  000f0	01		 DB	 1
  000f1	01		 DB	 1
  000f2	01		 DB	 1
  000f3	01		 DB	 1
  000f4	01		 DB	 1
  000f5	01		 DB	 1
  000f6	01		 DB	 1
  000f7	01		 DB	 1
  000f8	01		 DB	 1
  000f9	01		 DB	 1
  000fa	01		 DB	 1
  000fb	01		 DB	 1
  000fc	01		 DB	 1
  000fd	01		 DB	 1
  000fe	01		 DB	 1
  000ff	01		 DB	 1
  00100	01		 DB	 1
  00101	01		 DB	 1
  00102	01		 DB	 1
  00103	01		 DB	 1
  00104	01		 DB	 1
  00105	01		 DB	 1
  00106	01		 DB	 1
  00107	01		 DB	 1
  00108	01		 DB	 1
  00109	01		 DB	 1
  0010a	01		 DB	 1
  0010b	01		 DB	 1
  0010c	01		 DB	 1
  0010d	01		 DB	 1
  0010e	01		 DB	 1
  0010f	01		 DB	 1
  00110	01		 DB	 1
  00111	01		 DB	 1
  00112	01		 DB	 1
  00113	01		 DB	 1
  00114	01		 DB	 1
  00115	01		 DB	 1
  00116	01		 DB	 1
  00117	01		 DB	 1
  00118	01		 DB	 1
  00119	01		 DB	 1
  0011a	01		 DB	 1
  0011b	01		 DB	 1
  0011c	01		 DB	 1
  0011d	01		 DB	 1
  0011e	01		 DB	 1
  0011f	01		 DB	 1
  00120	01		 DB	 1
  00121	01		 DB	 1
  00122	01		 DB	 1
  00123	01		 DB	 1
  00124	01		 DB	 1
  00125	01		 DB	 1
  00126	01		 DB	 1
  00127	01		 DB	 1
  00128	01		 DB	 1
  00129	01		 DB	 1
  0012a	01		 DB	 1
  0012b	01		 DB	 1
  0012c	01		 DB	 1
  0012d	01		 DB	 1
  0012e	01		 DB	 1
  0012f	01		 DB	 1
  00130	01		 DB	 1
  00131	01		 DB	 1
  00132	01		 DB	 1
  00133	01		 DB	 1
  00134	01		 DB	 1
  00135	01		 DB	 1
  00136	01		 DB	 1
  00137	01		 DB	 1
  00138	01		 DB	 1
  00139	01		 DB	 1
  0013a	01		 DB	 1
  0013b	01		 DB	 1
  0013c	01		 DB	 1
  0013d	01		 DB	 1
  0013e	01		 DB	 1
  0013f	01		 DB	 1
  00140	01		 DB	 1
  00141	01		 DB	 1
  00142	01		 DB	 1
  00143	01		 DB	 1
  00144	01		 DB	 1
  00145	01		 DB	 1
  00146	01		 DB	 1
  00147	01		 DB	 1
  00148	01		 DB	 1
  00149	01		 DB	 1
  0014a	01		 DB	 1
  0014b	01		 DB	 1
  0014c	01		 DB	 1
  0014d	01		 DB	 1
  0014e	01		 DB	 1
  0014f	01		 DB	 1
  00150	01		 DB	 1
  00151	01		 DB	 1
  00152	01		 DB	 1
  00153	01		 DB	 1
  00154	01		 DB	 1
  00155	01		 DB	 1
  00156	01		 DB	 1
  00157	01		 DB	 1
  00158	01		 DB	 1
  00159	01		 DB	 1
  0015a	01		 DB	 1
  0015b	01		 DB	 1
  0015c	01		 DB	 1
  0015d	01		 DB	 1
  0015e	01		 DB	 1
  0015f	01		 DB	 1
  00160	01		 DB	 1
  00161	01		 DB	 1
  00162	01		 DB	 1
  00163	00		 DB	 0
  00164	00		 DB	 0
  00165	01		 DB	 1
  00166	01		 DB	 1
  00167	00		 DB	 0
?SetStatus@CPythonPlayer@@QAEXKJ@Z ENDP			; CPythonPlayer::SetStatus
_TEXT	ENDS
; Function compile flags: /Ogtp
; File D:\_m2work\Server Client TMP4\ClientVS22\source\UserInterface\PythonPlayer.cpp
;	COMDAT ?ForgetInstance@CPythonPlayer@@QAEXK@Z
_TEXT	SEGMENT
_dwVID$ = 8						; size = 4
?ForgetInstance@CPythonPlayer@@QAEXK@Z PROC		; CPythonPlayer::ForgetInstance, COMDAT
; _this$ = ecx

; 1466 : {

  00000	55		 push	 ebp
  00001	8b ec		 mov	 ebp, esp
  00003	56		 push	 esi
  00004	8b f1		 mov	 esi, ecx

; 1467 : 	m_ChallengeInstanceSet.erase(dwVID);

  00006	8d 45 08	 lea	 eax, DWORD PTR _dwVID$[ebp]
  00009	50		 push	 eax
  0000a	8d 8e 8c f7 00
	00		 lea	 ecx, DWORD PTR [esi+63372]
  00010	e8 00 00 00 00	 call	 ?erase@?$_Tree@V?$_Tset_traits@KU?$less@K@std@@V?$allocator@K@2@$0A@@std@@@std@@QAEIABK@Z ; std::_Tree<std::_Tset_traits<unsigned long,std::less<unsigned long>,std::allocator<unsigned long>,0> >::erase

; 1468 : 	m_RevengeInstanceSet.erase(dwVID);

  00015	8d 45 08	 lea	 eax, DWORD PTR _dwVID$[ebp]
  00018	50		 push	 eax
  00019	8d 8e 94 f7 00
	00		 lea	 ecx, DWORD PTR [esi+63380]
  0001f	e8 00 00 00 00	 call	 ?erase@?$_Tree@V?$_Tset_traits@KU?$less@K@std@@V?$allocator@K@2@$0A@@std@@@std@@QAEIABK@Z ; std::_Tree<std::_Tset_traits<unsigned long,std::less<unsigned long>,std::allocator<unsigned long>,0> >::erase

; 1469 : 	m_CantFightInstanceSet.erase(dwVID);

  00024	8d 45 08	 lea	 eax, DWORD PTR _dwVID$[ebp]
  00027	50		 push	 eax
  00028	8d 8e 9c f7 00
	00		 lea	 ecx, DWORD PTR [esi+63388]
  0002e	e8 00 00 00 00	 call	 ?erase@?$_Tree@V?$_Tset_traits@KU?$less@K@std@@V?$allocator@K@2@$0A@@std@@@std@@QAEIABK@Z ; std::_Tree<std::_Tset_traits<unsigned long,std::less<unsigned long>,std::allocator<unsigned long>,0> >::erase

; 1470 : }

  00033	5e		 pop	 esi
  00034	5d		 pop	 ebp
  00035	c2 04 00	 ret	 4
?ForgetInstance@CPythonPlayer@@QAEXK@Z ENDP		; CPythonPlayer::ForgetInstance
_TEXT	ENDS
; Function compile flags: /Ogtp
; File D:\_m2work\Server Client TMP4\ClientVS22\source\UserInterface\PythonPlayer.cpp
;	COMDAT ?RememberRevengeInstance@CPythonPlayer@@QAEXK@Z
_TEXT	SEGMENT
$T1 = -12						; size = 8
_dwVID$ = 8						; size = 4
?RememberRevengeInstance@CPythonPlayer@@QAEXK@Z PROC	; CPythonPlayer::RememberRevengeInstance, COMDAT
; _this$ = ecx

; 1457 : {

  00000	55		 push	 ebp
  00001	8b ec		 mov	 ebp, esp
  00003	83 ec 10	 sub	 esp, 16			; 00000010H

; 1458 : 	m_ChallengeInstanceSet.erase(dwVID);

  00006	8d 45 08	 lea	 eax, DWORD PTR _dwVID$[ebp]
  00009	56		 push	 esi
  0000a	8b f1		 mov	 esi, ecx
  0000c	50		 push	 eax
  0000d	8d 8e 8c f7 00
	00		 lea	 ecx, DWORD PTR [esi+63372]
  00013	e8 00 00 00 00	 call	 ?erase@?$_Tree@V?$_Tset_traits@KU?$less@K@std@@V?$allocator@K@2@$0A@@std@@@std@@QAEIABK@Z ; std::_Tree<std::_Tset_traits<unsigned long,std::less<unsigned long>,std::allocator<unsigned long>,0> >::erase

; 1459 : 	m_RevengeInstanceSet.insert(dwVID);

  00018	8d 45 08	 lea	 eax, DWORD PTR _dwVID$[ebp]
  0001b	50		 push	 eax
  0001c	8d 45 f4	 lea	 eax, DWORD PTR $T1[ebp]
  0001f	50		 push	 eax
  00020	8d 8e 94 f7 00
	00		 lea	 ecx, DWORD PTR [esi+63380]
  00026	e8 00 00 00 00	 call	 ??$insert@$0A@$0A@@?$_Tree@V?$_Tset_traits@KU?$less@K@std@@V?$allocator@K@2@$0A@@std@@@std@@QAE?AU?$pair@V?$_Tree_const_iterator@V?$_Tree_val@U?$_Tree_simple_types@K@std@@@std@@@std@@_N@1@ABK@Z ; std::_Tree<std::_Tset_traits<unsigned long,std::less<unsigned long>,std::allocator<unsigned long>,0> >::insert<0,0>

; 1460 : }

  0002b	5e		 pop	 esi
  0002c	8b e5		 mov	 esp, ebp
  0002e	5d		 pop	 ebp
  0002f	c2 04 00	 ret	 4
?RememberRevengeInstance@CPythonPlayer@@QAEXK@Z ENDP	; CPythonPlayer::RememberRevengeInstance
_TEXT	ENDS
; Function compile flags: /Ogtp
; File D:\_m2work\Server Client TMP4\ClientVS22\source\UserInterface\PythonPlayer.cpp
;	COMDAT ?RememberCantFightInstance@CPythonPlayer@@QAEXK@Z
_TEXT	SEGMENT
$T1 = -12						; size = 8
_dwVID$ = 8						; size = 4
?RememberCantFightInstance@CPythonPlayer@@QAEXK@Z PROC	; CPythonPlayer::RememberCantFightInstance, COMDAT
; _this$ = ecx

; 1462 : {

  00000	55		 push	 ebp
  00001	8b ec		 mov	 ebp, esp
  00003	83 ec 0c	 sub	 esp, 12			; 0000000cH

; 1463 : 	m_CantFightInstanceSet.insert(dwVID);

  00006	8d 45 08	 lea	 eax, DWORD PTR _dwVID$[ebp]
  00009	81 c1 9c f7 00
	00		 add	 ecx, 63388		; 0000f79cH
  0000f	50		 push	 eax
  00010	8d 45 f4	 lea	 eax, DWORD PTR $T1[ebp]
  00013	50		 push	 eax
  00014	e8 00 00 00 00	 call	 ??$insert@$0A@$0A@@?$_Tree@V?$_Tset_traits@KU?$less@K@std@@V?$allocator@K@2@$0A@@std@@@std@@QAE?AU?$pair@V?$_Tree_const_iterator@V?$_Tree_val@U?$_Tree_simple_types@K@std@@@std@@@std@@_N@1@ABK@Z ; std::_Tree<std::_Tset_traits<unsigned long,std::less<unsigned long>,std::allocator<unsigned long>,0> >::insert<0,0>

; 1464 : }

  00019	8b e5		 mov	 esp, ebp
  0001b	5d		 pop	 ebp
  0001c	c2 04 00	 ret	 4
?RememberCantFightInstance@CPythonPlayer@@QAEXK@Z ENDP	; CPythonPlayer::RememberCantFightInstance
_TEXT	ENDS
; Function compile flags: /Ogtp
; File D:\_m2work\Server Client TMP4\ClientVS22\source\UserInterface\PythonPlayer.cpp
;	COMDAT ?RememberChallengeInstance@CPythonPlayer@@QAEXK@Z
_TEXT	SEGMENT
$T1 = -12						; size = 8
_dwVID$ = 8						; size = 4
?RememberChallengeInstance@CPythonPlayer@@QAEXK@Z PROC	; CPythonPlayer::RememberChallengeInstance, COMDAT
; _this$ = ecx

; 1452 : {

  00000	55		 push	 ebp
  00001	8b ec		 mov	 ebp, esp
  00003	83 ec 10	 sub	 esp, 16			; 00000010H

; 1453 : 	m_RevengeInstanceSet.erase(dwVID);

  00006	8d 45 08	 lea	 eax, DWORD PTR _dwVID$[ebp]
  00009	56		 push	 esi
  0000a	8b f1		 mov	 esi, ecx
  0000c	50		 push	 eax
  0000d	8d 8e 94 f7 00
	00		 lea	 ecx, DWORD PTR [esi+63380]
  00013	e8 00 00 00 00	 call	 ?erase@?$_Tree@V?$_Tset_traits@KU?$less@K@std@@V?$allocator@K@2@$0A@@std@@@std@@QAEIABK@Z ; std::_Tree<std::_Tset_traits<unsigned long,std::less<unsigned long>,std::allocator<unsigned long>,0> >::erase

; 1454 : 	m_ChallengeInstanceSet.insert(dwVID);

  00018	8d 45 08	 lea	 eax, DWORD PTR _dwVID$[ebp]
  0001b	50		 push	 eax
  0001c	8d 45 f4	 lea	 eax, DWORD PTR $T1[ebp]
  0001f	50		 push	 eax
  00020	8d 8e 8c f7 00
	00		 lea	 ecx, DWORD PTR [esi+63372]
  00026	e8 00 00 00 00	 call	 ??$insert@$0A@$0A@@?$_Tree@V?$_Tset_traits@KU?$less@K@std@@V?$allocator@K@2@$0A@@std@@@std@@QAE?AU?$pair@V?$_Tree_const_iterator@V?$_Tree_val@U?$_Tree_simple_types@K@std@@@std@@@std@@_N@1@ABK@Z ; std::_Tree<std::_Tset_traits<unsigned long,std::less<unsigned long>,std::allocator<unsigned long>,0> >::insert<0,0>

; 1455 : }

  0002b	5e		 pop	 esi
  0002c	8b e5		 mov	 esp, ebp
  0002e	5d		 pop	 ebp
  0002f	c2 04 00	 ret	 4
?RememberChallengeInstance@CPythonPlayer@@QAEXK@Z ENDP	; CPythonPlayer::RememberChallengeInstance
_TEXT	ENDS
; Function compile flags: /Ogtp
; File D:\_m2work\Server Client TMP4\ClientVS22\source\UserInterface\PythonPlayer.cpp
; File C:\Program Files\Microsoft Visual Studio\2022\Community\VC\Tools\MSVC\14.44.35207\include\__msvc_string_view.hpp
; File D:\_m2work\Server Client TMP4\ClientVS22\source\UserInterface\PythonPlayer.cpp
; File C:\Program Files\Microsoft Visual Studio\2022\Community\VC\Tools\MSVC\14.44.35207\include\__msvc_string_view.hpp
; File D:\_m2work\Server Client TMP4\ClientVS22\source\UserInterface\PythonPlayer.cpp
; File C:\Program Files\Microsoft Visual Studio\2022\Community\VC\Tools\MSVC\14.44.35207\include\xstring
; File D:\_m2work\Server Client TMP4\ClientVS22\source\UserInterface\PythonPlayer.cpp
;	COMDAT ?SetName@CPythonPlayer@@QAEXPBD@Z
_TEXT	SEGMENT
_name$ = 8						; size = 4
?SetName@CPythonPlayer@@QAEXPBD@Z PROC			; CPythonPlayer::SetName, COMDAT
; _this$ = ecx

; 486  : {

  00000	55		 push	 ebp
  00001	8b ec		 mov	 ebp, esp
; File C:\Program Files\Microsoft Visual Studio\2022\Community\VC\Tools\MSVC\14.44.35207\include\__msvc_string_view.hpp

; 456  :             return __builtin_strlen(_First);

  00003	8b 55 08	 mov	 edx, DWORD PTR _name$[ebp]
  00006	8b c2		 mov	 eax, edx
; File D:\_m2work\Server Client TMP4\ClientVS22\source\UserInterface\PythonPlayer.cpp

; 486  : {

  00008	56		 push	 esi
  00009	57		 push	 edi
  0000a	8b f1		 mov	 esi, ecx
; File C:\Program Files\Microsoft Visual Studio\2022\Community\VC\Tools\MSVC\14.44.35207\include\__msvc_string_view.hpp

; 456  :             return __builtin_strlen(_First);

  0000c	8d 78 01	 lea	 edi, DWORD PTR [eax+1]
  0000f	90		 npad	 1
$LL10@SetName:
  00010	8a 08		 mov	 cl, BYTE PTR [eax]
  00012	40		 inc	 eax
  00013	84 c9		 test	 cl, cl
  00015	75 f9		 jne	 SHORT $LL10@SetName
  00017	2b c7		 sub	 eax, edi
; File D:\_m2work\Server Client TMP4\ClientVS22\source\UserInterface\PythonPlayer.cpp

; 487  : 	m_stName = name;

  00019	8d 4e 14	 lea	 ecx, DWORD PTR [esi+20]
; File C:\Program Files\Microsoft Visual Studio\2022\Community\VC\Tools\MSVC\14.44.35207\include\xstring

; 1638 :         return assign(_Ptr, _Convert_size<size_type>(_Traits::length(_Ptr)));

  0001c	50		 push	 eax
  0001d	52		 push	 edx
  0001e	e8 00 00 00 00	 call	 ?assign@?$basic_string@DU?$char_traits@D@std@@V?$allocator@D@2@@std@@QAEAAV12@QBDI@Z ; std::basic_string<char,std::char_traits<char>,std::allocator<char> >::assign
  00023	5f		 pop	 edi
  00024	5e		 pop	 esi
; File D:\_m2work\Server Client TMP4\ClientVS22\source\UserInterface\PythonPlayer.cpp

; 488  : }

  00025	5d		 pop	 ebp
  00026	c2 04 00	 ret	 4
?SetName@CPythonPlayer@@QAEXPBD@Z ENDP			; CPythonPlayer::SetName
_TEXT	ENDS
; Function compile flags: /Ogtp
; File D:\_m2work\Server Client TMP4\ClientVS22\source\UserInterface\PythonPlayer.cpp
; File C:\Program Files\Microsoft Visual Studio\2022\Community\VC\Tools\MSVC\14.44.35207\include\xstring
; File D:\_m2work\Server Client TMP4\ClientVS22\source\UserInterface\PythonPlayer.cpp
; File C:\Program Files\Microsoft Visual Studio\2022\Community\VC\Tools\MSVC\14.44.35207\include\xstring
; File D:\_m2work\Server Client TMP4\ClientVS22\source\UserInterface\PythonPlayer.cpp
; File C:\Program Files\Microsoft Visual Studio\2022\Community\VC\Tools\MSVC\14.44.35207\include\xtree
; File D:\_m2work\Server Client TMP4\ClientVS22\source\UserInterface\PythonPlayer.cpp
; File C:\Program Files\Microsoft Visual Studio\2022\Community\VC\Tools\MSVC\14.44.35207\include\xtree
; File D:\_m2work\Server Client TMP4\ClientVS22\source\UserInterface\PythonPlayer.cpp
; File C:\Program Files\Microsoft Visual Studio\2022\Community\VC\Tools\MSVC\14.44.35207\include\xtree
; File D:\_m2work\Server Client TMP4\ClientVS22\source\UserInterface\PythonPlayer.cpp
; File C:\Program Files\Microsoft Visual Studio\2022\Community\VC\Tools\MSVC\14.44.35207\include\xtree
; File D:\_m2work\Server Client TMP4\ClientVS22\source\UserInterface\PythonPlayer.cpp
; File C:\Program Files\Microsoft Visual Studio\2022\Community\VC\Tools\MSVC\14.44.35207\include\xtree
; File D:\_m2work\Server Client TMP4\ClientVS22\source\UserInterface\PythonPlayer.cpp
;	COMDAT ?Clear@CPythonPlayer@@QAEXXZ
_TEXT	SEGMENT
?Clear@CPythonPlayer@@QAEXXZ PROC			; CPythonPlayer::Clear, COMDAT
; _this$ = ecx

; 1613 : {

  00000	53		 push	 ebx
  00001	56		 push	 esi
  00002	57		 push	 edi
  00003	8b d9		 mov	 ebx, ecx

; 1614 : 	memset(&m_playerStatus, 0, sizeof(m_playerStatus));

  00005	68 d0 f6 00 00	 push	 63184			; 0000f6d0H
  0000a	6a 00		 push	 0
  0000c	8d 43 70	 lea	 eax, DWORD PTR [ebx+112]
  0000f	50		 push	 eax
  00010	e8 00 00 00 00	 call	 _memset
  00015	83 c4 0c	 add	 esp, 12			; 0000000cH

; 1615 : 	NEW_ClearSkillData(true);

  00018	8b cb		 mov	 ecx, ebx
  0001a	6a 01		 push	 1
  0001c	e8 00 00 00 00	 call	 ?NEW_ClearSkillData@CPythonPlayer@@QAEX_N@Z ; CPythonPlayer::NEW_ClearSkillData
; File C:\Program Files\Microsoft Visual Studio\2022\Community\VC\Tools\MSVC\14.44.35207\include\xstring

; 1638 :         return assign(_Ptr, _Convert_size<size_type>(_Traits::length(_Ptr)));

  00021	6a 00		 push	 0
  00023	68 00 00 00 00	 push	 OFFSET ??_C@_00CNPNBAHC@@
; File D:\_m2work\Server Client TMP4\ClientVS22\source\UserInterface\PythonPlayer.cpp

; 1623 : 	m_stName = "";

  00028	8d 4b 14	 lea	 ecx, DWORD PTR [ebx+20]
  0002b	c7 83 70 f7 00
	00 00 00 00 00	 mov	 DWORD PTR [ebx+63344], 0
  00035	c7 43 48 00 00
	00 00		 mov	 DWORD PTR [ebx+72], 0
  0003c	c7 43 4c 00 00
	00 00		 mov	 DWORD PTR [ebx+76], 0
; File C:\Program Files\Microsoft Visual Studio\2022\Community\VC\Tools\MSVC\14.44.35207\include\xstring

; 1638 :         return assign(_Ptr, _Convert_size<size_type>(_Traits::length(_Ptr)));

  00043	e8 00 00 00 00	 call	 ?assign@?$basic_string@DU?$char_traits@D@std@@V?$allocator@D@2@@std@@QAEAAV12@QBDI@Z ; std::basic_string<char,std::char_traits<char>,std::allocator<char> >::assign
; File D:\_m2work\Server Client TMP4\ClientVS22\source\UserInterface\PythonPlayer.cpp

; 1624 : 	m_dwMainCharacterIndex = 0;

  00048	c7 43 2c 00 00
	00 00		 mov	 DWORD PTR [ebx+44], 0

; 1665 : 
; 1666 : 	m_PartyMemberMap.clear();

  0004f	8d bb 84 f7 00
	00		 lea	 edi, DWORD PTR [ebx+63364]
  00055	c7 43 30 00 00
	00 00		 mov	 DWORD PTR [ebx+48], 0
; File C:\Program Files\Microsoft Visual Studio\2022\Community\VC\Tools\MSVC\14.44.35207\include\xtree

; 1374 :         _Scary->_Erase_tree(_Getal(), _Head->_Parent);

  0005c	8b cf		 mov	 ecx, edi
; File D:\_m2work\Server Client TMP4\ClientVS22\source\UserInterface\PythonPlayer.cpp

; 1626 : 	m_dwWeaponMinPower = 0;

  0005e	c7 43 34 00 00
	00 00		 mov	 DWORD PTR [ebx+52], 0

; 1627 : 	m_dwWeaponMaxPower = 0;

  00065	c7 43 38 00 00
	00 00		 mov	 DWORD PTR [ebx+56], 0

; 1628 : 	m_dwWeaponMinMagicPower = 0;

  0006c	c7 43 3c 00 00
	00 00		 mov	 DWORD PTR [ebx+60], 0

; 1629 : 	m_dwWeaponMaxMagicPower = 0;

  00073	c7 43 40 00 00
	00 00		 mov	 DWORD PTR [ebx+64], 0

; 1630 : 	m_dwWeaponAddPower = 0;

  0007a	c7 43 44 00 00
	00 00		 mov	 DWORD PTR [ebx+68], 0

; 1631 : 
; 1632 : 	/////
; 1633 : 	m_MovingCursorPosition = TPixelPosition(0, 0, 0);

  00081	c7 83 c4 f7 00
	00 00 00 00 00	 mov	 DWORD PTR [ebx+63428], 0
  0008b	c7 83 c8 f7 00
	00 00 00 00 00	 mov	 DWORD PTR [ebx+63432], 0
  00095	c7 83 cc f7 00
	00 00 00 00 00	 mov	 DWORD PTR [ebx+63436], 0

; 1634 : 	m_fMovingCursorSettingTime = 0.0f;

  0009f	c7 83 d0 f7 00
	00 00 00 00 00	 mov	 DWORD PTR [ebx+63440], 0

; 1635 : 
; 1636 : 	m_eReservedMode = MODE_NONE;

  000a9	c7 43 54 00 00
	00 00		 mov	 DWORD PTR [ebx+84], 0

; 1637 : 	m_fReservedDelayTime = 0.0f;

  000b0	c7 43 58 00 00
	00 00		 mov	 DWORD PTR [ebx+88], 0

; 1638 : 	m_kPPosReserved = TPixelPosition(0, 0, 0);

  000b7	c7 83 64 f7 00
	00 00 00 00 00	 mov	 DWORD PTR [ebx+63332], 0
  000c1	c7 83 68 f7 00
	00 00 00 00 00	 mov	 DWORD PTR [ebx+63336], 0
  000cb	c7 83 6c f7 00
	00 00 00 00 00	 mov	 DWORD PTR [ebx+63340], 0
; File C:\Program Files\Microsoft Visual Studio\2022\Community\VC\Tools\MSVC\14.44.35207\include\xtree

; 1373 :         auto _Head = _Scary->_Myhead;

  000d5	8b 37		 mov	 esi, DWORD PTR [edi]
; File D:\_m2work\Server Client TMP4\ClientVS22\source\UserInterface\PythonPlayer.cpp

; 1639 : 	m_dwVIDReserved = 0;

  000d7	c7 83 44 f7 00
	00 00 00 00 00	 mov	 DWORD PTR [ebx+63300], 0

; 1640 : 	m_dwIIDReserved = 0;

  000e1	c7 83 48 f7 00
	00 00 00 00 00	 mov	 DWORD PTR [ebx+63304], 0

; 1641 : 	m_dwSkillSlotIndexReserved = 0;

  000eb	c7 83 50 f7 00
	00 00 00 00 00	 mov	 DWORD PTR [ebx+63312], 0

; 1642 : 	m_dwSkillRangeReserved = 0;

  000f5	c7 83 54 f7 00
	00 00 00 00 00	 mov	 DWORD PTR [ebx+63316], 0

; 1643 : 
; 1644 : 	m_isUp = false;

  000ff	c7 43 60 00 00
	00 00		 mov	 DWORD PTR [ebx+96], 0

; 1645 : 	m_isDown = false;
; 1646 : 	m_isLeft = false;
; 1647 : 	m_isRight = false;
; 1648 : 	m_isSmtMov = false;

  00106	66 c7 43 67 00
	00		 mov	 WORD PTR [ebx+103], 0

; 1649 : 	m_isDirMov = false;
; 1650 : 	m_isDirKey = false;
; 1651 : 	m_isAtkKey = false;

  0010c	66 c7 43 64 00
	00		 mov	 WORD PTR [ebx+100], 0

; 1652 : 
; 1653 : 	m_isCmrRot = true;

  00112	c6 43 66 01	 mov	 BYTE PTR [ebx+102], 1

; 1654 : 	m_fCmrRotSpd = 20.0f;

  00116	c7 43 6c 00 00
	a0 41		 mov	 DWORD PTR [ebx+108], 1101004800 ; 41a00000H

; 1655 : 
; 1656 : 	m_iComboOld = 0;

  0011d	c7 83 40 f7 00
	00 00 00 00 00	 mov	 DWORD PTR [ebx+63296], 0

; 1657 : 
; 1658 : 	m_dwVIDPicked=0;

  00127	c7 83 d8 f7 00
	00 00 00 00 00	 mov	 DWORD PTR [ebx+63448], 0

; 1659 : 	m_dwIIDPicked=0;

  00131	c7 83 dc f7 00
	00 00 00 00 00	 mov	 DWORD PTR [ebx+63452], 0

; 1660 : 
; 1661 : 	m_dwcurSkillSlotIndex = DWORD(-1);

  0013b	c7 83 4c f7 00
	00 ff ff ff ff	 mov	 DWORD PTR [ebx+63308], -1

; 1662 : 
; 1663 : 	m_dwTargetVID = 0;

  00145	c7 83 ec f7 00
	00 00 00 00 00	 mov	 DWORD PTR [ebx+63468], 0

; 1664 : 	m_dwTargetEndTime = 0;

  0014f	c7 83 f0 f7 00
	00 00 00 00 00	 mov	 DWORD PTR [ebx+63472], 0
; File C:\Program Files\Microsoft Visual Studio\2022\Community\VC\Tools\MSVC\14.44.35207\include\xtree

; 1374 :         _Scary->_Erase_tree(_Getal(), _Head->_Parent);

  00159	ff 76 04	 push	 DWORD PTR [esi+4]
  0015c	57		 push	 edi
  0015d	e8 00 00 00 00	 call	 ??$_Erase_tree@V?$allocator@U?$_Tree_node@U?$pair@$$CBKUSPartyMemberInfo@CPythonPlayer@@@std@@PAX@std@@@std@@@?$_Tree_val@U?$_Tree_simple_types@U?$pair@$$CBKUSPartyMemberInfo@CPythonPlayer@@@std@@@std@@@std@@QAEXAAV?$allocator@U?$_Tree_node@U?$pair@$$CBKUSPartyMemberInfo@CPythonPlayer@@@std@@PAX@std@@@1@PAU?$_Tree_node@U?$pair@$$CBKUSPartyMemberInfo@CPythonPlayer@@@std@@PAX@1@@Z ; std::_Tree_val<std::_Tree_simple_types<std::pair<unsigned long const ,CPythonPlayer::SPartyMemberInfo> > >::_Erase_tree<std::allocator<std::_Tree_node<std::pair<unsigned long const ,CPythonPlayer::SPartyMemberInfo>,void *> > >

; 1375 :         _Head->_Parent  = _Head;

  00162	89 76 04	 mov	 DWORD PTR [esi+4], esi

; 1376 :         _Head->_Left    = _Head;

  00165	89 36		 mov	 DWORD PTR [esi], esi

; 1377 :         _Head->_Right   = _Head;

  00167	89 76 08	 mov	 DWORD PTR [esi+8], esi

; 1378 :         _Scary->_Mysize = 0;

  0016a	c7 47 04 00 00
	00 00		 mov	 DWORD PTR [edi+4], 0
; File D:\_m2work\Server Client TMP4\ClientVS22\source\UserInterface\PythonPlayer.cpp

; 1668 : 	m_ChallengeInstanceSet.clear();

  00171	8d bb 8c f7 00
	00		 lea	 edi, DWORD PTR [ebx+63372]
; File C:\Program Files\Microsoft Visual Studio\2022\Community\VC\Tools\MSVC\14.44.35207\include\xtree

; 1373 :         auto _Head = _Scary->_Myhead;

  00177	8b 37		 mov	 esi, DWORD PTR [edi]

; 1374 :         _Scary->_Erase_tree(_Getal(), _Head->_Parent);

  00179	8b cf		 mov	 ecx, edi
  0017b	ff 76 04	 push	 DWORD PTR [esi+4]
  0017e	57		 push	 edi
  0017f	e8 00 00 00 00	 call	 ??$_Erase_tree@V?$allocator@U?$_Tree_node@KPAX@std@@@std@@@?$_Tree_val@U?$_Tree_simple_types@K@std@@@std@@QAEXAAV?$allocator@U?$_Tree_node@KPAX@std@@@1@PAU?$_Tree_node@KPAX@1@@Z ; std::_Tree_val<std::_Tree_simple_types<unsigned long> >::_Erase_tree<std::allocator<std::_Tree_node<unsigned long,void *> > >

; 1375 :         _Head->_Parent  = _Head;

  00184	89 76 04	 mov	 DWORD PTR [esi+4], esi

; 1376 :         _Head->_Left    = _Head;

  00187	89 36		 mov	 DWORD PTR [esi], esi

; 1377 :         _Head->_Right   = _Head;

  00189	89 76 08	 mov	 DWORD PTR [esi+8], esi

; 1378 :         _Scary->_Mysize = 0;

  0018c	c7 47 04 00 00
	00 00		 mov	 DWORD PTR [edi+4], 0
; File D:\_m2work\Server Client TMP4\ClientVS22\source\UserInterface\PythonPlayer.cpp

; 1669 : 	m_RevengeInstanceSet.clear();

  00193	8d bb 94 f7 00
	00		 lea	 edi, DWORD PTR [ebx+63380]
; File C:\Program Files\Microsoft Visual Studio\2022\Community\VC\Tools\MSVC\14.44.35207\include\xtree

; 1373 :         auto _Head = _Scary->_Myhead;

  00199	8b 37		 mov	 esi, DWORD PTR [edi]

; 1374 :         _Scary->_Erase_tree(_Getal(), _Head->_Parent);

  0019b	8b cf		 mov	 ecx, edi
  0019d	ff 76 04	 push	 DWORD PTR [esi+4]
  001a0	57		 push	 edi
  001a1	e8 00 00 00 00	 call	 ??$_Erase_tree@V?$allocator@U?$_Tree_node@KPAX@std@@@std@@@?$_Tree_val@U?$_Tree_simple_types@K@std@@@std@@QAEXAAV?$allocator@U?$_Tree_node@KPAX@std@@@1@PAU?$_Tree_node@KPAX@1@@Z ; std::_Tree_val<std::_Tree_simple_types<unsigned long> >::_Erase_tree<std::allocator<std::_Tree_node<unsigned long,void *> > >

; 1375 :         _Head->_Parent  = _Head;

  001a6	89 76 04	 mov	 DWORD PTR [esi+4], esi

; 1376 :         _Head->_Left    = _Head;

  001a9	89 36		 mov	 DWORD PTR [esi], esi

; 1377 :         _Head->_Right   = _Head;

  001ab	89 76 08	 mov	 DWORD PTR [esi+8], esi

; 1378 :         _Scary->_Mysize = 0;

  001ae	c7 47 04 00 00
	00 00		 mov	 DWORD PTR [edi+4], 0
; File D:\_m2work\Server Client TMP4\ClientVS22\source\UserInterface\PythonPlayer.cpp

; 1682 : 	__ClearAutoAttackTargetActorID();

  001b5	5f		 pop	 edi
  001b6	5e		 pop	 esi
  001b7	66 c7 83 a4 f7
	00 00 00 00	 mov	 WORD PTR [ebx+63396], 0
  001c0	8b cb		 mov	 ecx, ebx
  001c2	c7 83 a8 f7 00
	00 00 00 00 00	 mov	 DWORD PTR [ebx+63400], 0
  001cc	c7 83 b0 f7 00
	00 00 00 00 00	 mov	 DWORD PTR [ebx+63408], 0
  001d6	c7 83 ac f7 00
	00 00 00 00 00	 mov	 DWORD PTR [ebx+63404], 0
  001e0	c7 83 b4 f7 00
	00 ff ff ff ff	 mov	 DWORD PTR [ebx+63412], -1
  001ea	c7 83 b8 f7 00
	00 00 00 00 00	 mov	 DWORD PTR [ebx+63416], 0
  001f4	5b		 pop	 ebx
  001f5	e9 00 00 00 00	 jmp	 ?__ClearAutoAttackTargetActorID@CPythonPlayer@@IAEXXZ ; CPythonPlayer::__ClearAutoAttackTargetActorID
?Clear@CPythonPlayer@@QAEXXZ ENDP			; CPythonPlayer::Clear
_TEXT	ENDS
; Function compile flags: /Ogtp
; File D:\_m2work\Server Client TMP4\ClientVS22\source\UserInterface\AbstractPlayer.h
; File D:\_m2work\Server Client TMP4\ClientVS22\source\UserInterface\AbstractSingleton.h
; File D:\_m2work\Server Client TMP4\ClientVS22\source\UserInterface\AbstractPlayer.h
;	COMDAT ??0IAbstractPlayer@@QAE@XZ
_TEXT	SEGMENT
??0IAbstractPlayer@@QAE@XZ PROC				; IAbstractPlayer::IAbstractPlayer, COMDAT
; _this$ = ecx
; File D:\_m2work\Server Client TMP4\ClientVS22\source\UserInterface\AbstractSingleton.h

; 13   : 		ms_singleton = (T*) ((int) this + offset);

  00000	89 0d 00 00 00
	00		 mov	 DWORD PTR ?ms_singleton@?$TAbstractSingleton@VIAbstractPlayer@@@@0PAVIAbstractPlayer@@A, ecx ; TAbstractSingleton<IAbstractPlayer>::ms_singleton
; File D:\_m2work\Server Client TMP4\ClientVS22\source\UserInterface\AbstractPlayer.h

; 10   : 		IAbstractPlayer() {}

  00006	8b c1		 mov	 eax, ecx
  00008	c7 01 00 00 00
	00		 mov	 DWORD PTR [ecx], OFFSET ??_7IAbstractPlayer@@6B@
  0000e	c3		 ret	 0
??0IAbstractPlayer@@QAE@XZ ENDP				; IAbstractPlayer::IAbstractPlayer
_TEXT	ENDS
; Function compile flags: /Ogtp
; File D:\_m2work\Server Client TMP4\ClientVS22\source\UserInterface\AbstractPlayer.h
; File D:\_m2work\Server Client TMP4\ClientVS22\source\UserInterface\AbstractSingleton.h
; File D:\_m2work\Server Client TMP4\ClientVS22\source\UserInterface\AbstractPlayer.h
;	COMDAT ??1IAbstractPlayer@@UAE@XZ
_TEXT	SEGMENT
??1IAbstractPlayer@@UAE@XZ PROC				; IAbstractPlayer::~IAbstractPlayer, COMDAT
; _this$ = ecx
; File D:\_m2work\Server Client TMP4\ClientVS22\source\UserInterface\AbstractSingleton.h

; 17   : 	{ 

  00000	c7 01 00 00 00
	00		 mov	 DWORD PTR [ecx], OFFSET ??_7?$TAbstractSingleton@VIAbstractPlayer@@@@6B@

; 18   : 		assert(ms_singleton);
; 19   : 		ms_singleton = 0; 

  00006	c7 05 00 00 00
	00 00 00 00 00	 mov	 DWORD PTR ?ms_singleton@?$TAbstractSingleton@VIAbstractPlayer@@@@0PAVIAbstractPlayer@@A, 0 ; TAbstractSingleton<IAbstractPlayer>::ms_singleton
; File D:\_m2work\Server Client TMP4\ClientVS22\source\UserInterface\AbstractPlayer.h

; 11   : 		virtual ~IAbstractPlayer() {}

  00010	c3		 ret	 0
??1IAbstractPlayer@@UAE@XZ ENDP				; IAbstractPlayer::~IAbstractPlayer
_TEXT	ENDS
; Function compile flags: /Ogtp
; File D:\_m2work\Server Client TMP4\ClientVS22\source\UserInterface\AbstractSingleton.h
;	COMDAT ??_GIAbstractPlayer@@UAEPAXI@Z
_TEXT	SEGMENT
___flags$ = 8						; size = 4
??_GIAbstractPlayer@@UAEPAXI@Z PROC			; IAbstractPlayer::`scalar deleting destructor', COMDAT
; _this$ = ecx
  00000	55		 push	 ebp
  00001	8b ec		 mov	 ebp, esp
  00003	f6 45 08 01	 test	 BYTE PTR ___flags$[ebp], 1

; 17   : 	{ 

  00007	56		 push	 esi
  00008	8b f1		 mov	 esi, ecx

; 18   : 		assert(ms_singleton);
; 19   : 		ms_singleton = 0; 

  0000a	c7 05 00 00 00
	00 00 00 00 00	 mov	 DWORD PTR ?ms_singleton@?$TAbstractSingleton@VIAbstractPlayer@@@@0PAVIAbstractPlayer@@A, 0 ; TAbstractSingleton<IAbstractPlayer>::ms_singleton
  00014	c7 06 00 00 00
	00		 mov	 DWORD PTR [esi], OFFSET ??_7?$TAbstractSingleton@VIAbstractPlayer@@@@6B@
  0001a	74 0b		 je	 SHORT $LN13@scalar
  0001c	6a 04		 push	 4
  0001e	56		 push	 esi
  0001f	e8 00 00 00 00	 call	 ??3@YAXPAXI@Z		; operator delete
  00024	83 c4 08	 add	 esp, 8
$LN13@scalar:
  00027	8b c6		 mov	 eax, esi
  00029	5e		 pop	 esi
  0002a	5d		 pop	 ebp
  0002b	c2 04 00	 ret	 4
??_GIAbstractPlayer@@UAEPAXI@Z ENDP			; IAbstractPlayer::`scalar deleting destructor'
_TEXT	ENDS
; Function compile flags: /Ogtp
; File D:\_m2work\Server Client TMP4\ClientVS22\source\UserInterface\PythonPlayer.h
; File C:\Program Files\Microsoft Visual Studio\2022\Community\VC\Tools\MSVC\14.44.35207\include\__msvc_string_view.hpp
; File D:\_m2work\Server Client TMP4\ClientVS22\source\UserInterface\PythonPlayer.h
; File C:\Program Files\Microsoft Visual Studio\2022\Community\VC\Tools\MSVC\14.44.35207\include\xstring
; File C:\Program Files\Microsoft Visual Studio\2022\Community\VC\Tools\MSVC\14.44.35207\include\__msvc_string_view.hpp
; File C:\Program Files\Microsoft Visual Studio\2022\Community\VC\Tools\MSVC\14.44.35207\include\xstring
; File D:\_m2work\Server Client TMP4\ClientVS22\source\UserInterface\PythonPlayer.h
;	COMDAT ??0SPartyMemberInfo@CPythonPlayer@@QAE@KPBD@Z
_TEXT	SEGMENT
_this$ = -4						; size = 4
__dwPID$ = 8						; size = 4
_c_szName$ = 12						; size = 4
??0SPartyMemberInfo@CPythonPlayer@@QAE@KPBD@Z PROC	; CPythonPlayer::SPartyMemberInfo::SPartyMemberInfo, COMDAT
; _this$ = ecx

; 133  : 			SPartyMemberInfo(DWORD _dwPID, const char * c_szName) : dwPID(_dwPID), strName(c_szName), dwVID(0) {}

  00000	55		 push	 ebp
  00001	8b ec		 mov	 ebp, esp
  00003	51		 push	 ecx
  00004	8b 45 08	 mov	 eax, DWORD PTR __dwPID$[ebp]
  00007	0f 57 c0	 xorps	 xmm0, xmm0
  0000a	53		 push	 ebx
  0000b	56		 push	 esi
  0000c	8b f1		 mov	 esi, ecx
  0000e	8d 4e 08	 lea	 ecx, DWORD PTR [esi+8]
  00011	89 75 fc	 mov	 DWORD PTR _this$[ebp], esi
  00014	89 46 04	 mov	 DWORD PTR [esi+4], eax
; File C:\Program Files\Microsoft Visual Studio\2022\Community\VC\Tools\MSVC\14.44.35207\include\__msvc_string_view.hpp

; 456  :             return __builtin_strlen(_First);

  00017	8b 45 0c	 mov	 eax, DWORD PTR _c_szName$[ebp]
; File D:\_m2work\Server Client TMP4\ClientVS22\source\UserInterface\PythonPlayer.h

; 133  : 			SPartyMemberInfo(DWORD _dwPID, const char * c_szName) : dwPID(_dwPID), strName(c_szName), dwVID(0) {}

  0001a	c7 06 00 00 00
	00		 mov	 DWORD PTR [esi], 0
; File C:\Program Files\Microsoft Visual Studio\2022\Community\VC\Tools\MSVC\14.44.35207\include\xstring

; 493  :         _CONSTEXPR20 _Bxty() noexcept : _Buf() {} // user-provided, for fancy pointers

  00020	0f 11 01	 movups	 XMMWORD PTR [ecx], xmm0

; 517  :     size_type _Mysize = 0; // current length of string (size)

  00023	c7 41 10 00 00
	00 00		 mov	 DWORD PTR [ecx+16], 0

; 518  :     size_type _Myres  = 0; // current storage reserved for string (capacity)

  0002a	c7 41 14 00 00
	00 00		 mov	 DWORD PTR [ecx+20], 0
; File C:\Program Files\Microsoft Visual Studio\2022\Community\VC\Tools\MSVC\14.44.35207\include\__msvc_string_view.hpp

; 456  :             return __builtin_strlen(_First);

  00031	8d 58 01	 lea	 ebx, DWORD PTR [eax+1]
$LL22@SPartyMemb:
  00034	8a 10		 mov	 dl, BYTE PTR [eax]
  00036	40		 inc	 eax
  00037	84 d2		 test	 dl, dl
  00039	75 f9		 jne	 SHORT $LL22@SPartyMemb
  0003b	2b c3		 sub	 eax, ebx
; File C:\Program Files\Microsoft Visual Studio\2022\Community\VC\Tools\MSVC\14.44.35207\include\xstring

; 769  :         _Construct<_Construct_strategy::_From_ptr>(_Ptr, _Convert_size<size_type>(_Traits::length(_Ptr)));

  0003d	50		 push	 eax
  0003e	ff 75 0c	 push	 DWORD PTR _c_szName$[ebp]
  00041	e8 00 00 00 00	 call	 ??$_Construct@$00PBD@?$basic_string@DU?$char_traits@D@std@@V?$allocator@D@2@@std@@AAEXQBDI@Z ; std::basic_string<char,std::char_traits<char>,std::allocator<char> >::_Construct<1,char const *>
; File D:\_m2work\Server Client TMP4\ClientVS22\source\UserInterface\PythonPlayer.h

; 133  : 			SPartyMemberInfo(DWORD _dwPID, const char * c_szName) : dwPID(_dwPID), strName(c_szName), dwVID(0) {}

  00046	8b c6		 mov	 eax, esi
  00048	5e		 pop	 esi
  00049	5b		 pop	 ebx
  0004a	8b e5		 mov	 esp, ebp
  0004c	5d		 pop	 ebp
  0004d	c2 08 00	 ret	 8
??0SPartyMemberInfo@CPythonPlayer@@QAE@KPBD@Z ENDP	; CPythonPlayer::SPartyMemberInfo::SPartyMemberInfo
_TEXT	ENDS
; Function compile flags: /Ogtp
; File D:\_m2work\Server Client TMP4\ClientVS22\source\UserInterface\PythonPlayer.h
;	COMDAT ??0SAutoPotionInfo@CPythonPlayer@@QAE@XZ
_TEXT	SEGMENT
??0SAutoPotionInfo@CPythonPlayer@@QAE@XZ PROC		; CPythonPlayer::SAutoPotionInfo::SAutoPotionInfo, COMDAT
; _this$ = ecx

; 167  : 			SAutoPotionInfo() : bActivated(false), totalAmount(0), currentAmount(0) {}

  00000	c6 01 00	 mov	 BYTE PTR [ecx], 0
  00003	8b c1		 mov	 eax, ecx
  00005	c7 41 04 00 00
	00 00		 mov	 DWORD PTR [ecx+4], 0
  0000c	c7 41 08 00 00
	00 00		 mov	 DWORD PTR [ecx+8], 0
  00013	c3		 ret	 0
??0SAutoPotionInfo@CPythonPlayer@@QAE@XZ ENDP		; CPythonPlayer::SAutoPotionInfo::SAutoPotionInfo
_TEXT	ENDS
; Function compile flags: /Ogtp
; File D:\_m2work\Server Client TMP4\ClientVS22\source\UserInterface\PythonPlayer.cpp
;	COMDAT ?SetPoint@SPlayerStatus@CPythonPlayer@@QAEXIJ@Z
_TEXT	SEGMENT
_ePoint$ = 8						; size = 4
_lPoint$ = 12						; size = 4
?SetPoint@SPlayerStatus@CPythonPlayer@@QAEXIJ@Z PROC	; CPythonPlayer::SPlayerStatus::SetPoint, COMDAT
; _this$ = ecx

; 25   : {

  00000	55		 push	 ebp
  00001	8b ec		 mov	 ebp, esp

; 26   : 	m_alPoint[ePoint]=lPoint ^ POINT_MAGIC_NUMBER;

  00003	8b 45 08	 mov	 eax, DWORD PTR _ePoint$[ebp]
  00006	8b 55 0c	 mov	 edx, DWORD PTR _lPoint$[ebp]
  00009	81 f2 da c1 3a
	e7		 xor	 edx, -415579686		; e73ac1daH
  0000f	89 94 81 d0 f2
	00 00		 mov	 DWORD PTR [ecx+eax*4+62160], edx

; 27   : }

  00016	5d		 pop	 ebp
  00017	c2 08 00	 ret	 8
?SetPoint@SPlayerStatus@CPythonPlayer@@QAEXIJ@Z ENDP	; CPythonPlayer::SPlayerStatus::SetPoint
_TEXT	ENDS
; Function compile flags: /Ogtp
; File D:\_m2work\Server Client TMP4\ClientVS22\source\UserInterface\PythonPlayer.cpp
;	COMDAT ?GetPoint@SPlayerStatus@CPythonPlayer@@QAEJI@Z
_TEXT	SEGMENT
_ePoint$ = 8						; size = 4
?GetPoint@SPlayerStatus@CPythonPlayer@@QAEJI@Z PROC	; CPythonPlayer::SPlayerStatus::GetPoint, COMDAT
; _this$ = ecx

; 30   : {

  00000	55		 push	 ebp
  00001	8b ec		 mov	 ebp, esp

; 31   : 	return m_alPoint[ePoint] ^ POINT_MAGIC_NUMBER;

  00003	8b 45 08	 mov	 eax, DWORD PTR _ePoint$[ebp]
  00006	8b 84 81 d0 f2
	00 00		 mov	 eax, DWORD PTR [ecx+eax*4+62160]
  0000d	35 da c1 3a e7	 xor	 eax, -415579686		; e73ac1daH

; 32   : }

  00012	5d		 pop	 ebp
  00013	c2 04 00	 ret	 4
?GetPoint@SPlayerStatus@CPythonPlayer@@QAEJI@Z ENDP	; CPythonPlayer::SPlayerStatus::GetPoint
_TEXT	ENDS
; Function compile flags: /Ogtp
; File D:\_m2work\Server Client TMP4\ClientVS22\source\UserInterface\PythonPlayer.cpp
; File C:\Program Files\Microsoft Visual Studio\2022\Community\VC\Tools\MSVC\14.44.35207\include\xtree
; File C:\Program Files\Microsoft Visual Studio\2022\Community\VC\Tools\MSVC\14.44.35207\include\type_traits
; File C:\Program Files\Microsoft Visual Studio\2022\Community\VC\Tools\MSVC\14.44.35207\include\xtree
; File D:\_m2work\Server Client TMP4\ClientVS22\source\UserInterface\PythonPlayer.cpp
;	COMDAT ?AffectIndexToSkillIndex@CPythonPlayer@@QAE_NKPAK@Z
_TEXT	SEGMENT
__Loc$1 = -12						; size = 12
_dwAffectIndex$ = 8					; size = 4
_pdwSkillIndex$ = 12					; size = 4
?AffectIndexToSkillIndex@CPythonPlayer@@QAE_NKPAK@Z PROC ; CPythonPlayer::AffectIndexToSkillIndex, COMDAT
; _this$ = ecx

; 35   : {

  00000	55		 push	 ebp
  00001	8b ec		 mov	 ebp, esp
  00003	83 ec 0c	 sub	 esp, 12			; 0000000cH
  00006	56		 push	 esi
; File C:\Program Files\Microsoft Visual Studio\2022\Community\VC\Tools\MSVC\14.44.35207\include\xtree

; 1384 :         const _Tree_find_result<_Nodeptr> _Loc = _Find_lower_bound(_Keyval);

  00007	8d 45 08	 lea	 eax, DWORD PTR _dwAffectIndex$[ebp]
  0000a	50		 push	 eax

; 1152 :         return iterator(_Scary->_Myhead, _Scary);

  0000b	8d b1 1c f8 00
	00		 lea	 esi, DWORD PTR [ecx+63516]

; 1384 :         const _Tree_find_result<_Nodeptr> _Loc = _Find_lower_bound(_Keyval);

  00011	8d 45 f4	 lea	 eax, DWORD PTR __Loc$1[ebp]
  00014	8b ce		 mov	 ecx, esi
  00016	50		 push	 eax
  00017	e8 00 00 00 00	 call	 ??$_Find_lower_bound@K@?$_Tree@V?$_Tmap_traits@KKU?$less@K@std@@V?$allocator@U?$pair@$$CBKK@std@@@2@$0A@@std@@@std@@IBE?AU?$_Tree_find_result@PAU?$_Tree_node@U?$pair@$$CBKK@std@@PAX@std@@@1@ABK@Z ; std::_Tree<std::_Tmap_traits<unsigned long,unsigned long,std::less<unsigned long>,std::allocator<std::pair<unsigned long const ,unsigned long> >,0> >::_Find_lower_bound<unsigned long>

; 1624 :         return !_Bound->_Isnil && !_DEBUG_LT_PRED(_Getcomp(), _Keyval, _Traits::_Kfn(_Bound->_Myval));

  0001c	8b 55 fc	 mov	 edx, DWORD PTR __Loc$1[ebp+8]
  0001f	80 7a 0d 00	 cmp	 BYTE PTR [edx+13], 0
  00023	75 27		 jne	 SHORT $LN41@AffectInde
; File C:\Program Files\Microsoft Visual Studio\2022\Community\VC\Tools\MSVC\14.44.35207\include\type_traits

; 2380 :         return _Left < _Right;

  00025	8b 45 08	 mov	 eax, DWORD PTR _dwAffectIndex$[ebp]
  00028	3b 42 10	 cmp	 eax, DWORD PTR [edx+16]
; File C:\Program Files\Microsoft Visual Studio\2022\Community\VC\Tools\MSVC\14.44.35207\include\xtree

; 1624 :         return !_Bound->_Isnil && !_DEBUG_LT_PRED(_Getcomp(), _Keyval, _Traits::_Kfn(_Bound->_Myval));

  0002b	72 1f		 jb	 SHORT $LN41@AffectInde

; 232  :         return this->_Ptr == _Right._Ptr;

  0002d	39 16		 cmp	 DWORD PTR [esi], edx
; File D:\_m2work\Server Client TMP4\ClientVS22\source\UserInterface\PythonPlayer.cpp

; 36   : 	if (m_kMap_dwAffectIndexToSkillIndex.end() == m_kMap_dwAffectIndexToSkillIndex.find(dwAffectIndex))

  0002f	74 1b		 je	 SHORT $LN41@AffectInde

; 38   : 
; 39   : 	*pdwSkillIndex = m_kMap_dwAffectIndexToSkillIndex[dwAffectIndex];

  00031	8d 45 08	 lea	 eax, DWORD PTR _dwAffectIndex$[ebp]
  00034	8b ce		 mov	 ecx, esi
  00036	50		 push	 eax
  00037	e8 00 00 00 00	 call	 ??A?$map@KKU?$less@K@std@@V?$allocator@U?$pair@$$CBKK@std@@@2@@std@@QAEAAKABK@Z ; std::map<unsigned long,unsigned long,std::less<unsigned long>,std::allocator<std::pair<unsigned long const ,unsigned long> > >::operator[]
  0003c	5e		 pop	 esi
  0003d	8b 08		 mov	 ecx, DWORD PTR [eax]
  0003f	8b 45 0c	 mov	 eax, DWORD PTR _pdwSkillIndex$[ebp]
  00042	89 08		 mov	 DWORD PTR [eax], ecx

; 40   : 	return true;

  00044	b0 01		 mov	 al, 1

; 41   : }

  00046	8b e5		 mov	 esp, ebp
  00048	5d		 pop	 ebp
  00049	c2 08 00	 ret	 8
$LN41@AffectInde:

; 37   : 		return false;

  0004c	32 c0		 xor	 al, al
  0004e	5e		 pop	 esi

; 41   : }

  0004f	8b e5		 mov	 esp, ebp
  00051	5d		 pop	 ebp
  00052	c2 08 00	 ret	 8
?AffectIndexToSkillIndex@CPythonPlayer@@QAE_NKPAK@Z ENDP ; CPythonPlayer::AffectIndexToSkillIndex
_TEXT	ENDS
; Function compile flags: /Ogtp
; File D:\_m2work\Server Client TMP4\ClientVS22\source\UserInterface\PythonPlayer.cpp
;	COMDAT ?__GetPickedActorPtr@CPythonPlayer@@IAE_NPAPAVCInstanceBase@@@Z
_TEXT	SEGMENT
_ppkInstPicked$ = 8					; size = 4
?__GetPickedActorPtr@CPythonPlayer@@IAE_NPAPAVCInstanceBase@@@Z PROC ; CPythonPlayer::__GetPickedActorPtr, COMDAT
; _this$dead$ = ecx

; 51   : {

  00000	55		 push	 ebp
  00001	8b ec		 mov	 ebp, esp

; 52   : 	CPythonCharacterManager& rkChrMgr=CPythonCharacterManager::Instance();
; 53   : 	CInstanceBase* pkInstPicked=rkChrMgr.OLD_GetPickedInstancePtr();

  00003	8b 0d 00 00 00
	00		 mov	 ecx, DWORD PTR ?ms_singleton@?$CSingleton@VCPythonCharacterManager@@@@0PAVCPythonCharacterManager@@A ; CSingleton<CPythonCharacterManager>::ms_singleton
  00009	e8 00 00 00 00	 call	 ?OLD_GetPickedInstancePtr@CPythonCharacterManager@@QAEPAVCInstanceBase@@XZ ; CPythonCharacterManager::OLD_GetPickedInstancePtr
  0000e	8b c8		 mov	 ecx, eax

; 54   : 	if (!pkInstPicked)

  00010	85 c9		 test	 ecx, ecx
  00012	75 06		 jne	 SHORT $LN2@GetPickedA

; 55   : 		return false;

  00014	32 c0		 xor	 al, al

; 59   : }

  00016	5d		 pop	 ebp
  00017	c2 04 00	 ret	 4
$LN2@GetPickedA:

; 56   : 
; 57   : 	*ppkInstPicked=pkInstPicked;

  0001a	8b 45 08	 mov	 eax, DWORD PTR _ppkInstPicked$[ebp]
  0001d	89 08		 mov	 DWORD PTR [eax], ecx

; 58   : 	return true;

  0001f	b0 01		 mov	 al, 1

; 59   : }

  00021	5d		 pop	 ebp
  00022	c2 04 00	 ret	 4
?__GetPickedActorPtr@CPythonPlayer@@IAE_NPAPAVCInstanceBase@@@Z ENDP ; CPythonPlayer::__GetPickedActorPtr
_TEXT	ENDS
; Function compile flags: /Ogtp
; File D:\_m2work\Server Client TMP4\ClientVS22\source\UserInterface\PythonPlayer.cpp
;	COMDAT ?__GetPickedActorID@CPythonPlayer@@IAE_NPAK@Z
_TEXT	SEGMENT
_pdwActorID$ = 8					; size = 4
?__GetPickedActorID@CPythonPlayer@@IAE_NPAK@Z PROC	; CPythonPlayer::__GetPickedActorID, COMDAT
; _this$dead$ = ecx

; 62   : {

  00000	55		 push	 ebp
  00001	8b ec		 mov	 ebp, esp

; 63   : 	CPythonCharacterManager& rkChrMgr=CPythonCharacterManager::Instance();
; 64   : 	return rkChrMgr.OLD_GetPickedInstanceVID(pdwActorID);

  00003	8b 0d 00 00 00
	00		 mov	 ecx, DWORD PTR ?ms_singleton@?$CSingleton@VCPythonCharacterManager@@@@0PAVCPythonCharacterManager@@A ; CSingleton<CPythonCharacterManager>::ms_singleton

; 65   : }

  00009	5d		 pop	 ebp

; 63   : 	CPythonCharacterManager& rkChrMgr=CPythonCharacterManager::Instance();
; 64   : 	return rkChrMgr.OLD_GetPickedInstanceVID(pdwActorID);

  0000a	e9 00 00 00 00	 jmp	 ?OLD_GetPickedInstanceVID@CPythonCharacterManager@@QAE_NPAK@Z ; CPythonCharacterManager::OLD_GetPickedInstanceVID
?__GetPickedActorID@CPythonPlayer@@IAE_NPAK@Z ENDP	; CPythonPlayer::__GetPickedActorID
_TEXT	ENDS
; Function compile flags: /Ogtp
; File D:\_m2work\Server Client TMP4\ClientVS22\source\UserInterface\PythonPlayer.cpp
;	COMDAT ?__GetPickedItemID@CPythonPlayer@@IAE_NPAK@Z
_TEXT	SEGMENT
_pdwItemID$ = 8						; size = 4
?__GetPickedItemID@CPythonPlayer@@IAE_NPAK@Z PROC	; CPythonPlayer::__GetPickedItemID, COMDAT
; _this$dead$ = ecx

; 68   : {

  00000	55		 push	 ebp
  00001	8b ec		 mov	 ebp, esp

; 69   : 	CPythonItem& rkItemMgr=CPythonItem::Instance();
; 70   : 	return rkItemMgr.GetPickedItemID(pdwItemID);

  00003	8b 0d 00 00 00
	00		 mov	 ecx, DWORD PTR ?ms_singleton@?$CSingleton@VCPythonItem@@@@0PAVCPythonItem@@A ; CSingleton<CPythonItem>::ms_singleton

; 71   : }

  00009	5d		 pop	 ebp

; 69   : 	CPythonItem& rkItemMgr=CPythonItem::Instance();
; 70   : 	return rkItemMgr.GetPickedItemID(pdwItemID);

  0000a	e9 00 00 00 00	 jmp	 ?GetPickedItemID@CPythonItem@@QAE_NPAK@Z ; CPythonItem::GetPickedItemID
?__GetPickedItemID@CPythonPlayer@@IAE_NPAK@Z ENDP	; CPythonPlayer::__GetPickedItemID
_TEXT	ENDS
; Function compile flags: /Ogtp
; File D:\_m2work\Server Client TMP4\ClientVS22\source\UserInterface\PythonPlayer.cpp
;	COMDAT ?__GetPickedGroundPos@CPythonPlayer@@IAE_NPAUD3DXVECTOR3@@@Z
_TEXT	SEGMENT
_pkPPosPicked$ = 8					; size = 4
?__GetPickedGroundPos@CPythonPlayer@@IAE_NPAUD3DXVECTOR3@@@Z PROC ; CPythonPlayer::__GetPickedGroundPos, COMDAT
; _this$dead$ = ecx

; 74   : {

  00000	55		 push	 ebp
  00001	8b ec		 mov	 ebp, esp

; 75   : 	CPythonBackground& rkBG=CPythonBackground::Instance();
; 76   : 
; 77   : 	TPixelPosition kPPosPicked;
; 78   : 	if (rkBG.GetPickingPoint(pkPPosPicked))

  00003	8b 0d 00 00 00
	00		 mov	 ecx, DWORD PTR ?ms_singleton@?$CSingleton@VCPythonBackground@@@@0PAVCPythonBackground@@A ; CSingleton<CPythonBackground>::ms_singleton
  00009	56		 push	 esi
  0000a	8b 75 08	 mov	 esi, DWORD PTR _pkPPosPicked$[ebp]
  0000d	56		 push	 esi
  0000e	e8 00 00 00 00	 call	 ?GetPickingPoint@CPythonBackground@@QAE_NPAUD3DXVECTOR3@@@Z ; CPythonBackground::GetPickingPoint
  00013	84 c0		 test	 al, al
  00015	74 18		 je	 SHORT $LN2@GetPickedG

; 79   : 	{
; 80   : 		pkPPosPicked->y=-pkPPosPicked->y;

  00017	f3 0f 10 46 04	 movss	 xmm0, DWORD PTR [esi+4]

; 81   : 		return true;

  0001c	b0 01		 mov	 al, 1
  0001e	0f 57 05 00 00
	00 00		 xorps	 xmm0, DWORD PTR __xmm@80000000800000008000000080000000
  00025	f3 0f 11 46 04	 movss	 DWORD PTR [esi+4], xmm0
  0002a	5e		 pop	 esi

; 85   : }

  0002b	5d		 pop	 ebp
  0002c	c2 04 00	 ret	 4
$LN2@GetPickedG:

; 82   : 	}
; 83   : 
; 84   : 	return false;

  0002f	32 c0		 xor	 al, al
  00031	5e		 pop	 esi

; 85   : }

  00032	5d		 pop	 ebp
  00033	c2 04 00	 ret	 4
?__GetPickedGroundPos@CPythonPlayer@@IAE_NPAUD3DXVECTOR3@@@Z ENDP ; CPythonPlayer::__GetPickedGroundPos
_TEXT	ENDS
; Function compile flags: /Ogtp
; File D:\_m2work\Server Client TMP4\ClientVS22\source\UserInterface\PythonPlayer.cpp
;	COMDAT ?RegisterEffect@CPythonPlayer@@QAE_NKPBD_N@Z
_TEXT	SEGMENT
_dwEID$ = 8						; size = 4
_c_szFileName$ = 12					; size = 4
_isCache$ = 16						; size = 1
?RegisterEffect@CPythonPlayer@@QAE_NKPBD_N@Z PROC	; CPythonPlayer::RegisterEffect, COMDAT
; _this$ = ecx

; 106  : {

  00000	55		 push	 ebp
  00001	8b ec		 mov	 ebp, esp
  00003	8b 45 08	 mov	 eax, DWORD PTR _dwEID$[ebp]

; 107  : 	if (dwEID>=EFFECT_NUM)

  00006	83 f8 01	 cmp	 eax, 1
  00009	72 06		 jb	 SHORT $LN2@RegisterEf

; 108  : 		return false;

  0000b	32 c0		 xor	 al, al

; 113  : }

  0000d	5d		 pop	 ebp
  0000e	c2 0c 00	 ret	 12			; 0000000cH
$LN2@RegisterEf:

; 109  : 
; 110  : 	CEffectManager& rkEftMgr=CEffectManager::Instance();
; 111  : 	rkEftMgr.RegisterEffect2(c_szFileName, &m_adwEffect[dwEID], isCache);

  00011	ff 75 10	 push	 DWORD PTR _isCache$[ebp]
  00014	81 c1 d4 f7 00
	00		 add	 ecx, 63444		; 0000f7d4H
  0001a	8d 04 81	 lea	 eax, DWORD PTR [ecx+eax*4]
  0001d	8b 0d 00 00 00
	00		 mov	 ecx, DWORD PTR ?ms_singleton@?$CSingleton@VCEffectManager@@@@0PAVCEffectManager@@A ; CSingleton<CEffectManager>::ms_singleton
  00023	50		 push	 eax
  00024	ff 75 0c	 push	 DWORD PTR _c_szFileName$[ebp]
  00027	e8 00 00 00 00	 call	 ?RegisterEffect2@CEffectManager@@QAEHPBDPAK_N@Z ; CEffectManager::RegisterEffect2

; 112  : 	return true;

  0002c	b0 01		 mov	 al, 1

; 113  : }

  0002e	5d		 pop	 ebp
  0002f	c2 0c 00	 ret	 12			; 0000000cH
?RegisterEffect@CPythonPlayer@@QAE_NKPBD_N@Z ENDP	; CPythonPlayer::RegisterEffect
_TEXT	ENDS
; Function compile flags: /Ogtp
; File D:\_m2work\Server Client TMP4\ClientVS22\source\UserInterface\PythonPlayer.cpp
; File D:\_m2work\Server Client TMP4\ClientVS22\extern\include\d3dx8math.inl
; File D:\_m2work\Server Client TMP4\ClientVS22\source\UserInterface\PythonPlayer.cpp
; File D:\_m2work\Server Client TMP4\ClientVS22\extern\include\d3dx8math.inl
; File D:\_m2work\Server Client TMP4\ClientVS22\source\UserInterface\PythonPlayer.cpp
; File D:\_m2work\Server Client TMP4\ClientVS22\extern\include\d3dx8math.inl
; File D:\_m2work\Server Client TMP4\ClientVS22\source\UserInterface\PythonPlayer.cpp
; File D:\_m2work\Server Client TMP4\ClientVS22\extern\include\d3dx8math.inl
; File D:\_m2work\Server Client TMP4\ClientVS22\source\UserInterface\PythonPlayer.cpp
;	COMDAT ?NEW_ShowEffect@CPythonPlayer@@IAEXHUD3DXVECTOR3@@@Z
_TEXT	SEGMENT
_kD3DVt3Pos$ = -28					; size = 12
_kD3DVt3Dir$ = -16					; size = 12
__$ArrayPad$ = -4					; size = 4
_dwEID$dead$ = 8					; size = 4
_kPPosDst$ = 12						; size = 12
?NEW_ShowEffect@CPythonPlayer@@IAEXHUD3DXVECTOR3@@@Z PROC ; CPythonPlayer::NEW_ShowEffect, COMDAT
; _this$ = ecx

; 116  : {

  00000	55		 push	 ebp
  00001	8b ec		 mov	 ebp, esp
  00003	83 ec 1c	 sub	 esp, 28			; 0000001cH
  00006	a1 00 00 00 00	 mov	 eax, DWORD PTR ___security_cookie
  0000b	33 c5		 xor	 eax, ebp
  0000d	89 45 fc	 mov	 DWORD PTR __$ArrayPad$[ebp], eax
; File D:\_m2work\Server Client TMP4\ClientVS22\extern\include\d3dx8math.inl

; 180  :     x = fx;

  00010	f3 0f 10 45 0c	 movss	 xmm0, DWORD PTR _kPPosDst$[ebp]
; File D:\_m2work\Server Client TMP4\ClientVS22\source\UserInterface\PythonPlayer.cpp

; 124  : 	rkEftMgr.CreateEffect(m_adwEffect[dwEID], kD3DVt3Pos, kD3DVt3Dir);

  00015	8d 45 f0	 lea	 eax, DWORD PTR _kD3DVt3Dir$[ebp]
; File D:\_m2work\Server Client TMP4\ClientVS22\extern\include\d3dx8math.inl

; 180  :     x = fx;

  00018	f3 0f 11 45 e4	 movss	 DWORD PTR _kD3DVt3Pos$[ebp], xmm0
; File D:\_m2work\Server Client TMP4\ClientVS22\source\UserInterface\PythonPlayer.cpp

; 120  : 	D3DXVECTOR3 kD3DVt3Pos(kPPosDst.x, -kPPosDst.y, kPPosDst.z);

  0001d	f3 0f 10 45 10	 movss	 xmm0, DWORD PTR _kPPosDst$[ebp+4]
  00022	0f 57 05 00 00
	00 00		 xorps	 xmm0, DWORD PTR __xmm@80000000800000008000000080000000

; 124  : 	rkEftMgr.CreateEffect(m_adwEffect[dwEID], kD3DVt3Pos, kD3DVt3Dir);

  00029	50		 push	 eax
  0002a	8d 45 e4	 lea	 eax, DWORD PTR _kD3DVt3Pos$[ebp]
; File D:\_m2work\Server Client TMP4\ClientVS22\extern\include\d3dx8math.inl

; 181  :     y = fy;

  0002d	f3 0f 11 45 e8	 movss	 DWORD PTR _kD3DVt3Pos$[ebp+4], xmm0

; 182  :     z = fz;

  00032	f3 0f 10 45 14	 movss	 xmm0, DWORD PTR _kPPosDst$[ebp+8]
; File D:\_m2work\Server Client TMP4\ClientVS22\source\UserInterface\PythonPlayer.cpp

; 124  : 	rkEftMgr.CreateEffect(m_adwEffect[dwEID], kD3DVt3Pos, kD3DVt3Dir);

  00037	50		 push	 eax
  00038	ff b1 d4 f7 00
	00		 push	 DWORD PTR [ecx+63444]
  0003e	8b 0d 00 00 00
	00		 mov	 ecx, DWORD PTR ?ms_singleton@?$CSingleton@VCEffectManager@@@@0PAVCEffectManager@@A ; CSingleton<CEffectManager>::ms_singleton
; File D:\_m2work\Server Client TMP4\ClientVS22\extern\include\d3dx8math.inl

; 182  :     z = fz;

  00044	f3 0f 11 45 ec	 movss	 DWORD PTR _kD3DVt3Pos$[ebp+8], xmm0

; 180  :     x = fx;

  00049	c7 45 f0 00 00
	00 00		 mov	 DWORD PTR _kD3DVt3Dir$[ebp], 0

; 181  :     y = fy;

  00050	c7 45 f4 00 00
	00 00		 mov	 DWORD PTR _kD3DVt3Dir$[ebp+4], 0

; 182  :     z = fz;

  00057	c7 45 f8 00 00
	80 3f		 mov	 DWORD PTR _kD3DVt3Dir$[ebp+8], 1065353216 ; 3f800000H
; File D:\_m2work\Server Client TMP4\ClientVS22\source\UserInterface\PythonPlayer.cpp

; 124  : 	rkEftMgr.CreateEffect(m_adwEffect[dwEID], kD3DVt3Pos, kD3DVt3Dir);

  0005e	e8 00 00 00 00	 call	 ?CreateEffect@CEffectManager@@QAEHKABUD3DXVECTOR3@@0@Z ; CEffectManager::CreateEffect

; 125  : }

  00063	8b 4d fc	 mov	 ecx, DWORD PTR __$ArrayPad$[ebp]
  00066	33 cd		 xor	 ecx, ebp
  00068	e8 00 00 00 00	 call	 @__security_check_cookie@4
  0006d	8b e5		 mov	 esp, ebp
  0006f	5d		 pop	 ebp
  00070	c2 10 00	 ret	 16			; 00000010H
?NEW_ShowEffect@CPythonPlayer@@IAEXHUD3DXVECTOR3@@@Z ENDP ; CPythonPlayer::NEW_ShowEffect
_TEXT	ENDS
; Function compile flags: /Ogtp
; File D:\_m2work\Server Client TMP4\ClientVS22\source\UserInterface\PythonPlayer.cpp
;	COMDAT ?NEW_FindActorPtr@CPythonPlayer@@QAEPAVCInstanceBase@@K@Z
_TEXT	SEGMENT
_dwVID$ = 8						; size = 4
?NEW_FindActorPtr@CPythonPlayer@@QAEPAVCInstanceBase@@K@Z PROC ; CPythonPlayer::NEW_FindActorPtr, COMDAT
; _this$dead$ = ecx

; 128  : {

  00000	55		 push	 ebp
  00001	8b ec		 mov	 ebp, esp

; 129  : 	CPythonCharacterManager& rkChrMgr = CPythonCharacterManager::Instance();
; 130  : 	return rkChrMgr.GetInstancePtr(dwVID);

  00003	8b 0d 00 00 00
	00		 mov	 ecx, DWORD PTR ?ms_singleton@?$CSingleton@VCPythonCharacterManager@@@@0PAVCPythonCharacterManager@@A ; CSingleton<CPythonCharacterManager>::ms_singleton
  00009	8b 41 04	 mov	 eax, DWORD PTR [ecx+4]
  0000c	8d 49 04	 lea	 ecx, DWORD PTR [ecx+4]

; 131  : }

  0000f	5d		 pop	 ebp

; 129  : 	CPythonCharacterManager& rkChrMgr = CPythonCharacterManager::Instance();
; 130  : 	return rkChrMgr.GetInstancePtr(dwVID);

  00010	ff 60 08	 jmp	 DWORD PTR [eax+8]
?NEW_FindActorPtr@CPythonPlayer@@QAEPAVCInstanceBase@@K@Z ENDP ; CPythonPlayer::NEW_FindActorPtr
_TEXT	ENDS
; Function compile flags: /Ogtp
; File D:\_m2work\Server Client TMP4\ClientVS22\source\UserInterface\PythonPlayer.cpp
;	COMDAT ?NEW_GetMainActorPtr@CPythonPlayer@@UAEPAVCInstanceBase@@XZ
_TEXT	SEGMENT
?NEW_GetMainActorPtr@CPythonPlayer@@UAEPAVCInstanceBase@@XZ PROC ; CPythonPlayer::NEW_GetMainActorPtr, COMDAT
; _this$ = ecx

; 135  : 	return NEW_FindActorPtr(m_dwMainCharacterIndex);

  00000	ff 71 28	 push	 DWORD PTR [ecx+40]
  00003	e8 00 00 00 00	 call	 ?NEW_FindActorPtr@CPythonPlayer@@QAEPAVCInstanceBase@@K@Z ; CPythonPlayer::NEW_FindActorPtr

; 136  : }

  00008	c3		 ret	 0
?NEW_GetMainActorPtr@CPythonPlayer@@UAEPAVCInstanceBase@@XZ ENDP ; CPythonPlayer::NEW_GetMainActorPtr
_TEXT	ENDS
; Function compile flags: /Ogtp
; File D:\_m2work\Server Client TMP4\ClientVS22\source\UserInterface\PythonPlayer.cpp
;	COMDAT ?__IsUsingChargeSkill@CPythonPlayer@@IAE_NXZ
_TEXT	SEGMENT
_pSkillData$ = -4					; size = 4
?__IsUsingChargeSkill@CPythonPlayer@@IAE_NXZ PROC	; CPythonPlayer::__IsUsingChargeSkill, COMDAT
; _this$ = ecx

; 184  : {

  00000	55		 push	 ebp
  00001	8b ec		 mov	 ebp, esp
  00003	51		 push	 ecx
  00004	56		 push	 esi
  00005	8b f1		 mov	 esi, ecx

; 185  : 	CInstanceBase * pkInstMain = NEW_GetMainActorPtr();

  00007	8b 46 04	 mov	 eax, DWORD PTR [esi+4]
  0000a	8d 4e 04	 lea	 ecx, DWORD PTR [esi+4]
  0000d	ff 90 88 00 00
	00		 call	 DWORD PTR [eax+136]

; 186  : 	if (!pkInstMain)

  00013	85 c0		 test	 eax, eax
  00015	74 53		 je	 SHORT $LN8@IsUsingCha

; 187  : 		return false;
; 188  : 
; 189  : 	if (__CheckDashAffect(*pkInstMain))

  00017	50		 push	 eax
  00018	e8 00 00 00 00	 call	 ?__CheckDashAffect@CPythonPlayer@@IAE_NAAVCInstanceBase@@@Z ; CPythonPlayer::__CheckDashAffect
  0001d	84 c0		 test	 al, al
  0001f	74 07		 je	 SHORT $LN3@IsUsingCha

; 190  : 		return true;

  00021	b0 01		 mov	 al, 1
  00023	5e		 pop	 esi

; 205  : }

  00024	8b e5		 mov	 esp, ebp
  00026	5d		 pop	 ebp
  00027	c3		 ret	 0
$LN3@IsUsingCha:

; 191  : 
; 192  : 	if (MODE_USE_SKILL != m_eReservedMode)

  00028	83 7e 54 04	 cmp	 DWORD PTR [esi+84], 4
  0002c	75 3c		 jne	 SHORT $LN8@IsUsingCha

; 193  : 		return false;
; 194  : 
; 195  : 	if (m_dwSkillSlotIndexReserved >= SKILL_MAX_NUM)

  0002e	8b 86 50 f7 00
	00		 mov	 eax, DWORD PTR [esi+63312]
  00034	3d ff 00 00 00	 cmp	 eax, 255		; 000000ffH
  00039	73 2f		 jae	 SHORT $LN8@IsUsingCha

; 196  : 		return false;
; 197  : 
; 198  : 	TSkillInstance & rkSkillInst = m_playerStatus.aSkill[m_dwSkillSlotIndexReserved];
; 199  : 
; 200  : 	CPythonSkill::TSkillData * pSkillData;
; 201  : 	if (!CPythonSkill::Instance().GetSkillData(rkSkillInst.dwIndex, &pSkillData))

  0003b	8d 4d fc	 lea	 ecx, DWORD PTR _pSkillData$[ebp]
  0003e	51		 push	 ecx
  0003f	8b 0d 00 00 00
	00		 mov	 ecx, DWORD PTR ?ms_singleton@?$CSingleton@VCPythonSkill@@@@0PAVCPythonSkill@@A ; CSingleton<CPythonSkill>::ms_singleton
  00045	8d 04 80	 lea	 eax, DWORD PTR [eax+eax*4]
  00048	ff b4 c6 68 cb
	00 00		 push	 DWORD PTR [esi+eax*8+52072]
  0004f	e8 00 00 00 00	 call	 ?GetSkillData@CPythonSkill@@QAEHKPAPAUSSkillData@1@@Z ; CPythonSkill::GetSkillData
  00054	85 c0		 test	 eax, eax
  00056	74 12		 je	 SHORT $LN8@IsUsingCha

; 203  : 
; 204  : 	return pSkillData->IsChargeSkill() ? true : false;

  00058	8b 4d fc	 mov	 ecx, DWORD PTR _pSkillData$[ebp]
  0005b	e8 00 00 00 00	 call	 ?IsChargeSkill@SSkillData@CPythonSkill@@QAEHXZ ; CPythonSkill::SSkillData::IsChargeSkill
  00060	85 c0		 test	 eax, eax
  00062	5e		 pop	 esi
  00063	0f 95 c0	 setne	 al

; 205  : }

  00066	8b e5		 mov	 esp, ebp
  00068	5d		 pop	 ebp
  00069	c3		 ret	 0
$LN8@IsUsingCha:

; 202  : 		return false;

  0006a	32 c0		 xor	 al, al
  0006c	5e		 pop	 esi

; 205  : }

  0006d	8b e5		 mov	 esp, ebp
  0006f	5d		 pop	 ebp
  00070	c3		 ret	 0
?__IsUsingChargeSkill@CPythonPlayer@@IAE_NXZ ENDP	; CPythonPlayer::__IsUsingChargeSkill
_TEXT	ENDS
; Function compile flags: /Ogtp
; File D:\_m2work\Server Client TMP4\ClientVS22\source\UserInterface\PythonPlayer.cpp
;	COMDAT ?__Update_AutoAttack@CPythonPlayer@@IAEXXZ
_TEXT	SEGMENT
?__Update_AutoAttack@CPythonPlayer@@IAEXXZ PROC		; CPythonPlayer::__Update_AutoAttack, COMDAT
; _this$ = ecx

; 208  : {

  00000	56		 push	 esi
  00001	8b f1		 mov	 esi, ecx

; 209  : 	if (0 == m_dwAutoAttackTargetVID)

  00003	83 7e 50 00	 cmp	 DWORD PTR [esi+80], 0
  00007	74 71		 je	 SHORT $LN13@Update_Aut

; 210  : 		return;
; 211  : 
; 212  : 	CInstanceBase * pkInstMain = NEW_GetMainActorPtr();

  00009	8b 46 04	 mov	 eax, DWORD PTR [esi+4]
  0000c	8d 4e 04	 lea	 ecx, DWORD PTR [esi+4]
  0000f	57		 push	 edi
  00010	ff 90 88 00 00
	00		 call	 DWORD PTR [eax+136]
  00016	8b f8		 mov	 edi, eax

; 213  : 	if (!pkInstMain)

  00018	85 ff		 test	 edi, edi
  0001a	74 5d		 je	 SHORT $LN26@Update_Aut

; 214  : 		return;
; 215  : 
; 216  : 	//     
; 217  : 	if (__IsUsingChargeSkill())

  0001c	8b ce		 mov	 ecx, esi
  0001e	e8 00 00 00 00	 call	 ?__IsUsingChargeSkill@CPythonPlayer@@IAE_NXZ ; CPythonPlayer::__IsUsingChargeSkill
  00023	84 c0		 test	 al, al
  00025	75 52		 jne	 SHORT $LN26@Update_Aut

; 218  : 		return;
; 219  : 
; 220  : 	CInstanceBase* pkInstVictim=NEW_FindActorPtr(m_dwAutoAttackTargetVID);

  00027	53		 push	 ebx
  00028	ff 76 50	 push	 DWORD PTR [esi+80]
  0002b	e8 00 00 00 00	 call	 ?NEW_FindActorPtr@CPythonPlayer@@QAEPAVCInstanceBase@@K@Z ; CPythonPlayer::NEW_FindActorPtr
  00030	8b d8		 mov	 ebx, eax

; 221  : 	if (!pkInstVictim)

  00032	85 db		 test	 ebx, ebx
  00034	74 46		 je	 SHORT $LN15@Update_Aut

; 222  : 	{
; 223  : 		__ClearAutoAttackTargetActorID();
; 224  : 	}
; 225  : 	else
; 226  : 	{
; 227  : 		if (pkInstVictim->IsDead())

  00036	8b cb		 mov	 ecx, ebx
  00038	e8 00 00 00 00	 call	 ?IsDead@CInstanceBase@@QAEHXZ ; CInstanceBase::IsDead
  0003d	85 c0		 test	 eax, eax
  0003f	75 3b		 jne	 SHORT $LN15@Update_Aut

; 228  : 		{
; 229  : 			__ClearAutoAttackTargetActorID();
; 230  : 		}
; 231  : 		else if (pkInstMain->IsMountingHorse() && !pkInstMain->CanAttackHorseLevel())

  00041	8b cf		 mov	 ecx, edi
  00043	e8 00 00 00 00	 call	 ?IsMountingHorse@CInstanceBase@@QAEHXZ ; CInstanceBase::IsMountingHorse
  00048	85 c0		 test	 eax, eax
  0004a	74 0b		 je	 SHORT $LN9@Update_Aut
  0004c	8b cf		 mov	 ecx, edi
  0004e	e8 00 00 00 00	 call	 ?CanAttackHorseLevel@CInstanceBase@@QAEHXZ ; CInstanceBase::CanAttackHorseLevel
  00053	85 c0		 test	 eax, eax
  00055	74 25		 je	 SHORT $LN15@Update_Aut
$LN9@Update_Aut:

; 234  : 		}
; 235  : 		else if (pkInstMain->IsAttackableInstance(*pkInstVictim))

  00057	53		 push	 ebx
  00058	8b cf		 mov	 ecx, edi
  0005a	e8 00 00 00 00	 call	 ?IsAttackableInstance@CInstanceBase@@QAE_NAAV1@@Z ; CInstanceBase::IsAttackableInstance
  0005f	84 c0		 test	 al, al
  00061	74 15		 je	 SHORT $LN27@Update_Aut

; 236  : 		{
; 237  : 			if (pkInstMain->IsSleep())

  00063	8b cf		 mov	 ecx, edi
  00065	e8 00 00 00 00	 call	 ?IsSleep@CInstanceBase@@QAEHXZ ; CInstanceBase::IsSleep
  0006a	85 c0		 test	 eax, eax
  0006c	75 0a		 jne	 SHORT $LN27@Update_Aut

; 238  : 			{
; 239  : 				//TraceError("SKIP_AUTO_ATTACK_IN_SLEEPING");
; 240  : 			}
; 241  : 			else
; 242  : 			{
; 243  : 				__ReserveClickActor(m_dwAutoAttackTargetVID);

  0006e	ff 76 50	 push	 DWORD PTR [esi+80]
  00071	8b ce		 mov	 ecx, esi
  00073	e8 00 00 00 00	 call	 ?__ReserveClickActor@CPythonPlayer@@IAEXK@Z ; CPythonPlayer::__ReserveClickActor
$LN27@Update_Aut:
  00078	5b		 pop	 ebx
$LN26@Update_Aut:
  00079	5f		 pop	 edi
$LN13@Update_Aut:
  0007a	5e		 pop	 esi

; 244  : 			}
; 245  : 		}
; 246  : 	}
; 247  : }

  0007b	c3		 ret	 0
$LN15@Update_Aut:
  0007c	5b		 pop	 ebx
  0007d	5f		 pop	 edi

; 232  : 		{
; 233  : 			__ClearAutoAttackTargetActorID();

  0007e	8b ce		 mov	 ecx, esi
  00080	5e		 pop	 esi
  00081	e9 00 00 00 00	 jmp	 ?__ClearAutoAttackTargetActorID@CPythonPlayer@@IAEXXZ ; CPythonPlayer::__ClearAutoAttackTargetActorID
?__Update_AutoAttack@CPythonPlayer@@IAEXXZ ENDP		; CPythonPlayer::__Update_AutoAttack
_TEXT	ENDS
; Function compile flags: /Ogtp
; File D:\_m2work\Server Client TMP4\ClientVS22\source\UserInterface\PythonPlayer.cpp
;	COMDAT ?__Update_NotifyGuildAreaEvent@CPythonPlayer@@IAEXXZ
_TEXT	SEGMENT
_kPixelPosition$1 = -12					; size = 12
?__Update_NotifyGuildAreaEvent@CPythonPlayer@@IAEXXZ PROC ; CPythonPlayer::__Update_NotifyGuildAreaEvent, COMDAT
; _this$ = ecx

; 250  : {

  00000	55		 push	 ebp
  00001	8b ec		 mov	 ebp, esp
  00003	83 ec 0c	 sub	 esp, 12			; 0000000cH
  00006	57		 push	 edi
  00007	8b f9		 mov	 edi, ecx

; 251  : 	CInstanceBase * pkInstMain = NEW_GetMainActorPtr();

  00009	8b 47 04	 mov	 eax, DWORD PTR [edi+4]
  0000c	8d 4f 04	 lea	 ecx, DWORD PTR [edi+4]
  0000f	ff 90 88 00 00
	00		 call	 DWORD PTR [eax+136]

; 252  : 	if (pkInstMain)

  00015	85 c0		 test	 eax, eax
  00017	74 6f		 je	 SHORT $LN3@Update_Not

; 253  : 	{
; 254  : 		TPixelPosition kPixelPosition;
; 255  : 		pkInstMain->NEW_GetPixelPosition(&kPixelPosition);

  00019	56		 push	 esi
  0001a	8d 4d f4	 lea	 ecx, DWORD PTR _kPixelPosition$1[ebp]
  0001d	51		 push	 ecx
  0001e	8b c8		 mov	 ecx, eax
  00020	e8 00 00 00 00	 call	 ?NEW_GetPixelPosition@CInstanceBase@@QAEXPAUD3DXVECTOR3@@@Z ; CInstanceBase::NEW_GetPixelPosition

; 256  : 
; 257  : 		DWORD dwAreaID = CPythonMiniMap::Instance().GetGuildAreaID(

  00025	f3 0f 10 45 f8	 movss	 xmm0, DWORD PTR _kPixelPosition$1[ebp+4]
  0002a	e8 00 00 00 00	 call	 __ftol3
  0002f	f3 0f 10 45 f4	 movss	 xmm0, DWORD PTR _kPixelPosition$1[ebp]
  00034	50		 push	 eax
  00035	e8 00 00 00 00	 call	 __ftol3
  0003a	8b 0d 00 00 00
	00		 mov	 ecx, DWORD PTR ?ms_singleton@?$CSingleton@VCPythonMiniMap@@@@0PAVCPythonMiniMap@@A ; CSingleton<CPythonMiniMap>::ms_singleton
  00040	50		 push	 eax
  00041	e8 00 00 00 00	 call	 ?GetGuildAreaID@CPythonMiniMap@@QAEKKK@Z ; CPythonMiniMap::GetGuildAreaID
  00046	8b f0		 mov	 esi, eax

; 258  : 			ULONG(kPixelPosition.x), ULONG(kPixelPosition.y));
; 259  : 
; 260  : 		if (dwAreaID != m_inGuildAreaID)

  00048	3b b7 b4 f7 00
	00		 cmp	 esi, DWORD PTR [edi+63412]
  0004e	74 37		 je	 SHORT $LN12@Update_Not

; 261  : 		{
; 262  : 			if (0xffffffff != dwAreaID)

  00050	53		 push	 ebx
  00051	83 fe ff	 cmp	 esi, -1
  00054	74 08		 je	 SHORT $LN4@Update_Not

; 263  : 			{
; 264  : 				PyCallClassMemberFunc(m_ppyGameWindow, "BINARY_Guild_EnterGuildArea", Py_BuildValue("(i)", dwAreaID));

  00056	bb 00 00 00 00	 mov	 ebx, OFFSET ??_C@_0BM@OMJPBBKE@BINARY_Guild_EnterGuildArea@
  0005b	56		 push	 esi

; 265  : 			}

  0005c	eb 07		 jmp	 SHORT $LN13@Update_Not
$LN4@Update_Not:

; 266  : 			else
; 267  : 			{
; 268  : 				PyCallClassMemberFunc(m_ppyGameWindow, "BINARY_Guild_ExitGuildArea", Py_BuildValue("(i)", dwAreaID));

  0005e	bb 00 00 00 00	 mov	 ebx, OFFSET ??_C@_0BL@KCKDPCFN@BINARY_Guild_ExitGuildArea@
  00063	6a ff		 push	 -1
$LN13@Update_Not:

; 269  : 			}
; 270  : 
; 271  : 			m_inGuildAreaID = dwAreaID;

  00065	68 00 00 00 00	 push	 OFFSET ??_C@_03LIHNMIHG@?$CIi?$CJ@
  0006a	ff 15 00 00 00
	00		 call	 DWORD PTR __imp__Py_BuildValue
  00070	83 c4 08	 add	 esp, 8
  00073	50		 push	 eax
  00074	53		 push	 ebx
  00075	ff 77 08	 push	 DWORD PTR [edi+8]
  00078	e8 00 00 00 00	 call	 ?PyCallClassMemberFunc@@YA_NPAU_object@@PBD0@Z ; PyCallClassMemberFunc
  0007d	83 c4 0c	 add	 esp, 12			; 0000000cH
  00080	89 b7 b4 f7 00
	00		 mov	 DWORD PTR [edi+63412], esi
  00086	5b		 pop	 ebx
$LN12@Update_Not:
  00087	5e		 pop	 esi
$LN3@Update_Not:
  00088	5f		 pop	 edi

; 272  : 		}
; 273  : 	}
; 274  : }

  00089	8b e5		 mov	 esp, ebp
  0008b	5d		 pop	 ebp
  0008c	c3		 ret	 0
?__Update_NotifyGuildAreaEvent@CPythonPlayer@@IAEXXZ ENDP ; CPythonPlayer::__Update_NotifyGuildAreaEvent
_TEXT	ENDS
; Function compile flags: /Ogtp
; File D:\_m2work\Server Client TMP4\ClientVS22\source\UserInterface\PythonPlayer.cpp
;	COMDAT ?SetMainCharacterIndex@CPythonPlayer@@UAEXH@Z
_TEXT	SEGMENT
_iIndex$ = 8						; size = 4
?SetMainCharacterIndex@CPythonPlayer@@UAEXH@Z PROC	; CPythonPlayer::SetMainCharacterIndex, COMDAT
; _this$ = ecx

; 277  : {

  00000	55		 push	 ebp
  00001	8b ec		 mov	 ebp, esp

; 278  : 	m_dwMainCharacterIndex = iIndex;

  00003	8b 45 08	 mov	 eax, DWORD PTR _iIndex$[ebp]
  00006	89 41 28	 mov	 DWORD PTR [ecx+40], eax

; 279  : 
; 280  : 	CInstanceBase* pkInstMain=NEW_GetMainActorPtr();

  00009	8b 01		 mov	 eax, DWORD PTR [ecx]
  0000b	56		 push	 esi
  0000c	ff 90 88 00 00
	00		 call	 DWORD PTR [eax+136]
  00012	8b f0		 mov	 esi, eax

; 281  : 	if (pkInstMain)

  00014	85 f6		 test	 esi, esi
  00016	74 0d		 je	 SHORT $LN2@SetMainCha

; 282  : 	{
; 283  : 		CPythonPlayerEventHandler& rkPlayerEventHandler=CPythonPlayerEventHandler::GetSingleton();

  00018	e8 00 00 00 00	 call	 ?GetSingleton@CPythonPlayerEventHandler@@SAAAV1@XZ ; CPythonPlayerEventHandler::GetSingleton

; 284  : 		pkInstMain->SetEventHandler(&rkPlayerEventHandler);

  0001d	50		 push	 eax
  0001e	8b ce		 mov	 ecx, esi
  00020	e8 00 00 00 00	 call	 ?SetEventHandler@CInstanceBase@@QAEXPAVIEventHandler@CActorInstance@@@Z ; CInstanceBase::SetEventHandler
$LN2@SetMainCha:
  00025	5e		 pop	 esi

; 285  : 	}
; 286  : }

  00026	5d		 pop	 ebp
  00027	c2 04 00	 ret	 4
?SetMainCharacterIndex@CPythonPlayer@@UAEXH@Z ENDP	; CPythonPlayer::SetMainCharacterIndex
_TEXT	ENDS
; Function compile flags: /Ogtp
; File D:\_m2work\Server Client TMP4\ClientVS22\source\UserInterface\PythonPlayer.cpp
;	COMDAT ?GetMainCharacterIndex@CPythonPlayer@@UAEKXZ
_TEXT	SEGMENT
?GetMainCharacterIndex@CPythonPlayer@@UAEKXZ PROC	; CPythonPlayer::GetMainCharacterIndex, COMDAT
; _this$ = ecx

; 290  : 	return m_dwMainCharacterIndex;

  00000	8b 41 28	 mov	 eax, DWORD PTR [ecx+40]

; 291  : }

  00003	c3		 ret	 0
?GetMainCharacterIndex@CPythonPlayer@@UAEKXZ ENDP	; CPythonPlayer::GetMainCharacterIndex
_TEXT	ENDS
; Function compile flags: /Ogtp
; File D:\_m2work\Server Client TMP4\ClientVS22\source\UserInterface\PythonPlayer.cpp
;	COMDAT ?IsMainCharacterIndex@CPythonPlayer@@UAE_NK@Z
_TEXT	SEGMENT
_dwIndex$ = 8						; size = 4
?IsMainCharacterIndex@CPythonPlayer@@UAE_NK@Z PROC	; CPythonPlayer::IsMainCharacterIndex, COMDAT
; _this$ = ecx

; 294  : {

  00000	55		 push	 ebp
  00001	8b ec		 mov	 ebp, esp

; 295  : 	return (m_dwMainCharacterIndex == dwIndex);

  00003	8b 41 28	 mov	 eax, DWORD PTR [ecx+40]
  00006	3b 45 08	 cmp	 eax, DWORD PTR _dwIndex$[ebp]
  00009	0f 94 c0	 sete	 al

; 296  : }

  0000c	5d		 pop	 ebp
  0000d	c2 04 00	 ret	 4
?IsMainCharacterIndex@CPythonPlayer@@UAE_NK@Z ENDP	; CPythonPlayer::IsMainCharacterIndex
_TEXT	ENDS
; Function compile flags: /Ogtp
; File D:\_m2work\Server Client TMP4\ClientVS22\source\UserInterface\PythonPlayer.cpp
;	COMDAT ?SetWeaponPower@CPythonPlayer@@UAEXKKKKK@Z
_TEXT	SEGMENT
_dwMinPower$ = 8					; size = 4
_dwMaxPower$ = 12					; size = 4
_dwMinMagicPower$ = 16					; size = 4
_dwMaxMagicPower$ = 20					; size = 4
_dwAddPower$ = 24					; size = 4
?SetWeaponPower@CPythonPlayer@@UAEXKKKKK@Z PROC		; CPythonPlayer::SetWeaponPower, COMDAT
; _this$ = ecx

; 308  : {

  00000	55		 push	 ebp
  00001	8b ec		 mov	 ebp, esp

; 309  : 	m_dwWeaponMinPower=dwMinPower;

  00003	8b 45 08	 mov	 eax, DWORD PTR _dwMinPower$[ebp]
  00006	89 41 30	 mov	 DWORD PTR [ecx+48], eax

; 310  : 	m_dwWeaponMaxPower=dwMaxPower;

  00009	8b 45 0c	 mov	 eax, DWORD PTR _dwMaxPower$[ebp]
  0000c	89 41 34	 mov	 DWORD PTR [ecx+52], eax

; 311  : 	m_dwWeaponMinMagicPower=dwMinMagicPower;

  0000f	8b 45 10	 mov	 eax, DWORD PTR _dwMinMagicPower$[ebp]
  00012	89 41 38	 mov	 DWORD PTR [ecx+56], eax

; 312  : 	m_dwWeaponMaxMagicPower=dwMaxMagicPower;

  00015	8b 45 14	 mov	 eax, DWORD PTR _dwMaxMagicPower$[ebp]
  00018	89 41 3c	 mov	 DWORD PTR [ecx+60], eax

; 313  : 	m_dwWeaponAddPower=dwAddPower;

  0001b	8b 45 18	 mov	 eax, DWORD PTR _dwAddPower$[ebp]
  0001e	89 41 40	 mov	 DWORD PTR [ecx+64], eax

; 314  : 
; 315  : 	__UpdateBattleStatus();	

  00021	83 c1 fc	 add	 ecx, -4			; fffffffcH
  00024	e8 00 00 00 00	 call	 ?__UpdateBattleStatus@CPythonPlayer@@IAEXXZ ; CPythonPlayer::__UpdateBattleStatus

; 316  : }

  00029	5d		 pop	 ebp
  0002a	c2 14 00	 ret	 20			; 00000014H
?SetWeaponPower@CPythonPlayer@@UAEXKKKKK@Z ENDP		; CPythonPlayer::SetWeaponPower
_TEXT	ENDS
; Function compile flags: /Ogtp
; File D:\_m2work\Server Client TMP4\ClientVS22\source\UserInterface\PythonPlayer.cpp
;	COMDAT ?SetRace@CPythonPlayer@@UAEXK@Z
_TEXT	SEGMENT
_dwRace$ = 8						; size = 4
?SetRace@CPythonPlayer@@UAEXK@Z PROC			; CPythonPlayer::SetRace, COMDAT
; _this$ = ecx

; 319  : {

  00000	55		 push	 ebp
  00001	8b ec		 mov	 ebp, esp

; 320  : 	m_dwRace=dwRace;

  00003	8b 45 08	 mov	 eax, DWORD PTR _dwRace$[ebp]
  00006	89 41 2c	 mov	 DWORD PTR [ecx+44], eax

; 321  : }

  00009	5d		 pop	 ebp
  0000a	c2 04 00	 ret	 4
?SetRace@CPythonPlayer@@UAEXK@Z ENDP			; CPythonPlayer::SetRace
_TEXT	ENDS
; Function compile flags: /Ogtp
; File D:\_m2work\Server Client TMP4\ClientVS22\source\UserInterface\PythonPlayer.cpp
;	COMDAT ?GetRace@CPythonPlayer@@QAEKXZ
_TEXT	SEGMENT
?GetRace@CPythonPlayer@@QAEKXZ PROC			; CPythonPlayer::GetRace, COMDAT
; _this$ = ecx

; 325  : 	return m_dwRace;

  00000	8b 41 30	 mov	 eax, DWORD PTR [ecx+48]

; 326  : }

  00003	c3		 ret	 0
?GetRace@CPythonPlayer@@QAEKXZ ENDP			; CPythonPlayer::GetRace
_TEXT	ENDS
; Function compile flags: /Ogtp
; File D:\_m2work\Server Client TMP4\ClientVS22\source\UserInterface\PythonPlayer.cpp
;	COMDAT ?__GetRaceStat@CPythonPlayer@@IAEKXZ
_TEXT	SEGMENT
?__GetRaceStat@CPythonPlayer@@IAEKXZ PROC		; CPythonPlayer::__GetRaceStat, COMDAT
; _this$ = ecx

; 330  : 	switch (GetRace())

  00000	e8 00 00 00 00	 call	 ?GetRace@CPythonPlayer@@QAEKXZ ; CPythonPlayer::GetRace
  00005	83 f8 07	 cmp	 eax, 7
  00008	77 1f		 ja	 SHORT $LN2@GetRaceSta
  0000a	ff 24 85 00 00
	00 00		 jmp	 DWORD PTR $LN13@GetRaceSta[eax*4]
$LN6@GetRaceSta:

; 331  : 	{
; 332  : 		case MAIN_RACE_WARRIOR_M:
; 333  : 		case MAIN_RACE_WARRIOR_W:
; 334  : 			return GetStatus(POINT_ST);
; 335  : 			break;
; 336  : 		case MAIN_RACE_ASSASSIN_M:
; 337  : 		case MAIN_RACE_ASSASSIN_W:
; 338  : 			return GetStatus(POINT_DX);
; 339  : 			break;
; 340  : 		case MAIN_RACE_SURA_M:
; 341  : 		case MAIN_RACE_SURA_W:
; 342  : 			return GetStatus(POINT_ST);
; 343  : 			break;
; 344  : 		case MAIN_RACE_SHAMAN_M:
; 345  : 		case MAIN_RACE_SHAMAN_W:
; 346  : 			return GetStatus(POINT_IQ);
; 347  : 			break;
; 348  : 	}	
; 349  : 	return GetStatus(POINT_ST);
; 350  : }

  00011	8b 41 04	 mov	 eax, DWORD PTR [ecx+4]
  00014	83 c1 04	 add	 ecx, 4
  00017	6a 0e		 push	 14			; 0000000eH
  00019	ff 50 10	 call	 DWORD PTR [eax+16]
  0001c	c3		 ret	 0
$LN10@GetRaceSta:
  0001d	8b 41 04	 mov	 eax, DWORD PTR [ecx+4]
  00020	83 c1 04	 add	 ecx, 4
  00023	6a 0f		 push	 15			; 0000000fH
  00025	ff 50 10	 call	 DWORD PTR [eax+16]
  00028	c3		 ret	 0
$LN2@GetRaceSta:
  00029	8b 41 04	 mov	 eax, DWORD PTR [ecx+4]
  0002c	83 c1 04	 add	 ecx, 4
  0002f	6a 0c		 push	 12			; 0000000cH
  00031	ff 50 10	 call	 DWORD PTR [eax+16]
  00034	c3		 ret	 0
  00035	0f 1f 00	 npad	 3
$LN13@GetRaceSta:
  00038	00 00 00 00	 DD	 $LN2@GetRaceSta
  0003c	00 00 00 00	 DD	 $LN6@GetRaceSta
  00040	00 00 00 00	 DD	 $LN2@GetRaceSta
  00044	00 00 00 00	 DD	 $LN10@GetRaceSta
  00048	00 00 00 00	 DD	 $LN2@GetRaceSta
  0004c	00 00 00 00	 DD	 $LN6@GetRaceSta
  00050	00 00 00 00	 DD	 $LN2@GetRaceSta
  00054	00 00 00 00	 DD	 $LN10@GetRaceSta
?__GetRaceStat@CPythonPlayer@@IAEKXZ ENDP		; CPythonPlayer::__GetRaceStat
_TEXT	ENDS
; Function compile flags: /Ogtp
; File D:\_m2work\Server Client TMP4\ClientVS22\source\UserInterface\PythonPlayer.cpp
;	COMDAT ?__GetLevelAtk@CPythonPlayer@@IAEKXZ
_TEXT	SEGMENT
?__GetLevelAtk@CPythonPlayer@@IAEKXZ PROC		; CPythonPlayer::__GetLevelAtk, COMDAT
; _this$ = ecx

; 354  : 	return 2*GetStatus(POINT_LEVEL);

  00000	8b 41 04	 mov	 eax, DWORD PTR [ecx+4]
  00003	83 c1 04	 add	 ecx, 4
  00006	6a 01		 push	 1
  00008	ff 50 10	 call	 DWORD PTR [eax+16]
  0000b	03 c0		 add	 eax, eax

; 355  : }

  0000d	c3		 ret	 0
?__GetLevelAtk@CPythonPlayer@@IAEKXZ ENDP		; CPythonPlayer::__GetLevelAtk
_TEXT	ENDS
; Function compile flags: /Ogtp
; File D:\_m2work\Server Client TMP4\ClientVS22\source\UserInterface\PythonPlayer.cpp
;	COMDAT ?__GetStatAtk@CPythonPlayer@@IAEKXZ
_TEXT	SEGMENT
?__GetStatAtk@CPythonPlayer@@IAEKXZ PROC		; CPythonPlayer::__GetStatAtk, COMDAT
; _this$ = ecx

; 358  : {

  00000	56		 push	 esi
  00001	57		 push	 edi
  00002	8b f9		 mov	 edi, ecx

; 359  : 	return (4*GetStatus(POINT_ST)+2*__GetRaceStat())/3;

  00004	8b 47 04	 mov	 eax, DWORD PTR [edi+4]
  00007	8d 4f 04	 lea	 ecx, DWORD PTR [edi+4]
  0000a	6a 0c		 push	 12			; 0000000cH
  0000c	ff 50 10	 call	 DWORD PTR [eax+16]
  0000f	8b cf		 mov	 ecx, edi
  00011	8b f0		 mov	 esi, eax
  00013	e8 00 00 00 00	 call	 ?__GetRaceStat@CPythonPlayer@@IAEKXZ ; CPythonPlayer::__GetRaceStat
  00018	5f		 pop	 edi
  00019	8d 0c 70	 lea	 ecx, DWORD PTR [eax+esi*2]
  0001c	b8 ab aa aa aa	 mov	 eax, -1431655765	; aaaaaaabH
  00021	03 c9		 add	 ecx, ecx
  00023	f7 e1		 mul	 ecx
  00025	5e		 pop	 esi
  00026	d1 ea		 shr	 edx, 1
  00028	8b c2		 mov	 eax, edx

; 360  : }

  0002a	c3		 ret	 0
?__GetStatAtk@CPythonPlayer@@IAEKXZ ENDP		; CPythonPlayer::__GetStatAtk
_TEXT	ENDS
; Function compile flags: /Ogtp
; File D:\_m2work\Server Client TMP4\ClientVS22\source\UserInterface\PythonPlayer.cpp
;	COMDAT ?__GetWeaponAtk@CPythonPlayer@@IAEKK@Z
_TEXT	SEGMENT
_dwWeaponPower$ = 8					; size = 4
?__GetWeaponAtk@CPythonPlayer@@IAEKK@Z PROC		; CPythonPlayer::__GetWeaponAtk, COMDAT
; _this$dead$ = ecx

; 363  : {

  00000	55		 push	 ebp
  00001	8b ec		 mov	 ebp, esp

; 364  : 	return 2*dwWeaponPower;

  00003	8b 45 08	 mov	 eax, DWORD PTR _dwWeaponPower$[ebp]
  00006	03 c0		 add	 eax, eax

; 365  : }

  00008	5d		 pop	 ebp
  00009	c2 04 00	 ret	 4
?__GetWeaponAtk@CPythonPlayer@@IAEKK@Z ENDP		; CPythonPlayer::__GetWeaponAtk
_TEXT	ENDS
; Function compile flags: /Ogtp
; File D:\_m2work\Server Client TMP4\ClientVS22\source\UserInterface\PythonPlayer.cpp
;	COMDAT ?__GetTotalAtk@CPythonPlayer@@IAEKKK@Z
_TEXT	SEGMENT
_dwStAtk$1$ = -4					; size = 4
_dwWeaponPower$ = 8					; size = 4
_dwRefineBonus$ = 12					; size = 4
?__GetTotalAtk@CPythonPlayer@@IAEKKK@Z PROC		; CPythonPlayer::__GetTotalAtk, COMDAT
; _this$ = ecx

; 368  : {

  00000	55		 push	 ebp
  00001	8b ec		 mov	 ebp, esp
  00003	51		 push	 ecx
  00004	53		 push	 ebx
  00005	56		 push	 esi
  00006	57		 push	 edi
  00007	8b f9		 mov	 edi, ecx

; 369  : 	DWORD dwLvAtk=__GetLevelAtk();

  00009	e8 00 00 00 00	 call	 ?__GetLevelAtk@CPythonPlayer@@IAEKXZ ; CPythonPlayer::__GetLevelAtk

; 370  : 	DWORD dwStAtk=__GetStatAtk();

  0000e	8b cf		 mov	 ecx, edi
  00010	8b d8		 mov	 ebx, eax
  00012	e8 00 00 00 00	 call	 ?__GetStatAtk@CPythonPlayer@@IAEKXZ ; CPythonPlayer::__GetStatAtk

; 371  : 
; 372  : 	/////
; 373  : 
; 374  : 	DWORD dwWepAtk;
; 375  : 	DWORD dwTotalAtk;	
; 376  : 
; 377  : 	if (LocaleService_IsCHEONMA())

  00017	8b 75 0c	 mov	 esi, DWORD PTR _dwRefineBonus$[ebp]
  0001a	03 75 08	 add	 esi, DWORD PTR _dwWeaponPower$[ebp]
  0001d	89 45 fc	 mov	 DWORD PTR _dwStAtk$1$[ebp], eax
  00020	e8 00 00 00 00	 call	 ?LocaleService_IsCHEONMA@@YA_NXZ ; LocaleService_IsCHEONMA
  00025	56		 push	 esi
  00026	84 c0		 test	 al, al
  00028	74 33		 je	 SHORT $LN2@GetTotalAt

; 378  : 	{
; 379  : 		dwWepAtk = __GetWeaponAtk(dwWeaponPower+dwRefineBonus);
; 380  : 		dwTotalAtk = dwLvAtk+(dwStAtk+dwWepAtk)*(GetStatus(POINT_DX)+210)/300;		

  0002a	8b 57 04	 mov	 edx, DWORD PTR [edi+4]
  0002d	8d 4f 04	 lea	 ecx, DWORD PTR [edi+4]
  00030	e8 00 00 00 00	 call	 ?__GetWeaponAtk@CPythonPlayer@@IAEKK@Z ; CPythonPlayer::__GetWeaponAtk
  00035	8b f0		 mov	 esi, eax
  00037	03 75 fc	 add	 esi, DWORD PTR _dwStAtk$1$[ebp]
  0003a	6a 0e		 push	 14			; 0000000eH
  0003c	ff 52 10	 call	 DWORD PTR [edx+16]
  0003f	05 d2 00 00 00	 add	 eax, 210		; 000000d2H
  00044	0f af f0	 imul	 esi, eax
  00047	b8 b5 81 4e 1b	 mov	 eax, 458129845		; 1b4e81b5H
  0004c	5f		 pop	 edi

; 387  : 	}
; 388  : 
; 389  : 	return dwTotalAtk;
; 390  : }

  0004d	f7 e6		 mul	 esi
  0004f	5e		 pop	 esi
  00050	c1 ea 05	 shr	 edx, 5
  00053	8d 04 13	 lea	 eax, DWORD PTR [ebx+edx]
  00056	5b		 pop	 ebx
  00057	8b e5		 mov	 esp, ebp
  00059	5d		 pop	 ebp
  0005a	c2 08 00	 ret	 8
$LN2@GetTotalAt:

; 381  : 	}
; 382  : 	else
; 383  : 	{
; 384  : 		int hr = __GetHitRate();
; 385  : 		dwWepAtk = __GetWeaponAtk(dwWeaponPower+dwRefineBonus);

  0005d	e8 00 00 00 00	 call	 ?__GetWeaponAtk@CPythonPlayer@@IAEKK@Z ; CPythonPlayer::__GetWeaponAtk
  00062	8b f0		 mov	 esi, eax
  00064	8b cf		 mov	 ecx, edi

; 386  : 		dwTotalAtk = dwLvAtk+(dwStAtk+dwWepAtk)*hr/100;	

  00066	03 75 fc	 add	 esi, DWORD PTR _dwStAtk$1$[ebp]
  00069	e8 00 00 00 00	 call	 ?__GetHitRate@CPythonPlayer@@IAEKXZ ; CPythonPlayer::__GetHitRate
  0006e	0f af f0	 imul	 esi, eax
  00071	b8 1f 85 eb 51	 mov	 eax, 1374389535		; 51eb851fH
  00076	5f		 pop	 edi

; 387  : 	}
; 388  : 
; 389  : 	return dwTotalAtk;
; 390  : }

  00077	f7 e6		 mul	 esi
  00079	5e		 pop	 esi
  0007a	c1 ea 05	 shr	 edx, 5
  0007d	8d 04 13	 lea	 eax, DWORD PTR [ebx+edx]
  00080	5b		 pop	 ebx
  00081	8b e5		 mov	 esp, ebp
  00083	5d		 pop	 ebp
  00084	c2 08 00	 ret	 8
?__GetTotalAtk@CPythonPlayer@@IAEKKK@Z ENDP		; CPythonPlayer::__GetTotalAtk
_TEXT	ENDS
; Function compile flags: /Ogtp
; File D:\_m2work\Server Client TMP4\ClientVS22\source\UserInterface\PythonPlayer.cpp
;	COMDAT ?__GetHitRate@CPythonPlayer@@IAEKXZ
_TEXT	SEGMENT
?__GetHitRate@CPythonPlayer@@IAEKXZ PROC		; CPythonPlayer::__GetHitRate, COMDAT
; _this$ = ecx

; 393  : {

  00000	53		 push	 ebx
  00001	56		 push	 esi
  00002	57		 push	 edi
  00003	8b d9		 mov	 ebx, ecx

; 394  : 	int src = 0;
; 395  : 
; 396  : 	if (LocaleService_IsCHEONMA())

  00005	e8 00 00 00 00	 call	 ?LocaleService_IsCHEONMA@@YA_NXZ ; LocaleService_IsCHEONMA
  0000a	8b 7b 04	 mov	 edi, DWORD PTR [ebx+4]
  0000d	83 c3 04	 add	 ebx, 4
  00010	8b cb		 mov	 ecx, ebx
  00012	6a 0e		 push	 14			; 0000000eH
  00014	84 c0		 test	 al, al
  00016	74 05		 je	 SHORT $LN2@GetHitRate

; 397  : 	{
; 398  : 		src = GetStatus(POINT_DX);

  00018	ff 57 10	 call	 DWORD PTR [edi+16]

; 399  : 	}

  0001b	eb 20		 jmp	 SHORT $LN3@GetHitRate
$LN2@GetHitRate:

; 400  : 	else
; 401  : 	{
; 402  : 		src = (GetStatus(POINT_DX) * 4 + GetStatus(POINT_LEVEL) * 2)/6;

  0001d	8b 7f 10	 mov	 edi, DWORD PTR [edi+16]
  00020	ff d7		 call	 edi
  00022	6a 01		 push	 1
  00024	8b cb		 mov	 ecx, ebx
  00026	8b f0		 mov	 esi, eax
  00028	ff d7		 call	 edi
  0002a	8d 0c 70	 lea	 ecx, DWORD PTR [eax+esi*2]
  0002d	b8 ab aa aa 2a	 mov	 eax, 715827883		; 2aaaaaabH
  00032	03 c9		 add	 ecx, ecx
  00034	f7 e9		 imul	 ecx
  00036	8b c2		 mov	 eax, edx
  00038	c1 e8 1f	 shr	 eax, 31			; 0000001fH
  0003b	03 c2		 add	 eax, edx
$LN3@GetHitRate:

; 403  : 	}
; 404  : 
; 405  : 	return 100*(min(90, src)+210)/300;

  0003d	b9 5a 00 00 00	 mov	 ecx, 90			; 0000005aH
  00042	3b c1		 cmp	 eax, ecx
  00044	5f		 pop	 edi
  00045	0f 4f c1	 cmovg	 eax, ecx
  00048	05 d2 00 00 00	 add	 eax, 210		; 000000d2H
  0004d	6b c8 64	 imul	 ecx, eax, 100
  00050	b8 b5 81 4e 1b	 mov	 eax, 458129845		; 1b4e81b5H
  00055	5e		 pop	 esi
  00056	5b		 pop	 ebx
  00057	f7 e9		 imul	 ecx
  00059	c1 fa 05	 sar	 edx, 5
  0005c	8b c2		 mov	 eax, edx
  0005e	c1 e8 1f	 shr	 eax, 31			; 0000001fH
  00061	03 c2		 add	 eax, edx

; 406  : }

  00063	c3		 ret	 0
?__GetHitRate@CPythonPlayer@@IAEKXZ ENDP		; CPythonPlayer::__GetHitRate
_TEXT	ENDS
; Function compile flags: /Ogtp
; File D:\_m2work\Server Client TMP4\ClientVS22\source\UserInterface\PythonPlayer.cpp
;	COMDAT ?__GetEvadeRate@CPythonPlayer@@IAEKXZ
_TEXT	SEGMENT
?__GetEvadeRate@CPythonPlayer@@IAEKXZ PROC		; CPythonPlayer::__GetEvadeRate, COMDAT
; _this$ = ecx

; 410  : 	return 30*(2*GetStatus(POINT_DX)+5)/(GetStatus(POINT_DX)+95);

  00000	8b 41 04	 mov	 eax, DWORD PTR [ecx+4]
  00003	53		 push	 ebx
  00004	56		 push	 esi
  00005	57		 push	 edi
  00006	8b 70 10	 mov	 esi, DWORD PTR [eax+16]
  00009	8d 79 04	 lea	 edi, DWORD PTR [ecx+4]
  0000c	6a 0e		 push	 14			; 0000000eH
  0000e	8b cf		 mov	 ecx, edi
  00010	ff d6		 call	 esi
  00012	6a 0e		 push	 14			; 0000000eH
  00014	8b cf		 mov	 ecx, edi
  00016	8b d8		 mov	 ebx, eax
  00018	ff d6		 call	 esi
  0001a	5f		 pop	 edi
  0001b	5e		 pop	 esi
  0001c	8d 48 5f	 lea	 ecx, DWORD PTR [eax+95]
  0001f	8b c3		 mov	 eax, ebx
  00021	c1 e0 04	 shl	 eax, 4
  00024	2b c3		 sub	 eax, ebx
  00026	5b		 pop	 ebx
  00027	8d 04 85 96 00
	00 00		 lea	 eax, DWORD PTR [eax*4+150]
  0002e	99		 cdq
  0002f	f7 f9		 idiv	 ecx

; 411  : } 

  00031	c3		 ret	 0
?__GetEvadeRate@CPythonPlayer@@IAEKXZ ENDP		; CPythonPlayer::__GetEvadeRate
_TEXT	ENDS
; Function compile flags: /Ogtp
; File D:\_m2work\Server Client TMP4\ClientVS22\source\UserInterface\PythonPlayer.cpp
;	COMDAT ?__UpdateBattleStatus@CPythonPlayer@@IAEXXZ
_TEXT	SEGMENT
?__UpdateBattleStatus@CPythonPlayer@@IAEXXZ PROC	; CPythonPlayer::__UpdateBattleStatus, COMDAT
; _this$ = ecx

; 414  : {

  00000	56		 push	 esi
  00001	57		 push	 edi
  00002	8b f1		 mov	 esi, ecx

; 415  : 	m_playerStatus.SetPoint(POINT_NONE, 0);

  00004	6a 00		 push	 0
  00006	6a 00		 push	 0
  00008	8d 4e 70	 lea	 ecx, DWORD PTR [esi+112]
  0000b	e8 00 00 00 00	 call	 ?SetPoint@SPlayerStatus@CPythonPlayer@@QAEXIJ@Z ; CPythonPlayer::SPlayerStatus::SetPoint

; 416  : 	m_playerStatus.SetPoint(POINT_EVADE_RATE, __GetEvadeRate());

  00010	8b ce		 mov	 ecx, esi
  00012	e8 00 00 00 00	 call	 ?__GetEvadeRate@CPythonPlayer@@IAEKXZ ; CPythonPlayer::__GetEvadeRate
  00017	50		 push	 eax
  00018	6a 12		 push	 18			; 00000012H
  0001a	8d 4e 70	 lea	 ecx, DWORD PTR [esi+112]
  0001d	e8 00 00 00 00	 call	 ?SetPoint@SPlayerStatus@CPythonPlayer@@QAEXIJ@Z ; CPythonPlayer::SPlayerStatus::SetPoint

; 417  : 	m_playerStatus.SetPoint(POINT_HIT_RATE, __GetHitRate());

  00022	8b ce		 mov	 ecx, esi
  00024	e8 00 00 00 00	 call	 ?__GetHitRate@CPythonPlayer@@IAEKXZ ; CPythonPlayer::__GetHitRate
  00029	50		 push	 eax
  0002a	68 cc 00 00 00	 push	 204			; 000000ccH
  0002f	8d 4e 70	 lea	 ecx, DWORD PTR [esi+112]
  00032	e8 00 00 00 00	 call	 ?SetPoint@SPlayerStatus@CPythonPlayer@@QAEXIJ@Z ; CPythonPlayer::SPlayerStatus::SetPoint

; 418  : 	m_playerStatus.SetPoint(POINT_MIN_WEP, m_dwWeaponMinPower+m_dwWeaponAddPower);

  00037	8b 46 34	 mov	 eax, DWORD PTR [esi+52]
  0003a	8d 4e 70	 lea	 ecx, DWORD PTR [esi+112]
  0003d	03 46 44	 add	 eax, DWORD PTR [esi+68]
  00040	50		 push	 eax
  00041	68 c8 00 00 00	 push	 200			; 000000c8H
  00046	e8 00 00 00 00	 call	 ?SetPoint@SPlayerStatus@CPythonPlayer@@QAEXIJ@Z ; CPythonPlayer::SPlayerStatus::SetPoint

; 419  : 	m_playerStatus.SetPoint(POINT_MAX_WEP, m_dwWeaponMaxPower+m_dwWeaponAddPower);

  0004b	8b 46 44	 mov	 eax, DWORD PTR [esi+68]
  0004e	8d 4e 70	 lea	 ecx, DWORD PTR [esi+112]
  00051	03 46 38	 add	 eax, DWORD PTR [esi+56]
  00054	50		 push	 eax
  00055	68 c9 00 00 00	 push	 201			; 000000c9H
  0005a	e8 00 00 00 00	 call	 ?SetPoint@SPlayerStatus@CPythonPlayer@@QAEXIJ@Z ; CPythonPlayer::SPlayerStatus::SetPoint

; 420  : 	m_playerStatus.SetPoint(POINT_MIN_MAGIC_WEP, m_dwWeaponMinMagicPower+m_dwWeaponAddPower);

  0005f	8b 46 3c	 mov	 eax, DWORD PTR [esi+60]
  00062	8d 4e 70	 lea	 ecx, DWORD PTR [esi+112]
  00065	03 46 44	 add	 eax, DWORD PTR [esi+68]
  00068	50		 push	 eax
  00069	68 ca 00 00 00	 push	 202			; 000000caH
  0006e	e8 00 00 00 00	 call	 ?SetPoint@SPlayerStatus@CPythonPlayer@@QAEXIJ@Z ; CPythonPlayer::SPlayerStatus::SetPoint

; 421  : 	m_playerStatus.SetPoint(POINT_MAX_MAGIC_WEP, m_dwWeaponMaxMagicPower+m_dwWeaponAddPower);

  00073	8b 46 40	 mov	 eax, DWORD PTR [esi+64]
  00076	8d 4e 70	 lea	 ecx, DWORD PTR [esi+112]
  00079	03 46 44	 add	 eax, DWORD PTR [esi+68]
  0007c	50		 push	 eax
  0007d	68 cb 00 00 00	 push	 203			; 000000cbH
  00082	e8 00 00 00 00	 call	 ?SetPoint@SPlayerStatus@CPythonPlayer@@QAEXIJ@Z ; CPythonPlayer::SPlayerStatus::SetPoint

; 422  : 	m_playerStatus.SetPoint(POINT_MIN_ATK, __GetTotalAtk(m_dwWeaponMinPower, m_dwWeaponAddPower));

  00087	ff 76 44	 push	 DWORD PTR [esi+68]
  0008a	8b ce		 mov	 ecx, esi
  0008c	ff 76 34	 push	 DWORD PTR [esi+52]
  0008f	e8 00 00 00 00	 call	 ?__GetTotalAtk@CPythonPlayer@@IAEKKK@Z ; CPythonPlayer::__GetTotalAtk
  00094	50		 push	 eax
  00095	6a 1d		 push	 29			; 0000001dH
  00097	8d 4e 70	 lea	 ecx, DWORD PTR [esi+112]
  0009a	e8 00 00 00 00	 call	 ?SetPoint@SPlayerStatus@CPythonPlayer@@QAEXIJ@Z ; CPythonPlayer::SPlayerStatus::SetPoint

; 423  : 	m_playerStatus.SetPoint(POINT_MAX_ATK, __GetTotalAtk(m_dwWeaponMaxPower, m_dwWeaponAddPower));	

  0009f	ff 76 44	 push	 DWORD PTR [esi+68]
  000a2	8b ce		 mov	 ecx, esi
  000a4	ff 76 38	 push	 DWORD PTR [esi+56]
  000a7	e8 00 00 00 00	 call	 ?__GetTotalAtk@CPythonPlayer@@IAEKKK@Z ; CPythonPlayer::__GetTotalAtk
  000ac	50		 push	 eax
  000ad	6a 1e		 push	 30			; 0000001eH
  000af	8d 4e 70	 lea	 ecx, DWORD PTR [esi+112]
  000b2	e8 00 00 00 00	 call	 ?SetPoint@SPlayerStatus@CPythonPlayer@@QAEXIJ@Z ; CPythonPlayer::SPlayerStatus::SetPoint
  000b7	5f		 pop	 edi
  000b8	5e		 pop	 esi

; 424  : }

  000b9	c3		 ret	 0
?__UpdateBattleStatus@CPythonPlayer@@IAEXXZ ENDP	; CPythonPlayer::__UpdateBattleStatus
_TEXT	ENDS
; Function compile flags: /Ogtp
; File D:\_m2work\Server Client TMP4\ClientVS22\source\UserInterface\PythonPlayer.cpp
;	COMDAT ?GetStatus@CPythonPlayer@@UAEHK@Z
_TEXT	SEGMENT
_dwType$ = 8						; size = 4
?GetStatus@CPythonPlayer@@UAEHK@Z PROC			; CPythonPlayer::GetStatus, COMDAT
; _this$ = ecx

; 469  : {

  00000	55		 push	 ebp
  00001	8b ec		 mov	 ebp, esp

; 470  : 	if (dwType >= POINT_MAX_NUM)

  00003	8b 45 08	 mov	 eax, DWORD PTR _dwType$[ebp]
  00006	3d ff 00 00 00	 cmp	 eax, 255		; 000000ffH
  0000b	72 13		 jb	 SHORT $LN2@GetStatus

; 471  : 	{
; 472  : 		assert(!" CPythonPlayer::GetStatus - Strange Status Type!");
; 473  : 		Tracef("CPythonPlayer::GetStatus - Get Status Type Error\n");

  0000d	68 00 00 00 00	 push	 OFFSET ??_C@_0DC@LHJHEHHP@CPythonPlayer?3?3GetStatus?5?9?5Get?5@
  00012	e8 00 00 00 00	 call	 ?Tracef@@YAXPBDZZ	; Tracef
  00017	83 c4 04	 add	 esp, 4

; 474  : 		return 0;

  0001a	33 c0		 xor	 eax, eax

; 478  : }

  0001c	5d		 pop	 ebp
  0001d	c2 04 00	 ret	 4
$LN2@GetStatus:

; 475  : 	}
; 476  : 
; 477  : 	return m_playerStatus.GetPoint(dwType);

  00020	89 45 08	 mov	 DWORD PTR _dwType$[ebp], eax
  00023	83 c1 6c	 add	 ecx, 108		; 0000006cH

; 478  : }

  00026	5d		 pop	 ebp

; 475  : 	}
; 476  : 
; 477  : 	return m_playerStatus.GetPoint(dwType);

  00027	e9 00 00 00 00	 jmp	 ?GetPoint@SPlayerStatus@CPythonPlayer@@QAEJI@Z ; CPythonPlayer::SPlayerStatus::GetPoint
?GetStatus@CPythonPlayer@@UAEHK@Z ENDP			; CPythonPlayer::GetStatus
_TEXT	ENDS
; Function compile flags: /Ogtp
; File D:\_m2work\Server Client TMP4\ClientVS22\source\UserInterface\PythonPlayer.cpp
; File C:\Program Files\Microsoft Visual Studio\2022\Community\VC\Tools\MSVC\14.44.35207\include\xstring
; File D:\_m2work\Server Client TMP4\ClientVS22\source\UserInterface\PythonPlayer.cpp
;	COMDAT ?GetName@CPythonPlayer@@UAEPBDXZ
_TEXT	SEGMENT
?GetName@CPythonPlayer@@UAEPBDXZ PROC			; CPythonPlayer::GetName, COMDAT
; _this$ = ecx
; File C:\Program Files\Microsoft Visual Studio\2022\Community\VC\Tools\MSVC\14.44.35207\include\xstring

; 453  :         return _Myres > _Small_string_capacity;

  00000	83 79 24 0f	 cmp	 DWORD PTR [ecx+36], 15	; 0000000fH

; 2356 :         return _Mypair._Myval2._Myptr();

  00004	8d 41 10	 lea	 eax, DWORD PTR [ecx+16]

; 445  :         if (_Large_mode_engaged()) {

  00007	76 02		 jbe	 SHORT $LN7@GetName
; File D:\_m2work\Server Client TMP4\ClientVS22\source\UserInterface\PythonPlayer.cpp

; 482  : 	return m_stName.c_str();

  00009	8b 00		 mov	 eax, DWORD PTR [eax]
$LN7@GetName:

; 483  : }

  0000b	c3		 ret	 0
?GetName@CPythonPlayer@@UAEPBDXZ ENDP			; CPythonPlayer::GetName
_TEXT	ENDS
; Function compile flags: /Ogtp
; File D:\_m2work\Server Client TMP4\ClientVS22\source\UserInterface\PythonPlayer.cpp
;	COMDAT ?NotifyDeletingCharacterInstance@CPythonPlayer@@UAEXK@Z
_TEXT	SEGMENT
_dwVID$ = 8						; size = 4
?NotifyDeletingCharacterInstance@CPythonPlayer@@UAEXK@Z PROC ; CPythonPlayer::NotifyDeletingCharacterInstance, COMDAT
; _this$ = ecx

; 491  : {

  00000	55		 push	 ebp
  00001	8b ec		 mov	 ebp, esp

; 492  : 	if (m_dwMainCharacterIndex == dwVID)

  00003	8b 41 28	 mov	 eax, DWORD PTR [ecx+40]
  00006	3b 45 08	 cmp	 eax, DWORD PTR _dwVID$[ebp]
  00009	75 07		 jne	 SHORT $LN2@NotifyDele

; 493  : 		m_dwMainCharacterIndex = 0;

  0000b	c7 41 28 00 00
	00 00		 mov	 DWORD PTR [ecx+40], 0
$LN2@NotifyDele:

; 494  : }

  00012	5d		 pop	 ebp
  00013	c2 04 00	 ret	 4
?NotifyDeletingCharacterInstance@CPythonPlayer@@UAEXK@Z ENDP ; CPythonPlayer::NotifyDeletingCharacterInstance
_TEXT	ENDS
; Function compile flags: /Ogtp
; File D:\_m2work\Server Client TMP4\ClientVS22\source\UserInterface\PythonPlayer.cpp
;	COMDAT ?NotifyCharacterDead@CPythonPlayer@@UAEXK@Z
_TEXT	SEGMENT
_dwVID$ = 8						; size = 4
?NotifyCharacterDead@CPythonPlayer@@UAEXK@Z PROC	; CPythonPlayer::NotifyCharacterDead, COMDAT
; _this$ = ecx

; 497  : {

  00000	55		 push	 ebp
  00001	8b ec		 mov	 ebp, esp

; 498  : 	if (__IsSameTargetVID(dwVID))

  00003	ff 75 08	 push	 DWORD PTR _dwVID$[ebp]
  00006	8b d1		 mov	 edx, ecx
  00008	8d 4a fc	 lea	 ecx, DWORD PTR [edx-4]
  0000b	e8 00 00 00 00	 call	 ?__IsSameTargetVID@CPythonPlayer@@IAE_NK@Z ; CPythonPlayer::__IsSameTargetVID
  00010	84 c0		 test	 al, al
  00012	74 0b		 je	 SHORT $LN2@NotifyChar

; 499  : 	{
; 500  : 		SetTarget(0);

  00014	8b 02		 mov	 eax, DWORD PTR [edx]
  00016	8b ca		 mov	 ecx, edx
  00018	6a 01		 push	 1
  0001a	6a 00		 push	 0
  0001c	ff 50 60	 call	 DWORD PTR [eax+96]
$LN2@NotifyChar:

; 501  : 	}
; 502  : }

  0001f	5d		 pop	 ebp
  00020	c2 04 00	 ret	 4
?NotifyCharacterDead@CPythonPlayer@@UAEXK@Z ENDP	; CPythonPlayer::NotifyCharacterDead
_TEXT	ENDS
; Function compile flags: /Ogtp
; File D:\_m2work\Server Client TMP4\ClientVS22\source\UserInterface\PythonPlayer.cpp
;	COMDAT ?NotifyCharacterUpdate@CPythonPlayer@@UAEXK@Z
_TEXT	SEGMENT
_dwVID$ = 8						; size = 4
?NotifyCharacterUpdate@CPythonPlayer@@UAEXK@Z PROC	; CPythonPlayer::NotifyCharacterUpdate, COMDAT
; _this$ = ecx

; 505  : {

  00000	55		 push	 ebp
  00001	8b ec		 mov	 ebp, esp
  00003	53		 push	 ebx

; 506  : 	if (__IsSameTargetVID(dwVID))

  00004	8b 5d 08	 mov	 ebx, DWORD PTR _dwVID$[ebp]
  00007	57		 push	 edi
  00008	8b f9		 mov	 edi, ecx
  0000a	53		 push	 ebx
  0000b	8d 4f fc	 lea	 ecx, DWORD PTR [edi-4]
  0000e	e8 00 00 00 00	 call	 ?__IsSameTargetVID@CPythonPlayer@@IAE_NK@Z ; CPythonPlayer::__IsSameTargetVID
  00013	84 c0		 test	 al, al
  00015	74 79		 je	 SHORT $LN5@NotifyChar

; 507  : 	{
; 508  : 		CInstanceBase * pMainInstance = NEW_GetMainActorPtr();

  00017	8b 07		 mov	 eax, DWORD PTR [edi]
  00019	8b cf		 mov	 ecx, edi
  0001b	56		 push	 esi
  0001c	ff 90 88 00 00
	00		 call	 DWORD PTR [eax+136]

; 509  : 		CInstanceBase * pTargetInstance = CPythonCharacterManager::Instance().GetInstancePtr(dwVID);

  00022	8b 0d 00 00 00
	00		 mov	 ecx, DWORD PTR ?ms_singleton@?$CSingleton@VCPythonCharacterManager@@@@0PAVCPythonCharacterManager@@A ; CSingleton<CPythonCharacterManager>::ms_singleton
  00028	8b f0		 mov	 esi, eax
  0002a	83 c1 04	 add	 ecx, 4
  0002d	53		 push	 ebx
  0002e	8b 11		 mov	 edx, DWORD PTR [ecx]
  00030	ff 52 08	 call	 DWORD PTR [edx+8]

; 510  : 		if (pMainInstance && pTargetInstance)

  00033	85 f6		 test	 esi, esi
  00035	5e		 pop	 esi
  00036	74 58		 je	 SHORT $LN5@NotifyChar
  00038	85 c0		 test	 eax, eax
  0003a	74 54		 je	 SHORT $LN5@NotifyChar

; 511  : 		{
; 512  : 			if (!pMainInstance->IsTargetableInstance(*pTargetInstance))

  0003c	50		 push	 eax
  0003d	e8 00 00 00 00	 call	 ?IsTargetableInstance@CInstanceBase@@QAE_NAAV1@@Z ; CInstanceBase::IsTargetableInstance
  00042	84 c0		 test	 al, al
  00044	75 2d		 jne	 SHORT $LN4@NotifyChar

; 513  : 			{
; 514  : 				SetTarget(0);

  00046	8b 07		 mov	 eax, DWORD PTR [edi]
  00048	8b cf		 mov	 ecx, edi
  0004a	6a 01		 push	 1
  0004c	6a 00		 push	 0
  0004e	ff 50 60	 call	 DWORD PTR [eax+96]

; 515  : 				PyCallClassMemberFunc(m_ppyGameWindow, "CloseTargetBoard", Py_BuildValue("()"));

  00051	68 00 00 00 00	 push	 OFFSET ??_C@_02HCKGKOFO@?$CI?$CJ@
  00056	ff 15 00 00 00
	00		 call	 DWORD PTR __imp__Py_BuildValue
  0005c	50		 push	 eax
  0005d	68 00 00 00 00	 push	 OFFSET ??_C@_0BB@FNPCBFHE@CloseTargetBoard@
  00062	ff 77 04	 push	 DWORD PTR [edi+4]
  00065	e8 00 00 00 00	 call	 ?PyCallClassMemberFunc@@YA_NPAU_object@@PBD0@Z ; PyCallClassMemberFunc
  0006a	83 c4 10	 add	 esp, 16			; 00000010H
  0006d	5f		 pop	 edi

; 520  : 			}
; 521  : 		}
; 522  : 	}
; 523  : }

  0006e	5b		 pop	 ebx
  0006f	5d		 pop	 ebp
  00070	c2 04 00	 ret	 4
$LN4@NotifyChar:

; 516  : 			}
; 517  : 			else
; 518  : 			{
; 519  : 				PyCallClassMemberFunc(m_ppyGameWindow, "RefreshTargetBoardByVID", Py_BuildValue("(i)", dwVID));

  00073	53		 push	 ebx
  00074	68 00 00 00 00	 push	 OFFSET ??_C@_03LIHNMIHG@?$CIi?$CJ@
  00079	ff 15 00 00 00
	00		 call	 DWORD PTR __imp__Py_BuildValue
  0007f	50		 push	 eax
  00080	68 00 00 00 00	 push	 OFFSET ??_C@_0BI@IJENFIMO@RefreshTargetBoardByVID@
  00085	ff 77 04	 push	 DWORD PTR [edi+4]
  00088	e8 00 00 00 00	 call	 ?PyCallClassMemberFunc@@YA_NPAU_object@@PBD0@Z ; PyCallClassMemberFunc
  0008d	83 c4 14	 add	 esp, 20			; 00000014H
$LN5@NotifyChar:

; 520  : 			}
; 521  : 		}
; 522  : 	}
; 523  : }

  00090	5f		 pop	 edi
  00091	5b		 pop	 ebx
  00092	5d		 pop	 ebp
  00093	c2 04 00	 ret	 4
?NotifyCharacterUpdate@CPythonPlayer@@UAEXK@Z ENDP	; CPythonPlayer::NotifyCharacterUpdate
_TEXT	ENDS
; Function compile flags: /Ogtp
; File D:\_m2work\Server Client TMP4\ClientVS22\source\UserInterface\PythonPlayer.cpp
;	COMDAT ?NotifyChangePKMode@CPythonPlayer@@UAEXXZ
_TEXT	SEGMENT
?NotifyChangePKMode@CPythonPlayer@@UAEXXZ PROC		; CPythonPlayer::NotifyChangePKMode, COMDAT
; _this$ = ecx

; 531  : {

  00000	56		 push	 esi

; 532  : 	PyCallClassMemberFunc(m_ppyGameWindow, "OnChangePKMode", Py_BuildValue("()"));

  00001	68 00 00 00 00	 push	 OFFSET ??_C@_02HCKGKOFO@?$CI?$CJ@
  00006	8b f1		 mov	 esi, ecx
  00008	ff 15 00 00 00
	00		 call	 DWORD PTR __imp__Py_BuildValue
  0000e	50		 push	 eax
  0000f	68 00 00 00 00	 push	 OFFSET ??_C@_0P@PDEFNCOA@OnChangePKMode@
  00014	ff 76 04	 push	 DWORD PTR [esi+4]
  00017	e8 00 00 00 00	 call	 ?PyCallClassMemberFunc@@YA_NPAU_object@@PBD0@Z ; PyCallClassMemberFunc
  0001c	83 c4 10	 add	 esp, 16			; 00000010H
  0001f	5e		 pop	 esi

; 533  : }

  00020	c3		 ret	 0
?NotifyChangePKMode@CPythonPlayer@@UAEXXZ ENDP		; CPythonPlayer::NotifyChangePKMode
_TEXT	ENDS
; Function compile flags: /Ogtp
; File D:\_m2work\Server Client TMP4\ClientVS22\source\UserInterface\PythonPlayer.cpp
; File D:\_m2work\Server Client TMP4\ClientVS22\source\UserInterface\GameType.h
; File D:\_m2work\Server Client TMP4\ClientVS22\source\UserInterface\PythonPlayer.cpp
; File D:\_m2work\Server Client TMP4\ClientVS22\source\UserInterface\GameType.h
; File D:\_m2work\Server Client TMP4\ClientVS22\source\UserInterface\PythonPlayer.cpp
; File D:\_m2work\Server Client TMP4\ClientVS22\source\UserInterface\GameType.h
; File D:\_m2work\Server Client TMP4\ClientVS22\source\UserInterface\PythonPlayer.cpp
;	COMDAT ?MoveItemData@CPythonPlayer@@QAEXUSItemPos@@0@Z
_TEXT	SEGMENT
_dst_item$ = -100					; size = 46
_src_item$ = -52					; size = 46
__$ArrayPad$ = -4					; size = 4
_SrcCell$ = 8						; size = 3
_DstCell$ = 12						; size = 3
?MoveItemData@CPythonPlayer@@QAEXUSItemPos@@0@Z PROC	; CPythonPlayer::MoveItemData, COMDAT
; _this$ = ecx

; 537  : {

  00000	55		 push	 ebp
  00001	8b ec		 mov	 ebp, esp
  00003	83 ec 64	 sub	 esp, 100		; 00000064H
  00006	a1 00 00 00 00	 mov	 eax, DWORD PTR ___security_cookie
  0000b	33 c5		 xor	 eax, ebp
  0000d	89 45 fc	 mov	 DWORD PTR __$ArrayPad$[ebp], eax
; File D:\_m2work\Server Client TMP4\ClientVS22\source\UserInterface\GameType.h

; 206  : 		switch (window_type)

  00010	66 8b 55 08	 mov	 dx, WORD PTR _SrcCell$[ebp]
; File D:\_m2work\Server Client TMP4\ClientVS22\source\UserInterface\PythonPlayer.cpp

; 537  : {

  00014	53		 push	 ebx
  00015	56		 push	 esi
  00016	57		 push	 edi
  00017	8b f9		 mov	 edi, ecx
; File D:\_m2work\Server Client TMP4\ClientVS22\source\UserInterface\GameType.h

; 206  : 		switch (window_type)

  00019	0f b6 c2	 movzx	 eax, dl
  0001c	b9 a8 00 00 00	 mov	 ecx, 168		; 000000a8H
  00021	bb c0 03 00 00	 mov	 ebx, 960		; 000003c0H
  00026	8d 71 de	 lea	 esi, DWORD PTR [ecx-34]
  00029	83 e8 01	 sub	 eax, 1
  0002c	74 1a		 je	 SHORT $LN8@MoveItemDa
  0002e	83 e8 01	 sub	 eax, 1
  00031	74 0f		 je	 SHORT $LN9@MoveItemDa
  00033	83 e8 03	 sub	 eax, 3
  00036	0f 85 00 01 00
	00		 jne	 $LN3@MoveItemDa

; 213  : 			break;
; 214  : 		case DRAGON_SOUL_INVENTORY:
; 215  : 			return cell < (DS_INVENTORY_MAX_NUM);

  0003c	66 39 5d 09	 cmp	 WORD PTR _SrcCell$[ebp+1], bx
  00040	eb 0a		 jmp	 SHORT $LN29@MoveItemDa
$LN9@MoveItemDa:

; 210  : 			break;
; 211  : 		case EQUIPMENT:
; 212  : 			return cell < c_DragonSoul_Equip_End;

  00042	66 39 75 09	 cmp	 WORD PTR _SrcCell$[ebp+1], si
  00046	eb 04		 jmp	 SHORT $LN29@MoveItemDa
$LN8@MoveItemDa:

; 207  : 		{
; 208  : 		case INVENTORY:
; 209  : 			return cell < c_Inventory_Count;

  00048	66 39 4d 09	 cmp	 WORD PTR _SrcCell$[ebp+1], cx
$LN29@MoveItemDa:
; File D:\_m2work\Server Client TMP4\ClientVS22\source\UserInterface\PythonPlayer.cpp

; 538  : 	if (!SrcCell.IsValidCell() || !DstCell.IsValidCell())

  0004c	0f 92 c0	 setb	 al
  0004f	84 c0		 test	 al, al
  00051	0f 84 e5 00 00
	00		 je	 $LN3@MoveItemDa
; File D:\_m2work\Server Client TMP4\ClientVS22\source\UserInterface\GameType.h

; 206  : 		switch (window_type)

  00057	66 8b 5d 0c	 mov	 bx, WORD PTR _DstCell$[ebp]
  0005b	0f b6 c3	 movzx	 eax, bl
  0005e	83 e8 01	 sub	 eax, 1
  00061	74 1f		 je	 SHORT $LN16@MoveItemDa
  00063	83 e8 01	 sub	 eax, 1
  00066	74 14		 je	 SHORT $LN17@MoveItemDa
  00068	83 e8 03	 sub	 eax, 3
  0006b	0f 85 cb 00 00
	00		 jne	 $LN3@MoveItemDa

; 213  : 			break;
; 214  : 		case DRAGON_SOUL_INVENTORY:
; 215  : 			return cell < (DS_INVENTORY_MAX_NUM);

  00071	b8 c0 03 00 00	 mov	 eax, 960		; 000003c0H
  00076	66 39 45 0d	 cmp	 WORD PTR _DstCell$[ebp+1], ax
  0007a	eb 0a		 jmp	 SHORT $LN30@MoveItemDa
$LN17@MoveItemDa:

; 210  : 			break;
; 211  : 		case EQUIPMENT:
; 212  : 			return cell < c_DragonSoul_Equip_End;

  0007c	66 39 75 0d	 cmp	 WORD PTR _DstCell$[ebp+1], si
  00080	eb 04		 jmp	 SHORT $LN30@MoveItemDa
$LN16@MoveItemDa:

; 207  : 		{
; 208  : 		case INVENTORY:
; 209  : 			return cell < c_Inventory_Count;

  00082	66 39 4d 0d	 cmp	 WORD PTR _DstCell$[ebp+1], cx
$LN30@MoveItemDa:
; File D:\_m2work\Server Client TMP4\ClientVS22\source\UserInterface\PythonPlayer.cpp

; 538  : 	if (!SrcCell.IsValidCell() || !DstCell.IsValidCell())

  00086	0f 92 c0	 setb	 al
  00089	84 c0		 test	 al, al
  0008b	0f 84 ab 00 00
	00		 je	 $LN3@MoveItemDa

; 539  : 		return;
; 540  : 
; 541  : 	TItemData src_item(*GetItemData(SrcCell));

  00091	8a 45 0a	 mov	 al, BYTE PTR _SrcCell$[ebp+2]
  00094	51		 push	 ecx
  00095	8b cc		 mov	 ecx, esp
  00097	66 89 11	 mov	 WORD PTR [ecx], dx
  0009a	88 41 02	 mov	 BYTE PTR [ecx+2], al
  0009d	8b cf		 mov	 ecx, edi
  0009f	e8 00 00 00 00	 call	 ?GetItemData@CPythonPlayer@@QBEPBUpacket_item@@USItemPos@@@Z ; CPythonPlayer::GetItemData
  000a4	0f 10 00	 movups	 xmm0, XMMWORD PTR [eax]
  000a7	0f 11 45 cc	 movups	 XMMWORD PTR _src_item$[ebp], xmm0
  000ab	0f 10 40 10	 movups	 xmm0, XMMWORD PTR [eax+16]
  000af	0f 11 45 dc	 movups	 XMMWORD PTR _src_item$[ebp+16], xmm0
  000b3	f3 0f 7e 40 20	 movq	 xmm0, QWORD PTR [eax+32]
  000b8	66 0f d6 45 ec	 movq	 QWORD PTR _src_item$[ebp+32], xmm0
  000bd	8b 48 28	 mov	 ecx, DWORD PTR [eax+40]
  000c0	89 4d f4	 mov	 DWORD PTR _src_item$[ebp+40], ecx
  000c3	0f b7 40 2c	 movzx	 eax, WORD PTR [eax+44]

; 542  : 	TItemData dst_item(*GetItemData(DstCell));

  000c7	51		 push	 ecx
  000c8	66 89 45 f8	 mov	 WORD PTR _src_item$[ebp+44], ax
  000cc	8b cf		 mov	 ecx, edi
  000ce	8b c4		 mov	 eax, esp
  000d0	66 89 18	 mov	 WORD PTR [eax], bx
  000d3	8a 5d 0e	 mov	 bl, BYTE PTR _DstCell$[ebp+2]
  000d6	88 58 02	 mov	 BYTE PTR [eax+2], bl
  000d9	e8 00 00 00 00	 call	 ?GetItemData@CPythonPlayer@@QBEPBUpacket_item@@USItemPos@@@Z ; CPythonPlayer::GetItemData

; 543  : 	SetItemData(DstCell, src_item);

  000de	8b 57 04	 mov	 edx, DWORD PTR [edi+4]
  000e1	0f 10 00	 movups	 xmm0, XMMWORD PTR [eax]
  000e4	0f 11 45 9c	 movups	 XMMWORD PTR _dst_item$[ebp], xmm0
  000e8	0f 10 40 10	 movups	 xmm0, XMMWORD PTR [eax+16]
  000ec	0f 11 45 ac	 movups	 XMMWORD PTR _dst_item$[ebp+16], xmm0
  000f0	f3 0f 7e 40 20	 movq	 xmm0, QWORD PTR [eax+32]
  000f5	66 0f d6 45 bc	 movq	 QWORD PTR _dst_item$[ebp+32], xmm0
  000fa	8b 48 28	 mov	 ecx, DWORD PTR [eax+40]
  000fd	89 4d c4	 mov	 DWORD PTR _dst_item$[ebp+40], ecx
  00100	0f b7 40 2c	 movzx	 eax, WORD PTR [eax+44]
  00104	66 89 45 c8	 mov	 WORD PTR _dst_item$[ebp+44], ax
  00108	8d 45 cc	 lea	 eax, DWORD PTR _src_item$[ebp]
  0010b	50		 push	 eax
  0010c	51		 push	 ecx
  0010d	66 8b 4d 0c	 mov	 cx, WORD PTR _DstCell$[ebp]
  00111	8b c4		 mov	 eax, esp
  00113	66 89 08	 mov	 WORD PTR [eax], cx
  00116	8d 4f 04	 lea	 ecx, DWORD PTR [edi+4]
  00119	88 58 02	 mov	 BYTE PTR [eax+2], bl
  0011c	ff 52 30	 call	 DWORD PTR [edx+48]

; 544  : 	SetItemData(SrcCell, dst_item);

  0011f	8b 77 04	 mov	 esi, DWORD PTR [edi+4]
  00122	8d 45 9c	 lea	 eax, DWORD PTR _dst_item$[ebp]
  00125	50		 push	 eax
  00126	66 8b 45 08	 mov	 ax, WORD PTR _SrcCell$[ebp]
  0012a	51		 push	 ecx
  0012b	8b d4		 mov	 edx, esp
  0012d	8d 4f 04	 lea	 ecx, DWORD PTR [edi+4]
  00130	66 89 02	 mov	 WORD PTR [edx], ax
  00133	8a 45 0a	 mov	 al, BYTE PTR _SrcCell$[ebp+2]
  00136	88 42 02	 mov	 BYTE PTR [edx+2], al
  00139	ff 56 30	 call	 DWORD PTR [esi+48]
$LN3@MoveItemDa:

; 545  : }

  0013c	8b 4d fc	 mov	 ecx, DWORD PTR __$ArrayPad$[ebp]
  0013f	5f		 pop	 edi
  00140	5e		 pop	 esi
  00141	33 cd		 xor	 ecx, ebp
  00143	5b		 pop	 ebx
  00144	e8 00 00 00 00	 call	 @__security_check_cookie@4
  00149	8b e5		 mov	 esp, ebp
  0014b	5d		 pop	 ebp
  0014c	c2 08 00	 ret	 8
?MoveItemData@CPythonPlayer@@QAEXUSItemPos@@0@Z ENDP	; CPythonPlayer::MoveItemData
_TEXT	ENDS
; Function compile flags: /Ogtp
; File D:\_m2work\Server Client TMP4\ClientVS22\source\UserInterface\PythonPlayer.cpp
; File D:\_m2work\Server Client TMP4\ClientVS22\source\UserInterface\GameType.h
; File D:\_m2work\Server Client TMP4\ClientVS22\source\UserInterface\PythonPlayer.cpp
; File D:\_m2work\Server Client TMP4\ClientVS22\source\UserInterface\GameType.h
; File D:\_m2work\Server Client TMP4\ClientVS22\source\UserInterface\PythonPlayer.cpp
;	COMDAT ?GetItemData@CPythonPlayer@@QBEPBUpacket_item@@USItemPos@@@Z
_TEXT	SEGMENT
_Cell$ = 8						; size = 3
?GetItemData@CPythonPlayer@@QBEPBUpacket_item@@USItemPos@@@Z PROC ; CPythonPlayer::GetItemData, COMDAT
; _this$ = ecx

; 548  : {

  00000	55		 push	 ebp
  00001	8b ec		 mov	 ebp, esp
; File D:\_m2work\Server Client TMP4\ClientVS22\source\UserInterface\GameType.h

; 206  : 		switch (window_type)

  00003	0f b6 45 08	 movzx	 eax, BYTE PTR _Cell$[ebp]
  00007	8b d0		 mov	 edx, eax
; File D:\_m2work\Server Client TMP4\ClientVS22\source\UserInterface\PythonPlayer.cpp

; 548  : {

  00009	56		 push	 esi
  0000a	8b f1		 mov	 esi, ecx
; File D:\_m2work\Server Client TMP4\ClientVS22\source\UserInterface\GameType.h

; 206  : 		switch (window_type)

  0000c	83 ea 01	 sub	 edx, 1
  0000f	74 18		 je	 SHORT $LN13@GetItemDat
  00011	83 ea 01	 sub	 edx, 1
  00014	74 0c		 je	 SHORT $LN14@GetItemDat
  00016	83 ea 03	 sub	 edx, 3
  00019	75 21		 jne	 SHORT $LN18@GetItemDat

; 213  : 			break;
; 214  : 		case DRAGON_SOUL_INVENTORY:
; 215  : 			return cell < (DS_INVENTORY_MAX_NUM);

  0001b	ba c0 03 00 00	 mov	 edx, 960		; 000003c0H
  00020	eb 0c		 jmp	 SHORT $LN25@GetItemDat
$LN14@GetItemDat:

; 210  : 			break;
; 211  : 		case EQUIPMENT:
; 212  : 			return cell < c_DragonSoul_Equip_End;

  00022	ba 86 00 00 00	 mov	 edx, 134		; 00000086H
  00027	eb 05		 jmp	 SHORT $LN25@GetItemDat
$LN13@GetItemDat:

; 207  : 		{
; 208  : 		case INVENTORY:
; 209  : 			return cell < c_Inventory_Count;

  00029	ba a8 00 00 00	 mov	 edx, 168		; 000000a8H
$LN25@GetItemDat:
; File D:\_m2work\Server Client TMP4\ClientVS22\source\UserInterface\PythonPlayer.cpp

; 549  : 	if (!Cell.IsValidCell())

  0002e	66 8b 4d 09	 mov	 cx, WORD PTR _Cell$[ebp+1]
  00032	66 3b ca	 cmp	 cx, dx
  00035	0f 92 c2	 setb	 dl
  00038	84 d2		 test	 dl, dl
  0003a	75 07		 jne	 SHORT $LN4@GetItemDat
$LN18@GetItemDat:

; 559  : 	default:
; 560  : 		return NULL;
; 561  : 	}
; 562  : }

  0003c	33 c0		 xor	 eax, eax
  0003e	5e		 pop	 esi
  0003f	5d		 pop	 ebp
  00040	c2 04 00	 ret	 4
$LN4@GetItemDat:

; 550  : 		return NULL;
; 551  : 
; 552  : 	switch (Cell.window_type)

  00043	83 e8 01	 sub	 eax, 1
  00046	74 1c		 je	 SHORT $LN5@GetItemDat
  00048	83 e8 01	 sub	 eax, 1
  0004b	74 17		 je	 SHORT $LN5@GetItemDat
  0004d	83 e8 03	 sub	 eax, 3
  00050	75 ea		 jne	 SHORT $LN18@GetItemDat

; 557  : 	case DRAGON_SOUL_INVENTORY:
; 558  : 		return &m_playerStatus.aDSItem[Cell.cell];

  00052	0f b7 c1	 movzx	 eax, cx
  00055	6b c0 2e	 imul	 eax, eax, 46
  00058	05 a0 1e 00 00	 add	 eax, 7840		; 00001ea0H

; 559  : 	default:
; 560  : 		return NULL;
; 561  : 	}
; 562  : }

  0005d	03 c6		 add	 eax, esi
  0005f	5e		 pop	 esi
  00060	5d		 pop	 ebp
  00061	c2 04 00	 ret	 4
$LN5@GetItemDat:

; 553  : 	{
; 554  : 	case INVENTORY:
; 555  : 	case EQUIPMENT:
; 556  : 		return &m_playerStatus.aItem[Cell.cell];

  00064	0f b7 c1	 movzx	 eax, cx
  00067	6b c0 2e	 imul	 eax, eax, 46
  0006a	83 c0 70	 add	 eax, 112		; 00000070H

; 559  : 	default:
; 560  : 		return NULL;
; 561  : 	}
; 562  : }

  0006d	03 c6		 add	 eax, esi
  0006f	5e		 pop	 esi
  00070	5d		 pop	 ebp
  00071	c2 04 00	 ret	 4
?GetItemData@CPythonPlayer@@QBEPBUpacket_item@@USItemPos@@@Z ENDP ; CPythonPlayer::GetItemData
_TEXT	ENDS
; Function compile flags: /Ogtp
; File D:\_m2work\Server Client TMP4\ClientVS22\source\UserInterface\PythonPlayer.cpp
; File D:\_m2work\Server Client TMP4\ClientVS22\source\UserInterface\GameType.h
; File D:\_m2work\Server Client TMP4\ClientVS22\source\UserInterface\PythonPlayer.cpp
; File D:\_m2work\Server Client TMP4\ClientVS22\source\UserInterface\GameType.h
; File D:\_m2work\Server Client TMP4\ClientVS22\source\UserInterface\PythonPlayer.cpp
;	COMDAT ?SetItemData@CPythonPlayer@@UAEXUSItemPos@@ABUpacket_item@@@Z
_TEXT	SEGMENT
_Cell$ = 8						; size = 3
_c_rkItemInst$ = 12					; size = 4
_pItemData$1 = 12					; size = 4
?SetItemData@CPythonPlayer@@UAEXUSItemPos@@ABUpacket_item@@@Z PROC ; CPythonPlayer::SetItemData, COMDAT
; _this$ = ecx

; 565  : {

  00000	55		 push	 ebp
  00001	8b ec		 mov	 ebp, esp
; File D:\_m2work\Server Client TMP4\ClientVS22\source\UserInterface\GameType.h

; 206  : 		switch (window_type)

  00003	8a 55 08	 mov	 dl, BYTE PTR _Cell$[ebp]
  00006	0f b6 c2	 movzx	 eax, dl
; File D:\_m2work\Server Client TMP4\ClientVS22\source\UserInterface\PythonPlayer.cpp

; 565  : {

  00009	57		 push	 edi
  0000a	8b f9		 mov	 edi, ecx
; File D:\_m2work\Server Client TMP4\ClientVS22\source\UserInterface\GameType.h

; 206  : 		switch (window_type)

  0000c	83 e8 01	 sub	 eax, 1
  0000f	74 1c		 je	 SHORT $LN14@SetItemDat
  00011	83 e8 01	 sub	 eax, 1
  00014	74 10		 je	 SHORT $LN15@SetItemDat
  00016	83 e8 03	 sub	 eax, 3
  00019	0f 85 f8 00 00
	00		 jne	 $LN2@SetItemDat

; 213  : 			break;
; 214  : 		case DRAGON_SOUL_INVENTORY:
; 215  : 			return cell < (DS_INVENTORY_MAX_NUM);

  0001f	b8 c0 03 00 00	 mov	 eax, 960		; 000003c0H
  00024	eb 0c		 jmp	 SHORT $LN30@SetItemDat
$LN15@SetItemDat:

; 210  : 			break;
; 211  : 		case EQUIPMENT:
; 212  : 			return cell < c_DragonSoul_Equip_End;

  00026	b8 86 00 00 00	 mov	 eax, 134		; 00000086H
  0002b	eb 05		 jmp	 SHORT $LN30@SetItemDat
$LN14@SetItemDat:

; 207  : 		{
; 208  : 		case INVENTORY:
; 209  : 			return cell < c_Inventory_Count;

  0002d	b8 a8 00 00 00	 mov	 eax, 168		; 000000a8H
$LN30@SetItemDat:
; File D:\_m2work\Server Client TMP4\ClientVS22\source\UserInterface\PythonPlayer.cpp

; 566  : 	if (!Cell.IsValidCell())

  00032	66 8b 4d 09	 mov	 cx, WORD PTR _Cell$[ebp+1]
  00036	66 3b c8	 cmp	 cx, ax
  00039	0f 92 c0	 setb	 al
  0003c	84 c0		 test	 al, al
  0003e	0f 84 d3 00 00
	00		 je	 $LN2@SetItemDat

; 567  : 		return;
; 568  : 
; 569  : 	if (c_rkItemInst.vnum != 0)

  00044	56		 push	 esi
  00045	8b 75 0c	 mov	 esi, DWORD PTR _c_rkItemInst$[ebp]
  00048	8b 06		 mov	 eax, DWORD PTR [esi]
  0004a	85 c0		 test	 eax, eax
  0004c	74 3a		 je	 SHORT $LN6@SetItemDat

; 570  : 	{
; 571  : 		CItemData * pItemData;
; 572  : 		if (!CItemManager::Instance().GetItemDataPointer(c_rkItemInst.vnum, &pItemData))

  0004e	8d 4d 0c	 lea	 ecx, DWORD PTR _pItemData$1[ebp]
  00051	51		 push	 ecx
  00052	8b 0d 00 00 00
	00		 mov	 ecx, DWORD PTR ?ms_singleton@?$CSingleton@VCItemManager@@@@0PAVCItemManager@@A ; CSingleton<CItemManager>::ms_singleton
  00058	50		 push	 eax
  00059	e8 00 00 00 00	 call	 ?GetItemDataPointer@CItemManager@@QAEHKPAPAVCItemData@@@Z ; CItemManager::GetItemDataPointer
  0005e	85 c0		 test	 eax, eax
  00060	75 1f		 jne	 SHORT $LN19@SetItemDat

; 573  : 		{
; 574  : 			TraceError("CPythonPlayer::SetItemData(window_type : %d, dwSlotIndex=%d, itemIndex=%d) - Failed to item data\n", Cell.window_type, Cell.cell, c_rkItemInst.vnum);

  00062	ff 36		 push	 DWORD PTR [esi]
  00064	0f b7 45 09	 movzx	 eax, WORD PTR _Cell$[ebp+1]
  00068	50		 push	 eax
  00069	0f b6 45 08	 movzx	 eax, BYTE PTR _Cell$[ebp]
  0006d	50		 push	 eax
  0006e	68 00 00 00 00	 push	 OFFSET ??_C@_0GC@FMCMFPCN@CPythonPlayer?3?3SetItemData?$CIwind@
  00073	e8 00 00 00 00	 call	 ?TraceError@@YAXPBDZZ	; TraceError
  00078	83 c4 10	 add	 esp, 16			; 00000010H
  0007b	5e		 pop	 esi
  0007c	5f		 pop	 edi

; 587  : 		break;
; 588  : 	}
; 589  : }

  0007d	5d		 pop	 ebp
  0007e	c2 08 00	 ret	 8
$LN19@SetItemDat:

; 570  : 	{
; 571  : 		CItemData * pItemData;
; 572  : 		if (!CItemManager::Instance().GetItemDataPointer(c_rkItemInst.vnum, &pItemData))

  00081	66 8b 4d 09	 mov	 cx, WORD PTR _Cell$[ebp+1]
  00085	8a 55 08	 mov	 dl, BYTE PTR _Cell$[ebp]
$LN6@SetItemDat:

; 575  : 			return;
; 576  : 		}
; 577  : 	}
; 578  : 
; 579  : 	switch (Cell.window_type)

  00088	0f b6 c2	 movzx	 eax, dl
  0008b	83 e8 01	 sub	 eax, 1
  0008e	74 4e		 je	 SHORT $LN7@SetItemDat
  00090	83 e8 01	 sub	 eax, 1
  00093	74 49		 je	 SHORT $LN7@SetItemDat
  00095	83 e8 03	 sub	 eax, 3
  00098	75 7c		 jne	 SHORT $LN29@SetItemDat

; 584  : 		break;
; 585  : 	case DRAGON_SOUL_INVENTORY:
; 586  : 		m_playerStatus.aDSItem[Cell.cell] = c_rkItemInst;

  0009a	0f 10 06	 movups	 xmm0, XMMWORD PTR [esi]
  0009d	0f b7 c1	 movzx	 eax, cx
  000a0	6b c8 2e	 imul	 ecx, eax, 46
  000a3	03 cf		 add	 ecx, edi
  000a5	0f 11 81 9c 1e
	00 00		 movups	 XMMWORD PTR [ecx+7836], xmm0
  000ac	0f 10 46 10	 movups	 xmm0, XMMWORD PTR [esi+16]
  000b0	0f 11 81 ac 1e
	00 00		 movups	 XMMWORD PTR [ecx+7852], xmm0
  000b7	f3 0f 7e 46 20	 movq	 xmm0, QWORD PTR [esi+32]
  000bc	66 0f d6 81 bc
	1e 00 00	 movq	 QWORD PTR [ecx+7868], xmm0
  000c4	8b 46 28	 mov	 eax, DWORD PTR [esi+40]
  000c7	89 81 c4 1e 00
	00		 mov	 DWORD PTR [ecx+7876], eax
  000cd	66 8b 46 2c	 mov	 ax, WORD PTR [esi+44]
  000d1	5e		 pop	 esi
  000d2	66 89 81 c8 1e
	00 00		 mov	 WORD PTR [ecx+7880], ax
  000d9	5f		 pop	 edi

; 587  : 		break;
; 588  : 	}
; 589  : }

  000da	5d		 pop	 ebp
  000db	c2 08 00	 ret	 8
$LN7@SetItemDat:

; 580  : 	{
; 581  : 	case INVENTORY:
; 582  : 	case EQUIPMENT:
; 583  : 		m_playerStatus.aItem[Cell.cell] = c_rkItemInst;

  000de	0f 10 06	 movups	 xmm0, XMMWORD PTR [esi]
  000e1	0f b7 c1	 movzx	 eax, cx
  000e4	6b c8 2e	 imul	 ecx, eax, 46
  000e7	03 cf		 add	 ecx, edi
  000e9	0f 11 41 6c	 movups	 XMMWORD PTR [ecx+108], xmm0
  000ed	0f 10 46 10	 movups	 xmm0, XMMWORD PTR [esi+16]
  000f1	0f 11 41 7c	 movups	 XMMWORD PTR [ecx+124], xmm0
  000f5	f3 0f 7e 46 20	 movq	 xmm0, QWORD PTR [esi+32]
  000fa	66 0f d6 81 8c
	00 00 00	 movq	 QWORD PTR [ecx+140], xmm0
  00102	8b 46 28	 mov	 eax, DWORD PTR [esi+40]
  00105	89 81 94 00 00
	00		 mov	 DWORD PTR [ecx+148], eax
  0010b	66 8b 46 2c	 mov	 ax, WORD PTR [esi+44]
  0010f	66 89 81 98 00
	00 00		 mov	 WORD PTR [ecx+152], ax
$LN29@SetItemDat:
  00116	5e		 pop	 esi
$LN2@SetItemDat:
  00117	5f		 pop	 edi

; 587  : 		break;
; 588  : 	}
; 589  : }

  00118	5d		 pop	 ebp
  00119	c2 08 00	 ret	 8
?SetItemData@CPythonPlayer@@UAEXUSItemPos@@ABUpacket_item@@@Z ENDP ; CPythonPlayer::SetItemData
_TEXT	ENDS
; Function compile flags: /Ogtp
; File D:\_m2work\Server Client TMP4\ClientVS22\source\UserInterface\PythonPlayer.cpp
; File D:\_m2work\Server Client TMP4\ClientVS22\source\UserInterface\GameType.h
; File D:\_m2work\Server Client TMP4\ClientVS22\source\UserInterface\PythonPlayer.cpp
; File D:\_m2work\Server Client TMP4\ClientVS22\source\UserInterface\GameType.h
; File D:\_m2work\Server Client TMP4\ClientVS22\source\UserInterface\PythonPlayer.cpp
;	COMDAT ?GetItemIndex@CPythonPlayer@@UAEKUSItemPos@@@Z
_TEXT	SEGMENT
_Cell$ = 8						; size = 3
?GetItemIndex@CPythonPlayer@@UAEKUSItemPos@@@Z PROC	; CPythonPlayer::GetItemIndex, COMDAT
; _this$ = ecx

; 592  : {

  00000	55		 push	 ebp
  00001	8b ec		 mov	 ebp, esp
; File D:\_m2work\Server Client TMP4\ClientVS22\source\UserInterface\GameType.h

; 206  : 		switch (window_type)

  00003	66 8b 55 08	 mov	 dx, WORD PTR _Cell$[ebp]
  00007	0f b6 c2	 movzx	 eax, dl
; File D:\_m2work\Server Client TMP4\ClientVS22\source\UserInterface\PythonPlayer.cpp

; 592  : {

  0000a	56		 push	 esi
  0000b	8b f1		 mov	 esi, ecx
; File D:\_m2work\Server Client TMP4\ClientVS22\source\UserInterface\GameType.h

; 206  : 		switch (window_type)

  0000d	83 e8 01	 sub	 eax, 1
  00010	74 18		 je	 SHORT $LN7@GetItemInd
  00012	83 e8 01	 sub	 eax, 1
  00015	74 0c		 je	 SHORT $LN8@GetItemInd
  00017	83 e8 03	 sub	 eax, 3
  0001a	75 1e		 jne	 SHORT $LN12@GetItemInd

; 213  : 			break;
; 214  : 		case DRAGON_SOUL_INVENTORY:
; 215  : 			return cell < (DS_INVENTORY_MAX_NUM);

  0001c	b8 c0 03 00 00	 mov	 eax, 960		; 000003c0H
  00021	eb 0c		 jmp	 SHORT $LN16@GetItemInd
$LN8@GetItemInd:

; 210  : 			break;
; 211  : 		case EQUIPMENT:
; 212  : 			return cell < c_DragonSoul_Equip_End;

  00023	b8 86 00 00 00	 mov	 eax, 134		; 00000086H
  00028	eb 05		 jmp	 SHORT $LN16@GetItemInd
$LN7@GetItemInd:

; 207  : 		{
; 208  : 		case INVENTORY:
; 209  : 			return cell < c_Inventory_Count;

  0002a	b8 a8 00 00 00	 mov	 eax, 168		; 000000a8H
$LN16@GetItemInd:
; File D:\_m2work\Server Client TMP4\ClientVS22\source\UserInterface\PythonPlayer.cpp

; 593  : 	if (!Cell.IsValidCell())

  0002f	66 39 45 09	 cmp	 WORD PTR _Cell$[ebp+1], ax
  00033	0f 92 c0	 setb	 al
  00036	84 c0		 test	 al, al
  00038	75 07		 jne	 SHORT $LN2@GetItemInd
$LN12@GetItemInd:

; 594  : 		return 0;

  0003a	33 c0		 xor	 eax, eax

; 597  : }

  0003c	5e		 pop	 esi
  0003d	5d		 pop	 ebp
  0003e	c2 04 00	 ret	 4
$LN2@GetItemInd:

; 595  : 
; 596  : 	return GetItemData(Cell)->vnum;

  00041	8a 45 0a	 mov	 al, BYTE PTR _Cell$[ebp+2]
  00044	51		 push	 ecx
  00045	8b cc		 mov	 ecx, esp
  00047	66 89 11	 mov	 WORD PTR [ecx], dx
  0004a	88 41 02	 mov	 BYTE PTR [ecx+2], al
  0004d	8d 4e fc	 lea	 ecx, DWORD PTR [esi-4]
  00050	e8 00 00 00 00	 call	 ?GetItemData@CPythonPlayer@@QBEPBUpacket_item@@USItemPos@@@Z ; CPythonPlayer::GetItemData

; 597  : }

  00055	5e		 pop	 esi
  00056	8b 00		 mov	 eax, DWORD PTR [eax]
  00058	5d		 pop	 ebp
  00059	c2 04 00	 ret	 4
?GetItemIndex@CPythonPlayer@@UAEKUSItemPos@@@Z ENDP	; CPythonPlayer::GetItemIndex
_TEXT	ENDS
; Function compile flags: /Ogtp
; File D:\_m2work\Server Client TMP4\ClientVS22\source\UserInterface\PythonPlayer.cpp
; File D:\_m2work\Server Client TMP4\ClientVS22\source\UserInterface\GameType.h
; File D:\_m2work\Server Client TMP4\ClientVS22\source\UserInterface\PythonPlayer.cpp
; File D:\_m2work\Server Client TMP4\ClientVS22\source\UserInterface\GameType.h
; File D:\_m2work\Server Client TMP4\ClientVS22\source\UserInterface\PythonPlayer.cpp
;	COMDAT ?GetItemFlags@CPythonPlayer@@UAEKUSItemPos@@@Z
_TEXT	SEGMENT
_Cell$ = 8						; size = 3
?GetItemFlags@CPythonPlayer@@UAEKUSItemPos@@@Z PROC	; CPythonPlayer::GetItemFlags, COMDAT
; _this$ = ecx

; 600  : {

  00000	55		 push	 ebp
  00001	8b ec		 mov	 ebp, esp
; File D:\_m2work\Server Client TMP4\ClientVS22\source\UserInterface\GameType.h

; 206  : 		switch (window_type)

  00003	66 8b 55 08	 mov	 dx, WORD PTR _Cell$[ebp]
  00007	0f b6 c2	 movzx	 eax, dl
; File D:\_m2work\Server Client TMP4\ClientVS22\source\UserInterface\PythonPlayer.cpp

; 600  : {

  0000a	56		 push	 esi
  0000b	8b f1		 mov	 esi, ecx
; File D:\_m2work\Server Client TMP4\ClientVS22\source\UserInterface\GameType.h

; 206  : 		switch (window_type)

  0000d	83 e8 01	 sub	 eax, 1
  00010	74 18		 je	 SHORT $LN7@GetItemFla
  00012	83 e8 01	 sub	 eax, 1
  00015	74 0c		 je	 SHORT $LN8@GetItemFla
  00017	83 e8 03	 sub	 eax, 3
  0001a	75 1e		 jne	 SHORT $LN12@GetItemFla

; 213  : 			break;
; 214  : 		case DRAGON_SOUL_INVENTORY:
; 215  : 			return cell < (DS_INVENTORY_MAX_NUM);

  0001c	b8 c0 03 00 00	 mov	 eax, 960		; 000003c0H
  00021	eb 0c		 jmp	 SHORT $LN16@GetItemFla
$LN8@GetItemFla:

; 210  : 			break;
; 211  : 		case EQUIPMENT:
; 212  : 			return cell < c_DragonSoul_Equip_End;

  00023	b8 86 00 00 00	 mov	 eax, 134		; 00000086H
  00028	eb 05		 jmp	 SHORT $LN16@GetItemFla
$LN7@GetItemFla:

; 207  : 		{
; 208  : 		case INVENTORY:
; 209  : 			return cell < c_Inventory_Count;

  0002a	b8 a8 00 00 00	 mov	 eax, 168		; 000000a8H
$LN16@GetItemFla:
; File D:\_m2work\Server Client TMP4\ClientVS22\source\UserInterface\PythonPlayer.cpp

; 601  : 	if (!Cell.IsValidCell())

  0002f	66 39 45 09	 cmp	 WORD PTR _Cell$[ebp+1], ax
  00033	0f 92 c0	 setb	 al
  00036	84 c0		 test	 al, al
  00038	75 07		 jne	 SHORT $LN2@GetItemFla
$LN12@GetItemFla:

; 602  : 		return 0;

  0003a	33 c0		 xor	 eax, eax

; 604  : 	assert (pItem != NULL);
; 605  : 	return pItem->flags;
; 606  : }

  0003c	5e		 pop	 esi
  0003d	5d		 pop	 ebp
  0003e	c2 04 00	 ret	 4
$LN2@GetItemFla:

; 603  : 	const TItemData * pItem = GetItemData(Cell);

  00041	8a 45 0a	 mov	 al, BYTE PTR _Cell$[ebp+2]
  00044	51		 push	 ecx
  00045	8b cc		 mov	 ecx, esp
  00047	66 89 11	 mov	 WORD PTR [ecx], dx
  0004a	88 41 02	 mov	 BYTE PTR [ecx+2], al
  0004d	8d 4e fc	 lea	 ecx, DWORD PTR [esi-4]
  00050	e8 00 00 00 00	 call	 ?GetItemData@CPythonPlayer@@QBEPBUpacket_item@@USItemPos@@@Z ; CPythonPlayer::GetItemData

; 604  : 	assert (pItem != NULL);
; 605  : 	return pItem->flags;
; 606  : }

  00055	5e		 pop	 esi
  00056	8b 40 05	 mov	 eax, DWORD PTR [eax+5]
  00059	5d		 pop	 ebp
  0005a	c2 04 00	 ret	 4
?GetItemFlags@CPythonPlayer@@UAEKUSItemPos@@@Z ENDP	; CPythonPlayer::GetItemFlags
_TEXT	ENDS
; Function compile flags: /Ogtp
; File D:\_m2work\Server Client TMP4\ClientVS22\source\UserInterface\PythonPlayer.cpp
; File D:\_m2work\Server Client TMP4\ClientVS22\source\UserInterface\GameType.h
; File D:\_m2work\Server Client TMP4\ClientVS22\source\UserInterface\PythonPlayer.cpp
; File D:\_m2work\Server Client TMP4\ClientVS22\source\UserInterface\GameType.h
; File D:\_m2work\Server Client TMP4\ClientVS22\source\UserInterface\PythonPlayer.cpp
;	COMDAT ?GetItemCount@CPythonPlayer@@UAEKUSItemPos@@@Z
_TEXT	SEGMENT
_Cell$ = 8						; size = 3
?GetItemCount@CPythonPlayer@@UAEKUSItemPos@@@Z PROC	; CPythonPlayer::GetItemCount, COMDAT
; _this$ = ecx

; 609  : {

  00000	55		 push	 ebp
  00001	8b ec		 mov	 ebp, esp
; File D:\_m2work\Server Client TMP4\ClientVS22\source\UserInterface\GameType.h

; 206  : 		switch (window_type)

  00003	66 8b 55 08	 mov	 dx, WORD PTR _Cell$[ebp]
  00007	0f b6 c2	 movzx	 eax, dl
; File D:\_m2work\Server Client TMP4\ClientVS22\source\UserInterface\PythonPlayer.cpp

; 609  : {

  0000a	56		 push	 esi
  0000b	8b f1		 mov	 esi, ecx
; File D:\_m2work\Server Client TMP4\ClientVS22\source\UserInterface\GameType.h

; 206  : 		switch (window_type)

  0000d	83 e8 01	 sub	 eax, 1
  00010	74 18		 je	 SHORT $LN9@GetItemCou
  00012	83 e8 01	 sub	 eax, 1
  00015	74 0c		 je	 SHORT $LN10@GetItemCou
  00017	83 e8 03	 sub	 eax, 3
  0001a	75 3f		 jne	 SHORT $LN15@GetItemCou

; 213  : 			break;
; 214  : 		case DRAGON_SOUL_INVENTORY:
; 215  : 			return cell < (DS_INVENTORY_MAX_NUM);

  0001c	b8 c0 03 00 00	 mov	 eax, 960		; 000003c0H
  00021	eb 0c		 jmp	 SHORT $LN21@GetItemCou
$LN10@GetItemCou:

; 210  : 			break;
; 211  : 		case EQUIPMENT:
; 212  : 			return cell < c_DragonSoul_Equip_End;

  00023	b8 86 00 00 00	 mov	 eax, 134		; 00000086H
  00028	eb 05		 jmp	 SHORT $LN21@GetItemCou
$LN9@GetItemCou:

; 207  : 		{
; 208  : 		case INVENTORY:
; 209  : 			return cell < c_Inventory_Count;

  0002a	b8 a8 00 00 00	 mov	 eax, 168		; 000000a8H
$LN21@GetItemCou:
; File D:\_m2work\Server Client TMP4\ClientVS22\source\UserInterface\PythonPlayer.cpp

; 610  : 	if (!Cell.IsValidCell())

  0002f	66 39 45 09	 cmp	 WORD PTR _Cell$[ebp+1], ax
  00033	0f 92 c0	 setb	 al
  00036	84 c0		 test	 al, al
  00038	74 21		 je	 SHORT $LN15@GetItemCou

; 611  : 		return 0;
; 612  : 	const TItemData * pItem = GetItemData(Cell);

  0003a	8a 45 0a	 mov	 al, BYTE PTR _Cell$[ebp+2]
  0003d	51		 push	 ecx
  0003e	8b cc		 mov	 ecx, esp
  00040	66 89 11	 mov	 WORD PTR [ecx], dx
  00043	88 41 02	 mov	 BYTE PTR [ecx+2], al
  00046	8d 4e fc	 lea	 ecx, DWORD PTR [esi-4]
  00049	e8 00 00 00 00	 call	 ?GetItemData@CPythonPlayer@@QBEPBUpacket_item@@USItemPos@@@Z ; CPythonPlayer::GetItemData

; 613  : 	if (pItem == NULL)

  0004e	85 c0		 test	 eax, eax
  00050	74 09		 je	 SHORT $LN15@GetItemCou

; 615  : 	else
; 616  : 		return pItem->count;

  00052	0f b6 40 04	 movzx	 eax, BYTE PTR [eax+4]

; 617  : }

  00056	5e		 pop	 esi
  00057	5d		 pop	 ebp
  00058	c2 04 00	 ret	 4
$LN15@GetItemCou:

; 614  : 		return 0;

  0005b	33 c0		 xor	 eax, eax

; 617  : }

  0005d	5e		 pop	 esi
  0005e	5d		 pop	 ebp
  0005f	c2 04 00	 ret	 4
?GetItemCount@CPythonPlayer@@UAEKUSItemPos@@@Z ENDP	; CPythonPlayer::GetItemCount
_TEXT	ENDS
; Function compile flags: /Ogtp
; File D:\_m2work\Server Client TMP4\ClientVS22\source\UserInterface\PythonPlayer.cpp
;	COMDAT ?GetItemCountByVnum@CPythonPlayer@@QAEKK@Z
_TEXT	SEGMENT
_dwVnum$ = 8						; size = 4
?GetItemCountByVnum@CPythonPlayer@@QAEKK@Z PROC		; CPythonPlayer::GetItemCountByVnum, COMDAT
; _this$ = ecx

; 620  : {

  00000	55		 push	 ebp
  00001	8b ec		 mov	 ebp, esp
  00003	53		 push	 ebx
  00004	56		 push	 esi

; 621  : 	DWORD dwCount = 0;

  00005	33 f6		 xor	 esi, esi
  00007	81 c1 a2 00 00
	00		 add	 ecx, 162		; 000000a2H
  0000d	57		 push	 edi
  0000e	8b 7d 08	 mov	 edi, DWORD PTR _dwVnum$[ebp]
  00011	8d 5e 1c	 lea	 ebx, DWORD PTR [esi+28]
$LL4@GetItemCou:

; 624  : 	{
; 625  : 		const TItemData & c_rItemData = m_playerStatus.aItem[i];
; 626  : 		if (c_rItemData.vnum == dwVnum)

  00014	39 79 ce	 cmp	 DWORD PTR [ecx-50], edi
  00017	75 06		 jne	 SHORT $LN2@GetItemCou

; 627  : 		{
; 628  : 			dwCount += c_rItemData.count;

  00019	0f b6 41 d2	 movzx	 eax, BYTE PTR [ecx-46]
  0001d	03 f0		 add	 esi, eax
$LN2@GetItemCou:

; 624  : 	{
; 625  : 		const TItemData & c_rItemData = m_playerStatus.aItem[i];
; 626  : 		if (c_rItemData.vnum == dwVnum)

  0001f	39 79 fc	 cmp	 DWORD PTR [ecx-4], edi
  00022	75 05		 jne	 SHORT $LN11@GetItemCou

; 627  : 		{
; 628  : 			dwCount += c_rItemData.count;

  00024	0f b6 01	 movzx	 eax, BYTE PTR [ecx]
  00027	03 f0		 add	 esi, eax
$LN11@GetItemCou:

; 624  : 	{
; 625  : 		const TItemData & c_rItemData = m_playerStatus.aItem[i];
; 626  : 		if (c_rItemData.vnum == dwVnum)

  00029	39 79 2a	 cmp	 DWORD PTR [ecx+42], edi
  0002c	75 06		 jne	 SHORT $LN12@GetItemCou

; 627  : 		{
; 628  : 			dwCount += c_rItemData.count;

  0002e	0f b6 41 2e	 movzx	 eax, BYTE PTR [ecx+46]
  00032	03 f0		 add	 esi, eax
$LN12@GetItemCou:

; 624  : 	{
; 625  : 		const TItemData & c_rItemData = m_playerStatus.aItem[i];
; 626  : 		if (c_rItemData.vnum == dwVnum)

  00034	39 79 58	 cmp	 DWORD PTR [ecx+88], edi
  00037	75 06		 jne	 SHORT $LN13@GetItemCou

; 627  : 		{
; 628  : 			dwCount += c_rItemData.count;

  00039	0f b6 41 5c	 movzx	 eax, BYTE PTR [ecx+92]
  0003d	03 f0		 add	 esi, eax
$LN13@GetItemCou:

; 624  : 	{
; 625  : 		const TItemData & c_rItemData = m_playerStatus.aItem[i];
; 626  : 		if (c_rItemData.vnum == dwVnum)

  0003f	39 b9 86 00 00
	00		 cmp	 DWORD PTR [ecx+134], edi
  00045	75 09		 jne	 SHORT $LN14@GetItemCou

; 627  : 		{
; 628  : 			dwCount += c_rItemData.count;

  00047	0f b6 81 8a 00
	00 00		 movzx	 eax, BYTE PTR [ecx+138]
  0004e	03 f0		 add	 esi, eax
$LN14@GetItemCou:

; 624  : 	{
; 625  : 		const TItemData & c_rItemData = m_playerStatus.aItem[i];
; 626  : 		if (c_rItemData.vnum == dwVnum)

  00050	39 b9 b4 00 00
	00		 cmp	 DWORD PTR [ecx+180], edi
  00056	75 09		 jne	 SHORT $LN15@GetItemCou

; 627  : 		{
; 628  : 			dwCount += c_rItemData.count;

  00058	0f b6 91 b8 00
	00 00		 movzx	 edx, BYTE PTR [ecx+184]
  0005f	03 f2		 add	 esi, edx
$LN15@GetItemCou:

; 622  : 
; 623  : 	for (int i = 0; i < c_Inventory_Count; ++i)

  00061	81 c1 14 01 00
	00		 add	 ecx, 276		; 00000114H
  00067	83 eb 01	 sub	 ebx, 1
  0006a	75 a8		 jne	 SHORT $LL4@GetItemCou

; 629  : 		}
; 630  : 	}
; 631  : 
; 632  : 	return dwCount;

  0006c	5f		 pop	 edi
  0006d	8b c6		 mov	 eax, esi
  0006f	5e		 pop	 esi
  00070	5b		 pop	 ebx

; 633  : }

  00071	5d		 pop	 ebp
  00072	c2 04 00	 ret	 4
?GetItemCountByVnum@CPythonPlayer@@QAEKK@Z ENDP		; CPythonPlayer::GetItemCountByVnum
_TEXT	ENDS
; Function compile flags: /Ogtp
; File D:\_m2work\Server Client TMP4\ClientVS22\source\UserInterface\PythonPlayer.cpp
; File D:\_m2work\Server Client TMP4\ClientVS22\source\UserInterface\GameType.h
; File D:\_m2work\Server Client TMP4\ClientVS22\source\UserInterface\PythonPlayer.cpp
;	COMDAT ?GetItemMetinSocket@CPythonPlayer@@QAEKUSItemPos@@K@Z
_TEXT	SEGMENT
_Cell$ = 8						; size = 3
_dwMetinSocketIndex$ = 12				; size = 4
?GetItemMetinSocket@CPythonPlayer@@QAEKUSItemPos@@K@Z PROC ; CPythonPlayer::GetItemMetinSocket, COMDAT
; _this$ = ecx

; 636  : {

  00000	55		 push	 ebp
  00001	8b ec		 mov	 ebp, esp
  00003	56		 push	 esi
  00004	57		 push	 edi
  00005	8b f9		 mov	 edi, ecx
; File D:\_m2work\Server Client TMP4\ClientVS22\source\UserInterface\GameType.h

; 206  : 		switch (window_type)

  00007	66 8b 4d 08	 mov	 cx, WORD PTR _Cell$[ebp]
  0000b	0f b6 c1	 movzx	 eax, cl
  0000e	83 e8 01	 sub	 eax, 1
  00011	74 18		 je	 SHORT $LN8@GetItemMet
  00013	83 e8 01	 sub	 eax, 1
  00016	74 0c		 je	 SHORT $LN9@GetItemMet
  00018	83 e8 03	 sub	 eax, 3
  0001b	75 43		 jne	 SHORT $LN14@GetItemMet

; 213  : 			break;
; 214  : 		case DRAGON_SOUL_INVENTORY:
; 215  : 			return cell < (DS_INVENTORY_MAX_NUM);

  0001d	b8 c0 03 00 00	 mov	 eax, 960		; 000003c0H
  00022	eb 0c		 jmp	 SHORT $LN20@GetItemMet
$LN9@GetItemMet:

; 210  : 			break;
; 211  : 		case EQUIPMENT:
; 212  : 			return cell < c_DragonSoul_Equip_End;

  00024	b8 86 00 00 00	 mov	 eax, 134		; 00000086H
  00029	eb 05		 jmp	 SHORT $LN20@GetItemMet
$LN8@GetItemMet:

; 207  : 		{
; 208  : 		case INVENTORY:
; 209  : 			return cell < c_Inventory_Count;

  0002b	b8 a8 00 00 00	 mov	 eax, 168		; 000000a8H
$LN20@GetItemMet:
; File D:\_m2work\Server Client TMP4\ClientVS22\source\UserInterface\PythonPlayer.cpp

; 637  : 	if (!Cell.IsValidCell())

  00030	66 39 45 09	 cmp	 WORD PTR _Cell$[ebp+1], ax
  00034	0f 92 c0	 setb	 al
  00037	84 c0		 test	 al, al
  00039	74 25		 je	 SHORT $LN14@GetItemMet

; 638  : 		return 0;
; 639  : 
; 640  : 	if (dwMetinSocketIndex >= ITEM_SOCKET_SLOT_MAX_NUM)

  0003b	8b 75 0c	 mov	 esi, DWORD PTR _dwMetinSocketIndex$[ebp]
  0003e	83 fe 03	 cmp	 esi, 3
  00041	73 1d		 jae	 SHORT $LN14@GetItemMet

; 641  : 		return 0;
; 642  : 
; 643  : 	return GetItemData(Cell)->alSockets[dwMetinSocketIndex];

  00043	51		 push	 ecx
  00044	8b d4		 mov	 edx, esp
  00046	66 89 0a	 mov	 WORD PTR [edx], cx
  00049	8a 4d 0a	 mov	 cl, BYTE PTR _Cell$[ebp+2]
  0004c	88 4a 02	 mov	 BYTE PTR [edx+2], cl
  0004f	8b cf		 mov	 ecx, edi
  00051	e8 00 00 00 00	 call	 ?GetItemData@CPythonPlayer@@QBEPBUpacket_item@@USItemPos@@@Z ; CPythonPlayer::GetItemData
  00056	8b 44 b0 0d	 mov	 eax, DWORD PTR [eax+esi*4+13]

; 644  : }

  0005a	5f		 pop	 edi
  0005b	5e		 pop	 esi
  0005c	5d		 pop	 ebp
  0005d	c2 08 00	 ret	 8
$LN14@GetItemMet:
  00060	5f		 pop	 edi
  00061	33 c0		 xor	 eax, eax
  00063	5e		 pop	 esi
  00064	5d		 pop	 ebp
  00065	c2 08 00	 ret	 8
?GetItemMetinSocket@CPythonPlayer@@QAEKUSItemPos@@K@Z ENDP ; CPythonPlayer::GetItemMetinSocket
_TEXT	ENDS
; Function compile flags: /Ogtp
; File D:\_m2work\Server Client TMP4\ClientVS22\source\UserInterface\PythonPlayer.cpp
; File D:\_m2work\Server Client TMP4\ClientVS22\source\UserInterface\GameType.h
; File D:\_m2work\Server Client TMP4\ClientVS22\source\UserInterface\PythonPlayer.cpp
; File D:\_m2work\Server Client TMP4\ClientVS22\source\UserInterface\GameType.h
; File D:\_m2work\Server Client TMP4\ClientVS22\source\UserInterface\PythonPlayer.cpp
; File D:\_m2work\Server Client TMP4\ClientVS22\source\UserInterface\GameType.h
; File D:\_m2work\Server Client TMP4\ClientVS22\source\UserInterface\PythonPlayer.cpp
;	COMDAT ?GetItemAttribute@CPythonPlayer@@QAEXUSItemPos@@KPAEPAF@Z
_TEXT	SEGMENT
_this$1$ = -4						; size = 4
_Cell$ = 8						; size = 3
_dwAttrSlotIndex$ = 12					; size = 4
_pbyType$ = 16						; size = 4
_psValue$ = 20						; size = 4
?GetItemAttribute@CPythonPlayer@@QAEXUSItemPos@@KPAEPAF@Z PROC ; CPythonPlayer::GetItemAttribute, COMDAT
; _this$ = ecx

; 647  : {

  00000	55		 push	 ebp
  00001	8b ec		 mov	 ebp, esp
  00003	51		 push	 ecx

; 649  : 	*psValue = 0;

  00004	8b 45 14	 mov	 eax, DWORD PTR _psValue$[ebp]
  00007	8b d1		 mov	 edx, ecx
  00009	53		 push	 ebx
  0000a	33 c9		 xor	 ecx, ecx
  0000c	89 55 fc	 mov	 DWORD PTR _this$1$[ebp], edx
  0000f	56		 push	 esi
  00010	66 89 08	 mov	 WORD PTR [eax], cx
; File D:\_m2work\Server Client TMP4\ClientVS22\source\UserInterface\GameType.h

; 206  : 		switch (window_type)

  00013	66 8b 4d 08	 mov	 cx, WORD PTR _Cell$[ebp]
; File D:\_m2work\Server Client TMP4\ClientVS22\source\UserInterface\PythonPlayer.cpp

; 647  : {

  00017	57		 push	 edi

; 648  : 	*pbyType = 0;

  00018	8b 7d 10	 mov	 edi, DWORD PTR _pbyType$[ebp]
; File D:\_m2work\Server Client TMP4\ClientVS22\source\UserInterface\GameType.h

; 206  : 		switch (window_type)

  0001b	0f b6 c1	 movzx	 eax, cl
; File D:\_m2work\Server Client TMP4\ClientVS22\source\UserInterface\PythonPlayer.cpp

; 648  : 	*pbyType = 0;

  0001e	c6 07 00	 mov	 BYTE PTR [edi], 0
; File D:\_m2work\Server Client TMP4\ClientVS22\source\UserInterface\GameType.h

; 206  : 		switch (window_type)

  00021	83 e8 01	 sub	 eax, 1
  00024	74 18		 je	 SHORT $LN8@GetItemAtt
  00026	83 e8 01	 sub	 eax, 1
  00029	74 0c		 je	 SHORT $LN9@GetItemAtt
  0002b	83 e8 03	 sub	 eax, 3
  0002e	75 62		 jne	 SHORT $LN1@GetItemAtt

; 213  : 			break;
; 214  : 		case DRAGON_SOUL_INVENTORY:
; 215  : 			return cell < (DS_INVENTORY_MAX_NUM);

  00030	b8 c0 03 00 00	 mov	 eax, 960		; 000003c0H
  00035	eb 0c		 jmp	 SHORT $LN18@GetItemAtt
$LN9@GetItemAtt:

; 210  : 			break;
; 211  : 		case EQUIPMENT:
; 212  : 			return cell < c_DragonSoul_Equip_End;

  00037	b8 86 00 00 00	 mov	 eax, 134		; 00000086H
  0003c	eb 05		 jmp	 SHORT $LN18@GetItemAtt
$LN8@GetItemAtt:

; 207  : 		{
; 208  : 		case INVENTORY:
; 209  : 			return cell < c_Inventory_Count;

  0003e	b8 a8 00 00 00	 mov	 eax, 168		; 000000a8H
$LN18@GetItemAtt:
; File D:\_m2work\Server Client TMP4\ClientVS22\source\UserInterface\PythonPlayer.cpp

; 651  : 	if (!Cell.IsValidCell())

  00043	66 39 45 09	 cmp	 WORD PTR _Cell$[ebp+1], ax
  00047	0f 92 c0	 setb	 al
  0004a	84 c0		 test	 al, al
  0004c	74 44		 je	 SHORT $LN1@GetItemAtt

; 652  : 		return;
; 653  : 
; 654  : 	if (dwAttrSlotIndex >= ITEM_ATTRIBUTE_SLOT_MAX_NUM)

  0004e	8b 45 0c	 mov	 eax, DWORD PTR _dwAttrSlotIndex$[ebp]
  00051	83 f8 07	 cmp	 eax, 7
  00054	73 3c		 jae	 SHORT $LN1@GetItemAtt

; 655  : 		return;
; 656  : 
; 657  : 	*pbyType = GetItemData(Cell)->aAttr[dwAttrSlotIndex].bType;

  00056	8a 5d 0a	 mov	 bl, BYTE PTR _Cell$[ebp+2]
  00059	8d 34 40	 lea	 esi, DWORD PTR [eax+eax*2]
  0005c	51		 push	 ecx
  0005d	8b c4		 mov	 eax, esp
  0005f	66 89 08	 mov	 WORD PTR [eax], cx
  00062	8b ca		 mov	 ecx, edx
  00064	88 58 02	 mov	 BYTE PTR [eax+2], bl
  00067	e8 00 00 00 00	 call	 ?GetItemData@CPythonPlayer@@QBEPBUpacket_item@@USItemPos@@@Z ; CPythonPlayer::GetItemData

; 658  : 	*psValue = GetItemData(Cell)->aAttr[dwAttrSlotIndex].sValue;

  0006c	51		 push	 ecx
  0006d	66 8b 4d 08	 mov	 cx, WORD PTR _Cell$[ebp]
  00071	8a 44 30 19	 mov	 al, BYTE PTR [eax+esi+25]
  00075	88 07		 mov	 BYTE PTR [edi], al
  00077	8b c4		 mov	 eax, esp
  00079	66 89 08	 mov	 WORD PTR [eax], cx
  0007c	8b 4d fc	 mov	 ecx, DWORD PTR _this$1$[ebp]
  0007f	88 58 02	 mov	 BYTE PTR [eax+2], bl
  00082	e8 00 00 00 00	 call	 ?GetItemData@CPythonPlayer@@QBEPBUpacket_item@@USItemPos@@@Z ; CPythonPlayer::GetItemData
  00087	8b 4d 14	 mov	 ecx, DWORD PTR _psValue$[ebp]
  0008a	66 8b 44 30 1a	 mov	 ax, WORD PTR [eax+esi+26]
  0008f	66 89 01	 mov	 WORD PTR [ecx], ax
$LN1@GetItemAtt:

; 659  : }

  00092	5f		 pop	 edi
  00093	5e		 pop	 esi
  00094	5b		 pop	 ebx
  00095	8b e5		 mov	 esp, ebp
  00097	5d		 pop	 ebp
  00098	c2 10 00	 ret	 16			; 00000010H
?GetItemAttribute@CPythonPlayer@@QAEXUSItemPos@@KPAEPAF@Z ENDP ; CPythonPlayer::GetItemAttribute
_TEXT	ENDS
; Function compile flags: /Ogtp
; File D:\_m2work\Server Client TMP4\ClientVS22\source\UserInterface\PythonPlayer.cpp
; File D:\_m2work\Server Client TMP4\ClientVS22\source\UserInterface\GameType.h
; File D:\_m2work\Server Client TMP4\ClientVS22\source\UserInterface\PythonPlayer.cpp
; File D:\_m2work\Server Client TMP4\ClientVS22\source\UserInterface\GameType.h
; File D:\_m2work\Server Client TMP4\ClientVS22\source\UserInterface\PythonPlayer.cpp
;	COMDAT ?SetItemCount@CPythonPlayer@@UAEXUSItemPos@@E@Z
_TEXT	SEGMENT
_Cell$ = 8						; size = 3
_byCount$ = 12						; size = 1
?SetItemCount@CPythonPlayer@@UAEXUSItemPos@@E@Z PROC	; CPythonPlayer::SetItemCount, COMDAT
; _this$ = ecx

; 662  : {

  00000	55		 push	 ebp
  00001	8b ec		 mov	 ebp, esp
; File D:\_m2work\Server Client TMP4\ClientVS22\source\UserInterface\GameType.h

; 206  : 		switch (window_type)

  00003	66 8b 55 08	 mov	 dx, WORD PTR _Cell$[ebp]
  00007	0f b6 c2	 movzx	 eax, dl
; File D:\_m2work\Server Client TMP4\ClientVS22\source\UserInterface\PythonPlayer.cpp

; 662  : {

  0000a	56		 push	 esi
  0000b	8b f1		 mov	 esi, ecx
; File D:\_m2work\Server Client TMP4\ClientVS22\source\UserInterface\GameType.h

; 206  : 		switch (window_type)

  0000d	83 e8 01	 sub	 eax, 1
  00010	74 18		 je	 SHORT $LN7@SetItemCou
  00012	83 e8 01	 sub	 eax, 1
  00015	74 0c		 je	 SHORT $LN8@SetItemCou
  00017	83 e8 03	 sub	 eax, 3
  0001a	75 54		 jne	 SHORT $LN1@SetItemCou

; 213  : 			break;
; 214  : 		case DRAGON_SOUL_INVENTORY:
; 215  : 			return cell < (DS_INVENTORY_MAX_NUM);

  0001c	b8 c0 03 00 00	 mov	 eax, 960		; 000003c0H
  00021	eb 0c		 jmp	 SHORT $LN16@SetItemCou
$LN8@SetItemCou:

; 210  : 			break;
; 211  : 		case EQUIPMENT:
; 212  : 			return cell < c_DragonSoul_Equip_End;

  00023	b8 86 00 00 00	 mov	 eax, 134		; 00000086H
  00028	eb 05		 jmp	 SHORT $LN16@SetItemCou
$LN7@SetItemCou:

; 207  : 		{
; 208  : 		case INVENTORY:
; 209  : 			return cell < c_Inventory_Count;

  0002a	b8 a8 00 00 00	 mov	 eax, 168		; 000000a8H
$LN16@SetItemCou:
; File D:\_m2work\Server Client TMP4\ClientVS22\source\UserInterface\PythonPlayer.cpp

; 663  : 	if (!Cell.IsValidCell())

  0002f	66 39 45 09	 cmp	 WORD PTR _Cell$[ebp+1], ax
  00033	0f 92 c0	 setb	 al
  00036	84 c0		 test	 al, al
  00038	74 36		 je	 SHORT $LN1@SetItemCou

; 664  : 		return;
; 665  : 
; 666  : 	(const_cast <TItemData *>(GetItemData(Cell)))->count = byCount;

  0003a	8a 45 0a	 mov	 al, BYTE PTR _Cell$[ebp+2]
  0003d	51		 push	 ecx
  0003e	8b cc		 mov	 ecx, esp
  00040	66 89 11	 mov	 WORD PTR [ecx], dx
  00043	88 41 02	 mov	 BYTE PTR [ecx+2], al
  00046	8d 4e fc	 lea	 ecx, DWORD PTR [esi-4]
  00049	e8 00 00 00 00	 call	 ?GetItemData@CPythonPlayer@@QBEPBUpacket_item@@USItemPos@@@Z ; CPythonPlayer::GetItemData
  0004e	8a 4d 0c	 mov	 cl, BYTE PTR _byCount$[ebp]

; 667  : 	PyCallClassMemberFunc(m_ppyGameWindow, "RefreshInventory", Py_BuildValue("()"));	

  00051	68 00 00 00 00	 push	 OFFSET ??_C@_02HCKGKOFO@?$CI?$CJ@
  00056	88 48 04	 mov	 BYTE PTR [eax+4], cl
  00059	ff 15 00 00 00
	00		 call	 DWORD PTR __imp__Py_BuildValue
  0005f	50		 push	 eax
  00060	68 00 00 00 00	 push	 OFFSET ??_C@_0BB@JLCHKFKI@RefreshInventory@
  00065	ff 76 04	 push	 DWORD PTR [esi+4]
  00068	e8 00 00 00 00	 call	 ?PyCallClassMemberFunc@@YA_NPAU_object@@PBD0@Z ; PyCallClassMemberFunc
  0006d	83 c4 10	 add	 esp, 16			; 00000010H
$LN1@SetItemCou:

; 668  : }

  00070	5e		 pop	 esi
  00071	5d		 pop	 ebp
  00072	c2 08 00	 ret	 8
?SetItemCount@CPythonPlayer@@UAEXUSItemPos@@E@Z ENDP	; CPythonPlayer::SetItemCount
_TEXT	ENDS
; Function compile flags: /Ogtp
; File D:\_m2work\Server Client TMP4\ClientVS22\source\UserInterface\PythonPlayer.cpp
; File D:\_m2work\Server Client TMP4\ClientVS22\source\UserInterface\GameType.h
; File D:\_m2work\Server Client TMP4\ClientVS22\source\UserInterface\PythonPlayer.cpp
; File D:\_m2work\Server Client TMP4\ClientVS22\source\UserInterface\GameType.h
; File D:\_m2work\Server Client TMP4\ClientVS22\source\UserInterface\PythonPlayer.cpp
; File D:\_m2work\Server Client TMP4\ClientVS22\source\UserInterface\GameType.h
; File D:\_m2work\Server Client TMP4\ClientVS22\source\UserInterface\PythonPlayer.cpp
;	COMDAT ?SetItemMetinSocket@CPythonPlayer@@UAEXUSItemPos@@KK@Z
_TEXT	SEGMENT
_Cell$ = 8						; size = 3
_dwMetinSocketIndex$ = 12				; size = 4
_dwMetinNumber$ = 16					; size = 4
?SetItemMetinSocket@CPythonPlayer@@UAEXUSItemPos@@KK@Z PROC ; CPythonPlayer::SetItemMetinSocket, COMDAT
; _this$ = ecx

; 671  : {

  00000	55		 push	 ebp
  00001	8b ec		 mov	 ebp, esp
; File D:\_m2work\Server Client TMP4\ClientVS22\source\UserInterface\GameType.h

; 206  : 		switch (window_type)

  00003	66 8b 55 08	 mov	 dx, WORD PTR _Cell$[ebp]
; File D:\_m2work\Server Client TMP4\ClientVS22\source\UserInterface\PythonPlayer.cpp

; 671  : {

  00007	56		 push	 esi
; File D:\_m2work\Server Client TMP4\ClientVS22\source\UserInterface\GameType.h

; 206  : 		switch (window_type)

  00008	0f b6 c2	 movzx	 eax, dl
; File D:\_m2work\Server Client TMP4\ClientVS22\source\UserInterface\PythonPlayer.cpp

; 671  : {

  0000b	57		 push	 edi
  0000c	8b f9		 mov	 edi, ecx
; File D:\_m2work\Server Client TMP4\ClientVS22\source\UserInterface\GameType.h

; 206  : 		switch (window_type)

  0000e	83 e8 01	 sub	 eax, 1
  00011	74 18		 je	 SHORT $LN8@SetItemMet
  00013	83 e8 01	 sub	 eax, 1
  00016	74 0c		 je	 SHORT $LN9@SetItemMet
  00018	83 e8 03	 sub	 eax, 3
  0001b	75 41		 jne	 SHORT $LN1@SetItemMet

; 213  : 			break;
; 214  : 		case DRAGON_SOUL_INVENTORY:
; 215  : 			return cell < (DS_INVENTORY_MAX_NUM);

  0001d	b8 c0 03 00 00	 mov	 eax, 960		; 000003c0H
  00022	eb 0c		 jmp	 SHORT $LN18@SetItemMet
$LN9@SetItemMet:

; 210  : 			break;
; 211  : 		case EQUIPMENT:
; 212  : 			return cell < c_DragonSoul_Equip_End;

  00024	b8 86 00 00 00	 mov	 eax, 134		; 00000086H
  00029	eb 05		 jmp	 SHORT $LN18@SetItemMet
$LN8@SetItemMet:

; 207  : 		{
; 208  : 		case INVENTORY:
; 209  : 			return cell < c_Inventory_Count;

  0002b	b8 a8 00 00 00	 mov	 eax, 168		; 000000a8H
$LN18@SetItemMet:
; File D:\_m2work\Server Client TMP4\ClientVS22\source\UserInterface\PythonPlayer.cpp

; 672  : 	if (!Cell.IsValidCell())

  00030	66 39 45 09	 cmp	 WORD PTR _Cell$[ebp+1], ax
  00034	0f 92 c0	 setb	 al
  00037	84 c0		 test	 al, al
  00039	74 23		 je	 SHORT $LN1@SetItemMet

; 673  : 		return;
; 674  : 	if (dwMetinSocketIndex >= ITEM_SOCKET_SLOT_MAX_NUM)

  0003b	8b 75 0c	 mov	 esi, DWORD PTR _dwMetinSocketIndex$[ebp]
  0003e	83 fe 03	 cmp	 esi, 3
  00041	73 1b		 jae	 SHORT $LN1@SetItemMet

; 675  : 		return;
; 676  : 
; 677  : 	(const_cast <TItemData *>(GetItemData(Cell)))->alSockets[dwMetinSocketIndex] = dwMetinNumber;

  00043	8a 45 0a	 mov	 al, BYTE PTR _Cell$[ebp+2]
  00046	51		 push	 ecx
  00047	8b cc		 mov	 ecx, esp
  00049	66 89 11	 mov	 WORD PTR [ecx], dx
  0004c	88 41 02	 mov	 BYTE PTR [ecx+2], al
  0004f	8d 4f fc	 lea	 ecx, DWORD PTR [edi-4]
  00052	e8 00 00 00 00	 call	 ?GetItemData@CPythonPlayer@@QBEPBUpacket_item@@USItemPos@@@Z ; CPythonPlayer::GetItemData
  00057	8b 4d 10	 mov	 ecx, DWORD PTR _dwMetinNumber$[ebp]
  0005a	89 4c b0 0d	 mov	 DWORD PTR [eax+esi*4+13], ecx
$LN1@SetItemMet:

; 678  : }

  0005e	5f		 pop	 edi
  0005f	5e		 pop	 esi
  00060	5d		 pop	 ebp
  00061	c2 0c 00	 ret	 12			; 0000000cH
?SetItemMetinSocket@CPythonPlayer@@UAEXUSItemPos@@KK@Z ENDP ; CPythonPlayer::SetItemMetinSocket
_TEXT	ENDS
; Function compile flags: /Ogtp
; File D:\_m2work\Server Client TMP4\ClientVS22\source\UserInterface\PythonPlayer.cpp
; File D:\_m2work\Server Client TMP4\ClientVS22\source\UserInterface\GameType.h
; File D:\_m2work\Server Client TMP4\ClientVS22\source\UserInterface\PythonPlayer.cpp
; File D:\_m2work\Server Client TMP4\ClientVS22\source\UserInterface\GameType.h
; File D:\_m2work\Server Client TMP4\ClientVS22\source\UserInterface\PythonPlayer.cpp
;	COMDAT ?SetItemAttribute@CPythonPlayer@@UAEXUSItemPos@@KEF@Z
_TEXT	SEGMENT
_Cell$ = 8						; size = 3
_dwAttrIndex$ = 12					; size = 4
_byType$ = 16						; size = 1
_sValue$ = 20						; size = 2
?SetItemAttribute@CPythonPlayer@@UAEXUSItemPos@@KEF@Z PROC ; CPythonPlayer::SetItemAttribute, COMDAT
; _this$ = ecx

; 681  : {

  00000	55		 push	 ebp
  00001	8b ec		 mov	 ebp, esp
; File D:\_m2work\Server Client TMP4\ClientVS22\source\UserInterface\GameType.h

; 206  : 		switch (window_type)

  00003	66 8b 55 08	 mov	 dx, WORD PTR _Cell$[ebp]
  00007	0f b6 c2	 movzx	 eax, dl
; File D:\_m2work\Server Client TMP4\ClientVS22\source\UserInterface\PythonPlayer.cpp

; 681  : {

  0000a	56		 push	 esi
  0000b	57		 push	 edi
; File D:\_m2work\Server Client TMP4\ClientVS22\source\UserInterface\GameType.h

; 206  : 		switch (window_type)

  0000c	83 e8 01	 sub	 eax, 1
  0000f	74 18		 je	 SHORT $LN8@SetItemAtt
  00011	83 e8 01	 sub	 eax, 1
  00014	74 0c		 je	 SHORT $LN9@SetItemAtt
  00016	83 e8 03	 sub	 eax, 3
  00019	75 66		 jne	 SHORT $LN1@SetItemAtt

; 213  : 			break;
; 214  : 		case DRAGON_SOUL_INVENTORY:
; 215  : 			return cell < (DS_INVENTORY_MAX_NUM);

  0001b	b8 c0 03 00 00	 mov	 eax, 960		; 000003c0H
  00020	eb 0c		 jmp	 SHORT $LN18@SetItemAtt
$LN9@SetItemAtt:

; 210  : 			break;
; 211  : 		case EQUIPMENT:
; 212  : 			return cell < c_DragonSoul_Equip_End;

  00022	b8 86 00 00 00	 mov	 eax, 134		; 00000086H
  00027	eb 05		 jmp	 SHORT $LN18@SetItemAtt
$LN8@SetItemAtt:

; 207  : 		{
; 208  : 		case INVENTORY:
; 209  : 			return cell < c_Inventory_Count;

  00029	b8 a8 00 00 00	 mov	 eax, 168		; 000000a8H
$LN18@SetItemAtt:
; File D:\_m2work\Server Client TMP4\ClientVS22\source\UserInterface\PythonPlayer.cpp

; 682  : 	if (!Cell.IsValidCell())

  0002e	66 39 45 09	 cmp	 WORD PTR _Cell$[ebp+1], ax
  00032	0f 92 c0	 setb	 al
  00035	84 c0		 test	 al, al
  00037	74 48		 je	 SHORT $LN1@SetItemAtt

; 683  : 		return;
; 684  : 	if (dwAttrIndex >= ITEM_ATTRIBUTE_SLOT_MAX_NUM)

  00039	8b 45 0c	 mov	 eax, DWORD PTR _dwAttrIndex$[ebp]
  0003c	83 f8 07	 cmp	 eax, 7
  0003f	73 40		 jae	 SHORT $LN1@SetItemAtt

; 685  : 		return;
; 686  : 
; 687  : 	(const_cast <TItemData *>(GetItemData(Cell)))->aAttr[dwAttrIndex].bType = byType;

  00041	51		 push	 ecx
  00042	8d 71 fc	 lea	 esi, DWORD PTR [ecx-4]
  00045	8b cc		 mov	 ecx, esp
  00047	8d 3c 40	 lea	 edi, DWORD PTR [eax+eax*2]
  0004a	8a 45 0a	 mov	 al, BYTE PTR _Cell$[ebp+2]
  0004d	66 89 11	 mov	 WORD PTR [ecx], dx
  00050	88 41 02	 mov	 BYTE PTR [ecx+2], al
  00053	8b ce		 mov	 ecx, esi
  00055	e8 00 00 00 00	 call	 ?GetItemData@CPythonPlayer@@QBEPBUpacket_item@@USItemPos@@@Z ; CPythonPlayer::GetItemData
  0005a	8a 55 10	 mov	 dl, BYTE PTR _byType$[ebp]

; 688  : 	(const_cast <TItemData *>(GetItemData(Cell)))->aAttr[dwAttrIndex].sValue = sValue;

  0005d	51		 push	 ecx
  0005e	8b ce		 mov	 ecx, esi
  00060	88 54 38 19	 mov	 BYTE PTR [eax+edi+25], dl
  00064	8b d4		 mov	 edx, esp
  00066	66 8b 45 08	 mov	 ax, WORD PTR _Cell$[ebp]
  0006a	66 89 02	 mov	 WORD PTR [edx], ax
  0006d	8a 45 0a	 mov	 al, BYTE PTR _Cell$[ebp+2]
  00070	88 42 02	 mov	 BYTE PTR [edx+2], al
  00073	e8 00 00 00 00	 call	 ?GetItemData@CPythonPlayer@@QBEPBUpacket_item@@USItemPos@@@Z ; CPythonPlayer::GetItemData
  00078	66 8b 4d 14	 mov	 cx, WORD PTR _sValue$[ebp]
  0007c	66 89 4c 38 1a	 mov	 WORD PTR [eax+edi+26], cx
$LN1@SetItemAtt:

; 689  : }

  00081	5f		 pop	 edi
  00082	5e		 pop	 esi
  00083	5d		 pop	 ebp
  00084	c2 10 00	 ret	 16			; 00000010H
?SetItemAttribute@CPythonPlayer@@UAEXUSItemPos@@KEF@Z ENDP ; CPythonPlayer::SetItemAttribute
_TEXT	ENDS
; Function compile flags: /Ogtp
; File D:\_m2work\Server Client TMP4\ClientVS22\source\UserInterface\PythonPlayer.cpp
;	COMDAT ?GetQuickPage@CPythonPlayer@@QAEHXZ
_TEXT	SEGMENT
?GetQuickPage@CPythonPlayer@@QAEHXZ PROC		; CPythonPlayer::GetQuickPage, COMDAT
; _this$ = ecx

; 693  : 	return m_playerStatus.lQuickPageIndex;

  00000	8b 81 3c f7 00
	00		 mov	 eax, DWORD PTR [ecx+63292]

; 694  : }

  00006	c3		 ret	 0
?GetQuickPage@CPythonPlayer@@QAEHXZ ENDP		; CPythonPlayer::GetQuickPage
_TEXT	ENDS
; Function compile flags: /Ogtp
; File D:\_m2work\Server Client TMP4\ClientVS22\source\UserInterface\PythonPlayer.cpp
;	COMDAT ?SetQuickPage@CPythonPlayer@@QAEXH@Z
_TEXT	SEGMENT
_nQuickPageIndex$ = 8					; size = 4
?SetQuickPage@CPythonPlayer@@QAEXH@Z PROC		; CPythonPlayer::SetQuickPage, COMDAT
; _this$ = ecx

; 697  : {

  00000	55		 push	 ebp
  00001	8b ec		 mov	 ebp, esp
  00003	8b 55 08	 mov	 edx, DWORD PTR _nQuickPageIndex$[ebp]
  00006	56		 push	 esi
  00007	8b f1		 mov	 esi, ecx

; 698  : 	if (nQuickPageIndex<0)

  00009	85 d2		 test	 edx, edx
  0000b	79 05		 jns	 SHORT $LN2@SetQuickPa

; 699  : 		m_playerStatus.lQuickPageIndex=QUICKSLOT_MAX_LINE+nQuickPageIndex;	

  0000d	83 c2 04	 add	 edx, 4
  00010	eb 0b		 jmp	 SHORT $LN5@SetQuickPa
$LN2@SetQuickPa:

; 700  : 	else if (nQuickPageIndex>=QUICKSLOT_MAX_LINE)
; 701  : 		m_playerStatus.lQuickPageIndex=nQuickPageIndex%QUICKSLOT_MAX_LINE;	

  00012	8b c2		 mov	 eax, edx
  00014	83 e0 03	 and	 eax, 3
  00017	83 fa 04	 cmp	 edx, 4
  0001a	0f 4d d0	 cmovge	 edx, eax
$LN5@SetQuickPa:

; 702  : 	else
; 703  : 		m_playerStatus.lQuickPageIndex=nQuickPageIndex;	
; 704  : 
; 705  : 	PyCallClassMemberFunc(m_ppyGameWindow, "RefreshInventory", Py_BuildValue("()"));

  0001d	68 00 00 00 00	 push	 OFFSET ??_C@_02HCKGKOFO@?$CI?$CJ@
  00022	89 96 3c f7 00
	00		 mov	 DWORD PTR [esi+63292], edx
  00028	ff 15 00 00 00
	00		 call	 DWORD PTR __imp__Py_BuildValue
  0002e	50		 push	 eax
  0002f	68 00 00 00 00	 push	 OFFSET ??_C@_0BB@JLCHKFKI@RefreshInventory@
  00034	ff 76 08	 push	 DWORD PTR [esi+8]
  00037	e8 00 00 00 00	 call	 ?PyCallClassMemberFunc@@YA_NPAU_object@@PBD0@Z ; PyCallClassMemberFunc
  0003c	83 c4 10	 add	 esp, 16			; 00000010H
  0003f	5e		 pop	 esi

; 706  : }

  00040	5d		 pop	 ebp
  00041	c2 04 00	 ret	 4
?SetQuickPage@CPythonPlayer@@QAEXH@Z ENDP		; CPythonPlayer::SetQuickPage
_TEXT	ENDS
; Function compile flags: /Ogtp
; File D:\_m2work\Server Client TMP4\ClientVS22\source\UserInterface\PythonPlayer.cpp
;	COMDAT ?LocalQuickSlotIndexToGlobalQuickSlotIndex@CPythonPlayer@@QAEKK@Z
_TEXT	SEGMENT
_dwLocalSlotIndex$ = 8					; size = 4
?LocalQuickSlotIndexToGlobalQuickSlotIndex@CPythonPlayer@@QAEKK@Z PROC ; CPythonPlayer::LocalQuickSlotIndexToGlobalQuickSlotIndex, COMDAT
; _this$ = ecx

; 709  : {

  00000	55		 push	 ebp
  00001	8b ec		 mov	 ebp, esp

; 710  : 	return m_playerStatus.lQuickPageIndex*QUICKSLOT_MAX_COUNT_PER_LINE+dwLocalSlotIndex;	

  00003	8b 89 3c f7 00
	00		 mov	 ecx, DWORD PTR [ecx+63292]
  00009	8b 45 08	 mov	 eax, DWORD PTR _dwLocalSlotIndex$[ebp]
  0000c	8d 04 c8	 lea	 eax, DWORD PTR [eax+ecx*8]

; 711  : }

  0000f	5d		 pop	 ebp
  00010	c2 04 00	 ret	 4
?LocalQuickSlotIndexToGlobalQuickSlotIndex@CPythonPlayer@@QAEKK@Z ENDP ; CPythonPlayer::LocalQuickSlotIndexToGlobalQuickSlotIndex
_TEXT	ENDS
; Function compile flags: /Ogtp
; File D:\_m2work\Server Client TMP4\ClientVS22\source\UserInterface\PythonPlayer.cpp
;	COMDAT ?GetGlobalQuickSlotData@CPythonPlayer@@QAEXKPAK0@Z
_TEXT	SEGMENT
_dwGlobalSlotIndex$ = 8					; size = 4
_pdwWndType$ = 12					; size = 4
_pdwWndItemPos$ = 16					; size = 4
?GetGlobalQuickSlotData@CPythonPlayer@@QAEXKPAK0@Z PROC	; CPythonPlayer::GetGlobalQuickSlotData, COMDAT
; _this$ = ecx

; 714  : {

  00000	55		 push	 ebp
  00001	8b ec		 mov	 ebp, esp

; 715  : 	TQuickSlot& rkQuickSlot=__RefGlobalQuickSlot(dwGlobalSlotIndex);

  00003	ff 75 08	 push	 DWORD PTR _dwGlobalSlotIndex$[ebp]
  00006	e8 00 00 00 00	 call	 ?__RefGlobalQuickSlot@CPythonPlayer@@IAEAAUSQuickSlot@@H@Z ; CPythonPlayer::__RefGlobalQuickSlot

; 716  : 	*pdwWndType=rkQuickSlot.Type;

  0000b	8b 4d 0c	 mov	 ecx, DWORD PTR _pdwWndType$[ebp]
  0000e	0f b6 10	 movzx	 edx, BYTE PTR [eax]
  00011	89 11		 mov	 DWORD PTR [ecx], edx

; 717  : 	*pdwWndItemPos=rkQuickSlot.Position;

  00013	0f b6 48 01	 movzx	 ecx, BYTE PTR [eax+1]
  00017	8b 45 10	 mov	 eax, DWORD PTR _pdwWndItemPos$[ebp]
  0001a	89 08		 mov	 DWORD PTR [eax], ecx

; 718  : }

  0001c	5d		 pop	 ebp
  0001d	c2 0c 00	 ret	 12			; 0000000cH
?GetGlobalQuickSlotData@CPythonPlayer@@QAEXKPAK0@Z ENDP	; CPythonPlayer::GetGlobalQuickSlotData
_TEXT	ENDS
; Function compile flags: /Ogtp
; File D:\_m2work\Server Client TMP4\ClientVS22\source\UserInterface\PythonPlayer.cpp
;	COMDAT ?GetLocalQuickSlotData@CPythonPlayer@@QAEXKPAK0@Z
_TEXT	SEGMENT
_dwSlotPos$ = 8						; size = 4
_pdwWndType$ = 12					; size = 4
_pdwWndItemPos$ = 16					; size = 4
?GetLocalQuickSlotData@CPythonPlayer@@QAEXKPAK0@Z PROC	; CPythonPlayer::GetLocalQuickSlotData, COMDAT
; _this$ = ecx

; 721  : {

  00000	55		 push	 ebp
  00001	8b ec		 mov	 ebp, esp

; 722  : 	TQuickSlot& rkQuickSlot=__RefLocalQuickSlot(dwSlotPos);

  00003	ff 75 08	 push	 DWORD PTR _dwSlotPos$[ebp]
  00006	e8 00 00 00 00	 call	 ?__RefLocalQuickSlot@CPythonPlayer@@IAEAAUSQuickSlot@@H@Z ; CPythonPlayer::__RefLocalQuickSlot

; 723  : 	*pdwWndType=rkQuickSlot.Type;

  0000b	8b 4d 0c	 mov	 ecx, DWORD PTR _pdwWndType$[ebp]
  0000e	0f b6 10	 movzx	 edx, BYTE PTR [eax]
  00011	89 11		 mov	 DWORD PTR [ecx], edx

; 724  : 	*pdwWndItemPos=rkQuickSlot.Position;

  00013	0f b6 48 01	 movzx	 ecx, BYTE PTR [eax+1]
  00017	8b 45 10	 mov	 eax, DWORD PTR _pdwWndItemPos$[ebp]
  0001a	89 08		 mov	 DWORD PTR [eax], ecx

; 725  : }

  0001c	5d		 pop	 ebp
  0001d	c2 0c 00	 ret	 12			; 0000000cH
?GetLocalQuickSlotData@CPythonPlayer@@QAEXKPAK0@Z ENDP	; CPythonPlayer::GetLocalQuickSlotData
_TEXT	ENDS
; Function compile flags: /Ogtp
; File D:\_m2work\Server Client TMP4\ClientVS22\source\UserInterface\PythonPlayer.cpp
;	COMDAT ?__RefLocalQuickSlot@CPythonPlayer@@IAEAAUSQuickSlot@@H@Z
_TEXT	SEGMENT
_SlotIndex$ = 8						; size = 4
?__RefLocalQuickSlot@CPythonPlayer@@IAEAAUSQuickSlot@@H@Z PROC ; CPythonPlayer::__RefLocalQuickSlot, COMDAT
; _this$ = ecx

; 728  : {

  00000	55		 push	 ebp
  00001	8b ec		 mov	 ebp, esp

; 729  : 	return __RefGlobalQuickSlot(LocalQuickSlotIndexToGlobalQuickSlotIndex(SlotIndex));

  00003	ff 75 08	 push	 DWORD PTR _SlotIndex$[ebp]
  00006	8b d1		 mov	 edx, ecx
  00008	e8 00 00 00 00	 call	 ?LocalQuickSlotIndexToGlobalQuickSlotIndex@CPythonPlayer@@QAEKK@Z ; CPythonPlayer::LocalQuickSlotIndexToGlobalQuickSlotIndex
  0000d	89 45 08	 mov	 DWORD PTR _SlotIndex$[ebp], eax
  00010	8b ca		 mov	 ecx, edx

; 730  : }

  00012	5d		 pop	 ebp

; 729  : 	return __RefGlobalQuickSlot(LocalQuickSlotIndexToGlobalQuickSlotIndex(SlotIndex));

  00013	e9 00 00 00 00	 jmp	 ?__RefGlobalQuickSlot@CPythonPlayer@@IAEAAUSQuickSlot@@H@Z ; CPythonPlayer::__RefGlobalQuickSlot
?__RefLocalQuickSlot@CPythonPlayer@@IAEAAUSQuickSlot@@H@Z ENDP ; CPythonPlayer::__RefLocalQuickSlot
_TEXT	ENDS
; Function compile flags: /Ogtp
; File D:\_m2work\Server Client TMP4\ClientVS22\source\UserInterface\PythonPlayer.cpp
;	COMDAT ?__RefGlobalQuickSlot@CPythonPlayer@@IAEAAUSQuickSlot@@H@Z
_TEXT	SEGMENT
_SlotIndex$ = 8						; size = 4
?__RefGlobalQuickSlot@CPythonPlayer@@IAEAAUSQuickSlot@@H@Z PROC ; CPythonPlayer::__RefGlobalQuickSlot, COMDAT
; _this$ = ecx

; 733  : {

  00000	55		 push	 ebp
  00001	8b ec		 mov	 ebp, esp
  00003	8b 45 08	 mov	 eax, DWORD PTR _SlotIndex$[ebp]

; 734  : 	if (SlotIndex < 0 || SlotIndex >= QUICKSLOT_MAX_NUM)

  00006	83 f8 23	 cmp	 eax, 35			; 00000023H
  00009	77 0c		 ja	 SHORT $LN3@RefGlobalQ

; 740  : 	}
; 741  : 
; 742  : 	return m_playerStatus.aQuickSlot[SlotIndex];

  0000b	05 90 65 00 00	 add	 eax, 26000		; 00006590H
  00010	8d 04 41	 lea	 eax, DWORD PTR [ecx+eax*2]

; 743  : }

  00013	5d		 pop	 ebp
  00014	c2 04 00	 ret	 4
$LN3@RefGlobalQ:

; 735  : 	{
; 736  : 		static TQuickSlot s_kQuickSlot;
; 737  : 		s_kQuickSlot.Type = 0;

  00017	66 c7 05 00 00
	00 00 00 00	 mov	 WORD PTR ?s_kQuickSlot@?4??__RefGlobalQuickSlot@CPythonPlayer@@IAEAAUSQuickSlot@@H@Z@4U3@A, 0

; 738  : 		s_kQuickSlot.Position = 0;
; 739  : 		return s_kQuickSlot;

  00020	b8 00 00 00 00	 mov	 eax, OFFSET ?s_kQuickSlot@?4??__RefGlobalQuickSlot@CPythonPlayer@@IAEAAUSQuickSlot@@H@Z@4U3@A

; 743  : }

  00025	5d		 pop	 ebp
  00026	c2 04 00	 ret	 4
?__RefGlobalQuickSlot@CPythonPlayer@@IAEAAUSQuickSlot@@H@Z ENDP ; CPythonPlayer::__RefGlobalQuickSlot
_TEXT	ENDS
; Function compile flags: /Ogtp
; File D:\_m2work\Server Client TMP4\ClientVS22\source\UserInterface\PythonPlayer.cpp
;	COMDAT ?RemoveQuickSlotByValue@CPythonPlayer@@QAEXHH@Z
_TEXT	SEGMENT
_i$1 = -4						; size = 1
_iType$ = 8						; size = 4
_iPosition$ = 12					; size = 4
?RemoveQuickSlotByValue@CPythonPlayer@@QAEXHH@Z PROC	; CPythonPlayer::RemoveQuickSlotByValue, COMDAT
; _this$ = ecx

; 746  : {

  00000	55		 push	 ebp
  00001	8b ec		 mov	 ebp, esp
  00003	51		 push	 ecx
  00004	53		 push	 ebx
  00005	56		 push	 esi

; 747  : 	for (BYTE i = 0; i < QUICKSLOT_MAX_NUM; ++i)

  00006	32 db		 xor	 bl, bl
  00008	8d b1 21 cb 00
	00		 lea	 esi, DWORD PTR [ecx+52001]
  0000e	57		 push	 edi
  0000f	8b 7d 0c	 mov	 edi, DWORD PTR _iPosition$[ebp]
  00012	88 5d fc	 mov	 BYTE PTR _i$1[ebp], bl
$LL4@RemoveQuic:

; 748  : 	{
; 749  : 		if (iType == m_playerStatus.aQuickSlot[i].Type)

  00015	0f b6 46 ff	 movzx	 eax, BYTE PTR [esi-1]
  00019	39 45 08	 cmp	 DWORD PTR _iType$[ebp], eax
  0001c	75 15		 jne	 SHORT $LN2@RemoveQuic

; 750  : 			if (iPosition == m_playerStatus.aQuickSlot[i].Position)

  0001e	0f b6 06	 movzx	 eax, BYTE PTR [esi]
  00021	3b f8		 cmp	 edi, eax
  00023	75 0e		 jne	 SHORT $LN2@RemoveQuic

; 751  : 				CPythonNetworkStream::Instance().SendQuickSlotDelPacket(i);

  00025	ff 75 fc	 push	 DWORD PTR _i$1[ebp]
  00028	8b 0d 00 00 00
	00		 mov	 ecx, DWORD PTR ?ms_singleton@?$CSingleton@VCPythonNetworkStream@@@@0PAVCPythonNetworkStream@@A ; CSingleton<CPythonNetworkStream>::ms_singleton
  0002e	e8 00 00 00 00	 call	 ?SendQuickSlotDelPacket@CPythonNetworkStream@@QAE_NE@Z ; CPythonNetworkStream::SendQuickSlotDelPacket
$LN2@RemoveQuic:

; 747  : 	for (BYTE i = 0; i < QUICKSLOT_MAX_NUM; ++i)

  00033	fe c3		 inc	 bl
  00035	83 c6 02	 add	 esi, 2
  00038	88 5d fc	 mov	 BYTE PTR _i$1[ebp], bl
  0003b	80 fb 24	 cmp	 bl, 36			; 00000024H
  0003e	72 d5		 jb	 SHORT $LL4@RemoveQuic
  00040	5f		 pop	 edi
  00041	5e		 pop	 esi
  00042	5b		 pop	 ebx

; 752  : 	}
; 753  : }

  00043	8b e5		 mov	 esp, ebp
  00045	5d		 pop	 ebp
  00046	c2 08 00	 ret	 8
?RemoveQuickSlotByValue@CPythonPlayer@@QAEXHH@Z ENDP	; CPythonPlayer::RemoveQuickSlotByValue
_TEXT	ENDS
; Function compile flags: /Ogtp
; File D:\_m2work\Server Client TMP4\ClientVS22\source\UserInterface\PythonPlayer.cpp
; File D:\_m2work\Server Client TMP4\ClientVS22\source\UserInterface\GameType.h
; File D:\_m2work\Server Client TMP4\ClientVS22\source\UserInterface\PythonPlayer.cpp
; File D:\_m2work\Server Client TMP4\ClientVS22\source\UserInterface\GameType.h
; File D:\_m2work\Server Client TMP4\ClientVS22\source\UserInterface\PythonPlayer.cpp
;	COMDAT ?IsItem@CPythonPlayer@@QAEDUSItemPos@@@Z
_TEXT	SEGMENT
_Cell$ = 8						; size = 3
?IsItem@CPythonPlayer@@QAEDUSItemPos@@@Z PROC		; CPythonPlayer::IsItem, COMDAT
; _this$ = ecx

; 756  : {

  00000	55		 push	 ebp
  00001	8b ec		 mov	 ebp, esp
; File D:\_m2work\Server Client TMP4\ClientVS22\source\UserInterface\GameType.h

; 206  : 		switch (window_type)

  00003	66 8b 55 08	 mov	 dx, WORD PTR _Cell$[ebp]
  00007	0f b6 c2	 movzx	 eax, dl
; File D:\_m2work\Server Client TMP4\ClientVS22\source\UserInterface\PythonPlayer.cpp

; 756  : {

  0000a	56		 push	 esi
  0000b	8b f1		 mov	 esi, ecx
; File D:\_m2work\Server Client TMP4\ClientVS22\source\UserInterface\GameType.h

; 206  : 		switch (window_type)

  0000d	83 e8 01	 sub	 eax, 1
  00010	74 18		 je	 SHORT $LN7@IsItem
  00012	83 e8 01	 sub	 eax, 1
  00015	74 0c		 je	 SHORT $LN8@IsItem
  00017	83 e8 03	 sub	 eax, 3
  0001a	75 1e		 jne	 SHORT $LN12@IsItem

; 213  : 			break;
; 214  : 		case DRAGON_SOUL_INVENTORY:
; 215  : 			return cell < (DS_INVENTORY_MAX_NUM);

  0001c	b8 c0 03 00 00	 mov	 eax, 960		; 000003c0H
  00021	eb 0c		 jmp	 SHORT $LN16@IsItem
$LN8@IsItem:

; 210  : 			break;
; 211  : 		case EQUIPMENT:
; 212  : 			return cell < c_DragonSoul_Equip_End;

  00023	b8 86 00 00 00	 mov	 eax, 134		; 00000086H
  00028	eb 05		 jmp	 SHORT $LN16@IsItem
$LN7@IsItem:

; 207  : 		{
; 208  : 		case INVENTORY:
; 209  : 			return cell < c_Inventory_Count;

  0002a	b8 a8 00 00 00	 mov	 eax, 168		; 000000a8H
$LN16@IsItem:
; File D:\_m2work\Server Client TMP4\ClientVS22\source\UserInterface\PythonPlayer.cpp

; 757  : 	if (!Cell.IsValidCell())

  0002f	66 39 45 09	 cmp	 WORD PTR _Cell$[ebp+1], ax
  00033	0f 92 c0	 setb	 al
  00036	84 c0		 test	 al, al
  00038	75 07		 jne	 SHORT $LN2@IsItem
$LN12@IsItem:

; 758  : 		return 0;

  0003a	32 c0		 xor	 al, al

; 761  : }

  0003c	5e		 pop	 esi
  0003d	5d		 pop	 ebp
  0003e	c2 04 00	 ret	 4
$LN2@IsItem:

; 759  : 
; 760  : 	return 0 != GetItemData(Cell)->vnum;

  00041	8a 45 0a	 mov	 al, BYTE PTR _Cell$[ebp+2]
  00044	51		 push	 ecx
  00045	8b cc		 mov	 ecx, esp
  00047	66 89 11	 mov	 WORD PTR [ecx], dx
  0004a	88 41 02	 mov	 BYTE PTR [ecx+2], al
  0004d	8b ce		 mov	 ecx, esi
  0004f	e8 00 00 00 00	 call	 ?GetItemData@CPythonPlayer@@QBEPBUpacket_item@@USItemPos@@@Z ; CPythonPlayer::GetItemData

; 761  : }

  00054	5e		 pop	 esi
  00055	83 38 00	 cmp	 DWORD PTR [eax], 0
  00058	0f 95 c0	 setne	 al
  0005b	5d		 pop	 ebp
  0005c	c2 04 00	 ret	 4
?IsItem@CPythonPlayer@@QAEDUSItemPos@@@Z ENDP		; CPythonPlayer::IsItem
_TEXT	ENDS
; Function compile flags: /Ogtp
; File D:\_m2work\Server Client TMP4\ClientVS22\source\UserInterface\PythonPlayer.cpp
;	COMDAT ?RequestMoveGlobalQuickSlotToLocalQuickSlot@CPythonPlayer@@QAEXKK@Z
_TEXT	SEGMENT
_dwGlobalSrcSlotIndex$ = 8				; size = 4
_dwLocalDstSlotIndex$ = 12				; size = 4
?RequestMoveGlobalQuickSlotToLocalQuickSlot@CPythonPlayer@@QAEXKK@Z PROC ; CPythonPlayer::RequestMoveGlobalQuickSlotToLocalQuickSlot, COMDAT
; _this$ = ecx

; 764  : {

  00000	55		 push	 ebp
  00001	8b ec		 mov	 ebp, esp

; 765  : 	//DWORD dwGlobalSrcSlotIndex=LocalQuickSlotIndexToGlobalQuickSlotIndex(dwLocalSrcSlotIndex);
; 766  : 	DWORD dwGlobalDstSlotIndex=LocalQuickSlotIndexToGlobalQuickSlotIndex(dwLocalDstSlotIndex);

  00003	ff 75 0c	 push	 DWORD PTR _dwLocalDstSlotIndex$[ebp]
  00006	e8 00 00 00 00	 call	 ?LocalQuickSlotIndexToGlobalQuickSlotIndex@CPythonPlayer@@QAEKK@Z ; CPythonPlayer::LocalQuickSlotIndexToGlobalQuickSlotIndex

; 767  : 
; 768  : 	CPythonNetworkStream& rkNetStream=CPythonNetworkStream::Instance();
; 769  : 	rkNetStream.SendQuickSlotMovePacket((BYTE) dwGlobalSrcSlotIndex, (BYTE)dwGlobalDstSlotIndex);

  0000b	89 45 0c	 mov	 DWORD PTR _dwLocalDstSlotIndex$[ebp], eax
  0000e	8b 0d 00 00 00
	00		 mov	 ecx, DWORD PTR ?ms_singleton@?$CSingleton@VCPythonNetworkStream@@@@0PAVCPythonNetworkStream@@A ; CSingleton<CPythonNetworkStream>::ms_singleton

; 770  : }

  00014	5d		 pop	 ebp

; 767  : 
; 768  : 	CPythonNetworkStream& rkNetStream=CPythonNetworkStream::Instance();
; 769  : 	rkNetStream.SendQuickSlotMovePacket((BYTE) dwGlobalSrcSlotIndex, (BYTE)dwGlobalDstSlotIndex);

  00015	e9 00 00 00 00	 jmp	 ?SendQuickSlotMovePacket@CPythonNetworkStream@@QAE_NEE@Z ; CPythonNetworkStream::SendQuickSlotMovePacket
?RequestMoveGlobalQuickSlotToLocalQuickSlot@CPythonPlayer@@QAEXKK@Z ENDP ; CPythonPlayer::RequestMoveGlobalQuickSlotToLocalQuickSlot
_TEXT	ENDS
; Function compile flags: /Ogtp
; File D:\_m2work\Server Client TMP4\ClientVS22\source\UserInterface\PythonPlayer.cpp
;	COMDAT ?RequestAddLocalQuickSlot@CPythonPlayer@@QAEXKKK@Z
_TEXT	SEGMENT
_dwLocalSlotIndex$ = 8					; size = 4
_dwWndType$ = 12					; size = 4
_dwWndItemPos$ = 16					; size = 4
?RequestAddLocalQuickSlot@CPythonPlayer@@QAEXKKK@Z PROC	; CPythonPlayer::RequestAddLocalQuickSlot, COMDAT
; _this$ = ecx

; 773  : {

  00000	55		 push	 ebp
  00001	8b ec		 mov	 ebp, esp

; 774  : 	if (dwLocalSlotIndex>=QUICKSLOT_MAX_COUNT_PER_LINE)

  00003	8b 45 08	 mov	 eax, DWORD PTR _dwLocalSlotIndex$[ebp]
  00006	83 f8 08	 cmp	 eax, 8
  00009	73 15		 jae	 SHORT $LN1@RequestAdd

; 775  : 		return;
; 776  : 
; 777  : 	DWORD dwGlobalSlotIndex=LocalQuickSlotIndexToGlobalQuickSlotIndex(dwLocalSlotIndex);

  0000b	50		 push	 eax
  0000c	e8 00 00 00 00	 call	 ?LocalQuickSlotIndexToGlobalQuickSlotIndex@CPythonPlayer@@QAEKK@Z ; CPythonPlayer::LocalQuickSlotIndexToGlobalQuickSlotIndex

; 778  : 
; 779  : 	CPythonNetworkStream& rkNetStream=CPythonNetworkStream::Instance();
; 780  : 	rkNetStream.SendQuickSlotAddPacket((BYTE)dwGlobalSlotIndex, (BYTE)dwWndType, (BYTE)dwWndItemPos);

  00011	89 45 08	 mov	 DWORD PTR _dwLocalSlotIndex$[ebp], eax
  00014	8b 0d 00 00 00
	00		 mov	 ecx, DWORD PTR ?ms_singleton@?$CSingleton@VCPythonNetworkStream@@@@0PAVCPythonNetworkStream@@A ; CSingleton<CPythonNetworkStream>::ms_singleton

; 781  : }

  0001a	5d		 pop	 ebp

; 778  : 
; 779  : 	CPythonNetworkStream& rkNetStream=CPythonNetworkStream::Instance();
; 780  : 	rkNetStream.SendQuickSlotAddPacket((BYTE)dwGlobalSlotIndex, (BYTE)dwWndType, (BYTE)dwWndItemPos);

  0001b	e9 00 00 00 00	 jmp	 ?SendQuickSlotAddPacket@CPythonNetworkStream@@QAE_NEEE@Z ; CPythonNetworkStream::SendQuickSlotAddPacket
$LN1@RequestAdd:

; 781  : }

  00020	5d		 pop	 ebp
  00021	c2 0c 00	 ret	 12			; 0000000cH
?RequestAddLocalQuickSlot@CPythonPlayer@@QAEXKKK@Z ENDP	; CPythonPlayer::RequestAddLocalQuickSlot
_TEXT	ENDS
; Function compile flags: /Ogtp
; File D:\_m2work\Server Client TMP4\ClientVS22\source\UserInterface\PythonPlayer.cpp
;	COMDAT ?RequestAddToEmptyLocalQuickSlot@CPythonPlayer@@QAEXKK@Z
_TEXT	SEGMENT
_dwWndType$ = 8						; size = 4
_dwWndItemPos$ = 12					; size = 4
?RequestAddToEmptyLocalQuickSlot@CPythonPlayer@@QAEXKK@Z PROC ; CPythonPlayer::RequestAddToEmptyLocalQuickSlot, COMDAT
; _this$ = ecx

; 784  : {

  00000	55		 push	 ebp
  00001	8b ec		 mov	 ebp, esp
  00003	56		 push	 esi
  00004	57		 push	 edi
  00005	8b f9		 mov	 edi, ecx

; 785  :     for (int i = 0; i < QUICKSLOT_MAX_COUNT_PER_LINE; ++i)

  00007	33 f6		 xor	 esi, esi
  00009	0f 1f 80 00 00
	00 00		 npad	 7
$LL4@RequestAdd:

; 786  :     {
; 787  :         TQuickSlot& rkQuickSlot=__RefLocalQuickSlot(i);

  00010	56		 push	 esi
  00011	8b cf		 mov	 ecx, edi
  00013	e8 00 00 00 00	 call	 ?__RefLocalQuickSlot@CPythonPlayer@@IAEAAUSQuickSlot@@H@Z ; CPythonPlayer::__RefLocalQuickSlot

; 788  : 
; 789  :         if (0 == rkQuickSlot.Type)

  00018	80 38 00	 cmp	 BYTE PTR [eax], 0
  0001b	74 0c		 je	 SHORT $LN8@RequestAdd

; 785  :     for (int i = 0; i < QUICKSLOT_MAX_COUNT_PER_LINE; ++i)

  0001d	46		 inc	 esi
  0001e	83 fe 08	 cmp	 esi, 8
  00021	7c ed		 jl	 SHORT $LL4@RequestAdd

; 794  :             return;
; 795  :         }
; 796  :     }
; 797  : 
; 798  : }

  00023	5f		 pop	 edi
  00024	5e		 pop	 esi
  00025	5d		 pop	 ebp
  00026	c2 08 00	 ret	 8
$LN8@RequestAdd:

; 790  :         {
; 791  :             DWORD dwGlobalQuickSlotIndex=LocalQuickSlotIndexToGlobalQuickSlotIndex(i);

  00029	56		 push	 esi
  0002a	8b cf		 mov	 ecx, edi
  0002c	e8 00 00 00 00	 call	 ?LocalQuickSlotIndexToGlobalQuickSlotIndex@CPythonPlayer@@QAEKK@Z ; CPythonPlayer::LocalQuickSlotIndexToGlobalQuickSlotIndex

; 792  :             CPythonNetworkStream& rkNetStream=CPythonNetworkStream::Instance();
; 793  :             rkNetStream.SendQuickSlotAddPacket((BYTE)dwGlobalQuickSlotIndex, (BYTE)dwWndType, (BYTE)dwWndItemPos);

  00031	ff 75 0c	 push	 DWORD PTR _dwWndItemPos$[ebp]
  00034	8b 0d 00 00 00
	00		 mov	 ecx, DWORD PTR ?ms_singleton@?$CSingleton@VCPythonNetworkStream@@@@0PAVCPythonNetworkStream@@A ; CSingleton<CPythonNetworkStream>::ms_singleton
  0003a	ff 75 08	 push	 DWORD PTR _dwWndType$[ebp]
  0003d	50		 push	 eax
  0003e	e8 00 00 00 00	 call	 ?SendQuickSlotAddPacket@CPythonNetworkStream@@QAE_NEEE@Z ; CPythonNetworkStream::SendQuickSlotAddPacket
  00043	5f		 pop	 edi

; 794  :             return;
; 795  :         }
; 796  :     }
; 797  : 
; 798  : }

  00044	5e		 pop	 esi
  00045	5d		 pop	 ebp
  00046	c2 08 00	 ret	 8
?RequestAddToEmptyLocalQuickSlot@CPythonPlayer@@QAEXKK@Z ENDP ; CPythonPlayer::RequestAddToEmptyLocalQuickSlot
_TEXT	ENDS
; Function compile flags: /Ogtp
; File D:\_m2work\Server Client TMP4\ClientVS22\source\UserInterface\PythonPlayer.cpp
;	COMDAT ?RequestDeleteGlobalQuickSlot@CPythonPlayer@@QAEXK@Z
_TEXT	SEGMENT
_dwGlobalSlotIndex$ = 8					; size = 4
?RequestDeleteGlobalQuickSlot@CPythonPlayer@@QAEXK@Z PROC ; CPythonPlayer::RequestDeleteGlobalQuickSlot, COMDAT
; _this$dead$ = ecx

; 801  : {

  00000	55		 push	 ebp
  00001	8b ec		 mov	 ebp, esp

; 802  : 	if (dwGlobalSlotIndex>=QUICKSLOT_MAX_COUNT)

  00003	8b 45 08	 mov	 eax, DWORD PTR _dwGlobalSlotIndex$[ebp]
  00006	83 f8 20	 cmp	 eax, 32			; 00000020H
  00009	73 0f		 jae	 SHORT $LN1@RequestDel

; 803  : 		return;
; 804  : 
; 805  : 	//if (dwLocalSlotIndex>=QUICKSLOT_MAX_SLOT_PER_LINE)
; 806  : 	//	return;
; 807  : 
; 808  : 	//DWORD dwGlobalSlotIndex=LocalQuickSlotIndexToGlobalQuickSlotIndex(dwLocalSlotIndex);
; 809  : 
; 810  : 	CPythonNetworkStream& rkNetStream=CPythonNetworkStream::Instance();
; 811  : 	rkNetStream.SendQuickSlotDelPacket((BYTE)dwGlobalSlotIndex);

  0000b	89 45 08	 mov	 DWORD PTR _dwGlobalSlotIndex$[ebp], eax
  0000e	8b 0d 00 00 00
	00		 mov	 ecx, DWORD PTR ?ms_singleton@?$CSingleton@VCPythonNetworkStream@@@@0PAVCPythonNetworkStream@@A ; CSingleton<CPythonNetworkStream>::ms_singleton

; 812  : }

  00014	5d		 pop	 ebp

; 803  : 		return;
; 804  : 
; 805  : 	//if (dwLocalSlotIndex>=QUICKSLOT_MAX_SLOT_PER_LINE)
; 806  : 	//	return;
; 807  : 
; 808  : 	//DWORD dwGlobalSlotIndex=LocalQuickSlotIndexToGlobalQuickSlotIndex(dwLocalSlotIndex);
; 809  : 
; 810  : 	CPythonNetworkStream& rkNetStream=CPythonNetworkStream::Instance();
; 811  : 	rkNetStream.SendQuickSlotDelPacket((BYTE)dwGlobalSlotIndex);

  00015	e9 00 00 00 00	 jmp	 ?SendQuickSlotDelPacket@CPythonNetworkStream@@QAE_NE@Z ; CPythonNetworkStream::SendQuickSlotDelPacket
$LN1@RequestDel:

; 812  : }

  0001a	5d		 pop	 ebp
  0001b	c2 04 00	 ret	 4
?RequestDeleteGlobalQuickSlot@CPythonPlayer@@QAEXK@Z ENDP ; CPythonPlayer::RequestDeleteGlobalQuickSlot
_TEXT	ENDS
; Function compile flags: /Ogtp
; File D:\_m2work\Server Client TMP4\ClientVS22\source\UserInterface\PythonPlayer.cpp
; File D:\_m2work\Server Client TMP4\ClientVS22\source\UserInterface\GameType.h
; File D:\_m2work\Server Client TMP4\ClientVS22\source\UserInterface\PythonPlayer.cpp
; File D:\_m2work\Server Client TMP4\ClientVS22\source\UserInterface\GameType.h
; File D:\_m2work\Server Client TMP4\ClientVS22\source\UserInterface\PythonPlayer.cpp
;	COMDAT ?RequestUseLocalQuickSlot@CPythonPlayer@@QAEXK@Z
_TEXT	SEGMENT
_dwRegisteredItemPos$ = -4				; size = 4
_dwLocalSlotIndex$ = 8					; size = 4
_dwRegisteredType$ = 8					; size = 4
$T1 = 9							; size = 3
?RequestUseLocalQuickSlot@CPythonPlayer@@QAEXK@Z PROC	; CPythonPlayer::RequestUseLocalQuickSlot, COMDAT
; _this$ = ecx

; 815  : {

  00000	55		 push	 ebp
  00001	8b ec		 mov	 ebp, esp
  00003	51		 push	 ecx

; 816  : 	if (dwLocalSlotIndex>=QUICKSLOT_MAX_COUNT_PER_LINE)

  00004	8b 45 08	 mov	 eax, DWORD PTR _dwLocalSlotIndex$[ebp]
  00007	56		 push	 esi
  00008	8b f1		 mov	 esi, ecx
  0000a	83 f8 08	 cmp	 eax, 8
  0000d	0f 83 80 00 00
	00		 jae	 $LN2@RequestUse

; 817  : 		return;
; 818  : 
; 819  : 	DWORD dwRegisteredType;
; 820  : 	DWORD dwRegisteredItemPos;
; 821  : 	GetLocalQuickSlotData(dwLocalSlotIndex, &dwRegisteredType, &dwRegisteredItemPos);

  00013	8d 4d fc	 lea	 ecx, DWORD PTR _dwRegisteredItemPos$[ebp]
  00016	51		 push	 ecx
  00017	8d 4d 08	 lea	 ecx, DWORD PTR _dwRegisteredType$[ebp]
  0001a	51		 push	 ecx
  0001b	50		 push	 eax
  0001c	8b ce		 mov	 ecx, esi
  0001e	e8 00 00 00 00	 call	 ?GetLocalQuickSlotData@CPythonPlayer@@QAEXKPAK0@Z ; CPythonPlayer::GetLocalQuickSlotData

; 822  : 
; 823  : 	switch (dwRegisteredType)

  00023	8b 45 08	 mov	 eax, DWORD PTR _dwRegisteredType$[ebp]
  00026	83 e8 01	 sub	 eax, 1
  00029	74 41		 je	 SHORT $LN5@RequestUse
  0002b	83 e8 01	 sub	 eax, 1
  0002e	74 2b		 je	 SHORT $LN6@RequestUse
  00030	83 e8 01	 sub	 eax, 1
  00033	75 5e		 jne	 SHORT $LN2@RequestUse

; 834  : 			break;
; 835  : 		}
; 836  : 		case SLOT_TYPE_EMOTION:
; 837  : 		{
; 838  : 			PyCallClassMemberFunc(m_ppyGameWindow, "BINARY_ActEmotion", Py_BuildValue("(i)", dwRegisteredItemPos));

  00035	ff 75 fc	 push	 DWORD PTR _dwRegisteredItemPos$[ebp]
  00038	68 00 00 00 00	 push	 OFFSET ??_C@_03LIHNMIHG@?$CIi?$CJ@
  0003d	ff 15 00 00 00
	00		 call	 DWORD PTR __imp__Py_BuildValue
  00043	50		 push	 eax
  00044	68 00 00 00 00	 push	 OFFSET ??_C@_0BC@GAEKBOHM@BINARY_ActEmotion@
  00049	ff 76 08	 push	 DWORD PTR [esi+8]
  0004c	e8 00 00 00 00	 call	 ?PyCallClassMemberFunc@@YA_NPAU_object@@PBD0@Z ; PyCallClassMemberFunc
  00051	83 c4 14	 add	 esp, 20			; 00000014H

; 839  : 			break;
; 840  : 		}
; 841  : 	}
; 842  : }

  00054	5e		 pop	 esi
  00055	8b e5		 mov	 esp, ebp
  00057	5d		 pop	 ebp
  00058	c2 04 00	 ret	 4
$LN6@RequestUse:

; 829  : 			break;
; 830  : 		}
; 831  : 		case SLOT_TYPE_SKILL:
; 832  : 		{
; 833  : 			ClickSkillSlot(dwRegisteredItemPos);

  0005b	ff 75 fc	 push	 DWORD PTR _dwRegisteredItemPos$[ebp]
  0005e	8b ce		 mov	 ecx, esi
  00060	e8 00 00 00 00	 call	 ?ClickSkillSlot@CPythonPlayer@@QAEXK@Z ; CPythonPlayer::ClickSkillSlot

; 839  : 			break;
; 840  : 		}
; 841  : 	}
; 842  : }

  00065	5e		 pop	 esi
  00066	8b e5		 mov	 esp, ebp
  00068	5d		 pop	 ebp
  00069	c2 04 00	 ret	 4
$LN5@RequestUse:
; File D:\_m2work\Server Client TMP4\ClientVS22\source\UserInterface\GameType.h

; 192  :         cell = _cell;

  0006c	0f b7 45 fc	 movzx	 eax, WORD PTR _dwRegisteredItemPos$[ebp]
; File D:\_m2work\Server Client TMP4\ClientVS22\source\UserInterface\PythonPlayer.cpp

; 828  : 			rkNetStream.SendItemUsePacket(TItemPos(INVENTORY, (WORD)dwRegisteredItemPos));

  00070	51		 push	 ecx
  00071	8b cc		 mov	 ecx, esp
; File D:\_m2work\Server Client TMP4\ClientVS22\source\UserInterface\GameType.h

; 192  :         cell = _cell;

  00073	66 89 45 0a	 mov	 WORD PTR $T1[ebp+1], ax
  00077	c6 45 09 01	 mov	 BYTE PTR $T1[ebp], 1
; File D:\_m2work\Server Client TMP4\ClientVS22\source\UserInterface\PythonPlayer.cpp

; 828  : 			rkNetStream.SendItemUsePacket(TItemPos(INVENTORY, (WORD)dwRegisteredItemPos));

  0007b	0f b7 45 09	 movzx	 eax, WORD PTR $T1[ebp]
  0007f	66 89 01	 mov	 WORD PTR [ecx], ax
  00082	8a 45 0b	 mov	 al, BYTE PTR $T1[ebp+2]
  00085	88 41 02	 mov	 BYTE PTR [ecx+2], al
  00088	8b 0d 00 00 00
	00		 mov	 ecx, DWORD PTR ?ms_singleton@?$CSingleton@VCPythonNetworkStream@@@@0PAVCPythonNetworkStream@@A ; CSingleton<CPythonNetworkStream>::ms_singleton
  0008e	e8 00 00 00 00	 call	 ?SendItemUsePacket@CPythonNetworkStream@@QAE_NUSItemPos@@@Z ; CPythonNetworkStream::SendItemUsePacket
$LN2@RequestUse:

; 839  : 			break;
; 840  : 		}
; 841  : 	}
; 842  : }

  00093	5e		 pop	 esi
  00094	8b e5		 mov	 esp, ebp
  00096	5d		 pop	 ebp
  00097	c2 04 00	 ret	 4
?RequestUseLocalQuickSlot@CPythonPlayer@@QAEXK@Z ENDP	; CPythonPlayer::RequestUseLocalQuickSlot
_TEXT	ENDS
; Function compile flags: /Ogtp
; File D:\_m2work\Server Client TMP4\ClientVS22\source\UserInterface\PythonPlayer.cpp
;	COMDAT ?AddQuickSlot@CPythonPlayer@@UAEXHDD@Z
_TEXT	SEGMENT
_QuickSlotIndex$ = 8					; size = 4
_IconType$ = 12						; size = 1
_IconPosition$ = 16					; size = 1
?AddQuickSlot@CPythonPlayer@@UAEXHDD@Z PROC		; CPythonPlayer::AddQuickSlot, COMDAT
; _this$ = ecx

; 845  : {

  00000	55		 push	 ebp
  00001	8b ec		 mov	 ebp, esp

; 846  : 	if (QuickSlotIndex < 0 || QuickSlotIndex >= QUICKSLOT_MAX_NUM)

  00003	8b 55 08	 mov	 edx, DWORD PTR _QuickSlotIndex$[ebp]
  00006	83 fa 23	 cmp	 edx, 35			; 00000023H
  00009	77 14		 ja	 SHORT $LN3@AddQuickSl

; 847  : 		return;
; 848  : 
; 849  : 	m_playerStatus.aQuickSlot[QuickSlotIndex].Type = IconType;

  0000b	8a 45 0c	 mov	 al, BYTE PTR _IconType$[ebp]
  0000e	88 84 51 1c cb
	00 00		 mov	 BYTE PTR [ecx+edx*2+51996], al

; 850  : 	m_playerStatus.aQuickSlot[QuickSlotIndex].Position = IconPosition;

  00015	8a 45 10	 mov	 al, BYTE PTR _IconPosition$[ebp]
  00018	88 84 51 1d cb
	00 00		 mov	 BYTE PTR [ecx+edx*2+51997], al
$LN3@AddQuickSl:

; 851  : }

  0001f	5d		 pop	 ebp
  00020	c2 0c 00	 ret	 12			; 0000000cH
?AddQuickSlot@CPythonPlayer@@UAEXHDD@Z ENDP		; CPythonPlayer::AddQuickSlot
_TEXT	ENDS
; Function compile flags: /Ogtp
; File D:\_m2work\Server Client TMP4\ClientVS22\source\UserInterface\PythonPlayer.cpp
;	COMDAT ?DeleteQuickSlot@CPythonPlayer@@UAEXH@Z
_TEXT	SEGMENT
_QuickSlotIndex$ = 8					; size = 4
?DeleteQuickSlot@CPythonPlayer@@UAEXH@Z PROC		; CPythonPlayer::DeleteQuickSlot, COMDAT
; _this$ = ecx

; 854  : {

  00000	55		 push	 ebp
  00001	8b ec		 mov	 ebp, esp

; 855  : 	if (QuickSlotIndex < 0 || QuickSlotIndex >= QUICKSLOT_MAX_NUM)

  00003	8b 45 08	 mov	 eax, DWORD PTR _QuickSlotIndex$[ebp]
  00006	83 f8 23	 cmp	 eax, 35			; 00000023H
  00009	77 0a		 ja	 SHORT $LN3@DeleteQuic

; 856  : 		return;
; 857  : 
; 858  : 	m_playerStatus.aQuickSlot[QuickSlotIndex].Type = 0;

  0000b	66 c7 84 41 1c
	cb 00 00 00 00	 mov	 WORD PTR [ecx+eax*2+51996], 0
$LN3@DeleteQuic:

; 859  : 	m_playerStatus.aQuickSlot[QuickSlotIndex].Position = 0;
; 860  : }

  00015	5d		 pop	 ebp
  00016	c2 04 00	 ret	 4
?DeleteQuickSlot@CPythonPlayer@@UAEXH@Z ENDP		; CPythonPlayer::DeleteQuickSlot
_TEXT	ENDS
; Function compile flags: /Ogtp
; File D:\_m2work\Server Client TMP4\ClientVS22\source\UserInterface\PythonPlayer.cpp
; File C:\Program Files\Microsoft Visual Studio\2022\Community\VC\Tools\MSVC\14.44.35207\include\utility
; File D:\_m2work\Server Client TMP4\ClientVS22\source\UserInterface\PythonPlayer.cpp
;	COMDAT ?MoveQuickSlot@CPythonPlayer@@UAEXHH@Z
_TEXT	SEGMENT
_Source$ = 8						; size = 4
_Target$ = 12						; size = 4
?MoveQuickSlot@CPythonPlayer@@UAEXHH@Z PROC		; CPythonPlayer::MoveQuickSlot, COMDAT
; _this$ = ecx

; 863  : {

  00000	55		 push	 ebp
  00001	8b ec		 mov	 ebp, esp

; 864  : 	if (Source < 0 || Source >= QUICKSLOT_MAX_NUM)

  00003	8b 45 08	 mov	 eax, DWORD PTR _Source$[ebp]
  00006	8b 55 0c	 mov	 edx, DWORD PTR _Target$[ebp]
  00009	83 f8 23	 cmp	 eax, 35			; 00000023H
  0000c	77 24		 ja	 SHORT $LN5@MoveQuickS

; 865  : 		return;
; 866  : 
; 867  : 	if (Target < 0 || Target >= QUICKSLOT_MAX_NUM)

  0000e	83 fa 23	 cmp	 edx, 35			; 00000023H
  00011	77 1f		 ja	 SHORT $LN5@MoveQuickS

; 868  : 		return;
; 869  : 
; 870  : 	TQuickSlot& rkSrcSlot=__RefGlobalQuickSlot(Source);

  00013	56		 push	 esi
  00014	83 c1 fc	 add	 ecx, -4			; fffffffcH
  00017	50		 push	 eax
  00018	e8 00 00 00 00	 call	 ?__RefGlobalQuickSlot@CPythonPlayer@@IAEAAUSQuickSlot@@H@Z ; CPythonPlayer::__RefGlobalQuickSlot

; 871  : 	TQuickSlot& rkDstSlot=__RefGlobalQuickSlot(Target);

  0001d	52		 push	 edx
  0001e	8b f0		 mov	 esi, eax
  00020	e8 00 00 00 00	 call	 ?__RefGlobalQuickSlot@CPythonPlayer@@IAEAAUSQuickSlot@@H@Z ; CPythonPlayer::__RefGlobalQuickSlot
; File C:\Program Files\Microsoft Visual Studio\2022\Community\VC\Tools\MSVC\14.44.35207\include\utility

; 139  :     _Ty _Tmp = _STD move(_Left);

  00025	66 8b 0e	 mov	 cx, WORD PTR [esi]

; 140  :     _Left    = _STD move(_Right);

  00028	66 8b 10	 mov	 dx, WORD PTR [eax]
  0002b	66 89 16	 mov	 WORD PTR [esi], dx

; 141  :     _Right   = _STD move(_Tmp);

  0002e	66 89 08	 mov	 WORD PTR [eax], cx
  00031	5e		 pop	 esi
$LN5@MoveQuickS:
; File D:\_m2work\Server Client TMP4\ClientVS22\source\UserInterface\PythonPlayer.cpp

; 874  : }

  00032	5d		 pop	 ebp
  00033	c2 08 00	 ret	 8
?MoveQuickSlot@CPythonPlayer@@UAEXHH@Z ENDP		; CPythonPlayer::MoveQuickSlot
_TEXT	ENDS
; Function compile flags: /Ogtp
; File D:\_m2work\Server Client TMP4\ClientVS22\source\UserInterface\PythonPlayer.cpp
; File D:\_m2work\Server Client TMP4\ClientVS22\source\UserInterface\GameType.h
; File D:\_m2work\Server Client TMP4\ClientVS22\source\UserInterface\PythonPlayer.cpp
;	COMDAT ?IsBeltInventorySlot@CPythonPlayer@@QAE_NUSItemPos@@@Z
_TEXT	SEGMENT
_Cell$ = 8						; size = 3
?IsBeltInventorySlot@CPythonPlayer@@QAE_NUSItemPos@@@Z PROC ; CPythonPlayer::IsBeltInventorySlot, COMDAT
; _this$dead$ = ecx

; 878  : {

  00000	55		 push	 ebp
  00001	8b ec		 mov	 ebp, esp
; File D:\_m2work\Server Client TMP4\ClientVS22\source\UserInterface\GameType.h

; 243  : 		bool bResult = c_Belt_Inventory_Slot_Start <= cell && c_Belt_Inventory_Slot_End > cell;

  00003	66 8b 45 09	 mov	 ax, WORD PTR _Cell$[ebp+1]
  00007	b9 98 00 00 00	 mov	 ecx, 152		; 00000098H
  0000c	66 2b c1	 sub	 ax, cx
; File D:\_m2work\Server Client TMP4\ClientVS22\source\UserInterface\PythonPlayer.cpp

; 879  : 	return Cell.IsBeltInventoryCell();

  0000f	66 83 f8 0f	 cmp	 ax, 15			; 0000000fH
  00013	0f 96 c0	 setbe	 al

; 880  : }

  00016	5d		 pop	 ebp
  00017	c2 04 00	 ret	 4
?IsBeltInventorySlot@CPythonPlayer@@QAE_NUSItemPos@@@Z ENDP ; CPythonPlayer::IsBeltInventorySlot
_TEXT	ENDS
; Function compile flags: /Ogtp
; File D:\_m2work\Server Client TMP4\ClientVS22\source\UserInterface\PythonPlayer.cpp
; File D:\_m2work\Server Client TMP4\ClientVS22\source\UserInterface\GameType.h
; File D:\_m2work\Server Client TMP4\ClientVS22\source\UserInterface\PythonPlayer.cpp
;	COMDAT ?IsEquipmentSlot@CPythonPlayer@@QAE_NUSItemPos@@@Z
_TEXT	SEGMENT
_Cell$ = 8						; size = 3
?IsEquipmentSlot@CPythonPlayer@@QAE_NUSItemPos@@@Z PROC	; CPythonPlayer::IsEquipmentSlot, COMDAT
; _this$dead$ = ecx

; 889  : {

  00000	55		 push	 ebp
  00001	8b ec		 mov	 ebp, esp
; File D:\_m2work\Server Client TMP4\ClientVS22\source\UserInterface\GameType.h

; 223  : 		switch (window_type)

  00003	0f b6 45 08	 movzx	 eax, BYTE PTR _Cell$[ebp]
  00007	48		 dec	 eax
  00008	83 f8 06	 cmp	 eax, 6
  0000b	77 21		 ja	 SHORT $LN10@IsEquipmen
  0000d	0f b6 80 00 00
	00 00		 movzx	 eax, BYTE PTR $LN14@IsEquipmen[eax]
  00014	ff 24 85 00 00
	00 00		 jmp	 DWORD PTR $LN15@IsEquipmen[eax*4]
$LN6@IsEquipmen:

; 224  : 		{
; 225  : 		case INVENTORY:
; 226  : 		case EQUIPMENT:
; 227  : 			return (c_Equipment_Start + c_Wear_Max > cell) && (c_Equipment_Start <= cell);

  0001b	66 8b 45 09	 mov	 ax, WORD PTR _Cell$[ebp+1]
  0001f	66 83 e8 5a	 sub	 ax, 90			; 0000005aH
  00023	66 83 f8 1f	 cmp	 ax, 31			; 0000001fH
  00027	0f 96 c0	 setbe	 al
; File D:\_m2work\Server Client TMP4\ClientVS22\source\UserInterface\PythonPlayer.cpp

; 891  : }

  0002a	5d		 pop	 ebp
  0002b	c2 04 00	 ret	 4
$LN10@IsEquipmen:
  0002e	32 c0		 xor	 al, al
  00030	5d		 pop	 ebp
  00031	c2 04 00	 ret	 4
$LN15@IsEquipmen:
  00034	00 00 00 00	 DD	 $LN6@IsEquipmen
  00038	00 00 00 00	 DD	 $LN10@IsEquipmen
  0003c	00 00 00 00	 DD	 $LN10@IsEquipmen
$LN14@IsEquipmen:
  00040	00		 DB	 0
  00041	00		 DB	 0
  00042	02		 DB	 2
  00043	02		 DB	 2
  00044	01		 DB	 1
  00045	02		 DB	 2
  00046	01		 DB	 1
?IsEquipmentSlot@CPythonPlayer@@QAE_NUSItemPos@@@Z ENDP	; CPythonPlayer::IsEquipmentSlot
_TEXT	ENDS
; Function compile flags: /Ogtp
; File D:\_m2work\Server Client TMP4\ClientVS22\source\UserInterface\PythonPlayer.cpp
; File D:\_m2work\Server Client TMP4\ClientVS22\source\UserInterface\GameType.h
; File D:\_m2work\Server Client TMP4\ClientVS22\source\UserInterface\PythonPlayer.cpp
; File D:\_m2work\Server Client TMP4\ClientVS22\source\UserInterface\GameType.h
; File D:\_m2work\Server Client TMP4\ClientVS22\source\UserInterface\PythonPlayer.cpp
;	COMDAT ?IsEquipItemInSlot@CPythonPlayer@@UAE_NUSItemPos@@@Z
_TEXT	SEGMENT
_Cell$ = 8						; size = 3
?IsEquipItemInSlot@CPythonPlayer@@UAE_NUSItemPos@@@Z PROC ; CPythonPlayer::IsEquipItemInSlot, COMDAT
; _this$ = ecx

; 894  : {

  00000	55		 push	 ebp
  00001	8b ec		 mov	 ebp, esp
; File D:\_m2work\Server Client TMP4\ClientVS22\source\UserInterface\GameType.h

; 223  : 		switch (window_type)

  00003	66 8b 55 08	 mov	 dx, WORD PTR _Cell$[ebp]
  00007	0f b6 c2	 movzx	 eax, dl
  0000a	48		 dec	 eax
; File D:\_m2work\Server Client TMP4\ClientVS22\source\UserInterface\PythonPlayer.cpp

; 894  : {

  0000b	56		 push	 esi
  0000c	8b f1		 mov	 esi, ecx
; File D:\_m2work\Server Client TMP4\ClientVS22\source\UserInterface\GameType.h

; 223  : 		switch (window_type)

  0000e	83 f8 06	 cmp	 eax, 6
  00011	77 67		 ja	 SHORT $LN20@IsEquipIte
  00013	0f b6 80 00 00
	00 00		 movzx	 eax, BYTE PTR $LN21@IsEquipIte[eax]
  0001a	ff 24 85 00 00
	00 00		 jmp	 DWORD PTR $LN22@IsEquipIte[eax*4]
$LN9@IsEquipIte:

; 224  : 		{
; 225  : 		case INVENTORY:
; 226  : 		case EQUIPMENT:
; 227  : 			return (c_Equipment_Start + c_Wear_Max > cell) && (c_Equipment_Start <= cell);

  00021	66 8b 45 09	 mov	 ax, WORD PTR _Cell$[ebp+1]
  00025	66 83 e8 5a	 sub	 ax, 90			; 0000005aH
  00029	66 83 f8 1f	 cmp	 ax, 31			; 0000001fH
  0002d	77 4b		 ja	 SHORT $LN20@IsEquipIte
; File D:\_m2work\Server Client TMP4\ClientVS22\source\UserInterface\PythonPlayer.cpp

; 900  : 	const TItemData * pData = GetItemData(Cell);

  0002f	8a 45 0a	 mov	 al, BYTE PTR _Cell$[ebp+2]
  00032	51		 push	 ecx
  00033	8b cc		 mov	 ecx, esp
  00035	66 89 11	 mov	 WORD PTR [ecx], dx
  00038	88 41 02	 mov	 BYTE PTR [ecx+2], al
  0003b	8d 4e fc	 lea	 ecx, DWORD PTR [esi-4]
  0003e	e8 00 00 00 00	 call	 ?GetItemData@CPythonPlayer@@QBEPBUpacket_item@@USItemPos@@@Z ; CPythonPlayer::GetItemData

; 901  : 	
; 902  : 	if (NULL == pData)

  00043	85 c0		 test	 eax, eax
  00045	74 33		 je	 SHORT $LN20@IsEquipIte

; 903  : 	{
; 904  : 		return false;
; 905  : 	}
; 906  : 
; 907  : 	DWORD dwItemIndex = pData->vnum;
; 908  : 
; 909  : 	CItemManager::Instance().SelectItemData(dwItemIndex);

  00047	ff 30		 push	 DWORD PTR [eax]
  00049	8b 0d 00 00 00
	00		 mov	 ecx, DWORD PTR ?ms_singleton@?$CSingleton@VCItemManager@@@@0PAVCItemManager@@A ; CSingleton<CItemManager>::ms_singleton
  0004f	e8 00 00 00 00	 call	 ?SelectItemData@CItemManager@@QAEHK@Z ; CItemManager::SelectItemData

; 910  : 	CItemData * pItemData = CItemManager::Instance().GetSelectedItemDataPointer();

  00054	8b 0d 00 00 00
	00		 mov	 ecx, DWORD PTR ?ms_singleton@?$CSingleton@VCItemManager@@@@0PAVCItemManager@@A ; CSingleton<CItemManager>::ms_singleton
  0005a	e8 00 00 00 00	 call	 ?GetSelectedItemDataPointer@CItemManager@@QAEPAVCItemData@@XZ ; CItemManager::GetSelectedItemDataPointer

; 911  : 	if (!pItemData)

  0005f	85 c0		 test	 eax, eax
  00061	75 1e		 jne	 SHORT $LN4@IsEquipIte

; 912  : 	{
; 913  : 		TraceError("Failed to find ItemData - CPythonPlayer::IsEquipItem(window_type=%d, iSlotindex=%d)\n", Cell.window_type, Cell.cell);

  00063	0f b7 45 09	 movzx	 eax, WORD PTR _Cell$[ebp+1]
  00067	50		 push	 eax
  00068	0f b6 45 08	 movzx	 eax, BYTE PTR _Cell$[ebp]
  0006c	50		 push	 eax
  0006d	68 00 00 00 00	 push	 OFFSET ??_C@_0FF@PCELILMJ@Failed?5to?5find?5ItemData?5?9?5CPyth@
  00072	e8 00 00 00 00	 call	 ?TraceError@@YAXPBDZZ	; TraceError
  00077	83 c4 0c	 add	 esp, 12			; 0000000cH
$LN20@IsEquipIte:

; 918  : }

  0007a	32 c0		 xor	 al, al
  0007c	5e		 pop	 esi
  0007d	5d		 pop	 ebp
  0007e	c2 04 00	 ret	 4
$LN4@IsEquipIte:

; 914  : 		return false;
; 915  : 	}
; 916  : 
; 917  : 	return pItemData->IsEquipment() ? true : false;

  00081	8b c8		 mov	 ecx, eax
  00083	e8 00 00 00 00	 call	 ?IsEquipment@CItemData@@QBEHXZ ; CItemData::IsEquipment
  00088	85 c0		 test	 eax, eax

; 918  : }

  0008a	5e		 pop	 esi
  0008b	0f 95 c0	 setne	 al
  0008e	5d		 pop	 ebp
  0008f	c2 04 00	 ret	 4
  00092	66 90		 npad	 2
$LN22@IsEquipIte:
  00094	00 00 00 00	 DD	 $LN9@IsEquipIte
  00098	00 00 00 00	 DD	 $LN20@IsEquipIte
  0009c	00 00 00 00	 DD	 $LN20@IsEquipIte
$LN21@IsEquipIte:
  000a0	00		 DB	 0
  000a1	00		 DB	 0
  000a2	02		 DB	 2
  000a3	02		 DB	 2
  000a4	01		 DB	 1
  000a5	02		 DB	 2
  000a6	01		 DB	 1
?IsEquipItemInSlot@CPythonPlayer@@UAE_NUSItemPos@@@Z ENDP ; CPythonPlayer::IsEquipItemInSlot
_TEXT	ENDS
; Function compile flags: /Ogtp
; File D:\_m2work\Server Client TMP4\ClientVS22\source\UserInterface\PythonPlayer.cpp
;	COMDAT ?GetSkillIndex@CPythonPlayer@@QAEHK@Z
_TEXT	SEGMENT
_dwSlotIndex$ = 8					; size = 4
?GetSkillIndex@CPythonPlayer@@QAEHK@Z PROC		; CPythonPlayer::GetSkillIndex, COMDAT
; _this$ = ecx

; 931  : {

  00000	55		 push	 ebp
  00001	8b ec		 mov	 ebp, esp

; 932  : 	if (dwSlotIndex >= SKILL_MAX_NUM)

  00003	8b 45 08	 mov	 eax, DWORD PTR _dwSlotIndex$[ebp]
  00006	3d ff 00 00 00	 cmp	 eax, 255		; 000000ffH
  0000b	72 06		 jb	 SHORT $LN2@GetSkillIn

; 933  : 		return 0;

  0000d	33 c0		 xor	 eax, eax

; 936  : }

  0000f	5d		 pop	 ebp
  00010	c2 04 00	 ret	 4
$LN2@GetSkillIn:

; 934  : 
; 935  : 	return m_playerStatus.aSkill[dwSlotIndex].dwIndex;

  00013	8d 04 80	 lea	 eax, DWORD PTR [eax+eax*4]
  00016	8b 84 c1 68 cb
	00 00		 mov	 eax, DWORD PTR [ecx+eax*8+52072]

; 936  : }

  0001d	5d		 pop	 ebp
  0001e	c2 04 00	 ret	 4
?GetSkillIndex@CPythonPlayer@@QAEHK@Z ENDP		; CPythonPlayer::GetSkillIndex
_TEXT	ENDS
; Function compile flags: /Ogtp
; File D:\_m2work\Server Client TMP4\ClientVS22\source\UserInterface\PythonPlayer.cpp
;	COMDAT ?GetSkillGrade@CPythonPlayer@@QAEHK@Z
_TEXT	SEGMENT
_dwSlotIndex$ = 8					; size = 4
?GetSkillGrade@CPythonPlayer@@QAEHK@Z PROC		; CPythonPlayer::GetSkillGrade, COMDAT
; _this$ = ecx

; 952  : {

  00000	55		 push	 ebp
  00001	8b ec		 mov	 ebp, esp

; 953  : 	if (dwSlotIndex >= SKILL_MAX_NUM)

  00003	8b 45 08	 mov	 eax, DWORD PTR _dwSlotIndex$[ebp]
  00006	3d ff 00 00 00	 cmp	 eax, 255		; 000000ffH
  0000b	72 06		 jb	 SHORT $LN2@GetSkillGr

; 954  : 		return 0;

  0000d	33 c0		 xor	 eax, eax

; 957  : }

  0000f	5d		 pop	 ebp
  00010	c2 04 00	 ret	 4
$LN2@GetSkillGr:

; 955  : 
; 956  : 	return m_playerStatus.aSkill[dwSlotIndex].iGrade;

  00013	8d 04 80	 lea	 eax, DWORD PTR [eax+eax*4]
  00016	8b 84 c1 70 cb
	00 00		 mov	 eax, DWORD PTR [ecx+eax*8+52080]

; 957  : }

  0001d	5d		 pop	 ebp
  0001e	c2 04 00	 ret	 4
?GetSkillGrade@CPythonPlayer@@QAEHK@Z ENDP		; CPythonPlayer::GetSkillGrade
_TEXT	ENDS
; Function compile flags: /Ogtp
; File D:\_m2work\Server Client TMP4\ClientVS22\source\UserInterface\PythonPlayer.cpp
;	COMDAT ?GetSkillLevel@CPythonPlayer@@QAEHK@Z
_TEXT	SEGMENT
_dwSlotIndex$ = 8					; size = 4
?GetSkillLevel@CPythonPlayer@@QAEHK@Z PROC		; CPythonPlayer::GetSkillLevel, COMDAT
; _this$ = ecx

; 960  : {

  00000	55		 push	 ebp
  00001	8b ec		 mov	 ebp, esp

; 961  : 	if (dwSlotIndex >= SKILL_MAX_NUM)

  00003	8b 45 08	 mov	 eax, DWORD PTR _dwSlotIndex$[ebp]
  00006	3d ff 00 00 00	 cmp	 eax, 255		; 000000ffH
  0000b	72 06		 jb	 SHORT $LN2@GetSkillLe

; 962  : 		return 0;

  0000d	33 c0		 xor	 eax, eax

; 965  : }

  0000f	5d		 pop	 ebp
  00010	c2 04 00	 ret	 4
$LN2@GetSkillLe:

; 963  : 
; 964  : 	return m_playerStatus.aSkill[dwSlotIndex].iLevel;

  00013	8d 04 80	 lea	 eax, DWORD PTR [eax+eax*4]
  00016	8b 84 c1 74 cb
	00 00		 mov	 eax, DWORD PTR [ecx+eax*8+52084]

; 965  : }

  0001d	5d		 pop	 ebp
  0001e	c2 04 00	 ret	 4
?GetSkillLevel@CPythonPlayer@@QAEHK@Z ENDP		; CPythonPlayer::GetSkillLevel
_TEXT	ENDS
; Function compile flags: /Ogtp
; File D:\_m2work\Server Client TMP4\ClientVS22\source\UserInterface\PythonPlayer.cpp
;	COMDAT ?GetSkillCurrentEfficientPercentage@CPythonPlayer@@QAEMK@Z
_TEXT	SEGMENT
_dwSlotIndex$ = 8					; size = 4
?GetSkillCurrentEfficientPercentage@CPythonPlayer@@QAEMK@Z PROC ; CPythonPlayer::GetSkillCurrentEfficientPercentage, COMDAT
; _this$ = ecx

; 968  : {

  00000	55		 push	 ebp
  00001	8b ec		 mov	 ebp, esp

; 969  : 	if (dwSlotIndex >= SKILL_MAX_NUM)

  00003	8b 45 08	 mov	 eax, DWORD PTR _dwSlotIndex$[ebp]
  00006	3d ff 00 00 00	 cmp	 eax, 255		; 000000ffH
  0000b	72 07		 jb	 SHORT $LN2@GetSkillCu
  0000d	0f 57 c0	 xorps	 xmm0, xmm0

; 973  : }

  00010	5d		 pop	 ebp
  00011	c2 04 00	 ret	 4
$LN2@GetSkillCu:

; 970  : 		return 0;
; 971  : 
; 972  : 	return m_playerStatus.aSkill[dwSlotIndex].fcurEfficientPercentage;

  00014	8d 04 80	 lea	 eax, DWORD PTR [eax+eax*4]
  00017	f3 0f 10 84 c1
	78 cb 00 00	 movss	 xmm0, DWORD PTR [ecx+eax*8+52088]

; 973  : }

  00020	5d		 pop	 ebp
  00021	c2 04 00	 ret	 4
?GetSkillCurrentEfficientPercentage@CPythonPlayer@@QAEMK@Z ENDP ; CPythonPlayer::GetSkillCurrentEfficientPercentage
_TEXT	ENDS
; Function compile flags: /Ogtp
; File D:\_m2work\Server Client TMP4\ClientVS22\source\UserInterface\PythonPlayer.cpp
;	COMDAT ?GetSkillNextEfficientPercentage@CPythonPlayer@@QAEMK@Z
_TEXT	SEGMENT
_dwSlotIndex$ = 8					; size = 4
?GetSkillNextEfficientPercentage@CPythonPlayer@@QAEMK@Z PROC ; CPythonPlayer::GetSkillNextEfficientPercentage, COMDAT
; _this$ = ecx

; 976  : {

  00000	55		 push	 ebp
  00001	8b ec		 mov	 ebp, esp

; 977  : 	if (dwSlotIndex >= SKILL_MAX_NUM)

  00003	8b 45 08	 mov	 eax, DWORD PTR _dwSlotIndex$[ebp]
  00006	3d ff 00 00 00	 cmp	 eax, 255		; 000000ffH
  0000b	72 07		 jb	 SHORT $LN2@GetSkillNe
  0000d	0f 57 c0	 xorps	 xmm0, xmm0

; 981  : }

  00010	5d		 pop	 ebp
  00011	c2 04 00	 ret	 4
$LN2@GetSkillNe:

; 978  : 		return 0;
; 979  : 
; 980  : 	return m_playerStatus.aSkill[dwSlotIndex].fnextEfficientPercentage;

  00014	8d 04 80	 lea	 eax, DWORD PTR [eax+eax*4]
  00017	f3 0f 10 84 c1
	7c cb 00 00	 movss	 xmm0, DWORD PTR [ecx+eax*8+52092]

; 981  : }

  00020	5d		 pop	 ebp
  00021	c2 04 00	 ret	 4
?GetSkillNextEfficientPercentage@CPythonPlayer@@QAEMK@Z ENDP ; CPythonPlayer::GetSkillNextEfficientPercentage
_TEXT	ENDS
; Function compile flags: /Ogtp
; File D:\_m2work\Server Client TMP4\ClientVS22\source\UserInterface\PythonPlayer.cpp
;	COMDAT ?GetSkillCoolTime@CPythonPlayer@@QAEMK@Z
_TEXT	SEGMENT
_dwSlotIndex$ = 8					; size = 4
?GetSkillCoolTime@CPythonPlayer@@QAEMK@Z PROC		; CPythonPlayer::GetSkillCoolTime, COMDAT
; _this$ = ecx

; 1079 : {

  00000	55		 push	 ebp
  00001	8b ec		 mov	 ebp, esp

; 1080 : 	if (dwSlotIndex >= SKILL_MAX_NUM)

  00003	8b 45 08	 mov	 eax, DWORD PTR _dwSlotIndex$[ebp]
  00006	3d ff 00 00 00	 cmp	 eax, 255		; 000000ffH
  0000b	72 07		 jb	 SHORT $LN2@GetSkillCo
  0000d	0f 57 c0	 xorps	 xmm0, xmm0

; 1084 : }

  00010	5d		 pop	 ebp
  00011	c2 04 00	 ret	 4
$LN2@GetSkillCo:

; 1081 : 		return 0.0f;
; 1082 : 
; 1083 : 	return m_playerStatus.aSkill[dwSlotIndex].fCoolTime;

  00014	8d 04 80	 lea	 eax, DWORD PTR [eax+eax*4]
  00017	f3 0f 10 84 c1
	84 cb 00 00	 movss	 xmm0, DWORD PTR [ecx+eax*8+52100]

; 1084 : }

  00020	5d		 pop	 ebp
  00021	c2 04 00	 ret	 4
?GetSkillCoolTime@CPythonPlayer@@QAEMK@Z ENDP		; CPythonPlayer::GetSkillCoolTime
_TEXT	ENDS
; Function compile flags: /Ogtp
; File D:\_m2work\Server Client TMP4\ClientVS22\source\UserInterface\PythonPlayer.cpp
;	COMDAT ?GetSkillElapsedCoolTime@CPythonPlayer@@QAEMK@Z
_TEXT	SEGMENT
_dwSlotIndex$ = 8					; size = 4
tv65 = 8						; size = 4
tv72 = 8						; size = 4
?GetSkillElapsedCoolTime@CPythonPlayer@@QAEMK@Z PROC	; CPythonPlayer::GetSkillElapsedCoolTime, COMDAT
; _this$ = ecx

; 1087 : {

  00000	55		 push	 ebp
  00001	8b ec		 mov	 ebp, esp

; 1088 : 	if (dwSlotIndex >= SKILL_MAX_NUM)

  00003	8b 45 08	 mov	 eax, DWORD PTR _dwSlotIndex$[ebp]
  00006	3d ff 00 00 00	 cmp	 eax, 255		; 000000ffH
  0000b	72 07		 jb	 SHORT $LN2@GetSkillEl
  0000d	0f 57 c0	 xorps	 xmm0, xmm0

; 1092 : }

  00010	5d		 pop	 ebp
  00011	c2 04 00	 ret	 4
$LN2@GetSkillEl:

; 1089 : 		return 0.0f;
; 1090 : 
; 1091 : 	return CTimer::Instance().GetCurrentSecond() - m_playerStatus.aSkill[dwSlotIndex].fLastUsedTime;

  00014	8d 04 80	 lea	 eax, DWORD PTR [eax+eax*4]
  00017	f3 0f 10 84 c1
	88 cb 00 00	 movss	 xmm0, DWORD PTR [ecx+eax*8+52104]
  00020	8b 0d 00 00 00
	00		 mov	 ecx, DWORD PTR ?ms_singleton@?$CSingleton@VCTimer@@@@0PAVCTimer@@A ; CSingleton<CTimer>::ms_singleton
  00026	f3 0f 11 45 08	 movss	 DWORD PTR tv65[ebp], xmm0
  0002b	e8 00 00 00 00	 call	 ?GetCurrentSecond@CTimer@@QAEMXZ ; CTimer::GetCurrentSecond
  00030	d8 65 08	 fsub	 DWORD PTR tv65[ebp]
  00033	d9 5d 08	 fstp	 DWORD PTR tv72[ebp]
  00036	f3 0f 10 45 08	 movss	 xmm0, DWORD PTR tv72[ebp]

; 1092 : }

  0003b	5d		 pop	 ebp
  0003c	c2 04 00	 ret	 4
?GetSkillElapsedCoolTime@CPythonPlayer@@QAEMK@Z ENDP	; CPythonPlayer::GetSkillElapsedCoolTime
_TEXT	ENDS
; Function compile flags: /Ogtp
; File D:\_m2work\Server Client TMP4\ClientVS22\source\UserInterface\PythonPlayer.cpp
;	COMDAT ?__ActivateSkillSlot@CPythonPlayer@@IAEXK@Z
_TEXT	SEGMENT
_dwSlotIndex$ = 8					; size = 4
?__ActivateSkillSlot@CPythonPlayer@@IAEXK@Z PROC	; CPythonPlayer::__ActivateSkillSlot, COMDAT
; _this$ = ecx

; 1095 : {

  00000	55		 push	 ebp
  00001	8b ec		 mov	 ebp, esp

; 1096 : 	if (dwSlotIndex>=SKILL_MAX_NUM)

  00003	8b 55 08	 mov	 edx, DWORD PTR _dwSlotIndex$[ebp]
  00006	56		 push	 esi
  00007	8b f1		 mov	 esi, ecx
  00009	81 fa ff 00 00
	00		 cmp	 edx, 255		; 000000ffH
  0000f	72 18		 jb	 SHORT $LN2@ActivateSk

; 1097 : 	{
; 1098 : 		Tracenf("CPythonPlayer::ActivavteSkill(dwSlotIndex=%d/%d) - OUT OF RANGE", dwSlotIndex, SKILL_MAX_NUM);

  00011	68 ff 00 00 00	 push	 255			; 000000ffH
  00016	52		 push	 edx
  00017	68 00 00 00 00	 push	 OFFSET ??_C@_0EA@BNHLOMGN@CPythonPlayer?3?3ActivavteSkill?$CId@
  0001c	e8 00 00 00 00	 call	 ?Tracenf@@YAXPBDZZ	; Tracenf
  00021	83 c4 0c	 add	 esp, 12			; 0000000cH
  00024	5e		 pop	 esi

; 1104 : }

  00025	5d		 pop	 ebp
  00026	c2 04 00	 ret	 4
$LN2@ActivateSk:

; 1099 : 		return;
; 1100 : 	}
; 1101 : 
; 1102 : 	m_playerStatus.aSkill[dwSlotIndex].bActive = TRUE;
; 1103 : 	PyCallClassMemberFunc(m_ppyGameWindow, "ActivateSkillSlot", Py_BuildValue("(i)", dwSlotIndex));

  00029	52		 push	 edx
  0002a	8d 04 92	 lea	 eax, DWORD PTR [edx+edx*4]
  0002d	68 00 00 00 00	 push	 OFFSET ??_C@_03LIHNMIHG@?$CIi?$CJ@
  00032	c7 84 c6 8c cb
	00 00 01 00 00
	00		 mov	 DWORD PTR [esi+eax*8+52108], 1
  0003d	ff 15 00 00 00
	00		 call	 DWORD PTR __imp__Py_BuildValue
  00043	50		 push	 eax
  00044	68 00 00 00 00	 push	 OFFSET ??_C@_0BC@GDFCJBCP@ActivateSkillSlot@
  00049	ff 76 08	 push	 DWORD PTR [esi+8]
  0004c	e8 00 00 00 00	 call	 ?PyCallClassMemberFunc@@YA_NPAU_object@@PBD0@Z ; PyCallClassMemberFunc
  00051	83 c4 14	 add	 esp, 20			; 00000014H
  00054	5e		 pop	 esi

; 1104 : }

  00055	5d		 pop	 ebp
  00056	c2 04 00	 ret	 4
?__ActivateSkillSlot@CPythonPlayer@@IAEXK@Z ENDP	; CPythonPlayer::__ActivateSkillSlot
_TEXT	ENDS
; Function compile flags: /Ogtp
; File D:\_m2work\Server Client TMP4\ClientVS22\source\UserInterface\PythonPlayer.cpp
;	COMDAT ?__DeactivateSkillSlot@CPythonPlayer@@IAEXK@Z
_TEXT	SEGMENT
_dwSlotIndex$ = 8					; size = 4
?__DeactivateSkillSlot@CPythonPlayer@@IAEXK@Z PROC	; CPythonPlayer::__DeactivateSkillSlot, COMDAT
; _this$ = ecx

; 1107 : {

  00000	55		 push	 ebp
  00001	8b ec		 mov	 ebp, esp

; 1108 : 	if (dwSlotIndex>=SKILL_MAX_NUM)

  00003	8b 55 08	 mov	 edx, DWORD PTR _dwSlotIndex$[ebp]
  00006	56		 push	 esi
  00007	8b f1		 mov	 esi, ecx
  00009	81 fa ff 00 00
	00		 cmp	 edx, 255		; 000000ffH
  0000f	72 18		 jb	 SHORT $LN2@Deactivate

; 1109 : 	{
; 1110 : 		Tracenf("CPythonPlayer::DeactivavteSkill(dwSlotIndex=%d/%d) - OUT OF RANGE", dwSlotIndex, SKILL_MAX_NUM);

  00011	68 ff 00 00 00	 push	 255			; 000000ffH
  00016	52		 push	 edx
  00017	68 00 00 00 00	 push	 OFFSET ??_C@_0EC@BHLLACII@CPythonPlayer?3?3DeactivavteSkill@
  0001c	e8 00 00 00 00	 call	 ?Tracenf@@YAXPBDZZ	; Tracenf
  00021	83 c4 0c	 add	 esp, 12			; 0000000cH
  00024	5e		 pop	 esi

; 1116 : }

  00025	5d		 pop	 ebp
  00026	c2 04 00	 ret	 4
$LN2@Deactivate:

; 1111 : 		return;
; 1112 : 	}
; 1113 : 
; 1114 : 	m_playerStatus.aSkill[dwSlotIndex].bActive = FALSE;
; 1115 : 	PyCallClassMemberFunc(m_ppyGameWindow, "DeactivateSkillSlot", Py_BuildValue("(i)", dwSlotIndex));

  00029	52		 push	 edx
  0002a	8d 04 92	 lea	 eax, DWORD PTR [edx+edx*4]
  0002d	68 00 00 00 00	 push	 OFFSET ??_C@_03LIHNMIHG@?$CIi?$CJ@
  00032	c7 84 c6 8c cb
	00 00 00 00 00
	00		 mov	 DWORD PTR [esi+eax*8+52108], 0
  0003d	ff 15 00 00 00
	00		 call	 DWORD PTR __imp__Py_BuildValue
  00043	50		 push	 eax
  00044	68 00 00 00 00	 push	 OFFSET ??_C@_0BE@HIMJCBBG@DeactivateSkillSlot@
  00049	ff 76 08	 push	 DWORD PTR [esi+8]
  0004c	e8 00 00 00 00	 call	 ?PyCallClassMemberFunc@@YA_NPAU_object@@PBD0@Z ; PyCallClassMemberFunc
  00051	83 c4 14	 add	 esp, 20			; 00000014H
  00054	5e		 pop	 esi

; 1116 : }

  00055	5d		 pop	 ebp
  00056	c2 04 00	 ret	 4
?__DeactivateSkillSlot@CPythonPlayer@@IAEXK@Z ENDP	; CPythonPlayer::__DeactivateSkillSlot
_TEXT	ENDS
; Function compile flags: /Ogtp
; File D:\_m2work\Server Client TMP4\ClientVS22\source\UserInterface\PythonPlayer.cpp
;	COMDAT ?IsSkillCoolTime@CPythonPlayer@@QAEHK@Z
_TEXT	SEGMENT
_dwSlotIndex$ = 8					; size = 4
?IsSkillCoolTime@CPythonPlayer@@QAEHK@Z PROC		; CPythonPlayer::IsSkillCoolTime, COMDAT
; _this$ = ecx

; 1119 : {

  00000	55		 push	 ebp
  00001	8b ec		 mov	 ebp, esp

; 1120 : 	if (!__CheckRestSkillCoolTime(dwSlotIndex))

  00003	ff 75 08	 push	 DWORD PTR _dwSlotIndex$[ebp]
  00006	e8 00 00 00 00	 call	 ?__CheckRestSkillCoolTime@CPythonPlayer@@IAE_NK@Z ; CPythonPlayer::__CheckRestSkillCoolTime
  0000b	33 c9		 xor	 ecx, ecx
  0000d	84 c0		 test	 al, al
  0000f	0f 95 c1	 setne	 cl

; 1121 : 		return FALSE;

  00012	8b c1		 mov	 eax, ecx

; 1122 : 
; 1123 : 	return TRUE;
; 1124 : }

  00014	5d		 pop	 ebp
  00015	c2 04 00	 ret	 4
?IsSkillCoolTime@CPythonPlayer@@QAEHK@Z ENDP		; CPythonPlayer::IsSkillCoolTime
_TEXT	ENDS
; Function compile flags: /Ogtp
; File D:\_m2work\Server Client TMP4\ClientVS22\source\UserInterface\PythonPlayer.cpp
;	COMDAT ?IsSkillActive@CPythonPlayer@@QAEHK@Z
_TEXT	SEGMENT
_dwSlotIndex$ = 8					; size = 4
?IsSkillActive@CPythonPlayer@@QAEHK@Z PROC		; CPythonPlayer::IsSkillActive, COMDAT
; _this$ = ecx

; 1127 : {

  00000	55		 push	 ebp
  00001	8b ec		 mov	 ebp, esp

; 1128 : 	if (dwSlotIndex >= SKILL_MAX_NUM)

  00003	8b 45 08	 mov	 eax, DWORD PTR _dwSlotIndex$[ebp]
  00006	3d ff 00 00 00	 cmp	 eax, 255		; 000000ffH
  0000b	72 06		 jb	 SHORT $LN2@IsSkillAct

; 1129 : 		return FALSE;

  0000d	33 c0		 xor	 eax, eax

; 1132 : }

  0000f	5d		 pop	 ebp
  00010	c2 04 00	 ret	 4
$LN2@IsSkillAct:

; 1130 : 
; 1131 : 	return m_playerStatus.aSkill[dwSlotIndex].bActive;

  00013	8d 04 80	 lea	 eax, DWORD PTR [eax+eax*4]
  00016	8b 84 c1 8c cb
	00 00		 mov	 eax, DWORD PTR [ecx+eax*8+52108]

; 1132 : }

  0001d	5d		 pop	 ebp
  0001e	c2 04 00	 ret	 4
?IsSkillActive@CPythonPlayer@@QAEHK@Z ENDP		; CPythonPlayer::IsSkillActive
_TEXT	ENDS
; Function compile flags: /Ogtp
; File D:\_m2work\Server Client TMP4\ClientVS22\source\UserInterface\PythonPlayer.cpp
;	COMDAT ?SetPlayTime@CPythonPlayer@@QAEXK@Z
_TEXT	SEGMENT
_dwPlayTime$ = 8					; size = 4
?SetPlayTime@CPythonPlayer@@QAEXK@Z PROC		; CPythonPlayer::SetPlayTime, COMDAT
; _this$ = ecx

; 1149 : {

  00000	55		 push	 ebp
  00001	8b ec		 mov	 ebp, esp

; 1150 : 	m_dwPlayTime = dwPlayTime;

  00003	8b 45 08	 mov	 eax, DWORD PTR _dwPlayTime$[ebp]
  00006	89 81 f4 f7 00
	00		 mov	 DWORD PTR [ecx+63476], eax

; 1151 : }

  0000c	5d		 pop	 ebp
  0000d	c2 04 00	 ret	 4
?SetPlayTime@CPythonPlayer@@QAEXK@Z ENDP		; CPythonPlayer::SetPlayTime
_TEXT	ENDS
; Function compile flags: /Ogtp
; File D:\_m2work\Server Client TMP4\ClientVS22\source\UserInterface\PythonPlayer.cpp
;	COMDAT ?GetPlayTime@CPythonPlayer@@QAEKXZ
_TEXT	SEGMENT
?GetPlayTime@CPythonPlayer@@QAEKXZ PROC			; CPythonPlayer::GetPlayTime, COMDAT
; _this$ = ecx

; 1155 : 	return m_dwPlayTime;

  00000	8b 81 f4 f7 00
	00		 mov	 eax, DWORD PTR [ecx+63476]

; 1156 : }

  00006	c3		 ret	 0
?GetPlayTime@CPythonPlayer@@QAEKXZ ENDP			; CPythonPlayer::GetPlayTime
_TEXT	ENDS
; Function compile flags: /Ogtp
; File D:\_m2work\Server Client TMP4\ClientVS22\source\UserInterface\PythonPlayer.cpp
;	COMDAT ?SendClickItemPacket@CPythonPlayer@@QAEXK@Z
_TEXT	SEGMENT
_c_szOwnerName$1 = -4					; size = 4
_dwIID$ = 8						; size = 4
_pItemData$2 = 8					; size = 4
tv82 = 8						; size = 4
?SendClickItemPacket@CPythonPlayer@@QAEXK@Z PROC	; CPythonPlayer::SendClickItemPacket, COMDAT
; _this$ = ecx

; 1159 : {

  00000	55		 push	 ebp
  00001	8b ec		 mov	 ebp, esp
  00003	51		 push	 ecx
  00004	57		 push	 edi
  00005	8b f9		 mov	 edi, ecx

; 1160 : 	if (IsObserverMode())

  00007	e8 00 00 00 00	 call	 ?IsObserverMode@CPythonPlayer@@QAE_NXZ ; CPythonPlayer::IsObserverMode
  0000c	84 c0		 test	 al, al
  0000e	0f 85 0c 01 00
	00		 jne	 $LN3@SendClickI

; 1161 : 		return;
; 1162 : 
; 1163 : 	static DWORD s_dwNextTCPTime = 0;
; 1164 : 
; 1165 : 	DWORD dwCurTime=ELTimer_GetMSec();

  00014	e8 00 00 00 00	 call	 ?ELTimer_GetMSec@@YAKXZ	; ELTimer_GetMSec

; 1166 : 
; 1167 : 	if (dwCurTime >= s_dwNextTCPTime)

  00019	3b 05 00 00 00
	00		 cmp	 eax, DWORD PTR ?s_dwNextTCPTime@?1??SendClickItemPacket@CPythonPlayer@@QAEXK@Z@4KA
  0001f	0f 82 fb 00 00
	00		 jb	 $LN3@SendClickI

; 1168 : 	{
; 1169 : 		s_dwNextTCPTime=dwCurTime + 500;
; 1170 : 
; 1171 : 		const char * c_szOwnerName;
; 1172 : 		if (!CPythonItem::Instance().GetOwnership(dwIID, &c_szOwnerName))

  00025	8b 0d 00 00 00
	00		 mov	 ecx, DWORD PTR ?ms_singleton@?$CSingleton@VCPythonItem@@@@0PAVCPythonItem@@A ; CSingleton<CPythonItem>::ms_singleton
  0002b	05 f4 01 00 00	 add	 eax, 500		; 000001f4H
  00030	56		 push	 esi
  00031	8b 75 08	 mov	 esi, DWORD PTR _dwIID$[ebp]
  00034	a3 00 00 00 00	 mov	 DWORD PTR ?s_dwNextTCPTime@?1??SendClickItemPacket@CPythonPlayer@@QAEXK@Z@4KA, eax
  00039	8d 45 fc	 lea	 eax, DWORD PTR _c_szOwnerName$1[ebp]
  0003c	50		 push	 eax
  0003d	56		 push	 esi
  0003e	e8 00 00 00 00	 call	 ?GetOwnership@CPythonItem@@QAE_NKPAPBD@Z ; CPythonItem::GetOwnership
  00043	84 c0		 test	 al, al
  00045	0f 84 d4 00 00
	00		 je	 $LN27@SendClickI

; 1173 : 			return;
; 1174 : 
; 1175 : 		if (strlen(c_szOwnerName) > 0)

  0004b	53		 push	 ebx
  0004c	8b 5d fc	 mov	 ebx, DWORD PTR _c_szOwnerName$1[ebp]
  0004f	8b cb		 mov	 ecx, ebx
  00051	8d 51 01	 lea	 edx, DWORD PTR [ecx+1]
$LL11@SendClickI:
  00054	8a 01		 mov	 al, BYTE PTR [ecx]
  00056	41		 inc	 ecx
  00057	84 c0		 test	 al, al
  00059	75 f9		 jne	 SHORT $LL11@SendClickI
  0005b	2b ca		 sub	 ecx, edx
  0005d	0f 84 af 00 00
	00		 je	 $LN8@SendClickI

; 1176 : 		if (0 != strcmp(c_szOwnerName, GetName()))

  00063	8b 47 04	 mov	 eax, DWORD PTR [edi+4]
  00066	8d 4f 04	 lea	 ecx, DWORD PTR [edi+4]
  00069	ff 50 14	 call	 DWORD PTR [eax+20]
  0006c	8b cb		 mov	 ecx, ebx
  0006e	66 90		 npad	 2
$LL12@SendClickI:
  00070	8a 11		 mov	 dl, BYTE PTR [ecx]
  00072	3a 10		 cmp	 dl, BYTE PTR [eax]
  00074	75 1a		 jne	 SHORT $LN13@SendClickI
  00076	84 d2		 test	 dl, dl
  00078	74 12		 je	 SHORT $LN14@SendClickI
  0007a	8a 51 01	 mov	 dl, BYTE PTR [ecx+1]
  0007d	3a 50 01	 cmp	 dl, BYTE PTR [eax+1]
  00080	75 0e		 jne	 SHORT $LN13@SendClickI
  00082	83 c1 02	 add	 ecx, 2
  00085	83 c0 02	 add	 eax, 2
  00088	84 d2		 test	 dl, dl
  0008a	75 e4		 jne	 SHORT $LL12@SendClickI
$LN14@SendClickI:
  0008c	33 c0		 xor	 eax, eax
  0008e	eb 05		 jmp	 SHORT $LN15@SendClickI
$LN13@SendClickI:
  00090	1b c0		 sbb	 eax, eax
  00092	83 c8 01	 or	 eax, 1
$LN15@SendClickI:
  00095	85 c0		 test	 eax, eax
  00097	74 79		 je	 SHORT $LN8@SendClickI

; 1177 : 		{
; 1178 : 			CItemData * pItemData;
; 1179 : 			if (!CItemManager::Instance().GetItemDataPointer(CPythonItem::Instance().GetVirtualNumberOfGroundItem(dwIID), &pItemData))

  00099	8b 0d 00 00 00
	00		 mov	 ecx, DWORD PTR ?ms_singleton@?$CSingleton@VCPythonItem@@@@0PAVCPythonItem@@A ; CSingleton<CPythonItem>::ms_singleton
  0009f	56		 push	 esi
  000a0	e8 00 00 00 00	 call	 ?GetVirtualNumberOfGroundItem@CPythonItem@@QAEKK@Z ; CPythonItem::GetVirtualNumberOfGroundItem
  000a5	8d 4d 08	 lea	 ecx, DWORD PTR _pItemData$2[ebp]
  000a8	51		 push	 ecx
  000a9	8b 0d 00 00 00
	00		 mov	 ecx, DWORD PTR ?ms_singleton@?$CSingleton@VCItemManager@@@@0PAVCItemManager@@A ; CSingleton<CItemManager>::ms_singleton
  000af	50		 push	 eax
  000b0	e8 00 00 00 00	 call	 ?GetItemDataPointer@CItemManager@@QAEHKPAPAVCItemData@@@Z ; CItemManager::GetItemDataPointer
  000b5	85 c0		 test	 eax, eax
  000b7	75 17		 jne	 SHORT $LN7@SendClickI

; 1180 : 			{
; 1181 : 				Tracenf("CPythonPlayer::SendClickItemPacket(dwIID=%d) : Non-exist item.", dwIID);

  000b9	56		 push	 esi
  000ba	68 00 00 00 00	 push	 OFFSET ??_C@_0DP@MLLABPNJ@CPythonPlayer?3?3SendClickItemPac@
  000bf	e8 00 00 00 00	 call	 ?Tracenf@@YAXPBDZZ	; Tracenf
  000c4	83 c4 08	 add	 esp, 8
  000c7	5b		 pop	 ebx
  000c8	5e		 pop	 esi
  000c9	5f		 pop	 edi

; 1193 : 	}
; 1194 : }

  000ca	8b e5		 mov	 esp, ebp
  000cc	5d		 pop	 ebp
  000cd	c2 04 00	 ret	 4
$LN7@SendClickI:

; 1182 : 				return;
; 1183 : 			}
; 1184 : 			if (!IsPartyMemberByName(c_szOwnerName) || pItemData->IsAntiFlag(CItemData::ITEM_ANTIFLAG_DROP | CItemData::ITEM_ANTIFLAG_GIVE))

  000d0	53		 push	 ebx
  000d1	8b cf		 mov	 ecx, edi
  000d3	e8 00 00 00 00	 call	 ?IsPartyMemberByName@CPythonPlayer@@QAE_NPBD@Z ; CPythonPlayer::IsPartyMemberByName
  000d8	84 c0		 test	 al, al
  000da	74 11		 je	 SHORT $LN9@SendClickI
  000dc	8b 4d 08	 mov	 ecx, DWORD PTR _pItemData$2[ebp]
  000df	68 80 20 00 00	 push	 8320			; 00002080H
  000e4	e8 00 00 00 00	 call	 ?IsAntiFlag@CItemData@@QBEHK@Z ; CItemData::IsAntiFlag
  000e9	85 c0		 test	 eax, eax
  000eb	74 25		 je	 SHORT $LN8@SendClickI
$LN9@SendClickI:

; 1185 : 			{
; 1186 : 				PyCallClassMemberFunc(m_ppyGameWindow, "OnCannotPickItem", Py_BuildValue("()"));

  000ed	68 00 00 00 00	 push	 OFFSET ??_C@_02HCKGKOFO@?$CI?$CJ@
  000f2	ff 15 00 00 00
	00		 call	 DWORD PTR __imp__Py_BuildValue
  000f8	50		 push	 eax
  000f9	68 00 00 00 00	 push	 OFFSET ??_C@_0BB@DNNBDACF@OnCannotPickItem@
  000fe	ff 77 08	 push	 DWORD PTR [edi+8]
  00101	e8 00 00 00 00	 call	 ?PyCallClassMemberFunc@@YA_NPAU_object@@PBD0@Z ; PyCallClassMemberFunc
  00106	83 c4 10	 add	 esp, 16			; 00000010H
  00109	5b		 pop	 ebx
  0010a	5e		 pop	 esi
  0010b	5f		 pop	 edi

; 1193 : 	}
; 1194 : }

  0010c	8b e5		 mov	 esp, ebp
  0010e	5d		 pop	 ebp
  0010f	c2 04 00	 ret	 4
$LN8@SendClickI:

; 1187 : 				return;
; 1188 : 			}
; 1189 : 		}
; 1190 : 
; 1191 : 		CPythonNetworkStream& rkNetStream=CPythonNetworkStream::Instance();
; 1192 : 		rkNetStream.SendItemPickUpPacket(dwIID);

  00112	8b 0d 00 00 00
	00		 mov	 ecx, DWORD PTR ?ms_singleton@?$CSingleton@VCPythonNetworkStream@@@@0PAVCPythonNetworkStream@@A ; CSingleton<CPythonNetworkStream>::ms_singleton
  00118	56		 push	 esi
  00119	e8 00 00 00 00	 call	 ?SendItemPickUpPacket@CPythonNetworkStream@@QAE_NK@Z ; CPythonNetworkStream::SendItemPickUpPacket
  0011e	5b		 pop	 ebx
$LN27@SendClickI:
  0011f	5e		 pop	 esi
$LN3@SendClickI:
  00120	5f		 pop	 edi

; 1193 : 	}
; 1194 : }

  00121	8b e5		 mov	 esp, ebp
  00123	5d		 pop	 ebp
  00124	c2 04 00	 ret	 4
?SendClickItemPacket@CPythonPlayer@@QAEXK@Z ENDP	; CPythonPlayer::SendClickItemPacket
_TEXT	ENDS
; Function compile flags: /Ogtp
; File D:\_m2work\Server Client TMP4\ClientVS22\source\UserInterface\PythonPlayer.cpp
;	COMDAT ?__SendClickActorPacket@CPythonPlayer@@IAEXAAVCInstanceBase@@@Z
_TEXT	SEGMENT
_rkInstVictim$ = 8					; size = 4
?__SendClickActorPacket@CPythonPlayer@@IAEXAAVCInstanceBase@@@Z PROC ; CPythonPlayer::__SendClickActorPacket, COMDAT
; _this$ = ecx

; 1197 : {

  00000	55		 push	 ebp
  00001	8b ec		 mov	 ebp, esp
  00003	56		 push	 esi
  00004	8b f1		 mov	 esi, ecx

; 1198 : 	//        
; 1199 : 	CInstanceBase* pkInstMain=NEW_GetMainActorPtr();

  00006	8b 46 04	 mov	 eax, DWORD PTR [esi+4]
  00009	8d 4e 04	 lea	 ecx, DWORD PTR [esi+4]
  0000c	ff 90 88 00 00
	00		 call	 DWORD PTR [eax+136]
  00012	8b d0		 mov	 edx, eax

; 1200 : 	if (pkInstMain)

  00014	85 d2		 test	 edx, edx
  00016	74 43		 je	 SHORT $LN5@SendClickA

; 1201 : 	if (pkInstMain->IsHoldingPickAxe())

  00018	8b ca		 mov	 ecx, edx
  0001a	e8 00 00 00 00	 call	 ?IsHoldingPickAxe@CInstanceBase@@QAEHXZ ; CInstanceBase::IsHoldingPickAxe
  0001f	85 c0		 test	 eax, eax
  00021	74 38		 je	 SHORT $LN5@SendClickA

; 1202 : 	if (pkInstMain->IsMountingHorse())

  00023	8b ca		 mov	 ecx, edx
  00025	e8 00 00 00 00	 call	 ?IsMountingHorse@CInstanceBase@@QAEHXZ ; CInstanceBase::IsMountingHorse
  0002a	85 c0		 test	 eax, eax
  0002c	74 2d		 je	 SHORT $LN5@SendClickA

; 1203 : 	if (rkInstVictim.IsResource())

  0002e	8b 4d 08	 mov	 ecx, DWORD PTR _rkInstVictim$[ebp]
  00031	e8 00 00 00 00	 call	 ?IsResource@CInstanceBase@@QAEHXZ ; CInstanceBase::IsResource
  00036	85 c0		 test	 eax, eax
  00038	74 21		 je	 SHORT $LN5@SendClickA

; 1204 : 	{
; 1205 : 		PyCallClassMemberFunc(m_ppyGameWindow, "OnCannotMining", Py_BuildValue("()"));

  0003a	68 00 00 00 00	 push	 OFFSET ??_C@_02HCKGKOFO@?$CI?$CJ@
  0003f	ff 15 00 00 00
	00		 call	 DWORD PTR __imp__Py_BuildValue
  00045	50		 push	 eax
  00046	68 00 00 00 00	 push	 OFFSET ??_C@_0P@CGBLDLHF@OnCannotMining@
  0004b	ff 76 08	 push	 DWORD PTR [esi+8]
  0004e	e8 00 00 00 00	 call	 ?PyCallClassMemberFunc@@YA_NPAU_object@@PBD0@Z ; PyCallClassMemberFunc
  00053	83 c4 10	 add	 esp, 16			; 00000010H
  00056	5e		 pop	 esi

; 1221 : 	}
; 1222 : }

  00057	5d		 pop	 ebp
  00058	c2 04 00	 ret	 4
$LN5@SendClickA:

; 1206 : 		return;
; 1207 : 	}
; 1208 : 
; 1209 : 	static DWORD s_dwNextTCPTime = 0;
; 1210 : 
; 1211 : 	DWORD dwCurTime=ELTimer_GetMSec();

  0005b	e8 00 00 00 00	 call	 ?ELTimer_GetMSec@@YAKXZ	; ELTimer_GetMSec

; 1212 : 
; 1213 : 	if (dwCurTime >= s_dwNextTCPTime)

  00060	3b 05 00 00 00
	00		 cmp	 eax, DWORD PTR ?s_dwNextTCPTime@?1??__SendClickActorPacket@CPythonPlayer@@IAEXAAVCInstanceBase@@@Z@4KA
  00066	72 20		 jb	 SHORT $LN6@SendClickA

; 1214 : 	{
; 1215 : 		s_dwNextTCPTime=dwCurTime+1000;
; 1216 : 
; 1217 : 		CPythonNetworkStream& rkNetStream=CPythonNetworkStream::Instance();
; 1218 : 
; 1219 : 		DWORD dwVictimVID=rkInstVictim.GetVirtualID();

  00068	8b 4d 08	 mov	 ecx, DWORD PTR _rkInstVictim$[ebp]
  0006b	05 e8 03 00 00	 add	 eax, 1000		; 000003e8H
  00070	8b 35 00 00 00
	00		 mov	 esi, DWORD PTR ?ms_singleton@?$CSingleton@VCPythonNetworkStream@@@@0PAVCPythonNetworkStream@@A ; CSingleton<CPythonNetworkStream>::ms_singleton
  00076	a3 00 00 00 00	 mov	 DWORD PTR ?s_dwNextTCPTime@?1??__SendClickActorPacket@CPythonPlayer@@IAEXAAVCInstanceBase@@@Z@4KA, eax
  0007b	e8 00 00 00 00	 call	 ?GetVirtualID@CInstanceBase@@QAEKXZ ; CInstanceBase::GetVirtualID

; 1220 : 		rkNetStream.SendOnClickPacket(dwVictimVID);

  00080	50		 push	 eax
  00081	8b ce		 mov	 ecx, esi
  00083	e8 00 00 00 00	 call	 ?SendOnClickPacket@CPythonNetworkStream@@QAE_NK@Z ; CPythonNetworkStream::SendOnClickPacket
$LN6@SendClickA:
  00088	5e		 pop	 esi

; 1221 : 	}
; 1222 : }

  00089	5d		 pop	 ebp
  0008a	c2 04 00	 ret	 4
?__SendClickActorPacket@CPythonPlayer@@IAEXAAVCInstanceBase@@@Z ENDP ; CPythonPlayer::__SendClickActorPacket
_TEXT	ENDS
; Function compile flags: /Ogtp
; File D:\_m2work\Server Client TMP4\ClientVS22\source\UserInterface\PythonPlayer.cpp
;	COMDAT ?ActEmotion@CPythonPlayer@@QAEXK@Z
_TEXT	SEGMENT
_dwEmotionID$dead$ = 8					; size = 4
?ActEmotion@CPythonPlayer@@QAEXK@Z PROC			; CPythonPlayer::ActEmotion, COMDAT
; _this$ = ecx

; 1225 : {

  00000	56		 push	 esi
  00001	8b f1		 mov	 esi, ecx

; 1226 : 	CInstanceBase * pkInstTarget = __GetAliveTargetInstancePtr();

  00003	e8 00 00 00 00	 call	 ?__GetAliveTargetInstancePtr@CPythonPlayer@@IAEPAVCInstanceBase@@XZ ; CPythonPlayer::__GetAliveTargetInstancePtr

; 1227 : 	if (!pkInstTarget)

  00008	85 c0		 test	 eax, eax
  0000a	75 2f		 jne	 SHORT $LN2@ActEmotion

; 1228 : 	{
; 1229 : 		PyCallClassMemberFunc(m_ppyGameWindow, "OnCannotShotError", Py_BuildValue("(is)", GetMainCharacterIndex(), "NEED_TARGET"));

  0000c	8b 46 04	 mov	 eax, DWORD PTR [esi+4]
  0000f	8d 4e 04	 lea	 ecx, DWORD PTR [esi+4]
  00012	68 00 00 00 00	 push	 OFFSET ??_C@_0M@HCIEKIGP@NEED_TARGET@
  00017	ff 50 04	 call	 DWORD PTR [eax+4]
  0001a	50		 push	 eax
  0001b	68 00 00 00 00	 push	 OFFSET ??_C@_04JMLDJNEM@?$CIis?$CJ@
  00020	ff 15 00 00 00
	00		 call	 DWORD PTR __imp__Py_BuildValue
  00026	50		 push	 eax
  00027	68 00 00 00 00	 push	 OFFSET ??_C@_0BC@FKINMGLI@OnCannotShotError@
  0002c	ff 76 08	 push	 DWORD PTR [esi+8]
  0002f	e8 00 00 00 00	 call	 ?PyCallClassMemberFunc@@YA_NPAU_object@@PBD0@Z ; PyCallClassMemberFunc
  00034	83 c4 18	 add	 esp, 24			; 00000018H
  00037	5e		 pop	 esi

; 1234 : }

  00038	c2 04 00	 ret	 4
$LN2@ActEmotion:

; 1230 : 		return;
; 1231 : 	}
; 1232 : 
; 1233 : 	CPythonNetworkStream::Instance().SendChatPacket(_getf("/kiss %s", pkInstTarget->GetNameString()));

  0003b	8b 35 00 00 00
	00		 mov	 esi, DWORD PTR ?ms_singleton@?$CSingleton@VCPythonNetworkStream@@@@0PAVCPythonNetworkStream@@A ; CSingleton<CPythonNetworkStream>::ms_singleton
  00041	8b c8		 mov	 ecx, eax
  00043	e8 00 00 00 00	 call	 ?GetNameString@CInstanceBase@@QAEPBDXZ ; CInstanceBase::GetNameString
  00048	50		 push	 eax
  00049	68 00 00 00 00	 push	 OFFSET ??_C@_08HOHDPHII@?1kiss?5?$CFs@
  0004e	e8 00 00 00 00	 call	 ?_getf@@YAPBDPBDZZ	; _getf
  00053	83 c4 08	 add	 esp, 8
  00056	8b ce		 mov	 ecx, esi
  00058	6a 00		 push	 0
  0005a	50		 push	 eax
  0005b	e8 00 00 00 00	 call	 ?SendChatPacket@CPythonNetworkStream@@QAE_NPBDE@Z ; CPythonNetworkStream::SendChatPacket
  00060	5e		 pop	 esi

; 1234 : }

  00061	c2 04 00	 ret	 4
?ActEmotion@CPythonPlayer@@QAEXK@Z ENDP			; CPythonPlayer::ActEmotion
_TEXT	ENDS
; Function compile flags: /Ogtp
; File D:\_m2work\Server Client TMP4\ClientVS22\source\UserInterface\PythonPlayer.cpp
;	COMDAT ?StartEmotionProcess@CPythonPlayer@@UAEXXZ
_TEXT	SEGMENT
?StartEmotionProcess@CPythonPlayer@@UAEXXZ PROC		; CPythonPlayer::StartEmotionProcess, COMDAT
; _this$ = ecx

; 1237 : {

  00000	8b d1		 mov	 edx, ecx

; 1238 : 	__ClearReservedAction();

  00002	8d 4a fc	 lea	 ecx, DWORD PTR [edx-4]
  00005	e8 00 00 00 00	 call	 ?__ClearReservedAction@CPythonPlayer@@IAEXXZ ; CPythonPlayer::__ClearReservedAction

; 1239 : 	__ClearAutoAttackTargetActorID();

  0000a	e8 00 00 00 00	 call	 ?__ClearAutoAttackTargetActorID@CPythonPlayer@@IAEXXZ ; CPythonPlayer::__ClearAutoAttackTargetActorID

; 1240 : 
; 1241 : 	m_bisProcessingEmotion = TRUE;

  0000f	c7 82 6c f7 00
	00 01 00 00 00	 mov	 DWORD PTR [edx+63340], 1

; 1242 : }

  00019	c3		 ret	 0
?StartEmotionProcess@CPythonPlayer@@UAEXXZ ENDP		; CPythonPlayer::StartEmotionProcess
_TEXT	ENDS
; Function compile flags: /Ogtp
; File D:\_m2work\Server Client TMP4\ClientVS22\source\UserInterface\PythonPlayer.cpp
;	COMDAT ?EndEmotionProcess@CPythonPlayer@@UAEXXZ
_TEXT	SEGMENT
?EndEmotionProcess@CPythonPlayer@@UAEXXZ PROC		; CPythonPlayer::EndEmotionProcess, COMDAT
; _this$ = ecx

; 1246 : 	m_bisProcessingEmotion = FALSE;

  00000	c7 81 6c f7 00
	00 00 00 00 00	 mov	 DWORD PTR [ecx+63340], 0

; 1247 : }

  0000a	c3		 ret	 0
?EndEmotionProcess@CPythonPlayer@@UAEXXZ ENDP		; CPythonPlayer::EndEmotionProcess
_TEXT	ENDS
; Function compile flags: /Ogtp
; File D:\_m2work\Server Client TMP4\ClientVS22\source\UserInterface\PythonPlayer.cpp
;	COMDAT ?__IsProcessingEmotion@CPythonPlayer@@IAEHXZ
_TEXT	SEGMENT
?__IsProcessingEmotion@CPythonPlayer@@IAEHXZ PROC	; CPythonPlayer::__IsProcessingEmotion, COMDAT
; _this$ = ecx

; 1251 : 	return m_bisProcessingEmotion;

  00000	8b 81 70 f7 00
	00		 mov	 eax, DWORD PTR [ecx+63344]

; 1252 : }

  00006	c3		 ret	 0
?__IsProcessingEmotion@CPythonPlayer@@IAEHXZ ENDP	; CPythonPlayer::__IsProcessingEmotion
_TEXT	ENDS
; Function compile flags: /Ogtp
; File D:\_m2work\Server Client TMP4\ClientVS22\source\UserInterface\PythonPlayer.cpp
; File C:\Program Files\Microsoft Visual Studio\2022\Community\VC\Tools\MSVC\14.44.35207\include\cmath
; File D:\_m2work\Server Client TMP4\ClientVS22\source\UserInterface\PythonPlayer.cpp
; File C:\Program Files\Microsoft Visual Studio\2022\Community\VC\Tools\MSVC\14.44.35207\include\cmath
; File D:\_m2work\Server Client TMP4\ClientVS22\source\UserInterface\PythonPlayer.cpp
; File D:\_m2work\Server Client TMP4\ClientVS22\extern\include\d3dx8math.inl
; File D:\_m2work\Server Client TMP4\ClientVS22\source\UserInterface\PythonPlayer.cpp
; File D:\_m2work\Server Client TMP4\ClientVS22\extern\include\d3dx8math.inl
; File D:\_m2work\Server Client TMP4\ClientVS22\source\UserInterface\PythonPlayer.cpp
;	COMDAT ?AlarmHaveToGo@CPythonPlayer@@QAEXXZ
_TEXT	SEGMENT
tv213 = -32						; size = 4
_v3Rotation$ = -28					; size = 12
_PixelPosition$ = -16					; size = 12
__$ArrayPad$ = -4					; size = 4
?AlarmHaveToGo@CPythonPlayer@@QAEXXZ PROC		; CPythonPlayer::AlarmHaveToGo, COMDAT
; _this$ = ecx

; 1265 : {

  00000	55		 push	 ebp
  00001	8b ec		 mov	 ebp, esp
  00003	83 ec 24	 sub	 esp, 36			; 00000024H
  00006	a1 00 00 00 00	 mov	 eax, DWORD PTR ___security_cookie
  0000b	33 c5		 xor	 eax, ebp
  0000d	89 45 fc	 mov	 DWORD PTR __$ArrayPad$[ebp], eax
  00010	56		 push	 esi
  00011	8b f1		 mov	 esi, ecx

; 1266 : 	m_iLastAlarmTime = CTimer::Instance().GetCurrentMillisecond();

  00013	8b 0d 00 00 00
	00		 mov	 ecx, DWORD PTR ?ms_singleton@?$CSingleton@VCTimer@@@@0PAVCTimer@@A ; CSingleton<CTimer>::ms_singleton
  00019	e8 00 00 00 00	 call	 ?GetCurrentMillisecond@CTimer@@QAEKXZ ; CTimer::GetCurrentMillisecond

; 1267 : 
; 1268 : 	/////
; 1269 : 
; 1270 : 	CInstanceBase * pInstance = NEW_GetMainActorPtr();

  0001e	8d 4e 04	 lea	 ecx, DWORD PTR [esi+4]
  00021	89 86 80 f7 00
	00		 mov	 DWORD PTR [esi+63360], eax
  00027	8b 01		 mov	 eax, DWORD PTR [ecx]
  00029	ff 90 88 00 00
	00		 call	 DWORD PTR [eax+136]

; 1271 : 	if (!pInstance)

  0002f	85 c0		 test	 eax, eax
  00031	0f 84 b9 00 00
	00		 je	 $LN1@AlarmHaveT

; 1272 : 		return;
; 1273 : 
; 1274 : 	TPixelPosition PixelPosition;
; 1275 : 	pInstance->NEW_GetPixelPosition(&PixelPosition);

  00037	8d 4d f0	 lea	 ecx, DWORD PTR _PixelPosition$[ebp]
  0003a	51		 push	 ecx
  0003b	8b c8		 mov	 ecx, eax
  0003d	e8 00 00 00 00	 call	 ?NEW_GetPixelPosition@CInstanceBase@@QAEXPAUD3DXVECTOR3@@@Z ; CInstanceBase::NEW_GetPixelPosition
  00042	66 0f 6e 86 7c
	f7 00 00	 movd	 xmm0, DWORD PTR [esi+63356]

; 1276 : 
; 1277 : 	float fAngle = GetDegreeFromPosition2(PixelPosition.x, PixelPosition.y, float(m_ixDestPos), float(m_iyDestPos));

  0004a	83 ec 10	 sub	 esp, 16			; 00000010H
  0004d	0f 5b c0	 cvtdq2ps xmm0, xmm0
  00050	f3 0f 11 44 24
	0c		 movss	 DWORD PTR [esp+12], xmm0
  00056	66 0f 6e 86 78
	f7 00 00	 movd	 xmm0, DWORD PTR [esi+63352]
  0005e	0f 5b c0	 cvtdq2ps xmm0, xmm0
  00061	f3 0f 11 44 24
	08		 movss	 DWORD PTR [esp+8], xmm0
  00067	f3 0f 10 45 f4	 movss	 xmm0, DWORD PTR _PixelPosition$[ebp+4]
  0006c	f3 0f 11 44 24
	04		 movss	 DWORD PTR [esp+4], xmm0
  00072	f3 0f 10 45 f0	 movss	 xmm0, DWORD PTR _PixelPosition$[ebp]
  00077	f3 0f 11 04 24	 movss	 DWORD PTR [esp], xmm0
  0007c	e8 00 00 00 00	 call	 ?GetDegreeFromPosition2@@YAMMMMM@Z ; GetDegreeFromPosition2

; 1278 : 	fAngle = fmod(540.0f - fAngle, 360.0f);

  00081	d8 2d 00 00 00
	00		 fsubr	 DWORD PTR __real@44070000
  00087	83 c4 10	 add	 esp, 16			; 00000010H
; File C:\Program Files\Microsoft Visual Studio\2022\Community\VC\Tools\MSVC\14.44.35207\include\cmath

; 147  :     return _CSTD fmodf(_Xx, _Yx);

  0008a	f3 0f 10 0d 00
	00 00 00	 movss	 xmm1, DWORD PTR __real@43b40000
; File D:\_m2work\Server Client TMP4\ClientVS22\source\UserInterface\PythonPlayer.cpp

; 1278 : 	fAngle = fmod(540.0f - fAngle, 360.0f);

  00092	d9 5d e0	 fstp	 DWORD PTR tv213[ebp]
; File C:\Program Files\Microsoft Visual Studio\2022\Community\VC\Tools\MSVC\14.44.35207\include\cmath

; 147  :     return _CSTD fmodf(_Xx, _Yx);

  00095	f3 0f 10 45 e0	 movss	 xmm0, DWORD PTR tv213[ebp]
  0009a	e8 00 00 00 00	 call	 _fmodf
; File D:\_m2work\Server Client TMP4\ClientVS22\source\UserInterface\PythonPlayer.cpp

; 1283 : 	CEffectManager::Instance().RegisterEffect("d:/ymir work/effect/etc/compass/appear_middle.mse");

  0009f	8b 0d 00 00 00
	00		 mov	 ecx, DWORD PTR ?ms_singleton@?$CSingleton@VCEffectManager@@@@0PAVCEffectManager@@A ; CSingleton<CEffectManager>::ms_singleton
; File D:\_m2work\Server Client TMP4\ClientVS22\extern\include\d3dx8math.inl

; 182  :     z = fz;

  000a5	f3 0f 11 45 ec	 movss	 DWORD PTR _v3Rotation$[ebp+8], xmm0
; File D:\_m2work\Server Client TMP4\ClientVS22\source\UserInterface\PythonPlayer.cpp

; 1281 : 	PixelPosition.y *= -1.0f;

  000aa	f3 0f 10 45 f4	 movss	 xmm0, DWORD PTR _PixelPosition$[ebp+4]
  000af	f3 0f 59 05 00
	00 00 00	 mulss	 xmm0, DWORD PTR __real@bf800000

; 1283 : 	CEffectManager::Instance().RegisterEffect("d:/ymir work/effect/etc/compass/appear_middle.mse");

  000b7	6a 00		 push	 0
  000b9	6a 00		 push	 0
  000bb	68 00 00 00 00	 push	 OFFSET ??_C@_0DC@MDCBLGBM@d?3?1ymir?5work?1effect?1etc?1compass@
; File D:\_m2work\Server Client TMP4\ClientVS22\extern\include\d3dx8math.inl

; 180  :     x = fx;

  000c0	c7 45 e4 00 00
	00 00		 mov	 DWORD PTR _v3Rotation$[ebp], 0

; 181  :     y = fy;

  000c7	c7 45 e8 00 00
	00 00		 mov	 DWORD PTR _v3Rotation$[ebp+4], 0
; File D:\_m2work\Server Client TMP4\ClientVS22\source\UserInterface\PythonPlayer.cpp

; 1281 : 	PixelPosition.y *= -1.0f;

  000ce	f3 0f 11 45 f4	 movss	 DWORD PTR _PixelPosition$[ebp+4], xmm0

; 1283 : 	CEffectManager::Instance().RegisterEffect("d:/ymir work/effect/etc/compass/appear_middle.mse");

  000d3	e8 00 00 00 00	 call	 ?RegisterEffect@CEffectManager@@QAEHPBD_N1@Z ; CEffectManager::RegisterEffect

; 1284 : 	CEffectManager::Instance().CreateEffect("d:/ymir work/effect/etc/compass/appear_middle.mse", PixelPosition, v3Rotation);

  000d8	8b 0d 00 00 00
	00		 mov	 ecx, DWORD PTR ?ms_singleton@?$CSingleton@VCEffectManager@@@@0PAVCEffectManager@@A ; CSingleton<CEffectManager>::ms_singleton
  000de	8d 45 e4	 lea	 eax, DWORD PTR _v3Rotation$[ebp]
  000e1	50		 push	 eax
  000e2	8d 45 f0	 lea	 eax, DWORD PTR _PixelPosition$[ebp]
  000e5	50		 push	 eax
  000e6	68 00 00 00 00	 push	 OFFSET ??_C@_0DC@MDCBLGBM@d?3?1ymir?5work?1effect?1etc?1compass@
  000eb	e8 00 00 00 00	 call	 ?CreateEffect@CEffectManager@@QAEHPBDABUD3DXVECTOR3@@1@Z ; CEffectManager::CreateEffect
$LN1@AlarmHaveT:

; 1285 : }

  000f0	8b 4d fc	 mov	 ecx, DWORD PTR __$ArrayPad$[ebp]
  000f3	33 cd		 xor	 ecx, ebp
  000f5	5e		 pop	 esi
  000f6	e8 00 00 00 00	 call	 @__security_check_cookie@4
  000fb	8b e5		 mov	 esp, ebp
  000fd	5d		 pop	 ebp
  000fe	c3		 ret	 0
?AlarmHaveToGo@CPythonPlayer@@QAEXXZ ENDP		; CPythonPlayer::AlarmHaveToGo
_TEXT	ENDS
; Function compile flags: /Ogtp
; File D:\_m2work\Server Client TMP4\ClientVS22\source\UserInterface\PythonPlayer.cpp
; File C:\Program Files\Microsoft Visual Studio\2022\Community\VC\Tools\MSVC\14.44.35207\include\xtree
; File D:\_m2work\Server Client TMP4\ClientVS22\source\UserInterface\PythonPlayer.cpp
; File C:\Program Files\Microsoft Visual Studio\2022\Community\VC\Tools\MSVC\14.44.35207\include\xtree
; File D:\_m2work\Server Client TMP4\ClientVS22\source\UserInterface\PythonPlayer.cpp
; File C:\Program Files\Microsoft Visual Studio\2022\Community\VC\Tools\MSVC\14.44.35207\include\xtree
; File D:\_m2work\Server Client TMP4\ClientVS22\source\UserInterface\PythonPlayer.cpp
;	COMDAT ?ExitParty@CPythonPlayer@@QAEXXZ
_TEXT	SEGMENT
?ExitParty@CPythonPlayer@@QAEXXZ PROC			; CPythonPlayer::ExitParty, COMDAT
; _this$ = ecx

; 1289 : {

  00000	56		 push	 esi
; File C:\Program Files\Microsoft Visual Studio\2022\Community\VC\Tools\MSVC\14.44.35207\include\xtree

; 1373 :         auto _Head = _Scary->_Myhead;

  00001	8b b1 84 f7 00
	00		 mov	 esi, DWORD PTR [ecx+63364]
; File D:\_m2work\Server Client TMP4\ClientVS22\source\UserInterface\PythonPlayer.cpp

; 1289 : {

  00007	57		 push	 edi

; 1290 : 	m_PartyMemberMap.clear();

  00008	8d b9 84 f7 00
	00		 lea	 edi, DWORD PTR [ecx+63364]
; File C:\Program Files\Microsoft Visual Studio\2022\Community\VC\Tools\MSVC\14.44.35207\include\xtree

; 1374 :         _Scary->_Erase_tree(_Getal(), _Head->_Parent);

  0000e	8b cf		 mov	 ecx, edi
  00010	ff 76 04	 push	 DWORD PTR [esi+4]
  00013	57		 push	 edi
  00014	e8 00 00 00 00	 call	 ??$_Erase_tree@V?$allocator@U?$_Tree_node@U?$pair@$$CBKUSPartyMemberInfo@CPythonPlayer@@@std@@PAX@std@@@std@@@?$_Tree_val@U?$_Tree_simple_types@U?$pair@$$CBKUSPartyMemberInfo@CPythonPlayer@@@std@@@std@@@std@@QAEXAAV?$allocator@U?$_Tree_node@U?$pair@$$CBKUSPartyMemberInfo@CPythonPlayer@@@std@@PAX@std@@@1@PAU?$_Tree_node@U?$pair@$$CBKUSPartyMemberInfo@CPythonPlayer@@@std@@PAX@1@@Z ; std::_Tree_val<std::_Tree_simple_types<std::pair<unsigned long const ,CPythonPlayer::SPartyMemberInfo> > >::_Erase_tree<std::allocator<std::_Tree_node<std::pair<unsigned long const ,CPythonPlayer::SPartyMemberInfo>,void *> > >
; File D:\_m2work\Server Client TMP4\ClientVS22\source\UserInterface\PythonPlayer.cpp

; 1292 : 	CPythonCharacterManager::Instance().RefreshAllPCTextTail();

  00019	8b 0d 00 00 00
	00		 mov	 ecx, DWORD PTR ?ms_singleton@?$CSingleton@VCPythonCharacterManager@@@@0PAVCPythonCharacterManager@@A ; CSingleton<CPythonCharacterManager>::ms_singleton
; File C:\Program Files\Microsoft Visual Studio\2022\Community\VC\Tools\MSVC\14.44.35207\include\xtree

; 1375 :         _Head->_Parent  = _Head;

  0001f	89 76 04	 mov	 DWORD PTR [esi+4], esi

; 1376 :         _Head->_Left    = _Head;

  00022	89 36		 mov	 DWORD PTR [esi], esi

; 1377 :         _Head->_Right   = _Head;

  00024	89 76 08	 mov	 DWORD PTR [esi+8], esi

; 1378 :         _Scary->_Mysize = 0;

  00027	c7 47 04 00 00
	00 00		 mov	 DWORD PTR [edi+4], 0
; File D:\_m2work\Server Client TMP4\ClientVS22\source\UserInterface\PythonPlayer.cpp

; 1292 : 	CPythonCharacterManager::Instance().RefreshAllPCTextTail();

  0002e	5f		 pop	 edi
  0002f	5e		 pop	 esi
  00030	e9 00 00 00 00	 jmp	 ?RefreshAllPCTextTail@CPythonCharacterManager@@QAEXXZ ; CPythonCharacterManager::RefreshAllPCTextTail
?ExitParty@CPythonPlayer@@QAEXXZ ENDP			; CPythonPlayer::ExitParty
_TEXT	ENDS
; Function compile flags: /Ogtp
; File C:\Program Files\Microsoft Visual Studio\2022\Community\VC\Tools\MSVC\14.44.35207\include\xstring
;	COMDAT ??1SPartyMemberInfo@CPythonPlayer@@QAE@XZ
_TEXT	SEGMENT
??1SPartyMemberInfo@CPythonPlayer@@QAE@XZ PROC		; CPythonPlayer::SPartyMemberInfo::~SPartyMemberInfo, COMDAT
; _this$ = ecx
  00000	83 c1 08	 add	 ecx, 8

; 1383 :         _Tidy_deallocate();

  00003	e9 00 00 00 00	 jmp	 ?_Tidy_deallocate@?$basic_string@DU?$char_traits@D@std@@V?$allocator@D@2@@std@@AAEXXZ ; std::basic_string<char,std::char_traits<char>,std::allocator<char> >::_Tidy_deallocate
??1SPartyMemberInfo@CPythonPlayer@@QAE@XZ ENDP		; CPythonPlayer::SPartyMemberInfo::~SPartyMemberInfo
_TEXT	ENDS
; Function compile flags: /Ogtp
; File C:\Program Files\Microsoft Visual Studio\2022\Community\VC\Tools\MSVC\14.44.35207\include\xstring
;	COMDAT ??1?$pair@KUSPartyMemberInfo@CPythonPlayer@@@std@@QAE@XZ
_TEXT	SEGMENT
??1?$pair@KUSPartyMemberInfo@CPythonPlayer@@@std@@QAE@XZ PROC ; std::pair<unsigned long,CPythonPlayer::SPartyMemberInfo>::~pair<unsigned long,CPythonPlayer::SPartyMemberInfo>, COMDAT
; _this$ = ecx
  00000	83 c1 0c	 add	 ecx, 12			; 0000000cH

; 1383 :         _Tidy_deallocate();

  00003	e9 00 00 00 00	 jmp	 ?_Tidy_deallocate@?$basic_string@DU?$char_traits@D@std@@V?$allocator@D@2@@std@@AAEXXZ ; std::basic_string<char,std::char_traits<char>,std::allocator<char> >::_Tidy_deallocate
??1?$pair@KUSPartyMemberInfo@CPythonPlayer@@@std@@QAE@XZ ENDP ; std::pair<unsigned long,CPythonPlayer::SPartyMemberInfo>::~pair<unsigned long,CPythonPlayer::SPartyMemberInfo>
_TEXT	ENDS
; Function compile flags: /Ogtp
; File D:\_m2work\Server Client TMP4\ClientVS22\source\UserInterface\PythonPlayer.cpp
;	COMDAT ?RemovePartyMember@CPythonPlayer@@QAEXK@Z
_TEXT	SEGMENT
_pPartyMemberInfo$ = -4					; size = 4
_dwPID$ = 8						; size = 4
?RemovePartyMember@CPythonPlayer@@QAEXK@Z PROC		; CPythonPlayer::RemovePartyMember, COMDAT
; _this$ = ecx

; 1360 : {

  00000	55		 push	 ebp
  00001	8b ec		 mov	 ebp, esp
  00003	51		 push	 ecx
  00004	56		 push	 esi
  00005	57		 push	 edi

; 1361 : 	DWORD dwVID = 0;
; 1362 : 	TPartyMemberInfo * pPartyMemberInfo;
; 1363 : 	if (GetPartyMemberPtr(dwPID, &pPartyMemberInfo))

  00006	8d 45 fc	 lea	 eax, DWORD PTR _pPartyMemberInfo$[ebp]
  00009	8b f9		 mov	 edi, ecx
  0000b	50		 push	 eax
  0000c	ff 75 08	 push	 DWORD PTR _dwPID$[ebp]
  0000f	33 f6		 xor	 esi, esi
  00011	e8 00 00 00 00	 call	 ?GetPartyMemberPtr@CPythonPlayer@@QAE_NKPAPAUSPartyMemberInfo@1@@Z ; CPythonPlayer::GetPartyMemberPtr
  00016	84 c0		 test	 al, al
  00018	74 05		 je	 SHORT $LN2@RemovePart

; 1364 : 	{
; 1365 : 		dwVID = pPartyMemberInfo->dwVID;

  0001a	8b 45 fc	 mov	 eax, DWORD PTR _pPartyMemberInfo$[ebp]
  0001d	8b 30		 mov	 esi, DWORD PTR [eax]
$LN2@RemovePart:

; 1366 : 	}
; 1367 : 
; 1368 : 	m_PartyMemberMap.erase(dwPID);

  0001f	8d 45 08	 lea	 eax, DWORD PTR _dwPID$[ebp]
  00022	50		 push	 eax
  00023	8d 8f 84 f7 00
	00		 lea	 ecx, DWORD PTR [edi+63364]
  00029	e8 00 00 00 00	 call	 ?erase@?$_Tree@V?$_Tmap_traits@KUSPartyMemberInfo@CPythonPlayer@@U?$less@K@std@@V?$allocator@U?$pair@$$CBKUSPartyMemberInfo@CPythonPlayer@@@std@@@4@$0A@@std@@@std@@QAEIABK@Z ; std::_Tree<std::_Tmap_traits<unsigned long,CPythonPlayer::SPartyMemberInfo,std::less<unsigned long>,std::allocator<std::pair<unsigned long const ,CPythonPlayer::SPartyMemberInfo> >,0> >::erase

; 1369 : 
; 1370 : 	if (dwVID > 0)

  0002e	85 f6		 test	 esi, esi
  00030	74 11		 je	 SHORT $LN4@RemovePart

; 1371 : 	{
; 1372 : 		CInstanceBase * pInstance = NEW_FindActorPtr(dwVID);

  00032	56		 push	 esi
  00033	e8 00 00 00 00	 call	 ?NEW_FindActorPtr@CPythonPlayer@@QAEPAVCInstanceBase@@K@Z ; CPythonPlayer::NEW_FindActorPtr

; 1373 : 		if (pInstance)

  00038	85 c0		 test	 eax, eax
  0003a	74 07		 je	 SHORT $LN4@RemovePart

; 1374 : 			pInstance->RefreshTextTail();

  0003c	8b c8		 mov	 ecx, eax
  0003e	e8 00 00 00 00	 call	 ?RefreshTextTail@CInstanceBase@@QAEXXZ ; CInstanceBase::RefreshTextTail
$LN4@RemovePart:

; 1375 : 	}
; 1376 : }

  00043	5f		 pop	 edi
  00044	5e		 pop	 esi
  00045	8b e5		 mov	 esp, ebp
  00047	5d		 pop	 ebp
  00048	c2 04 00	 ret	 4
?RemovePartyMember@CPythonPlayer@@QAEXK@Z ENDP		; CPythonPlayer::RemovePartyMember
_TEXT	ENDS
; Function compile flags: /Ogtp
; File D:\_m2work\Server Client TMP4\ClientVS22\source\UserInterface\PythonPlayer.cpp
; File C:\Program Files\Microsoft Visual Studio\2022\Community\VC\Tools\MSVC\14.44.35207\include\xtree
; File D:\_m2work\Server Client TMP4\ClientVS22\source\UserInterface\PythonPlayer.cpp
; File C:\Program Files\Microsoft Visual Studio\2022\Community\VC\Tools\MSVC\14.44.35207\include\xtree
; File D:\_m2work\Server Client TMP4\ClientVS22\source\UserInterface\PythonPlayer.cpp
; File C:\Program Files\Microsoft Visual Studio\2022\Community\VC\Tools\MSVC\14.44.35207\include\xtree
; File D:\_m2work\Server Client TMP4\ClientVS22\source\UserInterface\PythonPlayer.cpp
;	COMDAT ?IsPartyMemberByVID@CPythonPlayer@@UAE_NK@Z
_TEXT	SEGMENT
_itor$ = -4						; size = 4
_dwVID$ = 8						; size = 4
?IsPartyMemberByVID@CPythonPlayer@@UAE_NK@Z PROC	; CPythonPlayer::IsPartyMemberByVID, COMDAT
; _this$ = ecx

; 1379 : {

  00000	55		 push	 ebp
  00001	8b ec		 mov	 ebp, esp
  00003	51		 push	 ecx
  00004	56		 push	 esi
; File C:\Program Files\Microsoft Visual Studio\2022\Community\VC\Tools\MSVC\14.44.35207\include\xtree

; 1142 :         return iterator(_Scary->_Myhead->_Left, _Scary);

  00005	8b b1 80 f7 00
	00		 mov	 esi, DWORD PTR [ecx+63360]
; File D:\_m2work\Server Client TMP4\ClientVS22\source\UserInterface\PythonPlayer.cpp

; 1379 : {

  0000b	57		 push	 edi
; File C:\Program Files\Microsoft Visual Studio\2022\Community\VC\Tools\MSVC\14.44.35207\include\xtree

; 37   :     _Tree_unchecked_const_iterator(_Nodeptr _Pnode, const _Mytree* _Plist) noexcept : _Ptr(_Pnode) {

  0000c	8b 06		 mov	 eax, DWORD PTR [esi]
  0000e	89 45 fc	 mov	 DWORD PTR _itor$[ebp], eax
  00011	3b c6		 cmp	 eax, esi
; File D:\_m2work\Server Client TMP4\ClientVS22\source\UserInterface\PythonPlayer.cpp

; 1381 : 	for (; itor != m_PartyMemberMap.end(); ++itor)

  00013	74 17		 je	 SHORT $LN3@IsPartyMem
  00015	8b 7d 08	 mov	 edi, DWORD PTR _dwVID$[ebp]
$LL4@IsPartyMem:

; 1382 : 	{
; 1383 : 		TPartyMemberInfo & rPartyMemberInfo = itor->second;
; 1384 : 		if (dwVID == rPartyMemberInfo.dwVID)

  00018	3b 78 14	 cmp	 edi, DWORD PTR [eax+20]
  0001b	74 19		 je	 SHORT $LN50@IsPartyMem
; File C:\Program Files\Microsoft Visual Studio\2022\Community\VC\Tools\MSVC\14.44.35207\include\xtree

; 198  :         _Mybase::operator++();

  0001d	8d 4d fc	 lea	 ecx, DWORD PTR _itor$[ebp]
  00020	e8 00 00 00 00	 call	 ??E?$_Tree_unchecked_const_iterator@V?$_Tree_val@U?$_Tree_simple_types@U?$pair@$$CBKUSPartyMemberInfo@CPythonPlayer@@@std@@@std@@@std@@U_Iterator_base0@2@@std@@QAEAAV01@XZ ; std::_Tree_unchecked_const_iterator<std::_Tree_val<std::_Tree_simple_types<std::pair<unsigned long const ,CPythonPlayer::SPartyMemberInfo> > >,std::_Iterator_base0>::operator++

; 232  :         return this->_Ptr == _Right._Ptr;

  00025	8b 45 fc	 mov	 eax, DWORD PTR _itor$[ebp]
  00028	3b c6		 cmp	 eax, esi
; File D:\_m2work\Server Client TMP4\ClientVS22\source\UserInterface\PythonPlayer.cpp

; 1381 : 	for (; itor != m_PartyMemberMap.end(); ++itor)

  0002a	75 ec		 jne	 SHORT $LL4@IsPartyMem
$LN3@IsPartyMem:
  0002c	5f		 pop	 edi

; 1386 : 	}
; 1387 : 
; 1388 : 	return false;

  0002d	32 c0		 xor	 al, al

; 1389 : }

  0002f	5e		 pop	 esi
  00030	8b e5		 mov	 esp, ebp
  00032	5d		 pop	 ebp
  00033	c2 04 00	 ret	 4
$LN50@IsPartyMem:
  00036	5f		 pop	 edi

; 1385 : 			return true;

  00037	b0 01		 mov	 al, 1

; 1389 : }

  00039	5e		 pop	 esi
  0003a	8b e5		 mov	 esp, ebp
  0003c	5d		 pop	 ebp
  0003d	c2 04 00	 ret	 4
?IsPartyMemberByVID@CPythonPlayer@@UAE_NK@Z ENDP	; CPythonPlayer::IsPartyMemberByVID
_TEXT	ENDS
; Function compile flags: /Ogtp
; File D:\_m2work\Server Client TMP4\ClientVS22\source\UserInterface\PythonPlayer.cpp
; File C:\Program Files\Microsoft Visual Studio\2022\Community\VC\Tools\MSVC\14.44.35207\include\xtree
; File D:\_m2work\Server Client TMP4\ClientVS22\source\UserInterface\PythonPlayer.cpp
; File C:\Program Files\Microsoft Visual Studio\2022\Community\VC\Tools\MSVC\14.44.35207\include\xtree
; File D:\_m2work\Server Client TMP4\ClientVS22\source\UserInterface\PythonPlayer.cpp
; File C:\Program Files\Microsoft Visual Studio\2022\Community\VC\Tools\MSVC\14.44.35207\include\__msvc_string_view.hpp
; File C:\Program Files\Microsoft Visual Studio\2022\Community\VC\Tools\MSVC\14.44.35207\include\xstring
; File C:\Program Files\Microsoft Visual Studio\2022\Community\VC\Tools\MSVC\14.44.35207\include\__msvc_string_view.hpp
; File C:\Program Files\Microsoft Visual Studio\2022\Community\VC\Tools\MSVC\14.44.35207\include\xstring
; File D:\_m2work\Server Client TMP4\ClientVS22\source\UserInterface\PythonPlayer.cpp
; File C:\Program Files\Microsoft Visual Studio\2022\Community\VC\Tools\MSVC\14.44.35207\include\xtree
; File D:\_m2work\Server Client TMP4\ClientVS22\source\UserInterface\PythonPlayer.cpp
;	COMDAT ?IsPartyMemberByName@CPythonPlayer@@QAE_NPBD@Z
_TEXT	SEGMENT
_itor$ = -4						; size = 4
_c_szName$ = 8						; size = 4
?IsPartyMemberByName@CPythonPlayer@@QAE_NPBD@Z PROC	; CPythonPlayer::IsPartyMemberByName, COMDAT
; _this$ = ecx

; 1392 : {

  00000	55		 push	 ebp
  00001	8b ec		 mov	 ebp, esp
  00003	51		 push	 ecx
  00004	53		 push	 ebx
  00005	56		 push	 esi
; File C:\Program Files\Microsoft Visual Studio\2022\Community\VC\Tools\MSVC\14.44.35207\include\xtree

; 1142 :         return iterator(_Scary->_Myhead->_Left, _Scary);

  00006	8b b1 84 f7 00
	00		 mov	 esi, DWORD PTR [ecx+63364]
; File D:\_m2work\Server Client TMP4\ClientVS22\source\UserInterface\PythonPlayer.cpp

; 1392 : {

  0000c	57		 push	 edi
; File C:\Program Files\Microsoft Visual Studio\2022\Community\VC\Tools\MSVC\14.44.35207\include\xtree

; 37   :     _Tree_unchecked_const_iterator(_Nodeptr _Pnode, const _Mytree* _Plist) noexcept : _Ptr(_Pnode) {

  0000d	8b 06		 mov	 eax, DWORD PTR [esi]
  0000f	89 45 fc	 mov	 DWORD PTR _itor$[ebp], eax
  00012	3b c6		 cmp	 eax, esi
; File D:\_m2work\Server Client TMP4\ClientVS22\source\UserInterface\PythonPlayer.cpp

; 1394 : 	for (; itor != m_PartyMemberMap.end(); ++itor)

  00014	74 45		 je	 SHORT $LN3@IsPartyMem
  00016	8b 7d 08	 mov	 edi, DWORD PTR _c_szName$[ebp]
  00019	0f 1f 80 00 00
	00 00		 npad	 7
$LL4@IsPartyMem:

; 1397 : 		if (0 == rPartyMemberInfo.strName.compare(c_szName))

  00020	8d 50 1c	 lea	 edx, DWORD PTR [eax+28]
; File C:\Program Files\Microsoft Visual Studio\2022\Community\VC\Tools\MSVC\14.44.35207\include\__msvc_string_view.hpp

; 456  :             return __builtin_strlen(_First);

  00023	8b c7		 mov	 eax, edi
  00025	8d 58 01	 lea	 ebx, DWORD PTR [eax+1]
$LL67@IsPartyMem:
  00028	8a 08		 mov	 cl, BYTE PTR [eax]
  0002a	40		 inc	 eax
  0002b	84 c9		 test	 cl, cl
  0002d	75 f9		 jne	 SHORT $LL67@IsPartyMem
; File C:\Program Files\Microsoft Visual Studio\2022\Community\VC\Tools\MSVC\14.44.35207\include\xstring

; 2912 :         return _Traits_compare<_Traits>(_Mypair._Myval2._Myptr(), _Mypair._Myval2._Mysize, _Ptr, _Traits::length(_Ptr));

  0002f	8b 4a 10	 mov	 ecx, DWORD PTR [edx+16]
; File C:\Program Files\Microsoft Visual Studio\2022\Community\VC\Tools\MSVC\14.44.35207\include\__msvc_string_view.hpp

; 456  :             return __builtin_strlen(_First);

  00032	2b c3		 sub	 eax, ebx
; File C:\Program Files\Microsoft Visual Studio\2022\Community\VC\Tools\MSVC\14.44.35207\include\xstring

; 453  :         return _Myres > _Small_string_capacity;

  00034	83 7a 14 0f	 cmp	 DWORD PTR [edx+20], 15	; 0000000fH

; 445  :         if (_Large_mode_engaged()) {

  00038	76 02		 jbe	 SHORT $LN56@IsPartyMem

; 446  :             _Result = _Unfancy(_Bx._Ptr);

  0003a	8b 12		 mov	 edx, DWORD PTR [edx]
$LN56@IsPartyMem:

; 2912 :         return _Traits_compare<_Traits>(_Mypair._Myval2._Myptr(), _Mypair._Myval2._Mysize, _Ptr, _Traits::length(_Ptr));

  0003c	50		 push	 eax
  0003d	57		 push	 edi
  0003e	51		 push	 ecx
  0003f	52		 push	 edx
  00040	e8 00 00 00 00	 call	 ??$_Traits_compare@U?$char_traits@D@std@@@std@@YAHQBDI0I@Z ; std::_Traits_compare<std::char_traits<char> >
  00045	83 c4 10	 add	 esp, 16			; 00000010H
; File D:\_m2work\Server Client TMP4\ClientVS22\source\UserInterface\PythonPlayer.cpp

; 1397 : 		if (0 == rPartyMemberInfo.strName.compare(c_szName))

  00048	85 c0		 test	 eax, eax
  0004a	74 1a		 je	 SHORT $LN63@IsPartyMem
; File C:\Program Files\Microsoft Visual Studio\2022\Community\VC\Tools\MSVC\14.44.35207\include\xtree

; 198  :         _Mybase::operator++();

  0004c	8d 4d fc	 lea	 ecx, DWORD PTR _itor$[ebp]
  0004f	e8 00 00 00 00	 call	 ??E?$_Tree_unchecked_const_iterator@V?$_Tree_val@U?$_Tree_simple_types@U?$pair@$$CBKUSPartyMemberInfo@CPythonPlayer@@@std@@@std@@@std@@U_Iterator_base0@2@@std@@QAEAAV01@XZ ; std::_Tree_unchecked_const_iterator<std::_Tree_val<std::_Tree_simple_types<std::pair<unsigned long const ,CPythonPlayer::SPartyMemberInfo> > >,std::_Iterator_base0>::operator++

; 232  :         return this->_Ptr == _Right._Ptr;

  00054	8b 45 fc	 mov	 eax, DWORD PTR _itor$[ebp]
  00057	3b c6		 cmp	 eax, esi
; File D:\_m2work\Server Client TMP4\ClientVS22\source\UserInterface\PythonPlayer.cpp

; 1394 : 	for (; itor != m_PartyMemberMap.end(); ++itor)

  00059	75 c5		 jne	 SHORT $LL4@IsPartyMem
$LN3@IsPartyMem:
  0005b	5f		 pop	 edi

; 1398 : 			return true;
; 1399 : 	}
; 1400 : 
; 1401 : 	return false;
; 1402 : }

  0005c	5e		 pop	 esi
  0005d	32 c0		 xor	 al, al
  0005f	5b		 pop	 ebx
  00060	8b e5		 mov	 esp, ebp
  00062	5d		 pop	 ebp
  00063	c2 04 00	 ret	 4
$LN63@IsPartyMem:
  00066	5f		 pop	 edi
  00067	5e		 pop	 esi
  00068	b0 01		 mov	 al, 1
  0006a	5b		 pop	 ebx
  0006b	8b e5		 mov	 esp, ebp
  0006d	5d		 pop	 ebp
  0006e	c2 04 00	 ret	 4
?IsPartyMemberByName@CPythonPlayer@@QAE_NPBD@Z ENDP	; CPythonPlayer::IsPartyMemberByName
_TEXT	ENDS
; Function compile flags: /Ogtp
; File D:\_m2work\Server Client TMP4\ClientVS22\source\UserInterface\PythonPlayer.cpp
; File C:\Program Files\Microsoft Visual Studio\2022\Community\VC\Tools\MSVC\14.44.35207\include\xtree
; File D:\_m2work\Server Client TMP4\ClientVS22\source\UserInterface\PythonPlayer.cpp
; File C:\Program Files\Microsoft Visual Studio\2022\Community\VC\Tools\MSVC\14.44.35207\include\xtree
; File D:\_m2work\Server Client TMP4\ClientVS22\source\UserInterface\PythonPlayer.cpp
; File C:\Program Files\Microsoft Visual Studio\2022\Community\VC\Tools\MSVC\14.44.35207\include\xtree
; File D:\_m2work\Server Client TMP4\ClientVS22\source\UserInterface\PythonPlayer.cpp
;	COMDAT ?PartyMemberVIDToPID@CPythonPlayer@@UAE_NKPAK@Z
_TEXT	SEGMENT
_itor$ = -4						; size = 4
_dwVID$ = 8						; size = 4
_pdwPID$ = 12						; size = 4
?PartyMemberVIDToPID@CPythonPlayer@@UAE_NKPAK@Z PROC	; CPythonPlayer::PartyMemberVIDToPID, COMDAT
; _this$ = ecx

; 1430 : {

  00000	55		 push	 ebp
  00001	8b ec		 mov	 ebp, esp
  00003	51		 push	 ecx
  00004	56		 push	 esi
; File C:\Program Files\Microsoft Visual Studio\2022\Community\VC\Tools\MSVC\14.44.35207\include\xtree

; 1142 :         return iterator(_Scary->_Myhead->_Left, _Scary);

  00005	8b b1 80 f7 00
	00		 mov	 esi, DWORD PTR [ecx+63360]
; File D:\_m2work\Server Client TMP4\ClientVS22\source\UserInterface\PythonPlayer.cpp

; 1430 : {

  0000b	57		 push	 edi
; File C:\Program Files\Microsoft Visual Studio\2022\Community\VC\Tools\MSVC\14.44.35207\include\xtree

; 37   :     _Tree_unchecked_const_iterator(_Nodeptr _Pnode, const _Mytree* _Plist) noexcept : _Ptr(_Pnode) {

  0000c	8b 06		 mov	 eax, DWORD PTR [esi]
  0000e	89 45 fc	 mov	 DWORD PTR _itor$[ebp], eax
  00011	3b c6		 cmp	 eax, esi
; File D:\_m2work\Server Client TMP4\ClientVS22\source\UserInterface\PythonPlayer.cpp

; 1432 : 	for (; itor != m_PartyMemberMap.end(); ++itor)

  00013	74 17		 je	 SHORT $LN3@PartyMembe
  00015	8b 7d 08	 mov	 edi, DWORD PTR _dwVID$[ebp]
$LL4@PartyMembe:

; 1433 : 	{
; 1434 : 		TPartyMemberInfo & rPartyMemberInfo = itor->second;
; 1435 : 		if (dwVID == rPartyMemberInfo.dwVID)

  00018	3b 78 14	 cmp	 edi, DWORD PTR [eax+20]
  0001b	74 19		 je	 SHORT $LN50@PartyMembe
; File C:\Program Files\Microsoft Visual Studio\2022\Community\VC\Tools\MSVC\14.44.35207\include\xtree

; 198  :         _Mybase::operator++();

  0001d	8d 4d fc	 lea	 ecx, DWORD PTR _itor$[ebp]
  00020	e8 00 00 00 00	 call	 ??E?$_Tree_unchecked_const_iterator@V?$_Tree_val@U?$_Tree_simple_types@U?$pair@$$CBKUSPartyMemberInfo@CPythonPlayer@@@std@@@std@@@std@@U_Iterator_base0@2@@std@@QAEAAV01@XZ ; std::_Tree_unchecked_const_iterator<std::_Tree_val<std::_Tree_simple_types<std::pair<unsigned long const ,CPythonPlayer::SPartyMemberInfo> > >,std::_Iterator_base0>::operator++

; 232  :         return this->_Ptr == _Right._Ptr;

  00025	8b 45 fc	 mov	 eax, DWORD PTR _itor$[ebp]
  00028	3b c6		 cmp	 eax, esi
; File D:\_m2work\Server Client TMP4\ClientVS22\source\UserInterface\PythonPlayer.cpp

; 1432 : 	for (; itor != m_PartyMemberMap.end(); ++itor)

  0002a	75 ec		 jne	 SHORT $LL4@PartyMembe
$LN3@PartyMembe:
  0002c	5f		 pop	 edi

; 1438 : 			return true;
; 1439 : 		}
; 1440 : 	}
; 1441 : 
; 1442 : 	return false;

  0002d	32 c0		 xor	 al, al

; 1443 : }

  0002f	5e		 pop	 esi
  00030	8b e5		 mov	 esp, ebp
  00032	5d		 pop	 ebp
  00033	c2 08 00	 ret	 8
$LN50@PartyMembe:

; 1436 : 		{
; 1437 : 			*pdwPID = rPartyMemberInfo.dwPID;

  00036	8b 48 18	 mov	 ecx, DWORD PTR [eax+24]
  00039	8b 45 0c	 mov	 eax, DWORD PTR _pdwPID$[ebp]
  0003c	5f		 pop	 edi

; 1443 : }

  0003d	5e		 pop	 esi
  0003e	89 08		 mov	 DWORD PTR [eax], ecx
  00040	b0 01		 mov	 al, 1
  00042	8b e5		 mov	 esp, ebp
  00044	5d		 pop	 ebp
  00045	c2 08 00	 ret	 8
?PartyMemberVIDToPID@CPythonPlayer@@UAE_NKPAK@Z ENDP	; CPythonPlayer::PartyMemberVIDToPID
_TEXT	ENDS
; Function compile flags: /Ogtp
; File D:\_m2work\Server Client TMP4\ClientVS22\source\UserInterface\PythonPlayer.cpp
;	COMDAT ?IsSamePartyMember@CPythonPlayer@@UAE_NKK@Z
_TEXT	SEGMENT
_dwVID1$ = 8						; size = 4
_dwVID2$ = 12						; size = 4
?IsSamePartyMember@CPythonPlayer@@UAE_NKK@Z PROC	; CPythonPlayer::IsSamePartyMember, COMDAT
; _this$ = ecx

; 1446 : {

  00000	55		 push	 ebp
  00001	8b ec		 mov	 ebp, esp
  00003	56		 push	 esi

; 1447 : 	return (IsPartyMemberByVID(dwVID1) && IsPartyMemberByVID(dwVID2));

  00004	ff 75 08	 push	 DWORD PTR _dwVID1$[ebp]
  00007	8b f1		 mov	 esi, ecx
  00009	8b 06		 mov	 eax, DWORD PTR [esi]
  0000b	8b 40 24	 mov	 eax, DWORD PTR [eax+36]
  0000e	ff d0		 call	 eax
  00010	84 c0		 test	 al, al
  00012	74 17		 je	 SHORT $LN3@IsSamePart
  00014	8b 06		 mov	 eax, DWORD PTR [esi]
  00016	8b ce		 mov	 ecx, esi
  00018	ff 75 0c	 push	 DWORD PTR _dwVID2$[ebp]
  0001b	8b 40 24	 mov	 eax, DWORD PTR [eax+36]
  0001e	ff d0		 call	 eax
  00020	84 c0		 test	 al, al
  00022	74 07		 je	 SHORT $LN3@IsSamePart
  00024	b0 01		 mov	 al, 1
  00026	5e		 pop	 esi

; 1448 : }

  00027	5d		 pop	 ebp
  00028	c2 08 00	 ret	 8
$LN3@IsSamePart:

; 1447 : 	return (IsPartyMemberByVID(dwVID1) && IsPartyMemberByVID(dwVID2));

  0002b	32 c0		 xor	 al, al
  0002d	5e		 pop	 esi

; 1448 : }

  0002e	5d		 pop	 ebp
  0002f	c2 08 00	 ret	 8
?IsSamePartyMember@CPythonPlayer@@UAE_NKK@Z ENDP	; CPythonPlayer::IsSamePartyMember
_TEXT	ENDS
; Function compile flags: /Ogtp
; File D:\_m2work\Server Client TMP4\ClientVS22\source\UserInterface\PythonPlayer.cpp
; File C:\Program Files\Microsoft Visual Studio\2022\Community\VC\Tools\MSVC\14.44.35207\include\xtree
; File C:\Program Files\Microsoft Visual Studio\2022\Community\VC\Tools\MSVC\14.44.35207\include\type_traits
; File C:\Program Files\Microsoft Visual Studio\2022\Community\VC\Tools\MSVC\14.44.35207\include\xtree
; File D:\_m2work\Server Client TMP4\ClientVS22\source\UserInterface\PythonPlayer.cpp
;	COMDAT ?IsChallengeInstance@CPythonPlayer@@QAE_NK@Z
_TEXT	SEGMENT
__Loc$1 = -12						; size = 12
_dwVID$ = 8						; size = 4
?IsChallengeInstance@CPythonPlayer@@QAE_NK@Z PROC	; CPythonPlayer::IsChallengeInstance, COMDAT
; _this$ = ecx

; 1473 : {

  00000	55		 push	 ebp
  00001	8b ec		 mov	 ebp, esp
  00003	83 ec 0c	 sub	 esp, 12			; 0000000cH
  00006	56		 push	 esi
; File C:\Program Files\Microsoft Visual Studio\2022\Community\VC\Tools\MSVC\14.44.35207\include\xtree

; 37   :     _Tree_unchecked_const_iterator(_Nodeptr _Pnode, const _Mytree* _Plist) noexcept : _Ptr(_Pnode) {

  00007	8b b1 8c f7 00
	00		 mov	 esi, DWORD PTR [ecx+63372]

; 1384 :         const _Tree_find_result<_Nodeptr> _Loc = _Find_lower_bound(_Keyval);

  0000d	8d 45 08	 lea	 eax, DWORD PTR _dwVID$[ebp]

; 1152 :         return iterator(_Scary->_Myhead, _Scary);

  00010	81 c1 8c f7 00
	00		 add	 ecx, 63372		; 0000f78cH

; 1384 :         const _Tree_find_result<_Nodeptr> _Loc = _Find_lower_bound(_Keyval);

  00016	50		 push	 eax
  00017	8d 45 f4	 lea	 eax, DWORD PTR __Loc$1[ebp]
  0001a	50		 push	 eax
  0001b	e8 00 00 00 00	 call	 ??$_Find_lower_bound@K@?$_Tree@V?$_Tset_traits@KU?$less@K@std@@V?$allocator@K@2@$0A@@std@@@std@@IBE?AU?$_Tree_find_result@PAU?$_Tree_node@KPAX@std@@@1@ABK@Z ; std::_Tree<std::_Tset_traits<unsigned long,std::less<unsigned long>,std::allocator<unsigned long>,0> >::_Find_lower_bound<unsigned long>

; 1624 :         return !_Bound->_Isnil && !_DEBUG_LT_PRED(_Getcomp(), _Keyval, _Traits::_Kfn(_Bound->_Myval));

  00020	8b 4d fc	 mov	 ecx, DWORD PTR __Loc$1[ebp+8]
  00023	80 79 0d 00	 cmp	 BYTE PTR [ecx+13], 0
  00027	75 08		 jne	 SHORT $LN15@IsChalleng
; File C:\Program Files\Microsoft Visual Studio\2022\Community\VC\Tools\MSVC\14.44.35207\include\type_traits

; 2380 :         return _Left < _Right;

  00029	8b 45 08	 mov	 eax, DWORD PTR _dwVID$[ebp]
  0002c	3b 41 10	 cmp	 eax, DWORD PTR [ecx+16]
; File C:\Program Files\Microsoft Visual Studio\2022\Community\VC\Tools\MSVC\14.44.35207\include\xtree

; 1624 :         return !_Bound->_Isnil && !_DEBUG_LT_PRED(_Getcomp(), _Keyval, _Traits::_Kfn(_Bound->_Myval));

  0002f	73 02		 jae	 SHORT $LN14@IsChalleng
$LN15@IsChalleng:

; 1389 :         return _Get_scary()->_Myhead;

  00031	8b ce		 mov	 ecx, esi
$LN14@IsChalleng:

; 232  :         return this->_Ptr == _Right._Ptr;

  00033	3b f1		 cmp	 esi, ecx
; File D:\_m2work\Server Client TMP4\ClientVS22\source\UserInterface\PythonPlayer.cpp

; 1474 : 	return m_ChallengeInstanceSet.end() != m_ChallengeInstanceSet.find(dwVID);

  00035	5e		 pop	 esi
  00036	0f 95 c0	 setne	 al

; 1475 : }

  00039	8b e5		 mov	 esp, ebp
  0003b	5d		 pop	 ebp
  0003c	c2 04 00	 ret	 4
?IsChallengeInstance@CPythonPlayer@@QAE_NK@Z ENDP	; CPythonPlayer::IsChallengeInstance
_TEXT	ENDS
; Function compile flags: /Ogtp
; File D:\_m2work\Server Client TMP4\ClientVS22\source\UserInterface\PythonPlayer.cpp
; File C:\Program Files\Microsoft Visual Studio\2022\Community\VC\Tools\MSVC\14.44.35207\include\xtree
; File C:\Program Files\Microsoft Visual Studio\2022\Community\VC\Tools\MSVC\14.44.35207\include\type_traits
; File C:\Program Files\Microsoft Visual Studio\2022\Community\VC\Tools\MSVC\14.44.35207\include\xtree
; File D:\_m2work\Server Client TMP4\ClientVS22\source\UserInterface\PythonPlayer.cpp
;	COMDAT ?IsRevengeInstance@CPythonPlayer@@QAE_NK@Z
_TEXT	SEGMENT
__Loc$1 = -12						; size = 12
_dwVID$ = 8						; size = 4
?IsRevengeInstance@CPythonPlayer@@QAE_NK@Z PROC		; CPythonPlayer::IsRevengeInstance, COMDAT
; _this$ = ecx

; 1477 : {

  00000	55		 push	 ebp
  00001	8b ec		 mov	 ebp, esp
  00003	83 ec 0c	 sub	 esp, 12			; 0000000cH
  00006	56		 push	 esi
; File C:\Program Files\Microsoft Visual Studio\2022\Community\VC\Tools\MSVC\14.44.35207\include\xtree

; 37   :     _Tree_unchecked_const_iterator(_Nodeptr _Pnode, const _Mytree* _Plist) noexcept : _Ptr(_Pnode) {

  00007	8b b1 94 f7 00
	00		 mov	 esi, DWORD PTR [ecx+63380]

; 1384 :         const _Tree_find_result<_Nodeptr> _Loc = _Find_lower_bound(_Keyval);

  0000d	8d 45 08	 lea	 eax, DWORD PTR _dwVID$[ebp]

; 1152 :         return iterator(_Scary->_Myhead, _Scary);

  00010	81 c1 94 f7 00
	00		 add	 ecx, 63380		; 0000f794H

; 1384 :         const _Tree_find_result<_Nodeptr> _Loc = _Find_lower_bound(_Keyval);

  00016	50		 push	 eax
  00017	8d 45 f4	 lea	 eax, DWORD PTR __Loc$1[ebp]
  0001a	50		 push	 eax
  0001b	e8 00 00 00 00	 call	 ??$_Find_lower_bound@K@?$_Tree@V?$_Tset_traits@KU?$less@K@std@@V?$allocator@K@2@$0A@@std@@@std@@IBE?AU?$_Tree_find_result@PAU?$_Tree_node@KPAX@std@@@1@ABK@Z ; std::_Tree<std::_Tset_traits<unsigned long,std::less<unsigned long>,std::allocator<unsigned long>,0> >::_Find_lower_bound<unsigned long>

; 1624 :         return !_Bound->_Isnil && !_DEBUG_LT_PRED(_Getcomp(), _Keyval, _Traits::_Kfn(_Bound->_Myval));

  00020	8b 4d fc	 mov	 ecx, DWORD PTR __Loc$1[ebp+8]
  00023	80 79 0d 00	 cmp	 BYTE PTR [ecx+13], 0
  00027	75 08		 jne	 SHORT $LN15@IsRevengeI
; File C:\Program Files\Microsoft Visual Studio\2022\Community\VC\Tools\MSVC\14.44.35207\include\type_traits

; 2380 :         return _Left < _Right;

  00029	8b 45 08	 mov	 eax, DWORD PTR _dwVID$[ebp]
  0002c	3b 41 10	 cmp	 eax, DWORD PTR [ecx+16]
; File C:\Program Files\Microsoft Visual Studio\2022\Community\VC\Tools\MSVC\14.44.35207\include\xtree

; 1624 :         return !_Bound->_Isnil && !_DEBUG_LT_PRED(_Getcomp(), _Keyval, _Traits::_Kfn(_Bound->_Myval));

  0002f	73 02		 jae	 SHORT $LN14@IsRevengeI
$LN15@IsRevengeI:

; 1389 :         return _Get_scary()->_Myhead;

  00031	8b ce		 mov	 ecx, esi
$LN14@IsRevengeI:

; 232  :         return this->_Ptr == _Right._Ptr;

  00033	3b f1		 cmp	 esi, ecx
; File D:\_m2work\Server Client TMP4\ClientVS22\source\UserInterface\PythonPlayer.cpp

; 1478 : 	return m_RevengeInstanceSet.end() != m_RevengeInstanceSet.find(dwVID);

  00035	5e		 pop	 esi
  00036	0f 95 c0	 setne	 al

; 1479 : }

  00039	8b e5		 mov	 esp, ebp
  0003b	5d		 pop	 ebp
  0003c	c2 04 00	 ret	 4
?IsRevengeInstance@CPythonPlayer@@QAE_NK@Z ENDP		; CPythonPlayer::IsRevengeInstance
_TEXT	ENDS
; Function compile flags: /Ogtp
; File D:\_m2work\Server Client TMP4\ClientVS22\source\UserInterface\PythonPlayer.cpp
; File C:\Program Files\Microsoft Visual Studio\2022\Community\VC\Tools\MSVC\14.44.35207\include\xtree
; File C:\Program Files\Microsoft Visual Studio\2022\Community\VC\Tools\MSVC\14.44.35207\include\type_traits
; File C:\Program Files\Microsoft Visual Studio\2022\Community\VC\Tools\MSVC\14.44.35207\include\xtree
; File D:\_m2work\Server Client TMP4\ClientVS22\source\UserInterface\PythonPlayer.cpp
;	COMDAT ?IsCantFightInstance@CPythonPlayer@@QAE_NK@Z
_TEXT	SEGMENT
__Loc$1 = -12						; size = 12
_dwVID$ = 8						; size = 4
?IsCantFightInstance@CPythonPlayer@@QAE_NK@Z PROC	; CPythonPlayer::IsCantFightInstance, COMDAT
; _this$ = ecx

; 1481 : {

  00000	55		 push	 ebp
  00001	8b ec		 mov	 ebp, esp
  00003	83 ec 0c	 sub	 esp, 12			; 0000000cH
  00006	56		 push	 esi
; File C:\Program Files\Microsoft Visual Studio\2022\Community\VC\Tools\MSVC\14.44.35207\include\xtree

; 37   :     _Tree_unchecked_const_iterator(_Nodeptr _Pnode, const _Mytree* _Plist) noexcept : _Ptr(_Pnode) {

  00007	8b b1 9c f7 00
	00		 mov	 esi, DWORD PTR [ecx+63388]

; 1384 :         const _Tree_find_result<_Nodeptr> _Loc = _Find_lower_bound(_Keyval);

  0000d	8d 45 08	 lea	 eax, DWORD PTR _dwVID$[ebp]

; 1152 :         return iterator(_Scary->_Myhead, _Scary);

  00010	81 c1 9c f7 00
	00		 add	 ecx, 63388		; 0000f79cH

; 1384 :         const _Tree_find_result<_Nodeptr> _Loc = _Find_lower_bound(_Keyval);

  00016	50		 push	 eax
  00017	8d 45 f4	 lea	 eax, DWORD PTR __Loc$1[ebp]
  0001a	50		 push	 eax
  0001b	e8 00 00 00 00	 call	 ??$_Find_lower_bound@K@?$_Tree@V?$_Tset_traits@KU?$less@K@std@@V?$allocator@K@2@$0A@@std@@@std@@IBE?AU?$_Tree_find_result@PAU?$_Tree_node@KPAX@std@@@1@ABK@Z ; std::_Tree<std::_Tset_traits<unsigned long,std::less<unsigned long>,std::allocator<unsigned long>,0> >::_Find_lower_bound<unsigned long>

; 1624 :         return !_Bound->_Isnil && !_DEBUG_LT_PRED(_Getcomp(), _Keyval, _Traits::_Kfn(_Bound->_Myval));

  00020	8b 4d fc	 mov	 ecx, DWORD PTR __Loc$1[ebp+8]
  00023	80 79 0d 00	 cmp	 BYTE PTR [ecx+13], 0
  00027	75 08		 jne	 SHORT $LN15@IsCantFigh
; File C:\Program Files\Microsoft Visual Studio\2022\Community\VC\Tools\MSVC\14.44.35207\include\type_traits

; 2380 :         return _Left < _Right;

  00029	8b 45 08	 mov	 eax, DWORD PTR _dwVID$[ebp]
  0002c	3b 41 10	 cmp	 eax, DWORD PTR [ecx+16]
; File C:\Program Files\Microsoft Visual Studio\2022\Community\VC\Tools\MSVC\14.44.35207\include\xtree

; 1624 :         return !_Bound->_Isnil && !_DEBUG_LT_PRED(_Getcomp(), _Keyval, _Traits::_Kfn(_Bound->_Myval));

  0002f	73 02		 jae	 SHORT $LN14@IsCantFigh
$LN15@IsCantFigh:

; 1389 :         return _Get_scary()->_Myhead;

  00031	8b ce		 mov	 ecx, esi
$LN14@IsCantFigh:

; 232  :         return this->_Ptr == _Right._Ptr;

  00033	3b f1		 cmp	 esi, ecx
; File D:\_m2work\Server Client TMP4\ClientVS22\source\UserInterface\PythonPlayer.cpp

; 1482 : 	return m_CantFightInstanceSet.end() != m_CantFightInstanceSet.find(dwVID);

  00035	5e		 pop	 esi
  00036	0f 95 c0	 setne	 al

; 1483 : }

  00039	8b e5		 mov	 esp, ebp
  0003b	5d		 pop	 ebp
  0003c	c2 04 00	 ret	 4
?IsCantFightInstance@CPythonPlayer@@QAE_NK@Z ENDP	; CPythonPlayer::IsCantFightInstance
_TEXT	ENDS
; Function compile flags: /Ogtp
; File D:\_m2work\Server Client TMP4\ClientVS22\source\UserInterface\PythonPlayer.cpp
;	COMDAT ?IsOpenPrivateShop@CPythonPlayer@@QAE_NXZ
_TEXT	SEGMENT
?IsOpenPrivateShop@CPythonPlayer@@QAE_NXZ PROC		; CPythonPlayer::IsOpenPrivateShop, COMDAT
; _this$ = ecx

; 1496 : 	return m_isOpenPrivateShop;

  00000	8a 81 a4 f7 00
	00		 mov	 al, BYTE PTR [ecx+63396]

; 1497 : }

  00006	c3		 ret	 0
?IsOpenPrivateShop@CPythonPlayer@@QAE_NXZ ENDP		; CPythonPlayer::IsOpenPrivateShop
_TEXT	ENDS
; Function compile flags: /Ogtp
; File D:\_m2work\Server Client TMP4\ClientVS22\source\UserInterface\PythonPlayer.cpp
;	COMDAT ?SetObserverMode@CPythonPlayer@@UAEX_N@Z
_TEXT	SEGMENT
_isEnable$ = 8						; size = 1
?SetObserverMode@CPythonPlayer@@UAEX_N@Z PROC		; CPythonPlayer::SetObserverMode, COMDAT
; _this$ = ecx

; 1500 : {

  00000	55		 push	 ebp
  00001	8b ec		 mov	 ebp, esp

; 1501 : 	m_isObserverMode=isEnable;

  00003	8a 45 08	 mov	 al, BYTE PTR _isEnable$[ebp]
  00006	88 81 a1 f7 00
	00		 mov	 BYTE PTR [ecx+63393], al

; 1502 : }

  0000c	5d		 pop	 ebp
  0000d	c2 04 00	 ret	 4
?SetObserverMode@CPythonPlayer@@UAEX_N@Z ENDP		; CPythonPlayer::SetObserverMode
_TEXT	ENDS
; Function compile flags: /Ogtp
; File D:\_m2work\Server Client TMP4\ClientVS22\source\UserInterface\PythonPlayer.cpp
;	COMDAT ?__ToggleCoolTime@CPythonPlayer@@QAEHXZ
_TEXT	SEGMENT
?__ToggleCoolTime@CPythonPlayer@@QAEHXZ PROC		; CPythonPlayer::__ToggleCoolTime, COMDAT
; _this$ = ecx

; 1512 : 	m_sysIsCoolTime = 1 - m_sysIsCoolTime;

  00000	b8 01 00 00 00	 mov	 eax, 1
  00005	2b 81 bc f7 00
	00		 sub	 eax, DWORD PTR [ecx+63420]
  0000b	89 81 bc f7 00
	00		 mov	 DWORD PTR [ecx+63420], eax

; 1513 : 	return m_sysIsCoolTime;
; 1514 : }

  00011	c3		 ret	 0
?__ToggleCoolTime@CPythonPlayer@@QAEHXZ ENDP		; CPythonPlayer::__ToggleCoolTime
_TEXT	ENDS
; Function compile flags: /Ogtp
; File D:\_m2work\Server Client TMP4\ClientVS22\source\UserInterface\PythonPlayer.cpp
;	COMDAT ?__ToggleLevelLimit@CPythonPlayer@@QAEHXZ
_TEXT	SEGMENT
?__ToggleLevelLimit@CPythonPlayer@@QAEHXZ PROC		; CPythonPlayer::__ToggleLevelLimit, COMDAT
; _this$ = ecx

; 1518 : 	m_sysIsLevelLimit = 1 - m_sysIsLevelLimit;

  00000	b8 01 00 00 00	 mov	 eax, 1
  00005	2b 81 c0 f7 00
	00		 sub	 eax, DWORD PTR [ecx+63424]
  0000b	89 81 c0 f7 00
	00		 mov	 DWORD PTR [ecx+63424], eax

; 1519 : 	return m_sysIsLevelLimit;
; 1520 : }

  00011	c3		 ret	 0
?__ToggleLevelLimit@CPythonPlayer@@QAEHXZ ENDP		; CPythonPlayer::__ToggleLevelLimit
_TEXT	ENDS
; Function compile flags: /Ogtp
; File D:\_m2work\Server Client TMP4\ClientVS22\source\UserInterface\PythonPlayer.cpp
;	COMDAT ?StartStaminaConsume@CPythonPlayer@@UAEXKK@Z
_TEXT	SEGMENT
_dwConsumePerSec$ = 8					; size = 4
_dwCurrentStamina$ = 12					; size = 4
?StartStaminaConsume@CPythonPlayer@@UAEXKK@Z PROC	; CPythonPlayer::StartStaminaConsume, COMDAT
; _this$ = ecx

; 1523 : {

  00000	55		 push	 ebp
  00001	8b ec		 mov	 ebp, esp

; 1524 : 	m_isConsumingStamina = TRUE;
; 1525 : 	m_fConsumeStaminaPerSec = float(dwConsumePerSec);

  00003	8b 45 08	 mov	 eax, DWORD PTR _dwConsumePerSec$[ebp]
  00006	8b d1		 mov	 edx, ecx

; 1526 : 	m_fCurrentStamina = float(dwCurrentStamina);

  00008	8b 4d 0c	 mov	 ecx, DWORD PTR _dwCurrentStamina$[ebp]
  0000b	66 0f 6e c0	 movd	 xmm0, eax
  0000f	f3 0f e6 c0	 cvtdq2pd xmm0, xmm0
  00013	c1 e8 1f	 shr	 eax, 31			; 0000001fH
  00016	c7 82 a4 f7 00
	00 01 00 00 00	 mov	 DWORD PTR [edx+63396], 1
  00020	f2 0f 58 04 c5
	00 00 00 00	 addsd	 xmm0, QWORD PTR __xmm@41f00000000000000000000000000000[eax*8]
  00029	8b c1		 mov	 eax, ecx
  0002b	c1 e8 1f	 shr	 eax, 31			; 0000001fH
  0002e	66 0f 5a c0	 cvtpd2ps xmm0, xmm0
  00032	f3 0f 11 82 ac
	f7 00 00	 movss	 DWORD PTR [edx+63404], xmm0
  0003a	66 0f 6e c1	 movd	 xmm0, ecx
  0003e	f3 0f e6 c0	 cvtdq2pd xmm0, xmm0
  00042	f2 0f 58 04 c5
	00 00 00 00	 addsd	 xmm0, QWORD PTR __xmm@41f00000000000000000000000000000[eax*8]
  0004b	66 0f 5a c0	 cvtpd2ps xmm0, xmm0
  0004f	f3 0f 11 82 a8
	f7 00 00	 movss	 DWORD PTR [edx+63400], xmm0

; 1527 : 
; 1528 : 	SetStatus(POINT_STAMINA, dwCurrentStamina);

  00057	89 4d 0c	 mov	 DWORD PTR _dwCurrentStamina$[ebp], ecx
  0005a	c7 45 08 09 00
	00 00		 mov	 DWORD PTR _dwConsumePerSec$[ebp], 9
  00061	8d 4a fc	 lea	 ecx, DWORD PTR [edx-4]

; 1529 : }

  00064	5d		 pop	 ebp

; 1527 : 
; 1528 : 	SetStatus(POINT_STAMINA, dwCurrentStamina);

  00065	e9 00 00 00 00	 jmp	 ?SetStatus@CPythonPlayer@@QAEXKJ@Z ; CPythonPlayer::SetStatus
?StartStaminaConsume@CPythonPlayer@@UAEXKK@Z ENDP	; CPythonPlayer::StartStaminaConsume
_TEXT	ENDS
; Function compile flags: /Ogtp
; File D:\_m2work\Server Client TMP4\ClientVS22\source\UserInterface\PythonPlayer.cpp
;	COMDAT ?StopStaminaConsume@CPythonPlayer@@UAEXK@Z
_TEXT	SEGMENT
_dwCurrentStamina$ = 8					; size = 4
?StopStaminaConsume@CPythonPlayer@@UAEXK@Z PROC		; CPythonPlayer::StopStaminaConsume, COMDAT
; _this$ = ecx

; 1532 : {

  00000	55		 push	 ebp
  00001	8b ec		 mov	 ebp, esp

; 1533 : 	m_isConsumingStamina = FALSE;
; 1534 : 	m_fConsumeStaminaPerSec = 0.0f;
; 1535 : 	m_fCurrentStamina = float(dwCurrentStamina);

  00003	8b 55 08	 mov	 edx, DWORD PTR _dwCurrentStamina$[ebp]
  00006	8b c2		 mov	 eax, edx
  00008	c1 e8 1f	 shr	 eax, 31			; 0000001fH

; 1536 : 
; 1537 : 	SetStatus(POINT_STAMINA, dwCurrentStamina);

  0000b	52		 push	 edx
  0000c	c7 81 a4 f7 00
	00 00 00 00 00	 mov	 DWORD PTR [ecx+63396], 0
  00016	66 0f 6e c2	 movd	 xmm0, edx
  0001a	f3 0f e6 c0	 cvtdq2pd xmm0, xmm0
  0001e	c7 81 ac f7 00
	00 00 00 00 00	 mov	 DWORD PTR [ecx+63404], 0
  00028	6a 09		 push	 9
  0002a	f2 0f 58 04 c5
	00 00 00 00	 addsd	 xmm0, QWORD PTR __xmm@41f00000000000000000000000000000[eax*8]
  00033	66 0f 5a c0	 cvtpd2ps xmm0, xmm0
  00037	f3 0f 11 81 a8
	f7 00 00	 movss	 DWORD PTR [ecx+63400], xmm0
  0003f	83 c1 fc	 add	 ecx, -4			; fffffffcH
  00042	e8 00 00 00 00	 call	 ?SetStatus@CPythonPlayer@@QAEXKJ@Z ; CPythonPlayer::SetStatus

; 1538 : }

  00047	5d		 pop	 ebp
  00048	c2 04 00	 ret	 4
?StopStaminaConsume@CPythonPlayer@@UAEXK@Z ENDP		; CPythonPlayer::StopStaminaConsume
_TEXT	ENDS
; Function compile flags: /Ogtp
; File D:\_m2work\Server Client TMP4\ClientVS22\source\UserInterface\PythonPlayer.cpp
;	COMDAT ?GetPKMode@CPythonPlayer@@QAEKXZ
_TEXT	SEGMENT
?GetPKMode@CPythonPlayer@@QAEKXZ PROC			; CPythonPlayer::GetPKMode, COMDAT
; _this$ = ecx

; 1542 : 	CInstanceBase * pInstance = NEW_GetMainActorPtr();

  00000	8b 41 04	 mov	 eax, DWORD PTR [ecx+4]
  00003	83 c1 04	 add	 ecx, 4
  00006	ff 90 88 00 00
	00		 call	 DWORD PTR [eax+136]

; 1543 : 	if (!pInstance)

  0000c	85 c0		 test	 eax, eax
  0000e	75 01		 jne	 SHORT $LN2@GetPKMode

; 1547 : }

  00010	c3		 ret	 0
$LN2@GetPKMode:

; 1544 : 		return 0;
; 1545 : 
; 1546 : 	return pInstance->GetPKMode();

  00011	8b c8		 mov	 ecx, eax
  00013	e8 00 00 00 00	 call	 ?GetPKMode@CInstanceBase@@QAEEXZ ; CInstanceBase::GetPKMode
  00018	0f b6 c0	 movzx	 eax, al

; 1547 : }

  0001b	c3		 ret	 0
?GetPKMode@CPythonPlayer@@QAEKXZ ENDP			; CPythonPlayer::GetPKMode
_TEXT	ENDS
; Function compile flags: /Ogtp
; File D:\_m2work\Server Client TMP4\ClientVS22\source\UserInterface\PythonPlayer.cpp
;	COMDAT ?SetMobileFlag@CPythonPlayer@@UAEXH@Z
_TEXT	SEGMENT
_bFlag$ = 8						; size = 4
?SetMobileFlag@CPythonPlayer@@UAEXH@Z PROC		; CPythonPlayer::SetMobileFlag, COMDAT
; _this$ = ecx

; 1550 : {

  00000	55		 push	 ebp
  00001	8b ec		 mov	 ebp, esp

; 1551 : 	m_bMobileFlag = bFlag;

  00003	8b 45 08	 mov	 eax, DWORD PTR _bFlag$[ebp]
  00006	56		 push	 esi
  00007	8b f1		 mov	 esi, ecx

; 1552 : 	PyCallClassMemberFunc(m_ppyGameWindow, "RefreshMobile", Py_BuildValue("()"));

  00009	68 00 00 00 00	 push	 OFFSET ??_C@_02HCKGKOFO@?$CI?$CJ@
  0000e	89 86 b4 f7 00
	00		 mov	 DWORD PTR [esi+63412], eax
  00014	ff 15 00 00 00
	00		 call	 DWORD PTR __imp__Py_BuildValue
  0001a	50		 push	 eax
  0001b	68 00 00 00 00	 push	 OFFSET ??_C@_0O@EHNHNBIB@RefreshMobile@
  00020	ff 76 04	 push	 DWORD PTR [esi+4]
  00023	e8 00 00 00 00	 call	 ?PyCallClassMemberFunc@@YA_NPAU_object@@PBD0@Z ; PyCallClassMemberFunc
  00028	83 c4 10	 add	 esp, 16			; 00000010H
  0002b	5e		 pop	 esi

; 1553 : }

  0002c	5d		 pop	 ebp
  0002d	c2 04 00	 ret	 4
?SetMobileFlag@CPythonPlayer@@UAEXH@Z ENDP		; CPythonPlayer::SetMobileFlag
_TEXT	ENDS
; Function compile flags: /Ogtp
; File D:\_m2work\Server Client TMP4\ClientVS22\source\UserInterface\PythonPlayer.cpp
;	COMDAT ?HasMobilePhoneNumber@CPythonPlayer@@QAEHXZ
_TEXT	SEGMENT
?HasMobilePhoneNumber@CPythonPlayer@@QAEHXZ PROC	; CPythonPlayer::HasMobilePhoneNumber, COMDAT
; _this$ = ecx

; 1557 : 	return m_bMobileFlag;

  00000	8b 81 b8 f7 00
	00		 mov	 eax, DWORD PTR [ecx+63416]

; 1558 : }

  00006	c3		 ret	 0
?HasMobilePhoneNumber@CPythonPlayer@@QAEHXZ ENDP	; CPythonPlayer::HasMobilePhoneNumber
_TEXT	ENDS
; Function compile flags: /Ogtp
; File D:\_m2work\Server Client TMP4\ClientVS22\source\UserInterface\PythonPlayer.cpp
;	COMDAT ?SetGameWindow@CPythonPlayer@@QAEXPAU_object@@@Z
_TEXT	SEGMENT
_ppyObject$ = 8						; size = 4
?SetGameWindow@CPythonPlayer@@QAEXPAU_object@@@Z PROC	; CPythonPlayer::SetGameWindow, COMDAT
; _this$ = ecx

; 1561 : {

  00000	55		 push	 ebp
  00001	8b ec		 mov	 ebp, esp

; 1562 : 	m_ppyGameWindow = ppyObject;

  00003	8b 45 08	 mov	 eax, DWORD PTR _ppyObject$[ebp]
  00006	89 41 08	 mov	 DWORD PTR [ecx+8], eax

; 1563 : }

  00009	5d		 pop	 ebp
  0000a	c2 04 00	 ret	 4
?SetGameWindow@CPythonPlayer@@QAEXPAU_object@@@Z ENDP	; CPythonPlayer::SetGameWindow
_TEXT	ENDS
; Function compile flags: /Ogtp
; File D:\_m2work\Server Client TMP4\ClientVS22\source\UserInterface\PythonPlayer.cpp
; File C:\Program Files\Microsoft Visual Studio\2022\Community\VC\Tools\MSVC\14.44.35207\include\xtree
; File D:\_m2work\Server Client TMP4\ClientVS22\source\UserInterface\PythonPlayer.cpp
; File C:\Program Files\Microsoft Visual Studio\2022\Community\VC\Tools\MSVC\14.44.35207\include\xtree
; File D:\_m2work\Server Client TMP4\ClientVS22\source\UserInterface\PythonPlayer.cpp
; File C:\Program Files\Microsoft Visual Studio\2022\Community\VC\Tools\MSVC\14.44.35207\include\xtree
; File D:\_m2work\Server Client TMP4\ClientVS22\source\UserInterface\PythonPlayer.cpp
;	COMDAT ?ClearSkillDict@CPythonPlayer@@QAEXXZ
_TEXT	SEGMENT
?ClearSkillDict@CPythonPlayer@@QAEXXZ PROC		; CPythonPlayer::ClearSkillDict, COMDAT
; _this$ = ecx

; 1595 : {

  00000	53		 push	 ebx
  00001	56		 push	 esi
  00002	8b d9		 mov	 ebx, ecx
; File C:\Program Files\Microsoft Visual Studio\2022\Community\VC\Tools\MSVC\14.44.35207\include\xtree

; 1373 :         auto _Head = _Scary->_Myhead;

  00004	8b 73 0c	 mov	 esi, DWORD PTR [ebx+12]
; File D:\_m2work\Server Client TMP4\ClientVS22\source\UserInterface\PythonPlayer.cpp

; 1595 : {

  00007	57		 push	 edi

; 1596 : 	// ClearSkillDict
; 1597 : 	m_skillSlotDict.clear();

  00008	8d 7b 0c	 lea	 edi, DWORD PTR [ebx+12]
; File C:\Program Files\Microsoft Visual Studio\2022\Community\VC\Tools\MSVC\14.44.35207\include\xtree

; 1374 :         _Scary->_Erase_tree(_Getal(), _Head->_Parent);

  0000b	8b cf		 mov	 ecx, edi
  0000d	ff 76 04	 push	 DWORD PTR [esi+4]
  00010	57		 push	 edi
  00011	e8 00 00 00 00	 call	 ??$_Erase_tree@V?$allocator@U?$_Tree_node@U?$pair@$$CBKK@std@@PAX@std@@@std@@@?$_Tree_val@U?$_Tree_simple_types@U?$pair@$$CBKK@std@@@std@@@std@@QAEXAAV?$allocator@U?$_Tree_node@U?$pair@$$CBKK@std@@PAX@std@@@1@PAU?$_Tree_node@U?$pair@$$CBKK@std@@PAX@1@@Z ; std::_Tree_val<std::_Tree_simple_types<std::pair<unsigned long const ,unsigned long> > >::_Erase_tree<std::allocator<std::_Tree_node<std::pair<unsigned long const ,unsigned long>,void *> > >

; 1375 :         _Head->_Parent  = _Head;

  00016	89 76 04	 mov	 DWORD PTR [esi+4], esi
; File D:\_m2work\Server Client TMP4\ClientVS22\source\UserInterface\PythonPlayer.cpp

; 1609 : 	__ClearAutoAttackTargetActorID();

  00019	8b cb		 mov	 ecx, ebx
; File C:\Program Files\Microsoft Visual Studio\2022\Community\VC\Tools\MSVC\14.44.35207\include\xtree

; 1376 :         _Head->_Left    = _Head;

  0001b	89 36		 mov	 DWORD PTR [esi], esi

; 1377 :         _Head->_Right   = _Head;

  0001d	89 76 08	 mov	 DWORD PTR [esi+8], esi

; 1378 :         _Scary->_Mysize = 0;

  00020	c7 47 04 00 00
	00 00		 mov	 DWORD PTR [edi+4], 0
; File D:\_m2work\Server Client TMP4\ClientVS22\source\UserInterface\PythonPlayer.cpp

; 1609 : 	__ClearAutoAttackTargetActorID();

  00027	5f		 pop	 edi
  00028	5e		 pop	 esi
  00029	66 c7 83 a4 f7
	00 00 00 00	 mov	 WORD PTR [ebx+63396], 0
  00032	c7 83 a8 f7 00
	00 00 00 00 00	 mov	 DWORD PTR [ebx+63400], 0
  0003c	c7 83 b0 f7 00
	00 00 00 00 00	 mov	 DWORD PTR [ebx+63408], 0
  00046	c7 83 ac f7 00
	00 00 00 00 00	 mov	 DWORD PTR [ebx+63404], 0
  00050	c7 83 b8 f7 00
	00 00 00 00 00	 mov	 DWORD PTR [ebx+63416], 0
  0005a	5b		 pop	 ebx
  0005b	e9 00 00 00 00	 jmp	 ?__ClearAutoAttackTargetActorID@CPythonPlayer@@IAEXXZ ; CPythonPlayer::__ClearAutoAttackTargetActorID
?ClearSkillDict@CPythonPlayer@@QAEXXZ ENDP		; CPythonPlayer::ClearSkillDict
_TEXT	ENDS
; Function compile flags: /Ogtp
;	COMDAT ??_GCPythonPlayer@@UAEPAXI@Z
_TEXT	SEGMENT
___flags$ = 8						; size = 4
??_GCPythonPlayer@@UAEPAXI@Z PROC			; CPythonPlayer::`scalar deleting destructor', COMDAT
; _this$ = ecx
  00000	55		 push	 ebp
  00001	8b ec		 mov	 ebp, esp
  00003	56		 push	 esi
  00004	8b f1		 mov	 esi, ecx
  00006	e8 00 00 00 00	 call	 ??1CPythonPlayer@@UAE@XZ ; CPythonPlayer::~CPythonPlayer
  0000b	f6 45 08 01	 test	 BYTE PTR ___flags$[ebp], 1
  0000f	74 0e		 je	 SHORT $LN5@scalar
  00011	68 24 f8 00 00	 push	 63524			; 0000f824H
  00016	56		 push	 esi
  00017	e8 00 00 00 00	 call	 ??3@YAXPAXI@Z		; operator delete
  0001c	83 c4 08	 add	 esp, 8
$LN5@scalar:
  0001f	8b c6		 mov	 eax, esi
  00021	5e		 pop	 esi
  00022	5d		 pop	 ebp
  00023	c2 04 00	 ret	 4
??_GCPythonPlayer@@UAEPAXI@Z ENDP			; CPythonPlayer::`scalar deleting destructor'
_TEXT	ENDS
; Function compile flags: /Ogtp
; File C:\Program Files\Microsoft Visual Studio\2022\Community\VC\Tools\MSVC\14.44.35207\include\xtree
; File C:\Program Files\Microsoft Visual Studio\2022\Community\VC\Tools\MSVC\14.44.35207\include\xmemory
;	COMDAT ??1?$map@KUSPartyMemberInfo@CPythonPlayer@@U?$less@K@std@@V?$allocator@U?$pair@$$CBKUSPartyMemberInfo@CPythonPlayer@@@std@@@4@@std@@QAE@XZ
_TEXT	SEGMENT
??1?$map@KUSPartyMemberInfo@CPythonPlayer@@U?$less@K@std@@V?$allocator@U?$pair@$$CBKUSPartyMemberInfo@CPythonPlayer@@@std@@@4@@std@@QAE@XZ PROC ; std::map<unsigned long,CPythonPlayer::SPartyMemberInfo,std::less<unsigned long>,std::allocator<std::pair<unsigned long const ,CPythonPlayer::SPartyMemberInfo> > >::~map<unsigned long,CPythonPlayer::SPartyMemberInfo,std::less<unsigned long>,std::allocator<std::pair<unsigned long const ,CPythonPlayer::SPartyMemberInfo> > >, COMDAT
; _this$ = ecx
; File C:\Program Files\Microsoft Visual Studio\2022\Community\VC\Tools\MSVC\14.44.35207\include\xtree

; 777  :         _Erase_tree(_Al, _Myhead->_Parent);

  00000	56		 push	 esi
  00001	8b f1		 mov	 esi, ecx
  00003	8b 06		 mov	 eax, DWORD PTR [esi]
  00005	ff 70 04	 push	 DWORD PTR [eax+4]
  00008	56		 push	 esi
  00009	e8 00 00 00 00	 call	 ??$_Erase_tree@V?$allocator@U?$_Tree_node@U?$pair@$$CBKUSPartyMemberInfo@CPythonPlayer@@@std@@PAX@std@@@std@@@?$_Tree_val@U?$_Tree_simple_types@U?$pair@$$CBKUSPartyMemberInfo@CPythonPlayer@@@std@@@std@@@std@@QAEXAAV?$allocator@U?$_Tree_node@U?$pair@$$CBKUSPartyMemberInfo@CPythonPlayer@@@std@@PAX@std@@@1@PAU?$_Tree_node@U?$pair@$$CBKUSPartyMemberInfo@CPythonPlayer@@@std@@PAX@1@@Z ; std::_Tree_val<std::_Tree_simple_types<std::pair<unsigned long const ,CPythonPlayer::SPartyMemberInfo> > >::_Erase_tree<std::allocator<std::_Tree_node<std::pair<unsigned long const ,CPythonPlayer::SPartyMemberInfo>,void *> > >
; File C:\Program Files\Microsoft Visual Studio\2022\Community\VC\Tools\MSVC\14.44.35207\include\xmemory

; 289  :         ::operator delete(_Ptr, _Bytes);

  0000e	6a 44		 push	 68			; 00000044H
  00010	ff 36		 push	 DWORD PTR [esi]
  00012	e8 00 00 00 00	 call	 ??3@YAXPAXI@Z		; operator delete
  00017	83 c4 08	 add	 esp, 8
  0001a	5e		 pop	 esi
  0001b	c3		 ret	 0
??1?$map@KUSPartyMemberInfo@CPythonPlayer@@U?$less@K@std@@V?$allocator@U?$pair@$$CBKUSPartyMemberInfo@CPythonPlayer@@@std@@@4@@std@@QAE@XZ ENDP ; std::map<unsigned long,CPythonPlayer::SPartyMemberInfo,std::less<unsigned long>,std::allocator<std::pair<unsigned long const ,CPythonPlayer::SPartyMemberInfo> > >::~map<unsigned long,CPythonPlayer::SPartyMemberInfo,std::less<unsigned long>,std::allocator<std::pair<unsigned long const ,CPythonPlayer::SPartyMemberInfo> > >
_TEXT	ENDS
; Function compile flags: /Ogtp
; File C:\Program Files\Microsoft Visual Studio\2022\Community\VC\Tools\MSVC\14.44.35207\include\utility
;	COMDAT ??$swap@USQuickSlot@@$0A@@std@@YAXAAUSQuickSlot@@0@Z
_TEXT	SEGMENT
??$swap@USQuickSlot@@$0A@@std@@YAXAAUSQuickSlot@@0@Z PROC ; std::swap<SQuickSlot,0>, COMDAT
; __Left$ = ecx
; __Right$ = edx

; 139  :     _Ty _Tmp = _STD move(_Left);

  00000	66 8b 01	 mov	 ax, WORD PTR [ecx]
  00003	56		 push	 esi

; 140  :     _Left    = _STD move(_Right);

  00004	66 8b 32	 mov	 si, WORD PTR [edx]
  00007	66 89 31	 mov	 WORD PTR [ecx], si

; 141  :     _Right   = _STD move(_Tmp);

  0000a	66 89 02	 mov	 WORD PTR [edx], ax
  0000d	5e		 pop	 esi

; 142  : }

  0000e	c3		 ret	 0
??$swap@USQuickSlot@@$0A@@std@@YAXAAUSQuickSlot@@0@Z ENDP ; std::swap<SQuickSlot,0>
_TEXT	ENDS
; Function compile flags: /Ogtp
; File C:\Program Files\Microsoft Visual Studio\2022\Community\VC\Tools\MSVC\14.44.35207\include\utility
;	COMDAT ??$make_pair@AAKUSPartyMemberInfo@CPythonPlayer@@@std@@YA?AU?$pair@KUSPartyMemberInfo@CPythonPlayer@@@0@AAK$$QAUSPartyMemberInfo@CPythonPlayer@@@Z
_TEXT	SEGMENT
__Val2$ = 8						; size = 4
??$make_pair@AAKUSPartyMemberInfo@CPythonPlayer@@@std@@YA?AU?$pair@KUSPartyMemberInfo@CPythonPlayer@@@0@AAK$$QAUSPartyMemberInfo@CPythonPlayer@@@Z PROC ; std::make_pair<unsigned long &,CPythonPlayer::SPartyMemberInfo>, COMDAT
; ___$ReturnUdt$ = ecx
; __Val1$ = edx

; 578  :              && is_nothrow_constructible_v<_Unrefwrap_t<_Ty2>, _Ty2>) /* strengthened */ {

  00000	55		 push	 ebp
  00001	8b ec		 mov	 ebp, esp

; 274  :         : first(_STD forward<_Other1>(_Val1)), second(_STD forward<_Other2>(_Val2)) {

  00003	8b 02		 mov	 eax, DWORD PTR [edx]

; 578  :              && is_nothrow_constructible_v<_Unrefwrap_t<_Ty2>, _Ty2>) /* strengthened */ {

  00005	56		 push	 esi

; 274  :         : first(_STD forward<_Other1>(_Val1)), second(_STD forward<_Other2>(_Val2)) {

  00006	ff 75 08	 push	 DWORD PTR __Val2$[ebp]

; 578  :              && is_nothrow_constructible_v<_Unrefwrap_t<_Ty2>, _Ty2>) /* strengthened */ {

  00009	8b f1		 mov	 esi, ecx

; 274  :         : first(_STD forward<_Other1>(_Val1)), second(_STD forward<_Other2>(_Val2)) {

  0000b	8d 4e 04	 lea	 ecx, DWORD PTR [esi+4]
  0000e	89 06		 mov	 DWORD PTR [esi], eax
  00010	e8 00 00 00 00	 call	 ??0SPartyMemberInfo@CPythonPlayer@@QAE@$$QAU01@@Z

; 579  :     // return pair composed from arguments
; 580  :     using _Mypair = pair<_Unrefwrap_t<_Ty1>, _Unrefwrap_t<_Ty2>>;
; 581  :     return _Mypair(_STD forward<_Ty1>(_Val1), _STD forward<_Ty2>(_Val2));

  00015	8b c6		 mov	 eax, esi
  00017	5e		 pop	 esi

; 582  : }

  00018	5d		 pop	 ebp
  00019	c3		 ret	 0
??$make_pair@AAKUSPartyMemberInfo@CPythonPlayer@@@std@@YA?AU?$pair@KUSPartyMemberInfo@CPythonPlayer@@@0@AAK$$QAUSPartyMemberInfo@CPythonPlayer@@@Z ENDP ; std::make_pair<unsigned long &,CPythonPlayer::SPartyMemberInfo>
_TEXT	ENDS
; Function compile flags: /Ogtp
; File C:\Program Files\Microsoft Visual Studio\2022\Community\VC\Tools\MSVC\14.44.35207\include\map
;	COMDAT ??$insert@U?$pair@KUSPartyMemberInfo@CPythonPlayer@@@std@@$0A@@?$map@KUSPartyMemberInfo@CPythonPlayer@@U?$less@K@std@@V?$allocator@U?$pair@$$CBKUSPartyMemberInfo@CPythonPlayer@@@std@@@4@@std@@QAE?AU?$pair@V?$_Tree_iterator@V?$_Tree_val@U?$_Tree_simple_types@U?$pair@$$CBKUSPartyMemberInfo@CPythonPlayer@@@std@@@std@@@std@@@std@@_N@1@$$QAU?$pair@KUSPartyMemberInfo@CPythonPlayer@@@1@@Z
_TEXT	SEGMENT
___$ReturnUdt$ = 8					; size = 4
__Val$ = 12						; size = 4
??$insert@U?$pair@KUSPartyMemberInfo@CPythonPlayer@@@std@@$0A@@?$map@KUSPartyMemberInfo@CPythonPlayer@@U?$less@K@std@@V?$allocator@U?$pair@$$CBKUSPartyMemberInfo@CPythonPlayer@@@std@@@4@@std@@QAE?AU?$pair@V?$_Tree_iterator@V?$_Tree_val@U?$_Tree_simple_types@U?$pair@$$CBKUSPartyMemberInfo@CPythonPlayer@@@std@@@std@@@std@@@std@@_N@1@$$QAU?$pair@KUSPartyMemberInfo@CPythonPlayer@@@1@@Z PROC ; std::map<unsigned long,CPythonPlayer::SPartyMemberInfo,std::less<unsigned long>,std::allocator<std::pair<unsigned long const ,CPythonPlayer::SPartyMemberInfo> > >::insert<std::pair<unsigned long,CPythonPlayer::SPartyMemberInfo>,0>, COMDAT
; _this$ = ecx

; 185  :     pair<iterator, bool> insert(_Valty&& _Val) {

  00000	55		 push	 ebp
  00001	8b ec		 mov	 ebp, esp

; 186  :         return this->emplace(_STD forward<_Valty>(_Val));

  00003	ff 75 0c	 push	 DWORD PTR __Val$[ebp]
  00006	ff 75 08	 push	 DWORD PTR ___$ReturnUdt$[ebp]
  00009	e8 00 00 00 00	 call	 ??$emplace@U?$pair@KUSPartyMemberInfo@CPythonPlayer@@@std@@@?$_Tree@V?$_Tmap_traits@KUSPartyMemberInfo@CPythonPlayer@@U?$less@K@std@@V?$allocator@U?$pair@$$CBKUSPartyMemberInfo@CPythonPlayer@@@std@@@4@$0A@@std@@@std@@QAE?AU?$pair@V?$_Tree_iterator@V?$_Tree_val@U?$_Tree_simple_types@U?$pair@$$CBKUSPartyMemberInfo@CPythonPlayer@@@std@@@std@@@std@@@std@@_N@1@$$QAU?$pair@KUSPartyMemberInfo@CPythonPlayer@@@1@@Z ; std::_Tree<std::_Tmap_traits<unsigned long,CPythonPlayer::SPartyMemberInfo,std::less<unsigned long>,std::allocator<std::pair<unsigned long const ,CPythonPlayer::SPartyMemberInfo> >,0> >::emplace<std::pair<unsigned long,CPythonPlayer::SPartyMemberInfo> >
  0000e	8b 45 08	 mov	 eax, DWORD PTR ___$ReturnUdt$[ebp]

; 187  :     }

  00011	5d		 pop	 ebp
  00012	c2 08 00	 ret	 8
??$insert@U?$pair@KUSPartyMemberInfo@CPythonPlayer@@@std@@$0A@@?$map@KUSPartyMemberInfo@CPythonPlayer@@U?$less@K@std@@V?$allocator@U?$pair@$$CBKUSPartyMemberInfo@CPythonPlayer@@@std@@@4@@std@@QAE?AU?$pair@V?$_Tree_iterator@V?$_Tree_val@U?$_Tree_simple_types@U?$pair@$$CBKUSPartyMemberInfo@CPythonPlayer@@@std@@@std@@@std@@@std@@_N@1@$$QAU?$pair@KUSPartyMemberInfo@CPythonPlayer@@@1@@Z ENDP ; std::map<unsigned long,CPythonPlayer::SPartyMemberInfo,std::less<unsigned long>,std::allocator<std::pair<unsigned long const ,CPythonPlayer::SPartyMemberInfo> > >::insert<std::pair<unsigned long,CPythonPlayer::SPartyMemberInfo>,0>
_TEXT	ENDS
; Function compile flags: /Ogtp
; File C:\Program Files\Microsoft Visual Studio\2022\Community\VC\Tools\MSVC\14.44.35207\include\utility
;	COMDAT ??$make_pair@HH@std@@YA?AU?$pair@HH@0@$$QAH0@Z
_TEXT	SEGMENT
__Val2$ = 8						; size = 4
??$make_pair@HH@std@@YA?AU?$pair@HH@0@$$QAH0@Z PROC	; std::make_pair<int,int>, COMDAT
; ___$ReturnUdt$ = ecx
; __Val1$ = edx

; 578  :              && is_nothrow_constructible_v<_Unrefwrap_t<_Ty2>, _Ty2>) /* strengthened */ {

  00000	55		 push	 ebp
  00001	8b ec		 mov	 ebp, esp

; 274  :         : first(_STD forward<_Other1>(_Val1)), second(_STD forward<_Other2>(_Val2)) {

  00003	8b 02		 mov	 eax, DWORD PTR [edx]
  00005	89 01		 mov	 DWORD PTR [ecx], eax
  00007	8b 45 08	 mov	 eax, DWORD PTR __Val2$[ebp]
  0000a	8b 00		 mov	 eax, DWORD PTR [eax]
  0000c	89 41 04	 mov	 DWORD PTR [ecx+4], eax

; 579  :     // return pair composed from arguments
; 580  :     using _Mypair = pair<_Unrefwrap_t<_Ty1>, _Unrefwrap_t<_Ty2>>;
; 581  :     return _Mypair(_STD forward<_Ty1>(_Val1), _STD forward<_Ty2>(_Val2));

  0000f	8b c1		 mov	 eax, ecx

; 582  : }

  00011	5d		 pop	 ebp
  00012	c3		 ret	 0
??$make_pair@HH@std@@YA?AU?$pair@HH@0@$$QAH0@Z ENDP	; std::make_pair<int,int>
_TEXT	ENDS
; Function compile flags: /Ogtp
; File C:\Program Files\Microsoft Visual Studio\2022\Community\VC\Tools\MSVC\14.44.35207\include\xtree
;	COMDAT ??E?$_Tree_iterator@V?$_Tree_val@U?$_Tree_simple_types@U?$pair@$$CBKUSPartyMemberInfo@CPythonPlayer@@@std@@@std@@@std@@@std@@QAEAAV01@XZ
_TEXT	SEGMENT
??E?$_Tree_iterator@V?$_Tree_val@U?$_Tree_simple_types@U?$pair@$$CBKUSPartyMemberInfo@CPythonPlayer@@@std@@@std@@@std@@@std@@QAEAAV01@XZ PROC ; std::_Tree_iterator<std::_Tree_val<std::_Tree_simple_types<std::pair<unsigned long const ,CPythonPlayer::SPartyMemberInfo> > > >::operator++, COMDAT
; _this$ = ecx

; 281  :     _Tree_iterator& operator++() noexcept {

  00000	56		 push	 esi
  00001	8b f1		 mov	 esi, ecx

; 198  :         _Mybase::operator++();

  00003	e8 00 00 00 00	 call	 ??E?$_Tree_unchecked_const_iterator@V?$_Tree_val@U?$_Tree_simple_types@U?$pair@$$CBKUSPartyMemberInfo@CPythonPlayer@@@std@@@std@@@std@@U_Iterator_base0@2@@std@@QAEAAV01@XZ ; std::_Tree_unchecked_const_iterator<std::_Tree_val<std::_Tree_simple_types<std::pair<unsigned long const ,CPythonPlayer::SPartyMemberInfo> > >,std::_Iterator_base0>::operator++

; 282  :         _Mybase::operator++();
; 283  :         return *this;

  00008	8b c6		 mov	 eax, esi
  0000a	5e		 pop	 esi

; 284  :     }

  0000b	c3		 ret	 0
??E?$_Tree_iterator@V?$_Tree_val@U?$_Tree_simple_types@U?$pair@$$CBKUSPartyMemberInfo@CPythonPlayer@@@std@@@std@@@std@@@std@@QAEAAV01@XZ ENDP ; std::_Tree_iterator<std::_Tree_val<std::_Tree_simple_types<std::pair<unsigned long const ,CPythonPlayer::SPartyMemberInfo> > > >::operator++
_TEXT	ENDS
; Function compile flags: /Ogtp
; File C:\Program Files\Microsoft Visual Studio\2022\Community\VC\Tools\MSVC\14.44.35207\include\xtree
;	COMDAT ??C?$_Tree_iterator@V?$_Tree_val@U?$_Tree_simple_types@U?$pair@$$CBKUSPartyMemberInfo@CPythonPlayer@@@std@@@std@@@std@@@std@@QBEPAU?$pair@$$CBKUSPartyMemberInfo@CPythonPlayer@@@1@XZ
_TEXT	SEGMENT
??C?$_Tree_iterator@V?$_Tree_val@U?$_Tree_simple_types@U?$pair@$$CBKUSPartyMemberInfo@CPythonPlayer@@@std@@@std@@@std@@@std@@QBEPAU?$pair@$$CBKUSPartyMemberInfo@CPythonPlayer@@@1@XZ PROC ; std::_Tree_iterator<std::_Tree_val<std::_Tree_simple_types<std::pair<unsigned long const ,CPythonPlayer::SPartyMemberInfo> > > >::operator->, COMDAT
; _this$ = ecx

; 185  :         return this->_Ptr->_Myval;

  00000	8b 01		 mov	 eax, DWORD PTR [ecx]
  00002	83 c0 10	 add	 eax, 16			; 00000010H

; 278  :         return pointer_traits<pointer>::pointer_to(**this);
; 279  :     }

  00005	c3		 ret	 0
??C?$_Tree_iterator@V?$_Tree_val@U?$_Tree_simple_types@U?$pair@$$CBKUSPartyMemberInfo@CPythonPlayer@@@std@@@std@@@std@@@std@@QBEPAU?$pair@$$CBKUSPartyMemberInfo@CPythonPlayer@@@1@XZ ENDP ; std::_Tree_iterator<std::_Tree_val<std::_Tree_simple_types<std::pair<unsigned long const ,CPythonPlayer::SPartyMemberInfo> > > >::operator->
_TEXT	ENDS
; Function compile flags: /Ogtp
; File C:\Program Files\Microsoft Visual Studio\2022\Community\VC\Tools\MSVC\14.44.35207\include\xtree
;	COMDAT ??8?$_Tree_const_iterator@V?$_Tree_val@U?$_Tree_simple_types@U?$pair@$$CBKUSPartyMemberInfo@CPythonPlayer@@@std@@@std@@@std@@@std@@QBE_NABV01@@Z
_TEXT	SEGMENT
__Right$ = 8						; size = 4
??8?$_Tree_const_iterator@V?$_Tree_val@U?$_Tree_simple_types@U?$pair@$$CBKUSPartyMemberInfo@CPythonPlayer@@@std@@@std@@@std@@@std@@QBE_NABV01@@Z PROC ; std::_Tree_const_iterator<std::_Tree_val<std::_Tree_simple_types<std::pair<unsigned long const ,CPythonPlayer::SPartyMemberInfo> > > >::operator==, COMDAT
; _this$ = ecx

; 227  :     _NODISCARD bool operator==(const _Tree_const_iterator& _Right) const noexcept {

  00000	55		 push	 ebp
  00001	8b ec		 mov	 ebp, esp

; 228  : #if _ITERATOR_DEBUG_LEVEL == 2
; 229  :         _STL_VERIFY(this->_Getcont() == _Right._Getcont(), "map/set iterators incompatible");
; 230  : #endif // _ITERATOR_DEBUG_LEVEL == 2
; 231  : 
; 232  :         return this->_Ptr == _Right._Ptr;

  00003	8b 45 08	 mov	 eax, DWORD PTR __Right$[ebp]
  00006	8b 09		 mov	 ecx, DWORD PTR [ecx]
  00008	3b 08		 cmp	 ecx, DWORD PTR [eax]
  0000a	0f 94 c0	 sete	 al

; 233  :     }

  0000d	5d		 pop	 ebp
  0000e	c2 04 00	 ret	 4
??8?$_Tree_const_iterator@V?$_Tree_val@U?$_Tree_simple_types@U?$pair@$$CBKUSPartyMemberInfo@CPythonPlayer@@@std@@@std@@@std@@@std@@QBE_NABV01@@Z ENDP ; std::_Tree_const_iterator<std::_Tree_val<std::_Tree_simple_types<std::pair<unsigned long const ,CPythonPlayer::SPartyMemberInfo> > > >::operator==
_TEXT	ENDS
; Function compile flags: /Ogtp
; File C:\Program Files\Microsoft Visual Studio\2022\Community\VC\Tools\MSVC\14.44.35207\include\xtree
; File C:\Program Files\Microsoft Visual Studio\2022\Community\VC\Tools\MSVC\14.44.35207\include\type_traits
; File C:\Program Files\Microsoft Visual Studio\2022\Community\VC\Tools\MSVC\14.44.35207\include\xtree
;	COMDAT ?find@?$_Tree@V?$_Tmap_traits@KUSPartyMemberInfo@CPythonPlayer@@U?$less@K@std@@V?$allocator@U?$pair@$$CBKUSPartyMemberInfo@CPythonPlayer@@@std@@@4@$0A@@std@@@std@@QAE?AV?$_Tree_iterator@V?$_Tree_val@U?$_Tree_simple_types@U?$pair@$$CBKUSPartyMemberInfo@CPythonPlayer@@@std@@@std@@@std@@@2@ABK@Z
_TEXT	SEGMENT
__Loc$1 = -12						; size = 12
___$ReturnUdt$ = 8					; size = 4
__Keyval$ = 12						; size = 4
?find@?$_Tree@V?$_Tmap_traits@KUSPartyMemberInfo@CPythonPlayer@@U?$less@K@std@@V?$allocator@U?$pair@$$CBKUSPartyMemberInfo@CPythonPlayer@@@std@@@4@$0A@@std@@@std@@QAE?AV?$_Tree_iterator@V?$_Tree_val@U?$_Tree_simple_types@U?$pair@$$CBKUSPartyMemberInfo@CPythonPlayer@@@std@@@std@@@std@@@2@ABK@Z PROC ; std::_Tree<std::_Tmap_traits<unsigned long,CPythonPlayer::SPartyMemberInfo,std::less<unsigned long>,std::allocator<std::pair<unsigned long const ,CPythonPlayer::SPartyMemberInfo> >,0> >::find, COMDAT
; _this$ = ecx

; 1393 :     _NODISCARD iterator find(const key_type& _Keyval) {

  00000	55		 push	 ebp
  00001	8b ec		 mov	 ebp, esp
  00003	83 ec 0c	 sub	 esp, 12			; 0000000cH
  00006	56		 push	 esi

; 1384 :         const _Tree_find_result<_Nodeptr> _Loc = _Find_lower_bound(_Keyval);

  00007	8b 75 0c	 mov	 esi, DWORD PTR __Keyval$[ebp]
  0000a	8d 45 f4	 lea	 eax, DWORD PTR __Loc$1[ebp]

; 1393 :     _NODISCARD iterator find(const key_type& _Keyval) {

  0000d	57		 push	 edi

; 1384 :         const _Tree_find_result<_Nodeptr> _Loc = _Find_lower_bound(_Keyval);

  0000e	56		 push	 esi
  0000f	50		 push	 eax

; 1393 :     _NODISCARD iterator find(const key_type& _Keyval) {

  00010	8b f9		 mov	 edi, ecx

; 1384 :         const _Tree_find_result<_Nodeptr> _Loc = _Find_lower_bound(_Keyval);

  00012	e8 00 00 00 00	 call	 ??$_Find_lower_bound@K@?$_Tree@V?$_Tmap_traits@KUSPartyMemberInfo@CPythonPlayer@@U?$less@K@std@@V?$allocator@U?$pair@$$CBKUSPartyMemberInfo@CPythonPlayer@@@std@@@4@$0A@@std@@@std@@IBE?AU?$_Tree_find_result@PAU?$_Tree_node@U?$pair@$$CBKUSPartyMemberInfo@CPythonPlayer@@@std@@PAX@std@@@1@ABK@Z ; std::_Tree<std::_Tmap_traits<unsigned long,CPythonPlayer::SPartyMemberInfo,std::less<unsigned long>,std::allocator<std::pair<unsigned long const ,CPythonPlayer::SPartyMemberInfo> >,0> >::_Find_lower_bound<unsigned long>

; 1624 :         return !_Bound->_Isnil && !_DEBUG_LT_PRED(_Getcomp(), _Keyval, _Traits::_Kfn(_Bound->_Myval));

  00017	8b 55 fc	 mov	 edx, DWORD PTR __Loc$1[ebp+8]
  0001a	80 7a 0d 00	 cmp	 BYTE PTR [edx+13], 0
  0001e	75 14		 jne	 SHORT $LN4@find
; File C:\Program Files\Microsoft Visual Studio\2022\Community\VC\Tools\MSVC\14.44.35207\include\type_traits

; 2380 :         return _Left < _Right;

  00020	8b 06		 mov	 eax, DWORD PTR [esi]
  00022	3b 42 10	 cmp	 eax, DWORD PTR [edx+16]
; File C:\Program Files\Microsoft Visual Studio\2022\Community\VC\Tools\MSVC\14.44.35207\include\xtree

; 1624 :         return !_Bound->_Isnil && !_DEBUG_LT_PRED(_Getcomp(), _Keyval, _Traits::_Kfn(_Bound->_Myval));

  00025	72 0d		 jb	 SHORT $LN4@find

; 37   :     _Tree_unchecked_const_iterator(_Nodeptr _Pnode, const _Mytree* _Plist) noexcept : _Ptr(_Pnode) {

  00027	8b 45 08	 mov	 eax, DWORD PTR ___$ReturnUdt$[ebp]
  0002a	5f		 pop	 edi

; 1394 :         return iterator(_Find(_Keyval), _Get_scary());
; 1395 :     }

  0002b	5e		 pop	 esi

; 37   :     _Tree_unchecked_const_iterator(_Nodeptr _Pnode, const _Mytree* _Plist) noexcept : _Ptr(_Pnode) {

  0002c	89 10		 mov	 DWORD PTR [eax], edx

; 1394 :         return iterator(_Find(_Keyval), _Get_scary());
; 1395 :     }

  0002e	8b e5		 mov	 esp, ebp
  00030	5d		 pop	 ebp
  00031	c2 08 00	 ret	 8
$LN4@find:

; 37   :     _Tree_unchecked_const_iterator(_Nodeptr _Pnode, const _Mytree* _Plist) noexcept : _Ptr(_Pnode) {

  00034	8b 45 08	 mov	 eax, DWORD PTR ___$ReturnUdt$[ebp]

; 1389 :         return _Get_scary()->_Myhead;

  00037	8b 0f		 mov	 ecx, DWORD PTR [edi]
  00039	5f		 pop	 edi

; 1394 :         return iterator(_Find(_Keyval), _Get_scary());
; 1395 :     }

  0003a	5e		 pop	 esi

; 37   :     _Tree_unchecked_const_iterator(_Nodeptr _Pnode, const _Mytree* _Plist) noexcept : _Ptr(_Pnode) {

  0003b	89 08		 mov	 DWORD PTR [eax], ecx

; 1394 :         return iterator(_Find(_Keyval), _Get_scary());
; 1395 :     }

  0003d	8b e5		 mov	 esp, ebp
  0003f	5d		 pop	 ebp
  00040	c2 08 00	 ret	 8
?find@?$_Tree@V?$_Tmap_traits@KUSPartyMemberInfo@CPythonPlayer@@U?$less@K@std@@V?$allocator@U?$pair@$$CBKUSPartyMemberInfo@CPythonPlayer@@@std@@@4@$0A@@std@@@std@@QAE?AV?$_Tree_iterator@V?$_Tree_val@U?$_Tree_simple_types@U?$pair@$$CBKUSPartyMemberInfo@CPythonPlayer@@@std@@@std@@@std@@@2@ABK@Z ENDP ; std::_Tree<std::_Tmap_traits<unsigned long,CPythonPlayer::SPartyMemberInfo,std::less<unsigned long>,std::allocator<std::pair<unsigned long const ,CPythonPlayer::SPartyMemberInfo> >,0> >::find
_TEXT	ENDS
; Function compile flags: /Ogtp
; File C:\Program Files\Microsoft Visual Studio\2022\Community\VC\Tools\MSVC\14.44.35207\include\xtree
;	COMDAT ?clear@?$_Tree@V?$_Tmap_traits@KUSPartyMemberInfo@CPythonPlayer@@U?$less@K@std@@V?$allocator@U?$pair@$$CBKUSPartyMemberInfo@CPythonPlayer@@@std@@@4@$0A@@std@@@std@@QAEXXZ
_TEXT	SEGMENT
?clear@?$_Tree@V?$_Tmap_traits@KUSPartyMemberInfo@CPythonPlayer@@U?$less@K@std@@V?$allocator@U?$pair@$$CBKUSPartyMemberInfo@CPythonPlayer@@@std@@@4@$0A@@std@@@std@@QAEXXZ PROC ; std::_Tree<std::_Tmap_traits<unsigned long,CPythonPlayer::SPartyMemberInfo,std::less<unsigned long>,std::allocator<std::pair<unsigned long const ,CPythonPlayer::SPartyMemberInfo> >,0> >::clear, COMDAT
; _this$ = ecx

; 1370 :     void clear() noexcept {

  00000	56		 push	 esi
  00001	57		 push	 edi
  00002	8b f9		 mov	 edi, ecx

; 1371 :         const auto _Scary = _Get_scary();
; 1372 :         _Scary->_Orphan_ptr(nullptr);
; 1373 :         auto _Head = _Scary->_Myhead;

  00004	8b 37		 mov	 esi, DWORD PTR [edi]

; 1374 :         _Scary->_Erase_tree(_Getal(), _Head->_Parent);

  00006	ff 76 04	 push	 DWORD PTR [esi+4]
  00009	57		 push	 edi
  0000a	e8 00 00 00 00	 call	 ??$_Erase_tree@V?$allocator@U?$_Tree_node@U?$pair@$$CBKUSPartyMemberInfo@CPythonPlayer@@@std@@PAX@std@@@std@@@?$_Tree_val@U?$_Tree_simple_types@U?$pair@$$CBKUSPartyMemberInfo@CPythonPlayer@@@std@@@std@@@std@@QAEXAAV?$allocator@U?$_Tree_node@U?$pair@$$CBKUSPartyMemberInfo@CPythonPlayer@@@std@@PAX@std@@@1@PAU?$_Tree_node@U?$pair@$$CBKUSPartyMemberInfo@CPythonPlayer@@@std@@PAX@1@@Z ; std::_Tree_val<std::_Tree_simple_types<std::pair<unsigned long const ,CPythonPlayer::SPartyMemberInfo> > >::_Erase_tree<std::allocator<std::_Tree_node<std::pair<unsigned long const ,CPythonPlayer::SPartyMemberInfo>,void *> > >

; 1375 :         _Head->_Parent  = _Head;

  0000f	89 76 04	 mov	 DWORD PTR [esi+4], esi

; 1376 :         _Head->_Left    = _Head;

  00012	89 36		 mov	 DWORD PTR [esi], esi

; 1377 :         _Head->_Right   = _Head;

  00014	89 76 08	 mov	 DWORD PTR [esi+8], esi

; 1378 :         _Scary->_Mysize = 0;

  00017	c7 47 04 00 00
	00 00		 mov	 DWORD PTR [edi+4], 0
  0001e	5f		 pop	 edi
  0001f	5e		 pop	 esi

; 1379 :     }

  00020	c3		 ret	 0
?clear@?$_Tree@V?$_Tmap_traits@KUSPartyMemberInfo@CPythonPlayer@@U?$less@K@std@@V?$allocator@U?$pair@$$CBKUSPartyMemberInfo@CPythonPlayer@@@std@@@4@$0A@@std@@@std@@QAEXXZ ENDP ; std::_Tree<std::_Tmap_traits<unsigned long,CPythonPlayer::SPartyMemberInfo,std::less<unsigned long>,std::allocator<std::pair<unsigned long const ,CPythonPlayer::SPartyMemberInfo> >,0> >::clear
_TEXT	ENDS
; Function compile flags: /Ogtp
; File C:\Program Files\Microsoft Visual Studio\2022\Community\VC\Tools\MSVC\14.44.35207\include\xtree
; File C:\Program Files\Microsoft Visual Studio\2022\Community\VC\Tools\MSVC\14.44.35207\include\type_traits
; File C:\Program Files\Microsoft Visual Studio\2022\Community\VC\Tools\MSVC\14.44.35207\include\xtree
; File C:\Program Files\Microsoft Visual Studio\2022\Community\VC\Tools\MSVC\14.44.35207\include\type_traits
; File C:\Program Files\Microsoft Visual Studio\2022\Community\VC\Tools\MSVC\14.44.35207\include\xtree
; File C:\Program Files\Microsoft Visual Studio\2022\Community\VC\Tools\MSVC\14.44.35207\include\type_traits
; File C:\Program Files\Microsoft Visual Studio\2022\Community\VC\Tools\MSVC\14.44.35207\include\xtree
; File C:\Program Files\Microsoft Visual Studio\2022\Community\VC\Tools\MSVC\14.44.35207\include\xutility
; File C:\Program Files\Microsoft Visual Studio\2022\Community\VC\Tools\MSVC\14.44.35207\include\xtree
; File C:\Program Files\Microsoft Visual Studio\2022\Community\VC\Tools\MSVC\14.44.35207\include\xutility
; File C:\Program Files\Microsoft Visual Studio\2022\Community\VC\Tools\MSVC\14.44.35207\include\xtree
; File C:\Program Files\Microsoft Visual Studio\2022\Community\VC\Tools\MSVC\14.44.35207\include\xutility
; File C:\Program Files\Microsoft Visual Studio\2022\Community\VC\Tools\MSVC\14.44.35207\include\xtree
; File C:\Program Files\Microsoft Visual Studio\2022\Community\VC\Tools\MSVC\14.44.35207\include\xutility
; File C:\Program Files\Microsoft Visual Studio\2022\Community\VC\Tools\MSVC\14.44.35207\include\xtree
; File C:\Program Files\Microsoft Visual Studio\2022\Community\VC\Tools\MSVC\14.44.35207\include\xstring
; File C:\Program Files\Microsoft Visual Studio\2022\Community\VC\Tools\MSVC\14.44.35207\include\xmemory
; File C:\Program Files\Microsoft Visual Studio\2022\Community\VC\Tools\MSVC\14.44.35207\include\xtree
; File C:\Program Files\Microsoft Visual Studio\2022\Community\VC\Tools\MSVC\14.44.35207\include\xmemory
; File C:\Program Files\Microsoft Visual Studio\2022\Community\VC\Tools\MSVC\14.44.35207\include\xtree
;	COMDAT ?erase@?$_Tree@V?$_Tmap_traits@KUSPartyMemberInfo@CPythonPlayer@@U?$less@K@std@@V?$allocator@U?$pair@$$CBKUSPartyMemberInfo@CPythonPlayer@@@std@@@4@$0A@@std@@@std@@QAEIABK@Z
_TEXT	SEGMENT
__Off$1$ = -12						; size = 4
tv759 = -12						; size = 4
_this$1$ = -8						; size = 4
__Head$1$ = -4						; size = 4
__Keyval$ = 8						; size = 4
__First$ = 8						; size = 4
?erase@?$_Tree@V?$_Tmap_traits@KUSPartyMemberInfo@CPythonPlayer@@U?$less@K@std@@V?$allocator@U?$pair@$$CBKUSPartyMemberInfo@CPythonPlayer@@@std@@@4@$0A@@std@@@std@@QAEIABK@Z PROC ; std::_Tree<std::_Tmap_traits<unsigned long,CPythonPlayer::SPartyMemberInfo,std::less<unsigned long>,std::allocator<std::pair<unsigned long const ,CPythonPlayer::SPartyMemberInfo> >,0> >::erase, COMDAT
; _this$ = ecx

; 1357 :     size_type erase(const key_type& _Keyval) noexcept(noexcept(_Eqrange(_Keyval))) /* strengthened */ {

  00000	55		 push	 ebp
  00001	8b ec		 mov	 ebp, esp
  00003	83 ec 0c	 sub	 esp, 12			; 0000000cH
  00006	8b c1		 mov	 eax, ecx
  00008	53		 push	 ebx

; 1713 :         while (!_Pnode->_Isnil) {

  00009	8b 5d 08	 mov	 ebx, DWORD PTR __Keyval$[ebp]

; 1357 :     size_type erase(const key_type& _Keyval) noexcept(noexcept(_Eqrange(_Keyval))) /* strengthened */ {

  0000c	89 45 f8	 mov	 DWORD PTR _this$1$[ebp], eax

; 1709 :         _Nodeptr _Pnode   = _Scary->_Myhead->_Parent;

  0000f	8b 08		 mov	 ecx, DWORD PTR [eax]

; 1357 :     size_type erase(const key_type& _Keyval) noexcept(noexcept(_Eqrange(_Keyval))) /* strengthened */ {

  00011	56		 push	 esi
  00012	57		 push	 edi

; 1709 :         _Nodeptr _Pnode   = _Scary->_Myhead->_Parent;

  00013	89 4d fc	 mov	 DWORD PTR __Head$1$[ebp], ecx

; 1710 :         _Nodeptr _Lonode  = _Scary->_Myhead; // end() if search fails

  00016	8b f9		 mov	 edi, ecx
  00018	8b 51 04	 mov	 edx, DWORD PTR [ecx+4]

; 1711 :         _Nodeptr _Hinode  = _Scary->_Myhead; // end() if search fails

  0001b	8b f1		 mov	 esi, ecx
  0001d	8b c2		 mov	 eax, edx
  0001f	89 55 f4	 mov	 DWORD PTR tv759[ebp], edx

; 1712 : 
; 1713 :         while (!_Pnode->_Isnil) {

  00022	80 78 0d 00	 cmp	 BYTE PTR [eax+13], 0
  00026	75 2c		 jne	 SHORT $LN6@erase
; File C:\Program Files\Microsoft Visual Studio\2022\Community\VC\Tools\MSVC\14.44.35207\include\type_traits

; 2380 :         return _Left < _Right;

  00028	8b 13		 mov	 edx, DWORD PTR [ebx]
  0002a	66 0f 1f 44 00
	00		 npad	 6
$LL5@erase:
  00030	8b 48 10	 mov	 ecx, DWORD PTR [eax+16]
  00033	3b ca		 cmp	 ecx, edx
; File C:\Program Files\Microsoft Visual Studio\2022\Community\VC\Tools\MSVC\14.44.35207\include\xtree

; 1715 :             if (_DEBUG_LT_PRED(_Comp, _Nodekey, _Keyval)) {

  00035	73 05		 jae	 SHORT $LN9@erase

; 1716 :                 _Pnode = _Pnode->_Right; // descend right subtree

  00037	8b 40 08	 mov	 eax, DWORD PTR [eax+8]

; 1717 :             } else { // _Pnode not less than _Keyval, remember it

  0003a	eb 0f		 jmp	 SHORT $LN10@erase
$LN9@erase:

; 1718 :                 if (_Hinode->_Isnil && _DEBUG_LT_PRED(_Comp, _Keyval, _Nodekey)) {

  0003c	80 7e 0d 00	 cmp	 BYTE PTR [esi+13], 0
  00040	74 05		 je	 SHORT $LN11@erase
; File C:\Program Files\Microsoft Visual Studio\2022\Community\VC\Tools\MSVC\14.44.35207\include\type_traits

; 2380 :         return _Left < _Right;

  00042	3b d1		 cmp	 edx, ecx
; File C:\Program Files\Microsoft Visual Studio\2022\Community\VC\Tools\MSVC\14.44.35207\include\xtree

; 1718 :                 if (_Hinode->_Isnil && _DEBUG_LT_PRED(_Comp, _Keyval, _Nodekey)) {

  00044	0f 42 f0	 cmovb	 esi, eax
$LN11@erase:

; 1719 :                     _Hinode = _Pnode; // _Pnode greater, remember it
; 1720 :                 }
; 1721 : 
; 1722 :                 _Lonode = _Pnode;

  00047	8b f8		 mov	 edi, eax

; 1723 :                 _Pnode  = _Pnode->_Left; // descend left subtree

  00049	8b 00		 mov	 eax, DWORD PTR [eax]
$LN10@erase:

; 1712 : 
; 1713 :         while (!_Pnode->_Isnil) {

  0004b	80 78 0d 00	 cmp	 BYTE PTR [eax+13], 0
  0004f	74 df		 je	 SHORT $LL5@erase
  00051	8b 55 f4	 mov	 edx, DWORD PTR tv759[ebp]
$LN6@erase:

; 1724 :             }
; 1725 :         }
; 1726 : 
; 1727 :         _Pnode = _Hinode->_Isnil ? _Scary->_Myhead->_Parent : _Hinode->_Left; // continue scan for upper bound

  00054	80 7e 0d 00	 cmp	 BYTE PTR [esi+13], 0
  00058	8b c2		 mov	 eax, edx
  0005a	75 02		 jne	 SHORT $LN16@erase
  0005c	8b 06		 mov	 eax, DWORD PTR [esi]
$LN16@erase:

; 1728 :         while (!_Pnode->_Isnil) {

  0005e	80 78 0d 00	 cmp	 BYTE PTR [eax+13], 0
  00062	75 16		 jne	 SHORT $LN8@erase
; File C:\Program Files\Microsoft Visual Studio\2022\Community\VC\Tools\MSVC\14.44.35207\include\type_traits

; 2380 :         return _Left < _Right;

  00064	8b 0b		 mov	 ecx, DWORD PTR [ebx]
$LL7@erase:
  00066	3b 48 10	 cmp	 ecx, DWORD PTR [eax+16]
; File C:\Program Files\Microsoft Visual Studio\2022\Community\VC\Tools\MSVC\14.44.35207\include\xtree

; 1729 :             if (_DEBUG_LT_PRED(_Getcomp(), _Keyval, _Traits::_Kfn(_Pnode->_Myval))) {

  00069	73 06		 jae	 SHORT $LN12@erase

; 1730 :                 // _Pnode greater than _Keyval, remember it
; 1731 :                 _Hinode = _Pnode;

  0006b	8b f0		 mov	 esi, eax

; 1732 :                 _Pnode  = _Pnode->_Left; // descend left subtree

  0006d	8b 00		 mov	 eax, DWORD PTR [eax]

; 1733 :             } else {

  0006f	eb 03		 jmp	 SHORT $LN13@erase
$LN12@erase:

; 1734 :                 _Pnode = _Pnode->_Right; // descend right subtree

  00071	8b 40 08	 mov	 eax, DWORD PTR [eax+8]
$LN13@erase:

; 1728 :         while (!_Pnode->_Isnil) {

  00074	80 78 0d 00	 cmp	 BYTE PTR [eax+13], 0
  00078	74 ec		 je	 SHORT $LL7@erase
$LN8@erase:
; File C:\Program Files\Microsoft Visual Studio\2022\Community\VC\Tools\MSVC\14.44.35207\include\xutility

; 1665 :         auto _UFirst             = _STD _Get_unwrapped(_First);

  0007a	8b c7		 mov	 eax, edi

; 1666 :         const auto _ULast        = _STD _Get_unwrapped(_Last);
; 1667 :         _Iter_diff_t<_InIt> _Off = 0;

  0007c	33 db		 xor	 ebx, ebx
  0007e	89 5d f4	 mov	 DWORD PTR __Off$1$[ebp], ebx
; File C:\Program Files\Microsoft Visual Studio\2022\Community\VC\Tools\MSVC\14.44.35207\include\xtree

; 96   :         return _Ptr == _Right._Ptr;

  00081	3b c6		 cmp	 eax, esi
; File C:\Program Files\Microsoft Visual Studio\2022\Community\VC\Tools\MSVC\14.44.35207\include\xutility

; 1668 :         for (; _UFirst != _ULast; ++_UFirst) {

  00083	74 44		 je	 SHORT $LN41@erase
$LL42@erase:
; File C:\Program Files\Microsoft Visual Studio\2022\Community\VC\Tools\MSVC\14.44.35207\include\xtree

; 50   :         if (_Ptr->_Right->_Isnil) { // climb looking for right subtree

  00085	8b 48 08	 mov	 ecx, DWORD PTR [eax+8]
; File C:\Program Files\Microsoft Visual Studio\2022\Community\VC\Tools\MSVC\14.44.35207\include\xutility

; 1669 :             ++_Off;

  00088	43		 inc	 ebx
; File C:\Program Files\Microsoft Visual Studio\2022\Community\VC\Tools\MSVC\14.44.35207\include\xtree

; 50   :         if (_Ptr->_Right->_Isnil) { // climb looking for right subtree

  00089	80 79 0d 00	 cmp	 BYTE PTR [ecx+13], 0
  0008d	74 1d		 je	 SHORT $LN47@erase

; 51   :             _Nodeptr _Pnode;
; 52   :             while (!(_Pnode = _Ptr->_Parent)->_Isnil && _Ptr == _Pnode->_Right) {

  0008f	8b 48 04	 mov	 ecx, DWORD PTR [eax+4]
  00092	80 79 0d 00	 cmp	 BYTE PTR [ecx+13], 0
  00096	75 10		 jne	 SHORT $LN180@erase
$LL45@erase:
  00098	3b 41 08	 cmp	 eax, DWORD PTR [ecx+8]
  0009b	75 0b		 jne	 SHORT $LN180@erase

; 53   :                 _Ptr = _Pnode; // ==> parent while right subtree

  0009d	8b c1		 mov	 eax, ecx
  0009f	8b 49 04	 mov	 ecx, DWORD PTR [ecx+4]
  000a2	80 79 0d 00	 cmp	 BYTE PTR [ecx+13], 0
  000a6	74 f0		 je	 SHORT $LL45@erase
$LN180@erase:

; 54   :             }
; 55   : 
; 56   :             _Ptr = _Pnode; // ==> parent (head if end())

  000a8	8b c1		 mov	 eax, ecx

; 57   :         } else {

  000aa	eb 16		 jmp	 SHORT $LN53@erase
$LN47@erase:

; 58   :             _Ptr = _Mytree::_Min(_Ptr->_Right); // ==> smallest of right subtree

  000ac	8b c1		 mov	 eax, ecx

; 476  :         while (!_Pnode->_Left->_Isnil) {

  000ae	8b 10		 mov	 edx, DWORD PTR [eax]
  000b0	80 7a 0d 00	 cmp	 BYTE PTR [edx+13], 0
  000b4	75 0c		 jne	 SHORT $LN53@erase
$LL52@erase:
  000b6	8b 0a		 mov	 ecx, DWORD PTR [edx]

; 477  :             _Pnode = _Pnode->_Left;

  000b8	8b c2		 mov	 eax, edx
  000ba	8b d1		 mov	 edx, ecx
  000bc	80 79 0d 00	 cmp	 BYTE PTR [ecx+13], 0
  000c0	74 f4		 je	 SHORT $LL52@erase
$LN53@erase:

; 96   :         return _Ptr == _Right._Ptr;

  000c2	3b c6		 cmp	 eax, esi
; File C:\Program Files\Microsoft Visual Studio\2022\Community\VC\Tools\MSVC\14.44.35207\include\xutility

; 1668 :         for (; _UFirst != _ULast; ++_UFirst) {

  000c4	75 bf		 jne	 SHORT $LL42@erase
  000c6	89 5d f4	 mov	 DWORD PTR __Off$1$[ebp], ebx
$LN41@erase:
; File C:\Program Files\Microsoft Visual Studio\2022\Community\VC\Tools\MSVC\14.44.35207\include\xtree

; 96   :         return _Ptr == _Right._Ptr;

  000c9	8b 45 fc	 mov	 eax, DWORD PTR __Head$1$[ebp]

; 1329 :         _Erase_unchecked(_First, _Last);

  000cc	89 7d 08	 mov	 DWORD PTR __First$[ebp], edi

; 96   :         return _Ptr == _Right._Ptr;

  000cf	3b 38		 cmp	 edi, DWORD PTR [eax]

; 1311 :         if (_First == _Begin && _Last._Ptr->_Isnil) {

  000d1	75 31		 jne	 SHORT $LN160@erase
  000d3	80 7e 0d 00	 cmp	 BYTE PTR [esi+13], 0
  000d7	74 2b		 je	 SHORT $LN160@erase

; 1374 :         _Scary->_Erase_tree(_Getal(), _Head->_Parent);

  000d9	ff 70 04	 push	 DWORD PTR [eax+4]
  000dc	8b 75 f8	 mov	 esi, DWORD PTR _this$1$[ebp]
  000df	8b ce		 mov	 ecx, esi
  000e1	56		 push	 esi
  000e2	e8 00 00 00 00	 call	 ??$_Erase_tree@V?$allocator@U?$_Tree_node@U?$pair@$$CBKUSPartyMemberInfo@CPythonPlayer@@@std@@PAX@std@@@std@@@?$_Tree_val@U?$_Tree_simple_types@U?$pair@$$CBKUSPartyMemberInfo@CPythonPlayer@@@std@@@std@@@std@@QAEXAAV?$allocator@U?$_Tree_node@U?$pair@$$CBKUSPartyMemberInfo@CPythonPlayer@@@std@@PAX@std@@@1@PAU?$_Tree_node@U?$pair@$$CBKUSPartyMemberInfo@CPythonPlayer@@@std@@PAX@1@@Z ; std::_Tree_val<std::_Tree_simple_types<std::pair<unsigned long const ,CPythonPlayer::SPartyMemberInfo> > >::_Erase_tree<std::allocator<std::_Tree_node<std::pair<unsigned long const ,CPythonPlayer::SPartyMemberInfo>,void *> > >

; 1375 :         _Head->_Parent  = _Head;

  000e7	8b 45 fc	 mov	 eax, DWORD PTR __Head$1$[ebp]
  000ea	89 40 04	 mov	 DWORD PTR [eax+4], eax

; 1376 :         _Head->_Left    = _Head;

  000ed	89 00		 mov	 DWORD PTR [eax], eax

; 1377 :         _Head->_Right   = _Head;

  000ef	89 40 08	 mov	 DWORD PTR [eax+8], eax

; 1378 :         _Scary->_Mysize = 0;

  000f2	c7 46 04 00 00
	00 00		 mov	 DWORD PTR [esi+4], 0
$LN179@erase:
  000f9	5f		 pop	 edi

; 1358 :         return _Erase(_Eqrange(_Keyval));
; 1359 :     }

  000fa	5e		 pop	 esi
  000fb	8b c3		 mov	 eax, ebx
  000fd	5b		 pop	 ebx
  000fe	8b e5		 mov	 esp, ebp
  00100	5d		 pop	 ebp
  00101	c2 04 00	 ret	 4
$LN160@erase:

; 96   :         return _Ptr == _Right._Ptr;

  00104	3b fe		 cmp	 edi, esi

; 1318 :         while (_First != _Last) {

  00106	74 f1		 je	 SHORT $LN179@erase
  00108	8b 5d f8	 mov	 ebx, DWORD PTR _this$1$[ebp]
  0010b	0f 1f 44 00 00	 npad	 5
$LL60@erase:

; 66   :         ++*this;

  00110	8d 4d 08	 lea	 ecx, DWORD PTR __First$[ebp]
  00113	e8 00 00 00 00	 call	 ??E?$_Tree_unchecked_const_iterator@V?$_Tree_val@U?$_Tree_simple_types@U?$pair@$$CBKUSPartyMemberInfo@CPythonPlayer@@@std@@@std@@@std@@U_Iterator_base0@2@@std@@QAEAAV01@XZ ; std::_Tree_unchecked_const_iterator<std::_Tree_val<std::_Tree_simple_types<std::pair<unsigned long const ,CPythonPlayer::SPartyMemberInfo> > >,std::_Iterator_base0>::operator++

; 1303 :         _Nodeptr _Erasednode = _Scary->_Extract(_Where); // node to erase

  00118	57		 push	 edi
  00119	8b cb		 mov	 ecx, ebx
  0011b	e8 00 00 00 00	 call	 ?_Extract@?$_Tree_val@U?$_Tree_simple_types@U?$pair@$$CBKUSPartyMemberInfo@CPythonPlayer@@@std@@@std@@@std@@QAEPAU?$_Tree_node@U?$pair@$$CBKUSPartyMemberInfo@CPythonPlayer@@@std@@PAX@2@V?$_Tree_unchecked_const_iterator@V?$_Tree_val@U?$_Tree_simple_types@U?$pair@$$CBKUSPartyMemberInfo@CPythonPlayer@@@std@@@std@@@std@@U_Iterator_base0@2@@2@@Z ; std::_Tree_val<std::_Tree_simple_types<std::pair<unsigned long const ,CPythonPlayer::SPartyMemberInfo> > >::_Extract
  00120	8b f8		 mov	 edi, eax

; 381  :         allocator_traits<_Alloc>::destroy(_Al, _STD addressof(_Ptr->_Myval));

  00122	8d 4f 1c	 lea	 ecx, DWORD PTR [edi+28]
; File C:\Program Files\Microsoft Visual Studio\2022\Community\VC\Tools\MSVC\14.44.35207\include\xstring

; 1383 :         _Tidy_deallocate();

  00125	e8 00 00 00 00	 call	 ?_Tidy_deallocate@?$basic_string@DU?$char_traits@D@std@@V?$allocator@D@2@@std@@AAEXXZ ; std::basic_string<char,std::char_traits<char>,std::allocator<char> >::_Tidy_deallocate
; File C:\Program Files\Microsoft Visual Studio\2022\Community\VC\Tools\MSVC\14.44.35207\include\xmemory

; 289  :         ::operator delete(_Ptr, _Bytes);

  0012a	6a 44		 push	 68			; 00000044H
  0012c	57		 push	 edi
  0012d	e8 00 00 00 00	 call	 ??3@YAXPAXI@Z		; operator delete
; File C:\Program Files\Microsoft Visual Studio\2022\Community\VC\Tools\MSVC\14.44.35207\include\xtree

; 96   :         return _Ptr == _Right._Ptr;

  00132	8b 7d 08	 mov	 edi, DWORD PTR __First$[ebp]
; File C:\Program Files\Microsoft Visual Studio\2022\Community\VC\Tools\MSVC\14.44.35207\include\xmemory

; 289  :         ::operator delete(_Ptr, _Bytes);

  00135	83 c4 08	 add	 esp, 8
; File C:\Program Files\Microsoft Visual Studio\2022\Community\VC\Tools\MSVC\14.44.35207\include\xtree

; 96   :         return _Ptr == _Right._Ptr;

  00138	3b fe		 cmp	 edi, esi

; 1318 :         while (_First != _Last) {

  0013a	75 d4		 jne	 SHORT $LL60@erase

; 1358 :         return _Erase(_Eqrange(_Keyval));
; 1359 :     }

  0013c	8b 45 f4	 mov	 eax, DWORD PTR __Off$1$[ebp]
  0013f	5f		 pop	 edi
  00140	5e		 pop	 esi
  00141	5b		 pop	 ebx
  00142	8b e5		 mov	 esp, ebp
  00144	5d		 pop	 ebp
  00145	c2 04 00	 ret	 4
?erase@?$_Tree@V?$_Tmap_traits@KUSPartyMemberInfo@CPythonPlayer@@U?$less@K@std@@V?$allocator@U?$pair@$$CBKUSPartyMemberInfo@CPythonPlayer@@@std@@@4@$0A@@std@@@std@@QAEIABK@Z ENDP ; std::_Tree<std::_Tmap_traits<unsigned long,CPythonPlayer::SPartyMemberInfo,std::less<unsigned long>,std::allocator<std::pair<unsigned long const ,CPythonPlayer::SPartyMemberInfo> >,0> >::erase
_TEXT	ENDS
; Function compile flags: /Ogtp
; File C:\Program Files\Microsoft Visual Studio\2022\Community\VC\Tools\MSVC\14.44.35207\include\xtree
;	COMDAT ?end@?$_Tree@V?$_Tmap_traits@KUSPartyMemberInfo@CPythonPlayer@@U?$less@K@std@@V?$allocator@U?$pair@$$CBKUSPartyMemberInfo@CPythonPlayer@@@std@@@4@$0A@@std@@@std@@QAE?AV?$_Tree_iterator@V?$_Tree_val@U?$_Tree_simple_types@U?$pair@$$CBKUSPartyMemberInfo@CPythonPlayer@@@std@@@std@@@std@@@2@XZ
_TEXT	SEGMENT
___$ReturnUdt$ = 8					; size = 4
?end@?$_Tree@V?$_Tmap_traits@KUSPartyMemberInfo@CPythonPlayer@@U?$less@K@std@@V?$allocator@U?$pair@$$CBKUSPartyMemberInfo@CPythonPlayer@@@std@@@4@$0A@@std@@@std@@QAE?AV?$_Tree_iterator@V?$_Tree_val@U?$_Tree_simple_types@U?$pair@$$CBKUSPartyMemberInfo@CPythonPlayer@@@std@@@std@@@std@@@2@XZ PROC ; std::_Tree<std::_Tmap_traits<unsigned long,CPythonPlayer::SPartyMemberInfo,std::less<unsigned long>,std::allocator<std::pair<unsigned long const ,CPythonPlayer::SPartyMemberInfo> >,0> >::end, COMDAT
; _this$ = ecx

; 1150 :     _NODISCARD iterator end() noexcept {

  00000	55		 push	 ebp
  00001	8b ec		 mov	 ebp, esp

; 37   :     _Tree_unchecked_const_iterator(_Nodeptr _Pnode, const _Mytree* _Plist) noexcept : _Ptr(_Pnode) {

  00003	8b 45 08	 mov	 eax, DWORD PTR ___$ReturnUdt$[ebp]
  00006	8b 09		 mov	 ecx, DWORD PTR [ecx]
  00008	89 08		 mov	 DWORD PTR [eax], ecx

; 1151 :         const auto _Scary = _Get_scary();
; 1152 :         return iterator(_Scary->_Myhead, _Scary);
; 1153 :     }

  0000a	5d		 pop	 ebp
  0000b	c2 04 00	 ret	 4
?end@?$_Tree@V?$_Tmap_traits@KUSPartyMemberInfo@CPythonPlayer@@U?$less@K@std@@V?$allocator@U?$pair@$$CBKUSPartyMemberInfo@CPythonPlayer@@@std@@@4@$0A@@std@@@std@@QAE?AV?$_Tree_iterator@V?$_Tree_val@U?$_Tree_simple_types@U?$pair@$$CBKUSPartyMemberInfo@CPythonPlayer@@@std@@@std@@@std@@@2@XZ ENDP ; std::_Tree<std::_Tmap_traits<unsigned long,CPythonPlayer::SPartyMemberInfo,std::less<unsigned long>,std::allocator<std::pair<unsigned long const ,CPythonPlayer::SPartyMemberInfo> >,0> >::end
_TEXT	ENDS
; Function compile flags: /Ogtp
; File C:\Program Files\Microsoft Visual Studio\2022\Community\VC\Tools\MSVC\14.44.35207\include\xtree
;	COMDAT ?begin@?$_Tree@V?$_Tmap_traits@KUSPartyMemberInfo@CPythonPlayer@@U?$less@K@std@@V?$allocator@U?$pair@$$CBKUSPartyMemberInfo@CPythonPlayer@@@std@@@4@$0A@@std@@@std@@QAE?AV?$_Tree_iterator@V?$_Tree_val@U?$_Tree_simple_types@U?$pair@$$CBKUSPartyMemberInfo@CPythonPlayer@@@std@@@std@@@std@@@2@XZ
_TEXT	SEGMENT
___$ReturnUdt$ = 8					; size = 4
?begin@?$_Tree@V?$_Tmap_traits@KUSPartyMemberInfo@CPythonPlayer@@U?$less@K@std@@V?$allocator@U?$pair@$$CBKUSPartyMemberInfo@CPythonPlayer@@@std@@@4@$0A@@std@@@std@@QAE?AV?$_Tree_iterator@V?$_Tree_val@U?$_Tree_simple_types@U?$pair@$$CBKUSPartyMemberInfo@CPythonPlayer@@@std@@@std@@@std@@@2@XZ PROC ; std::_Tree<std::_Tmap_traits<unsigned long,CPythonPlayer::SPartyMemberInfo,std::less<unsigned long>,std::allocator<std::pair<unsigned long const ,CPythonPlayer::SPartyMemberInfo> >,0> >::begin, COMDAT
; _this$ = ecx

; 1140 :     _NODISCARD iterator begin() noexcept {

  00000	55		 push	 ebp
  00001	8b ec		 mov	 ebp, esp

; 1141 :         const auto _Scary = _Get_scary();
; 1142 :         return iterator(_Scary->_Myhead->_Left, _Scary);

  00003	8b 01		 mov	 eax, DWORD PTR [ecx]

; 37   :     _Tree_unchecked_const_iterator(_Nodeptr _Pnode, const _Mytree* _Plist) noexcept : _Ptr(_Pnode) {

  00005	8b 08		 mov	 ecx, DWORD PTR [eax]
  00007	8b 45 08	 mov	 eax, DWORD PTR ___$ReturnUdt$[ebp]
  0000a	89 08		 mov	 DWORD PTR [eax], ecx

; 1143 :     }

  0000c	5d		 pop	 ebp
  0000d	c2 04 00	 ret	 4
?begin@?$_Tree@V?$_Tmap_traits@KUSPartyMemberInfo@CPythonPlayer@@U?$less@K@std@@V?$allocator@U?$pair@$$CBKUSPartyMemberInfo@CPythonPlayer@@@std@@@4@$0A@@std@@@std@@QAE?AV?$_Tree_iterator@V?$_Tree_val@U?$_Tree_simple_types@U?$pair@$$CBKUSPartyMemberInfo@CPythonPlayer@@@std@@@std@@@std@@@2@XZ ENDP ; std::_Tree<std::_Tmap_traits<unsigned long,CPythonPlayer::SPartyMemberInfo,std::less<unsigned long>,std::allocator<std::pair<unsigned long const ,CPythonPlayer::SPartyMemberInfo> >,0> >::begin
_TEXT	ENDS
; Function compile flags: /Ogtp
; File C:\Program Files\Microsoft Visual Studio\2022\Community\VC\Tools\MSVC\14.44.35207\include\xtree
; File C:\Program Files\Microsoft Visual Studio\2022\Community\VC\Tools\MSVC\14.44.35207\include\xmemory
; File C:\Program Files\Microsoft Visual Studio\2022\Community\VC\Tools\MSVC\14.44.35207\include\xtree
;	COMDAT ??1?$_Tree@V?$_Tmap_traits@KUSPartyMemberInfo@CPythonPlayer@@U?$less@K@std@@V?$allocator@U?$pair@$$CBKUSPartyMemberInfo@CPythonPlayer@@@std@@@4@$0A@@std@@@std@@QAE@XZ
_TEXT	SEGMENT
??1?$_Tree@V?$_Tmap_traits@KUSPartyMemberInfo@CPythonPlayer@@U?$less@K@std@@V?$allocator@U?$pair@$$CBKUSPartyMemberInfo@CPythonPlayer@@@std@@@4@$0A@@std@@@std@@QAE@XZ PROC ; std::_Tree<std::_Tmap_traits<unsigned long,CPythonPlayer::SPartyMemberInfo,std::less<unsigned long>,std::allocator<std::pair<unsigned long const ,CPythonPlayer::SPartyMemberInfo> >,0> >::~_Tree<std::_Tmap_traits<unsigned long,CPythonPlayer::SPartyMemberInfo,std::less<unsigned long>,std::allocator<std::pair<unsigned long const ,CPythonPlayer::SPartyMemberInfo> >,0> >, COMDAT
; _this$ = ecx

; 1095 :     ~_Tree() noexcept {

  00000	56		 push	 esi
  00001	8b f1		 mov	 esi, ecx

; 777  :         _Erase_tree(_Al, _Myhead->_Parent);

  00003	8b 06		 mov	 eax, DWORD PTR [esi]
  00005	ff 70 04	 push	 DWORD PTR [eax+4]
  00008	56		 push	 esi
  00009	e8 00 00 00 00	 call	 ??$_Erase_tree@V?$allocator@U?$_Tree_node@U?$pair@$$CBKUSPartyMemberInfo@CPythonPlayer@@@std@@PAX@std@@@std@@@?$_Tree_val@U?$_Tree_simple_types@U?$pair@$$CBKUSPartyMemberInfo@CPythonPlayer@@@std@@@std@@@std@@QAEXAAV?$allocator@U?$_Tree_node@U?$pair@$$CBKUSPartyMemberInfo@CPythonPlayer@@@std@@PAX@std@@@1@PAU?$_Tree_node@U?$pair@$$CBKUSPartyMemberInfo@CPythonPlayer@@@std@@PAX@1@@Z ; std::_Tree_val<std::_Tree_simple_types<std::pair<unsigned long const ,CPythonPlayer::SPartyMemberInfo> > >::_Erase_tree<std::allocator<std::_Tree_node<std::pair<unsigned long const ,CPythonPlayer::SPartyMemberInfo>,void *> > >
; File C:\Program Files\Microsoft Visual Studio\2022\Community\VC\Tools\MSVC\14.44.35207\include\xmemory

; 289  :         ::operator delete(_Ptr, _Bytes);

  0000e	6a 44		 push	 68			; 00000044H
  00010	ff 36		 push	 DWORD PTR [esi]
  00012	e8 00 00 00 00	 call	 ??3@YAXPAXI@Z		; operator delete
  00017	83 c4 08	 add	 esp, 8
  0001a	5e		 pop	 esi
; File C:\Program Files\Microsoft Visual Studio\2022\Community\VC\Tools\MSVC\14.44.35207\include\xtree

; 1102 :     }

  0001b	c3		 ret	 0
??1?$_Tree@V?$_Tmap_traits@KUSPartyMemberInfo@CPythonPlayer@@U?$less@K@std@@V?$allocator@U?$pair@$$CBKUSPartyMemberInfo@CPythonPlayer@@@std@@@4@$0A@@std@@@std@@QAE@XZ ENDP ; std::_Tree<std::_Tmap_traits<unsigned long,CPythonPlayer::SPartyMemberInfo,std::less<unsigned long>,std::allocator<std::pair<unsigned long const ,CPythonPlayer::SPartyMemberInfo> >,0> >::~_Tree<std::_Tmap_traits<unsigned long,CPythonPlayer::SPartyMemberInfo,std::less<unsigned long>,std::allocator<std::pair<unsigned long const ,CPythonPlayer::SPartyMemberInfo> >,0> >
_TEXT	ENDS
; Function compile flags: /Ogtp
; File C:\Program Files\Microsoft Visual Studio\2022\Community\VC\Tools\MSVC\14.44.35207\include\map
; File C:\Program Files\Microsoft Visual Studio\2022\Community\VC\Tools\MSVC\14.44.35207\include\xtree
; File C:\Program Files\Microsoft Visual Studio\2022\Community\VC\Tools\MSVC\14.44.35207\include\map
; File C:\Program Files\Microsoft Visual Studio\2022\Community\VC\Tools\MSVC\14.44.35207\include\xtree
; File C:\Program Files\Microsoft Visual Studio\2022\Community\VC\Tools\MSVC\14.44.35207\include\map
;	COMDAT ??0?$map@KUSPartyMemberInfo@CPythonPlayer@@U?$less@K@std@@V?$allocator@U?$pair@$$CBKUSPartyMemberInfo@CPythonPlayer@@@std@@@4@@std@@QAE@XZ
_TEXT	SEGMENT
_this$ = -4						; size = 4
??0?$map@KUSPartyMemberInfo@CPythonPlayer@@U?$less@K@std@@V?$allocator@U?$pair@$$CBKUSPartyMemberInfo@CPythonPlayer@@@std@@@4@@std@@QAE@XZ PROC ; std::map<unsigned long,CPythonPlayer::SPartyMemberInfo,std::less<unsigned long>,std::allocator<std::pair<unsigned long const ,CPythonPlayer::SPartyMemberInfo> > >::map<unsigned long,CPythonPlayer::SPartyMemberInfo,std::less<unsigned long>,std::allocator<std::pair<unsigned long const ,CPythonPlayer::SPartyMemberInfo> > >, COMDAT
; _this$ = ecx

; 106  :     map() : _Mybase(key_compare()) {}

  00000	55		 push	 ebp
  00001	8b ec		 mov	 ebp, esp
  00003	51		 push	 ecx
  00004	56		 push	 esi
  00005	8b f1		 mov	 esi, ecx
; File C:\Program Files\Microsoft Visual Studio\2022\Community\VC\Tools\MSVC\14.44.35207\include\xtree

; 345  :         const auto _Pnode = _Al.allocate(1);

  00007	6a 44		 push	 68			; 00000044H
; File C:\Program Files\Microsoft Visual Studio\2022\Community\VC\Tools\MSVC\14.44.35207\include\map

; 106  :     map() : _Mybase(key_compare()) {}

  00009	89 75 fc	 mov	 DWORD PTR _this$[ebp], esi
; File C:\Program Files\Microsoft Visual Studio\2022\Community\VC\Tools\MSVC\14.44.35207\include\xtree

; 450  :     _Tree_val() noexcept : _Myhead(), _Mysize(0) {}

  0000c	c7 06 00 00 00
	00		 mov	 DWORD PTR [esi], 0
  00012	c7 46 04 00 00
	00 00		 mov	 DWORD PTR [esi+4], 0

; 345  :         const auto _Pnode = _Al.allocate(1);

  00019	e8 00 00 00 00	 call	 ??2@YAPAXI@Z		; operator new
  0001e	83 c4 04	 add	 esp, 4

; 346  :         _Construct_in_place(_Pnode->_Left, _Pnode);

  00021	89 00		 mov	 DWORD PTR [eax], eax

; 347  :         _Construct_in_place(_Pnode->_Parent, _Pnode);

  00023	89 40 04	 mov	 DWORD PTR [eax+4], eax

; 348  :         _Construct_in_place(_Pnode->_Right, _Pnode);

  00026	89 40 08	 mov	 DWORD PTR [eax+8], eax

; 349  :         _Pnode->_Color = _Black;

  00029	66 c7 40 0c 01
	01		 mov	 WORD PTR [eax+12], 257	; 00000101H

; 1957 :         _Scary->_Myhead = _Node::_Buyheadnode(_Getal());

  0002f	89 06		 mov	 DWORD PTR [esi], eax
; File C:\Program Files\Microsoft Visual Studio\2022\Community\VC\Tools\MSVC\14.44.35207\include\map

; 106  :     map() : _Mybase(key_compare()) {}

  00031	8b c6		 mov	 eax, esi
  00033	5e		 pop	 esi
  00034	8b e5		 mov	 esp, ebp
  00036	5d		 pop	 ebp
  00037	c3		 ret	 0
??0?$map@KUSPartyMemberInfo@CPythonPlayer@@U?$less@K@std@@V?$allocator@U?$pair@$$CBKUSPartyMemberInfo@CPythonPlayer@@@std@@@4@@std@@QAE@XZ ENDP ; std::map<unsigned long,CPythonPlayer::SPartyMemberInfo,std::less<unsigned long>,std::allocator<std::pair<unsigned long const ,CPythonPlayer::SPartyMemberInfo> > >::map<unsigned long,CPythonPlayer::SPartyMemberInfo,std::less<unsigned long>,std::allocator<std::pair<unsigned long const ,CPythonPlayer::SPartyMemberInfo> > >
_TEXT	ENDS
; Function compile flags: /Ogtp
; File D:\_m2work\Server Client TMP4\ClientVS22\source\eterBase\Singleton.h
;	COMDAT ??1?$CSingleton@VCPythonPlayer@@@@UAE@XZ
_TEXT	SEGMENT
??1?$CSingleton@VCPythonPlayer@@@@UAE@XZ PROC		; CSingleton<CPythonPlayer>::~CSingleton<CPythonPlayer>, COMDAT
; _this$ = ecx

; 19   : 	{ 

  00000	c7 01 00 00 00
	00		 mov	 DWORD PTR [ecx], OFFSET ??_7?$CSingleton@VCPythonPlayer@@@@6B@

; 20   : 		assert(ms_singleton);
; 21   : 		ms_singleton = 0; 

  00006	c7 05 00 00 00
	00 00 00 00 00	 mov	 DWORD PTR ?ms_singleton@?$CSingleton@VCPythonPlayer@@@@0PAVCPythonPlayer@@A, 0 ; CSingleton<CPythonPlayer>::ms_singleton

; 22   : 	}

  00010	c3		 ret	 0
??1?$CSingleton@VCPythonPlayer@@@@UAE@XZ ENDP		; CSingleton<CPythonPlayer>::~CSingleton<CPythonPlayer>
_TEXT	ENDS
; Function compile flags: /Ogtp
; File D:\_m2work\Server Client TMP4\ClientVS22\source\eterBase\Singleton.h
;	COMDAT ??0?$CSingleton@VCPythonPlayer@@@@QAE@XZ
_TEXT	SEGMENT
??0?$CSingleton@VCPythonPlayer@@@@QAE@XZ PROC		; CSingleton<CPythonPlayer>::CSingleton<CPythonPlayer>, COMDAT
; _this$ = ecx

; 12   : 	{ 

  00000	c7 01 00 00 00
	00		 mov	 DWORD PTR [ecx], OFFSET ??_7?$CSingleton@VCPythonPlayer@@@@6B@

; 13   : 		assert(!ms_singleton);
; 14   : 		int offset = (int) (T*) 1 - (int) (CSingleton <T>*) (T*) 1; 
; 15   : 		ms_singleton = (T*) ((int) this + offset);
; 16   : 	} 

  00006	8b c1		 mov	 eax, ecx
  00008	89 0d 00 00 00
	00		 mov	 DWORD PTR ?ms_singleton@?$CSingleton@VCPythonPlayer@@@@0PAVCPythonPlayer@@A, ecx ; CSingleton<CPythonPlayer>::ms_singleton
  0000e	c3		 ret	 0
??0?$CSingleton@VCPythonPlayer@@@@QAE@XZ ENDP		; CSingleton<CPythonPlayer>::CSingleton<CPythonPlayer>
_TEXT	ENDS
; Function compile flags: /Ogtp
; File D:\_m2work\Server Client TMP4\ClientVS22\source\UserInterface\AbstractSingleton.h
;	COMDAT ??1?$TAbstractSingleton@VIAbstractPlayer@@@@UAE@XZ
_TEXT	SEGMENT
??1?$TAbstractSingleton@VIAbstractPlayer@@@@UAE@XZ PROC	; TAbstractSingleton<IAbstractPlayer>::~TAbstractSingleton<IAbstractPlayer>, COMDAT
; _this$ = ecx

; 17   : 	{ 

  00000	c7 01 00 00 00
	00		 mov	 DWORD PTR [ecx], OFFSET ??_7?$TAbstractSingleton@VIAbstractPlayer@@@@6B@

; 18   : 		assert(ms_singleton);
; 19   : 		ms_singleton = 0; 

  00006	c7 05 00 00 00
	00 00 00 00 00	 mov	 DWORD PTR ?ms_singleton@?$TAbstractSingleton@VIAbstractPlayer@@@@0PAVIAbstractPlayer@@A, 0 ; TAbstractSingleton<IAbstractPlayer>::ms_singleton

; 20   : 	}

  00010	c3		 ret	 0
??1?$TAbstractSingleton@VIAbstractPlayer@@@@UAE@XZ ENDP	; TAbstractSingleton<IAbstractPlayer>::~TAbstractSingleton<IAbstractPlayer>
_TEXT	ENDS
; Function compile flags: /Ogtp
; File D:\_m2work\Server Client TMP4\ClientVS22\source\UserInterface\AbstractSingleton.h
;	COMDAT ??0?$TAbstractSingleton@VIAbstractPlayer@@@@QAE@XZ
_TEXT	SEGMENT
??0?$TAbstractSingleton@VIAbstractPlayer@@@@QAE@XZ PROC	; TAbstractSingleton<IAbstractPlayer>::TAbstractSingleton<IAbstractPlayer>, COMDAT
; _this$ = ecx

; 10   : 	{ 

  00000	c7 01 00 00 00
	00		 mov	 DWORD PTR [ecx], OFFSET ??_7?$TAbstractSingleton@VIAbstractPlayer@@@@6B@

; 11   : 		assert(!ms_singleton);
; 12   : 		int offset = (int) (T*) 1 - (int) (CSingleton <T>*) (T*) 1; 
; 13   : 		ms_singleton = (T*) ((int) this + offset);
; 14   : 	} 

  00006	8b c1		 mov	 eax, ecx
  00008	89 0d 00 00 00
	00		 mov	 DWORD PTR ?ms_singleton@?$TAbstractSingleton@VIAbstractPlayer@@@@0PAVIAbstractPlayer@@A, ecx ; TAbstractSingleton<IAbstractPlayer>::ms_singleton
  0000e	c3		 ret	 0
??0?$TAbstractSingleton@VIAbstractPlayer@@@@QAE@XZ ENDP	; TAbstractSingleton<IAbstractPlayer>::TAbstractSingleton<IAbstractPlayer>
_TEXT	ENDS
; Function compile flags: /Ogtp
; File C:\Program Files\Microsoft Visual Studio\2022\Community\VC\Tools\MSVC\14.44.35207\include\map
; File C:\Program Files\Microsoft Visual Studio\2022\Community\VC\Tools\MSVC\14.44.35207\include\xtree
; File C:\Program Files\Microsoft Visual Studio\2022\Community\VC\Tools\MSVC\14.44.35207\include\type_traits
; File C:\Program Files\Microsoft Visual Studio\2022\Community\VC\Tools\MSVC\14.44.35207\include\xtree
; File C:\Program Files\Microsoft Visual Studio\2022\Community\VC\Tools\MSVC\14.44.35207\include\map
; File C:\Program Files\Microsoft Visual Studio\2022\Community\VC\Tools\MSVC\14.44.35207\include\xmemory
; File C:\Program Files\Microsoft Visual Studio\2022\Community\VC\Tools\MSVC\14.44.35207\include\xtree
; File C:\Program Files\Microsoft Visual Studio\2022\Community\VC\Tools\MSVC\14.44.35207\include\xmemory
; File C:\Program Files\Microsoft Visual Studio\2022\Community\VC\Tools\MSVC\14.44.35207\include\utility
; File C:\Program Files\Microsoft Visual Studio\2022\Community\VC\Tools\MSVC\14.44.35207\include\map
; File C:\Program Files\Microsoft Visual Studio\2022\Community\VC\Tools\MSVC\14.44.35207\include\xtree
; File C:\Program Files\Microsoft Visual Studio\2022\Community\VC\Tools\MSVC\14.44.35207\include\map
; File C:\Program Files\Microsoft Visual Studio\2022\Community\VC\Tools\MSVC\14.44.35207\include\xtree
; File C:\Program Files\Microsoft Visual Studio\2022\Community\VC\Tools\MSVC\14.44.35207\include\map
; File C:\Program Files\Microsoft Visual Studio\2022\Community\VC\Tools\MSVC\14.44.35207\include\xtree
; File C:\Program Files\Microsoft Visual Studio\2022\Community\VC\Tools\MSVC\14.44.35207\include\map
;	COMDAT ??A?$map@KKU?$less@K@std@@V?$allocator@U?$pair@$$CBKK@std@@@2@@std@@QAEAAKABK@Z
_TEXT	SEGMENT
__Loc$2 = -32						; size = 12
$T3 = -20						; size = 8
__$EHRec$ = -12						; size = 12
__Keyval$ = 8						; size = 4
??A?$map@KKU?$less@K@std@@V?$allocator@U?$pair@$$CBKK@std@@@2@@std@@QAEAAKABK@Z PROC ; std::map<unsigned long,unsigned long,std::less<unsigned long>,std::allocator<std::pair<unsigned long const ,unsigned long> > >::operator[], COMDAT
; _this$ = ecx

; 345  :     mapped_type& operator[](const key_type& _Keyval) {

  00000	55		 push	 ebp
  00001	8b ec		 mov	 ebp, esp
  00003	6a ff		 push	 -1
  00005	68 00 00 00 00	 push	 __ehhandler$??A?$map@KKU?$less@K@std@@V?$allocator@U?$pair@$$CBKK@std@@@2@@std@@QAEAAKABK@Z
  0000a	64 a1 00 00 00
	00		 mov	 eax, DWORD PTR fs:0
  00010	50		 push	 eax
  00011	83 ec 14	 sub	 esp, 20			; 00000014H
  00014	53		 push	 ebx
  00015	56		 push	 esi
  00016	57		 push	 edi
  00017	a1 00 00 00 00	 mov	 eax, DWORD PTR ___security_cookie
  0001c	33 c5		 xor	 eax, ebp
  0001e	50		 push	 eax
  0001f	8d 45 f4	 lea	 eax, DWORD PTR __$EHRec$[ebp]
  00022	64 a3 00 00 00
	00		 mov	 DWORD PTR fs:0, eax
  00028	8b f9		 mov	 edi, ecx

; 197  :         const auto _Loc = _Mybase::_Find_lower_bound(_Keyval);

  0002a	8b 5d 08	 mov	 ebx, DWORD PTR __Keyval$[ebp]
  0002d	8d 45 e0	 lea	 eax, DWORD PTR __Loc$2[ebp]
  00030	53		 push	 ebx
  00031	50		 push	 eax
  00032	e8 00 00 00 00	 call	 ??$_Find_lower_bound@K@?$_Tree@V?$_Tmap_traits@KKU?$less@K@std@@V?$allocator@U?$pair@$$CBKK@std@@@2@$0A@@std@@@std@@IBE?AU?$_Tree_find_result@PAU?$_Tree_node@U?$pair@$$CBKK@std@@PAX@std@@@1@ABK@Z ; std::_Tree<std::_Tmap_traits<unsigned long,unsigned long,std::less<unsigned long>,std::allocator<std::pair<unsigned long const ,unsigned long> >,0> >::_Find_lower_bound<unsigned long>
; File C:\Program Files\Microsoft Visual Studio\2022\Community\VC\Tools\MSVC\14.44.35207\include\xtree

; 1624 :         return !_Bound->_Isnil && !_DEBUG_LT_PRED(_Getcomp(), _Keyval, _Traits::_Kfn(_Bound->_Myval));

  00037	8b 55 e8	 mov	 edx, DWORD PTR __Loc$2[ebp+8]
  0003a	80 7a 0d 00	 cmp	 BYTE PTR [edx+13], 0
  0003e	75 07		 jne	 SHORT $LN4@operator
; File C:\Program Files\Microsoft Visual Studio\2022\Community\VC\Tools\MSVC\14.44.35207\include\type_traits

; 2380 :         return _Left < _Right;

  00040	8b 03		 mov	 eax, DWORD PTR [ebx]
  00042	3b 42 10	 cmp	 eax, DWORD PTR [edx+16]
; File C:\Program Files\Microsoft Visual Studio\2022\Community\VC\Tools\MSVC\14.44.35207\include\xtree

; 1624 :         return !_Bound->_Isnil && !_DEBUG_LT_PRED(_Getcomp(), _Keyval, _Traits::_Kfn(_Bound->_Myval));

  00045	73 52		 jae	 SHORT $LN3@operator
$LN4@operator:

; 1648 :         if (max_size() == _Get_scary()->_Mysize) {

  00047	81 7f 04 aa aa
	aa 0a		 cmp	 DWORD PTR [edi+4], 178956970 ; 0aaaaaaaH
  0004e	74 60		 je	 SHORT $LN117@operator
; File C:\Program Files\Microsoft Visual Studio\2022\Community\VC\Tools\MSVC\14.44.35207\include\map

; 205  :         const auto _Inserted = _Tree_temp_node<_Alnode>(_Mybase::_Getal(), _Scary->_Myhead, piecewise_construct,

  00050	8b 37		 mov	 esi, DWORD PTR [edi]
; File C:\Program Files\Microsoft Visual Studio\2022\Community\VC\Tools\MSVC\14.44.35207\include\xmemory

; 1160 :     _CONSTEXPR20 explicit _Alloc_construct_ptr(_Alloc& _Al_) : _Al(_Al_), _Ptr(nullptr) {}

  00052	89 7d ec	 mov	 DWORD PTR $T3[ebp], edi
; File C:\Program Files\Microsoft Visual Studio\2022\Community\VC\Tools\MSVC\14.44.35207\include\xtree

; 808  :     explicit _Tree_temp_node_alloc(_Alnode& _Al_) : _Alloc_construct_ptr<_Alnode>(_Al_) {

  00055	c7 45 fc 00 00
	00 00		 mov	 DWORD PTR __$EHRec$[ebp+8], 0
; File C:\Program Files\Microsoft Visual Studio\2022\Community\VC\Tools\MSVC\14.44.35207\include\xmemory

; 136  :         return ::operator new(_Bytes);

  0005c	6a 18		 push	 24			; 00000018H

; 1167 :         _Ptr = nullptr; // if allocate throws, prevents double-free

  0005e	c7 45 f0 00 00
	00 00		 mov	 DWORD PTR $T3[ebp+4], 0

; 136  :         return ::operator new(_Bytes);

  00065	e8 00 00 00 00	 call	 ??2@YAPAXI@Z		; operator new

; 256  :         return _Traits::_Allocate(_Bytes);

  0006a	8b c8		 mov	 ecx, eax

; 136  :         return ::operator new(_Bytes);

  0006c	83 c4 04	 add	 esp, 4
; File C:\Program Files\Microsoft Visual Studio\2022\Community\VC\Tools\MSVC\14.44.35207\include\utility

; 478  :         : first(_STD _Tuple_get<_Indices1>(_STD move(_Val1))...),

  0006f	8b 03		 mov	 eax, DWORD PTR [ebx]
  00071	89 41 10	 mov	 DWORD PTR [ecx+16], eax

; 479  :           second(_STD _Tuple_get<_Indices2>(_STD move(_Val2))...) {}

  00074	c7 41 14 00 00
	00 00		 mov	 DWORD PTR [ecx+20], 0
; File C:\Program Files\Microsoft Visual Studio\2022\Community\VC\Tools\MSVC\14.44.35207\include\map

; 211  :         return {_Scary->_Insert_node(_Loc._Location, _Inserted), true};

  0007b	51		 push	 ecx
  0007c	ff 75 e4	 push	 DWORD PTR __Loc$2[ebp+4]
; File C:\Program Files\Microsoft Visual Studio\2022\Community\VC\Tools\MSVC\14.44.35207\include\xtree

; 831  :         _Construct_in_place(this->_Ptr->_Left, _Myhead);

  0007f	89 31		 mov	 DWORD PTR [ecx], esi
; File C:\Program Files\Microsoft Visual Studio\2022\Community\VC\Tools\MSVC\14.44.35207\include\map

; 211  :         return {_Scary->_Insert_node(_Loc._Location, _Inserted), true};

  00081	ff 75 e0	 push	 DWORD PTR __Loc$2[ebp]
; File C:\Program Files\Microsoft Visual Studio\2022\Community\VC\Tools\MSVC\14.44.35207\include\xtree

; 832  :         _Construct_in_place(this->_Ptr->_Parent, _Myhead);

  00084	89 71 04	 mov	 DWORD PTR [ecx+4], esi

; 833  :         _Construct_in_place(this->_Ptr->_Right, _Myhead);

  00087	89 71 08	 mov	 DWORD PTR [ecx+8], esi

; 834  :         this->_Ptr->_Color = _Red;

  0008a	66 c7 41 0c 00
	00		 mov	 WORD PTR [ecx+12], 0
; File C:\Program Files\Microsoft Visual Studio\2022\Community\VC\Tools\MSVC\14.44.35207\include\map

; 211  :         return {_Scary->_Insert_node(_Loc._Location, _Inserted), true};

  00090	8b cf		 mov	 ecx, edi
  00092	e8 00 00 00 00	 call	 ?_Insert_node@?$_Tree_val@U?$_Tree_simple_types@U?$pair@$$CBKK@std@@@std@@@std@@QAEPAU?$_Tree_node@U?$pair@$$CBKK@std@@PAX@2@U?$_Tree_id@PAU?$_Tree_node@U?$pair@$$CBKK@std@@PAX@std@@@2@QAU32@@Z ; std::_Tree_val<std::_Tree_simple_types<std::pair<unsigned long const ,unsigned long> > >::_Insert_node
  00097	8b d0		 mov	 edx, eax
$LN3@operator:

; 346  :         return _Try_emplace(_Keyval).first->_Myval.second;

  00099	8d 42 14	 lea	 eax, DWORD PTR [edx+20]

; 347  :     }

  0009c	8b 4d f4	 mov	 ecx, DWORD PTR __$EHRec$[ebp]
  0009f	64 89 0d 00 00
	00 00		 mov	 DWORD PTR fs:0, ecx
  000a6	59		 pop	 ecx
  000a7	5f		 pop	 edi
  000a8	5e		 pop	 esi
  000a9	5b		 pop	 ebx
  000aa	8b e5		 mov	 esp, ebp
  000ac	5d		 pop	 ebp
  000ad	c2 04 00	 ret	 4
$LN117@operator:
; File C:\Program Files\Microsoft Visual Studio\2022\Community\VC\Tools\MSVC\14.44.35207\include\xtree

; 1649 :             _Throw_tree_length_error();

  000b0	e8 00 00 00 00	 call	 ?_Throw_tree_length_error@std@@YAXXZ ; std::_Throw_tree_length_error
$LN115@operator:
  000b5	cc		 int	 3
_TEXT	ENDS
;	COMDAT text$x
text$x	SEGMENT
__unwindfunclet$??A?$map@KKU?$less@K@std@@V?$allocator@U?$pair@$$CBKK@std@@@2@@std@@QAEAAKABK@Z$2:
  00000	8d 4d ec	 lea	 ecx, DWORD PTR $T3[ebp]
  00003	e9 00 00 00 00	 jmp	 ??1?$_Alloc_construct_ptr@V?$allocator@U?$_Tree_node@U?$pair@$$CBKK@std@@PAX@std@@@std@@@std@@QAE@XZ ; std::_Alloc_construct_ptr<std::allocator<std::_Tree_node<std::pair<unsigned long const ,unsigned long>,void *> > >::~_Alloc_construct_ptr<std::allocator<std::_Tree_node<std::pair<unsigned long const ,unsigned long>,void *> > >
  00008	cc		 int	 3
  00009	cc		 int	 3
  0000a	cc		 int	 3
  0000b	cc		 int	 3
  0000c	cc		 int	 3
__ehhandler$??A?$map@KKU?$less@K@std@@V?$allocator@U?$pair@$$CBKK@std@@@2@@std@@QAEAAKABK@Z:
  0000d	90		 npad	 1
  0000e	90		 npad	 1
  0000f	8b 54 24 08	 mov	 edx, DWORD PTR [esp+8]
  00013	8d 42 0c	 lea	 eax, DWORD PTR [edx+12]
  00016	8b 4a dc	 mov	 ecx, DWORD PTR [edx-36]
  00019	33 c8		 xor	 ecx, eax
  0001b	e8 00 00 00 00	 call	 @__security_check_cookie@4
  00020	b8 00 00 00 00	 mov	 eax, OFFSET __ehfuncinfo$??A?$map@KKU?$less@K@std@@V?$allocator@U?$pair@$$CBKK@std@@@2@@std@@QAEAAKABK@Z
  00025	e9 00 00 00 00	 jmp	 ___CxxFrameHandler3
text$x	ENDS
??A?$map@KKU?$less@K@std@@V?$allocator@U?$pair@$$CBKK@std@@@2@@std@@QAEAAKABK@Z ENDP ; std::map<unsigned long,unsigned long,std::less<unsigned long>,std::allocator<std::pair<unsigned long const ,unsigned long> > >::operator[]
; Function compile flags: /Ogtp
; File C:\Program Files\Microsoft Visual Studio\2022\Community\VC\Tools\MSVC\14.44.35207\include\xtree
;	COMDAT ??0?$_Tree_iterator@V?$_Tree_val@U?$_Tree_simple_types@U?$pair@$$CBKUSPartyMemberInfo@CPythonPlayer@@@std@@@std@@@std@@@std@@QAE@PAU?$_Tree_node@U?$pair@$$CBKUSPartyMemberInfo@CPythonPlayer@@@std@@PAX@1@PBV?$_Tree_val@U?$_Tree_simple_types@U?$pair@$$CBKUSPartyMemberInfo@CPythonPlayer@@@std@@@std@@@1@@Z
_TEXT	SEGMENT
___param0$ = 8						; size = 4
___param1$dead$ = 12					; size = 4
??0?$_Tree_iterator@V?$_Tree_val@U?$_Tree_simple_types@U?$pair@$$CBKUSPartyMemberInfo@CPythonPlayer@@@std@@@std@@@std@@@std@@QAE@PAU?$_Tree_node@U?$pair@$$CBKUSPartyMemberInfo@CPythonPlayer@@@std@@PAX@1@PBV?$_Tree_val@U?$_Tree_simple_types@U?$pair@$$CBKUSPartyMemberInfo@CPythonPlayer@@@std@@@std@@@1@@Z PROC ; std::_Tree_iterator<std::_Tree_val<std::_Tree_simple_types<std::pair<unsigned long const ,CPythonPlayer::SPartyMemberInfo> > > >::_Tree_iterator<std::_Tree_val<std::_Tree_simple_types<std::pair<unsigned long const ,CPythonPlayer::SPartyMemberInfo> > > >, COMDAT
; _this$ = ecx
  00000	55		 push	 ebp
  00001	8b ec		 mov	 ebp, esp

; 37   :     _Tree_unchecked_const_iterator(_Nodeptr _Pnode, const _Mytree* _Plist) noexcept : _Ptr(_Pnode) {

  00003	8b 45 08	 mov	 eax, DWORD PTR ___param0$[ebp]
  00006	89 01		 mov	 DWORD PTR [ecx], eax
  00008	8b c1		 mov	 eax, ecx
  0000a	5d		 pop	 ebp
  0000b	c2 08 00	 ret	 8
??0?$_Tree_iterator@V?$_Tree_val@U?$_Tree_simple_types@U?$pair@$$CBKUSPartyMemberInfo@CPythonPlayer@@@std@@@std@@@std@@@std@@QAE@PAU?$_Tree_node@U?$pair@$$CBKUSPartyMemberInfo@CPythonPlayer@@@std@@PAX@1@PBV?$_Tree_val@U?$_Tree_simple_types@U?$pair@$$CBKUSPartyMemberInfo@CPythonPlayer@@@std@@@std@@@1@@Z ENDP ; std::_Tree_iterator<std::_Tree_val<std::_Tree_simple_types<std::pair<unsigned long const ,CPythonPlayer::SPartyMemberInfo> > > >::_Tree_iterator<std::_Tree_val<std::_Tree_simple_types<std::pair<unsigned long const ,CPythonPlayer::SPartyMemberInfo> > > >
_TEXT	ENDS
; Function compile flags: /Ogtp
; File D:\_m2work\Server Client TMP4\ClientVS22\source\eterBase\Singleton.h
;	COMDAT ??_G?$CSingleton@VCPythonPlayer@@@@UAEPAXI@Z
_TEXT	SEGMENT
___flags$ = 8						; size = 4
??_G?$CSingleton@VCPythonPlayer@@@@UAEPAXI@Z PROC	; CSingleton<CPythonPlayer>::`scalar deleting destructor', COMDAT
; _this$ = ecx
  00000	55		 push	 ebp
  00001	8b ec		 mov	 ebp, esp
  00003	f6 45 08 01	 test	 BYTE PTR ___flags$[ebp], 1

; 19   : 	{ 

  00007	56		 push	 esi
  00008	8b f1		 mov	 esi, ecx

; 20   : 		assert(ms_singleton);
; 21   : 		ms_singleton = 0; 

  0000a	c7 05 00 00 00
	00 00 00 00 00	 mov	 DWORD PTR ?ms_singleton@?$CSingleton@VCPythonPlayer@@@@0PAVCPythonPlayer@@A, 0 ; CSingleton<CPythonPlayer>::ms_singleton
  00014	c7 06 00 00 00
	00		 mov	 DWORD PTR [esi], OFFSET ??_7?$CSingleton@VCPythonPlayer@@@@6B@
  0001a	74 0b		 je	 SHORT $LN8@scalar
  0001c	6a 04		 push	 4
  0001e	56		 push	 esi
  0001f	e8 00 00 00 00	 call	 ??3@YAXPAXI@Z		; operator delete
  00024	83 c4 08	 add	 esp, 8
$LN8@scalar:
  00027	8b c6		 mov	 eax, esi
  00029	5e		 pop	 esi
  0002a	5d		 pop	 ebp
  0002b	c2 04 00	 ret	 4
??_G?$CSingleton@VCPythonPlayer@@@@UAEPAXI@Z ENDP	; CSingleton<CPythonPlayer>::`scalar deleting destructor'
_TEXT	ENDS
; Function compile flags: /Ogtp
; File D:\_m2work\Server Client TMP4\ClientVS22\source\UserInterface\AbstractSingleton.h
;	COMDAT ??_G?$TAbstractSingleton@VIAbstractPlayer@@@@UAEPAXI@Z
_TEXT	SEGMENT
___flags$ = 8						; size = 4
??_G?$TAbstractSingleton@VIAbstractPlayer@@@@UAEPAXI@Z PROC ; TAbstractSingleton<IAbstractPlayer>::`scalar deleting destructor', COMDAT
; _this$ = ecx
  00000	55		 push	 ebp
  00001	8b ec		 mov	 ebp, esp
  00003	f6 45 08 01	 test	 BYTE PTR ___flags$[ebp], 1

; 17   : 	{ 

  00007	56		 push	 esi
  00008	8b f1		 mov	 esi, ecx

; 18   : 		assert(ms_singleton);
; 19   : 		ms_singleton = 0; 

  0000a	c7 05 00 00 00
	00 00 00 00 00	 mov	 DWORD PTR ?ms_singleton@?$TAbstractSingleton@VIAbstractPlayer@@@@0PAVIAbstractPlayer@@A, 0 ; TAbstractSingleton<IAbstractPlayer>::ms_singleton
  00014	c7 06 00 00 00
	00		 mov	 DWORD PTR [esi], OFFSET ??_7?$TAbstractSingleton@VIAbstractPlayer@@@@6B@
  0001a	74 0b		 je	 SHORT $LN8@scalar
  0001c	6a 04		 push	 4
  0001e	56		 push	 esi
  0001f	e8 00 00 00 00	 call	 ??3@YAXPAXI@Z		; operator delete
  00024	83 c4 08	 add	 esp, 8
$LN8@scalar:
  00027	8b c6		 mov	 eax, esi
  00029	5e		 pop	 esi
  0002a	5d		 pop	 ebp
  0002b	c2 04 00	 ret	 4
??_G?$TAbstractSingleton@VIAbstractPlayer@@@@UAEPAXI@Z ENDP ; TAbstractSingleton<IAbstractPlayer>::`scalar deleting destructor'
_TEXT	ENDS
; Function compile flags: /Ogtp
; File C:\Program Files\Microsoft Visual Studio\2022\Community\VC\Tools\MSVC\14.44.35207\include\xtree
;	COMDAT ??0?$_Tree_const_iterator@V?$_Tree_val@U?$_Tree_simple_types@U?$pair@$$CBKUSPartyMemberInfo@CPythonPlayer@@@std@@@std@@@std@@@std@@QAE@PAU?$_Tree_node@U?$pair@$$CBKUSPartyMemberInfo@CPythonPlayer@@@std@@PAX@1@PBV?$_Tree_val@U?$_Tree_simple_types@U?$pair@$$CBKUSPartyMemberInfo@CPythonPlayer@@@std@@@std@@@1@@Z
_TEXT	SEGMENT
___param0$ = 8						; size = 4
___param1$dead$ = 12					; size = 4
??0?$_Tree_const_iterator@V?$_Tree_val@U?$_Tree_simple_types@U?$pair@$$CBKUSPartyMemberInfo@CPythonPlayer@@@std@@@std@@@std@@@std@@QAE@PAU?$_Tree_node@U?$pair@$$CBKUSPartyMemberInfo@CPythonPlayer@@@std@@PAX@1@PBV?$_Tree_val@U?$_Tree_simple_types@U?$pair@$$CBKUSPartyMemberInfo@CPythonPlayer@@@std@@@std@@@1@@Z PROC ; std::_Tree_const_iterator<std::_Tree_val<std::_Tree_simple_types<std::pair<unsigned long const ,CPythonPlayer::SPartyMemberInfo> > > >::_Tree_const_iterator<std::_Tree_val<std::_Tree_simple_types<std::pair<unsigned long const ,CPythonPlayer::SPartyMemberInfo> > > >, COMDAT
; _this$ = ecx
  00000	55		 push	 ebp
  00001	8b ec		 mov	 ebp, esp

; 37   :     _Tree_unchecked_const_iterator(_Nodeptr _Pnode, const _Mytree* _Plist) noexcept : _Ptr(_Pnode) {

  00003	8b 45 08	 mov	 eax, DWORD PTR ___param0$[ebp]
  00006	89 01		 mov	 DWORD PTR [ecx], eax
  00008	8b c1		 mov	 eax, ecx
  0000a	5d		 pop	 ebp
  0000b	c2 08 00	 ret	 8
??0?$_Tree_const_iterator@V?$_Tree_val@U?$_Tree_simple_types@U?$pair@$$CBKUSPartyMemberInfo@CPythonPlayer@@@std@@@std@@@std@@@std@@QAE@PAU?$_Tree_node@U?$pair@$$CBKUSPartyMemberInfo@CPythonPlayer@@@std@@PAX@1@PBV?$_Tree_val@U?$_Tree_simple_types@U?$pair@$$CBKUSPartyMemberInfo@CPythonPlayer@@@std@@@std@@@1@@Z ENDP ; std::_Tree_const_iterator<std::_Tree_val<std::_Tree_simple_types<std::pair<unsigned long const ,CPythonPlayer::SPartyMemberInfo> > > >::_Tree_const_iterator<std::_Tree_val<std::_Tree_simple_types<std::pair<unsigned long const ,CPythonPlayer::SPartyMemberInfo> > > >
_TEXT	ENDS
; Function compile flags: /Ogtp
; File C:\Program Files\Microsoft Visual Studio\2022\Community\VC\Tools\MSVC\14.44.35207\include\xtree
; File C:\Program Files\Microsoft Visual Studio\2022\Community\VC\Tools\MSVC\14.44.35207\include\type_traits
; File C:\Program Files\Microsoft Visual Studio\2022\Community\VC\Tools\MSVC\14.44.35207\include\xtree
; File C:\Program Files\Microsoft Visual Studio\2022\Community\VC\Tools\MSVC\14.44.35207\include\type_traits
; File C:\Program Files\Microsoft Visual Studio\2022\Community\VC\Tools\MSVC\14.44.35207\include\xtree
; File C:\Program Files\Microsoft Visual Studio\2022\Community\VC\Tools\MSVC\14.44.35207\include\type_traits
; File C:\Program Files\Microsoft Visual Studio\2022\Community\VC\Tools\MSVC\14.44.35207\include\xtree
; File C:\Program Files\Microsoft Visual Studio\2022\Community\VC\Tools\MSVC\14.44.35207\include\utility
; File C:\Program Files\Microsoft Visual Studio\2022\Community\VC\Tools\MSVC\14.44.35207\include\xtree
;	COMDAT ??$_Eqrange@K@?$_Tree@V?$_Tmap_traits@KUSPartyMemberInfo@CPythonPlayer@@U?$less@K@std@@V?$allocator@U?$pair@$$CBKUSPartyMemberInfo@CPythonPlayer@@@std@@@4@$0A@@std@@@std@@IBE?AU?$pair@PAU?$_Tree_node@U?$pair@$$CBKUSPartyMemberInfo@CPythonPlayer@@@std@@PAX@std@@PAU12@@1@ABK@Z
_TEXT	SEGMENT
___$ReturnUdt$ = 8					; size = 4
__Keyval$ = 12						; size = 4
??$_Eqrange@K@?$_Tree@V?$_Tmap_traits@KUSPartyMemberInfo@CPythonPlayer@@U?$less@K@std@@V?$allocator@U?$pair@$$CBKUSPartyMemberInfo@CPythonPlayer@@@std@@@4@$0A@@std@@@std@@IBE?AU?$pair@PAU?$_Tree_node@U?$pair@$$CBKUSPartyMemberInfo@CPythonPlayer@@@std@@PAX@std@@PAU12@@1@ABK@Z PROC ; std::_Tree<std::_Tmap_traits<unsigned long,CPythonPlayer::SPartyMemberInfo,std::less<unsigned long>,std::allocator<std::pair<unsigned long const ,CPythonPlayer::SPartyMemberInfo> >,0> >::_Eqrange<unsigned long>, COMDAT
; _this$ = ecx

; 1705 :         noexcept(_Nothrow_compare<key_compare, key_type, _Other> && _Nothrow_compare<key_compare, _Other, key_type>) {

  00000	55		 push	 ebp
  00001	8b ec		 mov	 ebp, esp
  00003	53		 push	 ebx

; 1706 :         // find range of nodes equivalent to _Keyval
; 1707 :         const auto _Scary = _Get_scary();
; 1708 :         const auto& _Comp = _Getcomp();
; 1709 :         _Nodeptr _Pnode   = _Scary->_Myhead->_Parent;

  00004	8b 19		 mov	 ebx, DWORD PTR [ecx]

; 1710 :         _Nodeptr _Lonode  = _Scary->_Myhead; // end() if search fails
; 1711 :         _Nodeptr _Hinode  = _Scary->_Myhead; // end() if search fails

  00006	8b d3		 mov	 edx, ebx
  00008	8b 43 04	 mov	 eax, DWORD PTR [ebx+4]
  0000b	8b c8		 mov	 ecx, eax

; 1712 : 
; 1713 :         while (!_Pnode->_Isnil) {

  0000d	80 79 0d 00	 cmp	 BYTE PTR [ecx+13], 0
  00011	75 30		 jne	 SHORT $LN3@Eqrange
  00013	56		 push	 esi
  00014	57		 push	 edi
; File C:\Program Files\Microsoft Visual Studio\2022\Community\VC\Tools\MSVC\14.44.35207\include\type_traits

; 2380 :         return _Left < _Right;

  00015	8b 7d 0c	 mov	 edi, DWORD PTR __Keyval$[ebp]
  00018	8b 3f		 mov	 edi, DWORD PTR [edi]
  0001a	66 0f 1f 44 00
	00		 npad	 6
$LL2@Eqrange:
  00020	8b 71 10	 mov	 esi, DWORD PTR [ecx+16]
  00023	3b f7		 cmp	 esi, edi
; File C:\Program Files\Microsoft Visual Studio\2022\Community\VC\Tools\MSVC\14.44.35207\include\xtree

; 1715 :             if (_DEBUG_LT_PRED(_Comp, _Nodekey, _Keyval)) {

  00025	73 05		 jae	 SHORT $LN6@Eqrange

; 1716 :                 _Pnode = _Pnode->_Right; // descend right subtree

  00027	8b 49 08	 mov	 ecx, DWORD PTR [ecx+8]

; 1717 :             } else { // _Pnode not less than _Keyval, remember it

  0002a	eb 0f		 jmp	 SHORT $LN7@Eqrange
$LN6@Eqrange:

; 1718 :                 if (_Hinode->_Isnil && _DEBUG_LT_PRED(_Comp, _Keyval, _Nodekey)) {

  0002c	80 7a 0d 00	 cmp	 BYTE PTR [edx+13], 0
  00030	74 05		 je	 SHORT $LN8@Eqrange
; File C:\Program Files\Microsoft Visual Studio\2022\Community\VC\Tools\MSVC\14.44.35207\include\type_traits

; 2380 :         return _Left < _Right;

  00032	3b fe		 cmp	 edi, esi
; File C:\Program Files\Microsoft Visual Studio\2022\Community\VC\Tools\MSVC\14.44.35207\include\xtree

; 1718 :                 if (_Hinode->_Isnil && _DEBUG_LT_PRED(_Comp, _Keyval, _Nodekey)) {

  00034	0f 42 d1	 cmovb	 edx, ecx
$LN8@Eqrange:

; 1719 :                     _Hinode = _Pnode; // _Pnode greater, remember it
; 1720 :                 }
; 1721 : 
; 1722 :                 _Lonode = _Pnode;

  00037	8b d9		 mov	 ebx, ecx

; 1723 :                 _Pnode  = _Pnode->_Left; // descend left subtree

  00039	8b 09		 mov	 ecx, DWORD PTR [ecx]
$LN7@Eqrange:

; 1712 : 
; 1713 :         while (!_Pnode->_Isnil) {

  0003b	80 79 0d 00	 cmp	 BYTE PTR [ecx+13], 0
  0003f	74 df		 je	 SHORT $LL2@Eqrange
  00041	5f		 pop	 edi
  00042	5e		 pop	 esi
$LN3@Eqrange:

; 1724 :             }
; 1725 :         }
; 1726 : 
; 1727 :         _Pnode = _Hinode->_Isnil ? _Scary->_Myhead->_Parent : _Hinode->_Left; // continue scan for upper bound

  00043	80 7a 0d 00	 cmp	 BYTE PTR [edx+13], 0
  00047	75 02		 jne	 SHORT $LN13@Eqrange
  00049	8b 02		 mov	 eax, DWORD PTR [edx]
$LN13@Eqrange:

; 1728 :         while (!_Pnode->_Isnil) {

  0004b	80 78 0d 00	 cmp	 BYTE PTR [eax+13], 0
  0004f	75 19		 jne	 SHORT $LN5@Eqrange
; File C:\Program Files\Microsoft Visual Studio\2022\Community\VC\Tools\MSVC\14.44.35207\include\type_traits

; 2380 :         return _Left < _Right;

  00051	8b 4d 0c	 mov	 ecx, DWORD PTR __Keyval$[ebp]
  00054	8b 09		 mov	 ecx, DWORD PTR [ecx]
$LL4@Eqrange:
  00056	3b 48 10	 cmp	 ecx, DWORD PTR [eax+16]
; File C:\Program Files\Microsoft Visual Studio\2022\Community\VC\Tools\MSVC\14.44.35207\include\xtree

; 1729 :             if (_DEBUG_LT_PRED(_Getcomp(), _Keyval, _Traits::_Kfn(_Pnode->_Myval))) {

  00059	73 06		 jae	 SHORT $LN9@Eqrange

; 1730 :                 // _Pnode greater than _Keyval, remember it
; 1731 :                 _Hinode = _Pnode;

  0005b	8b d0		 mov	 edx, eax

; 1732 :                 _Pnode  = _Pnode->_Left; // descend left subtree

  0005d	8b 00		 mov	 eax, DWORD PTR [eax]

; 1733 :             } else {

  0005f	eb 03		 jmp	 SHORT $LN10@Eqrange
$LN9@Eqrange:

; 1734 :                 _Pnode = _Pnode->_Right; // descend right subtree

  00061	8b 40 08	 mov	 eax, DWORD PTR [eax+8]
$LN10@Eqrange:

; 1728 :         while (!_Pnode->_Isnil) {

  00064	80 78 0d 00	 cmp	 BYTE PTR [eax+13], 0
  00068	74 ec		 je	 SHORT $LL4@Eqrange
$LN5@Eqrange:
; File C:\Program Files\Microsoft Visual Studio\2022\Community\VC\Tools\MSVC\14.44.35207\include\utility

; 274  :         : first(_STD forward<_Other1>(_Val1)), second(_STD forward<_Other2>(_Val2)) {

  0006a	8b 45 08	 mov	 eax, DWORD PTR ___$ReturnUdt$[ebp]
  0006d	89 18		 mov	 DWORD PTR [eax], ebx
  0006f	89 50 04	 mov	 DWORD PTR [eax+4], edx
; File C:\Program Files\Microsoft Visual Studio\2022\Community\VC\Tools\MSVC\14.44.35207\include\xtree

; 1738 :         return {_Lonode, _Hinode};

  00072	5b		 pop	 ebx

; 1739 :     }

  00073	5d		 pop	 ebp
  00074	c2 08 00	 ret	 8
??$_Eqrange@K@?$_Tree@V?$_Tmap_traits@KUSPartyMemberInfo@CPythonPlayer@@U?$less@K@std@@V?$allocator@U?$pair@$$CBKUSPartyMemberInfo@CPythonPlayer@@@std@@@4@$0A@@std@@@std@@IBE?AU?$pair@PAU?$_Tree_node@U?$pair@$$CBKUSPartyMemberInfo@CPythonPlayer@@@std@@PAX@std@@PAU12@@1@ABK@Z ENDP ; std::_Tree<std::_Tmap_traits<unsigned long,CPythonPlayer::SPartyMemberInfo,std::less<unsigned long>,std::allocator<std::pair<unsigned long const ,CPythonPlayer::SPartyMemberInfo> >,0> >::_Eqrange<unsigned long>
_TEXT	ENDS
; Function compile flags: /Ogtp
; File C:\Program Files\Microsoft Visual Studio\2022\Community\VC\Tools\MSVC\14.44.35207\include\type_traits
;	COMDAT ??$move@AAUSQuickSlot@@@std@@YA$$QAUSQuickSlot@@AAU1@@Z
_TEXT	SEGMENT
??$move@AAUSQuickSlot@@@std@@YA$$QAUSQuickSlot@@AAU1@@Z PROC ; std::move<SQuickSlot &>, COMDAT
; __Arg$ = ecx

; 1513 :     return static_cast<remove_reference_t<_Ty>&&>(_Arg);

  00000	8b c1		 mov	 eax, ecx

; 1514 : }

  00002	c3		 ret	 0
??$move@AAUSQuickSlot@@@std@@YA$$QAUSQuickSlot@@AAU1@@Z ENDP ; std::move<SQuickSlot &>
_TEXT	ENDS
; Function compile flags: /Ogtp
; File C:\Program Files\Microsoft Visual Studio\2022\Community\VC\Tools\MSVC\14.44.35207\include\type_traits
;	COMDAT ??$forward@USPartyMemberInfo@CPythonPlayer@@@std@@YA$$QAUSPartyMemberInfo@CPythonPlayer@@AAU12@@Z
_TEXT	SEGMENT
??$forward@USPartyMemberInfo@CPythonPlayer@@@std@@YA$$QAUSPartyMemberInfo@CPythonPlayer@@AAU12@@Z PROC ; std::forward<CPythonPlayer::SPartyMemberInfo>, COMDAT
; __Arg$ = ecx

; 1502 :     return static_cast<_Ty&&>(_Arg);

  00000	8b c1		 mov	 eax, ecx

; 1503 : }

  00002	c3		 ret	 0
??$forward@USPartyMemberInfo@CPythonPlayer@@@std@@YA$$QAUSPartyMemberInfo@CPythonPlayer@@AAU12@@Z ENDP ; std::forward<CPythonPlayer::SPartyMemberInfo>
_TEXT	ENDS
; Function compile flags: /Ogtp
; File C:\Program Files\Microsoft Visual Studio\2022\Community\VC\Tools\MSVC\14.44.35207\include\utility
;	COMDAT ??$?0AAKUSPartyMemberInfo@CPythonPlayer@@$0A@@?$pair@KUSPartyMemberInfo@CPythonPlayer@@@std@@QAE@AAK$$QAUSPartyMemberInfo@CPythonPlayer@@@Z
_TEXT	SEGMENT
__Val1$ = 8						; size = 4
__Val2$ = 12						; size = 4
??$?0AAKUSPartyMemberInfo@CPythonPlayer@@$0A@@?$pair@KUSPartyMemberInfo@CPythonPlayer@@@std@@QAE@AAK$$QAUSPartyMemberInfo@CPythonPlayer@@@Z PROC ; std::pair<unsigned long,CPythonPlayer::SPartyMemberInfo>::pair<unsigned long,CPythonPlayer::SPartyMemberInfo><unsigned long &,CPythonPlayer::SPartyMemberInfo,0>, COMDAT
; _this$ = ecx

; 274  :         : first(_STD forward<_Other1>(_Val1)), second(_STD forward<_Other2>(_Val2)) {

  00000	55		 push	 ebp
  00001	8b ec		 mov	 ebp, esp
  00003	8b 45 08	 mov	 eax, DWORD PTR __Val1$[ebp]
  00006	56		 push	 esi
  00007	ff 75 0c	 push	 DWORD PTR __Val2$[ebp]
  0000a	8b f1		 mov	 esi, ecx
  0000c	8b 00		 mov	 eax, DWORD PTR [eax]
  0000e	8d 4e 04	 lea	 ecx, DWORD PTR [esi+4]
  00011	89 06		 mov	 DWORD PTR [esi], eax
  00013	e8 00 00 00 00	 call	 ??0SPartyMemberInfo@CPythonPlayer@@QAE@$$QAU01@@Z

; 275  :     }

  00018	8b c6		 mov	 eax, esi
  0001a	5e		 pop	 esi
  0001b	5d		 pop	 ebp
  0001c	c2 08 00	 ret	 8
??$?0AAKUSPartyMemberInfo@CPythonPlayer@@$0A@@?$pair@KUSPartyMemberInfo@CPythonPlayer@@@std@@QAE@AAK$$QAUSPartyMemberInfo@CPythonPlayer@@@Z ENDP ; std::pair<unsigned long,CPythonPlayer::SPartyMemberInfo>::pair<unsigned long,CPythonPlayer::SPartyMemberInfo><unsigned long &,CPythonPlayer::SPartyMemberInfo,0>
_TEXT	ENDS
; Function compile flags: /Ogtp
; File C:\Program Files\Microsoft Visual Studio\2022\Community\VC\Tools\MSVC\14.44.35207\include\xmemory
; File C:\Program Files\Microsoft Visual Studio\2022\Community\VC\Tools\MSVC\14.44.35207\include\xstring
;	COMDAT ??0SPartyMemberInfo@CPythonPlayer@@QAE@$$QAU01@@Z
_TEXT	SEGMENT
___that$ = 8						; size = 4
??0SPartyMemberInfo@CPythonPlayer@@QAE@$$QAU01@@Z PROC	; CPythonPlayer::SPartyMemberInfo::SPartyMemberInfo, COMDAT
; _this$ = ecx
  00000	55		 push	 ebp
  00001	8b ec		 mov	 ebp, esp
; File C:\Program Files\Microsoft Visual Studio\2022\Community\VC\Tools\MSVC\14.44.35207\include\xmemory

; 1536 :         : _Ty1(_STD forward<_Other1>(_Val1)), _Myval2(_STD forward<_Other2>(_Val2)...) {}

  00003	8b 55 08	 mov	 edx, DWORD PTR ___that$[ebp]
  00006	0f 57 c0	 xorps	 xmm0, xmm0
  00009	8b 02		 mov	 eax, DWORD PTR [edx]
  0000b	89 01		 mov	 DWORD PTR [ecx], eax
  0000d	8b 42 04	 mov	 eax, DWORD PTR [edx+4]
  00010	89 41 04	 mov	 DWORD PTR [ecx+4], eax
; File C:\Program Files\Microsoft Visual Studio\2022\Community\VC\Tools\MSVC\14.44.35207\include\xstring

; 493  :         _CONSTEXPR20 _Bxty() noexcept : _Buf() {} // user-provided, for fancy pointers

  00013	0f 11 41 08	 movups	 XMMWORD PTR [ecx+8], xmm0

; 517  :     size_type _Mysize = 0; // current length of string (size)

  00017	c7 41 18 00 00
	00 00		 mov	 DWORD PTR [ecx+24], 0

; 518  :     size_type _Myres  = 0; // current storage reserved for string (capacity)

  0001e	c7 41 1c 00 00
	00 00		 mov	 DWORD PTR [ecx+28], 0

; 1286 :                 _CSTD memcpy(_My_data_mem, _Right_data_mem, _Memcpy_val_size);

  00025	0f 10 42 08	 movups	 xmm0, XMMWORD PTR [edx+8]
  00029	0f 11 41 08	 movups	 XMMWORD PTR [ecx+8], xmm0
  0002d	f3 0f 7e 42 18	 movq	 xmm0, QWORD PTR [edx+24]
  00032	66 0f d6 41 18	 movq	 QWORD PTR [ecx+24], xmm0
  00037	c7 42 18 00 00
	00 00		 mov	 DWORD PTR [edx+24], 0
  0003e	c7 42 1c 0f 00
	00 00		 mov	 DWORD PTR [edx+28], 15	; 0000000fH
  00045	c6 42 08 00	 mov	 BYTE PTR [edx+8], 0
  00049	0f b6 42 20	 movzx	 eax, BYTE PTR [edx+32]
  0004d	88 41 20	 mov	 BYTE PTR [ecx+32], al
  00050	0f b6 42 21	 movzx	 eax, BYTE PTR [edx+33]
  00054	88 41 21	 mov	 BYTE PTR [ecx+33], al
  00057	f3 0f 7e 42 22	 movq	 xmm0, QWORD PTR [edx+34]
  0005c	66 0f d6 41 22	 movq	 QWORD PTR [ecx+34], xmm0
  00061	8b 42 2a	 mov	 eax, DWORD PTR [edx+42]
  00064	89 41 2a	 mov	 DWORD PTR [ecx+42], eax
  00067	66 8b 42 2e	 mov	 ax, WORD PTR [edx+46]
  0006b	66 89 41 2e	 mov	 WORD PTR [ecx+46], ax
  0006f	8b c1		 mov	 eax, ecx
  00071	5d		 pop	 ebp
  00072	c2 04 00	 ret	 4
??0SPartyMemberInfo@CPythonPlayer@@QAE@$$QAU01@@Z ENDP	; CPythonPlayer::SPartyMemberInfo::SPartyMemberInfo
_TEXT	ENDS
; Function compile flags: /Ogtp
; File C:\Program Files\Microsoft Visual Studio\2022\Community\VC\Tools\MSVC\14.44.35207\include\type_traits
;	COMDAT ??$forward@U?$pair@KUSPartyMemberInfo@CPythonPlayer@@@std@@@std@@YA$$QAU?$pair@KUSPartyMemberInfo@CPythonPlayer@@@0@AAU10@@Z
_TEXT	SEGMENT
??$forward@U?$pair@KUSPartyMemberInfo@CPythonPlayer@@@std@@@std@@YA$$QAU?$pair@KUSPartyMemberInfo@CPythonPlayer@@@0@AAU10@@Z PROC ; std::forward<std::pair<unsigned long,CPythonPlayer::SPartyMemberInfo> >, COMDAT
; __Arg$ = ecx

; 1502 :     return static_cast<_Ty&&>(_Arg);

  00000	8b c1		 mov	 eax, ecx

; 1503 : }

  00002	c3		 ret	 0
??$forward@U?$pair@KUSPartyMemberInfo@CPythonPlayer@@@std@@@std@@YA$$QAU?$pair@KUSPartyMemberInfo@CPythonPlayer@@@0@AAU10@@Z ENDP ; std::forward<std::pair<unsigned long,CPythonPlayer::SPartyMemberInfo> >
_TEXT	ENDS
; Function compile flags: /Ogtp
; File C:\Program Files\Microsoft Visual Studio\2022\Community\VC\Tools\MSVC\14.44.35207\include\xtree
; File C:\Program Files\Microsoft Visual Studio\2022\Community\VC\Tools\MSVC\14.44.35207\include\type_traits
; File C:\Program Files\Microsoft Visual Studio\2022\Community\VC\Tools\MSVC\14.44.35207\include\xtree
; File C:\Program Files\Microsoft Visual Studio\2022\Community\VC\Tools\MSVC\14.44.35207\include\utility
; File C:\Program Files\Microsoft Visual Studio\2022\Community\VC\Tools\MSVC\14.44.35207\include\xtree
; File C:\Program Files\Microsoft Visual Studio\2022\Community\VC\Tools\MSVC\14.44.35207\include\xmemory
; File C:\Program Files\Microsoft Visual Studio\2022\Community\VC\Tools\MSVC\14.44.35207\include\xtree
; File C:\Program Files\Microsoft Visual Studio\2022\Community\VC\Tools\MSVC\14.44.35207\include\xmemory
; File C:\Program Files\Microsoft Visual Studio\2022\Community\VC\Tools\MSVC\14.44.35207\include\utility
; File C:\Program Files\Microsoft Visual Studio\2022\Community\VC\Tools\MSVC\14.44.35207\include\xtree
; File C:\Program Files\Microsoft Visual Studio\2022\Community\VC\Tools\MSVC\14.44.35207\include\utility
; File C:\Program Files\Microsoft Visual Studio\2022\Community\VC\Tools\MSVC\14.44.35207\include\xtree
;	COMDAT ??$emplace@U?$pair@KUSPartyMemberInfo@CPythonPlayer@@@std@@@?$_Tree@V?$_Tmap_traits@KUSPartyMemberInfo@CPythonPlayer@@U?$less@K@std@@V?$allocator@U?$pair@$$CBKUSPartyMemberInfo@CPythonPlayer@@@std@@@4@$0A@@std@@@std@@QAE?AU?$pair@V?$_Tree_iterator@V?$_Tree_val@U?$_Tree_simple_types@U?$pair@$$CBKUSPartyMemberInfo@CPythonPlayer@@@std@@@std@@@std@@@std@@_N@1@$$QAU?$pair@KUSPartyMemberInfo@CPythonPlayer@@@1@@Z
_TEXT	SEGMENT
__Loc$2 = -36						; size = 12
$T3 = -24						; size = 12
$T4 = -20						; size = 8
__$EHRec$ = -12						; size = 12
___$ReturnUdt$ = 8					; size = 4
_<_Vals_0>$ = 12					; size = 4
??$emplace@U?$pair@KUSPartyMemberInfo@CPythonPlayer@@@std@@@?$_Tree@V?$_Tmap_traits@KUSPartyMemberInfo@CPythonPlayer@@U?$less@K@std@@V?$allocator@U?$pair@$$CBKUSPartyMemberInfo@CPythonPlayer@@@std@@@4@$0A@@std@@@std@@QAE?AU?$pair@V?$_Tree_iterator@V?$_Tree_val@U?$_Tree_simple_types@U?$pair@$$CBKUSPartyMemberInfo@CPythonPlayer@@@std@@@std@@@std@@@std@@_N@1@$$QAU?$pair@KUSPartyMemberInfo@CPythonPlayer@@@1@@Z PROC ; std::_Tree<std::_Tmap_traits<unsigned long,CPythonPlayer::SPartyMemberInfo,std::less<unsigned long>,std::allocator<std::pair<unsigned long const ,CPythonPlayer::SPartyMemberInfo> >,0> >::emplace<std::pair<unsigned long,CPythonPlayer::SPartyMemberInfo> >, COMDAT
; _this$ = ecx

; 1047 :     pair<iterator, bool> emplace(_Valtys&&... _Vals) {

  00000	55		 push	 ebp
  00001	8b ec		 mov	 ebp, esp
  00003	6a ff		 push	 -1
  00005	68 00 00 00 00	 push	 __ehhandler$??$emplace@U?$pair@KUSPartyMemberInfo@CPythonPlayer@@@std@@@?$_Tree@V?$_Tmap_traits@KUSPartyMemberInfo@CPythonPlayer@@U?$less@K@std@@V?$allocator@U?$pair@$$CBKUSPartyMemberInfo@CPythonPlayer@@@std@@@4@$0A@@std@@@std@@QAE?AU?$pair@V?$_Tree_iterator@V?$_Tree_val@U?$_Tree_simple_types@U?$pair@$$CBKUSPartyMemberInfo@CPythonPlayer@@@std@@@std@@@std@@@std@@_N@1@$$QAU?$pair@KUSPartyMemberInfo@CPythonPlayer@@@1@@Z
  0000a	64 a1 00 00 00
	00		 mov	 eax, DWORD PTR fs:0
  00010	50		 push	 eax
  00011	83 ec 18	 sub	 esp, 24			; 00000018H
  00014	53		 push	 ebx
  00015	56		 push	 esi
  00016	57		 push	 edi
  00017	a1 00 00 00 00	 mov	 eax, DWORD PTR ___security_cookie
  0001c	33 c5		 xor	 eax, ebp
  0001e	50		 push	 eax
  0001f	8d 45 f4	 lea	 eax, DWORD PTR __$EHRec$[ebp]
  00022	64 a3 00 00 00
	00		 mov	 DWORD PTR fs:0, eax
  00028	8b d9		 mov	 ebx, ecx

; 1017 :             _Loc                = _Find_lower_bound(_Keyval);

  0002a	8b 75 0c	 mov	 esi, DWORD PTR _<_Vals_0>$[ebp]
  0002d	8d 45 e8	 lea	 eax, DWORD PTR $T3[ebp]
  00030	56		 push	 esi
  00031	50		 push	 eax
  00032	e8 00 00 00 00	 call	 ??$_Find_lower_bound@K@?$_Tree@V?$_Tmap_traits@KUSPartyMemberInfo@CPythonPlayer@@U?$less@K@std@@V?$allocator@U?$pair@$$CBKUSPartyMemberInfo@CPythonPlayer@@@std@@@4@$0A@@std@@@std@@IBE?AU?$_Tree_find_result@PAU?$_Tree_node@U?$pair@$$CBKUSPartyMemberInfo@CPythonPlayer@@@std@@PAX@std@@@1@ABK@Z ; std::_Tree<std::_Tmap_traits<unsigned long,CPythonPlayer::SPartyMemberInfo,std::less<unsigned long>,std::allocator<std::pair<unsigned long const ,CPythonPlayer::SPartyMemberInfo> >,0> >::_Find_lower_bound<unsigned long>
  00037	8b 48 08	 mov	 ecx, DWORD PTR [eax+8]
  0003a	f3 0f 7e 00	 movq	 xmm0, QWORD PTR [eax]
  0003e	66 0f d6 45 dc	 movq	 QWORD PTR __Loc$2[ebp], xmm0

; 1624 :         return !_Bound->_Isnil && !_DEBUG_LT_PRED(_Getcomp(), _Keyval, _Traits::_Kfn(_Bound->_Myval));

  00043	80 79 0d 00	 cmp	 BYTE PTR [ecx+13], 0
  00047	75 0b		 jne	 SHORT $LN4@emplace
; File C:\Program Files\Microsoft Visual Studio\2022\Community\VC\Tools\MSVC\14.44.35207\include\type_traits

; 2380 :         return _Left < _Right;

  00049	8b 06		 mov	 eax, DWORD PTR [esi]
  0004b	3b 41 10	 cmp	 eax, DWORD PTR [ecx+16]
; File C:\Program Files\Microsoft Visual Studio\2022\Community\VC\Tools\MSVC\14.44.35207\include\xtree

; 1624 :         return !_Bound->_Isnil && !_DEBUG_LT_PRED(_Getcomp(), _Keyval, _Traits::_Kfn(_Bound->_Myval));

  0004e	72 04		 jb	 SHORT $LN4@emplace
; File C:\Program Files\Microsoft Visual Studio\2022\Community\VC\Tools\MSVC\14.44.35207\include\utility

; 274  :         : first(_STD forward<_Other1>(_Val1)), second(_STD forward<_Other2>(_Val2)) {

  00050	32 d2		 xor	 dl, dl
; File C:\Program Files\Microsoft Visual Studio\2022\Community\VC\Tools\MSVC\14.44.35207\include\xtree

; 1019 :                 return {_Loc._Bound, false};

  00052	eb 5c		 jmp	 SHORT $LN115@emplace
$LN4@emplace:

; 1648 :         if (max_size() == _Get_scary()->_Mysize) {

  00054	81 7b 04 c3 c3
	c3 03		 cmp	 DWORD PTR [ebx+4], 63161283 ; 03c3c3c3H
  0005b	74 6f		 je	 SHORT $LN136@emplace

; 1023 :             _Inserted = _Tree_temp_node<_Alnode>(_Getal(), _Scary->_Myhead, _STD forward<_Valtys>(_Vals)...)._Release();

  0005d	8b 3b		 mov	 edi, DWORD PTR [ebx]
; File C:\Program Files\Microsoft Visual Studio\2022\Community\VC\Tools\MSVC\14.44.35207\include\xmemory

; 1160 :     _CONSTEXPR20 explicit _Alloc_construct_ptr(_Alloc& _Al_) : _Al(_Al_), _Ptr(nullptr) {}

  0005f	89 5d ec	 mov	 DWORD PTR $T4[ebp], ebx
; File C:\Program Files\Microsoft Visual Studio\2022\Community\VC\Tools\MSVC\14.44.35207\include\xtree

; 808  :     explicit _Tree_temp_node_alloc(_Alnode& _Al_) : _Alloc_construct_ptr<_Alnode>(_Al_) {

  00062	c7 45 fc 00 00
	00 00		 mov	 DWORD PTR __$EHRec$[ebp+8], 0
; File C:\Program Files\Microsoft Visual Studio\2022\Community\VC\Tools\MSVC\14.44.35207\include\xmemory

; 1168 :         _Ptr = _Al.allocate(1);

  00069	6a 44		 push	 68			; 00000044H
  0006b	c7 45 f0 00 00
	00 00		 mov	 DWORD PTR $T4[ebp+4], 0
  00072	e8 00 00 00 00	 call	 ??2@YAPAXI@Z		; operator new
  00077	8b f0		 mov	 esi, eax
  00079	83 c4 04	 add	 esp, 4
; File C:\Program Files\Microsoft Visual Studio\2022\Community\VC\Tools\MSVC\14.44.35207\include\utility

; 303  :         : first(_STD forward<_Other1>(_Right.first)), second(_STD forward<_Other2>(_Right.second)) {}

  0007c	8b 45 0c	 mov	 eax, DWORD PTR _<_Vals_0>$[ebp]
  0007f	8b 08		 mov	 ecx, DWORD PTR [eax]
  00081	89 4e 10	 mov	 DWORD PTR [esi+16], ecx
  00084	8d 48 04	 lea	 ecx, DWORD PTR [eax+4]
  00087	51		 push	 ecx
  00088	8d 4e 14	 lea	 ecx, DWORD PTR [esi+20]
  0008b	e8 00 00 00 00	 call	 ??0SPartyMemberInfo@CPythonPlayer@@QAE@$$QAU01@@Z
; File C:\Program Files\Microsoft Visual Studio\2022\Community\VC\Tools\MSVC\14.44.35207\include\xtree

; 1042 :         return {_Scary->_Insert_node(_Loc._Location, _Inserted), true};

  00090	56		 push	 esi
  00091	ff 75 e0	 push	 DWORD PTR __Loc$2[ebp+4]

; 831  :         _Construct_in_place(this->_Ptr->_Left, _Myhead);

  00094	89 3e		 mov	 DWORD PTR [esi], edi

; 1042 :         return {_Scary->_Insert_node(_Loc._Location, _Inserted), true};

  00096	8b cb		 mov	 ecx, ebx
  00098	ff 75 dc	 push	 DWORD PTR __Loc$2[ebp]

; 832  :         _Construct_in_place(this->_Ptr->_Parent, _Myhead);

  0009b	89 7e 04	 mov	 DWORD PTR [esi+4], edi

; 833  :         _Construct_in_place(this->_Ptr->_Right, _Myhead);

  0009e	89 7e 08	 mov	 DWORD PTR [esi+8], edi

; 834  :         this->_Ptr->_Color = _Red;

  000a1	66 c7 46 0c 00
	00		 mov	 WORD PTR [esi+12], 0

; 1042 :         return {_Scary->_Insert_node(_Loc._Location, _Inserted), true};

  000a7	e8 00 00 00 00	 call	 ?_Insert_node@?$_Tree_val@U?$_Tree_simple_types@U?$pair@$$CBKUSPartyMemberInfo@CPythonPlayer@@@std@@@std@@@std@@QAEPAU?$_Tree_node@U?$pair@$$CBKUSPartyMemberInfo@CPythonPlayer@@@std@@PAX@2@U?$_Tree_id@PAU?$_Tree_node@U?$pair@$$CBKUSPartyMemberInfo@CPythonPlayer@@@std@@PAX@std@@@2@QAU32@@Z ; std::_Tree_val<std::_Tree_simple_types<std::pair<unsigned long const ,CPythonPlayer::SPartyMemberInfo> > >::_Insert_node
; File C:\Program Files\Microsoft Visual Studio\2022\Community\VC\Tools\MSVC\14.44.35207\include\utility

; 274  :         : first(_STD forward<_Other1>(_Val1)), second(_STD forward<_Other2>(_Val2)) {

  000ac	8b c8		 mov	 ecx, eax
  000ae	b2 01		 mov	 dl, 1
$LN115@emplace:
  000b0	8b 45 08	 mov	 eax, DWORD PTR ___$ReturnUdt$[ebp]
  000b3	89 08		 mov	 DWORD PTR [eax], ecx
  000b5	88 50 04	 mov	 BYTE PTR [eax+4], dl
; File C:\Program Files\Microsoft Visual Studio\2022\Community\VC\Tools\MSVC\14.44.35207\include\xtree

; 1050 :     }

  000b8	8b 4d f4	 mov	 ecx, DWORD PTR __$EHRec$[ebp]
  000bb	64 89 0d 00 00
	00 00		 mov	 DWORD PTR fs:0, ecx
  000c2	59		 pop	 ecx
  000c3	5f		 pop	 edi
  000c4	5e		 pop	 esi
  000c5	5b		 pop	 ebx
  000c6	8b e5		 mov	 esp, ebp
  000c8	5d		 pop	 ebp
  000c9	c2 08 00	 ret	 8
$LN136@emplace:

; 1649 :             _Throw_tree_length_error();

  000cc	e8 00 00 00 00	 call	 ?_Throw_tree_length_error@std@@YAXXZ ; std::_Throw_tree_length_error
$LN134@emplace:
  000d1	cc		 int	 3
_TEXT	ENDS
;	COMDAT text$x
text$x	SEGMENT
__unwindfunclet$??$emplace@U?$pair@KUSPartyMemberInfo@CPythonPlayer@@@std@@@?$_Tree@V?$_Tmap_traits@KUSPartyMemberInfo@CPythonPlayer@@U?$less@K@std@@V?$allocator@U?$pair@$$CBKUSPartyMemberInfo@CPythonPlayer@@@std@@@4@$0A@@std@@@std@@QAE?AU?$pair@V?$_Tree_iterator@V?$_Tree_val@U?$_Tree_simple_types@U?$pair@$$CBKUSPartyMemberInfo@CPythonPlayer@@@std@@@std@@@std@@@std@@_N@1@$$QAU?$pair@KUSPartyMemberInfo@CPythonPlayer@@@1@@Z$2:
  00000	8d 4d ec	 lea	 ecx, DWORD PTR $T4[ebp]
  00003	e9 00 00 00 00	 jmp	 ??1?$_Alloc_construct_ptr@V?$allocator@U?$_Tree_node@U?$pair@$$CBKUSPartyMemberInfo@CPythonPlayer@@@std@@PAX@std@@@std@@@std@@QAE@XZ ; std::_Alloc_construct_ptr<std::allocator<std::_Tree_node<std::pair<unsigned long const ,CPythonPlayer::SPartyMemberInfo>,void *> > >::~_Alloc_construct_ptr<std::allocator<std::_Tree_node<std::pair<unsigned long const ,CPythonPlayer::SPartyMemberInfo>,void *> > >
  00008	cc		 int	 3
  00009	cc		 int	 3
  0000a	cc		 int	 3
  0000b	cc		 int	 3
  0000c	cc		 int	 3
__ehhandler$??$emplace@U?$pair@KUSPartyMemberInfo@CPythonPlayer@@@std@@@?$_Tree@V?$_Tmap_traits@KUSPartyMemberInfo@CPythonPlayer@@U?$less@K@std@@V?$allocator@U?$pair@$$CBKUSPartyMemberInfo@CPythonPlayer@@@std@@@4@$0A@@std@@@std@@QAE?AU?$pair@V?$_Tree_iterator@V?$_Tree_val@U?$_Tree_simple_types@U?$pair@$$CBKUSPartyMemberInfo@CPythonPlayer@@@std@@@std@@@std@@@std@@_N@1@$$QAU?$pair@KUSPartyMemberInfo@CPythonPlayer@@@1@@Z:
  0000d	90		 npad	 1
  0000e	90		 npad	 1
  0000f	8b 54 24 08	 mov	 edx, DWORD PTR [esp+8]
  00013	8d 42 0c	 lea	 eax, DWORD PTR [edx+12]
  00016	8b 4a d8	 mov	 ecx, DWORD PTR [edx-40]
  00019	33 c8		 xor	 ecx, eax
  0001b	e8 00 00 00 00	 call	 @__security_check_cookie@4
  00020	b8 00 00 00 00	 mov	 eax, OFFSET __ehfuncinfo$??$emplace@U?$pair@KUSPartyMemberInfo@CPythonPlayer@@@std@@@?$_Tree@V?$_Tmap_traits@KUSPartyMemberInfo@CPythonPlayer@@U?$less@K@std@@V?$allocator@U?$pair@$$CBKUSPartyMemberInfo@CPythonPlayer@@@std@@@4@$0A@@std@@@std@@QAE?AU?$pair@V?$_Tree_iterator@V?$_Tree_val@U?$_Tree_simple_types@U?$pair@$$CBKUSPartyMemberInfo@CPythonPlayer@@@std@@@std@@@std@@@std@@_N@1@$$QAU?$pair@KUSPartyMemberInfo@CPythonPlayer@@@1@@Z
  00025	e9 00 00 00 00	 jmp	 ___CxxFrameHandler3
text$x	ENDS
??$emplace@U?$pair@KUSPartyMemberInfo@CPythonPlayer@@@std@@@?$_Tree@V?$_Tmap_traits@KUSPartyMemberInfo@CPythonPlayer@@U?$less@K@std@@V?$allocator@U?$pair@$$CBKUSPartyMemberInfo@CPythonPlayer@@@std@@@4@$0A@@std@@@std@@QAE?AU?$pair@V?$_Tree_iterator@V?$_Tree_val@U?$_Tree_simple_types@U?$pair@$$CBKUSPartyMemberInfo@CPythonPlayer@@@std@@@std@@@std@@@std@@_N@1@$$QAU?$pair@KUSPartyMemberInfo@CPythonPlayer@@@1@@Z ENDP ; std::_Tree<std::_Tmap_traits<unsigned long,CPythonPlayer::SPartyMemberInfo,std::less<unsigned long>,std::allocator<std::pair<unsigned long const ,CPythonPlayer::SPartyMemberInfo> >,0> >::emplace<std::pair<unsigned long,CPythonPlayer::SPartyMemberInfo> >
; Function compile flags: /Ogtp
; File C:\Program Files\Microsoft Visual Studio\2022\Community\VC\Tools\MSVC\14.44.35207\include\utility
;	COMDAT ??$?0HH$0A@@?$pair@HH@std@@QAE@$$QAH0@Z
_TEXT	SEGMENT
__Val1$ = 8						; size = 4
__Val2$ = 12						; size = 4
??$?0HH$0A@@?$pair@HH@std@@QAE@$$QAH0@Z PROC		; std::pair<int,int>::pair<int,int><int,int,0>, COMDAT
; _this$ = ecx

; 274  :         : first(_STD forward<_Other1>(_Val1)), second(_STD forward<_Other2>(_Val2)) {

  00000	55		 push	 ebp
  00001	8b ec		 mov	 ebp, esp
  00003	8b 45 08	 mov	 eax, DWORD PTR __Val1$[ebp]
  00006	8b 00		 mov	 eax, DWORD PTR [eax]
  00008	89 01		 mov	 DWORD PTR [ecx], eax
  0000a	8b 45 0c	 mov	 eax, DWORD PTR __Val2$[ebp]
  0000d	8b 00		 mov	 eax, DWORD PTR [eax]
  0000f	89 41 04	 mov	 DWORD PTR [ecx+4], eax

; 275  :     }

  00012	8b c1		 mov	 eax, ecx
  00014	5d		 pop	 ebp
  00015	c2 08 00	 ret	 8
??$?0HH$0A@@?$pair@HH@std@@QAE@$$QAH0@Z ENDP		; std::pair<int,int>::pair<int,int><int,int,0>
_TEXT	ENDS
; Function compile flags: /Ogtp
; File C:\Program Files\Microsoft Visual Studio\2022\Community\VC\Tools\MSVC\14.44.35207\include\xtree
; File C:\Program Files\Microsoft Visual Studio\2022\Community\VC\Tools\MSVC\14.44.35207\include\type_traits
; File C:\Program Files\Microsoft Visual Studio\2022\Community\VC\Tools\MSVC\14.44.35207\include\xtree
;	COMDAT ??$_Find@K@?$_Tree@V?$_Tmap_traits@KUSPartyMemberInfo@CPythonPlayer@@U?$less@K@std@@V?$allocator@U?$pair@$$CBKUSPartyMemberInfo@CPythonPlayer@@@std@@@4@$0A@@std@@@std@@ABEPAU?$_Tree_node@U?$pair@$$CBKUSPartyMemberInfo@CPythonPlayer@@@std@@PAX@1@ABK@Z
_TEXT	SEGMENT
__Loc$ = -12						; size = 12
__Keyval$ = 8						; size = 4
??$_Find@K@?$_Tree@V?$_Tmap_traits@KUSPartyMemberInfo@CPythonPlayer@@U?$less@K@std@@V?$allocator@U?$pair@$$CBKUSPartyMemberInfo@CPythonPlayer@@@std@@@4@$0A@@std@@@std@@ABEPAU?$_Tree_node@U?$pair@$$CBKUSPartyMemberInfo@CPythonPlayer@@@std@@PAX@1@ABK@Z PROC ; std::_Tree<std::_Tmap_traits<unsigned long,CPythonPlayer::SPartyMemberInfo,std::less<unsigned long>,std::allocator<std::pair<unsigned long const ,CPythonPlayer::SPartyMemberInfo> >,0> >::_Find<unsigned long>, COMDAT
; _this$ = ecx

; 1383 :     _NODISCARD _Nodeptr _Find(const _Other& _Keyval) const {

  00000	55		 push	 ebp
  00001	8b ec		 mov	 ebp, esp
  00003	83 ec 0c	 sub	 esp, 12			; 0000000cH
  00006	56		 push	 esi
  00007	57		 push	 edi

; 1384 :         const _Tree_find_result<_Nodeptr> _Loc = _Find_lower_bound(_Keyval);

  00008	8b 7d 08	 mov	 edi, DWORD PTR __Keyval$[ebp]
  0000b	8d 45 f4	 lea	 eax, DWORD PTR __Loc$[ebp]
  0000e	57		 push	 edi
  0000f	50		 push	 eax
  00010	8b f1		 mov	 esi, ecx
  00012	e8 00 00 00 00	 call	 ??$_Find_lower_bound@K@?$_Tree@V?$_Tmap_traits@KUSPartyMemberInfo@CPythonPlayer@@U?$less@K@std@@V?$allocator@U?$pair@$$CBKUSPartyMemberInfo@CPythonPlayer@@@std@@@4@$0A@@std@@@std@@IBE?AU?$_Tree_find_result@PAU?$_Tree_node@U?$pair@$$CBKUSPartyMemberInfo@CPythonPlayer@@@std@@PAX@std@@@1@ABK@Z ; std::_Tree<std::_Tmap_traits<unsigned long,CPythonPlayer::SPartyMemberInfo,std::less<unsigned long>,std::allocator<std::pair<unsigned long const ,CPythonPlayer::SPartyMemberInfo> >,0> >::_Find_lower_bound<unsigned long>

; 1624 :         return !_Bound->_Isnil && !_DEBUG_LT_PRED(_Getcomp(), _Keyval, _Traits::_Kfn(_Bound->_Myval));

  00017	8b 45 fc	 mov	 eax, DWORD PTR __Loc$[ebp+8]
  0001a	80 78 0d 00	 cmp	 BYTE PTR [eax+13], 0
  0001e	75 07		 jne	 SHORT $LN2@Find
; File C:\Program Files\Microsoft Visual Studio\2022\Community\VC\Tools\MSVC\14.44.35207\include\type_traits

; 2380 :         return _Left < _Right;

  00020	8b 0f		 mov	 ecx, DWORD PTR [edi]
  00022	3b 48 10	 cmp	 ecx, DWORD PTR [eax+16]
; File C:\Program Files\Microsoft Visual Studio\2022\Community\VC\Tools\MSVC\14.44.35207\include\xtree

; 1624 :         return !_Bound->_Isnil && !_DEBUG_LT_PRED(_Getcomp(), _Keyval, _Traits::_Kfn(_Bound->_Myval));

  00025	73 02		 jae	 SHORT $LN1@Find
$LN2@Find:

; 1385 :         if (_Lower_bound_duplicate(_Loc._Bound, _Keyval)) {
; 1386 :             return _Loc._Bound;
; 1387 :         }
; 1388 : 
; 1389 :         return _Get_scary()->_Myhead;

  00027	8b 06		 mov	 eax, DWORD PTR [esi]
$LN1@Find:
  00029	5f		 pop	 edi

; 1390 :     }

  0002a	5e		 pop	 esi
  0002b	8b e5		 mov	 esp, ebp
  0002d	5d		 pop	 ebp
  0002e	c2 04 00	 ret	 4
??$_Find@K@?$_Tree@V?$_Tmap_traits@KUSPartyMemberInfo@CPythonPlayer@@U?$less@K@std@@V?$allocator@U?$pair@$$CBKUSPartyMemberInfo@CPythonPlayer@@@std@@@4@$0A@@std@@@std@@ABEPAU?$_Tree_node@U?$pair@$$CBKUSPartyMemberInfo@CPythonPlayer@@@std@@PAX@1@ABK@Z ENDP ; std::_Tree<std::_Tmap_traits<unsigned long,CPythonPlayer::SPartyMemberInfo,std::less<unsigned long>,std::allocator<std::pair<unsigned long const ,CPythonPlayer::SPartyMemberInfo> >,0> >::_Find<unsigned long>
_TEXT	ENDS
; Function compile flags: /Ogtp
; File C:\Program Files\Microsoft Visual Studio\2022\Community\VC\Tools\MSVC\14.44.35207\include\xtree
; File C:\Program Files\Microsoft Visual Studio\2022\Community\VC\Tools\MSVC\14.44.35207\include\utility
; File C:\Program Files\Microsoft Visual Studio\2022\Community\VC\Tools\MSVC\14.44.35207\include\xtree
; File C:\Program Files\Microsoft Visual Studio\2022\Community\VC\Tools\MSVC\14.44.35207\include\xstring
; File C:\Program Files\Microsoft Visual Studio\2022\Community\VC\Tools\MSVC\14.44.35207\include\xmemory
; File C:\Program Files\Microsoft Visual Studio\2022\Community\VC\Tools\MSVC\14.44.35207\include\xtree
; File C:\Program Files\Microsoft Visual Studio\2022\Community\VC\Tools\MSVC\14.44.35207\include\xmemory
; File C:\Program Files\Microsoft Visual Studio\2022\Community\VC\Tools\MSVC\14.44.35207\include\xtree
;	COMDAT ??$_Erase_tree@V?$allocator@U?$_Tree_node@U?$pair@$$CBKUSPartyMemberInfo@CPythonPlayer@@@std@@PAX@std@@@std@@@?$_Tree_val@U?$_Tree_simple_types@U?$pair@$$CBKUSPartyMemberInfo@CPythonPlayer@@@std@@@std@@@std@@QAEXAAV?$allocator@U?$_Tree_node@U?$pair@$$CBKUSPartyMemberInfo@CPythonPlayer@@@std@@PAX@std@@@1@PAU?$_Tree_node@U?$pair@$$CBKUSPartyMemberInfo@CPythonPlayer@@@std@@PAX@1@@Z
_TEXT	SEGMENT
_this$1$ = -4						; size = 4
__Al$ = 8						; size = 4
__Rootnode$ = 12					; size = 4
??$_Erase_tree@V?$allocator@U?$_Tree_node@U?$pair@$$CBKUSPartyMemberInfo@CPythonPlayer@@@std@@PAX@std@@@std@@@?$_Tree_val@U?$_Tree_simple_types@U?$pair@$$CBKUSPartyMemberInfo@CPythonPlayer@@@std@@@std@@@std@@QAEXAAV?$allocator@U?$_Tree_node@U?$pair@$$CBKUSPartyMemberInfo@CPythonPlayer@@@std@@PAX@std@@@1@PAU?$_Tree_node@U?$pair@$$CBKUSPartyMemberInfo@CPythonPlayer@@@std@@PAX@1@@Z PROC ; std::_Tree_val<std::_Tree_simple_types<std::pair<unsigned long const ,CPythonPlayer::SPartyMemberInfo> > >::_Erase_tree<std::allocator<std::_Tree_node<std::pair<unsigned long const ,CPythonPlayer::SPartyMemberInfo>,void *> > >, COMDAT
; _this$ = ecx

; 767  :     void _Erase_tree(_Alnode& _Al, _Nodeptr _Rootnode) noexcept {

  00000	55		 push	 ebp
  00001	8b ec		 mov	 ebp, esp
  00003	51		 push	 ecx
  00004	56		 push	 esi

; 768  :         while (!_Rootnode->_Isnil) { // free subtrees, then node

  00005	8b 75 0c	 mov	 esi, DWORD PTR __Rootnode$[ebp]
  00008	8b c1		 mov	 eax, ecx
  0000a	89 45 fc	 mov	 DWORD PTR _this$1$[ebp], eax
  0000d	80 7e 0d 00	 cmp	 BYTE PTR [esi+13], 0
  00011	75 32		 jne	 SHORT $LN75@Erase_tree
  00013	53		 push	 ebx
  00014	8b 5d 08	 mov	 ebx, DWORD PTR __Al$[ebp]
  00017	57		 push	 edi
$LL2@Erase_tree:

; 769  :             _Erase_tree(_Al, _Rootnode->_Right);

  00018	ff 76 08	 push	 DWORD PTR [esi+8]
  0001b	8b c8		 mov	 ecx, eax
  0001d	53		 push	 ebx
  0001e	e8 00 00 00 00	 call	 ??$_Erase_tree@V?$allocator@U?$_Tree_node@U?$pair@$$CBKUSPartyMemberInfo@CPythonPlayer@@@std@@PAX@std@@@std@@@?$_Tree_val@U?$_Tree_simple_types@U?$pair@$$CBKUSPartyMemberInfo@CPythonPlayer@@@std@@@std@@@std@@QAEXAAV?$allocator@U?$_Tree_node@U?$pair@$$CBKUSPartyMemberInfo@CPythonPlayer@@@std@@PAX@std@@@1@PAU?$_Tree_node@U?$pair@$$CBKUSPartyMemberInfo@CPythonPlayer@@@std@@PAX@1@@Z ; std::_Tree_val<std::_Tree_simple_types<std::pair<unsigned long const ,CPythonPlayer::SPartyMemberInfo> > >::_Erase_tree<std::allocator<std::_Tree_node<std::pair<unsigned long const ,CPythonPlayer::SPartyMemberInfo>,void *> > >
; File C:\Program Files\Microsoft Visual Studio\2022\Community\VC\Tools\MSVC\14.44.35207\include\utility

; 773  :     _Ty _Old_val = static_cast<_Ty&&>(_Val);

  00023	8b fe		 mov	 edi, esi

; 774  :     _Val         = static_cast<_Other&&>(_New_val);

  00025	8b 36		 mov	 esi, DWORD PTR [esi]
; File C:\Program Files\Microsoft Visual Studio\2022\Community\VC\Tools\MSVC\14.44.35207\include\xtree

; 381  :         allocator_traits<_Alloc>::destroy(_Al, _STD addressof(_Ptr->_Myval));

  00027	8d 4f 1c	 lea	 ecx, DWORD PTR [edi+28]
; File C:\Program Files\Microsoft Visual Studio\2022\Community\VC\Tools\MSVC\14.44.35207\include\xstring

; 1383 :         _Tidy_deallocate();

  0002a	e8 00 00 00 00	 call	 ?_Tidy_deallocate@?$basic_string@DU?$char_traits@D@std@@V?$allocator@D@2@@std@@AAEXXZ ; std::basic_string<char,std::char_traits<char>,std::allocator<char> >::_Tidy_deallocate
; File C:\Program Files\Microsoft Visual Studio\2022\Community\VC\Tools\MSVC\14.44.35207\include\xmemory

; 289  :         ::operator delete(_Ptr, _Bytes);

  0002f	6a 44		 push	 68			; 00000044H
  00031	57		 push	 edi
  00032	e8 00 00 00 00	 call	 ??3@YAXPAXI@Z		; operator delete
; File C:\Program Files\Microsoft Visual Studio\2022\Community\VC\Tools\MSVC\14.44.35207\include\xtree

; 768  :         while (!_Rootnode->_Isnil) { // free subtrees, then node

  00037	8b 45 fc	 mov	 eax, DWORD PTR _this$1$[ebp]
; File C:\Program Files\Microsoft Visual Studio\2022\Community\VC\Tools\MSVC\14.44.35207\include\xmemory

; 289  :         ::operator delete(_Ptr, _Bytes);

  0003a	83 c4 08	 add	 esp, 8
; File C:\Program Files\Microsoft Visual Studio\2022\Community\VC\Tools\MSVC\14.44.35207\include\xtree

; 768  :         while (!_Rootnode->_Isnil) { // free subtrees, then node

  0003d	80 7e 0d 00	 cmp	 BYTE PTR [esi+13], 0
  00041	74 d5		 je	 SHORT $LL2@Erase_tree
  00043	5f		 pop	 edi
  00044	5b		 pop	 ebx
$LN75@Erase_tree:
  00045	5e		 pop	 esi

; 770  :             _Alnode::value_type::_Freenode(_Al, _STD exchange(_Rootnode, _Rootnode->_Left));
; 771  :         }
; 772  :     }

  00046	8b e5		 mov	 esp, ebp
  00048	5d		 pop	 ebp
  00049	c2 08 00	 ret	 8
??$_Erase_tree@V?$allocator@U?$_Tree_node@U?$pair@$$CBKUSPartyMemberInfo@CPythonPlayer@@@std@@PAX@std@@@std@@@?$_Tree_val@U?$_Tree_simple_types@U?$pair@$$CBKUSPartyMemberInfo@CPythonPlayer@@@std@@@std@@@std@@QAEXAAV?$allocator@U?$_Tree_node@U?$pair@$$CBKUSPartyMemberInfo@CPythonPlayer@@@std@@PAX@std@@@1@PAU?$_Tree_node@U?$pair@$$CBKUSPartyMemberInfo@CPythonPlayer@@@std@@PAX@1@@Z ENDP ; std::_Tree_val<std::_Tree_simple_types<std::pair<unsigned long const ,CPythonPlayer::SPartyMemberInfo> > >::_Erase_tree<std::allocator<std::_Tree_node<std::pair<unsigned long const ,CPythonPlayer::SPartyMemberInfo>,void *> > >
_TEXT	ENDS
; Function compile flags: /Ogtp
; File C:\Program Files\Microsoft Visual Studio\2022\Community\VC\Tools\MSVC\14.44.35207\include\xtree
; File C:\Program Files\Microsoft Visual Studio\2022\Community\VC\Tools\MSVC\14.44.35207\include\xmemory
; File C:\Program Files\Microsoft Visual Studio\2022\Community\VC\Tools\MSVC\14.44.35207\include\xtree
;	COMDAT ??$_Erase_head@V?$allocator@U?$_Tree_node@U?$pair@$$CBKUSPartyMemberInfo@CPythonPlayer@@@std@@PAX@std@@@std@@@?$_Tree_val@U?$_Tree_simple_types@U?$pair@$$CBKUSPartyMemberInfo@CPythonPlayer@@@std@@@std@@@std@@QAEXAAV?$allocator@U?$_Tree_node@U?$pair@$$CBKUSPartyMemberInfo@CPythonPlayer@@@std@@PAX@std@@@1@@Z
_TEXT	SEGMENT
__Al$ = 8						; size = 4
??$_Erase_head@V?$allocator@U?$_Tree_node@U?$pair@$$CBKUSPartyMemberInfo@CPythonPlayer@@@std@@PAX@std@@@std@@@?$_Tree_val@U?$_Tree_simple_types@U?$pair@$$CBKUSPartyMemberInfo@CPythonPlayer@@@std@@@std@@@std@@QAEXAAV?$allocator@U?$_Tree_node@U?$pair@$$CBKUSPartyMemberInfo@CPythonPlayer@@@std@@PAX@std@@@1@@Z PROC ; std::_Tree_val<std::_Tree_simple_types<std::pair<unsigned long const ,CPythonPlayer::SPartyMemberInfo> > >::_Erase_head<std::allocator<std::_Tree_node<std::pair<unsigned long const ,CPythonPlayer::SPartyMemberInfo>,void *> > >, COMDAT
; _this$ = ecx

; 775  :     void _Erase_head(_Alnode& _Al) noexcept {

  00000	55		 push	 ebp
  00001	8b ec		 mov	 ebp, esp
  00003	56		 push	 esi
  00004	8b f1		 mov	 esi, ecx

; 776  :         this->_Orphan_all();
; 777  :         _Erase_tree(_Al, _Myhead->_Parent);

  00006	8b 06		 mov	 eax, DWORD PTR [esi]
  00008	ff 70 04	 push	 DWORD PTR [eax+4]
  0000b	ff 75 08	 push	 DWORD PTR __Al$[ebp]
  0000e	e8 00 00 00 00	 call	 ??$_Erase_tree@V?$allocator@U?$_Tree_node@U?$pair@$$CBKUSPartyMemberInfo@CPythonPlayer@@@std@@PAX@std@@@std@@@?$_Tree_val@U?$_Tree_simple_types@U?$pair@$$CBKUSPartyMemberInfo@CPythonPlayer@@@std@@@std@@@std@@QAEXAAV?$allocator@U?$_Tree_node@U?$pair@$$CBKUSPartyMemberInfo@CPythonPlayer@@@std@@PAX@std@@@1@PAU?$_Tree_node@U?$pair@$$CBKUSPartyMemberInfo@CPythonPlayer@@@std@@PAX@1@@Z ; std::_Tree_val<std::_Tree_simple_types<std::pair<unsigned long const ,CPythonPlayer::SPartyMemberInfo> > >::_Erase_tree<std::allocator<std::_Tree_node<std::pair<unsigned long const ,CPythonPlayer::SPartyMemberInfo>,void *> > >
; File C:\Program Files\Microsoft Visual Studio\2022\Community\VC\Tools\MSVC\14.44.35207\include\xmemory

; 289  :         ::operator delete(_Ptr, _Bytes);

  00013	6a 44		 push	 68			; 00000044H
  00015	ff 36		 push	 DWORD PTR [esi]
  00017	e8 00 00 00 00	 call	 ??3@YAXPAXI@Z		; operator delete
  0001c	83 c4 08	 add	 esp, 8
  0001f	5e		 pop	 esi
; File C:\Program Files\Microsoft Visual Studio\2022\Community\VC\Tools\MSVC\14.44.35207\include\xtree

; 779  :     }

  00020	5d		 pop	 ebp
  00021	c2 04 00	 ret	 4
??$_Erase_head@V?$allocator@U?$_Tree_node@U?$pair@$$CBKUSPartyMemberInfo@CPythonPlayer@@@std@@PAX@std@@@std@@@?$_Tree_val@U?$_Tree_simple_types@U?$pair@$$CBKUSPartyMemberInfo@CPythonPlayer@@@std@@@std@@@std@@QAEXAAV?$allocator@U?$_Tree_node@U?$pair@$$CBKUSPartyMemberInfo@CPythonPlayer@@@std@@PAX@std@@@1@@Z ENDP ; std::_Tree_val<std::_Tree_simple_types<std::pair<unsigned long const ,CPythonPlayer::SPartyMemberInfo> > >::_Erase_head<std::allocator<std::_Tree_node<std::pair<unsigned long const ,CPythonPlayer::SPartyMemberInfo>,void *> > >
_TEXT	ENDS
; Function compile flags: /Ogtp
; File C:\Program Files\Microsoft Visual Studio\2022\Community\VC\Tools\MSVC\14.44.35207\include\map
; File C:\Program Files\Microsoft Visual Studio\2022\Community\VC\Tools\MSVC\14.44.35207\include\xtree
; File C:\Program Files\Microsoft Visual Studio\2022\Community\VC\Tools\MSVC\14.44.35207\include\type_traits
; File C:\Program Files\Microsoft Visual Studio\2022\Community\VC\Tools\MSVC\14.44.35207\include\xtree
; File C:\Program Files\Microsoft Visual Studio\2022\Community\VC\Tools\MSVC\14.44.35207\include\utility
; File C:\Program Files\Microsoft Visual Studio\2022\Community\VC\Tools\MSVC\14.44.35207\include\map
; File C:\Program Files\Microsoft Visual Studio\2022\Community\VC\Tools\MSVC\14.44.35207\include\xtree
; File C:\Program Files\Microsoft Visual Studio\2022\Community\VC\Tools\MSVC\14.44.35207\include\map
; File C:\Program Files\Microsoft Visual Studio\2022\Community\VC\Tools\MSVC\14.44.35207\include\xmemory
; File C:\Program Files\Microsoft Visual Studio\2022\Community\VC\Tools\MSVC\14.44.35207\include\xtree
; File C:\Program Files\Microsoft Visual Studio\2022\Community\VC\Tools\MSVC\14.44.35207\include\xmemory
; File C:\Program Files\Microsoft Visual Studio\2022\Community\VC\Tools\MSVC\14.44.35207\include\utility
; File C:\Program Files\Microsoft Visual Studio\2022\Community\VC\Tools\MSVC\14.44.35207\include\xmemory
; File C:\Program Files\Microsoft Visual Studio\2022\Community\VC\Tools\MSVC\14.44.35207\include\utility
; File C:\Program Files\Microsoft Visual Studio\2022\Community\VC\Tools\MSVC\14.44.35207\include\map
; File C:\Program Files\Microsoft Visual Studio\2022\Community\VC\Tools\MSVC\14.44.35207\include\utility
; File C:\Program Files\Microsoft Visual Studio\2022\Community\VC\Tools\MSVC\14.44.35207\include\map
; File C:\Program Files\Microsoft Visual Studio\2022\Community\VC\Tools\MSVC\14.44.35207\include\xtree
; File C:\Program Files\Microsoft Visual Studio\2022\Community\VC\Tools\MSVC\14.44.35207\include\map
; File C:\Program Files\Microsoft Visual Studio\2022\Community\VC\Tools\MSVC\14.44.35207\include\utility
; File C:\Program Files\Microsoft Visual Studio\2022\Community\VC\Tools\MSVC\14.44.35207\include\map
; File C:\Program Files\Microsoft Visual Studio\2022\Community\VC\Tools\MSVC\14.44.35207\include\utility
; File C:\Program Files\Microsoft Visual Studio\2022\Community\VC\Tools\MSVC\14.44.35207\include\map
; File C:\Program Files\Microsoft Visual Studio\2022\Community\VC\Tools\MSVC\14.44.35207\include\xtree
; File C:\Program Files\Microsoft Visual Studio\2022\Community\VC\Tools\MSVC\14.44.35207\include\map
;	COMDAT ??$_Try_emplace@ABK$$V@?$map@KKU?$less@K@std@@V?$allocator@U?$pair@$$CBKK@std@@@2@@std@@AAE?AU?$pair@PAU?$_Tree_node@U?$pair@$$CBKK@std@@PAX@std@@_N@1@ABK@Z
_TEXT	SEGMENT
__Loc$ = -32						; size = 12
$T2 = -20						; size = 8
__$EHRec$ = -12						; size = 12
___$ReturnUdt$ = 8					; size = 4
__Keyval$ = 12						; size = 4
??$_Try_emplace@ABK$$V@?$map@KKU?$less@K@std@@V?$allocator@U?$pair@$$CBKK@std@@@2@@std@@AAE?AU?$pair@PAU?$_Tree_node@U?$pair@$$CBKK@std@@PAX@std@@_N@1@ABK@Z PROC ; std::map<unsigned long,unsigned long,std::less<unsigned long>,std::allocator<std::pair<unsigned long const ,unsigned long> > >::_Try_emplace<unsigned long const &>, COMDAT
; _this$ = ecx

; 196  :     pair<_Nodeptr, bool> _Try_emplace(_Keyty&& _Keyval, _Mappedty&&... _Mapval) {

  00000	55		 push	 ebp
  00001	8b ec		 mov	 ebp, esp
  00003	6a ff		 push	 -1
  00005	68 00 00 00 00	 push	 __ehhandler$??$_Try_emplace@ABK$$V@?$map@KKU?$less@K@std@@V?$allocator@U?$pair@$$CBKK@std@@@2@@std@@AAE?AU?$pair@PAU?$_Tree_node@U?$pair@$$CBKK@std@@PAX@std@@_N@1@ABK@Z
  0000a	64 a1 00 00 00
	00		 mov	 eax, DWORD PTR fs:0
  00010	50		 push	 eax
  00011	83 ec 14	 sub	 esp, 20			; 00000014H
  00014	53		 push	 ebx
  00015	56		 push	 esi
  00016	57		 push	 edi
  00017	a1 00 00 00 00	 mov	 eax, DWORD PTR ___security_cookie
  0001c	33 c5		 xor	 eax, ebp
  0001e	50		 push	 eax
  0001f	8d 45 f4	 lea	 eax, DWORD PTR __$EHRec$[ebp]
  00022	64 a3 00 00 00
	00		 mov	 DWORD PTR fs:0, eax
  00028	8b f9		 mov	 edi, ecx

; 197  :         const auto _Loc = _Mybase::_Find_lower_bound(_Keyval);

  0002a	8b 5d 0c	 mov	 ebx, DWORD PTR __Keyval$[ebp]
  0002d	8d 45 e0	 lea	 eax, DWORD PTR __Loc$[ebp]
  00030	53		 push	 ebx
  00031	50		 push	 eax
  00032	e8 00 00 00 00	 call	 ??$_Find_lower_bound@K@?$_Tree@V?$_Tmap_traits@KKU?$less@K@std@@V?$allocator@U?$pair@$$CBKK@std@@@2@$0A@@std@@@std@@IBE?AU?$_Tree_find_result@PAU?$_Tree_node@U?$pair@$$CBKK@std@@PAX@std@@@1@ABK@Z ; std::_Tree<std::_Tmap_traits<unsigned long,unsigned long,std::less<unsigned long>,std::allocator<std::pair<unsigned long const ,unsigned long> >,0> >::_Find_lower_bound<unsigned long>
; File C:\Program Files\Microsoft Visual Studio\2022\Community\VC\Tools\MSVC\14.44.35207\include\xtree

; 1624 :         return !_Bound->_Isnil && !_DEBUG_LT_PRED(_Getcomp(), _Keyval, _Traits::_Kfn(_Bound->_Myval));

  00037	8b 4d e8	 mov	 ecx, DWORD PTR __Loc$[ebp+8]
  0003a	80 79 0d 00	 cmp	 BYTE PTR [ecx+13], 0
  0003e	75 24		 jne	 SHORT $LN2@Try_emplac
; File C:\Program Files\Microsoft Visual Studio\2022\Community\VC\Tools\MSVC\14.44.35207\include\type_traits

; 2380 :         return _Left < _Right;

  00040	8b 03		 mov	 eax, DWORD PTR [ebx]
  00042	3b 41 10	 cmp	 eax, DWORD PTR [ecx+16]
; File C:\Program Files\Microsoft Visual Studio\2022\Community\VC\Tools\MSVC\14.44.35207\include\xtree

; 1624 :         return !_Bound->_Isnil && !_DEBUG_LT_PRED(_Getcomp(), _Keyval, _Traits::_Kfn(_Bound->_Myval));

  00045	72 1d		 jb	 SHORT $LN2@Try_emplac
; File C:\Program Files\Microsoft Visual Studio\2022\Community\VC\Tools\MSVC\14.44.35207\include\utility

; 274  :         : first(_STD forward<_Other1>(_Val1)), second(_STD forward<_Other2>(_Val2)) {

  00047	8b 45 08	 mov	 eax, DWORD PTR ___$ReturnUdt$[ebp]
  0004a	89 08		 mov	 DWORD PTR [eax], ecx
  0004c	c6 40 04 00	 mov	 BYTE PTR [eax+4], 0
; File C:\Program Files\Microsoft Visual Studio\2022\Community\VC\Tools\MSVC\14.44.35207\include\map

; 212  :     }

  00050	8b 4d f4	 mov	 ecx, DWORD PTR __$EHRec$[ebp]
  00053	64 89 0d 00 00
	00 00		 mov	 DWORD PTR fs:0, ecx
  0005a	59		 pop	 ecx
  0005b	5f		 pop	 edi
  0005c	5e		 pop	 esi
  0005d	5b		 pop	 ebx
  0005e	8b e5		 mov	 esp, ebp
  00060	5d		 pop	 ebp
  00061	c2 08 00	 ret	 8
$LN2@Try_emplac:
; File C:\Program Files\Microsoft Visual Studio\2022\Community\VC\Tools\MSVC\14.44.35207\include\xtree

; 1648 :         if (max_size() == _Get_scary()->_Mysize) {

  00064	81 7f 04 aa aa
	aa 0a		 cmp	 DWORD PTR [edi+4], 178956970 ; 0aaaaaaaH
  0006b	74 64		 je	 SHORT $LN114@Try_emplac
; File C:\Program Files\Microsoft Visual Studio\2022\Community\VC\Tools\MSVC\14.44.35207\include\map

; 205  :         const auto _Inserted = _Tree_temp_node<_Alnode>(_Mybase::_Getal(), _Scary->_Myhead, piecewise_construct,

  0006d	8b 37		 mov	 esi, DWORD PTR [edi]
; File C:\Program Files\Microsoft Visual Studio\2022\Community\VC\Tools\MSVC\14.44.35207\include\xmemory

; 1160 :     _CONSTEXPR20 explicit _Alloc_construct_ptr(_Alloc& _Al_) : _Al(_Al_), _Ptr(nullptr) {}

  0006f	89 7d ec	 mov	 DWORD PTR $T2[ebp], edi
; File C:\Program Files\Microsoft Visual Studio\2022\Community\VC\Tools\MSVC\14.44.35207\include\xtree

; 808  :     explicit _Tree_temp_node_alloc(_Alnode& _Al_) : _Alloc_construct_ptr<_Alnode>(_Al_) {

  00072	c7 45 fc 00 00
	00 00		 mov	 DWORD PTR __$EHRec$[ebp+8], 0
; File C:\Program Files\Microsoft Visual Studio\2022\Community\VC\Tools\MSVC\14.44.35207\include\xmemory

; 136  :         return ::operator new(_Bytes);

  00079	6a 18		 push	 24			; 00000018H

; 1167 :         _Ptr = nullptr; // if allocate throws, prevents double-free

  0007b	c7 45 f0 00 00
	00 00		 mov	 DWORD PTR $T2[ebp+4], 0

; 136  :         return ::operator new(_Bytes);

  00082	e8 00 00 00 00	 call	 ??2@YAPAXI@Z		; operator new
; File C:\Program Files\Microsoft Visual Studio\2022\Community\VC\Tools\MSVC\14.44.35207\include\utility

; 478  :         : first(_STD _Tuple_get<_Indices1>(_STD move(_Val1))...),

  00087	8b 0b		 mov	 ecx, DWORD PTR [ebx]
; File C:\Program Files\Microsoft Visual Studio\2022\Community\VC\Tools\MSVC\14.44.35207\include\xmemory

; 136  :         return ::operator new(_Bytes);

  00089	83 c4 04	 add	 esp, 4
; File C:\Program Files\Microsoft Visual Studio\2022\Community\VC\Tools\MSVC\14.44.35207\include\utility

; 478  :         : first(_STD _Tuple_get<_Indices1>(_STD move(_Val1))...),

  0008c	89 48 10	 mov	 DWORD PTR [eax+16], ecx
; File C:\Program Files\Microsoft Visual Studio\2022\Community\VC\Tools\MSVC\14.44.35207\include\map

; 211  :         return {_Scary->_Insert_node(_Loc._Location, _Inserted), true};

  0008f	8b cf		 mov	 ecx, edi
  00091	50		 push	 eax
  00092	ff 75 e4	 push	 DWORD PTR __Loc$[ebp+4]
; File C:\Program Files\Microsoft Visual Studio\2022\Community\VC\Tools\MSVC\14.44.35207\include\utility

; 479  :           second(_STD _Tuple_get<_Indices2>(_STD move(_Val2))...) {}

  00095	c7 40 14 00 00
	00 00		 mov	 DWORD PTR [eax+20], 0
; File C:\Program Files\Microsoft Visual Studio\2022\Community\VC\Tools\MSVC\14.44.35207\include\map

; 211  :         return {_Scary->_Insert_node(_Loc._Location, _Inserted), true};

  0009c	ff 75 e0	 push	 DWORD PTR __Loc$[ebp]
; File C:\Program Files\Microsoft Visual Studio\2022\Community\VC\Tools\MSVC\14.44.35207\include\xtree

; 831  :         _Construct_in_place(this->_Ptr->_Left, _Myhead);

  0009f	89 30		 mov	 DWORD PTR [eax], esi

; 832  :         _Construct_in_place(this->_Ptr->_Parent, _Myhead);

  000a1	89 70 04	 mov	 DWORD PTR [eax+4], esi

; 833  :         _Construct_in_place(this->_Ptr->_Right, _Myhead);

  000a4	89 70 08	 mov	 DWORD PTR [eax+8], esi

; 834  :         this->_Ptr->_Color = _Red;

  000a7	66 c7 40 0c 00
	00		 mov	 WORD PTR [eax+12], 0
; File C:\Program Files\Microsoft Visual Studio\2022\Community\VC\Tools\MSVC\14.44.35207\include\map

; 211  :         return {_Scary->_Insert_node(_Loc._Location, _Inserted), true};

  000ad	e8 00 00 00 00	 call	 ?_Insert_node@?$_Tree_val@U?$_Tree_simple_types@U?$pair@$$CBKK@std@@@std@@@std@@QAEPAU?$_Tree_node@U?$pair@$$CBKK@std@@PAX@2@U?$_Tree_id@PAU?$_Tree_node@U?$pair@$$CBKK@std@@PAX@std@@@2@QAU32@@Z ; std::_Tree_val<std::_Tree_simple_types<std::pair<unsigned long const ,unsigned long> > >::_Insert_node
; File C:\Program Files\Microsoft Visual Studio\2022\Community\VC\Tools\MSVC\14.44.35207\include\utility

; 274  :         : first(_STD forward<_Other1>(_Val1)), second(_STD forward<_Other2>(_Val2)) {

  000b2	8b 4d 08	 mov	 ecx, DWORD PTR ___$ReturnUdt$[ebp]
  000b5	89 01		 mov	 DWORD PTR [ecx], eax
; File C:\Program Files\Microsoft Visual Studio\2022\Community\VC\Tools\MSVC\14.44.35207\include\map

; 211  :         return {_Scary->_Insert_node(_Loc._Location, _Inserted), true};

  000b7	8b c1		 mov	 eax, ecx
; File C:\Program Files\Microsoft Visual Studio\2022\Community\VC\Tools\MSVC\14.44.35207\include\utility

; 274  :         : first(_STD forward<_Other1>(_Val1)), second(_STD forward<_Other2>(_Val2)) {

  000b9	c6 41 04 01	 mov	 BYTE PTR [ecx+4], 1
; File C:\Program Files\Microsoft Visual Studio\2022\Community\VC\Tools\MSVC\14.44.35207\include\map

; 212  :     }

  000bd	8b 4d f4	 mov	 ecx, DWORD PTR __$EHRec$[ebp]
  000c0	64 89 0d 00 00
	00 00		 mov	 DWORD PTR fs:0, ecx
  000c7	59		 pop	 ecx
  000c8	5f		 pop	 edi
  000c9	5e		 pop	 esi
  000ca	5b		 pop	 ebx
  000cb	8b e5		 mov	 esp, ebp
  000cd	5d		 pop	 ebp
  000ce	c2 08 00	 ret	 8
$LN114@Try_emplac:
; File C:\Program Files\Microsoft Visual Studio\2022\Community\VC\Tools\MSVC\14.44.35207\include\xtree

; 1649 :             _Throw_tree_length_error();

  000d1	e8 00 00 00 00	 call	 ?_Throw_tree_length_error@std@@YAXXZ ; std::_Throw_tree_length_error
$LN112@Try_emplac:
  000d6	cc		 int	 3
_TEXT	ENDS
;	COMDAT text$x
text$x	SEGMENT
__unwindfunclet$??$_Try_emplace@ABK$$V@?$map@KKU?$less@K@std@@V?$allocator@U?$pair@$$CBKK@std@@@2@@std@@AAE?AU?$pair@PAU?$_Tree_node@U?$pair@$$CBKK@std@@PAX@std@@_N@1@ABK@Z$2:
  00000	8d 4d ec	 lea	 ecx, DWORD PTR $T2[ebp]
  00003	e9 00 00 00 00	 jmp	 ??1?$_Alloc_construct_ptr@V?$allocator@U?$_Tree_node@U?$pair@$$CBKK@std@@PAX@std@@@std@@@std@@QAE@XZ ; std::_Alloc_construct_ptr<std::allocator<std::_Tree_node<std::pair<unsigned long const ,unsigned long>,void *> > >::~_Alloc_construct_ptr<std::allocator<std::_Tree_node<std::pair<unsigned long const ,unsigned long>,void *> > >
  00008	cc		 int	 3
  00009	cc		 int	 3
  0000a	cc		 int	 3
  0000b	cc		 int	 3
  0000c	cc		 int	 3
__ehhandler$??$_Try_emplace@ABK$$V@?$map@KKU?$less@K@std@@V?$allocator@U?$pair@$$CBKK@std@@@2@@std@@AAE?AU?$pair@PAU?$_Tree_node@U?$pair@$$CBKK@std@@PAX@std@@_N@1@ABK@Z:
  0000d	90		 npad	 1
  0000e	90		 npad	 1
  0000f	8b 54 24 08	 mov	 edx, DWORD PTR [esp+8]
  00013	8d 42 0c	 lea	 eax, DWORD PTR [edx+12]
  00016	8b 4a dc	 mov	 ecx, DWORD PTR [edx-36]
  00019	33 c8		 xor	 ecx, eax
  0001b	e8 00 00 00 00	 call	 @__security_check_cookie@4
  00020	b8 00 00 00 00	 mov	 eax, OFFSET __ehfuncinfo$??$_Try_emplace@ABK$$V@?$map@KKU?$less@K@std@@V?$allocator@U?$pair@$$CBKK@std@@@2@@std@@AAE?AU?$pair@PAU?$_Tree_node@U?$pair@$$CBKK@std@@PAX@std@@_N@1@ABK@Z
  00025	e9 00 00 00 00	 jmp	 ___CxxFrameHandler3
text$x	ENDS
??$_Try_emplace@ABK$$V@?$map@KKU?$less@K@std@@V?$allocator@U?$pair@$$CBKK@std@@@2@@std@@AAE?AU?$pair@PAU?$_Tree_node@U?$pair@$$CBKK@std@@PAX@std@@_N@1@ABK@Z ENDP ; std::map<unsigned long,unsigned long,std::less<unsigned long>,std::allocator<std::pair<unsigned long const ,unsigned long> > >::_Try_emplace<unsigned long const &>
; Function compile flags: /Ogtp
; File C:\Program Files\Microsoft Visual Studio\2022\Community\VC\Tools\MSVC\14.44.35207\include\xutility
;	COMDAT ?pointer_to@?$pointer_traits@PAU?$pair@$$CBKUSPartyMemberInfo@CPythonPlayer@@@std@@@std@@SAPAU?$pair@$$CBKUSPartyMemberInfo@CPythonPlayer@@@2@AAU32@@Z
_TEXT	SEGMENT
?pointer_to@?$pointer_traits@PAU?$pair@$$CBKUSPartyMemberInfo@CPythonPlayer@@@std@@@std@@SAPAU?$pair@$$CBKUSPartyMemberInfo@CPythonPlayer@@@2@AAU32@@Z PROC ; std::pointer_traits<std::pair<unsigned long const ,CPythonPlayer::SPartyMemberInfo> *>::pointer_to, COMDAT
; __Val$ = ecx

; 528  :         return _STD addressof(_Val);

  00000	8b c1		 mov	 eax, ecx

; 529  :     }

  00002	c3		 ret	 0
?pointer_to@?$pointer_traits@PAU?$pair@$$CBKUSPartyMemberInfo@CPythonPlayer@@@std@@@std@@SAPAU?$pair@$$CBKUSPartyMemberInfo@CPythonPlayer@@@2@AAU32@@Z ENDP ; std::pointer_traits<std::pair<unsigned long const ,CPythonPlayer::SPartyMemberInfo> *>::pointer_to
_TEXT	ENDS
; Function compile flags: /Ogtp
; File C:\Program Files\Microsoft Visual Studio\2022\Community\VC\Tools\MSVC\14.44.35207\include\xtree
;	COMDAT ??0?$_Tree_unchecked_const_iterator@V?$_Tree_val@U?$_Tree_simple_types@U?$pair@$$CBKUSPartyMemberInfo@CPythonPlayer@@@std@@@std@@@std@@U_Iterator_base0@2@@std@@QAE@PAU?$_Tree_node@U?$pair@$$CBKUSPartyMemberInfo@CPythonPlayer@@@std@@PAX@1@PBV?$_Tree_val@U?$_Tree_simple_types@U?$pair@$$CBKUSPartyMemberInfo@CPythonPlayer@@@std@@@std@@@1@@Z
_TEXT	SEGMENT
__Pnode$ = 8						; size = 4
__Plist$dead$ = 12					; size = 4
??0?$_Tree_unchecked_const_iterator@V?$_Tree_val@U?$_Tree_simple_types@U?$pair@$$CBKUSPartyMemberInfo@CPythonPlayer@@@std@@@std@@@std@@U_Iterator_base0@2@@std@@QAE@PAU?$_Tree_node@U?$pair@$$CBKUSPartyMemberInfo@CPythonPlayer@@@std@@PAX@1@PBV?$_Tree_val@U?$_Tree_simple_types@U?$pair@$$CBKUSPartyMemberInfo@CPythonPlayer@@@std@@@std@@@1@@Z PROC ; std::_Tree_unchecked_const_iterator<std::_Tree_val<std::_Tree_simple_types<std::pair<unsigned long const ,CPythonPlayer::SPartyMemberInfo> > >,std::_Iterator_base0>::_Tree_unchecked_const_iterator<std::_Tree_val<std::_Tree_simple_types<std::pair<unsigned long const ,CPythonPlayer::SPartyMemberInfo> > >,std::_Iterator_base0>, COMDAT
; _this$ = ecx

; 37   :     _Tree_unchecked_const_iterator(_Nodeptr _Pnode, const _Mytree* _Plist) noexcept : _Ptr(_Pnode) {

  00000	55		 push	 ebp
  00001	8b ec		 mov	 ebp, esp
  00003	8b 45 08	 mov	 eax, DWORD PTR __Pnode$[ebp]
  00006	89 01		 mov	 DWORD PTR [ecx], eax

; 38   :         this->_Adopt(_Plist);
; 39   :     }

  00008	8b c1		 mov	 eax, ecx
  0000a	5d		 pop	 ebp
  0000b	c2 08 00	 ret	 8
??0?$_Tree_unchecked_const_iterator@V?$_Tree_val@U?$_Tree_simple_types@U?$pair@$$CBKUSPartyMemberInfo@CPythonPlayer@@@std@@@std@@@std@@U_Iterator_base0@2@@std@@QAE@PAU?$_Tree_node@U?$pair@$$CBKUSPartyMemberInfo@CPythonPlayer@@@std@@PAX@1@PBV?$_Tree_val@U?$_Tree_simple_types@U?$pair@$$CBKUSPartyMemberInfo@CPythonPlayer@@@std@@@std@@@1@@Z ENDP ; std::_Tree_unchecked_const_iterator<std::_Tree_val<std::_Tree_simple_types<std::pair<unsigned long const ,CPythonPlayer::SPartyMemberInfo> > >,std::_Iterator_base0>::_Tree_unchecked_const_iterator<std::_Tree_val<std::_Tree_simple_types<std::pair<unsigned long const ,CPythonPlayer::SPartyMemberInfo> > >,std::_Iterator_base0>
_TEXT	ENDS
; Function compile flags: /Ogtp
; File C:\Program Files\Microsoft Visual Studio\2022\Community\VC\Tools\MSVC\14.44.35207\include\xtree
;	COMDAT ??D?$_Tree_iterator@V?$_Tree_val@U?$_Tree_simple_types@U?$pair@$$CBKUSPartyMemberInfo@CPythonPlayer@@@std@@@std@@@std@@@std@@QBEAAU?$pair@$$CBKUSPartyMemberInfo@CPythonPlayer@@@1@XZ
_TEXT	SEGMENT
??D?$_Tree_iterator@V?$_Tree_val@U?$_Tree_simple_types@U?$pair@$$CBKUSPartyMemberInfo@CPythonPlayer@@@std@@@std@@@std@@@std@@QBEAAU?$pair@$$CBKUSPartyMemberInfo@CPythonPlayer@@@1@XZ PROC ; std::_Tree_iterator<std::_Tree_val<std::_Tree_simple_types<std::pair<unsigned long const ,CPythonPlayer::SPartyMemberInfo> > > >::operator*, COMDAT
; _this$ = ecx

; 185  :         return this->_Ptr->_Myval;

  00000	8b 01		 mov	 eax, DWORD PTR [ecx]
  00002	83 c0 10	 add	 eax, 16			; 00000010H

; 274  :         return const_cast<reference>(_Mybase::operator*());
; 275  :     }

  00005	c3		 ret	 0
??D?$_Tree_iterator@V?$_Tree_val@U?$_Tree_simple_types@U?$pair@$$CBKUSPartyMemberInfo@CPythonPlayer@@@std@@@std@@@std@@@std@@QBEAAU?$pair@$$CBKUSPartyMemberInfo@CPythonPlayer@@@1@XZ ENDP ; std::_Tree_iterator<std::_Tree_val<std::_Tree_simple_types<std::pair<unsigned long const ,CPythonPlayer::SPartyMemberInfo> > > >::operator*
_TEXT	ENDS
; Function compile flags: /Ogtp
; File C:\Program Files\Microsoft Visual Studio\2022\Community\VC\Tools\MSVC\14.44.35207\include\xtree
;	COMDAT ??E?$_Tree_const_iterator@V?$_Tree_val@U?$_Tree_simple_types@U?$pair@$$CBKUSPartyMemberInfo@CPythonPlayer@@@std@@@std@@@std@@@std@@QAEAAV01@XZ
_TEXT	SEGMENT
??E?$_Tree_const_iterator@V?$_Tree_val@U?$_Tree_simple_types@U?$pair@$$CBKUSPartyMemberInfo@CPythonPlayer@@@std@@@std@@@std@@@std@@QAEAAV01@XZ PROC ; std::_Tree_const_iterator<std::_Tree_val<std::_Tree_simple_types<std::pair<unsigned long const ,CPythonPlayer::SPartyMemberInfo> > > >::operator++, COMDAT
; _this$ = ecx

; 192  :     _Tree_const_iterator& operator++() noexcept {

  00000	56		 push	 esi
  00001	8b f1		 mov	 esi, ecx

; 193  : #if _ITERATOR_DEBUG_LEVEL == 2
; 194  :         _STL_VERIFY(this->_Getcont(), "cannot increment value-initialized map/set iterator");
; 195  :         _STL_VERIFY(!this->_Ptr->_Isnil, "cannot increment end map/set iterator");
; 196  : #endif // _ITERATOR_DEBUG_LEVEL == 2
; 197  : 
; 198  :         _Mybase::operator++();

  00003	e8 00 00 00 00	 call	 ??E?$_Tree_unchecked_const_iterator@V?$_Tree_val@U?$_Tree_simple_types@U?$pair@$$CBKUSPartyMemberInfo@CPythonPlayer@@@std@@@std@@@std@@U_Iterator_base0@2@@std@@QAEAAV01@XZ ; std::_Tree_unchecked_const_iterator<std::_Tree_val<std::_Tree_simple_types<std::pair<unsigned long const ,CPythonPlayer::SPartyMemberInfo> > >,std::_Iterator_base0>::operator++

; 199  :         return *this;

  00008	8b c6		 mov	 eax, esi
  0000a	5e		 pop	 esi

; 200  :     }

  0000b	c3		 ret	 0
??E?$_Tree_const_iterator@V?$_Tree_val@U?$_Tree_simple_types@U?$pair@$$CBKUSPartyMemberInfo@CPythonPlayer@@@std@@@std@@@std@@@std@@QAEAAV01@XZ ENDP ; std::_Tree_const_iterator<std::_Tree_val<std::_Tree_simple_types<std::pair<unsigned long const ,CPythonPlayer::SPartyMemberInfo> > > >::operator++
_TEXT	ENDS
; Function compile flags: /Ogtp
; File C:\Program Files\Microsoft Visual Studio\2022\Community\VC\Tools\MSVC\14.44.35207\include\xtree
;	COMDAT ?_Orphan_ptr@?$_Tree_val@U?$_Tree_simple_types@U?$pair@$$CBKUSPartyMemberInfo@CPythonPlayer@@@std@@@std@@@std@@QAEXQAU?$_Tree_node@U?$pair@$$CBKUSPartyMemberInfo@CPythonPlayer@@@std@@PAX@2@@Z
_TEXT	SEGMENT
__Ptr$dead$ = 8						; size = 4
?_Orphan_ptr@?$_Tree_val@U?$_Tree_simple_types@U?$pair@$$CBKUSPartyMemberInfo@CPythonPlayer@@@std@@@std@@@std@@QAEXQAU?$_Tree_node@U?$pair@$$CBKUSPartyMemberInfo@CPythonPlayer@@@std@@PAX@2@@Z PROC ; std::_Tree_val<std::_Tree_simple_types<std::pair<unsigned long const ,CPythonPlayer::SPartyMemberInfo> > >::_Orphan_ptr, COMDAT
; _this$dead$ = ecx

; 739  : #if _ITERATOR_DEBUG_LEVEL == 2
; 740  :         _Lockit _Lock(_LOCK_DEBUG);
; 741  :         _Iterator_base12** _Pnext = &this->_Myproxy->_Myfirstiter;
; 742  :         while (*_Pnext) {
; 743  :             const auto _Pnextptr = static_cast<const_iterator&>(**_Pnext)._Ptr;
; 744  :             if (_Pnextptr == _Myhead || (_Ptr != nullptr && _Pnextptr != _Ptr)) {
; 745  :                 _Pnext = &(*_Pnext)->_Mynextiter;
; 746  :             } else { // orphan the iterator
; 747  :                 (*_Pnext)->_Myproxy = nullptr;
; 748  :                 *_Pnext             = (*_Pnext)->_Mynextiter;
; 749  :             }
; 750  :         }
; 751  : #else // ^^^ _ITERATOR_DEBUG_LEVEL == 2 / _ITERATOR_DEBUG_LEVEL != 2 vvv
; 752  :         (void) _Ptr;
; 753  : #endif // ^^^ _ITERATOR_DEBUG_LEVEL != 2 ^^^
; 754  :     }

  00000	c2 04 00	 ret	 4
?_Orphan_ptr@?$_Tree_val@U?$_Tree_simple_types@U?$pair@$$CBKUSPartyMemberInfo@CPythonPlayer@@@std@@@std@@@std@@QAEXQAU?$_Tree_node@U?$pair@$$CBKUSPartyMemberInfo@CPythonPlayer@@@std@@PAX@2@@Z ENDP ; std::_Tree_val<std::_Tree_simple_types<std::pair<unsigned long const ,CPythonPlayer::SPartyMemberInfo> > >::_Orphan_ptr
_TEXT	ENDS
; Function compile flags: /Ogtp
; File C:\Program Files\Microsoft Visual Studio\2022\Community\VC\Tools\MSVC\14.44.35207\include\xtree
;	COMDAT ?_Get_scary@?$_Tree@V?$_Tmap_traits@KUSPartyMemberInfo@CPythonPlayer@@U?$less@K@std@@V?$allocator@U?$pair@$$CBKUSPartyMemberInfo@CPythonPlayer@@@std@@@4@$0A@@std@@@std@@IAEPAV?$_Tree_val@U?$_Tree_simple_types@U?$pair@$$CBKUSPartyMemberInfo@CPythonPlayer@@@std@@@std@@@2@XZ
_TEXT	SEGMENT
?_Get_scary@?$_Tree@V?$_Tmap_traits@KUSPartyMemberInfo@CPythonPlayer@@U?$less@K@std@@V?$allocator@U?$pair@$$CBKUSPartyMemberInfo@CPythonPlayer@@@std@@@4@$0A@@std@@@std@@IAEPAV?$_Tree_val@U?$_Tree_simple_types@U?$pair@$$CBKUSPartyMemberInfo@CPythonPlayer@@@std@@@std@@@2@XZ PROC ; std::_Tree<std::_Tmap_traits<unsigned long,CPythonPlayer::SPartyMemberInfo,std::less<unsigned long>,std::allocator<std::pair<unsigned long const ,CPythonPlayer::SPartyMemberInfo> >,0> >::_Get_scary, COMDAT
; _this$ = ecx

; 1983 :         return _STD addressof(_Mypair._Myval2._Myval2);

  00000	8b c1		 mov	 eax, ecx

; 1984 :     }

  00002	c3		 ret	 0
?_Get_scary@?$_Tree@V?$_Tmap_traits@KUSPartyMemberInfo@CPythonPlayer@@U?$less@K@std@@V?$allocator@U?$pair@$$CBKUSPartyMemberInfo@CPythonPlayer@@@std@@@4@$0A@@std@@@std@@IAEPAV?$_Tree_val@U?$_Tree_simple_types@U?$pair@$$CBKUSPartyMemberInfo@CPythonPlayer@@@std@@@std@@@2@XZ ENDP ; std::_Tree<std::_Tmap_traits<unsigned long,CPythonPlayer::SPartyMemberInfo,std::less<unsigned long>,std::allocator<std::pair<unsigned long const ,CPythonPlayer::SPartyMemberInfo> >,0> >::_Get_scary
_TEXT	ENDS
; Function compile flags: /Ogtp
; File C:\Program Files\Microsoft Visual Studio\2022\Community\VC\Tools\MSVC\14.44.35207\include\xtree
;	COMDAT ?_Getal@?$_Tree@V?$_Tmap_traits@KUSPartyMemberInfo@CPythonPlayer@@U?$less@K@std@@V?$allocator@U?$pair@$$CBKUSPartyMemberInfo@CPythonPlayer@@@std@@@4@$0A@@std@@@std@@IAEAAV?$allocator@U?$_Tree_node@U?$pair@$$CBKUSPartyMemberInfo@CPythonPlayer@@@std@@PAX@std@@@2@XZ
_TEXT	SEGMENT
?_Getal@?$_Tree@V?$_Tmap_traits@KUSPartyMemberInfo@CPythonPlayer@@U?$less@K@std@@V?$allocator@U?$pair@$$CBKUSPartyMemberInfo@CPythonPlayer@@@std@@@4@$0A@@std@@@std@@IAEAAV?$allocator@U?$_Tree_node@U?$pair@$$CBKUSPartyMemberInfo@CPythonPlayer@@@std@@PAX@std@@@2@XZ PROC ; std::_Tree<std::_Tmap_traits<unsigned long,CPythonPlayer::SPartyMemberInfo,std::less<unsigned long>,std::allocator<std::pair<unsigned long const ,CPythonPlayer::SPartyMemberInfo> >,0> >::_Getal, COMDAT
; _this$ = ecx

; 1975 :         return _Mypair._Myval2._Get_first();

  00000	8b c1		 mov	 eax, ecx

; 1976 :     }

  00002	c3		 ret	 0
?_Getal@?$_Tree@V?$_Tmap_traits@KUSPartyMemberInfo@CPythonPlayer@@U?$less@K@std@@V?$allocator@U?$pair@$$CBKUSPartyMemberInfo@CPythonPlayer@@@std@@@4@$0A@@std@@@std@@IAEAAV?$allocator@U?$_Tree_node@U?$pair@$$CBKUSPartyMemberInfo@CPythonPlayer@@@std@@PAX@std@@@2@XZ ENDP ; std::_Tree<std::_Tmap_traits<unsigned long,CPythonPlayer::SPartyMemberInfo,std::less<unsigned long>,std::allocator<std::pair<unsigned long const ,CPythonPlayer::SPartyMemberInfo> >,0> >::_Getal
_TEXT	ENDS
; Function compile flags: /Ogtp
; File C:\Program Files\Microsoft Visual Studio\2022\Community\VC\Tools\MSVC\14.44.35207\include\xtree
; File C:\Program Files\Microsoft Visual Studio\2022\Community\VC\Tools\MSVC\14.44.35207\include\xutility
; File C:\Program Files\Microsoft Visual Studio\2022\Community\VC\Tools\MSVC\14.44.35207\include\xtree
; File C:\Program Files\Microsoft Visual Studio\2022\Community\VC\Tools\MSVC\14.44.35207\include\xutility
; File C:\Program Files\Microsoft Visual Studio\2022\Community\VC\Tools\MSVC\14.44.35207\include\xtree
; File C:\Program Files\Microsoft Visual Studio\2022\Community\VC\Tools\MSVC\14.44.35207\include\xutility
; File C:\Program Files\Microsoft Visual Studio\2022\Community\VC\Tools\MSVC\14.44.35207\include\xtree
; File C:\Program Files\Microsoft Visual Studio\2022\Community\VC\Tools\MSVC\14.44.35207\include\xutility
; File C:\Program Files\Microsoft Visual Studio\2022\Community\VC\Tools\MSVC\14.44.35207\include\xtree
; File C:\Program Files\Microsoft Visual Studio\2022\Community\VC\Tools\MSVC\14.44.35207\include\xutility
; File C:\Program Files\Microsoft Visual Studio\2022\Community\VC\Tools\MSVC\14.44.35207\include\xtree
; File C:\Program Files\Microsoft Visual Studio\2022\Community\VC\Tools\MSVC\14.44.35207\include\xstring
; File C:\Program Files\Microsoft Visual Studio\2022\Community\VC\Tools\MSVC\14.44.35207\include\xmemory
; File C:\Program Files\Microsoft Visual Studio\2022\Community\VC\Tools\MSVC\14.44.35207\include\xtree
; File C:\Program Files\Microsoft Visual Studio\2022\Community\VC\Tools\MSVC\14.44.35207\include\xmemory
; File C:\Program Files\Microsoft Visual Studio\2022\Community\VC\Tools\MSVC\14.44.35207\include\xtree
;	COMDAT ?_Erase@?$_Tree@V?$_Tmap_traits@KUSPartyMemberInfo@CPythonPlayer@@U?$less@K@std@@V?$allocator@U?$pair@$$CBKUSPartyMemberInfo@CPythonPlayer@@@std@@@4@$0A@@std@@@std@@AAEIU?$pair@PAU?$_Tree_node@U?$pair@$$CBKUSPartyMemberInfo@CPythonPlayer@@@std@@PAX@std@@PAU12@@2@@Z
_TEXT	SEGMENT
__First$ = -12						; size = 4
_this$1$ = -8						; size = 4
__Off$1$ = -4						; size = 4
__Where$ = 8						; size = 8
?_Erase@?$_Tree@V?$_Tmap_traits@KUSPartyMemberInfo@CPythonPlayer@@U?$less@K@std@@V?$allocator@U?$pair@$$CBKUSPartyMemberInfo@CPythonPlayer@@@std@@@4@$0A@@std@@@std@@AAEIU?$pair@PAU?$_Tree_node@U?$pair@$$CBKUSPartyMemberInfo@CPythonPlayer@@@std@@PAX@std@@PAU12@@2@@Z PROC ; std::_Tree<std::_Tmap_traits<unsigned long,CPythonPlayer::SPartyMemberInfo,std::less<unsigned long>,std::allocator<std::pair<unsigned long const ,CPythonPlayer::SPartyMemberInfo> >,0> >::_Erase, COMDAT
; _this$ = ecx

; 1325 :     size_type _Erase(const pair<_Nodeptr, _Nodeptr> _Where) noexcept {

  00000	55		 push	 ebp
  00001	8b ec		 mov	 ebp, esp
  00003	83 ec 0c	 sub	 esp, 12			; 0000000cH
  00006	53		 push	 ebx
  00007	56		 push	 esi
; File C:\Program Files\Microsoft Visual Studio\2022\Community\VC\Tools\MSVC\14.44.35207\include\xutility

; 1667 :         _Iter_diff_t<_InIt> _Off = 0;

  00008	8b 75 0c	 mov	 esi, DWORD PTR __Where$[ebp+4]
; File C:\Program Files\Microsoft Visual Studio\2022\Community\VC\Tools\MSVC\14.44.35207\include\xtree

; 1325 :     size_type _Erase(const pair<_Nodeptr, _Nodeptr> _Where) noexcept {

  0000b	8b d1		 mov	 edx, ecx
  0000d	57		 push	 edi
; File C:\Program Files\Microsoft Visual Studio\2022\Community\VC\Tools\MSVC\14.44.35207\include\xutility

; 1665 :         auto _UFirst             = _STD _Get_unwrapped(_First);

  0000e	8b 7d 08	 mov	 edi, DWORD PTR __Where$[ebp]

; 1667 :         _Iter_diff_t<_InIt> _Off = 0;

  00011	33 c9		 xor	 ecx, ecx
  00013	8b c7		 mov	 eax, edi
; File C:\Program Files\Microsoft Visual Studio\2022\Community\VC\Tools\MSVC\14.44.35207\include\xtree

; 1325 :     size_type _Erase(const pair<_Nodeptr, _Nodeptr> _Where) noexcept {

  00015	89 55 f8	 mov	 DWORD PTR _this$1$[ebp], edx
; File C:\Program Files\Microsoft Visual Studio\2022\Community\VC\Tools\MSVC\14.44.35207\include\xutility

; 1667 :         _Iter_diff_t<_InIt> _Off = 0;

  00018	89 4d fc	 mov	 DWORD PTR __Off$1$[ebp], ecx
  0001b	3b c6		 cmp	 eax, esi

; 1668 :         for (; _UFirst != _ULast; ++_UFirst) {

  0001d	74 4f		 je	 SHORT $LN12@Erase
  0001f	33 ff		 xor	 edi, edi
$LL13@Erase:
; File C:\Program Files\Microsoft Visual Studio\2022\Community\VC\Tools\MSVC\14.44.35207\include\xtree

; 50   :         if (_Ptr->_Right->_Isnil) { // climb looking for right subtree

  00021	8b 48 08	 mov	 ecx, DWORD PTR [eax+8]
; File C:\Program Files\Microsoft Visual Studio\2022\Community\VC\Tools\MSVC\14.44.35207\include\xutility

; 1669 :             ++_Off;

  00024	47		 inc	 edi
; File C:\Program Files\Microsoft Visual Studio\2022\Community\VC\Tools\MSVC\14.44.35207\include\xtree

; 50   :         if (_Ptr->_Right->_Isnil) { // climb looking for right subtree

  00025	80 79 0d 00	 cmp	 BYTE PTR [ecx+13], 0
  00029	74 1d		 je	 SHORT $LN18@Erase

; 51   :             _Nodeptr _Pnode;
; 52   :             while (!(_Pnode = _Ptr->_Parent)->_Isnil && _Ptr == _Pnode->_Right) {

  0002b	8b 48 04	 mov	 ecx, DWORD PTR [eax+4]
  0002e	80 79 0d 00	 cmp	 BYTE PTR [ecx+13], 0
  00032	75 10		 jne	 SHORT $LN144@Erase
$LL16@Erase:
  00034	3b 41 08	 cmp	 eax, DWORD PTR [ecx+8]
  00037	75 0b		 jne	 SHORT $LN144@Erase

; 53   :                 _Ptr = _Pnode; // ==> parent while right subtree

  00039	8b c1		 mov	 eax, ecx
  0003b	8b 49 04	 mov	 ecx, DWORD PTR [ecx+4]
  0003e	80 79 0d 00	 cmp	 BYTE PTR [ecx+13], 0
  00042	74 f0		 je	 SHORT $LL16@Erase
$LN144@Erase:

; 54   :             }
; 55   : 
; 56   :             _Ptr = _Pnode; // ==> parent (head if end())

  00044	8b c1		 mov	 eax, ecx

; 57   :         } else {

  00046	eb 16		 jmp	 SHORT $LN24@Erase
$LN18@Erase:

; 58   :             _Ptr = _Mytree::_Min(_Ptr->_Right); // ==> smallest of right subtree

  00048	8b c1		 mov	 eax, ecx

; 476  :         while (!_Pnode->_Left->_Isnil) {

  0004a	8b 10		 mov	 edx, DWORD PTR [eax]
  0004c	80 7a 0d 00	 cmp	 BYTE PTR [edx+13], 0
  00050	75 0c		 jne	 SHORT $LN24@Erase
$LL23@Erase:
  00052	8b 0a		 mov	 ecx, DWORD PTR [edx]

; 477  :             _Pnode = _Pnode->_Left;

  00054	8b c2		 mov	 eax, edx
  00056	8b d1		 mov	 edx, ecx
  00058	80 79 0d 00	 cmp	 BYTE PTR [ecx+13], 0
  0005c	74 f4		 je	 SHORT $LL23@Erase
$LN24@Erase:

; 96   :         return _Ptr == _Right._Ptr;

  0005e	3b c6		 cmp	 eax, esi
; File C:\Program Files\Microsoft Visual Studio\2022\Community\VC\Tools\MSVC\14.44.35207\include\xutility

; 1668 :         for (; _UFirst != _ULast; ++_UFirst) {

  00060	75 bf		 jne	 SHORT $LL13@Erase
  00062	8b 55 f8	 mov	 edx, DWORD PTR _this$1$[ebp]
  00065	89 7d fc	 mov	 DWORD PTR __Off$1$[ebp], edi
  00068	8b 7d 08	 mov	 edi, DWORD PTR __Where$[ebp]
  0006b	8b 4d fc	 mov	 ecx, DWORD PTR __Off$1$[ebp]
$LN12@Erase:
; File C:\Program Files\Microsoft Visual Studio\2022\Community\VC\Tools\MSVC\14.44.35207\include\xtree

; 1161 :         return _Unchecked_iterator(_Get_scary()->_Myhead->_Left, nullptr);

  0006e	8b 1a		 mov	 ebx, DWORD PTR [edx]

; 1326 :         const _Unchecked_const_iterator _First(_Where.first, nullptr);
; 1327 :         const _Unchecked_const_iterator _Last(_Where.second, nullptr);
; 1328 :         const auto _Num = static_cast<size_type>(_STD distance(_First, _Last));
; 1329 :         _Erase_unchecked(_First, _Last);

  00070	89 7d f4	 mov	 DWORD PTR __First$[ebp], edi

; 96   :         return _Ptr == _Right._Ptr;

  00073	3b 3b		 cmp	 edi, DWORD PTR [ebx]

; 1311 :         if (_First == _Begin && _Last._Ptr->_Isnil) {

  00075	75 2f		 jne	 SHORT $LN128@Erase
  00077	80 7e 0d 00	 cmp	 BYTE PTR [esi+13], 0
  0007b	74 29		 je	 SHORT $LN128@Erase

; 1374 :         _Scary->_Erase_tree(_Getal(), _Head->_Parent);

  0007d	ff 73 04	 push	 DWORD PTR [ebx+4]
  00080	8b ca		 mov	 ecx, edx
  00082	52		 push	 edx
  00083	e8 00 00 00 00	 call	 ??$_Erase_tree@V?$allocator@U?$_Tree_node@U?$pair@$$CBKUSPartyMemberInfo@CPythonPlayer@@@std@@PAX@std@@@std@@@?$_Tree_val@U?$_Tree_simple_types@U?$pair@$$CBKUSPartyMemberInfo@CPythonPlayer@@@std@@@std@@@std@@QAEXAAV?$allocator@U?$_Tree_node@U?$pair@$$CBKUSPartyMemberInfo@CPythonPlayer@@@std@@PAX@std@@@1@PAU?$_Tree_node@U?$pair@$$CBKUSPartyMemberInfo@CPythonPlayer@@@std@@PAX@1@@Z ; std::_Tree_val<std::_Tree_simple_types<std::pair<unsigned long const ,CPythonPlayer::SPartyMemberInfo> > >::_Erase_tree<std::allocator<std::_Tree_node<std::pair<unsigned long const ,CPythonPlayer::SPartyMemberInfo>,void *> > >

; 1330 :         return _Num;

  00088	8b 45 fc	 mov	 eax, DWORD PTR __Off$1$[ebp]

; 1375 :         _Head->_Parent  = _Head;

  0008b	89 5b 04	 mov	 DWORD PTR [ebx+4], ebx

; 1376 :         _Head->_Left    = _Head;

  0008e	89 1b		 mov	 DWORD PTR [ebx], ebx

; 1377 :         _Head->_Right   = _Head;

  00090	89 5b 08	 mov	 DWORD PTR [ebx+8], ebx

; 1378 :         _Scary->_Mysize = 0;

  00093	8b 5d f8	 mov	 ebx, DWORD PTR _this$1$[ebp]
  00096	5f		 pop	 edi

; 1331 :     }

  00097	5e		 pop	 esi

; 1378 :         _Scary->_Mysize = 0;

  00098	c7 43 04 00 00
	00 00		 mov	 DWORD PTR [ebx+4], 0

; 1331 :     }

  0009f	5b		 pop	 ebx
  000a0	8b e5		 mov	 esp, ebp
  000a2	5d		 pop	 ebp
  000a3	c2 08 00	 ret	 8
$LN128@Erase:

; 96   :         return _Ptr == _Right._Ptr;

  000a6	3b fe		 cmp	 edi, esi

; 1318 :         while (_First != _Last) {

  000a8	74 3e		 je	 SHORT $LN143@Erase
  000aa	8b 5d f8	 mov	 ebx, DWORD PTR _this$1$[ebp]
  000ad	0f 1f 00	 npad	 3
$LL31@Erase:

; 66   :         ++*this;

  000b0	8d 4d f4	 lea	 ecx, DWORD PTR __First$[ebp]
  000b3	e8 00 00 00 00	 call	 ??E?$_Tree_unchecked_const_iterator@V?$_Tree_val@U?$_Tree_simple_types@U?$pair@$$CBKUSPartyMemberInfo@CPythonPlayer@@@std@@@std@@@std@@U_Iterator_base0@2@@std@@QAEAAV01@XZ ; std::_Tree_unchecked_const_iterator<std::_Tree_val<std::_Tree_simple_types<std::pair<unsigned long const ,CPythonPlayer::SPartyMemberInfo> > >,std::_Iterator_base0>::operator++

; 1303 :         _Nodeptr _Erasednode = _Scary->_Extract(_Where); // node to erase

  000b8	57		 push	 edi
  000b9	8b cb		 mov	 ecx, ebx
  000bb	e8 00 00 00 00	 call	 ?_Extract@?$_Tree_val@U?$_Tree_simple_types@U?$pair@$$CBKUSPartyMemberInfo@CPythonPlayer@@@std@@@std@@@std@@QAEPAU?$_Tree_node@U?$pair@$$CBKUSPartyMemberInfo@CPythonPlayer@@@std@@PAX@2@V?$_Tree_unchecked_const_iterator@V?$_Tree_val@U?$_Tree_simple_types@U?$pair@$$CBKUSPartyMemberInfo@CPythonPlayer@@@std@@@std@@@std@@U_Iterator_base0@2@@2@@Z ; std::_Tree_val<std::_Tree_simple_types<std::pair<unsigned long const ,CPythonPlayer::SPartyMemberInfo> > >::_Extract
  000c0	8b f8		 mov	 edi, eax

; 381  :         allocator_traits<_Alloc>::destroy(_Al, _STD addressof(_Ptr->_Myval));

  000c2	8d 4f 1c	 lea	 ecx, DWORD PTR [edi+28]
; File C:\Program Files\Microsoft Visual Studio\2022\Community\VC\Tools\MSVC\14.44.35207\include\xstring

; 1383 :         _Tidy_deallocate();

  000c5	e8 00 00 00 00	 call	 ?_Tidy_deallocate@?$basic_string@DU?$char_traits@D@std@@V?$allocator@D@2@@std@@AAEXXZ ; std::basic_string<char,std::char_traits<char>,std::allocator<char> >::_Tidy_deallocate
; File C:\Program Files\Microsoft Visual Studio\2022\Community\VC\Tools\MSVC\14.44.35207\include\xmemory

; 289  :         ::operator delete(_Ptr, _Bytes);

  000ca	6a 44		 push	 68			; 00000044H
  000cc	57		 push	 edi
  000cd	e8 00 00 00 00	 call	 ??3@YAXPAXI@Z		; operator delete
; File C:\Program Files\Microsoft Visual Studio\2022\Community\VC\Tools\MSVC\14.44.35207\include\xtree

; 96   :         return _Ptr == _Right._Ptr;

  000d2	8b 7d f4	 mov	 edi, DWORD PTR __First$[ebp]
; File C:\Program Files\Microsoft Visual Studio\2022\Community\VC\Tools\MSVC\14.44.35207\include\xmemory

; 289  :         ::operator delete(_Ptr, _Bytes);

  000d5	83 c4 08	 add	 esp, 8
; File C:\Program Files\Microsoft Visual Studio\2022\Community\VC\Tools\MSVC\14.44.35207\include\xtree

; 96   :         return _Ptr == _Right._Ptr;

  000d8	3b fe		 cmp	 edi, esi

; 1318 :         while (_First != _Last) {

  000da	75 d4		 jne	 SHORT $LL31@Erase

; 1331 :     }

  000dc	8b 45 fc	 mov	 eax, DWORD PTR __Off$1$[ebp]
  000df	5f		 pop	 edi
  000e0	5e		 pop	 esi
  000e1	5b		 pop	 ebx
  000e2	8b e5		 mov	 esp, ebp
  000e4	5d		 pop	 ebp
  000e5	c2 08 00	 ret	 8
$LN143@Erase:
  000e8	5f		 pop	 edi
  000e9	5e		 pop	 esi
  000ea	8b c1		 mov	 eax, ecx
  000ec	5b		 pop	 ebx
  000ed	8b e5		 mov	 esp, ebp
  000ef	5d		 pop	 ebp
  000f0	c2 08 00	 ret	 8
?_Erase@?$_Tree@V?$_Tmap_traits@KUSPartyMemberInfo@CPythonPlayer@@U?$less@K@std@@V?$allocator@U?$pair@$$CBKUSPartyMemberInfo@CPythonPlayer@@@std@@@4@$0A@@std@@@std@@AAEIU?$pair@PAU?$_Tree_node@U?$pair@$$CBKUSPartyMemberInfo@CPythonPlayer@@@std@@PAX@std@@PAU12@@2@@Z ENDP ; std::_Tree<std::_Tmap_traits<unsigned long,CPythonPlayer::SPartyMemberInfo,std::less<unsigned long>,std::allocator<std::pair<unsigned long const ,CPythonPlayer::SPartyMemberInfo> >,0> >::_Erase
_TEXT	ENDS
; Function compile flags: /Ogtp
; File C:\Program Files\Microsoft Visual Studio\2022\Community\VC\Tools\MSVC\14.44.35207\include\xtree
;	COMDAT ??0?$_Tree@V?$_Tmap_traits@KUSPartyMemberInfo@CPythonPlayer@@U?$less@K@std@@V?$allocator@U?$pair@$$CBKUSPartyMemberInfo@CPythonPlayer@@@std@@@4@$0A@@std@@@std@@QAE@ABU?$less@K@1@@Z
_TEXT	SEGMENT
__Parg$dead$ = 8					; size = 4
??0?$_Tree@V?$_Tmap_traits@KUSPartyMemberInfo@CPythonPlayer@@U?$less@K@std@@V?$allocator@U?$pair@$$CBKUSPartyMemberInfo@CPythonPlayer@@@std@@@4@$0A@@std@@@std@@QAE@ABU?$less@K@1@@Z PROC ; std::_Tree<std::_Tmap_traits<unsigned long,CPythonPlayer::SPartyMemberInfo,std::less<unsigned long>,std::allocator<std::pair<unsigned long const ,CPythonPlayer::SPartyMemberInfo> >,0> >::_Tree<std::_Tmap_traits<unsigned long,CPythonPlayer::SPartyMemberInfo,std::less<unsigned long>,std::allocator<std::pair<unsigned long const ,CPythonPlayer::SPartyMemberInfo> >,0> >, COMDAT
; _this$ = ecx

; 904  :     _Tree(const key_compare& _Parg) : _Mypair(_One_then_variadic_args_t{}, _Parg, _Zero_then_variadic_args_t{}) {

  00000	56		 push	 esi
  00001	8b f1		 mov	 esi, ecx

; 345  :         const auto _Pnode = _Al.allocate(1);

  00003	6a 44		 push	 68			; 00000044H

; 450  :     _Tree_val() noexcept : _Myhead(), _Mysize(0) {}

  00005	c7 06 00 00 00
	00		 mov	 DWORD PTR [esi], 0
  0000b	c7 46 04 00 00
	00 00		 mov	 DWORD PTR [esi+4], 0

; 345  :         const auto _Pnode = _Al.allocate(1);

  00012	e8 00 00 00 00	 call	 ??2@YAPAXI@Z		; operator new
  00017	83 c4 04	 add	 esp, 4

; 346  :         _Construct_in_place(_Pnode->_Left, _Pnode);

  0001a	89 00		 mov	 DWORD PTR [eax], eax

; 347  :         _Construct_in_place(_Pnode->_Parent, _Pnode);

  0001c	89 40 04	 mov	 DWORD PTR [eax+4], eax

; 348  :         _Construct_in_place(_Pnode->_Right, _Pnode);

  0001f	89 40 08	 mov	 DWORD PTR [eax+8], eax

; 349  :         _Pnode->_Color = _Black;

  00022	66 c7 40 0c 01
	01		 mov	 WORD PTR [eax+12], 257	; 00000101H

; 1957 :         _Scary->_Myhead = _Node::_Buyheadnode(_Getal());

  00028	89 06		 mov	 DWORD PTR [esi], eax

; 905  :         _Alloc_sentinel_and_proxy();
; 906  :     }

  0002a	8b c6		 mov	 eax, esi
  0002c	5e		 pop	 esi
  0002d	c2 04 00	 ret	 4
??0?$_Tree@V?$_Tmap_traits@KUSPartyMemberInfo@CPythonPlayer@@U?$less@K@std@@V?$allocator@U?$pair@$$CBKUSPartyMemberInfo@CPythonPlayer@@@std@@@4@$0A@@std@@@std@@QAE@ABU?$less@K@1@@Z ENDP ; std::_Tree<std::_Tmap_traits<unsigned long,CPythonPlayer::SPartyMemberInfo,std::less<unsigned long>,std::allocator<std::pair<unsigned long const ,CPythonPlayer::SPartyMemberInfo> >,0> >::_Tree<std::_Tmap_traits<unsigned long,CPythonPlayer::SPartyMemberInfo,std::less<unsigned long>,std::allocator<std::pair<unsigned long const ,CPythonPlayer::SPartyMemberInfo> >,0> >
_TEXT	ENDS
; Function compile flags: /Ogtp
; File C:\Program Files\Microsoft Visual Studio\2022\Community\VC\Tools\MSVC\14.44.35207\include\map
;	COMDAT ??$_Kfn@$$CBKUSPartyMemberInfo@CPythonPlayer@@@?$_Tmap_traits@KUSPartyMemberInfo@CPythonPlayer@@U?$less@K@std@@V?$allocator@U?$pair@$$CBKUSPartyMemberInfo@CPythonPlayer@@@std@@@4@$0A@@std@@SAABKABU?$pair@$$CBKUSPartyMemberInfo@CPythonPlayer@@@1@@Z
_TEXT	SEGMENT
??$_Kfn@$$CBKUSPartyMemberInfo@CPythonPlayer@@@?$_Tmap_traits@KUSPartyMemberInfo@CPythonPlayer@@U?$less@K@std@@V?$allocator@U?$pair@$$CBKUSPartyMemberInfo@CPythonPlayer@@@std@@@4@$0A@@std@@SAABKABU?$pair@$$CBKUSPartyMemberInfo@CPythonPlayer@@@1@@Z PROC ; std::_Tmap_traits<unsigned long,CPythonPlayer::SPartyMemberInfo,std::less<unsigned long>,std::allocator<std::pair<unsigned long const ,CPythonPlayer::SPartyMemberInfo> >,0>::_Kfn<unsigned long const ,CPythonPlayer::SPartyMemberInfo>, COMDAT
; __Val$ = ecx

; 67   :         return _Val.first;

  00000	8b c1		 mov	 eax, ecx

; 68   :     }

  00002	c3		 ret	 0
??$_Kfn@$$CBKUSPartyMemberInfo@CPythonPlayer@@@?$_Tmap_traits@KUSPartyMemberInfo@CPythonPlayer@@U?$less@K@std@@V?$allocator@U?$pair@$$CBKUSPartyMemberInfo@CPythonPlayer@@@std@@@4@$0A@@std@@SAABKABU?$pair@$$CBKUSPartyMemberInfo@CPythonPlayer@@@1@@Z ENDP ; std::_Tmap_traits<unsigned long,CPythonPlayer::SPartyMemberInfo,std::less<unsigned long>,std::allocator<std::pair<unsigned long const ,CPythonPlayer::SPartyMemberInfo> >,0>::_Kfn<unsigned long const ,CPythonPlayer::SPartyMemberInfo>
_TEXT	ENDS
; Function compile flags: /Ogtp
; File C:\Program Files\Microsoft Visual Studio\2022\Community\VC\Tools\MSVC\14.44.35207\include\utility
;	COMDAT ??$?0AAPAU?$_Tree_node@U?$pair@$$CBKUSPartyMemberInfo@CPythonPlayer@@@std@@PAX@std@@AAPAU01@$0A@@?$pair@PAU?$_Tree_node@U?$pair@$$CBKUSPartyMemberInfo@CPythonPlayer@@@std@@PAX@std@@PAU12@@std@@QAE@AAPAU?$_Tree_node@U?$pair@$$CBKUSPartyMemberInfo@CPythonPlayer@@@std@@PAX@1@0@Z
_TEXT	SEGMENT
__Val1$ = 8						; size = 4
__Val2$ = 12						; size = 4
??$?0AAPAU?$_Tree_node@U?$pair@$$CBKUSPartyMemberInfo@CPythonPlayer@@@std@@PAX@std@@AAPAU01@$0A@@?$pair@PAU?$_Tree_node@U?$pair@$$CBKUSPartyMemberInfo@CPythonPlayer@@@std@@PAX@std@@PAU12@@std@@QAE@AAPAU?$_Tree_node@U?$pair@$$CBKUSPartyMemberInfo@CPythonPlayer@@@std@@PAX@1@0@Z PROC ; std::pair<std::_Tree_node<std::pair<unsigned long const ,CPythonPlayer::SPartyMemberInfo>,void *> *,std::_Tree_node<std::pair<unsigned long const ,CPythonPlayer::SPartyMemberInfo>,void *> *>::pair<std::_Tree_node<std::pair<unsigned long const ,CPythonPlayer::SPartyMemberInfo>,void *> *,std::_Tree_node<std::pair<unsigned long const ,CPythonPlayer::SPartyMemberInfo>,void *> *><std::_Tree_node<std::pair<unsigned long const ,CPythonPlayer::SPartyMemberInfo>,void *> * &,std::_Tree_node<std::pair<unsigned long const ,CPythonPlayer::SPartyMemberInfo>,void *> * &,0>, COMDAT
; _this$ = ecx

; 274  :         : first(_STD forward<_Other1>(_Val1)), second(_STD forward<_Other2>(_Val2)) {

  00000	55		 push	 ebp
  00001	8b ec		 mov	 ebp, esp
  00003	8b 45 08	 mov	 eax, DWORD PTR __Val1$[ebp]
  00006	8b 00		 mov	 eax, DWORD PTR [eax]
  00008	89 01		 mov	 DWORD PTR [ecx], eax
  0000a	8b 45 0c	 mov	 eax, DWORD PTR __Val2$[ebp]
  0000d	8b 00		 mov	 eax, DWORD PTR [eax]
  0000f	89 41 04	 mov	 DWORD PTR [ecx+4], eax

; 275  :     }

  00012	8b c1		 mov	 eax, ecx
  00014	5d		 pop	 ebp
  00015	c2 08 00	 ret	 8
??$?0AAPAU?$_Tree_node@U?$pair@$$CBKUSPartyMemberInfo@CPythonPlayer@@@std@@PAX@std@@AAPAU01@$0A@@?$pair@PAU?$_Tree_node@U?$pair@$$CBKUSPartyMemberInfo@CPythonPlayer@@@std@@PAX@std@@PAU12@@std@@QAE@AAPAU?$_Tree_node@U?$pair@$$CBKUSPartyMemberInfo@CPythonPlayer@@@std@@PAX@1@0@Z ENDP ; std::pair<std::_Tree_node<std::pair<unsigned long const ,CPythonPlayer::SPartyMemberInfo>,void *> *,std::_Tree_node<std::pair<unsigned long const ,CPythonPlayer::SPartyMemberInfo>,void *> *>::pair<std::_Tree_node<std::pair<unsigned long const ,CPythonPlayer::SPartyMemberInfo>,void *> *,std::_Tree_node<std::pair<unsigned long const ,CPythonPlayer::SPartyMemberInfo>,void *> *><std::_Tree_node<std::pair<unsigned long const ,CPythonPlayer::SPartyMemberInfo>,void *> * &,std::_Tree_node<std::pair<unsigned long const ,CPythonPlayer::SPartyMemberInfo>,void *> * &,0>
_TEXT	ENDS
; Function compile flags: /Ogtp
; File C:\Program Files\Microsoft Visual Studio\2022\Community\VC\Tools\MSVC\14.44.35207\include\xtree
; File C:\Program Files\Microsoft Visual Studio\2022\Community\VC\Tools\MSVC\14.44.35207\include\type_traits
; File C:\Program Files\Microsoft Visual Studio\2022\Community\VC\Tools\MSVC\14.44.35207\include\xtree
; File C:\Program Files\Microsoft Visual Studio\2022\Community\VC\Tools\MSVC\14.44.35207\include\utility
; File C:\Program Files\Microsoft Visual Studio\2022\Community\VC\Tools\MSVC\14.44.35207\include\xtree
; File C:\Program Files\Microsoft Visual Studio\2022\Community\VC\Tools\MSVC\14.44.35207\include\xmemory
; File C:\Program Files\Microsoft Visual Studio\2022\Community\VC\Tools\MSVC\14.44.35207\include\xtree
; File C:\Program Files\Microsoft Visual Studio\2022\Community\VC\Tools\MSVC\14.44.35207\include\xmemory
; File C:\Program Files\Microsoft Visual Studio\2022\Community\VC\Tools\MSVC\14.44.35207\include\utility
; File C:\Program Files\Microsoft Visual Studio\2022\Community\VC\Tools\MSVC\14.44.35207\include\xtree
; File C:\Program Files\Microsoft Visual Studio\2022\Community\VC\Tools\MSVC\14.44.35207\include\utility
; File C:\Program Files\Microsoft Visual Studio\2022\Community\VC\Tools\MSVC\14.44.35207\include\xtree
; File C:\Program Files\Microsoft Visual Studio\2022\Community\VC\Tools\MSVC\14.44.35207\include\utility
; File C:\Program Files\Microsoft Visual Studio\2022\Community\VC\Tools\MSVC\14.44.35207\include\xtree
;	COMDAT ??$_Emplace@U?$pair@KUSPartyMemberInfo@CPythonPlayer@@@std@@@?$_Tree@V?$_Tmap_traits@KUSPartyMemberInfo@CPythonPlayer@@U?$less@K@std@@V?$allocator@U?$pair@$$CBKUSPartyMemberInfo@CPythonPlayer@@@std@@@4@$0A@@std@@@std@@IAE?AU?$pair@PAU?$_Tree_node@U?$pair@$$CBKUSPartyMemberInfo@CPythonPlayer@@@std@@PAX@std@@_N@1@$$QAU?$pair@KUSPartyMemberInfo@CPythonPlayer@@@1@@Z
_TEXT	SEGMENT
__Loc$ = -36						; size = 12
$T2 = -24						; size = 12
$T3 = -20						; size = 8
__$EHRec$ = -12						; size = 12
___$ReturnUdt$ = 8					; size = 4
_<_Vals_0>$ = 12					; size = 4
??$_Emplace@U?$pair@KUSPartyMemberInfo@CPythonPlayer@@@std@@@?$_Tree@V?$_Tmap_traits@KUSPartyMemberInfo@CPythonPlayer@@U?$less@K@std@@V?$allocator@U?$pair@$$CBKUSPartyMemberInfo@CPythonPlayer@@@std@@@4@$0A@@std@@@std@@IAE?AU?$pair@PAU?$_Tree_node@U?$pair@$$CBKUSPartyMemberInfo@CPythonPlayer@@@std@@PAX@std@@_N@1@$$QAU?$pair@KUSPartyMemberInfo@CPythonPlayer@@@1@@Z PROC ; std::_Tree<std::_Tmap_traits<unsigned long,CPythonPlayer::SPartyMemberInfo,std::less<unsigned long>,std::allocator<std::pair<unsigned long const ,CPythonPlayer::SPartyMemberInfo> >,0> >::_Emplace<std::pair<unsigned long,CPythonPlayer::SPartyMemberInfo> >, COMDAT
; _this$ = ecx

; 1010 :     pair<_Nodeptr, bool> _Emplace(_Valtys&&... _Vals) {

  00000	55		 push	 ebp
  00001	8b ec		 mov	 ebp, esp
  00003	6a ff		 push	 -1
  00005	68 00 00 00 00	 push	 __ehhandler$??$_Emplace@U?$pair@KUSPartyMemberInfo@CPythonPlayer@@@std@@@?$_Tree@V?$_Tmap_traits@KUSPartyMemberInfo@CPythonPlayer@@U?$less@K@std@@V?$allocator@U?$pair@$$CBKUSPartyMemberInfo@CPythonPlayer@@@std@@@4@$0A@@std@@@std@@IAE?AU?$pair@PAU?$_Tree_node@U?$pair@$$CBKUSPartyMemberInfo@CPythonPlayer@@@std@@PAX@std@@_N@1@$$QAU?$pair@KUSPartyMemberInfo@CPythonPlayer@@@1@@Z
  0000a	64 a1 00 00 00
	00		 mov	 eax, DWORD PTR fs:0
  00010	50		 push	 eax
  00011	83 ec 1c	 sub	 esp, 28			; 0000001cH
  00014	53		 push	 ebx
  00015	56		 push	 esi
  00016	57		 push	 edi
  00017	a1 00 00 00 00	 mov	 eax, DWORD PTR ___security_cookie
  0001c	33 c5		 xor	 eax, ebp
  0001e	50		 push	 eax
  0001f	8d 45 f4	 lea	 eax, DWORD PTR __$EHRec$[ebp]
  00022	64 a3 00 00 00
	00		 mov	 DWORD PTR fs:0, eax
  00028	8b d9		 mov	 ebx, ecx

; 1011 :         using _In_place_key_extractor = typename _Traits::template _In_place_key_extractor<_Valtys...>;
; 1012 :         const auto _Scary             = _Get_scary();
; 1013 :         _Tree_find_result<_Nodeptr> _Loc;
; 1014 :         _Nodeptr _Inserted;
; 1015 :         if constexpr (!_Multi && _In_place_key_extractor::_Extractable) {
; 1016 :             const auto& _Keyval = _In_place_key_extractor::_Extract(_Vals...);
; 1017 :             _Loc                = _Find_lower_bound(_Keyval);

  0002a	8b 75 0c	 mov	 esi, DWORD PTR _<_Vals_0>$[ebp]
  0002d	8d 45 e8	 lea	 eax, DWORD PTR $T2[ebp]
  00030	56		 push	 esi
  00031	50		 push	 eax
  00032	e8 00 00 00 00	 call	 ??$_Find_lower_bound@K@?$_Tree@V?$_Tmap_traits@KUSPartyMemberInfo@CPythonPlayer@@U?$less@K@std@@V?$allocator@U?$pair@$$CBKUSPartyMemberInfo@CPythonPlayer@@@std@@@4@$0A@@std@@@std@@IBE?AU?$_Tree_find_result@PAU?$_Tree_node@U?$pair@$$CBKUSPartyMemberInfo@CPythonPlayer@@@std@@PAX@std@@@1@ABK@Z ; std::_Tree<std::_Tmap_traits<unsigned long,CPythonPlayer::SPartyMemberInfo,std::less<unsigned long>,std::allocator<std::pair<unsigned long const ,CPythonPlayer::SPartyMemberInfo> >,0> >::_Find_lower_bound<unsigned long>
  00037	8b 48 08	 mov	 ecx, DWORD PTR [eax+8]
  0003a	f3 0f 7e 00	 movq	 xmm0, QWORD PTR [eax]
  0003e	66 0f d6 45 dc	 movq	 QWORD PTR __Loc$[ebp], xmm0

; 1624 :         return !_Bound->_Isnil && !_DEBUG_LT_PRED(_Getcomp(), _Keyval, _Traits::_Kfn(_Bound->_Myval));

  00043	80 79 0d 00	 cmp	 BYTE PTR [ecx+13], 0
  00047	75 24		 jne	 SHORT $LN2@Emplace
; File C:\Program Files\Microsoft Visual Studio\2022\Community\VC\Tools\MSVC\14.44.35207\include\type_traits

; 2380 :         return _Left < _Right;

  00049	8b 06		 mov	 eax, DWORD PTR [esi]
  0004b	3b 41 10	 cmp	 eax, DWORD PTR [ecx+16]
; File C:\Program Files\Microsoft Visual Studio\2022\Community\VC\Tools\MSVC\14.44.35207\include\xtree

; 1624 :         return !_Bound->_Isnil && !_DEBUG_LT_PRED(_Getcomp(), _Keyval, _Traits::_Kfn(_Bound->_Myval));

  0004e	72 1d		 jb	 SHORT $LN2@Emplace
; File C:\Program Files\Microsoft Visual Studio\2022\Community\VC\Tools\MSVC\14.44.35207\include\utility

; 274  :         : first(_STD forward<_Other1>(_Val1)), second(_STD forward<_Other2>(_Val2)) {

  00050	8b 45 08	 mov	 eax, DWORD PTR ___$ReturnUdt$[ebp]
  00053	89 08		 mov	 DWORD PTR [eax], ecx
  00055	c6 40 04 00	 mov	 BYTE PTR [eax+4], 0
; File C:\Program Files\Microsoft Visual Studio\2022\Community\VC\Tools\MSVC\14.44.35207\include\xtree

; 1043 :     }

  00059	8b 4d f4	 mov	 ecx, DWORD PTR __$EHRec$[ebp]
  0005c	64 89 0d 00 00
	00 00		 mov	 DWORD PTR fs:0, ecx
  00063	59		 pop	 ecx
  00064	5f		 pop	 edi
  00065	5e		 pop	 esi
  00066	5b		 pop	 ebx
  00067	8b e5		 mov	 esp, ebp
  00069	5d		 pop	 ebp
  0006a	c2 08 00	 ret	 8
$LN2@Emplace:

; 1648 :         if (max_size() == _Get_scary()->_Mysize) {

  0006d	81 7b 04 c3 c3
	c3 03		 cmp	 DWORD PTR [ebx+4], 63161283 ; 03c3c3c3H
  00074	74 6e		 je	 SHORT $LN121@Emplace

; 1018 :             if (_Lower_bound_duplicate(_Loc._Bound, _Keyval)) {
; 1019 :                 return {_Loc._Bound, false};
; 1020 :             }
; 1021 : 
; 1022 :             _Check_grow_by_1();
; 1023 :             _Inserted = _Tree_temp_node<_Alnode>(_Getal(), _Scary->_Myhead, _STD forward<_Valtys>(_Vals)...)._Release();

  00076	8b 3b		 mov	 edi, DWORD PTR [ebx]
; File C:\Program Files\Microsoft Visual Studio\2022\Community\VC\Tools\MSVC\14.44.35207\include\xmemory

; 1160 :     _CONSTEXPR20 explicit _Alloc_construct_ptr(_Alloc& _Al_) : _Al(_Al_), _Ptr(nullptr) {}

  00078	89 5d ec	 mov	 DWORD PTR $T3[ebp], ebx
; File C:\Program Files\Microsoft Visual Studio\2022\Community\VC\Tools\MSVC\14.44.35207\include\xtree

; 808  :     explicit _Tree_temp_node_alloc(_Alnode& _Al_) : _Alloc_construct_ptr<_Alnode>(_Al_) {

  0007b	c7 45 fc 00 00
	00 00		 mov	 DWORD PTR __$EHRec$[ebp+8], 0
; File C:\Program Files\Microsoft Visual Studio\2022\Community\VC\Tools\MSVC\14.44.35207\include\xmemory

; 1168 :         _Ptr = _Al.allocate(1);

  00082	6a 44		 push	 68			; 00000044H
  00084	c7 45 f0 00 00
	00 00		 mov	 DWORD PTR $T3[ebp+4], 0
  0008b	e8 00 00 00 00	 call	 ??2@YAPAXI@Z		; operator new
  00090	8b f0		 mov	 esi, eax
  00092	83 c4 04	 add	 esp, 4
; File C:\Program Files\Microsoft Visual Studio\2022\Community\VC\Tools\MSVC\14.44.35207\include\utility

; 303  :         : first(_STD forward<_Other1>(_Right.first)), second(_STD forward<_Other2>(_Right.second)) {}

  00095	8b 45 0c	 mov	 eax, DWORD PTR _<_Vals_0>$[ebp]
  00098	8b 08		 mov	 ecx, DWORD PTR [eax]
  0009a	89 4e 10	 mov	 DWORD PTR [esi+16], ecx
  0009d	8d 48 04	 lea	 ecx, DWORD PTR [eax+4]
  000a0	51		 push	 ecx
  000a1	8d 4e 14	 lea	 ecx, DWORD PTR [esi+20]
  000a4	e8 00 00 00 00	 call	 ??0SPartyMemberInfo@CPythonPlayer@@QAE@$$QAU01@@Z
; File C:\Program Files\Microsoft Visual Studio\2022\Community\VC\Tools\MSVC\14.44.35207\include\xtree

; 1042 :         return {_Scary->_Insert_node(_Loc._Location, _Inserted), true};

  000a9	56		 push	 esi
  000aa	ff 75 e0	 push	 DWORD PTR __Loc$[ebp+4]

; 831  :         _Construct_in_place(this->_Ptr->_Left, _Myhead);

  000ad	89 3e		 mov	 DWORD PTR [esi], edi

; 1042 :         return {_Scary->_Insert_node(_Loc._Location, _Inserted), true};

  000af	8b cb		 mov	 ecx, ebx
  000b1	ff 75 dc	 push	 DWORD PTR __Loc$[ebp]

; 832  :         _Construct_in_place(this->_Ptr->_Parent, _Myhead);

  000b4	89 7e 04	 mov	 DWORD PTR [esi+4], edi

; 833  :         _Construct_in_place(this->_Ptr->_Right, _Myhead);

  000b7	89 7e 08	 mov	 DWORD PTR [esi+8], edi

; 834  :         this->_Ptr->_Color = _Red;

  000ba	66 c7 46 0c 00
	00		 mov	 WORD PTR [esi+12], 0

; 1042 :         return {_Scary->_Insert_node(_Loc._Location, _Inserted), true};

  000c0	e8 00 00 00 00	 call	 ?_Insert_node@?$_Tree_val@U?$_Tree_simple_types@U?$pair@$$CBKUSPartyMemberInfo@CPythonPlayer@@@std@@@std@@@std@@QAEPAU?$_Tree_node@U?$pair@$$CBKUSPartyMemberInfo@CPythonPlayer@@@std@@PAX@2@U?$_Tree_id@PAU?$_Tree_node@U?$pair@$$CBKUSPartyMemberInfo@CPythonPlayer@@@std@@PAX@std@@@2@QAU32@@Z ; std::_Tree_val<std::_Tree_simple_types<std::pair<unsigned long const ,CPythonPlayer::SPartyMemberInfo> > >::_Insert_node
; File C:\Program Files\Microsoft Visual Studio\2022\Community\VC\Tools\MSVC\14.44.35207\include\utility

; 274  :         : first(_STD forward<_Other1>(_Val1)), second(_STD forward<_Other2>(_Val2)) {

  000c5	8b 4d 08	 mov	 ecx, DWORD PTR ___$ReturnUdt$[ebp]
  000c8	89 01		 mov	 DWORD PTR [ecx], eax
; File C:\Program Files\Microsoft Visual Studio\2022\Community\VC\Tools\MSVC\14.44.35207\include\xtree

; 1042 :         return {_Scary->_Insert_node(_Loc._Location, _Inserted), true};

  000ca	8b c1		 mov	 eax, ecx
; File C:\Program Files\Microsoft Visual Studio\2022\Community\VC\Tools\MSVC\14.44.35207\include\utility

; 274  :         : first(_STD forward<_Other1>(_Val1)), second(_STD forward<_Other2>(_Val2)) {

  000cc	c6 41 04 01	 mov	 BYTE PTR [ecx+4], 1
; File C:\Program Files\Microsoft Visual Studio\2022\Community\VC\Tools\MSVC\14.44.35207\include\xtree

; 1043 :     }

  000d0	8b 4d f4	 mov	 ecx, DWORD PTR __$EHRec$[ebp]
  000d3	64 89 0d 00 00
	00 00		 mov	 DWORD PTR fs:0, ecx
  000da	59		 pop	 ecx
  000db	5f		 pop	 edi
  000dc	5e		 pop	 esi
  000dd	5b		 pop	 ebx
  000de	8b e5		 mov	 esp, ebp
  000e0	5d		 pop	 ebp
  000e1	c2 08 00	 ret	 8
$LN121@Emplace:

; 1649 :             _Throw_tree_length_error();

  000e4	e8 00 00 00 00	 call	 ?_Throw_tree_length_error@std@@YAXXZ ; std::_Throw_tree_length_error
$LN119@Emplace:
  000e9	cc		 int	 3
_TEXT	ENDS
;	COMDAT text$x
text$x	SEGMENT
__unwindfunclet$??$_Emplace@U?$pair@KUSPartyMemberInfo@CPythonPlayer@@@std@@@?$_Tree@V?$_Tmap_traits@KUSPartyMemberInfo@CPythonPlayer@@U?$less@K@std@@V?$allocator@U?$pair@$$CBKUSPartyMemberInfo@CPythonPlayer@@@std@@@4@$0A@@std@@@std@@IAE?AU?$pair@PAU?$_Tree_node@U?$pair@$$CBKUSPartyMemberInfo@CPythonPlayer@@@std@@PAX@std@@_N@1@$$QAU?$pair@KUSPartyMemberInfo@CPythonPlayer@@@1@@Z$2:
  00000	8d 4d ec	 lea	 ecx, DWORD PTR $T3[ebp]
  00003	e9 00 00 00 00	 jmp	 ??1?$_Alloc_construct_ptr@V?$allocator@U?$_Tree_node@U?$pair@$$CBKUSPartyMemberInfo@CPythonPlayer@@@std@@PAX@std@@@std@@@std@@QAE@XZ ; std::_Alloc_construct_ptr<std::allocator<std::_Tree_node<std::pair<unsigned long const ,CPythonPlayer::SPartyMemberInfo>,void *> > >::~_Alloc_construct_ptr<std::allocator<std::_Tree_node<std::pair<unsigned long const ,CPythonPlayer::SPartyMemberInfo>,void *> > >
  00008	cc		 int	 3
  00009	cc		 int	 3
  0000a	cc		 int	 3
  0000b	cc		 int	 3
  0000c	cc		 int	 3
__ehhandler$??$_Emplace@U?$pair@KUSPartyMemberInfo@CPythonPlayer@@@std@@@?$_Tree@V?$_Tmap_traits@KUSPartyMemberInfo@CPythonPlayer@@U?$less@K@std@@V?$allocator@U?$pair@$$CBKUSPartyMemberInfo@CPythonPlayer@@@std@@@4@$0A@@std@@@std@@IAE?AU?$pair@PAU?$_Tree_node@U?$pair@$$CBKUSPartyMemberInfo@CPythonPlayer@@@std@@PAX@std@@_N@1@$$QAU?$pair@KUSPartyMemberInfo@CPythonPlayer@@@1@@Z:
  0000d	90		 npad	 1
  0000e	90		 npad	 1
  0000f	8b 54 24 08	 mov	 edx, DWORD PTR [esp+8]
  00013	8d 42 0c	 lea	 eax, DWORD PTR [edx+12]
  00016	8b 4a d4	 mov	 ecx, DWORD PTR [edx-44]
  00019	33 c8		 xor	 ecx, eax
  0001b	e8 00 00 00 00	 call	 @__security_check_cookie@4
  00020	b8 00 00 00 00	 mov	 eax, OFFSET __ehfuncinfo$??$_Emplace@U?$pair@KUSPartyMemberInfo@CPythonPlayer@@@std@@@?$_Tree@V?$_Tmap_traits@KUSPartyMemberInfo@CPythonPlayer@@U?$less@K@std@@V?$allocator@U?$pair@$$CBKUSPartyMemberInfo@CPythonPlayer@@@std@@@4@$0A@@std@@@std@@IAE?AU?$pair@PAU?$_Tree_node@U?$pair@$$CBKUSPartyMemberInfo@CPythonPlayer@@@std@@PAX@std@@_N@1@$$QAU?$pair@KUSPartyMemberInfo@CPythonPlayer@@@1@@Z
  00025	e9 00 00 00 00	 jmp	 ___CxxFrameHandler3
text$x	ENDS
??$_Emplace@U?$pair@KUSPartyMemberInfo@CPythonPlayer@@@std@@@?$_Tree@V?$_Tmap_traits@KUSPartyMemberInfo@CPythonPlayer@@U?$less@K@std@@V?$allocator@U?$pair@$$CBKUSPartyMemberInfo@CPythonPlayer@@@std@@@4@$0A@@std@@@std@@IAE?AU?$pair@PAU?$_Tree_node@U?$pair@$$CBKUSPartyMemberInfo@CPythonPlayer@@@std@@PAX@std@@_N@1@$$QAU?$pair@KUSPartyMemberInfo@CPythonPlayer@@@1@@Z ENDP ; std::_Tree<std::_Tmap_traits<unsigned long,CPythonPlayer::SPartyMemberInfo,std::less<unsigned long>,std::allocator<std::pair<unsigned long const ,CPythonPlayer::SPartyMemberInfo> >,0> >::_Emplace<std::pair<unsigned long,CPythonPlayer::SPartyMemberInfo> >
; Function compile flags: /Ogtp
; File C:\Program Files\Microsoft Visual Studio\2022\Community\VC\Tools\MSVC\14.44.35207\include\utility
;	COMDAT ??$?0V?$_Tree_iterator@V?$_Tree_val@U?$_Tree_simple_types@U?$pair@$$CBKUSPartyMemberInfo@CPythonPlayer@@@std@@@std@@@std@@@std@@AB_N$0A@@?$pair@V?$_Tree_iterator@V?$_Tree_val@U?$_Tree_simple_types@U?$pair@$$CBKUSPartyMemberInfo@CPythonPlayer@@@std@@@std@@@std@@@std@@_N@std@@QAE@$$QAV?$_Tree_iterator@V?$_Tree_val@U?$_Tree_simple_types@U?$pair@$$CBKUSPartyMemberInfo@CPythonPlayer@@@std@@@std@@@std@@@1@AB_N@Z
_TEXT	SEGMENT
__Val1$ = 8						; size = 4
__Val2$ = 12						; size = 4
??$?0V?$_Tree_iterator@V?$_Tree_val@U?$_Tree_simple_types@U?$pair@$$CBKUSPartyMemberInfo@CPythonPlayer@@@std@@@std@@@std@@@std@@AB_N$0A@@?$pair@V?$_Tree_iterator@V?$_Tree_val@U?$_Tree_simple_types@U?$pair@$$CBKUSPartyMemberInfo@CPythonPlayer@@@std@@@std@@@std@@@std@@_N@std@@QAE@$$QAV?$_Tree_iterator@V?$_Tree_val@U?$_Tree_simple_types@U?$pair@$$CBKUSPartyMemberInfo@CPythonPlayer@@@std@@@std@@@std@@@1@AB_N@Z PROC ; std::pair<std::_Tree_iterator<std::_Tree_val<std::_Tree_simple_types<std::pair<unsigned long const ,CPythonPlayer::SPartyMemberInfo> > > >,bool>::pair<std::_Tree_iterator<std::_Tree_val<std::_Tree_simple_types<std::pair<unsigned long const ,CPythonPlayer::SPartyMemberInfo> > > >,bool><std::_Tree_iterator<std::_Tree_val<std::_Tree_simple_types<std::pair<unsigned long const ,CPythonPlayer::SPartyMemberInfo> > > >,bool const &,0>, COMDAT
; _this$ = ecx

; 274  :         : first(_STD forward<_Other1>(_Val1)), second(_STD forward<_Other2>(_Val2)) {

  00000	55		 push	 ebp
  00001	8b ec		 mov	 ebp, esp
  00003	8b 45 08	 mov	 eax, DWORD PTR __Val1$[ebp]
  00006	8b 00		 mov	 eax, DWORD PTR [eax]
  00008	89 01		 mov	 DWORD PTR [ecx], eax
  0000a	8b 45 0c	 mov	 eax, DWORD PTR __Val2$[ebp]
  0000d	8a 00		 mov	 al, BYTE PTR [eax]
  0000f	88 41 04	 mov	 BYTE PTR [ecx+4], al

; 275  :     }

  00012	8b c1		 mov	 eax, ecx
  00014	5d		 pop	 ebp
  00015	c2 08 00	 ret	 8
??$?0V?$_Tree_iterator@V?$_Tree_val@U?$_Tree_simple_types@U?$pair@$$CBKUSPartyMemberInfo@CPythonPlayer@@@std@@@std@@@std@@@std@@AB_N$0A@@?$pair@V?$_Tree_iterator@V?$_Tree_val@U?$_Tree_simple_types@U?$pair@$$CBKUSPartyMemberInfo@CPythonPlayer@@@std@@@std@@@std@@@std@@_N@std@@QAE@$$QAV?$_Tree_iterator@V?$_Tree_val@U?$_Tree_simple_types@U?$pair@$$CBKUSPartyMemberInfo@CPythonPlayer@@@std@@@std@@@std@@@1@AB_N@Z ENDP ; std::pair<std::_Tree_iterator<std::_Tree_val<std::_Tree_simple_types<std::pair<unsigned long const ,CPythonPlayer::SPartyMemberInfo> > > >,bool>::pair<std::_Tree_iterator<std::_Tree_val<std::_Tree_simple_types<std::pair<unsigned long const ,CPythonPlayer::SPartyMemberInfo> > > >,bool><std::_Tree_iterator<std::_Tree_val<std::_Tree_simple_types<std::pair<unsigned long const ,CPythonPlayer::SPartyMemberInfo> > > >,bool const &,0>
_TEXT	ENDS
; Function compile flags: /Ogtp
; File C:\Program Files\Microsoft Visual Studio\2022\Community\VC\Tools\MSVC\14.44.35207\include\xtree
; File C:\Program Files\Microsoft Visual Studio\2022\Community\VC\Tools\MSVC\14.44.35207\include\type_traits
; File C:\Program Files\Microsoft Visual Studio\2022\Community\VC\Tools\MSVC\14.44.35207\include\xtree
; File C:\Program Files\Microsoft Visual Studio\2022\Community\VC\Tools\MSVC\14.44.35207\include\type_traits
; File C:\Program Files\Microsoft Visual Studio\2022\Community\VC\Tools\MSVC\14.44.35207\include\xtree
;	COMDAT ??$_Find_lower_bound@K@?$_Tree@V?$_Tmap_traits@KUSPartyMemberInfo@CPythonPlayer@@U?$less@K@std@@V?$allocator@U?$pair@$$CBKUSPartyMemberInfo@CPythonPlayer@@@std@@@4@$0A@@std@@@std@@IBE?AU?$_Tree_find_result@PAU?$_Tree_node@U?$pair@$$CBKUSPartyMemberInfo@CPythonPlayer@@@std@@PAX@std@@@1@ABK@Z
_TEXT	SEGMENT
___$ReturnUdt$ = 8					; size = 4
__Keyval$ = 12						; size = 4
??$_Find_lower_bound@K@?$_Tree@V?$_Tmap_traits@KUSPartyMemberInfo@CPythonPlayer@@U?$less@K@std@@V?$allocator@U?$pair@$$CBKUSPartyMemberInfo@CPythonPlayer@@@std@@@4@$0A@@std@@@std@@IBE?AU?$_Tree_find_result@PAU?$_Tree_node@U?$pair@$$CBKUSPartyMemberInfo@CPythonPlayer@@@std@@PAX@std@@@1@ABK@Z PROC ; std::_Tree<std::_Tmap_traits<unsigned long,CPythonPlayer::SPartyMemberInfo,std::less<unsigned long>,std::allocator<std::pair<unsigned long const ,CPythonPlayer::SPartyMemberInfo> >,0> >::_Find_lower_bound<unsigned long>, COMDAT
; _this$ = ecx

; 1628 :     _Tree_find_result<_Nodeptr> _Find_lower_bound(const _Keyty& _Keyval) const {

  00000	55		 push	 ebp
  00001	8b ec		 mov	 ebp, esp

; 1629 :         const auto _Scary = _Get_scary();
; 1630 :         _Tree_find_result<_Nodeptr> _Result{{_Scary->_Myhead->_Parent, _Tree_child::_Right}, _Scary->_Myhead};

  00003	8b 09		 mov	 ecx, DWORD PTR [ecx]
  00005	8b 55 08	 mov	 edx, DWORD PTR ___$ReturnUdt$[ebp]
  00008	8b 41 04	 mov	 eax, DWORD PTR [ecx+4]
  0000b	89 02		 mov	 DWORD PTR [edx], eax
  0000d	c7 42 04 00 00
	00 00		 mov	 DWORD PTR [edx+4], 0
  00014	89 4a 08	 mov	 DWORD PTR [edx+8], ecx

; 1631 :         _Nodeptr _Trynode = _Result._Location._Parent;
; 1632 :         while (!_Trynode->_Isnil) {

  00017	80 78 0d 00	 cmp	 BYTE PTR [eax+13], 0
  0001b	75 28		 jne	 SHORT $LN13@Find_lower
; File C:\Program Files\Microsoft Visual Studio\2022\Community\VC\Tools\MSVC\14.44.35207\include\type_traits

; 2380 :         return _Left < _Right;

  0001d	8b 4d 0c	 mov	 ecx, DWORD PTR __Keyval$[ebp]
  00020	56		 push	 esi
  00021	8b 31		 mov	 esi, DWORD PTR [ecx]
$LL2@Find_lower:
; File C:\Program Files\Microsoft Visual Studio\2022\Community\VC\Tools\MSVC\14.44.35207\include\xtree

; 1633 :             _Result._Location._Parent = _Trynode;

  00023	89 02		 mov	 DWORD PTR [edx], eax
; File C:\Program Files\Microsoft Visual Studio\2022\Community\VC\Tools\MSVC\14.44.35207\include\type_traits

; 2380 :         return _Left < _Right;

  00025	39 70 10	 cmp	 DWORD PTR [eax+16], esi
; File C:\Program Files\Microsoft Visual Studio\2022\Community\VC\Tools\MSVC\14.44.35207\include\xtree

; 1634 :             if (_DEBUG_LT_PRED(_Getcomp(), _Traits::_Kfn(_Trynode->_Myval), _Keyval)) {

  00028	73 07		 jae	 SHORT $LN4@Find_lower

; 1635 :                 _Result._Location._Child = _Tree_child::_Right;
; 1636 :                 _Trynode                 = _Trynode->_Right;

  0002a	8b 40 08	 mov	 eax, DWORD PTR [eax+8]
  0002d	33 c9		 xor	 ecx, ecx

; 1637 :             } else {

  0002f	eb 0a		 jmp	 SHORT $LN5@Find_lower
$LN4@Find_lower:

; 1638 :                 _Result._Location._Child = _Tree_child::_Left;
; 1639 :                 _Result._Bound           = _Trynode;

  00031	89 42 08	 mov	 DWORD PTR [edx+8], eax

; 1640 :                 _Trynode                 = _Trynode->_Left;

  00034	b9 01 00 00 00	 mov	 ecx, 1
  00039	8b 00		 mov	 eax, DWORD PTR [eax]
$LN5@Find_lower:

; 1631 :         _Nodeptr _Trynode = _Result._Location._Parent;
; 1632 :         while (!_Trynode->_Isnil) {

  0003b	89 4a 04	 mov	 DWORD PTR [edx+4], ecx
  0003e	80 78 0d 00	 cmp	 BYTE PTR [eax+13], 0
  00042	74 df		 je	 SHORT $LL2@Find_lower
  00044	5e		 pop	 esi
$LN13@Find_lower:

; 1641 :             }
; 1642 :         }
; 1643 : 
; 1644 :         return _Result;
; 1645 :     }

  00045	8b c2		 mov	 eax, edx
  00047	5d		 pop	 ebp
  00048	c2 08 00	 ret	 8
??$_Find_lower_bound@K@?$_Tree@V?$_Tmap_traits@KUSPartyMemberInfo@CPythonPlayer@@U?$less@K@std@@V?$allocator@U?$pair@$$CBKUSPartyMemberInfo@CPythonPlayer@@@std@@@4@$0A@@std@@@std@@IBE?AU?$_Tree_find_result@PAU?$_Tree_node@U?$pair@$$CBKUSPartyMemberInfo@CPythonPlayer@@@std@@PAX@std@@@1@ABK@Z ENDP ; std::_Tree<std::_Tmap_traits<unsigned long,CPythonPlayer::SPartyMemberInfo,std::less<unsigned long>,std::allocator<std::pair<unsigned long const ,CPythonPlayer::SPartyMemberInfo> >,0> >::_Find_lower_bound<unsigned long>
_TEXT	ENDS
; Function compile flags: /Ogtp
; File C:\Program Files\Microsoft Visual Studio\2022\Community\VC\Tools\MSVC\14.44.35207\include\xtree
; File C:\Program Files\Microsoft Visual Studio\2022\Community\VC\Tools\MSVC\14.44.35207\include\type_traits
; File C:\Program Files\Microsoft Visual Studio\2022\Community\VC\Tools\MSVC\14.44.35207\include\xtree
;	COMDAT ??$_Lower_bound_duplicate@K@?$_Tree@V?$_Tmap_traits@KUSPartyMemberInfo@CPythonPlayer@@U?$less@K@std@@V?$allocator@U?$pair@$$CBKUSPartyMemberInfo@CPythonPlayer@@@std@@@4@$0A@@std@@@std@@IBE_NQAU?$_Tree_node@U?$pair@$$CBKUSPartyMemberInfo@CPythonPlayer@@@std@@PAX@1@ABK@Z
_TEXT	SEGMENT
__Bound$ = 8						; size = 4
__Keyval$ = 12						; size = 4
??$_Lower_bound_duplicate@K@?$_Tree@V?$_Tmap_traits@KUSPartyMemberInfo@CPythonPlayer@@U?$less@K@std@@V?$allocator@U?$pair@$$CBKUSPartyMemberInfo@CPythonPlayer@@@std@@@4@$0A@@std@@@std@@IBE_NQAU?$_Tree_node@U?$pair@$$CBKUSPartyMemberInfo@CPythonPlayer@@@std@@PAX@1@ABK@Z PROC ; std::_Tree<std::_Tmap_traits<unsigned long,CPythonPlayer::SPartyMemberInfo,std::less<unsigned long>,std::allocator<std::pair<unsigned long const ,CPythonPlayer::SPartyMemberInfo> >,0> >::_Lower_bound_duplicate<unsigned long>, COMDAT
; _this$dead$ = ecx

; 1623 :     bool _Lower_bound_duplicate(const _Nodeptr _Bound, const _Keyty& _Keyval) const {

  00000	55		 push	 ebp
  00001	8b ec		 mov	 ebp, esp

; 1624 :         return !_Bound->_Isnil && !_DEBUG_LT_PRED(_Getcomp(), _Keyval, _Traits::_Kfn(_Bound->_Myval));

  00003	8b 4d 08	 mov	 ecx, DWORD PTR __Bound$[ebp]
  00006	80 79 0d 00	 cmp	 BYTE PTR [ecx+13], 0
  0000a	75 10		 jne	 SHORT $LN3@Lower_boun
; File C:\Program Files\Microsoft Visual Studio\2022\Community\VC\Tools\MSVC\14.44.35207\include\type_traits

; 2380 :         return _Left < _Right;

  0000c	8b 45 0c	 mov	 eax, DWORD PTR __Keyval$[ebp]
  0000f	8b 00		 mov	 eax, DWORD PTR [eax]
  00011	3b 41 10	 cmp	 eax, DWORD PTR [ecx+16]
; File C:\Program Files\Microsoft Visual Studio\2022\Community\VC\Tools\MSVC\14.44.35207\include\xtree

; 1624 :         return !_Bound->_Isnil && !_DEBUG_LT_PRED(_Getcomp(), _Keyval, _Traits::_Kfn(_Bound->_Myval));

  00014	72 06		 jb	 SHORT $LN3@Lower_boun
  00016	b0 01		 mov	 al, 1

; 1625 :     }

  00018	5d		 pop	 ebp
  00019	c2 08 00	 ret	 8
$LN3@Lower_boun:

; 1624 :         return !_Bound->_Isnil && !_DEBUG_LT_PRED(_Getcomp(), _Keyval, _Traits::_Kfn(_Bound->_Myval));

  0001c	32 c0		 xor	 al, al

; 1625 :     }

  0001e	5d		 pop	 ebp
  0001f	c2 08 00	 ret	 8
??$_Lower_bound_duplicate@K@?$_Tree@V?$_Tmap_traits@KUSPartyMemberInfo@CPythonPlayer@@U?$less@K@std@@V?$allocator@U?$pair@$$CBKUSPartyMemberInfo@CPythonPlayer@@@std@@@4@$0A@@std@@@std@@IBE_NQAU?$_Tree_node@U?$pair@$$CBKUSPartyMemberInfo@CPythonPlayer@@@std@@PAX@1@ABK@Z ENDP ; std::_Tree<std::_Tmap_traits<unsigned long,CPythonPlayer::SPartyMemberInfo,std::less<unsigned long>,std::allocator<std::pair<unsigned long const ,CPythonPlayer::SPartyMemberInfo> >,0> >::_Lower_bound_duplicate<unsigned long>
_TEXT	ENDS
; Function compile flags: /Ogtp
; File C:\Program Files\Microsoft Visual Studio\2022\Community\VC\Tools\MSVC\14.44.35207\include\utility
;	COMDAT ??$exchange@PAU?$_Tree_node@U?$pair@$$CBKUSPartyMemberInfo@CPythonPlayer@@@std@@PAX@std@@AAPAU12@@std@@YAPAU?$_Tree_node@U?$pair@$$CBKUSPartyMemberInfo@CPythonPlayer@@@std@@PAX@0@AAPAU10@0@Z
_TEXT	SEGMENT
??$exchange@PAU?$_Tree_node@U?$pair@$$CBKUSPartyMemberInfo@CPythonPlayer@@@std@@PAX@std@@AAPAU12@@std@@YAPAU?$_Tree_node@U?$pair@$$CBKUSPartyMemberInfo@CPythonPlayer@@@std@@PAX@0@AAPAU10@0@Z PROC ; std::exchange<std::_Tree_node<std::pair<unsigned long const ,CPythonPlayer::SPartyMemberInfo>,void *> *,std::_Tree_node<std::pair<unsigned long const ,CPythonPlayer::SPartyMemberInfo>,void *> * &>, COMDAT
; __Val$ = ecx
; __New_val$ = edx

; 772  :     // assign _New_val to _Val, return previous _Val
; 773  :     _Ty _Old_val = static_cast<_Ty&&>(_Val);

  00000	8b 01		 mov	 eax, DWORD PTR [ecx]

; 774  :     _Val         = static_cast<_Other&&>(_New_val);

  00002	8b 12		 mov	 edx, DWORD PTR [edx]
  00004	89 11		 mov	 DWORD PTR [ecx], edx

; 775  :     return _Old_val;
; 776  : }

  00006	c3		 ret	 0
??$exchange@PAU?$_Tree_node@U?$pair@$$CBKUSPartyMemberInfo@CPythonPlayer@@@std@@PAX@std@@AAPAU12@@std@@YAPAU?$_Tree_node@U?$pair@$$CBKUSPartyMemberInfo@CPythonPlayer@@@std@@PAX@0@AAPAU10@0@Z ENDP ; std::exchange<std::_Tree_node<std::pair<unsigned long const ,CPythonPlayer::SPartyMemberInfo>,void *> *,std::_Tree_node<std::pair<unsigned long const ,CPythonPlayer::SPartyMemberInfo>,void *> * &>
_TEXT	ENDS
; Function compile flags: /Ogtp
; File C:\Program Files\Microsoft Visual Studio\2022\Community\VC\Tools\MSVC\14.44.35207\include\xtree
; File C:\Program Files\Microsoft Visual Studio\2022\Community\VC\Tools\MSVC\14.44.35207\include\xstring
; File C:\Program Files\Microsoft Visual Studio\2022\Community\VC\Tools\MSVC\14.44.35207\include\xmemory
; File C:\Program Files\Microsoft Visual Studio\2022\Community\VC\Tools\MSVC\14.44.35207\include\xtree
;	COMDAT ??$_Freenode@V?$allocator@U?$_Tree_node@U?$pair@$$CBKUSPartyMemberInfo@CPythonPlayer@@@std@@PAX@std@@@std@@@?$_Tree_node@U?$pair@$$CBKUSPartyMemberInfo@CPythonPlayer@@@std@@PAX@std@@SAXAAV?$allocator@U?$_Tree_node@U?$pair@$$CBKUSPartyMemberInfo@CPythonPlayer@@@std@@PAX@std@@@1@PAU01@@Z
_TEXT	SEGMENT
??$_Freenode@V?$allocator@U?$_Tree_node@U?$pair@$$CBKUSPartyMemberInfo@CPythonPlayer@@@std@@PAX@std@@@std@@@?$_Tree_node@U?$pair@$$CBKUSPartyMemberInfo@CPythonPlayer@@@std@@PAX@std@@SAXAAV?$allocator@U?$_Tree_node@U?$pair@$$CBKUSPartyMemberInfo@CPythonPlayer@@@std@@PAX@std@@@1@PAU01@@Z PROC ; std::_Tree_node<std::pair<unsigned long const ,CPythonPlayer::SPartyMemberInfo>,void *>::_Freenode<std::allocator<std::_Tree_node<std::pair<unsigned long const ,CPythonPlayer::SPartyMemberInfo>,void *> > >, COMDAT
; __Al$dead$ = ecx
; __Ptr$ = edx

; 379  :     static void _Freenode(_Alloc& _Al, _Nodeptr _Ptr) noexcept {

  00000	56		 push	 esi
  00001	8b f2		 mov	 esi, edx

; 380  :         static_assert(is_same_v<typename _Alloc::value_type, _Tree_node>, "Bad _Freenode call");
; 381  :         allocator_traits<_Alloc>::destroy(_Al, _STD addressof(_Ptr->_Myval));

  00003	8d 4e 1c	 lea	 ecx, DWORD PTR [esi+28]
; File C:\Program Files\Microsoft Visual Studio\2022\Community\VC\Tools\MSVC\14.44.35207\include\xstring

; 1383 :         _Tidy_deallocate();

  00006	e8 00 00 00 00	 call	 ?_Tidy_deallocate@?$basic_string@DU?$char_traits@D@std@@V?$allocator@D@2@@std@@AAEXXZ ; std::basic_string<char,std::char_traits<char>,std::allocator<char> >::_Tidy_deallocate
; File C:\Program Files\Microsoft Visual Studio\2022\Community\VC\Tools\MSVC\14.44.35207\include\xmemory

; 289  :         ::operator delete(_Ptr, _Bytes);

  0000b	6a 44		 push	 68			; 00000044H
  0000d	56		 push	 esi
  0000e	e8 00 00 00 00	 call	 ??3@YAXPAXI@Z		; operator delete
  00013	83 c4 08	 add	 esp, 8
  00016	5e		 pop	 esi
; File C:\Program Files\Microsoft Visual Studio\2022\Community\VC\Tools\MSVC\14.44.35207\include\xtree

; 383  :     }

  00017	c3		 ret	 0
??$_Freenode@V?$allocator@U?$_Tree_node@U?$pair@$$CBKUSPartyMemberInfo@CPythonPlayer@@@std@@PAX@std@@@std@@@?$_Tree_node@U?$pair@$$CBKUSPartyMemberInfo@CPythonPlayer@@@std@@PAX@std@@SAXAAV?$allocator@U?$_Tree_node@U?$pair@$$CBKUSPartyMemberInfo@CPythonPlayer@@@std@@PAX@std@@@1@PAU01@@Z ENDP ; std::_Tree_node<std::pair<unsigned long const ,CPythonPlayer::SPartyMemberInfo>,void *>::_Freenode<std::allocator<std::_Tree_node<std::pair<unsigned long const ,CPythonPlayer::SPartyMemberInfo>,void *> > >
_TEXT	ENDS
; Function compile flags: /Ogtp
; File C:\Program Files\Microsoft Visual Studio\2022\Community\VC\Tools\MSVC\14.44.35207\include\xtree
; File C:\Program Files\Microsoft Visual Studio\2022\Community\VC\Tools\MSVC\14.44.35207\include\xmemory
; File C:\Program Files\Microsoft Visual Studio\2022\Community\VC\Tools\MSVC\14.44.35207\include\xtree
;	COMDAT ??$_Freenode0@V?$allocator@U?$_Tree_node@U?$pair@$$CBKUSPartyMemberInfo@CPythonPlayer@@@std@@PAX@std@@@std@@@?$_Tree_node@U?$pair@$$CBKUSPartyMemberInfo@CPythonPlayer@@@std@@PAX@std@@SAXAAV?$allocator@U?$_Tree_node@U?$pair@$$CBKUSPartyMemberInfo@CPythonPlayer@@@std@@PAX@std@@@1@PAU01@@Z
_TEXT	SEGMENT
??$_Freenode0@V?$allocator@U?$_Tree_node@U?$pair@$$CBKUSPartyMemberInfo@CPythonPlayer@@@std@@PAX@std@@@std@@@?$_Tree_node@U?$pair@$$CBKUSPartyMemberInfo@CPythonPlayer@@@std@@PAX@std@@SAXAAV?$allocator@U?$_Tree_node@U?$pair@$$CBKUSPartyMemberInfo@CPythonPlayer@@@std@@PAX@std@@@1@PAU01@@Z PROC ; std::_Tree_node<std::pair<unsigned long const ,CPythonPlayer::SPartyMemberInfo>,void *>::_Freenode0<std::allocator<std::_Tree_node<std::pair<unsigned long const ,CPythonPlayer::SPartyMemberInfo>,void *> > >, COMDAT
; __Al$dead$ = ecx
; __Ptr$ = edx
; File C:\Program Files\Microsoft Visual Studio\2022\Community\VC\Tools\MSVC\14.44.35207\include\xmemory

; 289  :         ::operator delete(_Ptr, _Bytes);

  00000	6a 44		 push	 68			; 00000044H
  00002	52		 push	 edx
  00003	e8 00 00 00 00	 call	 ??3@YAXPAXI@Z		; operator delete
  00008	83 c4 08	 add	 esp, 8
; File C:\Program Files\Microsoft Visual Studio\2022\Community\VC\Tools\MSVC\14.44.35207\include\xtree

; 376  :     }

  0000b	c3		 ret	 0
??$_Freenode0@V?$allocator@U?$_Tree_node@U?$pair@$$CBKUSPartyMemberInfo@CPythonPlayer@@@std@@PAX@std@@@std@@@?$_Tree_node@U?$pair@$$CBKUSPartyMemberInfo@CPythonPlayer@@@std@@PAX@std@@SAXAAV?$allocator@U?$_Tree_node@U?$pair@$$CBKUSPartyMemberInfo@CPythonPlayer@@@std@@PAX@std@@@1@PAU01@@Z ENDP ; std::_Tree_node<std::pair<unsigned long const ,CPythonPlayer::SPartyMemberInfo>,void *>::_Freenode0<std::allocator<std::_Tree_node<std::pair<unsigned long const ,CPythonPlayer::SPartyMemberInfo>,void *> > >
_TEXT	ENDS
; Function compile flags: /Ogtp
; File C:\Program Files\Microsoft Visual Studio\2022\Community\VC\Tools\MSVC\14.44.35207\include\xtree
; File C:\Program Files\Microsoft Visual Studio\2022\Community\VC\Tools\MSVC\14.44.35207\include\xmemory
; File C:\Program Files\Microsoft Visual Studio\2022\Community\VC\Tools\MSVC\14.44.35207\include\xtree
; File C:\Program Files\Microsoft Visual Studio\2022\Community\VC\Tools\MSVC\14.44.35207\include\xmemory
; File C:\Program Files\Microsoft Visual Studio\2022\Community\VC\Tools\MSVC\14.44.35207\include\tuple
; File C:\Program Files\Microsoft Visual Studio\2022\Community\VC\Tools\MSVC\14.44.35207\include\xmemory
; File C:\Program Files\Microsoft Visual Studio\2022\Community\VC\Tools\MSVC\14.44.35207\include\tuple
; File C:\Program Files\Microsoft Visual Studio\2022\Community\VC\Tools\MSVC\14.44.35207\include\utility
; File C:\Program Files\Microsoft Visual Studio\2022\Community\VC\Tools\MSVC\14.44.35207\include\xtree
; File C:\Program Files\Microsoft Visual Studio\2022\Community\VC\Tools\MSVC\14.44.35207\include\utility
; File C:\Program Files\Microsoft Visual Studio\2022\Community\VC\Tools\MSVC\14.44.35207\include\xtree
;	COMDAT ??$?0ABUpiecewise_construct_t@std@@V?$tuple@ABK@1@V?$tuple@$$V@1@@?$_Tree_temp_node@V?$allocator@U?$_Tree_node@U?$pair@$$CBKK@std@@PAX@std@@@std@@@std@@QAE@AAV?$allocator@U?$_Tree_node@U?$pair@$$CBKK@std@@PAX@std@@@1@PAU?$_Tree_node@U?$pair@$$CBKK@std@@PAX@1@ABUpiecewise_construct_t@1@$$QAV?$tuple@ABK@1@$$QAV?$tuple@$$V@1@@Z
_TEXT	SEGMENT
_this$ = -16						; size = 4
__$EHRec$ = -12						; size = 12
__Al_$ = 8						; size = 4
__Myhead$ = 12						; size = 4
_<_Vals_0>$dead$ = 16					; size = 4
_<_Vals_1>$ = 20					; size = 4
_<_Vals_2>$dead$ = 24					; size = 4
??$?0ABUpiecewise_construct_t@std@@V?$tuple@ABK@1@V?$tuple@$$V@1@@?$_Tree_temp_node@V?$allocator@U?$_Tree_node@U?$pair@$$CBKK@std@@PAX@std@@@std@@@std@@QAE@AAV?$allocator@U?$_Tree_node@U?$pair@$$CBKK@std@@PAX@std@@@1@PAU?$_Tree_node@U?$pair@$$CBKK@std@@PAX@1@ABUpiecewise_construct_t@1@$$QAV?$tuple@ABK@1@$$QAV?$tuple@$$V@1@@Z PROC ; std::_Tree_temp_node<std::allocator<std::_Tree_node<std::pair<unsigned long const ,unsigned long>,void *> > >::_Tree_temp_node<std::allocator<std::_Tree_node<std::pair<unsigned long const ,unsigned long>,void *> > ><std::piecewise_construct_t const &,std::tuple<unsigned long const &>,std::tuple<> >, COMDAT
; _this$ = ecx

; 829  :         : _Tree_temp_node_alloc<_Alnode>(_Al_) {

  00000	55		 push	 ebp
  00001	8b ec		 mov	 ebp, esp
  00003	6a ff		 push	 -1
  00005	68 00 00 00 00	 push	 __ehhandler$??$?0ABUpiecewise_construct_t@std@@V?$tuple@ABK@1@V?$tuple@$$V@1@@?$_Tree_temp_node@V?$allocator@U?$_Tree_node@U?$pair@$$CBKK@std@@PAX@std@@@std@@@std@@QAE@AAV?$allocator@U?$_Tree_node@U?$pair@$$CBKK@std@@PAX@std@@@1@PAU?$_Tree_node@U?$pair@$$CBKK@std@@PAX@1@ABUpiecewise_construct_t@1@$$QAV?$tuple@ABK@1@$$QAV?$tuple@$$V@1@@Z
  0000a	64 a1 00 00 00
	00		 mov	 eax, DWORD PTR fs:0
  00010	50		 push	 eax
  00011	51		 push	 ecx
  00012	56		 push	 esi
  00013	a1 00 00 00 00	 mov	 eax, DWORD PTR ___security_cookie
  00018	33 c5		 xor	 eax, ebp
  0001a	50		 push	 eax
  0001b	8d 45 f4	 lea	 eax, DWORD PTR __$EHRec$[ebp]
  0001e	64 a3 00 00 00
	00		 mov	 DWORD PTR fs:0, eax
  00024	8b f1		 mov	 esi, ecx
  00026	89 75 f0	 mov	 DWORD PTR _this$[ebp], esi
; File C:\Program Files\Microsoft Visual Studio\2022\Community\VC\Tools\MSVC\14.44.35207\include\xmemory

; 1160 :     _CONSTEXPR20 explicit _Alloc_construct_ptr(_Alloc& _Al_) : _Al(_Al_), _Ptr(nullptr) {}

  00029	8b 45 08	 mov	 eax, DWORD PTR __Al_$[ebp]
  0002c	89 06		 mov	 DWORD PTR [esi], eax
; File C:\Program Files\Microsoft Visual Studio\2022\Community\VC\Tools\MSVC\14.44.35207\include\xtree

; 808  :     explicit _Tree_temp_node_alloc(_Alnode& _Al_) : _Alloc_construct_ptr<_Alnode>(_Al_) {

  0002e	c7 45 fc 00 00
	00 00		 mov	 DWORD PTR __$EHRec$[ebp+8], 0
; File C:\Program Files\Microsoft Visual Studio\2022\Community\VC\Tools\MSVC\14.44.35207\include\xmemory

; 136  :         return ::operator new(_Bytes);

  00035	6a 18		 push	 24			; 00000018H

; 1167 :         _Ptr = nullptr; // if allocate throws, prevents double-free

  00037	c7 46 04 00 00
	00 00		 mov	 DWORD PTR [esi+4], 0

; 136  :         return ::operator new(_Bytes);

  0003e	e8 00 00 00 00	 call	 ??2@YAPAXI@Z		; operator new
; File C:\Program Files\Microsoft Visual Studio\2022\Community\VC\Tools\MSVC\14.44.35207\include\tuple

; 352  :     tuple(tuple&&)      = default;

  00043	8b 4d 14	 mov	 ecx, DWORD PTR _<_Vals_1>$[ebp]
; File C:\Program Files\Microsoft Visual Studio\2022\Community\VC\Tools\MSVC\14.44.35207\include\xmemory

; 136  :         return ::operator new(_Bytes);

  00046	83 c4 04	 add	 esp, 4

; 1168 :         _Ptr = _Al.allocate(1);

  00049	89 46 04	 mov	 DWORD PTR [esi+4], eax
; File C:\Program Files\Microsoft Visual Studio\2022\Community\VC\Tools\MSVC\14.44.35207\include\tuple

; 352  :     tuple(tuple&&)      = default;

  0004c	8b 09		 mov	 ecx, DWORD PTR [ecx]
; File C:\Program Files\Microsoft Visual Studio\2022\Community\VC\Tools\MSVC\14.44.35207\include\utility

; 478  :         : first(_STD _Tuple_get<_Indices1>(_STD move(_Val1))...),

  0004e	8b 09		 mov	 ecx, DWORD PTR [ecx]
  00050	89 48 10	 mov	 DWORD PTR [eax+16], ecx
; File C:\Program Files\Microsoft Visual Studio\2022\Community\VC\Tools\MSVC\14.44.35207\include\xtree

; 831  :         _Construct_in_place(this->_Ptr->_Left, _Myhead);

  00053	8b 4d 0c	 mov	 ecx, DWORD PTR __Myhead$[ebp]
; File C:\Program Files\Microsoft Visual Studio\2022\Community\VC\Tools\MSVC\14.44.35207\include\utility

; 479  :           second(_STD _Tuple_get<_Indices2>(_STD move(_Val2))...) {}

  00056	c7 40 14 00 00
	00 00		 mov	 DWORD PTR [eax+20], 0
; File C:\Program Files\Microsoft Visual Studio\2022\Community\VC\Tools\MSVC\14.44.35207\include\xtree

; 831  :         _Construct_in_place(this->_Ptr->_Left, _Myhead);

  0005d	8b 46 04	 mov	 eax, DWORD PTR [esi+4]
  00060	89 08		 mov	 DWORD PTR [eax], ecx

; 832  :         _Construct_in_place(this->_Ptr->_Parent, _Myhead);

  00062	8b 46 04	 mov	 eax, DWORD PTR [esi+4]
  00065	89 48 04	 mov	 DWORD PTR [eax+4], ecx

; 833  :         _Construct_in_place(this->_Ptr->_Right, _Myhead);

  00068	8b 46 04	 mov	 eax, DWORD PTR [esi+4]
  0006b	89 48 08	 mov	 DWORD PTR [eax+8], ecx

; 834  :         this->_Ptr->_Color = _Red;

  0006e	8b 46 04	 mov	 eax, DWORD PTR [esi+4]
  00071	c6 40 0c 00	 mov	 BYTE PTR [eax+12], 0

; 835  :         this->_Ptr->_Isnil = false;

  00075	8b 46 04	 mov	 eax, DWORD PTR [esi+4]
  00078	c6 40 0d 00	 mov	 BYTE PTR [eax+13], 0

; 836  :     }

  0007c	8b c6		 mov	 eax, esi
  0007e	8b 4d f4	 mov	 ecx, DWORD PTR __$EHRec$[ebp]
  00081	64 89 0d 00 00
	00 00		 mov	 DWORD PTR fs:0, ecx
  00088	59		 pop	 ecx
  00089	5e		 pop	 esi
  0008a	8b e5		 mov	 esp, ebp
  0008c	5d		 pop	 ebp
  0008d	c2 14 00	 ret	 20			; 00000014H
_TEXT	ENDS
;	COMDAT text$x
text$x	SEGMENT
__unwindfunclet$??$?0ABUpiecewise_construct_t@std@@V?$tuple@ABK@1@V?$tuple@$$V@1@@?$_Tree_temp_node@V?$allocator@U?$_Tree_node@U?$pair@$$CBKK@std@@PAX@std@@@std@@@std@@QAE@AAV?$allocator@U?$_Tree_node@U?$pair@$$CBKK@std@@PAX@std@@@1@PAU?$_Tree_node@U?$pair@$$CBKK@std@@PAX@1@ABUpiecewise_construct_t@1@$$QAV?$tuple@ABK@1@$$QAV?$tuple@$$V@1@@Z$1:
  00000	8b 4d f0	 mov	 ecx, DWORD PTR _this$[ebp]
  00003	e9 00 00 00 00	 jmp	 ??1?$_Alloc_construct_ptr@V?$allocator@U?$_Tree_node@U?$pair@$$CBKK@std@@PAX@std@@@std@@@std@@QAE@XZ ; std::_Alloc_construct_ptr<std::allocator<std::_Tree_node<std::pair<unsigned long const ,unsigned long>,void *> > >::~_Alloc_construct_ptr<std::allocator<std::_Tree_node<std::pair<unsigned long const ,unsigned long>,void *> > >
  00008	cc		 int	 3
  00009	cc		 int	 3
  0000a	cc		 int	 3
  0000b	cc		 int	 3
  0000c	cc		 int	 3
__ehhandler$??$?0ABUpiecewise_construct_t@std@@V?$tuple@ABK@1@V?$tuple@$$V@1@@?$_Tree_temp_node@V?$allocator@U?$_Tree_node@U?$pair@$$CBKK@std@@PAX@std@@@std@@@std@@QAE@AAV?$allocator@U?$_Tree_node@U?$pair@$$CBKK@std@@PAX@std@@@1@PAU?$_Tree_node@U?$pair@$$CBKK@std@@PAX@1@ABUpiecewise_construct_t@1@$$QAV?$tuple@ABK@1@$$QAV?$tuple@$$V@1@@Z:
  0000d	90		 npad	 1
  0000e	90		 npad	 1
  0000f	8b 54 24 08	 mov	 edx, DWORD PTR [esp+8]
  00013	8d 42 0c	 lea	 eax, DWORD PTR [edx+12]
  00016	8b 4a f4	 mov	 ecx, DWORD PTR [edx-12]
  00019	33 c8		 xor	 ecx, eax
  0001b	e8 00 00 00 00	 call	 @__security_check_cookie@4
  00020	b8 00 00 00 00	 mov	 eax, OFFSET __ehfuncinfo$??$?0ABUpiecewise_construct_t@std@@V?$tuple@ABK@1@V?$tuple@$$V@1@@?$_Tree_temp_node@V?$allocator@U?$_Tree_node@U?$pair@$$CBKK@std@@PAX@std@@@std@@@std@@QAE@AAV?$allocator@U?$_Tree_node@U?$pair@$$CBKK@std@@PAX@std@@@1@PAU?$_Tree_node@U?$pair@$$CBKK@std@@PAX@1@ABUpiecewise_construct_t@1@$$QAV?$tuple@ABK@1@$$QAV?$tuple@$$V@1@@Z
  00025	e9 00 00 00 00	 jmp	 ___CxxFrameHandler3
text$x	ENDS
??$?0ABUpiecewise_construct_t@std@@V?$tuple@ABK@1@V?$tuple@$$V@1@@?$_Tree_temp_node@V?$allocator@U?$_Tree_node@U?$pair@$$CBKK@std@@PAX@std@@@std@@@std@@QAE@AAV?$allocator@U?$_Tree_node@U?$pair@$$CBKK@std@@PAX@std@@@1@PAU?$_Tree_node@U?$pair@$$CBKK@std@@PAX@1@ABUpiecewise_construct_t@1@$$QAV?$tuple@ABK@1@$$QAV?$tuple@$$V@1@@Z ENDP ; std::_Tree_temp_node<std::allocator<std::_Tree_node<std::pair<unsigned long const ,unsigned long>,void *> > >::_Tree_temp_node<std::allocator<std::_Tree_node<std::pair<unsigned long const ,unsigned long>,void *> > ><std::piecewise_construct_t const &,std::tuple<unsigned long const &>,std::tuple<> >
; Function compile flags: /Ogtp
; File C:\Program Files\Microsoft Visual Studio\2022\Community\VC\Tools\MSVC\14.44.35207\include\utility
;	COMDAT ??$?0ABQAU?$_Tree_node@U?$pair@$$CBKK@std@@PAX@std@@_N$0A@@?$pair@PAU?$_Tree_node@U?$pair@$$CBKK@std@@PAX@std@@_N@std@@QAE@ABQAU?$_Tree_node@U?$pair@$$CBKK@std@@PAX@1@$$QA_N@Z
_TEXT	SEGMENT
__Val1$ = 8						; size = 4
__Val2$ = 12						; size = 4
??$?0ABQAU?$_Tree_node@U?$pair@$$CBKK@std@@PAX@std@@_N$0A@@?$pair@PAU?$_Tree_node@U?$pair@$$CBKK@std@@PAX@std@@_N@std@@QAE@ABQAU?$_Tree_node@U?$pair@$$CBKK@std@@PAX@1@$$QA_N@Z PROC ; std::pair<std::_Tree_node<std::pair<unsigned long const ,unsigned long>,void *> *,bool>::pair<std::_Tree_node<std::pair<unsigned long const ,unsigned long>,void *> *,bool><std::_Tree_node<std::pair<unsigned long const ,unsigned long>,void *> * const &,bool,0>, COMDAT
; _this$ = ecx

; 274  :         : first(_STD forward<_Other1>(_Val1)), second(_STD forward<_Other2>(_Val2)) {

  00000	55		 push	 ebp
  00001	8b ec		 mov	 ebp, esp
  00003	8b 45 08	 mov	 eax, DWORD PTR __Val1$[ebp]
  00006	8b 00		 mov	 eax, DWORD PTR [eax]
  00008	89 01		 mov	 DWORD PTR [ecx], eax
  0000a	8b 45 0c	 mov	 eax, DWORD PTR __Val2$[ebp]
  0000d	8a 00		 mov	 al, BYTE PTR [eax]
  0000f	88 41 04	 mov	 BYTE PTR [ecx+4], al

; 275  :     }

  00012	8b c1		 mov	 eax, ecx
  00014	5d		 pop	 ebp
  00015	c2 08 00	 ret	 8
??$?0ABQAU?$_Tree_node@U?$pair@$$CBKK@std@@PAX@std@@_N$0A@@?$pair@PAU?$_Tree_node@U?$pair@$$CBKK@std@@PAX@std@@_N@std@@QAE@ABQAU?$_Tree_node@U?$pair@$$CBKK@std@@PAX@1@$$QA_N@Z ENDP ; std::pair<std::_Tree_node<std::pair<unsigned long const ,unsigned long>,void *> *,bool>::pair<std::_Tree_node<std::pair<unsigned long const ,unsigned long>,void *> *,bool><std::_Tree_node<std::pair<unsigned long const ,unsigned long>,void *> * const &,bool,0>
_TEXT	ENDS
; Function compile flags: /Ogtp
; File C:\Program Files\Microsoft Visual Studio\2022\Community\VC\Tools\MSVC\14.44.35207\include\type_traits
;	COMDAT ??$addressof@U?$pair@$$CBKUSPartyMemberInfo@CPythonPlayer@@@std@@@std@@YAPAU?$pair@$$CBKUSPartyMemberInfo@CPythonPlayer@@@0@AAU10@@Z
_TEXT	SEGMENT
??$addressof@U?$pair@$$CBKUSPartyMemberInfo@CPythonPlayer@@@std@@@std@@YAPAU?$pair@$$CBKUSPartyMemberInfo@CPythonPlayer@@@0@AAU10@@Z PROC ; std::addressof<std::pair<unsigned long const ,CPythonPlayer::SPartyMemberInfo> >, COMDAT
; __Val$ = ecx

; 1525 :     return __builtin_addressof(_Val);

  00000	8b c1		 mov	 eax, ecx

; 1526 : }

  00002	c3		 ret	 0
??$addressof@U?$pair@$$CBKUSPartyMemberInfo@CPythonPlayer@@@std@@@std@@YAPAU?$pair@$$CBKUSPartyMemberInfo@CPythonPlayer@@@0@AAU10@@Z ENDP ; std::addressof<std::pair<unsigned long const ,CPythonPlayer::SPartyMemberInfo> >
_TEXT	ENDS
; Function compile flags: /Ogtp
; File C:\Program Files\Microsoft Visual Studio\2022\Community\VC\Tools\MSVC\14.44.35207\include\type_traits
;	COMDAT ??$addressof@V?$_Tree_val@U?$_Tree_simple_types@U?$pair@$$CBKUSPartyMemberInfo@CPythonPlayer@@@std@@@std@@@std@@@std@@YAPAV?$_Tree_val@U?$_Tree_simple_types@U?$pair@$$CBKUSPartyMemberInfo@CPythonPlayer@@@std@@@std@@@0@AAV10@@Z
_TEXT	SEGMENT
??$addressof@V?$_Tree_val@U?$_Tree_simple_types@U?$pair@$$CBKUSPartyMemberInfo@CPythonPlayer@@@std@@@std@@@std@@@std@@YAPAV?$_Tree_val@U?$_Tree_simple_types@U?$pair@$$CBKUSPartyMemberInfo@CPythonPlayer@@@std@@@std@@@0@AAV10@@Z PROC ; std::addressof<std::_Tree_val<std::_Tree_simple_types<std::pair<unsigned long const ,CPythonPlayer::SPartyMemberInfo> > > >, COMDAT
; __Val$ = ecx

; 1525 :     return __builtin_addressof(_Val);

  00000	8b c1		 mov	 eax, ecx

; 1526 : }

  00002	c3		 ret	 0
??$addressof@V?$_Tree_val@U?$_Tree_simple_types@U?$pair@$$CBKUSPartyMemberInfo@CPythonPlayer@@@std@@@std@@@std@@@std@@YAPAV?$_Tree_val@U?$_Tree_simple_types@U?$pair@$$CBKUSPartyMemberInfo@CPythonPlayer@@@std@@@std@@@0@AAV10@@Z ENDP ; std::addressof<std::_Tree_val<std::_Tree_simple_types<std::pair<unsigned long const ,CPythonPlayer::SPartyMemberInfo> > > >
_TEXT	ENDS
; Function compile flags: /Ogtp
; File C:\Program Files\Microsoft Visual Studio\2022\Community\VC\Tools\MSVC\14.44.35207\include\xutility
; File C:\Program Files\Microsoft Visual Studio\2022\Community\VC\Tools\MSVC\14.44.35207\include\xtree
; File C:\Program Files\Microsoft Visual Studio\2022\Community\VC\Tools\MSVC\14.44.35207\include\xutility
; File C:\Program Files\Microsoft Visual Studio\2022\Community\VC\Tools\MSVC\14.44.35207\include\xtree
; File C:\Program Files\Microsoft Visual Studio\2022\Community\VC\Tools\MSVC\14.44.35207\include\xutility
; File C:\Program Files\Microsoft Visual Studio\2022\Community\VC\Tools\MSVC\14.44.35207\include\xtree
; File C:\Program Files\Microsoft Visual Studio\2022\Community\VC\Tools\MSVC\14.44.35207\include\xutility
; File C:\Program Files\Microsoft Visual Studio\2022\Community\VC\Tools\MSVC\14.44.35207\include\xtree
; File C:\Program Files\Microsoft Visual Studio\2022\Community\VC\Tools\MSVC\14.44.35207\include\xutility
;	COMDAT ??$distance@V?$_Tree_unchecked_const_iterator@V?$_Tree_val@U?$_Tree_simple_types@U?$pair@$$CBKUSPartyMemberInfo@CPythonPlayer@@@std@@@std@@@std@@U_Iterator_base0@2@@std@@@std@@YAHV?$_Tree_unchecked_const_iterator@V?$_Tree_val@U?$_Tree_simple_types@U?$pair@$$CBKUSPartyMemberInfo@CPythonPlayer@@@std@@@std@@@std@@U_Iterator_base0@2@@0@0@Z
_TEXT	SEGMENT
__First$ = 8						; size = 4
__Last$ = 12						; size = 4
??$distance@V?$_Tree_unchecked_const_iterator@V?$_Tree_val@U?$_Tree_simple_types@U?$pair@$$CBKUSPartyMemberInfo@CPythonPlayer@@@std@@@std@@@std@@U_Iterator_base0@2@@std@@@std@@YAHV?$_Tree_unchecked_const_iterator@V?$_Tree_val@U?$_Tree_simple_types@U?$pair@$$CBKUSPartyMemberInfo@CPythonPlayer@@@std@@@std@@@std@@U_Iterator_base0@2@@0@0@Z PROC ; std::distance<std::_Tree_unchecked_const_iterator<std::_Tree_val<std::_Tree_simple_types<std::pair<unsigned long const ,CPythonPlayer::SPartyMemberInfo> > >,std::_Iterator_base0> >, COMDAT

; 1660 : _NODISCARD _CONSTEXPR17 _Iter_diff_t<_InIt> distance(_InIt _First, _InIt _Last) {

  00000	55		 push	 ebp
  00001	8b ec		 mov	 ebp, esp

; 1661 :     if constexpr (_Is_ranges_random_iter_v<_InIt>) {
; 1662 :         return _Last - _First; // assume the iterator will do debug checking
; 1663 :     } else {
; 1664 :         _STD _Adl_verify_range(_First, _Last);
; 1665 :         auto _UFirst             = _STD _Get_unwrapped(_First);

  00003	8b 45 08	 mov	 eax, DWORD PTR __First$[ebp]
; File C:\Program Files\Microsoft Visual Studio\2022\Community\VC\Tools\MSVC\14.44.35207\include\xtree

; 96   :         return _Ptr == _Right._Ptr;

  00006	8b 4d 0c	 mov	 ecx, DWORD PTR __Last$[ebp]
; File C:\Program Files\Microsoft Visual Studio\2022\Community\VC\Tools\MSVC\14.44.35207\include\xutility

; 1660 : _NODISCARD _CONSTEXPR17 _Iter_diff_t<_InIt> distance(_InIt _First, _InIt _Last) {

  00009	57		 push	 edi

; 1666 :         const auto _ULast        = _STD _Get_unwrapped(_Last);
; 1667 :         _Iter_diff_t<_InIt> _Off = 0;

  0000a	33 ff		 xor	 edi, edi
; File C:\Program Files\Microsoft Visual Studio\2022\Community\VC\Tools\MSVC\14.44.35207\include\xtree

; 96   :         return _Ptr == _Right._Ptr;

  0000c	3b c1		 cmp	 eax, ecx
; File C:\Program Files\Microsoft Visual Studio\2022\Community\VC\Tools\MSVC\14.44.35207\include\xutility

; 1668 :         for (; _UFirst != _ULast; ++_UFirst) {

  0000e	74 43		 je	 SHORT $LN33@distance
  00010	56		 push	 esi
$LL4@distance:
; File C:\Program Files\Microsoft Visual Studio\2022\Community\VC\Tools\MSVC\14.44.35207\include\xtree

; 50   :         if (_Ptr->_Right->_Isnil) { // climb looking for right subtree

  00011	8b 50 08	 mov	 edx, DWORD PTR [eax+8]
; File C:\Program Files\Microsoft Visual Studio\2022\Community\VC\Tools\MSVC\14.44.35207\include\xutility

; 1669 :             ++_Off;

  00014	47		 inc	 edi
; File C:\Program Files\Microsoft Visual Studio\2022\Community\VC\Tools\MSVC\14.44.35207\include\xtree

; 50   :         if (_Ptr->_Right->_Isnil) { // climb looking for right subtree

  00015	80 7a 0d 00	 cmp	 BYTE PTR [edx+13], 0
  00019	74 1d		 je	 SHORT $LN9@distance

; 51   :             _Nodeptr _Pnode;
; 52   :             while (!(_Pnode = _Ptr->_Parent)->_Isnil && _Ptr == _Pnode->_Right) {

  0001b	8b 50 04	 mov	 edx, DWORD PTR [eax+4]
  0001e	80 7a 0d 00	 cmp	 BYTE PTR [edx+13], 0
  00022	75 10		 jne	 SHORT $LN34@distance
$LL7@distance:
  00024	3b 42 08	 cmp	 eax, DWORD PTR [edx+8]
  00027	75 0b		 jne	 SHORT $LN34@distance

; 53   :                 _Ptr = _Pnode; // ==> parent while right subtree

  00029	8b c2		 mov	 eax, edx
  0002b	8b 52 04	 mov	 edx, DWORD PTR [edx+4]
  0002e	80 7a 0d 00	 cmp	 BYTE PTR [edx+13], 0
  00032	74 f0		 je	 SHORT $LL7@distance
$LN34@distance:

; 54   :             }
; 55   : 
; 56   :             _Ptr = _Pnode; // ==> parent (head if end())

  00034	8b c2		 mov	 eax, edx

; 57   :         } else {

  00036	eb 16		 jmp	 SHORT $LN15@distance
$LN9@distance:

; 58   :             _Ptr = _Mytree::_Min(_Ptr->_Right); // ==> smallest of right subtree

  00038	8b c2		 mov	 eax, edx

; 476  :         while (!_Pnode->_Left->_Isnil) {

  0003a	8b 30		 mov	 esi, DWORD PTR [eax]
  0003c	80 7e 0d 00	 cmp	 BYTE PTR [esi+13], 0
  00040	75 0c		 jne	 SHORT $LN15@distance
$LL14@distance:
  00042	8b 16		 mov	 edx, DWORD PTR [esi]

; 477  :             _Pnode = _Pnode->_Left;

  00044	8b c6		 mov	 eax, esi
  00046	8b f2		 mov	 esi, edx
  00048	80 7a 0d 00	 cmp	 BYTE PTR [edx+13], 0
  0004c	74 f4		 je	 SHORT $LL14@distance
$LN15@distance:

; 96   :         return _Ptr == _Right._Ptr;

  0004e	3b c1		 cmp	 eax, ecx
; File C:\Program Files\Microsoft Visual Studio\2022\Community\VC\Tools\MSVC\14.44.35207\include\xutility

; 1668 :         for (; _UFirst != _ULast; ++_UFirst) {

  00050	75 bf		 jne	 SHORT $LL4@distance
  00052	5e		 pop	 esi
$LN33@distance:

; 1670 :         }
; 1671 : 
; 1672 :         return _Off;
; 1673 :     }
; 1674 : }

  00053	8b c7		 mov	 eax, edi
  00055	5f		 pop	 edi
  00056	5d		 pop	 ebp
  00057	c3		 ret	 0
??$distance@V?$_Tree_unchecked_const_iterator@V?$_Tree_val@U?$_Tree_simple_types@U?$pair@$$CBKUSPartyMemberInfo@CPythonPlayer@@@std@@@std@@@std@@U_Iterator_base0@2@@std@@@std@@YAHV?$_Tree_unchecked_const_iterator@V?$_Tree_val@U?$_Tree_simple_types@U?$pair@$$CBKUSPartyMemberInfo@CPythonPlayer@@@std@@@std@@@std@@U_Iterator_base0@2@@0@0@Z ENDP ; std::distance<std::_Tree_unchecked_const_iterator<std::_Tree_val<std::_Tree_simple_types<std::pair<unsigned long const ,CPythonPlayer::SPartyMemberInfo> > >,std::_Iterator_base0> >
_TEXT	ENDS
; Function compile flags: /Ogtp
; File C:\Program Files\Microsoft Visual Studio\2022\Community\VC\Tools\MSVC\14.44.35207\include\xutility
;	COMDAT ??$_Get_unwrapped@AAV?$_Tree_unchecked_const_iterator@V?$_Tree_val@U?$_Tree_simple_types@U?$pair@$$CBKUSPartyMemberInfo@CPythonPlayer@@@std@@@std@@@std@@U_Iterator_base0@2@@std@@@std@@YA?A_TAAV?$_Tree_unchecked_const_iterator@V?$_Tree_val@U?$_Tree_simple_types@U?$pair@$$CBKUSPartyMemberInfo@CPythonPlayer@@@std@@@std@@@std@@U_Iterator_base0@2@@0@@Z
_TEXT	SEGMENT
??$_Get_unwrapped@AAV?$_Tree_unchecked_const_iterator@V?$_Tree_val@U?$_Tree_simple_types@U?$pair@$$CBKUSPartyMemberInfo@CPythonPlayer@@@std@@@std@@@std@@U_Iterator_base0@2@@std@@@std@@YA?A_TAAV?$_Tree_unchecked_const_iterator@V?$_Tree_val@U?$_Tree_simple_types@U?$pair@$$CBKUSPartyMemberInfo@CPythonPlayer@@@std@@@std@@@std@@U_Iterator_base0@2@@0@@Z PROC ; std::_Get_unwrapped<std::_Tree_unchecked_const_iterator<std::_Tree_val<std::_Tree_simple_types<std::pair<unsigned long const ,CPythonPlayer::SPartyMemberInfo> > >,std::_Iterator_base0> &>, COMDAT
; __It$ = ecx

; 1380 :     // unwrap an iterator previously subjected to _Adl_verify_range or otherwise validated
; 1381 :     if constexpr (is_pointer_v<decay_t<_Iter>>) { // special-case pointers and arrays
; 1382 :         return _It + 0;
; 1383 :     } else if constexpr (_Unwrappable_v<_Iter>) {
; 1384 :         return static_cast<_Iter&&>(_It)._Unwrapped();
; 1385 :     } else {
; 1386 :         return static_cast<_Iter&&>(_It);

  00000	8b c1		 mov	 eax, ecx

; 1387 :     }
; 1388 : }

  00002	c3		 ret	 0
??$_Get_unwrapped@AAV?$_Tree_unchecked_const_iterator@V?$_Tree_val@U?$_Tree_simple_types@U?$pair@$$CBKUSPartyMemberInfo@CPythonPlayer@@@std@@@std@@@std@@U_Iterator_base0@2@@std@@@std@@YA?A_TAAV?$_Tree_unchecked_const_iterator@V?$_Tree_val@U?$_Tree_simple_types@U?$pair@$$CBKUSPartyMemberInfo@CPythonPlayer@@@std@@@std@@@std@@U_Iterator_base0@2@@0@@Z ENDP ; std::_Get_unwrapped<std::_Tree_unchecked_const_iterator<std::_Tree_val<std::_Tree_simple_types<std::pair<unsigned long const ,CPythonPlayer::SPartyMemberInfo> > >,std::_Iterator_base0> &>
_TEXT	ENDS
; Function compile flags: /Ogtp
; File C:\Program Files\Microsoft Visual Studio\2022\Community\VC\Tools\MSVC\14.44.35207\include\xmemory
; File C:\Program Files\Microsoft Visual Studio\2022\Community\VC\Tools\MSVC\14.44.35207\include\xtree
; File C:\Program Files\Microsoft Visual Studio\2022\Community\VC\Tools\MSVC\14.44.35207\include\xmemory
; File C:\Program Files\Microsoft Visual Studio\2022\Community\VC\Tools\MSVC\14.44.35207\include\xtree
; File C:\Program Files\Microsoft Visual Studio\2022\Community\VC\Tools\MSVC\14.44.35207\include\xmemory
;	COMDAT ??$?0ABU?$less@K@std@@U_Zero_then_variadic_args_t@1@@?$_Compressed_pair@U?$less@K@std@@V?$_Compressed_pair@V?$allocator@U?$_Tree_node@U?$pair@$$CBKUSPartyMemberInfo@CPythonPlayer@@@std@@PAX@std@@@std@@V?$_Tree_val@U?$_Tree_simple_types@U?$pair@$$CBKUSPartyMemberInfo@CPythonPlayer@@@std@@@std@@@2@$00@2@$00@std@@QAE@U_One_then_variadic_args_t@1@ABU?$less@K@1@$$QAU_Zero_then_variadic_args_t@1@@Z
_TEXT	SEGMENT
___formal$ = 8						; size = 1
__Val1$dead$ = 12					; size = 4
_<_Val2_0>$dead$ = 16					; size = 4
??$?0ABU?$less@K@std@@U_Zero_then_variadic_args_t@1@@?$_Compressed_pair@U?$less@K@std@@V?$_Compressed_pair@V?$allocator@U?$_Tree_node@U?$pair@$$CBKUSPartyMemberInfo@CPythonPlayer@@@std@@PAX@std@@@std@@V?$_Tree_val@U?$_Tree_simple_types@U?$pair@$$CBKUSPartyMemberInfo@CPythonPlayer@@@std@@@std@@@2@$00@2@$00@std@@QAE@U_One_then_variadic_args_t@1@ABU?$less@K@1@$$QAU_Zero_then_variadic_args_t@1@@Z PROC ; std::_Compressed_pair<std::less<unsigned long>,std::_Compressed_pair<std::allocator<std::_Tree_node<std::pair<unsigned long const ,CPythonPlayer::SPartyMemberInfo>,void *> >,std::_Tree_val<std::_Tree_simple_types<std::pair<unsigned long const ,CPythonPlayer::SPartyMemberInfo> > >,1>,1>::_Compressed_pair<std::less<unsigned long>,std::_Compressed_pair<std::allocator<std::_Tree_node<std::pair<unsigned long const ,CPythonPlayer::SPartyMemberInfo>,void *> >,std::_Tree_val<std::_Tree_simple_types<std::pair<unsigned long const ,CPythonPlayer::SPartyMemberInfo> > >,1>,1><std::less<unsigned long> const &,std::_Zero_then_variadic_args_t>, COMDAT
; _this$ = ecx
; File C:\Program Files\Microsoft Visual Studio\2022\Community\VC\Tools\MSVC\14.44.35207\include\xtree

; 450  :     _Tree_val() noexcept : _Myhead(), _Mysize(0) {}

  00000	c7 01 00 00 00
	00		 mov	 DWORD PTR [ecx], 0
; File C:\Program Files\Microsoft Visual Studio\2022\Community\VC\Tools\MSVC\14.44.35207\include\xmemory

; 1536 :         : _Ty1(_STD forward<_Other1>(_Val1)), _Myval2(_STD forward<_Other2>(_Val2)...) {}

  00006	8b c1		 mov	 eax, ecx
; File C:\Program Files\Microsoft Visual Studio\2022\Community\VC\Tools\MSVC\14.44.35207\include\xtree

; 450  :     _Tree_val() noexcept : _Myhead(), _Mysize(0) {}

  00008	c7 41 04 00 00
	00 00		 mov	 DWORD PTR [ecx+4], 0
; File C:\Program Files\Microsoft Visual Studio\2022\Community\VC\Tools\MSVC\14.44.35207\include\xmemory

; 1536 :         : _Ty1(_STD forward<_Other1>(_Val1)), _Myval2(_STD forward<_Other2>(_Val2)...) {}

  0000f	c2 0c 00	 ret	 12			; 0000000cH
??$?0ABU?$less@K@std@@U_Zero_then_variadic_args_t@1@@?$_Compressed_pair@U?$less@K@std@@V?$_Compressed_pair@V?$allocator@U?$_Tree_node@U?$pair@$$CBKUSPartyMemberInfo@CPythonPlayer@@@std@@PAX@std@@@std@@V?$_Tree_val@U?$_Tree_simple_types@U?$pair@$$CBKUSPartyMemberInfo@CPythonPlayer@@@std@@@std@@@2@$00@2@$00@std@@QAE@U_One_then_variadic_args_t@1@ABU?$less@K@1@$$QAU_Zero_then_variadic_args_t@1@@Z ENDP ; std::_Compressed_pair<std::less<unsigned long>,std::_Compressed_pair<std::allocator<std::_Tree_node<std::pair<unsigned long const ,CPythonPlayer::SPartyMemberInfo>,void *> >,std::_Tree_val<std::_Tree_simple_types<std::pair<unsigned long const ,CPythonPlayer::SPartyMemberInfo> > >,1>,1>::_Compressed_pair<std::less<unsigned long>,std::_Compressed_pair<std::allocator<std::_Tree_node<std::pair<unsigned long const ,CPythonPlayer::SPartyMemberInfo>,void *> >,std::_Tree_val<std::_Tree_simple_types<std::pair<unsigned long const ,CPythonPlayer::SPartyMemberInfo> > >,1>,1><std::less<unsigned long> const &,std::_Zero_then_variadic_args_t>
_TEXT	ENDS
; Function compile flags: /Ogtp
; File C:\Program Files\Microsoft Visual Studio\2022\Community\VC\Tools\MSVC\14.44.35207\include\xmemory
;	COMDAT ?_Get_first@?$_Compressed_pair@V?$allocator@U?$_Tree_node@U?$pair@$$CBKUSPartyMemberInfo@CPythonPlayer@@@std@@PAX@std@@@std@@V?$_Tree_val@U?$_Tree_simple_types@U?$pair@$$CBKUSPartyMemberInfo@CPythonPlayer@@@std@@@std@@@2@$00@std@@QAEAAV?$allocator@U?$_Tree_node@U?$pair@$$CBKUSPartyMemberInfo@CPythonPlayer@@@std@@PAX@std@@@2@XZ
_TEXT	SEGMENT
?_Get_first@?$_Compressed_pair@V?$allocator@U?$_Tree_node@U?$pair@$$CBKUSPartyMemberInfo@CPythonPlayer@@@std@@PAX@std@@@std@@V?$_Tree_val@U?$_Tree_simple_types@U?$pair@$$CBKUSPartyMemberInfo@CPythonPlayer@@@std@@@std@@@2@$00@std@@QAEAAV?$allocator@U?$_Tree_node@U?$pair@$$CBKUSPartyMemberInfo@CPythonPlayer@@@std@@PAX@std@@@2@XZ PROC ; std::_Compressed_pair<std::allocator<std::_Tree_node<std::pair<unsigned long const ,CPythonPlayer::SPartyMemberInfo>,void *> >,std::_Tree_val<std::_Tree_simple_types<std::pair<unsigned long const ,CPythonPlayer::SPartyMemberInfo> > >,1>::_Get_first, COMDAT
; _this$ = ecx

; 1539 :         return *this;

  00000	8b c1		 mov	 eax, ecx

; 1540 :     }

  00002	c3		 ret	 0
?_Get_first@?$_Compressed_pair@V?$allocator@U?$_Tree_node@U?$pair@$$CBKUSPartyMemberInfo@CPythonPlayer@@@std@@PAX@std@@@std@@V?$_Tree_val@U?$_Tree_simple_types@U?$pair@$$CBKUSPartyMemberInfo@CPythonPlayer@@@std@@@std@@@2@$00@std@@QAEAAV?$allocator@U?$_Tree_node@U?$pair@$$CBKUSPartyMemberInfo@CPythonPlayer@@@std@@PAX@std@@@2@XZ ENDP ; std::_Compressed_pair<std::allocator<std::_Tree_node<std::pair<unsigned long const ,CPythonPlayer::SPartyMemberInfo>,void *> >,std::_Tree_val<std::_Tree_simple_types<std::pair<unsigned long const ,CPythonPlayer::SPartyMemberInfo> > >,1>::_Get_first
_TEXT	ENDS
; Function compile flags: /Ogtp
; File C:\Program Files\Microsoft Visual Studio\2022\Community\VC\Tools\MSVC\14.44.35207\include\xtree
;	COMDAT ??E?$_Tree_unchecked_const_iterator@V?$_Tree_val@U?$_Tree_simple_types@U?$pair@$$CBKUSPartyMemberInfo@CPythonPlayer@@@std@@@std@@@std@@U_Iterator_base0@2@@std@@QAEAAV01@XZ
_TEXT	SEGMENT
??E?$_Tree_unchecked_const_iterator@V?$_Tree_val@U?$_Tree_simple_types@U?$pair@$$CBKUSPartyMemberInfo@CPythonPlayer@@@std@@@std@@@std@@U_Iterator_base0@2@@std@@QAEAAV01@XZ PROC ; std::_Tree_unchecked_const_iterator<std::_Tree_val<std::_Tree_simple_types<std::pair<unsigned long const ,CPythonPlayer::SPartyMemberInfo> > >,std::_Iterator_base0>::operator++, COMDAT
; _this$ = ecx

; 49   :     _Tree_unchecked_const_iterator& operator++() noexcept {

  00000	56		 push	 esi
  00001	8b f1		 mov	 esi, ecx
  00003	57		 push	 edi

; 50   :         if (_Ptr->_Right->_Isnil) { // climb looking for right subtree

  00004	8b 16		 mov	 edx, DWORD PTR [esi]
  00006	8b 7a 08	 mov	 edi, DWORD PTR [edx+8]
  00009	80 7f 0d 00	 cmp	 BYTE PTR [edi+13], 0
  0000d	74 22		 je	 SHORT $LN4@operator

; 51   :             _Nodeptr _Pnode;
; 52   :             while (!(_Pnode = _Ptr->_Parent)->_Isnil && _Ptr == _Pnode->_Right) {

  0000f	8b 42 04	 mov	 eax, DWORD PTR [edx+4]
  00012	80 78 0d 00	 cmp	 BYTE PTR [eax+13], 0
  00016	75 12		 jne	 SHORT $LN21@operator
$LL2@operator:
  00018	3b 50 08	 cmp	 edx, DWORD PTR [eax+8]
  0001b	75 0d		 jne	 SHORT $LN21@operator

; 53   :                 _Ptr = _Pnode; // ==> parent while right subtree

  0001d	89 06		 mov	 DWORD PTR [esi], eax
  0001f	8b d0		 mov	 edx, eax
  00021	8b 40 04	 mov	 eax, DWORD PTR [eax+4]
  00024	80 78 0d 00	 cmp	 BYTE PTR [eax+13], 0
  00028	74 ee		 je	 SHORT $LL2@operator
$LN21@operator:

; 54   :             }
; 55   : 
; 56   :             _Ptr = _Pnode; // ==> parent (head if end())
; 57   :         } else {
; 58   :             _Ptr = _Mytree::_Min(_Ptr->_Right); // ==> smallest of right subtree
; 59   :         }
; 60   : 
; 61   :         return *this;

  0002a	89 06		 mov	 DWORD PTR [esi], eax

; 62   :     }

  0002c	8b c6		 mov	 eax, esi
  0002e	5f		 pop	 edi
  0002f	5e		 pop	 esi
  00030	c3		 ret	 0
$LN4@operator:

; 476  :         while (!_Pnode->_Left->_Isnil) {

  00031	8b 0f		 mov	 ecx, DWORD PTR [edi]
  00033	80 79 0d 00	 cmp	 BYTE PTR [ecx+13], 0
  00037	75 13		 jne	 SHORT $LN10@operator
  00039	0f 1f 80 00 00
	00 00		 npad	 7
$LL9@operator:
  00040	8b 01		 mov	 eax, DWORD PTR [ecx]

; 477  :             _Pnode = _Pnode->_Left;

  00042	8b f9		 mov	 edi, ecx
  00044	8b c8		 mov	 ecx, eax
  00046	80 78 0d 00	 cmp	 BYTE PTR [eax+13], 0
  0004a	74 f4		 je	 SHORT $LL9@operator
$LN10@operator:

; 54   :             }
; 55   : 
; 56   :             _Ptr = _Pnode; // ==> parent (head if end())
; 57   :         } else {
; 58   :             _Ptr = _Mytree::_Min(_Ptr->_Right); // ==> smallest of right subtree
; 59   :         }
; 60   : 
; 61   :         return *this;

  0004c	89 3e		 mov	 DWORD PTR [esi], edi

; 62   :     }

  0004e	8b c6		 mov	 eax, esi
  00050	5f		 pop	 edi
  00051	5e		 pop	 esi
  00052	c3		 ret	 0
??E?$_Tree_unchecked_const_iterator@V?$_Tree_val@U?$_Tree_simple_types@U?$pair@$$CBKUSPartyMemberInfo@CPythonPlayer@@@std@@@std@@@std@@U_Iterator_base0@2@@std@@QAEAAV01@XZ ENDP ; std::_Tree_unchecked_const_iterator<std::_Tree_val<std::_Tree_simple_types<std::pair<unsigned long const ,CPythonPlayer::SPartyMemberInfo> > >,std::_Iterator_base0>::operator++
_TEXT	ENDS
; Function compile flags: /Ogtp
; File C:\Program Files\Microsoft Visual Studio\2022\Community\VC\Tools\MSVC\14.44.35207\include\xtree
;	COMDAT ??D?$_Tree_const_iterator@V?$_Tree_val@U?$_Tree_simple_types@U?$pair@$$CBKUSPartyMemberInfo@CPythonPlayer@@@std@@@std@@@std@@@std@@QBEABU?$pair@$$CBKUSPartyMemberInfo@CPythonPlayer@@@1@XZ
_TEXT	SEGMENT
??D?$_Tree_const_iterator@V?$_Tree_val@U?$_Tree_simple_types@U?$pair@$$CBKUSPartyMemberInfo@CPythonPlayer@@@std@@@std@@@std@@@std@@QBEABU?$pair@$$CBKUSPartyMemberInfo@CPythonPlayer@@@1@XZ PROC ; std::_Tree_const_iterator<std::_Tree_val<std::_Tree_simple_types<std::pair<unsigned long const ,CPythonPlayer::SPartyMemberInfo> > > >::operator*, COMDAT
; _this$ = ecx

; 179  : #if _ITERATOR_DEBUG_LEVEL == 2
; 180  :         const auto _Mycont = static_cast<const _Mytree*>(this->_Getcont());
; 181  :         _STL_VERIFY(_Mycont, "cannot dereference value-initialized map/set iterator");
; 182  :         _STL_VERIFY(this->_Ptr != _Mycont->_Myhead, "cannot dereference end map/set iterator");
; 183  : #endif // _ITERATOR_DEBUG_LEVEL == 2
; 184  : 
; 185  :         return this->_Ptr->_Myval;

  00000	8b 01		 mov	 eax, DWORD PTR [ecx]
  00002	83 c0 10	 add	 eax, 16			; 00000010H

; 186  :     }

  00005	c3		 ret	 0
??D?$_Tree_const_iterator@V?$_Tree_val@U?$_Tree_simple_types@U?$pair@$$CBKUSPartyMemberInfo@CPythonPlayer@@@std@@@std@@@std@@@std@@QBEABU?$pair@$$CBKUSPartyMemberInfo@CPythonPlayer@@@1@XZ ENDP ; std::_Tree_const_iterator<std::_Tree_val<std::_Tree_simple_types<std::pair<unsigned long const ,CPythonPlayer::SPartyMemberInfo> > > >::operator*
_TEXT	ENDS
; Function compile flags: /Ogtp
; File C:\Program Files\Microsoft Visual Studio\2022\Community\VC\Tools\MSVC\14.44.35207\include\xtree
;	COMDAT ?_Get_scary@?$_Tree@V?$_Tmap_traits@KUSPartyMemberInfo@CPythonPlayer@@U?$less@K@std@@V?$allocator@U?$pair@$$CBKUSPartyMemberInfo@CPythonPlayer@@@std@@@4@$0A@@std@@@std@@IBEPBV?$_Tree_val@U?$_Tree_simple_types@U?$pair@$$CBKUSPartyMemberInfo@CPythonPlayer@@@std@@@std@@@2@XZ
_TEXT	SEGMENT
?_Get_scary@?$_Tree@V?$_Tmap_traits@KUSPartyMemberInfo@CPythonPlayer@@U?$less@K@std@@V?$allocator@U?$pair@$$CBKUSPartyMemberInfo@CPythonPlayer@@@std@@@4@$0A@@std@@@std@@IBEPBV?$_Tree_val@U?$_Tree_simple_types@U?$pair@$$CBKUSPartyMemberInfo@CPythonPlayer@@@std@@@std@@@2@XZ PROC ; std::_Tree<std::_Tmap_traits<unsigned long,CPythonPlayer::SPartyMemberInfo,std::less<unsigned long>,std::allocator<std::pair<unsigned long const ,CPythonPlayer::SPartyMemberInfo> >,0> >::_Get_scary, COMDAT
; _this$ = ecx

; 1987 :         return _STD addressof(_Mypair._Myval2._Myval2);

  00000	8b c1		 mov	 eax, ecx

; 1988 :     }

  00002	c3		 ret	 0
?_Get_scary@?$_Tree@V?$_Tmap_traits@KUSPartyMemberInfo@CPythonPlayer@@U?$less@K@std@@V?$allocator@U?$pair@$$CBKUSPartyMemberInfo@CPythonPlayer@@@std@@@4@$0A@@std@@@std@@IBEPBV?$_Tree_val@U?$_Tree_simple_types@U?$pair@$$CBKUSPartyMemberInfo@CPythonPlayer@@@std@@@std@@@2@XZ ENDP ; std::_Tree<std::_Tmap_traits<unsigned long,CPythonPlayer::SPartyMemberInfo,std::less<unsigned long>,std::allocator<std::pair<unsigned long const ,CPythonPlayer::SPartyMemberInfo> >,0> >::_Get_scary
_TEXT	ENDS
; Function compile flags: /Ogtp
; File C:\Program Files\Microsoft Visual Studio\2022\Community\VC\Tools\MSVC\14.44.35207\include\xtree
;	COMDAT ?_Getcomp@?$_Tree@V?$_Tmap_traits@KUSPartyMemberInfo@CPythonPlayer@@U?$less@K@std@@V?$allocator@U?$pair@$$CBKUSPartyMemberInfo@CPythonPlayer@@@std@@@4@$0A@@std@@@std@@IBEABU?$less@K@2@XZ
_TEXT	SEGMENT
?_Getcomp@?$_Tree@V?$_Tmap_traits@KUSPartyMemberInfo@CPythonPlayer@@U?$less@K@std@@V?$allocator@U?$pair@$$CBKUSPartyMemberInfo@CPythonPlayer@@@std@@@4@$0A@@std@@@std@@IBEABU?$less@K@2@XZ PROC ; std::_Tree<std::_Tmap_traits<unsigned long,CPythonPlayer::SPartyMemberInfo,std::less<unsigned long>,std::allocator<std::pair<unsigned long const ,CPythonPlayer::SPartyMemberInfo> >,0> >::_Getcomp, COMDAT
; _this$ = ecx

; 1971 :         return _Mypair._Get_first();

  00000	8b c1		 mov	 eax, ecx

; 1972 :     }

  00002	c3		 ret	 0
?_Getcomp@?$_Tree@V?$_Tmap_traits@KUSPartyMemberInfo@CPythonPlayer@@U?$less@K@std@@V?$allocator@U?$pair@$$CBKUSPartyMemberInfo@CPythonPlayer@@@std@@@4@$0A@@std@@@std@@IBEABU?$less@K@2@XZ ENDP ; std::_Tree<std::_Tmap_traits<unsigned long,CPythonPlayer::SPartyMemberInfo,std::less<unsigned long>,std::allocator<std::pair<unsigned long const ,CPythonPlayer::SPartyMemberInfo> >,0> >::_Getcomp
_TEXT	ENDS
; Function compile flags: /Ogtp
; File C:\Program Files\Microsoft Visual Studio\2022\Community\VC\Tools\MSVC\14.44.35207\include\xtree
;	COMDAT ?_Alloc_sentinel_and_proxy@?$_Tree@V?$_Tmap_traits@KUSPartyMemberInfo@CPythonPlayer@@U?$less@K@std@@V?$allocator@U?$pair@$$CBKUSPartyMemberInfo@CPythonPlayer@@@std@@@4@$0A@@std@@@std@@IAEXXZ
_TEXT	SEGMENT
?_Alloc_sentinel_and_proxy@?$_Tree@V?$_Tmap_traits@KUSPartyMemberInfo@CPythonPlayer@@U?$less@K@std@@V?$allocator@U?$pair@$$CBKUSPartyMemberInfo@CPythonPlayer@@@std@@@4@$0A@@std@@@std@@IAEXXZ PROC ; std::_Tree<std::_Tmap_traits<unsigned long,CPythonPlayer::SPartyMemberInfo,std::less<unsigned long>,std::allocator<std::pair<unsigned long const ,CPythonPlayer::SPartyMemberInfo> >,0> >::_Alloc_sentinel_and_proxy, COMDAT
; _this$ = ecx

; 1953 :     void _Alloc_sentinel_and_proxy() {

  00000	56		 push	 esi

; 345  :         const auto _Pnode = _Al.allocate(1);

  00001	6a 44		 push	 68			; 00000044H

; 1953 :     void _Alloc_sentinel_and_proxy() {

  00003	8b f1		 mov	 esi, ecx

; 345  :         const auto _Pnode = _Al.allocate(1);

  00005	e8 00 00 00 00	 call	 ??2@YAPAXI@Z		; operator new
  0000a	83 c4 04	 add	 esp, 4

; 346  :         _Construct_in_place(_Pnode->_Left, _Pnode);

  0000d	89 00		 mov	 DWORD PTR [eax], eax

; 347  :         _Construct_in_place(_Pnode->_Parent, _Pnode);

  0000f	89 40 04	 mov	 DWORD PTR [eax+4], eax

; 348  :         _Construct_in_place(_Pnode->_Right, _Pnode);

  00012	89 40 08	 mov	 DWORD PTR [eax+8], eax

; 349  :         _Pnode->_Color = _Black;

  00015	66 c7 40 0c 01
	01		 mov	 WORD PTR [eax+12], 257	; 00000101H

; 1954 :         const auto _Scary = _Get_scary();
; 1955 :         auto&& _Alproxy   = _GET_PROXY_ALLOCATOR(_Alnode, _Getal());
; 1956 :         _Container_proxy_ptr<_Alnode> _Proxy(_Alproxy, *_Scary);
; 1957 :         _Scary->_Myhead = _Node::_Buyheadnode(_Getal());

  0001b	89 06		 mov	 DWORD PTR [esi], eax
  0001d	5e		 pop	 esi

; 1958 :         _Proxy._Release();
; 1959 :     }

  0001e	c3		 ret	 0
?_Alloc_sentinel_and_proxy@?$_Tree@V?$_Tmap_traits@KUSPartyMemberInfo@CPythonPlayer@@U?$less@K@std@@V?$allocator@U?$pair@$$CBKUSPartyMemberInfo@CPythonPlayer@@@std@@@4@$0A@@std@@@std@@IAEXXZ ENDP ; std::_Tree<std::_Tmap_traits<unsigned long,CPythonPlayer::SPartyMemberInfo,std::less<unsigned long>,std::allocator<std::pair<unsigned long const ,CPythonPlayer::SPartyMemberInfo> >,0> >::_Alloc_sentinel_and_proxy
_TEXT	ENDS
; Function compile flags: /Ogtp
; File C:\Program Files\Microsoft Visual Studio\2022\Community\VC\Tools\MSVC\14.44.35207\include\xtree
; File C:\Program Files\Microsoft Visual Studio\2022\Community\VC\Tools\MSVC\14.44.35207\include\xstring
; File C:\Program Files\Microsoft Visual Studio\2022\Community\VC\Tools\MSVC\14.44.35207\include\xmemory
; File C:\Program Files\Microsoft Visual Studio\2022\Community\VC\Tools\MSVC\14.44.35207\include\xtree
; File C:\Program Files\Microsoft Visual Studio\2022\Community\VC\Tools\MSVC\14.44.35207\include\xmemory
; File C:\Program Files\Microsoft Visual Studio\2022\Community\VC\Tools\MSVC\14.44.35207\include\xtree
;	COMDAT ?_Erase_unchecked@?$_Tree@V?$_Tmap_traits@KUSPartyMemberInfo@CPythonPlayer@@U?$less@K@std@@V?$allocator@U?$pair@$$CBKUSPartyMemberInfo@CPythonPlayer@@@std@@@4@$0A@@std@@@std@@AAEPAU?$_Tree_node@U?$pair@$$CBKUSPartyMemberInfo@CPythonPlayer@@@std@@PAX@2@V?$_Tree_unchecked_const_iterator@V?$_Tree_val@U?$_Tree_simple_types@U?$pair@$$CBKUSPartyMemberInfo@CPythonPlayer@@@std@@@std@@@std@@U_Iterator_base0@2@@2@0@Z
_TEXT	SEGMENT
__First$ = 8						; size = 4
__Last$ = 12						; size = 4
?_Erase_unchecked@?$_Tree@V?$_Tmap_traits@KUSPartyMemberInfo@CPythonPlayer@@U?$less@K@std@@V?$allocator@U?$pair@$$CBKUSPartyMemberInfo@CPythonPlayer@@@std@@@4@$0A@@std@@@std@@AAEPAU?$_Tree_node@U?$pair@$$CBKUSPartyMemberInfo@CPythonPlayer@@@std@@PAX@2@V?$_Tree_unchecked_const_iterator@V?$_Tree_val@U?$_Tree_simple_types@U?$pair@$$CBKUSPartyMemberInfo@CPythonPlayer@@@std@@@std@@@std@@U_Iterator_base0@2@@2@0@Z PROC ; std::_Tree<std::_Tmap_traits<unsigned long,CPythonPlayer::SPartyMemberInfo,std::less<unsigned long>,std::allocator<std::pair<unsigned long const ,CPythonPlayer::SPartyMemberInfo> >,0> >::_Erase_unchecked, COMDAT
; _this$ = ecx

; 1309 :     _Nodeptr _Erase_unchecked(_Unchecked_const_iterator _First, _Unchecked_const_iterator _Last) noexcept {

  00000	55		 push	 ebp
  00001	8b ec		 mov	 ebp, esp

; 1310 :         const auto _Begin = _Unchecked_begin();
; 1311 :         if (_First == _Begin && _Last._Ptr->_Isnil) {

  00003	8b 45 0c	 mov	 eax, DWORD PTR __Last$[ebp]
  00006	53		 push	 ebx
  00007	8b d9		 mov	 ebx, ecx
  00009	56		 push	 esi

; 96   :         return _Ptr == _Right._Ptr;

  0000a	8b 75 08	 mov	 esi, DWORD PTR __First$[ebp]

; 1309 :     _Nodeptr _Erase_unchecked(_Unchecked_const_iterator _First, _Unchecked_const_iterator _Last) noexcept {

  0000d	57		 push	 edi

; 1161 :         return _Unchecked_iterator(_Get_scary()->_Myhead->_Left, nullptr);

  0000e	8b 3b		 mov	 edi, DWORD PTR [ebx]

; 96   :         return _Ptr == _Right._Ptr;

  00010	3b 37		 cmp	 esi, DWORD PTR [edi]

; 1310 :         const auto _Begin = _Unchecked_begin();
; 1311 :         if (_First == _Begin && _Last._Ptr->_Isnil) {

  00012	75 28		 jne	 SHORT $LN95@Erase_unch
  00014	80 78 0d 00	 cmp	 BYTE PTR [eax+13], 0
  00018	74 22		 je	 SHORT $LN95@Erase_unch

; 1374 :         _Scary->_Erase_tree(_Getal(), _Head->_Parent);

  0001a	ff 77 04	 push	 DWORD PTR [edi+4]
  0001d	53		 push	 ebx
  0001e	e8 00 00 00 00	 call	 ??$_Erase_tree@V?$allocator@U?$_Tree_node@U?$pair@$$CBKUSPartyMemberInfo@CPythonPlayer@@@std@@PAX@std@@@std@@@?$_Tree_val@U?$_Tree_simple_types@U?$pair@$$CBKUSPartyMemberInfo@CPythonPlayer@@@std@@@std@@@std@@QAEXAAV?$allocator@U?$_Tree_node@U?$pair@$$CBKUSPartyMemberInfo@CPythonPlayer@@@std@@PAX@std@@@1@PAU?$_Tree_node@U?$pair@$$CBKUSPartyMemberInfo@CPythonPlayer@@@std@@PAX@1@@Z ; std::_Tree_val<std::_Tree_simple_types<std::pair<unsigned long const ,CPythonPlayer::SPartyMemberInfo> > >::_Erase_tree<std::allocator<std::_Tree_node<std::pair<unsigned long const ,CPythonPlayer::SPartyMemberInfo>,void *> > >

; 1375 :         _Head->_Parent  = _Head;

  00023	89 7f 04	 mov	 DWORD PTR [edi+4], edi

; 1376 :         _Head->_Left    = _Head;

  00026	89 3f		 mov	 DWORD PTR [edi], edi

; 1377 :         _Head->_Right   = _Head;

  00028	89 7f 08	 mov	 DWORD PTR [edi+8], edi

; 1312 :             // erase all
; 1313 :             clear();
; 1314 :             return _Last._Ptr;

  0002b	8b 45 0c	 mov	 eax, DWORD PTR __Last$[ebp]
  0002e	5f		 pop	 edi

; 1319 :             _Erase_unchecked(_First++);
; 1320 :         }
; 1321 : 
; 1322 :         return _Last._Ptr;
; 1323 :     }

  0002f	5e		 pop	 esi

; 1378 :         _Scary->_Mysize = 0;

  00030	c7 43 04 00 00
	00 00		 mov	 DWORD PTR [ebx+4], 0

; 1319 :             _Erase_unchecked(_First++);
; 1320 :         }
; 1321 : 
; 1322 :         return _Last._Ptr;
; 1323 :     }

  00037	5b		 pop	 ebx
  00038	5d		 pop	 ebp
  00039	c2 08 00	 ret	 8
$LN95@Erase_unch:

; 96   :         return _Ptr == _Right._Ptr;

  0003c	3b f0		 cmp	 esi, eax

; 1315 :         }
; 1316 : 
; 1317 :         // partial erase, one at a time
; 1318 :         while (_First != _Last) {

  0003e	74 2f		 je	 SHORT $LN1@Erase_unch
$LL2@Erase_unch:

; 66   :         ++*this;

  00040	8d 4d 08	 lea	 ecx, DWORD PTR __First$[ebp]
  00043	e8 00 00 00 00	 call	 ??E?$_Tree_unchecked_const_iterator@V?$_Tree_val@U?$_Tree_simple_types@U?$pair@$$CBKUSPartyMemberInfo@CPythonPlayer@@@std@@@std@@@std@@U_Iterator_base0@2@@std@@QAEAAV01@XZ ; std::_Tree_unchecked_const_iterator<std::_Tree_val<std::_Tree_simple_types<std::pair<unsigned long const ,CPythonPlayer::SPartyMemberInfo> > >,std::_Iterator_base0>::operator++

; 1303 :         _Nodeptr _Erasednode = _Scary->_Extract(_Where); // node to erase

  00048	56		 push	 esi
  00049	8b cb		 mov	 ecx, ebx
  0004b	e8 00 00 00 00	 call	 ?_Extract@?$_Tree_val@U?$_Tree_simple_types@U?$pair@$$CBKUSPartyMemberInfo@CPythonPlayer@@@std@@@std@@@std@@QAEPAU?$_Tree_node@U?$pair@$$CBKUSPartyMemberInfo@CPythonPlayer@@@std@@PAX@2@V?$_Tree_unchecked_const_iterator@V?$_Tree_val@U?$_Tree_simple_types@U?$pair@$$CBKUSPartyMemberInfo@CPythonPlayer@@@std@@@std@@@std@@U_Iterator_base0@2@@2@@Z ; std::_Tree_val<std::_Tree_simple_types<std::pair<unsigned long const ,CPythonPlayer::SPartyMemberInfo> > >::_Extract
  00050	8b f0		 mov	 esi, eax

; 381  :         allocator_traits<_Alloc>::destroy(_Al, _STD addressof(_Ptr->_Myval));

  00052	8d 4e 1c	 lea	 ecx, DWORD PTR [esi+28]
; File C:\Program Files\Microsoft Visual Studio\2022\Community\VC\Tools\MSVC\14.44.35207\include\xstring

; 1383 :         _Tidy_deallocate();

  00055	e8 00 00 00 00	 call	 ?_Tidy_deallocate@?$basic_string@DU?$char_traits@D@std@@V?$allocator@D@2@@std@@AAEXXZ ; std::basic_string<char,std::char_traits<char>,std::allocator<char> >::_Tidy_deallocate
; File C:\Program Files\Microsoft Visual Studio\2022\Community\VC\Tools\MSVC\14.44.35207\include\xmemory

; 289  :         ::operator delete(_Ptr, _Bytes);

  0005a	6a 44		 push	 68			; 00000044H
  0005c	56		 push	 esi
  0005d	e8 00 00 00 00	 call	 ??3@YAXPAXI@Z		; operator delete
; File C:\Program Files\Microsoft Visual Studio\2022\Community\VC\Tools\MSVC\14.44.35207\include\xtree

; 96   :         return _Ptr == _Right._Ptr;

  00062	8b 75 08	 mov	 esi, DWORD PTR __First$[ebp]
; File C:\Program Files\Microsoft Visual Studio\2022\Community\VC\Tools\MSVC\14.44.35207\include\xmemory

; 289  :         ::operator delete(_Ptr, _Bytes);

  00065	83 c4 08	 add	 esp, 8
; File C:\Program Files\Microsoft Visual Studio\2022\Community\VC\Tools\MSVC\14.44.35207\include\xtree

; 96   :         return _Ptr == _Right._Ptr;

  00068	8b 45 0c	 mov	 eax, DWORD PTR __Last$[ebp]
  0006b	3b f0		 cmp	 esi, eax

; 1315 :         }
; 1316 : 
; 1317 :         // partial erase, one at a time
; 1318 :         while (_First != _Last) {

  0006d	75 d1		 jne	 SHORT $LL2@Erase_unch
$LN1@Erase_unch:
  0006f	5f		 pop	 edi

; 1319 :             _Erase_unchecked(_First++);
; 1320 :         }
; 1321 : 
; 1322 :         return _Last._Ptr;
; 1323 :     }

  00070	5e		 pop	 esi
  00071	5b		 pop	 ebx
  00072	5d		 pop	 ebp
  00073	c2 08 00	 ret	 8
?_Erase_unchecked@?$_Tree@V?$_Tmap_traits@KUSPartyMemberInfo@CPythonPlayer@@U?$less@K@std@@V?$allocator@U?$pair@$$CBKUSPartyMemberInfo@CPythonPlayer@@@std@@@4@$0A@@std@@@std@@AAEPAU?$_Tree_node@U?$pair@$$CBKUSPartyMemberInfo@CPythonPlayer@@@std@@PAX@2@V?$_Tree_unchecked_const_iterator@V?$_Tree_val@U?$_Tree_simple_types@U?$pair@$$CBKUSPartyMemberInfo@CPythonPlayer@@@std@@@std@@@std@@U_Iterator_base0@2@@2@0@Z ENDP ; std::_Tree<std::_Tmap_traits<unsigned long,CPythonPlayer::SPartyMemberInfo,std::less<unsigned long>,std::allocator<std::pair<unsigned long const ,CPythonPlayer::SPartyMemberInfo> >,0> >::_Erase_unchecked
_TEXT	ENDS
; Function compile flags: /Ogtp
; File C:\Program Files\Microsoft Visual Studio\2022\Community\VC\Tools\MSVC\14.44.35207\include\xmemory
; File C:\Program Files\Microsoft Visual Studio\2022\Community\VC\Tools\MSVC\14.44.35207\include\xtree
; File C:\Program Files\Microsoft Visual Studio\2022\Community\VC\Tools\MSVC\14.44.35207\include\xmemory
; File C:\Program Files\Microsoft Visual Studio\2022\Community\VC\Tools\MSVC\14.44.35207\include\xtree
; File C:\Program Files\Microsoft Visual Studio\2022\Community\VC\Tools\MSVC\14.44.35207\include\xmemory
;	COMDAT ??$?0$$V@?$_Compressed_pair@V?$allocator@U?$_Tree_node@U?$pair@$$CBKUSPartyMemberInfo@CPythonPlayer@@@std@@PAX@std@@@std@@V?$_Tree_val@U?$_Tree_simple_types@U?$pair@$$CBKUSPartyMemberInfo@CPythonPlayer@@@std@@@std@@@2@$00@std@@QAE@U_Zero_then_variadic_args_t@1@@Z
_TEXT	SEGMENT
___formal$ = 8						; size = 1
??$?0$$V@?$_Compressed_pair@V?$allocator@U?$_Tree_node@U?$pair@$$CBKUSPartyMemberInfo@CPythonPlayer@@@std@@PAX@std@@@std@@V?$_Tree_val@U?$_Tree_simple_types@U?$pair@$$CBKUSPartyMemberInfo@CPythonPlayer@@@std@@@std@@@2@$00@std@@QAE@U_Zero_then_variadic_args_t@1@@Z PROC ; std::_Compressed_pair<std::allocator<std::_Tree_node<std::pair<unsigned long const ,CPythonPlayer::SPartyMemberInfo>,void *> >,std::_Tree_val<std::_Tree_simple_types<std::pair<unsigned long const ,CPythonPlayer::SPartyMemberInfo> > >,1>::_Compressed_pair<std::allocator<std::_Tree_node<std::pair<unsigned long const ,CPythonPlayer::SPartyMemberInfo>,void *> >,std::_Tree_val<std::_Tree_simple_types<std::pair<unsigned long const ,CPythonPlayer::SPartyMemberInfo> > >,1><>, COMDAT
; _this$ = ecx
; File C:\Program Files\Microsoft Visual Studio\2022\Community\VC\Tools\MSVC\14.44.35207\include\xtree

; 450  :     _Tree_val() noexcept : _Myhead(), _Mysize(0) {}

  00000	c7 01 00 00 00
	00		 mov	 DWORD PTR [ecx], 0
; File C:\Program Files\Microsoft Visual Studio\2022\Community\VC\Tools\MSVC\14.44.35207\include\xmemory

; 1531 :         : _Ty1(), _Myval2(_STD forward<_Other2>(_Val2)...) {}

  00006	8b c1		 mov	 eax, ecx
; File C:\Program Files\Microsoft Visual Studio\2022\Community\VC\Tools\MSVC\14.44.35207\include\xtree

; 450  :     _Tree_val() noexcept : _Myhead(), _Mysize(0) {}

  00008	c7 41 04 00 00
	00 00		 mov	 DWORD PTR [ecx+4], 0
; File C:\Program Files\Microsoft Visual Studio\2022\Community\VC\Tools\MSVC\14.44.35207\include\xmemory

; 1531 :         : _Ty1(), _Myval2(_STD forward<_Other2>(_Val2)...) {}

  0000f	c2 04 00	 ret	 4
??$?0$$V@?$_Compressed_pair@V?$allocator@U?$_Tree_node@U?$pair@$$CBKUSPartyMemberInfo@CPythonPlayer@@@std@@PAX@std@@@std@@V?$_Tree_val@U?$_Tree_simple_types@U?$pair@$$CBKUSPartyMemberInfo@CPythonPlayer@@@std@@@std@@@2@$00@std@@QAE@U_Zero_then_variadic_args_t@1@@Z ENDP ; std::_Compressed_pair<std::allocator<std::_Tree_node<std::pair<unsigned long const ,CPythonPlayer::SPartyMemberInfo>,void *> >,std::_Tree_val<std::_Tree_simple_types<std::pair<unsigned long const ,CPythonPlayer::SPartyMemberInfo> > >,1>::_Compressed_pair<std::allocator<std::_Tree_node<std::pair<unsigned long const ,CPythonPlayer::SPartyMemberInfo>,void *> >,std::_Tree_val<std::_Tree_simple_types<std::pair<unsigned long const ,CPythonPlayer::SPartyMemberInfo> > >,1><>
_TEXT	ENDS
; Function compile flags: /Ogtp
; File C:\Program Files\Microsoft Visual Studio\2022\Community\VC\Tools\MSVC\14.44.35207\include\type_traits
;	COMDAT ??$forward@AAPAU?$_Tree_node@U?$pair@$$CBKUSPartyMemberInfo@CPythonPlayer@@@std@@PAX@std@@@std@@YAAAPAU?$_Tree_node@U?$pair@$$CBKUSPartyMemberInfo@CPythonPlayer@@@std@@PAX@0@AAPAU10@@Z
_TEXT	SEGMENT
??$forward@AAPAU?$_Tree_node@U?$pair@$$CBKUSPartyMemberInfo@CPythonPlayer@@@std@@PAX@std@@@std@@YAAAPAU?$_Tree_node@U?$pair@$$CBKUSPartyMemberInfo@CPythonPlayer@@@std@@PAX@0@AAPAU10@@Z PROC ; std::forward<std::_Tree_node<std::pair<unsigned long const ,CPythonPlayer::SPartyMemberInfo>,void *> * &>, COMDAT
; __Arg$ = ecx

; 1502 :     return static_cast<_Ty&&>(_Arg);

  00000	8b c1		 mov	 eax, ecx

; 1503 : }

  00002	c3		 ret	 0
??$forward@AAPAU?$_Tree_node@U?$pair@$$CBKUSPartyMemberInfo@CPythonPlayer@@@std@@PAX@std@@@std@@YAAAPAU?$_Tree_node@U?$pair@$$CBKUSPartyMemberInfo@CPythonPlayer@@@std@@PAX@0@AAPAU10@@Z ENDP ; std::forward<std::_Tree_node<std::pair<unsigned long const ,CPythonPlayer::SPartyMemberInfo>,void *> * &>
_TEXT	ENDS
; Function compile flags: /Ogtp
; File C:\Program Files\Microsoft Visual Studio\2022\Community\VC\Tools\MSVC\14.44.35207\include\xtree
; File C:\Program Files\Microsoft Visual Studio\2022\Community\VC\Tools\MSVC\14.44.35207\include\xmemory
; File C:\Program Files\Microsoft Visual Studio\2022\Community\VC\Tools\MSVC\14.44.35207\include\xtree
; File C:\Program Files\Microsoft Visual Studio\2022\Community\VC\Tools\MSVC\14.44.35207\include\xmemory
; File C:\Program Files\Microsoft Visual Studio\2022\Community\VC\Tools\MSVC\14.44.35207\include\utility
; File C:\Program Files\Microsoft Visual Studio\2022\Community\VC\Tools\MSVC\14.44.35207\include\xmemory
; File C:\Program Files\Microsoft Visual Studio\2022\Community\VC\Tools\MSVC\14.44.35207\include\utility
; File C:\Program Files\Microsoft Visual Studio\2022\Community\VC\Tools\MSVC\14.44.35207\include\xtree
;	COMDAT ??$?0U?$pair@KUSPartyMemberInfo@CPythonPlayer@@@std@@@?$_Tree_temp_node@V?$allocator@U?$_Tree_node@U?$pair@$$CBKUSPartyMemberInfo@CPythonPlayer@@@std@@PAX@std@@@std@@@std@@QAE@AAV?$allocator@U?$_Tree_node@U?$pair@$$CBKUSPartyMemberInfo@CPythonPlayer@@@std@@PAX@std@@@1@PAU?$_Tree_node@U?$pair@$$CBKUSPartyMemberInfo@CPythonPlayer@@@std@@PAX@1@$$QAU?$pair@KUSPartyMemberInfo@CPythonPlayer@@@1@@Z
_TEXT	SEGMENT
_this$ = -16						; size = 4
__$EHRec$ = -12						; size = 12
__Al_$ = 8						; size = 4
__Myhead$ = 12						; size = 4
_<_Vals_0>$ = 16					; size = 4
??$?0U?$pair@KUSPartyMemberInfo@CPythonPlayer@@@std@@@?$_Tree_temp_node@V?$allocator@U?$_Tree_node@U?$pair@$$CBKUSPartyMemberInfo@CPythonPlayer@@@std@@PAX@std@@@std@@@std@@QAE@AAV?$allocator@U?$_Tree_node@U?$pair@$$CBKUSPartyMemberInfo@CPythonPlayer@@@std@@PAX@std@@@1@PAU?$_Tree_node@U?$pair@$$CBKUSPartyMemberInfo@CPythonPlayer@@@std@@PAX@1@$$QAU?$pair@KUSPartyMemberInfo@CPythonPlayer@@@1@@Z PROC ; std::_Tree_temp_node<std::allocator<std::_Tree_node<std::pair<unsigned long const ,CPythonPlayer::SPartyMemberInfo>,void *> > >::_Tree_temp_node<std::allocator<std::_Tree_node<std::pair<unsigned long const ,CPythonPlayer::SPartyMemberInfo>,void *> > ><std::pair<unsigned long,CPythonPlayer::SPartyMemberInfo> >, COMDAT
; _this$ = ecx

; 829  :         : _Tree_temp_node_alloc<_Alnode>(_Al_) {

  00000	55		 push	 ebp
  00001	8b ec		 mov	 ebp, esp
  00003	6a ff		 push	 -1
  00005	68 00 00 00 00	 push	 __ehhandler$??$?0U?$pair@KUSPartyMemberInfo@CPythonPlayer@@@std@@@?$_Tree_temp_node@V?$allocator@U?$_Tree_node@U?$pair@$$CBKUSPartyMemberInfo@CPythonPlayer@@@std@@PAX@std@@@std@@@std@@QAE@AAV?$allocator@U?$_Tree_node@U?$pair@$$CBKUSPartyMemberInfo@CPythonPlayer@@@std@@PAX@std@@@1@PAU?$_Tree_node@U?$pair@$$CBKUSPartyMemberInfo@CPythonPlayer@@@std@@PAX@1@$$QAU?$pair@KUSPartyMemberInfo@CPythonPlayer@@@1@@Z
  0000a	64 a1 00 00 00
	00		 mov	 eax, DWORD PTR fs:0
  00010	50		 push	 eax
  00011	51		 push	 ecx
  00012	56		 push	 esi
  00013	a1 00 00 00 00	 mov	 eax, DWORD PTR ___security_cookie
  00018	33 c5		 xor	 eax, ebp
  0001a	50		 push	 eax
  0001b	8d 45 f4	 lea	 eax, DWORD PTR __$EHRec$[ebp]
  0001e	64 a3 00 00 00
	00		 mov	 DWORD PTR fs:0, eax
  00024	8b f1		 mov	 esi, ecx
  00026	89 75 f0	 mov	 DWORD PTR _this$[ebp], esi
; File C:\Program Files\Microsoft Visual Studio\2022\Community\VC\Tools\MSVC\14.44.35207\include\xmemory

; 1160 :     _CONSTEXPR20 explicit _Alloc_construct_ptr(_Alloc& _Al_) : _Al(_Al_), _Ptr(nullptr) {}

  00029	8b 45 08	 mov	 eax, DWORD PTR __Al_$[ebp]
  0002c	89 06		 mov	 DWORD PTR [esi], eax
; File C:\Program Files\Microsoft Visual Studio\2022\Community\VC\Tools\MSVC\14.44.35207\include\xtree

; 808  :     explicit _Tree_temp_node_alloc(_Alnode& _Al_) : _Alloc_construct_ptr<_Alnode>(_Al_) {

  0002e	c7 45 fc 00 00
	00 00		 mov	 DWORD PTR __$EHRec$[ebp+8], 0
; File C:\Program Files\Microsoft Visual Studio\2022\Community\VC\Tools\MSVC\14.44.35207\include\xmemory

; 1168 :         _Ptr = _Al.allocate(1);

  00035	6a 44		 push	 68			; 00000044H
  00037	c7 46 04 00 00
	00 00		 mov	 DWORD PTR [esi+4], 0
  0003e	e8 00 00 00 00	 call	 ??2@YAPAXI@Z		; operator new
; File C:\Program Files\Microsoft Visual Studio\2022\Community\VC\Tools\MSVC\14.44.35207\include\utility

; 303  :         : first(_STD forward<_Other1>(_Right.first)), second(_STD forward<_Other2>(_Right.second)) {}

  00043	8b 55 10	 mov	 edx, DWORD PTR _<_Vals_0>$[ebp]
; File C:\Program Files\Microsoft Visual Studio\2022\Community\VC\Tools\MSVC\14.44.35207\include\xmemory

; 1168 :         _Ptr = _Al.allocate(1);

  00046	83 c4 04	 add	 esp, 4
  00049	89 46 04	 mov	 DWORD PTR [esi+4], eax
; File C:\Program Files\Microsoft Visual Studio\2022\Community\VC\Tools\MSVC\14.44.35207\include\utility

; 303  :         : first(_STD forward<_Other1>(_Right.first)), second(_STD forward<_Other2>(_Right.second)) {}

  0004c	8b 0a		 mov	 ecx, DWORD PTR [edx]
  0004e	89 48 10	 mov	 DWORD PTR [eax+16], ecx
  00051	8d 4a 04	 lea	 ecx, DWORD PTR [edx+4]
  00054	51		 push	 ecx
  00055	8d 48 14	 lea	 ecx, DWORD PTR [eax+20]
  00058	e8 00 00 00 00	 call	 ??0SPartyMemberInfo@CPythonPlayer@@QAE@$$QAU01@@Z
; File C:\Program Files\Microsoft Visual Studio\2022\Community\VC\Tools\MSVC\14.44.35207\include\xtree

; 831  :         _Construct_in_place(this->_Ptr->_Left, _Myhead);

  0005d	8b 46 04	 mov	 eax, DWORD PTR [esi+4]
  00060	8b 4d 0c	 mov	 ecx, DWORD PTR __Myhead$[ebp]
  00063	89 08		 mov	 DWORD PTR [eax], ecx

; 832  :         _Construct_in_place(this->_Ptr->_Parent, _Myhead);

  00065	8b 46 04	 mov	 eax, DWORD PTR [esi+4]
  00068	89 48 04	 mov	 DWORD PTR [eax+4], ecx

; 833  :         _Construct_in_place(this->_Ptr->_Right, _Myhead);

  0006b	8b 46 04	 mov	 eax, DWORD PTR [esi+4]
  0006e	89 48 08	 mov	 DWORD PTR [eax+8], ecx

; 834  :         this->_Ptr->_Color = _Red;

  00071	8b 46 04	 mov	 eax, DWORD PTR [esi+4]
  00074	c6 40 0c 00	 mov	 BYTE PTR [eax+12], 0

; 835  :         this->_Ptr->_Isnil = false;

  00078	8b 46 04	 mov	 eax, DWORD PTR [esi+4]
  0007b	c6 40 0d 00	 mov	 BYTE PTR [eax+13], 0

; 836  :     }

  0007f	8b c6		 mov	 eax, esi
  00081	8b 4d f4	 mov	 ecx, DWORD PTR __$EHRec$[ebp]
  00084	64 89 0d 00 00
	00 00		 mov	 DWORD PTR fs:0, ecx
  0008b	59		 pop	 ecx
  0008c	5e		 pop	 esi
  0008d	8b e5		 mov	 esp, ebp
  0008f	5d		 pop	 ebp
  00090	c2 0c 00	 ret	 12			; 0000000cH
_TEXT	ENDS
;	COMDAT text$x
text$x	SEGMENT
__unwindfunclet$??$?0U?$pair@KUSPartyMemberInfo@CPythonPlayer@@@std@@@?$_Tree_temp_node@V?$allocator@U?$_Tree_node@U?$pair@$$CBKUSPartyMemberInfo@CPythonPlayer@@@std@@PAX@std@@@std@@@std@@QAE@AAV?$allocator@U?$_Tree_node@U?$pair@$$CBKUSPartyMemberInfo@CPythonPlayer@@@std@@PAX@std@@@1@PAU?$_Tree_node@U?$pair@$$CBKUSPartyMemberInfo@CPythonPlayer@@@std@@PAX@1@$$QAU?$pair@KUSPartyMemberInfo@CPythonPlayer@@@1@@Z$1:
  00000	8b 4d f0	 mov	 ecx, DWORD PTR _this$[ebp]
  00003	e9 00 00 00 00	 jmp	 ??1?$_Alloc_construct_ptr@V?$allocator@U?$_Tree_node@U?$pair@$$CBKUSPartyMemberInfo@CPythonPlayer@@@std@@PAX@std@@@std@@@std@@QAE@XZ ; std::_Alloc_construct_ptr<std::allocator<std::_Tree_node<std::pair<unsigned long const ,CPythonPlayer::SPartyMemberInfo>,void *> > >::~_Alloc_construct_ptr<std::allocator<std::_Tree_node<std::pair<unsigned long const ,CPythonPlayer::SPartyMemberInfo>,void *> > >
  00008	cc		 int	 3
  00009	cc		 int	 3
  0000a	cc		 int	 3
  0000b	cc		 int	 3
  0000c	cc		 int	 3
__ehhandler$??$?0U?$pair@KUSPartyMemberInfo@CPythonPlayer@@@std@@@?$_Tree_temp_node@V?$allocator@U?$_Tree_node@U?$pair@$$CBKUSPartyMemberInfo@CPythonPlayer@@@std@@PAX@std@@@std@@@std@@QAE@AAV?$allocator@U?$_Tree_node@U?$pair@$$CBKUSPartyMemberInfo@CPythonPlayer@@@std@@PAX@std@@@1@PAU?$_Tree_node@U?$pair@$$CBKUSPartyMemberInfo@CPythonPlayer@@@std@@PAX@1@$$QAU?$pair@KUSPartyMemberInfo@CPythonPlayer@@@1@@Z:
  0000d	90		 npad	 1
  0000e	90		 npad	 1
  0000f	8b 54 24 08	 mov	 edx, DWORD PTR [esp+8]
  00013	8d 42 0c	 lea	 eax, DWORD PTR [edx+12]
  00016	8b 4a f4	 mov	 ecx, DWORD PTR [edx-12]
  00019	33 c8		 xor	 ecx, eax
  0001b	e8 00 00 00 00	 call	 @__security_check_cookie@4
  00020	b8 00 00 00 00	 mov	 eax, OFFSET __ehfuncinfo$??$?0U?$pair@KUSPartyMemberInfo@CPythonPlayer@@@std@@@?$_Tree_temp_node@V?$allocator@U?$_Tree_node@U?$pair@$$CBKUSPartyMemberInfo@CPythonPlayer@@@std@@PAX@std@@@std@@@std@@QAE@AAV?$allocator@U?$_Tree_node@U?$pair@$$CBKUSPartyMemberInfo@CPythonPlayer@@@std@@PAX@std@@@1@PAU?$_Tree_node@U?$pair@$$CBKUSPartyMemberInfo@CPythonPlayer@@@std@@PAX@1@$$QAU?$pair@KUSPartyMemberInfo@CPythonPlayer@@@1@@Z
  00025	e9 00 00 00 00	 jmp	 ___CxxFrameHandler3
text$x	ENDS
??$?0U?$pair@KUSPartyMemberInfo@CPythonPlayer@@@std@@@?$_Tree_temp_node@V?$allocator@U?$_Tree_node@U?$pair@$$CBKUSPartyMemberInfo@CPythonPlayer@@@std@@PAX@std@@@std@@@std@@QAE@AAV?$allocator@U?$_Tree_node@U?$pair@$$CBKUSPartyMemberInfo@CPythonPlayer@@@std@@PAX@std@@@1@PAU?$_Tree_node@U?$pair@$$CBKUSPartyMemberInfo@CPythonPlayer@@@std@@PAX@1@$$QAU?$pair@KUSPartyMemberInfo@CPythonPlayer@@@1@@Z ENDP ; std::_Tree_temp_node<std::allocator<std::_Tree_node<std::pair<unsigned long const ,CPythonPlayer::SPartyMemberInfo>,void *> > >::_Tree_temp_node<std::allocator<std::_Tree_node<std::pair<unsigned long const ,CPythonPlayer::SPartyMemberInfo>,void *> > ><std::pair<unsigned long,CPythonPlayer::SPartyMemberInfo> >
; Function compile flags: /Ogtp
; File C:\Program Files\Microsoft Visual Studio\2022\Community\VC\Tools\MSVC\14.44.35207\include\utility
;	COMDAT ??$?0AAPAU?$_Tree_node@U?$pair@$$CBKUSPartyMemberInfo@CPythonPlayer@@@std@@PAX@std@@_N$0A@@?$pair@PAU?$_Tree_node@U?$pair@$$CBKUSPartyMemberInfo@CPythonPlayer@@@std@@PAX@std@@_N@std@@QAE@AAPAU?$_Tree_node@U?$pair@$$CBKUSPartyMemberInfo@CPythonPlayer@@@std@@PAX@1@$$QA_N@Z
_TEXT	SEGMENT
__Val1$ = 8						; size = 4
__Val2$ = 12						; size = 4
??$?0AAPAU?$_Tree_node@U?$pair@$$CBKUSPartyMemberInfo@CPythonPlayer@@@std@@PAX@std@@_N$0A@@?$pair@PAU?$_Tree_node@U?$pair@$$CBKUSPartyMemberInfo@CPythonPlayer@@@std@@PAX@std@@_N@std@@QAE@AAPAU?$_Tree_node@U?$pair@$$CBKUSPartyMemberInfo@CPythonPlayer@@@std@@PAX@1@$$QA_N@Z PROC ; std::pair<std::_Tree_node<std::pair<unsigned long const ,CPythonPlayer::SPartyMemberInfo>,void *> *,bool>::pair<std::_Tree_node<std::pair<unsigned long const ,CPythonPlayer::SPartyMemberInfo>,void *> *,bool><std::_Tree_node<std::pair<unsigned long const ,CPythonPlayer::SPartyMemberInfo>,void *> * &,bool,0>, COMDAT
; _this$ = ecx

; 274  :         : first(_STD forward<_Other1>(_Val1)), second(_STD forward<_Other2>(_Val2)) {

  00000	55		 push	 ebp
  00001	8b ec		 mov	 ebp, esp
  00003	8b 45 08	 mov	 eax, DWORD PTR __Val1$[ebp]
  00006	8b 00		 mov	 eax, DWORD PTR [eax]
  00008	89 01		 mov	 DWORD PTR [ecx], eax
  0000a	8b 45 0c	 mov	 eax, DWORD PTR __Val2$[ebp]
  0000d	8a 00		 mov	 al, BYTE PTR [eax]
  0000f	88 41 04	 mov	 BYTE PTR [ecx+4], al

; 275  :     }

  00012	8b c1		 mov	 eax, ecx
  00014	5d		 pop	 ebp
  00015	c2 08 00	 ret	 8
??$?0AAPAU?$_Tree_node@U?$pair@$$CBKUSPartyMemberInfo@CPythonPlayer@@@std@@PAX@std@@_N$0A@@?$pair@PAU?$_Tree_node@U?$pair@$$CBKUSPartyMemberInfo@CPythonPlayer@@@std@@PAX@std@@_N@std@@QAE@AAPAU?$_Tree_node@U?$pair@$$CBKUSPartyMemberInfo@CPythonPlayer@@@std@@PAX@1@$$QA_N@Z ENDP ; std::pair<std::_Tree_node<std::pair<unsigned long const ,CPythonPlayer::SPartyMemberInfo>,void *> *,bool>::pair<std::_Tree_node<std::pair<unsigned long const ,CPythonPlayer::SPartyMemberInfo>,void *> *,bool><std::_Tree_node<std::pair<unsigned long const ,CPythonPlayer::SPartyMemberInfo>,void *> * &,bool,0>
_TEXT	ENDS
; Function compile flags: /Ogtp
; File C:\Program Files\Microsoft Visual Studio\2022\Community\VC\Tools\MSVC\14.44.35207\include\utility
;	COMDAT ??$?0PAU?$_Tree_node@U?$pair@$$CBKUSPartyMemberInfo@CPythonPlayer@@@std@@PAX@std@@_N$0A@@?$pair@PAU?$_Tree_node@U?$pair@$$CBKUSPartyMemberInfo@CPythonPlayer@@@std@@PAX@std@@_N@std@@QAE@$$QAPAU?$_Tree_node@U?$pair@$$CBKUSPartyMemberInfo@CPythonPlayer@@@std@@PAX@1@$$QA_N@Z
_TEXT	SEGMENT
__Val1$ = 8						; size = 4
__Val2$ = 12						; size = 4
??$?0PAU?$_Tree_node@U?$pair@$$CBKUSPartyMemberInfo@CPythonPlayer@@@std@@PAX@std@@_N$0A@@?$pair@PAU?$_Tree_node@U?$pair@$$CBKUSPartyMemberInfo@CPythonPlayer@@@std@@PAX@std@@_N@std@@QAE@$$QAPAU?$_Tree_node@U?$pair@$$CBKUSPartyMemberInfo@CPythonPlayer@@@std@@PAX@1@$$QA_N@Z PROC ; std::pair<std::_Tree_node<std::pair<unsigned long const ,CPythonPlayer::SPartyMemberInfo>,void *> *,bool>::pair<std::_Tree_node<std::pair<unsigned long const ,CPythonPlayer::SPartyMemberInfo>,void *> *,bool><std::_Tree_node<std::pair<unsigned long const ,CPythonPlayer::SPartyMemberInfo>,void *> *,bool,0>, COMDAT
; _this$ = ecx

; 274  :         : first(_STD forward<_Other1>(_Val1)), second(_STD forward<_Other2>(_Val2)) {

  00000	55		 push	 ebp
  00001	8b ec		 mov	 ebp, esp
  00003	8b 45 08	 mov	 eax, DWORD PTR __Val1$[ebp]
  00006	8b 00		 mov	 eax, DWORD PTR [eax]
  00008	89 01		 mov	 DWORD PTR [ecx], eax
  0000a	8b 45 0c	 mov	 eax, DWORD PTR __Val2$[ebp]
  0000d	8a 00		 mov	 al, BYTE PTR [eax]
  0000f	88 41 04	 mov	 BYTE PTR [ecx+4], al

; 275  :     }

  00012	8b c1		 mov	 eax, ecx
  00014	5d		 pop	 ebp
  00015	c2 08 00	 ret	 8
??$?0PAU?$_Tree_node@U?$pair@$$CBKUSPartyMemberInfo@CPythonPlayer@@@std@@PAX@std@@_N$0A@@?$pair@PAU?$_Tree_node@U?$pair@$$CBKUSPartyMemberInfo@CPythonPlayer@@@std@@PAX@std@@_N@std@@QAE@$$QAPAU?$_Tree_node@U?$pair@$$CBKUSPartyMemberInfo@CPythonPlayer@@@std@@PAX@1@$$QA_N@Z ENDP ; std::pair<std::_Tree_node<std::pair<unsigned long const ,CPythonPlayer::SPartyMemberInfo>,void *> *,bool>::pair<std::_Tree_node<std::pair<unsigned long const ,CPythonPlayer::SPartyMemberInfo>,void *> *,bool><std::_Tree_node<std::pair<unsigned long const ,CPythonPlayer::SPartyMemberInfo>,void *> *,bool,0>
_TEXT	ENDS
; Function compile flags: /Ogtp
; File C:\Program Files\Microsoft Visual Studio\2022\Community\VC\Tools\MSVC\14.44.35207\include\type_traits
;	COMDAT ??$forward@V?$_Tree_iterator@V?$_Tree_val@U?$_Tree_simple_types@U?$pair@$$CBKUSPartyMemberInfo@CPythonPlayer@@@std@@@std@@@std@@@std@@@std@@YA$$QAV?$_Tree_iterator@V?$_Tree_val@U?$_Tree_simple_types@U?$pair@$$CBKUSPartyMemberInfo@CPythonPlayer@@@std@@@std@@@std@@@0@AAV10@@Z
_TEXT	SEGMENT
??$forward@V?$_Tree_iterator@V?$_Tree_val@U?$_Tree_simple_types@U?$pair@$$CBKUSPartyMemberInfo@CPythonPlayer@@@std@@@std@@@std@@@std@@@std@@YA$$QAV?$_Tree_iterator@V?$_Tree_val@U?$_Tree_simple_types@U?$pair@$$CBKUSPartyMemberInfo@CPythonPlayer@@@std@@@std@@@std@@@0@AAV10@@Z PROC ; std::forward<std::_Tree_iterator<std::_Tree_val<std::_Tree_simple_types<std::pair<unsigned long const ,CPythonPlayer::SPartyMemberInfo> > > > >, COMDAT
; __Arg$ = ecx

; 1502 :     return static_cast<_Ty&&>(_Arg);

  00000	8b c1		 mov	 eax, ecx

; 1503 : }

  00002	c3		 ret	 0
??$forward@V?$_Tree_iterator@V?$_Tree_val@U?$_Tree_simple_types@U?$pair@$$CBKUSPartyMemberInfo@CPythonPlayer@@@std@@@std@@@std@@@std@@@std@@YA$$QAV?$_Tree_iterator@V?$_Tree_val@U?$_Tree_simple_types@U?$pair@$$CBKUSPartyMemberInfo@CPythonPlayer@@@std@@@std@@@std@@@0@AAV10@@Z ENDP ; std::forward<std::_Tree_iterator<std::_Tree_val<std::_Tree_simple_types<std::pair<unsigned long const ,CPythonPlayer::SPartyMemberInfo> > > > >
_TEXT	ENDS
; Function compile flags: /Ogtp
; File C:\Program Files\Microsoft Visual Studio\2022\Community\VC\Tools\MSVC\14.44.35207\include\xmemory
; File C:\Program Files\Microsoft Visual Studio\2022\Community\VC\Tools\MSVC\14.44.35207\include\xstring
; File C:\Program Files\Microsoft Visual Studio\2022\Community\VC\Tools\MSVC\14.44.35207\include\xmemory
;	COMDAT ??$destroy@U?$pair@$$CBKUSPartyMemberInfo@CPythonPlayer@@@std@@@?$_Default_allocator_traits@V?$allocator@U?$_Tree_node@U?$pair@$$CBKUSPartyMemberInfo@CPythonPlayer@@@std@@PAX@std@@@std@@@std@@SAXAAV?$allocator@U?$_Tree_node@U?$pair@$$CBKUSPartyMemberInfo@CPythonPlayer@@@std@@PAX@std@@@1@QAU?$pair@$$CBKUSPartyMemberInfo@CPythonPlayer@@@1@@Z
_TEXT	SEGMENT
??$destroy@U?$pair@$$CBKUSPartyMemberInfo@CPythonPlayer@@@std@@@?$_Default_allocator_traits@V?$allocator@U?$_Tree_node@U?$pair@$$CBKUSPartyMemberInfo@CPythonPlayer@@@std@@PAX@std@@@std@@@std@@SAXAAV?$allocator@U?$_Tree_node@U?$pair@$$CBKUSPartyMemberInfo@CPythonPlayer@@@std@@PAX@std@@@1@QAU?$pair@$$CBKUSPartyMemberInfo@CPythonPlayer@@@1@@Z PROC ; std::_Default_allocator_traits<std::allocator<std::_Tree_node<std::pair<unsigned long const ,CPythonPlayer::SPartyMemberInfo>,void *> > >::destroy<std::pair<unsigned long const ,CPythonPlayer::SPartyMemberInfo> >, COMDAT
; ___formal$dead$ = ecx
; __Ptr$ = edx

; 737  :     static _CONSTEXPR20 void destroy(_Alloc&, _Uty* const _Ptr) {

  00000	8d 4a 0c	 lea	 ecx, DWORD PTR [edx+12]
; File C:\Program Files\Microsoft Visual Studio\2022\Community\VC\Tools\MSVC\14.44.35207\include\xstring

; 1383 :         _Tidy_deallocate();

  00003	e9 00 00 00 00	 jmp	 ?_Tidy_deallocate@?$basic_string@DU?$char_traits@D@std@@V?$allocator@D@2@@std@@AAEXXZ ; std::basic_string<char,std::char_traits<char>,std::allocator<char> >::_Tidy_deallocate
??$destroy@U?$pair@$$CBKUSPartyMemberInfo@CPythonPlayer@@@std@@@?$_Default_allocator_traits@V?$allocator@U?$_Tree_node@U?$pair@$$CBKUSPartyMemberInfo@CPythonPlayer@@@std@@PAX@std@@@std@@@std@@SAXAAV?$allocator@U?$_Tree_node@U?$pair@$$CBKUSPartyMemberInfo@CPythonPlayer@@@std@@PAX@std@@@1@QAU?$pair@$$CBKUSPartyMemberInfo@CPythonPlayer@@@1@@Z ENDP ; std::_Default_allocator_traits<std::allocator<std::_Tree_node<std::pair<unsigned long const ,CPythonPlayer::SPartyMemberInfo>,void *> > >::destroy<std::pair<unsigned long const ,CPythonPlayer::SPartyMemberInfo> >
_TEXT	ENDS
; Function compile flags: /Ogtp
; File C:\Program Files\Microsoft Visual Studio\2022\Community\VC\Tools\MSVC\14.44.35207\include\xmemory
;	COMDAT ??$_Destroy_in_place@PAU?$_Tree_node@U?$pair@$$CBKUSPartyMemberInfo@CPythonPlayer@@@std@@PAX@std@@@std@@YAXAAPAU?$_Tree_node@U?$pair@$$CBKUSPartyMemberInfo@CPythonPlayer@@@std@@PAX@0@@Z
_TEXT	SEGMENT
??$_Destroy_in_place@PAU?$_Tree_node@U?$pair@$$CBKUSPartyMemberInfo@CPythonPlayer@@@std@@PAX@std@@@std@@YAXAAPAU?$_Tree_node@U?$pair@$$CBKUSPartyMemberInfo@CPythonPlayer@@@std@@PAX@0@@Z PROC ; std::_Destroy_in_place<std::_Tree_node<std::pair<unsigned long const ,CPythonPlayer::SPartyMemberInfo>,void *> *>, COMDAT
; __Obj$dead$ = ecx

; 321  :     if constexpr (is_array_v<_Ty>) {
; 322  :         _STD _Destroy_range(_Obj, _Obj + extent_v<_Ty>);
; 323  :     } else {
; 324  :         _Obj.~_Ty();
; 325  :     }
; 326  : }

  00000	c2 00 00	 ret	 0
??$_Destroy_in_place@PAU?$_Tree_node@U?$pair@$$CBKUSPartyMemberInfo@CPythonPlayer@@@std@@PAX@std@@@std@@YAXAAPAU?$_Tree_node@U?$pair@$$CBKUSPartyMemberInfo@CPythonPlayer@@@std@@PAX@0@@Z ENDP ; std::_Destroy_in_place<std::_Tree_node<std::pair<unsigned long const ,CPythonPlayer::SPartyMemberInfo>,void *> *>
_TEXT	ENDS
; Function compile flags: /Ogtp
; File C:\Program Files\Microsoft Visual Studio\2022\Community\VC\Tools\MSVC\14.44.35207\include\xmemory
; File C:\Program Files\Microsoft Visual Studio\2022\Community\VC\Tools\MSVC\14.44.35207\include\tuple
; File C:\Program Files\Microsoft Visual Studio\2022\Community\VC\Tools\MSVC\14.44.35207\include\utility
; File C:\Program Files\Microsoft Visual Studio\2022\Community\VC\Tools\MSVC\14.44.35207\include\xmemory
;	COMDAT ??$construct@U?$pair@$$CBKK@std@@ABUpiecewise_construct_t@2@V?$tuple@ABK@2@V?$tuple@$$V@2@@?$_Default_allocator_traits@V?$allocator@U?$_Tree_node@U?$pair@$$CBKK@std@@PAX@std@@@std@@@std@@SAXAAV?$allocator@U?$_Tree_node@U?$pair@$$CBKK@std@@PAX@std@@@1@QAU?$pair@$$CBKK@1@ABUpiecewise_construct_t@1@$$QAV?$tuple@ABK@1@$$QAV?$tuple@$$V@1@@Z
_TEXT	SEGMENT
_<_Args_0>$dead$ = 8					; size = 4
_<_Args_1>$ = 12					; size = 4
_<_Args_2>$dead$ = 16					; size = 4
??$construct@U?$pair@$$CBKK@std@@ABUpiecewise_construct_t@2@V?$tuple@ABK@2@V?$tuple@$$V@2@@?$_Default_allocator_traits@V?$allocator@U?$_Tree_node@U?$pair@$$CBKK@std@@PAX@std@@@std@@@std@@SAXAAV?$allocator@U?$_Tree_node@U?$pair@$$CBKK@std@@PAX@std@@@1@QAU?$pair@$$CBKK@1@ABUpiecewise_construct_t@1@$$QAV?$tuple@ABK@1@$$QAV?$tuple@$$V@1@@Z PROC ; std::_Default_allocator_traits<std::allocator<std::_Tree_node<std::pair<unsigned long const ,unsigned long>,void *> > >::construct<std::pair<unsigned long const ,unsigned long>,std::piecewise_construct_t const &,std::tuple<unsigned long const &>,std::tuple<> >, COMDAT
; ___formal$dead$ = ecx
; __Ptr$ = edx

; 728  :     static _CONSTEXPR20 void construct(_Alloc&, _Objty* const _Ptr, _Types&&... _Args) {

  00000	55		 push	 ebp
  00001	8b ec		 mov	 ebp, esp
; File C:\Program Files\Microsoft Visual Studio\2022\Community\VC\Tools\MSVC\14.44.35207\include\tuple

; 352  :     tuple(tuple&&)      = default;

  00003	8b 45 0c	 mov	 eax, DWORD PTR _<_Args_1>$[ebp]
  00006	8b 00		 mov	 eax, DWORD PTR [eax]
; File C:\Program Files\Microsoft Visual Studio\2022\Community\VC\Tools\MSVC\14.44.35207\include\utility

; 478  :         : first(_STD _Tuple_get<_Indices1>(_STD move(_Val1))...),

  00008	8b 00		 mov	 eax, DWORD PTR [eax]
  0000a	89 02		 mov	 DWORD PTR [edx], eax

; 479  :           second(_STD _Tuple_get<_Indices2>(_STD move(_Val2))...) {}

  0000c	c7 42 04 00 00
	00 00		 mov	 DWORD PTR [edx+4], 0
; File C:\Program Files\Microsoft Visual Studio\2022\Community\VC\Tools\MSVC\14.44.35207\include\xmemory

; 734  :     }

  00013	5d		 pop	 ebp
  00014	c3		 ret	 0
??$construct@U?$pair@$$CBKK@std@@ABUpiecewise_construct_t@2@V?$tuple@ABK@2@V?$tuple@$$V@2@@?$_Default_allocator_traits@V?$allocator@U?$_Tree_node@U?$pair@$$CBKK@std@@PAX@std@@@std@@@std@@SAXAAV?$allocator@U?$_Tree_node@U?$pair@$$CBKK@std@@PAX@std@@@1@QAU?$pair@$$CBKK@1@ABUpiecewise_construct_t@1@$$QAV?$tuple@ABK@1@$$QAV?$tuple@$$V@1@@Z ENDP ; std::_Default_allocator_traits<std::allocator<std::_Tree_node<std::pair<unsigned long const ,unsigned long>,void *> > >::construct<std::pair<unsigned long const ,unsigned long>,std::piecewise_construct_t const &,std::tuple<unsigned long const &>,std::tuple<> >
_TEXT	ENDS
; Function compile flags: /Ogtp
; File C:\Program Files\Microsoft Visual Studio\2022\Community\VC\Tools\MSVC\14.44.35207\include\xutility
;	COMDAT ??$_Adl_verify_range@V?$_Tree_unchecked_const_iterator@V?$_Tree_val@U?$_Tree_simple_types@U?$pair@$$CBKUSPartyMemberInfo@CPythonPlayer@@@std@@@std@@@std@@U_Iterator_base0@2@@std@@V12@@std@@YAXABV?$_Tree_unchecked_const_iterator@V?$_Tree_val@U?$_Tree_simple_types@U?$pair@$$CBKUSPartyMemberInfo@CPythonPlayer@@@std@@@std@@@std@@U_Iterator_base0@2@@0@0@Z
_TEXT	SEGMENT
??$_Adl_verify_range@V?$_Tree_unchecked_const_iterator@V?$_Tree_val@U?$_Tree_simple_types@U?$pair@$$CBKUSPartyMemberInfo@CPythonPlayer@@@std@@@std@@@std@@U_Iterator_base0@2@@std@@V12@@std@@YAXABV?$_Tree_unchecked_const_iterator@V?$_Tree_val@U?$_Tree_simple_types@U?$pair@$$CBKUSPartyMemberInfo@CPythonPlayer@@@std@@@std@@@std@@U_Iterator_base0@2@@0@0@Z PROC ; std::_Adl_verify_range<std::_Tree_unchecked_const_iterator<std::_Tree_val<std::_Tree_simple_types<std::pair<unsigned long const ,CPythonPlayer::SPartyMemberInfo> > >,std::_Iterator_base0>,std::_Tree_unchecked_const_iterator<std::_Tree_val<std::_Tree_simple_types<std::pair<unsigned long const ,CPythonPlayer::SPartyMemberInfo> > >,std::_Iterator_base0> >, COMDAT
; __First$dead$ = ecx
; __Last$dead$ = edx

; 1353 :     // check that [_First, _Last) forms an iterator range
; 1354 :     if constexpr (is_pointer_v<_Iter> && is_pointer_v<_Sentinel>) {
; 1355 : #if _ITERATOR_DEBUG_LEVEL != 0
; 1356 :         _STL_VERIFY(_First <= _Last, "transposed pointer range");
; 1357 : #endif // _ITERATOR_DEBUG_LEVEL != 0
; 1358 :     } else if constexpr (_Range_verifiable_v<_Iter, _Sentinel>) {
; 1359 :         _Verify_range(_First, _Last);
; 1360 :     }
; 1361 : }

  00000	c2 00 00	 ret	 0
??$_Adl_verify_range@V?$_Tree_unchecked_const_iterator@V?$_Tree_val@U?$_Tree_simple_types@U?$pair@$$CBKUSPartyMemberInfo@CPythonPlayer@@@std@@@std@@@std@@U_Iterator_base0@2@@std@@V12@@std@@YAXABV?$_Tree_unchecked_const_iterator@V?$_Tree_val@U?$_Tree_simple_types@U?$pair@$$CBKUSPartyMemberInfo@CPythonPlayer@@@std@@@std@@@std@@U_Iterator_base0@2@@0@0@Z ENDP ; std::_Adl_verify_range<std::_Tree_unchecked_const_iterator<std::_Tree_val<std::_Tree_simple_types<std::pair<unsigned long const ,CPythonPlayer::SPartyMemberInfo> > >,std::_Iterator_base0>,std::_Tree_unchecked_const_iterator<std::_Tree_val<std::_Tree_simple_types<std::pair<unsigned long const ,CPythonPlayer::SPartyMemberInfo> > >,std::_Iterator_base0> >
_TEXT	ENDS
; Function compile flags: /Ogtp
; File C:\Program Files\Microsoft Visual Studio\2022\Community\VC\Tools\MSVC\14.44.35207\include\type_traits
;	COMDAT ??$addressof@$$CBV?$_Tree_val@U?$_Tree_simple_types@U?$pair@$$CBKUSPartyMemberInfo@CPythonPlayer@@@std@@@std@@@std@@@std@@YAPBV?$_Tree_val@U?$_Tree_simple_types@U?$pair@$$CBKUSPartyMemberInfo@CPythonPlayer@@@std@@@std@@@0@ABV10@@Z
_TEXT	SEGMENT
??$addressof@$$CBV?$_Tree_val@U?$_Tree_simple_types@U?$pair@$$CBKUSPartyMemberInfo@CPythonPlayer@@@std@@@std@@@std@@@std@@YAPBV?$_Tree_val@U?$_Tree_simple_types@U?$pair@$$CBKUSPartyMemberInfo@CPythonPlayer@@@std@@@std@@@0@ABV10@@Z PROC ; std::addressof<std::_Tree_val<std::_Tree_simple_types<std::pair<unsigned long const ,CPythonPlayer::SPartyMemberInfo> > > const >, COMDAT
; __Val$ = ecx

; 1525 :     return __builtin_addressof(_Val);

  00000	8b c1		 mov	 eax, ecx

; 1526 : }

  00002	c3		 ret	 0
??$addressof@$$CBV?$_Tree_val@U?$_Tree_simple_types@U?$pair@$$CBKUSPartyMemberInfo@CPythonPlayer@@@std@@@std@@@std@@@std@@YAPBV?$_Tree_val@U?$_Tree_simple_types@U?$pair@$$CBKUSPartyMemberInfo@CPythonPlayer@@@std@@@std@@@0@ABV10@@Z ENDP ; std::addressof<std::_Tree_val<std::_Tree_simple_types<std::pair<unsigned long const ,CPythonPlayer::SPartyMemberInfo> > > const >
_TEXT	ENDS
; Function compile flags: /Ogtp
; File C:\Program Files\Microsoft Visual Studio\2022\Community\VC\Tools\MSVC\14.44.35207\include\xtree
;	COMDAT ??$_Buyheadnode@V?$allocator@U?$_Tree_node@U?$pair@$$CBKUSPartyMemberInfo@CPythonPlayer@@@std@@PAX@std@@@std@@@?$_Tree_node@U?$pair@$$CBKUSPartyMemberInfo@CPythonPlayer@@@std@@PAX@std@@SAPAU01@AAV?$allocator@U?$_Tree_node@U?$pair@$$CBKUSPartyMemberInfo@CPythonPlayer@@@std@@PAX@std@@@1@@Z
_TEXT	SEGMENT
??$_Buyheadnode@V?$allocator@U?$_Tree_node@U?$pair@$$CBKUSPartyMemberInfo@CPythonPlayer@@@std@@PAX@std@@@std@@@?$_Tree_node@U?$pair@$$CBKUSPartyMemberInfo@CPythonPlayer@@@std@@PAX@std@@SAPAU01@AAV?$allocator@U?$_Tree_node@U?$pair@$$CBKUSPartyMemberInfo@CPythonPlayer@@@std@@PAX@std@@@1@@Z PROC ; std::_Tree_node<std::pair<unsigned long const ,CPythonPlayer::SPartyMemberInfo>,void *>::_Buyheadnode<std::allocator<std::_Tree_node<std::pair<unsigned long const ,CPythonPlayer::SPartyMemberInfo>,void *> > >, COMDAT
; __Al$dead$ = ecx

; 344  :         static_assert(is_same_v<typename _Alloc::value_type, _Tree_node>, "Bad _Buyheadnode call");
; 345  :         const auto _Pnode = _Al.allocate(1);

  00000	6a 44		 push	 68			; 00000044H
  00002	e8 00 00 00 00	 call	 ??2@YAPAXI@Z		; operator new
  00007	83 c4 04	 add	 esp, 4

; 346  :         _Construct_in_place(_Pnode->_Left, _Pnode);

  0000a	89 00		 mov	 DWORD PTR [eax], eax

; 347  :         _Construct_in_place(_Pnode->_Parent, _Pnode);

  0000c	89 40 04	 mov	 DWORD PTR [eax+4], eax

; 348  :         _Construct_in_place(_Pnode->_Right, _Pnode);

  0000f	89 40 08	 mov	 DWORD PTR [eax+8], eax

; 349  :         _Pnode->_Color = _Black;

  00012	66 c7 40 0c 01
	01		 mov	 WORD PTR [eax+12], 257	; 00000101H

; 350  :         _Pnode->_Isnil = true;
; 351  :         return _Pnode;
; 352  :     }

  00018	c3		 ret	 0
??$_Buyheadnode@V?$allocator@U?$_Tree_node@U?$pair@$$CBKUSPartyMemberInfo@CPythonPlayer@@@std@@PAX@std@@@std@@@?$_Tree_node@U?$pair@$$CBKUSPartyMemberInfo@CPythonPlayer@@@std@@PAX@std@@SAPAU01@AAV?$allocator@U?$_Tree_node@U?$pair@$$CBKUSPartyMemberInfo@CPythonPlayer@@@std@@PAX@std@@@1@@Z ENDP ; std::_Tree_node<std::pair<unsigned long const ,CPythonPlayer::SPartyMemberInfo>,void *>::_Buyheadnode<std::allocator<std::_Tree_node<std::pair<unsigned long const ,CPythonPlayer::SPartyMemberInfo>,void *> > >
_TEXT	ENDS
; Function compile flags: /Ogtp
; File C:\Program Files\Microsoft Visual Studio\2022\Community\VC\Tools\MSVC\14.44.35207\include\xmemory
; File C:\Program Files\Microsoft Visual Studio\2022\Community\VC\Tools\MSVC\14.44.35207\include\utility
; File C:\Program Files\Microsoft Visual Studio\2022\Community\VC\Tools\MSVC\14.44.35207\include\xmemory
;	COMDAT ?_Release@?$_Alloc_construct_ptr@V?$allocator@U?$_Tree_node@U?$pair@$$CBKUSPartyMemberInfo@CPythonPlayer@@@std@@PAX@std@@@std@@@std@@QAEPAU?$_Tree_node@U?$pair@$$CBKUSPartyMemberInfo@CPythonPlayer@@@std@@PAX@2@XZ
_TEXT	SEGMENT
?_Release@?$_Alloc_construct_ptr@V?$allocator@U?$_Tree_node@U?$pair@$$CBKUSPartyMemberInfo@CPythonPlayer@@@std@@PAX@std@@@std@@@std@@QAEPAU?$_Tree_node@U?$pair@$$CBKUSPartyMemberInfo@CPythonPlayer@@@std@@PAX@2@XZ PROC ; std::_Alloc_construct_ptr<std::allocator<std::_Tree_node<std::pair<unsigned long const ,CPythonPlayer::SPartyMemberInfo>,void *> > >::_Release, COMDAT
; _this$ = ecx
; File C:\Program Files\Microsoft Visual Studio\2022\Community\VC\Tools\MSVC\14.44.35207\include\utility

; 773  :     _Ty _Old_val = static_cast<_Ty&&>(_Val);

  00000	8b 41 04	 mov	 eax, DWORD PTR [ecx+4]

; 774  :     _Val         = static_cast<_Other&&>(_New_val);

  00003	c7 41 04 00 00
	00 00		 mov	 DWORD PTR [ecx+4], 0
; File C:\Program Files\Microsoft Visual Studio\2022\Community\VC\Tools\MSVC\14.44.35207\include\xmemory

; 1164 :     }

  0000a	c3		 ret	 0
?_Release@?$_Alloc_construct_ptr@V?$allocator@U?$_Tree_node@U?$pair@$$CBKUSPartyMemberInfo@CPythonPlayer@@@std@@PAX@std@@@std@@@std@@QAEPAU?$_Tree_node@U?$pair@$$CBKUSPartyMemberInfo@CPythonPlayer@@@std@@PAX@2@XZ ENDP ; std::_Alloc_construct_ptr<std::allocator<std::_Tree_node<std::pair<unsigned long const ,CPythonPlayer::SPartyMemberInfo>,void *> > >::_Release
_TEXT	ENDS
; Function compile flags: /Ogtp
; File C:\Program Files\Microsoft Visual Studio\2022\Community\VC\Tools\MSVC\14.44.35207\include\xtree
; File C:\Program Files\Microsoft Visual Studio\2022\Community\VC\Tools\MSVC\14.44.35207\include\xstring
; File C:\Program Files\Microsoft Visual Studio\2022\Community\VC\Tools\MSVC\14.44.35207\include\xmemory
; File C:\Program Files\Microsoft Visual Studio\2022\Community\VC\Tools\MSVC\14.44.35207\include\xtree
;	COMDAT ??1?$_Tree_temp_node@V?$allocator@U?$_Tree_node@U?$pair@$$CBKUSPartyMemberInfo@CPythonPlayer@@@std@@PAX@std@@@std@@@std@@QAE@XZ
_TEXT	SEGMENT
??1?$_Tree_temp_node@V?$allocator@U?$_Tree_node@U?$pair@$$CBKUSPartyMemberInfo@CPythonPlayer@@@std@@PAX@std@@@std@@@std@@QAE@XZ PROC ; std::_Tree_temp_node<std::allocator<std::_Tree_node<std::pair<unsigned long const ,CPythonPlayer::SPartyMemberInfo>,void *> > >::~_Tree_temp_node<std::allocator<std::_Tree_node<std::pair<unsigned long const ,CPythonPlayer::SPartyMemberInfo>,void *> > >, COMDAT
; _this$ = ecx

; 841  :     ~_Tree_temp_node() {

  00000	56		 push	 esi
  00001	8b f1		 mov	 esi, ecx

; 842  :         if (this->_Ptr) {

  00003	8b 4e 04	 mov	 ecx, DWORD PTR [esi+4]
  00006	85 c9		 test	 ecx, ecx
  00008	74 08		 je	 SHORT $LN11@Tree_temp_

; 843  :             _Destroy_in_place(this->_Ptr->_Left);
; 844  :             _Destroy_in_place(this->_Ptr->_Parent);
; 845  :             _Destroy_in_place(this->_Ptr->_Right);
; 846  :             _Alnode_traits::destroy(this->_Al, _STD addressof(this->_Ptr->_Myval));

  0000a	83 c1 1c	 add	 ecx, 28			; 0000001cH
; File C:\Program Files\Microsoft Visual Studio\2022\Community\VC\Tools\MSVC\14.44.35207\include\xstring

; 1383 :         _Tidy_deallocate();

  0000d	e8 00 00 00 00	 call	 ?_Tidy_deallocate@?$basic_string@DU?$char_traits@D@std@@V?$allocator@D@2@@std@@AAEXXZ ; std::basic_string<char,std::char_traits<char>,std::allocator<char> >::_Tidy_deallocate
$LN11@Tree_temp_:
; File C:\Program Files\Microsoft Visual Studio\2022\Community\VC\Tools\MSVC\14.44.35207\include\xmemory

; 1172 :         if (_Ptr) {

  00012	8b 46 04	 mov	 eax, DWORD PTR [esi+4]
  00015	5e		 pop	 esi
  00016	85 c0		 test	 eax, eax
  00018	74 0b		 je	 SHORT $LN41@Tree_temp_

; 289  :         ::operator delete(_Ptr, _Bytes);

  0001a	6a 44		 push	 68			; 00000044H
  0001c	50		 push	 eax
  0001d	e8 00 00 00 00	 call	 ??3@YAXPAXI@Z		; operator delete
  00022	83 c4 08	 add	 esp, 8
$LN41@Tree_temp_:
; File C:\Program Files\Microsoft Visual Studio\2022\Community\VC\Tools\MSVC\14.44.35207\include\xtree

; 848  :     }

  00025	c3		 ret	 0
??1?$_Tree_temp_node@V?$allocator@U?$_Tree_node@U?$pair@$$CBKUSPartyMemberInfo@CPythonPlayer@@@std@@PAX@std@@@std@@@std@@QAE@XZ ENDP ; std::_Tree_temp_node<std::allocator<std::_Tree_node<std::pair<unsigned long const ,CPythonPlayer::SPartyMemberInfo>,void *> > >::~_Tree_temp_node<std::allocator<std::_Tree_node<std::pair<unsigned long const ,CPythonPlayer::SPartyMemberInfo>,void *> > >
_TEXT	ENDS
; Function compile flags: /Ogtp
; File C:\Program Files\Microsoft Visual Studio\2022\Community\VC\Tools\MSVC\14.44.35207\include\xmemory
;	COMDAT ?_Extract@?$_In_place_key_extract_map_impl@KU?$pair@KUSPartyMemberInfo@CPythonPlayer@@@std@@@std@@SAABKABU?$pair@KUSPartyMemberInfo@CPythonPlayer@@@2@@Z
_TEXT	SEGMENT
?_Extract@?$_In_place_key_extract_map_impl@KU?$pair@KUSPartyMemberInfo@CPythonPlayer@@@std@@@std@@SAABKABU?$pair@KUSPartyMemberInfo@CPythonPlayer@@@2@@Z PROC ; std::_In_place_key_extract_map_impl<unsigned long,std::pair<unsigned long,CPythonPlayer::SPartyMemberInfo> >::_Extract, COMDAT
; __Val$ = ecx

; 2175 :         return _Val.first;

  00000	8b c1		 mov	 eax, ecx

; 2176 :     }

  00002	c3		 ret	 0
?_Extract@?$_In_place_key_extract_map_impl@KU?$pair@KUSPartyMemberInfo@CPythonPlayer@@@std@@@std@@SAABKABU?$pair@KUSPartyMemberInfo@CPythonPlayer@@@2@@Z ENDP ; std::_In_place_key_extract_map_impl<unsigned long,std::pair<unsigned long,CPythonPlayer::SPartyMemberInfo> >::_Extract
_TEXT	ENDS
; Function compile flags: /Ogtp
; File C:\Program Files\Microsoft Visual Studio\2022\Community\VC\Tools\MSVC\14.44.35207\include\xmemory
;	COMDAT ?_Get_first@?$_Compressed_pair@U?$less@K@std@@V?$_Compressed_pair@V?$allocator@U?$_Tree_node@U?$pair@$$CBKUSPartyMemberInfo@CPythonPlayer@@@std@@PAX@std@@@std@@V?$_Tree_val@U?$_Tree_simple_types@U?$pair@$$CBKUSPartyMemberInfo@CPythonPlayer@@@std@@@std@@@2@$00@2@$00@std@@QBEABU?$less@K@2@XZ
_TEXT	SEGMENT
?_Get_first@?$_Compressed_pair@U?$less@K@std@@V?$_Compressed_pair@V?$allocator@U?$_Tree_node@U?$pair@$$CBKUSPartyMemberInfo@CPythonPlayer@@@std@@PAX@std@@@std@@V?$_Tree_val@U?$_Tree_simple_types@U?$pair@$$CBKUSPartyMemberInfo@CPythonPlayer@@@std@@@std@@@2@$00@2@$00@std@@QBEABU?$less@K@2@XZ PROC ; std::_Compressed_pair<std::less<unsigned long>,std::_Compressed_pair<std::allocator<std::_Tree_node<std::pair<unsigned long const ,CPythonPlayer::SPartyMemberInfo>,void *> >,std::_Tree_val<std::_Tree_simple_types<std::pair<unsigned long const ,CPythonPlayer::SPartyMemberInfo> > >,1>,1>::_Get_first, COMDAT
; _this$ = ecx

; 1543 :         return *this;

  00000	8b c1		 mov	 eax, ecx

; 1544 :     }

  00002	c3		 ret	 0
?_Get_first@?$_Compressed_pair@U?$less@K@std@@V?$_Compressed_pair@V?$allocator@U?$_Tree_node@U?$pair@$$CBKUSPartyMemberInfo@CPythonPlayer@@@std@@PAX@std@@@std@@V?$_Tree_val@U?$_Tree_simple_types@U?$pair@$$CBKUSPartyMemberInfo@CPythonPlayer@@@std@@@std@@@2@$00@2@$00@std@@QBEABU?$less@K@2@XZ ENDP ; std::_Compressed_pair<std::less<unsigned long>,std::_Compressed_pair<std::allocator<std::_Tree_node<std::pair<unsigned long const ,CPythonPlayer::SPartyMemberInfo>,void *> >,std::_Tree_val<std::_Tree_simple_types<std::pair<unsigned long const ,CPythonPlayer::SPartyMemberInfo> > >,1>,1>::_Get_first
_TEXT	ENDS
; Function compile flags: /Ogtp
; File C:\Program Files\Microsoft Visual Studio\2022\Community\VC\Tools\MSVC\14.44.35207\include\xtree
;	COMDAT ??8?$_Tree_unchecked_const_iterator@V?$_Tree_val@U?$_Tree_simple_types@U?$pair@$$CBKUSPartyMemberInfo@CPythonPlayer@@@std@@@std@@@std@@U_Iterator_base0@2@@std@@QBE_NABV01@@Z
_TEXT	SEGMENT
__Right$ = 8						; size = 4
??8?$_Tree_unchecked_const_iterator@V?$_Tree_val@U?$_Tree_simple_types@U?$pair@$$CBKUSPartyMemberInfo@CPythonPlayer@@@std@@@std@@@std@@U_Iterator_base0@2@@std@@QBE_NABV01@@Z PROC ; std::_Tree_unchecked_const_iterator<std::_Tree_val<std::_Tree_simple_types<std::pair<unsigned long const ,CPythonPlayer::SPartyMemberInfo> > >,std::_Iterator_base0>::operator==, COMDAT
; _this$ = ecx

; 95   :     _NODISCARD bool operator==(const _Tree_unchecked_const_iterator& _Right) const noexcept {

  00000	55		 push	 ebp
  00001	8b ec		 mov	 ebp, esp

; 96   :         return _Ptr == _Right._Ptr;

  00003	8b 45 08	 mov	 eax, DWORD PTR __Right$[ebp]
  00006	8b 09		 mov	 ecx, DWORD PTR [ecx]
  00008	3b 08		 cmp	 ecx, DWORD PTR [eax]
  0000a	0f 94 c0	 sete	 al

; 97   :     }

  0000d	5d		 pop	 ebp
  0000e	c2 04 00	 ret	 4
??8?$_Tree_unchecked_const_iterator@V?$_Tree_val@U?$_Tree_simple_types@U?$pair@$$CBKUSPartyMemberInfo@CPythonPlayer@@@std@@@std@@@std@@U_Iterator_base0@2@@std@@QBE_NABV01@@Z ENDP ; std::_Tree_unchecked_const_iterator<std::_Tree_val<std::_Tree_simple_types<std::pair<unsigned long const ,CPythonPlayer::SPartyMemberInfo> > >,std::_Iterator_base0>::operator==
_TEXT	ENDS
; Function compile flags: /Ogtp
; File C:\Program Files\Microsoft Visual Studio\2022\Community\VC\Tools\MSVC\14.44.35207\include\xtree
;	COMDAT ??E?$_Tree_unchecked_const_iterator@V?$_Tree_val@U?$_Tree_simple_types@U?$pair@$$CBKUSPartyMemberInfo@CPythonPlayer@@@std@@@std@@@std@@U_Iterator_base0@2@@std@@QAE?AV01@H@Z
_TEXT	SEGMENT
___$ReturnUdt$ = 8					; size = 4
___formal$dead$ = 12					; size = 4
??E?$_Tree_unchecked_const_iterator@V?$_Tree_val@U?$_Tree_simple_types@U?$pair@$$CBKUSPartyMemberInfo@CPythonPlayer@@@std@@@std@@@std@@U_Iterator_base0@2@@std@@QAE?AV01@H@Z PROC ; std::_Tree_unchecked_const_iterator<std::_Tree_val<std::_Tree_simple_types<std::pair<unsigned long const ,CPythonPlayer::SPartyMemberInfo> > >,std::_Iterator_base0>::operator++, COMDAT
; _this$ = ecx

; 64   :     _Tree_unchecked_const_iterator operator++(int) noexcept {

  00000	55		 push	 ebp
  00001	8b ec		 mov	 ebp, esp

; 65   :         _Tree_unchecked_const_iterator _Tmp = *this;

  00003	8b 11		 mov	 edx, DWORD PTR [ecx]
  00005	56		 push	 esi
  00006	8b 75 08	 mov	 esi, DWORD PTR ___$ReturnUdt$[ebp]
  00009	89 16		 mov	 DWORD PTR [esi], edx

; 66   :         ++*this;

  0000b	e8 00 00 00 00	 call	 ??E?$_Tree_unchecked_const_iterator@V?$_Tree_val@U?$_Tree_simple_types@U?$pair@$$CBKUSPartyMemberInfo@CPythonPlayer@@@std@@@std@@@std@@U_Iterator_base0@2@@std@@QAEAAV01@XZ ; std::_Tree_unchecked_const_iterator<std::_Tree_val<std::_Tree_simple_types<std::pair<unsigned long const ,CPythonPlayer::SPartyMemberInfo> > >,std::_Iterator_base0>::operator++

; 67   :         return _Tmp;

  00010	8b c6		 mov	 eax, esi
  00012	5e		 pop	 esi

; 68   :     }

  00013	5d		 pop	 ebp
  00014	c2 08 00	 ret	 8
??E?$_Tree_unchecked_const_iterator@V?$_Tree_val@U?$_Tree_simple_types@U?$pair@$$CBKUSPartyMemberInfo@CPythonPlayer@@@std@@@std@@@std@@U_Iterator_base0@2@@std@@QAE?AV01@H@Z ENDP ; std::_Tree_unchecked_const_iterator<std::_Tree_val<std::_Tree_simple_types<std::pair<unsigned long const ,CPythonPlayer::SPartyMemberInfo> > >,std::_Iterator_base0>::operator++
_TEXT	ENDS
; Function compile flags: /Ogtp
; File C:\Program Files\Microsoft Visual Studio\2022\Community\VC\Tools\MSVC\14.44.35207\include\xtree
;	COMDAT ?_Insert_node@?$_Tree_val@U?$_Tree_simple_types@U?$pair@$$CBKUSPartyMemberInfo@CPythonPlayer@@@std@@@std@@@std@@QAEPAU?$_Tree_node@U?$pair@$$CBKUSPartyMemberInfo@CPythonPlayer@@@std@@PAX@2@U?$_Tree_id@PAU?$_Tree_node@U?$pair@$$CBKUSPartyMemberInfo@CPythonPlayer@@@std@@PAX@std@@@2@QAU32@@Z
_TEXT	SEGMENT
__Head$1$ = -4						; size = 4
__Loc$ = 8						; size = 8
__Newnode$ = 16						; size = 4
?_Insert_node@?$_Tree_val@U?$_Tree_simple_types@U?$pair@$$CBKUSPartyMemberInfo@CPythonPlayer@@@std@@@std@@@std@@QAEPAU?$_Tree_node@U?$pair@$$CBKUSPartyMemberInfo@CPythonPlayer@@@std@@PAX@2@U?$_Tree_id@PAU?$_Tree_node@U?$pair@$$CBKUSPartyMemberInfo@CPythonPlayer@@@std@@PAX@std@@@2@QAU32@@Z PROC ; std::_Tree_val<std::_Tree_simple_types<std::pair<unsigned long const ,CPythonPlayer::SPartyMemberInfo> > >::_Insert_node, COMDAT
; _this$ = ecx

; 669  :     _Nodeptr _Insert_node(const _Tree_id<_Nodeptr> _Loc, const _Nodeptr _Newnode) noexcept {

  00000	55		 push	 ebp
  00001	8b ec		 mov	 ebp, esp
  00003	51		 push	 ecx

; 670  :         ++_Mysize;
; 671  :         const auto _Head  = _Myhead;
; 672  :         _Newnode->_Parent = _Loc._Parent;

  00004	8b 55 08	 mov	 edx, DWORD PTR __Loc$[ebp]
  00007	53		 push	 ebx
  00008	8b d9		 mov	 ebx, ecx
  0000a	57		 push	 edi
  0000b	8b 7d 10	 mov	 edi, DWORD PTR __Newnode$[ebp]
  0000e	8b 03		 mov	 eax, DWORD PTR [ebx]
  00010	ff 43 04	 inc	 DWORD PTR [ebx+4]
  00013	89 45 fc	 mov	 DWORD PTR __Head$1$[ebp], eax
  00016	89 57 04	 mov	 DWORD PTR [edi+4], edx

; 673  :         if (_Loc._Parent == _Head) { // first node in tree, just set head values

  00019	3b d0		 cmp	 edx, eax
  0001b	75 16		 jne	 SHORT $LN5@Insert_nod

; 674  :             _Head->_Left     = _Newnode;

  0001d	89 38		 mov	 DWORD PTR [eax], edi

; 675  :             _Head->_Parent   = _Newnode;

  0001f	89 78 04	 mov	 DWORD PTR [eax+4], edi

; 676  :             _Head->_Right    = _Newnode;

  00022	89 78 08	 mov	 DWORD PTR [eax+8], edi

; 735  :         return _Newnode;
; 736  :     }

  00025	8b c7		 mov	 eax, edi
  00027	c6 47 0c 01	 mov	 BYTE PTR [edi+12], 1
  0002b	5f		 pop	 edi
  0002c	5b		 pop	 ebx
  0002d	8b e5		 mov	 esp, ebp
  0002f	5d		 pop	 ebp
  00030	c2 0c 00	 ret	 12			; 0000000cH
$LN5@Insert_nod:

; 677  :             _Newnode->_Color = _Black; // the root is black
; 678  :             return _Newnode;
; 679  :         }
; 680  : 
; 681  :         _STL_INTERNAL_CHECK(_Loc._Child != _Tree_child::_Unused);
; 682  :         if (_Loc._Child == _Tree_child::_Right) { // add to right of _Loc._Parent

  00033	83 7d 0c 00	 cmp	 DWORD PTR __Loc$[ebp+4], 0
  00037	75 0d		 jne	 SHORT $LN6@Insert_nod

; 683  :             _STL_INTERNAL_CHECK(_Loc._Parent->_Right->_Isnil);
; 684  :             _Loc._Parent->_Right = _Newnode;

  00039	89 7a 08	 mov	 DWORD PTR [edx+8], edi

; 685  :             if (_Loc._Parent == _Head->_Right) { // remember rightmost node

  0003c	3b 50 08	 cmp	 edx, DWORD PTR [eax+8]
  0003f	75 0d		 jne	 SHORT $LN9@Insert_nod

; 686  :                 _Head->_Right = _Newnode;

  00041	89 78 08	 mov	 DWORD PTR [eax+8], edi

; 687  :             }
; 688  :         } else { // add to left of _Loc._Parent

  00044	eb 08		 jmp	 SHORT $LN9@Insert_nod
$LN6@Insert_nod:

; 689  :             _STL_INTERNAL_CHECK(_Loc._Parent->_Left->_Isnil);
; 690  :             _Loc._Parent->_Left = _Newnode;

  00046	89 3a		 mov	 DWORD PTR [edx], edi

; 691  :             if (_Loc._Parent == _Head->_Left) { // remember leftmost node

  00048	3b 10		 cmp	 edx, DWORD PTR [eax]
  0004a	75 02		 jne	 SHORT $LN9@Insert_nod

; 692  :                 _Head->_Left = _Newnode;

  0004c	89 38		 mov	 DWORD PTR [eax], edi
$LN9@Insert_nod:

; 693  :             }
; 694  :         }
; 695  : 
; 696  :         for (_Nodeptr _Pnode = _Newnode; _Pnode->_Parent->_Color == _Red;) {

  0004e	8b 4f 04	 mov	 ecx, DWORD PTR [edi+4]
  00051	8b c7		 mov	 eax, edi
  00053	80 79 0c 00	 cmp	 BYTE PTR [ecx+12], 0
  00057	0f 85 7d 01 00
	00		 jne	 $LN3@Insert_nod
  0005d	56		 push	 esi
  0005e	66 90		 npad	 2
$LL4@Insert_nod:

; 697  :             if (_Pnode->_Parent == _Pnode->_Parent->_Parent->_Left) { // fixup red-red in left subtree

  00060	8b 50 04	 mov	 edx, DWORD PTR [eax+4]
  00063	8b 72 04	 mov	 esi, DWORD PTR [edx+4]
  00066	8b 0e		 mov	 ecx, DWORD PTR [esi]
  00068	3b d1		 cmp	 edx, ecx
  0006a	0f 85 aa 00 00
	00		 jne	 $LN10@Insert_nod

; 698  :                 const auto _Parent_sibling = _Pnode->_Parent->_Parent->_Right;

  00070	8b 4e 08	 mov	 ecx, DWORD PTR [esi+8]

; 699  :                 if (_Parent_sibling->_Color == _Red) { // parent's sibling has two red children, blacken both

  00073	80 79 0c 00	 cmp	 BYTE PTR [ecx+12], 0
  00077	0f 84 a3 00 00
	00		 je	 $LN82@Insert_nod

; 700  :                     _Pnode->_Parent->_Color          = _Black;
; 701  :                     _Parent_sibling->_Color          = _Black;
; 702  :                     _Pnode->_Parent->_Parent->_Color = _Red;
; 703  :                     _Pnode                           = _Pnode->_Parent->_Parent;
; 704  :                 } else { // parent's sibling has red and black children
; 705  :                     if (_Pnode == _Pnode->_Parent->_Right) { // rotate right child to left

  0007d	8b 72 08	 mov	 esi, DWORD PTR [edx+8]
  00080	3b c6		 cmp	 eax, esi
  00082	75 37		 jne	 SHORT $LN57@Insert_nod

; 485  :         _Wherenode->_Right = _Pnode->_Left;

  00084	8b 0e		 mov	 ecx, DWORD PTR [esi]

; 706  :                         _Pnode = _Pnode->_Parent;

  00086	8b c2		 mov	 eax, edx

; 485  :         _Wherenode->_Right = _Pnode->_Left;

  00088	89 4a 08	 mov	 DWORD PTR [edx+8], ecx

; 486  : 
; 487  :         if (!_Pnode->_Left->_Isnil) {

  0008b	8b 0e		 mov	 ecx, DWORD PTR [esi]
  0008d	80 79 0d 00	 cmp	 BYTE PTR [ecx+13], 0
  00091	75 03		 jne	 SHORT $LN21@Insert_nod

; 488  :             _Pnode->_Left->_Parent = _Wherenode;

  00093	89 41 04	 mov	 DWORD PTR [ecx+4], eax
$LN21@Insert_nod:

; 489  :         }
; 490  : 
; 491  :         _Pnode->_Parent = _Wherenode->_Parent;

  00096	8b 4a 04	 mov	 ecx, DWORD PTR [edx+4]
  00099	89 4e 04	 mov	 DWORD PTR [esi+4], ecx

; 492  : 
; 493  :         if (_Wherenode == _Myhead->_Parent) {

  0009c	8b 0b		 mov	 ecx, DWORD PTR [ebx]
  0009e	3b 41 04	 cmp	 eax, DWORD PTR [ecx+4]
  000a1	75 05		 jne	 SHORT $LN22@Insert_nod

; 494  :             _Myhead->_Parent = _Pnode;

  000a3	89 71 04	 mov	 DWORD PTR [ecx+4], esi
  000a6	eb 0e		 jmp	 SHORT $LN25@Insert_nod
$LN22@Insert_nod:

; 495  :         } else if (_Wherenode == _Wherenode->_Parent->_Left) {

  000a8	8b 4a 04	 mov	 ecx, DWORD PTR [edx+4]
  000ab	3b 01		 cmp	 eax, DWORD PTR [ecx]
  000ad	75 04		 jne	 SHORT $LN24@Insert_nod

; 496  :             _Wherenode->_Parent->_Left = _Pnode;

  000af	89 31		 mov	 DWORD PTR [ecx], esi

; 497  :         } else {

  000b1	eb 03		 jmp	 SHORT $LN25@Insert_nod
$LN24@Insert_nod:

; 498  :             _Wherenode->_Parent->_Right = _Pnode;

  000b3	89 71 08	 mov	 DWORD PTR [ecx+8], esi
$LN25@Insert_nod:

; 499  :         }
; 500  : 
; 501  :         _Pnode->_Left       = _Wherenode;

  000b6	89 06		 mov	 DWORD PTR [esi], eax

; 502  :         _Wherenode->_Parent = _Pnode;

  000b8	89 70 04	 mov	 DWORD PTR [eax+4], esi
$LN57@Insert_nod:

; 707  :                         _Lrotate(_Pnode);
; 708  :                     }
; 709  : 
; 710  :                     _Pnode->_Parent->_Color          = _Black; // propagate red up

  000bb	8b 48 04	 mov	 ecx, DWORD PTR [eax+4]
  000be	c6 41 0c 01	 mov	 BYTE PTR [ecx+12], 1

; 711  :                     _Pnode->_Parent->_Parent->_Color = _Red;

  000c2	8b 48 04	 mov	 ecx, DWORD PTR [eax+4]
  000c5	8b 49 04	 mov	 ecx, DWORD PTR [ecx+4]
  000c8	c6 41 0c 00	 mov	 BYTE PTR [ecx+12], 0

; 712  :                     _Rrotate(_Pnode->_Parent->_Parent);

  000cc	8b 48 04	 mov	 ecx, DWORD PTR [eax+4]
  000cf	8b 51 04	 mov	 edx, DWORD PTR [ecx+4]

; 506  :         _Nodeptr _Pnode   = _Wherenode->_Left;

  000d2	8b 32		 mov	 esi, DWORD PTR [edx]

; 507  :         _Wherenode->_Left = _Pnode->_Right;

  000d4	8b 4e 08	 mov	 ecx, DWORD PTR [esi+8]
  000d7	89 0a		 mov	 DWORD PTR [edx], ecx

; 508  : 
; 509  :         if (!_Pnode->_Right->_Isnil) {

  000d9	8b 4e 08	 mov	 ecx, DWORD PTR [esi+8]
  000dc	80 79 0d 00	 cmp	 BYTE PTR [ecx+13], 0
  000e0	75 03		 jne	 SHORT $LN29@Insert_nod

; 510  :             _Pnode->_Right->_Parent = _Wherenode;

  000e2	89 51 04	 mov	 DWORD PTR [ecx+4], edx
$LN29@Insert_nod:

; 511  :         }
; 512  : 
; 513  :         _Pnode->_Parent = _Wherenode->_Parent;

  000e5	8b 4a 04	 mov	 ecx, DWORD PTR [edx+4]
  000e8	89 4e 04	 mov	 DWORD PTR [esi+4], ecx

; 514  : 
; 515  :         if (_Wherenode == _Myhead->_Parent) {

  000eb	8b 0b		 mov	 ecx, DWORD PTR [ebx]
  000ed	3b 51 04	 cmp	 edx, DWORD PTR [ecx+4]
  000f0	75 0b		 jne	 SHORT $LN30@Insert_nod

; 516  :             _Myhead->_Parent = _Pnode;

  000f2	89 71 04	 mov	 DWORD PTR [ecx+4], esi

; 521  :         }
; 522  : 
; 523  :         _Pnode->_Right      = _Wherenode;

  000f5	89 56 08	 mov	 DWORD PTR [esi+8], edx

; 713  :                 }
; 714  :             } else { // fixup red-red in right subtree

  000f8	e9 cc 00 00 00	 jmp	 $LN81@Insert_nod
$LN30@Insert_nod:

; 517  :         } else if (_Wherenode == _Wherenode->_Parent->_Right) {

  000fd	8b 4a 04	 mov	 ecx, DWORD PTR [edx+4]
  00100	3b 51 08	 cmp	 edx, DWORD PTR [ecx+8]
  00103	75 0b		 jne	 SHORT $LN32@Insert_nod

; 518  :             _Wherenode->_Parent->_Right = _Pnode;

  00105	89 71 08	 mov	 DWORD PTR [ecx+8], esi

; 521  :         }
; 522  : 
; 523  :         _Pnode->_Right      = _Wherenode;

  00108	89 56 08	 mov	 DWORD PTR [esi+8], edx

; 713  :                 }
; 714  :             } else { // fixup red-red in right subtree

  0010b	e9 b9 00 00 00	 jmp	 $LN81@Insert_nod
$LN32@Insert_nod:

; 520  :             _Wherenode->_Parent->_Left = _Pnode;

  00110	89 31		 mov	 DWORD PTR [ecx], esi

; 521  :         }
; 522  : 
; 523  :         _Pnode->_Right      = _Wherenode;

  00112	89 56 08	 mov	 DWORD PTR [esi+8], edx

; 713  :                 }
; 714  :             } else { // fixup red-red in right subtree

  00115	e9 af 00 00 00	 jmp	 $LN81@Insert_nod
$LN10@Insert_nod:

; 715  :                 const auto _Parent_sibling = _Pnode->_Parent->_Parent->_Left;
; 716  :                 if (_Parent_sibling->_Color == _Red) { // parent's sibling has two red children, blacken both

  0011a	80 79 0c 00	 cmp	 BYTE PTR [ecx+12], 0
  0011e	75 1d		 jne	 SHORT $LN15@Insert_nod
$LN82@Insert_nod:

; 693  :             }
; 694  :         }
; 695  : 
; 696  :         for (_Nodeptr _Pnode = _Newnode; _Pnode->_Parent->_Color == _Red;) {

  00120	c6 42 0c 01	 mov	 BYTE PTR [edx+12], 1
  00124	c6 41 0c 01	 mov	 BYTE PTR [ecx+12], 1
  00128	8b 48 04	 mov	 ecx, DWORD PTR [eax+4]
  0012b	8b 49 04	 mov	 ecx, DWORD PTR [ecx+4]
  0012e	c6 41 0c 00	 mov	 BYTE PTR [ecx+12], 0
  00132	8b 48 04	 mov	 ecx, DWORD PTR [eax+4]
  00135	8b 41 04	 mov	 eax, DWORD PTR [ecx+4]
  00138	e9 8f 00 00 00	 jmp	 $LN2@Insert_nod
$LN15@Insert_nod:

; 717  :                     _Pnode->_Parent->_Color          = _Black;
; 718  :                     _Parent_sibling->_Color          = _Black;
; 719  :                     _Pnode->_Parent->_Parent->_Color = _Red;
; 720  :                     _Pnode                           = _Pnode->_Parent->_Parent;
; 721  :                 } else { // parent's sibling has red and black children
; 722  :                     if (_Pnode == _Pnode->_Parent->_Left) { // rotate left child to right

  0013d	8b 32		 mov	 esi, DWORD PTR [edx]
  0013f	3b c6		 cmp	 eax, esi
  00141	75 3a		 jne	 SHORT $LN42@Insert_nod

; 507  :         _Wherenode->_Left = _Pnode->_Right;

  00143	8b 4e 08	 mov	 ecx, DWORD PTR [esi+8]

; 723  :                         _Pnode = _Pnode->_Parent;

  00146	8b c2		 mov	 eax, edx

; 507  :         _Wherenode->_Left = _Pnode->_Right;

  00148	89 08		 mov	 DWORD PTR [eax], ecx

; 508  : 
; 509  :         if (!_Pnode->_Right->_Isnil) {

  0014a	8b 4e 08	 mov	 ecx, DWORD PTR [esi+8]
  0014d	80 79 0d 00	 cmp	 BYTE PTR [ecx+13], 0
  00151	75 03		 jne	 SHORT $LN37@Insert_nod

; 510  :             _Pnode->_Right->_Parent = _Wherenode;

  00153	89 41 04	 mov	 DWORD PTR [ecx+4], eax
$LN37@Insert_nod:

; 511  :         }
; 512  : 
; 513  :         _Pnode->_Parent = _Wherenode->_Parent;

  00156	8b 4a 04	 mov	 ecx, DWORD PTR [edx+4]
  00159	89 4e 04	 mov	 DWORD PTR [esi+4], ecx

; 514  : 
; 515  :         if (_Wherenode == _Myhead->_Parent) {

  0015c	8b 0b		 mov	 ecx, DWORD PTR [ebx]
  0015e	3b 41 04	 cmp	 eax, DWORD PTR [ecx+4]
  00161	75 05		 jne	 SHORT $LN38@Insert_nod

; 516  :             _Myhead->_Parent = _Pnode;

  00163	89 71 04	 mov	 DWORD PTR [ecx+4], esi
  00166	eb 0f		 jmp	 SHORT $LN41@Insert_nod
$LN38@Insert_nod:

; 517  :         } else if (_Wherenode == _Wherenode->_Parent->_Right) {

  00168	8b 4a 04	 mov	 ecx, DWORD PTR [edx+4]
  0016b	3b 41 08	 cmp	 eax, DWORD PTR [ecx+8]
  0016e	75 05		 jne	 SHORT $LN40@Insert_nod

; 518  :             _Wherenode->_Parent->_Right = _Pnode;

  00170	89 71 08	 mov	 DWORD PTR [ecx+8], esi

; 519  :         } else {

  00173	eb 02		 jmp	 SHORT $LN41@Insert_nod
$LN40@Insert_nod:

; 520  :             _Wherenode->_Parent->_Left = _Pnode;

  00175	89 31		 mov	 DWORD PTR [ecx], esi
$LN41@Insert_nod:

; 521  :         }
; 522  : 
; 523  :         _Pnode->_Right      = _Wherenode;

  00177	89 46 08	 mov	 DWORD PTR [esi+8], eax

; 524  :         _Wherenode->_Parent = _Pnode;

  0017a	89 70 04	 mov	 DWORD PTR [eax+4], esi
$LN42@Insert_nod:

; 724  :                         _Rrotate(_Pnode);
; 725  :                     }
; 726  : 
; 727  :                     _Pnode->_Parent->_Color          = _Black; // propagate red up

  0017d	8b 48 04	 mov	 ecx, DWORD PTR [eax+4]
  00180	c6 41 0c 01	 mov	 BYTE PTR [ecx+12], 1

; 728  :                     _Pnode->_Parent->_Parent->_Color = _Red;

  00184	8b 48 04	 mov	 ecx, DWORD PTR [eax+4]
  00187	8b 49 04	 mov	 ecx, DWORD PTR [ecx+4]
  0018a	c6 41 0c 00	 mov	 BYTE PTR [ecx+12], 0

; 729  :                     _Lrotate(_Pnode->_Parent->_Parent);

  0018e	8b 48 04	 mov	 ecx, DWORD PTR [eax+4]
  00191	8b 51 04	 mov	 edx, DWORD PTR [ecx+4]

; 484  :         _Nodeptr _Pnode    = _Wherenode->_Right;

  00194	8b 72 08	 mov	 esi, DWORD PTR [edx+8]

; 485  :         _Wherenode->_Right = _Pnode->_Left;

  00197	8b 0e		 mov	 ecx, DWORD PTR [esi]
  00199	89 4a 08	 mov	 DWORD PTR [edx+8], ecx

; 486  : 
; 487  :         if (!_Pnode->_Left->_Isnil) {

  0019c	8b 0e		 mov	 ecx, DWORD PTR [esi]
  0019e	80 79 0d 00	 cmp	 BYTE PTR [ecx+13], 0
  001a2	75 03		 jne	 SHORT $LN45@Insert_nod

; 488  :             _Pnode->_Left->_Parent = _Wherenode;

  001a4	89 51 04	 mov	 DWORD PTR [ecx+4], edx
$LN45@Insert_nod:

; 489  :         }
; 490  : 
; 491  :         _Pnode->_Parent = _Wherenode->_Parent;

  001a7	8b 4a 04	 mov	 ecx, DWORD PTR [edx+4]
  001aa	89 4e 04	 mov	 DWORD PTR [esi+4], ecx

; 492  : 
; 493  :         if (_Wherenode == _Myhead->_Parent) {

  001ad	8b 0b		 mov	 ecx, DWORD PTR [ebx]
  001af	3b 51 04	 cmp	 edx, DWORD PTR [ecx+4]
  001b2	75 05		 jne	 SHORT $LN46@Insert_nod

; 494  :             _Myhead->_Parent = _Pnode;

  001b4	89 71 04	 mov	 DWORD PTR [ecx+4], esi
  001b7	eb 0e		 jmp	 SHORT $LN49@Insert_nod
$LN46@Insert_nod:

; 495  :         } else if (_Wherenode == _Wherenode->_Parent->_Left) {

  001b9	8b 4a 04	 mov	 ecx, DWORD PTR [edx+4]
  001bc	3b 11		 cmp	 edx, DWORD PTR [ecx]
  001be	75 04		 jne	 SHORT $LN48@Insert_nod

; 496  :             _Wherenode->_Parent->_Left = _Pnode;

  001c0	89 31		 mov	 DWORD PTR [ecx], esi

; 497  :         } else {

  001c2	eb 03		 jmp	 SHORT $LN49@Insert_nod
$LN48@Insert_nod:

; 498  :             _Wherenode->_Parent->_Right = _Pnode;

  001c4	89 71 08	 mov	 DWORD PTR [ecx+8], esi
$LN49@Insert_nod:

; 499  :         }
; 500  : 
; 501  :         _Pnode->_Left       = _Wherenode;

  001c7	89 16		 mov	 DWORD PTR [esi], edx
$LN81@Insert_nod:

; 693  :             }
; 694  :         }
; 695  : 
; 696  :         for (_Nodeptr _Pnode = _Newnode; _Pnode->_Parent->_Color == _Red;) {

  001c9	89 72 04	 mov	 DWORD PTR [edx+4], esi
$LN2@Insert_nod:
  001cc	8b 48 04	 mov	 ecx, DWORD PTR [eax+4]
  001cf	80 79 0c 00	 cmp	 BYTE PTR [ecx+12], 0
  001d3	0f 84 87 fe ff
	ff		 je	 $LL4@Insert_nod
  001d9	5e		 pop	 esi
$LN3@Insert_nod:

; 730  :                 }
; 731  :             }
; 732  :         }
; 733  : 
; 734  :         _Head->_Parent->_Color = _Black; // root is always black

  001da	8b 45 fc	 mov	 eax, DWORD PTR __Head$1$[ebp]
  001dd	8b 40 04	 mov	 eax, DWORD PTR [eax+4]
  001e0	c6 40 0c 01	 mov	 BYTE PTR [eax+12], 1

; 735  :         return _Newnode;
; 736  :     }

  001e4	8b c7		 mov	 eax, edi
  001e6	5f		 pop	 edi
  001e7	5b		 pop	 ebx
  001e8	8b e5		 mov	 esp, ebp
  001ea	5d		 pop	 ebp
  001eb	c2 0c 00	 ret	 12			; 0000000cH
?_Insert_node@?$_Tree_val@U?$_Tree_simple_types@U?$pair@$$CBKUSPartyMemberInfo@CPythonPlayer@@@std@@@std@@@std@@QAEPAU?$_Tree_node@U?$pair@$$CBKUSPartyMemberInfo@CPythonPlayer@@@std@@PAX@2@U?$_Tree_id@PAU?$_Tree_node@U?$pair@$$CBKUSPartyMemberInfo@CPythonPlayer@@@std@@PAX@std@@@2@QAU32@@Z ENDP ; std::_Tree_val<std::_Tree_simple_types<std::pair<unsigned long const ,CPythonPlayer::SPartyMemberInfo> > >::_Insert_node
_TEXT	ENDS
; Function compile flags: /Ogtp
; File C:\Program Files\Microsoft Visual Studio\2022\Community\VC\Tools\MSVC\14.44.35207\include\xtree
;	COMDAT ?_Min@?$_Tree_val@U?$_Tree_simple_types@U?$pair@$$CBKUSPartyMemberInfo@CPythonPlayer@@@std@@@std@@@std@@SAPAU?$_Tree_node@U?$pair@$$CBKUSPartyMemberInfo@CPythonPlayer@@@std@@PAX@2@PAU32@@Z
_TEXT	SEGMENT
?_Min@?$_Tree_val@U?$_Tree_simple_types@U?$pair@$$CBKUSPartyMemberInfo@CPythonPlayer@@@std@@@std@@@std@@SAPAU?$_Tree_node@U?$pair@$$CBKUSPartyMemberInfo@CPythonPlayer@@@std@@PAX@2@PAU32@@Z PROC ; std::_Tree_val<std::_Tree_simple_types<std::pair<unsigned long const ,CPythonPlayer::SPartyMemberInfo> > >::_Min, COMDAT
; __Pnode$ = ecx

; 476  :         while (!_Pnode->_Left->_Isnil) {

  00000	8b 11		 mov	 edx, DWORD PTR [ecx]
  00002	80 7a 0d 00	 cmp	 BYTE PTR [edx+13], 0
  00006	75 0d		 jne	 SHORT $LN10@Min
$LL2@Min:
  00008	8b 0a		 mov	 ecx, DWORD PTR [edx]

; 477  :             _Pnode = _Pnode->_Left;

  0000a	8b c2		 mov	 eax, edx
  0000c	8b d1		 mov	 edx, ecx
  0000e	80 79 0d 00	 cmp	 BYTE PTR [ecx+13], 0
  00012	74 f4		 je	 SHORT $LL2@Min

; 481  :     }

  00014	c3		 ret	 0
$LN10@Min:

; 478  :         }
; 479  : 
; 480  :         return _Pnode;

  00015	8b c1		 mov	 eax, ecx

; 481  :     }

  00017	c3		 ret	 0
?_Min@?$_Tree_val@U?$_Tree_simple_types@U?$pair@$$CBKUSPartyMemberInfo@CPythonPlayer@@@std@@@std@@@std@@SAPAU?$_Tree_node@U?$pair@$$CBKUSPartyMemberInfo@CPythonPlayer@@@std@@PAX@2@PAU32@@Z ENDP ; std::_Tree_val<std::_Tree_simple_types<std::pair<unsigned long const ,CPythonPlayer::SPartyMemberInfo> > >::_Min
_TEXT	ENDS
; Function compile flags: /Ogtp
; File C:\Program Files\Microsoft Visual Studio\2022\Community\VC\Tools\MSVC\14.44.35207\include\xmemory
;	COMDAT ?deallocate@?$_Default_allocator_traits@V?$allocator@U?$_Tree_node@U?$pair@$$CBKUSPartyMemberInfo@CPythonPlayer@@@std@@PAX@std@@@std@@@std@@SAXAAV?$allocator@U?$_Tree_node@U?$pair@$$CBKUSPartyMemberInfo@CPythonPlayer@@@std@@PAX@std@@@2@QAU?$_Tree_node@U?$pair@$$CBKUSPartyMemberInfo@CPythonPlayer@@@std@@PAX@2@I@Z
_TEXT	SEGMENT
__Count$dead$ = 8					; size = 4
?deallocate@?$_Default_allocator_traits@V?$allocator@U?$_Tree_node@U?$pair@$$CBKUSPartyMemberInfo@CPythonPlayer@@@std@@PAX@std@@@std@@@std@@SAXAAV?$allocator@U?$_Tree_node@U?$pair@$$CBKUSPartyMemberInfo@CPythonPlayer@@@std@@PAX@std@@@2@QAU?$_Tree_node@U?$pair@$$CBKUSPartyMemberInfo@CPythonPlayer@@@std@@PAX@2@I@Z PROC ; std::_Default_allocator_traits<std::allocator<std::_Tree_node<std::pair<unsigned long const ,CPythonPlayer::SPartyMemberInfo>,void *> > >::deallocate, COMDAT
; __Al$dead$ = ecx
; __Ptr$ = edx

; 289  :         ::operator delete(_Ptr, _Bytes);

  00000	6a 44		 push	 68			; 00000044H
  00002	52		 push	 edx
  00003	e8 00 00 00 00	 call	 ??3@YAXPAXI@Z		; operator delete
  00008	83 c4 08	 add	 esp, 8

; 715  :         // no overflow check on the following multiply; we assume _Allocate did that check
; 716  : #if _HAS_CXX20 // TRANSITION, GH-1532
; 717  :         if (_STD is_constant_evaluated()) {
; 718  :             _Al.deallocate(_Ptr, _Count);
; 719  :         } else
; 720  : #endif // _HAS_CXX20
; 721  :         {
; 722  :             (void) _Al;
; 723  :             _STD _Deallocate<_New_alignof<value_type>>(_Ptr, sizeof(value_type) * _Count);
; 724  :         }
; 725  :     }

  0000b	c3		 ret	 0
?deallocate@?$_Default_allocator_traits@V?$allocator@U?$_Tree_node@U?$pair@$$CBKUSPartyMemberInfo@CPythonPlayer@@@std@@PAX@std@@@std@@@std@@SAXAAV?$allocator@U?$_Tree_node@U?$pair@$$CBKUSPartyMemberInfo@CPythonPlayer@@@std@@PAX@std@@@2@QAU?$_Tree_node@U?$pair@$$CBKUSPartyMemberInfo@CPythonPlayer@@@std@@PAX@2@I@Z ENDP ; std::_Default_allocator_traits<std::allocator<std::_Tree_node<std::pair<unsigned long const ,CPythonPlayer::SPartyMemberInfo>,void *> > >::deallocate
_TEXT	ENDS
; Function compile flags: /Ogtp
; File C:\Program Files\Microsoft Visual Studio\2022\Community\VC\Tools\MSVC\14.44.35207\include\xtree
;	COMDAT ?_Check_grow_by_1@?$_Tree@V?$_Tmap_traits@KUSPartyMemberInfo@CPythonPlayer@@U?$less@K@std@@V?$allocator@U?$pair@$$CBKUSPartyMemberInfo@CPythonPlayer@@@std@@@4@$0A@@std@@@std@@IAEXXZ
_TEXT	SEGMENT
?_Check_grow_by_1@?$_Tree@V?$_Tmap_traits@KUSPartyMemberInfo@CPythonPlayer@@U?$less@K@std@@V?$allocator@U?$pair@$$CBKUSPartyMemberInfo@CPythonPlayer@@@std@@@4@$0A@@std@@@std@@IAEXXZ PROC ; std::_Tree<std::_Tmap_traits<unsigned long,CPythonPlayer::SPartyMemberInfo,std::less<unsigned long>,std::allocator<std::pair<unsigned long const ,CPythonPlayer::SPartyMemberInfo> >,0> >::_Check_grow_by_1, COMDAT
; _this$ = ecx

; 1648 :         if (max_size() == _Get_scary()->_Mysize) {

  00000	81 79 04 c3 c3
	c3 03		 cmp	 DWORD PTR [ecx+4], 63161283 ; 03c3c3c3H
  00007	0f 84 00 00 00
	00		 je	 ?_Throw_tree_length_error@std@@YAXXZ ; std::_Throw_tree_length_error

; 1649 :             _Throw_tree_length_error();
; 1650 :         }
; 1651 :     }

  0000d	c3		 ret	 0
?_Check_grow_by_1@?$_Tree@V?$_Tmap_traits@KUSPartyMemberInfo@CPythonPlayer@@U?$less@K@std@@V?$allocator@U?$pair@$$CBKUSPartyMemberInfo@CPythonPlayer@@@std@@@4@$0A@@std@@@std@@IAEXXZ ENDP ; std::_Tree<std::_Tmap_traits<unsigned long,CPythonPlayer::SPartyMemberInfo,std::less<unsigned long>,std::allocator<std::pair<unsigned long const ,CPythonPlayer::SPartyMemberInfo> >,0> >::_Check_grow_by_1
_TEXT	ENDS
; Function compile flags: /Ogtp
; File C:\Program Files\Microsoft Visual Studio\2022\Community\VC\Tools\MSVC\14.44.35207\include\xtree
; File C:\Program Files\Microsoft Visual Studio\2022\Community\VC\Tools\MSVC\14.44.35207\include\xstring
; File C:\Program Files\Microsoft Visual Studio\2022\Community\VC\Tools\MSVC\14.44.35207\include\xmemory
; File C:\Program Files\Microsoft Visual Studio\2022\Community\VC\Tools\MSVC\14.44.35207\include\xtree
; File C:\Program Files\Microsoft Visual Studio\2022\Community\VC\Tools\MSVC\14.44.35207\include\xmemory
; File C:\Program Files\Microsoft Visual Studio\2022\Community\VC\Tools\MSVC\14.44.35207\include\xtree
;	COMDAT ?_Erase_unchecked@?$_Tree@V?$_Tmap_traits@KUSPartyMemberInfo@CPythonPlayer@@U?$less@K@std@@V?$allocator@U?$pair@$$CBKUSPartyMemberInfo@CPythonPlayer@@@std@@@4@$0A@@std@@@std@@AAEPAU?$_Tree_node@U?$pair@$$CBKUSPartyMemberInfo@CPythonPlayer@@@std@@PAX@2@V?$_Tree_unchecked_const_iterator@V?$_Tree_val@U?$_Tree_simple_types@U?$pair@$$CBKUSPartyMemberInfo@CPythonPlayer@@@std@@@std@@@std@@U_Iterator_base0@2@@2@@Z
_TEXT	SEGMENT
__Successor$ = -4					; size = 4
__Where$ = 8						; size = 4
?_Erase_unchecked@?$_Tree@V?$_Tmap_traits@KUSPartyMemberInfo@CPythonPlayer@@U?$less@K@std@@V?$allocator@U?$pair@$$CBKUSPartyMemberInfo@CPythonPlayer@@@std@@@4@$0A@@std@@@std@@AAEPAU?$_Tree_node@U?$pair@$$CBKUSPartyMemberInfo@CPythonPlayer@@@std@@PAX@2@V?$_Tree_unchecked_const_iterator@V?$_Tree_val@U?$_Tree_simple_types@U?$pair@$$CBKUSPartyMemberInfo@CPythonPlayer@@@std@@@std@@@std@@U_Iterator_base0@2@@2@@Z PROC ; std::_Tree<std::_Tmap_traits<unsigned long,CPythonPlayer::SPartyMemberInfo,std::less<unsigned long>,std::allocator<std::pair<unsigned long const ,CPythonPlayer::SPartyMemberInfo> >,0> >::_Erase_unchecked, COMDAT
; _this$ = ecx

; 1299 :     _Nodeptr _Erase_unchecked(_Unchecked_const_iterator _Where) noexcept {

  00000	55		 push	 ebp
  00001	8b ec		 mov	 ebp, esp
  00003	51		 push	 ecx
  00004	56		 push	 esi

; 1300 :         const auto _Scary                    = _Get_scary();
; 1301 :         _Unchecked_const_iterator _Successor = _Where;

  00005	8b 75 08	 mov	 esi, DWORD PTR __Where$[ebp]
  00008	57		 push	 edi
  00009	8b f9		 mov	 edi, ecx
  0000b	89 75 fc	 mov	 DWORD PTR __Successor$[ebp], esi

; 1302 :         ++_Successor; // save successor iterator for return

  0000e	8d 4d fc	 lea	 ecx, DWORD PTR __Successor$[ebp]
  00011	e8 00 00 00 00	 call	 ??E?$_Tree_unchecked_const_iterator@V?$_Tree_val@U?$_Tree_simple_types@U?$pair@$$CBKUSPartyMemberInfo@CPythonPlayer@@@std@@@std@@@std@@U_Iterator_base0@2@@std@@QAEAAV01@XZ ; std::_Tree_unchecked_const_iterator<std::_Tree_val<std::_Tree_simple_types<std::pair<unsigned long const ,CPythonPlayer::SPartyMemberInfo> > >,std::_Iterator_base0>::operator++

; 1303 :         _Nodeptr _Erasednode = _Scary->_Extract(_Where); // node to erase

  00016	56		 push	 esi
  00017	8b cf		 mov	 ecx, edi
  00019	e8 00 00 00 00	 call	 ?_Extract@?$_Tree_val@U?$_Tree_simple_types@U?$pair@$$CBKUSPartyMemberInfo@CPythonPlayer@@@std@@@std@@@std@@QAEPAU?$_Tree_node@U?$pair@$$CBKUSPartyMemberInfo@CPythonPlayer@@@std@@PAX@2@V?$_Tree_unchecked_const_iterator@V?$_Tree_val@U?$_Tree_simple_types@U?$pair@$$CBKUSPartyMemberInfo@CPythonPlayer@@@std@@@std@@@std@@U_Iterator_base0@2@@2@@Z ; std::_Tree_val<std::_Tree_simple_types<std::pair<unsigned long const ,CPythonPlayer::SPartyMemberInfo> > >::_Extract
  0001e	8b f0		 mov	 esi, eax

; 381  :         allocator_traits<_Alloc>::destroy(_Al, _STD addressof(_Ptr->_Myval));

  00020	8d 4e 1c	 lea	 ecx, DWORD PTR [esi+28]
; File C:\Program Files\Microsoft Visual Studio\2022\Community\VC\Tools\MSVC\14.44.35207\include\xstring

; 1383 :         _Tidy_deallocate();

  00023	e8 00 00 00 00	 call	 ?_Tidy_deallocate@?$basic_string@DU?$char_traits@D@std@@V?$allocator@D@2@@std@@AAEXXZ ; std::basic_string<char,std::char_traits<char>,std::allocator<char> >::_Tidy_deallocate
; File C:\Program Files\Microsoft Visual Studio\2022\Community\VC\Tools\MSVC\14.44.35207\include\xmemory

; 289  :         ::operator delete(_Ptr, _Bytes);

  00028	6a 44		 push	 68			; 00000044H
  0002a	56		 push	 esi
  0002b	e8 00 00 00 00	 call	 ??3@YAXPAXI@Z		; operator delete
; File C:\Program Files\Microsoft Visual Studio\2022\Community\VC\Tools\MSVC\14.44.35207\include\xtree

; 1306 :         return _Successor._Ptr; // return successor nodeptr

  00030	8b 45 fc	 mov	 eax, DWORD PTR __Successor$[ebp]
; File C:\Program Files\Microsoft Visual Studio\2022\Community\VC\Tools\MSVC\14.44.35207\include\xmemory

; 289  :         ::operator delete(_Ptr, _Bytes);

  00033	83 c4 08	 add	 esp, 8
; File C:\Program Files\Microsoft Visual Studio\2022\Community\VC\Tools\MSVC\14.44.35207\include\xtree

; 1306 :         return _Successor._Ptr; // return successor nodeptr

  00036	5f		 pop	 edi
  00037	5e		 pop	 esi

; 1307 :     }

  00038	8b e5		 mov	 esp, ebp
  0003a	5d		 pop	 ebp
  0003b	c2 04 00	 ret	 4
?_Erase_unchecked@?$_Tree@V?$_Tmap_traits@KUSPartyMemberInfo@CPythonPlayer@@U?$less@K@std@@V?$allocator@U?$pair@$$CBKUSPartyMemberInfo@CPythonPlayer@@@std@@@4@$0A@@std@@@std@@AAEPAU?$_Tree_node@U?$pair@$$CBKUSPartyMemberInfo@CPythonPlayer@@@std@@PAX@2@V?$_Tree_unchecked_const_iterator@V?$_Tree_val@U?$_Tree_simple_types@U?$pair@$$CBKUSPartyMemberInfo@CPythonPlayer@@@std@@@std@@@std@@U_Iterator_base0@2@@2@@Z ENDP ; std::_Tree<std::_Tmap_traits<unsigned long,CPythonPlayer::SPartyMemberInfo,std::less<unsigned long>,std::allocator<std::pair<unsigned long const ,CPythonPlayer::SPartyMemberInfo> >,0> >::_Erase_unchecked
_TEXT	ENDS
; Function compile flags: /Ogtp
; File C:\Program Files\Microsoft Visual Studio\2022\Community\VC\Tools\MSVC\14.44.35207\include\xtree
;	COMDAT ?_Unchecked_begin@?$_Tree@V?$_Tmap_traits@KUSPartyMemberInfo@CPythonPlayer@@U?$less@K@std@@V?$allocator@U?$pair@$$CBKUSPartyMemberInfo@CPythonPlayer@@@std@@@4@$0A@@std@@@std@@QAE?AV?$_Tree_unchecked_iterator@V?$_Tree_val@U?$_Tree_simple_types@U?$pair@$$CBKUSPartyMemberInfo@CPythonPlayer@@@std@@@std@@@std@@@2@XZ
_TEXT	SEGMENT
___$ReturnUdt$ = 8					; size = 4
?_Unchecked_begin@?$_Tree@V?$_Tmap_traits@KUSPartyMemberInfo@CPythonPlayer@@U?$less@K@std@@V?$allocator@U?$pair@$$CBKUSPartyMemberInfo@CPythonPlayer@@@std@@@4@$0A@@std@@@std@@QAE?AV?$_Tree_unchecked_iterator@V?$_Tree_val@U?$_Tree_simple_types@U?$pair@$$CBKUSPartyMemberInfo@CPythonPlayer@@@std@@@std@@@std@@@2@XZ PROC ; std::_Tree<std::_Tmap_traits<unsigned long,CPythonPlayer::SPartyMemberInfo,std::less<unsigned long>,std::allocator<std::pair<unsigned long const ,CPythonPlayer::SPartyMemberInfo> >,0> >::_Unchecked_begin, COMDAT
; _this$ = ecx

; 1160 :     _Unchecked_iterator _Unchecked_begin() noexcept {

  00000	55		 push	 ebp
  00001	8b ec		 mov	 ebp, esp

; 1161 :         return _Unchecked_iterator(_Get_scary()->_Myhead->_Left, nullptr);

  00003	8b 01		 mov	 eax, DWORD PTR [ecx]

; 37   :     _Tree_unchecked_const_iterator(_Nodeptr _Pnode, const _Mytree* _Plist) noexcept : _Ptr(_Pnode) {

  00005	8b 08		 mov	 ecx, DWORD PTR [eax]
  00007	8b 45 08	 mov	 eax, DWORD PTR ___$ReturnUdt$[ebp]
  0000a	89 08		 mov	 DWORD PTR [eax], ecx

; 1162 :     }

  0000c	5d		 pop	 ebp
  0000d	c2 04 00	 ret	 4
?_Unchecked_begin@?$_Tree@V?$_Tmap_traits@KUSPartyMemberInfo@CPythonPlayer@@U?$less@K@std@@V?$allocator@U?$pair@$$CBKUSPartyMemberInfo@CPythonPlayer@@@std@@@4@$0A@@std@@@std@@QAE?AV?$_Tree_unchecked_iterator@V?$_Tree_val@U?$_Tree_simple_types@U?$pair@$$CBKUSPartyMemberInfo@CPythonPlayer@@@std@@@std@@@std@@@2@XZ ENDP ; std::_Tree<std::_Tmap_traits<unsigned long,CPythonPlayer::SPartyMemberInfo,std::less<unsigned long>,std::allocator<std::pair<unsigned long const ,CPythonPlayer::SPartyMemberInfo> >,0> >::_Unchecked_begin
_TEXT	ENDS
; Function compile flags: /Ogtp
; File C:\Program Files\Microsoft Visual Studio\2022\Community\VC\Tools\MSVC\14.44.35207\include\xmemory
;	COMDAT ??1?$_Tree_temp_node_alloc@V?$allocator@U?$_Tree_node@U?$pair@$$CBKUSPartyMemberInfo@CPythonPlayer@@@std@@PAX@std@@@std@@@std@@QAE@XZ
_TEXT	SEGMENT
??1?$_Tree_temp_node_alloc@V?$allocator@U?$_Tree_node@U?$pair@$$CBKUSPartyMemberInfo@CPythonPlayer@@@std@@PAX@std@@@std@@@std@@QAE@XZ PROC ; std::_Tree_temp_node_alloc<std::allocator<std::_Tree_node<std::pair<unsigned long const ,CPythonPlayer::SPartyMemberInfo>,void *> > >::~_Tree_temp_node_alloc<std::allocator<std::_Tree_node<std::pair<unsigned long const ,CPythonPlayer::SPartyMemberInfo>,void *> > >, COMDAT
; _this$ = ecx

; 1172 :         if (_Ptr) {

  00000	8b 41 04	 mov	 eax, DWORD PTR [ecx+4]
  00003	85 c0		 test	 eax, eax
  00005	74 0b		 je	 SHORT $LN11@Tree_temp_

; 289  :         ::operator delete(_Ptr, _Bytes);

  00007	6a 44		 push	 68			; 00000044H
  00009	50		 push	 eax
  0000a	e8 00 00 00 00	 call	 ??3@YAXPAXI@Z		; operator delete
  0000f	83 c4 08	 add	 esp, 8
$LN11@Tree_temp_:
  00012	c3		 ret	 0
??1?$_Tree_temp_node_alloc@V?$allocator@U?$_Tree_node@U?$pair@$$CBKUSPartyMemberInfo@CPythonPlayer@@@std@@PAX@std@@@std@@@std@@QAE@XZ ENDP ; std::_Tree_temp_node_alloc<std::allocator<std::_Tree_node<std::pair<unsigned long const ,CPythonPlayer::SPartyMemberInfo>,void *> > >::~_Tree_temp_node_alloc<std::allocator<std::_Tree_node<std::pair<unsigned long const ,CPythonPlayer::SPartyMemberInfo>,void *> > >
_TEXT	ENDS
; Function compile flags: /Ogtp
; File C:\Program Files\Microsoft Visual Studio\2022\Community\VC\Tools\MSVC\14.44.35207\include\xtree
;	COMDAT ??0?$_Tree_unchecked_iterator@V?$_Tree_val@U?$_Tree_simple_types@U?$pair@$$CBKUSPartyMemberInfo@CPythonPlayer@@@std@@@std@@@std@@@std@@QAE@PAU?$_Tree_node@U?$pair@$$CBKUSPartyMemberInfo@CPythonPlayer@@@std@@PAX@1@PBV?$_Tree_val@U?$_Tree_simple_types@U?$pair@$$CBKUSPartyMemberInfo@CPythonPlayer@@@std@@@std@@@1@@Z
_TEXT	SEGMENT
___param0$ = 8						; size = 4
___param1$dead$ = 12					; size = 4
??0?$_Tree_unchecked_iterator@V?$_Tree_val@U?$_Tree_simple_types@U?$pair@$$CBKUSPartyMemberInfo@CPythonPlayer@@@std@@@std@@@std@@@std@@QAE@PAU?$_Tree_node@U?$pair@$$CBKUSPartyMemberInfo@CPythonPlayer@@@std@@PAX@1@PBV?$_Tree_val@U?$_Tree_simple_types@U?$pair@$$CBKUSPartyMemberInfo@CPythonPlayer@@@std@@@std@@@1@@Z PROC ; std::_Tree_unchecked_iterator<std::_Tree_val<std::_Tree_simple_types<std::pair<unsigned long const ,CPythonPlayer::SPartyMemberInfo> > > >::_Tree_unchecked_iterator<std::_Tree_val<std::_Tree_simple_types<std::pair<unsigned long const ,CPythonPlayer::SPartyMemberInfo> > > >, COMDAT
; _this$ = ecx
  00000	55		 push	 ebp
  00001	8b ec		 mov	 ebp, esp

; 37   :     _Tree_unchecked_const_iterator(_Nodeptr _Pnode, const _Mytree* _Plist) noexcept : _Ptr(_Pnode) {

  00003	8b 45 08	 mov	 eax, DWORD PTR ___param0$[ebp]
  00006	89 01		 mov	 DWORD PTR [ecx], eax
  00008	8b c1		 mov	 eax, ecx
  0000a	5d		 pop	 ebp
  0000b	c2 08 00	 ret	 8
??0?$_Tree_unchecked_iterator@V?$_Tree_val@U?$_Tree_simple_types@U?$pair@$$CBKUSPartyMemberInfo@CPythonPlayer@@@std@@@std@@@std@@@std@@QAE@PAU?$_Tree_node@U?$pair@$$CBKUSPartyMemberInfo@CPythonPlayer@@@std@@PAX@1@PBV?$_Tree_val@U?$_Tree_simple_types@U?$pair@$$CBKUSPartyMemberInfo@CPythonPlayer@@@std@@@std@@@1@@Z ENDP ; std::_Tree_unchecked_iterator<std::_Tree_val<std::_Tree_simple_types<std::pair<unsigned long const ,CPythonPlayer::SPartyMemberInfo> > > >::_Tree_unchecked_iterator<std::_Tree_val<std::_Tree_simple_types<std::pair<unsigned long const ,CPythonPlayer::SPartyMemberInfo> > > >
_TEXT	ENDS
; Function compile flags: /Ogtp
; File C:\Program Files\Microsoft Visual Studio\2022\Community\VC\Tools\MSVC\14.44.35207\include\xmemory
; File C:\Program Files\Microsoft Visual Studio\2022\Community\VC\Tools\MSVC\14.44.35207\include\utility
; File C:\Program Files\Microsoft Visual Studio\2022\Community\VC\Tools\MSVC\14.44.35207\include\xmemory
;	COMDAT ??$construct@U?$pair@$$CBKUSPartyMemberInfo@CPythonPlayer@@@std@@U?$pair@KUSPartyMemberInfo@CPythonPlayer@@@2@@?$_Default_allocator_traits@V?$allocator@U?$_Tree_node@U?$pair@$$CBKUSPartyMemberInfo@CPythonPlayer@@@std@@PAX@std@@@std@@@std@@SAXAAV?$allocator@U?$_Tree_node@U?$pair@$$CBKUSPartyMemberInfo@CPythonPlayer@@@std@@PAX@std@@@1@QAU?$pair@$$CBKUSPartyMemberInfo@CPythonPlayer@@@1@$$QAU?$pair@KUSPartyMemberInfo@CPythonPlayer@@@1@@Z
_TEXT	SEGMENT
_<_Args_0>$ = 8						; size = 4
??$construct@U?$pair@$$CBKUSPartyMemberInfo@CPythonPlayer@@@std@@U?$pair@KUSPartyMemberInfo@CPythonPlayer@@@2@@?$_Default_allocator_traits@V?$allocator@U?$_Tree_node@U?$pair@$$CBKUSPartyMemberInfo@CPythonPlayer@@@std@@PAX@std@@@std@@@std@@SAXAAV?$allocator@U?$_Tree_node@U?$pair@$$CBKUSPartyMemberInfo@CPythonPlayer@@@std@@PAX@std@@@1@QAU?$pair@$$CBKUSPartyMemberInfo@CPythonPlayer@@@1@$$QAU?$pair@KUSPartyMemberInfo@CPythonPlayer@@@1@@Z PROC ; std::_Default_allocator_traits<std::allocator<std::_Tree_node<std::pair<unsigned long const ,CPythonPlayer::SPartyMemberInfo>,void *> > >::construct<std::pair<unsigned long const ,CPythonPlayer::SPartyMemberInfo>,std::pair<unsigned long,CPythonPlayer::SPartyMemberInfo> >, COMDAT
; ___formal$dead$ = ecx
; __Ptr$ = edx

; 728  :     static _CONSTEXPR20 void construct(_Alloc&, _Objty* const _Ptr, _Types&&... _Args) {

  00000	55		 push	 ebp
  00001	8b ec		 mov	 ebp, esp
; File C:\Program Files\Microsoft Visual Studio\2022\Community\VC\Tools\MSVC\14.44.35207\include\utility

; 303  :         : first(_STD forward<_Other1>(_Right.first)), second(_STD forward<_Other2>(_Right.second)) {}

  00003	8b 4d 08	 mov	 ecx, DWORD PTR _<_Args_0>$[ebp]
  00006	8b 01		 mov	 eax, DWORD PTR [ecx]
  00008	89 02		 mov	 DWORD PTR [edx], eax
  0000a	8d 41 04	 lea	 eax, DWORD PTR [ecx+4]
  0000d	50		 push	 eax
  0000e	8d 4a 04	 lea	 ecx, DWORD PTR [edx+4]
  00011	e8 00 00 00 00	 call	 ??0SPartyMemberInfo@CPythonPlayer@@QAE@$$QAU01@@Z
; File C:\Program Files\Microsoft Visual Studio\2022\Community\VC\Tools\MSVC\14.44.35207\include\xmemory

; 734  :     }

  00016	5d		 pop	 ebp
  00017	c3		 ret	 0
??$construct@U?$pair@$$CBKUSPartyMemberInfo@CPythonPlayer@@@std@@U?$pair@KUSPartyMemberInfo@CPythonPlayer@@@2@@?$_Default_allocator_traits@V?$allocator@U?$_Tree_node@U?$pair@$$CBKUSPartyMemberInfo@CPythonPlayer@@@std@@PAX@std@@@std@@@std@@SAXAAV?$allocator@U?$_Tree_node@U?$pair@$$CBKUSPartyMemberInfo@CPythonPlayer@@@std@@PAX@std@@@1@QAU?$pair@$$CBKUSPartyMemberInfo@CPythonPlayer@@@1@$$QAU?$pair@KUSPartyMemberInfo@CPythonPlayer@@@1@@Z ENDP ; std::_Default_allocator_traits<std::allocator<std::_Tree_node<std::pair<unsigned long const ,CPythonPlayer::SPartyMemberInfo>,void *> > >::construct<std::pair<unsigned long const ,CPythonPlayer::SPartyMemberInfo>,std::pair<unsigned long,CPythonPlayer::SPartyMemberInfo> >
_TEXT	ENDS
; Function compile flags: /Ogtp
; File C:\Program Files\Microsoft Visual Studio\2022\Community\VC\Tools\MSVC\14.44.35207\include\xutility
;	COMDAT ??$_Construct_in_place@PAU?$_Tree_node@U?$pair@$$CBKUSPartyMemberInfo@CPythonPlayer@@@std@@PAX@std@@AAPAU12@@std@@YAXAAPAU?$_Tree_node@U?$pair@$$CBKUSPartyMemberInfo@CPythonPlayer@@@std@@PAX@0@0@Z
_TEXT	SEGMENT
??$_Construct_in_place@PAU?$_Tree_node@U?$pair@$$CBKUSPartyMemberInfo@CPythonPlayer@@@std@@PAX@std@@AAPAU12@@std@@YAXAAPAU?$_Tree_node@U?$pair@$$CBKUSPartyMemberInfo@CPythonPlayer@@@std@@PAX@0@0@Z PROC ; std::_Construct_in_place<std::_Tree_node<std::pair<unsigned long const ,CPythonPlayer::SPartyMemberInfo>,void *> *,std::_Tree_node<std::pair<unsigned long const ,CPythonPlayer::SPartyMemberInfo>,void *> * &>, COMDAT
; __Obj$ = ecx
; _<_Args_0>$ = edx

; 470  : #if _HAS_CXX20
; 471  :     if (_STD is_constant_evaluated()) {
; 472  :         _STD construct_at(_STD addressof(_Obj), _STD forward<_Types>(_Args)...);
; 473  :     } else
; 474  : #endif // _HAS_CXX20
; 475  :     {
; 476  :         ::new (static_cast<void*>(_STD addressof(_Obj))) _Ty(_STD forward<_Types>(_Args)...);
; 477  :     }
; 478  : }

  00000	8b 02		 mov	 eax, DWORD PTR [edx]
  00002	89 01		 mov	 DWORD PTR [ecx], eax
  00004	c3		 ret	 0
??$_Construct_in_place@PAU?$_Tree_node@U?$pair@$$CBKUSPartyMemberInfo@CPythonPlayer@@@std@@PAX@std@@AAPAU12@@std@@YAXAAPAU?$_Tree_node@U?$pair@$$CBKUSPartyMemberInfo@CPythonPlayer@@@std@@PAX@0@0@Z ENDP ; std::_Construct_in_place<std::_Tree_node<std::pair<unsigned long const ,CPythonPlayer::SPartyMemberInfo>,void *> *,std::_Tree_node<std::pair<unsigned long const ,CPythonPlayer::SPartyMemberInfo>,void *> * &>
_TEXT	ENDS
; Function compile flags: /Ogtp
; File C:\Program Files\Microsoft Visual Studio\2022\Community\VC\Tools\MSVC\14.44.35207\include\type_traits
;	COMDAT ??$forward@PAU?$_Tree_node@U?$pair@$$CBKUSPartyMemberInfo@CPythonPlayer@@@std@@PAX@std@@@std@@YA$$QAPAU?$_Tree_node@U?$pair@$$CBKUSPartyMemberInfo@CPythonPlayer@@@std@@PAX@0@AAPAU10@@Z
_TEXT	SEGMENT
??$forward@PAU?$_Tree_node@U?$pair@$$CBKUSPartyMemberInfo@CPythonPlayer@@@std@@PAX@std@@@std@@YA$$QAPAU?$_Tree_node@U?$pair@$$CBKUSPartyMemberInfo@CPythonPlayer@@@std@@PAX@0@AAPAU10@@Z PROC ; std::forward<std::_Tree_node<std::pair<unsigned long const ,CPythonPlayer::SPartyMemberInfo>,void *> *>, COMDAT
; __Arg$ = ecx

; 1502 :     return static_cast<_Ty&&>(_Arg);

  00000	8b c1		 mov	 eax, ecx

; 1503 : }

  00002	c3		 ret	 0
??$forward@PAU?$_Tree_node@U?$pair@$$CBKUSPartyMemberInfo@CPythonPlayer@@@std@@PAX@std@@@std@@YA$$QAPAU?$_Tree_node@U?$pair@$$CBKUSPartyMemberInfo@CPythonPlayer@@@std@@PAX@0@AAPAU10@@Z ENDP ; std::forward<std::_Tree_node<std::pair<unsigned long const ,CPythonPlayer::SPartyMemberInfo>,void *> *>
_TEXT	ENDS
; Function compile flags: /Ogtp
; File C:\Program Files\Microsoft Visual Studio\2022\Community\VC\Tools\MSVC\14.44.35207\include\xmemory
; File C:\Program Files\Microsoft Visual Studio\2022\Community\VC\Tools\MSVC\14.44.35207\include\xstring
; File C:\Program Files\Microsoft Visual Studio\2022\Community\VC\Tools\MSVC\14.44.35207\include\xmemory
;	COMDAT ??$destroy_at@U?$pair@$$CBKUSPartyMemberInfo@CPythonPlayer@@@std@@@std@@YAXQAU?$pair@$$CBKUSPartyMemberInfo@CPythonPlayer@@@0@@Z
_TEXT	SEGMENT
??$destroy_at@U?$pair@$$CBKUSPartyMemberInfo@CPythonPlayer@@@std@@@std@@YAXQAU?$pair@$$CBKUSPartyMemberInfo@CPythonPlayer@@@0@@Z PROC ; std::destroy_at<std::pair<unsigned long const ,CPythonPlayer::SPartyMemberInfo> >, COMDAT
; __Location$ = ecx

; 330  : _CONSTEXPR20 void destroy_at(_Ty* const _Location) noexcept /* strengthened */ {

  00000	83 c1 0c	 add	 ecx, 12			; 0000000cH
; File C:\Program Files\Microsoft Visual Studio\2022\Community\VC\Tools\MSVC\14.44.35207\include\xstring

; 1383 :         _Tidy_deallocate();

  00003	e9 00 00 00 00	 jmp	 ?_Tidy_deallocate@?$basic_string@DU?$char_traits@D@std@@V?$allocator@D@2@@std@@AAEXXZ ; std::basic_string<char,std::char_traits<char>,std::allocator<char> >::_Tidy_deallocate
??$destroy_at@U?$pair@$$CBKUSPartyMemberInfo@CPythonPlayer@@@std@@@std@@YAXQAU?$pair@$$CBKUSPartyMemberInfo@CPythonPlayer@@@0@@Z ENDP ; std::destroy_at<std::pair<unsigned long const ,CPythonPlayer::SPartyMemberInfo> >
_TEXT	ENDS
; Function compile flags: /Ogtp
; File C:\Program Files\Microsoft Visual Studio\2022\Community\VC\Tools\MSVC\14.44.35207\include\xstring
;	COMDAT ??1?$pair@$$CBKUSPartyMemberInfo@CPythonPlayer@@@std@@QAE@XZ
_TEXT	SEGMENT
??1?$pair@$$CBKUSPartyMemberInfo@CPythonPlayer@@@std@@QAE@XZ PROC ; std::pair<unsigned long const ,CPythonPlayer::SPartyMemberInfo>::~pair<unsigned long const ,CPythonPlayer::SPartyMemberInfo>, COMDAT
; _this$ = ecx
  00000	83 c1 0c	 add	 ecx, 12			; 0000000cH

; 1383 :         _Tidy_deallocate();

  00003	e9 00 00 00 00	 jmp	 ?_Tidy_deallocate@?$basic_string@DU?$char_traits@D@std@@V?$allocator@D@2@@std@@AAEXXZ ; std::basic_string<char,std::char_traits<char>,std::allocator<char> >::_Tidy_deallocate
??1?$pair@$$CBKUSPartyMemberInfo@CPythonPlayer@@@std@@QAE@XZ ENDP ; std::pair<unsigned long const ,CPythonPlayer::SPartyMemberInfo>::~pair<unsigned long const ,CPythonPlayer::SPartyMemberInfo>
_TEXT	ENDS
; Function compile flags: /Ogtp
; File C:\Program Files\Microsoft Visual Studio\2022\Community\VC\Tools\MSVC\14.44.35207\include\xutility
; File C:\Program Files\Microsoft Visual Studio\2022\Community\VC\Tools\MSVC\14.44.35207\include\tuple
; File C:\Program Files\Microsoft Visual Studio\2022\Community\VC\Tools\MSVC\14.44.35207\include\utility
; File C:\Program Files\Microsoft Visual Studio\2022\Community\VC\Tools\MSVC\14.44.35207\include\xutility
; File C:\Program Files\Microsoft Visual Studio\2022\Community\VC\Tools\MSVC\14.44.35207\include\utility
; File C:\Program Files\Microsoft Visual Studio\2022\Community\VC\Tools\MSVC\14.44.35207\include\xutility
;	COMDAT ??$construct_at@U?$pair@$$CBKK@std@@ABUpiecewise_construct_t@2@V?$tuple@ABK@2@V?$tuple@$$V@2@@std@@YAPAU?$pair@$$CBKK@0@QAU10@ABUpiecewise_construct_t@0@$$QAV?$tuple@ABK@0@$$QAV?$tuple@$$V@0@@Z
_TEXT	SEGMENT
_<_Args_1>$ = 8						; size = 4
_<_Args_2>$dead$ = 12					; size = 4
??$construct_at@U?$pair@$$CBKK@std@@ABUpiecewise_construct_t@2@V?$tuple@ABK@2@V?$tuple@$$V@2@@std@@YAPAU?$pair@$$CBKK@0@QAU10@ABUpiecewise_construct_t@0@$$QAV?$tuple@ABK@0@$$QAV?$tuple@$$V@0@@Z PROC ; std::construct_at<std::pair<unsigned long const ,unsigned long>,std::piecewise_construct_t const &,std::tuple<unsigned long const &>,std::tuple<> >, COMDAT
; __Location$ = ecx
; _<_Args_0>$dead$ = edx

; 462  :     noexcept(noexcept(::new (static_cast<void*>(_Location)) _Ty(_STD forward<_Types>(_Args)...))) /* strengthened */ {

  00000	55		 push	 ebp
  00001	8b ec		 mov	 ebp, esp
; File C:\Program Files\Microsoft Visual Studio\2022\Community\VC\Tools\MSVC\14.44.35207\include\tuple

; 352  :     tuple(tuple&&)      = default;

  00003	8b 45 08	 mov	 eax, DWORD PTR _<_Args_1>$[ebp]
  00006	8b 00		 mov	 eax, DWORD PTR [eax]
; File C:\Program Files\Microsoft Visual Studio\2022\Community\VC\Tools\MSVC\14.44.35207\include\utility

; 478  :         : first(_STD _Tuple_get<_Indices1>(_STD move(_Val1))...),

  00008	8b 00		 mov	 eax, DWORD PTR [eax]
  0000a	89 01		 mov	 DWORD PTR [ecx], eax
; File C:\Program Files\Microsoft Visual Studio\2022\Community\VC\Tools\MSVC\14.44.35207\include\xutility

; 463  :     _MSVC_CONSTEXPR return ::new (static_cast<void*>(_Location)) _Ty(_STD forward<_Types>(_Args)...);

  0000c	8b c1		 mov	 eax, ecx
; File C:\Program Files\Microsoft Visual Studio\2022\Community\VC\Tools\MSVC\14.44.35207\include\utility

; 479  :           second(_STD _Tuple_get<_Indices2>(_STD move(_Val2))...) {}

  0000e	c7 41 04 00 00
	00 00		 mov	 DWORD PTR [ecx+4], 0
; File C:\Program Files\Microsoft Visual Studio\2022\Community\VC\Tools\MSVC\14.44.35207\include\xutility

; 464  : }

  00015	5d		 pop	 ebp
  00016	c3		 ret	 0
??$construct_at@U?$pair@$$CBKK@std@@ABUpiecewise_construct_t@2@V?$tuple@ABK@2@V?$tuple@$$V@2@@std@@YAPAU?$pair@$$CBKK@0@QAU10@ABUpiecewise_construct_t@0@$$QAV?$tuple@ABK@0@$$QAV?$tuple@$$V@0@@Z ENDP ; std::construct_at<std::pair<unsigned long const ,unsigned long>,std::piecewise_construct_t const &,std::tuple<unsigned long const &>,std::tuple<> >
_TEXT	ENDS
; Function compile flags: /Ogtp
; File C:\Program Files\Microsoft Visual Studio\2022\Community\VC\Tools\MSVC\14.44.35207\include\xutility
;	COMDAT ??$_Construct_in_place@PAU?$_Tree_node@U?$pair@$$CBKUSPartyMemberInfo@CPythonPlayer@@@std@@PAX@std@@ABQAU12@@std@@YAXAAPAU?$_Tree_node@U?$pair@$$CBKUSPartyMemberInfo@CPythonPlayer@@@std@@PAX@0@ABQAU10@@Z
_TEXT	SEGMENT
??$_Construct_in_place@PAU?$_Tree_node@U?$pair@$$CBKUSPartyMemberInfo@CPythonPlayer@@@std@@PAX@std@@ABQAU12@@std@@YAXAAPAU?$_Tree_node@U?$pair@$$CBKUSPartyMemberInfo@CPythonPlayer@@@std@@PAX@0@ABQAU10@@Z PROC ; std::_Construct_in_place<std::_Tree_node<std::pair<unsigned long const ,CPythonPlayer::SPartyMemberInfo>,void *> *,std::_Tree_node<std::pair<unsigned long const ,CPythonPlayer::SPartyMemberInfo>,void *> * const &>, COMDAT
; __Obj$ = ecx
; _<_Args_0>$ = edx

; 470  : #if _HAS_CXX20
; 471  :     if (_STD is_constant_evaluated()) {
; 472  :         _STD construct_at(_STD addressof(_Obj), _STD forward<_Types>(_Args)...);
; 473  :     } else
; 474  : #endif // _HAS_CXX20
; 475  :     {
; 476  :         ::new (static_cast<void*>(_STD addressof(_Obj))) _Ty(_STD forward<_Types>(_Args)...);
; 477  :     }
; 478  : }

  00000	8b 02		 mov	 eax, DWORD PTR [edx]
  00002	89 01		 mov	 DWORD PTR [ecx], eax
  00004	c3		 ret	 0
??$_Construct_in_place@PAU?$_Tree_node@U?$pair@$$CBKUSPartyMemberInfo@CPythonPlayer@@@std@@PAX@std@@ABQAU12@@std@@YAXAAPAU?$_Tree_node@U?$pair@$$CBKUSPartyMemberInfo@CPythonPlayer@@@std@@PAX@0@ABQAU10@@Z ENDP ; std::_Construct_in_place<std::_Tree_node<std::pair<unsigned long const ,CPythonPlayer::SPartyMemberInfo>,void *> *,std::_Tree_node<std::pair<unsigned long const ,CPythonPlayer::SPartyMemberInfo>,void *> * const &>
_TEXT	ENDS
; Function compile flags: /Ogtp
; File C:\Program Files\Microsoft Visual Studio\2022\Community\VC\Tools\MSVC\14.44.35207\include\utility
;	COMDAT ??$exchange@PAU?$_Tree_node@U?$pair@$$CBKUSPartyMemberInfo@CPythonPlayer@@@std@@PAX@std@@$$T@std@@YAPAU?$_Tree_node@U?$pair@$$CBKUSPartyMemberInfo@CPythonPlayer@@@std@@PAX@0@AAPAU10@$$QA$$T@Z
_TEXT	SEGMENT
??$exchange@PAU?$_Tree_node@U?$pair@$$CBKUSPartyMemberInfo@CPythonPlayer@@@std@@PAX@std@@$$T@std@@YAPAU?$_Tree_node@U?$pair@$$CBKUSPartyMemberInfo@CPythonPlayer@@@std@@PAX@0@AAPAU10@$$QA$$T@Z PROC ; std::exchange<std::_Tree_node<std::pair<unsigned long const ,CPythonPlayer::SPartyMemberInfo>,void *> *,std::nullptr_t>, COMDAT
; __Val$ = ecx
; __New_val$ = edx

; 772  :     // assign _New_val to _Val, return previous _Val
; 773  :     _Ty _Old_val = static_cast<_Ty&&>(_Val);

  00000	8b 01		 mov	 eax, DWORD PTR [ecx]

; 774  :     _Val         = static_cast<_Other&&>(_New_val);

  00002	8b 12		 mov	 edx, DWORD PTR [edx]
  00004	89 11		 mov	 DWORD PTR [ecx], edx

; 775  :     return _Old_val;
; 776  : }

  00006	c3		 ret	 0
??$exchange@PAU?$_Tree_node@U?$pair@$$CBKUSPartyMemberInfo@CPythonPlayer@@@std@@PAX@std@@$$T@std@@YAPAU?$_Tree_node@U?$pair@$$CBKUSPartyMemberInfo@CPythonPlayer@@@std@@PAX@0@AAPAU10@$$QA$$T@Z ENDP ; std::exchange<std::_Tree_node<std::pair<unsigned long const ,CPythonPlayer::SPartyMemberInfo>,void *> *,std::nullptr_t>
_TEXT	ENDS
; Function compile flags: /Ogtp
; File C:\Program Files\Microsoft Visual Studio\2022\Community\VC\Tools\MSVC\14.44.35207\include\xmemory
;	COMDAT ??1?$_Alloc_construct_ptr@V?$allocator@U?$_Tree_node@U?$pair@$$CBKUSPartyMemberInfo@CPythonPlayer@@@std@@PAX@std@@@std@@@std@@QAE@XZ
_TEXT	SEGMENT
??1?$_Alloc_construct_ptr@V?$allocator@U?$_Tree_node@U?$pair@$$CBKUSPartyMemberInfo@CPythonPlayer@@@std@@PAX@std@@@std@@@std@@QAE@XZ PROC ; std::_Alloc_construct_ptr<std::allocator<std::_Tree_node<std::pair<unsigned long const ,CPythonPlayer::SPartyMemberInfo>,void *> > >::~_Alloc_construct_ptr<std::allocator<std::_Tree_node<std::pair<unsigned long const ,CPythonPlayer::SPartyMemberInfo>,void *> > >, COMDAT
; _this$ = ecx

; 1172 :         if (_Ptr) {

  00000	8b 41 04	 mov	 eax, DWORD PTR [ecx+4]
  00003	85 c0		 test	 eax, eax
  00005	74 0b		 je	 SHORT $LN8@Alloc_cons

; 289  :         ::operator delete(_Ptr, _Bytes);

  00007	6a 44		 push	 68			; 00000044H
  00009	50		 push	 eax
  0000a	e8 00 00 00 00	 call	 ??3@YAXPAXI@Z		; operator delete
  0000f	83 c4 08	 add	 esp, 8
$LN8@Alloc_cons:

; 1173 :             _Al.deallocate(_Ptr, 1);
; 1174 :         }
; 1175 :     }

  00012	c3		 ret	 0
??1?$_Alloc_construct_ptr@V?$allocator@U?$_Tree_node@U?$pair@$$CBKUSPartyMemberInfo@CPythonPlayer@@@std@@PAX@std@@@std@@@std@@QAE@XZ ENDP ; std::_Alloc_construct_ptr<std::allocator<std::_Tree_node<std::pair<unsigned long const ,CPythonPlayer::SPartyMemberInfo>,void *> > >::~_Alloc_construct_ptr<std::allocator<std::_Tree_node<std::pair<unsigned long const ,CPythonPlayer::SPartyMemberInfo>,void *> > >
_TEXT	ENDS
; Function compile flags: /Ogtp
; File C:\Program Files\Microsoft Visual Studio\2022\Community\VC\Tools\MSVC\14.44.35207\include\xtree
; File C:\Program Files\Microsoft Visual Studio\2022\Community\VC\Tools\MSVC\14.44.35207\include\xmemory
; File C:\Program Files\Microsoft Visual Studio\2022\Community\VC\Tools\MSVC\14.44.35207\include\xtree
; File C:\Program Files\Microsoft Visual Studio\2022\Community\VC\Tools\MSVC\14.44.35207\include\xmemory
; File C:\Program Files\Microsoft Visual Studio\2022\Community\VC\Tools\MSVC\14.44.35207\include\xtree
;	COMDAT ??0?$_Tree_temp_node_alloc@V?$allocator@U?$_Tree_node@U?$pair@$$CBKUSPartyMemberInfo@CPythonPlayer@@@std@@PAX@std@@@std@@@std@@QAE@AAV?$allocator@U?$_Tree_node@U?$pair@$$CBKUSPartyMemberInfo@CPythonPlayer@@@std@@PAX@std@@@1@@Z
_TEXT	SEGMENT
_this$ = -16						; size = 4
__$EHRec$ = -12						; size = 12
__Al_$ = 8						; size = 4
??0?$_Tree_temp_node_alloc@V?$allocator@U?$_Tree_node@U?$pair@$$CBKUSPartyMemberInfo@CPythonPlayer@@@std@@PAX@std@@@std@@@std@@QAE@AAV?$allocator@U?$_Tree_node@U?$pair@$$CBKUSPartyMemberInfo@CPythonPlayer@@@std@@PAX@std@@@1@@Z PROC ; std::_Tree_temp_node_alloc<std::allocator<std::_Tree_node<std::pair<unsigned long const ,CPythonPlayer::SPartyMemberInfo>,void *> > >::_Tree_temp_node_alloc<std::allocator<std::_Tree_node<std::pair<unsigned long const ,CPythonPlayer::SPartyMemberInfo>,void *> > >, COMDAT
; _this$ = ecx

; 808  :     explicit _Tree_temp_node_alloc(_Alnode& _Al_) : _Alloc_construct_ptr<_Alnode>(_Al_) {

  00000	55		 push	 ebp
  00001	8b ec		 mov	 ebp, esp
  00003	6a ff		 push	 -1
  00005	68 00 00 00 00	 push	 __ehhandler$??0?$_Tree_temp_node_alloc@V?$allocator@U?$_Tree_node@U?$pair@$$CBKUSPartyMemberInfo@CPythonPlayer@@@std@@PAX@std@@@std@@@std@@QAE@AAV?$allocator@U?$_Tree_node@U?$pair@$$CBKUSPartyMemberInfo@CPythonPlayer@@@std@@PAX@std@@@1@@Z
  0000a	64 a1 00 00 00
	00		 mov	 eax, DWORD PTR fs:0
  00010	50		 push	 eax
  00011	51		 push	 ecx
  00012	56		 push	 esi
  00013	a1 00 00 00 00	 mov	 eax, DWORD PTR ___security_cookie
  00018	33 c5		 xor	 eax, ebp
  0001a	50		 push	 eax
  0001b	8d 45 f4	 lea	 eax, DWORD PTR __$EHRec$[ebp]
  0001e	64 a3 00 00 00
	00		 mov	 DWORD PTR fs:0, eax
  00024	8b f1		 mov	 esi, ecx
  00026	89 75 f0	 mov	 DWORD PTR _this$[ebp], esi
; File C:\Program Files\Microsoft Visual Studio\2022\Community\VC\Tools\MSVC\14.44.35207\include\xmemory

; 1160 :     _CONSTEXPR20 explicit _Alloc_construct_ptr(_Alloc& _Al_) : _Al(_Al_), _Ptr(nullptr) {}

  00029	8b 45 08	 mov	 eax, DWORD PTR __Al_$[ebp]
  0002c	89 06		 mov	 DWORD PTR [esi], eax
; File C:\Program Files\Microsoft Visual Studio\2022\Community\VC\Tools\MSVC\14.44.35207\include\xtree

; 808  :     explicit _Tree_temp_node_alloc(_Alnode& _Al_) : _Alloc_construct_ptr<_Alnode>(_Al_) {

  0002e	c7 45 fc 00 00
	00 00		 mov	 DWORD PTR __$EHRec$[ebp+8], 0
; File C:\Program Files\Microsoft Visual Studio\2022\Community\VC\Tools\MSVC\14.44.35207\include\xmemory

; 1168 :         _Ptr = _Al.allocate(1);

  00035	6a 44		 push	 68			; 00000044H
  00037	c7 46 04 00 00
	00 00		 mov	 DWORD PTR [esi+4], 0
  0003e	e8 00 00 00 00	 call	 ??2@YAPAXI@Z		; operator new
  00043	89 46 04	 mov	 DWORD PTR [esi+4], eax
  00046	83 c4 04	 add	 esp, 4
; File C:\Program Files\Microsoft Visual Studio\2022\Community\VC\Tools\MSVC\14.44.35207\include\xtree

; 810  :     }

  00049	8b c6		 mov	 eax, esi
  0004b	8b 4d f4	 mov	 ecx, DWORD PTR __$EHRec$[ebp]
  0004e	64 89 0d 00 00
	00 00		 mov	 DWORD PTR fs:0, ecx
  00055	59		 pop	 ecx
  00056	5e		 pop	 esi
  00057	8b e5		 mov	 esp, ebp
  00059	5d		 pop	 ebp
  0005a	c2 04 00	 ret	 4
_TEXT	ENDS
;	COMDAT text$x
text$x	SEGMENT
__unwindfunclet$??0?$_Tree_temp_node_alloc@V?$allocator@U?$_Tree_node@U?$pair@$$CBKUSPartyMemberInfo@CPythonPlayer@@@std@@PAX@std@@@std@@@std@@QAE@AAV?$allocator@U?$_Tree_node@U?$pair@$$CBKUSPartyMemberInfo@CPythonPlayer@@@std@@PAX@std@@@1@@Z$0:
  00000	8b 4d f0	 mov	 ecx, DWORD PTR _this$[ebp]
  00003	e9 00 00 00 00	 jmp	 ??1?$_Alloc_construct_ptr@V?$allocator@U?$_Tree_node@U?$pair@$$CBKUSPartyMemberInfo@CPythonPlayer@@@std@@PAX@std@@@std@@@std@@QAE@XZ ; std::_Alloc_construct_ptr<std::allocator<std::_Tree_node<std::pair<unsigned long const ,CPythonPlayer::SPartyMemberInfo>,void *> > >::~_Alloc_construct_ptr<std::allocator<std::_Tree_node<std::pair<unsigned long const ,CPythonPlayer::SPartyMemberInfo>,void *> > >
  00008	cc		 int	 3
  00009	cc		 int	 3
  0000a	cc		 int	 3
  0000b	cc		 int	 3
  0000c	cc		 int	 3
__ehhandler$??0?$_Tree_temp_node_alloc@V?$allocator@U?$_Tree_node@U?$pair@$$CBKUSPartyMemberInfo@CPythonPlayer@@@std@@PAX@std@@@std@@@std@@QAE@AAV?$allocator@U?$_Tree_node@U?$pair@$$CBKUSPartyMemberInfo@CPythonPlayer@@@std@@PAX@std@@@1@@Z:
  0000d	90		 npad	 1
  0000e	90		 npad	 1
  0000f	8b 54 24 08	 mov	 edx, DWORD PTR [esp+8]
  00013	8d 42 0c	 lea	 eax, DWORD PTR [edx+12]
  00016	8b 4a f4	 mov	 ecx, DWORD PTR [edx-12]
  00019	33 c8		 xor	 ecx, eax
  0001b	e8 00 00 00 00	 call	 @__security_check_cookie@4
  00020	b8 00 00 00 00	 mov	 eax, OFFSET __ehfuncinfo$??0?$_Tree_temp_node_alloc@V?$allocator@U?$_Tree_node@U?$pair@$$CBKUSPartyMemberInfo@CPythonPlayer@@@std@@PAX@std@@@std@@@std@@QAE@AAV?$allocator@U?$_Tree_node@U?$pair@$$CBKUSPartyMemberInfo@CPythonPlayer@@@std@@PAX@std@@@1@@Z
  00025	e9 00 00 00 00	 jmp	 ___CxxFrameHandler3
text$x	ENDS
??0?$_Tree_temp_node_alloc@V?$allocator@U?$_Tree_node@U?$pair@$$CBKUSPartyMemberInfo@CPythonPlayer@@@std@@PAX@std@@@std@@@std@@QAE@AAV?$allocator@U?$_Tree_node@U?$pair@$$CBKUSPartyMemberInfo@CPythonPlayer@@@std@@PAX@std@@@1@@Z ENDP ; std::_Tree_temp_node_alloc<std::allocator<std::_Tree_node<std::pair<unsigned long const ,CPythonPlayer::SPartyMemberInfo>,void *> > >::_Tree_temp_node_alloc<std::allocator<std::_Tree_node<std::pair<unsigned long const ,CPythonPlayer::SPartyMemberInfo>,void *> > >
; Function compile flags: /Ogtp
; File C:\Program Files\Microsoft Visual Studio\2022\Community\VC\Tools\MSVC\14.44.35207\include\xtree
; File C:\Program Files\Microsoft Visual Studio\2022\Community\VC\Tools\MSVC\14.44.35207\include\utility
; File C:\Program Files\Microsoft Visual Studio\2022\Community\VC\Tools\MSVC\14.44.35207\include\xtree
;	COMDAT ?_Extract@?$_Tree_val@U?$_Tree_simple_types@U?$pair@$$CBKUSPartyMemberInfo@CPythonPlayer@@@std@@@std@@@std@@QAEPAU?$_Tree_node@U?$pair@$$CBKUSPartyMemberInfo@CPythonPlayer@@@std@@PAX@2@V?$_Tree_unchecked_const_iterator@V?$_Tree_val@U?$_Tree_simple_types@U?$pair@$$CBKUSPartyMemberInfo@CPythonPlayer@@@std@@@std@@@std@@U_Iterator_base0@2@@2@@Z
_TEXT	SEGMENT
tv1039 = -16						; size = 4
tv1073 = -12						; size = 4
tv1093 = -12						; size = 4
$T1 = -12						; size = 4
__Erasednode$1$ = -8					; size = 4
_this$1$ = -4						; size = 4
__Where$ = 8						; size = 4
?_Extract@?$_Tree_val@U?$_Tree_simple_types@U?$pair@$$CBKUSPartyMemberInfo@CPythonPlayer@@@std@@@std@@@std@@QAEPAU?$_Tree_node@U?$pair@$$CBKUSPartyMemberInfo@CPythonPlayer@@@std@@PAX@2@V?$_Tree_unchecked_const_iterator@V?$_Tree_val@U?$_Tree_simple_types@U?$pair@$$CBKUSPartyMemberInfo@CPythonPlayer@@@std@@@std@@@std@@U_Iterator_base0@2@@2@@Z PROC ; std::_Tree_val<std::_Tree_simple_types<std::pair<unsigned long const ,CPythonPlayer::SPartyMemberInfo> > >::_Extract, COMDAT
; _this$ = ecx

; 527  :     _Nodeptr _Extract(_Unchecked_const_iterator _Where) noexcept {

  00000	55		 push	 ebp
  00001	8b ec		 mov	 ebp, esp
  00003	83 ec 10	 sub	 esp, 16			; 00000010H

; 528  :         _Nodeptr _Erasednode = _Where._Ptr; // node to erase

  00006	8b 45 08	 mov	 eax, DWORD PTR __Where$[ebp]
  00009	53		 push	 ebx
  0000a	56		 push	 esi
  0000b	8b d9		 mov	 ebx, ecx
  0000d	89 45 f8	 mov	 DWORD PTR __Erasednode$1$[ebp], eax
  00010	57		 push	 edi

; 529  :         ++_Where; // save successor iterator for return

  00011	8d 4d 08	 lea	 ecx, DWORD PTR __Where$[ebp]
  00014	89 5d fc	 mov	 DWORD PTR _this$1$[ebp], ebx
  00017	e8 00 00 00 00	 call	 ??E?$_Tree_unchecked_const_iterator@V?$_Tree_val@U?$_Tree_simple_types@U?$pair@$$CBKUSPartyMemberInfo@CPythonPlayer@@@std@@@std@@@std@@U_Iterator_base0@2@@std@@QAEAAV01@XZ ; std::_Tree_unchecked_const_iterator<std::_Tree_val<std::_Tree_simple_types<std::pair<unsigned long const ,CPythonPlayer::SPartyMemberInfo> > >,std::_Iterator_base0>::operator++

; 530  : 
; 531  :         _Nodeptr _Fixnode; // the node to recolor as needed
; 532  :         _Nodeptr _Fixnodeparent; // parent of _Fixnode (which may be nil)
; 533  :         _Nodeptr _Pnode = _Erasednode;
; 534  : 
; 535  :         if (_Pnode->_Left->_Isnil) {

  0001c	8b 4d f8	 mov	 ecx, DWORD PTR __Erasednode$1$[ebp]
  0001f	8b 01		 mov	 eax, DWORD PTR [ecx]
  00021	8b 79 08	 mov	 edi, DWORD PTR [ecx+8]
  00024	80 78 0d 00	 cmp	 BYTE PTR [eax+13], 0
  00028	75 18		 jne	 SHORT $LN94@Extract

; 536  :             _Fixnode = _Pnode->_Right; // stitch up right subtree
; 537  :         } else if (_Pnode->_Right->_Isnil) {

  0002a	80 7f 0d 00	 cmp	 BYTE PTR [edi+13], 0
  0002e	74 04		 je	 SHORT $LN7@Extract

; 538  :             _Fixnode = _Pnode->_Left; // stitch up left subtree

  00030	8b f8		 mov	 edi, eax

; 539  :         } else { // two subtrees, must lift successor node to replace erased

  00032	eb 0e		 jmp	 SHORT $LN94@Extract
$LN7@Extract:

; 540  :             _Pnode   = _Where._Ptr; // _Pnode is successor node

  00034	8b 55 08	 mov	 edx, DWORD PTR __Where$[ebp]

; 541  :             _Fixnode = _Pnode->_Right; // _Fixnode is only subtree

  00037	8b 7a 08	 mov	 edi, DWORD PTR [edx+8]
  0003a	3b d1		 cmp	 edx, ecx

; 542  :         }
; 543  : 
; 544  :         if (_Pnode == _Erasednode) { // at most one subtree, relink it

  0003c	0f 85 91 00 00
	00		 jne	 $LN9@Extract
$LN94@Extract:

; 545  :             _Fixnodeparent = _Erasednode->_Parent;
; 546  :             if (!_Fixnode->_Isnil) {

  00042	80 7f 0d 00	 cmp	 BYTE PTR [edi+13], 0
  00046	8b 71 04	 mov	 esi, DWORD PTR [ecx+4]
  00049	75 03		 jne	 SHORT $LN11@Extract

; 547  :                 _Fixnode->_Parent = _Fixnodeparent; // link up

  0004b	89 77 04	 mov	 DWORD PTR [edi+4], esi
$LN11@Extract:

; 548  :             }
; 549  : 
; 550  :             if (_Myhead->_Parent == _Erasednode) {

  0004e	8b 03		 mov	 eax, DWORD PTR [ebx]
  00050	39 48 04	 cmp	 DWORD PTR [eax+4], ecx
  00053	75 05		 jne	 SHORT $LN12@Extract

; 551  :                 _Myhead->_Parent = _Fixnode; // link down from root

  00055	89 78 04	 mov	 DWORD PTR [eax+4], edi
  00058	eb 0b		 jmp	 SHORT $LN15@Extract
$LN12@Extract:

; 552  :             } else if (_Fixnodeparent->_Left == _Erasednode) {

  0005a	39 0e		 cmp	 DWORD PTR [esi], ecx
  0005c	75 04		 jne	 SHORT $LN14@Extract

; 553  :                 _Fixnodeparent->_Left = _Fixnode; // link down to left

  0005e	89 3e		 mov	 DWORD PTR [esi], edi

; 554  :             } else {

  00060	eb 03		 jmp	 SHORT $LN15@Extract
$LN14@Extract:

; 555  :                 _Fixnodeparent->_Right = _Fixnode; // link down to right

  00062	89 7e 08	 mov	 DWORD PTR [esi+8], edi
$LN15@Extract:

; 556  :             }
; 557  : 
; 558  :             if (_Myhead->_Left == _Erasednode) {

  00065	8b 03		 mov	 eax, DWORD PTR [ebx]
  00067	39 08		 cmp	 DWORD PTR [eax], ecx
  00069	75 28		 jne	 SHORT $LN16@Extract

; 559  :                 _Myhead->_Left = _Fixnode->_Isnil ? _Fixnodeparent // smallest is parent of erased node

  0006b	80 7f 0d 00	 cmp	 BYTE PTR [edi+13], 0
  0006f	74 04		 je	 SHORT $LN42@Extract
  00071	8b d6		 mov	 edx, esi
  00073	eb 1c		 jmp	 SHORT $LN43@Extract
$LN42@Extract:

; 476  :         while (!_Pnode->_Left->_Isnil) {

  00075	8b 0f		 mov	 ecx, DWORD PTR [edi]

; 559  :                 _Myhead->_Left = _Fixnode->_Isnil ? _Fixnodeparent // smallest is parent of erased node

  00077	8b d7		 mov	 edx, edi

; 476  :         while (!_Pnode->_Left->_Isnil) {

  00079	80 79 0d 00	 cmp	 BYTE PTR [ecx+13], 0
  0007d	75 0f		 jne	 SHORT $LN49@Extract
  0007f	90		 npad	 1
$LL48@Extract:
  00080	8b 01		 mov	 eax, DWORD PTR [ecx]

; 477  :             _Pnode = _Pnode->_Left;

  00082	8b d1		 mov	 edx, ecx
  00084	8b c8		 mov	 ecx, eax
  00086	80 78 0d 00	 cmp	 BYTE PTR [eax+13], 0
  0008a	74 f4		 je	 SHORT $LL48@Extract
  0008c	8b 03		 mov	 eax, DWORD PTR [ebx]
$LN49@Extract:
  0008e	8b 4d f8	 mov	 ecx, DWORD PTR __Erasednode$1$[ebp]
$LN43@Extract:

; 559  :                 _Myhead->_Left = _Fixnode->_Isnil ? _Fixnodeparent // smallest is parent of erased node

  00091	89 10		 mov	 DWORD PTR [eax], edx
$LN16@Extract:

; 560  :                                                   : _Min(_Fixnode); // smallest in relinked subtree
; 561  :             }
; 562  : 
; 563  :             if (_Myhead->_Right == _Erasednode) {

  00093	8b 13		 mov	 edx, DWORD PTR [ebx]
  00095	39 4a 08	 cmp	 DWORD PTR [edx+8], ecx
  00098	75 34		 jne	 SHORT $LN17@Extract

; 564  :                 _Myhead->_Right = _Fixnode->_Isnil ? _Fixnodeparent // largest is parent of erased node

  0009a	80 7f 0d 00	 cmp	 BYTE PTR [edi+13], 0
  0009e	74 0d		 je	 SHORT $LN44@Extract

; 565  :                                                    : _Max(_Fixnode); // largest in relinked subtree
; 566  :             }
; 567  :         } else { // erased has two subtrees, _Pnode is successor to erased

  000a0	8b 45 f8	 mov	 eax, DWORD PTR __Erasednode$1$[ebp]
  000a3	8b ce		 mov	 ecx, esi
  000a5	89 4a 08	 mov	 DWORD PTR [edx+8], ecx
  000a8	e9 94 00 00 00	 jmp	 $LN58@Extract
$LN44@Extract:

; 468  :         while (!_Pnode->_Right->_Isnil) {

  000ad	8b 47 08	 mov	 eax, DWORD PTR [edi+8]

; 564  :                 _Myhead->_Right = _Fixnode->_Isnil ? _Fixnodeparent // largest is parent of erased node

  000b0	8b cf		 mov	 ecx, edi

; 468  :         while (!_Pnode->_Right->_Isnil) {

  000b2	80 78 0d 00	 cmp	 BYTE PTR [eax+13], 0
  000b6	75 13		 jne	 SHORT $LN54@Extract
  000b8	0f 1f 84 00 00
	00 00 00	 npad	 8
$LL53@Extract:

; 469  :             _Pnode = _Pnode->_Right;

  000c0	8b c8		 mov	 ecx, eax
  000c2	8b 41 08	 mov	 eax, DWORD PTR [ecx+8]
  000c5	80 78 0d 00	 cmp	 BYTE PTR [eax+13], 0
  000c9	74 f5		 je	 SHORT $LL53@Extract
$LN54@Extract:

; 564  :                 _Myhead->_Right = _Fixnode->_Isnil ? _Fixnodeparent // largest is parent of erased node

  000cb	89 4a 08	 mov	 DWORD PTR [edx+8], ecx
$LN17@Extract:

; 565  :                                                    : _Max(_Fixnode); // largest in relinked subtree
; 566  :             }
; 567  :         } else { // erased has two subtrees, _Pnode is successor to erased

  000ce	8b 45 f8	 mov	 eax, DWORD PTR __Erasednode$1$[ebp]
  000d1	eb 6e		 jmp	 SHORT $LN58@Extract
$LN9@Extract:

; 568  :             _Erasednode->_Left->_Parent = _Pnode; // link left up

  000d3	89 50 04	 mov	 DWORD PTR [eax+4], edx

; 569  :             _Pnode->_Left               = _Erasednode->_Left; // link successor down

  000d6	8b 01		 mov	 eax, DWORD PTR [ecx]
  000d8	89 02		 mov	 DWORD PTR [edx], eax

; 570  : 
; 571  :             if (_Pnode == _Erasednode->_Right) {

  000da	8d 42 04	 lea	 eax, DWORD PTR [edx+4]
  000dd	89 45 f4	 mov	 DWORD PTR $T1[ebp], eax
  000e0	3b 51 08	 cmp	 edx, DWORD PTR [ecx+8]
  000e3	75 04		 jne	 SHORT $LN18@Extract

; 572  :                 _Fixnodeparent = _Pnode; // successor is next to erased

  000e5	8b f2		 mov	 esi, edx

; 573  :             } else { // successor further down, link in place of erased

  000e7	eb 1f		 jmp	 SHORT $LN19@Extract
$LN18@Extract:

; 574  :                 _Fixnodeparent = _Pnode->_Parent; // parent is successor's
; 575  :                 if (!_Fixnode->_Isnil) {

  000e9	80 7f 0d 00	 cmp	 BYTE PTR [edi+13], 0
  000ed	8b 30		 mov	 esi, DWORD PTR [eax]
  000ef	75 03		 jne	 SHORT $LN20@Extract

; 576  :                     _Fixnode->_Parent = _Fixnodeparent; // link fix up

  000f1	89 77 04	 mov	 DWORD PTR [edi+4], esi
$LN20@Extract:

; 577  :                 }
; 578  : 
; 579  :                 _Fixnodeparent->_Left        = _Fixnode; // link fix down

  000f4	89 3e		 mov	 DWORD PTR [esi], edi

; 580  :                 _Pnode->_Right               = _Erasednode->_Right; // link next down

  000f6	8b 41 08	 mov	 eax, DWORD PTR [ecx+8]
  000f9	89 42 08	 mov	 DWORD PTR [edx+8], eax

; 581  :                 _Erasednode->_Right->_Parent = _Pnode; // right up

  000fc	8b 41 08	 mov	 eax, DWORD PTR [ecx+8]
  000ff	89 50 04	 mov	 DWORD PTR [eax+4], edx
  00102	8d 42 04	 lea	 eax, DWORD PTR [edx+4]
  00105	89 45 f4	 mov	 DWORD PTR $T1[ebp], eax
$LN19@Extract:

; 582  :             }
; 583  : 
; 584  :             if (_Myhead->_Parent == _Erasednode) {

  00108	8b 03		 mov	 eax, DWORD PTR [ebx]
  0010a	39 48 04	 cmp	 DWORD PTR [eax+4], ecx
  0010d	75 05		 jne	 SHORT $LN21@Extract

; 585  :                 _Myhead->_Parent = _Pnode; // link down from root

  0010f	89 50 04	 mov	 DWORD PTR [eax+4], edx
  00112	eb 0e		 jmp	 SHORT $LN141@Extract
$LN21@Extract:

; 586  :             } else if (_Erasednode->_Parent->_Left == _Erasednode) {

  00114	8b 41 04	 mov	 eax, DWORD PTR [ecx+4]
  00117	39 08		 cmp	 DWORD PTR [eax], ecx
  00119	75 04		 jne	 SHORT $LN23@Extract

; 587  :                 _Erasednode->_Parent->_Left = _Pnode; // link down to left

  0011b	89 10		 mov	 DWORD PTR [eax], edx

; 588  :             } else {

  0011d	eb 03		 jmp	 SHORT $LN141@Extract
$LN23@Extract:

; 589  :                 _Erasednode->_Parent->_Right = _Pnode; // link down to right

  0011f	89 50 08	 mov	 DWORD PTR [eax+8], edx
$LN141@Extract:

; 590  :             }
; 591  : 
; 592  :             _Pnode->_Parent = _Erasednode->_Parent; // link successor up

  00122	b8 04 00 00 00	 mov	 eax, 4
  00127	8b 04 08	 mov	 eax, DWORD PTR [eax+ecx]
  0012a	8b 4d f4	 mov	 ecx, DWORD PTR $T1[ebp]
  0012d	89 01		 mov	 DWORD PTR [ecx], eax
; File C:\Program Files\Microsoft Visual Studio\2022\Community\VC\Tools\MSVC\14.44.35207\include\utility

; 140  :     _Left    = _STD move(_Right);

  0012f	8b 45 f8	 mov	 eax, DWORD PTR __Erasednode$1$[ebp]
  00132	8a 4a 0c	 mov	 cl, BYTE PTR [edx+12]
  00135	8a 40 0c	 mov	 al, BYTE PTR [eax+12]
  00138	88 42 0c	 mov	 BYTE PTR [edx+12], al

; 141  :     _Right   = _STD move(_Tmp);

  0013b	8b 45 f8	 mov	 eax, DWORD PTR __Erasednode$1$[ebp]
  0013e	88 48 0c	 mov	 BYTE PTR [eax+12], cl
$LN58@Extract:
; File C:\Program Files\Microsoft Visual Studio\2022\Community\VC\Tools\MSVC\14.44.35207\include\xtree

; 596  :         if (_Erasednode->_Color == _Black) { // erasing black link, must recolor/rebalance tree

  00141	80 78 0c 01	 cmp	 BYTE PTR [eax+12], 1
  00145	0f 85 ba 01 00
	00		 jne	 $LN25@Extract

; 597  :             for (; _Fixnode != _Myhead->_Parent && _Fixnode->_Color == _Black; _Fixnodeparent = _Fixnode->_Parent) {

  0014b	8b 03		 mov	 eax, DWORD PTR [ebx]
  0014d	3b 78 04	 cmp	 edi, DWORD PTR [eax+4]
  00150	0f 84 a8 01 00
	00		 je	 $LN3@Extract
  00156	80 7f 0c 01	 cmp	 BYTE PTR [edi+12], 1
  0015a	89 75 f4	 mov	 DWORD PTR tv1093[ebp], esi
  0015d	0f 85 9b 01 00
	00		 jne	 $LN3@Extract
$LL4@Extract:

; 598  :                 if (_Fixnode == _Fixnodeparent->_Left) { // fixup left subtree

  00163	8b 0e		 mov	 ecx, DWORD PTR [esi]
  00165	3b f9		 cmp	 edi, ecx
  00167	0f 85 be 00 00
	00		 jne	 $LN26@Extract

; 599  :                     _Pnode = _Fixnodeparent->_Right;

  0016d	8b 4e 08	 mov	 ecx, DWORD PTR [esi+8]

; 600  :                     if (_Pnode->_Color == _Red) { // rotate red up from right subtree

  00170	80 79 0c 00	 cmp	 BYTE PTR [ecx+12], 0
  00174	75 54		 jne	 SHORT $LN95@Extract

; 601  :                         _Pnode->_Color         = _Black;

  00176	c6 41 0c 01	 mov	 BYTE PTR [ecx+12], 1

; 484  :         _Nodeptr _Pnode    = _Wherenode->_Right;

  0017a	8b 4e 08	 mov	 ecx, DWORD PTR [esi+8]

; 602  :                         _Fixnodeparent->_Color = _Red;

  0017d	c6 46 0c 00	 mov	 BYTE PTR [esi+12], 0

; 485  :         _Wherenode->_Right = _Pnode->_Left;

  00181	8b 01		 mov	 eax, DWORD PTR [ecx]
  00183	89 46 08	 mov	 DWORD PTR [esi+8], eax

; 486  : 
; 487  :         if (!_Pnode->_Left->_Isnil) {

  00186	8b 01		 mov	 eax, DWORD PTR [ecx]
  00188	80 78 0d 00	 cmp	 BYTE PTR [eax+13], 0
  0018c	75 03		 jne	 SHORT $LN61@Extract

; 488  :             _Pnode->_Left->_Parent = _Wherenode;

  0018e	89 70 04	 mov	 DWORD PTR [eax+4], esi
$LN61@Extract:

; 489  :         }
; 490  : 
; 491  :         _Pnode->_Parent = _Wherenode->_Parent;

  00191	8b 46 04	 mov	 eax, DWORD PTR [esi+4]
  00194	8d 56 04	 lea	 edx, DWORD PTR [esi+4]
  00197	89 41 04	 mov	 DWORD PTR [ecx+4], eax

; 492  : 
; 493  :         if (_Wherenode == _Myhead->_Parent) {

  0019a	8b 03		 mov	 eax, DWORD PTR [ebx]
  0019c	3b 70 04	 cmp	 esi, DWORD PTR [eax+4]
  0019f	75 0c		 jne	 SHORT $LN62@Extract

; 494  :             _Myhead->_Parent = _Pnode;

  001a1	89 48 04	 mov	 DWORD PTR [eax+4], ecx

; 499  :         }
; 500  : 
; 501  :         _Pnode->_Left       = _Wherenode;

  001a4	89 31		 mov	 DWORD PTR [ecx], esi

; 502  :         _Wherenode->_Parent = _Pnode;

  001a6	89 0a		 mov	 DWORD PTR [edx], ecx

; 603  :                         _Lrotate(_Fixnodeparent);
; 604  :                         _Pnode = _Fixnodeparent->_Right;

  001a8	8b 4e 08	 mov	 ecx, DWORD PTR [esi+8]
  001ab	eb 20		 jmp	 SHORT $LN87@Extract
$LN62@Extract:

; 495  :         } else if (_Wherenode == _Wherenode->_Parent->_Left) {

  001ad	8b 02		 mov	 eax, DWORD PTR [edx]
  001af	3b 30		 cmp	 esi, DWORD PTR [eax]
  001b1	75 0b		 jne	 SHORT $LN64@Extract

; 496  :             _Wherenode->_Parent->_Left = _Pnode;

  001b3	89 08		 mov	 DWORD PTR [eax], ecx

; 499  :         }
; 500  : 
; 501  :         _Pnode->_Left       = _Wherenode;

  001b5	89 31		 mov	 DWORD PTR [ecx], esi

; 502  :         _Wherenode->_Parent = _Pnode;

  001b7	89 0a		 mov	 DWORD PTR [edx], ecx

; 603  :                         _Lrotate(_Fixnodeparent);
; 604  :                         _Pnode = _Fixnodeparent->_Right;

  001b9	8b 4e 08	 mov	 ecx, DWORD PTR [esi+8]
  001bc	eb 0f		 jmp	 SHORT $LN87@Extract
$LN64@Extract:

; 498  :             _Wherenode->_Parent->_Right = _Pnode;

  001be	89 48 08	 mov	 DWORD PTR [eax+8], ecx

; 499  :         }
; 500  : 
; 501  :         _Pnode->_Left       = _Wherenode;

  001c1	89 31		 mov	 DWORD PTR [ecx], esi

; 502  :         _Wherenode->_Parent = _Pnode;

  001c3	89 0a		 mov	 DWORD PTR [edx], ecx

; 603  :                         _Lrotate(_Fixnodeparent);
; 604  :                         _Pnode = _Fixnodeparent->_Right;

  001c5	8b 4e 08	 mov	 ecx, DWORD PTR [esi+8]
  001c8	eb 03		 jmp	 SHORT $LN87@Extract
$LN95@Extract:
  001ca	8d 56 04	 lea	 edx, DWORD PTR [esi+4]
$LN87@Extract:

; 605  :                     }
; 606  : 
; 607  :                     if (_Pnode->_Isnil) {

  001cd	80 79 0d 00	 cmp	 BYTE PTR [ecx+13], 0
  001d1	0f 85 d0 00 00
	00		 jne	 $LN2@Extract

; 608  :                         _Fixnode = _Fixnodeparent; // shouldn't happen
; 609  :                     } else if (_Pnode->_Left->_Color == _Black
; 610  :                                && _Pnode->_Right->_Color == _Black) { // redden right subtree with black children

  001d7	8b 01		 mov	 eax, DWORD PTR [ecx]
  001d9	80 78 0c 01	 cmp	 BYTE PTR [eax+12], 1
  001dd	75 0d		 jne	 SHORT $LN97@Extract
  001df	8b 41 08	 mov	 eax, DWORD PTR [ecx+8]
  001e2	80 78 0c 01	 cmp	 BYTE PTR [eax+12], 1
  001e6	0f 84 b4 00 00
	00		 je	 $LN142@Extract
$LN97@Extract:

; 611  :                         _Pnode->_Color = _Red;
; 612  :                         _Fixnode       = _Fixnodeparent;
; 613  :                     } else { // must rearrange right subtree
; 614  :                         if (_Pnode->_Right->_Color == _Black) { // rotate red up from left sub-subtree

  001ec	8b 41 08	 mov	 eax, DWORD PTR [ecx+8]
  001ef	8b 5d fc	 mov	 ebx, DWORD PTR _this$1$[ebp]
  001f2	80 78 0c 01	 cmp	 BYTE PTR [eax+12], 1
  001f6	75 15		 jne	 SHORT $LN33@Extract

; 615  :                             _Pnode->_Left->_Color = _Black;

  001f8	8b 01		 mov	 eax, DWORD PTR [ecx]

; 616  :                             _Pnode->_Color        = _Red;
; 617  :                             _Rrotate(_Pnode);

  001fa	51		 push	 ecx
  001fb	c6 40 0c 01	 mov	 BYTE PTR [eax+12], 1
  001ff	c6 41 0c 00	 mov	 BYTE PTR [ecx+12], 0
  00203	8b cb		 mov	 ecx, ebx
  00205	e8 00 00 00 00	 call	 ?_Rrotate@?$_Tree_val@U?$_Tree_simple_types@U?$pair@$$CBKUSPartyMemberInfo@CPythonPlayer@@@std@@@std@@@std@@QAEXPAU?$_Tree_node@U?$pair@$$CBKUSPartyMemberInfo@CPythonPlayer@@@std@@PAX@2@@Z ; std::_Tree_val<std::_Tree_simple_types<std::pair<unsigned long const ,CPythonPlayer::SPartyMemberInfo> > >::_Rrotate

; 618  :                             _Pnode = _Fixnodeparent->_Right;

  0020a	8b 4e 08	 mov	 ecx, DWORD PTR [esi+8]
$LN33@Extract:

; 619  :                         }
; 620  : 
; 621  :                         _Pnode->_Color         = _Fixnodeparent->_Color;

  0020d	8a 46 0c	 mov	 al, BYTE PTR [esi+12]
  00210	88 41 0c	 mov	 BYTE PTR [ecx+12], al

; 622  :                         _Fixnodeparent->_Color = _Black;

  00213	c6 46 0c 01	 mov	 BYTE PTR [esi+12], 1

; 623  :                         _Pnode->_Right->_Color = _Black;

  00217	8b 41 08	 mov	 eax, DWORD PTR [ecx+8]

; 624  :                         _Lrotate(_Fixnodeparent);

  0021a	8b cb		 mov	 ecx, ebx
  0021c	56		 push	 esi
  0021d	c6 40 0c 01	 mov	 BYTE PTR [eax+12], 1
  00221	e8 00 00 00 00	 call	 ?_Lrotate@?$_Tree_val@U?$_Tree_simple_types@U?$pair@$$CBKUSPartyMemberInfo@CPythonPlayer@@@std@@@std@@@std@@QAEXPAU?$_Tree_node@U?$pair@$$CBKUSPartyMemberInfo@CPythonPlayer@@@std@@PAX@2@@Z ; std::_Tree_val<std::_Tree_simple_types<std::pair<unsigned long const ,CPythonPlayer::SPartyMemberInfo> > >::_Lrotate

; 625  :                         break; // tree now recolored/rebalanced

  00226	e9 d3 00 00 00	 jmp	 $LN3@Extract
$LN26@Extract:

; 626  :                     }
; 627  :                 } else { // fixup right subtree
; 628  :                     _Pnode = _Fixnodeparent->_Left;
; 629  :                     if (_Pnode->_Color == _Red) { // rotate red up from left subtree

  0022b	80 79 0c 00	 cmp	 BYTE PTR [ecx+12], 0
  0022f	75 55		 jne	 SHORT $LN96@Extract

; 630  :                         _Pnode->_Color         = _Black;

  00231	c6 41 0c 01	 mov	 BYTE PTR [ecx+12], 1

; 506  :         _Nodeptr _Pnode   = _Wherenode->_Left;

  00235	8b 0e		 mov	 ecx, DWORD PTR [esi]

; 631  :                         _Fixnodeparent->_Color = _Red;

  00237	c6 46 0c 00	 mov	 BYTE PTR [esi+12], 0

; 507  :         _Wherenode->_Left = _Pnode->_Right;

  0023b	8b 41 08	 mov	 eax, DWORD PTR [ecx+8]
  0023e	89 06		 mov	 DWORD PTR [esi], eax

; 508  : 
; 509  :         if (!_Pnode->_Right->_Isnil) {

  00240	8b 41 08	 mov	 eax, DWORD PTR [ecx+8]
  00243	80 78 0d 00	 cmp	 BYTE PTR [eax+13], 0
  00247	75 03		 jne	 SHORT $LN69@Extract

; 510  :             _Pnode->_Right->_Parent = _Wherenode;

  00249	89 70 04	 mov	 DWORD PTR [eax+4], esi
$LN69@Extract:

; 511  :         }
; 512  : 
; 513  :         _Pnode->_Parent = _Wherenode->_Parent;

  0024c	8b 46 04	 mov	 eax, DWORD PTR [esi+4]
  0024f	8d 56 04	 lea	 edx, DWORD PTR [esi+4]
  00252	89 41 04	 mov	 DWORD PTR [ecx+4], eax

; 514  : 
; 515  :         if (_Wherenode == _Myhead->_Parent) {

  00255	8b 03		 mov	 eax, DWORD PTR [ebx]
  00257	3b 70 04	 cmp	 esi, DWORD PTR [eax+4]
  0025a	75 0c		 jne	 SHORT $LN70@Extract

; 516  :             _Myhead->_Parent = _Pnode;

  0025c	89 48 04	 mov	 DWORD PTR [eax+4], ecx

; 521  :         }
; 522  : 
; 523  :         _Pnode->_Right      = _Wherenode;

  0025f	89 71 08	 mov	 DWORD PTR [ecx+8], esi

; 524  :         _Wherenode->_Parent = _Pnode;

  00262	89 0a		 mov	 DWORD PTR [edx], ecx

; 632  :                         _Rrotate(_Fixnodeparent);
; 633  :                         _Pnode = _Fixnodeparent->_Left;

  00264	8b 0e		 mov	 ecx, DWORD PTR [esi]
  00266	eb 21		 jmp	 SHORT $LN86@Extract
$LN70@Extract:

; 517  :         } else if (_Wherenode == _Wherenode->_Parent->_Right) {

  00268	8b 02		 mov	 eax, DWORD PTR [edx]
  0026a	3b 70 08	 cmp	 esi, DWORD PTR [eax+8]
  0026d	75 0c		 jne	 SHORT $LN72@Extract

; 518  :             _Wherenode->_Parent->_Right = _Pnode;

  0026f	89 48 08	 mov	 DWORD PTR [eax+8], ecx

; 521  :         }
; 522  : 
; 523  :         _Pnode->_Right      = _Wherenode;

  00272	89 71 08	 mov	 DWORD PTR [ecx+8], esi

; 524  :         _Wherenode->_Parent = _Pnode;

  00275	89 0a		 mov	 DWORD PTR [edx], ecx

; 632  :                         _Rrotate(_Fixnodeparent);
; 633  :                         _Pnode = _Fixnodeparent->_Left;

  00277	8b 0e		 mov	 ecx, DWORD PTR [esi]
  00279	eb 0e		 jmp	 SHORT $LN86@Extract
$LN72@Extract:

; 520  :             _Wherenode->_Parent->_Left = _Pnode;

  0027b	89 08		 mov	 DWORD PTR [eax], ecx

; 521  :         }
; 522  : 
; 523  :         _Pnode->_Right      = _Wherenode;

  0027d	89 71 08	 mov	 DWORD PTR [ecx+8], esi

; 524  :         _Wherenode->_Parent = _Pnode;

  00280	89 0a		 mov	 DWORD PTR [edx], ecx

; 632  :                         _Rrotate(_Fixnodeparent);
; 633  :                         _Pnode = _Fixnodeparent->_Left;

  00282	8b 0e		 mov	 ecx, DWORD PTR [esi]
  00284	eb 03		 jmp	 SHORT $LN86@Extract
$LN96@Extract:
  00286	8d 56 04	 lea	 edx, DWORD PTR [esi+4]
$LN86@Extract:

; 634  :                     }
; 635  : 
; 636  :                     if (_Pnode->_Isnil) {

  00289	80 79 0d 00	 cmp	 BYTE PTR [ecx+13], 0
  0028d	75 18		 jne	 SHORT $LN2@Extract

; 637  :                         _Fixnode = _Fixnodeparent; // shouldn't happen
; 638  :                     } else if (_Pnode->_Right->_Color == _Black
; 639  :                                && _Pnode->_Left->_Color == _Black) { // redden left subtree with black children

  0028f	8b 59 08	 mov	 ebx, DWORD PTR [ecx+8]
  00292	80 7b 0c 01	 cmp	 BYTE PTR [ebx+12], 1
  00296	75 2c		 jne	 SHORT $LN98@Extract
  00298	8b 01		 mov	 eax, DWORD PTR [ecx]
  0029a	80 78 0c 01	 cmp	 BYTE PTR [eax+12], 1
  0029e	75 24		 jne	 SHORT $LN98@Extract
$LN142@Extract:

; 597  :             for (; _Fixnode != _Myhead->_Parent && _Fixnode->_Color == _Black; _Fixnodeparent = _Fixnode->_Parent) {

  002a0	8b 5d fc	 mov	 ebx, DWORD PTR _this$1$[ebp]
  002a3	c6 41 0c 00	 mov	 BYTE PTR [ecx+12], 0
$LN2@Extract:
  002a7	8b 03		 mov	 eax, DWORD PTR [ebx]
  002a9	8b 4d f4	 mov	 ecx, DWORD PTR tv1093[ebp]
  002ac	8b f9		 mov	 edi, ecx
  002ae	8b 32		 mov	 esi, DWORD PTR [edx]
  002b0	3b 48 04	 cmp	 ecx, DWORD PTR [eax+4]
  002b3	74 49		 je	 SHORT $LN3@Extract
  002b5	80 7f 0c 01	 cmp	 BYTE PTR [edi+12], 1
  002b9	89 75 f4	 mov	 DWORD PTR tv1093[ebp], esi
  002bc	0f 84 a1 fe ff
	ff		 je	 $LL4@Extract
  002c2	eb 3a		 jmp	 SHORT $LN3@Extract
$LN98@Extract:

; 640  :                         _Pnode->_Color = _Red;
; 641  :                         _Fixnode       = _Fixnodeparent;
; 642  :                     } else { // must rearrange left subtree
; 643  :                         if (_Pnode->_Left->_Color == _Black) { // rotate red up from right sub-subtree

  002c4	8b 01		 mov	 eax, DWORD PTR [ecx]
  002c6	80 78 0c 01	 cmp	 BYTE PTR [eax+12], 1
  002ca	75 17		 jne	 SHORT $LN101@Extract

; 644  :                             _Pnode->_Right->_Color = _Black;

  002cc	c6 43 0c 01	 mov	 BYTE PTR [ebx+12], 1

; 645  :                             _Pnode->_Color         = _Red;
; 646  :                             _Lrotate(_Pnode);

  002d0	8b 5d fc	 mov	 ebx, DWORD PTR _this$1$[ebp]
  002d3	c6 41 0c 00	 mov	 BYTE PTR [ecx+12], 0
  002d7	51		 push	 ecx
  002d8	8b cb		 mov	 ecx, ebx
  002da	e8 00 00 00 00	 call	 ?_Lrotate@?$_Tree_val@U?$_Tree_simple_types@U?$pair@$$CBKUSPartyMemberInfo@CPythonPlayer@@@std@@@std@@@std@@QAEXPAU?$_Tree_node@U?$pair@$$CBKUSPartyMemberInfo@CPythonPlayer@@@std@@PAX@2@@Z ; std::_Tree_val<std::_Tree_simple_types<std::pair<unsigned long const ,CPythonPlayer::SPartyMemberInfo> > >::_Lrotate

; 647  :                             _Pnode = _Fixnodeparent->_Left;

  002df	8b 0e		 mov	 ecx, DWORD PTR [esi]
  002e1	eb 03		 jmp	 SHORT $LN39@Extract
$LN101@Extract:

; 640  :                         _Pnode->_Color = _Red;
; 641  :                         _Fixnode       = _Fixnodeparent;
; 642  :                     } else { // must rearrange left subtree
; 643  :                         if (_Pnode->_Left->_Color == _Black) { // rotate red up from right sub-subtree

  002e3	8b 5d fc	 mov	 ebx, DWORD PTR _this$1$[ebp]
$LN39@Extract:

; 648  :                         }
; 649  : 
; 650  :                         _Pnode->_Color         = _Fixnodeparent->_Color;

  002e6	8a 46 0c	 mov	 al, BYTE PTR [esi+12]
  002e9	88 41 0c	 mov	 BYTE PTR [ecx+12], al

; 651  :                         _Fixnodeparent->_Color = _Black;

  002ec	c6 46 0c 01	 mov	 BYTE PTR [esi+12], 1

; 652  :                         _Pnode->_Left->_Color  = _Black;

  002f0	8b 01		 mov	 eax, DWORD PTR [ecx]

; 653  :                         _Rrotate(_Fixnodeparent);

  002f2	8b cb		 mov	 ecx, ebx
  002f4	56		 push	 esi
  002f5	c6 40 0c 01	 mov	 BYTE PTR [eax+12], 1
  002f9	e8 00 00 00 00	 call	 ?_Rrotate@?$_Tree_val@U?$_Tree_simple_types@U?$pair@$$CBKUSPartyMemberInfo@CPythonPlayer@@@std@@@std@@@std@@QAEXPAU?$_Tree_node@U?$pair@$$CBKUSPartyMemberInfo@CPythonPlayer@@@std@@PAX@2@@Z ; std::_Tree_val<std::_Tree_simple_types<std::pair<unsigned long const ,CPythonPlayer::SPartyMemberInfo> > >::_Rrotate
$LN3@Extract:

; 654  :                         break; // tree now recolored/rebalanced
; 655  :                     }
; 656  :                 }
; 657  :             }
; 658  : 
; 659  :             _Fixnode->_Color = _Black; // stopping node is black

  002fe	8b 45 f8	 mov	 eax, DWORD PTR __Erasednode$1$[ebp]
  00301	c6 47 0c 01	 mov	 BYTE PTR [edi+12], 1
$LN25@Extract:

; 660  :         }
; 661  : 
; 662  :         if (0 < _Mysize) {

  00305	8b 4b 04	 mov	 ecx, DWORD PTR [ebx+4]
  00308	85 c9		 test	 ecx, ecx
  0030a	74 04		 je	 SHORT $LN40@Extract

; 663  :             --_Mysize;

  0030c	49		 dec	 ecx
  0030d	89 4b 04	 mov	 DWORD PTR [ebx+4], ecx
$LN40@Extract:

; 664  :         }
; 665  : 
; 666  :         return _Erasednode;
; 667  :     }

  00310	5f		 pop	 edi
  00311	5e		 pop	 esi
  00312	5b		 pop	 ebx
  00313	8b e5		 mov	 esp, ebp
  00315	5d		 pop	 ebp
  00316	c2 04 00	 ret	 4
?_Extract@?$_Tree_val@U?$_Tree_simple_types@U?$pair@$$CBKUSPartyMemberInfo@CPythonPlayer@@@std@@@std@@@std@@QAEPAU?$_Tree_node@U?$pair@$$CBKUSPartyMemberInfo@CPythonPlayer@@@std@@PAX@2@V?$_Tree_unchecked_const_iterator@V?$_Tree_val@U?$_Tree_simple_types@U?$pair@$$CBKUSPartyMemberInfo@CPythonPlayer@@@std@@@std@@@std@@U_Iterator_base0@2@@2@@Z ENDP ; std::_Tree_val<std::_Tree_simple_types<std::pair<unsigned long const ,CPythonPlayer::SPartyMemberInfo> > >::_Extract
_TEXT	ENDS
; Function compile flags: /Ogtp
; File C:\Program Files\Microsoft Visual Studio\2022\Community\VC\Tools\MSVC\14.44.35207\include\xtree
;	COMDAT ?_Rrotate@?$_Tree_val@U?$_Tree_simple_types@U?$pair@$$CBKUSPartyMemberInfo@CPythonPlayer@@@std@@@std@@@std@@QAEXPAU?$_Tree_node@U?$pair@$$CBKUSPartyMemberInfo@CPythonPlayer@@@std@@PAX@2@@Z
_TEXT	SEGMENT
__Wherenode$ = 8					; size = 4
?_Rrotate@?$_Tree_val@U?$_Tree_simple_types@U?$pair@$$CBKUSPartyMemberInfo@CPythonPlayer@@@std@@@std@@@std@@QAEXPAU?$_Tree_node@U?$pair@$$CBKUSPartyMemberInfo@CPythonPlayer@@@std@@PAX@2@@Z PROC ; std::_Tree_val<std::_Tree_simple_types<std::pair<unsigned long const ,CPythonPlayer::SPartyMemberInfo> > >::_Rrotate, COMDAT
; _this$ = ecx

; 505  :     void _Rrotate(_Nodeptr _Wherenode) noexcept { // promote left node to root of subtree

  00000	55		 push	 ebp
  00001	8b ec		 mov	 ebp, esp

; 506  :         _Nodeptr _Pnode   = _Wherenode->_Left;

  00003	8b 55 08	 mov	 edx, DWORD PTR __Wherenode$[ebp]
  00006	56		 push	 esi
  00007	8b 32		 mov	 esi, DWORD PTR [edx]

; 507  :         _Wherenode->_Left = _Pnode->_Right;

  00009	8b 46 08	 mov	 eax, DWORD PTR [esi+8]
  0000c	89 02		 mov	 DWORD PTR [edx], eax

; 508  : 
; 509  :         if (!_Pnode->_Right->_Isnil) {

  0000e	8b 46 08	 mov	 eax, DWORD PTR [esi+8]
  00011	80 78 0d 00	 cmp	 BYTE PTR [eax+13], 0
  00015	75 03		 jne	 SHORT $LN2@Rrotate

; 510  :             _Pnode->_Right->_Parent = _Wherenode;

  00017	89 50 04	 mov	 DWORD PTR [eax+4], edx
$LN2@Rrotate:

; 511  :         }
; 512  : 
; 513  :         _Pnode->_Parent = _Wherenode->_Parent;

  0001a	8b 42 04	 mov	 eax, DWORD PTR [edx+4]
  0001d	89 46 04	 mov	 DWORD PTR [esi+4], eax

; 514  : 
; 515  :         if (_Wherenode == _Myhead->_Parent) {

  00020	8b 01		 mov	 eax, DWORD PTR [ecx]
  00022	3b 50 04	 cmp	 edx, DWORD PTR [eax+4]
  00025	75 0e		 jne	 SHORT $LN3@Rrotate

; 516  :             _Myhead->_Parent = _Pnode;

  00027	89 70 04	 mov	 DWORD PTR [eax+4], esi

; 521  :         }
; 522  : 
; 523  :         _Pnode->_Right      = _Wherenode;
; 524  :         _Wherenode->_Parent = _Pnode;
; 525  :     }

  0002a	89 56 08	 mov	 DWORD PTR [esi+8], edx
  0002d	89 72 04	 mov	 DWORD PTR [edx+4], esi
  00030	5e		 pop	 esi
  00031	5d		 pop	 ebp
  00032	c2 04 00	 ret	 4
$LN3@Rrotate:

; 517  :         } else if (_Wherenode == _Wherenode->_Parent->_Right) {

  00035	8b 42 04	 mov	 eax, DWORD PTR [edx+4]
  00038	3b 50 08	 cmp	 edx, DWORD PTR [eax+8]
  0003b	75 0e		 jne	 SHORT $LN5@Rrotate

; 518  :             _Wherenode->_Parent->_Right = _Pnode;

  0003d	89 70 08	 mov	 DWORD PTR [eax+8], esi

; 521  :         }
; 522  : 
; 523  :         _Pnode->_Right      = _Wherenode;
; 524  :         _Wherenode->_Parent = _Pnode;
; 525  :     }

  00040	89 56 08	 mov	 DWORD PTR [esi+8], edx
  00043	89 72 04	 mov	 DWORD PTR [edx+4], esi
  00046	5e		 pop	 esi
  00047	5d		 pop	 ebp
  00048	c2 04 00	 ret	 4
$LN5@Rrotate:

; 519  :         } else {
; 520  :             _Wherenode->_Parent->_Left = _Pnode;

  0004b	89 30		 mov	 DWORD PTR [eax], esi

; 521  :         }
; 522  : 
; 523  :         _Pnode->_Right      = _Wherenode;
; 524  :         _Wherenode->_Parent = _Pnode;
; 525  :     }

  0004d	89 56 08	 mov	 DWORD PTR [esi+8], edx
  00050	89 72 04	 mov	 DWORD PTR [edx+4], esi
  00053	5e		 pop	 esi
  00054	5d		 pop	 ebp
  00055	c2 04 00	 ret	 4
?_Rrotate@?$_Tree_val@U?$_Tree_simple_types@U?$pair@$$CBKUSPartyMemberInfo@CPythonPlayer@@@std@@@std@@@std@@QAEXPAU?$_Tree_node@U?$pair@$$CBKUSPartyMemberInfo@CPythonPlayer@@@std@@PAX@2@@Z ENDP ; std::_Tree_val<std::_Tree_simple_types<std::pair<unsigned long const ,CPythonPlayer::SPartyMemberInfo> > >::_Rrotate
_TEXT	ENDS
; Function compile flags: /Ogtp
; File C:\Program Files\Microsoft Visual Studio\2022\Community\VC\Tools\MSVC\14.44.35207\include\xtree
;	COMDAT ?_Lrotate@?$_Tree_val@U?$_Tree_simple_types@U?$pair@$$CBKUSPartyMemberInfo@CPythonPlayer@@@std@@@std@@@std@@QAEXPAU?$_Tree_node@U?$pair@$$CBKUSPartyMemberInfo@CPythonPlayer@@@std@@PAX@2@@Z
_TEXT	SEGMENT
__Wherenode$ = 8					; size = 4
?_Lrotate@?$_Tree_val@U?$_Tree_simple_types@U?$pair@$$CBKUSPartyMemberInfo@CPythonPlayer@@@std@@@std@@@std@@QAEXPAU?$_Tree_node@U?$pair@$$CBKUSPartyMemberInfo@CPythonPlayer@@@std@@PAX@2@@Z PROC ; std::_Tree_val<std::_Tree_simple_types<std::pair<unsigned long const ,CPythonPlayer::SPartyMemberInfo> > >::_Lrotate, COMDAT
; _this$ = ecx

; 483  :     void _Lrotate(_Nodeptr _Wherenode) noexcept { // promote right node to root of subtree

  00000	55		 push	 ebp
  00001	8b ec		 mov	 ebp, esp

; 484  :         _Nodeptr _Pnode    = _Wherenode->_Right;

  00003	8b 55 08	 mov	 edx, DWORD PTR __Wherenode$[ebp]
  00006	56		 push	 esi
  00007	8b 72 08	 mov	 esi, DWORD PTR [edx+8]

; 485  :         _Wherenode->_Right = _Pnode->_Left;

  0000a	8b 06		 mov	 eax, DWORD PTR [esi]
  0000c	89 42 08	 mov	 DWORD PTR [edx+8], eax

; 486  : 
; 487  :         if (!_Pnode->_Left->_Isnil) {

  0000f	8b 06		 mov	 eax, DWORD PTR [esi]
  00011	80 78 0d 00	 cmp	 BYTE PTR [eax+13], 0
  00015	75 03		 jne	 SHORT $LN2@Lrotate

; 488  :             _Pnode->_Left->_Parent = _Wherenode;

  00017	89 50 04	 mov	 DWORD PTR [eax+4], edx
$LN2@Lrotate:

; 489  :         }
; 490  : 
; 491  :         _Pnode->_Parent = _Wherenode->_Parent;

  0001a	8b 42 04	 mov	 eax, DWORD PTR [edx+4]
  0001d	89 46 04	 mov	 DWORD PTR [esi+4], eax

; 492  : 
; 493  :         if (_Wherenode == _Myhead->_Parent) {

  00020	8b 01		 mov	 eax, DWORD PTR [ecx]
  00022	3b 50 04	 cmp	 edx, DWORD PTR [eax+4]
  00025	75 0d		 jne	 SHORT $LN3@Lrotate

; 494  :             _Myhead->_Parent = _Pnode;

  00027	89 70 04	 mov	 DWORD PTR [eax+4], esi

; 499  :         }
; 500  : 
; 501  :         _Pnode->_Left       = _Wherenode;
; 502  :         _Wherenode->_Parent = _Pnode;
; 503  :     }

  0002a	89 16		 mov	 DWORD PTR [esi], edx
  0002c	89 72 04	 mov	 DWORD PTR [edx+4], esi
  0002f	5e		 pop	 esi
  00030	5d		 pop	 ebp
  00031	c2 04 00	 ret	 4
$LN3@Lrotate:

; 495  :         } else if (_Wherenode == _Wherenode->_Parent->_Left) {

  00034	8b 42 04	 mov	 eax, DWORD PTR [edx+4]
  00037	3b 10		 cmp	 edx, DWORD PTR [eax]
  00039	75 0c		 jne	 SHORT $LN5@Lrotate

; 496  :             _Wherenode->_Parent->_Left = _Pnode;

  0003b	89 30		 mov	 DWORD PTR [eax], esi

; 499  :         }
; 500  : 
; 501  :         _Pnode->_Left       = _Wherenode;
; 502  :         _Wherenode->_Parent = _Pnode;
; 503  :     }

  0003d	89 16		 mov	 DWORD PTR [esi], edx
  0003f	89 72 04	 mov	 DWORD PTR [edx+4], esi
  00042	5e		 pop	 esi
  00043	5d		 pop	 ebp
  00044	c2 04 00	 ret	 4
$LN5@Lrotate:

; 497  :         } else {
; 498  :             _Wherenode->_Parent->_Right = _Pnode;

  00047	89 70 08	 mov	 DWORD PTR [eax+8], esi

; 499  :         }
; 500  : 
; 501  :         _Pnode->_Left       = _Wherenode;
; 502  :         _Wherenode->_Parent = _Pnode;
; 503  :     }

  0004a	89 16		 mov	 DWORD PTR [esi], edx
  0004c	89 72 04	 mov	 DWORD PTR [edx+4], esi
  0004f	5e		 pop	 esi
  00050	5d		 pop	 ebp
  00051	c2 04 00	 ret	 4
?_Lrotate@?$_Tree_val@U?$_Tree_simple_types@U?$pair@$$CBKUSPartyMemberInfo@CPythonPlayer@@@std@@@std@@@std@@QAEXPAU?$_Tree_node@U?$pair@$$CBKUSPartyMemberInfo@CPythonPlayer@@@std@@PAX@2@@Z ENDP ; std::_Tree_val<std::_Tree_simple_types<std::pair<unsigned long const ,CPythonPlayer::SPartyMemberInfo> > >::_Lrotate
_TEXT	ENDS
; Function compile flags: /Ogtp
; File C:\Program Files\Microsoft Visual Studio\2022\Community\VC\Tools\MSVC\14.44.35207\include\xtree
;	COMDAT ??0?$_Tree_val@U?$_Tree_simple_types@U?$pair@$$CBKUSPartyMemberInfo@CPythonPlayer@@@std@@@std@@@std@@QAE@XZ
_TEXT	SEGMENT
??0?$_Tree_val@U?$_Tree_simple_types@U?$pair@$$CBKUSPartyMemberInfo@CPythonPlayer@@@std@@@std@@@std@@QAE@XZ PROC ; std::_Tree_val<std::_Tree_simple_types<std::pair<unsigned long const ,CPythonPlayer::SPartyMemberInfo> > >::_Tree_val<std::_Tree_simple_types<std::pair<unsigned long const ,CPythonPlayer::SPartyMemberInfo> > >, COMDAT
; _this$ = ecx

; 450  :     _Tree_val() noexcept : _Myhead(), _Mysize(0) {}

  00000	c7 01 00 00 00
	00		 mov	 DWORD PTR [ecx], 0
  00006	8b c1		 mov	 eax, ecx
  00008	c7 41 04 00 00
	00 00		 mov	 DWORD PTR [ecx+4], 0
  0000f	c3		 ret	 0
??0?$_Tree_val@U?$_Tree_simple_types@U?$pair@$$CBKUSPartyMemberInfo@CPythonPlayer@@@std@@@std@@@std@@QAE@XZ ENDP ; std::_Tree_val<std::_Tree_simple_types<std::pair<unsigned long const ,CPythonPlayer::SPartyMemberInfo> > >::_Tree_val<std::_Tree_simple_types<std::pair<unsigned long const ,CPythonPlayer::SPartyMemberInfo> > >
_TEXT	ENDS
; Function compile flags: /Ogtp
; File C:\Program Files\Microsoft Visual Studio\2022\Community\VC\Tools\MSVC\14.44.35207\include\xmemory
;	COMDAT ?allocate@?$allocator@U?$_Tree_node@U?$pair@$$CBKUSPartyMemberInfo@CPythonPlayer@@@std@@PAX@std@@@std@@QAEPAU?$_Tree_node@U?$pair@$$CBKUSPartyMemberInfo@CPythonPlayer@@@std@@PAX@2@I@Z
_TEXT	SEGMENT
__Count$dead$ = 8					; size = 4
?allocate@?$allocator@U?$_Tree_node@U?$pair@$$CBKUSPartyMemberInfo@CPythonPlayer@@@std@@PAX@std@@@std@@QAEPAU?$_Tree_node@U?$pair@$$CBKUSPartyMemberInfo@CPythonPlayer@@@std@@PAX@2@I@Z PROC ; std::allocator<std::_Tree_node<std::pair<unsigned long const ,CPythonPlayer::SPartyMemberInfo>,void *> >::allocate, COMDAT
; _this$dead$ = ecx

; 989  :         static_assert(sizeof(value_type) > 0, "value_type must be complete before calling allocate.");
; 990  :         return static_cast<_Ty*>(_STD _Allocate<_New_alignof<_Ty>>(_Get_size_of_n<sizeof(_Ty)>(_Count)));

  00000	6a 44		 push	 68			; 00000044H
  00002	e8 00 00 00 00	 call	 ??2@YAPAXI@Z		; operator new
  00007	83 c4 04	 add	 esp, 4

; 991  :     }

  0000a	c2 04 00	 ret	 4
?allocate@?$allocator@U?$_Tree_node@U?$pair@$$CBKUSPartyMemberInfo@CPythonPlayer@@@std@@PAX@std@@@std@@QAEPAU?$_Tree_node@U?$pair@$$CBKUSPartyMemberInfo@CPythonPlayer@@@std@@PAX@2@I@Z ENDP ; std::allocator<std::_Tree_node<std::pair<unsigned long const ,CPythonPlayer::SPartyMemberInfo>,void *> >::allocate
_TEXT	ENDS
; Function compile flags: /Ogtp
; File C:\Program Files\Microsoft Visual Studio\2022\Community\VC\Tools\MSVC\14.44.35207\include\xmemory
;	COMDAT ?deallocate@?$allocator@U?$_Tree_node@U?$pair@$$CBKUSPartyMemberInfo@CPythonPlayer@@@std@@PAX@std@@@std@@QAEXQAU?$_Tree_node@U?$pair@$$CBKUSPartyMemberInfo@CPythonPlayer@@@std@@PAX@2@I@Z
_TEXT	SEGMENT
__Ptr$ = 8						; size = 4
__Count$dead$ = 12					; size = 4
?deallocate@?$allocator@U?$_Tree_node@U?$pair@$$CBKUSPartyMemberInfo@CPythonPlayer@@@std@@PAX@std@@@std@@QAEXQAU?$_Tree_node@U?$pair@$$CBKUSPartyMemberInfo@CPythonPlayer@@@std@@PAX@2@I@Z PROC ; std::allocator<std::_Tree_node<std::pair<unsigned long const ,CPythonPlayer::SPartyMemberInfo>,void *> >::deallocate, COMDAT
; _this$dead$ = ecx

; 982  :     _CONSTEXPR20 void deallocate(_Ty* const _Ptr, const size_t _Count) noexcept /* strengthened */ {

  00000	55		 push	 ebp
  00001	8b ec		 mov	 ebp, esp

; 289  :         ::operator delete(_Ptr, _Bytes);

  00003	6a 44		 push	 68			; 00000044H
  00005	ff 75 08	 push	 DWORD PTR __Ptr$[ebp]
  00008	e8 00 00 00 00	 call	 ??3@YAXPAXI@Z		; operator delete
  0000d	83 c4 08	 add	 esp, 8

; 983  :         _STL_ASSERT(_Ptr != nullptr || _Count == 0, "null pointer cannot point to a block of non-zero size");
; 984  :         // no overflow check on the following multiply; we assume _Allocate did that check
; 985  :         _STD _Deallocate<_New_alignof<_Ty>>(_Ptr, sizeof(_Ty) * _Count);
; 986  :     }

  00010	5d		 pop	 ebp
  00011	c2 08 00	 ret	 8
?deallocate@?$allocator@U?$_Tree_node@U?$pair@$$CBKUSPartyMemberInfo@CPythonPlayer@@@std@@PAX@std@@@std@@QAEXQAU?$_Tree_node@U?$pair@$$CBKUSPartyMemberInfo@CPythonPlayer@@@std@@PAX@2@I@Z ENDP ; std::allocator<std::_Tree_node<std::pair<unsigned long const ,CPythonPlayer::SPartyMemberInfo>,void *> >::deallocate
_TEXT	ENDS
; Function compile flags: /Ogtp
; File C:\Program Files\Microsoft Visual Studio\2022\Community\VC\Tools\MSVC\14.44.35207\include\xmemory
;	COMDAT ??0?$allocator@U?$_Tree_node@U?$pair@$$CBKUSPartyMemberInfo@CPythonPlayer@@@std@@PAX@std@@@std@@QAE@XZ
_TEXT	SEGMENT
??0?$allocator@U?$_Tree_node@U?$pair@$$CBKUSPartyMemberInfo@CPythonPlayer@@@std@@PAX@std@@@std@@QAE@XZ PROC ; std::allocator<std::_Tree_node<std::pair<unsigned long const ,CPythonPlayer::SPartyMemberInfo>,void *> >::allocator<std::_Tree_node<std::pair<unsigned long const ,CPythonPlayer::SPartyMemberInfo>,void *> >, COMDAT
; _this$ = ecx

; 974  :     constexpr allocator() noexcept {}

  00000	8b c1		 mov	 eax, ecx
  00002	c3		 ret	 0
??0?$allocator@U?$_Tree_node@U?$pair@$$CBKUSPartyMemberInfo@CPythonPlayer@@@std@@PAX@std@@@std@@QAE@XZ ENDP ; std::allocator<std::_Tree_node<std::pair<unsigned long const ,CPythonPlayer::SPartyMemberInfo>,void *> >::allocator<std::_Tree_node<std::pair<unsigned long const ,CPythonPlayer::SPartyMemberInfo>,void *> >
_TEXT	ENDS
; Function compile flags: /Ogtp
; File C:\Program Files\Microsoft Visual Studio\2022\Community\VC\Tools\MSVC\14.44.35207\include\xtree
;	COMDAT ?max_size@?$_Tree@V?$_Tmap_traits@KUSPartyMemberInfo@CPythonPlayer@@U?$less@K@std@@V?$allocator@U?$pair@$$CBKUSPartyMemberInfo@CPythonPlayer@@@std@@@4@$0A@@std@@@std@@QBEIXZ
_TEXT	SEGMENT
?max_size@?$_Tree@V?$_Tmap_traits@KUSPartyMemberInfo@CPythonPlayer@@U?$less@K@std@@V?$allocator@U?$pair@$$CBKUSPartyMemberInfo@CPythonPlayer@@@std@@@4@$0A@@std@@@std@@QBEIXZ PROC ; std::_Tree<std::_Tmap_traits<unsigned long,CPythonPlayer::SPartyMemberInfo,std::less<unsigned long>,std::allocator<std::pair<unsigned long const ,CPythonPlayer::SPartyMemberInfo> >,0> >::max_size, COMDAT
; _this$dead$ = ecx

; 1213 :         return (_STD min)(

  00000	b8 c3 c3 c3 03	 mov	 eax, 63161283		; 03c3c3c3H

; 1214 :             static_cast<size_type>(_STD _Max_limit<difference_type>()), _Alnode_traits::max_size(_Getal()));
; 1215 :     }

  00005	c3		 ret	 0
?max_size@?$_Tree@V?$_Tmap_traits@KUSPartyMemberInfo@CPythonPlayer@@U?$less@K@std@@V?$allocator@U?$pair@$$CBKUSPartyMemberInfo@CPythonPlayer@@@std@@@4@$0A@@std@@@std@@QBEIXZ ENDP ; std::_Tree<std::_Tmap_traits<unsigned long,CPythonPlayer::SPartyMemberInfo,std::less<unsigned long>,std::allocator<std::pair<unsigned long const ,CPythonPlayer::SPartyMemberInfo> >,0> >::max_size
_TEXT	ENDS
; Function compile flags: /Ogtp
; File C:\Program Files\Microsoft Visual Studio\2022\Community\VC\Tools\MSVC\14.44.35207\include\xstring
;	COMDAT ??_G?$pair@$$CBKUSPartyMemberInfo@CPythonPlayer@@@std@@QAEPAXI@Z
_TEXT	SEGMENT
___flags$dead$ = 8					; size = 4
??_G?$pair@$$CBKUSPartyMemberInfo@CPythonPlayer@@@std@@QAEPAXI@Z PROC ; std::pair<unsigned long const ,CPythonPlayer::SPartyMemberInfo>::`scalar deleting destructor', COMDAT
; _this$ = ecx

; 1383 :         _Tidy_deallocate();

  00000	56		 push	 esi
  00001	8b f1		 mov	 esi, ecx
  00003	8d 4e 0c	 lea	 ecx, DWORD PTR [esi+12]
  00006	e8 00 00 00 00	 call	 ?_Tidy_deallocate@?$basic_string@DU?$char_traits@D@std@@V?$allocator@D@2@@std@@AAEXXZ ; std::basic_string<char,std::char_traits<char>,std::allocator<char> >::_Tidy_deallocate
  0000b	8b c6		 mov	 eax, esi
  0000d	5e		 pop	 esi
  0000e	c2 04 00	 ret	 4
??_G?$pair@$$CBKUSPartyMemberInfo@CPythonPlayer@@@std@@QAEPAXI@Z ENDP ; std::pair<unsigned long const ,CPythonPlayer::SPartyMemberInfo>::`scalar deleting destructor'
_TEXT	ENDS
; Function compile flags: /Ogtp
; File C:\Program Files\Microsoft Visual Studio\2022\Community\VC\Tools\MSVC\14.44.35207\include\utility
;	COMDAT ??$?0ABK$$Z$$V@?$pair@$$CBKK@std@@QAE@Upiecewise_construct_t@1@V?$tuple@ABK@1@V?$tuple@$$V@1@@Z
_TEXT	SEGMENT
___formal$ = 8						; size = 1
__Val1$ = 12						; size = 4
__Val2$ = 16						; size = 1
??$?0ABK$$Z$$V@?$pair@$$CBKK@std@@QAE@Upiecewise_construct_t@1@V?$tuple@ABK@1@V?$tuple@$$V@1@@Z PROC ; std::pair<unsigned long const ,unsigned long>::pair<unsigned long const ,unsigned long><unsigned long const &>, COMDAT
; _this$ = ecx

; 331  :         : pair(_Val1, _Val2, index_sequence_for<_Types1...>{}, index_sequence_for<_Types2...>{}) {}

  00000	55		 push	 ebp
  00001	8b ec		 mov	 ebp, esp

; 478  :         : first(_STD _Tuple_get<_Indices1>(_STD move(_Val1))...),

  00003	8b 45 0c	 mov	 eax, DWORD PTR __Val1$[ebp]
  00006	8b 00		 mov	 eax, DWORD PTR [eax]
  00008	89 01		 mov	 DWORD PTR [ecx], eax

; 331  :         : pair(_Val1, _Val2, index_sequence_for<_Types1...>{}, index_sequence_for<_Types2...>{}) {}

  0000a	8b c1		 mov	 eax, ecx

; 479  :           second(_STD _Tuple_get<_Indices2>(_STD move(_Val2))...) {}

  0000c	c7 41 04 00 00
	00 00		 mov	 DWORD PTR [ecx+4], 0

; 331  :         : pair(_Val1, _Val2, index_sequence_for<_Types1...>{}, index_sequence_for<_Types2...>{}) {}

  00013	5d		 pop	 ebp
  00014	c2 0c 00	 ret	 12			; 0000000cH
??$?0ABK$$Z$$V@?$pair@$$CBKK@std@@QAE@Upiecewise_construct_t@1@V?$tuple@ABK@1@V?$tuple@$$V@1@@Z ENDP ; std::pair<unsigned long const ,unsigned long>::pair<unsigned long const ,unsigned long><unsigned long const &>
_TEXT	ENDS
; Function compile flags: /Ogtp
; File C:\Program Files\Microsoft Visual Studio\2022\Community\VC\Tools\MSVC\14.44.35207\include\xutility
; File C:\Program Files\Microsoft Visual Studio\2022\Community\VC\Tools\MSVC\14.44.35207\include\utility
; File C:\Program Files\Microsoft Visual Studio\2022\Community\VC\Tools\MSVC\14.44.35207\include\xutility
; File C:\Program Files\Microsoft Visual Studio\2022\Community\VC\Tools\MSVC\14.44.35207\include\utility
; File C:\Program Files\Microsoft Visual Studio\2022\Community\VC\Tools\MSVC\14.44.35207\include\xutility
;	COMDAT ??$construct_at@U?$pair@$$CBKUSPartyMemberInfo@CPythonPlayer@@@std@@U?$pair@KUSPartyMemberInfo@CPythonPlayer@@@2@@std@@YAPAU?$pair@$$CBKUSPartyMemberInfo@CPythonPlayer@@@0@QAU10@$$QAU?$pair@KUSPartyMemberInfo@CPythonPlayer@@@0@@Z
_TEXT	SEGMENT
??$construct_at@U?$pair@$$CBKUSPartyMemberInfo@CPythonPlayer@@@std@@U?$pair@KUSPartyMemberInfo@CPythonPlayer@@@2@@std@@YAPAU?$pair@$$CBKUSPartyMemberInfo@CPythonPlayer@@@0@QAU10@$$QAU?$pair@KUSPartyMemberInfo@CPythonPlayer@@@0@@Z PROC ; std::construct_at<std::pair<unsigned long const ,CPythonPlayer::SPartyMemberInfo>,std::pair<unsigned long,CPythonPlayer::SPartyMemberInfo> >, COMDAT
; __Location$ = ecx
; _<_Args_0>$ = edx
; File C:\Program Files\Microsoft Visual Studio\2022\Community\VC\Tools\MSVC\14.44.35207\include\utility

; 303  :         : first(_STD forward<_Other1>(_Right.first)), second(_STD forward<_Other2>(_Right.second)) {}

  00000	8b 02		 mov	 eax, DWORD PTR [edx]
; File C:\Program Files\Microsoft Visual Studio\2022\Community\VC\Tools\MSVC\14.44.35207\include\xutility

; 462  :     noexcept(noexcept(::new (static_cast<void*>(_Location)) _Ty(_STD forward<_Types>(_Args)...))) /* strengthened */ {

  00002	56		 push	 esi
  00003	8b f1		 mov	 esi, ecx
; File C:\Program Files\Microsoft Visual Studio\2022\Community\VC\Tools\MSVC\14.44.35207\include\utility

; 303  :         : first(_STD forward<_Other1>(_Right.first)), second(_STD forward<_Other2>(_Right.second)) {}

  00005	89 06		 mov	 DWORD PTR [esi], eax
  00007	8d 4e 04	 lea	 ecx, DWORD PTR [esi+4]
  0000a	8d 42 04	 lea	 eax, DWORD PTR [edx+4]
  0000d	50		 push	 eax
  0000e	e8 00 00 00 00	 call	 ??0SPartyMemberInfo@CPythonPlayer@@QAE@$$QAU01@@Z
; File C:\Program Files\Microsoft Visual Studio\2022\Community\VC\Tools\MSVC\14.44.35207\include\xutility

; 463  :     _MSVC_CONSTEXPR return ::new (static_cast<void*>(_Location)) _Ty(_STD forward<_Types>(_Args)...);

  00013	8b c6		 mov	 eax, esi
  00015	5e		 pop	 esi

; 464  : }

  00016	c3		 ret	 0
??$construct_at@U?$pair@$$CBKUSPartyMemberInfo@CPythonPlayer@@@std@@U?$pair@KUSPartyMemberInfo@CPythonPlayer@@@2@@std@@YAPAU?$pair@$$CBKUSPartyMemberInfo@CPythonPlayer@@@0@QAU10@$$QAU?$pair@KUSPartyMemberInfo@CPythonPlayer@@@0@@Z ENDP ; std::construct_at<std::pair<unsigned long const ,CPythonPlayer::SPartyMemberInfo>,std::pair<unsigned long,CPythonPlayer::SPartyMemberInfo> >
_TEXT	ENDS
; Function compile flags: /Ogtp
; File C:\Program Files\Microsoft Visual Studio\2022\Community\VC\Tools\MSVC\14.44.35207\include\type_traits
;	COMDAT ??$addressof@PAU?$_Tree_node@U?$pair@$$CBKUSPartyMemberInfo@CPythonPlayer@@@std@@PAX@std@@@std@@YAPAPAU?$_Tree_node@U?$pair@$$CBKUSPartyMemberInfo@CPythonPlayer@@@std@@PAX@0@AAPAU10@@Z
_TEXT	SEGMENT
??$addressof@PAU?$_Tree_node@U?$pair@$$CBKUSPartyMemberInfo@CPythonPlayer@@@std@@PAX@std@@@std@@YAPAPAU?$_Tree_node@U?$pair@$$CBKUSPartyMemberInfo@CPythonPlayer@@@std@@PAX@0@AAPAU10@@Z PROC ; std::addressof<std::_Tree_node<std::pair<unsigned long const ,CPythonPlayer::SPartyMemberInfo>,void *> *>, COMDAT
; __Val$ = ecx

; 1525 :     return __builtin_addressof(_Val);

  00000	8b c1		 mov	 eax, ecx

; 1526 : }

  00002	c3		 ret	 0
??$addressof@PAU?$_Tree_node@U?$pair@$$CBKUSPartyMemberInfo@CPythonPlayer@@@std@@PAX@std@@@std@@YAPAPAU?$_Tree_node@U?$pair@$$CBKUSPartyMemberInfo@CPythonPlayer@@@std@@PAX@0@AAPAU10@@Z ENDP ; std::addressof<std::_Tree_node<std::pair<unsigned long const ,CPythonPlayer::SPartyMemberInfo>,void *> *>
_TEXT	ENDS
; Function compile flags: /Ogtp
; File C:\Program Files\Microsoft Visual Studio\2022\Community\VC\Tools\MSVC\14.44.35207\include\xutility
;	COMDAT ??$construct_at@PAU?$_Tree_node@U?$pair@$$CBKUSPartyMemberInfo@CPythonPlayer@@@std@@PAX@std@@AAPAU12@@std@@YAPAPAU?$_Tree_node@U?$pair@$$CBKUSPartyMemberInfo@CPythonPlayer@@@std@@PAX@0@QAPAU10@AAPAU10@@Z
_TEXT	SEGMENT
??$construct_at@PAU?$_Tree_node@U?$pair@$$CBKUSPartyMemberInfo@CPythonPlayer@@@std@@PAX@std@@AAPAU12@@std@@YAPAPAU?$_Tree_node@U?$pair@$$CBKUSPartyMemberInfo@CPythonPlayer@@@std@@PAX@0@QAPAU10@AAPAU10@@Z PROC ; std::construct_at<std::_Tree_node<std::pair<unsigned long const ,CPythonPlayer::SPartyMemberInfo>,void *> *,std::_Tree_node<std::pair<unsigned long const ,CPythonPlayer::SPartyMemberInfo>,void *> * &>, COMDAT
; __Location$ = ecx
; _<_Args_0>$ = edx

; 463  :     _MSVC_CONSTEXPR return ::new (static_cast<void*>(_Location)) _Ty(_STD forward<_Types>(_Args)...);

  00000	8b 02		 mov	 eax, DWORD PTR [edx]
  00002	89 01		 mov	 DWORD PTR [ecx], eax
  00004	8b c1		 mov	 eax, ecx

; 464  : }

  00006	c3		 ret	 0
??$construct_at@PAU?$_Tree_node@U?$pair@$$CBKUSPartyMemberInfo@CPythonPlayer@@@std@@PAX@std@@AAPAU12@@std@@YAPAPAU?$_Tree_node@U?$pair@$$CBKUSPartyMemberInfo@CPythonPlayer@@@std@@PAX@0@QAPAU10@AAPAU10@@Z ENDP ; std::construct_at<std::_Tree_node<std::pair<unsigned long const ,CPythonPlayer::SPartyMemberInfo>,void *> *,std::_Tree_node<std::pair<unsigned long const ,CPythonPlayer::SPartyMemberInfo>,void *> * &>
_TEXT	ENDS
; Function compile flags: /Ogtp
; File C:\Program Files\Microsoft Visual Studio\2022\Community\VC\Tools\MSVC\14.44.35207\include\type_traits
;	COMDAT ??$forward@ABQAU?$_Tree_node@U?$pair@$$CBKUSPartyMemberInfo@CPythonPlayer@@@std@@PAX@std@@@std@@YAABQAU?$_Tree_node@U?$pair@$$CBKUSPartyMemberInfo@CPythonPlayer@@@std@@PAX@0@ABQAU10@@Z
_TEXT	SEGMENT
??$forward@ABQAU?$_Tree_node@U?$pair@$$CBKUSPartyMemberInfo@CPythonPlayer@@@std@@PAX@std@@@std@@YAABQAU?$_Tree_node@U?$pair@$$CBKUSPartyMemberInfo@CPythonPlayer@@@std@@PAX@0@ABQAU10@@Z PROC ; std::forward<std::_Tree_node<std::pair<unsigned long const ,CPythonPlayer::SPartyMemberInfo>,void *> * const &>, COMDAT
; __Arg$ = ecx

; 1502 :     return static_cast<_Ty&&>(_Arg);

  00000	8b c1		 mov	 eax, ecx

; 1503 : }

  00002	c3		 ret	 0
??$forward@ABQAU?$_Tree_node@U?$pair@$$CBKUSPartyMemberInfo@CPythonPlayer@@@std@@PAX@std@@@std@@YAABQAU?$_Tree_node@U?$pair@$$CBKUSPartyMemberInfo@CPythonPlayer@@@std@@PAX@0@ABQAU10@@Z ENDP ; std::forward<std::_Tree_node<std::pair<unsigned long const ,CPythonPlayer::SPartyMemberInfo>,void *> * const &>
_TEXT	ENDS
; Function compile flags: /Ogtp
; File C:\Program Files\Microsoft Visual Studio\2022\Community\VC\Tools\MSVC\14.44.35207\include\xutility
;	COMDAT ??$construct_at@PAU?$_Tree_node@U?$pair@$$CBKUSPartyMemberInfo@CPythonPlayer@@@std@@PAX@std@@ABQAU12@@std@@YAPAPAU?$_Tree_node@U?$pair@$$CBKUSPartyMemberInfo@CPythonPlayer@@@std@@PAX@0@QAPAU10@ABQAU10@@Z
_TEXT	SEGMENT
??$construct_at@PAU?$_Tree_node@U?$pair@$$CBKUSPartyMemberInfo@CPythonPlayer@@@std@@PAX@std@@ABQAU12@@std@@YAPAPAU?$_Tree_node@U?$pair@$$CBKUSPartyMemberInfo@CPythonPlayer@@@std@@PAX@0@QAPAU10@ABQAU10@@Z PROC ; std::construct_at<std::_Tree_node<std::pair<unsigned long const ,CPythonPlayer::SPartyMemberInfo>,void *> *,std::_Tree_node<std::pair<unsigned long const ,CPythonPlayer::SPartyMemberInfo>,void *> * const &>, COMDAT
; __Location$ = ecx
; _<_Args_0>$ = edx

; 463  :     _MSVC_CONSTEXPR return ::new (static_cast<void*>(_Location)) _Ty(_STD forward<_Types>(_Args)...);

  00000	8b 02		 mov	 eax, DWORD PTR [edx]
  00002	89 01		 mov	 DWORD PTR [ecx], eax
  00004	8b c1		 mov	 eax, ecx

; 464  : }

  00006	c3		 ret	 0
??$construct_at@PAU?$_Tree_node@U?$pair@$$CBKUSPartyMemberInfo@CPythonPlayer@@@std@@PAX@std@@ABQAU12@@std@@YAPAPAU?$_Tree_node@U?$pair@$$CBKUSPartyMemberInfo@CPythonPlayer@@@std@@PAX@0@QAPAU10@ABQAU10@@Z ENDP ; std::construct_at<std::_Tree_node<std::pair<unsigned long const ,CPythonPlayer::SPartyMemberInfo>,void *> *,std::_Tree_node<std::pair<unsigned long const ,CPythonPlayer::SPartyMemberInfo>,void *> * const &>
_TEXT	ENDS
; Function compile flags: /Ogtp
; File C:\Program Files\Microsoft Visual Studio\2022\Community\VC\Tools\MSVC\14.44.35207\include\xmemory
;	COMDAT ??$_Get_size_of_n@$0EE@@std@@YAII@Z
_TEXT	SEGMENT
??$_Get_size_of_n@$0EE@@std@@YAII@Z PROC		; std::_Get_size_of_n<68>, COMDAT
; __Count$dead$ = ecx

; 113  :     constexpr bool _Overflow_is_possible = _Ty_size > 1;
; 114  : 
; 115  :     if constexpr (_Overflow_is_possible) {
; 116  :         constexpr size_t _Max_possible = static_cast<size_t>(-1) / _Ty_size;
; 117  :         if (_Count > _Max_possible) {
; 118  :             _Throw_bad_array_new_length(); // multiply overflow
; 119  :         }
; 120  :     }
; 121  : 
; 122  :     return _Count * _Ty_size;

  00000	b8 44 00 00 00	 mov	 eax, 68			; 00000044H

; 123  : }

  00005	c3		 ret	 0
??$_Get_size_of_n@$0EE@@std@@YAII@Z ENDP		; std::_Get_size_of_n<68>
_TEXT	ENDS
; Function compile flags: /Ogtp
; File C:\Program Files\Microsoft Visual Studio\2022\Community\VC\Tools\MSVC\14.44.35207\include\xmemory
;	COMDAT ?_Allocate@?$_Alloc_construct_ptr@V?$allocator@U?$_Tree_node@U?$pair@$$CBKUSPartyMemberInfo@CPythonPlayer@@@std@@PAX@std@@@std@@@std@@QAEXXZ
_TEXT	SEGMENT
?_Allocate@?$_Alloc_construct_ptr@V?$allocator@U?$_Tree_node@U?$pair@$$CBKUSPartyMemberInfo@CPythonPlayer@@@std@@PAX@std@@@std@@@std@@QAEXXZ PROC ; std::_Alloc_construct_ptr<std::allocator<std::_Tree_node<std::pair<unsigned long const ,CPythonPlayer::SPartyMemberInfo>,void *> > >::_Allocate, COMDAT
; _this$ = ecx

; 1166 :     _CONSTEXPR20 void _Allocate() { // disengage *this, then allocate a new memory block

  00000	56		 push	 esi
  00001	8b f1		 mov	 esi, ecx

; 1167 :         _Ptr = nullptr; // if allocate throws, prevents double-free
; 1168 :         _Ptr = _Al.allocate(1);

  00003	6a 44		 push	 68			; 00000044H
  00005	c7 46 04 00 00
	00 00		 mov	 DWORD PTR [esi+4], 0
  0000c	e8 00 00 00 00	 call	 ??2@YAPAXI@Z		; operator new
  00011	83 c4 04	 add	 esp, 4
  00014	89 46 04	 mov	 DWORD PTR [esi+4], eax
  00017	5e		 pop	 esi

; 1169 :     }

  00018	c3		 ret	 0
?_Allocate@?$_Alloc_construct_ptr@V?$allocator@U?$_Tree_node@U?$pair@$$CBKUSPartyMemberInfo@CPythonPlayer@@@std@@PAX@std@@@std@@@std@@QAEXXZ ENDP ; std::_Alloc_construct_ptr<std::allocator<std::_Tree_node<std::pair<unsigned long const ,CPythonPlayer::SPartyMemberInfo>,void *> > >::_Allocate
_TEXT	ENDS
; Function compile flags: /Ogtp
; File C:\Program Files\Microsoft Visual Studio\2022\Community\VC\Tools\MSVC\14.44.35207\include\xmemory
;	COMDAT ??0?$_Alloc_construct_ptr@V?$allocator@U?$_Tree_node@U?$pair@$$CBKUSPartyMemberInfo@CPythonPlayer@@@std@@PAX@std@@@std@@@std@@QAE@AAV?$allocator@U?$_Tree_node@U?$pair@$$CBKUSPartyMemberInfo@CPythonPlayer@@@std@@PAX@std@@@1@@Z
_TEXT	SEGMENT
__Al_$ = 8						; size = 4
??0?$_Alloc_construct_ptr@V?$allocator@U?$_Tree_node@U?$pair@$$CBKUSPartyMemberInfo@CPythonPlayer@@@std@@PAX@std@@@std@@@std@@QAE@AAV?$allocator@U?$_Tree_node@U?$pair@$$CBKUSPartyMemberInfo@CPythonPlayer@@@std@@PAX@std@@@1@@Z PROC ; std::_Alloc_construct_ptr<std::allocator<std::_Tree_node<std::pair<unsigned long const ,CPythonPlayer::SPartyMemberInfo>,void *> > >::_Alloc_construct_ptr<std::allocator<std::_Tree_node<std::pair<unsigned long const ,CPythonPlayer::SPartyMemberInfo>,void *> > >, COMDAT
; _this$ = ecx

; 1160 :     _CONSTEXPR20 explicit _Alloc_construct_ptr(_Alloc& _Al_) : _Al(_Al_), _Ptr(nullptr) {}

  00000	55		 push	 ebp
  00001	8b ec		 mov	 ebp, esp
  00003	8b 45 08	 mov	 eax, DWORD PTR __Al_$[ebp]
  00006	89 01		 mov	 DWORD PTR [ecx], eax
  00008	8b c1		 mov	 eax, ecx
  0000a	c7 41 04 00 00
	00 00		 mov	 DWORD PTR [ecx+4], 0
  00011	5d		 pop	 ebp
  00012	c2 04 00	 ret	 4
??0?$_Alloc_construct_ptr@V?$allocator@U?$_Tree_node@U?$pair@$$CBKUSPartyMemberInfo@CPythonPlayer@@@std@@PAX@std@@@std@@@std@@QAE@AAV?$allocator@U?$_Tree_node@U?$pair@$$CBKUSPartyMemberInfo@CPythonPlayer@@@std@@PAX@std@@@1@@Z ENDP ; std::_Alloc_construct_ptr<std::allocator<std::_Tree_node<std::pair<unsigned long const ,CPythonPlayer::SPartyMemberInfo>,void *> > >::_Alloc_construct_ptr<std::allocator<std::_Tree_node<std::pair<unsigned long const ,CPythonPlayer::SPartyMemberInfo>,void *> > >
_TEXT	ENDS
; Function compile flags: /Ogtp
; File C:\Program Files\Microsoft Visual Studio\2022\Community\VC\Tools\MSVC\14.44.35207\include\xtree
;	COMDAT ?_Max@?$_Tree_val@U?$_Tree_simple_types@U?$pair@$$CBKUSPartyMemberInfo@CPythonPlayer@@@std@@@std@@@std@@SAPAU?$_Tree_node@U?$pair@$$CBKUSPartyMemberInfo@CPythonPlayer@@@std@@PAX@2@PAU32@@Z
_TEXT	SEGMENT
?_Max@?$_Tree_val@U?$_Tree_simple_types@U?$pair@$$CBKUSPartyMemberInfo@CPythonPlayer@@@std@@@std@@@std@@SAPAU?$_Tree_node@U?$pair@$$CBKUSPartyMemberInfo@CPythonPlayer@@@std@@PAX@2@PAU32@@Z PROC ; std::_Tree_val<std::_Tree_simple_types<std::pair<unsigned long const ,CPythonPlayer::SPartyMemberInfo> > >::_Max, COMDAT
; __Pnode$ = ecx

; 468  :         while (!_Pnode->_Right->_Isnil) {

  00000	8b 51 08	 mov	 edx, DWORD PTR [ecx+8]
  00003	80 7a 0d 00	 cmp	 BYTE PTR [edx+13], 0
  00007	75 13		 jne	 SHORT $LN10@Max
  00009	0f 1f 80 00 00
	00 00		 npad	 7
$LL2@Max:

; 469  :             _Pnode = _Pnode->_Right;

  00010	8b c2		 mov	 eax, edx
  00012	8b 50 08	 mov	 edx, DWORD PTR [eax+8]
  00015	80 7a 0d 00	 cmp	 BYTE PTR [edx+13], 0
  00019	74 f5		 je	 SHORT $LL2@Max

; 473  :     }

  0001b	c3		 ret	 0
$LN10@Max:

; 470  :         }
; 471  : 
; 472  :         return _Pnode;

  0001c	8b c1		 mov	 eax, ecx

; 473  :     }

  0001e	c3		 ret	 0
?_Max@?$_Tree_val@U?$_Tree_simple_types@U?$pair@$$CBKUSPartyMemberInfo@CPythonPlayer@@@std@@@std@@@std@@SAPAU?$_Tree_node@U?$pair@$$CBKUSPartyMemberInfo@CPythonPlayer@@@std@@PAX@2@PAU32@@Z ENDP ; std::_Tree_val<std::_Tree_simple_types<std::pair<unsigned long const ,CPythonPlayer::SPartyMemberInfo> > >::_Max
_TEXT	ENDS
; Function compile flags: /Ogtp
; File C:\Program Files\Microsoft Visual Studio\2022\Community\VC\Tools\MSVC\14.44.35207\include\xmemory
;	COMDAT ?max_size@?$_Default_allocator_traits@V?$allocator@U?$_Tree_node@U?$pair@$$CBKUSPartyMemberInfo@CPythonPlayer@@@std@@PAX@std@@@std@@@std@@SAIABV?$allocator@U?$_Tree_node@U?$pair@$$CBKUSPartyMemberInfo@CPythonPlayer@@@std@@PAX@std@@@2@@Z
_TEXT	SEGMENT
?max_size@?$_Default_allocator_traits@V?$allocator@U?$_Tree_node@U?$pair@$$CBKUSPartyMemberInfo@CPythonPlayer@@@std@@PAX@std@@@std@@@std@@SAIABV?$allocator@U?$_Tree_node@U?$pair@$$CBKUSPartyMemberInfo@CPythonPlayer@@@std@@PAX@std@@@2@@Z PROC ; std::_Default_allocator_traits<std::allocator<std::_Tree_node<std::pair<unsigned long const ,CPythonPlayer::SPartyMemberInfo>,void *> > >::max_size, COMDAT
; ___formal$dead$ = ecx

; 746  :         return static_cast<size_t>(-1) / sizeof(value_type);

  00000	b8 c3 c3 c3 03	 mov	 eax, 63161283		; 03c3c3c3H

; 747  :     }

  00005	c3		 ret	 0
?max_size@?$_Default_allocator_traits@V?$allocator@U?$_Tree_node@U?$pair@$$CBKUSPartyMemberInfo@CPythonPlayer@@@std@@PAX@std@@@std@@@std@@SAIABV?$allocator@U?$_Tree_node@U?$pair@$$CBKUSPartyMemberInfo@CPythonPlayer@@@std@@PAX@std@@@2@@Z ENDP ; std::_Default_allocator_traits<std::allocator<std::_Tree_node<std::pair<unsigned long const ,CPythonPlayer::SPartyMemberInfo>,void *> > >::max_size
_TEXT	ENDS
; Function compile flags: /Ogtp
; File C:\Program Files\Microsoft Visual Studio\2022\Community\VC\Tools\MSVC\14.44.35207\include\xtree
;	COMDAT ?_Getal@?$_Tree@V?$_Tmap_traits@KUSPartyMemberInfo@CPythonPlayer@@U?$less@K@std@@V?$allocator@U?$pair@$$CBKUSPartyMemberInfo@CPythonPlayer@@@std@@@4@$0A@@std@@@std@@IBEABV?$allocator@U?$_Tree_node@U?$pair@$$CBKUSPartyMemberInfo@CPythonPlayer@@@std@@PAX@std@@@2@XZ
_TEXT	SEGMENT
?_Getal@?$_Tree@V?$_Tmap_traits@KUSPartyMemberInfo@CPythonPlayer@@U?$less@K@std@@V?$allocator@U?$pair@$$CBKUSPartyMemberInfo@CPythonPlayer@@@std@@@4@$0A@@std@@@std@@IBEABV?$allocator@U?$_Tree_node@U?$pair@$$CBKUSPartyMemberInfo@CPythonPlayer@@@std@@PAX@std@@@2@XZ PROC ; std::_Tree<std::_Tmap_traits<unsigned long,CPythonPlayer::SPartyMemberInfo,std::less<unsigned long>,std::allocator<std::pair<unsigned long const ,CPythonPlayer::SPartyMemberInfo> >,0> >::_Getal, COMDAT
; _this$ = ecx

; 1979 :         return _Mypair._Myval2._Get_first();

  00000	8b c1		 mov	 eax, ecx

; 1980 :     }

  00002	c3		 ret	 0
?_Getal@?$_Tree@V?$_Tmap_traits@KUSPartyMemberInfo@CPythonPlayer@@U?$less@K@std@@V?$allocator@U?$pair@$$CBKUSPartyMemberInfo@CPythonPlayer@@@std@@@4@$0A@@std@@@std@@IBEABV?$allocator@U?$_Tree_node@U?$pair@$$CBKUSPartyMemberInfo@CPythonPlayer@@@std@@PAX@std@@@2@XZ ENDP ; std::_Tree<std::_Tmap_traits<unsigned long,CPythonPlayer::SPartyMemberInfo,std::less<unsigned long>,std::allocator<std::pair<unsigned long const ,CPythonPlayer::SPartyMemberInfo> >,0> >::_Getal
_TEXT	ENDS
; Function compile flags: /Ogtp
; File C:\Program Files\Microsoft Visual Studio\2022\Community\VC\Tools\MSVC\14.44.35207\include\utility
;	COMDAT ??$?0KUSPartyMemberInfo@CPythonPlayer@@$0A@@?$pair@$$CBKUSPartyMemberInfo@CPythonPlayer@@@std@@QAE@$$QAU?$pair@KUSPartyMemberInfo@CPythonPlayer@@@1@@Z
_TEXT	SEGMENT
__Right$ = 8						; size = 4
??$?0KUSPartyMemberInfo@CPythonPlayer@@$0A@@?$pair@$$CBKUSPartyMemberInfo@CPythonPlayer@@@std@@QAE@$$QAU?$pair@KUSPartyMemberInfo@CPythonPlayer@@@1@@Z PROC ; std::pair<unsigned long const ,CPythonPlayer::SPartyMemberInfo>::pair<unsigned long const ,CPythonPlayer::SPartyMemberInfo><unsigned long,CPythonPlayer::SPartyMemberInfo,0>, COMDAT
; _this$ = ecx

; 303  :         : first(_STD forward<_Other1>(_Right.first)), second(_STD forward<_Other2>(_Right.second)) {}

  00000	55		 push	 ebp
  00001	8b ec		 mov	 ebp, esp
  00003	8b 55 08	 mov	 edx, DWORD PTR __Right$[ebp]
  00006	56		 push	 esi
  00007	8b f1		 mov	 esi, ecx
  00009	8b 02		 mov	 eax, DWORD PTR [edx]
  0000b	89 06		 mov	 DWORD PTR [esi], eax
  0000d	8d 4e 04	 lea	 ecx, DWORD PTR [esi+4]
  00010	8d 42 04	 lea	 eax, DWORD PTR [edx+4]
  00013	50		 push	 eax
  00014	e8 00 00 00 00	 call	 ??0SPartyMemberInfo@CPythonPlayer@@QAE@$$QAU01@@Z
  00019	8b c6		 mov	 eax, esi
  0001b	5e		 pop	 esi
  0001c	5d		 pop	 ebp
  0001d	c2 04 00	 ret	 4
??$?0KUSPartyMemberInfo@CPythonPlayer@@$0A@@?$pair@$$CBKUSPartyMemberInfo@CPythonPlayer@@@std@@QAE@$$QAU?$pair@KUSPartyMemberInfo@CPythonPlayer@@@1@@Z ENDP ; std::pair<unsigned long const ,CPythonPlayer::SPartyMemberInfo>::pair<unsigned long const ,CPythonPlayer::SPartyMemberInfo><unsigned long,CPythonPlayer::SPartyMemberInfo,0>
_TEXT	ENDS
; Function compile flags: /Ogtp
; File C:\Program Files\Microsoft Visual Studio\2022\Community\VC\Tools\MSVC\14.44.35207\include\utility
;	COMDAT ??$?0V?$tuple@ABK@std@@V?$tuple@$$V@1@$0A@$$Z$S@?$pair@$$CBKK@std@@AAE@AAV?$tuple@ABK@1@AAV?$tuple@$$V@1@U?$integer_sequence@I$0A@@1@U?$integer_sequence@I$S@1@@Z
_TEXT	SEGMENT
__Val1$ = 8						; size = 4
__Val2$dead$ = 12					; size = 4
___formal$ = 16						; size = 1
___formal$ = 20						; size = 1
??$?0V?$tuple@ABK@std@@V?$tuple@$$V@1@$0A@$$Z$S@?$pair@$$CBKK@std@@AAE@AAV?$tuple@ABK@1@AAV?$tuple@$$V@1@U?$integer_sequence@I$0A@@1@U?$integer_sequence@I$S@1@@Z PROC ; std::pair<unsigned long const ,unsigned long>::pair<unsigned long const ,unsigned long><std::tuple<unsigned long const &>,std::tuple<>,0>, COMDAT
; _this$ = ecx

; 478  :         : first(_STD _Tuple_get<_Indices1>(_STD move(_Val1))...),

  00000	55		 push	 ebp
  00001	8b ec		 mov	 ebp, esp
  00003	8b 45 08	 mov	 eax, DWORD PTR __Val1$[ebp]
  00006	8b 00		 mov	 eax, DWORD PTR [eax]
  00008	8b 00		 mov	 eax, DWORD PTR [eax]
  0000a	89 01		 mov	 DWORD PTR [ecx], eax

; 479  :           second(_STD _Tuple_get<_Indices2>(_STD move(_Val2))...) {}

  0000c	8b c1		 mov	 eax, ecx
  0000e	c7 41 04 00 00
	00 00		 mov	 DWORD PTR [ecx+4], 0
  00015	5d		 pop	 ebp
  00016	c2 10 00	 ret	 16			; 00000010H
??$?0V?$tuple@ABK@std@@V?$tuple@$$V@1@$0A@$$Z$S@?$pair@$$CBKK@std@@AAE@AAV?$tuple@ABK@1@AAV?$tuple@$$V@1@U?$integer_sequence@I$0A@@1@U?$integer_sequence@I$S@1@@Z ENDP ; std::pair<unsigned long const ,unsigned long>::pair<unsigned long const ,unsigned long><std::tuple<unsigned long const &>,std::tuple<>,0>
_TEXT	ENDS
; Function compile flags: /Ogtp
; File C:\Program Files\Microsoft Visual Studio\2022\Community\VC\Tools\MSVC\14.44.35207\include\xmemory
;	COMDAT ?_Get_first@?$_Compressed_pair@V?$allocator@U?$_Tree_node@U?$pair@$$CBKUSPartyMemberInfo@CPythonPlayer@@@std@@PAX@std@@@std@@V?$_Tree_val@U?$_Tree_simple_types@U?$pair@$$CBKUSPartyMemberInfo@CPythonPlayer@@@std@@@std@@@2@$00@std@@QBEABV?$allocator@U?$_Tree_node@U?$pair@$$CBKUSPartyMemberInfo@CPythonPlayer@@@std@@PAX@std@@@2@XZ
_TEXT	SEGMENT
?_Get_first@?$_Compressed_pair@V?$allocator@U?$_Tree_node@U?$pair@$$CBKUSPartyMemberInfo@CPythonPlayer@@@std@@PAX@std@@@std@@V?$_Tree_val@U?$_Tree_simple_types@U?$pair@$$CBKUSPartyMemberInfo@CPythonPlayer@@@std@@@std@@@2@$00@std@@QBEABV?$allocator@U?$_Tree_node@U?$pair@$$CBKUSPartyMemberInfo@CPythonPlayer@@@std@@PAX@std@@@2@XZ PROC ; std::_Compressed_pair<std::allocator<std::_Tree_node<std::pair<unsigned long const ,CPythonPlayer::SPartyMemberInfo>,void *> >,std::_Tree_val<std::_Tree_simple_types<std::pair<unsigned long const ,CPythonPlayer::SPartyMemberInfo> > >,1>::_Get_first, COMDAT
; _this$ = ecx

; 1543 :         return *this;

  00000	8b c1		 mov	 eax, ecx

; 1544 :     }

  00002	c3		 ret	 0
?_Get_first@?$_Compressed_pair@V?$allocator@U?$_Tree_node@U?$pair@$$CBKUSPartyMemberInfo@CPythonPlayer@@@std@@PAX@std@@@std@@V?$_Tree_val@U?$_Tree_simple_types@U?$pair@$$CBKUSPartyMemberInfo@CPythonPlayer@@@std@@@std@@@2@$00@std@@QBEABV?$allocator@U?$_Tree_node@U?$pair@$$CBKUSPartyMemberInfo@CPythonPlayer@@@std@@PAX@std@@@2@XZ ENDP ; std::_Compressed_pair<std::allocator<std::_Tree_node<std::pair<unsigned long const ,CPythonPlayer::SPartyMemberInfo>,void *> >,std::_Tree_val<std::_Tree_simple_types<std::pair<unsigned long const ,CPythonPlayer::SPartyMemberInfo> > >,1>::_Get_first
_TEXT	ENDS
; Function compile flags: /Odsp
;	COMDAT ??_ECPythonPlayer@@W3AEPAXI@Z
_TEXT	SEGMENT
??_ECPythonPlayer@@W3AEPAXI@Z PROC			; [thunk]:CPythonPlayer::`vector deleting destructor', COMDAT
  00000	83 e9 04	 sub	 ecx, 4
  00003	e9 00 00 00 00	 jmp	 ??_ECPythonPlayer@@UAEPAXI@Z
??_ECPythonPlayer@@W3AEPAXI@Z ENDP			; [thunk]:CPythonPlayer::`vector deleting destructor'
_TEXT	ENDS
; Function compile flags: /Ogtp
; File D:\_m2work\Server Client TMP4\ClientVS22\source\UserInterface\GameType.h
;	COMDAT ?IsBeltInventoryCell@SItemPos@@QAE_NXZ
_TEXT	SEGMENT
?IsBeltInventoryCell@SItemPos@@QAE_NXZ PROC		; SItemPos::IsBeltInventoryCell, COMDAT
; _this$ = ecx

; 243  : 		bool bResult = c_Belt_Inventory_Slot_Start <= cell && c_Belt_Inventory_Slot_End > cell;

  00000	66 8b 41 01	 mov	 ax, WORD PTR [ecx+1]
  00004	ba 98 00 00 00	 mov	 edx, 152		; 00000098H
  00009	66 2b c2	 sub	 ax, dx

; 244  : 		return bResult;

  0000c	66 83 f8 0f	 cmp	 ax, 15			; 0000000fH
  00010	0f 96 c0	 setbe	 al

; 245  : 	}

  00013	c3		 ret	 0
?IsBeltInventoryCell@SItemPos@@QAE_NXZ ENDP		; SItemPos::IsBeltInventoryCell
_TEXT	ENDS
; Function compile flags: /Ogtp
; File D:\_m2work\Server Client TMP4\ClientVS22\source\UserInterface\GameType.h
;	COMDAT ?IsValidCell@SItemPos@@QAE_NXZ
_TEXT	SEGMENT
?IsValidCell@SItemPos@@QAE_NXZ PROC			; SItemPos::IsValidCell, COMDAT
; _this$ = ecx

; 206  : 		switch (window_type)

  00000	0f b6 01	 movzx	 eax, BYTE PTR [ecx]
  00003	83 e8 01	 sub	 eax, 1
  00006	74 27		 je	 SHORT $LN4@IsValidCel
  00008	83 e8 01	 sub	 eax, 1
  0000b	74 15		 je	 SHORT $LN5@IsValidCel
  0000d	83 e8 03	 sub	 eax, 3
  00010	74 03		 je	 SHORT $LN6@IsValidCel

; 216  : 			break;
; 217  : 		default:
; 218  : 			return false;

  00012	32 c0		 xor	 al, al

; 219  : 		}
; 220  : 	}

  00014	c3		 ret	 0
$LN6@IsValidCel:

; 213  : 			break;
; 214  : 		case DRAGON_SOUL_INVENTORY:
; 215  : 			return cell < (DS_INVENTORY_MAX_NUM);

  00015	b8 c0 03 00 00	 mov	 eax, 960		; 000003c0H

; 219  : 		}
; 220  : 	}

  0001a	66 39 41 01	 cmp	 WORD PTR [ecx+1], ax
  0001e	0f 92 c0	 setb	 al
  00021	c3		 ret	 0
$LN5@IsValidCel:

; 210  : 			break;
; 211  : 		case EQUIPMENT:
; 212  : 			return cell < c_DragonSoul_Equip_End;

  00022	b8 86 00 00 00	 mov	 eax, 134		; 00000086H

; 219  : 		}
; 220  : 	}

  00027	66 39 41 01	 cmp	 WORD PTR [ecx+1], ax
  0002b	0f 92 c0	 setb	 al
  0002e	c3		 ret	 0
$LN4@IsValidCel:

; 207  : 		{
; 208  : 		case INVENTORY:
; 209  : 			return cell < c_Inventory_Count;

  0002f	b8 a8 00 00 00	 mov	 eax, 168		; 000000a8H

; 219  : 		}
; 220  : 	}

  00034	66 39 41 01	 cmp	 WORD PTR [ecx+1], ax
  00038	0f 92 c0	 setb	 al
  0003b	c3		 ret	 0
?IsValidCell@SItemPos@@QAE_NXZ ENDP			; SItemPos::IsValidCell
_TEXT	ENDS
END
