; Listing generated by Microsoft (R) Optimizing Compiler Version 19.44.35217.0 

	TITLE	d:\_m2work\server client tmp4\clientvs22\vs_files\userinterface\distribute\pythoneventmanagermoudle.obj
	.686P
	.XMM
	include listing.inc
	.model	flat

INCLUDELIB OLDNAMES

PUBLIC	??_C@_0BB@CGDFENFO@RegisterEventSet@		; `string'
PUBLIC	??_C@_0BL@MCHCNCJD@RegisterEventSetFromString@	; `string'
PUBLIC	??_C@_0O@JBCNLALP@ClearEventSet@		; `string'
PUBLIC	??_C@_0BD@EKLFHPIO@SetRestrictedCount@		; `string'
PUBLIC	??_C@_0BK@FKKDIMJI@GetEventSetLocalYPosition@	; `string'
PUBLIC	??_C@_0BK@LPJNLOBK@AddEventSetLocalYPosition@	; `string'
PUBLIC	??_C@_0L@JMOIGJIA@InsertText@			; `string'
PUBLIC	??_C@_0BB@MOBCCMCK@InsertTextInline@		; `string'
PUBLIC	??_C@_0P@LODKOLED@UpdateEventSet@		; `string'
PUBLIC	??_C@_0P@MPNMCGPE@RenderEventSet@		; `string'
PUBLIC	??_C@_0BB@HGJNLEEA@SetEventSetWidth@		; `string'
PUBLIC	??_C@_04MCHAEEKC@Skip@				; `string'
PUBLIC	??_C@_06DLEKKAKE@IsWait@			; `string'
PUBLIC	??_C@_0BA@CNECBPF@EndEventProcess@		; `string'
PUBLIC	??_C@_0N@BPMDBAHI@SelectAnswer@			; `string'
PUBLIC	??_C@_0BE@MKDLPPKK@SetVisibleStartLine@		; `string'
PUBLIC	??_C@_0BE@GEBALPNG@GetVisibleStartLine@		; `string'
PUBLIC	??_C@_0BA@PDIIOOGM@SetEventHandler@		; `string'
PUBLIC	??_C@_0BD@LLNLKLKO@SetInterfaceWindow@		; `string'
PUBLIC	??_C@_0BC@JLIPOMMA@SetLeftTimeString@		; `string'
PUBLIC	??_C@_0BB@EPFOFEDL@QuestButtonClick@		; `string'
PUBLIC	??_C@_05GFHEIIDD@event@				; `string'
PUBLIC	??_C@_0BH@NLEPPNKM@BOX_VISIBLE_LINE_COUNT@	; `string'
PUBLIC	??_C@_0BB@LIHDEJBM@BUTTON_TYPE_NEXT@		; `string'
PUBLIC	??_C@_0BB@NGAMENAL@BUTTON_TYPE_DONE@		; `string'
PUBLIC	??_C@_0BD@BLMCHNOK@BUTTON_TYPE_CANCEL@		; `string'
;	COMDAT ?s_methods@?1??initEvent@@YAXXZ@4PAUPyMethodDef@@A
_DATA	SEGMENT
?s_methods@?1??initEvent@@YAXXZ@4PAUPyMethodDef@@A DD FLAT:??_C@_0BB@CGDFENFO@RegisterEventSet@ ; `initEvent'::`2'::s_methods
	DD	FLAT:?eventRegisterEventSet@@YAPAU_object@@PAU1@0@Z
	DD	01H
	ORG $+4
	DD	FLAT:??_C@_0BL@MCHCNCJD@RegisterEventSetFromString@
	DD	FLAT:?eventRegisterEventSetFromString@@YAPAU_object@@PAU1@0@Z
	DD	01H
	ORG $+4
	DD	FLAT:??_C@_0O@JBCNLALP@ClearEventSet@
	DD	FLAT:?eventClearEventSet@@YAPAU_object@@PAU1@0@Z
	DD	01H
	ORG $+4
	DD	FLAT:??_C@_0BD@EKLFHPIO@SetRestrictedCount@
	DD	FLAT:?eventSetRestrictedCount@@YAPAU_object@@PAU1@0@Z
	DD	01H
	ORG $+4
	DD	FLAT:??_C@_0BK@FKKDIMJI@GetEventSetLocalYPosition@
	DD	FLAT:?eventGetEventSetLocalYPosition@@YAPAU_object@@PAU1@0@Z
	DD	01H
	ORG $+4
	DD	FLAT:??_C@_0BK@LPJNLOBK@AddEventSetLocalYPosition@
	DD	FLAT:?eventAddEventSetLocalYPosition@@YAPAU_object@@PAU1@0@Z
	DD	01H
	ORG $+4
	DD	FLAT:??_C@_0L@JMOIGJIA@InsertText@
	DD	FLAT:?eventInsertText@@YAPAU_object@@PAU1@0@Z
	DD	01H
	ORG $+4
	DD	FLAT:??_C@_0BB@MOBCCMCK@InsertTextInline@
	DD	FLAT:?eventInsertTextInline@@YAPAU_object@@PAU1@0@Z
	DD	01H
	ORG $+4
	DD	FLAT:??_C@_0P@LODKOLED@UpdateEventSet@
	DD	FLAT:?eventUpdateEventSet@@YAPAU_object@@PAU1@0@Z
	DD	01H
	ORG $+4
	DD	FLAT:??_C@_0P@MPNMCGPE@RenderEventSet@
	DD	FLAT:?eventRenderEventSet@@YAPAU_object@@PAU1@0@Z
	DD	01H
	ORG $+4
	DD	FLAT:??_C@_0BB@HGJNLEEA@SetEventSetWidth@
	DD	FLAT:?eventSetEventSetWidth@@YAPAU_object@@PAU1@0@Z
	DD	01H
	ORG $+4
	DD	FLAT:??_C@_04MCHAEEKC@Skip@
	DD	FLAT:?eventSkip@@YAPAU_object@@PAU1@0@Z
	DD	01H
	ORG $+4
	DD	FLAT:??_C@_06DLEKKAKE@IsWait@
	DD	FLAT:?eventIsWait@@YAPAU_object@@PAU1@0@Z
	DD	01H
	ORG $+4
	DD	FLAT:??_C@_0BA@CNECBPF@EndEventProcess@
	DD	FLAT:?eventEndEventProcess@@YAPAU_object@@PAU1@0@Z
	DD	01H
	ORG $+4
	DD	FLAT:??_C@_0N@BPMDBAHI@SelectAnswer@
	DD	FLAT:?eventSelectAnswer@@YAPAU_object@@PAU1@0@Z
	DD	01H
	ORG $+4
	DD	FLAT:??_C@_0N@GBIDIHNF@GetLineCount@
	DD	FLAT:?eventGetLineCount@@YAPAU_object@@PAU1@0@Z
	DD	01H
	ORG $+4
	DD	FLAT:??_C@_0BE@MKDLPPKK@SetVisibleStartLine@
	DD	FLAT:?eventSetVisibleStartLine@@YAPAU_object@@PAU1@0@Z
	DD	01H
	ORG $+4
	DD	FLAT:??_C@_0BE@GEBALPNG@GetVisibleStartLine@
	DD	FLAT:?eventGetVisibleStartLine@@YAPAU_object@@PAU1@0@Z
	DD	01H
	ORG $+4
	DD	FLAT:??_C@_0BA@PDIIOOGM@SetEventHandler@
	DD	FLAT:?eventSetEventHandler@@YAPAU_object@@PAU1@0@Z
	DD	01H
	ORG $+4
	DD	FLAT:??_C@_0BD@LLNLKLKO@SetInterfaceWindow@
	DD	FLAT:?eventSetInterfaceWindow@@YAPAU_object@@PAU1@0@Z
	DD	01H
	ORG $+4
	DD	FLAT:??_C@_0BC@JLIPOMMA@SetLeftTimeString@
	DD	FLAT:?eventSetLeftTimeString@@YAPAU_object@@PAU1@0@Z
	DD	01H
	ORG $+4
	DD	FLAT:??_C@_0BB@EPFOFEDL@QuestButtonClick@
	DD	FLAT:?eventQuestButtonClick@@YAPAU_object@@PAU1@0@Z
	DD	01H
	ORG $+4
	DD	FLAT:??_C@_07BDCAJABG@Destroy@
	DD	FLAT:?eventDestroy@@YAPAU_object@@PAU1@0@Z
	DD	01H
	ORG $+4
	DD	00H
	DD	00H
	DD	00H
	ORG $+4
_DATA	ENDS
;	COMDAT ??_C@_0BD@BLMCHNOK@BUTTON_TYPE_CANCEL@
CONST	SEGMENT
??_C@_0BD@BLMCHNOK@BUTTON_TYPE_CANCEL@ DB 'BUTTON_TYPE_CANCEL', 00H ; `string'
CONST	ENDS
;	COMDAT ??_C@_0BB@NGAMENAL@BUTTON_TYPE_DONE@
CONST	SEGMENT
??_C@_0BB@NGAMENAL@BUTTON_TYPE_DONE@ DB 'BUTTON_TYPE_DONE', 00H ; `string'
CONST	ENDS
;	COMDAT ??_C@_0BB@LIHDEJBM@BUTTON_TYPE_NEXT@
CONST	SEGMENT
??_C@_0BB@LIHDEJBM@BUTTON_TYPE_NEXT@ DB 'BUTTON_TYPE_NEXT', 00H ; `string'
CONST	ENDS
;	COMDAT ??_C@_0BH@NLEPPNKM@BOX_VISIBLE_LINE_COUNT@
CONST	SEGMENT
??_C@_0BH@NLEPPNKM@BOX_VISIBLE_LINE_COUNT@ DB 'BOX_VISIBLE_LINE_COUNT', 00H ; `string'
CONST	ENDS
;	COMDAT ??_C@_05GFHEIIDD@event@
CONST	SEGMENT
??_C@_05GFHEIIDD@event@ DB 'event', 00H			; `string'
CONST	ENDS
;	COMDAT ??_C@_0BB@EPFOFEDL@QuestButtonClick@
CONST	SEGMENT
??_C@_0BB@EPFOFEDL@QuestButtonClick@ DB 'QuestButtonClick', 00H ; `string'
CONST	ENDS
;	COMDAT ??_C@_0BC@JLIPOMMA@SetLeftTimeString@
CONST	SEGMENT
??_C@_0BC@JLIPOMMA@SetLeftTimeString@ DB 'SetLeftTimeString', 00H ; `string'
CONST	ENDS
;	COMDAT ??_C@_0BD@LLNLKLKO@SetInterfaceWindow@
CONST	SEGMENT
??_C@_0BD@LLNLKLKO@SetInterfaceWindow@ DB 'SetInterfaceWindow', 00H ; `string'
CONST	ENDS
;	COMDAT ??_C@_0BA@PDIIOOGM@SetEventHandler@
CONST	SEGMENT
??_C@_0BA@PDIIOOGM@SetEventHandler@ DB 'SetEventHandler', 00H ; `string'
CONST	ENDS
;	COMDAT ??_C@_0BE@GEBALPNG@GetVisibleStartLine@
CONST	SEGMENT
??_C@_0BE@GEBALPNG@GetVisibleStartLine@ DB 'GetVisibleStartLine', 00H ; `string'
CONST	ENDS
;	COMDAT ??_C@_0BE@MKDLPPKK@SetVisibleStartLine@
CONST	SEGMENT
??_C@_0BE@MKDLPPKK@SetVisibleStartLine@ DB 'SetVisibleStartLine', 00H ; `string'
CONST	ENDS
;	COMDAT ??_C@_0N@BPMDBAHI@SelectAnswer@
CONST	SEGMENT
??_C@_0N@BPMDBAHI@SelectAnswer@ DB 'SelectAnswer', 00H	; `string'
CONST	ENDS
;	COMDAT ??_C@_0BA@CNECBPF@EndEventProcess@
CONST	SEGMENT
??_C@_0BA@CNECBPF@EndEventProcess@ DB 'EndEventProcess', 00H ; `string'
CONST	ENDS
;	COMDAT ??_C@_06DLEKKAKE@IsWait@
CONST	SEGMENT
??_C@_06DLEKKAKE@IsWait@ DB 'IsWait', 00H		; `string'
CONST	ENDS
;	COMDAT ??_C@_04MCHAEEKC@Skip@
CONST	SEGMENT
??_C@_04MCHAEEKC@Skip@ DB 'Skip', 00H			; `string'
CONST	ENDS
;	COMDAT ??_C@_0BB@HGJNLEEA@SetEventSetWidth@
CONST	SEGMENT
??_C@_0BB@HGJNLEEA@SetEventSetWidth@ DB 'SetEventSetWidth', 00H ; `string'
CONST	ENDS
;	COMDAT ??_C@_0P@MPNMCGPE@RenderEventSet@
CONST	SEGMENT
??_C@_0P@MPNMCGPE@RenderEventSet@ DB 'RenderEventSet', 00H ; `string'
CONST	ENDS
;	COMDAT ??_C@_0P@LODKOLED@UpdateEventSet@
CONST	SEGMENT
??_C@_0P@LODKOLED@UpdateEventSet@ DB 'UpdateEventSet', 00H ; `string'
CONST	ENDS
;	COMDAT ??_C@_0BB@MOBCCMCK@InsertTextInline@
CONST	SEGMENT
??_C@_0BB@MOBCCMCK@InsertTextInline@ DB 'InsertTextInline', 00H ; `string'
CONST	ENDS
;	COMDAT ??_C@_0L@JMOIGJIA@InsertText@
CONST	SEGMENT
??_C@_0L@JMOIGJIA@InsertText@ DB 'InsertText', 00H	; `string'
CONST	ENDS
;	COMDAT ??_C@_0BK@LPJNLOBK@AddEventSetLocalYPosition@
CONST	SEGMENT
??_C@_0BK@LPJNLOBK@AddEventSetLocalYPosition@ DB 'AddEventSetLocalYPositi'
	DB	'on', 00H					; `string'
CONST	ENDS
;	COMDAT ??_C@_0BK@FKKDIMJI@GetEventSetLocalYPosition@
CONST	SEGMENT
??_C@_0BK@FKKDIMJI@GetEventSetLocalYPosition@ DB 'GetEventSetLocalYPositi'
	DB	'on', 00H					; `string'
CONST	ENDS
;	COMDAT ??_C@_0BD@EKLFHPIO@SetRestrictedCount@
CONST	SEGMENT
??_C@_0BD@EKLFHPIO@SetRestrictedCount@ DB 'SetRestrictedCount', 00H ; `string'
CONST	ENDS
;	COMDAT ??_C@_0O@JBCNLALP@ClearEventSet@
CONST	SEGMENT
??_C@_0O@JBCNLALP@ClearEventSet@ DB 'ClearEventSet', 00H ; `string'
CONST	ENDS
;	COMDAT ??_C@_0BL@MCHCNCJD@RegisterEventSetFromString@
CONST	SEGMENT
??_C@_0BL@MCHCNCJD@RegisterEventSetFromString@ DB 'RegisterEventSetFromSt'
	DB	'ring', 00H					; `string'
CONST	ENDS
;	COMDAT ??_C@_0BB@CGDFENFO@RegisterEventSet@
CONST	SEGMENT
??_C@_0BB@CGDFENFO@RegisterEventSet@ DB 'RegisterEventSet', 00H ; `string'
PUBLIC	?Instance@?$CSingleton@VCPythonEventManager@@@@SAAAVCPythonEventManager@@XZ ; CSingleton<CPythonEventManager>::Instance
PUBLIC	?initEvent@@YAXXZ				; initEvent
PUBLIC	?eventDestroy@@YAPAU_object@@PAU1@0@Z		; eventDestroy
PUBLIC	?eventSetLeftTimeString@@YAPAU_object@@PAU1@0@Z	; eventSetLeftTimeString
PUBLIC	?eventSetInterfaceWindow@@YAPAU_object@@PAU1@0@Z ; eventSetInterfaceWindow
PUBLIC	?eventQuestButtonClick@@YAPAU_object@@PAU1@0@Z	; eventQuestButtonClick
PUBLIC	?eventGetVisibleStartLine@@YAPAU_object@@PAU1@0@Z ; eventGetVisibleStartLine
PUBLIC	?eventSetVisibleStartLine@@YAPAU_object@@PAU1@0@Z ; eventSetVisibleStartLine
PUBLIC	?eventGetLineCount@@YAPAU_object@@PAU1@0@Z	; eventGetLineCount
PUBLIC	?eventSelectAnswer@@YAPAU_object@@PAU1@0@Z	; eventSelectAnswer
PUBLIC	?eventSetEventHandler@@YAPAU_object@@PAU1@0@Z	; eventSetEventHandler
PUBLIC	?eventEndEventProcess@@YAPAU_object@@PAU1@0@Z	; eventEndEventProcess
PUBLIC	?eventIsWait@@YAPAU_object@@PAU1@0@Z		; eventIsWait
PUBLIC	?eventSkip@@YAPAU_object@@PAU1@0@Z		; eventSkip
PUBLIC	?eventSetEventSetWidth@@YAPAU_object@@PAU1@0@Z	; eventSetEventSetWidth
PUBLIC	?eventRenderEventSet@@YAPAU_object@@PAU1@0@Z	; eventRenderEventSet
PUBLIC	?eventUpdateEventSet@@YAPAU_object@@PAU1@0@Z	; eventUpdateEventSet
PUBLIC	?eventInsertTextInline@@YAPAU_object@@PAU1@0@Z	; eventInsertTextInline
PUBLIC	?eventInsertText@@YAPAU_object@@PAU1@0@Z	; eventInsertText
PUBLIC	?eventAddEventSetLocalYPosition@@YAPAU_object@@PAU1@0@Z ; eventAddEventSetLocalYPosition
PUBLIC	?eventGetEventSetLocalYPosition@@YAPAU_object@@PAU1@0@Z ; eventGetEventSetLocalYPosition
PUBLIC	?eventSetRestrictedCount@@YAPAU_object@@PAU1@0@Z ; eventSetRestrictedCount
PUBLIC	?eventClearEventSet@@YAPAU_object@@PAU1@0@Z	; eventClearEventSet
PUBLIC	?eventRegisterEventSetFromString@@YAPAU_object@@PAU1@0@Z ; eventRegisterEventSetFromString
PUBLIC	?eventRegisterEventSet@@YAPAU_object@@PAU1@0@Z	; eventRegisterEventSet
;	COMDAT xdata$x
xdata$x	SEGMENT
__ehfuncinfo$?eventRegisterEventSetFromString@@YAPAU_object@@PAU1@0@Z DD 019930522H
	DD	01H
	DD	FLAT:__unwindtable$?eventRegisterEventSetFromString@@YAPAU_object@@PAU1@0@Z
	DD	2 DUP(00H)
	DD	2 DUP(00H)
	DD	00H
	DD	01H
__unwindtable$?eventRegisterEventSetFromString@@YAPAU_object@@PAU1@0@Z DD 0ffffffffH
	DD	FLAT:__unwindfunclet$?eventRegisterEventSetFromString@@YAPAU_object@@PAU1@0@Z$0
; Function compile flags: /Ogtp
; File D:\_m2work\Server Client TMP4\ClientVS22\source\UserInterface\PythonEventManagerMoudle.cpp
;	COMDAT ?eventRegisterEventSet@@YAPAU_object@@PAU1@0@Z
_TEXT	SEGMENT
_szFileName$ = -4					; size = 4
_poSelf$ = 8						; size = 4
_poArgs$ = 12						; size = 4
?eventRegisterEventSet@@YAPAU_object@@PAU1@0@Z PROC	; eventRegisterEventSet, COMDAT

; 6    : {

  00000	55		 push	 ebp
  00001	8b ec		 mov	 ebp, esp
  00003	51		 push	 ecx

; 7    : 	char * szFileName;
; 8    : 	if (!PyTuple_GetString(poArgs, 0, &szFileName))

  00004	8d 45 fc	 lea	 eax, DWORD PTR _szFileName$[ebp]
  00007	50		 push	 eax
  00008	6a 00		 push	 0
  0000a	ff 75 0c	 push	 DWORD PTR _poArgs$[ebp]
  0000d	e8 00 00 00 00	 call	 ?PyTuple_GetString@@YA_NPAU_object@@HPAPAD@Z ; PyTuple_GetString
  00012	83 c4 0c	 add	 esp, 12			; 0000000cH
  00015	84 c0		 test	 al, al
  00017	75 0e		 jne	 SHORT $LN2@eventRegis

; 9    : 		return Py_BuildException();

  00019	6a 00		 push	 0
  0001b	e8 00 00 00 00	 call	 ?Py_BuildException@@YAPAU_object@@PBDZZ ; Py_BuildException
  00020	83 c4 04	 add	 esp, 4

; 13   : }

  00023	8b e5		 mov	 esp, ebp
  00025	5d		 pop	 ebp
  00026	c3		 ret	 0
$LN2@eventRegis:

; 10   : 
; 11   : 	int iEventIndex = CPythonEventManager::Instance().RegisterEventSet(szFileName);

  00027	ff 75 fc	 push	 DWORD PTR _szFileName$[ebp]
  0002a	8b 0d 00 00 00
	00		 mov	 ecx, DWORD PTR ?ms_singleton@?$CSingleton@VCPythonEventManager@@@@0PAVCPythonEventManager@@A ; CSingleton<CPythonEventManager>::ms_singleton
  00030	e8 00 00 00 00	 call	 ?RegisterEventSet@CPythonEventManager@@QAEHPBD@Z ; CPythonEventManager::RegisterEventSet

; 12   : 	return Py_BuildValue("i", iEventIndex);

  00035	50		 push	 eax
  00036	68 00 00 00 00	 push	 OFFSET ??_C@_01KBJDNOO@i@
  0003b	ff 15 00 00 00
	00		 call	 DWORD PTR __imp__Py_BuildValue
  00041	83 c4 08	 add	 esp, 8

; 13   : }

  00044	8b e5		 mov	 esp, ebp
  00046	5d		 pop	 ebp
  00047	c3		 ret	 0
?eventRegisterEventSet@@YAPAU_object@@PAU1@0@Z ENDP	; eventRegisterEventSet
_TEXT	ENDS
; Function compile flags: /Ogtp
; File D:\_m2work\Server Client TMP4\ClientVS22\source\UserInterface\PythonEventManagerMoudle.cpp
; File C:\Program Files\Microsoft Visual Studio\2022\Community\VC\Tools\MSVC\14.44.35207\include\__msvc_string_view.hpp
; File D:\_m2work\Server Client TMP4\ClientVS22\source\UserInterface\PythonEventManagerMoudle.cpp
; File C:\Program Files\Microsoft Visual Studio\2022\Community\VC\Tools\MSVC\14.44.35207\include\__msvc_string_view.hpp
; File C:\Program Files\Microsoft Visual Studio\2022\Community\VC\Tools\MSVC\14.44.35207\include\xstring
; File C:\Program Files\Microsoft Visual Studio\2022\Community\VC\Tools\MSVC\14.44.35207\include\__msvc_string_view.hpp
; File C:\Program Files\Microsoft Visual Studio\2022\Community\VC\Tools\MSVC\14.44.35207\include\xstring
; File D:\_m2work\Server Client TMP4\ClientVS22\source\UserInterface\PythonEventManagerMoudle.cpp
; File C:\Program Files\Microsoft Visual Studio\2022\Community\VC\Tools\MSVC\14.44.35207\include\xstring
; File D:\_m2work\Server Client TMP4\ClientVS22\source\UserInterface\PythonEventManagerMoudle.cpp
; File C:\Program Files\Microsoft Visual Studio\2022\Community\VC\Tools\MSVC\14.44.35207\include\xstring
; File C:\Program Files\Microsoft Visual Studio\2022\Community\VC\Tools\MSVC\14.44.35207\include\xmemory
; File C:\Program Files\Microsoft Visual Studio\2022\Community\VC\Tools\MSVC\14.44.35207\include\xstring
; File C:\Program Files\Microsoft Visual Studio\2022\Community\VC\Tools\MSVC\14.44.35207\include\xmemory
; File D:\_m2work\Server Client TMP4\ClientVS22\source\UserInterface\PythonEventManagerMoudle.cpp
; File C:\Program Files\Microsoft Visual Studio\2022\Community\VC\Tools\MSVC\14.44.35207\include\xmemory
; File D:\_m2work\Server Client TMP4\ClientVS22\source\UserInterface\PythonEventManagerMoudle.cpp
;	COMDAT ?eventRegisterEventSetFromString@@YAPAU_object@@PAU1@0@Z
_TEXT	SEGMENT
_szEventString$ = -44					; size = 4
$T2 = -40						; size = 24
__$ArrayPad$ = -16					; size = 4
__$EHRec$ = -12						; size = 12
_poSelf$ = 8						; size = 4
_poArgs$ = 12						; size = 4
?eventRegisterEventSetFromString@@YAPAU_object@@PAU1@0@Z PROC ; eventRegisterEventSetFromString, COMDAT

; 16   : {

  00000	55		 push	 ebp
  00001	8b ec		 mov	 ebp, esp
  00003	6a ff		 push	 -1
  00005	68 00 00 00 00	 push	 __ehhandler$?eventRegisterEventSetFromString@@YAPAU_object@@PAU1@0@Z
  0000a	64 a1 00 00 00
	00		 mov	 eax, DWORD PTR fs:0
  00010	50		 push	 eax
  00011	83 ec 20	 sub	 esp, 32			; 00000020H
  00014	a1 00 00 00 00	 mov	 eax, DWORD PTR ___security_cookie
  00019	33 c5		 xor	 eax, ebp
  0001b	89 45 f0	 mov	 DWORD PTR __$ArrayPad$[ebp], eax
  0001e	56		 push	 esi
  0001f	57		 push	 edi
  00020	50		 push	 eax
  00021	8d 45 f4	 lea	 eax, DWORD PTR __$EHRec$[ebp]
  00024	64 a3 00 00 00
	00		 mov	 DWORD PTR fs:0, eax
  0002a	8b 45 0c	 mov	 eax, DWORD PTR _poArgs$[ebp]

; 17   : 	char * szEventString;
; 18   : 	if (!PyTuple_GetString(poArgs, 0, &szEventString))

  0002d	8d 4d d4	 lea	 ecx, DWORD PTR _szEventString$[ebp]
  00030	51		 push	 ecx
  00031	6a 00		 push	 0
  00033	50		 push	 eax
  00034	e8 00 00 00 00	 call	 ?PyTuple_GetString@@YA_NPAU_object@@HPAPAD@Z ; PyTuple_GetString
  00039	83 c4 0c	 add	 esp, 12			; 0000000cH
  0003c	84 c0		 test	 al, al
  0003e	75 0f		 jne	 SHORT $LN2@eventRegis

; 19   : 		return Py_BuildException();

  00040	6a 00		 push	 0
  00042	e8 00 00 00 00	 call	 ?Py_BuildException@@YAPAU_object@@PBDZZ ; Py_BuildException
  00047	83 c4 04	 add	 esp, 4
  0004a	e9 89 00 00 00	 jmp	 $LN1@eventRegis
$LN2@eventRegis:
; File C:\Program Files\Microsoft Visual Studio\2022\Community\VC\Tools\MSVC\14.44.35207\include\__msvc_string_view.hpp

; 456  :             return __builtin_strlen(_First);

  0004f	8b 75 d4	 mov	 esi, DWORD PTR _szEventString$[ebp]
  00052	0f 57 c0	 xorps	 xmm0, xmm0
; File D:\_m2work\Server Client TMP4\ClientVS22\source\UserInterface\PythonEventManagerMoudle.cpp

; 21   : 	int iEventIndex = CPythonEventManager::Instance().RegisterEventSetFromString(szEventString);

  00055	8b 3d 00 00 00
	00		 mov	 edi, DWORD PTR ?ms_singleton@?$CSingleton@VCPythonEventManager@@@@0PAVCPythonEventManager@@A ; CSingleton<CPythonEventManager>::ms_singleton
; File C:\Program Files\Microsoft Visual Studio\2022\Community\VC\Tools\MSVC\14.44.35207\include\__msvc_string_view.hpp

; 456  :             return __builtin_strlen(_First);

  0005b	8b d6		 mov	 edx, esi
; File C:\Program Files\Microsoft Visual Studio\2022\Community\VC\Tools\MSVC\14.44.35207\include\xstring

; 493  :         _CONSTEXPR20 _Bxty() noexcept : _Buf() {} // user-provided, for fancy pointers

  0005d	0f 11 45 d8	 movups	 XMMWORD PTR $T2[ebp], xmm0

; 517  :     size_type _Mysize = 0; // current length of string (size)

  00061	c7 45 e8 00 00
	00 00		 mov	 DWORD PTR $T2[ebp+16], 0

; 518  :     size_type _Myres  = 0; // current storage reserved for string (capacity)

  00068	c7 45 ec 00 00
	00 00		 mov	 DWORD PTR $T2[ebp+20], 0
; File C:\Program Files\Microsoft Visual Studio\2022\Community\VC\Tools\MSVC\14.44.35207\include\__msvc_string_view.hpp

; 456  :             return __builtin_strlen(_First);

  0006f	8d 4a 01	 lea	 ecx, DWORD PTR [edx+1]
$LL56@eventRegis:
  00072	8a 02		 mov	 al, BYTE PTR [edx]
  00074	42		 inc	 edx
  00075	84 c0		 test	 al, al
  00077	75 f9		 jne	 SHORT $LL56@eventRegis
  00079	2b d1		 sub	 edx, ecx
; File C:\Program Files\Microsoft Visual Studio\2022\Community\VC\Tools\MSVC\14.44.35207\include\xstring

; 769  :         _Construct<_Construct_strategy::_From_ptr>(_Ptr, _Convert_size<size_type>(_Traits::length(_Ptr)));

  0007b	8d 4d d8	 lea	 ecx, DWORD PTR $T2[ebp]
  0007e	52		 push	 edx
  0007f	56		 push	 esi
  00080	e8 00 00 00 00	 call	 ??$_Construct@$00PBD@?$basic_string@DU?$char_traits@D@std@@V?$allocator@D@2@@std@@AAEXQBDI@Z ; std::basic_string<char,std::char_traits<char>,std::allocator<char> >::_Construct<1,char const *>
; File D:\_m2work\Server Client TMP4\ClientVS22\source\UserInterface\PythonEventManagerMoudle.cpp

; 21   : 	int iEventIndex = CPythonEventManager::Instance().RegisterEventSetFromString(szEventString);

  00085	8d 45 d8	 lea	 eax, DWORD PTR $T2[ebp]
  00088	c7 45 fc 00 00
	00 00		 mov	 DWORD PTR __$EHRec$[ebp+8], 0
  0008f	50		 push	 eax
  00090	8b cf		 mov	 ecx, edi
  00092	e8 00 00 00 00	 call	 ?RegisterEventSetFromString@CPythonEventManager@@QAEHABV?$basic_string@DU?$char_traits@D@std@@V?$allocator@D@2@@std@@@Z ; CPythonEventManager::RegisterEventSetFromString
; File C:\Program Files\Microsoft Visual Studio\2022\Community\VC\Tools\MSVC\14.44.35207\include\xstring

; 453  :         return _Myres > _Small_string_capacity;

  00097	8b 4d ec	 mov	 ecx, DWORD PTR $T2[ebp+20]
; File D:\_m2work\Server Client TMP4\ClientVS22\source\UserInterface\PythonEventManagerMoudle.cpp

; 21   : 	int iEventIndex = CPythonEventManager::Instance().RegisterEventSetFromString(szEventString);

  0009a	8b f0		 mov	 esi, eax
; File C:\Program Files\Microsoft Visual Studio\2022\Community\VC\Tools\MSVC\14.44.35207\include\xstring

; 453  :         return _Myres > _Small_string_capacity;

  0009c	83 f9 0f	 cmp	 ecx, 15			; 0000000fH

; 3083 :         if (_My_data._Large_mode_engaged()) {

  0009f	76 28		 jbe	 SHORT $LN41@eventRegis
; File C:\Program Files\Microsoft Visual Studio\2022\Community\VC\Tools\MSVC\14.44.35207\include\xmemory

; 985  :         _STD _Deallocate<_New_alignof<_Ty>>(_Ptr, sizeof(_Ty) * _Count);

  000a1	8b 55 d8	 mov	 edx, DWORD PTR $T2[ebp]
; File C:\Program Files\Microsoft Visual Studio\2022\Community\VC\Tools\MSVC\14.44.35207\include\xstring

; 852  :         _Al.deallocate(_Old_ptr, _Capacity + 1); // +1 for null terminator

  000a4	41		 inc	 ecx
; File C:\Program Files\Microsoft Visual Studio\2022\Community\VC\Tools\MSVC\14.44.35207\include\xmemory

; 985  :         _STD _Deallocate<_New_alignof<_Ty>>(_Ptr, sizeof(_Ty) * _Count);

  000a5	8b c2		 mov	 eax, edx

; 284  :         if (_Bytes >= _Big_allocation_threshold) {

  000a7	81 f9 00 10 00
	00		 cmp	 ecx, 4096		; 00001000H
  000ad	72 10		 jb	 SHORT $LN49@eventRegis

; 205  :     const uintptr_t _Ptr_container   = _Ptr_user[-1];

  000af	8b 50 fc	 mov	 edx, DWORD PTR [eax-4]
  000b2	83 c1 23	 add	 ecx, 35			; 00000023H
  000b5	2b c2		 sub	 eax, edx

; 219  :     _STL_VERIFY(_Back_shift >= _Min_back_shift && _Back_shift <= _Non_user_size, "invalid argument");

  000b7	83 c0 fc	 add	 eax, -4			; fffffffcH
  000ba	83 f8 1f	 cmp	 eax, 31			; 0000001fH
  000bd	77 34		 ja	 SHORT $LN60@eventRegis
$LN49@eventRegis:

; 289  :         ::operator delete(_Ptr, _Bytes);

  000bf	51		 push	 ecx
  000c0	52		 push	 edx
  000c1	e8 00 00 00 00	 call	 ??3@YAXPAXI@Z		; operator delete
  000c6	83 c4 08	 add	 esp, 8
$LN41@eventRegis:
; File D:\_m2work\Server Client TMP4\ClientVS22\source\UserInterface\PythonEventManagerMoudle.cpp

; 22   : 	return Py_BuildValue("i", iEventIndex);

  000c9	56		 push	 esi
  000ca	68 00 00 00 00	 push	 OFFSET ??_C@_01KBJDNOO@i@
  000cf	ff 15 00 00 00
	00		 call	 DWORD PTR __imp__Py_BuildValue
  000d5	83 c4 08	 add	 esp, 8
$LN1@eventRegis:

; 23   : }

  000d8	8b 4d f4	 mov	 ecx, DWORD PTR __$EHRec$[ebp]
  000db	64 89 0d 00 00
	00 00		 mov	 DWORD PTR fs:0, ecx
  000e2	59		 pop	 ecx
  000e3	5f		 pop	 edi
  000e4	5e		 pop	 esi
  000e5	8b 4d f0	 mov	 ecx, DWORD PTR __$ArrayPad$[ebp]
  000e8	33 cd		 xor	 ecx, ebp
  000ea	e8 00 00 00 00	 call	 @__security_check_cookie@4
  000ef	8b e5		 mov	 esp, ebp
  000f1	5d		 pop	 ebp
  000f2	c3		 ret	 0
$LN60@eventRegis:
; File C:\Program Files\Microsoft Visual Studio\2022\Community\VC\Tools\MSVC\14.44.35207\include\xmemory

; 219  :     _STL_VERIFY(_Back_shift >= _Min_back_shift && _Back_shift <= _Non_user_size, "invalid argument");

  000f3	6a 00		 push	 0
  000f5	6a 00		 push	 0
  000f7	6a 00		 push	 0
  000f9	6a 00		 push	 0
  000fb	6a 00		 push	 0
  000fd	e8 00 00 00 00	 call	 __invoke_watson
$LN58@eventRegis:
  00102	cc		 int	 3
_TEXT	ENDS
;	COMDAT text$x
text$x	SEGMENT
__unwindfunclet$?eventRegisterEventSetFromString@@YAPAU_object@@PAU1@0@Z$0:
  00000	8d 4d d8	 lea	 ecx, DWORD PTR $T2[ebp]
  00003	e9 00 00 00 00	 jmp	 ??1?$basic_string@DU?$char_traits@D@std@@V?$allocator@D@2@@std@@QAE@XZ ; std::basic_string<char,std::char_traits<char>,std::allocator<char> >::~basic_string<char,std::char_traits<char>,std::allocator<char> >
  00008	cc		 int	 3
  00009	cc		 int	 3
  0000a	cc		 int	 3
  0000b	cc		 int	 3
  0000c	cc		 int	 3
__ehhandler$?eventRegisterEventSetFromString@@YAPAU_object@@PAU1@0@Z:
  0000d	90		 npad	 1
  0000e	90		 npad	 1
  0000f	8b 54 24 08	 mov	 edx, DWORD PTR [esp+8]
  00013	8d 42 0c	 lea	 eax, DWORD PTR [edx+12]
  00016	8b 4a d4	 mov	 ecx, DWORD PTR [edx-44]
  00019	33 c8		 xor	 ecx, eax
  0001b	e8 00 00 00 00	 call	 @__security_check_cookie@4
  00020	8b 4a fc	 mov	 ecx, DWORD PTR [edx-4]
  00023	33 c8		 xor	 ecx, eax
  00025	e8 00 00 00 00	 call	 @__security_check_cookie@4
  0002a	b8 00 00 00 00	 mov	 eax, OFFSET __ehfuncinfo$?eventRegisterEventSetFromString@@YAPAU_object@@PAU1@0@Z
  0002f	e9 00 00 00 00	 jmp	 ___CxxFrameHandler3
text$x	ENDS
?eventRegisterEventSetFromString@@YAPAU_object@@PAU1@0@Z ENDP ; eventRegisterEventSetFromString
; Function compile flags: /Ogtp
; File D:\_m2work\Server Client TMP4\ClientVS22\source\UserInterface\PythonEventManagerMoudle.cpp
;	COMDAT ?eventClearEventSet@@YAPAU_object@@PAU1@0@Z
_TEXT	SEGMENT
_iIndex$ = -4						; size = 4
_poSelf$ = 8						; size = 4
_poArgs$ = 12						; size = 4
?eventClearEventSet@@YAPAU_object@@PAU1@0@Z PROC	; eventClearEventSet, COMDAT

; 26   : {

  00000	55		 push	 ebp
  00001	8b ec		 mov	 ebp, esp
  00003	51		 push	 ecx

; 27   : 	int iIndex;
; 28   : 	if (!PyTuple_GetInteger(poArgs, 0, &iIndex))

  00004	8d 45 fc	 lea	 eax, DWORD PTR _iIndex$[ebp]
  00007	50		 push	 eax
  00008	6a 00		 push	 0
  0000a	ff 75 0c	 push	 DWORD PTR _poArgs$[ebp]
  0000d	e8 00 00 00 00	 call	 ?PyTuple_GetInteger@@YA_NPAU_object@@HPAH@Z ; PyTuple_GetInteger
  00012	83 c4 0c	 add	 esp, 12			; 0000000cH
  00015	84 c0		 test	 al, al
  00017	75 0e		 jne	 SHORT $LN2@eventClear

; 29   : 		return Py_BuildException();

  00019	6a 00		 push	 0
  0001b	e8 00 00 00 00	 call	 ?Py_BuildException@@YAPAU_object@@PBDZZ ; Py_BuildException
  00020	83 c4 04	 add	 esp, 4

; 33   : }

  00023	8b e5		 mov	 esp, ebp
  00025	5d		 pop	 ebp
  00026	c3		 ret	 0
$LN2@eventClear:

; 30   : 
; 31   : 	CPythonEventManager::Instance().ClearEventSeti(iIndex);

  00027	ff 75 fc	 push	 DWORD PTR _iIndex$[ebp]
  0002a	8b 0d 00 00 00
	00		 mov	 ecx, DWORD PTR ?ms_singleton@?$CSingleton@VCPythonEventManager@@@@0PAVCPythonEventManager@@A ; CSingleton<CPythonEventManager>::ms_singleton
  00030	e8 00 00 00 00	 call	 ?ClearEventSeti@CPythonEventManager@@QAEXH@Z ; CPythonEventManager::ClearEventSeti

; 32   : 	return Py_BuildNone();

  00035	e8 00 00 00 00	 call	 ?Py_BuildNone@@YAPAU_object@@XZ ; Py_BuildNone

; 33   : }

  0003a	8b e5		 mov	 esp, ebp
  0003c	5d		 pop	 ebp
  0003d	c3		 ret	 0
?eventClearEventSet@@YAPAU_object@@PAU1@0@Z ENDP	; eventClearEventSet
_TEXT	ENDS
; Function compile flags: /Ogtp
; File D:\_m2work\Server Client TMP4\ClientVS22\source\UserInterface\PythonEventManagerMoudle.cpp
;	COMDAT ?eventSetRestrictedCount@@YAPAU_object@@PAU1@0@Z
_TEXT	SEGMENT
_iIndex$ = -8						; size = 4
_iCount$ = -4						; size = 4
_poSelf$ = 8						; size = 4
_poArgs$ = 12						; size = 4
?eventSetRestrictedCount@@YAPAU_object@@PAU1@0@Z PROC	; eventSetRestrictedCount, COMDAT

; 36   : {

  00000	55		 push	 ebp
  00001	8b ec		 mov	 ebp, esp
  00003	83 ec 08	 sub	 esp, 8

; 37   : 	int iIndex;
; 38   : 	if (!PyTuple_GetInteger(poArgs, 0, &iIndex))

  00006	8d 45 f8	 lea	 eax, DWORD PTR _iIndex$[ebp]
  00009	50		 push	 eax
  0000a	6a 00		 push	 0
  0000c	ff 75 0c	 push	 DWORD PTR _poArgs$[ebp]
  0000f	e8 00 00 00 00	 call	 ?PyTuple_GetInteger@@YA_NPAU_object@@HPAH@Z ; PyTuple_GetInteger
  00014	83 c4 0c	 add	 esp, 12			; 0000000cH
  00017	84 c0		 test	 al, al
  00019	75 0e		 jne	 SHORT $LN2@eventSetRe
$LN5@eventSetRe:

; 47   : }

  0001b	6a 00		 push	 0
  0001d	e8 00 00 00 00	 call	 ?Py_BuildException@@YAPAU_object@@PBDZZ ; Py_BuildException
  00022	83 c4 04	 add	 esp, 4
  00025	8b e5		 mov	 esp, ebp
  00027	5d		 pop	 ebp
  00028	c3		 ret	 0
$LN2@eventSetRe:

; 39   : 		return Py_BuildException();
; 40   : 
; 41   : 	int iCount;
; 42   : 	if (!PyTuple_GetInteger(poArgs, 1, &iCount))

  00029	8d 45 fc	 lea	 eax, DWORD PTR _iCount$[ebp]
  0002c	50		 push	 eax
  0002d	6a 01		 push	 1
  0002f	ff 75 0c	 push	 DWORD PTR _poArgs$[ebp]
  00032	e8 00 00 00 00	 call	 ?PyTuple_GetInteger@@YA_NPAU_object@@HPAH@Z ; PyTuple_GetInteger
  00037	83 c4 0c	 add	 esp, 12			; 0000000cH
  0003a	84 c0		 test	 al, al
  0003c	74 dd		 je	 SHORT $LN5@eventSetRe

; 43   : 		return Py_BuildException();
; 44   : 
; 45   : 	CPythonEventManager::Instance().SetRestrictedCount(iIndex, iCount);

  0003e	ff 75 fc	 push	 DWORD PTR _iCount$[ebp]
  00041	8b 0d 00 00 00
	00		 mov	 ecx, DWORD PTR ?ms_singleton@?$CSingleton@VCPythonEventManager@@@@0PAVCPythonEventManager@@A ; CSingleton<CPythonEventManager>::ms_singleton
  00047	ff 75 f8	 push	 DWORD PTR _iIndex$[ebp]
  0004a	e8 00 00 00 00	 call	 ?SetRestrictedCount@CPythonEventManager@@QAEXHH@Z ; CPythonEventManager::SetRestrictedCount

; 46   : 	return Py_BuildNone();

  0004f	e8 00 00 00 00	 call	 ?Py_BuildNone@@YAPAU_object@@XZ ; Py_BuildNone

; 47   : }

  00054	8b e5		 mov	 esp, ebp
  00056	5d		 pop	 ebp
  00057	c3		 ret	 0
?eventSetRestrictedCount@@YAPAU_object@@PAU1@0@Z ENDP	; eventSetRestrictedCount
_TEXT	ENDS
; Function compile flags: /Ogtp
; File D:\_m2work\Server Client TMP4\ClientVS22\source\UserInterface\PythonEventManagerMoudle.cpp
;	COMDAT ?eventGetEventSetLocalYPosition@@YAPAU_object@@PAU1@0@Z
_TEXT	SEGMENT
_iIndex$ = -4						; size = 4
_poSelf$ = 8						; size = 4
_poArgs$ = 12						; size = 4
?eventGetEventSetLocalYPosition@@YAPAU_object@@PAU1@0@Z PROC ; eventGetEventSetLocalYPosition, COMDAT

; 50   : {

  00000	55		 push	 ebp
  00001	8b ec		 mov	 ebp, esp
  00003	51		 push	 ecx

; 51   : 	int iIndex;
; 52   : 	if (!PyTuple_GetInteger(poArgs, 0, &iIndex))

  00004	8d 45 fc	 lea	 eax, DWORD PTR _iIndex$[ebp]
  00007	50		 push	 eax
  00008	6a 00		 push	 0
  0000a	ff 75 0c	 push	 DWORD PTR _poArgs$[ebp]
  0000d	e8 00 00 00 00	 call	 ?PyTuple_GetInteger@@YA_NPAU_object@@HPAH@Z ; PyTuple_GetInteger
  00012	83 c4 0c	 add	 esp, 12			; 0000000cH
  00015	84 c0		 test	 al, al
  00017	75 0e		 jne	 SHORT $LN2@eventGetEv

; 53   : 		return Py_BuildException();

  00019	6a 00		 push	 0
  0001b	e8 00 00 00 00	 call	 ?Py_BuildException@@YAPAU_object@@PBDZZ ; Py_BuildException
  00020	83 c4 04	 add	 esp, 4

; 56   : }

  00023	8b e5		 mov	 esp, ebp
  00025	5d		 pop	 ebp
  00026	c3		 ret	 0
$LN2@eventGetEv:

; 54   : 
; 55   : 	return Py_BuildValue("i", CPythonEventManager::Instance().GetEventSetLocalYPosition(iIndex));

  00027	ff 75 fc	 push	 DWORD PTR _iIndex$[ebp]
  0002a	8b 0d 00 00 00
	00		 mov	 ecx, DWORD PTR ?ms_singleton@?$CSingleton@VCPythonEventManager@@@@0PAVCPythonEventManager@@A ; CSingleton<CPythonEventManager>::ms_singleton
  00030	e8 00 00 00 00	 call	 ?GetEventSetLocalYPosition@CPythonEventManager@@QAEHH@Z ; CPythonEventManager::GetEventSetLocalYPosition
  00035	50		 push	 eax
  00036	68 00 00 00 00	 push	 OFFSET ??_C@_01KBJDNOO@i@
  0003b	ff 15 00 00 00
	00		 call	 DWORD PTR __imp__Py_BuildValue
  00041	83 c4 08	 add	 esp, 8

; 56   : }

  00044	8b e5		 mov	 esp, ebp
  00046	5d		 pop	 ebp
  00047	c3		 ret	 0
?eventGetEventSetLocalYPosition@@YAPAU_object@@PAU1@0@Z ENDP ; eventGetEventSetLocalYPosition
_TEXT	ENDS
; Function compile flags: /Ogtp
; File D:\_m2work\Server Client TMP4\ClientVS22\source\UserInterface\PythonEventManagerMoudle.cpp
;	COMDAT ?eventAddEventSetLocalYPosition@@YAPAU_object@@PAU1@0@Z
_TEXT	SEGMENT
_iIndex$ = -8						; size = 4
_iPos$ = -4						; size = 4
_poSelf$ = 8						; size = 4
_poArgs$ = 12						; size = 4
?eventAddEventSetLocalYPosition@@YAPAU_object@@PAU1@0@Z PROC ; eventAddEventSetLocalYPosition, COMDAT

; 59   : {

  00000	55		 push	 ebp
  00001	8b ec		 mov	 ebp, esp
  00003	83 ec 08	 sub	 esp, 8

; 60   : 	int iIndex;
; 61   : 	if (!PyTuple_GetInteger(poArgs, 0, &iIndex))

  00006	8d 45 f8	 lea	 eax, DWORD PTR _iIndex$[ebp]
  00009	50		 push	 eax
  0000a	6a 00		 push	 0
  0000c	ff 75 0c	 push	 DWORD PTR _poArgs$[ebp]
  0000f	e8 00 00 00 00	 call	 ?PyTuple_GetInteger@@YA_NPAU_object@@HPAH@Z ; PyTuple_GetInteger
  00014	83 c4 0c	 add	 esp, 12			; 0000000cH
  00017	84 c0		 test	 al, al
  00019	75 0e		 jne	 SHORT $LN2@eventAddEv
$LN5@eventAddEv:

; 69   : }

  0001b	6a 00		 push	 0
  0001d	e8 00 00 00 00	 call	 ?Py_BuildException@@YAPAU_object@@PBDZZ ; Py_BuildException
  00022	83 c4 04	 add	 esp, 4
  00025	8b e5		 mov	 esp, ebp
  00027	5d		 pop	 ebp
  00028	c3		 ret	 0
$LN2@eventAddEv:

; 62   : 		return Py_BuildException();
; 63   : 	int iPos;
; 64   : 	if (!PyTuple_GetInteger(poArgs, 1, &iPos))

  00029	8d 45 fc	 lea	 eax, DWORD PTR _iPos$[ebp]
  0002c	50		 push	 eax
  0002d	6a 01		 push	 1
  0002f	ff 75 0c	 push	 DWORD PTR _poArgs$[ebp]
  00032	e8 00 00 00 00	 call	 ?PyTuple_GetInteger@@YA_NPAU_object@@HPAH@Z ; PyTuple_GetInteger
  00037	83 c4 0c	 add	 esp, 12			; 0000000cH
  0003a	84 c0		 test	 al, al
  0003c	74 dd		 je	 SHORT $LN5@eventAddEv

; 65   : 		return Py_BuildException();
; 66   : 
; 67   : 	CPythonEventManager::Instance().AddEventSetLocalYPosition(iIndex, iPos);

  0003e	ff 75 fc	 push	 DWORD PTR _iPos$[ebp]
  00041	8b 0d 00 00 00
	00		 mov	 ecx, DWORD PTR ?ms_singleton@?$CSingleton@VCPythonEventManager@@@@0PAVCPythonEventManager@@A ; CSingleton<CPythonEventManager>::ms_singleton
  00047	ff 75 f8	 push	 DWORD PTR _iIndex$[ebp]
  0004a	e8 00 00 00 00	 call	 ?AddEventSetLocalYPosition@CPythonEventManager@@QAEXHH@Z ; CPythonEventManager::AddEventSetLocalYPosition

; 68   : 	return Py_BuildNone();

  0004f	e8 00 00 00 00	 call	 ?Py_BuildNone@@YAPAU_object@@XZ ; Py_BuildNone

; 69   : }

  00054	8b e5		 mov	 esp, ebp
  00056	5d		 pop	 ebp
  00057	c3		 ret	 0
?eventAddEventSetLocalYPosition@@YAPAU_object@@PAU1@0@Z ENDP ; eventAddEventSetLocalYPosition
_TEXT	ENDS
; Function compile flags: /Ogtp
; File D:\_m2work\Server Client TMP4\ClientVS22\source\UserInterface\PythonEventManagerMoudle.cpp
;	COMDAT ?eventInsertText@@YAPAU_object@@PAU1@0@Z
_TEXT	SEGMENT
_iIndex$ = -8						; size = 4
_szText$ = -4						; size = 4
_poSelf$ = 8						; size = 4
_poArgs$ = 12						; size = 4
?eventInsertText@@YAPAU_object@@PAU1@0@Z PROC		; eventInsertText, COMDAT

; 72   : {

  00000	55		 push	 ebp
  00001	8b ec		 mov	 ebp, esp
  00003	83 ec 08	 sub	 esp, 8

; 73   : 	int iIndex;
; 74   : 	if (!PyTuple_GetInteger(poArgs, 0, &iIndex))

  00006	8d 45 f8	 lea	 eax, DWORD PTR _iIndex$[ebp]
  00009	50		 push	 eax
  0000a	6a 00		 push	 0
  0000c	ff 75 0c	 push	 DWORD PTR _poArgs$[ebp]
  0000f	e8 00 00 00 00	 call	 ?PyTuple_GetInteger@@YA_NPAU_object@@HPAH@Z ; PyTuple_GetInteger
  00014	83 c4 0c	 add	 esp, 12			; 0000000cH
  00017	84 c0		 test	 al, al
  00019	75 0e		 jne	 SHORT $LN2@eventInser

; 75   : 		return Py_BuildException();

  0001b	6a 00		 push	 0
$LN5@eventInser:

; 82   : }

  0001d	e8 00 00 00 00	 call	 ?Py_BuildException@@YAPAU_object@@PBDZZ ; Py_BuildException
  00022	83 c4 04	 add	 esp, 4
  00025	8b e5		 mov	 esp, ebp
  00027	5d		 pop	 ebp
  00028	c3		 ret	 0
$LN2@eventInser:

; 76   : 	char * szText;
; 77   : 	if (!PyTuple_GetString(poArgs, 1, &szText))

  00029	8d 45 fc	 lea	 eax, DWORD PTR _szText$[ebp]
  0002c	50		 push	 eax
  0002d	6a 01		 push	 1
  0002f	ff 75 0c	 push	 DWORD PTR _poArgs$[ebp]
  00032	e8 00 00 00 00	 call	 ?PyTuple_GetString@@YA_NPAU_object@@HPAPAD@Z ; PyTuple_GetString
  00037	83 c4 0c	 add	 esp, 12			; 0000000cH
  0003a	6a 00		 push	 0
  0003c	84 c0		 test	 al, al
  0003e	74 dd		 je	 SHORT $LN5@eventInser

; 78   : 		return Py_BuildException();
; 79   : 
; 80   : 	CPythonEventManager::Instance().InsertText(iIndex, szText);

  00040	ff 75 fc	 push	 DWORD PTR _szText$[ebp]
  00043	8b 0d 00 00 00
	00		 mov	 ecx, DWORD PTR ?ms_singleton@?$CSingleton@VCPythonEventManager@@@@0PAVCPythonEventManager@@A ; CSingleton<CPythonEventManager>::ms_singleton
  00049	ff 75 f8	 push	 DWORD PTR _iIndex$[ebp]
  0004c	e8 00 00 00 00	 call	 ?InsertText@CPythonEventManager@@QAEXHPBDH@Z ; CPythonEventManager::InsertText

; 81   : 	return Py_BuildNone();

  00051	e8 00 00 00 00	 call	 ?Py_BuildNone@@YAPAU_object@@XZ ; Py_BuildNone

; 82   : }

  00056	8b e5		 mov	 esp, ebp
  00058	5d		 pop	 ebp
  00059	c3		 ret	 0
?eventInsertText@@YAPAU_object@@PAU1@0@Z ENDP		; eventInsertText
_TEXT	ENDS
; Function compile flags: /Ogtp
; File D:\_m2work\Server Client TMP4\ClientVS22\source\UserInterface\PythonEventManagerMoudle.cpp
;	COMDAT ?eventInsertTextInline@@YAPAU_object@@PAU1@0@Z
_TEXT	SEGMENT
_iIndex$ = -12						; size = 4
_szText$ = -8						; size = 4
_iXIndex$ = -4						; size = 4
_poSelf$ = 8						; size = 4
_poArgs$ = 12						; size = 4
?eventInsertTextInline@@YAPAU_object@@PAU1@0@Z PROC	; eventInsertTextInline, COMDAT

; 85   : {

  00000	55		 push	 ebp
  00001	8b ec		 mov	 ebp, esp
  00003	83 ec 0c	 sub	 esp, 12			; 0000000cH

; 86   : 	int iIndex;
; 87   : 	if (!PyTuple_GetInteger(poArgs, 0, &iIndex))

  00006	8d 45 f4	 lea	 eax, DWORD PTR _iIndex$[ebp]
  00009	56		 push	 esi
  0000a	8b 75 0c	 mov	 esi, DWORD PTR _poArgs$[ebp]
  0000d	50		 push	 eax
  0000e	6a 00		 push	 0
  00010	56		 push	 esi
  00011	e8 00 00 00 00	 call	 ?PyTuple_GetInteger@@YA_NPAU_object@@HPAH@Z ; PyTuple_GetInteger
  00016	83 c4 0c	 add	 esp, 12			; 0000000cH
  00019	84 c0		 test	 al, al
  0001b	75 0f		 jne	 SHORT $LN2@eventInser
$LN9@eventInser:

; 98   : }

  0001d	6a 00		 push	 0
  0001f	e8 00 00 00 00	 call	 ?Py_BuildException@@YAPAU_object@@PBDZZ ; Py_BuildException
  00024	83 c4 04	 add	 esp, 4
  00027	5e		 pop	 esi
  00028	8b e5		 mov	 esp, ebp
  0002a	5d		 pop	 ebp
  0002b	c3		 ret	 0
$LN2@eventInser:

; 88   : 		return Py_BuildException();
; 89   : 	char * szText;
; 90   : 	if (!PyTuple_GetString(poArgs, 1, &szText))

  0002c	8d 45 f8	 lea	 eax, DWORD PTR _szText$[ebp]
  0002f	50		 push	 eax
  00030	6a 01		 push	 1
  00032	56		 push	 esi
  00033	e8 00 00 00 00	 call	 ?PyTuple_GetString@@YA_NPAU_object@@HPAPAD@Z ; PyTuple_GetString
  00038	83 c4 0c	 add	 esp, 12			; 0000000cH
  0003b	84 c0		 test	 al, al
  0003d	74 de		 je	 SHORT $LN9@eventInser

; 91   : 		return Py_BuildException();
; 92   : 	int iXIndex;
; 93   : 	if (!PyTuple_GetInteger(poArgs, 2, &iXIndex))

  0003f	8d 45 fc	 lea	 eax, DWORD PTR _iXIndex$[ebp]
  00042	50		 push	 eax
  00043	6a 02		 push	 2
  00045	56		 push	 esi
  00046	e8 00 00 00 00	 call	 ?PyTuple_GetInteger@@YA_NPAU_object@@HPAH@Z ; PyTuple_GetInteger
  0004b	83 c4 0c	 add	 esp, 12			; 0000000cH
  0004e	84 c0		 test	 al, al
  00050	74 cb		 je	 SHORT $LN9@eventInser

; 94   : 		return Py_BuildException();
; 95   : 
; 96   : 	CPythonEventManager::Instance().InsertText(iIndex, szText,iXIndex);

  00052	ff 75 fc	 push	 DWORD PTR _iXIndex$[ebp]
  00055	8b 0d 00 00 00
	00		 mov	 ecx, DWORD PTR ?ms_singleton@?$CSingleton@VCPythonEventManager@@@@0PAVCPythonEventManager@@A ; CSingleton<CPythonEventManager>::ms_singleton
  0005b	ff 75 f8	 push	 DWORD PTR _szText$[ebp]
  0005e	ff 75 f4	 push	 DWORD PTR _iIndex$[ebp]
  00061	e8 00 00 00 00	 call	 ?InsertText@CPythonEventManager@@QAEXHPBDH@Z ; CPythonEventManager::InsertText

; 97   : 	return Py_BuildNone();

  00066	e8 00 00 00 00	 call	 ?Py_BuildNone@@YAPAU_object@@XZ ; Py_BuildNone
  0006b	5e		 pop	 esi

; 98   : }

  0006c	8b e5		 mov	 esp, ebp
  0006e	5d		 pop	 ebp
  0006f	c3		 ret	 0
?eventInsertTextInline@@YAPAU_object@@PAU1@0@Z ENDP	; eventInsertTextInline
_TEXT	ENDS
; Function compile flags: /Ogtp
; File D:\_m2work\Server Client TMP4\ClientVS22\source\UserInterface\PythonEventManagerMoudle.cpp
;	COMDAT ?eventUpdateEventSet@@YAPAU_object@@PAU1@0@Z
_TEXT	SEGMENT
_iIndex$ = -12						; size = 4
_ix$ = -8						; size = 4
_iy$ = -4						; size = 4
_poSelf$ = 8						; size = 4
_poArgs$ = 12						; size = 4
?eventUpdateEventSet@@YAPAU_object@@PAU1@0@Z PROC	; eventUpdateEventSet, COMDAT

; 101  : {

  00000	55		 push	 ebp
  00001	8b ec		 mov	 ebp, esp
  00003	83 ec 0c	 sub	 esp, 12			; 0000000cH

; 102  : 	int iIndex;
; 103  : 	if (!PyTuple_GetInteger(poArgs, 0, &iIndex))

  00006	8d 45 f4	 lea	 eax, DWORD PTR _iIndex$[ebp]
  00009	56		 push	 esi
  0000a	8b 75 0c	 mov	 esi, DWORD PTR _poArgs$[ebp]
  0000d	50		 push	 eax
  0000e	6a 00		 push	 0
  00010	56		 push	 esi
  00011	e8 00 00 00 00	 call	 ?PyTuple_GetInteger@@YA_NPAU_object@@HPAH@Z ; PyTuple_GetInteger
  00016	83 c4 0c	 add	 esp, 12			; 0000000cH
  00019	84 c0		 test	 al, al
  0001b	75 0f		 jne	 SHORT $LN2@eventUpdat
$LN9@eventUpdat:

; 116  : }

  0001d	6a 00		 push	 0
  0001f	e8 00 00 00 00	 call	 ?Py_BuildException@@YAPAU_object@@PBDZZ ; Py_BuildException
  00024	83 c4 04	 add	 esp, 4
  00027	5e		 pop	 esi
  00028	8b e5		 mov	 esp, ebp
  0002a	5d		 pop	 ebp
  0002b	c3		 ret	 0
$LN2@eventUpdat:

; 104  : 		return Py_BuildException();
; 105  : 
; 106  : 	int ix;
; 107  : 	if (!PyTuple_GetInteger(poArgs, 1, &ix))

  0002c	8d 45 f8	 lea	 eax, DWORD PTR _ix$[ebp]
  0002f	50		 push	 eax
  00030	6a 01		 push	 1
  00032	56		 push	 esi
  00033	e8 00 00 00 00	 call	 ?PyTuple_GetInteger@@YA_NPAU_object@@HPAH@Z ; PyTuple_GetInteger
  00038	83 c4 0c	 add	 esp, 12			; 0000000cH
  0003b	84 c0		 test	 al, al
  0003d	74 de		 je	 SHORT $LN9@eventUpdat

; 108  : 		return Py_BuildException();
; 109  : 
; 110  : 	int iy;
; 111  : 	if (!PyTuple_GetInteger(poArgs, 2, &iy))

  0003f	8d 45 fc	 lea	 eax, DWORD PTR _iy$[ebp]
  00042	50		 push	 eax
  00043	6a 02		 push	 2
  00045	56		 push	 esi
  00046	e8 00 00 00 00	 call	 ?PyTuple_GetInteger@@YA_NPAU_object@@HPAH@Z ; PyTuple_GetInteger
  0004b	83 c4 0c	 add	 esp, 12			; 0000000cH
  0004e	84 c0		 test	 al, al
  00050	74 cb		 je	 SHORT $LN9@eventUpdat

; 112  : 		return Py_BuildException();
; 113  : 
; 114  : 	CPythonEventManager::Instance().UpdateEventSet(iIndex, ix, -iy);

  00052	8b 45 fc	 mov	 eax, DWORD PTR _iy$[ebp]
  00055	8b 0d 00 00 00
	00		 mov	 ecx, DWORD PTR ?ms_singleton@?$CSingleton@VCPythonEventManager@@@@0PAVCPythonEventManager@@A ; CSingleton<CPythonEventManager>::ms_singleton
  0005b	f7 d8		 neg	 eax
  0005d	50		 push	 eax
  0005e	ff 75 f8	 push	 DWORD PTR _ix$[ebp]
  00061	ff 75 f4	 push	 DWORD PTR _iIndex$[ebp]
  00064	e8 00 00 00 00	 call	 ?UpdateEventSet@CPythonEventManager@@QAEXHHH@Z ; CPythonEventManager::UpdateEventSet

; 115  : 	return Py_BuildNone();

  00069	e8 00 00 00 00	 call	 ?Py_BuildNone@@YAPAU_object@@XZ ; Py_BuildNone
  0006e	5e		 pop	 esi

; 116  : }

  0006f	8b e5		 mov	 esp, ebp
  00071	5d		 pop	 ebp
  00072	c3		 ret	 0
?eventUpdateEventSet@@YAPAU_object@@PAU1@0@Z ENDP	; eventUpdateEventSet
_TEXT	ENDS
; Function compile flags: /Ogtp
; File D:\_m2work\Server Client TMP4\ClientVS22\source\UserInterface\PythonEventManagerMoudle.cpp
;	COMDAT ?eventRenderEventSet@@YAPAU_object@@PAU1@0@Z
_TEXT	SEGMENT
_iIndex$ = -4						; size = 4
_poSelf$ = 8						; size = 4
_poArgs$ = 12						; size = 4
?eventRenderEventSet@@YAPAU_object@@PAU1@0@Z PROC	; eventRenderEventSet, COMDAT

; 119  : {

  00000	55		 push	 ebp
  00001	8b ec		 mov	 ebp, esp
  00003	51		 push	 ecx

; 120  : 	int iIndex;
; 121  : 	if (!PyTuple_GetInteger(poArgs, 0, &iIndex))

  00004	8d 45 fc	 lea	 eax, DWORD PTR _iIndex$[ebp]
  00007	50		 push	 eax
  00008	6a 00		 push	 0
  0000a	ff 75 0c	 push	 DWORD PTR _poArgs$[ebp]
  0000d	e8 00 00 00 00	 call	 ?PyTuple_GetInteger@@YA_NPAU_object@@HPAH@Z ; PyTuple_GetInteger
  00012	83 c4 0c	 add	 esp, 12			; 0000000cH
  00015	84 c0		 test	 al, al
  00017	75 0e		 jne	 SHORT $LN2@eventRende

; 122  : 		return Py_BuildException();

  00019	6a 00		 push	 0
  0001b	e8 00 00 00 00	 call	 ?Py_BuildException@@YAPAU_object@@PBDZZ ; Py_BuildException
  00020	83 c4 04	 add	 esp, 4

; 126  : }

  00023	8b e5		 mov	 esp, ebp
  00025	5d		 pop	 ebp
  00026	c3		 ret	 0
$LN2@eventRende:

; 123  : 
; 124  : 	CPythonEventManager::Instance().RenderEventSet(iIndex);

  00027	ff 75 fc	 push	 DWORD PTR _iIndex$[ebp]
  0002a	8b 0d 00 00 00
	00		 mov	 ecx, DWORD PTR ?ms_singleton@?$CSingleton@VCPythonEventManager@@@@0PAVCPythonEventManager@@A ; CSingleton<CPythonEventManager>::ms_singleton
  00030	e8 00 00 00 00	 call	 ?RenderEventSet@CPythonEventManager@@QAEXH@Z ; CPythonEventManager::RenderEventSet

; 125  : 	return Py_BuildNone();

  00035	e8 00 00 00 00	 call	 ?Py_BuildNone@@YAPAU_object@@XZ ; Py_BuildNone

; 126  : }

  0003a	8b e5		 mov	 esp, ebp
  0003c	5d		 pop	 ebp
  0003d	c3		 ret	 0
?eventRenderEventSet@@YAPAU_object@@PAU1@0@Z ENDP	; eventRenderEventSet
_TEXT	ENDS
; Function compile flags: /Ogtp
; File D:\_m2work\Server Client TMP4\ClientVS22\source\UserInterface\PythonEventManagerMoudle.cpp
;	COMDAT ?eventSetEventSetWidth@@YAPAU_object@@PAU1@0@Z
_TEXT	SEGMENT
_iIndex$ = -8						; size = 4
_iWidth$ = -4						; size = 4
_poSelf$ = 8						; size = 4
_poArgs$ = 12						; size = 4
?eventSetEventSetWidth@@YAPAU_object@@PAU1@0@Z PROC	; eventSetEventSetWidth, COMDAT

; 129  : {

  00000	55		 push	 ebp
  00001	8b ec		 mov	 ebp, esp
  00003	83 ec 08	 sub	 esp, 8

; 130  : 	int iIndex;
; 131  : 	if (!PyTuple_GetInteger(poArgs, 0, &iIndex))

  00006	8d 45 f8	 lea	 eax, DWORD PTR _iIndex$[ebp]
  00009	50		 push	 eax
  0000a	6a 00		 push	 0
  0000c	ff 75 0c	 push	 DWORD PTR _poArgs$[ebp]
  0000f	e8 00 00 00 00	 call	 ?PyTuple_GetInteger@@YA_NPAU_object@@HPAH@Z ; PyTuple_GetInteger
  00014	83 c4 0c	 add	 esp, 12			; 0000000cH
  00017	84 c0		 test	 al, al
  00019	75 0e		 jne	 SHORT $LN2@eventSetEv
$LN5@eventSetEv:

; 139  : }

  0001b	6a 00		 push	 0
  0001d	e8 00 00 00 00	 call	 ?Py_BuildException@@YAPAU_object@@PBDZZ ; Py_BuildException
  00022	83 c4 04	 add	 esp, 4
  00025	8b e5		 mov	 esp, ebp
  00027	5d		 pop	 ebp
  00028	c3		 ret	 0
$LN2@eventSetEv:

; 132  : 		return Py_BuildException();
; 133  : 	int iWidth;
; 134  : 	if (!PyTuple_GetInteger(poArgs, 1, &iWidth))

  00029	8d 45 fc	 lea	 eax, DWORD PTR _iWidth$[ebp]
  0002c	50		 push	 eax
  0002d	6a 01		 push	 1
  0002f	ff 75 0c	 push	 DWORD PTR _poArgs$[ebp]
  00032	e8 00 00 00 00	 call	 ?PyTuple_GetInteger@@YA_NPAU_object@@HPAH@Z ; PyTuple_GetInteger
  00037	83 c4 0c	 add	 esp, 12			; 0000000cH
  0003a	84 c0		 test	 al, al
  0003c	74 dd		 je	 SHORT $LN5@eventSetEv

; 135  : 		return Py_BuildException();
; 136  : 
; 137  : 	CPythonEventManager::Instance().SetEventSetWidth(iIndex, iWidth);

  0003e	ff 75 fc	 push	 DWORD PTR _iWidth$[ebp]
  00041	8b 0d 00 00 00
	00		 mov	 ecx, DWORD PTR ?ms_singleton@?$CSingleton@VCPythonEventManager@@@@0PAVCPythonEventManager@@A ; CSingleton<CPythonEventManager>::ms_singleton
  00047	ff 75 f8	 push	 DWORD PTR _iIndex$[ebp]
  0004a	e8 00 00 00 00	 call	 ?SetEventSetWidth@CPythonEventManager@@QAEXHH@Z ; CPythonEventManager::SetEventSetWidth

; 138  : 	return Py_BuildNone();

  0004f	e8 00 00 00 00	 call	 ?Py_BuildNone@@YAPAU_object@@XZ ; Py_BuildNone

; 139  : }

  00054	8b e5		 mov	 esp, ebp
  00056	5d		 pop	 ebp
  00057	c3		 ret	 0
?eventSetEventSetWidth@@YAPAU_object@@PAU1@0@Z ENDP	; eventSetEventSetWidth
_TEXT	ENDS
; Function compile flags: /Ogtp
; File D:\_m2work\Server Client TMP4\ClientVS22\source\UserInterface\PythonEventManagerMoudle.cpp
;	COMDAT ?eventSkip@@YAPAU_object@@PAU1@0@Z
_TEXT	SEGMENT
_iIndex$ = -4						; size = 4
_poSelf$ = 8						; size = 4
_poArgs$ = 12						; size = 4
?eventSkip@@YAPAU_object@@PAU1@0@Z PROC			; eventSkip, COMDAT

; 142  : {

  00000	55		 push	 ebp
  00001	8b ec		 mov	 ebp, esp
  00003	51		 push	 ecx

; 143  : 	int iIndex;
; 144  : 	if (!PyTuple_GetInteger(poArgs, 0, &iIndex))

  00004	8d 45 fc	 lea	 eax, DWORD PTR _iIndex$[ebp]
  00007	50		 push	 eax
  00008	6a 00		 push	 0
  0000a	ff 75 0c	 push	 DWORD PTR _poArgs$[ebp]
  0000d	e8 00 00 00 00	 call	 ?PyTuple_GetInteger@@YA_NPAU_object@@HPAH@Z ; PyTuple_GetInteger
  00012	83 c4 0c	 add	 esp, 12			; 0000000cH
  00015	84 c0		 test	 al, al
  00017	75 0e		 jne	 SHORT $LN2@eventSkip

; 145  : 		return Py_BuildException();

  00019	6a 00		 push	 0
  0001b	e8 00 00 00 00	 call	 ?Py_BuildException@@YAPAU_object@@PBDZZ ; Py_BuildException
  00020	83 c4 04	 add	 esp, 4

; 149  : }

  00023	8b e5		 mov	 esp, ebp
  00025	5d		 pop	 ebp
  00026	c3		 ret	 0
$LN2@eventSkip:

; 146  : 
; 147  : 	CPythonEventManager::Instance().Skip(iIndex);

  00027	ff 75 fc	 push	 DWORD PTR _iIndex$[ebp]
  0002a	8b 0d 00 00 00
	00		 mov	 ecx, DWORD PTR ?ms_singleton@?$CSingleton@VCPythonEventManager@@@@0PAVCPythonEventManager@@A ; CSingleton<CPythonEventManager>::ms_singleton
  00030	e8 00 00 00 00	 call	 ?Skip@CPythonEventManager@@QAEXH@Z ; CPythonEventManager::Skip

; 148  : 	return Py_BuildNone();

  00035	e8 00 00 00 00	 call	 ?Py_BuildNone@@YAPAU_object@@XZ ; Py_BuildNone

; 149  : }

  0003a	8b e5		 mov	 esp, ebp
  0003c	5d		 pop	 ebp
  0003d	c3		 ret	 0
?eventSkip@@YAPAU_object@@PAU1@0@Z ENDP			; eventSkip
_TEXT	ENDS
; Function compile flags: /Ogtp
; File D:\_m2work\Server Client TMP4\ClientVS22\source\UserInterface\PythonEventManagerMoudle.cpp
;	COMDAT ?eventIsWait@@YAPAU_object@@PAU1@0@Z
_TEXT	SEGMENT
_iIndex$ = -4						; size = 4
_poSelf$ = 8						; size = 4
_poArgs$ = 12						; size = 4
?eventIsWait@@YAPAU_object@@PAU1@0@Z PROC		; eventIsWait, COMDAT

; 152  : {

  00000	55		 push	 ebp
  00001	8b ec		 mov	 ebp, esp
  00003	51		 push	 ecx

; 153  : 	int iIndex;
; 154  : 	if (!PyTuple_GetInteger(poArgs, 0, &iIndex))

  00004	8d 45 fc	 lea	 eax, DWORD PTR _iIndex$[ebp]
  00007	50		 push	 eax
  00008	6a 00		 push	 0
  0000a	ff 75 0c	 push	 DWORD PTR _poArgs$[ebp]
  0000d	e8 00 00 00 00	 call	 ?PyTuple_GetInteger@@YA_NPAU_object@@HPAH@Z ; PyTuple_GetInteger
  00012	83 c4 0c	 add	 esp, 12			; 0000000cH
  00015	84 c0		 test	 al, al
  00017	75 0e		 jne	 SHORT $LN2@eventIsWai

; 155  : 		return Py_BuildException();

  00019	6a 00		 push	 0
  0001b	e8 00 00 00 00	 call	 ?Py_BuildException@@YAPAU_object@@PBDZZ ; Py_BuildException
  00020	83 c4 04	 add	 esp, 4

; 158  : }

  00023	8b e5		 mov	 esp, ebp
  00025	5d		 pop	 ebp
  00026	c3		 ret	 0
$LN2@eventIsWai:

; 156  : 
; 157  : 	return Py_BuildValue("i", CPythonEventManager::Instance().IsWait(iIndex) == true ? 1 : 0);

  00027	ff 75 fc	 push	 DWORD PTR _iIndex$[ebp]
  0002a	8b 0d 00 00 00
	00		 mov	 ecx, DWORD PTR ?ms_singleton@?$CSingleton@VCPythonEventManager@@@@0PAVCPythonEventManager@@A ; CSingleton<CPythonEventManager>::ms_singleton
  00030	e8 00 00 00 00	 call	 ?IsWait@CPythonEventManager@@QAE_NH@Z ; CPythonEventManager::IsWait
  00035	0f b6 c0	 movzx	 eax, al
  00038	50		 push	 eax
  00039	68 00 00 00 00	 push	 OFFSET ??_C@_01KBJDNOO@i@
  0003e	ff 15 00 00 00
	00		 call	 DWORD PTR __imp__Py_BuildValue
  00044	83 c4 08	 add	 esp, 8

; 158  : }

  00047	8b e5		 mov	 esp, ebp
  00049	5d		 pop	 ebp
  0004a	c3		 ret	 0
?eventIsWait@@YAPAU_object@@PAU1@0@Z ENDP		; eventIsWait
_TEXT	ENDS
; Function compile flags: /Ogtp
; File D:\_m2work\Server Client TMP4\ClientVS22\source\UserInterface\PythonEventManagerMoudle.cpp
;	COMDAT ?eventEndEventProcess@@YAPAU_object@@PAU1@0@Z
_TEXT	SEGMENT
_iIndex$ = -4						; size = 4
_poSelf$ = 8						; size = 4
_poArgs$ = 12						; size = 4
?eventEndEventProcess@@YAPAU_object@@PAU1@0@Z PROC	; eventEndEventProcess, COMDAT

; 161  : {

  00000	55		 push	 ebp
  00001	8b ec		 mov	 ebp, esp
  00003	51		 push	 ecx

; 162  : 	int iIndex;
; 163  : 	if (!PyTuple_GetInteger(poArgs, 0, &iIndex))

  00004	8d 45 fc	 lea	 eax, DWORD PTR _iIndex$[ebp]
  00007	50		 push	 eax
  00008	6a 00		 push	 0
  0000a	ff 75 0c	 push	 DWORD PTR _poArgs$[ebp]
  0000d	e8 00 00 00 00	 call	 ?PyTuple_GetInteger@@YA_NPAU_object@@HPAH@Z ; PyTuple_GetInteger
  00012	83 c4 0c	 add	 esp, 12			; 0000000cH
  00015	84 c0		 test	 al, al
  00017	75 0e		 jne	 SHORT $LN2@eventEndEv

; 164  : 		return Py_BuildException();

  00019	6a 00		 push	 0
  0001b	e8 00 00 00 00	 call	 ?Py_BuildException@@YAPAU_object@@PBDZZ ; Py_BuildException
  00020	83 c4 04	 add	 esp, 4

; 169  : }

  00023	8b e5		 mov	 esp, ebp
  00025	5d		 pop	 ebp
  00026	c3		 ret	 0
$LN2@eventEndEv:

; 165  : 
; 166  : 	CPythonEventManager::Instance().EndEventProcess(iIndex);

  00027	ff 75 fc	 push	 DWORD PTR _iIndex$[ebp]
  0002a	8b 0d 00 00 00
	00		 mov	 ecx, DWORD PTR ?ms_singleton@?$CSingleton@VCPythonEventManager@@@@0PAVCPythonEventManager@@A ; CSingleton<CPythonEventManager>::ms_singleton
  00030	e8 00 00 00 00	 call	 ?EndEventProcess@CPythonEventManager@@QAEXH@Z ; CPythonEventManager::EndEventProcess

; 167  : 
; 168  : 	return Py_BuildNone();

  00035	e8 00 00 00 00	 call	 ?Py_BuildNone@@YAPAU_object@@XZ ; Py_BuildNone

; 169  : }

  0003a	8b e5		 mov	 esp, ebp
  0003c	5d		 pop	 ebp
  0003d	c3		 ret	 0
?eventEndEventProcess@@YAPAU_object@@PAU1@0@Z ENDP	; eventEndEventProcess
_TEXT	ENDS
; Function compile flags: /Ogtp
; File D:\_m2work\Server Client TMP4\ClientVS22\source\UserInterface\PythonEventManagerMoudle.cpp
;	COMDAT ?eventSetEventHandler@@YAPAU_object@@PAU1@0@Z
_TEXT	SEGMENT
_iIndex$ = -8						; size = 4
_poEventHandler$ = -4					; size = 4
_poSelf$ = 8						; size = 4
_poArgs$ = 12						; size = 4
?eventSetEventHandler@@YAPAU_object@@PAU1@0@Z PROC	; eventSetEventHandler, COMDAT

; 172  : {

  00000	55		 push	 ebp
  00001	8b ec		 mov	 ebp, esp
  00003	83 ec 08	 sub	 esp, 8

; 173  : 	int iIndex;
; 174  : 	if (!PyTuple_GetInteger(poArgs, 0, &iIndex))

  00006	8d 45 f8	 lea	 eax, DWORD PTR _iIndex$[ebp]
  00009	50		 push	 eax
  0000a	6a 00		 push	 0
  0000c	ff 75 0c	 push	 DWORD PTR _poArgs$[ebp]
  0000f	e8 00 00 00 00	 call	 ?PyTuple_GetInteger@@YA_NPAU_object@@HPAH@Z ; PyTuple_GetInteger
  00014	83 c4 0c	 add	 esp, 12			; 0000000cH
  00017	84 c0		 test	 al, al
  00019	75 0e		 jne	 SHORT $LN2@eventSetEv
$LN5@eventSetEv:

; 183  : }

  0001b	6a 00		 push	 0
  0001d	e8 00 00 00 00	 call	 ?Py_BuildException@@YAPAU_object@@PBDZZ ; Py_BuildException
  00022	83 c4 04	 add	 esp, 4
  00025	8b e5		 mov	 esp, ebp
  00027	5d		 pop	 ebp
  00028	c3		 ret	 0
$LN2@eventSetEv:

; 175  : 		return Py_BuildException();
; 176  : 
; 177  : 	PyObject * poEventHandler;
; 178  : 	if (!PyTuple_GetObject(poArgs, 1, &poEventHandler))

  00029	8d 45 fc	 lea	 eax, DWORD PTR _poEventHandler$[ebp]
  0002c	50		 push	 eax
  0002d	6a 01		 push	 1
  0002f	ff 75 0c	 push	 DWORD PTR _poArgs$[ebp]
  00032	e8 00 00 00 00	 call	 ?PyTuple_GetObject@@YA_NPAU_object@@HPAPAU1@@Z ; PyTuple_GetObject
  00037	83 c4 0c	 add	 esp, 12			; 0000000cH
  0003a	84 c0		 test	 al, al
  0003c	74 dd		 je	 SHORT $LN5@eventSetEv

; 179  : 		return Py_BuildException();
; 180  : 
; 181  : 	CPythonEventManager::Instance().SetEventHandler(iIndex, poEventHandler);

  0003e	ff 75 fc	 push	 DWORD PTR _poEventHandler$[ebp]
  00041	8b 0d 00 00 00
	00		 mov	 ecx, DWORD PTR ?ms_singleton@?$CSingleton@VCPythonEventManager@@@@0PAVCPythonEventManager@@A ; CSingleton<CPythonEventManager>::ms_singleton
  00047	ff 75 f8	 push	 DWORD PTR _iIndex$[ebp]
  0004a	e8 00 00 00 00	 call	 ?SetEventHandler@CPythonEventManager@@QAEXHPAU_object@@@Z ; CPythonEventManager::SetEventHandler

; 182  : 	return Py_BuildNone();

  0004f	e8 00 00 00 00	 call	 ?Py_BuildNone@@YAPAU_object@@XZ ; Py_BuildNone

; 183  : }

  00054	8b e5		 mov	 esp, ebp
  00056	5d		 pop	 ebp
  00057	c3		 ret	 0
?eventSetEventHandler@@YAPAU_object@@PAU1@0@Z ENDP	; eventSetEventHandler
_TEXT	ENDS
; Function compile flags: /Ogtp
; File D:\_m2work\Server Client TMP4\ClientVS22\source\UserInterface\PythonEventManagerMoudle.cpp
;	COMDAT ?eventSelectAnswer@@YAPAU_object@@PAU1@0@Z
_TEXT	SEGMENT
_iIndex$ = -8						; size = 4
_iAnswer$ = -4						; size = 4
_poSelf$ = 8						; size = 4
_poArgs$ = 12						; size = 4
?eventSelectAnswer@@YAPAU_object@@PAU1@0@Z PROC		; eventSelectAnswer, COMDAT

; 186  : {

  00000	55		 push	 ebp
  00001	8b ec		 mov	 ebp, esp
  00003	83 ec 08	 sub	 esp, 8

; 187  : 	int iIndex;
; 188  : 	if (!PyTuple_GetInteger(poArgs, 0, &iIndex))

  00006	8d 45 f8	 lea	 eax, DWORD PTR _iIndex$[ebp]
  00009	50		 push	 eax
  0000a	6a 00		 push	 0
  0000c	ff 75 0c	 push	 DWORD PTR _poArgs$[ebp]
  0000f	e8 00 00 00 00	 call	 ?PyTuple_GetInteger@@YA_NPAU_object@@HPAH@Z ; PyTuple_GetInteger
  00014	83 c4 0c	 add	 esp, 12			; 0000000cH
  00017	84 c0		 test	 al, al
  00019	75 0e		 jne	 SHORT $LN2@eventSelec
$LN5@eventSelec:

; 197  : }

  0001b	6a 00		 push	 0
  0001d	e8 00 00 00 00	 call	 ?Py_BuildException@@YAPAU_object@@PBDZZ ; Py_BuildException
  00022	83 c4 04	 add	 esp, 4
  00025	8b e5		 mov	 esp, ebp
  00027	5d		 pop	 ebp
  00028	c3		 ret	 0
$LN2@eventSelec:

; 189  : 		return Py_BuildException();
; 190  : 
; 191  : 	int iAnswer;
; 192  : 	if (!PyTuple_GetInteger(poArgs, 1, &iAnswer))

  00029	8d 45 fc	 lea	 eax, DWORD PTR _iAnswer$[ebp]
  0002c	50		 push	 eax
  0002d	6a 01		 push	 1
  0002f	ff 75 0c	 push	 DWORD PTR _poArgs$[ebp]
  00032	e8 00 00 00 00	 call	 ?PyTuple_GetInteger@@YA_NPAU_object@@HPAH@Z ; PyTuple_GetInteger
  00037	83 c4 0c	 add	 esp, 12			; 0000000cH
  0003a	84 c0		 test	 al, al
  0003c	74 dd		 je	 SHORT $LN5@eventSelec

; 193  : 		return Py_BuildException();
; 194  : 
; 195  : 	CPythonEventManager::Instance().SelectAnswer(iIndex, iAnswer);

  0003e	ff 75 fc	 push	 DWORD PTR _iAnswer$[ebp]
  00041	8b 0d 00 00 00
	00		 mov	 ecx, DWORD PTR ?ms_singleton@?$CSingleton@VCPythonEventManager@@@@0PAVCPythonEventManager@@A ; CSingleton<CPythonEventManager>::ms_singleton
  00047	ff 75 f8	 push	 DWORD PTR _iIndex$[ebp]
  0004a	e8 00 00 00 00	 call	 ?SelectAnswer@CPythonEventManager@@QAEXHH@Z ; CPythonEventManager::SelectAnswer

; 196  : 	return Py_BuildNone();

  0004f	e8 00 00 00 00	 call	 ?Py_BuildNone@@YAPAU_object@@XZ ; Py_BuildNone

; 197  : }

  00054	8b e5		 mov	 esp, ebp
  00056	5d		 pop	 ebp
  00057	c3		 ret	 0
?eventSelectAnswer@@YAPAU_object@@PAU1@0@Z ENDP		; eventSelectAnswer
_TEXT	ENDS
; Function compile flags: /Ogtp
; File D:\_m2work\Server Client TMP4\ClientVS22\source\UserInterface\PythonEventManagerMoudle.cpp
;	COMDAT ?eventGetLineCount@@YAPAU_object@@PAU1@0@Z
_TEXT	SEGMENT
_iIndex$ = -4						; size = 4
_poSelf$ = 8						; size = 4
_poArgs$ = 12						; size = 4
?eventGetLineCount@@YAPAU_object@@PAU1@0@Z PROC		; eventGetLineCount, COMDAT

; 200  : {

  00000	55		 push	 ebp
  00001	8b ec		 mov	 ebp, esp
  00003	51		 push	 ecx

; 201  : 	int iIndex;
; 202  : 	if (!PyTuple_GetInteger(poArgs, 0, &iIndex))

  00004	8d 45 fc	 lea	 eax, DWORD PTR _iIndex$[ebp]
  00007	50		 push	 eax
  00008	6a 00		 push	 0
  0000a	ff 75 0c	 push	 DWORD PTR _poArgs$[ebp]
  0000d	e8 00 00 00 00	 call	 ?PyTuple_GetInteger@@YA_NPAU_object@@HPAH@Z ; PyTuple_GetInteger
  00012	83 c4 0c	 add	 esp, 12			; 0000000cH
  00015	84 c0		 test	 al, al
  00017	75 0e		 jne	 SHORT $LN2@eventGetLi

; 203  : 		return Py_BuildException();

  00019	6a 00		 push	 0
  0001b	e8 00 00 00 00	 call	 ?Py_BuildException@@YAPAU_object@@PBDZZ ; Py_BuildException
  00020	83 c4 04	 add	 esp, 4

; 207  : }

  00023	8b e5		 mov	 esp, ebp
  00025	5d		 pop	 ebp
  00026	c3		 ret	 0
$LN2@eventGetLi:

; 204  : 
; 205  : 	int iLineCount = CPythonEventManager::Instance().GetLineCount(iIndex);

  00027	ff 75 fc	 push	 DWORD PTR _iIndex$[ebp]
  0002a	8b 0d 00 00 00
	00		 mov	 ecx, DWORD PTR ?ms_singleton@?$CSingleton@VCPythonEventManager@@@@0PAVCPythonEventManager@@A ; CSingleton<CPythonEventManager>::ms_singleton
  00030	e8 00 00 00 00	 call	 ?GetLineCount@CPythonEventManager@@QAEHH@Z ; CPythonEventManager::GetLineCount

; 206  : 	return Py_BuildValue("i", iLineCount);

  00035	50		 push	 eax
  00036	68 00 00 00 00	 push	 OFFSET ??_C@_01KBJDNOO@i@
  0003b	ff 15 00 00 00
	00		 call	 DWORD PTR __imp__Py_BuildValue
  00041	83 c4 08	 add	 esp, 8

; 207  : }

  00044	8b e5		 mov	 esp, ebp
  00046	5d		 pop	 ebp
  00047	c3		 ret	 0
?eventGetLineCount@@YAPAU_object@@PAU1@0@Z ENDP		; eventGetLineCount
_TEXT	ENDS
; Function compile flags: /Ogtp
; File D:\_m2work\Server Client TMP4\ClientVS22\source\UserInterface\PythonEventManagerMoudle.cpp
;	COMDAT ?eventSetVisibleStartLine@@YAPAU_object@@PAU1@0@Z
_TEXT	SEGMENT
_iIndex$ = -8						; size = 4
_iStartLine$ = -4					; size = 4
_poSelf$ = 8						; size = 4
_poArgs$ = 12						; size = 4
?eventSetVisibleStartLine@@YAPAU_object@@PAU1@0@Z PROC	; eventSetVisibleStartLine, COMDAT

; 210  : {

  00000	55		 push	 ebp
  00001	8b ec		 mov	 ebp, esp
  00003	83 ec 08	 sub	 esp, 8

; 211  : 	int iIndex;
; 212  : 	if (!PyTuple_GetInteger(poArgs, 0, &iIndex))

  00006	8d 45 f8	 lea	 eax, DWORD PTR _iIndex$[ebp]
  00009	50		 push	 eax
  0000a	6a 00		 push	 0
  0000c	ff 75 0c	 push	 DWORD PTR _poArgs$[ebp]
  0000f	e8 00 00 00 00	 call	 ?PyTuple_GetInteger@@YA_NPAU_object@@HPAH@Z ; PyTuple_GetInteger
  00014	83 c4 0c	 add	 esp, 12			; 0000000cH
  00017	84 c0		 test	 al, al
  00019	75 0e		 jne	 SHORT $LN2@eventSetVi
$LN5@eventSetVi:

; 221  : }

  0001b	6a 00		 push	 0
  0001d	e8 00 00 00 00	 call	 ?Py_BuildException@@YAPAU_object@@PBDZZ ; Py_BuildException
  00022	83 c4 04	 add	 esp, 4
  00025	8b e5		 mov	 esp, ebp
  00027	5d		 pop	 ebp
  00028	c3		 ret	 0
$LN2@eventSetVi:

; 213  : 		return Py_BuildException();
; 214  : 
; 215  : 	int iStartLine;
; 216  : 	if (!PyTuple_GetInteger(poArgs, 1, &iStartLine))

  00029	8d 45 fc	 lea	 eax, DWORD PTR _iStartLine$[ebp]
  0002c	50		 push	 eax
  0002d	6a 01		 push	 1
  0002f	ff 75 0c	 push	 DWORD PTR _poArgs$[ebp]
  00032	e8 00 00 00 00	 call	 ?PyTuple_GetInteger@@YA_NPAU_object@@HPAH@Z ; PyTuple_GetInteger
  00037	83 c4 0c	 add	 esp, 12			; 0000000cH
  0003a	84 c0		 test	 al, al
  0003c	74 dd		 je	 SHORT $LN5@eventSetVi

; 217  : 		return Py_BuildException();
; 218  : 
; 219  : 	CPythonEventManager::Instance().SetVisibleStartLine(iIndex, iStartLine);

  0003e	ff 75 fc	 push	 DWORD PTR _iStartLine$[ebp]
  00041	8b 0d 00 00 00
	00		 mov	 ecx, DWORD PTR ?ms_singleton@?$CSingleton@VCPythonEventManager@@@@0PAVCPythonEventManager@@A ; CSingleton<CPythonEventManager>::ms_singleton
  00047	ff 75 f8	 push	 DWORD PTR _iIndex$[ebp]
  0004a	e8 00 00 00 00	 call	 ?SetVisibleStartLine@CPythonEventManager@@QAEXHH@Z ; CPythonEventManager::SetVisibleStartLine

; 220  : 	return Py_BuildNone();

  0004f	e8 00 00 00 00	 call	 ?Py_BuildNone@@YAPAU_object@@XZ ; Py_BuildNone

; 221  : }

  00054	8b e5		 mov	 esp, ebp
  00056	5d		 pop	 ebp
  00057	c3		 ret	 0
?eventSetVisibleStartLine@@YAPAU_object@@PAU1@0@Z ENDP	; eventSetVisibleStartLine
_TEXT	ENDS
; Function compile flags: /Ogtp
; File D:\_m2work\Server Client TMP4\ClientVS22\source\UserInterface\PythonEventManagerMoudle.cpp
;	COMDAT ?eventGetVisibleStartLine@@YAPAU_object@@PAU1@0@Z
_TEXT	SEGMENT
_iIndex$ = -4						; size = 4
_poSelf$ = 8						; size = 4
_poArgs$ = 12						; size = 4
?eventGetVisibleStartLine@@YAPAU_object@@PAU1@0@Z PROC	; eventGetVisibleStartLine, COMDAT

; 224  : {

  00000	55		 push	 ebp
  00001	8b ec		 mov	 ebp, esp
  00003	51		 push	 ecx

; 225  : 	int iIndex;
; 226  : 	if (!PyTuple_GetInteger(poArgs, 0, &iIndex))

  00004	8d 45 fc	 lea	 eax, DWORD PTR _iIndex$[ebp]
  00007	50		 push	 eax
  00008	6a 00		 push	 0
  0000a	ff 75 0c	 push	 DWORD PTR _poArgs$[ebp]
  0000d	e8 00 00 00 00	 call	 ?PyTuple_GetInteger@@YA_NPAU_object@@HPAH@Z ; PyTuple_GetInteger
  00012	83 c4 0c	 add	 esp, 12			; 0000000cH
  00015	84 c0		 test	 al, al
  00017	75 0e		 jne	 SHORT $LN2@eventGetVi

; 227  : 		return Py_BuildException();

  00019	6a 00		 push	 0
  0001b	e8 00 00 00 00	 call	 ?Py_BuildException@@YAPAU_object@@PBDZZ ; Py_BuildException
  00020	83 c4 04	 add	 esp, 4

; 230  : }

  00023	8b e5		 mov	 esp, ebp
  00025	5d		 pop	 ebp
  00026	c3		 ret	 0
$LN2@eventGetVi:

; 228  : 
; 229  : 	return Py_BuildValue("i", CPythonEventManager::Instance().GetVisibleStartLine(iIndex));

  00027	ff 75 fc	 push	 DWORD PTR _iIndex$[ebp]
  0002a	8b 0d 00 00 00
	00		 mov	 ecx, DWORD PTR ?ms_singleton@?$CSingleton@VCPythonEventManager@@@@0PAVCPythonEventManager@@A ; CSingleton<CPythonEventManager>::ms_singleton
  00030	e8 00 00 00 00	 call	 ?GetVisibleStartLine@CPythonEventManager@@QAEHH@Z ; CPythonEventManager::GetVisibleStartLine
  00035	50		 push	 eax
  00036	68 00 00 00 00	 push	 OFFSET ??_C@_01KBJDNOO@i@
  0003b	ff 15 00 00 00
	00		 call	 DWORD PTR __imp__Py_BuildValue
  00041	83 c4 08	 add	 esp, 8

; 230  : }

  00044	8b e5		 mov	 esp, ebp
  00046	5d		 pop	 ebp
  00047	c3		 ret	 0
?eventGetVisibleStartLine@@YAPAU_object@@PAU1@0@Z ENDP	; eventGetVisibleStartLine
_TEXT	ENDS
; Function compile flags: /Ogtp
; File D:\_m2work\Server Client TMP4\ClientVS22\source\UserInterface\PythonEventManagerMoudle.cpp
;	COMDAT ?eventQuestButtonClick@@YAPAU_object@@PAU1@0@Z
_TEXT	SEGMENT
_iIndex$ = -4						; size = 4
_poSelf$ = 8						; size = 4
_poArgs$ = 12						; size = 4
?eventQuestButtonClick@@YAPAU_object@@PAU1@0@Z PROC	; eventQuestButtonClick, COMDAT

; 233  : {

  00000	55		 push	 ebp
  00001	8b ec		 mov	 ebp, esp
  00003	51		 push	 ecx

; 234  : 	int iIndex;
; 235  : 	if (!PyTuple_GetInteger(poArgs, 0, &iIndex))

  00004	8d 45 fc	 lea	 eax, DWORD PTR _iIndex$[ebp]
  00007	50		 push	 eax
  00008	6a 00		 push	 0
  0000a	ff 75 0c	 push	 DWORD PTR _poArgs$[ebp]
  0000d	e8 00 00 00 00	 call	 ?PyTuple_GetInteger@@YA_NPAU_object@@HPAH@Z ; PyTuple_GetInteger
  00012	83 c4 0c	 add	 esp, 12			; 0000000cH
  00015	84 c0		 test	 al, al
  00017	75 0e		 jne	 SHORT $LN2@eventQuest

; 236  : 		return Py_BuildException();

  00019	6a 00		 push	 0
  0001b	e8 00 00 00 00	 call	 ?Py_BuildException@@YAPAU_object@@PBDZZ ; Py_BuildException
  00020	83 c4 04	 add	 esp, 4

; 241  : }

  00023	8b e5		 mov	 esp, ebp
  00025	5d		 pop	 ebp
  00026	c3		 ret	 0
$LN2@eventQuest:

; 237  : 	
; 238  : 	CPythonNetworkStream::Instance().SendScriptButtonPacket(iIndex);

  00027	ff 75 fc	 push	 DWORD PTR _iIndex$[ebp]
  0002a	8b 0d 00 00 00
	00		 mov	 ecx, DWORD PTR ?ms_singleton@?$CSingleton@VCPythonNetworkStream@@@@0PAVCPythonNetworkStream@@A ; CSingleton<CPythonNetworkStream>::ms_singleton
  00030	e8 00 00 00 00	 call	 ?SendScriptButtonPacket@CPythonNetworkStream@@QAE_NI@Z ; CPythonNetworkStream::SendScriptButtonPacket

; 239  : 
; 240  : 	return Py_BuildNone();

  00035	e8 00 00 00 00	 call	 ?Py_BuildNone@@YAPAU_object@@XZ ; Py_BuildNone

; 241  : }

  0003a	8b e5		 mov	 esp, ebp
  0003c	5d		 pop	 ebp
  0003d	c3		 ret	 0
?eventQuestButtonClick@@YAPAU_object@@PAU1@0@Z ENDP	; eventQuestButtonClick
_TEXT	ENDS
; Function compile flags: /Ogtp
; File D:\_m2work\Server Client TMP4\ClientVS22\source\UserInterface\PythonEventManagerMoudle.cpp
;	COMDAT ?eventSetInterfaceWindow@@YAPAU_object@@PAU1@0@Z
_TEXT	SEGMENT
_pyHandle$ = -4						; size = 4
_poSelf$ = 8						; size = 4
_poArgs$ = 12						; size = 4
?eventSetInterfaceWindow@@YAPAU_object@@PAU1@0@Z PROC	; eventSetInterfaceWindow, COMDAT

; 244  : {

  00000	55		 push	 ebp
  00001	8b ec		 mov	 ebp, esp
  00003	51		 push	 ecx

; 245  : 	PyObject * pyHandle;
; 246  : 	if (!PyTuple_GetObject(poArgs, 0, &pyHandle))

  00004	8d 45 fc	 lea	 eax, DWORD PTR _pyHandle$[ebp]
  00007	50		 push	 eax
  00008	6a 00		 push	 0
  0000a	ff 75 0c	 push	 DWORD PTR _poArgs$[ebp]
  0000d	e8 00 00 00 00	 call	 ?PyTuple_GetObject@@YA_NPAU_object@@HPAPAU1@@Z ; PyTuple_GetObject
  00012	83 c4 0c	 add	 esp, 12			; 0000000cH
  00015	84 c0		 test	 al, al
  00017	75 09		 jne	 SHORT $LN2@eventSetIn

; 247  : 		return Py_BadArgument();

  00019	e8 00 00 00 00	 call	 ?Py_BadArgument@@YAPAU_object@@XZ ; Py_BadArgument

; 252  : }

  0001e	8b e5		 mov	 esp, ebp
  00020	5d		 pop	 ebp
  00021	c3		 ret	 0
$LN2@eventSetIn:

; 248  : 	
; 249  : 	CPythonEventManager & rpem = CPythonEventManager::Instance();
; 250  : 	rpem.SetInterfaceWindow(pyHandle);

  00022	ff 75 fc	 push	 DWORD PTR _pyHandle$[ebp]
  00025	8b 0d 00 00 00
	00		 mov	 ecx, DWORD PTR ?ms_singleton@?$CSingleton@VCPythonEventManager@@@@0PAVCPythonEventManager@@A ; CSingleton<CPythonEventManager>::ms_singleton
  0002b	e8 00 00 00 00	 call	 ?SetInterfaceWindow@CPythonEventManager@@QAEXPAU_object@@@Z ; CPythonEventManager::SetInterfaceWindow

; 251  : 	return Py_BuildNone();	

  00030	e8 00 00 00 00	 call	 ?Py_BuildNone@@YAPAU_object@@XZ ; Py_BuildNone

; 252  : }

  00035	8b e5		 mov	 esp, ebp
  00037	5d		 pop	 ebp
  00038	c3		 ret	 0
?eventSetInterfaceWindow@@YAPAU_object@@PAU1@0@Z ENDP	; eventSetInterfaceWindow
_TEXT	ENDS
; Function compile flags: /Ogtp
; File D:\_m2work\Server Client TMP4\ClientVS22\source\UserInterface\PythonEventManagerMoudle.cpp
;	COMDAT ?eventSetLeftTimeString@@YAPAU_object@@PAU1@0@Z
_TEXT	SEGMENT
_szText$ = -4						; size = 4
_poSelf$ = 8						; size = 4
_poArgs$ = 12						; size = 4
?eventSetLeftTimeString@@YAPAU_object@@PAU1@0@Z PROC	; eventSetLeftTimeString, COMDAT

; 255  : {

  00000	55		 push	 ebp
  00001	8b ec		 mov	 ebp, esp
  00003	51		 push	 ecx

; 256  : 	char * szText;
; 257  : 	if (!PyTuple_GetString(poArgs, 0, &szText))

  00004	8d 45 fc	 lea	 eax, DWORD PTR _szText$[ebp]
  00007	50		 push	 eax
  00008	6a 00		 push	 0
  0000a	ff 75 0c	 push	 DWORD PTR _poArgs$[ebp]
  0000d	e8 00 00 00 00	 call	 ?PyTuple_GetString@@YA_NPAU_object@@HPAPAD@Z ; PyTuple_GetString
  00012	83 c4 0c	 add	 esp, 12			; 0000000cH
  00015	84 c0		 test	 al, al
  00017	75 0e		 jne	 SHORT $LN2@eventSetLe

; 258  : 		return Py_BuildException();

  00019	6a 00		 push	 0
  0001b	e8 00 00 00 00	 call	 ?Py_BuildException@@YAPAU_object@@PBDZZ ; Py_BuildException
  00020	83 c4 04	 add	 esp, 4

; 263  : }

  00023	8b e5		 mov	 esp, ebp
  00025	5d		 pop	 ebp
  00026	c3		 ret	 0
$LN2@eventSetLe:

; 259  : 
; 260  : 	CPythonEventManager & rpem = CPythonEventManager::Instance();
; 261  : 	rpem.SetLeftTimeString(szText);

  00027	ff 75 fc	 push	 DWORD PTR _szText$[ebp]
  0002a	8b 0d 00 00 00
	00		 mov	 ecx, DWORD PTR ?ms_singleton@?$CSingleton@VCPythonEventManager@@@@0PAVCPythonEventManager@@A ; CSingleton<CPythonEventManager>::ms_singleton
  00030	e8 00 00 00 00	 call	 ?SetLeftTimeString@CPythonEventManager@@QAEXPBD@Z ; CPythonEventManager::SetLeftTimeString

; 262  : 	return Py_BuildNone();

  00035	e8 00 00 00 00	 call	 ?Py_BuildNone@@YAPAU_object@@XZ ; Py_BuildNone

; 263  : }

  0003a	8b e5		 mov	 esp, ebp
  0003c	5d		 pop	 ebp
  0003d	c3		 ret	 0
?eventSetLeftTimeString@@YAPAU_object@@PAU1@0@Z ENDP	; eventSetLeftTimeString
_TEXT	ENDS
; Function compile flags: /Ogtp
; File D:\_m2work\Server Client TMP4\ClientVS22\source\UserInterface\PythonEventManagerMoudle.cpp
;	COMDAT ?eventDestroy@@YAPAU_object@@PAU1@0@Z
_TEXT	SEGMENT
_poSelf$ = 8						; size = 4
_poArgs$ = 12						; size = 4
?eventDestroy@@YAPAU_object@@PAU1@0@Z PROC		; eventDestroy, COMDAT

; 267  : 	CPythonEventManager & rpem = CPythonEventManager::Instance();
; 268  : 	rpem.Destroy();

  00000	8b 0d 00 00 00
	00		 mov	 ecx, DWORD PTR ?ms_singleton@?$CSingleton@VCPythonEventManager@@@@0PAVCPythonEventManager@@A ; CSingleton<CPythonEventManager>::ms_singleton
  00006	e8 00 00 00 00	 call	 ?Destroy@CPythonEventManager@@QAEXXZ ; CPythonEventManager::Destroy

; 269  : 	return Py_BuildNone();

  0000b	e9 00 00 00 00	 jmp	 ?Py_BuildNone@@YAPAU_object@@XZ ; Py_BuildNone
?eventDestroy@@YAPAU_object@@PAU1@0@Z ENDP		; eventDestroy
_TEXT	ENDS
; Function compile flags: /Ogtp
; File D:\_m2work\Server Client TMP4\ClientVS22\source\UserInterface\PythonEventManagerMoudle.cpp
;	COMDAT ?initEvent@@YAXXZ
_TEXT	SEGMENT
?initEvent@@YAXXZ PROC					; initEvent, COMDAT

; 273  : {

  00000	56		 push	 esi
  00001	57		 push	 edi

; 274  : 	static PyMethodDef s_methods[] =
; 275  : 	{
; 276  : 		{ "RegisterEventSet",			eventRegisterEventSet,				METH_VARARGS },
; 277  : 		{ "RegisterEventSetFromString",	eventRegisterEventSetFromString,	METH_VARARGS },
; 278  : 		{ "ClearEventSet",				eventClearEventSet,					METH_VARARGS },
; 279  : 
; 280  : 		{ "SetRestrictedCount",			eventSetRestrictedCount,			METH_VARARGS },
; 281  : 
; 282  : 		{ "GetEventSetLocalYPosition",	eventGetEventSetLocalYPosition,		METH_VARARGS },
; 283  : 		{ "AddEventSetLocalYPosition",	eventAddEventSetLocalYPosition,		METH_VARARGS },
; 284  : 		{ "InsertText",					eventInsertText,					METH_VARARGS },
; 285  : 		{ "InsertTextInline",			eventInsertTextInline,				METH_VARARGS },
; 286  : 
; 287  : 		{ "UpdateEventSet",				eventUpdateEventSet,				METH_VARARGS },
; 288  : 		{ "RenderEventSet",				eventRenderEventSet,				METH_VARARGS },
; 289  : 		{ "SetEventSetWidth",			eventSetEventSetWidth,				METH_VARARGS },
; 290  : 
; 291  : 		{ "Skip",						eventSkip,							METH_VARARGS },
; 292  : 		{ "IsWait",						eventIsWait,						METH_VARARGS },
; 293  : 		{ "EndEventProcess",			eventEndEventProcess,				METH_VARARGS },
; 294  : 
; 295  : 		{ "SelectAnswer",				eventSelectAnswer,					METH_VARARGS },
; 296  : 		{ "GetLineCount",				eventGetLineCount,					METH_VARARGS },
; 297  : 		{ "SetVisibleStartLine",		eventSetVisibleStartLine,			METH_VARARGS },
; 298  : 		{ "GetVisibleStartLine",		eventGetVisibleStartLine,			METH_VARARGS },
; 299  : 
; 300  : 		{ "SetEventHandler",			eventSetEventHandler,				METH_VARARGS },
; 301  : 		{ "SetInterfaceWindow",			eventSetInterfaceWindow,			METH_VARARGS },
; 302  : 		{ "SetLeftTimeString",			eventSetLeftTimeString,				METH_VARARGS },
; 303  : 
; 304  : 		{ "QuestButtonClick",			eventQuestButtonClick,				METH_VARARGS },
; 305  : 		{ "Destroy",					eventDestroy,						METH_VARARGS },
; 306  : 		{ NULL,							NULL,								NULL         },
; 307  : 	};
; 308  : 
; 309  : 	PyObject * poModule = Py_InitModule("event", s_methods);

  00002	68 f5 03 00 00	 push	 1013			; 000003f5H
  00007	6a 00		 push	 0
  00009	6a 00		 push	 0
  0000b	68 00 00 00 00	 push	 OFFSET ?s_methods@?1??initEvent@@YAXXZ@4PAUPyMethodDef@@A
  00010	68 00 00 00 00	 push	 OFFSET ??_C@_05GFHEIIDD@event@
  00015	ff 15 00 00 00
	00		 call	 DWORD PTR __imp__Py_InitModule4

; 310  : 
; 311  : 	PyModule_AddIntConstant(poModule, "BOX_VISIBLE_LINE_COUNT", CPythonEventManager::BOX_VISIBLE_LINE_COUNT);

  0001b	8b 35 00 00 00
	00		 mov	 esi, DWORD PTR __imp__PyModule_AddIntConstant
  00021	8b f8		 mov	 edi, eax
  00023	6a 05		 push	 5
  00025	68 00 00 00 00	 push	 OFFSET ??_C@_0BH@NLEPPNKM@BOX_VISIBLE_LINE_COUNT@
  0002a	57		 push	 edi
  0002b	ff d6		 call	 esi

; 312  : 	PyModule_AddIntConstant(poModule, "BUTTON_TYPE_NEXT", CPythonEventManager::BUTTON_TYPE_NEXT);

  0002d	6a 00		 push	 0
  0002f	68 00 00 00 00	 push	 OFFSET ??_C@_0BB@LIHDEJBM@BUTTON_TYPE_NEXT@
  00034	57		 push	 edi
  00035	ff d6		 call	 esi

; 313  : 	PyModule_AddIntConstant(poModule, "BUTTON_TYPE_DONE", CPythonEventManager::BUTTON_TYPE_DONE);

  00037	6a 01		 push	 1
  00039	68 00 00 00 00	 push	 OFFSET ??_C@_0BB@NGAMENAL@BUTTON_TYPE_DONE@
  0003e	57		 push	 edi
  0003f	ff d6		 call	 esi

; 314  : 	PyModule_AddIntConstant(poModule, "BUTTON_TYPE_CANCEL", CPythonEventManager::BUTTON_TYPE_CANCEL);

  00041	6a 02		 push	 2
  00043	68 00 00 00 00	 push	 OFFSET ??_C@_0BD@BLMCHNOK@BUTTON_TYPE_CANCEL@
  00048	57		 push	 edi
  00049	ff d6		 call	 esi
  0004b	83 c4 44	 add	 esp, 68			; 00000044H
  0004e	5f		 pop	 edi
  0004f	5e		 pop	 esi

; 315  : }

  00050	c3		 ret	 0
?initEvent@@YAXXZ ENDP					; initEvent
_TEXT	ENDS
; Function compile flags: /Ogtp
; File D:\_m2work\Server Client TMP4\ClientVS22\source\eterBase\Singleton.h
;	COMDAT ?Instance@?$CSingleton@VCPythonEventManager@@@@SAAAVCPythonEventManager@@XZ
_TEXT	SEGMENT
?Instance@?$CSingleton@VCPythonEventManager@@@@SAAAVCPythonEventManager@@XZ PROC ; CSingleton<CPythonEventManager>::Instance, COMDAT

; 26   : 		assert(ms_singleton);
; 27   : 		return (*ms_singleton);

  00000	a1 00 00 00 00	 mov	 eax, DWORD PTR ?ms_singleton@?$CSingleton@VCPythonEventManager@@@@0PAVCPythonEventManager@@A ; CSingleton<CPythonEventManager>::ms_singleton

; 28   : 	}

  00005	c3		 ret	 0
?Instance@?$CSingleton@VCPythonEventManager@@@@SAAAVCPythonEventManager@@XZ ENDP ; CSingleton<CPythonEventManager>::Instance
_TEXT	ENDS
END
