; Listing generated by Microsoft (R) Optimizing Compiler Version 19.44.35217.0 

	TITLE	d:\_m2work\server client tmp4\clientvs22\vs_files\userinterface\distribute\pythonplayerskill.obj
	.686P
	.XMM
	include listing.inc
	.model	flat

INCLUDELIB OLDNAMES

PUBLIC	??_C@_0N@OADAMGHE@ClearAffects@			; `string'
PUBLIC	??_C@_0BD@IOEPNDLO@ChangeCurrentSkill@		; `string'
PUBLIC	??_C@_0M@HBOAHMLO@ResetAffect@			; `string'
PUBLIC	??_C@_0N@DJBFACMO@HAVE_TO_RIDE@			; `string'
PUBLIC	??_C@_0BA@MEPOIIPE@NOT_HORSE_SKILL@		; `string'
PUBLIC	??_C@_0BD@HPCMPHGF@NEED_POISON_BOTTLE@		; `string'
PUBLIC	??_C@_0BC@DDKDAKLO@NEED_EMPTY_BOTTLE@		; `string'
PUBLIC	??_C@_0O@PFLGBNMN@NOT_YET_LEARN@		; `string'
PUBLIC	??_C@_0BD@LIIMHBCN@REMOVE_FISHING_ROD@		; `string'
PUBLIC	??_C@_0O@CCJDKKCC@WAIT_COOLTIME@		; `string'
PUBLIC	??_C@_0BF@KPLOMIJE@NOT_MATCHABLE_WEAPON@	; `string'
PUBLIC	??_C@_0O@DIMCNBHD@NOT_ENOUGH_SP@		; `string'
PUBLIC	??_C@_0O@CILBJNOC@NOT_ENOUGH_HP@		; `string'
PUBLIC	??_C@_0BA@CFBPJACC@CANNOT_APPROACH@		; `string'
PUBLIC	??_C@_0DF@OHCKPFBO@?$CB?$CB?$CB?5Find?5strange?5game?5data?4?5Ple@ ; `string'
PUBLIC	??_C@_0EB@JKMJGFLB@CPythonPlayer?3?3__UseSkill?$CIdwSlo@ ; `string'
PUBLIC	??_C@_0EP@OENNGPFB@CPythonPlayer?3?3__UseSkill?$CIdwSlo@ ; `string'
PUBLIC	??_C@_0BA@GMGJKDGM@CANNOT_USE_SELF@		; `string'
PUBLIC	??_C@_0EC@MMFCNDJC@CPythonPlayer?3?3__UseSkill?$CIdwSlo@ ; `string'
PUBLIC	??_C@_0BC@CKDFNGK@ONLY_FOR_ALLIANCE@		; `string'
PUBLIC	??_C@_0FC@NMOECDOK@?5?$FLALERT?$FN?5?$LF?$LP?$LH?a?$LP?$KB?$LA?T?5?$LL?g?$LP?k?G?O?$LE?B?5?$LB?b?$LM?z@ ; `string'
PUBLIC	??_C@_0O@BIOLCACO@CANNOT_ATTACK@		; `string'
PUBLIC	??_C@_0CB@HEDIGIHC@CANNOT_ATTACK_ENEMY_IN_SAFE_ARE@ ; `string'
PUBLIC	??_C@_0BA@FPMNLALM@ONLY_FOR_CORPSE@		; `string'
PUBLIC	??_C@_0DA@NPBLPNPC@?5?$FLALERT?$FN?5?E?$LI?$LA?Y?$MA?L?5?$LO?x?$LO?n?$LM?$KN?5?G?C?$LH?$LJ?$MA?L?$LO?n@ ; `string'
PUBLIC	??_C@_0EB@LKBFGOEE@CPythonPlayer?3?3__UseSkill?$CI?$CFd?$CJ?5?9@ ; `string'
PUBLIC	??_C@_0DN@DLLIDDMA@CPythonPlayer?3?3__UseSkill?$CI?$CFd?$CJ?5?9@ ; `string'
PUBLIC	??_C@_04IGFOPMNH@?$CIif?$CJ@			; `string'
PUBLIC	??_C@_0DP@EKGIGFIO@CPythonPlayer?3?3__SendUseSkill?$CId@ ; `string'
PUBLIC	??_C@_0FH@CAACOELN@CPythonPlayer?3?3UseGuildSkill?$CIdw@ ; `string'
PUBLIC	??_C@_0BB@GJACMMFG@RunUseSkillEvent@		; `string'
PUBLIC	??_C@_0EE@GICPADML@CPythonPlayer?3?3UseGuildSkill?$CI?$CFd@ ; `string'
PUBLIC	??_C@_0BD@OHHCPGPG@ONLY_FOR_GUILD_WAR@		; `string'
PUBLIC	??_C@_0FM@DHHFNKGI@CPythonPlayer?3?3SetComboSkillFla@ ; `string'
PUBLIC	??_C@_0EI@OMJBNOHB@CPythonPlayer?3?3SetComboSkillFla@ ; `string'
PUBLIC	??_C@_0BC@ENEHNNJB@EQUIP_FISHING_ROD@		; `string'
;	COMDAT ??_C@_0BC@ENEHNNJB@EQUIP_FISHING_ROD@
CONST	SEGMENT
??_C@_0BC@ENEHNNJB@EQUIP_FISHING_ROD@ DB 'EQUIP_FISHING_ROD', 00H ; `string'
CONST	ENDS
;	COMDAT ??_C@_0EI@OMJBNOHB@CPythonPlayer?3?3SetComboSkillFla@
CONST	SEGMENT
??_C@_0EI@OMJBNOHB@CPythonPlayer?3?3SetComboSkillFla@ DB 'CPythonPlayer::'
	DB	'SetComboSkillFlag(killIndex=%d) - Can''t Find Slot Index', 0aH
	DB	00H						; `string'
CONST	ENDS
;	COMDAT ??_C@_0FM@DHHFNKGI@CPythonPlayer?3?3SetComboSkillFla@
CONST	SEGMENT
??_C@_0FM@DHHFNKGI@CPythonPlayer?3?3SetComboSkillFla@ DB 'CPythonPlayer::'
	DB	'SetComboSkillFlag(skillIndex=%d, skillLevel=%d) - Invalid Com'
	DB	'bo Skill Level', 0aH, 00H			; `string'
CONST	ENDS
;	COMDAT ??_C@_0BD@OHHCPGPG@ONLY_FOR_GUILD_WAR@
CONST	SEGMENT
??_C@_0BD@OHHCPGPG@ONLY_FOR_GUILD_WAR@ DB 'ONLY_FOR_GUILD_WAR', 00H ; `string'
CONST	ENDS
;	COMDAT ??_C@_0EE@GICPADML@CPythonPlayer?3?3UseGuildSkill?$CI?$CFd@
CONST	SEGMENT
??_C@_0EE@GICPADML@CPythonPlayer?3?3UseGuildSkill?$CI?$CFd@ DB 'CPythonPl'
	DB	'ayer::UseGuildSkill(%d) - pkInstMain->NEW_UseSkill - ERROR', 00H ; `string'
CONST	ENDS
;	COMDAT ??_C@_0BB@GJACMMFG@RunUseSkillEvent@
CONST	SEGMENT
??_C@_0BB@GJACMMFG@RunUseSkillEvent@ DB 'RunUseSkillEvent', 00H ; `string'
CONST	ENDS
;	COMDAT ??_C@_0FH@CAACOELN@CPythonPlayer?3?3UseGuildSkill?$CIdw@
CONST	SEGMENT
??_C@_0FH@CAACOELN@CPythonPlayer?3?3UseGuildSkill?$CIdw@ DB 'CPythonPlaye'
	DB	'r::UseGuildSkill(dwSkillSlotIndex=%d) It''s not available ski'
	DB	'll slot number', 00H			; `string'
CONST	ENDS
;	COMDAT ??_C@_0DP@EKGIGFIO@CPythonPlayer?3?3__SendUseSkill?$CId@
CONST	SEGMENT
??_C@_0DP@EKGIGFIO@CPythonPlayer?3?3__SendUseSkill?$CId@ DB 'CPythonPlaye'
	DB	'r::__SendUseSkill(dwSkillSlotIndex=%d) - NOT CHECK', 00H ; `string'
CONST	ENDS
;	COMDAT ??_C@_04IGFOPMNH@?$CIif?$CJ@
CONST	SEGMENT
??_C@_04IGFOPMNH@?$CIif?$CJ@ DB '(if)', 00H		; `string'
CONST	ENDS
;	COMDAT ??_C@_0DN@DLLIDDMA@CPythonPlayer?3?3__UseSkill?$CI?$CFd?$CJ?5?9@
CONST	SEGMENT
??_C@_0DN@DLLIDDMA@CPythonPlayer?3?3__UseSkill?$CI?$CFd?$CJ?5?9@ DB 'CPyt'
	DB	'honPlayer::__UseSkill(%d) - ', 0c8H, 0adH, 0b8H, 0e9H, ' ', 0b1H
	DB	0e2H, 0c1H, 0d8H, ' ', 0b9H, 0e6H, 0c7H, 0e2H, ' ', 0bcH, 0b3H
	DB	0c1H, 0a4H, 0c0H, 0bbH, ' ', 0c7H, 0d8H, 0beH, 0dfH, 0c7H, 0d4H
	DB	00H						; `string'
CONST	ENDS
;	COMDAT ??_C@_0EB@LKBFGOEE@CPythonPlayer?3?3__UseSkill?$CI?$CFd?$CJ?5?9@
CONST	SEGMENT
??_C@_0EB@LKBFGOEE@CPythonPlayer?3?3__UseSkill?$CI?$CFd?$CJ?5?9@ DB 'CPyt'
	DB	'honPlayer::__UseSkill(%d) - pkInstMain->NEW_UseSkill - ERROR', 00H ; `string'
CONST	ENDS
;	COMDAT ??_C@_0DA@NPBLPNPC@?5?$FLALERT?$FN?5?E?$LI?$LA?Y?$MA?L?5?$LO?x?$LO?n?$LM?$KN?5?G?C?$LH?$LJ?$MA?L?$LO?n@
CONST	SEGMENT
??_C@_0DA@NPBLPNPC@?5?$FLALERT?$FN?5?E?$LI?$LA?Y?$MA?L?5?$LO?x?$LO?n?$LM?$KN?5?G?C?$LH?$LJ?$MA?L?$LO?n@ DB ' '
	DB	'[ALERT] ', 0c5H, 0b8H, 0b0H, 0d9H, 0c0H, 0ccH, ' ', 0beH, 0f8H
	DB	0beH, 0eeH, 0bcH, 0adH, ' ', 0c7H, 0c3H, 0b7H, 0b9H, 0c0H, 0ccH
	DB	0beH, 0eeH, 0bfH, 0a1H, 0b0H, 0d4H, ' ', 0bbH, 0e7H, 0bfH, 0ebH
	DB	0c7H, 0d5H, 0b4H, 0cfH, 0b4H, 0d9H, 0aH, 00H	; `string'
CONST	ENDS
;	COMDAT ??_C@_0BA@FPMNLALM@ONLY_FOR_CORPSE@
CONST	SEGMENT
??_C@_0BA@FPMNLALM@ONLY_FOR_CORPSE@ DB 'ONLY_FOR_CORPSE', 00H ; `string'
CONST	ENDS
;	COMDAT ??_C@_0CB@HEDIGIHC@CANNOT_ATTACK_ENEMY_IN_SAFE_ARE@
CONST	SEGMENT
??_C@_0CB@HEDIGIHC@CANNOT_ATTACK_ENEMY_IN_SAFE_ARE@ DB 'CANNOT_ATTACK_ENE'
	DB	'MY_IN_SAFE_AREA', 00H			; `string'
CONST	ENDS
;	COMDAT ??_C@_0O@BIOLCACO@CANNOT_ATTACK@
CONST	SEGMENT
??_C@_0O@BIOLCACO@CANNOT_ATTACK@ DB 'CANNOT_ATTACK', 00H ; `string'
CONST	ENDS
;	COMDAT ??_C@_0FC@NMOECDOK@?5?$FLALERT?$FN?5?$LF?$LP?$LH?a?$LP?$KB?$LA?T?5?$LL?g?$LP?k?G?O?$LE?B?5?$LB?b?$LM?z@
CONST	SEGMENT
??_C@_0FC@NMOECDOK@?5?$FLALERT?$FN?5?$LF?$LP?$LH?a?$LP?$KB?$LA?T?5?$LL?g?$LP?k?G?O?$LE?B?5?$LB?b?$LM?z@ DB ' '
	DB	'[ALERT] ', 0b5H, 0bfH, 0b7H, 0e1H, 0bfH, 0a1H, 0b0H, 0d4H, ' '
	DB	0bbH, 0e7H, 0bfH, 0ebH, 0c7H, 0cfH, 0b4H, 0c2H, ' ', 0b1H, 0e2H
	DB	0bcH, 0faH, 0c0H, 0d3H, 0bfH, 0a1H, 0b5H, 0b5H, ' ', 0c0H, 0fbH
	DB	0bfH, 0a1H, 0b0H, 0d4H, ' ', 0c5H, 0b8H, 0b0H, 0d9H, 0c6H, 0c3H
	DB	' ', 0b5H, 0c7H, 0beH, 0eeH, 0c0H, 0d6H, 0beH, 0eeH, 0bcH, 0adH
	DB	' ', 0c0H, 0daH, 0bdH, 0c5H, 0bfH, 0a1H, 0b0H, 0d4H, 0b7H, 0ceH
	DB	' ', 0c0H, 0e7H, 0bcH, 0b3H, 0c1H, 0a4H, 0aH, 00H ; `string'
CONST	ENDS
;	COMDAT ??_C@_0BC@CKDFNGK@ONLY_FOR_ALLIANCE@
CONST	SEGMENT
??_C@_0BC@CKDFNGK@ONLY_FOR_ALLIANCE@ DB 'ONLY_FOR_ALLIANCE', 00H ; `string'
CONST	ENDS
;	COMDAT ??_C@_0EC@MMFCNDJC@CPythonPlayer?3?3__UseSkill?$CIdwSlo@
CONST	SEGMENT
??_C@_0EC@MMFCNDJC@CPythonPlayer?3?3__UseSkill?$CIdwSlo@ DB 'CPythonPlaye'
	DB	'r::__UseSkill(dwSlotIndex=%d) There is no main player', 00H ; `string'
CONST	ENDS
;	COMDAT ??_C@_0BA@GMGJKDGM@CANNOT_USE_SELF@
CONST	SEGMENT
??_C@_0BA@GMGJKDGM@CANNOT_USE_SELF@ DB 'CANNOT_USE_SELF', 00H ; `string'
CONST	ENDS
;	COMDAT ??_C@_0EP@OENNGPFB@CPythonPlayer?3?3__UseSkill?$CIdwSlo@
CONST	SEGMENT
??_C@_0EP@OENNGPFB@CPythonPlayer?3?3__UseSkill?$CIdwSlo@ DB 'CPythonPlaye'
	DB	'r::__UseSkill(dwSlotIndex=%d) It''s not available skill slot '
	DB	'number', 00H				; `string'
CONST	ENDS
;	COMDAT ??_C@_0EB@JKMJGFLB@CPythonPlayer?3?3__UseSkill?$CIdwSlo@
CONST	SEGMENT
??_C@_0EB@JKMJGFLB@CPythonPlayer?3?3__UseSkill?$CIdwSlo@ DB 'CPythonPlaye'
	DB	'r::__UseSkill(dwSlotIndex=%d) There is no skill data', 00H ; `string'
CONST	ENDS
;	COMDAT ??_C@_0DF@OHCKPFBO@?$CB?$CB?$CB?5Find?5strange?5game?5data?4?5Ple@
CONST	SEGMENT
??_C@_0DF@OHCKPFBO@?$CB?$CB?$CB?5Find?5strange?5game?5data?4?5Ple@ DB '!!'
	DB	'! Find strange game data. Please reinstall metin2.', 00H ; `string'
CONST	ENDS
;	COMDAT ??_C@_0BA@CFBPJACC@CANNOT_APPROACH@
CONST	SEGMENT
??_C@_0BA@CFBPJACC@CANNOT_APPROACH@ DB 'CANNOT_APPROACH', 00H ; `string'
CONST	ENDS
;	COMDAT ??_C@_0O@CILBJNOC@NOT_ENOUGH_HP@
CONST	SEGMENT
??_C@_0O@CILBJNOC@NOT_ENOUGH_HP@ DB 'NOT_ENOUGH_HP', 00H ; `string'
CONST	ENDS
;	COMDAT ??_C@_0O@DIMCNBHD@NOT_ENOUGH_SP@
CONST	SEGMENT
??_C@_0O@DIMCNBHD@NOT_ENOUGH_SP@ DB 'NOT_ENOUGH_SP', 00H ; `string'
CONST	ENDS
;	COMDAT ??_C@_0BF@KPLOMIJE@NOT_MATCHABLE_WEAPON@
CONST	SEGMENT
??_C@_0BF@KPLOMIJE@NOT_MATCHABLE_WEAPON@ DB 'NOT_MATCHABLE_WEAPON', 00H ; `string'
CONST	ENDS
;	COMDAT ??_C@_0O@CCJDKKCC@WAIT_COOLTIME@
CONST	SEGMENT
??_C@_0O@CCJDKKCC@WAIT_COOLTIME@ DB 'WAIT_COOLTIME', 00H ; `string'
CONST	ENDS
;	COMDAT ??_C@_0BD@LIIMHBCN@REMOVE_FISHING_ROD@
CONST	SEGMENT
??_C@_0BD@LIIMHBCN@REMOVE_FISHING_ROD@ DB 'REMOVE_FISHING_ROD', 00H ; `string'
CONST	ENDS
;	COMDAT ??_C@_0O@PFLGBNMN@NOT_YET_LEARN@
CONST	SEGMENT
??_C@_0O@PFLGBNMN@NOT_YET_LEARN@ DB 'NOT_YET_LEARN', 00H ; `string'
CONST	ENDS
;	COMDAT ??_C@_0BC@DDKDAKLO@NEED_EMPTY_BOTTLE@
CONST	SEGMENT
??_C@_0BC@DDKDAKLO@NEED_EMPTY_BOTTLE@ DB 'NEED_EMPTY_BOTTLE', 00H ; `string'
CONST	ENDS
;	COMDAT ??_C@_0BD@HPCMPHGF@NEED_POISON_BOTTLE@
CONST	SEGMENT
??_C@_0BD@HPCMPHGF@NEED_POISON_BOTTLE@ DB 'NEED_POISON_BOTTLE', 00H ; `string'
CONST	ENDS
;	COMDAT ??_C@_0BA@MEPOIIPE@NOT_HORSE_SKILL@
CONST	SEGMENT
??_C@_0BA@MEPOIIPE@NOT_HORSE_SKILL@ DB 'NOT_HORSE_SKILL', 00H ; `string'
CONST	ENDS
;	COMDAT ??_C@_0N@DJBFACMO@HAVE_TO_RIDE@
CONST	SEGMENT
??_C@_0N@DJBFACMO@HAVE_TO_RIDE@ DB 'HAVE_TO_RIDE', 00H	; `string'
CONST	ENDS
;	COMDAT ??_C@_0M@HBOAHMLO@ResetAffect@
CONST	SEGMENT
??_C@_0M@HBOAHMLO@ResetAffect@ DB 'ResetAffect', 00H	; `string'
CONST	ENDS
;	COMDAT ??_C@_0BD@IOEPNDLO@ChangeCurrentSkill@
CONST	SEGMENT
??_C@_0BD@IOEPNDLO@ChangeCurrentSkill@ DB 'ChangeCurrentSkill', 00H ; `string'
CONST	ENDS
;	COMDAT ??_C@_0N@OADAMGHE@ClearAffects@
CONST	SEGMENT
??_C@_0N@OADAMGHE@ClearAffects@ DB 'ClearAffects', 00H	; `string'
PUBLIC	?Instance@?$CSingleton@VIBackground@@@@SAAAVIBackground@@XZ ; CSingleton<IBackground>::Instance
PUBLIC	?__CheckSpecialSkill@CPythonPlayer@@IAE_NK@Z	; CPythonPlayer::__CheckSpecialSkill
PUBLIC	?__HasItem@CPythonPlayer@@IAE_NK@Z		; CPythonPlayer::__HasItem
PUBLIC	?__RunCoolTime@CPythonPlayer@@IAEXK@Z		; CPythonPlayer::__RunCoolTime
PUBLIC	?__SendUseSkill@CPythonPlayer@@IAEXKK@Z		; CPythonPlayer::__SendUseSkill
PUBLIC	?__CanUseSkill@CPythonPlayer@@IAE_NXZ		; CPythonPlayer::__CanUseSkill
PUBLIC	?__ProcessEnemySkillTargetRange@CPythonPlayer@@IAE_NAAVCInstanceBase@@0AAUSSkillData@CPythonSkill@@K@Z ; CPythonPlayer::__ProcessEnemySkillTargetRange
PUBLIC	?__GetSkillTargetRange@CPythonPlayer@@IAEKAAUSSkillData@CPythonSkill@@@Z ; CPythonPlayer::__GetSkillTargetRange
PUBLIC	?__CheckShortLife@CPythonPlayer@@IAE_NAAUSSkillInstance@1@AAUSSkillData@CPythonSkill@@@Z ; CPythonPlayer::__CheckShortLife
PUBLIC	?__CheckShortMana@CPythonPlayer@@IAE_NAAUSSkillInstance@1@AAUSSkillData@CPythonSkill@@@Z ; CPythonPlayer::__CheckShortMana
PUBLIC	?__CheckShortArrow@CPythonPlayer@@IAE_NAAUSSkillInstance@1@AAUSSkillData@CPythonSkill@@@Z ; CPythonPlayer::__CheckShortArrow
PUBLIC	?__CheckSkillUsable@CPythonPlayer@@IAE_NK@Z	; CPythonPlayer::__CheckSkillUsable
PUBLIC	?FindSkillSlotIndexBySkillIndex@CPythonPlayer@@QAE_NKPAK@Z ; CPythonPlayer::FindSkillSlotIndexBySkillIndex
PUBLIC	?UseGuildSkill@CPythonPlayer@@QAEXK@Z		; CPythonPlayer::UseGuildSkill
PUBLIC	?ChangeCurrentSkillNumberOnly@CPythonPlayer@@QAEXK@Z ; CPythonPlayer::ChangeCurrentSkillNumberOnly
PUBLIC	?__UseCurrentSkill@CPythonPlayer@@IAEXXZ	; CPythonPlayer::__UseCurrentSkill
PUBLIC	?__UseSkill@CPythonPlayer@@IAE_NK@Z		; CPythonPlayer::__UseSkill
PUBLIC	?__HasEnoughArrow@CPythonPlayer@@IAE_NXZ	; CPythonPlayer::__HasEnoughArrow
PUBLIC	?ClearAffects@CPythonPlayer@@QAEXXZ		; CPythonPlayer::ClearAffects
PUBLIC	?SetAffect@CPythonPlayer@@QAEXI@Z		; CPythonPlayer::SetAffect
PUBLIC	?ResetAffect@CPythonPlayer@@QAEXI@Z		; CPythonPlayer::ResetAffect
PUBLIC	?__CheckDashAffect@CPythonPlayer@@IAE_NAAVCInstanceBase@@@Z ; CPythonPlayer::__CheckDashAffect
PUBLIC	?ClickSkillSlot@CPythonPlayer@@QAEXK@Z		; CPythonPlayer::ClickSkillSlot
PUBLIC	?__CheckRestSkillCoolTime@CPythonPlayer@@IAE_NK@Z ; CPythonPlayer::__CheckRestSkillCoolTime
PUBLIC	?__GetSkillType@CPythonPlayer@@IAEEK@Z		; CPythonPlayer::__GetSkillType
PUBLIC	?SetComboSkillFlag@CPythonPlayer@@UAEXH@Z	; CPythonPlayer::SetComboSkillFlag
;	COMDAT xdata$x
xdata$x	SEGMENT
__ehfuncinfo$?__UseSkill@CPythonPlayer@@IAE_NK@Z DD 019930522H
	DD	01H
	DD	FLAT:__unwindtable$?__UseSkill@CPythonPlayer@@IAE_NK@Z
	DD	2 DUP(00H)
	DD	2 DUP(00H)
	DD	00H
	DD	01H
__unwindtable$?__UseSkill@CPythonPlayer@@IAE_NK@Z DD 0ffffffffH
	DD	FLAT:__unwindfunclet$?__UseSkill@CPythonPlayer@@IAE_NK@Z$0
; Function compile flags: /Ogtp
; File D:\_m2work\Server Client TMP4\ClientVS22\source\UserInterface\PythonPlayerSkill.cpp
;	COMDAT ?SetComboSkillFlag@CPythonPlayer@@UAEXH@Z
_TEXT	SEGMENT
_dwSlotIndex$ = -4					; size = 4
_iLevel$2$ = -4						; size = 4
_bFlag$ = 8						; size = 4
?SetComboSkillFlag@CPythonPlayer@@UAEXH@Z PROC		; CPythonPlayer::SetComboSkillFlag, COMDAT
; _this$ = ecx

; 917  : {

  00000	55		 push	 ebp
  00001	8b ec		 mov	 ebp, esp
  00003	51		 push	 ecx
  00004	53		 push	 ebx
  00005	56		 push	 esi
  00006	8b d9		 mov	 ebx, ecx

; 918  : 	DWORD dwSlotIndex;
; 919  : 	if (!GetSkillSlotIndex(c_iSkillIndex_Combo, &dwSlotIndex))

  00008	8d 45 fc	 lea	 eax, DWORD PTR _dwSlotIndex$[ebp]
  0000b	50		 push	 eax
  0000c	6a 7a		 push	 122			; 0000007aH
  0000e	8d 4b fc	 lea	 ecx, DWORD PTR [ebx-4]
  00011	e8 00 00 00 00	 call	 ?GetSkillSlotIndex@CPythonPlayer@@QAE_NKPAK@Z ; CPythonPlayer::GetSkillSlotIndex
  00016	84 c0		 test	 al, al
  00018	75 17		 jne	 SHORT $LN2@SetComboSk

; 920  : 	{
; 921  : 		Tracef("CPythonPlayer::SetComboSkillFlag(killIndex=%d) - Can't Find Slot Index\n", c_iSkillIndex_Combo);

  0001a	6a 7a		 push	 122			; 0000007aH
  0001c	68 00 00 00 00	 push	 OFFSET ??_C@_0EI@OMJBNOHB@CPythonPlayer?3?3SetComboSkillFla@
  00021	e8 00 00 00 00	 call	 ?Tracef@@YAXPBDZZ	; Tracef
  00026	83 c4 08	 add	 esp, 8
  00029	5e		 pop	 esi

; 947  : 	}
; 948  : }

  0002a	5b		 pop	 ebx
  0002b	8b e5		 mov	 esp, ebp
  0002d	5d		 pop	 ebp
  0002e	c2 04 00	 ret	 4
$LN2@SetComboSk:
  00031	57		 push	 edi

; 922  : 		return;
; 923  : 	}
; 924  : 
; 925  : 	int iLevel = GetSkillLevel(dwSlotIndex);

  00032	8b 7d fc	 mov	 edi, DWORD PTR _dwSlotIndex$[ebp]
  00035	8d 4b fc	 lea	 ecx, DWORD PTR [ebx-4]
  00038	57		 push	 edi
  00039	e8 00 00 00 00	 call	 ?GetSkillLevel@CPythonPlayer@@QAEHK@Z ; CPythonPlayer::GetSkillLevel

; 926  : 	if (iLevel <= 0)

  0003e	85 c0		 test	 eax, eax
  00040	7f 19		 jg	 SHORT $LN3@SetComboSk

; 927  : 	{
; 928  : 		Tracef("CPythonPlayer::SetComboSkillFlag(skillIndex=%d, skillLevel=%d) - Invalid Combo Skill Level\n", c_iSkillIndex_Combo, iLevel);

  00042	50		 push	 eax
  00043	6a 7a		 push	 122			; 0000007aH
  00045	68 00 00 00 00	 push	 OFFSET ??_C@_0FM@DHHFNKGI@CPythonPlayer?3?3SetComboSkillFla@
  0004a	e8 00 00 00 00	 call	 ?Tracef@@YAXPBDZZ	; Tracef
  0004f	83 c4 0c	 add	 esp, 12			; 0000000cH
  00052	5f		 pop	 edi
  00053	5e		 pop	 esi

; 947  : 	}
; 948  : }

  00054	5b		 pop	 ebx
  00055	8b e5		 mov	 esp, ebp
  00057	5d		 pop	 ebp
  00058	c2 04 00	 ret	 4
$LN3@SetComboSk:

; 929  : 		return;
; 930  : 	}
; 931  : 
; 932  : 	iLevel = MIN(iLevel, 2);

  0005b	6a 02		 push	 2
  0005d	50		 push	 eax
  0005e	e8 00 00 00 00	 call	 ?MIN@@YAHHH@Z		; MIN

; 933  : 
; 934  : 	CInstanceBase* pkInstMain = NEW_GetMainActorPtr();

  00063	8b 13		 mov	 edx, DWORD PTR [ebx]
  00065	83 c4 08	 add	 esp, 8
  00068	8b cb		 mov	 ecx, ebx
  0006a	89 45 fc	 mov	 DWORD PTR _iLevel$2$[ebp], eax
  0006d	ff 92 88 00 00
	00		 call	 DWORD PTR [edx+136]

; 935  : 	if (!pkInstMain)

  00073	85 c0		 test	 eax, eax
  00075	74 32		 je	 SHORT $LN12@SetComboSk

; 936  : 		return;
; 937  : 
; 938  : 	if (bFlag)

  00077	83 7d 08 00	 cmp	 DWORD PTR _bFlag$[ebp], 0
  0007b	8b c8		 mov	 ecx, eax
  0007d	74 1a		 je	 SHORT $LN5@SetComboSk

; 939  : 	{
; 940  : 		pkInstMain->SetComboType(iLevel);

  0007f	ff 75 fc	 push	 DWORD PTR _iLevel$2$[ebp]
  00082	e8 00 00 00 00	 call	 ?SetComboType@CInstanceBase@@QAEXI@Z ; CInstanceBase::SetComboType

; 941  : 		__ActivateSkillSlot(dwSlotIndex);

  00087	57		 push	 edi
  00088	8d 4b fc	 lea	 ecx, DWORD PTR [ebx-4]
  0008b	e8 00 00 00 00	 call	 ?__ActivateSkillSlot@CPythonPlayer@@IAEXK@Z ; CPythonPlayer::__ActivateSkillSlot
  00090	5f		 pop	 edi
  00091	5e		 pop	 esi

; 947  : 	}
; 948  : }

  00092	5b		 pop	 ebx
  00093	8b e5		 mov	 esp, ebp
  00095	5d		 pop	 ebp
  00096	c2 04 00	 ret	 4
$LN5@SetComboSk:

; 942  : 	}
; 943  : 	else
; 944  : 	{
; 945  : 		pkInstMain->SetComboType(0);

  00099	6a 00		 push	 0
  0009b	e8 00 00 00 00	 call	 ?SetComboType@CInstanceBase@@QAEXI@Z ; CInstanceBase::SetComboType

; 946  : 		__DeactivateSkillSlot(dwSlotIndex);

  000a0	57		 push	 edi
  000a1	8d 4b fc	 lea	 ecx, DWORD PTR [ebx-4]
  000a4	e8 00 00 00 00	 call	 ?__DeactivateSkillSlot@CPythonPlayer@@IAEXK@Z ; CPythonPlayer::__DeactivateSkillSlot
$LN12@SetComboSk:

; 947  : 	}
; 948  : }

  000a9	5f		 pop	 edi
  000aa	5e		 pop	 esi
  000ab	5b		 pop	 ebx
  000ac	8b e5		 mov	 esp, ebp
  000ae	5d		 pop	 ebp
  000af	c2 04 00	 ret	 4
?SetComboSkillFlag@CPythonPlayer@@UAEXH@Z ENDP		; CPythonPlayer::SetComboSkillFlag
_TEXT	ENDS
; Function compile flags: /Ogtp
; File D:\_m2work\Server Client TMP4\ClientVS22\source\UserInterface\PythonPlayerSkill.cpp
;	COMDAT ?__GetSkillType@CPythonPlayer@@IAEEK@Z
_TEXT	SEGMENT
_pkSkillData$ = -4					; size = 4
_dwSkillSlotIndex$ = 8					; size = 4
?__GetSkillType@CPythonPlayer@@IAEEK@Z PROC		; CPythonPlayer::__GetSkillType, COMDAT
; _this$ = ecx

; 783  : {

  00000	55		 push	 ebp
  00001	8b ec		 mov	 ebp, esp
  00003	51		 push	 ecx

; 784  : 	TSkillInstance & rkSkillInst = m_playerStatus.aSkill[dwSkillSlotIndex];
; 785  : 
; 786  : 	CPythonSkill::TSkillData * pkSkillData;
; 787  : 	CPythonSkill& rkPythonSkill = CPythonSkill::Instance();
; 788  : 	if (!rkPythonSkill.GetSkillData(rkSkillInst.dwIndex, &pkSkillData))

  00004	8d 45 fc	 lea	 eax, DWORD PTR _pkSkillData$[ebp]
  00007	50		 push	 eax
  00008	8b 45 08	 mov	 eax, DWORD PTR _dwSkillSlotIndex$[ebp]
  0000b	8d 04 80	 lea	 eax, DWORD PTR [eax+eax*4]
  0000e	ff b4 c1 68 cb
	00 00		 push	 DWORD PTR [ecx+eax*8+52072]
  00015	8b 0d 00 00 00
	00		 mov	 ecx, DWORD PTR ?ms_singleton@?$CSingleton@VCPythonSkill@@@@0PAVCPythonSkill@@A ; CSingleton<CPythonSkill>::ms_singleton
  0001b	e8 00 00 00 00	 call	 ?GetSkillData@CPythonSkill@@QAEHKPAPAUSSkillData@1@@Z ; CPythonSkill::GetSkillData
  00020	85 c0		 test	 eax, eax
  00022	75 08		 jne	 SHORT $LN2@GetSkillTy

; 789  : 	{
; 790  : 		//TraceError("CPythonPlayer::__GetSkillType(dwSkillSlotIndex=%d) - NOT CHECK", dwSkillSlotIndex);
; 791  : 		return 0;

  00024	32 c0		 xor	 al, al

; 794  : }

  00026	8b e5		 mov	 esp, ebp
  00028	5d		 pop	 ebp
  00029	c2 04 00	 ret	 4
$LN2@GetSkillTy:

; 792  : 	}
; 793  : 	return pkSkillData->GetType();

  0002c	8b 4d fc	 mov	 ecx, DWORD PTR _pkSkillData$[ebp]
  0002f	e8 00 00 00 00	 call	 ?GetType@SSkillData@CPythonSkill@@QBEEXZ ; CPythonSkill::SSkillData::GetType

; 794  : }

  00034	8b e5		 mov	 esp, ebp
  00036	5d		 pop	 ebp
  00037	c2 04 00	 ret	 4
?__GetSkillType@CPythonPlayer@@IAEEK@Z ENDP		; CPythonPlayer::__GetSkillType
_TEXT	ENDS
; Function compile flags: /Ogtp
; File D:\_m2work\Server Client TMP4\ClientVS22\source\UserInterface\PythonPlayerSkill.cpp
;	COMDAT ?__CheckRestSkillCoolTime@CPythonPlayer@@IAE_NK@Z
_TEXT	SEGMENT
_dwSlotIndex$ = 8					; size = 4
_fElapsedTime$ = 8					; size = 4
tv163 = 8						; size = 4
?__CheckRestSkillCoolTime@CPythonPlayer@@IAE_NK@Z PROC	; CPythonPlayer::__CheckRestSkillCoolTime, COMDAT
; _this$ = ecx

; 367  : {

  00000	55		 push	 ebp
  00001	8b ec		 mov	 ebp, esp
  00003	57		 push	 edi
  00004	8b f9		 mov	 edi, ecx

; 368  : 	if (!m_sysIsCoolTime)

  00006	83 bf bc f7 00
	00 00		 cmp	 DWORD PTR [edi+63420], 0
  0000d	74 43		 je	 SHORT $LN6@CheckRestS

; 369  : 		return false;
; 370  : 
; 371  : 	if (dwSlotIndex >= SKILL_MAX_NUM)

  0000f	8b 45 08	 mov	 eax, DWORD PTR _dwSlotIndex$[ebp]
  00012	3d ff 00 00 00	 cmp	 eax, 255		; 000000ffH
  00017	73 39		 jae	 SHORT $LN6@CheckRestS

; 372  : 		return false;
; 373  : 
; 374  : 	float fElapsedTime = CTimer::Instance().GetCurrentSecond() - m_playerStatus.aSkill[dwSlotIndex].fLastUsedTime;

  00019	8b 0d 00 00 00
	00		 mov	 ecx, DWORD PTR ?ms_singleton@?$CSingleton@VCTimer@@@@0PAVCTimer@@A ; CSingleton<CTimer>::ms_singleton
  0001f	56		 push	 esi
  00020	8d 34 80	 lea	 esi, DWORD PTR [eax+eax*4]
  00023	f3 0f 10 84 f7
	88 cb 00 00	 movss	 xmm0, DWORD PTR [edi+esi*8+52104]
  0002c	f3 0f 11 45 08	 movss	 DWORD PTR tv163[ebp], xmm0
  00031	e8 00 00 00 00	 call	 ?GetCurrentSecond@CTimer@@QAEMXZ ; CTimer::GetCurrentSecond
  00036	d8 65 08	 fsub	 DWORD PTR tv163[ebp]
  00039	d9 5d 08	 fstp	 DWORD PTR _fElapsedTime$[ebp]

; 375  : 	if (fElapsedTime >= m_playerStatus.aSkill[dwSlotIndex].fCoolTime)

  0003c	f3 0f 10 45 08	 movss	 xmm0, DWORD PTR _fElapsedTime$[ebp]
  00041	0f 2f 84 f7 84
	cb 00 00	 comiss	 xmm0, DWORD PTR [edi+esi*8+52100]
  00049	5e		 pop	 esi
  0004a	5f		 pop	 edi
  0004b	0f 92 c0	 setb	 al

; 377  : 
; 378  : 	return true;
; 379  : }

  0004e	5d		 pop	 ebp
  0004f	c2 04 00	 ret	 4
$LN6@CheckRestS:

; 376  : 		return false;	

  00052	32 c0		 xor	 al, al
  00054	5f		 pop	 edi

; 377  : 
; 378  : 	return true;
; 379  : }

  00055	5d		 pop	 ebp
  00056	c2 04 00	 ret	 4
?__CheckRestSkillCoolTime@CPythonPlayer@@IAE_NK@Z ENDP	; CPythonPlayer::__CheckRestSkillCoolTime
_TEXT	ENDS
; Function compile flags: /Ogtp
; File D:\_m2work\Server Client TMP4\ClientVS22\source\UserInterface\PythonPlayerSkill.cpp
;	COMDAT ?ClickSkillSlot@CPythonPlayer@@QAEXK@Z
_TEXT	SEGMENT
_dwSlotIndex$ = 8					; size = 4
_pSkillData$ = 8					; size = 4
?ClickSkillSlot@CPythonPlayer@@QAEXK@Z PROC		; CPythonPlayer::ClickSkillSlot, COMDAT
; _this$ = ecx

; 109  : {

  00000	55		 push	 ebp
  00001	8b ec		 mov	 ebp, esp
  00003	56		 push	 esi
  00004	57		 push	 edi

; 110  : 	if (dwSlotIndex >= SKILL_MAX_NUM)

  00005	8b 7d 08	 mov	 edi, DWORD PTR _dwSlotIndex$[ebp]
  00008	8b f1		 mov	 esi, ecx
  0000a	81 ff ff 00 00
	00		 cmp	 edi, 255		; 000000ffH
  00010	0f 83 ef 00 00
	00		 jae	 $LN13@ClickSkill

; 111  : 		return;
; 112  : 
; 113  : 	TSkillInstance & rkSkillInst = m_playerStatus.aSkill[dwSlotIndex];
; 114  : 
; 115  : 	CPythonSkill::TSkillData * pSkillData;
; 116  : 	if (!CPythonSkill::Instance().GetSkillData(rkSkillInst.dwIndex, &pSkillData))

  00016	8b 0d 00 00 00
	00		 mov	 ecx, DWORD PTR ?ms_singleton@?$CSingleton@VCPythonSkill@@@@0PAVCPythonSkill@@A ; CSingleton<CPythonSkill>::ms_singleton
  0001c	8d 04 bf	 lea	 eax, DWORD PTR [edi+edi*4]
  0001f	53		 push	 ebx
  00020	8d 1c c6	 lea	 ebx, DWORD PTR [esi+eax*8]
  00023	8d 45 08	 lea	 eax, DWORD PTR _pSkillData$[ebp]
  00026	50		 push	 eax
  00027	ff b3 68 cb 00
	00		 push	 DWORD PTR [ebx+52072]
  0002d	e8 00 00 00 00	 call	 ?GetSkillData@CPythonSkill@@QAEHKPAPAUSSkillData@1@@Z ; CPythonSkill::GetSkillData
  00032	85 c0		 test	 eax, eax
  00034	0f 84 ca 00 00
	00		 je	 $LN26@ClickSkill

; 117  : 		return;
; 118  : 
; 119  : 	if (CPythonSkill::SKILL_TYPE_GUILD == pSkillData->byType)

  0003a	8b 4d 08	 mov	 ecx, DWORD PTR _pSkillData$[ebp]
  0003d	80 39 03	 cmp	 BYTE PTR [ecx], 3
  00040	75 0f		 jne	 SHORT $LN4@ClickSkill

; 120  : 	{
; 121  : 		UseGuildSkill(dwSlotIndex);

  00042	57		 push	 edi
  00043	8b ce		 mov	 ecx, esi
  00045	e8 00 00 00 00	 call	 ?UseGuildSkill@CPythonPlayer@@QAEXK@Z ; CPythonPlayer::UseGuildSkill
  0004a	5b		 pop	 ebx
  0004b	5f		 pop	 edi

; 163  : 	}
; 164  : }

  0004c	5e		 pop	 esi
  0004d	5d		 pop	 ebp
  0004e	c2 04 00	 ret	 4
$LN4@ClickSkill:

; 122  : 		return;
; 123  : 	}
; 124  : 
; 125  : 	if (!pSkillData->IsCanUseSkill())

  00051	e8 00 00 00 00	 call	 ?IsCanUseSkill@SSkillData@CPythonSkill@@QAE_NXZ ; CPythonSkill::SSkillData::IsCanUseSkill
  00056	84 c0		 test	 al, al
  00058	0f 84 a6 00 00
	00		 je	 $LN26@ClickSkill

; 126  : 		return;
; 127  : 
; 128  : 	if (pSkillData->IsStandingSkill())

  0005e	e8 00 00 00 00	 call	 ?IsStandingSkill@SSkillData@CPythonSkill@@QAEHXZ ; CPythonSkill::SSkillData::IsStandingSkill
  00063	85 c0		 test	 eax, eax
  00065	74 49		 je	 SHORT $LN6@ClickSkill

; 129  : 	{
; 130  : 		if (pSkillData->IsToggleSkill())

  00067	e8 00 00 00 00	 call	 ?IsToggleSkill@SSkillData@CPythonSkill@@QAEHXZ ; CPythonSkill::SSkillData::IsToggleSkill
  0006c	85 c0		 test	 eax, eax
  0006e	74 62		 je	 SHORT $LN15@ClickSkill

; 131  : 		{
; 132  : 			if (IsSkillActive(dwSlotIndex))

  00070	57		 push	 edi
  00071	8b ce		 mov	 ecx, esi
  00073	e8 00 00 00 00	 call	 ?IsSkillActive@CPythonPlayer@@QAEHK@Z ; CPythonPlayer::IsSkillActive
  00078	85 c0		 test	 eax, eax
  0007a	74 56		 je	 SHORT $LN15@ClickSkill

; 133  : 			{
; 134  : 				CInstanceBase * pkInstMain = NEW_GetMainActorPtr();

  0007c	8b 46 04	 mov	 eax, DWORD PTR [esi+4]
  0007f	8d 4e 04	 lea	 ecx, DWORD PTR [esi+4]
  00082	ff 90 88 00 00
	00		 call	 DWORD PTR [eax+136]

; 135  : 				if (!pkInstMain)

  00088	85 c0		 test	 eax, eax
  0008a	74 78		 je	 SHORT $LN26@ClickSkill

; 136  : 					return;
; 137  : 				if (pkInstMain->IsUsingSkill())

  0008c	8b c8		 mov	 ecx, eax
  0008e	e8 00 00 00 00	 call	 ?IsUsingSkill@CInstanceBase@@QAEHXZ ; CInstanceBase::IsUsingSkill
  00093	85 c0		 test	 eax, eax
  00095	75 6d		 jne	 SHORT $LN26@ClickSkill

; 138  : 					return;
; 139  : 
; 140  : 				CPythonNetworkStream::Instance().SendUseSkillPacket(rkSkillInst.dwIndex);

  00097	8b 0d 00 00 00
	00		 mov	 ecx, DWORD PTR ?ms_singleton@?$CSingleton@VCPythonNetworkStream@@@@0PAVCPythonNetworkStream@@A ; CSingleton<CPythonNetworkStream>::ms_singleton
  0009d	50		 push	 eax
  0009e	ff b3 68 cb 00
	00		 push	 DWORD PTR [ebx+52072]
  000a4	e8 00 00 00 00	 call	 ?SendUseSkillPacket@CPythonNetworkStream@@QAE_NKK@Z ; CPythonNetworkStream::SendUseSkillPacket
  000a9	5b		 pop	 ebx
  000aa	5f		 pop	 edi

; 163  : 	}
; 164  : }

  000ab	5e		 pop	 esi
  000ac	5d		 pop	 ebp
  000ad	c2 04 00	 ret	 4
$LN6@ClickSkill:

; 141  : 				return;
; 142  : 			}
; 143  : 		}
; 144  : 
; 145  : 		__UseSkill(dwSlotIndex);
; 146  : 		return;
; 147  : 	}
; 148  : 
; 149  : 	if (m_dwcurSkillSlotIndex == dwSlotIndex)

  000b0	8b 86 4c f7 00
	00		 mov	 eax, DWORD PTR [esi+63308]
  000b6	8b ce		 mov	 ecx, esi
  000b8	3b c7		 cmp	 eax, edi
  000ba	75 0d		 jne	 SHORT $LN11@ClickSkill

; 150  : 	{
; 151  : 		__UseSkill(m_dwcurSkillSlotIndex);

  000bc	50		 push	 eax
  000bd	e8 00 00 00 00	 call	 ?__UseSkill@CPythonPlayer@@IAE_NK@Z ; CPythonPlayer::__UseSkill
  000c2	5b		 pop	 ebx
  000c3	5f		 pop	 edi

; 163  : 	}
; 164  : }

  000c4	5e		 pop	 esi
  000c5	5d		 pop	 ebp
  000c6	c2 04 00	 ret	 4
$LN11@ClickSkill:

; 152  : 		return;
; 153  : 	}
; 154  : 
; 155  : 	if (!__IsRightButtonSkillMode())

  000c9	e8 00 00 00 00	 call	 ?__IsRightButtonSkillMode@CPythonPlayer@@IAEHXZ ; CPythonPlayer::__IsRightButtonSkillMode
  000ce	85 c0		 test	 eax, eax
  000d0	75 0f		 jne	 SHORT $LN12@ClickSkill
$LN15@ClickSkill:

; 156  : 	{
; 157  : 		__UseSkill(dwSlotIndex);

  000d2	57		 push	 edi
  000d3	8b ce		 mov	 ecx, esi
  000d5	e8 00 00 00 00	 call	 ?__UseSkill@CPythonPlayer@@IAE_NK@Z ; CPythonPlayer::__UseSkill
  000da	5b		 pop	 ebx
  000db	5f		 pop	 edi

; 163  : 	}
; 164  : }

  000dc	5e		 pop	 esi
  000dd	5d		 pop	 ebp
  000de	c2 04 00	 ret	 4
$LN12@ClickSkill:

; 158  : 	}
; 159  : 	else
; 160  : 	{
; 161  : 		m_dwcurSkillSlotIndex = dwSlotIndex;
; 162  : 		PyCallClassMemberFunc(m_ppyGameWindow, "ChangeCurrentSkill", Py_BuildValue("(i)", dwSlotIndex));

  000e1	57		 push	 edi
  000e2	68 00 00 00 00	 push	 OFFSET ??_C@_03LIHNMIHG@?$CIi?$CJ@
  000e7	89 be 4c f7 00
	00		 mov	 DWORD PTR [esi+63308], edi
  000ed	ff 15 00 00 00
	00		 call	 DWORD PTR __imp__Py_BuildValue
  000f3	50		 push	 eax
  000f4	68 00 00 00 00	 push	 OFFSET ??_C@_0BD@IOEPNDLO@ChangeCurrentSkill@
  000f9	ff 76 08	 push	 DWORD PTR [esi+8]
  000fc	e8 00 00 00 00	 call	 ?PyCallClassMemberFunc@@YA_NPAU_object@@PBD0@Z ; PyCallClassMemberFunc
  00101	83 c4 14	 add	 esp, 20			; 00000014H
$LN26@ClickSkill:
  00104	5b		 pop	 ebx
$LN13@ClickSkill:
  00105	5f		 pop	 edi

; 163  : 	}
; 164  : }

  00106	5e		 pop	 esi
  00107	5d		 pop	 ebp
  00108	c2 04 00	 ret	 4
?ClickSkillSlot@CPythonPlayer@@QAEXK@Z ENDP		; CPythonPlayer::ClickSkillSlot
_TEXT	ENDS
; Function compile flags: /Ogtp
; File D:\_m2work\Server Client TMP4\ClientVS22\source\UserInterface\PythonPlayerSkill.cpp
;	COMDAT ?__CheckDashAffect@CPythonPlayer@@IAE_NAAVCInstanceBase@@@Z
_TEXT	SEGMENT
_rkInstMain$ = 8					; size = 4
?__CheckDashAffect@CPythonPlayer@@IAE_NAAVCInstanceBase@@@Z PROC ; CPythonPlayer::__CheckDashAffect, COMDAT
; _this$dead$ = ecx

; 382  : {

  00000	55		 push	 ebp
  00001	8b ec		 mov	 ebp, esp

; 383  : 	return rkInstMain.IsAffect(CInstanceBase::AFFECT_DASH);

  00003	8b 4d 08	 mov	 ecx, DWORD PTR _rkInstMain$[ebp]
  00006	6a 1f		 push	 31			; 0000001fH
  00008	e8 00 00 00 00	 call	 ?IsAffect@CInstanceBase@@QAE_NI@Z ; CInstanceBase::IsAffect

; 384  : }

  0000d	5d		 pop	 ebp
  0000e	c2 04 00	 ret	 4
?__CheckDashAffect@CPythonPlayer@@IAE_NAAVCInstanceBase@@@Z ENDP ; CPythonPlayer::__CheckDashAffect
_TEXT	ENDS
; Function compile flags: /Ogtp
; File D:\_m2work\Server Client TMP4\ClientVS22\source\UserInterface\PythonPlayerSkill.cpp
;	COMDAT ?ResetAffect@CPythonPlayer@@QAEXI@Z
_TEXT	SEGMENT
_pSkillData$ = -4					; size = 4
_uAffect$ = 8						; size = 4
_dwSkillIndex$ = 8					; size = 4
_dwSkillSlotIndex$ = 8					; size = 4
?ResetAffect@CPythonPlayer@@QAEXI@Z PROC		; CPythonPlayer::ResetAffect, COMDAT
; _this$ = ecx

; 40   : {

  00000	55		 push	 ebp
  00001	8b ec		 mov	 ebp, esp
  00003	51		 push	 ecx
  00004	56		 push	 esi

; 41   : 	// 2004.07.17.myevan.스킬 아닌 이펙트가 안 사라지는 문제 
; 42   : 	PyCallClassMemberFunc(m_ppyGameWindow, "ResetAffect", Py_BuildValue("(i)", uAffect));

  00005	8b 75 08	 mov	 esi, DWORD PTR _uAffect$[ebp]
  00008	57		 push	 edi
  00009	56		 push	 esi
  0000a	68 00 00 00 00	 push	 OFFSET ??_C@_03LIHNMIHG@?$CIi?$CJ@
  0000f	8b f9		 mov	 edi, ecx
  00011	ff 15 00 00 00
	00		 call	 DWORD PTR __imp__Py_BuildValue
  00017	50		 push	 eax
  00018	68 00 00 00 00	 push	 OFFSET ??_C@_0M@HBOAHMLO@ResetAffect@
  0001d	ff 77 08	 push	 DWORD PTR [edi+8]
  00020	e8 00 00 00 00	 call	 ?PyCallClassMemberFunc@@YA_NPAU_object@@PBD0@Z ; PyCallClassMemberFunc
  00025	83 c4 14	 add	 esp, 20			; 00000014H

; 43   : 
; 44   : 	DWORD dwSkillIndex;
; 45   : 	if (!AffectIndexToSkillIndex(uAffect, &dwSkillIndex))

  00028	8d 45 08	 lea	 eax, DWORD PTR _dwSkillIndex$[ebp]
  0002b	8b cf		 mov	 ecx, edi
  0002d	50		 push	 eax
  0002e	56		 push	 esi
  0002f	e8 00 00 00 00	 call	 ?AffectIndexToSkillIndex@CPythonPlayer@@QAE_NKPAK@Z ; CPythonPlayer::AffectIndexToSkillIndex
  00034	84 c0		 test	 al, al
  00036	74 3d		 je	 SHORT $LN1@ResetAffec

; 46   : 		return;
; 47   : 
; 48   : 	CPythonSkill::TSkillData * pSkillData;
; 49   : 	if (!CPythonSkill::Instance().GetSkillData(dwSkillIndex, &pSkillData))

  00038	8b 75 08	 mov	 esi, DWORD PTR _dwSkillIndex$[ebp]
  0003b	8d 45 fc	 lea	 eax, DWORD PTR _pSkillData$[ebp]
  0003e	8b 0d 00 00 00
	00		 mov	 ecx, DWORD PTR ?ms_singleton@?$CSingleton@VCPythonSkill@@@@0PAVCPythonSkill@@A ; CSingleton<CPythonSkill>::ms_singleton
  00044	50		 push	 eax
  00045	56		 push	 esi
  00046	e8 00 00 00 00	 call	 ?GetSkillData@CPythonSkill@@QAEHKPAPAUSSkillData@1@@Z ; CPythonSkill::GetSkillData
  0004b	85 c0		 test	 eax, eax
  0004d	74 26		 je	 SHORT $LN1@ResetAffec

; 50   : 		return;
; 51   : 
; 52   : 	if (!pSkillData->IsToggleSkill())

  0004f	8b 4d fc	 mov	 ecx, DWORD PTR _pSkillData$[ebp]
  00052	e8 00 00 00 00	 call	 ?IsToggleSkill@SSkillData@CPythonSkill@@QAEHXZ ; CPythonSkill::SSkillData::IsToggleSkill
  00057	85 c0		 test	 eax, eax
  00059	74 1a		 je	 SHORT $LN1@ResetAffec

; 53   : 		return;
; 54   : 
; 55   : 	DWORD dwSkillSlotIndex;
; 56   : 	if (!GetSkillSlotIndex(dwSkillIndex, &dwSkillSlotIndex))

  0005b	8d 45 08	 lea	 eax, DWORD PTR _dwSkillSlotIndex$[ebp]
  0005e	8b cf		 mov	 ecx, edi
  00060	50		 push	 eax
  00061	56		 push	 esi
  00062	e8 00 00 00 00	 call	 ?GetSkillSlotIndex@CPythonPlayer@@QAE_NKPAK@Z ; CPythonPlayer::GetSkillSlotIndex
  00067	84 c0		 test	 al, al
  00069	74 0a		 je	 SHORT $LN1@ResetAffec

; 57   : 		return;
; 58   : 
; 59   : 	__DeactivateSkillSlot(dwSkillSlotIndex);

  0006b	ff 75 08	 push	 DWORD PTR _dwSkillSlotIndex$[ebp]
  0006e	8b cf		 mov	 ecx, edi
  00070	e8 00 00 00 00	 call	 ?__DeactivateSkillSlot@CPythonPlayer@@IAEXK@Z ; CPythonPlayer::__DeactivateSkillSlot
$LN1@ResetAffec:

; 60   : }

  00075	5f		 pop	 edi
  00076	5e		 pop	 esi
  00077	8b e5		 mov	 esp, ebp
  00079	5d		 pop	 ebp
  0007a	c2 04 00	 ret	 4
?ResetAffect@CPythonPlayer@@QAEXI@Z ENDP		; CPythonPlayer::ResetAffect
_TEXT	ENDS
; Function compile flags: /Ogtp
; File D:\_m2work\Server Client TMP4\ClientVS22\source\UserInterface\PythonPlayerSkill.cpp
;	COMDAT ?SetAffect@CPythonPlayer@@QAEXI@Z
_TEXT	SEGMENT
_pSkillData$ = -4					; size = 4
_uAffect$ = 8						; size = 4
_dwSkillIndex$ = 8					; size = 4
_dwSkillSlotIndex$ = 8					; size = 4
?SetAffect@CPythonPlayer@@QAEXI@Z PROC			; CPythonPlayer::SetAffect, COMDAT
; _this$ = ecx

; 16   : {

  00000	55		 push	 ebp
  00001	8b ec		 mov	 ebp, esp
  00003	51		 push	 ecx
  00004	56		 push	 esi

; 17   : 	PyCallClassMemberFunc(m_ppyGameWindow, "SetAffect", Py_BuildValue("(i)", uAffect));

  00005	8b 75 08	 mov	 esi, DWORD PTR _uAffect$[ebp]
  00008	57		 push	 edi
  00009	56		 push	 esi
  0000a	68 00 00 00 00	 push	 OFFSET ??_C@_03LIHNMIHG@?$CIi?$CJ@
  0000f	8b f9		 mov	 edi, ecx
  00011	ff 15 00 00 00
	00		 call	 DWORD PTR __imp__Py_BuildValue
  00017	50		 push	 eax
  00018	68 00 00 00 00	 push	 OFFSET ??_C@_09FHCBCPJO@SetAffect@
  0001d	ff 77 08	 push	 DWORD PTR [edi+8]
  00020	e8 00 00 00 00	 call	 ?PyCallClassMemberFunc@@YA_NPAU_object@@PBD0@Z ; PyCallClassMemberFunc
  00025	83 c4 14	 add	 esp, 20			; 00000014H

; 18   : 
; 19   : 	/////
; 20   : 
; 21   : 	DWORD dwSkillIndex;
; 22   : 	if (!AffectIndexToSkillIndex(uAffect, &dwSkillIndex))

  00028	8d 45 08	 lea	 eax, DWORD PTR _dwSkillIndex$[ebp]
  0002b	8b cf		 mov	 ecx, edi
  0002d	50		 push	 eax
  0002e	56		 push	 esi
  0002f	e8 00 00 00 00	 call	 ?AffectIndexToSkillIndex@CPythonPlayer@@QAE_NKPAK@Z ; CPythonPlayer::AffectIndexToSkillIndex
  00034	84 c0		 test	 al, al
  00036	74 3d		 je	 SHORT $LN1@SetAffect

; 23   : 		return;
; 24   : 
; 25   : 	CPythonSkill::TSkillData * pSkillData;
; 26   : 	if (!CPythonSkill::Instance().GetSkillData(dwSkillIndex, &pSkillData))

  00038	8b 75 08	 mov	 esi, DWORD PTR _dwSkillIndex$[ebp]
  0003b	8d 45 fc	 lea	 eax, DWORD PTR _pSkillData$[ebp]
  0003e	8b 0d 00 00 00
	00		 mov	 ecx, DWORD PTR ?ms_singleton@?$CSingleton@VCPythonSkill@@@@0PAVCPythonSkill@@A ; CSingleton<CPythonSkill>::ms_singleton
  00044	50		 push	 eax
  00045	56		 push	 esi
  00046	e8 00 00 00 00	 call	 ?GetSkillData@CPythonSkill@@QAEHKPAPAUSSkillData@1@@Z ; CPythonSkill::GetSkillData
  0004b	85 c0		 test	 eax, eax
  0004d	74 26		 je	 SHORT $LN1@SetAffect

; 27   : 		return;
; 28   : 
; 29   : 	if (!pSkillData->IsToggleSkill())

  0004f	8b 4d fc	 mov	 ecx, DWORD PTR _pSkillData$[ebp]
  00052	e8 00 00 00 00	 call	 ?IsToggleSkill@SSkillData@CPythonSkill@@QAEHXZ ; CPythonSkill::SSkillData::IsToggleSkill
  00057	85 c0		 test	 eax, eax
  00059	74 1a		 je	 SHORT $LN1@SetAffect

; 30   : 		return;
; 31   : 
; 32   : 	DWORD dwSkillSlotIndex;
; 33   : 	if (!GetSkillSlotIndex(dwSkillIndex, &dwSkillSlotIndex))

  0005b	8d 45 08	 lea	 eax, DWORD PTR _dwSkillSlotIndex$[ebp]
  0005e	8b cf		 mov	 ecx, edi
  00060	50		 push	 eax
  00061	56		 push	 esi
  00062	e8 00 00 00 00	 call	 ?GetSkillSlotIndex@CPythonPlayer@@QAE_NKPAK@Z ; CPythonPlayer::GetSkillSlotIndex
  00067	84 c0		 test	 al, al
  00069	74 0a		 je	 SHORT $LN1@SetAffect

; 34   : 		return;
; 35   : 
; 36   : 	__ActivateSkillSlot(dwSkillSlotIndex);

  0006b	ff 75 08	 push	 DWORD PTR _dwSkillSlotIndex$[ebp]
  0006e	8b cf		 mov	 ecx, edi
  00070	e8 00 00 00 00	 call	 ?__ActivateSkillSlot@CPythonPlayer@@IAEXK@Z ; CPythonPlayer::__ActivateSkillSlot
$LN1@SetAffect:

; 37   : }

  00075	5f		 pop	 edi
  00076	5e		 pop	 esi
  00077	8b e5		 mov	 esp, ebp
  00079	5d		 pop	 ebp
  0007a	c2 04 00	 ret	 4
?SetAffect@CPythonPlayer@@QAEXI@Z ENDP			; CPythonPlayer::SetAffect
_TEXT	ENDS
; Function compile flags: /Ogtp
; File D:\_m2work\Server Client TMP4\ClientVS22\source\UserInterface\PythonPlayerSkill.cpp
;	COMDAT ?ClearAffects@CPythonPlayer@@QAEXXZ
_TEXT	SEGMENT
?ClearAffects@CPythonPlayer@@QAEXXZ PROC		; CPythonPlayer::ClearAffects, COMDAT
; _this$ = ecx

; 11   : {

  00000	56		 push	 esi

; 12   : 	PyCallClassMemberFunc(m_ppyGameWindow, "ClearAffects", Py_BuildValue("()"));

  00001	68 00 00 00 00	 push	 OFFSET ??_C@_02HCKGKOFO@?$CI?$CJ@
  00006	8b f1		 mov	 esi, ecx
  00008	ff 15 00 00 00
	00		 call	 DWORD PTR __imp__Py_BuildValue
  0000e	50		 push	 eax
  0000f	68 00 00 00 00	 push	 OFFSET ??_C@_0N@OADAMGHE@ClearAffects@
  00014	ff 76 08	 push	 DWORD PTR [esi+8]
  00017	e8 00 00 00 00	 call	 ?PyCallClassMemberFunc@@YA_NPAU_object@@PBD0@Z ; PyCallClassMemberFunc
  0001c	83 c4 10	 add	 esp, 16			; 00000010H
  0001f	5e		 pop	 esi

; 13   : }

  00020	c3		 ret	 0
?ClearAffects@CPythonPlayer@@QAEXXZ ENDP		; CPythonPlayer::ClearAffects
_TEXT	ENDS
; Function compile flags: /Ogtp
; File D:\_m2work\Server Client TMP4\ClientVS22\source\UserInterface\PythonPlayerSkill.cpp
;	COMDAT ?__HasEnoughArrow@CPythonPlayer@@IAE_NXZ
_TEXT	SEGMENT
_this$1$ = -8						; size = 4
_pItemData$ = -4					; size = 4
$T1 = -4						; size = 3
?__HasEnoughArrow@CPythonPlayer@@IAE_NXZ PROC		; CPythonPlayer::__HasEnoughArrow, COMDAT
; _this$ = ecx

; 826  : {

  00000	55		 push	 ebp
  00001	8b ec		 mov	 ebp, esp
  00003	83 ec 08	 sub	 esp, 8
  00006	8b c1		 mov	 eax, ecx

; 827  : 	CItemData * pItemData;
; 828  : 	if (CItemManager::Instance().GetItemDataPointer(GetItemIndex(TItemPos(INVENTORY, c_Equipment_Arrow)), &pItemData))

  00008	c6 45 fc 01	 mov	 BYTE PTR $T1[ebp], 1
  0000c	53		 push	 ebx
  0000d	89 45 f8	 mov	 DWORD PTR _this$1$[ebp], eax
  00010	56		 push	 esi
  00011	8d 58 04	 lea	 ebx, DWORD PTR [eax+4]
  00014	8b 03		 mov	 eax, DWORD PTR [ebx]
  00016	57		 push	 edi
  00017	8b 3d 00 00 00
	00		 mov	 edi, DWORD PTR ?ms_singleton@?$CSingleton@VCItemManager@@@@0PAVCItemManager@@A ; CSingleton<CItemManager>::ms_singleton
  0001d	51		 push	 ecx
  0001e	8b 70 40	 mov	 esi, DWORD PTR [eax+64]
  00021	8b d4		 mov	 edx, esp
  00023	b8 63 00 00 00	 mov	 eax, 99			; 00000063H
  00028	8b cb		 mov	 ecx, ebx
  0002a	66 89 45 fd	 mov	 WORD PTR $T1[ebp+1], ax
  0002e	66 8b 45 fc	 mov	 ax, WORD PTR $T1[ebp]
  00032	66 89 02	 mov	 WORD PTR [edx], ax
  00035	8a 45 fe	 mov	 al, BYTE PTR $T1[ebp+2]
  00038	88 42 02	 mov	 BYTE PTR [edx+2], al
  0003b	ff d6		 call	 esi
  0003d	8d 4d fc	 lea	 ecx, DWORD PTR _pItemData$[ebp]
  00040	51		 push	 ecx
  00041	50		 push	 eax
  00042	8b cf		 mov	 ecx, edi
  00044	e8 00 00 00 00	 call	 ?GetItemDataPointer@CItemManager@@QAEHKPAPAVCItemData@@@Z ; CItemManager::GetItemDataPointer
  00049	85 c0		 test	 eax, eax
  0004b	74 21		 je	 SHORT $LN4@HasEnoughA

; 829  : 	if (CItemData::ITEM_TYPE_WEAPON == pItemData->GetType())

  0004d	8b 4d fc	 mov	 ecx, DWORD PTR _pItemData$[ebp]
  00050	e8 00 00 00 00	 call	 ?GetType@CItemData@@QBEEXZ ; CItemData::GetType
  00055	3c 01		 cmp	 al, 1
  00057	75 15		 jne	 SHORT $LN4@HasEnoughA

; 830  : 	if (CItemData::WEAPON_ARROW == pItemData->GetSubType())

  00059	8b 4d fc	 mov	 ecx, DWORD PTR _pItemData$[ebp]
  0005c	e8 00 00 00 00	 call	 ?GetSubType@CItemData@@QBEEXZ ; CItemData::GetSubType
  00061	3c 06		 cmp	 al, 6
  00063	75 09		 jne	 SHORT $LN4@HasEnoughA

; 831  : 	{
; 832  : 		return true;

  00065	b0 01		 mov	 al, 1

; 837  : }

  00067	5f		 pop	 edi
  00068	5e		 pop	 esi
  00069	5b		 pop	 ebx
  0006a	8b e5		 mov	 esp, ebp
  0006c	5d		 pop	 ebp
  0006d	c3		 ret	 0
$LN4@HasEnoughA:

; 833  : 	}
; 834  : 
; 835  : 	PyCallClassMemberFunc(m_ppyGameWindow, "OnCannotShotError", Py_BuildValue("(is)", GetMainCharacterIndex(), "EMPTY_ARROW"));

  0006e	8b 03		 mov	 eax, DWORD PTR [ebx]
  00070	8b cb		 mov	 ecx, ebx
  00072	68 00 00 00 00	 push	 OFFSET ??_C@_0M@FBIHMJDM@EMPTY_ARROW@
  00077	ff 50 04	 call	 DWORD PTR [eax+4]
  0007a	50		 push	 eax
  0007b	68 00 00 00 00	 push	 OFFSET ??_C@_04JMLDJNEM@?$CIis?$CJ@
  00080	ff 15 00 00 00
	00		 call	 DWORD PTR __imp__Py_BuildValue
  00086	50		 push	 eax
  00087	8b 45 f8	 mov	 eax, DWORD PTR _this$1$[ebp]
  0008a	68 00 00 00 00	 push	 OFFSET ??_C@_0BC@FKINMGLI@OnCannotShotError@
  0008f	ff 70 08	 push	 DWORD PTR [eax+8]
  00092	e8 00 00 00 00	 call	 ?PyCallClassMemberFunc@@YA_NPAU_object@@PBD0@Z ; PyCallClassMemberFunc
  00097	83 c4 18	 add	 esp, 24			; 00000018H

; 836  : 	return false;

  0009a	32 c0		 xor	 al, al

; 837  : }

  0009c	5f		 pop	 edi
  0009d	5e		 pop	 esi
  0009e	5b		 pop	 ebx
  0009f	8b e5		 mov	 esp, ebp
  000a1	5d		 pop	 ebp
  000a2	c3		 ret	 0
?__HasEnoughArrow@CPythonPlayer@@IAE_NXZ ENDP		; CPythonPlayer::__HasEnoughArrow
_TEXT	ENDS
; Function compile flags: /Ogtp
; File D:\_m2work\Server Client TMP4\ClientVS22\source\UserInterface\PythonPlayerSkill.cpp
; File C:\Program Files\Microsoft Visual Studio\2022\Community\VC\Tools\MSVC\14.44.35207\include\vector
; File D:\_m2work\Server Client TMP4\ClientVS22\source\UserInterface\PythonPlayerSkill.cpp
; File C:\Program Files\Microsoft Visual Studio\2022\Community\VC\Tools\MSVC\14.44.35207\include\vector
; File D:\_m2work\Server Client TMP4\ClientVS22\source\UserInterface\PythonPlayerSkill.cpp
; File C:\Program Files\Microsoft Visual Studio\2022\Community\VC\Tools\MSVC\14.44.35207\include\vector
; File D:\_m2work\Server Client TMP4\ClientVS22\source\UserInterface\PythonPlayerSkill.cpp
; File C:\Program Files\Microsoft Visual Studio\2022\Community\VC\Tools\MSVC\14.44.35207\include\vector
; File D:\_m2work\Server Client TMP4\ClientVS22\source\UserInterface\PythonPlayerSkill.cpp
; File C:\Program Files\Microsoft Visual Studio\2022\Community\VC\Tools\MSVC\14.44.35207\include\vector
; File D:\_m2work\Server Client TMP4\ClientVS22\source\UserInterface\PythonPlayerSkill.cpp
; File C:\Program Files\Microsoft Visual Studio\2022\Community\VC\Tools\MSVC\14.44.35207\include\vector
; File D:\_m2work\Server Client TMP4\ClientVS22\source\UserInterface\PythonPlayerSkill.cpp
; File C:\Program Files\Microsoft Visual Studio\2022\Community\VC\Tools\MSVC\14.44.35207\include\vector
; File D:\_m2work\Server Client TMP4\ClientVS22\source\UserInterface\PythonPlayerSkill.cpp
; File C:\Program Files\Microsoft Visual Studio\2022\Community\VC\Tools\MSVC\14.44.35207\include\vector
; File D:\_m2work\Server Client TMP4\ClientVS22\source\UserInterface\PythonPlayerSkill.cpp
;	COMDAT ?__UseSkill@CPythonPlayer@@IAE_NK@Z
_TEXT	SEGMENT
_kVct_pkInstTarget$2 = -92				; size = 12
tv1050 = -80						; size = 4
tv1054 = -80						; size = 4
_dwSlotIndex$GSCopy$1$ = -76				; size = 4
tv964 = -72						; size = 4
_pkInstMain$1$ = -68					; size = 4
_pkInstTarget$2$ = -64					; size = 4
tv1044 = -60						; size = 4
_dwTargetCount$1$ = -60					; size = 4
_dwPickedActorID$3 = -56				; size = 4
tv1059 = -56						; size = 4
_dwSkillRange$1$ = -56					; size = 4
_dwRange$1$ = -56					; size = 4
_pkInstEach$1$ = -56					; size = 4
_pkInstEach$1$ = -56					; size = 4
_pkInstTarget$ = -52					; size = 4
_dwTargetMaxCount$1$ = -52				; size = 4
_pSkillData$ = -48					; size = 4
_this$GSCopy$1$ = -44					; size = 4
_kPPosPickedGround$4 = -40				; size = 12
$T5 = -40						; size = 12
$T6 = -40						; size = 12
_kPPosDst$7 = -28					; size = 12
__$ArrayPad$ = -16					; size = 4
__$EHRec$ = -12						; size = 12
_dwSlotIndex$ = 8					; size = 4
?__UseSkill@CPythonPlayer@@IAE_NK@Z PROC		; CPythonPlayer::__UseSkill, COMDAT
; _this$ = ecx

; 461  : {

  00000	55		 push	 ebp
  00001	8b ec		 mov	 ebp, esp
  00003	6a ff		 push	 -1
  00005	68 00 00 00 00	 push	 __ehhandler$?__UseSkill@CPythonPlayer@@IAE_NK@Z
  0000a	64 a1 00 00 00
	00		 mov	 eax, DWORD PTR fs:0
  00010	50		 push	 eax
  00011	83 ec 50	 sub	 esp, 80			; 00000050H
  00014	a1 00 00 00 00	 mov	 eax, DWORD PTR ___security_cookie
  00019	33 c5		 xor	 eax, ebp
  0001b	89 45 f0	 mov	 DWORD PTR __$ArrayPad$[ebp], eax
  0001e	56		 push	 esi
  0001f	57		 push	 edi
  00020	50		 push	 eax
  00021	8d 45 f4	 lea	 eax, DWORD PTR __$EHRec$[ebp]
  00024	64 a3 00 00 00
	00		 mov	 DWORD PTR fs:0, eax
  0002a	8b f1		 mov	 esi, ecx
  0002c	89 75 d4	 mov	 DWORD PTR _this$GSCopy$1$[ebp], esi
  0002f	8b 7d 08	 mov	 edi, DWORD PTR _dwSlotIndex$[ebp]
  00032	89 7d b4	 mov	 DWORD PTR _dwSlotIndex$GSCopy$1$[ebp], edi

; 462  : 	// PrivateShop
; 463  : 	if (IsOpenPrivateShop())

  00035	e8 00 00 00 00	 call	 ?IsOpenPrivateShop@CPythonPlayer@@QAE_NXZ ; CPythonPlayer::IsOpenPrivateShop
  0003a	84 c0		 test	 al, al
  0003c	0f 85 30 07 00
	00		 jne	 $LN179@UseSkill

; 464  : 	{
; 465  : 		return true;
; 466  : 	}
; 467  : 
; 468  : 	if (!__CanUseSkill())

  00042	e8 00 00 00 00	 call	 ?__CanUseSkill@CPythonPlayer@@IAE_NXZ ; CPythonPlayer::__CanUseSkill
  00047	84 c0		 test	 al, al
  00049	74 16		 je	 SHORT $LN174@UseSkill

; 469  : 	{
; 470  : 		return false;
; 471  : 	}
; 472  : 
; 473  : 	if (dwSlotIndex >= SKILL_MAX_NUM)

  0004b	81 ff ff 00 00
	00		 cmp	 edi, 255		; 000000ffH
  00051	72 15		 jb	 SHORT $LN12@UseSkill

; 474  : 	{
; 475  : 		Tracenf("CPythonPlayer::__UseSkill(dwSlotIndex=%d) It's not available skill slot number", dwSlotIndex);

  00053	57		 push	 edi
  00054	68 00 00 00 00	 push	 OFFSET ??_C@_0EP@OENNGPFB@CPythonPlayer?3?3__UseSkill?$CIdwSlo@
  00059	e8 00 00 00 00	 call	 ?Tracenf@@YAXPBDZZ	; Tracenf
  0005e	83 c4 08	 add	 esp, 8
$LN174@UseSkill:

; 769  : 	return true;
; 770  : }

  00061	32 c0		 xor	 al, al
  00063	e9 0c 07 00 00	 jmp	 $LN1@UseSkill
$LN12@UseSkill:

; 476  : 		return false;
; 477  : 	}
; 478  : 
; 479  : 	TSkillInstance & rkSkillInst = m_playerStatus.aSkill[dwSlotIndex];

  00068	8d 04 bf	 lea	 eax, DWORD PTR [edi+edi*4]

; 480  : 
; 481  : 	if (__CheckSpecialSkill(rkSkillInst.dwIndex))

  0006b	8b ce		 mov	 ecx, esi
  0006d	ff b4 c6 68 cb
	00 00		 push	 DWORD PTR [esi+eax*8+52072]
  00074	89 45 b8	 mov	 DWORD PTR tv964[ebp], eax
  00077	e8 00 00 00 00	 call	 ?__CheckSpecialSkill@CPythonPlayer@@IAE_NK@Z ; CPythonPlayer::__CheckSpecialSkill
  0007c	84 c0		 test	 al, al
  0007e	0f 85 ee 06 00
	00		 jne	 $LN179@UseSkill

; 482  : 	{
; 483  : 		return true;
; 484  : 	}
; 485  : 
; 486  : 	CPythonSkill::TSkillData * pSkillData;
; 487  : 	if (!CPythonSkill::Instance().GetSkillData(rkSkillInst.dwIndex, &pSkillData))

  00084	8b 0d 00 00 00
	00		 mov	 ecx, DWORD PTR ?ms_singleton@?$CSingleton@VCPythonSkill@@@@0PAVCPythonSkill@@A ; CSingleton<CPythonSkill>::ms_singleton
  0008a	8d 45 d0	 lea	 eax, DWORD PTR _pSkillData$[ebp]
  0008d	50		 push	 eax
  0008e	8b 45 b8	 mov	 eax, DWORD PTR tv964[ebp]
  00091	ff b4 c6 68 cb
	00 00		 push	 DWORD PTR [esi+eax*8+52072]
  00098	e8 00 00 00 00	 call	 ?GetSkillData@CPythonSkill@@QAEHKPAPAUSSkillData@1@@Z ; CPythonSkill::GetSkillData
  0009d	85 c0		 test	 eax, eax
  0009f	75 15		 jne	 SHORT $LN14@UseSkill

; 488  : 	{
; 489  : 		Tracenf("CPythonPlayer::__UseSkill(dwSlotIndex=%d) There is no skill data", dwSlotIndex);

  000a1	57		 push	 edi
  000a2	68 00 00 00 00	 push	 OFFSET ??_C@_0EB@JKMJGFLB@CPythonPlayer?3?3__UseSkill?$CIdwSlo@
  000a7	e8 00 00 00 00	 call	 ?Tracenf@@YAXPBDZZ	; Tracenf
  000ac	83 c4 08	 add	 esp, 8

; 490  : 		return false;

  000af	32 c0		 xor	 al, al
  000b1	e9 be 06 00 00	 jmp	 $LN1@UseSkill
$LN14@UseSkill:

; 491  : 	}
; 492  : 
; 493  : 	if (pSkillData->IsToggleSkill())

  000b6	8b 4d d0	 mov	 ecx, DWORD PTR _pSkillData$[ebp]
  000b9	e8 00 00 00 00	 call	 ?IsToggleSkill@SSkillData@CPythonSkill@@QAEHXZ ; CPythonSkill::SSkillData::IsToggleSkill
  000be	85 c0		 test	 eax, eax
  000c0	74 29		 je	 SHORT $LN16@UseSkill

; 494  : 	{
; 495  : 		if (IsSkillActive(dwSlotIndex))

  000c2	57		 push	 edi
  000c3	8b ce		 mov	 ecx, esi
  000c5	e8 00 00 00 00	 call	 ?IsSkillActive@CPythonPlayer@@QAEHK@Z ; CPythonPlayer::IsSkillActive
  000ca	85 c0		 test	 eax, eax
  000cc	74 1d		 je	 SHORT $LN16@UseSkill

; 496  : 		{
; 497  : 			CPythonNetworkStream::Instance().SendUseSkillPacket(rkSkillInst.dwIndex, dwSlotIndex);

  000ce	8b 45 b8	 mov	 eax, DWORD PTR tv964[ebp]
  000d1	8b 0d 00 00 00
	00		 mov	 ecx, DWORD PTR ?ms_singleton@?$CSingleton@VCPythonNetworkStream@@@@0PAVCPythonNetworkStream@@A ; CSingleton<CPythonNetworkStream>::ms_singleton
  000d7	57		 push	 edi
  000d8	ff b4 c6 68 cb
	00 00		 push	 DWORD PTR [esi+eax*8+52072]
  000df	e8 00 00 00 00	 call	 ?SendUseSkillPacket@CPythonNetworkStream@@QAE_NKK@Z ; CPythonNetworkStream::SendUseSkillPacket

; 498  : 			return false;

  000e4	32 c0		 xor	 al, al
  000e6	e9 89 06 00 00	 jmp	 $LN1@UseSkill
$LN16@UseSkill:

; 499  : 		}
; 500  : 	}
; 501  : 
; 502  : 	if (!__CheckSkillUsable(dwSlotIndex))

  000eb	57		 push	 edi
  000ec	8b ce		 mov	 ecx, esi
  000ee	e8 00 00 00 00	 call	 ?__CheckSkillUsable@CPythonPlayer@@IAE_NK@Z ; CPythonPlayer::__CheckSkillUsable
  000f3	84 c0		 test	 al, al
  000f5	0f 84 66 ff ff
	ff		 je	 $LN174@UseSkill

; 503  : 	{
; 504  : 		return false;
; 505  : 	}
; 506  : 
; 507  : 	CInstanceBase * pkInstMain = NEW_GetMainActorPtr();

  000fb	8b 46 04	 mov	 eax, DWORD PTR [esi+4]
  000fe	8d 4e 04	 lea	 ecx, DWORD PTR [esi+4]
  00101	89 4d c4	 mov	 DWORD PTR tv1044[ebp], ecx
  00104	8b 80 88 00 00
	00		 mov	 eax, DWORD PTR [eax+136]
  0010a	ff d0		 call	 eax
  0010c	8b f0		 mov	 esi, eax
  0010e	89 75 bc	 mov	 DWORD PTR _pkInstMain$1$[ebp], esi

; 508  : 	if (!pkInstMain)

  00111	85 f6		 test	 esi, esi
  00113	75 15		 jne	 SHORT $LN18@UseSkill

; 509  : 	{
; 510  : 		Tracenf("CPythonPlayer::__UseSkill(dwSlotIndex=%d) There is no main player", dwSlotIndex);

  00115	57		 push	 edi
  00116	68 00 00 00 00	 push	 OFFSET ??_C@_0EC@MMFCNDJC@CPythonPlayer?3?3__UseSkill?$CIdwSlo@
  0011b	e8 00 00 00 00	 call	 ?Tracenf@@YAXPBDZZ	; Tracenf
  00120	83 c4 08	 add	 esp, 8

; 511  : 		return false;

  00123	32 c0		 xor	 al, al
  00125	e9 4a 06 00 00	 jmp	 $LN1@UseSkill
$LN18@UseSkill:

; 512  : 	}
; 513  : 
; 514  : 	if (pkInstMain->IsUsingSkill())

  0012a	8b ce		 mov	 ecx, esi
  0012c	e8 00 00 00 00	 call	 ?IsUsingSkill@CInstanceBase@@QAEHXZ ; CInstanceBase::IsUsingSkill
  00131	85 c0		 test	 eax, eax
  00133	0f 85 28 ff ff
	ff		 jne	 $LN174@UseSkill

; 515  : 	{
; 516  : 		return false;
; 517  : 	}
; 518  : 
; 519  : 	CInstanceBase * pkInstTarget = NULL;
; 520  : 
; 521  : 	// NOTE : 타겟이 필요한 경우
; 522  : 	if (pSkillData->IsNeedTarget() ||
; 523  : 		pSkillData->CanChangeDirection() ||

  00139	8b 4d d0	 mov	 ecx, DWORD PTR _pSkillData$[ebp]
  0013c	33 ff		 xor	 edi, edi
  0013e	89 7d c0	 mov	 DWORD PTR _pkInstTarget$2$[ebp], edi
  00141	e8 00 00 00 00	 call	 ?IsNeedTarget@SSkillData@CPythonSkill@@QAEHXZ ; CPythonSkill::SSkillData::IsNeedTarget
  00146	85 c0		 test	 eax, eax
  00148	75 16		 jne	 SHORT $LN21@UseSkill
  0014a	e8 00 00 00 00	 call	 ?CanChangeDirection@SSkillData@CPythonSkill@@QAEHXZ ; CPythonSkill::SSkillData::CanChangeDirection
  0014f	85 c0		 test	 eax, eax
  00151	75 0d		 jne	 SHORT $LN21@UseSkill
  00153	e8 00 00 00 00	 call	 ?IsAutoSearchTarget@SSkillData@CPythonSkill@@QAEHXZ ; CPythonSkill::SSkillData::IsAutoSearchTarget
  00158	85 c0		 test	 eax, eax
  0015a	0f 84 c1 02 00
	00		 je	 $LN54@UseSkill
$LN21@UseSkill:

; 524  : 		pSkillData->IsAutoSearchTarget())
; 525  : 	{
; 526  : 		if (pSkillData->IsNeedCorpse())

  00160	e8 00 00 00 00	 call	 ?IsNeedCorpse@SSkillData@CPythonSkill@@QAEHXZ ; CPythonSkill::SSkillData::IsNeedCorpse
  00165	8b 4d d4	 mov	 ecx, DWORD PTR _this$GSCopy$1$[ebp]
  00168	85 c0		 test	 eax, eax
  0016a	74 07		 je	 SHORT $LN22@UseSkill

; 527  : 			pkInstTarget=__GetDeadTargetInstancePtr();

  0016c	e8 00 00 00 00	 call	 ?__GetDeadTargetInstancePtr@CPythonPlayer@@IAEPAVCInstanceBase@@XZ ; CPythonPlayer::__GetDeadTargetInstancePtr
  00171	eb 05		 jmp	 SHORT $LN193@UseSkill
$LN22@UseSkill:

; 528  : 		else
; 529  : 			pkInstTarget=__GetAliveTargetInstancePtr();

  00173	e8 00 00 00 00	 call	 ?__GetAliveTargetInstancePtr@CPythonPlayer@@IAEPAVCInstanceBase@@XZ ; CPythonPlayer::__GetAliveTargetInstancePtr
$LN193@UseSkill:

; 530  : 
; 531  : 		// 현재 타겟이 없으면..
; 532  : 		if (!pkInstTarget)

  00178	8b f8		 mov	 edi, eax
  0017a	89 7d c0	 mov	 DWORD PTR _pkInstTarget$2$[ebp], edi
  0017d	85 ff		 test	 edi, edi
  0017f	0f 85 3b 01 00
	00		 jne	 $LN172@UseSkill

; 533  : 		{
; 534  : 			// 업데이트하고..
; 535  : 			__ChangeTargetToPickedInstance();

  00185	8b 7d d4	 mov	 edi, DWORD PTR _this$GSCopy$1$[ebp]
  00188	8b cf		 mov	 ecx, edi
  0018a	e8 00 00 00 00	 call	 ?__ChangeTargetToPickedInstance@CPythonPlayer@@IAE_NXZ ; CPythonPlayer::__ChangeTargetToPickedInstance

; 536  : 
; 537  : 			// 다시 얻어낸다.
; 538  : 			if (pSkillData->IsNeedCorpse())

  0018f	8b 4d d0	 mov	 ecx, DWORD PTR _pSkillData$[ebp]
  00192	e8 00 00 00 00	 call	 ?IsNeedCorpse@SSkillData@CPythonSkill@@QAEHXZ ; CPythonSkill::SSkillData::IsNeedCorpse
  00197	8b cf		 mov	 ecx, edi
  00199	85 c0		 test	 eax, eax
  0019b	74 07		 je	 SHORT $LN25@UseSkill

; 539  : 				pkInstTarget=__GetDeadTargetInstancePtr();

  0019d	e8 00 00 00 00	 call	 ?__GetDeadTargetInstancePtr@CPythonPlayer@@IAEPAVCInstanceBase@@XZ ; CPythonPlayer::__GetDeadTargetInstancePtr
  001a2	eb 05		 jmp	 SHORT $LN194@UseSkill
$LN25@UseSkill:

; 540  : 			else
; 541  : 				pkInstTarget=__GetAliveTargetInstancePtr();

  001a4	e8 00 00 00 00	 call	 ?__GetAliveTargetInstancePtr@CPythonPlayer@@IAEPAVCInstanceBase@@XZ ; CPythonPlayer::__GetAliveTargetInstancePtr
$LN194@UseSkill:

; 542  : 		}
; 543  : 
; 544  : 		if (pkInstTarget)

  001a9	8b f8		 mov	 edi, eax
  001ab	89 7d c0	 mov	 DWORD PTR _pkInstTarget$2$[ebp], edi
  001ae	89 7d cc	 mov	 DWORD PTR _pkInstTarget$[ebp], edi
  001b1	85 ff		 test	 edi, edi
  001b3	0f 85 07 01 00
	00		 jne	 $LN172@UseSkill

; 615  : 				}
; 616  : 			}
; 617  : 		}
; 618  : 		else
; 619  : 		{
; 620  : 			if (pSkillData->IsAutoSearchTarget())

  001b9	8b 4d d0	 mov	 ecx, DWORD PTR _pSkillData$[ebp]
  001bc	e8 00 00 00 00	 call	 ?IsAutoSearchTarget@SSkillData@CPythonSkill@@QAEHXZ ; CPythonSkill::SSkillData::IsAutoSearchTarget
  001c1	85 c0		 test	 eax, eax
  001c3	0f 84 8a 00 00
	00		 je	 $LN186@UseSkill

; 621  : 			{
; 622  : 				if (pkInstMain->NEW_GetFrontInstance(&pkInstTarget, 2000.0f))

  001c9	f3 0f 10 15 00
	00 00 00	 movss	 xmm2, DWORD PTR __real@44fa0000
  001d1	8d 45 cc	 lea	 eax, DWORD PTR _pkInstTarget$[ebp]
  001d4	50		 push	 eax
  001d5	8b ce		 mov	 ecx, esi
  001d7	e8 00 00 00 00	 call	 ?NEW_GetFrontInstance@CInstanceBase@@QAE_NPAPAV1@M@Z ; CInstanceBase::NEW_GetFrontInstance
  001dc	8b 7d c4	 mov	 edi, DWORD PTR tv1044[ebp]
  001df	8b 17		 mov	 edx, DWORD PTR [edi]
  001e1	89 55 c8	 mov	 DWORD PTR tv1059[ebp], edx
  001e4	84 c0		 test	 al, al
  001e6	74 5e		 je	 SHORT $LN48@UseSkill

; 623  : 				{
; 624  : 					SetTarget(pkInstTarget->GetVirtualID());

  001e8	8b 75 cc	 mov	 esi, DWORD PTR _pkInstTarget$[ebp]
  001eb	8b ce		 mov	 ecx, esi
  001ed	e8 00 00 00 00	 call	 ?GetVirtualID@CInstanceBase@@QAEKXZ ; CInstanceBase::GetVirtualID
  001f2	6a 01		 push	 1
  001f4	50		 push	 eax
  001f5	8b 45 c8	 mov	 eax, DWORD PTR tv1059[ebp]
  001f8	8b cf		 mov	 ecx, edi
  001fa	ff 50 60	 call	 DWORD PTR [eax+96]

; 625  : 					if (!__ProcessEnemySkillTargetRange(*pkInstMain, *pkInstTarget, *pSkillData, dwSlotIndex))

  001fd	ff 75 b4	 push	 DWORD PTR _dwSlotIndex$GSCopy$1$[ebp]
  00200	8b 45 d0	 mov	 eax, DWORD PTR _pSkillData$[ebp]
  00203	8b 7d d4	 mov	 edi, DWORD PTR _this$GSCopy$1$[ebp]
  00206	8b cf		 mov	 ecx, edi
  00208	50		 push	 eax
  00209	56		 push	 esi
  0020a	8b 75 bc	 mov	 esi, DWORD PTR _pkInstMain$1$[ebp]
  0020d	56		 push	 esi
  0020e	e8 00 00 00 00	 call	 ?__ProcessEnemySkillTargetRange@CPythonPlayer@@IAE_NAAVCInstanceBase@@0AAUSSkillData@CPythonSkill@@K@Z ; CPythonPlayer::__ProcessEnemySkillTargetRange
  00213	84 c0		 test	 al, al
  00215	0f 84 46 fe ff
	ff		 je	 $LN174@UseSkill
  0021b	8b 4d d0	 mov	 ecx, DWORD PTR _pSkillData$[ebp]
$LN49@UseSkill:

; 632  : 				}
; 633  : 			}
; 634  : 
; 635  : 			if (pSkillData->CanUseForMe())

  0021e	e8 00 00 00 00	 call	 ?CanUseForMe@SSkillData@CPythonSkill@@QAEHXZ ; CPythonSkill::SSkillData::CanUseForMe
  00223	85 c0		 test	 eax, eax
  00225	74 31		 je	 SHORT $LN51@UseSkill

; 636  : 			{
; 637  : 				pkInstTarget = pkInstMain;

  00227	8b fe		 mov	 edi, esi

; 638  : 				pkInstMain->SetFlyTargetInstance(*pkInstMain);

  00229	8b ce		 mov	 ecx, esi
  0022b	56		 push	 esi
  0022c	89 7d c0	 mov	 DWORD PTR _pkInstTarget$2$[ebp], edi
  0022f	e8 00 00 00 00	 call	 ?SetFlyTargetInstance@CInstanceBase@@QAEXAAV1@@Z ; CInstanceBase::SetFlyTargetInstance

; 639  : 				Tracef(" [ALERT] 타겟이 없어서 플레이어에게 사용합니다\n");

  00234	68 00 00 00 00	 push	 OFFSET ??_C@_0DA@NPBLPNPC@?5?$FLALERT?$FN?5?E?$LI?$LA?Y?$MA?L?5?$LO?x?$LO?n?$LM?$KN?5?G?C?$LH?$LJ?$MA?L?$LO?n@
  00239	e8 00 00 00 00	 call	 ?Tracef@@YAXPBDZZ	; Tracef
  0023e	83 c4 04	 add	 esp, 4
  00241	e9 db 01 00 00	 jmp	 $LN54@UseSkill
$LN48@UseSkill:

; 626  : 						return false;
; 627  : 				}
; 628  : 				else
; 629  : 				{
; 630  : 					PyCallClassMemberFunc(m_ppyGameWindow, "OnCannotUseSkill", Py_BuildValue("(is)", GetMainCharacterIndex(), "NEED_TARGET"));

  00246	8b 42 04	 mov	 eax, DWORD PTR [edx+4]
  00249	68 00 00 00 00	 push	 OFFSET ??_C@_0M@HCIEKIGP@NEED_TARGET@

; 631  : 					return false;

  0024e	e9 9b 00 00 00	 jmp	 $LN201@UseSkill
$LN186@UseSkill:

; 615  : 				}
; 616  : 			}
; 617  : 		}
; 618  : 		else
; 619  : 		{
; 620  : 			if (pSkillData->IsAutoSearchTarget())

  00253	8b 7d d4	 mov	 edi, DWORD PTR _this$GSCopy$1$[ebp]
  00256	eb c6		 jmp	 SHORT $LN49@UseSkill
$LN51@UseSkill:

; 640  : 			}
; 641  : 			else if (pSkillData->IsNeedCorpse())

  00258	8b 77 04	 mov	 esi, DWORD PTR [edi+4]
  0025b	e8 00 00 00 00	 call	 ?IsNeedCorpse@SSkillData@CPythonSkill@@QAEHXZ ; CPythonSkill::SSkillData::IsNeedCorpse
  00260	85 c0		 test	 eax, eax
  00262	8d 4f 04	 lea	 ecx, DWORD PTR [edi+4]
  00265	8b 46 04	 mov	 eax, DWORD PTR [esi+4]
  00268	74 2b		 je	 SHORT $LN53@UseSkill

; 642  : 			{
; 643  : 				PyCallClassMemberFunc(m_ppyGameWindow, "OnCannotUseSkill", Py_BuildValue("(is)", GetMainCharacterIndex(), "ONLY_FOR_CORPSE"));

  0026a	68 00 00 00 00	 push	 OFFSET ??_C@_0BA@FPMNLALM@ONLY_FOR_CORPSE@
  0026f	ff d0		 call	 eax
  00271	50		 push	 eax
  00272	68 00 00 00 00	 push	 OFFSET ??_C@_04JMLDJNEM@?$CIis?$CJ@
  00277	ff 15 00 00 00
	00		 call	 DWORD PTR __imp__Py_BuildValue
  0027d	50		 push	 eax
  0027e	68 00 00 00 00	 push	 OFFSET ??_C@_0BB@BOHMBBJL@OnCannotUseSkill@
  00283	ff 77 08	 push	 DWORD PTR [edi+8]

; 769  : 	return true;
; 770  : }

  00286	e8 00 00 00 00	 call	 ?PyCallClassMemberFunc@@YA_NPAU_object@@PBD0@Z ; PyCallClassMemberFunc
  0028b	83 c4 18	 add	 esp, 24			; 00000018H
  0028e	32 c0		 xor	 al, al
  00290	e9 df 04 00 00	 jmp	 $LN1@UseSkill
$LN53@UseSkill:

; 644  : 				return false;
; 645  : 			}
; 646  : 			else
; 647  : 			{
; 648  : 				PyCallClassMemberFunc(m_ppyGameWindow, "OnCannotUseSkill", Py_BuildValue("(is)", GetMainCharacterIndex(), "NEED_TARGET"));

  00295	68 00 00 00 00	 push	 OFFSET ??_C@_0M@HCIEKIGP@NEED_TARGET@
  0029a	ff d0		 call	 eax
  0029c	50		 push	 eax
  0029d	68 00 00 00 00	 push	 OFFSET ??_C@_04JMLDJNEM@?$CIis?$CJ@
  002a2	ff 15 00 00 00
	00		 call	 DWORD PTR __imp__Py_BuildValue
  002a8	50		 push	 eax
  002a9	68 00 00 00 00	 push	 OFFSET ??_C@_0BB@BOHMBBJL@OnCannotUseSkill@
  002ae	ff 77 08	 push	 DWORD PTR [edi+8]

; 769  : 	return true;
; 770  : }

  002b1	e8 00 00 00 00	 call	 ?PyCallClassMemberFunc@@YA_NPAU_object@@PBD0@Z ; PyCallClassMemberFunc
  002b6	83 c4 18	 add	 esp, 24			; 00000018H
  002b9	32 c0		 xor	 al, al
  002bb	e9 b4 04 00 00	 jmp	 $LN1@UseSkill
$LN172@UseSkill:

; 545  : 		{
; 546  : 			if (pSkillData->IsOnlyForAlliance())

  002c0	8b 4d d0	 mov	 ecx, DWORD PTR _pSkillData$[ebp]
  002c3	e8 00 00 00 00	 call	 ?IsOnlyForAlliance@SSkillData@CPythonSkill@@QAEHXZ ; CPythonSkill::SSkillData::IsOnlyForAlliance
  002c8	85 c0		 test	 eax, eax
  002ca	0f 84 ed 00 00
	00		 je	 $LN29@UseSkill

; 547  : 			{
; 548  : 				if (pkInstMain == pkInstTarget)

  002d0	3b f7		 cmp	 esi, edi
  002d2	75 45		 jne	 SHORT $LN31@UseSkill

; 549  : 				{
; 550  : 					if (!pSkillData->CanUseForMe())

  002d4	e8 00 00 00 00	 call	 ?CanUseForMe@SSkillData@CPythonSkill@@QAEHXZ ; CPythonSkill::SSkillData::CanUseForMe
  002d9	85 c0		 test	 eax, eax
  002db	0f 85 1a 01 00
	00		 jne	 $LN43@UseSkill

; 551  : 					{
; 552  : 						PyCallClassMemberFunc(m_ppyGameWindow, "OnCannotUseSkill", Py_BuildValue("(is)", GetMainCharacterIndex(), "CANNOT_USE_SELF"));

  002e1	68 00 00 00 00	 push	 OFFSET ??_C@_0BA@GMGJKDGM@CANNOT_USE_SELF@
$LN197@UseSkill:

; 769  : 	return true;
; 770  : }

  002e6	8b 7d c4	 mov	 edi, DWORD PTR tv1044[ebp]
  002e9	8b 07		 mov	 eax, DWORD PTR [edi]
  002eb	8b 40 04	 mov	 eax, DWORD PTR [eax+4]
$LN201@UseSkill:
  002ee	8b cf		 mov	 ecx, edi
  002f0	ff d0		 call	 eax
  002f2	50		 push	 eax
  002f3	68 00 00 00 00	 push	 OFFSET ??_C@_04JMLDJNEM@?$CIis?$CJ@
  002f8	ff 15 00 00 00
	00		 call	 DWORD PTR __imp__Py_BuildValue
  002fe	50		 push	 eax
  002ff	8b 45 d4	 mov	 eax, DWORD PTR _this$GSCopy$1$[ebp]
  00302	68 00 00 00 00	 push	 OFFSET ??_C@_0BB@BOHMBBJL@OnCannotUseSkill@
  00307	ff 70 08	 push	 DWORD PTR [eax+8]
  0030a	e8 00 00 00 00	 call	 ?PyCallClassMemberFunc@@YA_NPAU_object@@PBD0@Z ; PyCallClassMemberFunc
  0030f	83 c4 18	 add	 esp, 24			; 00000018H
  00312	32 c0		 xor	 al, al
  00314	e9 5b 04 00 00	 jmp	 $LN1@UseSkill
$LN31@UseSkill:

; 553  : 						return false;
; 554  : 					}
; 555  : 				}
; 556  : 				else if (!pkInstMain->IsAttackableInstance(*pkInstTarget) && pkInstTarget->IsPC())

  00319	57		 push	 edi
  0031a	8b ce		 mov	 ecx, esi
  0031c	e8 00 00 00 00	 call	 ?IsAttackableInstance@CInstanceBase@@QAE_NAAV1@@Z ; CInstanceBase::IsAttackableInstance
  00321	84 c0		 test	 al, al
  00323	75 6e		 jne	 SHORT $LN34@UseSkill
  00325	8b cf		 mov	 ecx, edi
  00327	e8 00 00 00 00	 call	 ?IsPC@CInstanceBase@@QAEHXZ ; CInstanceBase::IsPC
  0032c	85 c0		 test	 eax, eax
  0032e	74 63		 je	 SHORT $LN34@UseSkill

; 557  : 				{
; 558  : 					DWORD dwSkillRange = __GetSkillTargetRange(*pSkillData);

  00330	8b 45 d0	 mov	 eax, DWORD PTR _pSkillData$[ebp]
  00333	8b 4d d4	 mov	 ecx, DWORD PTR _this$GSCopy$1$[ebp]
  00336	50		 push	 eax
  00337	e8 00 00 00 00	 call	 ?__GetSkillTargetRange@CPythonPlayer@@IAEKAAUSSkillData@CPythonSkill@@@Z ; CPythonPlayer::__GetSkillTargetRange
  0033c	89 45 c8	 mov	 DWORD PTR _dwSkillRange$1$[ebp], eax

; 559  : 
; 560  : 					if (dwSkillRange > 0)

  0033f	85 c0		 test	 eax, eax
  00341	0f 84 b4 00 00
	00		 je	 $LN43@UseSkill

; 561  : 					{
; 562  : 						float fDistance=pkInstMain->GetDistance(pkInstTarget);

  00347	57		 push	 edi
  00348	8b ce		 mov	 ecx, esi
  0034a	e8 00 00 00 00	 call	 ?GetDistance@CInstanceBase@@QAEMPAV1@@Z ; CInstanceBase::GetDistance

; 563  : 						if (fDistance>=float(dwSkillRange))

  0034f	8b 4d c8	 mov	 ecx, DWORD PTR _dwSkillRange$1$[ebp]
  00352	0f 28 d0	 movaps	 xmm2, xmm0
  00355	8b c1		 mov	 eax, ecx
  00357	c1 e8 1f	 shr	 eax, 31			; 0000001fH
  0035a	66 0f 6e c9	 movd	 xmm1, ecx
  0035e	f3 0f e6 c9	 cvtdq2pd xmm1, xmm1
  00362	f2 0f 58 0c c5
	00 00 00 00	 addsd	 xmm1, QWORD PTR __xmm@41f00000000000000000000000000000[eax*8]
  0036b	66 0f 5a c1	 cvtpd2ps xmm0, xmm1
  0036f	0f 2f d0	 comiss	 xmm2, xmm0
  00372	0f 82 83 00 00
	00		 jb	 $LN43@UseSkill

; 564  : 						{
; 565  : 							__ReserveUseSkill(pkInstTarget->GetVirtualID(), dwSlotIndex, dwSkillRange);

  00378	51		 push	 ecx
  00379	ff 75 b4	 push	 DWORD PTR _dwSlotIndex$GSCopy$1$[ebp]
  0037c	8b cf		 mov	 ecx, edi
  0037e	e8 00 00 00 00	 call	 ?GetVirtualID@CInstanceBase@@QAEKXZ ; CInstanceBase::GetVirtualID
  00383	8b 4d d4	 mov	 ecx, DWORD PTR _this$GSCopy$1$[ebp]
  00386	50		 push	 eax
  00387	e8 00 00 00 00	 call	 ?__ReserveUseSkill@CPythonPlayer@@IAEXKKK@Z ; CPythonPlayer::__ReserveUseSkill

; 566  : 							return false;

  0038c	32 c0		 xor	 al, al
  0038e	e9 e1 03 00 00	 jmp	 $LN1@UseSkill
$LN34@UseSkill:

; 567  : 						}
; 568  : 					}
; 569  : 				}
; 570  : 				else
; 571  : 				{
; 572  : 					if (pSkillData->CanUseForMe())

  00393	8b 4d d0	 mov	 ecx, DWORD PTR _pSkillData$[ebp]
  00396	e8 00 00 00 00	 call	 ?CanUseForMe@SSkillData@CPythonSkill@@QAEHXZ ; CPythonSkill::SSkillData::CanUseForMe
  0039b	85 c0		 test	 eax, eax
  0039d	74 14		 je	 SHORT $LN38@UseSkill

; 573  : 					{
; 574  : 						pkInstTarget = pkInstMain;

  0039f	8b fe		 mov	 edi, esi

; 575  : 						Tracef(" [ALERT] 동료에게 사용하는 기술임에도 적에게 타겟팅 되어있어서 자신에게로 재설정\n");

  003a1	68 00 00 00 00	 push	 OFFSET ??_C@_0FC@NMOECDOK@?5?$FLALERT?$FN?5?$LF?$LP?$LH?a?$LP?$KB?$LA?T?5?$LL?g?$LP?k?G?O?$LE?B?5?$LB?b?$LM?z@
  003a6	89 7d c0	 mov	 DWORD PTR _pkInstTarget$2$[ebp], edi
  003a9	e8 00 00 00 00	 call	 ?Tracef@@YAXPBDZZ	; Tracef
  003ae	83 c4 04	 add	 esp, 4

; 581  : 					}
; 582  : 				}
; 583  : 			}

  003b1	eb 48		 jmp	 SHORT $LN43@UseSkill
$LN38@UseSkill:

; 576  : 					}
; 577  : 					else
; 578  : 					{
; 579  : 						PyCallClassMemberFunc(m_ppyGameWindow, "OnCannotUseSkill", Py_BuildValue("(is)", GetMainCharacterIndex(), "ONLY_FOR_ALLIANCE"));

  003b3	68 00 00 00 00	 push	 OFFSET ??_C@_0BC@CKDFNGK@ONLY_FOR_ALLIANCE@

; 580  : 						return false;

  003b8	e9 29 ff ff ff	 jmp	 $LN197@UseSkill
$LN29@UseSkill:

; 584  : 			else
; 585  : 			{
; 586  : 				if (pkInstTarget->IsInSafe())

  003bd	8b cf		 mov	 ecx, edi
  003bf	e8 00 00 00 00	 call	 ?IsInSafe@CInstanceBase@@QAEHXZ ; CInstanceBase::IsInSafe
  003c4	85 c0		 test	 eax, eax
  003c6	74 0a		 je	 SHORT $LN40@UseSkill

; 587  : 				{
; 588  : 					PyCallClassMemberFunc(m_ppyGameWindow, "OnCannotUseSkill", Py_BuildValue("(is)", GetMainCharacterIndex(), "CANNOT_ATTACK_ENEMY_IN_SAFE_AREA"));

  003c8	68 00 00 00 00	 push	 OFFSET ??_C@_0CB@HEDIGIHC@CANNOT_ATTACK_ENEMY_IN_SAFE_ARE@

; 589  : 					return false;

  003cd	e9 14 ff ff ff	 jmp	 $LN197@UseSkill
$LN40@UseSkill:

; 590  : 				}
; 591  : 
; 592  : 				if (pkInstMain->IsAttackableInstance(*pkInstTarget))

  003d2	57		 push	 edi
  003d3	8b ce		 mov	 ecx, esi
  003d5	e8 00 00 00 00	 call	 ?IsAttackableInstance@CInstanceBase@@QAE_NAAV1@@Z ; CInstanceBase::IsAttackableInstance
  003da	84 c0		 test	 al, al
  003dc	0f 84 af 03 00
	00		 je	 $LN41@UseSkill

; 593  : 				{
; 594  : 					if (!__ProcessEnemySkillTargetRange(*pkInstMain, *pkInstTarget, *pSkillData, dwSlotIndex))

  003e2	ff 75 b4	 push	 DWORD PTR _dwSlotIndex$GSCopy$1$[ebp]
  003e5	8b 45 d0	 mov	 eax, DWORD PTR _pSkillData$[ebp]
  003e8	8b 4d d4	 mov	 ecx, DWORD PTR _this$GSCopy$1$[ebp]
  003eb	50		 push	 eax
  003ec	57		 push	 edi
  003ed	56		 push	 esi
  003ee	e8 00 00 00 00	 call	 ?__ProcessEnemySkillTargetRange@CPythonPlayer@@IAE_NAAVCInstanceBase@@0AAUSSkillData@CPythonSkill@@K@Z ; CPythonPlayer::__ProcessEnemySkillTargetRange
  003f3	84 c0		 test	 al, al
  003f5	0f 84 66 fc ff
	ff		 je	 $LN174@UseSkill
$LN43@UseSkill:

; 601  : 				}
; 602  : 			}
; 603  : 
; 604  : 			pkInstMain->SetFlyTargetInstance(*pkInstTarget);

  003fb	57		 push	 edi
  003fc	8b ce		 mov	 ecx, esi
  003fe	e8 00 00 00 00	 call	 ?SetFlyTargetInstance@CInstanceBase@@QAEXAAV1@@Z ; CInstanceBase::SetFlyTargetInstance

; 605  : 
; 606  : 			if (pkInstMain != pkInstTarget)

  00403	3b f7		 cmp	 esi, edi
  00405	74 1a		 je	 SHORT $LN54@UseSkill

; 607  : 			{
; 608  : 				if (pkInstMain->IsFlyTargetObject())

  00407	8b ce		 mov	 ecx, esi
  00409	e8 00 00 00 00	 call	 ?IsFlyTargetObject@CInstanceBase@@QAE_NXZ ; CInstanceBase::IsFlyTargetObject
  0040e	8b ce		 mov	 ecx, esi
  00410	84 c0		 test	 al, al
  00412	74 07		 je	 SHORT $LN45@UseSkill

; 609  : 				{
; 610  : 					pkInstMain->NEW_LookAtFlyTarget();

  00414	e8 00 00 00 00	 call	 ?NEW_LookAtFlyTarget@CInstanceBase@@QAEXXZ ; CInstanceBase::NEW_LookAtFlyTarget

; 611  : 				}

  00419	eb 06		 jmp	 SHORT $LN54@UseSkill
$LN45@UseSkill:

; 612  : 				else
; 613  : 				{
; 614  : 					pkInstMain->NEW_LookAtDestInstance(*pkInstTarget);

  0041b	57		 push	 edi
  0041c	e8 00 00 00 00	 call	 ?NEW_LookAtDestInstance@CInstanceBase@@QAEXAAV1@@Z ; CInstanceBase::NEW_LookAtDestInstance
$LN54@UseSkill:

; 649  : 				return false;
; 650  : 			}
; 651  : 		}
; 652  : 	}
; 653  : 
; 654  : 	if (pSkillData->CanChangeDirection())

  00421	8b 4d d0	 mov	 ecx, DWORD PTR _pSkillData$[ebp]
  00424	e8 00 00 00 00	 call	 ?CanChangeDirection@SSkillData@CPythonSkill@@QAEHXZ ; CPythonSkill::SSkillData::CanChangeDirection
  00429	85 c0		 test	 eax, eax
  0042b	74 5f		 je	 SHORT $LN62@UseSkill

; 655  : 	{
; 656  : 		DWORD dwPickedActorID;
; 657  : 		TPixelPosition kPPosPickedGround;
; 658  : 
; 659  : 		if (pkInstTarget && pkInstTarget!=pkInstMain)

  0042d	85 ff		 test	 edi, edi
  0042f	74 0e		 je	 SHORT $LN56@UseSkill
  00431	3b fe		 cmp	 edi, esi
  00433	74 0a		 je	 SHORT $LN56@UseSkill

; 660  : 		{
; 661  : 			pkInstMain->NEW_LookAtDestInstance(*pkInstTarget);

  00435	57		 push	 edi
  00436	8b ce		 mov	 ecx, esi
  00438	e8 00 00 00 00	 call	 ?NEW_LookAtDestInstance@CInstanceBase@@QAEXAAV1@@Z ; CInstanceBase::NEW_LookAtDestInstance

; 662  : 		}

  0043d	eb 4d		 jmp	 SHORT $LN62@UseSkill
$LN56@UseSkill:

; 663  : 		else if (__GetPickedActorID(&dwPickedActorID))

  0043f	8d 45 c8	 lea	 eax, DWORD PTR _dwPickedActorID$3[ebp]
  00442	50		 push	 eax
  00443	e8 00 00 00 00	 call	 ?__GetPickedActorID@CPythonPlayer@@IAE_NPAK@Z ; CPythonPlayer::__GetPickedActorID
  00448	84 c0		 test	 al, al
  0044a	74 16		 je	 SHORT $LN58@UseSkill

; 664  : 		{
; 665  : 			CInstanceBase* pkInstVictim=NEW_FindActorPtr(dwPickedActorID);

  0044c	ff 75 c8	 push	 DWORD PTR _dwPickedActorID$3[ebp]
  0044f	e8 00 00 00 00	 call	 ?NEW_FindActorPtr@CPythonPlayer@@QAEPAVCInstanceBase@@K@Z ; CPythonPlayer::NEW_FindActorPtr

; 666  : 			if (pkInstVictim)

  00454	85 c0		 test	 eax, eax
  00456	74 34		 je	 SHORT $LN62@UseSkill

; 667  : 				pkInstMain->NEW_LookAtDestInstance(*pkInstVictim);

  00458	50		 push	 eax
  00459	8b ce		 mov	 ecx, esi
  0045b	e8 00 00 00 00	 call	 ?NEW_LookAtDestInstance@CInstanceBase@@QAEXAAV1@@Z ; CInstanceBase::NEW_LookAtDestInstance

; 668  : 		}

  00460	eb 2a		 jmp	 SHORT $LN62@UseSkill
$LN58@UseSkill:

; 669  : 		else if (__GetPickedGroundPos(&kPPosPickedGround))

  00462	8d 45 d8	 lea	 eax, DWORD PTR _kPPosPickedGround$4[ebp]
  00465	50		 push	 eax
  00466	e8 00 00 00 00	 call	 ?__GetPickedGroundPos@CPythonPlayer@@IAE_NPAUD3DXVECTOR3@@@Z ; CPythonPlayer::__GetPickedGroundPos
  0046b	84 c0		 test	 al, al
  0046d	74 0d		 je	 SHORT $LN61@UseSkill

; 670  : 		{
; 671  : 			pkInstMain->NEW_LookAtDestPixelPosition(kPPosPickedGround);

  0046f	8d 45 d8	 lea	 eax, DWORD PTR _kPPosPickedGround$4[ebp]
  00472	8b ce		 mov	 ecx, esi
  00474	50		 push	 eax
  00475	e8 00 00 00 00	 call	 ?NEW_LookAtDestPixelPosition@CInstanceBase@@QAEXABUD3DXVECTOR3@@@Z ; CInstanceBase::NEW_LookAtDestPixelPosition

; 672  : 		}

  0047a	eb 10		 jmp	 SHORT $LN62@UseSkill
$LN61@UseSkill:

; 673  : 		else
; 674  : 		{
; 675  : 			Tracenf("CPythonPlayer::__UseSkill(%d) - 화면 기준 방향 설정을 해야함", dwSlotIndex);

  0047c	ff 75 b4	 push	 DWORD PTR _dwSlotIndex$GSCopy$1$[ebp]
  0047f	68 00 00 00 00	 push	 OFFSET ??_C@_0DN@DLLIDDMA@CPythonPlayer?3?3__UseSkill?$CI?$CFd?$CJ?5?9@
  00484	e8 00 00 00 00	 call	 ?Tracenf@@YAXPBDZZ	; Tracenf
  00489	83 c4 08	 add	 esp, 8
$LN62@UseSkill:

; 676  : 		}
; 677  : 	}
; 678  : 
; 679  : 	// 관격술 처리
; 680  : 	DWORD dwTargetMaxCount = pSkillData->GetTargetCount(rkSkillInst.fcurEfficientPercentage);

  0048c	8b 45 d4	 mov	 eax, DWORD PTR _this$GSCopy$1$[ebp]
  0048f	8b 4d b8	 mov	 ecx, DWORD PTR tv964[ebp]
  00492	f3 0f 10 8c c8
	78 cb 00 00	 movss	 xmm1, DWORD PTR [eax+ecx*8+52088]
  0049b	8b 4d d0	 mov	 ecx, DWORD PTR _pSkillData$[ebp]
  0049e	e8 00 00 00 00	 call	 ?GetTargetCount@SSkillData@CPythonSkill@@QAEKM@Z ; CPythonSkill::SSkillData::GetTargetCount

; 681  : 	DWORD dwRange = __GetSkillTargetRange(*pSkillData);

  004a3	ff 75 d0	 push	 DWORD PTR _pSkillData$[ebp]
  004a6	8b 4d d4	 mov	 ecx, DWORD PTR _this$GSCopy$1$[ebp]
  004a9	89 45 cc	 mov	 DWORD PTR _dwTargetMaxCount$1$[ebp], eax
  004ac	e8 00 00 00 00	 call	 ?__GetSkillTargetRange@CPythonPlayer@@IAEKAAUSSkillData@CPythonSkill@@@Z ; CPythonPlayer::__GetSkillTargetRange

; 682  : 	if (dwTargetMaxCount>0 && pkInstTarget)

  004b1	83 7d cc 00	 cmp	 DWORD PTR _dwTargetMaxCount$1$[ebp], 0
  004b5	89 45 c8	 mov	 DWORD PTR _dwRange$1$[ebp], eax
  004b8	0f 86 21 02 00
	00		 jbe	 $LN63@UseSkill
  004be	85 ff		 test	 edi, edi
  004c0	0f 84 19 02 00
	00		 je	 $LN63@UseSkill

; 684  : 		DWORD dwTargetCount=1;

  004c6	ba 01 00 00 00	 mov	 edx, 1
; File C:\Program Files\Microsoft Visual Studio\2022\Community\VC\Tools\MSVC\14.44.35207\include\vector

; 400  :     _CONSTEXPR20 _Vector_val() noexcept : _Myfirst(), _Mylast(), _Myend() {}

  004cb	c7 45 a4 00 00
	00 00		 mov	 DWORD PTR _kVct_pkInstTarget$2[ebp], 0
; File D:\_m2work\Server Client TMP4\ClientVS22\source\UserInterface\PythonPlayerSkill.cpp

; 684  : 		DWORD dwTargetCount=1;

  004d2	89 55 c4	 mov	 DWORD PTR _dwTargetCount$1$[ebp], edx
; File C:\Program Files\Microsoft Visual Studio\2022\Community\VC\Tools\MSVC\14.44.35207\include\vector

; 400  :     _CONSTEXPR20 _Vector_val() noexcept : _Myfirst(), _Mylast(), _Myend() {}

  004d5	c7 45 a8 00 00
	00 00		 mov	 DWORD PTR _kVct_pkInstTarget$2[ebp+4], 0
  004dc	c7 45 ac 00 00
	00 00		 mov	 DWORD PTR _kVct_pkInstTarget$2[ebp+8], 0
; File D:\_m2work\Server Client TMP4\ClientVS22\source\UserInterface\PythonPlayerSkill.cpp

; 685  : 		std::vector<CInstanceBase*> kVct_pkInstTarget;

  004e3	c7 45 fc 00 00
	00 00		 mov	 DWORD PTR __$EHRec$[ebp+8], 0

; 686  : 
; 687  : 		if (pSkillData->IsFanRange())

  004ea	8b 4d d0	 mov	 ecx, DWORD PTR _pSkillData$[ebp]
  004ed	e8 00 00 00 00	 call	 ?IsFanRange@SSkillData@CPythonSkill@@QAEHXZ ; CPythonSkill::SSkillData::IsFanRange
  004f2	85 c0		 test	 eax, eax
  004f4	0f 84 c2 00 00
	00		 je	 $LN64@UseSkill

; 688  : 		{
; 689  : 			if (pkInstMain->NEW_GetInstanceVectorInFanRange(float(dwRange), *pkInstTarget, &kVct_pkInstTarget))

  004fa	8d 45 a4	 lea	 eax, DWORD PTR _kVct_pkInstTarget$2[ebp]
  004fd	8b ce		 mov	 ecx, esi
  004ff	50		 push	 eax
  00500	8b 45 c8	 mov	 eax, DWORD PTR _dwRange$1$[ebp]
  00503	57		 push	 edi
  00504	66 0f 6e c0	 movd	 xmm0, eax
  00508	f3 0f e6 c0	 cvtdq2pd xmm0, xmm0
  0050c	c1 e8 1f	 shr	 eax, 31			; 0000001fH
  0050f	f2 0f 58 04 c5
	00 00 00 00	 addsd	 xmm0, QWORD PTR __xmm@41f00000000000000000000000000000[eax*8]
  00518	66 0f 5a c8	 cvtpd2ps xmm1, xmm0
  0051c	e8 00 00 00 00	 call	 ?NEW_GetInstanceVectorInFanRange@CInstanceBase@@QAE_NMAAV1@PAV?$vector@PAVCInstanceBase@@V?$allocator@PAVCInstanceBase@@@std@@@std@@@Z ; CInstanceBase::NEW_GetInstanceVectorInFanRange
  00521	84 c0		 test	 al, al
  00523	0f 84 57 01 00
	00		 je	 $LN191@UseSkill
; File C:\Program Files\Microsoft Visual Studio\2022\Community\VC\Tools\MSVC\14.44.35207\include\vector

; 166  :         return _Ptr == _Right._Ptr;

  00529	8b 75 a4	 mov	 esi, DWORD PTR _kVct_pkInstTarget$2[ebp]
; File D:\_m2work\Server Client TMP4\ClientVS22\source\UserInterface\PythonPlayerSkill.cpp

; 692  : 				for (i=kVct_pkInstTarget.begin(); i!=kVct_pkInstTarget.end(); ++i)

  0052c	ba 01 00 00 00	 mov	 edx, 1
; File C:\Program Files\Microsoft Visual Studio\2022\Community\VC\Tools\MSVC\14.44.35207\include\vector

; 166  :         return _Ptr == _Right._Ptr;

  00531	3b 75 a8	 cmp	 esi, DWORD PTR _kVct_pkInstTarget$2[ebp+4]
; File D:\_m2work\Server Client TMP4\ClientVS22\source\UserInterface\PythonPlayerSkill.cpp

; 692  : 				for (i=kVct_pkInstTarget.begin(); i!=kVct_pkInstTarget.end(); ++i)

  00534	74 7e		 je	 SHORT $LN183@UseSkill
  00536	8b 45 cc	 mov	 eax, DWORD PTR _dwTargetMaxCount$1$[ebp]
  00539	0f 1f 80 00 00
	00 00		 npad	 7
$LL4@UseSkill:

; 693  : 				{
; 694  : 					if (dwTargetCount>=dwTargetMaxCount)

  00540	3b d0		 cmp	 edx, eax
  00542	0f 83 88 01 00
	00		 jae	 $LN9@UseSkill

; 695  : 						break;
; 696  : 
; 697  : 					CInstanceBase* pkInstEach=*i;

  00548	8b 0e		 mov	 ecx, DWORD PTR [esi]
  0054a	89 4d c8	 mov	 DWORD PTR _pkInstEach$1$[ebp], ecx

; 698  : 
; 699  : 					if (pkInstTarget!=pkInstEach && !pkInstEach->IsDead())

  0054d	3b f9		 cmp	 edi, ecx
  0054f	74 5b		 je	 SHORT $LN2@UseSkill
  00551	e8 00 00 00 00	 call	 ?IsDead@CInstanceBase@@QAEHXZ ; CInstanceBase::IsDead
  00556	85 c0		 test	 eax, eax
  00558	75 4c		 jne	 SHORT $LN188@UseSkill

; 700  : 					{
; 701  : 						pkInstMain->AddFlyTargetInstance(*pkInstEach);

  0055a	8b 7d c8	 mov	 edi, DWORD PTR _pkInstEach$1$[ebp]
  0055d	8b 4d bc	 mov	 ecx, DWORD PTR _pkInstMain$1$[ebp]
  00560	57		 push	 edi
  00561	e8 00 00 00 00	 call	 ?AddFlyTargetInstance@CInstanceBase@@QAEXAAV1@@Z ; CInstanceBase::AddFlyTargetInstance

; 702  : 						CPythonNetworkStream::Instance().SendAddFlyTargetingPacket(pkInstEach->GetVirtualID(), pkInstEach->GetGraphicThingInstanceRef().OnGetFlyTargetPosition());

  00566	a1 00 00 00 00	 mov	 eax, DWORD PTR ?ms_singleton@?$CSingleton@VCPythonNetworkStream@@@@0PAVCPythonNetworkStream@@A ; CSingleton<CPythonNetworkStream>::ms_singleton
  0056b	8b cf		 mov	 ecx, edi
  0056d	89 45 b0	 mov	 DWORD PTR tv1054[ebp], eax
  00570	e8 00 00 00 00	 call	 ?GetGraphicThingInstanceRef@CInstanceBase@@QAEAAVCActorInstance@@XZ ; CInstanceBase::GetGraphicThingInstanceRef
  00575	8d 55 d8	 lea	 edx, DWORD PTR $T5[ebp]
  00578	52		 push	 edx
  00579	8d 88 dc 01 00
	00		 lea	 ecx, DWORD PTR [eax+476]
  0057f	8b 01		 mov	 eax, DWORD PTR [ecx]
  00581	8b 40 04	 mov	 eax, DWORD PTR [eax+4]
  00584	ff d0		 call	 eax
  00586	8b 4d c8	 mov	 ecx, DWORD PTR _pkInstEach$1$[ebp]
  00589	8b f8		 mov	 edi, eax
  0058b	e8 00 00 00 00	 call	 ?GetVirtualID@CInstanceBase@@QAEKXZ ; CInstanceBase::GetVirtualID
  00590	8b 4d b0	 mov	 ecx, DWORD PTR tv1054[ebp]
  00593	57		 push	 edi
  00594	50		 push	 eax
  00595	e8 00 00 00 00	 call	 ?SendAddFlyTargetingPacket@CPythonNetworkStream@@QAE_NKABUD3DXVECTOR3@@@Z ; CPythonNetworkStream::SendAddFlyTargetingPacket

; 703  : 
; 704  : 						dwTargetCount++;

  0059a	8b 55 c4	 mov	 edx, DWORD PTR _dwTargetCount$1$[ebp]
  0059d	8b 7d c0	 mov	 edi, DWORD PTR _pkInstTarget$2$[ebp]
  005a0	42		 inc	 edx
  005a1	89 55 c4	 mov	 DWORD PTR _dwTargetCount$1$[ebp], edx
  005a4	eb 03		 jmp	 SHORT $LN195@UseSkill
$LN188@UseSkill:

; 698  : 
; 699  : 					if (pkInstTarget!=pkInstEach && !pkInstEach->IsDead())

  005a6	8b 55 c4	 mov	 edx, DWORD PTR _dwTargetCount$1$[ebp]
$LN195@UseSkill:
; File C:\Program Files\Microsoft Visual Studio\2022\Community\VC\Tools\MSVC\14.44.35207\include\vector

; 82   :         ++_Ptr;

  005a9	8b 45 cc	 mov	 eax, DWORD PTR _dwTargetMaxCount$1$[ebp]
$LN2@UseSkill:
  005ac	83 c6 04	 add	 esi, 4

; 166  :         return _Ptr == _Right._Ptr;

  005af	3b 75 a8	 cmp	 esi, DWORD PTR _kVct_pkInstTarget$2[ebp+4]
; File D:\_m2work\Server Client TMP4\ClientVS22\source\UserInterface\PythonPlayerSkill.cpp

; 692  : 				for (i=kVct_pkInstTarget.begin(); i!=kVct_pkInstTarget.end(); ++i)

  005b2	75 8c		 jne	 SHORT $LL4@UseSkill
$LN183@UseSkill:

; 727  : 					}
; 728  : 				}
; 729  : 			}
; 730  : 		}
; 731  : 
; 732  : 		if (dwTargetCount<dwTargetMaxCount)

  005b4	8b 75 bc	 mov	 esi, DWORD PTR _pkInstMain$1$[ebp]
  005b7	e9 c9 00 00 00	 jmp	 $LN161@UseSkill
$LN64@UseSkill:

; 705  : 					}
; 706  : 				}
; 707  : 			}
; 708  : 		}
; 709  : 		else if (pSkillData->IsCircleRange())

  005bc	e8 00 00 00 00	 call	 ?IsCircleRange@SSkillData@CPythonSkill@@QAEHXZ ; CPythonSkill::SSkillData::IsCircleRange
  005c1	85 c0		 test	 eax, eax
  005c3	0f 84 bc 00 00
	00		 je	 $LN161@UseSkill

; 710  : 		{
; 711  : 			if (pkInstMain->NEW_GetInstanceVectorInCircleRange(float(dwRange), &kVct_pkInstTarget))

  005c9	8d 45 a4	 lea	 eax, DWORD PTR _kVct_pkInstTarget$2[ebp]
  005cc	8b ce		 mov	 ecx, esi
  005ce	50		 push	 eax
  005cf	8b 45 c8	 mov	 eax, DWORD PTR _dwRange$1$[ebp]
  005d2	66 0f 6e c0	 movd	 xmm0, eax
  005d6	f3 0f e6 c0	 cvtdq2pd xmm0, xmm0
  005da	c1 e8 1f	 shr	 eax, 31			; 0000001fH
  005dd	f2 0f 58 04 c5
	00 00 00 00	 addsd	 xmm0, QWORD PTR __xmm@41f00000000000000000000000000000[eax*8]
  005e6	66 0f 5a c8	 cvtpd2ps xmm1, xmm0
  005ea	e8 00 00 00 00	 call	 ?NEW_GetInstanceVectorInCircleRange@CInstanceBase@@QAE_NMPAV?$vector@PAVCInstanceBase@@V?$allocator@PAVCInstanceBase@@@std@@@std@@@Z ; CInstanceBase::NEW_GetInstanceVectorInCircleRange
  005ef	84 c0		 test	 al, al
  005f1	0f 84 89 00 00
	00		 je	 $LN191@UseSkill
; File C:\Program Files\Microsoft Visual Studio\2022\Community\VC\Tools\MSVC\14.44.35207\include\vector

; 166  :         return _Ptr == _Right._Ptr;

  005f7	8b 75 a4	 mov	 esi, DWORD PTR _kVct_pkInstTarget$2[ebp]
; File D:\_m2work\Server Client TMP4\ClientVS22\source\UserInterface\PythonPlayerSkill.cpp

; 714  : 				for (i=kVct_pkInstTarget.begin(); i!=kVct_pkInstTarget.end(); ++i)

  005fa	ba 01 00 00 00	 mov	 edx, 1
; File C:\Program Files\Microsoft Visual Studio\2022\Community\VC\Tools\MSVC\14.44.35207\include\vector

; 166  :         return _Ptr == _Right._Ptr;

  005ff	3b 75 a8	 cmp	 esi, DWORD PTR _kVct_pkInstTarget$2[ebp+4]
; File D:\_m2work\Server Client TMP4\ClientVS22\source\UserInterface\PythonPlayerSkill.cpp

; 714  : 				for (i=kVct_pkInstTarget.begin(); i!=kVct_pkInstTarget.end(); ++i)

  00602	74 b0		 je	 SHORT $LN183@UseSkill
  00604	8b 45 cc	 mov	 eax, DWORD PTR _dwTargetMaxCount$1$[ebp]
$LL7@UseSkill:

; 715  : 				{
; 716  : 					if (dwTargetCount>=dwTargetMaxCount)

  00607	3b d0		 cmp	 edx, eax
  00609	0f 83 c1 00 00
	00		 jae	 $LN9@UseSkill

; 717  : 						break;
; 718  : 
; 719  : 					CInstanceBase* pkInstEach=*i;

  0060f	8b 0e		 mov	 ecx, DWORD PTR [esi]
  00611	89 4d c8	 mov	 DWORD PTR _pkInstEach$1$[ebp], ecx

; 720  : 
; 721  : 					if (pkInstTarget!=pkInstEach && !pkInstEach->IsDead())

  00614	3b f9		 cmp	 edi, ecx
  00616	74 5b		 je	 SHORT $LN5@UseSkill
  00618	e8 00 00 00 00	 call	 ?IsDead@CInstanceBase@@QAEHXZ ; CInstanceBase::IsDead
  0061d	85 c0		 test	 eax, eax
  0061f	75 4c		 jne	 SHORT $LN189@UseSkill

; 722  : 					{
; 723  : 						pkInstMain->AddFlyTargetInstance(*pkInstEach);

  00621	8b 7d c8	 mov	 edi, DWORD PTR _pkInstEach$1$[ebp]
  00624	8b 4d bc	 mov	 ecx, DWORD PTR _pkInstMain$1$[ebp]
  00627	57		 push	 edi
  00628	e8 00 00 00 00	 call	 ?AddFlyTargetInstance@CInstanceBase@@QAEXAAV1@@Z ; CInstanceBase::AddFlyTargetInstance

; 724  : 						CPythonNetworkStream::Instance().SendAddFlyTargetingPacket(pkInstEach->GetVirtualID(), pkInstEach->GetGraphicThingInstanceRef().OnGetFlyTargetPosition());

  0062d	a1 00 00 00 00	 mov	 eax, DWORD PTR ?ms_singleton@?$CSingleton@VCPythonNetworkStream@@@@0PAVCPythonNetworkStream@@A ; CSingleton<CPythonNetworkStream>::ms_singleton
  00632	8b cf		 mov	 ecx, edi
  00634	89 45 b0	 mov	 DWORD PTR tv1050[ebp], eax
  00637	e8 00 00 00 00	 call	 ?GetGraphicThingInstanceRef@CInstanceBase@@QAEAAVCActorInstance@@XZ ; CInstanceBase::GetGraphicThingInstanceRef
  0063c	8d 55 d8	 lea	 edx, DWORD PTR $T6[ebp]
  0063f	52		 push	 edx
  00640	8d 88 dc 01 00
	00		 lea	 ecx, DWORD PTR [eax+476]
  00646	8b 01		 mov	 eax, DWORD PTR [ecx]
  00648	8b 40 04	 mov	 eax, DWORD PTR [eax+4]
  0064b	ff d0		 call	 eax
  0064d	8b 4d c8	 mov	 ecx, DWORD PTR _pkInstEach$1$[ebp]
  00650	8b f8		 mov	 edi, eax
  00652	e8 00 00 00 00	 call	 ?GetVirtualID@CInstanceBase@@QAEKXZ ; CInstanceBase::GetVirtualID
  00657	8b 4d b0	 mov	 ecx, DWORD PTR tv1050[ebp]
  0065a	57		 push	 edi
  0065b	50		 push	 eax
  0065c	e8 00 00 00 00	 call	 ?SendAddFlyTargetingPacket@CPythonNetworkStream@@QAE_NKABUD3DXVECTOR3@@@Z ; CPythonNetworkStream::SendAddFlyTargetingPacket

; 725  : 
; 726  : 						dwTargetCount++;

  00661	8b 55 c4	 mov	 edx, DWORD PTR _dwTargetCount$1$[ebp]
  00664	8b 7d c0	 mov	 edi, DWORD PTR _pkInstTarget$2$[ebp]
  00667	42		 inc	 edx
  00668	89 55 c4	 mov	 DWORD PTR _dwTargetCount$1$[ebp], edx
  0066b	eb 03		 jmp	 SHORT $LN196@UseSkill
$LN189@UseSkill:

; 720  : 
; 721  : 					if (pkInstTarget!=pkInstEach && !pkInstEach->IsDead())

  0066d	8b 55 c4	 mov	 edx, DWORD PTR _dwTargetCount$1$[ebp]
$LN196@UseSkill:
; File C:\Program Files\Microsoft Visual Studio\2022\Community\VC\Tools\MSVC\14.44.35207\include\vector

; 82   :         ++_Ptr;

  00670	8b 45 cc	 mov	 eax, DWORD PTR _dwTargetMaxCount$1$[ebp]
$LN5@UseSkill:
  00673	83 c6 04	 add	 esi, 4

; 166  :         return _Ptr == _Right._Ptr;

  00676	3b 75 a8	 cmp	 esi, DWORD PTR _kVct_pkInstTarget$2[ebp+4]
; File D:\_m2work\Server Client TMP4\ClientVS22\source\UserInterface\PythonPlayerSkill.cpp

; 714  : 				for (i=kVct_pkInstTarget.begin(); i!=kVct_pkInstTarget.end(); ++i)

  00679	75 8c		 jne	 SHORT $LL7@UseSkill

; 692  : 				for (i=kVct_pkInstTarget.begin(); i!=kVct_pkInstTarget.end(); ++i)

  0067b	8b 75 bc	 mov	 esi, DWORD PTR _pkInstMain$1$[ebp]
  0067e	eb 05		 jmp	 SHORT $LN161@UseSkill
$LN191@UseSkill:

; 727  : 					}
; 728  : 				}
; 729  : 			}
; 730  : 		}
; 731  : 
; 732  : 		if (dwTargetCount<dwTargetMaxCount)

  00680	ba 01 00 00 00	 mov	 edx, 1
$LN161@UseSkill:
  00685	8b 45 cc	 mov	 eax, DWORD PTR _dwTargetMaxCount$1$[ebp]
  00688	3b d0		 cmp	 edx, eax
  0068a	73 44		 jae	 SHORT $LN9@UseSkill
  0068c	2b c2		 sub	 eax, edx
  0068e	89 45 cc	 mov	 DWORD PTR _dwTargetMaxCount$1$[ebp], eax
$LL8@UseSkill:

; 733  : 		{
; 734  : 			while (dwTargetCount<dwTargetMaxCount)
; 735  : 			{
; 736  : 				TPixelPosition kPPosDst;
; 737  : 				pkInstMain->NEW_GetRandomPositionInFanRange(*pkInstTarget, &kPPosDst);

  00691	8d 45 e4	 lea	 eax, DWORD PTR _kPPosDst$7[ebp]
  00694	8b ce		 mov	 ecx, esi
  00696	50		 push	 eax
  00697	57		 push	 edi
  00698	e8 00 00 00 00	 call	 ?NEW_GetRandomPositionInFanRange@CInstanceBase@@QAEXAAV1@PAUD3DXVECTOR3@@@Z ; CInstanceBase::NEW_GetRandomPositionInFanRange

; 738  : 
; 739  : 				kPPosDst.x=kPPosDst.x;
; 740  : 				kPPosDst.y=-kPPosDst.y;

  0069d	f3 0f 10 45 e8	 movss	 xmm0, DWORD PTR _kPPosDst$7[ebp+4]

; 741  : 
; 742  : 				pkInstMain->AddFlyTargetPosition(kPPosDst);

  006a2	8d 45 e4	 lea	 eax, DWORD PTR _kPPosDst$7[ebp]
  006a5	0f 57 05 00 00
	00 00		 xorps	 xmm0, DWORD PTR __xmm@80000000800000008000000080000000
  006ac	8b ce		 mov	 ecx, esi
  006ae	50		 push	 eax
  006af	f3 0f 11 45 e8	 movss	 DWORD PTR _kPPosDst$7[ebp+4], xmm0
  006b4	e8 00 00 00 00	 call	 ?AddFlyTargetPosition@CInstanceBase@@QAEXABUD3DXVECTOR3@@@Z ; CInstanceBase::AddFlyTargetPosition

; 743  : 				CPythonNetworkStream::Instance().SendAddFlyTargetingPacket(0, kPPosDst);

  006b9	8b 0d 00 00 00
	00		 mov	 ecx, DWORD PTR ?ms_singleton@?$CSingleton@VCPythonNetworkStream@@@@0PAVCPythonNetworkStream@@A ; CSingleton<CPythonNetworkStream>::ms_singleton
  006bf	8d 45 e4	 lea	 eax, DWORD PTR _kPPosDst$7[ebp]
  006c2	50		 push	 eax
  006c3	6a 00		 push	 0
  006c5	e8 00 00 00 00	 call	 ?SendAddFlyTargetingPacket@CPythonNetworkStream@@QAE_NKABUD3DXVECTOR3@@@Z ; CPythonNetworkStream::SendAddFlyTargetingPacket
  006ca	83 6d cc 01	 sub	 DWORD PTR _dwTargetMaxCount$1$[ebp], 1
  006ce	75 c1		 jne	 SHORT $LL8@UseSkill
$LN9@UseSkill:

; 744  : 
; 745  : 				dwTargetCount++;
; 746  : 			}
; 747  : 		}
; 748  : 	}

  006d0	8d 4d a4	 lea	 ecx, DWORD PTR _kVct_pkInstTarget$2[ebp]
  006d3	c7 45 fc ff ff
	ff ff		 mov	 DWORD PTR __$EHRec$[ebp+8], -1
  006da	e8 00 00 00 00	 call	 ??1?$vector@PAVCInstanceBase@@V?$allocator@PAVCInstanceBase@@@std@@@std@@QAE@XZ ; std::vector<CInstanceBase *,std::allocator<CInstanceBase *> >::~vector<CInstanceBase *,std::allocator<CInstanceBase *> >
$LN63@UseSkill:

; 749  : 
; 750  : 	/////
; 751  : 	// NOTE : 멀리서 적을 클릭해놓고 스킬을 쓰면 스킬을 쓴뒤 바로 적을 공격하는 문제를 수정하기 위한 코드 - [levites]
; 752  : 	__ClearReservedAction();

  006df	8b 55 d4	 mov	 edx, DWORD PTR _this$GSCopy$1$[ebp]
  006e2	8b ca		 mov	 ecx, edx
  006e4	e8 00 00 00 00	 call	 ?__ClearReservedAction@CPythonPlayer@@IAEXXZ ; CPythonPlayer::__ClearReservedAction

; 753  : 	/////
; 754  : 
; 755  : 	if (!pSkillData->IsNoMotion())

  006e9	8b 4d d0	 mov	 ecx, DWORD PTR _pSkillData$[ebp]
  006ec	e8 00 00 00 00	 call	 ?IsNoMotion@SSkillData@CPythonSkill@@QAEHXZ ; CPythonSkill::SSkillData::IsNoMotion
  006f1	85 c0		 test	 eax, eax
  006f3	75 61		 jne	 SHORT $LN185@UseSkill

; 756  : 	{
; 757  : 		DWORD dwMotionIndex = pSkillData->GetSkillMotionIndex(rkSkillInst.iGrade);

  006f5	8b 45 b8	 mov	 eax, DWORD PTR tv964[ebp]
  006f8	ff b4 c2 70 cb
	00 00		 push	 DWORD PTR [edx+eax*8+52080]
  006ff	e8 00 00 00 00	 call	 ?GetSkillMotionIndex@SSkillData@CPythonSkill@@QAEKH@Z ; CPythonSkill::SSkillData::GetSkillMotionIndex
  00704	8b f0		 mov	 esi, eax

; 758  : 		DWORD dwLoopCount = pSkillData->GetMotionLoopCount(rkSkillInst.fcurEfficientPercentage);

  00706	8b 45 b8	 mov	 eax, DWORD PTR tv964[ebp]
  00709	f3 0f 10 8c c2
	78 cb 00 00	 movss	 xmm1, DWORD PTR [edx+eax*8+52088]
  00712	e8 00 00 00 00	 call	 ?GetMotionLoopCount@SSkillData@CPythonSkill@@QAEKM@Z ; CPythonSkill::SSkillData::GetMotionLoopCount

; 759  : 		if (!pkInstMain->NEW_UseSkill(rkSkillInst.dwIndex, dwMotionIndex, dwLoopCount, pSkillData->IsMovingSkill() ? true : false))

  00717	8b 4d d0	 mov	 ecx, DWORD PTR _pSkillData$[ebp]
  0071a	8b d0		 mov	 edx, eax
  0071c	e8 00 00 00 00	 call	 ?IsMovingSkill@SSkillData@CPythonSkill@@QAEHXZ ; CPythonSkill::SSkillData::IsMovingSkill
  00721	85 c0		 test	 eax, eax
  00723	8b 45 b8	 mov	 eax, DWORD PTR tv964[ebp]
  00726	0f 95 c1	 setne	 cl
  00729	51		 push	 ecx
  0072a	8b 4d bc	 mov	 ecx, DWORD PTR _pkInstMain$1$[ebp]
  0072d	52		 push	 edx
  0072e	56		 push	 esi
  0072f	8b 75 d4	 mov	 esi, DWORD PTR _this$GSCopy$1$[ebp]
  00732	ff b4 c6 68 cb
	00 00		 push	 DWORD PTR [esi+eax*8+52072]
  00739	e8 00 00 00 00	 call	 ?NEW_UseSkill@CInstanceBase@@QAE_NIII_N@Z ; CInstanceBase::NEW_UseSkill
  0073e	84 c0		 test	 al, al
  00740	75 16		 jne	 SHORT $LN75@UseSkill

; 760  : 		{
; 761  : 			Tracenf("CPythonPlayer::__UseSkill(%d) - pkInstMain->NEW_UseSkill - ERROR", dwSlotIndex);

  00742	ff 75 b4	 push	 DWORD PTR _dwSlotIndex$GSCopy$1$[ebp]
  00745	68 00 00 00 00	 push	 OFFSET ??_C@_0EB@LKBFGOEE@CPythonPlayer?3?3__UseSkill?$CI?$CFd?$CJ?5?9@
  0074a	e8 00 00 00 00	 call	 ?Tracenf@@YAXPBDZZ	; Tracenf
  0074f	83 c4 08	 add	 esp, 8

; 769  : 	return true;
; 770  : }

  00752	32 c0		 xor	 al, al
  00754	eb 1e		 jmp	 SHORT $LN1@UseSkill
$LN185@UseSkill:

; 753  : 	/////
; 754  : 
; 755  : 	if (!pSkillData->IsNoMotion())

  00756	8b f2		 mov	 esi, edx
$LN75@UseSkill:

; 762  : 			return false;
; 763  : 		}
; 764  : 	}
; 765  : 
; 766  : 	DWORD dwTargetVID=pkInstTarget ? pkInstTarget->GetVirtualID() : 0;

  00758	85 ff		 test	 edi, edi
  0075a	74 09		 je	 SHORT $LN77@UseSkill
  0075c	8b cf		 mov	 ecx, edi
  0075e	e8 00 00 00 00	 call	 ?GetVirtualID@CInstanceBase@@QAEKXZ ; CInstanceBase::GetVirtualID
  00763	eb 02		 jmp	 SHORT $LN78@UseSkill
$LN77@UseSkill:
  00765	33 c0		 xor	 eax, eax
$LN78@UseSkill:

; 767  : 
; 768  : 	__SendUseSkill(dwSlotIndex, dwTargetVID);

  00767	50		 push	 eax
  00768	ff 75 b4	 push	 DWORD PTR _dwSlotIndex$GSCopy$1$[ebp]
  0076b	8b ce		 mov	 ecx, esi
  0076d	e8 00 00 00 00	 call	 ?__SendUseSkill@CPythonPlayer@@IAEXKK@Z ; CPythonPlayer::__SendUseSkill
$LN179@UseSkill:

; 769  : 	return true;
; 770  : }

  00772	b0 01		 mov	 al, 1
$LN1@UseSkill:
  00774	8b 4d f4	 mov	 ecx, DWORD PTR __$EHRec$[ebp]
  00777	64 89 0d 00 00
	00 00		 mov	 DWORD PTR fs:0, ecx
  0077e	59		 pop	 ecx
  0077f	5f		 pop	 edi
  00780	5e		 pop	 esi
  00781	8b 4d f0	 mov	 ecx, DWORD PTR __$ArrayPad$[ebp]
  00784	33 cd		 xor	 ecx, ebp
  00786	e8 00 00 00 00	 call	 @__security_check_cookie@4
  0078b	8b e5		 mov	 esp, ebp
  0078d	5d		 pop	 ebp
  0078e	c2 04 00	 ret	 4
$LN41@UseSkill:

; 595  : 						return false;
; 596  : 				}
; 597  : 				else
; 598  : 				{
; 599  : 					PyCallClassMemberFunc(m_ppyGameWindow, "OnCannotUseSkill", Py_BuildValue("(is)", GetMainCharacterIndex(), "CANNOT_ATTACK"));

  00791	68 00 00 00 00	 push	 OFFSET ??_C@_0O@BIOLCACO@CANNOT_ATTACK@

; 600  : 					return false;

  00796	e9 4b fb ff ff	 jmp	 $LN197@UseSkill
_TEXT	ENDS
;	COMDAT text$x
text$x	SEGMENT
__unwindfunclet$?__UseSkill@CPythonPlayer@@IAE_NK@Z$0:
  00000	8d 4d a4	 lea	 ecx, DWORD PTR _kVct_pkInstTarget$2[ebp]
  00003	e9 00 00 00 00	 jmp	 ??1?$vector@PAVCInstanceBase@@V?$allocator@PAVCInstanceBase@@@std@@@std@@QAE@XZ ; std::vector<CInstanceBase *,std::allocator<CInstanceBase *> >::~vector<CInstanceBase *,std::allocator<CInstanceBase *> >
  00008	cc		 int	 3
  00009	cc		 int	 3
  0000a	cc		 int	 3
  0000b	cc		 int	 3
  0000c	cc		 int	 3
__ehhandler$?__UseSkill@CPythonPlayer@@IAE_NK@Z:
  0000d	90		 npad	 1
  0000e	90		 npad	 1
  0000f	8b 54 24 08	 mov	 edx, DWORD PTR [esp+8]
  00013	8d 42 0c	 lea	 eax, DWORD PTR [edx+12]
  00016	8b 4a a4	 mov	 ecx, DWORD PTR [edx-92]
  00019	33 c8		 xor	 ecx, eax
  0001b	e8 00 00 00 00	 call	 @__security_check_cookie@4
  00020	8b 4a fc	 mov	 ecx, DWORD PTR [edx-4]
  00023	33 c8		 xor	 ecx, eax
  00025	e8 00 00 00 00	 call	 @__security_check_cookie@4
  0002a	b8 00 00 00 00	 mov	 eax, OFFSET __ehfuncinfo$?__UseSkill@CPythonPlayer@@IAE_NK@Z
  0002f	e9 00 00 00 00	 jmp	 ___CxxFrameHandler3
text$x	ENDS
?__UseSkill@CPythonPlayer@@IAE_NK@Z ENDP		; CPythonPlayer::__UseSkill
; Function compile flags: /Ogtp
; File D:\_m2work\Server Client TMP4\ClientVS22\source\UserInterface\PythonPlayerSkill.cpp
;	COMDAT ?__UseCurrentSkill@CPythonPlayer@@IAEXXZ
_TEXT	SEGMENT
?__UseCurrentSkill@CPythonPlayer@@IAEXXZ PROC		; CPythonPlayer::__UseCurrentSkill, COMDAT
; _this$ = ecx

; 388  : 	__UseSkill(m_dwcurSkillSlotIndex);

  00000	ff b1 4c f7 00
	00		 push	 DWORD PTR [ecx+63308]
  00006	e8 00 00 00 00	 call	 ?__UseSkill@CPythonPlayer@@IAE_NK@Z ; CPythonPlayer::__UseSkill

; 389  : }

  0000b	c3		 ret	 0
?__UseCurrentSkill@CPythonPlayer@@IAEXXZ ENDP		; CPythonPlayer::__UseCurrentSkill
_TEXT	ENDS
; Function compile flags: /Ogtp
; File D:\_m2work\Server Client TMP4\ClientVS22\source\UserInterface\PythonPlayerSkill.cpp
;	COMDAT ?ChangeCurrentSkillNumberOnly@CPythonPlayer@@QAEXK@Z
_TEXT	SEGMENT
_dwSlotIndex$ = 8					; size = 4
_pSkillData$ = 8					; size = 4
?ChangeCurrentSkillNumberOnly@CPythonPlayer@@QAEXK@Z PROC ; CPythonPlayer::ChangeCurrentSkillNumberOnly, COMDAT
; _this$ = ecx

; 78   : {

  00000	55		 push	 ebp
  00001	8b ec		 mov	 ebp, esp
  00003	56		 push	 esi
  00004	57		 push	 edi

; 79   : 	if (dwSlotIndex >= SKILL_MAX_NUM)

  00005	8b 7d 08	 mov	 edi, DWORD PTR _dwSlotIndex$[ebp]
  00008	8b f1		 mov	 esi, ecx
  0000a	81 ff ff 00 00
	00		 cmp	 edi, 255		; 000000ffH
  00010	0f 83 a1 00 00
	00		 jae	 $LN6@ChangeCurr

; 80   : 		return;
; 81   : 
; 82   : 	TSkillInstance & rkSkillInst = m_playerStatus.aSkill[dwSlotIndex];
; 83   : 
; 84   : 	CPythonSkill::TSkillData * pSkillData;
; 85   : 	if (!CPythonSkill::Instance().GetSkillData(rkSkillInst.dwIndex, &pSkillData))

  00016	8d 4d 08	 lea	 ecx, DWORD PTR _pSkillData$[ebp]
  00019	51		 push	 ecx
  0001a	8b 0d 00 00 00
	00		 mov	 ecx, DWORD PTR ?ms_singleton@?$CSingleton@VCPythonSkill@@@@0PAVCPythonSkill@@A ; CSingleton<CPythonSkill>::ms_singleton
  00020	8d 04 bf	 lea	 eax, DWORD PTR [edi+edi*4]
  00023	ff b4 c6 68 cb
	00 00		 push	 DWORD PTR [esi+eax*8+52072]
  0002a	e8 00 00 00 00	 call	 ?GetSkillData@CPythonSkill@@QAEHKPAPAUSSkillData@1@@Z ; CPythonSkill::GetSkillData
  0002f	85 c0		 test	 eax, eax
  00031	0f 84 80 00 00
	00		 je	 $LN6@ChangeCurr

; 86   : 		return;
; 87   : 
; 88   : 	if (!pSkillData->IsCanUseSkill())

  00037	8b 4d 08	 mov	 ecx, DWORD PTR _pSkillData$[ebp]
  0003a	e8 00 00 00 00	 call	 ?IsCanUseSkill@SSkillData@CPythonSkill@@QAE_NXZ ; CPythonSkill::SSkillData::IsCanUseSkill
  0003f	84 c0		 test	 al, al
  00041	74 74		 je	 SHORT $LN6@ChangeCurr

; 89   : 		return;
; 90   : 
; 91   : 	if (!__IsRightButtonSkillMode())

  00043	8b ce		 mov	 ecx, esi
  00045	e8 00 00 00 00	 call	 ?__IsRightButtonSkillMode@CPythonPlayer@@IAEHXZ ; CPythonPlayer::__IsRightButtonSkillMode
  0004a	85 c0		 test	 eax, eax
  0004c	75 46		 jne	 SHORT $LN5@ChangeCurr

; 92   : 	{
; 93   : 		if (!__IsTarget())

  0004e	e8 00 00 00 00	 call	 ?__IsTarget@CPythonPlayer@@IAE_NXZ ; CPythonPlayer::__IsTarget
  00053	84 c0		 test	 al, al
  00055	75 31		 jne	 SHORT $LN7@ChangeCurr

; 94   : 		{
; 95   : 			PyCallClassMemberFunc(m_ppyGameWindow, "OnCannotUseSkill", Py_BuildValue("(is)", GetMainCharacterIndex(), "NEED_TARGET"));

  00057	8b 46 04	 mov	 eax, DWORD PTR [esi+4]
  0005a	8d 4e 04	 lea	 ecx, DWORD PTR [esi+4]
  0005d	68 00 00 00 00	 push	 OFFSET ??_C@_0M@HCIEKIGP@NEED_TARGET@
  00062	ff 50 04	 call	 DWORD PTR [eax+4]
  00065	50		 push	 eax
  00066	68 00 00 00 00	 push	 OFFSET ??_C@_04JMLDJNEM@?$CIis?$CJ@
  0006b	ff 15 00 00 00
	00		 call	 DWORD PTR __imp__Py_BuildValue
  00071	50		 push	 eax
  00072	68 00 00 00 00	 push	 OFFSET ??_C@_0BB@BOHMBBJL@OnCannotUseSkill@
  00077	ff 76 08	 push	 DWORD PTR [esi+8]
  0007a	e8 00 00 00 00	 call	 ?PyCallClassMemberFunc@@YA_NPAU_object@@PBD0@Z ; PyCallClassMemberFunc
  0007f	83 c4 18	 add	 esp, 24			; 00000018H
  00082	5f		 pop	 edi

; 105  : 	}
; 106  : }

  00083	5e		 pop	 esi
  00084	5d		 pop	 ebp
  00085	c2 04 00	 ret	 4
$LN7@ChangeCurr:

; 96   : 			return;
; 97   : 		}
; 98   : 
; 99   : 		ClickSkillSlot(dwSlotIndex);

  00088	57		 push	 edi
  00089	e8 00 00 00 00	 call	 ?ClickSkillSlot@CPythonPlayer@@QAEXK@Z ; CPythonPlayer::ClickSkillSlot
  0008e	5f		 pop	 edi

; 105  : 	}
; 106  : }

  0008f	5e		 pop	 esi
  00090	5d		 pop	 ebp
  00091	c2 04 00	 ret	 4
$LN5@ChangeCurr:

; 100  : 	}
; 101  : 	else
; 102  : 	{
; 103  : 		m_dwcurSkillSlotIndex = dwSlotIndex;
; 104  : 		PyCallClassMemberFunc(m_ppyGameWindow, "ChangeCurrentSkill", Py_BuildValue("(i)", dwSlotIndex));

  00094	57		 push	 edi
  00095	68 00 00 00 00	 push	 OFFSET ??_C@_03LIHNMIHG@?$CIi?$CJ@
  0009a	89 be 4c f7 00
	00		 mov	 DWORD PTR [esi+63308], edi
  000a0	ff 15 00 00 00
	00		 call	 DWORD PTR __imp__Py_BuildValue
  000a6	50		 push	 eax
  000a7	68 00 00 00 00	 push	 OFFSET ??_C@_0BD@IOEPNDLO@ChangeCurrentSkill@
  000ac	ff 76 08	 push	 DWORD PTR [esi+8]
  000af	e8 00 00 00 00	 call	 ?PyCallClassMemberFunc@@YA_NPAU_object@@PBD0@Z ; PyCallClassMemberFunc
  000b4	83 c4 14	 add	 esp, 20			; 00000014H
$LN6@ChangeCurr:

; 105  : 	}
; 106  : }

  000b7	5f		 pop	 edi
  000b8	5e		 pop	 esi
  000b9	5d		 pop	 ebp
  000ba	c2 04 00	 ret	 4
?ChangeCurrentSkillNumberOnly@CPythonPlayer@@QAEXK@Z ENDP ; CPythonPlayer::ChangeCurrentSkillNumberOnly
_TEXT	ENDS
; Function compile flags: /Ogtp
; File D:\_m2work\Server Client TMP4\ClientVS22\source\UserInterface\PythonPlayerSkill.cpp
;	COMDAT ?UseGuildSkill@CPythonPlayer@@QAEXK@Z
_TEXT	SEGMENT
_pkInstMain$1$ = -4					; size = 4
_dwSkillSlotIndex$ = 8					; size = 4
_pSkillData$ = 8					; size = 4
?UseGuildSkill@CPythonPlayer@@QAEXK@Z PROC		; CPythonPlayer::UseGuildSkill, COMDAT
; _this$ = ecx

; 866  : {

  00000	55		 push	 ebp
  00001	8b ec		 mov	 ebp, esp
  00003	51		 push	 ecx
  00004	57		 push	 edi
  00005	8b f9		 mov	 edi, ecx

; 867  : 	CInstanceBase* pkInstMain = NEW_GetMainActorPtr();

  00007	8b 47 04	 mov	 eax, DWORD PTR [edi+4]
  0000a	8d 4f 04	 lea	 ecx, DWORD PTR [edi+4]
  0000d	ff 90 88 00 00
	00		 call	 DWORD PTR [eax+136]
  00013	89 45 fc	 mov	 DWORD PTR _pkInstMain$1$[ebp], eax

; 868  : 	if (!pkInstMain)

  00016	85 c0		 test	 eax, eax
  00018	0f 84 25 01 00
	00		 je	 $LN1@UseGuildSk

; 869  : 		return;
; 870  : 	if (!pkInstMain->CanUseSkill())

  0001e	8b c8		 mov	 ecx, eax
  00020	e8 00 00 00 00	 call	 ?CanUseSkill@CInstanceBase@@QAE_NXZ ; CInstanceBase::CanUseSkill
  00025	84 c0		 test	 al, al
  00027	0f 84 16 01 00
	00		 je	 $LN1@UseGuildSk

; 871  : 		return;
; 872  : 
; 873  : 	///////////////////////////////////////////////////////////////////////////////////////////////
; 874  : 
; 875  : 	if (dwSkillSlotIndex >= SKILL_MAX_NUM)

  0002d	56		 push	 esi
  0002e	8b 75 08	 mov	 esi, DWORD PTR _dwSkillSlotIndex$[ebp]
  00031	81 fe ff 00 00
	00		 cmp	 esi, 255		; 000000ffH
  00037	72 16		 jb	 SHORT $LN4@UseGuildSk

; 876  : 	{
; 877  : 		Tracenf("CPythonPlayer::UseGuildSkill(dwSkillSlotIndex=%d) It's not available skill slot number", dwSkillSlotIndex);

  00039	56		 push	 esi
  0003a	68 00 00 00 00	 push	 OFFSET ??_C@_0FH@CAACOELN@CPythonPlayer?3?3UseGuildSkill?$CIdw@
  0003f	e8 00 00 00 00	 call	 ?Tracenf@@YAXPBDZZ	; Tracenf
  00044	83 c4 08	 add	 esp, 8
  00047	5e		 pop	 esi
  00048	5f		 pop	 edi

; 914  : }

  00049	8b e5		 mov	 esp, ebp
  0004b	5d		 pop	 ebp
  0004c	c2 04 00	 ret	 4
$LN4@UseGuildSk:

; 878  : 		return;
; 879  : 	}
; 880  : 
; 881  : 	TSkillInstance & rkSkillInst = m_playerStatus.aSkill[dwSkillSlotIndex];
; 882  : 
; 883  : 	DWORD dwSkillIndex = rkSkillInst.dwIndex;
; 884  : 
; 885  : 	CPythonSkill::TSkillData * pSkillData;
; 886  : 	if (!CPythonSkill::Instance().GetSkillData(dwSkillIndex, &pSkillData))

  0004f	8b 0d 00 00 00
	00		 mov	 ecx, DWORD PTR ?ms_singleton@?$CSingleton@VCPythonSkill@@@@0PAVCPythonSkill@@A ; CSingleton<CPythonSkill>::ms_singleton
  00055	8d 04 b6	 lea	 eax, DWORD PTR [esi+esi*4]
  00058	53		 push	 ebx
  00059	8b 9c c7 68 cb
	00 00		 mov	 ebx, DWORD PTR [edi+eax*8+52072]
  00060	8d 45 08	 lea	 eax, DWORD PTR _pSkillData$[ebp]
  00063	50		 push	 eax
  00064	53		 push	 ebx
  00065	e8 00 00 00 00	 call	 ?GetSkillData@CPythonSkill@@QAEHKPAPAUSSkillData@1@@Z ; CPythonSkill::GetSkillData
  0006a	85 c0		 test	 eax, eax
  0006c	0f 84 cf 00 00
	00		 je	 $LN20@UseGuildSk

; 887  : 		return;
; 888  : 
; 889  : 	if (__CheckRestSkillCoolTime(dwSkillSlotIndex))

  00072	56		 push	 esi
  00073	8b cf		 mov	 ecx, edi
  00075	e8 00 00 00 00	 call	 ?__CheckRestSkillCoolTime@CPythonPlayer@@IAE_NK@Z ; CPythonPlayer::__CheckRestSkillCoolTime
  0007a	84 c0		 test	 al, al
  0007c	74 34		 je	 SHORT $LN6@UseGuildSk

; 890  : 	{
; 891  : 		PyCallClassMemberFunc(m_ppyGameWindow, "OnCannotUseSkill", Py_BuildValue("(is)", GetMainCharacterIndex(), "WAIT_COOLTIME"));

  0007e	8b 47 04	 mov	 eax, DWORD PTR [edi+4]
  00081	8d 4f 04	 lea	 ecx, DWORD PTR [edi+4]
  00084	68 00 00 00 00	 push	 OFFSET ??_C@_0O@CCJDKKCC@WAIT_COOLTIME@
  00089	ff 50 04	 call	 DWORD PTR [eax+4]
  0008c	50		 push	 eax
  0008d	68 00 00 00 00	 push	 OFFSET ??_C@_04JMLDJNEM@?$CIis?$CJ@
  00092	ff 15 00 00 00
	00		 call	 DWORD PTR __imp__Py_BuildValue
  00098	50		 push	 eax
  00099	68 00 00 00 00	 push	 OFFSET ??_C@_0BB@BOHMBBJL@OnCannotUseSkill@
  0009e	ff 77 08	 push	 DWORD PTR [edi+8]
  000a1	e8 00 00 00 00	 call	 ?PyCallClassMemberFunc@@YA_NPAU_object@@PBD0@Z ; PyCallClassMemberFunc
  000a6	83 c4 18	 add	 esp, 24			; 00000018H
  000a9	5b		 pop	 ebx
  000aa	5e		 pop	 esi
  000ab	5f		 pop	 edi

; 914  : }

  000ac	8b e5		 mov	 esp, ebp
  000ae	5d		 pop	 ebp
  000af	c2 04 00	 ret	 4
$LN6@UseGuildSk:

; 892  : 		return;
; 893  : 	}
; 894  : 
; 895  : 	if (pSkillData->IsOnlyForGuildWar())

  000b2	8b 4d 08	 mov	 ecx, DWORD PTR _pSkillData$[ebp]
  000b5	e8 00 00 00 00	 call	 ?IsOnlyForGuildWar@SSkillData@CPythonSkill@@QAEHXZ ; CPythonSkill::SSkillData::IsOnlyForGuildWar
  000ba	85 c0		 test	 eax, eax
  000bc	74 43		 je	 SHORT $LN8@UseGuildSk

; 896  : 	{
; 897  : 		if (!CPythonGuild::Instance().IsDoingGuildWar())

  000be	8b 0d 00 00 00
	00		 mov	 ecx, DWORD PTR ?ms_singleton@?$CSingleton@VCPythonGuild@@@@0PAVCPythonGuild@@A ; CSingleton<CPythonGuild>::ms_singleton
  000c4	e8 00 00 00 00	 call	 ?IsDoingGuildWar@CPythonGuild@@QAEHXZ ; CPythonGuild::IsDoingGuildWar
  000c9	85 c0		 test	 eax, eax
  000cb	75 34		 jne	 SHORT $LN8@UseGuildSk

; 898  : 		{
; 899  : 			PyCallClassMemberFunc(m_ppyGameWindow, "OnCannotUseSkill", Py_BuildValue("(is)", GetMainCharacterIndex(), "ONLY_FOR_GUILD_WAR"));

  000cd	8b 47 04	 mov	 eax, DWORD PTR [edi+4]
  000d0	8d 4f 04	 lea	 ecx, DWORD PTR [edi+4]
  000d3	68 00 00 00 00	 push	 OFFSET ??_C@_0BD@OHHCPGPG@ONLY_FOR_GUILD_WAR@
  000d8	ff 50 04	 call	 DWORD PTR [eax+4]
  000db	50		 push	 eax
  000dc	68 00 00 00 00	 push	 OFFSET ??_C@_04JMLDJNEM@?$CIis?$CJ@
  000e1	ff 15 00 00 00
	00		 call	 DWORD PTR __imp__Py_BuildValue
  000e7	50		 push	 eax
  000e8	68 00 00 00 00	 push	 OFFSET ??_C@_0BB@BOHMBBJL@OnCannotUseSkill@
  000ed	ff 77 08	 push	 DWORD PTR [edi+8]
  000f0	e8 00 00 00 00	 call	 ?PyCallClassMemberFunc@@YA_NPAU_object@@PBD0@Z ; PyCallClassMemberFunc
  000f5	83 c4 18	 add	 esp, 24			; 00000018H
  000f8	5b		 pop	 ebx
  000f9	5e		 pop	 esi
  000fa	5f		 pop	 edi

; 914  : }

  000fb	8b e5		 mov	 esp, ebp
  000fd	5d		 pop	 ebp
  000fe	c2 04 00	 ret	 4
$LN8@UseGuildSk:

; 900  : 			return;
; 901  : 		}
; 902  : 	}
; 903  : 
; 904  : 	DWORD dwMotionIndex = pSkillData->GetSkillMotionIndex();

  00101	8b 4d 08	 mov	 ecx, DWORD PTR _pSkillData$[ebp]
  00104	6a ff		 push	 -1
  00106	e8 00 00 00 00	 call	 ?GetSkillMotionIndex@SSkillData@CPythonSkill@@QAEKH@Z ; CPythonSkill::SSkillData::GetSkillMotionIndex

; 905  : 	if (!pkInstMain->NEW_UseSkill(dwSkillIndex, dwMotionIndex, 1, false))

  0010b	8b 4d fc	 mov	 ecx, DWORD PTR _pkInstMain$1$[ebp]
  0010e	6a 00		 push	 0
  00110	6a 01		 push	 1
  00112	50		 push	 eax
  00113	53		 push	 ebx
  00114	e8 00 00 00 00	 call	 ?NEW_UseSkill@CInstanceBase@@QAE_NIII_N@Z ; CInstanceBase::NEW_UseSkill
  00119	84 c0		 test	 al, al
  0011b	75 0e		 jne	 SHORT $LN9@UseGuildSk

; 906  : 	{
; 907  : 		Tracenf("CPythonPlayer::UseGuildSkill(%d) - pkInstMain->NEW_UseSkill - ERROR", dwSkillIndex);

  0011d	53		 push	 ebx
  0011e	68 00 00 00 00	 push	 OFFSET ??_C@_0EE@GICPADML@CPythonPlayer?3?3UseGuildSkill?$CI?$CFd@
  00123	e8 00 00 00 00	 call	 ?Tracenf@@YAXPBDZZ	; Tracenf
  00128	83 c4 08	 add	 esp, 8
$LN9@UseGuildSk:

; 908  : 	}
; 909  : 
; 910  : 	///////////////////////////////////////////////////////////////////////////////////////////////
; 911  : 
; 912  : 	CPythonNetworkStream::Instance().SendGuildUseSkillPacket(dwSkillIndex, 0);

  0012b	8b 0d 00 00 00
	00		 mov	 ecx, DWORD PTR ?ms_singleton@?$CSingleton@VCPythonNetworkStream@@@@0PAVCPythonNetworkStream@@A ; CSingleton<CPythonNetworkStream>::ms_singleton
  00131	6a 00		 push	 0
  00133	53		 push	 ebx
  00134	e8 00 00 00 00	 call	 ?SendGuildUseSkillPacket@CPythonNetworkStream@@QAE_NKK@Z ; CPythonNetworkStream::SendGuildUseSkillPacket

; 913  : 	__RunCoolTime(dwSkillSlotIndex);

  00139	56		 push	 esi
  0013a	8b cf		 mov	 ecx, edi
  0013c	e8 00 00 00 00	 call	 ?__RunCoolTime@CPythonPlayer@@IAEXK@Z ; CPythonPlayer::__RunCoolTime
$LN20@UseGuildSk:
  00141	5b		 pop	 ebx
  00142	5e		 pop	 esi
$LN1@UseGuildSk:
  00143	5f		 pop	 edi

; 914  : }

  00144	8b e5		 mov	 esp, ebp
  00146	5d		 pop	 ebp
  00147	c2 04 00	 ret	 4
?UseGuildSkill@CPythonPlayer@@QAEXK@Z ENDP		; CPythonPlayer::UseGuildSkill
_TEXT	ENDS
; Function compile flags: /Ogtp
; File D:\_m2work\Server Client TMP4\ClientVS22\source\UserInterface\PythonPlayerSkill.cpp
;	COMDAT ?FindSkillSlotIndexBySkillIndex@CPythonPlayer@@QAE_NKPAK@Z
_TEXT	SEGMENT
_dwSkillIndex$ = 8					; size = 4
_pdwSkillSlotIndex$ = 12				; size = 4
?FindSkillSlotIndexBySkillIndex@CPythonPlayer@@QAE_NKPAK@Z PROC ; CPythonPlayer::FindSkillSlotIndexBySkillIndex, COMDAT
; _this$ = ecx

; 63   : {

  00000	55		 push	 ebp
  00001	8b ec		 mov	 ebp, esp

; 64   : 	for (int i = 0; i < SKILL_MAX_NUM; ++i)

  00003	8b 55 08	 mov	 edx, DWORD PTR _dwSkillIndex$[ebp]
  00006	33 c0		 xor	 eax, eax
  00008	81 c1 68 cb 00
	00		 add	 ecx, 52072		; 0000cb68H
  0000e	66 90		 npad	 2
$LL4@FindSkillS:

; 65   : 	{
; 66   : 		TSkillInstance & rkSkillInst = m_playerStatus.aSkill[i];
; 67   : 		if (dwSkillIndex == rkSkillInst.dwIndex)

  00010	3b 11		 cmp	 edx, DWORD PTR [ecx]
  00012	74 11		 je	 SHORT $LN8@FindSkillS

; 64   : 	for (int i = 0; i < SKILL_MAX_NUM; ++i)

  00014	40		 inc	 eax
  00015	83 c1 28	 add	 ecx, 40			; 00000028H
  00018	3d ff 00 00 00	 cmp	 eax, 255		; 000000ffH
  0001d	7c f1		 jl	 SHORT $LL4@FindSkillS

; 71   : 		}
; 72   : 	}
; 73   : 
; 74   : 	return false;

  0001f	32 c0		 xor	 al, al

; 75   : }

  00021	5d		 pop	 ebp
  00022	c2 08 00	 ret	 8
$LN8@FindSkillS:

; 68   : 		{
; 69   : 			*pdwSkillSlotIndex = i;

  00025	8b 4d 0c	 mov	 ecx, DWORD PTR _pdwSkillSlotIndex$[ebp]
  00028	89 01		 mov	 DWORD PTR [ecx], eax

; 70   : 			return true;

  0002a	b0 01		 mov	 al, 1

; 75   : }

  0002c	5d		 pop	 ebp
  0002d	c2 08 00	 ret	 8
?FindSkillSlotIndexBySkillIndex@CPythonPlayer@@QAE_NKPAK@Z ENDP ; CPythonPlayer::FindSkillSlotIndexBySkillIndex
_TEXT	ENDS
; Function compile flags: /Ogtp
; File D:\_m2work\Server Client TMP4\ClientVS22\source\UserInterface\PythonPlayerSkill.cpp
;	COMDAT ?__CheckSkillUsable@CPythonPlayer@@IAE_NK@Z
_TEXT	SEGMENT
_pSkillData$ = -12					; size = 4
_rkSkillInst$1$ = -8					; size = 4
_pkInstMain$1$ = -4					; size = 4
_dwSlotIndex$ = 8					; size = 4
?__CheckSkillUsable@CPythonPlayer@@IAE_NK@Z PROC	; CPythonPlayer::__CheckSkillUsable, COMDAT
; _this$ = ecx

; 167  : {

  00000	55		 push	 ebp
  00001	8b ec		 mov	 ebp, esp
  00003	83 ec 0c	 sub	 esp, 12			; 0000000cH
  00006	53		 push	 ebx
  00007	56		 push	 esi
  00008	8b f1		 mov	 esi, ecx
  0000a	57		 push	 edi

; 168  : 	CInstanceBase * pkInstMain = NEW_GetMainActorPtr();

  0000b	8b 46 04	 mov	 eax, DWORD PTR [esi+4]
  0000e	8d 4e 04	 lea	 ecx, DWORD PTR [esi+4]
  00011	ff 90 88 00 00
	00		 call	 DWORD PTR [eax+136]
  00017	8b d8		 mov	 ebx, eax
  00019	89 5d fc	 mov	 DWORD PTR _pkInstMain$1$[ebp], ebx

; 169  : 	if (!pkInstMain)

  0001c	85 db		 test	 ebx, ebx
  0001e	74 72		 je	 SHORT $LN32@CheckSkill

; 170  : 		return false;
; 171  : 
; 172  : 	if (dwSlotIndex >= SKILL_MAX_NUM)

  00020	8b 45 08	 mov	 eax, DWORD PTR _dwSlotIndex$[ebp]
  00023	3d ff 00 00 00	 cmp	 eax, 255		; 000000ffH
  00028	73 68		 jae	 SHORT $LN32@CheckSkill

; 173  : 		return false;
; 174  : 
; 175  : 	TSkillInstance & rkSkillInst = m_playerStatus.aSkill[dwSlotIndex];

  0002a	8d 0c 85 6d 19
	00 00		 lea	 ecx, DWORD PTR [eax*4+6509]
  00031	03 c8		 add	 ecx, eax
  00033	8d 04 ce	 lea	 eax, DWORD PTR [esi+ecx*8]

; 176  : 
; 177  : 	CPythonSkill::TSkillData * pSkillData;
; 178  : 	if (!CPythonSkill::Instance().GetSkillData(rkSkillInst.dwIndex, &pSkillData))

  00036	8d 4d f4	 lea	 ecx, DWORD PTR _pSkillData$[ebp]
  00039	89 45 f8	 mov	 DWORD PTR _rkSkillInst$1$[ebp], eax
  0003c	51		 push	 ecx
  0003d	ff 30		 push	 DWORD PTR [eax]
  0003f	8b 0d 00 00 00
	00		 mov	 ecx, DWORD PTR ?ms_singleton@?$CSingleton@VCPythonSkill@@@@0PAVCPythonSkill@@A ; CSingleton<CPythonSkill>::ms_singleton
  00045	e8 00 00 00 00	 call	 ?GetSkillData@CPythonSkill@@QAEHKPAPAUSSkillData@1@@Z ; CPythonSkill::GetSkillData
  0004a	85 c0		 test	 eax, eax
  0004c	74 44		 je	 SHORT $LN32@CheckSkill

; 179  : 		return false;
; 180  : 
; 181  : 	if (pkInstMain->IsMountingHorse())

  0004e	8b cb		 mov	 ecx, ebx
  00050	e8 00 00 00 00	 call	 ?IsMountingHorse@CInstanceBase@@QAEHXZ ; CInstanceBase::IsMountingHorse
  00055	8b 5d f4	 mov	 ebx, DWORD PTR _pSkillData$[ebp]
  00058	85 c0		 test	 eax, eax
  0005a	74 41		 je	 SHORT $LN6@CheckSkill

; 182  : 	{
; 183  : 		if (!pSkillData->IsHorseSkill())

  0005c	8b cb		 mov	 ecx, ebx
  0005e	e8 00 00 00 00	 call	 ?IsHorseSkill@SSkillData@CPythonSkill@@QAEHXZ ; CPythonSkill::SSkillData::IsHorseSkill
  00063	85 c0		 test	 eax, eax
  00065	75 36		 jne	 SHORT $LN6@CheckSkill

; 184  : 		{
; 185  : 			PyCallClassMemberFunc(m_ppyGameWindow, "OnCannotUseSkill", Py_BuildValue("(is)", GetMainCharacterIndex(), "NOT_HORSE_SKILL"));

  00067	68 00 00 00 00	 push	 OFFSET ??_C@_0BA@MEPOIIPE@NOT_HORSE_SKILL@
$LN66@CheckSkill:

; 303  : 		}
; 304  : 	}
; 305  : 
; 306  : 	return true;
; 307  : }

  0006c	8b 46 04	 mov	 eax, DWORD PTR [esi+4]
  0006f	8d 4e 04	 lea	 ecx, DWORD PTR [esi+4]
  00072	ff 50 04	 call	 DWORD PTR [eax+4]
  00075	50		 push	 eax
  00076	68 00 00 00 00	 push	 OFFSET ??_C@_04JMLDJNEM@?$CIis?$CJ@
  0007b	ff 15 00 00 00
	00		 call	 DWORD PTR __imp__Py_BuildValue
  00081	50		 push	 eax
  00082	68 00 00 00 00	 push	 OFFSET ??_C@_0BB@BOHMBBJL@OnCannotUseSkill@
  00087	ff 76 08	 push	 DWORD PTR [esi+8]
  0008a	e8 00 00 00 00	 call	 ?PyCallClassMemberFunc@@YA_NPAU_object@@PBD0@Z ; PyCallClassMemberFunc
  0008f	83 c4 18	 add	 esp, 24			; 00000018H
$LN32@CheckSkill:
  00092	5f		 pop	 edi
  00093	5e		 pop	 esi
  00094	32 c0		 xor	 al, al
  00096	5b		 pop	 ebx
  00097	8b e5		 mov	 esp, ebp
  00099	5d		 pop	 ebp
  0009a	c2 04 00	 ret	 4
$LN6@CheckSkill:

; 186  : 			return false;
; 187  : 		}
; 188  : 	}
; 189  : 
; 190  : 	if (pSkillData->IsHorseSkill())

  0009d	8b cb		 mov	 ecx, ebx
  0009f	e8 00 00 00 00	 call	 ?IsHorseSkill@SSkillData@CPythonSkill@@QAEHXZ ; CPythonSkill::SSkillData::IsHorseSkill
  000a4	8b 55 fc	 mov	 edx, DWORD PTR _pkInstMain$1$[ebp]
  000a7	85 c0		 test	 eax, eax
  000a9	74 12		 je	 SHORT $LN8@CheckSkill

; 191  : 	{
; 192  : 		if (!pkInstMain->IsMountingHorse())

  000ab	8b ca		 mov	 ecx, edx
  000ad	e8 00 00 00 00	 call	 ?IsMountingHorse@CInstanceBase@@QAEHXZ ; CInstanceBase::IsMountingHorse
  000b2	85 c0		 test	 eax, eax
  000b4	75 07		 jne	 SHORT $LN8@CheckSkill

; 193  : 		{
; 194  : 			PyCallClassMemberFunc(m_ppyGameWindow, "OnCannotUseSkill", Py_BuildValue("(is)", GetMainCharacterIndex(), "HAVE_TO_RIDE"));

  000b6	68 00 00 00 00	 push	 OFFSET ??_C@_0N@DJBFACMO@HAVE_TO_RIDE@

; 195  : 			return false;

  000bb	eb af		 jmp	 SHORT $LN66@CheckSkill
$LN8@CheckSkill:

; 196  : 		}
; 197  : 	}
; 198  : 
; 199  : 	// 2004.07.26.levites - 안전지대에서 공격 못하도록 수정
; 200  : 	// NOTE : 공격 스킬은 안전지대에서 사용하지 못합니다 - [levites]
; 201  : 	if (pSkillData->IsAttackSkill())

  000bd	8b cb		 mov	 ecx, ebx
  000bf	e8 00 00 00 00	 call	 ?IsAttackSkill@SSkillData@CPythonSkill@@QAEHXZ ; CPythonSkill::SSkillData::IsAttackSkill
  000c4	85 c0		 test	 eax, eax
  000c6	74 12		 je	 SHORT $LN10@CheckSkill

; 202  : 	{
; 203  : 		if (pkInstMain->IsInSafe())

  000c8	8b ca		 mov	 ecx, edx
  000ca	e8 00 00 00 00	 call	 ?IsInSafe@CInstanceBase@@QAEHXZ ; CInstanceBase::IsInSafe
  000cf	85 c0		 test	 eax, eax
  000d1	74 07		 je	 SHORT $LN10@CheckSkill

; 204  : 		{
; 205  : 			PyCallClassMemberFunc(m_ppyGameWindow, "OnCannotUseSkill", Py_BuildValue("(is)", GetMainCharacterIndex(), "IN_SAFE"));

  000d3	68 00 00 00 00	 push	 OFFSET ??_C@_07OAOBINCH@IN_SAFE@

; 206  : 
; 207  : 			return false;

  000d8	eb 92		 jmp	 SHORT $LN66@CheckSkill
$LN10@CheckSkill:

; 208  : 		}
; 209  : 	}	
; 210  : 
; 211  : 	// NOTE : 패시브 스킬은 사용하지 못합니다 - [levites]
; 212  : 	if (!pSkillData->IsCanUseSkill())

  000da	8b cb		 mov	 ecx, ebx
  000dc	e8 00 00 00 00	 call	 ?IsCanUseSkill@SSkillData@CPythonSkill@@QAE_NXZ ; CPythonSkill::SSkillData::IsCanUseSkill
  000e1	84 c0		 test	 al, al
  000e3	74 ad		 je	 SHORT $LN32@CheckSkill

; 213  : 		return false;
; 214  : //	if (CPythonSkill::SKILL_TYPE_PASSIVE == pSkillData->byType)
; 215  : //		return false;
; 216  : 
; 217  : 	// NOTE : [Only Assassin] 빈병이 있는지 체크 합니다.
; 218  : 	if (pSkillData->IsNeedEmptyBottle())

  000e5	e8 00 00 00 00	 call	 ?IsNeedEmptyBottle@SSkillData@CPythonSkill@@QAEHXZ ; CPythonSkill::SSkillData::IsNeedEmptyBottle
  000ea	85 c0		 test	 eax, eax
  000ec	74 1a		 je	 SHORT $LN13@CheckSkill

; 219  : 	{
; 220  : 		if (!__HasItem(27995))

  000ee	68 5b 6d 00 00	 push	 27995			; 00006d5bH
  000f3	8b ce		 mov	 ecx, esi
  000f5	e8 00 00 00 00	 call	 ?__HasItem@CPythonPlayer@@IAE_NK@Z ; CPythonPlayer::__HasItem
  000fa	84 c0		 test	 al, al
  000fc	75 0a		 jne	 SHORT $LN13@CheckSkill

; 221  : 		{
; 222  : 			PyCallClassMemberFunc(m_ppyGameWindow, "OnCannotUseSkill", Py_BuildValue("(is)", GetMainCharacterIndex(), "NEED_EMPTY_BOTTLE"));

  000fe	68 00 00 00 00	 push	 OFFSET ??_C@_0BC@DDKDAKLO@NEED_EMPTY_BOTTLE@

; 223  : 			return false;

  00103	e9 64 ff ff ff	 jmp	 $LN66@CheckSkill
$LN13@CheckSkill:

; 224  : 		}
; 225  : 	}
; 226  : 
; 227  : 	// NOTE : [Only Assassin] 독병이 있는지 체크 합니다.
; 228  : 	if (pSkillData->IsNeedPoisonBottle())

  00108	8b cb		 mov	 ecx, ebx
  0010a	e8 00 00 00 00	 call	 ?IsNeedPoisonBottle@SSkillData@CPythonSkill@@QAEHXZ ; CPythonSkill::SSkillData::IsNeedPoisonBottle
  0010f	85 c0		 test	 eax, eax
  00111	74 1a		 je	 SHORT $LN15@CheckSkill

; 229  : 	{
; 230  : 		if (!__HasItem(27996))

  00113	68 5c 6d 00 00	 push	 27996			; 00006d5cH
  00118	8b ce		 mov	 ecx, esi
  0011a	e8 00 00 00 00	 call	 ?__HasItem@CPythonPlayer@@IAE_NK@Z ; CPythonPlayer::__HasItem
  0011f	84 c0		 test	 al, al
  00121	75 0a		 jne	 SHORT $LN15@CheckSkill

; 231  : 		{
; 232  : 			PyCallClassMemberFunc(m_ppyGameWindow, "OnCannotUseSkill", Py_BuildValue("(is)", GetMainCharacterIndex(), "NEED_POISON_BOTTLE"));

  00123	68 00 00 00 00	 push	 OFFSET ??_C@_0BD@HPCMPHGF@NEED_POISON_BOTTLE@

; 233  : 			return false;

  00128	e9 3f ff ff ff	 jmp	 $LN66@CheckSkill
$LN15@CheckSkill:

; 234  : 		}
; 235  : 	}
; 236  : 
; 237  : 	// NOTE : 낚시 중일때는 스킬을 사용하지 못합니다.
; 238  : 	if (pkInstMain->IsFishingMode())

  0012d	8b 4d fc	 mov	 ecx, DWORD PTR _pkInstMain$1$[ebp]
  00130	e8 00 00 00 00	 call	 ?IsFishingMode@CInstanceBase@@QAEHXZ ; CInstanceBase::IsFishingMode
  00135	85 c0		 test	 eax, eax
  00137	74 0a		 je	 SHORT $LN16@CheckSkill

; 239  : 	{
; 240  : 		PyCallClassMemberFunc(m_ppyGameWindow, "OnCannotUseSkill", Py_BuildValue("(is)", GetMainCharacterIndex(), "REMOVE_FISHING_ROD"));

  00139	68 00 00 00 00	 push	 OFFSET ??_C@_0BD@LIIMHBCN@REMOVE_FISHING_ROD@

; 241  : 		return false;

  0013e	e9 29 ff ff ff	 jmp	 $LN66@CheckSkill
$LN16@CheckSkill:

; 242  : 	}
; 243  : 
; 244  : 	// NOTE : 레벨 체크
; 245  : 	if (m_sysIsLevelLimit)

  00143	83 be c0 f7 00
	00 00		 cmp	 DWORD PTR [esi+63424], 0
  0014a	74 13		 je	 SHORT $LN18@CheckSkill

; 246  : 	{
; 247  : 		if (rkSkillInst.iLevel <= 0)

  0014c	8b 45 f8	 mov	 eax, DWORD PTR _rkSkillInst$1$[ebp]
  0014f	83 78 0c 00	 cmp	 DWORD PTR [eax+12], 0
  00153	7f 0a		 jg	 SHORT $LN18@CheckSkill

; 248  : 		{
; 249  : 			PyCallClassMemberFunc(m_ppyGameWindow, "OnCannotUseSkill", Py_BuildValue("(is)", GetMainCharacterIndex(), "NOT_YET_LEARN"));

  00155	68 00 00 00 00	 push	 OFFSET ??_C@_0O@PFLGBNMN@NOT_YET_LEARN@

; 250  : 			return false;

  0015a	e9 0d ff ff ff	 jmp	 $LN66@CheckSkill
$LN18@CheckSkill:

; 251  : 		}
; 252  : 	}
; 253  : 
; 254  : 	// NOTE : 들고 있는 무기 체크
; 255  : 	if (!pSkillData->CanUseWeaponType(pkInstMain->GetWeaponType()))

  0015f	8b 4d fc	 mov	 ecx, DWORD PTR _pkInstMain$1$[ebp]
  00162	e8 00 00 00 00	 call	 ?GetWeaponType@CInstanceBase@@QAEKXZ ; CInstanceBase::GetWeaponType
  00167	50		 push	 eax
  00168	8b cb		 mov	 ecx, ebx
  0016a	e8 00 00 00 00	 call	 ?CanUseWeaponType@SSkillData@CPythonSkill@@QAEHK@Z ; CPythonSkill::SSkillData::CanUseWeaponType
  0016f	85 c0		 test	 eax, eax
  00171	75 0a		 jne	 SHORT $LN19@CheckSkill

; 256  : 	{
; 257  : 		PyCallClassMemberFunc(m_ppyGameWindow, "OnCannotUseSkill", Py_BuildValue("(is)", GetMainCharacterIndex(), "NOT_MATCHABLE_WEAPON"));

  00173	68 00 00 00 00	 push	 OFFSET ??_C@_0BF@KPLOMIJE@NOT_MATCHABLE_WEAPON@

; 258  : 		return false;

  00178	e9 ef fe ff ff	 jmp	 $LN66@CheckSkill
$LN19@CheckSkill:

; 259  : 	}
; 260  : 
; 261  : 	if (!pSkillData->IsHorseSkill()) // HORSE 스킬 중에 화살을 쓰지 않는 스킬이 있기 때문에

  0017d	8b cb		 mov	 ecx, ebx
  0017f	e8 00 00 00 00	 call	 ?IsHorseSkill@SSkillData@CPythonSkill@@QAEHXZ ; CPythonSkill::SSkillData::IsHorseSkill
  00184	85 c0		 test	 eax, eax
  00186	75 2b		 jne	 SHORT $LN23@CheckSkill

; 262  : 	{
; 263  : 		if (__CheckShortArrow(rkSkillInst, *pSkillData))

  00188	53		 push	 ebx
  00189	51		 push	 ecx
  0018a	8b ce		 mov	 ecx, esi
  0018c	e8 00 00 00 00	 call	 ?__CheckShortArrow@CPythonPlayer@@IAE_NAAUSSkillInstance@1@AAUSSkillData@CPythonSkill@@@Z ; CPythonPlayer::__CheckShortArrow
  00191	84 c0		 test	 al, al
  00193	0f 85 f9 fe ff
	ff		 jne	 $LN32@CheckSkill

; 264  : 			return false;
; 265  : 
; 266  : 		// NOTE : 활이 필요할 경우 화살 개수 체크
; 267  : 		if (pSkillData->IsNeedBow())

  00199	8b cb		 mov	 ecx, ebx
  0019b	e8 00 00 00 00	 call	 ?IsNeedBow@SSkillData@CPythonSkill@@QAEHXZ ; CPythonSkill::SSkillData::IsNeedBow
  001a0	85 c0		 test	 eax, eax
  001a2	74 0f		 je	 SHORT $LN23@CheckSkill

; 268  : 		{
; 269  : 			if (!__HasEnoughArrow())

  001a4	8b ce		 mov	 ecx, esi
  001a6	e8 00 00 00 00	 call	 ?__HasEnoughArrow@CPythonPlayer@@IAE_NXZ ; CPythonPlayer::__HasEnoughArrow
  001ab	84 c0		 test	 al, al
  001ad	0f 84 df fe ff
	ff		 je	 $LN32@CheckSkill
$LN23@CheckSkill:

; 270  : 				return false;
; 271  : 		}
; 272  : 	}
; 273  : 
; 274  : 	if (__CheckDashAffect(*pkInstMain))

  001b3	ff 75 fc	 push	 DWORD PTR _pkInstMain$1$[ebp]
  001b6	e8 00 00 00 00	 call	 ?__CheckDashAffect@CPythonPlayer@@IAE_NAAVCInstanceBase@@@Z ; CPythonPlayer::__CheckDashAffect
  001bb	84 c0		 test	 al, al
  001bd	74 23		 je	 SHORT $LN24@CheckSkill

; 275  : 	{
; 276  : 		if (!pSkillData->IsChargeSkill())

  001bf	8b cb		 mov	 ecx, ebx
  001c1	e8 00 00 00 00	 call	 ?IsChargeSkill@SSkillData@CPythonSkill@@QAEHXZ ; CPythonSkill::SSkillData::IsChargeSkill
  001c6	85 c0		 test	 eax, eax
  001c8	75 58		 jne	 SHORT $LN30@CheckSkill

; 277  : 		{
; 278  : 			if (__CheckRestSkillCoolTime(dwSlotIndex))

  001ca	ff 75 08	 push	 DWORD PTR _dwSlotIndex$[ebp]
  001cd	8b ce		 mov	 ecx, esi
  001cf	e8 00 00 00 00	 call	 ?__CheckRestSkillCoolTime@CPythonPlayer@@IAE_NK@Z ; CPythonPlayer::__CheckRestSkillCoolTime
  001d4	84 c0		 test	 al, al
  001d6	74 4a		 je	 SHORT $LN30@CheckSkill
$LN67@CheckSkill:

; 303  : 		}
; 304  : 	}
; 305  : 
; 306  : 	return true;
; 307  : }

  001d8	68 00 00 00 00	 push	 OFFSET ??_C@_0O@CCJDKKCC@WAIT_COOLTIME@
  001dd	e9 8a fe ff ff	 jmp	 $LN66@CheckSkill
$LN24@CheckSkill:

; 279  : 			{
; 280  : 				PyCallClassMemberFunc(m_ppyGameWindow, "OnCannotUseSkill", Py_BuildValue("(is)", GetMainCharacterIndex(), "WAIT_COOLTIME"));
; 281  : 				return false;
; 282  : 			}
; 283  : 		}
; 284  : 	}
; 285  : 	else
; 286  : 	{
; 287  : 		if (__CheckRestSkillCoolTime(dwSlotIndex))

  001e2	ff 75 08	 push	 DWORD PTR _dwSlotIndex$[ebp]
  001e5	8b ce		 mov	 ecx, esi
  001e7	e8 00 00 00 00	 call	 ?__CheckRestSkillCoolTime@CPythonPlayer@@IAE_NK@Z ; CPythonPlayer::__CheckRestSkillCoolTime
  001ec	84 c0		 test	 al, al
  001ee	75 e8		 jne	 SHORT $LN67@CheckSkill

; 288  : 		{
; 289  : 			PyCallClassMemberFunc(m_ppyGameWindow, "OnCannotUseSkill", Py_BuildValue("(is)", GetMainCharacterIndex(), "WAIT_COOLTIME"));
; 290  : 			return false;
; 291  : 		}
; 292  : 
; 293  : 		if (__CheckShortLife(rkSkillInst, *pSkillData))

  001f0	53		 push	 ebx
  001f1	ff 75 f8	 push	 DWORD PTR _rkSkillInst$1$[ebp]
  001f4	8b ce		 mov	 ecx, esi
  001f6	e8 00 00 00 00	 call	 ?__CheckShortLife@CPythonPlayer@@IAE_NAAUSSkillInstance@1@AAUSSkillData@CPythonSkill@@@Z ; CPythonPlayer::__CheckShortLife
  001fb	84 c0		 test	 al, al
  001fd	74 0a		 je	 SHORT $LN29@CheckSkill

; 294  : 		{
; 295  : 			PyCallClassMemberFunc(m_ppyGameWindow, "OnCannotUseSkill", Py_BuildValue("(is)", GetMainCharacterIndex(), "NOT_ENOUGH_HP"));

  001ff	68 00 00 00 00	 push	 OFFSET ??_C@_0O@CILBJNOC@NOT_ENOUGH_HP@

; 296  : 			return false;

  00204	e9 63 fe ff ff	 jmp	 $LN66@CheckSkill
$LN29@CheckSkill:

; 297  : 		}
; 298  : 
; 299  : 		if (__CheckShortMana(rkSkillInst, *pSkillData))

  00209	53		 push	 ebx
  0020a	ff 75 f8	 push	 DWORD PTR _rkSkillInst$1$[ebp]
  0020d	8b ce		 mov	 ecx, esi
  0020f	e8 00 00 00 00	 call	 ?__CheckShortMana@CPythonPlayer@@IAE_NAAUSSkillInstance@1@AAUSSkillData@CPythonSkill@@@Z ; CPythonPlayer::__CheckShortMana
  00214	84 c0		 test	 al, al
  00216	74 0a		 je	 SHORT $LN30@CheckSkill

; 300  : 		{
; 301  : 			PyCallClassMemberFunc(m_ppyGameWindow, "OnCannotUseSkill", Py_BuildValue("(is)", GetMainCharacterIndex(), "NOT_ENOUGH_SP"));

  00218	68 00 00 00 00	 push	 OFFSET ??_C@_0O@DIMCNBHD@NOT_ENOUGH_SP@

; 302  : 			return false;

  0021d	e9 4a fe ff ff	 jmp	 $LN66@CheckSkill
$LN30@CheckSkill:
  00222	5f		 pop	 edi

; 303  : 		}
; 304  : 	}
; 305  : 
; 306  : 	return true;
; 307  : }

  00223	5e		 pop	 esi
  00224	b0 01		 mov	 al, 1
  00226	5b		 pop	 ebx
  00227	8b e5		 mov	 esp, ebp
  00229	5d		 pop	 ebp
  0022a	c2 04 00	 ret	 4
?__CheckSkillUsable@CPythonPlayer@@IAE_NK@Z ENDP	; CPythonPlayer::__CheckSkillUsable
_TEXT	ENDS
; Function compile flags: /Ogtp
; File D:\_m2work\Server Client TMP4\ClientVS22\source\UserInterface\PythonPlayerSkill.cpp
;	COMDAT ?__CheckShortArrow@CPythonPlayer@@IAE_NAAUSSkillInstance@1@AAUSSkillData@CPythonSkill@@@Z
_TEXT	SEGMENT
_rkSkillInst$dead$ = 8					; size = 4
_rkSkillData$ = 12					; size = 4
?__CheckShortArrow@CPythonPlayer@@IAE_NAAUSSkillInstance@1@AAUSSkillData@CPythonSkill@@@Z PROC ; CPythonPlayer::__CheckShortArrow, COMDAT
; _this$ = ecx

; 310  : {

  00000	55		 push	 ebp
  00001	8b ec		 mov	 ebp, esp
  00003	8b d1		 mov	 edx, ecx

; 311  : 	if (!rkSkillData.IsNeedBow())

  00005	8b 4d 0c	 mov	 ecx, DWORD PTR _rkSkillData$[ebp]
  00008	e8 00 00 00 00	 call	 ?IsNeedBow@SSkillData@CPythonSkill@@QAEHXZ ; CPythonSkill::SSkillData::IsNeedBow
  0000d	85 c0		 test	 eax, eax
  0000f	74 10		 je	 SHORT $LN5@CheckShort

; 312  : 		return false;
; 313  : 
; 314  : 	if (__HasEnoughArrow())

  00011	8b ca		 mov	 ecx, edx
  00013	e8 00 00 00 00	 call	 ?__HasEnoughArrow@CPythonPlayer@@IAE_NXZ ; CPythonPlayer::__HasEnoughArrow
  00018	84 c0		 test	 al, al
  0001a	0f 94 c0	 sete	 al

; 316  : 	
; 317  : 	return true;
; 318  : }

  0001d	5d		 pop	 ebp
  0001e	c2 08 00	 ret	 8
$LN5@CheckShort:

; 315  : 		return false;

  00021	32 c0		 xor	 al, al

; 316  : 	
; 317  : 	return true;
; 318  : }

  00023	5d		 pop	 ebp
  00024	c2 08 00	 ret	 8
?__CheckShortArrow@CPythonPlayer@@IAE_NAAUSSkillInstance@1@AAUSSkillData@CPythonSkill@@@Z ENDP ; CPythonPlayer::__CheckShortArrow
_TEXT	ENDS
; Function compile flags: /Ogtp
; File D:\_m2work\Server Client TMP4\ClientVS22\source\UserInterface\PythonPlayerSkill.cpp
;	COMDAT ?__CheckShortMana@CPythonPlayer@@IAE_NAAUSSkillInstance@1@AAUSSkillData@CPythonSkill@@@Z
_TEXT	SEGMENT
_rkSkillInst$ = 8					; size = 4
_rkSkillData$ = 12					; size = 4
?__CheckShortMana@CPythonPlayer@@IAE_NAAUSSkillInstance@1@AAUSSkillData@CPythonSkill@@@Z PROC ; CPythonPlayer::__CheckShortMana, COMDAT
; _this$ = ecx

; 321  : {

  00000	55		 push	 ebp
  00001	8b ec		 mov	 ebp, esp

; 322  : 	extern const DWORD c_iSkillIndex_Summon;
; 323  : 	if (c_iSkillIndex_Summon == rkSkillInst.dwIndex)

  00003	8b 45 08	 mov	 eax, DWORD PTR _rkSkillInst$[ebp]
  00006	53		 push	 ebx
  00007	56		 push	 esi
  00008	57		 push	 edi
  00009	81 38 83 00 00
	00		 cmp	 DWORD PTR [eax], 131	; 00000083H
  0000f	8b d9		 mov	 ebx, ecx
  00011	74 72		 je	 SHORT $LN9@CheckShort

; 324  : 		return false;
; 325  : 
; 326  : 	int iNeedSP = rkSkillData.GetNeedSP(rkSkillInst.fcurEfficientPercentage);

  00013	8b 7d 0c	 mov	 edi, DWORD PTR _rkSkillData$[ebp]
  00016	8b cf		 mov	 ecx, edi
  00018	f3 0f 10 48 10	 movss	 xmm1, DWORD PTR [eax+16]
  0001d	e8 00 00 00 00	 call	 ?GetNeedSP@SSkillData@CPythonSkill@@QAEHM@Z ; CPythonSkill::SSkillData::GetNeedSP

; 327  : 	int icurSP = GetStatus(POINT_SP);

  00022	8b 53 04	 mov	 edx, DWORD PTR [ebx+4]
  00025	8d 4b 04	 lea	 ecx, DWORD PTR [ebx+4]
  00028	6a 07		 push	 7
  0002a	8b f0		 mov	 esi, eax
  0002c	ff 52 10	 call	 DWORD PTR [edx+16]

; 328  : 
; 329  : 	// NOTE : ToggleSkill 이 아닌데 소모 SP 가 0 이다.
; 330  : 	if (!rkSkillData.IsToggleSkill())

  0002f	8b cf		 mov	 ecx, edi
  00031	8b d0		 mov	 edx, eax
  00033	e8 00 00 00 00	 call	 ?IsToggleSkill@SSkillData@CPythonSkill@@QAEHXZ ; CPythonSkill::SSkillData::IsToggleSkill
  00038	85 c0		 test	 eax, eax
  0003a	75 22		 jne	 SHORT $LN4@CheckShort

; 331  : 	{
; 332  : 		if (iNeedSP == 0)

  0003c	85 f6		 test	 esi, esi
  0003e	75 1e		 jne	 SHORT $LN4@CheckShort

; 333  : 		{
; 334  : 			CPythonChat::Instance().AppendChat(CHAT_TYPE_INFO, "!!! Find strange game data. Please reinstall metin2.");

  00040	8b 0d 00 00 00
	00		 mov	 ecx, DWORD PTR ?ms_singleton@?$CSingleton@VCPythonChat@@@@0PAVCPythonChat@@A ; CSingleton<CPythonChat>::ms_singleton
  00046	83 c1 04	 add	 ecx, 4
  00049	68 00 00 00 00	 push	 OFFSET ??_C@_0DF@OHCKPFBO@?$CB?$CB?$CB?5Find?5strange?5game?5data?4?5Ple@
  0004e	6a 01		 push	 1
  00050	8b 01		 mov	 eax, DWORD PTR [ecx]
  00052	ff 50 04	 call	 DWORD PTR [eax+4]
  00055	5f		 pop	 edi

; 348  : 				return true;
; 349  : 	}
; 350  : 
; 351  : 	return false;
; 352  : }

  00056	5e		 pop	 esi
  00057	b0 01		 mov	 al, 1
  00059	5b		 pop	 ebx
  0005a	5d		 pop	 ebp
  0005b	c2 08 00	 ret	 8
$LN4@CheckShort:

; 335  : 			return true;
; 336  : 		}
; 337  : 	}
; 338  : 
; 339  : 	if (rkSkillData.CanUseIfNotEnough())

  0005e	e8 00 00 00 00	 call	 ?CanUseIfNotEnough@SSkillData@CPythonSkill@@QAEHXZ ; CPythonSkill::SSkillData::CanUseIfNotEnough
  00063	85 c0		 test	 eax, eax
  00065	74 0d		 je	 SHORT $LN5@CheckShort

; 340  : 	{
; 341  : 		if (icurSP <= 0)

  00067	85 d2		 test	 edx, edx
  00069	7f 1a		 jg	 SHORT $LN9@CheckShort

; 348  : 				return true;
; 349  : 	}
; 350  : 
; 351  : 	return false;
; 352  : }

  0006b	5f		 pop	 edi
  0006c	5e		 pop	 esi
  0006d	b0 01		 mov	 al, 1
  0006f	5b		 pop	 ebx
  00070	5d		 pop	 ebp
  00071	c2 08 00	 ret	 8
$LN5@CheckShort:

; 342  : 			return true;
; 343  : 	}
; 344  : 	else
; 345  : 	{
; 346  : 		if (-1 != iNeedSP)

  00074	83 fe ff	 cmp	 esi, -1
  00077	74 0c		 je	 SHORT $LN9@CheckShort

; 347  : 			if (iNeedSP > icurSP)

  00079	5f		 pop	 edi
  0007a	3b f2		 cmp	 esi, edx

; 348  : 				return true;
; 349  : 	}
; 350  : 
; 351  : 	return false;
; 352  : }

  0007c	5e		 pop	 esi
  0007d	0f 9f c0	 setg	 al
  00080	5b		 pop	 ebx
  00081	5d		 pop	 ebp
  00082	c2 08 00	 ret	 8
$LN9@CheckShort:
  00085	5f		 pop	 edi
  00086	5e		 pop	 esi
  00087	32 c0		 xor	 al, al
  00089	5b		 pop	 ebx
  0008a	5d		 pop	 ebp
  0008b	c2 08 00	 ret	 8
?__CheckShortMana@CPythonPlayer@@IAE_NAAUSSkillInstance@1@AAUSSkillData@CPythonSkill@@@Z ENDP ; CPythonPlayer::__CheckShortMana
_TEXT	ENDS
; Function compile flags: /Ogtp
; File D:\_m2work\Server Client TMP4\ClientVS22\source\UserInterface\PythonPlayerSkill.cpp
;	COMDAT ?__CheckShortLife@CPythonPlayer@@IAE_NAAUSSkillInstance@1@AAUSSkillData@CPythonSkill@@@Z
_TEXT	SEGMENT
_rkSkillInst$ = 8					; size = 4
_rkSkillData$ = 12					; size = 4
?__CheckShortLife@CPythonPlayer@@IAE_NAAUSSkillInstance@1@AAUSSkillData@CPythonSkill@@@Z PROC ; CPythonPlayer::__CheckShortLife, COMDAT
; _this$ = ecx

; 355  : {

  00000	55		 push	 ebp
  00001	8b ec		 mov	 ebp, esp
  00003	57		 push	 edi
  00004	8b f9		 mov	 edi, ecx

; 356  : 	if (!rkSkillData.IsUseHPSkill())

  00006	8b 4d 0c	 mov	 ecx, DWORD PTR _rkSkillData$[ebp]
  00009	e8 00 00 00 00	 call	 ?IsUseHPSkill@SSkillData@CPythonSkill@@QAEHXZ ; CPythonSkill::SSkillData::IsUseHPSkill
  0000e	85 c0		 test	 eax, eax
  00010	74 26		 je	 SHORT $LN5@CheckShort

; 357  : 		return false;
; 358  : 	
; 359  : 	DWORD dwNeedHP = rkSkillData.GetNeedSP(rkSkillInst.fcurEfficientPercentage);

  00012	8b 45 08	 mov	 eax, DWORD PTR _rkSkillInst$[ebp]
  00015	56		 push	 esi
  00016	f3 0f 10 48 10	 movss	 xmm1, DWORD PTR [eax+16]
  0001b	e8 00 00 00 00	 call	 ?GetNeedSP@SSkillData@CPythonSkill@@QAEHM@Z ; CPythonSkill::SSkillData::GetNeedSP

; 360  : 	if (dwNeedHP <= GetStatus(POINT_HP))

  00020	8b 57 04	 mov	 edx, DWORD PTR [edi+4]
  00023	8d 4f 04	 lea	 ecx, DWORD PTR [edi+4]
  00026	6a 05		 push	 5
  00028	8b f0		 mov	 esi, eax
  0002a	ff 52 10	 call	 DWORD PTR [edx+16]
  0002d	3b f0		 cmp	 esi, eax
  0002f	5e		 pop	 esi
  00030	0f 97 c0	 seta	 al
  00033	5f		 pop	 edi

; 362  : 
; 363  : 	return true;
; 364  : }

  00034	5d		 pop	 ebp
  00035	c2 08 00	 ret	 8
$LN5@CheckShort:

; 361  : 		return false;

  00038	32 c0		 xor	 al, al
  0003a	5f		 pop	 edi

; 362  : 
; 363  : 	return true;
; 364  : }

  0003b	5d		 pop	 ebp
  0003c	c2 08 00	 ret	 8
?__CheckShortLife@CPythonPlayer@@IAE_NAAUSSkillInstance@1@AAUSSkillData@CPythonSkill@@@Z ENDP ; CPythonPlayer::__CheckShortLife
_TEXT	ENDS
; Function compile flags: /Ogtp
; File D:\_m2work\Server Client TMP4\ClientVS22\source\UserInterface\PythonPlayerSkill.cpp
;	COMDAT ?__GetSkillTargetRange@CPythonPlayer@@IAEKAAUSSkillData@CPythonSkill@@@Z
_TEXT	SEGMENT
_rkSkillData$ = 8					; size = 4
?__GetSkillTargetRange@CPythonPlayer@@IAEKAAUSSkillData@CPythonSkill@@@Z PROC ; CPythonPlayer::__GetSkillTargetRange, COMDAT
; _this$ = ecx

; 392  : {

  00000	55		 push	 ebp
  00001	8b ec		 mov	 ebp, esp

; 393  : 	return rkSkillData.GetTargetRange() + GetStatus(POINT_BOW_DISTANCE)*100;

  00003	8b 41 04	 mov	 eax, DWORD PTR [ecx+4]
  00006	83 c1 04	 add	 ecx, 4
  00009	6a 22		 push	 34			; 00000022H
  0000b	ff 50 10	 call	 DWORD PTR [eax+16]
  0000e	8b 4d 08	 mov	 ecx, DWORD PTR _rkSkillData$[ebp]
  00011	6b d0 64	 imul	 edx, eax, 100
  00014	e8 00 00 00 00	 call	 ?GetTargetRange@SSkillData@CPythonSkill@@QBEKXZ ; CPythonSkill::SSkillData::GetTargetRange
  00019	03 c2		 add	 eax, edx

; 394  : }

  0001b	5d		 pop	 ebp
  0001c	c2 04 00	 ret	 4
?__GetSkillTargetRange@CPythonPlayer@@IAEKAAUSSkillData@CPythonSkill@@@Z ENDP ; CPythonPlayer::__GetSkillTargetRange
_TEXT	ENDS
; Function compile flags: /Ogtp
; File D:\_m2work\Server Client TMP4\ClientVS22\source\UserInterface\PythonPlayerSkill.cpp
;	COMDAT ?__ProcessEnemySkillTargetRange@CPythonPlayer@@IAE_NAAVCInstanceBase@@0AAUSSkillData@CPythonSkill@@K@Z
_TEXT	SEGMENT
_kPPosTarget$ = -20					; size = 12
_dwSkillTargetRange$1$ = -8				; size = 4
_fSkillTargetRange$1$ = -4				; size = 4
_rkInstMain$ = 8					; size = 4
_rkInstTarget$ = 12					; size = 4
_rkSkillData$ = 16					; size = 4
_fTargetDistance$1$ = 16				; size = 4
_dwSkillSlotIndex$ = 20					; size = 4
?__ProcessEnemySkillTargetRange@CPythonPlayer@@IAE_NAAVCInstanceBase@@0AAUSSkillData@CPythonSkill@@K@Z PROC ; CPythonPlayer::__ProcessEnemySkillTargetRange, COMDAT
; _this$ = ecx

; 397  : {

  00000	55		 push	 ebp
  00001	8b ec		 mov	 ebp, esp
  00003	83 ec 14	 sub	 esp, 20			; 00000014H
  00006	53		 push	 ebx
  00007	56		 push	 esi
  00008	57		 push	 edi

; 398  : 	DWORD dwSkillTargetRange=__GetSkillTargetRange(rkSkillData);

  00009	8b 7d 10	 mov	 edi, DWORD PTR _rkSkillData$[ebp]
  0000c	8b f1		 mov	 esi, ecx
  0000e	57		 push	 edi
  0000f	e8 00 00 00 00	 call	 ?__GetSkillTargetRange@CPythonPlayer@@IAEKAAUSSkillData@CPythonSkill@@@Z ; CPythonPlayer::__GetSkillTargetRange

; 399  : 	float fSkillTargetRange = float(dwSkillTargetRange);

  00014	8b c8		 mov	 ecx, eax
  00016	89 45 f8	 mov	 DWORD PTR _dwSkillTargetRange$1$[ebp], eax
  00019	c1 e9 1f	 shr	 ecx, 31			; 0000001fH
  0001c	66 0f 6e c0	 movd	 xmm0, eax
  00020	f3 0f e6 c0	 cvtdq2pd xmm0, xmm0
  00024	f2 0f 58 04 cd
	00 00 00 00	 addsd	 xmm0, QWORD PTR __xmm@41f00000000000000000000000000000[ecx*8]
  0002d	66 0f 5a c8	 cvtpd2ps xmm1, xmm0
  00031	0f 57 c0	 xorps	 xmm0, xmm0

; 400  : 	if (fSkillTargetRange <= 0.0f)

  00034	0f 2f c1	 comiss	 xmm0, xmm1
  00037	f3 0f 11 4d fc	 movss	 DWORD PTR _fSkillTargetRange$1$[ebp], xmm1
  0003c	0f 83 d6 00 00
	00		 jae	 $LN7@ProcessEne

; 401  : 		return true;
; 402  : 
; 403  : 	// #0000806: [M2EU] 수룡에게 무사(나한군) 탄환격 스킬 사용 안됨	
; 404  : 	float fTargetDistance = rkInstMain.GetDistance(&rkInstTarget);

  00042	8b 5d 0c	 mov	 ebx, DWORD PTR _rkInstTarget$[ebp]
  00045	8b 4d 08	 mov	 ecx, DWORD PTR _rkInstMain$[ebp]
  00048	53		 push	 ebx
  00049	e8 00 00 00 00	 call	 ?GetDistance@CInstanceBase@@QAEMPAV1@@Z ; CInstanceBase::GetDistance

; 405  : 
; 406  : 	extern bool IS_HUGE_RACE(unsigned int vnum);
; 407  : 	if (IS_HUGE_RACE(rkInstTarget.GetRace()))

  0004e	8b cb		 mov	 ecx, ebx
  00050	f3 0f 11 45 10	 movss	 DWORD PTR _fTargetDistance$1$[ebp], xmm0
  00055	e8 00 00 00 00	 call	 ?GetRace@CInstanceBase@@QAEKXZ ; CInstanceBase::GetRace
  0005a	50		 push	 eax
  0005b	e8 00 00 00 00	 call	 ?IS_HUGE_RACE@@YA_NI@Z	; IS_HUGE_RACE
  00060	f3 0f 10 45 10	 movss	 xmm0, DWORD PTR _fTargetDistance$1$[ebp]
  00065	83 c4 04	 add	 esp, 4
  00068	84 c0		 test	 al, al
  0006a	74 08		 je	 SHORT $LN3@ProcessEne

; 408  : 	{
; 409  : 		fTargetDistance -= 200.0f; // TEMP: 일단 하드 코딩 처리. 정석적으로는 바운드 스피어를 고려해야함

  0006c	f3 0f 5c 05 00
	00 00 00	 subss	 xmm0, DWORD PTR __real@43480000
$LN3@ProcessEne:

; 410  : 	}
; 411  : 
; 412  : 	if (fTargetDistance >= fSkillTargetRange)

  00074	0f 2f 45 fc	 comiss	 xmm0, DWORD PTR _fSkillTargetRange$1$[ebp]
  00078	72 40		 jb	 SHORT $LN4@ProcessEne

; 413  : 	{
; 414  : 		if (rkSkillData.IsChargeSkill())

  0007a	8b cf		 mov	 ecx, edi
  0007c	e8 00 00 00 00	 call	 ?IsChargeSkill@SSkillData@CPythonSkill@@QAEHXZ ; CPythonSkill::SSkillData::IsChargeSkill
  00081	8b 7d 14	 mov	 edi, DWORD PTR _dwSkillSlotIndex$[ebp]
  00084	85 c0		 test	 eax, eax
  00086	74 14		 je	 SHORT $LN6@ProcessEne

; 415  : 		{
; 416  : 			if (!__IsReservedUseSkill(dwSkillSlotIndex))

  00088	57		 push	 edi
  00089	8b ce		 mov	 ecx, esi
  0008b	e8 00 00 00 00	 call	 ?__IsReservedUseSkill@CPythonPlayer@@IAE_NK@Z ; CPythonPlayer::__IsReservedUseSkill
  00090	84 c0		 test	 al, al
  00092	75 08		 jne	 SHORT $LN6@ProcessEne

; 417  : 				__SendUseSkill(dwSkillSlotIndex, 0);

  00094	6a 00		 push	 0
  00096	57		 push	 edi
  00097	e8 00 00 00 00	 call	 ?__SendUseSkill@CPythonPlayer@@IAEXKK@Z ; CPythonPlayer::__SendUseSkill
$LN6@ProcessEne:

; 418  : 		}
; 419  : 
; 420  : 		__ReserveUseSkill(rkInstTarget.GetVirtualID(), dwSkillSlotIndex, dwSkillTargetRange);

  0009c	ff 75 f8	 push	 DWORD PTR _dwSkillTargetRange$1$[ebp]
  0009f	8b cb		 mov	 ecx, ebx
  000a1	57		 push	 edi
  000a2	e8 00 00 00 00	 call	 ?GetVirtualID@CInstanceBase@@QAEKXZ ; CInstanceBase::GetVirtualID
  000a7	50		 push	 eax
  000a8	8b ce		 mov	 ecx, esi
  000aa	e8 00 00 00 00	 call	 ?__ReserveUseSkill@CPythonPlayer@@IAEXKKK@Z ; CPythonPlayer::__ReserveUseSkill
  000af	5f		 pop	 edi

; 434  : 	}
; 435  : 
; 436  : 	return true;
; 437  : }

  000b0	5e		 pop	 esi
  000b1	32 c0		 xor	 al, al
  000b3	5b		 pop	 ebx
  000b4	8b e5		 mov	 esp, ebp
  000b6	5d		 pop	 ebp
  000b7	c2 10 00	 ret	 16			; 00000010H
$LN4@ProcessEne:

; 421  : 
; 422  : 		return false;
; 423  : 	}
; 424  : 
; 425  : 	// 2004.07.05.myevan. 궁신탄영 사용시 맵에 끼임. 사용하기전 갈수 있는곳 체크
; 426  : 	TPixelPosition kPPosTarget;
; 427  : 	rkInstTarget.NEW_GetPixelPosition(&kPPosTarget);

  000ba	8d 45 ec	 lea	 eax, DWORD PTR _kPPosTarget$[ebp]
  000bd	8b cb		 mov	 ecx, ebx
  000bf	50		 push	 eax
  000c0	e8 00 00 00 00	 call	 ?NEW_GetPixelPosition@CInstanceBase@@QAEXPAUD3DXVECTOR3@@@Z ; CInstanceBase::NEW_GetPixelPosition

; 428  : 
; 429  : 	IBackground& rkBG=IBackground::Instance();

  000c5	8b 0d 00 00 00
	00		 mov	 ecx, DWORD PTR ?ms_singleton@?$CSingleton@VIBackground@@@@0PAVIBackground@@A ; CSingleton<IBackground>::ms_singleton

; 430  : 	if (rkBG.IsBlock(kPPosTarget.x, kPPosTarget.y))

  000cb	8b 01		 mov	 eax, DWORD PTR [ecx]
  000cd	8b 50 04	 mov	 edx, DWORD PTR [eax+4]
  000d0	f3 0f 2c 45 f0	 cvttss2si eax, DWORD PTR _kPPosTarget$[ebp+4]
  000d5	50		 push	 eax
  000d6	f3 0f 2c 45 ec	 cvttss2si eax, DWORD PTR _kPPosTarget$[ebp]
  000db	50		 push	 eax
  000dc	ff d2		 call	 edx
  000de	84 c0		 test	 al, al
  000e0	74 36		 je	 SHORT $LN7@ProcessEne

; 431  : 	{
; 432  : 		PyCallClassMemberFunc(m_ppyGameWindow, "OnCannotUseSkill", Py_BuildValue("(is)", GetMainCharacterIndex(), "CANNOT_APPROACH"));

  000e2	8b 46 04	 mov	 eax, DWORD PTR [esi+4]
  000e5	8d 4e 04	 lea	 ecx, DWORD PTR [esi+4]
  000e8	68 00 00 00 00	 push	 OFFSET ??_C@_0BA@CFBPJACC@CANNOT_APPROACH@
  000ed	ff 50 04	 call	 DWORD PTR [eax+4]
  000f0	50		 push	 eax
  000f1	68 00 00 00 00	 push	 OFFSET ??_C@_04JMLDJNEM@?$CIis?$CJ@
  000f6	ff 15 00 00 00
	00		 call	 DWORD PTR __imp__Py_BuildValue
  000fc	50		 push	 eax
  000fd	68 00 00 00 00	 push	 OFFSET ??_C@_0BB@BOHMBBJL@OnCannotUseSkill@
  00102	ff 76 08	 push	 DWORD PTR [esi+8]
  00105	e8 00 00 00 00	 call	 ?PyCallClassMemberFunc@@YA_NPAU_object@@PBD0@Z ; PyCallClassMemberFunc
  0010a	83 c4 18	 add	 esp, 24			; 00000018H

; 433  : 		return false;

  0010d	32 c0		 xor	 al, al
  0010f	5f		 pop	 edi

; 434  : 	}
; 435  : 
; 436  : 	return true;
; 437  : }

  00110	5e		 pop	 esi
  00111	5b		 pop	 ebx
  00112	8b e5		 mov	 esp, ebp
  00114	5d		 pop	 ebp
  00115	c2 10 00	 ret	 16			; 00000010H
$LN7@ProcessEne:
  00118	5f		 pop	 edi
  00119	5e		 pop	 esi
  0011a	b0 01		 mov	 al, 1
  0011c	5b		 pop	 ebx
  0011d	8b e5		 mov	 esp, ebp
  0011f	5d		 pop	 ebp
  00120	c2 10 00	 ret	 16			; 00000010H
?__ProcessEnemySkillTargetRange@CPythonPlayer@@IAE_NAAVCInstanceBase@@0AAUSSkillData@CPythonSkill@@K@Z ENDP ; CPythonPlayer::__ProcessEnemySkillTargetRange
_TEXT	ENDS
; Function compile flags: /Ogtp
; File D:\_m2work\Server Client TMP4\ClientVS22\source\UserInterface\PythonPlayerSkill.cpp
;	COMDAT ?__CanUseSkill@CPythonPlayer@@IAE_NXZ
_TEXT	SEGMENT
?__CanUseSkill@CPythonPlayer@@IAE_NXZ PROC		; CPythonPlayer::__CanUseSkill, COMDAT
; _this$ = ecx

; 440  : {

  00000	56		 push	 esi
  00001	8b f1		 mov	 esi, ecx

; 441  : 	CInstanceBase* pkInstMain=NEW_GetMainActorPtr();

  00003	8b 46 04	 mov	 eax, DWORD PTR [esi+4]
  00006	8d 4e 04	 lea	 ecx, DWORD PTR [esi+4]
  00009	ff 90 88 00 00
	00		 call	 DWORD PTR [eax+136]
  0000f	8b d0		 mov	 edx, eax

; 442  : 	if (!pkInstMain)

  00011	85 d2		 test	 edx, edx
  00013	74 38		 je	 SHORT $LN6@CanUseSkil

; 443  : 		return false;
; 444  : 
; 445  : 	if (IsObserverMode())

  00015	8b ce		 mov	 ecx, esi
  00017	e8 00 00 00 00	 call	 ?IsObserverMode@CPythonPlayer@@QAE_NXZ ; CPythonPlayer::IsObserverMode
  0001c	84 c0		 test	 al, al
  0001e	75 2d		 jne	 SHORT $LN6@CanUseSkil

; 446  : 		return false;
; 447  : 
; 448  : 	// Fix me
; 449  : 	// 뉴마운트. 승마스킬레벨 20 미만인 경우, 고급 마운트를 타고 승마 관련 스킬 못 쓰도록 못하도록 하드 코딩... 
; 450  : 	// 나중에 시간 나면 can use skill 체크를 서버에서 해주자...
; 451  : 	if (pkInstMain->IsMountingHorse() && (GetSkillGrade(109) < 1 && GetSkillLevel(109) < 20))

  00020	8b ca		 mov	 ecx, edx
  00022	e8 00 00 00 00	 call	 ?IsMountingHorse@CInstanceBase@@QAEHXZ ; CInstanceBase::IsMountingHorse
  00027	85 c0		 test	 eax, eax
  00029	74 1a		 je	 SHORT $LN4@CanUseSkil
  0002b	6a 6d		 push	 109			; 0000006dH
  0002d	8b ce		 mov	 ecx, esi
  0002f	e8 00 00 00 00	 call	 ?GetSkillGrade@CPythonPlayer@@QAEHK@Z ; CPythonPlayer::GetSkillGrade
  00034	83 f8 01	 cmp	 eax, 1
  00037	7d 0c		 jge	 SHORT $LN4@CanUseSkil
  00039	6a 6d		 push	 109			; 0000006dH
  0003b	e8 00 00 00 00	 call	 ?GetSkillLevel@CPythonPlayer@@QAEHK@Z ; CPythonPlayer::GetSkillLevel
  00040	83 f8 14	 cmp	 eax, 20			; 00000014H
  00043	7c 08		 jl	 SHORT $LN6@CanUseSkil
$LN4@CanUseSkil:

; 454  : 	}
; 455  : 
; 456  : 	return pkInstMain->CanUseSkill();

  00045	8b ca		 mov	 ecx, edx
  00047	5e		 pop	 esi
  00048	e9 00 00 00 00	 jmp	 ?CanUseSkill@CInstanceBase@@QAE_NXZ ; CInstanceBase::CanUseSkill
$LN6@CanUseSkil:

; 452  : 	{
; 453  : 		return false;

  0004d	32 c0		 xor	 al, al
  0004f	5e		 pop	 esi

; 457  : }

  00050	c3		 ret	 0
?__CanUseSkill@CPythonPlayer@@IAE_NXZ ENDP		; CPythonPlayer::__CanUseSkill
_TEXT	ENDS
; Function compile flags: /Ogtp
; File D:\_m2work\Server Client TMP4\ClientVS22\source\UserInterface\PythonPlayerSkill.cpp
;	COMDAT ?__SendUseSkill@CPythonPlayer@@IAEXKK@Z
_TEXT	SEGMENT
_dwSkillSlotIndex$ = 8					; size = 4
_dwTargetVID$ = 12					; size = 4
?__SendUseSkill@CPythonPlayer@@IAEXKK@Z PROC		; CPythonPlayer::__SendUseSkill, COMDAT
; _this$ = ecx

; 773  : {

  00000	55		 push	 ebp
  00001	8b ec		 mov	 ebp, esp
  00003	56		 push	 esi

; 774  : 	TSkillInstance & rkSkillInst = m_playerStatus.aSkill[dwSkillSlotIndex];

  00004	8b 75 08	 mov	 esi, DWORD PTR _dwSkillSlotIndex$[ebp]
  00007	57		 push	 edi

; 775  : 
; 776  : 	CPythonNetworkStream& rkNetStream=CPythonNetworkStream::Instance();
; 777  : 	rkNetStream.SendUseSkillPacket(rkSkillInst.dwIndex, dwTargetVID);

  00008	ff 75 0c	 push	 DWORD PTR _dwTargetVID$[ebp]
  0000b	8b f9		 mov	 edi, ecx
  0000d	8b 0d 00 00 00
	00		 mov	 ecx, DWORD PTR ?ms_singleton@?$CSingleton@VCPythonNetworkStream@@@@0PAVCPythonNetworkStream@@A ; CSingleton<CPythonNetworkStream>::ms_singleton
  00013	8d 04 b6	 lea	 eax, DWORD PTR [esi+esi*4]
  00016	ff b4 c7 68 cb
	00 00		 push	 DWORD PTR [edi+eax*8+52072]
  0001d	e8 00 00 00 00	 call	 ?SendUseSkillPacket@CPythonNetworkStream@@QAE_NKK@Z ; CPythonNetworkStream::SendUseSkillPacket

; 778  : 
; 779  : 	__RunCoolTime(dwSkillSlotIndex);

  00022	56		 push	 esi
  00023	8b cf		 mov	 ecx, edi
  00025	e8 00 00 00 00	 call	 ?__RunCoolTime@CPythonPlayer@@IAEXK@Z ; CPythonPlayer::__RunCoolTime
  0002a	5f		 pop	 edi
  0002b	5e		 pop	 esi

; 780  : }

  0002c	5d		 pop	 ebp
  0002d	c2 08 00	 ret	 8
?__SendUseSkill@CPythonPlayer@@IAEXKK@Z ENDP		; CPythonPlayer::__SendUseSkill
_TEXT	ENDS
; Function compile flags: /Ogtp
; File D:\_m2work\Server Client TMP4\ClientVS22\source\UserInterface\PythonPlayerSkill.cpp
;	COMDAT ?__RunCoolTime@CPythonPlayer@@IAEXK@Z
_TEXT	SEGMENT
_pkSkillData$ = -4					; size = 4
_dwSkillSlotIndex$ = 8					; size = 4
?__RunCoolTime@CPythonPlayer@@IAEXK@Z PROC		; CPythonPlayer::__RunCoolTime, COMDAT
; _this$ = ecx

; 797  : {

  00000	55		 push	 ebp
  00001	8b ec		 mov	 ebp, esp
  00003	83 e4 c0	 and	 esp, -64		; ffffffc0H
  00006	83 ec 34	 sub	 esp, 52			; 00000034H

; 798  : 	TSkillInstance & rkSkillInst = m_playerStatus.aSkill[dwSkillSlotIndex];
; 799  : 
; 800  : 	CPythonSkill::TSkillData * pkSkillData;
; 801  : 	if (!CPythonSkill::Instance().GetSkillData(rkSkillInst.dwIndex, &pkSkillData))

  00009	8d 44 24 30	 lea	 eax, DWORD PTR _pkSkillData$[esp+52]
  0000d	53		 push	 ebx
  0000e	56		 push	 esi
  0000f	57		 push	 edi
  00010	8b 7d 08	 mov	 edi, DWORD PTR _dwSkillSlotIndex$[ebp]
  00013	8b f1		 mov	 esi, ecx
  00015	8b 0d 00 00 00
	00		 mov	 ecx, DWORD PTR ?ms_singleton@?$CSingleton@VCPythonSkill@@@@0PAVCPythonSkill@@A ; CSingleton<CPythonSkill>::ms_singleton
  0001b	50		 push	 eax
  0001c	8d 1c bf	 lea	 ebx, DWORD PTR [edi+edi*4]
  0001f	ff b4 de 68 cb
	00 00		 push	 DWORD PTR [esi+ebx*8+52072]
  00026	e8 00 00 00 00	 call	 ?GetSkillData@CPythonSkill@@QAEHKPAPAUSSkillData@1@@Z ; CPythonSkill::GetSkillData
  0002b	85 c0		 test	 eax, eax
  0002d	75 17		 jne	 SHORT $LN2@RunCoolTim

; 802  : 	{
; 803  : 		TraceError("CPythonPlayer::__SendUseSkill(dwSkillSlotIndex=%d) - NOT CHECK", dwSkillSlotIndex);

  0002f	57		 push	 edi
  00030	68 00 00 00 00	 push	 OFFSET ??_C@_0DP@EKGIGFIO@CPythonPlayer?3?3__SendUseSkill?$CId@
  00035	e8 00 00 00 00	 call	 ?TraceError@@YAXPBDZZ	; TraceError
  0003a	83 c4 08	 add	 esp, 8

; 823  : }

  0003d	5f		 pop	 edi
  0003e	5e		 pop	 esi
  0003f	5b		 pop	 ebx
  00040	8b e5		 mov	 esp, ebp
  00042	5d		 pop	 ebp
  00043	c2 04 00	 ret	 4
$LN2@RunCoolTim:

; 804  : 		return;
; 805  : 	}
; 806  : 
; 807  : 	CPythonSkill::TSkillData& rkSkillData=*pkSkillData;
; 808  : 
; 809  : 	rkSkillInst.fCoolTime = rkSkillData.GetSkillCoolTime(rkSkillInst.fcurEfficientPercentage);

  00046	f3 0f 10 8c de
	78 cb 00 00	 movss	 xmm1, DWORD PTR [esi+ebx*8+52088]
  0004f	8b 4c 24 3c	 mov	 ecx, DWORD PTR _pkSkillData$[esp+64]
  00053	e8 00 00 00 00	 call	 ?GetSkillCoolTime@SSkillData@CPythonSkill@@QAEKM@Z ; CPythonSkill::SSkillData::GetSkillCoolTime
  00058	66 0f 6e c0	 movd	 xmm0, eax
  0005c	f3 0f e6 c0	 cvtdq2pd xmm0, xmm0
  00060	c1 e8 1f	 shr	 eax, 31			; 0000001fH
  00063	f2 0f 58 04 c5
	00 00 00 00	 addsd	 xmm0, QWORD PTR __xmm@41f00000000000000000000000000000[eax*8]
  0006c	66 0f 5a c0	 cvtpd2ps xmm0, xmm0
  00070	f3 0f 11 84 de
	84 cb 00 00	 movss	 DWORD PTR [esi+ebx*8+52100], xmm0

; 810  : 	rkSkillInst.fLastUsedTime = CTimer::Instance().GetCurrentSecond();

  00079	8b 0d 00 00 00
	00		 mov	 ecx, DWORD PTR ?ms_singleton@?$CSingleton@VCTimer@@@@0PAVCTimer@@A ; CSingleton<CTimer>::ms_singleton
  0007f	e8 00 00 00 00	 call	 ?GetCurrentSecond@CTimer@@QAEMXZ ; CTimer::GetCurrentSecond

; 811  : 
; 812  : 	int iSpd = 100 - GetStatus(POINT_CASTING_SPEED);

  00084	8d 4e 04	 lea	 ecx, DWORD PTR [esi+4]
  00087	d9 9c de 88 cb
	00 00		 fstp	 DWORD PTR [esi+ebx*8+52104]
  0008e	8b 01		 mov	 eax, DWORD PTR [ecx]
  00090	6a 15		 push	 21			; 00000015H
  00092	ff 50 10	 call	 DWORD PTR [eax+16]
  00095	8b c8		 mov	 ecx, eax
  00097	b8 64 00 00 00	 mov	 eax, 100		; 00000064H
  0009c	2b c1		 sub	 eax, ecx

; 813  : 	if (iSpd > 0)

  0009e	85 c0		 test	 eax, eax
  000a0	7e 05		 jle	 SHORT $LN8@RunCoolTim

; 814  : 		iSpd = 100 + iSpd;

  000a2	83 c0 64	 add	 eax, 100		; 00000064H
  000a5	eb 11		 jmp	 SHORT $LN6@RunCoolTim
$LN8@RunCoolTim:

; 815  : 	else if (iSpd < 0)

  000a7	79 0a		 jns	 SHORT $LN5@RunCoolTim

; 816  : 		iSpd = 10000 / (100 - iSpd);

  000a9	b8 10 27 00 00	 mov	 eax, 10000		; 00002710H
  000ae	99		 cdq
  000af	f7 f9		 idiv	 ecx
  000b1	eb 05		 jmp	 SHORT $LN6@RunCoolTim
$LN5@RunCoolTim:

; 817  : 	else
; 818  : 		iSpd = 100;

  000b3	b8 64 00 00 00	 mov	 eax, 100		; 00000064H
$LN6@RunCoolTim:
  000b8	66 0f 6e c0	 movd	 xmm0, eax

; 819  : 
; 820  : 	rkSkillInst.fCoolTime = rkSkillInst.fCoolTime * iSpd / 100;
; 821  : 
; 822  : 	PyCallClassMemberFunc(m_ppyGameWindow, "RunUseSkillEvent", Py_BuildValue("(if)", dwSkillSlotIndex, rkSkillInst.fCoolTime));

  000bc	83 ec 08	 sub	 esp, 8
  000bf	0f 5b c0	 cvtdq2ps xmm0, xmm0
  000c2	f3 0f 59 84 de
	84 cb 00 00	 mulss	 xmm0, DWORD PTR [esi+ebx*8+52100]
  000cb	f3 0f 5e 05 00
	00 00 00	 divss	 xmm0, DWORD PTR __real@42c80000
  000d3	f3 0f 11 84 de
	84 cb 00 00	 movss	 DWORD PTR [esi+ebx*8+52100], xmm0
  000dc	0f 5a c0	 cvtps2pd xmm0, xmm0
  000df	f2 0f 11 04 24	 movsd	 QWORD PTR [esp], xmm0
  000e4	57		 push	 edi
  000e5	68 00 00 00 00	 push	 OFFSET ??_C@_04IGFOPMNH@?$CIif?$CJ@
  000ea	ff 15 00 00 00
	00		 call	 DWORD PTR __imp__Py_BuildValue
  000f0	50		 push	 eax
  000f1	68 00 00 00 00	 push	 OFFSET ??_C@_0BB@GJACMMFG@RunUseSkillEvent@
  000f6	ff 76 08	 push	 DWORD PTR [esi+8]
  000f9	e8 00 00 00 00	 call	 ?PyCallClassMemberFunc@@YA_NPAU_object@@PBD0@Z ; PyCallClassMemberFunc
  000fe	83 c4 1c	 add	 esp, 28			; 0000001cH

; 823  : }

  00101	5f		 pop	 edi
  00102	5e		 pop	 esi
  00103	5b		 pop	 ebx
  00104	8b e5		 mov	 esp, ebp
  00106	5d		 pop	 ebp
  00107	c2 04 00	 ret	 4
?__RunCoolTime@CPythonPlayer@@IAEXK@Z ENDP		; CPythonPlayer::__RunCoolTime
_TEXT	ENDS
; Function compile flags: /Ogtp
; File D:\_m2work\Server Client TMP4\ClientVS22\source\UserInterface\PythonPlayerSkill.cpp
;	COMDAT ?__HasItem@CPythonPlayer@@IAE_NK@Z
_TEXT	SEGMENT
$T1 = -4						; size = 3
_dwItemID$ = 8						; size = 4
$T2 = 8							; size = 3
?__HasItem@CPythonPlayer@@IAE_NK@Z PROC			; CPythonPlayer::__HasItem, COMDAT
; _this$ = ecx

; 840  : {

  00000	55		 push	 ebp
  00001	8b ec		 mov	 ebp, esp
  00003	51		 push	 ecx
  00004	53		 push	 ebx

; 842  : 	{
; 843  : 		if (dwItemID == GetItemIndex(TItemPos (INVENTORY, i)))

  00005	8b 5d 08	 mov	 ebx, DWORD PTR _dwItemID$[ebp]
  00008	56		 push	 esi
  00009	57		 push	 edi
  0000a	33 f6		 xor	 esi, esi
  0000c	c6 45 fc 01	 mov	 BYTE PTR $T1[ebp], 1
  00010	8d 79 04	 lea	 edi, DWORD PTR [ecx+4]
$LL4@HasItem:
  00013	8b 07		 mov	 eax, DWORD PTR [edi]
  00015	51		 push	 ecx
  00016	8b cc		 mov	 ecx, esp
  00018	66 89 75 fd	 mov	 WORD PTR $T1[ebp+1], si
  0001c	8b 50 40	 mov	 edx, DWORD PTR [eax+64]
  0001f	66 8b 45 fc	 mov	 ax, WORD PTR $T1[ebp]
  00023	66 89 01	 mov	 WORD PTR [ecx], ax
  00026	8a 45 fe	 mov	 al, BYTE PTR $T1[ebp+2]
  00029	88 41 02	 mov	 BYTE PTR [ecx+2], al
  0002c	8b cf		 mov	 ecx, edi
  0002e	ff d2		 call	 edx
  00030	3b d8		 cmp	 ebx, eax
  00032	74 44		 je	 SHORT $LN18@HasItem

; 841  : 	for (int i = 0; i < c_Inventory_Count; ++i)

  00034	46		 inc	 esi
  00035	81 fe a8 00 00
	00		 cmp	 esi, 168		; 000000a8H
  0003b	72 d6		 jb	 SHORT $LL4@HasItem

; 844  : 			return true;
; 845  : 	}
; 846  : 	for (int i = 0; i < c_DragonSoul_Inventory_Count; ++i)

  0003d	33 f6		 xor	 esi, esi

; 847  : 	{
; 848  : 		if (dwItemID == GetItemIndex(TItemPos (DRAGON_SOUL_INVENTORY, i)))

  0003f	c6 45 08 05	 mov	 BYTE PTR $T2[ebp], 5
$LL7@HasItem:
  00043	8b 07		 mov	 eax, DWORD PTR [edi]
  00045	51		 push	 ecx
  00046	8b cc		 mov	 ecx, esp
  00048	66 89 75 09	 mov	 WORD PTR $T2[ebp+1], si
  0004c	8b 50 40	 mov	 edx, DWORD PTR [eax+64]
  0004f	66 8b 45 08	 mov	 ax, WORD PTR $T2[ebp]
  00053	66 89 01	 mov	 WORD PTR [ecx], ax
  00056	8a 45 0a	 mov	 al, BYTE PTR $T2[ebp+2]
  00059	88 41 02	 mov	 BYTE PTR [ecx+2], al
  0005c	8b cf		 mov	 ecx, edi
  0005e	ff d2		 call	 edx
  00060	3b d8		 cmp	 ebx, eax
  00062	74 14		 je	 SHORT $LN18@HasItem

; 844  : 			return true;
; 845  : 	}
; 846  : 	for (int i = 0; i < c_DragonSoul_Inventory_Count; ++i)

  00064	46		 inc	 esi
  00065	81 fe c0 03 00
	00		 cmp	 esi, 960		; 000003c0H
  0006b	72 d6		 jb	 SHORT $LL7@HasItem

; 849  : 			return true;
; 850  : 	}
; 851  : 
; 852  : 	return false;

  0006d	32 c0		 xor	 al, al

; 853  : }

  0006f	5f		 pop	 edi
  00070	5e		 pop	 esi
  00071	5b		 pop	 ebx
  00072	8b e5		 mov	 esp, ebp
  00074	5d		 pop	 ebp
  00075	c2 04 00	 ret	 4
$LN18@HasItem:
  00078	5f		 pop	 edi
  00079	5e		 pop	 esi
  0007a	b0 01		 mov	 al, 1
  0007c	5b		 pop	 ebx
  0007d	8b e5		 mov	 esp, ebp
  0007f	5d		 pop	 ebp
  00080	c2 04 00	 ret	 4
?__HasItem@CPythonPlayer@@IAE_NK@Z ENDP			; CPythonPlayer::__HasItem
_TEXT	ENDS
; Function compile flags: /Ogtp
; File D:\_m2work\Server Client TMP4\ClientVS22\source\UserInterface\PythonPlayerSkill.cpp
;	COMDAT ?__CheckSpecialSkill@CPythonPlayer@@IAE_NK@Z
_TEXT	SEGMENT
_dwSkillIndex$ = 8					; size = 4
_dwSlotIndex$1 = 8					; size = 4
?__CheckSpecialSkill@CPythonPlayer@@IAE_NK@Z PROC	; CPythonPlayer::__CheckSpecialSkill, COMDAT
; _this$ = ecx

; 951  : {

  00000	55		 push	 ebp
  00001	8b ec		 mov	 ebp, esp
  00003	56		 push	 esi
  00004	8b f1		 mov	 esi, ecx
  00006	57		 push	 edi

; 952  : 	CInstanceBase* pkInstMain = NEW_GetMainActorPtr();

  00007	8b 46 04	 mov	 eax, DWORD PTR [esi+4]
  0000a	8d 4e 04	 lea	 ecx, DWORD PTR [esi+4]
  0000d	ff 90 88 00 00
	00		 call	 DWORD PTR [eax+136]

; 953  : 	if (!pkInstMain)

  00013	85 c0		 test	 eax, eax
  00015	0f 84 96 00 00
	00		 je	 $LN7@CheckSpeci

; 954  : 		return false;
; 955  : 
; 956  : 	// Fishing
; 957  : 	if (c_iSkillIndex_Fishing == dwSkillIndex)

  0001b	8b 4d 08	 mov	 ecx, DWORD PTR _dwSkillIndex$[ebp]
  0001e	83 f9 7b	 cmp	 ecx, 123		; 0000007bH
  00021	75 21		 jne	 SHORT $LN3@CheckSpeci

; 958  : 	{
; 959  : 		if (pkInstMain->IsFishingMode())

  00023	8b c8		 mov	 ecx, eax
  00025	e8 00 00 00 00	 call	 ?IsFishingMode@CInstanceBase@@QAEHXZ ; CInstanceBase::IsFishingMode
  0002a	85 c0		 test	 eax, eax
  0002c	74 0f		 je	 SHORT $LN5@CheckSpeci

; 960  : 		{
; 961  : 			NEW_Fishing();

  0002e	8b ce		 mov	 ecx, esi
  00030	e8 00 00 00 00	 call	 ?NEW_Fishing@CPythonPlayer@@QAEXXZ ; CPythonPlayer::NEW_Fishing
  00035	5f		 pop	 edi

; 985  : 		}
; 986  : 
; 987  : 		return true;

  00036	b0 01		 mov	 al, 1

; 991  : }

  00038	5e		 pop	 esi
  00039	5d		 pop	 ebp
  0003a	c2 04 00	 ret	 4
$LN5@CheckSpeci:

; 962  : 		}
; 963  : 		else
; 964  : 		{
; 965  : 			PyCallClassMemberFunc(m_ppyGameWindow, "OnCannotUseSkill", Py_BuildValue("(is)", GetMainCharacterIndex(), "EQUIP_FISHING_ROD"));

  0003d	68 00 00 00 00	 push	 OFFSET ??_C@_0BC@ENEHNNJB@EQUIP_FISHING_ROD@

; 972  : 	{
; 973  : 		DWORD dwSlotIndex;
; 974  : 		if (!GetSkillSlotIndex(dwSkillIndex, &dwSlotIndex))

  00042	eb 3f		 jmp	 SHORT $LN20@CheckSpeci
$LN3@CheckSpeci:

; 966  : 		}
; 967  : 		return true;
; 968  : 	}
; 969  : 
; 970  : 	// Combo
; 971  : 	else if (c_iSkillIndex_Combo == dwSkillIndex)

  00044	83 f9 7a	 cmp	 ecx, 122		; 0000007aH
  00047	75 68		 jne	 SHORT $LN7@CheckSpeci

; 972  : 	{
; 973  : 		DWORD dwSlotIndex;
; 974  : 		if (!GetSkillSlotIndex(dwSkillIndex, &dwSlotIndex))

  00049	8d 45 08	 lea	 eax, DWORD PTR _dwSlotIndex$1[ebp]
  0004c	50		 push	 eax
  0004d	51		 push	 ecx
  0004e	8b ce		 mov	 ecx, esi
  00050	e8 00 00 00 00	 call	 ?GetSkillSlotIndex@CPythonPlayer@@QAE_NKPAK@Z ; CPythonPlayer::GetSkillSlotIndex
  00055	84 c0		 test	 al, al
  00057	74 58		 je	 SHORT $LN7@CheckSpeci

; 975  : 			return false;
; 976  : 
; 977  : 		int iLevel = GetSkillLevel(dwSlotIndex);

  00059	ff 75 08	 push	 DWORD PTR _dwSlotIndex$1[ebp]
  0005c	8b ce		 mov	 ecx, esi
  0005e	e8 00 00 00 00	 call	 ?GetSkillLevel@CPythonPlayer@@QAEHK@Z ; CPythonPlayer::GetSkillLevel

; 978  : 		if (iLevel > 0)

  00063	85 c0		 test	 eax, eax
  00065	7e 17		 jle	 SHORT $LN9@CheckSpeci

; 979  : 		{
; 980  : 			CPythonNetworkStream::Instance().SendUseSkillPacket(dwSkillIndex);

  00067	8b 0d 00 00 00
	00		 mov	 ecx, DWORD PTR ?ms_singleton@?$CSingleton@VCPythonNetworkStream@@@@0PAVCPythonNetworkStream@@A ; CSingleton<CPythonNetworkStream>::ms_singleton
  0006d	6a 00		 push	 0
  0006f	6a 7a		 push	 122			; 0000007aH
  00071	e8 00 00 00 00	 call	 ?SendUseSkillPacket@CPythonNetworkStream@@QAE_NKK@Z ; CPythonNetworkStream::SendUseSkillPacket
  00076	5f		 pop	 edi

; 985  : 		}
; 986  : 
; 987  : 		return true;

  00077	b0 01		 mov	 al, 1

; 991  : }

  00079	5e		 pop	 esi
  0007a	5d		 pop	 ebp
  0007b	c2 04 00	 ret	 4
$LN9@CheckSpeci:

; 981  : 		}
; 982  : 		else
; 983  : 		{
; 984  : 			PyCallClassMemberFunc(m_ppyGameWindow, "OnCannotUseSkill", Py_BuildValue("(is)", GetMainCharacterIndex(), "NOT_YET_LEARN"));

  0007e	68 00 00 00 00	 push	 OFFSET ??_C@_0O@PFLGBNMN@NOT_YET_LEARN@
$LN20@CheckSpeci:

; 985  : 		}
; 986  : 
; 987  : 		return true;

  00083	8b 46 04	 mov	 eax, DWORD PTR [esi+4]
  00086	8d 4e 04	 lea	 ecx, DWORD PTR [esi+4]
  00089	ff 50 04	 call	 DWORD PTR [eax+4]
  0008c	50		 push	 eax
  0008d	68 00 00 00 00	 push	 OFFSET ??_C@_04JMLDJNEM@?$CIis?$CJ@
  00092	ff 15 00 00 00
	00		 call	 DWORD PTR __imp__Py_BuildValue
  00098	50		 push	 eax
  00099	68 00 00 00 00	 push	 OFFSET ??_C@_0BB@BOHMBBJL@OnCannotUseSkill@
  0009e	ff 76 08	 push	 DWORD PTR [esi+8]
  000a1	e8 00 00 00 00	 call	 ?PyCallClassMemberFunc@@YA_NPAU_object@@PBD0@Z ; PyCallClassMemberFunc
  000a6	83 c4 18	 add	 esp, 24			; 00000018H
  000a9	b0 01		 mov	 al, 1
  000ab	5f		 pop	 edi

; 991  : }

  000ac	5e		 pop	 esi
  000ad	5d		 pop	 ebp
  000ae	c2 04 00	 ret	 4
$LN7@CheckSpeci:
  000b1	5f		 pop	 edi

; 988  : 	}
; 989  : 
; 990  : 	return false;

  000b2	32 c0		 xor	 al, al

; 991  : }

  000b4	5e		 pop	 esi
  000b5	5d		 pop	 ebp
  000b6	c2 04 00	 ret	 4
?__CheckSpecialSkill@CPythonPlayer@@IAE_NK@Z ENDP	; CPythonPlayer::__CheckSpecialSkill
_TEXT	ENDS
; Function compile flags: /Ogtp
; File D:\_m2work\Server Client TMP4\ClientVS22\source\eterBase\Singleton.h
;	COMDAT ?Instance@?$CSingleton@VIBackground@@@@SAAAVIBackground@@XZ
_TEXT	SEGMENT
?Instance@?$CSingleton@VIBackground@@@@SAAAVIBackground@@XZ PROC ; CSingleton<IBackground>::Instance, COMDAT

; 26   : 		assert(ms_singleton);
; 27   : 		return (*ms_singleton);

  00000	a1 00 00 00 00	 mov	 eax, DWORD PTR ?ms_singleton@?$CSingleton@VIBackground@@@@0PAVIBackground@@A ; CSingleton<IBackground>::ms_singleton

; 28   : 	}

  00005	c3		 ret	 0
?Instance@?$CSingleton@VIBackground@@@@SAAAVIBackground@@XZ ENDP ; CSingleton<IBackground>::Instance
_TEXT	ENDS
END
