; Listing generated by Microsoft (R) Optimizing Compiler Version 19.44.35217.0 

	TITLE	d:\_m2work\server client tmp4\clientvs22\vs_files\userinterface\distribute\pythonnetworkstreamphaseoffline.obj
	.686P
	.XMM
	include listing.inc
	.model	flat

INCLUDELIB OLDNAMES

PUBLIC	?OffLinePhase@CPythonNetworkStream@@IAEXXZ	; CPythonNetworkStream::OffLinePhase
; Function compile flags: /Ogtp
; File D:\_m2work\Server Client TMP4\ClientVS22\source\UserInterface\PythonNetworkStreamPhaseOffline.cpp
;	COMDAT ?OffLinePhase@CPythonNetworkStream@@IAEXXZ
_TEXT	SEGMENT
_header$ = -1						; size = 1
?OffLinePhase@CPythonNetworkStream@@IAEXXZ PROC		; CPythonNetworkStream::OffLinePhase, COMDAT
; _this$ = ecx

; 7    : {

  00000	55		 push	 ebp
  00001	8b ec		 mov	 ebp, esp
  00003	83 ec 08	 sub	 esp, 8

; 8    : 	TPacketHeader header;
; 9    : 
; 10   : 	if (!CheckPacket(&header))

  00006	8d 45 ff	 lea	 eax, DWORD PTR _header$[ebp]
  00009	53		 push	 ebx
  0000a	56		 push	 esi
  0000b	50		 push	 eax
  0000c	8b f1		 mov	 esi, ecx
  0000e	e8 00 00 00 00	 call	 ?CheckPacket@CPythonNetworkStream@@IAE_NPAE@Z ; CPythonNetworkStream::CheckPacket
  00013	84 c0		 test	 al, al
  00015	74 1e		 je	 SHORT $LN1@OffLinePha

; 11   : 		return;
; 12   : 
; 13   : 	switch (header)

  00017	8a 5d ff	 mov	 bl, BYTE PTR _header$[ebp]
  0001a	80 fb fd	 cmp	 bl, 253			; 000000fdH
  0001d	75 0b		 jne	 SHORT $LN6@OffLinePha

; 14   : 	{
; 15   : 		case HEADER_GC_PHASE:
; 16   : 			if (RecvPhasePacket())

  0001f	8b ce		 mov	 ecx, esi
  00021	e8 00 00 00 00	 call	 ?RecvPhasePacket@CPythonNetworkStream@@IAE_NXZ ; CPythonNetworkStream::RecvPhasePacket
  00026	84 c0		 test	 al, al
  00028	75 0b		 jne	 SHORT $LN1@OffLinePha
$LN6@OffLinePha:

; 17   : 				return;
; 18   : 			break;
; 19   : 	}
; 20   : 
; 21   : 	RecvErrorPacket(header);

  0002a	0f b6 c3	 movzx	 eax, bl
  0002d	8b ce		 mov	 ecx, esi
  0002f	50		 push	 eax
  00030	e8 00 00 00 00	 call	 ?RecvErrorPacket@CPythonNetworkStream@@IAE_NH@Z ; CPythonNetworkStream::RecvErrorPacket
$LN1@OffLinePha:

; 22   : }

  00035	5e		 pop	 esi
  00036	5b		 pop	 ebx
  00037	8b e5		 mov	 esp, ebp
  00039	5d		 pop	 ebp
  0003a	c3		 ret	 0
?OffLinePhase@CPythonNetworkStream@@IAEXXZ ENDP		; CPythonNetworkStream::OffLinePhase
_TEXT	ENDS
END
