; Listing generated by Microsoft (R) Optimizing Compiler Version 19.44.35217.0 

	TITLE	d:\_m2work\txoko-m2-work\txoko-client-src\vs_files\userinterface\distribute\pythonbackground.obj
	.686P
	.XMM
	include listing.inc
	.model	flat

INCLUDELIB OLDNAMES

PUBLIC	??_C@_0DF@GEMPMAOP@d?3?1ymir?5work?1effect?1etc?1directi@ ; `string'
PUBLIC	??_C@_0FF@DMIGEFGG@CPythonBackground?3?3SelectViewDi@ ; `string'
PUBLIC	??_C@_0DE@ELMEDMBE@CPythonBackground?3?3GetFarClip?5m@ ; `string'
PUBLIC	??_C@_0BI@FJAIMBEC@CPythonBackground?5Clear@	; `string'
PUBLIC	??_C@_0P@NOGPLHFF@?1AtlasInfo?4txt@		; `string'
PUBLIC	??_C@_08EMBNBNLN@property@			; `string'
PUBLIC	??_C@_08MOOMJPBO@Property@			; `string'
PUBLIC	??_C@_03EMIMMIHL@?$CK?4?$CK@			; `string'
PUBLIC	??_C@_0O@NAMKDHJD@pack?1property@		; `string'
PUBLIC	??_C@_0CC@FDBLKFI@NOT_FOUND_GLOBAL_POSITION?$CI?$CFd?0?5?$CF@ ; `string'
PUBLIC	??_C@_0P@EOAEHOGM@map_n_snowm_01@		; `string'
PUBLIC	??_C@_0CF@PCFPEOFC@d?3?1ymir?5work?1tree?1christmastree@ ; `string'
PUBLIC	??_C@_0CF@HEMLDMPM@d?3?1ymir?5work?1tree?1christmastree@ ; `string'
PUBLIC	??_C@_0CF@LPJHOPFJ@d?3?1ymir?5work?1tree?1christmastree@ ; `string'
PUBLIC	??_C@_0DD@NHFFJCJH@d?3?1ymir?5work?1effect?1etc?1christm@ ; `string'
PUBLIC	??_C@_0DD@OGLNIIAK@d?3?1ymir?5work?1effect?1etc?1christm@ ; `string'
PUBLIC	??_C@_0DD@EAMKIDLO@d?3?1ymir?5work?1effect?1etc?1christm@ ; `string'
PUBLIC	??_R2?$RangeTester@UCollisionChecker@@@@8	; RangeTester<CollisionChecker>::`RTTI Base Class Array'
PUBLIC	??_R2?$RangeTester@UCollisionAdjustChecker@@@@8	; RangeTester<CollisionAdjustChecker>::`RTTI Base Class Array'
PUBLIC	??_R2?$RangeTester@UFGetPortalID@@@@8		; RangeTester<FGetPortalID>::`RTTI Base Class Array'
PUBLIC	??_R2CPythonBackground@@8			; CPythonBackground::`RTTI Base Class Array'
PUBLIC	??_R2?$CSingleton@VCPythonBackground@@@@8	; CSingleton<CPythonBackground>::`RTTI Base Class Array'
PUBLIC	??_R2CMapManager@@8				; CMapManager::`RTTI Base Class Array'
PUBLIC	??_R2IPhysicsWorld@@8				; IPhysicsWorld::`RTTI Base Class Array'
PUBLIC	??_R2CScreen@@8					; CScreen::`RTTI Base Class Array'
PUBLIC	??_R2CGraphicCollisionObject@@8			; CGraphicCollisionObject::`RTTI Base Class Array'
PUBLIC	??_R2CGraphicBase@@8				; CGraphicBase::`RTTI Base Class Array'
PUBLIC	??_R1A@?0A@EA@?$RangeTester@UCollisionChecker@@@@8 ; RangeTester<CollisionChecker>::`RTTI Base Class Descriptor at (0,-1,0,64)'
PUBLIC	??_R1A@?0A@EA@?$RangeTester@UCollisionAdjustChecker@@@@8 ; RangeTester<CollisionAdjustChecker>::`RTTI Base Class Descriptor at (0,-1,0,64)'
PUBLIC	??_R1A@?0A@EA@?$RangeTester@UFGetPortalID@@@@8	; RangeTester<FGetPortalID>::`RTTI Base Class Descriptor at (0,-1,0,64)'
PUBLIC	??_R1BEPE@?0A@EA@?$CSingleton@VCPythonBackground@@@@8 ; CSingleton<CPythonBackground>::`RTTI Base Class Descriptor at (5364,-1,0,64)'
PUBLIC	??_R1A@?0A@EA@CPythonBackground@@8		; CPythonBackground::`RTTI Base Class Descriptor at (0,-1,0,64)'
PUBLIC	??_R1A@?0A@EA@?$CSingleton@VCPythonBackground@@@@8 ; CSingleton<CPythonBackground>::`RTTI Base Class Descriptor at (0,-1,0,64)'
PUBLIC	??_R13?0A@EA@IPhysicsWorld@@8			; IPhysicsWorld::`RTTI Base Class Descriptor at (4,-1,0,64)'
PUBLIC	??_R1A@?0A@EA@CMapManager@@8			; CMapManager::`RTTI Base Class Descriptor at (0,-1,0,64)'
PUBLIC	??_R1A@?0A@EA@IPhysicsWorld@@8			; IPhysicsWorld::`RTTI Base Class Descriptor at (0,-1,0,64)'
PUBLIC	??_R1A@?0A@EA@CScreen@@8			; CScreen::`RTTI Base Class Descriptor at (0,-1,0,64)'
PUBLIC	??_R1A@?0A@EA@CGraphicCollisionObject@@8	; CGraphicCollisionObject::`RTTI Base Class Descriptor at (0,-1,0,64)'
PUBLIC	??_R1A@?0A@EA@CGraphicBase@@8			; CGraphicBase::`RTTI Base Class Descriptor at (0,-1,0,64)'
PUBLIC	??_R3?$RangeTester@UCollisionChecker@@@@8	; RangeTester<CollisionChecker>::`RTTI Class Hierarchy Descriptor'
PUBLIC	??_R0?AU?$RangeTester@UCollisionChecker@@@@@8	; RangeTester<CollisionChecker> `RTTI Type Descriptor'
PUBLIC	??_R3?$RangeTester@UCollisionAdjustChecker@@@@8	; RangeTester<CollisionAdjustChecker>::`RTTI Class Hierarchy Descriptor'
PUBLIC	??_R0?AU?$RangeTester@UCollisionAdjustChecker@@@@@8 ; RangeTester<CollisionAdjustChecker> `RTTI Type Descriptor'
PUBLIC	??_R3?$RangeTester@UFGetPortalID@@@@8		; RangeTester<FGetPortalID>::`RTTI Class Hierarchy Descriptor'
PUBLIC	??_R0?AU?$RangeTester@UFGetPortalID@@@@@8	; RangeTester<FGetPortalID> `RTTI Type Descriptor'
PUBLIC	??_R3?$CSingleton@VCPythonBackground@@@@8	; CSingleton<CPythonBackground>::`RTTI Class Hierarchy Descriptor'
PUBLIC	??_R0?AV?$CSingleton@VCPythonBackground@@@@@8	; CSingleton<CPythonBackground> `RTTI Type Descriptor'
PUBLIC	??_R3CMapManager@@8				; CMapManager::`RTTI Class Hierarchy Descriptor'
PUBLIC	??_R0?AVCMapManager@@@8				; CMapManager `RTTI Type Descriptor'
PUBLIC	??_R3CPythonBackground@@8			; CPythonBackground::`RTTI Class Hierarchy Descriptor'
PUBLIC	??_R0?AVCPythonBackground@@@8			; CPythonBackground `RTTI Type Descriptor'
PUBLIC	??_R3IPhysicsWorld@@8				; IPhysicsWorld::`RTTI Class Hierarchy Descriptor'
PUBLIC	??_R0?AVIPhysicsWorld@@@8			; IPhysicsWorld `RTTI Type Descriptor'
PUBLIC	??_R3CScreen@@8					; CScreen::`RTTI Class Hierarchy Descriptor'
PUBLIC	??_R0?AVCScreen@@@8				; CScreen `RTTI Type Descriptor'
PUBLIC	??_R3CGraphicCollisionObject@@8			; CGraphicCollisionObject::`RTTI Class Hierarchy Descriptor'
PUBLIC	??_R0?AVCGraphicCollisionObject@@@8		; CGraphicCollisionObject `RTTI Type Descriptor'
PUBLIC	??_R3CGraphicBase@@8				; CGraphicBase::`RTTI Class Hierarchy Descriptor'
PUBLIC	??_R0?AVCGraphicBase@@@8			; CGraphicBase `RTTI Type Descriptor'
PUBLIC	??_R4?$RangeTester@UCollisionChecker@@@@6B@	; RangeTester<CollisionChecker>::`RTTI Complete Object Locator'
PUBLIC	??_R4?$RangeTester@UCollisionAdjustChecker@@@@6B@ ; RangeTester<CollisionAdjustChecker>::`RTTI Complete Object Locator'
PUBLIC	??_R4?$RangeTester@UFGetPortalID@@@@6B@		; RangeTester<FGetPortalID>::`RTTI Complete Object Locator'
PUBLIC	??_R4?$CSingleton@VCPythonBackground@@@@6B@	; CSingleton<CPythonBackground>::`RTTI Complete Object Locator'
PUBLIC	??_R4CPythonBackground@@6B@			; CPythonBackground::`RTTI Complete Object Locator'
PUBLIC	??_R4CPythonBackground@@6BIPhysicsWorld@@@	; CPythonBackground::`RTTI Complete Object Locator'
PUBLIC	??_R4CPythonBackground@@6BCScreen@@@		; CPythonBackground::`RTTI Complete Object Locator'
PUBLIC	??_7?$RangeTester@UFGetPortalID@@@@6B@		; RangeTester<FGetPortalID>::`vftable'
PUBLIC	??_7?$RangeTester@UCollisionAdjustChecker@@@@6B@ ; RangeTester<CollisionAdjustChecker>::`vftable'
PUBLIC	??_7?$RangeTester@UCollisionChecker@@@@6B@	; RangeTester<CollisionChecker>::`vftable'
PUBLIC	??_7?$CSingleton@VCPythonBackground@@@@6B@	; CSingleton<CPythonBackground>::`vftable'
PUBLIC	?ms_singleton@?$CSingleton@VCPythonMiniMap@@@@0PAVCPythonMiniMap@@A ; CSingleton<CPythonMiniMap>::ms_singleton
PUBLIC	??_7CPythonBackground@@6B@			; CPythonBackground::`vftable'
PUBLIC	??_7CPythonBackground@@6BIPhysicsWorld@@@	; CPythonBackground::`vftable'
PUBLIC	??_7CPythonBackground@@6BCScreen@@@		; CPythonBackground::`vftable'
PUBLIC	?greater@strong_ordering@std@@2U12@B		; std::strong_ordering::greater
PUBLIC	?less@strong_ordering@std@@2U12@B		; std::strong_ordering::less
PUBLIC	?equal@strong_ordering@std@@2U12@B		; std::strong_ordering::equal
EXTRN	?GRAPHICS_CAPS_CAN_NOT_DRAW_SHADOW@@3_NA:BYTE	; GRAPHICS_CAPS_CAN_NOT_DRAW_SHADOW
EXTRN	?isPhysicalCollision@CMapManager@@UAE_NABUD3DXVECTOR3@@@Z:PROC ; CMapManager::isPhysicalCollision
EXTRN	?AllocMap@CMapManager@@UAEPAVCMapBase@@XZ:PROC	; CMapManager::AllocMap
EXTRN	?Clear@CMapManager@@UAEXXZ:PROC			; CMapManager::Clear
EXTRN	?RayTrace@SpherePackFactory@@QAEXABVVector3d@@0PAVSpherePackCallback@@@Z:PROC ; SpherePackFactory::RayTrace
EXTRN	?SpecialEffect_Create@CMapOutdoor@@QAEXKMMMPBD@Z:PROC ; CMapOutdoor::SpecialEffect_Create
EXTRN	?SpecialEffect_Delete@CMapOutdoor@@QAEXK@Z:PROC	; CMapOutdoor::SpecialEffect_Delete
EXTRN	?XMasTree_Set@CMapOutdoor@@QAEXMMMPBD0@Z:PROC	; CMapOutdoor::XMasTree_Set
EXTRN	?GetBaseXY@CMapOutdoor@@QAEXPAK0@Z:PROC		; CMapOutdoor::GetBaseXY
EXTRN	?XMasTree_Destroy@CMapOutdoor@@QAEXXZ:PROC	; CMapOutdoor::XMasTree_Destroy
EXTRN	?Enable@CSnowEnvironment@@QAEXXZ:PROC		; CSnowEnvironment::Enable
EXTRN	?Disable@CSnowEnvironment@@QAEXXZ:PROC		; CSnowEnvironment::Disable
EXTRN	?DisableMarkedArea@CMapOutdoor@@QAEXXZ:PROC	; CMapOutdoor::DisableMarkedArea
EXTRN	?EnablePortal@CMapOutdoor@@QAEX_N@Z:PROC	; CMapOutdoor::EnablePortal
EXTRN	?VisibleMarkedArea@CMapOutdoor@@QAEXXZ:PROC	; CMapOutdoor::VisibleMarkedArea
EXTRN	?LoadMap@CMapManager@@UAE_NABV?$basic_string@DU?$char_traits@D@std@@V?$allocator@D@2@@std@@MMM@Z:PROC ; CMapManager::LoadMap
EXTRN	?SetLight@CStateManager@@QAEXKPBU_D3DLIGHT8@@@Z:PROC ; CStateManager::SetLight
EXTRN	?ClearGuildArea@CMapOutdoor@@QAEXXZ:PROC	; CMapOutdoor::ClearGuildArea
EXTRN	?RegisterGuildArea@CMapOutdoor@@QAEXHHHH@Z:PROC	; CMapOutdoor::RegisterGuildArea
EXTRN	?RenderBeforeLensFlare@CMapOutdoor@@QAEXXZ:PROC	; CMapOutdoor::RenderBeforeLensFlare
EXTRN	?RenderAfterLensFlare@CMapOutdoor@@QAEXXZ:PROC	; CMapOutdoor::RenderAfterLensFlare
EXTRN	?RenderWater@CMapOutdoor@@QAEXXZ:PROC		; CMapOutdoor::RenderWater
EXTRN	?RenderEffect@CMapOutdoor@@QAEXXZ:PROC		; CMapOutdoor::RenderEffect
EXTRN	?RenderSky@CMapOutdoor@@QAEXXZ:PROC		; CMapOutdoor::RenderSky
EXTRN	?RenderCloud@CMapOutdoor@@QAEXXZ:PROC		; CMapOutdoor::RenderCloud
EXTRN	?SetTransform@CStateManager@@QAEXW4_D3DTRANSFORMSTATETYPE@@PBU_D3DMATRIX@@@Z:PROC ; CStateManager::SetTransform
EXTRN	?EndRenderCharacterShadowToTexture@CMapOutdoor@@QAEXXZ:PROC ; CMapOutdoor::EndRenderCharacterShadowToTexture
EXTRN	?BeginRenderCharacterShadowToTexture@CMapOutdoor@@QAE_NXZ:PROC ; CMapOutdoor::BeginRenderCharacterShadowToTexture
EXTRN	?RenderCollision@CMapOutdoor@@QAEXXZ:PROC	; CMapOutdoor::RenderCollision
EXTRN	?GetTransform@CStateManager@@QAEXW4_D3DTRANSFORMSTATETYPE@@PAU_D3DMATRIX@@@Z:PROC ; CStateManager::GetTransform
EXTRN	?Render@CSnowEnvironment@@QAEXXZ:PROC		; CSnowEnvironment::Render
EXTRN	?RenderPCBlocker@CMapOutdoor@@QAEXXZ:PROC	; CMapOutdoor::RenderPCBlocker
EXTRN	?Render@CMapBase@@QAEXXZ:PROC			; CMapBase::Render
EXTRN	?RenderMarkedArea@CMapOutdoor@@QAEXXZ:PROC	; CMapOutdoor::RenderMarkedArea
EXTRN	?Deform@CSnowEnvironment@@QAEXXZ:PROC		; CSnowEnvironment::Deform
EXTRN	?RefreshPortal@CMapManager@@QAEXXZ:PROC		; CMapManager::RefreshPortal
EXTRN	?ClearPortal@CMapManager@@QAEXXZ:PROC		; CMapManager::ClearPortal
EXTRN	?AddShowingPortalID@CMapManager@@QAEXH@Z:PROC	; CMapManager::AddShowingPortalID
EXTRN	?UpdateAroundAmbience@CMapManager@@QAEXMMM@Z:PROC ; CMapManager::UpdateAroundAmbience
EXTRN	?Update@CSnowEnvironment@@QAEXABUD3DXVECTOR3@@@Z:PROC ; CSnowEnvironment::Update
EXTRN	?GetPortal@CGraphicObjectInstance@@QAEHK@Z:PROC	; CGraphicObjectInstance::GetPortal
EXTRN	?UpdateMap@CMapManager@@QAE_NMMM@Z:PROC		; CMapManager::UpdateMap
EXTRN	?Create@CMapManager@@QAEXXZ:PROC		; CMapManager::Create
EXTRN	?Create@CSnowEnvironment@@QAE_NXZ:PROC		; CSnowEnvironment::Create
EXTRN	?Destroy@CMapManager@@QAEXXZ:PROC		; CMapManager::Destroy
EXTRN	?Destroy@CSnowEnvironment@@QAEXXZ:PROC		; CSnowEnvironment::Destroy
EXTRN	?GetPickingPointWithRayOnlyTerrain@CMapOutdoor@@QAE_NABVCRay@@PAUD3DXVECTOR3@@@Z:PROC ; CMapOutdoor::GetPickingPointWithRayOnlyTerrain
EXTRN	?GetPickingPoint@CMapOutdoor@@QAE_NPAUD3DXVECTOR3@@@Z:PROC ; CMapOutdoor::GetPickingPoint
EXTRN	?GetPickingPointWithRay@CMapOutdoor@@QAE_NABVCRay@@PAUD3DXVECTOR3@@@Z:PROC ; CMapOutdoor::GetPickingPointWithRay
EXTRN	?SetPropertyManager@CPropertyLoader@@QAEXPAVCPropertyManager@@@Z:PROC ; CPropertyLoader::SetPropertyManager
EXTRN	?Create@CDir@@QAE_NPBD0H@Z:PROC			; CDir::Create
EXTRN	??0CPropertyLoader@@QAE@XZ:PROC			; CPropertyLoader::CPropertyLoader
EXTRN	??1CPropertyLoader@@UAE@XZ:PROC			; CPropertyLoader::~CPropertyLoader
EXTRN	?GetSearchMode@CEterPackManager@@QAEHXZ:PROC	; CEterPackManager::GetSearchMode
EXTRN	?Initialize@CPropertyManager@@QAE_NPBD@Z:PROC	; CPropertyManager::Initialize
EXTRN	?Initialize@CMapManager@@QAEXXZ:PROC		; CMapManager::Initialize
EXTRN	??0CSnowEnvironment@@QAE@XZ:PROC		; CSnowEnvironment::CSnowEnvironment
EXTRN	??1CSnowEnvironment@@UAE@XZ:PROC		; CSnowEnvironment::~CSnowEnvironment
EXTRN	??0CMapManager@@QAE@XZ:PROC			; CMapManager::CMapManager
EXTRN	??1CMapManager@@UAE@XZ:PROC			; CMapManager::~CMapManager
EXTRN	?SetEnvironmentSkyBox@CMapOutdoor@@QAEXXZ:PROC	; CMapOutdoor::SetEnvironmentSkyBox
EXTRN	?SetShadowTextureSize@CMapOutdoor@@QAEXG@Z:PROC	; CMapOutdoor::SetShadowTextureSize
EXTRN	?SetDrawCharacterShadow@CMapOutdoor@@QAEX_N@Z:PROC ; CMapOutdoor::SetDrawCharacterShadow
EXTRN	?SetDrawShadow@CMapOutdoor@@QAEX_N@Z:PROC	; CMapOutdoor::SetDrawShadow
EXTRN	?CreateCharacterShadowTexture@CMapOutdoor@@QAEXXZ:PROC ; CMapOutdoor::CreateCharacterShadowTexture
EXTRN	?ReleaseCharacterShadowTexture@CMapOutdoor@@QAEXXZ:PROC ; CMapOutdoor::ReleaseCharacterShadowTexture
EXTRN	?SetVisiblePart@CMapOutdoor@@QAEXH_N@Z:PROC	; CMapOutdoor::SetVisiblePart
EXTRN	?SetSplatLimit@CMapOutdoor@@QAEXH@Z:PROC	; CMapOutdoor::SetSplatLimit
EXTRN	?GetMapOutdoorRef@CMapManager@@QAEAAVCMapOutdoor@@XZ:PROC ; CMapManager::GetMapOutdoorRef
;	COMDAT ?ms_singleton@?$CSingleton@VCPythonMiniMap@@@@0PAVCPythonMiniMap@@A
_BSS	SEGMENT
?ms_singleton@?$CSingleton@VCPythonMiniMap@@@@0PAVCPythonMiniMap@@A DD 01H DUP (?) ; CSingleton<CPythonMiniMap>::ms_singleton
_BSS	ENDS
;	COMDAT ?s_isCreateProperty@?1??Create@CPythonBackground@@QAEXXZ@4HA
_BSS	SEGMENT
?s_isCreateProperty@?1??Create@CPythonBackground@@QAEXXZ@4HA DD 01H DUP (?) ; `CPythonBackground::Create'::`2'::s_isCreateProperty
_BSS	ENDS
;	COMDAT ?equal@strong_ordering@std@@2U12@B
CONST	SEGMENT
?equal@strong_ordering@std@@2U12@B DB 00H		; std::strong_ordering::equal
CONST	ENDS
;	COMDAT ?less@strong_ordering@std@@2U12@B
CONST	SEGMENT
?less@strong_ordering@std@@2U12@B DB 0ffH		; std::strong_ordering::less
CONST	ENDS
;	COMDAT ?greater@strong_ordering@std@@2U12@B
CONST	SEGMENT
?greater@strong_ordering@std@@2U12@B DB 01H		; std::strong_ordering::greater
CONST	ENDS
;	COMDAT ??_7CPythonBackground@@6BCScreen@@@
CONST	SEGMENT
??_7CPythonBackground@@6BCScreen@@@ DD FLAT:??_R4CPythonBackground@@6BCScreen@@@ ; CPythonBackground::`vftable'
	DD	FLAT:??_ECPythonBackground@@UAEPAXI@Z
	DD	FLAT:?Clear@CMapManager@@UAEXXZ
	DD	FLAT:?AllocMap@CMapManager@@UAEPAVCMapBase@@XZ
	DD	FLAT:?LoadMap@CMapManager@@UAE_NABV?$basic_string@DU?$char_traits@D@std@@V?$allocator@D@2@@std@@MMM@Z
CONST	ENDS
;	COMDAT ??_7CPythonBackground@@6BIPhysicsWorld@@@
CONST	SEGMENT
??_7CPythonBackground@@6BIPhysicsWorld@@@ DD FLAT:??_R4CPythonBackground@@6BIPhysicsWorld@@@ ; CPythonBackground::`vftable'
	DD	FLAT:??_ECPythonBackground@@W3AEPAXI@Z
	DD	FLAT:?isPhysicalCollision@CMapManager@@UAE_NABUD3DXVECTOR3@@@Z
CONST	ENDS
;	COMDAT ??_7CPythonBackground@@6B@
CONST	SEGMENT
??_7CPythonBackground@@6B@ DD FLAT:??_R4CPythonBackground@@6B@ ; CPythonBackground::`vftable'
	DD	FLAT:??_ECPythonBackground@@WBEPE@AEPAXI@Z
CONST	ENDS
;	COMDAT ??_7?$CSingleton@VCPythonBackground@@@@6B@
CONST	SEGMENT
??_7?$CSingleton@VCPythonBackground@@@@6B@ DD FLAT:??_R4?$CSingleton@VCPythonBackground@@@@6B@ ; CSingleton<CPythonBackground>::`vftable'
	DD	FLAT:??_E?$CSingleton@VCPythonBackground@@@@UAEPAXI@Z
CONST	ENDS
;	COMDAT ??_7?$RangeTester@UCollisionChecker@@@@6B@
CONST	SEGMENT
??_7?$RangeTester@UCollisionChecker@@@@6B@ DD FLAT:??_R4?$RangeTester@UCollisionChecker@@@@6B@ ; RangeTester<CollisionChecker>::`vftable'
	DD	FLAT:??_E?$RangeTester@UCollisionChecker@@@@UAEPAXI@Z
	DD	FLAT:?VisibilityCallback@?$RangeTester@UCollisionChecker@@@@UAEXABVFrustum@@PAVSpherePack@@W4ViewState@@@Z
	DD	FLAT:?RayTraceCallback@?$RangeTester@UCollisionChecker@@@@UAEXABVVector3d@@0M0PAVSpherePack@@@Z
	DD	FLAT:?RangeTestCallback@?$RangeTester@UCollisionChecker@@@@UAEXABVVector3d@@MPAVSpherePack@@W4ViewState@@@Z
	DD	FLAT:?PointTest2dCallback@?$RangeTester@UCollisionChecker@@@@UAEXABVVector3d@@PAVSpherePack@@W4ViewState@@@Z
CONST	ENDS
;	COMDAT ??_7?$RangeTester@UCollisionAdjustChecker@@@@6B@
CONST	SEGMENT
??_7?$RangeTester@UCollisionAdjustChecker@@@@6B@ DD FLAT:??_R4?$RangeTester@UCollisionAdjustChecker@@@@6B@ ; RangeTester<CollisionAdjustChecker>::`vftable'
	DD	FLAT:??_E?$RangeTester@UCollisionAdjustChecker@@@@UAEPAXI@Z
	DD	FLAT:?VisibilityCallback@?$RangeTester@UCollisionAdjustChecker@@@@UAEXABVFrustum@@PAVSpherePack@@W4ViewState@@@Z
	DD	FLAT:?RayTraceCallback@?$RangeTester@UCollisionAdjustChecker@@@@UAEXABVVector3d@@0M0PAVSpherePack@@@Z
	DD	FLAT:?RangeTestCallback@?$RangeTester@UCollisionAdjustChecker@@@@UAEXABVVector3d@@MPAVSpherePack@@W4ViewState@@@Z
	DD	FLAT:?PointTest2dCallback@?$RangeTester@UCollisionAdjustChecker@@@@UAEXABVVector3d@@PAVSpherePack@@W4ViewState@@@Z
CONST	ENDS
;	COMDAT ??_7?$RangeTester@UFGetPortalID@@@@6B@
CONST	SEGMENT
??_7?$RangeTester@UFGetPortalID@@@@6B@ DD FLAT:??_R4?$RangeTester@UFGetPortalID@@@@6B@ ; RangeTester<FGetPortalID>::`vftable'
	DD	FLAT:??_E?$RangeTester@UFGetPortalID@@@@UAEPAXI@Z
	DD	FLAT:?VisibilityCallback@?$RangeTester@UFGetPortalID@@@@UAEXABVFrustum@@PAVSpherePack@@W4ViewState@@@Z
	DD	FLAT:?RayTraceCallback@?$RangeTester@UFGetPortalID@@@@UAEXABVVector3d@@0M0PAVSpherePack@@@Z
	DD	FLAT:?RangeTestCallback@?$RangeTester@UFGetPortalID@@@@UAEXABVVector3d@@MPAVSpherePack@@W4ViewState@@@Z
	DD	FLAT:?PointTest2dCallback@?$RangeTester@UFGetPortalID@@@@UAEXABVVector3d@@PAVSpherePack@@W4ViewState@@@Z
CONST	ENDS
;	COMDAT ??_R4CPythonBackground@@6BCScreen@@@
rdata$r	SEGMENT
??_R4CPythonBackground@@6BCScreen@@@ DD 00H		; CPythonBackground::`RTTI Complete Object Locator'
	DD	00H
	DD	00H
	DD	FLAT:??_R0?AVCPythonBackground@@@8
	DD	FLAT:??_R3CPythonBackground@@8
rdata$r	ENDS
;	COMDAT ??_R4CPythonBackground@@6BIPhysicsWorld@@@
rdata$r	SEGMENT
??_R4CPythonBackground@@6BIPhysicsWorld@@@ DD 00H	; CPythonBackground::`RTTI Complete Object Locator'
	DD	04H
	DD	00H
	DD	FLAT:??_R0?AVCPythonBackground@@@8
	DD	FLAT:??_R3CPythonBackground@@8
rdata$r	ENDS
;	COMDAT ??_R4CPythonBackground@@6B@
rdata$r	SEGMENT
??_R4CPythonBackground@@6B@ DD 00H			; CPythonBackground::`RTTI Complete Object Locator'
	DD	014f4H
	DD	00H
	DD	FLAT:??_R0?AVCPythonBackground@@@8
	DD	FLAT:??_R3CPythonBackground@@8
rdata$r	ENDS
;	COMDAT ??_R4?$CSingleton@VCPythonBackground@@@@6B@
rdata$r	SEGMENT
??_R4?$CSingleton@VCPythonBackground@@@@6B@ DD 00H	; CSingleton<CPythonBackground>::`RTTI Complete Object Locator'
	DD	00H
	DD	00H
	DD	FLAT:??_R0?AV?$CSingleton@VCPythonBackground@@@@@8
	DD	FLAT:??_R3?$CSingleton@VCPythonBackground@@@@8
rdata$r	ENDS
;	COMDAT ??_R4?$RangeTester@UFGetPortalID@@@@6B@
rdata$r	SEGMENT
??_R4?$RangeTester@UFGetPortalID@@@@6B@ DD 00H		; RangeTester<FGetPortalID>::`RTTI Complete Object Locator'
	DD	00H
	DD	00H
	DD	FLAT:??_R0?AU?$RangeTester@UFGetPortalID@@@@@8
	DD	FLAT:??_R3?$RangeTester@UFGetPortalID@@@@8
rdata$r	ENDS
;	COMDAT ??_R4?$RangeTester@UCollisionAdjustChecker@@@@6B@
rdata$r	SEGMENT
??_R4?$RangeTester@UCollisionAdjustChecker@@@@6B@ DD 00H ; RangeTester<CollisionAdjustChecker>::`RTTI Complete Object Locator'
	DD	00H
	DD	00H
	DD	FLAT:??_R0?AU?$RangeTester@UCollisionAdjustChecker@@@@@8
	DD	FLAT:??_R3?$RangeTester@UCollisionAdjustChecker@@@@8
rdata$r	ENDS
;	COMDAT ??_R4?$RangeTester@UCollisionChecker@@@@6B@
rdata$r	SEGMENT
??_R4?$RangeTester@UCollisionChecker@@@@6B@ DD 00H	; RangeTester<CollisionChecker>::`RTTI Complete Object Locator'
	DD	00H
	DD	00H
	DD	FLAT:??_R0?AU?$RangeTester@UCollisionChecker@@@@@8
	DD	FLAT:??_R3?$RangeTester@UCollisionChecker@@@@8
rdata$r	ENDS
;	COMDAT ??_R0?AVCGraphicBase@@@8
data$rs	SEGMENT
??_R0?AVCGraphicBase@@@8 DD FLAT:??_7type_info@@6B@	; CGraphicBase `RTTI Type Descriptor'
	DD	00H
	DB	'.?AVCGraphicBase@@', 00H
data$rs	ENDS
;	COMDAT ??_R3CGraphicBase@@8
rdata$r	SEGMENT
??_R3CGraphicBase@@8 DD 00H				; CGraphicBase::`RTTI Class Hierarchy Descriptor'
	DD	00H
	DD	01H
	DD	FLAT:??_R2CGraphicBase@@8
rdata$r	ENDS
;	COMDAT ??_R0?AVCGraphicCollisionObject@@@8
data$rs	SEGMENT
??_R0?AVCGraphicCollisionObject@@@8 DD FLAT:??_7type_info@@6B@ ; CGraphicCollisionObject `RTTI Type Descriptor'
	DD	00H
	DB	'.?AVCGraphicCollisionObject@@', 00H
data$rs	ENDS
;	COMDAT ??_R3CGraphicCollisionObject@@8
rdata$r	SEGMENT
??_R3CGraphicCollisionObject@@8 DD 00H			; CGraphicCollisionObject::`RTTI Class Hierarchy Descriptor'
	DD	00H
	DD	02H
	DD	FLAT:??_R2CGraphicCollisionObject@@8
rdata$r	ENDS
;	COMDAT ??_R0?AVCScreen@@@8
data$rs	SEGMENT
??_R0?AVCScreen@@@8 DD FLAT:??_7type_info@@6B@		; CScreen `RTTI Type Descriptor'
	DD	00H
	DB	'.?AVCScreen@@', 00H
data$rs	ENDS
;	COMDAT ??_R3CScreen@@8
rdata$r	SEGMENT
??_R3CScreen@@8 DD 00H					; CScreen::`RTTI Class Hierarchy Descriptor'
	DD	00H
	DD	03H
	DD	FLAT:??_R2CScreen@@8
rdata$r	ENDS
;	COMDAT ??_R0?AVIPhysicsWorld@@@8
data$rs	SEGMENT
??_R0?AVIPhysicsWorld@@@8 DD FLAT:??_7type_info@@6B@	; IPhysicsWorld `RTTI Type Descriptor'
	DD	00H
	DB	'.?AVIPhysicsWorld@@', 00H
data$rs	ENDS
;	COMDAT ??_R3IPhysicsWorld@@8
rdata$r	SEGMENT
??_R3IPhysicsWorld@@8 DD 00H				; IPhysicsWorld::`RTTI Class Hierarchy Descriptor'
	DD	00H
	DD	01H
	DD	FLAT:??_R2IPhysicsWorld@@8
rdata$r	ENDS
;	COMDAT ??_R0?AVCPythonBackground@@@8
data$rs	SEGMENT
??_R0?AVCPythonBackground@@@8 DD FLAT:??_7type_info@@6B@ ; CPythonBackground `RTTI Type Descriptor'
	DD	00H
	DB	'.?AVCPythonBackground@@', 00H
data$rs	ENDS
;	COMDAT ??_R3CPythonBackground@@8
rdata$r	SEGMENT
??_R3CPythonBackground@@8 DD 00H			; CPythonBackground::`RTTI Class Hierarchy Descriptor'
	DD	01H
	DD	07H
	DD	FLAT:??_R2CPythonBackground@@8
rdata$r	ENDS
;	COMDAT ??_R0?AVCMapManager@@@8
data$rs	SEGMENT
??_R0?AVCMapManager@@@8 DD FLAT:??_7type_info@@6B@	; CMapManager `RTTI Type Descriptor'
	DD	00H
	DB	'.?AVCMapManager@@', 00H
data$rs	ENDS
;	COMDAT ??_R3CMapManager@@8
rdata$r	SEGMENT
??_R3CMapManager@@8 DD 00H				; CMapManager::`RTTI Class Hierarchy Descriptor'
	DD	01H
	DD	05H
	DD	FLAT:??_R2CMapManager@@8
rdata$r	ENDS
;	COMDAT ??_R0?AV?$CSingleton@VCPythonBackground@@@@@8
data$rs	SEGMENT
??_R0?AV?$CSingleton@VCPythonBackground@@@@@8 DD FLAT:??_7type_info@@6B@ ; CSingleton<CPythonBackground> `RTTI Type Descriptor'
	DD	00H
	DB	'.?AV?$CSingleton@VCPythonBackground@@@@', 00H
data$rs	ENDS
;	COMDAT ??_R3?$CSingleton@VCPythonBackground@@@@8
rdata$r	SEGMENT
??_R3?$CSingleton@VCPythonBackground@@@@8 DD 00H	; CSingleton<CPythonBackground>::`RTTI Class Hierarchy Descriptor'
	DD	00H
	DD	01H
	DD	FLAT:??_R2?$CSingleton@VCPythonBackground@@@@8
rdata$r	ENDS
;	COMDAT ??_R0?AU?$RangeTester@UFGetPortalID@@@@@8
data$rs	SEGMENT
??_R0?AU?$RangeTester@UFGetPortalID@@@@@8 DD FLAT:??_7type_info@@6B@ ; RangeTester<FGetPortalID> `RTTI Type Descriptor'
	DD	00H
	DB	'.?AU?$RangeTester@UFGetPortalID@@@@', 00H
data$rs	ENDS
;	COMDAT ??_R3?$RangeTester@UFGetPortalID@@@@8
rdata$r	SEGMENT
??_R3?$RangeTester@UFGetPortalID@@@@8 DD 00H		; RangeTester<FGetPortalID>::`RTTI Class Hierarchy Descriptor'
	DD	00H
	DD	02H
	DD	FLAT:??_R2?$RangeTester@UFGetPortalID@@@@8
rdata$r	ENDS
;	COMDAT ??_R0?AU?$RangeTester@UCollisionAdjustChecker@@@@@8
data$rs	SEGMENT
??_R0?AU?$RangeTester@UCollisionAdjustChecker@@@@@8 DD FLAT:??_7type_info@@6B@ ; RangeTester<CollisionAdjustChecker> `RTTI Type Descriptor'
	DD	00H
	DB	'.?AU?$RangeTester@UCollisionAdjustChecker@@@@', 00H
data$rs	ENDS
;	COMDAT ??_R3?$RangeTester@UCollisionAdjustChecker@@@@8
rdata$r	SEGMENT
??_R3?$RangeTester@UCollisionAdjustChecker@@@@8 DD 00H	; RangeTester<CollisionAdjustChecker>::`RTTI Class Hierarchy Descriptor'
	DD	00H
	DD	02H
	DD	FLAT:??_R2?$RangeTester@UCollisionAdjustChecker@@@@8
rdata$r	ENDS
;	COMDAT ??_R0?AU?$RangeTester@UCollisionChecker@@@@@8
data$rs	SEGMENT
??_R0?AU?$RangeTester@UCollisionChecker@@@@@8 DD FLAT:??_7type_info@@6B@ ; RangeTester<CollisionChecker> `RTTI Type Descriptor'
	DD	00H
	DB	'.?AU?$RangeTester@UCollisionChecker@@@@', 00H
data$rs	ENDS
;	COMDAT ??_R3?$RangeTester@UCollisionChecker@@@@8
rdata$r	SEGMENT
??_R3?$RangeTester@UCollisionChecker@@@@8 DD 00H	; RangeTester<CollisionChecker>::`RTTI Class Hierarchy Descriptor'
	DD	00H
	DD	02H
	DD	FLAT:??_R2?$RangeTester@UCollisionChecker@@@@8
rdata$r	ENDS
;	COMDAT ??_R1A@?0A@EA@CGraphicBase@@8
rdata$r	SEGMENT
??_R1A@?0A@EA@CGraphicBase@@8 DD FLAT:??_R0?AVCGraphicBase@@@8 ; CGraphicBase::`RTTI Base Class Descriptor at (0,-1,0,64)'
	DD	00H
	DD	00H
	DD	0ffffffffH
	DD	00H
	DD	040H
	DD	FLAT:??_R3CGraphicBase@@8
rdata$r	ENDS
;	COMDAT ??_R1A@?0A@EA@CGraphicCollisionObject@@8
rdata$r	SEGMENT
??_R1A@?0A@EA@CGraphicCollisionObject@@8 DD FLAT:??_R0?AVCGraphicCollisionObject@@@8 ; CGraphicCollisionObject::`RTTI Base Class Descriptor at (0,-1,0,64)'
	DD	01H
	DD	00H
	DD	0ffffffffH
	DD	00H
	DD	040H
	DD	FLAT:??_R3CGraphicCollisionObject@@8
rdata$r	ENDS
;	COMDAT ??_R1A@?0A@EA@CScreen@@8
rdata$r	SEGMENT
??_R1A@?0A@EA@CScreen@@8 DD FLAT:??_R0?AVCScreen@@@8	; CScreen::`RTTI Base Class Descriptor at (0,-1,0,64)'
	DD	02H
	DD	00H
	DD	0ffffffffH
	DD	00H
	DD	040H
	DD	FLAT:??_R3CScreen@@8
rdata$r	ENDS
;	COMDAT ??_R1A@?0A@EA@IPhysicsWorld@@8
rdata$r	SEGMENT
??_R1A@?0A@EA@IPhysicsWorld@@8 DD FLAT:??_R0?AVIPhysicsWorld@@@8 ; IPhysicsWorld::`RTTI Base Class Descriptor at (0,-1,0,64)'
	DD	00H
	DD	00H
	DD	0ffffffffH
	DD	00H
	DD	040H
	DD	FLAT:??_R3IPhysicsWorld@@8
rdata$r	ENDS
;	COMDAT ??_R1A@?0A@EA@CMapManager@@8
rdata$r	SEGMENT
??_R1A@?0A@EA@CMapManager@@8 DD FLAT:??_R0?AVCMapManager@@@8 ; CMapManager::`RTTI Base Class Descriptor at (0,-1,0,64)'
	DD	04H
	DD	00H
	DD	0ffffffffH
	DD	00H
	DD	040H
	DD	FLAT:??_R3CMapManager@@8
rdata$r	ENDS
;	COMDAT ??_R13?0A@EA@IPhysicsWorld@@8
rdata$r	SEGMENT
??_R13?0A@EA@IPhysicsWorld@@8 DD FLAT:??_R0?AVIPhysicsWorld@@@8 ; IPhysicsWorld::`RTTI Base Class Descriptor at (4,-1,0,64)'
	DD	00H
	DD	04H
	DD	0ffffffffH
	DD	00H
	DD	040H
	DD	FLAT:??_R3IPhysicsWorld@@8
rdata$r	ENDS
;	COMDAT ??_R1A@?0A@EA@?$CSingleton@VCPythonBackground@@@@8
rdata$r	SEGMENT
??_R1A@?0A@EA@?$CSingleton@VCPythonBackground@@@@8 DD FLAT:??_R0?AV?$CSingleton@VCPythonBackground@@@@@8 ; CSingleton<CPythonBackground>::`RTTI Base Class Descriptor at (0,-1,0,64)'
	DD	00H
	DD	00H
	DD	0ffffffffH
	DD	00H
	DD	040H
	DD	FLAT:??_R3?$CSingleton@VCPythonBackground@@@@8
rdata$r	ENDS
;	COMDAT ??_R1A@?0A@EA@CPythonBackground@@8
rdata$r	SEGMENT
??_R1A@?0A@EA@CPythonBackground@@8 DD FLAT:??_R0?AVCPythonBackground@@@8 ; CPythonBackground::`RTTI Base Class Descriptor at (0,-1,0,64)'
	DD	06H
	DD	00H
	DD	0ffffffffH
	DD	00H
	DD	040H
	DD	FLAT:??_R3CPythonBackground@@8
rdata$r	ENDS
;	COMDAT ??_R1BEPE@?0A@EA@?$CSingleton@VCPythonBackground@@@@8
rdata$r	SEGMENT
??_R1BEPE@?0A@EA@?$CSingleton@VCPythonBackground@@@@8 DD FLAT:??_R0?AV?$CSingleton@VCPythonBackground@@@@@8 ; CSingleton<CPythonBackground>::`RTTI Base Class Descriptor at (5364,-1,0,64)'
	DD	00H
	DD	014f4H
	DD	0ffffffffH
	DD	00H
	DD	040H
	DD	FLAT:??_R3?$CSingleton@VCPythonBackground@@@@8
rdata$r	ENDS
;	COMDAT ??_R1A@?0A@EA@?$RangeTester@UFGetPortalID@@@@8
rdata$r	SEGMENT
??_R1A@?0A@EA@?$RangeTester@UFGetPortalID@@@@8 DD FLAT:??_R0?AU?$RangeTester@UFGetPortalID@@@@@8 ; RangeTester<FGetPortalID>::`RTTI Base Class Descriptor at (0,-1,0,64)'
	DD	01H
	DD	00H
	DD	0ffffffffH
	DD	00H
	DD	040H
	DD	FLAT:??_R3?$RangeTester@UFGetPortalID@@@@8
rdata$r	ENDS
;	COMDAT ??_R1A@?0A@EA@?$RangeTester@UCollisionAdjustChecker@@@@8
rdata$r	SEGMENT
??_R1A@?0A@EA@?$RangeTester@UCollisionAdjustChecker@@@@8 DD FLAT:??_R0?AU?$RangeTester@UCollisionAdjustChecker@@@@@8 ; RangeTester<CollisionAdjustChecker>::`RTTI Base Class Descriptor at (0,-1,0,64)'
	DD	01H
	DD	00H
	DD	0ffffffffH
	DD	00H
	DD	040H
	DD	FLAT:??_R3?$RangeTester@UCollisionAdjustChecker@@@@8
rdata$r	ENDS
;	COMDAT ??_R1A@?0A@EA@?$RangeTester@UCollisionChecker@@@@8
rdata$r	SEGMENT
??_R1A@?0A@EA@?$RangeTester@UCollisionChecker@@@@8 DD FLAT:??_R0?AU?$RangeTester@UCollisionChecker@@@@@8 ; RangeTester<CollisionChecker>::`RTTI Base Class Descriptor at (0,-1,0,64)'
	DD	01H
	DD	00H
	DD	0ffffffffH
	DD	00H
	DD	040H
	DD	FLAT:??_R3?$RangeTester@UCollisionChecker@@@@8
rdata$r	ENDS
;	COMDAT ??_R2CGraphicBase@@8
rdata$r	SEGMENT
??_R2CGraphicBase@@8 DD FLAT:??_R1A@?0A@EA@CGraphicBase@@8 ; CGraphicBase::`RTTI Base Class Array'
rdata$r	ENDS
;	COMDAT ??_R2CGraphicCollisionObject@@8
rdata$r	SEGMENT
??_R2CGraphicCollisionObject@@8 DD FLAT:??_R1A@?0A@EA@CGraphicCollisionObject@@8 ; CGraphicCollisionObject::`RTTI Base Class Array'
	DD	FLAT:??_R1A@?0A@EA@CGraphicBase@@8
rdata$r	ENDS
;	COMDAT ??_R2CScreen@@8
rdata$r	SEGMENT
??_R2CScreen@@8 DD FLAT:??_R1A@?0A@EA@CScreen@@8	; CScreen::`RTTI Base Class Array'
	DD	FLAT:??_R1A@?0A@EA@CGraphicCollisionObject@@8
	DD	FLAT:??_R1A@?0A@EA@CGraphicBase@@8
rdata$r	ENDS
;	COMDAT ??_R2IPhysicsWorld@@8
rdata$r	SEGMENT
??_R2IPhysicsWorld@@8 DD FLAT:??_R1A@?0A@EA@IPhysicsWorld@@8 ; IPhysicsWorld::`RTTI Base Class Array'
rdata$r	ENDS
;	COMDAT ??_R2CMapManager@@8
rdata$r	SEGMENT
??_R2CMapManager@@8 DD FLAT:??_R1A@?0A@EA@CMapManager@@8 ; CMapManager::`RTTI Base Class Array'
	DD	FLAT:??_R1A@?0A@EA@CScreen@@8
	DD	FLAT:??_R1A@?0A@EA@CGraphicCollisionObject@@8
	DD	FLAT:??_R1A@?0A@EA@CGraphicBase@@8
	DD	FLAT:??_R13?0A@EA@IPhysicsWorld@@8
rdata$r	ENDS
;	COMDAT ??_R2?$CSingleton@VCPythonBackground@@@@8
rdata$r	SEGMENT
??_R2?$CSingleton@VCPythonBackground@@@@8 DD FLAT:??_R1A@?0A@EA@?$CSingleton@VCPythonBackground@@@@8 ; CSingleton<CPythonBackground>::`RTTI Base Class Array'
rdata$r	ENDS
;	COMDAT ??_R2CPythonBackground@@8
rdata$r	SEGMENT
??_R2CPythonBackground@@8 DD FLAT:??_R1A@?0A@EA@CPythonBackground@@8 ; CPythonBackground::`RTTI Base Class Array'
	DD	FLAT:??_R1A@?0A@EA@CMapManager@@8
	DD	FLAT:??_R1A@?0A@EA@CScreen@@8
	DD	FLAT:??_R1A@?0A@EA@CGraphicCollisionObject@@8
	DD	FLAT:??_R1A@?0A@EA@CGraphicBase@@8
	DD	FLAT:??_R13?0A@EA@IPhysicsWorld@@8
	DD	FLAT:??_R1BEPE@?0A@EA@?$CSingleton@VCPythonBackground@@@@8
rdata$r	ENDS
;	COMDAT ??_R2?$RangeTester@UFGetPortalID@@@@8
rdata$r	SEGMENT
??_R2?$RangeTester@UFGetPortalID@@@@8 DD FLAT:??_R1A@?0A@EA@?$RangeTester@UFGetPortalID@@@@8 ; RangeTester<FGetPortalID>::`RTTI Base Class Array'
	DD	FLAT:??_R1A@?0A@EA@SpherePackCallback@@8
rdata$r	ENDS
;	COMDAT ??_R2?$RangeTester@UCollisionAdjustChecker@@@@8
rdata$r	SEGMENT
??_R2?$RangeTester@UCollisionAdjustChecker@@@@8 DD FLAT:??_R1A@?0A@EA@?$RangeTester@UCollisionAdjustChecker@@@@8 ; RangeTester<CollisionAdjustChecker>::`RTTI Base Class Array'
	DD	FLAT:??_R1A@?0A@EA@SpherePackCallback@@8
rdata$r	ENDS
;	COMDAT ??_R2?$RangeTester@UCollisionChecker@@@@8
rdata$r	SEGMENT
??_R2?$RangeTester@UCollisionChecker@@@@8 DD FLAT:??_R1A@?0A@EA@?$RangeTester@UCollisionChecker@@@@8 ; RangeTester<CollisionChecker>::`RTTI Base Class Array'
	DD	FLAT:??_R1A@?0A@EA@SpherePackCallback@@8
rdata$r	ENDS
;	COMDAT ??_C@_0DD@EAMKIDLO@d?3?1ymir?5work?1effect?1etc?1christm@
CONST	SEGMENT
??_C@_0DD@EAMKIDLO@d?3?1ymir?5work?1effect?1etc?1christm@ DB 'd:/ymir wor'
	DB	'k/effect/etc/christmas_tree/tree_3s.mse', 00H ; `string'
CONST	ENDS
;	COMDAT ??_C@_0DD@OGLNIIAK@d?3?1ymir?5work?1effect?1etc?1christm@
CONST	SEGMENT
??_C@_0DD@OGLNIIAK@d?3?1ymir?5work?1effect?1etc?1christm@ DB 'd:/ymir wor'
	DB	'k/effect/etc/christmas_tree/tree_2s.mse', 00H ; `string'
CONST	ENDS
;	COMDAT ??_C@_0DD@NHFFJCJH@d?3?1ymir?5work?1effect?1etc?1christm@
CONST	SEGMENT
??_C@_0DD@NHFFJCJH@d?3?1ymir?5work?1effect?1etc?1christm@ DB 'd:/ymir wor'
	DB	'k/effect/etc/christmas_tree/tree_1s.mse', 00H ; `string'
CONST	ENDS
;	COMDAT ??_C@_0CF@LPJHOPFJ@d?3?1ymir?5work?1tree?1christmastree@
CONST	SEGMENT
??_C@_0CF@LPJHOPFJ@d?3?1ymir?5work?1tree?1christmastree@ DB 'd:/ymir work'
	DB	'/tree/christmastree3.spt', 00H		; `string'
CONST	ENDS
;	COMDAT ??_C@_0CF@HEMLDMPM@d?3?1ymir?5work?1tree?1christmastree@
CONST	SEGMENT
??_C@_0CF@HEMLDMPM@d?3?1ymir?5work?1tree?1christmastree@ DB 'd:/ymir work'
	DB	'/tree/christmastree2.spt', 00H		; `string'
CONST	ENDS
;	COMDAT ??_C@_0CF@PCFPEOFC@d?3?1ymir?5work?1tree?1christmastree@
CONST	SEGMENT
??_C@_0CF@PCFPEOFC@d?3?1ymir?5work?1tree?1christmastree@ DB 'd:/ymir work'
	DB	'/tree/christmastree1.spt', 00H		; `string'
CONST	ENDS
;	COMDAT ??_C@_0P@EOAEHOGM@map_n_snowm_01@
CONST	SEGMENT
??_C@_0P@EOAEHOGM@map_n_snowm_01@ DB 'map_n_snowm_01', 00H ; `string'
CONST	ENDS
;	COMDAT ??_C@_0CC@FDBLKFI@NOT_FOUND_GLOBAL_POSITION?$CI?$CFd?0?5?$CF@
CONST	SEGMENT
??_C@_0CC@FDBLKFI@NOT_FOUND_GLOBAL_POSITION?$CI?$CFd?0?5?$CF@ DB 'NOT_FOU'
	DB	'ND_GLOBAL_POSITION(%d, %d)', 00H		; `string'
CONST	ENDS
;	COMDAT ??_C@_0O@NAMKDHJD@pack?1property@
CONST	SEGMENT
??_C@_0O@NAMKDHJD@pack?1property@ DB 'pack/property', 00H ; `string'
CONST	ENDS
;	COMDAT ??_C@_03EMIMMIHL@?$CK?4?$CK@
CONST	SEGMENT
??_C@_03EMIMMIHL@?$CK?4?$CK@ DB '*.*', 00H		; `string'
CONST	ENDS
;	COMDAT ??_C@_08MOOMJPBO@Property@
CONST	SEGMENT
??_C@_08MOOMJPBO@Property@ DB 'Property', 00H		; `string'
CONST	ENDS
;	COMDAT ??_C@_08EMBNBNLN@property@
CONST	SEGMENT
??_C@_08EMBNBNLN@property@ DB 'property', 00H		; `string'
CONST	ENDS
;	COMDAT ??_C@_0P@NOGPLHFF@?1AtlasInfo?4txt@
CONST	SEGMENT
??_C@_0P@NOGPLHFF@?1AtlasInfo?4txt@ DB '/AtlasInfo.txt', 00H ; `string'
CONST	ENDS
;	COMDAT ??_C@_0BI@FJAIMBEC@CPythonBackground?5Clear@
CONST	SEGMENT
??_C@_0BI@FJAIMBEC@CPythonBackground?5Clear@ DB 'CPythonBackground Clear', 00H ; `string'
CONST	ENDS
;	COMDAT ??_C@_0DE@ELMEDMBE@CPythonBackground?3?3GetFarClip?5m@
CONST	SEGMENT
??_C@_0DE@ELMEDMBE@CPythonBackground?3?3GetFarClip?5m@ DB 'CPythonBackgro'
	DB	'und::GetFarClip m_eViewDistanceNum=%d', 00H	; `string'
CONST	ENDS
;	COMDAT ??_C@_0FF@DMIGEFGG@CPythonBackground?3?3SelectViewDi@
CONST	SEGMENT
??_C@_0FF@DMIGEFGG@CPythonBackground?3?3SelectViewDi@ DB 'CPythonBackgrou'
	DB	'nd::SelectViewDistanceNum(int eNum=%d) mc_pcurEnvironmentData'
	DB	' is NULL', 00H				; `string'
CONST	ENDS
;	COMDAT ??_C@_0DF@GEMPMAOP@d?3?1ymir?5work?1effect?1etc?1directi@
CONST	SEGMENT
??_C@_0DF@GEMPMAOP@d?3?1ymir?5work?1effect?1etc?1directi@ DB 'd:/ymir wor'
	DB	'k/effect/etc/direction/direction_land.mse', 00H ; `string'
PUBLIC	??Mstd@@YA_NUstrong_ordering@0@U_Literal_zero@0@@Z ; std::operator<
PUBLIC	??_ECPythonBackground@@W3AEPAXI@Z		; [thunk]:CPythonBackground::`vector deleting destructor'
PUBLIC	??_ECPythonBackground@@WBEPE@AEPAXI@Z		; [thunk]:CPythonBackground::`vector deleting destructor'
PUBLIC	??$construct_at@HAAH@std@@YAPAHQAHAAH@Z		; std::construct_at<int,int &>
PUBLIC	??$construct@HAAH@?$_Default_allocator_traits@V?$allocator@U?$_Tree_node@HPAX@std@@@std@@@std@@SAXAAV?$allocator@U?$_Tree_node@HPAX@std@@@1@QAHAAH@Z ; std::_Default_allocator_traits<std::allocator<std::_Tree_node<int,void *> > >::construct<int,int &>
PUBLIC	??$forward@USReserveTargetEffect@CPythonBackground@@@std@@YA$$QAUSReserveTargetEffect@CPythonBackground@@AAU12@@Z ; std::forward<CPythonBackground::SReserveTargetEffect>
PUBLIC	?_Get_first@?$_Compressed_pair@V?$allocator@U?$_Tree_node@U?$pair@$$CBKUSReserveTargetEffect@CPythonBackground@@@std@@PAX@std@@@std@@V?$_Tree_val@U?$_Tree_simple_types@U?$pair@$$CBKUSReserveTargetEffect@CPythonBackground@@@std@@@std@@@2@$00@std@@QBEABV?$allocator@U?$_Tree_node@U?$pair@$$CBKUSReserveTargetEffect@CPythonBackground@@@std@@PAX@std@@@2@XZ ; std::_Compressed_pair<std::allocator<std::_Tree_node<std::pair<unsigned long const ,CPythonBackground::SReserveTargetEffect>,void *> >,std::_Tree_val<std::_Tree_simple_types<std::pair<unsigned long const ,CPythonBackground::SReserveTargetEffect> > >,1>::_Get_first
PUBLIC	??$_Buynode@V?$allocator@U?$_Tree_node@HPAX@std@@@std@@AAH@?$_Tree_node@HPAX@std@@SAPAU01@AAV?$allocator@U?$_Tree_node@HPAX@std@@@1@PAU01@AAH@Z ; std::_Tree_node<int,void *>::_Buynode<std::allocator<std::_Tree_node<int,void *> >,int &>
PUBLIC	??$?0KUSReserveTargetEffect@CPythonBackground@@$0A@@?$pair@$$CBKUSReserveTargetEffect@CPythonBackground@@@std@@QAE@$$QAU?$pair@KUSReserveTargetEffect@CPythonBackground@@@1@@Z ; std::pair<unsigned long const ,CPythonBackground::SReserveTargetEffect>::pair<unsigned long const ,CPythonBackground::SReserveTargetEffect><unsigned long,CPythonBackground::SReserveTargetEffect,0>
PUBLIC	?compare@?$basic_string@DU?$char_traits@D@std@@V?$allocator@D@2@@std@@QBEHABV12@@Z ; std::basic_string<char,std::char_traits<char>,std::allocator<char> >::compare
PUBLIC	?_Get_first@?$_Compressed_pair@V?$allocator@U?$_Tree_node@V?$basic_string@DU?$char_traits@D@std@@V?$allocator@D@2@@std@@PAX@std@@@std@@V?$_Tree_val@U?$_Tree_simple_types@V?$basic_string@DU?$char_traits@D@std@@V?$allocator@D@2@@std@@@std@@@2@$00@std@@QBEABV?$allocator@U?$_Tree_node@V?$basic_string@DU?$char_traits@D@std@@V?$allocator@D@2@@std@@PAX@std@@@2@XZ ; std::_Compressed_pair<std::allocator<std::_Tree_node<std::basic_string<char,std::char_traits<char>,std::allocator<char> >,void *> >,std::_Tree_val<std::_Tree_simple_types<std::basic_string<char,std::char_traits<char>,std::allocator<char> > > >,1>::_Get_first
PUBLIC	?_Getal@?$_Tree@V?$_Tmap_traits@KUSReserveTargetEffect@CPythonBackground@@U?$less@K@std@@V?$allocator@U?$pair@$$CBKUSReserveTargetEffect@CPythonBackground@@@std@@@4@$0A@@std@@@std@@IBEABV?$allocator@U?$_Tree_node@U?$pair@$$CBKUSReserveTargetEffect@CPythonBackground@@@std@@PAX@std@@@2@XZ ; std::_Tree<std::_Tmap_traits<unsigned long,CPythonBackground::SReserveTargetEffect,std::less<unsigned long>,std::allocator<std::pair<unsigned long const ,CPythonBackground::SReserveTargetEffect> >,0> >::_Getal
PUBLIC	?max_size@?$_Default_allocator_traits@V?$allocator@U?$_Tree_node@U?$pair@$$CBKUSReserveTargetEffect@CPythonBackground@@@std@@PAX@std@@@std@@@std@@SAIABV?$allocator@U?$_Tree_node@U?$pair@$$CBKUSReserveTargetEffect@CPythonBackground@@@std@@PAX@std@@@2@@Z ; std::_Default_allocator_traits<std::allocator<std::_Tree_node<std::pair<unsigned long const ,CPythonBackground::SReserveTargetEffect>,void *> > >::max_size
PUBLIC	??0?$_Alloc_construct_ptr@V?$allocator@U?$_Tree_node@U?$pair@$$CBKUSReserveTargetEffect@CPythonBackground@@@std@@PAX@std@@@std@@@std@@QAE@AAV?$allocator@U?$_Tree_node@U?$pair@$$CBKUSReserveTargetEffect@CPythonBackground@@@std@@PAX@std@@@1@@Z ; std::_Alloc_construct_ptr<std::allocator<std::_Tree_node<std::pair<unsigned long const ,CPythonBackground::SReserveTargetEffect>,void *> > >::_Alloc_construct_ptr<std::allocator<std::_Tree_node<std::pair<unsigned long const ,CPythonBackground::SReserveTargetEffect>,void *> > >
PUBLIC	?_Allocate@?$_Alloc_construct_ptr@V?$allocator@U?$_Tree_node@U?$pair@$$CBKUSReserveTargetEffect@CPythonBackground@@@std@@PAX@std@@@std@@@std@@QAEXXZ ; std::_Alloc_construct_ptr<std::allocator<std::_Tree_node<std::pair<unsigned long const ,CPythonBackground::SReserveTargetEffect>,void *> > >::_Allocate
PUBLIC	??$_Get_size_of_n@$0CI@@std@@YAII@Z		; std::_Get_size_of_n<40>
PUBLIC	??$_Erase_tree_and_orphan@V?$allocator@U?$_Tree_node@HPAX@std@@@std@@@?$_Tree_val@U?$_Tree_simple_types@H@std@@@std@@QAEXAAV?$allocator@U?$_Tree_node@HPAX@std@@@1@PAU?$_Tree_node@HPAX@1@@Z ; std::_Tree_val<std::_Tree_simple_types<int> >::_Erase_tree_and_orphan<std::allocator<std::_Tree_node<int,void *> > >
PUBLIC	??$construct_at@PAU?$_Tree_node@HPAX@std@@ABQAU12@@std@@YAPAPAU?$_Tree_node@HPAX@0@QAPAU10@ABQAU10@@Z ; std::construct_at<std::_Tree_node<int,void *> *,std::_Tree_node<int,void *> * const &>
PUBLIC	??$forward@ABQAU?$_Tree_node@HPAX@std@@@std@@YAABQAU?$_Tree_node@HPAX@0@ABQAU10@@Z ; std::forward<std::_Tree_node<int,void *> * const &>
PUBLIC	??$construct_at@PAU?$_Tree_node@V?$basic_string@DU?$char_traits@D@std@@V?$allocator@D@2@@std@@PAX@std@@ABQAU12@@std@@YAPAPAU?$_Tree_node@V?$basic_string@DU?$char_traits@D@std@@V?$allocator@D@2@@std@@PAX@0@QAPAU10@ABQAU10@@Z ; std::construct_at<std::_Tree_node<std::basic_string<char,std::char_traits<char>,std::allocator<char> >,void *> *,std::_Tree_node<std::basic_string<char,std::char_traits<char>,std::allocator<char> >,void *> * const &>
PUBLIC	??$forward@ABQAU?$_Tree_node@V?$basic_string@DU?$char_traits@D@std@@V?$allocator@D@2@@std@@PAX@std@@@std@@YAABQAU?$_Tree_node@V?$basic_string@DU?$char_traits@D@std@@V?$allocator@D@2@@std@@PAX@0@ABQAU10@@Z ; std::forward<std::_Tree_node<std::basic_string<char,std::char_traits<char>,std::allocator<char> >,void *> * const &>
PUBLIC	??$construct_at@PAU?$_Tree_node@U?$pair@$$CBKUSReserveTargetEffect@CPythonBackground@@@std@@PAX@std@@ABQAU12@@std@@YAPAPAU?$_Tree_node@U?$pair@$$CBKUSReserveTargetEffect@CPythonBackground@@@std@@PAX@0@QAPAU10@ABQAU10@@Z ; std::construct_at<std::_Tree_node<std::pair<unsigned long const ,CPythonBackground::SReserveTargetEffect>,void *> *,std::_Tree_node<std::pair<unsigned long const ,CPythonBackground::SReserveTargetEffect>,void *> * const &>
PUBLIC	??$forward@ABQAU?$_Tree_node@U?$pair@$$CBKUSReserveTargetEffect@CPythonBackground@@@std@@PAX@std@@@std@@YAABQAU?$_Tree_node@U?$pair@$$CBKUSReserveTargetEffect@CPythonBackground@@@std@@PAX@0@ABQAU10@@Z ; std::forward<std::_Tree_node<std::pair<unsigned long const ,CPythonBackground::SReserveTargetEffect>,void *> * const &>
PUBLIC	??$_Buynode@AAH@?$_Tree@V?$_Tset_traits@HU?$less@H@std@@V?$allocator@H@2@$0A@@std@@@std@@IAEPAU?$_Tree_node@HPAX@1@AAH@Z ; std::_Tree<std::_Tset_traits<int,std::less<int>,std::allocator<int>,0> >::_Buynode<int &>
PUBLIC	??$construct_at@PAU?$_Tree_node@U?$pair@$$CBKUSReserveTargetEffect@CPythonBackground@@@std@@PAX@std@@AAPAU12@@std@@YAPAPAU?$_Tree_node@U?$pair@$$CBKUSReserveTargetEffect@CPythonBackground@@@std@@PAX@0@QAPAU10@AAPAU10@@Z ; std::construct_at<std::_Tree_node<std::pair<unsigned long const ,CPythonBackground::SReserveTargetEffect>,void *> *,std::_Tree_node<std::pair<unsigned long const ,CPythonBackground::SReserveTargetEffect>,void *> * &>
PUBLIC	??$addressof@PAU?$_Tree_node@U?$pair@$$CBKUSReserveTargetEffect@CPythonBackground@@@std@@PAX@std@@@std@@YAPAPAU?$_Tree_node@U?$pair@$$CBKUSReserveTargetEffect@CPythonBackground@@@std@@PAX@0@AAPAU10@@Z ; std::addressof<std::_Tree_node<std::pair<unsigned long const ,CPythonBackground::SReserveTargetEffect>,void *> *>
PUBLIC	??$construct_at@U?$pair@$$CBKUSReserveTargetEffect@CPythonBackground@@@std@@U?$pair@KUSReserveTargetEffect@CPythonBackground@@@2@@std@@YAPAU?$pair@$$CBKUSReserveTargetEffect@CPythonBackground@@@0@QAU10@$$QAU?$pair@KUSReserveTargetEffect@CPythonBackground@@@0@@Z ; std::construct_at<std::pair<unsigned long const ,CPythonBackground::SReserveTargetEffect>,std::pair<unsigned long,CPythonBackground::SReserveTargetEffect> >
PUBLIC	??0?$allocator@U?$_Tree_node@HPAX@std@@@std@@QAE@XZ ; std::allocator<std::_Tree_node<int,void *> >::allocator<std::_Tree_node<int,void *> >
PUBLIC	?deallocate@?$allocator@U?$_Tree_node@HPAX@std@@@std@@QAEXQAU?$_Tree_node@HPAX@2@I@Z ; std::allocator<std::_Tree_node<int,void *> >::deallocate
PUBLIC	?allocate@?$allocator@U?$_Tree_node@HPAX@std@@@std@@QAEPAU?$_Tree_node@HPAX@2@I@Z ; std::allocator<std::_Tree_node<int,void *> >::allocate
PUBLIC	?max_size@?$_Default_allocator_traits@V?$allocator@U?$_Tree_node@HPAX@std@@@std@@@std@@SAIABV?$allocator@U?$_Tree_node@HPAX@std@@@2@@Z ; std::_Default_allocator_traits<std::allocator<std::_Tree_node<int,void *> > >::max_size
PUBLIC	??0?$_Tree_val@U?$_Tree_simple_types@H@std@@@std@@QAE@XZ ; std::_Tree_val<std::_Tree_simple_types<int> >::_Tree_val<std::_Tree_simple_types<int> >
PUBLIC	?_Getal@?$_Tree@V?$_Tset_traits@V?$basic_string@DU?$char_traits@D@std@@V?$allocator@D@2@@std@@U?$less@V?$basic_string@DU?$char_traits@D@std@@V?$allocator@D@2@@std@@@2@V?$allocator@V?$basic_string@DU?$char_traits@D@std@@V?$allocator@D@2@@std@@@2@$0A@@std@@@std@@IBEABV?$allocator@U?$_Tree_node@V?$basic_string@DU?$char_traits@D@std@@V?$allocator@D@2@@std@@PAX@std@@@2@XZ ; std::_Tree<std::_Tset_traits<std::basic_string<char,std::char_traits<char>,std::allocator<char> >,std::less<std::basic_string<char,std::char_traits<char>,std::allocator<char> > >,std::allocator<std::basic_string<char,std::char_traits<char>,std::allocator<char> > >,0> >::_Getal
PUBLIC	??0?$allocator@U?$_Tree_node@V?$basic_string@DU?$char_traits@D@std@@V?$allocator@D@2@@std@@PAX@std@@@std@@QAE@XZ ; std::allocator<std::_Tree_node<std::basic_string<char,std::char_traits<char>,std::allocator<char> >,void *> >::allocator<std::_Tree_node<std::basic_string<char,std::char_traits<char>,std::allocator<char> >,void *> >
PUBLIC	?deallocate@?$allocator@U?$_Tree_node@V?$basic_string@DU?$char_traits@D@std@@V?$allocator@D@2@@std@@PAX@std@@@std@@QAEXQAU?$_Tree_node@V?$basic_string@DU?$char_traits@D@std@@V?$allocator@D@2@@std@@PAX@2@I@Z ; std::allocator<std::_Tree_node<std::basic_string<char,std::char_traits<char>,std::allocator<char> >,void *> >::deallocate
PUBLIC	?allocate@?$allocator@U?$_Tree_node@V?$basic_string@DU?$char_traits@D@std@@V?$allocator@D@2@@std@@PAX@std@@@std@@QAEPAU?$_Tree_node@V?$basic_string@DU?$char_traits@D@std@@V?$allocator@D@2@@std@@PAX@2@I@Z ; std::allocator<std::_Tree_node<std::basic_string<char,std::char_traits<char>,std::allocator<char> >,void *> >::allocate
PUBLIC	?max_size@?$_Default_allocator_traits@V?$allocator@U?$_Tree_node@V?$basic_string@DU?$char_traits@D@std@@V?$allocator@D@2@@std@@PAX@std@@@std@@@std@@SAIABV?$allocator@U?$_Tree_node@V?$basic_string@DU?$char_traits@D@std@@V?$allocator@D@2@@std@@PAX@std@@@2@@Z ; std::_Default_allocator_traits<std::allocator<std::_Tree_node<std::basic_string<char,std::char_traits<char>,std::allocator<char> >,void *> > >::max_size
PUBLIC	??0?$_Tree_val@U?$_Tree_simple_types@V?$basic_string@DU?$char_traits@D@std@@V?$allocator@D@2@@std@@@std@@@std@@QAE@XZ ; std::_Tree_val<std::_Tree_simple_types<std::basic_string<char,std::char_traits<char>,std::allocator<char> > > >::_Tree_val<std::_Tree_simple_types<std::basic_string<char,std::char_traits<char>,std::allocator<char> > > >
PUBLIC	?_Get_first@?$_Compressed_pair@U?$less@V?$basic_string@DU?$char_traits@D@std@@V?$allocator@D@2@@std@@@std@@V?$_Compressed_pair@V?$allocator@U?$_Tree_node@V?$basic_string@DU?$char_traits@D@std@@V?$allocator@D@2@@std@@PAX@std@@@std@@V?$_Tree_val@U?$_Tree_simple_types@V?$basic_string@DU?$char_traits@D@std@@V?$allocator@D@2@@std@@@std@@@2@$00@2@$00@std@@QBEABU?$less@V?$basic_string@DU?$char_traits@D@std@@V?$allocator@D@2@@std@@@2@XZ ; std::_Compressed_pair<std::less<std::basic_string<char,std::char_traits<char>,std::allocator<char> > >,std::_Compressed_pair<std::allocator<std::_Tree_node<std::basic_string<char,std::char_traits<char>,std::allocator<char> >,void *> >,std::_Tree_val<std::_Tree_simple_types<std::basic_string<char,std::char_traits<char>,std::allocator<char> > > >,1>,1>::_Get_first
PUBLIC	?max_size@?$_Tree@V?$_Tmap_traits@KUSReserveTargetEffect@CPythonBackground@@U?$less@K@std@@V?$allocator@U?$pair@$$CBKUSReserveTargetEffect@CPythonBackground@@@std@@@4@$0A@@std@@@std@@QBEIXZ ; std::_Tree<std::_Tmap_traits<unsigned long,CPythonBackground::SReserveTargetEffect,std::less<unsigned long>,std::allocator<std::pair<unsigned long const ,CPythonBackground::SReserveTargetEffect> >,0> >::max_size
PUBLIC	??0?$allocator@U?$_Tree_node@U?$pair@$$CBKUSReserveTargetEffect@CPythonBackground@@@std@@PAX@std@@@std@@QAE@XZ ; std::allocator<std::_Tree_node<std::pair<unsigned long const ,CPythonBackground::SReserveTargetEffect>,void *> >::allocator<std::_Tree_node<std::pair<unsigned long const ,CPythonBackground::SReserveTargetEffect>,void *> >
PUBLIC	?deallocate@?$allocator@U?$_Tree_node@U?$pair@$$CBKUSReserveTargetEffect@CPythonBackground@@@std@@PAX@std@@@std@@QAEXQAU?$_Tree_node@U?$pair@$$CBKUSReserveTargetEffect@CPythonBackground@@@std@@PAX@2@I@Z ; std::allocator<std::_Tree_node<std::pair<unsigned long const ,CPythonBackground::SReserveTargetEffect>,void *> >::deallocate
PUBLIC	?allocate@?$allocator@U?$_Tree_node@U?$pair@$$CBKUSReserveTargetEffect@CPythonBackground@@@std@@PAX@std@@@std@@QAEPAU?$_Tree_node@U?$pair@$$CBKUSReserveTargetEffect@CPythonBackground@@@std@@PAX@2@I@Z ; std::allocator<std::_Tree_node<std::pair<unsigned long const ,CPythonBackground::SReserveTargetEffect>,void *> >::allocate
PUBLIC	??0?$_Tree_val@U?$_Tree_simple_types@U?$pair@$$CBKUSReserveTargetEffect@CPythonBackground@@@std@@@std@@@std@@QAE@XZ ; std::_Tree_val<std::_Tree_simple_types<std::pair<unsigned long const ,CPythonBackground::SReserveTargetEffect> > >::_Tree_val<std::_Tree_simple_types<std::pair<unsigned long const ,CPythonBackground::SReserveTargetEffect> > >
PUBLIC	??0?$_Alloc_construct_ptr@V?$allocator@U?$_Tree_node@HPAX@std@@@std@@@std@@QAE@AAV?$allocator@U?$_Tree_node@HPAX@std@@@1@@Z ; std::_Alloc_construct_ptr<std::allocator<std::_Tree_node<int,void *> > >::_Alloc_construct_ptr<std::allocator<std::_Tree_node<int,void *> > >
PUBLIC	?_Allocate@?$_Alloc_construct_ptr@V?$allocator@U?$_Tree_node@HPAX@std@@@std@@@std@@QAEXXZ ; std::_Alloc_construct_ptr<std::allocator<std::_Tree_node<int,void *> > >::_Allocate
PUBLIC	??0?$_Alloc_construct_ptr@V?$allocator@U?$_Tree_node@V?$basic_string@DU?$char_traits@D@std@@V?$allocator@D@2@@std@@PAX@std@@@std@@@std@@QAE@AAV?$allocator@U?$_Tree_node@V?$basic_string@DU?$char_traits@D@std@@V?$allocator@D@2@@std@@PAX@std@@@1@@Z ; std::_Alloc_construct_ptr<std::allocator<std::_Tree_node<std::basic_string<char,std::char_traits<char>,std::allocator<char> >,void *> > >::_Alloc_construct_ptr<std::allocator<std::_Tree_node<std::basic_string<char,std::char_traits<char>,std::allocator<char> >,void *> > >
PUBLIC	?_Allocate@?$_Alloc_construct_ptr@V?$allocator@U?$_Tree_node@V?$basic_string@DU?$char_traits@D@std@@V?$allocator@D@2@@std@@PAX@std@@@std@@@std@@QAEXXZ ; std::_Alloc_construct_ptr<std::allocator<std::_Tree_node<std::basic_string<char,std::char_traits<char>,std::allocator<char> >,void *> > >::_Allocate
PUBLIC	??0?$_Tree_temp_node_alloc@V?$allocator@U?$_Tree_node@U?$pair@$$CBKUSReserveTargetEffect@CPythonBackground@@@std@@PAX@std@@@std@@@std@@QAE@AAV?$allocator@U?$_Tree_node@U?$pair@$$CBKUSReserveTargetEffect@CPythonBackground@@@std@@PAX@std@@@1@@Z ; std::_Tree_temp_node_alloc<std::allocator<std::_Tree_node<std::pair<unsigned long const ,CPythonBackground::SReserveTargetEffect>,void *> > >::_Tree_temp_node_alloc<std::allocator<std::_Tree_node<std::pair<unsigned long const ,CPythonBackground::SReserveTargetEffect>,void *> > >
PUBLIC	??1?$_Alloc_construct_ptr@V?$allocator@U?$_Tree_node@U?$pair@$$CBKUSReserveTargetEffect@CPythonBackground@@@std@@PAX@std@@@std@@@std@@QAE@XZ ; std::_Alloc_construct_ptr<std::allocator<std::_Tree_node<std::pair<unsigned long const ,CPythonBackground::SReserveTargetEffect>,void *> > >::~_Alloc_construct_ptr<std::allocator<std::_Tree_node<std::pair<unsigned long const ,CPythonBackground::SReserveTargetEffect>,void *> > >
PUBLIC	??1?$_Erase_tree_and_orphan_guard@V?$allocator@U?$_Tree_node@HPAX@std@@@std@@@?$_Tree_val@U?$_Tree_simple_types@H@std@@@std@@QAE@XZ ; std::_Tree_val<std::_Tree_simple_types<int> >::_Erase_tree_and_orphan_guard<std::allocator<std::_Tree_node<int,void *> > >::~_Erase_tree_and_orphan_guard<std::allocator<std::_Tree_node<int,void *> > >
PUBLIC	??$exchange@PAU?$_Tree_node@U?$pair@$$CBKUSReserveTargetEffect@CPythonBackground@@@std@@PAX@std@@$$T@std@@YAPAU?$_Tree_node@U?$pair@$$CBKUSReserveTargetEffect@CPythonBackground@@@std@@PAX@0@AAPAU10@$$QA$$T@Z ; std::exchange<std::_Tree_node<std::pair<unsigned long const ,CPythonBackground::SReserveTargetEffect>,void *> *,std::nullptr_t>
PUBLIC	??$_Construct_in_place@PAU?$_Tree_node@HPAX@std@@ABQAU12@@std@@YAXAAPAU?$_Tree_node@HPAX@0@ABQAU10@@Z ; std::_Construct_in_place<std::_Tree_node<int,void *> *,std::_Tree_node<int,void *> * const &>
PUBLIC	??$_Construct_in_place@PAU?$_Tree_node@V?$basic_string@DU?$char_traits@D@std@@V?$allocator@D@2@@std@@PAX@std@@ABQAU12@@std@@YAXAAPAU?$_Tree_node@V?$basic_string@DU?$char_traits@D@std@@V?$allocator@D@2@@std@@PAX@0@ABQAU10@@Z ; std::_Construct_in_place<std::_Tree_node<std::basic_string<char,std::char_traits<char>,std::allocator<char> >,void *> *,std::_Tree_node<std::basic_string<char,std::char_traits<char>,std::allocator<char> >,void *> * const &>
PUBLIC	??$_Construct_in_place@PAU?$_Tree_node@U?$pair@$$CBKUSReserveTargetEffect@CPythonBackground@@@std@@PAX@std@@ABQAU12@@std@@YAXAAPAU?$_Tree_node@U?$pair@$$CBKUSReserveTargetEffect@CPythonBackground@@@std@@PAX@0@ABQAU10@@Z ; std::_Construct_in_place<std::_Tree_node<std::pair<unsigned long const ,CPythonBackground::SReserveTargetEffect>,void *> *,std::_Tree_node<std::pair<unsigned long const ,CPythonBackground::SReserveTargetEffect>,void *> * const &>
PUBLIC	??$_Copy_or_move@$0A@H@?$_Tree@V?$_Tset_traits@HU?$less@H@std@@V?$allocator@H@2@$0A@@std@@@std@@IAEPAU?$_Tree_node@HPAX@1@AAH@Z ; std::_Tree<std::_Tset_traits<int,std::less<int>,std::allocator<int>,0> >::_Copy_or_move<0,int>
PUBLIC	??$destroy_at@H@std@@YAXQAH@Z			; std::destroy_at<int>
PUBLIC	??$destroy_at@U?$pair@$$CBKUSReserveTargetEffect@CPythonBackground@@@std@@@std@@YAXQAU?$pair@$$CBKUSReserveTargetEffect@CPythonBackground@@@0@@Z ; std::destroy_at<std::pair<unsigned long const ,CPythonBackground::SReserveTargetEffect> >
PUBLIC	??$forward@PAU?$_Tree_node@U?$pair@$$CBKUSReserveTargetEffect@CPythonBackground@@@std@@PAX@std@@@std@@YA$$QAPAU?$_Tree_node@U?$pair@$$CBKUSReserveTargetEffect@CPythonBackground@@@std@@PAX@0@AAPAU10@@Z ; std::forward<std::_Tree_node<std::pair<unsigned long const ,CPythonBackground::SReserveTargetEffect>,void *> *>
PUBLIC	??$_Construct_in_place@PAU?$_Tree_node@U?$pair@$$CBKUSReserveTargetEffect@CPythonBackground@@@std@@PAX@std@@AAPAU12@@std@@YAXAAPAU?$_Tree_node@U?$pair@$$CBKUSReserveTargetEffect@CPythonBackground@@@std@@PAX@0@0@Z ; std::_Construct_in_place<std::_Tree_node<std::pair<unsigned long const ,CPythonBackground::SReserveTargetEffect>,void *> *,std::_Tree_node<std::pair<unsigned long const ,CPythonBackground::SReserveTargetEffect>,void *> * &>
PUBLIC	??$construct@U?$pair@$$CBKUSReserveTargetEffect@CPythonBackground@@@std@@U?$pair@KUSReserveTargetEffect@CPythonBackground@@@2@@?$_Default_allocator_traits@V?$allocator@U?$_Tree_node@U?$pair@$$CBKUSReserveTargetEffect@CPythonBackground@@@std@@PAX@std@@@std@@@std@@SAXAAV?$allocator@U?$_Tree_node@U?$pair@$$CBKUSReserveTargetEffect@CPythonBackground@@@std@@PAX@std@@@1@QAU?$pair@$$CBKUSReserveTargetEffect@CPythonBackground@@@1@$$QAU?$pair@KUSReserveTargetEffect@CPythonBackground@@@1@@Z ; std::_Default_allocator_traits<std::allocator<std::_Tree_node<std::pair<unsigned long const ,CPythonBackground::SReserveTargetEffect>,void *> > >::construct<std::pair<unsigned long const ,CPythonBackground::SReserveTargetEffect>,std::pair<unsigned long,CPythonBackground::SReserveTargetEffect> >
PUBLIC	??$construct_at@PAU?$_Tree_node@V?$basic_string@DU?$char_traits@D@std@@V?$allocator@D@2@@std@@PAX@std@@AAPAU12@@std@@YAPAPAU?$_Tree_node@V?$basic_string@DU?$char_traits@D@std@@V?$allocator@D@2@@std@@PAX@0@QAPAU10@AAPAU10@@Z ; std::construct_at<std::_Tree_node<std::basic_string<char,std::char_traits<char>,std::allocator<char> >,void *> *,std::_Tree_node<std::basic_string<char,std::char_traits<char>,std::allocator<char> >,void *> * &>
PUBLIC	??$addressof@PAU?$_Tree_node@V?$basic_string@DU?$char_traits@D@std@@V?$allocator@D@2@@std@@PAX@std@@@std@@YAPAPAU?$_Tree_node@V?$basic_string@DU?$char_traits@D@std@@V?$allocator@D@2@@std@@PAX@0@AAPAU10@@Z ; std::addressof<std::_Tree_node<std::basic_string<char,std::char_traits<char>,std::allocator<char> >,void *> *>
PUBLIC	??$construct_at@PAU?$_Tree_node@HPAX@std@@AAPAU12@@std@@YAPAPAU?$_Tree_node@HPAX@0@QAPAU10@AAPAU10@@Z ; std::construct_at<std::_Tree_node<int,void *> *,std::_Tree_node<int,void *> * &>
PUBLIC	??$addressof@PAU?$_Tree_node@HPAX@std@@@std@@YAPAPAU?$_Tree_node@HPAX@0@AAPAU10@@Z ; std::addressof<std::_Tree_node<int,void *> *>
PUBLIC	??$construct_at@HABH@std@@YAPAHQAHABH@Z		; std::construct_at<int,int const &>
PUBLIC	??$?__MDU?$char_traits@D@std@@V?$allocator@D@1@@std@@YA?AUstrong_ordering@0@ABV?$basic_string@DU?$char_traits@D@std@@V?$allocator@D@2@@0@0@Z ; std::operator<=><char,std::char_traits<char>,std::allocator<char> >
PUBLIC	??1?$_Tree_temp_node_alloc@V?$allocator@U?$_Tree_node@U?$pair@$$CBKUSReserveTargetEffect@CPythonBackground@@@std@@PAX@std@@@std@@@std@@QAE@XZ ; std::_Tree_temp_node_alloc<std::allocator<std::_Tree_node<std::pair<unsigned long const ,CPythonBackground::SReserveTargetEffect>,void *> > >::~_Tree_temp_node_alloc<std::allocator<std::_Tree_node<std::pair<unsigned long const ,CPythonBackground::SReserveTargetEffect>,void *> > >
PUBLIC	??R?$less@V?$basic_string@DU?$char_traits@D@std@@V?$allocator@D@2@@std@@@std@@QBE_NABV?$basic_string@DU?$char_traits@D@std@@V?$allocator@D@2@@1@0@Z ; std::less<std::basic_string<char,std::char_traits<char>,std::allocator<char> > >::operator()
PUBLIC	?_Kfn@?$_Tset_traits@HU?$less@H@std@@V?$allocator@H@2@$0A@@std@@SAABHABH@Z ; std::_Tset_traits<int,std::less<int>,std::allocator<int>,0>::_Kfn
PUBLIC	?max_size@?$_Tree@V?$_Tset_traits@HU?$less@H@std@@V?$allocator@H@2@$0A@@std@@@std@@QBEIXZ ; std::_Tree<std::_Tset_traits<int,std::less<int>,std::allocator<int>,0> >::max_size
PUBLIC	?deallocate@?$_Default_allocator_traits@V?$allocator@U?$_Tree_node@HPAX@std@@@std@@@std@@SAXAAV?$allocator@U?$_Tree_node@HPAX@std@@@2@QAU?$_Tree_node@HPAX@2@I@Z ; std::_Default_allocator_traits<std::allocator<std::_Tree_node<int,void *> > >::deallocate
PUBLIC	?_Max@?$_Tree_val@U?$_Tree_simple_types@H@std@@@std@@SAPAU?$_Tree_node@HPAX@2@PAU32@@Z ; std::_Tree_val<std::_Tree_simple_types<int> >::_Max
PUBLIC	?_Lrotate@?$_Tree_val@U?$_Tree_simple_types@H@std@@@std@@QAEXPAU?$_Tree_node@HPAX@2@@Z ; std::_Tree_val<std::_Tree_simple_types<int> >::_Lrotate
PUBLIC	?_Rrotate@?$_Tree_val@U?$_Tree_simple_types@H@std@@@std@@QAEXPAU?$_Tree_node@HPAX@2@@Z ; std::_Tree_val<std::_Tree_simple_types<int> >::_Rrotate
PUBLIC	?_Get_first@?$_Compressed_pair@V?$allocator@U?$_Tree_node@HPAX@std@@@std@@V?$_Tree_val@U?$_Tree_simple_types@H@std@@@2@$00@std@@QBEABV?$allocator@U?$_Tree_node@HPAX@std@@@2@XZ ; std::_Compressed_pair<std::allocator<std::_Tree_node<int,void *> >,std::_Tree_val<std::_Tree_simple_types<int> >,1>::_Get_first
PUBLIC	?_Get_first@?$_Compressed_pair@U?$less@H@std@@V?$_Compressed_pair@V?$allocator@U?$_Tree_node@HPAX@std@@@std@@V?$_Tree_val@U?$_Tree_simple_types@H@std@@@2@$00@2@$00@std@@QAEAAU?$less@H@2@XZ ; std::_Compressed_pair<std::less<int>,std::_Compressed_pair<std::allocator<std::_Tree_node<int,void *> >,std::_Tree_val<std::_Tree_simple_types<int> >,1>,1>::_Get_first
PUBLIC	?_Get_first@?$_Compressed_pair@U?$less@H@std@@V?$_Compressed_pair@V?$allocator@U?$_Tree_node@HPAX@std@@@std@@V?$_Tree_val@U?$_Tree_simple_types@H@std@@@2@$00@2@$00@std@@QBEABU?$less@H@2@XZ ; std::_Compressed_pair<std::less<int>,std::_Compressed_pair<std::allocator<std::_Tree_node<int,void *> >,std::_Tree_val<std::_Tree_simple_types<int> >,1>,1>::_Get_first
PUBLIC	?_Kfn@?$_Tset_traits@V?$basic_string@DU?$char_traits@D@std@@V?$allocator@D@2@@std@@U?$less@V?$basic_string@DU?$char_traits@D@std@@V?$allocator@D@2@@std@@@2@V?$allocator@V?$basic_string@DU?$char_traits@D@std@@V?$allocator@D@2@@std@@@2@$0A@@std@@SAABV?$basic_string@DU?$char_traits@D@std@@V?$allocator@D@2@@2@ABV32@@Z ; std::_Tset_traits<std::basic_string<char,std::char_traits<char>,std::allocator<char> >,std::less<std::basic_string<char,std::char_traits<char>,std::allocator<char> > >,std::allocator<std::basic_string<char,std::char_traits<char>,std::allocator<char> > >,0>::_Kfn
PUBLIC	?max_size@?$_Tree@V?$_Tset_traits@V?$basic_string@DU?$char_traits@D@std@@V?$allocator@D@2@@std@@U?$less@V?$basic_string@DU?$char_traits@D@std@@V?$allocator@D@2@@std@@@2@V?$allocator@V?$basic_string@DU?$char_traits@D@std@@V?$allocator@D@2@@std@@@2@$0A@@std@@@std@@QBEIXZ ; std::_Tree<std::_Tset_traits<std::basic_string<char,std::char_traits<char>,std::allocator<char> >,std::less<std::basic_string<char,std::char_traits<char>,std::allocator<char> > >,std::allocator<std::basic_string<char,std::char_traits<char>,std::allocator<char> > >,0> >::max_size
PUBLIC	?_Getcomp@?$_Tree@V?$_Tset_traits@V?$basic_string@DU?$char_traits@D@std@@V?$allocator@D@2@@std@@U?$less@V?$basic_string@DU?$char_traits@D@std@@V?$allocator@D@2@@std@@@2@V?$allocator@V?$basic_string@DU?$char_traits@D@std@@V?$allocator@D@2@@std@@@2@$0A@@std@@@std@@IBEABU?$less@V?$basic_string@DU?$char_traits@D@std@@V?$allocator@D@2@@std@@@2@XZ ; std::_Tree<std::_Tset_traits<std::basic_string<char,std::char_traits<char>,std::allocator<char> >,std::less<std::basic_string<char,std::char_traits<char>,std::allocator<char> > >,std::allocator<std::basic_string<char,std::char_traits<char>,std::allocator<char> > >,0> >::_Getcomp
PUBLIC	?deallocate@?$_Default_allocator_traits@V?$allocator@U?$_Tree_node@V?$basic_string@DU?$char_traits@D@std@@V?$allocator@D@2@@std@@PAX@std@@@std@@@std@@SAXAAV?$allocator@U?$_Tree_node@V?$basic_string@DU?$char_traits@D@std@@V?$allocator@D@2@@std@@PAX@std@@@2@QAU?$_Tree_node@V?$basic_string@DU?$char_traits@D@std@@V?$allocator@D@2@@std@@PAX@2@I@Z ; std::_Default_allocator_traits<std::allocator<std::_Tree_node<std::basic_string<char,std::char_traits<char>,std::allocator<char> >,void *> > >::deallocate
PUBLIC	?_Lrotate@?$_Tree_val@U?$_Tree_simple_types@V?$basic_string@DU?$char_traits@D@std@@V?$allocator@D@2@@std@@@std@@@std@@QAEXPAU?$_Tree_node@V?$basic_string@DU?$char_traits@D@std@@V?$allocator@D@2@@std@@PAX@2@@Z ; std::_Tree_val<std::_Tree_simple_types<std::basic_string<char,std::char_traits<char>,std::allocator<char> > > >::_Lrotate
PUBLIC	?_Rrotate@?$_Tree_val@U?$_Tree_simple_types@V?$basic_string@DU?$char_traits@D@std@@V?$allocator@D@2@@std@@@std@@@std@@QAEXPAU?$_Tree_node@V?$basic_string@DU?$char_traits@D@std@@V?$allocator@D@2@@std@@PAX@2@@Z ; std::_Tree_val<std::_Tree_simple_types<std::basic_string<char,std::char_traits<char>,std::allocator<char> > > >::_Rrotate
PUBLIC	?_Unchecked_begin@?$_Tree@V?$_Tmap_traits@KKU?$less@K@std@@V?$allocator@U?$pair@$$CBKK@std@@@2@$0A@@std@@@std@@QAE?AV?$_Tree_unchecked_iterator@V?$_Tree_val@U?$_Tree_simple_types@U?$pair@$$CBKK@std@@@std@@@std@@@2@XZ ; std::_Tree<std::_Tmap_traits<unsigned long,unsigned long,std::less<unsigned long>,std::allocator<std::pair<unsigned long const ,unsigned long> >,0> >::_Unchecked_begin
PUBLIC	??E?$_Tree_unchecked_const_iterator@V?$_Tree_val@U?$_Tree_simple_types@U?$pair@$$CBKK@std@@@std@@@std@@U_Iterator_base0@2@@std@@QAE?AV01@H@Z ; std::_Tree_unchecked_const_iterator<std::_Tree_val<std::_Tree_simple_types<std::pair<unsigned long const ,unsigned long> > >,std::_Iterator_base0>::operator++
PUBLIC	??8?$_Tree_unchecked_const_iterator@V?$_Tree_val@U?$_Tree_simple_types@U?$pair@$$CBKK@std@@@std@@@std@@U_Iterator_base0@2@@std@@QBE_NABV01@@Z ; std::_Tree_unchecked_const_iterator<std::_Tree_val<std::_Tree_simple_types<std::pair<unsigned long const ,unsigned long> > >,std::_Iterator_base0>::operator==
PUBLIC	?_Unchecked_begin@?$_Tree@V?$_Tmap_traits@KUSReserveTargetEffect@CPythonBackground@@U?$less@K@std@@V?$allocator@U?$pair@$$CBKUSReserveTargetEffect@CPythonBackground@@@std@@@4@$0A@@std@@@std@@QAE?AV?$_Tree_unchecked_iterator@V?$_Tree_val@U?$_Tree_simple_types@U?$pair@$$CBKUSReserveTargetEffect@CPythonBackground@@@std@@@std@@@std@@@2@XZ ; std::_Tree<std::_Tmap_traits<unsigned long,CPythonBackground::SReserveTargetEffect,std::less<unsigned long>,std::allocator<std::pair<unsigned long const ,CPythonBackground::SReserveTargetEffect> >,0> >::_Unchecked_begin
PUBLIC	?_Check_grow_by_1@?$_Tree@V?$_Tmap_traits@KUSReserveTargetEffect@CPythonBackground@@U?$less@K@std@@V?$allocator@U?$pair@$$CBKUSReserveTargetEffect@CPythonBackground@@@std@@@4@$0A@@std@@@std@@IAEXXZ ; std::_Tree<std::_Tmap_traits<unsigned long,CPythonBackground::SReserveTargetEffect,std::less<unsigned long>,std::allocator<std::pair<unsigned long const ,CPythonBackground::SReserveTargetEffect> >,0> >::_Check_grow_by_1
PUBLIC	?deallocate@?$_Default_allocator_traits@V?$allocator@U?$_Tree_node@U?$pair@$$CBKUSReserveTargetEffect@CPythonBackground@@@std@@PAX@std@@@std@@@std@@SAXAAV?$allocator@U?$_Tree_node@U?$pair@$$CBKUSReserveTargetEffect@CPythonBackground@@@std@@PAX@std@@@2@QAU?$_Tree_node@U?$pair@$$CBKUSReserveTargetEffect@CPythonBackground@@@std@@PAX@2@I@Z ; std::_Default_allocator_traits<std::allocator<std::_Tree_node<std::pair<unsigned long const ,CPythonBackground::SReserveTargetEffect>,void *> > >::deallocate
PUBLIC	?_Max@?$_Tree_val@U?$_Tree_simple_types@U?$pair@$$CBKUSReserveTargetEffect@CPythonBackground@@@std@@@std@@@std@@SAPAU?$_Tree_node@U?$pair@$$CBKUSReserveTargetEffect@CPythonBackground@@@std@@PAX@2@PAU32@@Z ; std::_Tree_val<std::_Tree_simple_types<std::pair<unsigned long const ,CPythonBackground::SReserveTargetEffect> > >::_Max
PUBLIC	?_Min@?$_Tree_val@U?$_Tree_simple_types@U?$pair@$$CBKUSReserveTargetEffect@CPythonBackground@@@std@@@std@@@std@@SAPAU?$_Tree_node@U?$pair@$$CBKUSReserveTargetEffect@CPythonBackground@@@std@@PAX@2@PAU32@@Z ; std::_Tree_val<std::_Tree_simple_types<std::pair<unsigned long const ,CPythonBackground::SReserveTargetEffect> > >::_Min
PUBLIC	?_Lrotate@?$_Tree_val@U?$_Tree_simple_types@U?$pair@$$CBKUSReserveTargetEffect@CPythonBackground@@@std@@@std@@@std@@QAEXPAU?$_Tree_node@U?$pair@$$CBKUSReserveTargetEffect@CPythonBackground@@@std@@PAX@2@@Z ; std::_Tree_val<std::_Tree_simple_types<std::pair<unsigned long const ,CPythonBackground::SReserveTargetEffect> > >::_Lrotate
PUBLIC	?_Rrotate@?$_Tree_val@U?$_Tree_simple_types@U?$pair@$$CBKUSReserveTargetEffect@CPythonBackground@@@std@@@std@@@std@@QAEXPAU?$_Tree_node@U?$pair@$$CBKUSReserveTargetEffect@CPythonBackground@@@std@@PAX@2@@Z ; std::_Tree_val<std::_Tree_simple_types<std::pair<unsigned long const ,CPythonBackground::SReserveTargetEffect> > >::_Rrotate
PUBLIC	?_Insert_node@?$_Tree_val@U?$_Tree_simple_types@U?$pair@$$CBKUSReserveTargetEffect@CPythonBackground@@@std@@@std@@@std@@QAEPAU?$_Tree_node@U?$pair@$$CBKUSReserveTargetEffect@CPythonBackground@@@std@@PAX@2@U?$_Tree_id@PAU?$_Tree_node@U?$pair@$$CBKUSReserveTargetEffect@CPythonBackground@@@std@@PAX@std@@@2@QAU32@@Z ; std::_Tree_val<std::_Tree_simple_types<std::pair<unsigned long const ,CPythonBackground::SReserveTargetEffect> > >::_Insert_node
PUBLIC	??E?$_Tree_unchecked_const_iterator@V?$_Tree_val@U?$_Tree_simple_types@U?$pair@$$CBKUSReserveTargetEffect@CPythonBackground@@@std@@@std@@@std@@U_Iterator_base0@2@@std@@QAE?AV01@H@Z ; std::_Tree_unchecked_const_iterator<std::_Tree_val<std::_Tree_simple_types<std::pair<unsigned long const ,CPythonBackground::SReserveTargetEffect> > >,std::_Iterator_base0>::operator++
PUBLIC	??8?$_Tree_unchecked_const_iterator@V?$_Tree_val@U?$_Tree_simple_types@U?$pair@$$CBKUSReserveTargetEffect@CPythonBackground@@@std@@@std@@@std@@U_Iterator_base0@2@@std@@QBE_NABV01@@Z ; std::_Tree_unchecked_const_iterator<std::_Tree_val<std::_Tree_simple_types<std::pair<unsigned long const ,CPythonBackground::SReserveTargetEffect> > >,std::_Iterator_base0>::operator==
PUBLIC	?_Get_first@?$_Compressed_pair@U?$less@K@std@@V?$_Compressed_pair@V?$allocator@U?$_Tree_node@U?$pair@$$CBKUSReserveTargetEffect@CPythonBackground@@@std@@PAX@std@@@std@@V?$_Tree_val@U?$_Tree_simple_types@U?$pair@$$CBKUSReserveTargetEffect@CPythonBackground@@@std@@@std@@@2@$00@2@$00@std@@QBEABU?$less@K@2@XZ ; std::_Compressed_pair<std::less<unsigned long>,std::_Compressed_pair<std::allocator<std::_Tree_node<std::pair<unsigned long const ,CPythonBackground::SReserveTargetEffect>,void *> >,std::_Tree_val<std::_Tree_simple_types<std::pair<unsigned long const ,CPythonBackground::SReserveTargetEffect> > >,1>,1>::_Get_first
PUBLIC	??0?$_Tree_temp_node_alloc@V?$allocator@U?$_Tree_node@HPAX@std@@@std@@@std@@QAE@AAV?$allocator@U?$_Tree_node@HPAX@std@@@1@@Z ; std::_Tree_temp_node_alloc<std::allocator<std::_Tree_node<int,void *> > >::_Tree_temp_node_alloc<std::allocator<std::_Tree_node<int,void *> > >
PUBLIC	??1?$_Alloc_construct_ptr@V?$allocator@U?$_Tree_node@HPAX@std@@@std@@@std@@QAE@XZ ; std::_Alloc_construct_ptr<std::allocator<std::_Tree_node<int,void *> > >::~_Alloc_construct_ptr<std::allocator<std::_Tree_node<int,void *> > >
PUBLIC	??0?$_Tree_temp_node_alloc@V?$allocator@U?$_Tree_node@V?$basic_string@DU?$char_traits@D@std@@V?$allocator@D@2@@std@@PAX@std@@@std@@@std@@QAE@AAV?$allocator@U?$_Tree_node@V?$basic_string@DU?$char_traits@D@std@@V?$allocator@D@2@@std@@PAX@std@@@1@@Z ; std::_Tree_temp_node_alloc<std::allocator<std::_Tree_node<std::basic_string<char,std::char_traits<char>,std::allocator<char> >,void *> > >::_Tree_temp_node_alloc<std::allocator<std::_Tree_node<std::basic_string<char,std::char_traits<char>,std::allocator<char> >,void *> > >
PUBLIC	??1?$_Alloc_construct_ptr@V?$allocator@U?$_Tree_node@V?$basic_string@DU?$char_traits@D@std@@V?$allocator@D@2@@std@@PAX@std@@@std@@@std@@QAE@XZ ; std::_Alloc_construct_ptr<std::allocator<std::_Tree_node<std::basic_string<char,std::char_traits<char>,std::allocator<char> >,void *> > >::~_Alloc_construct_ptr<std::allocator<std::_Tree_node<std::basic_string<char,std::char_traits<char>,std::allocator<char> >,void *> > >
PUBLIC	?_Extract@?$_In_place_key_extract_map_impl@KU?$pair@KUSReserveTargetEffect@CPythonBackground@@@std@@@std@@SAABKABU?$pair@KUSReserveTargetEffect@CPythonBackground@@@2@@Z ; std::_In_place_key_extract_map_impl<unsigned long,std::pair<unsigned long,CPythonBackground::SReserveTargetEffect> >::_Extract
PUBLIC	??1?$_Tree_temp_node@V?$allocator@U?$_Tree_node@U?$pair@$$CBKUSReserveTargetEffect@CPythonBackground@@@std@@PAX@std@@@std@@@std@@QAE@XZ ; std::_Tree_temp_node<std::allocator<std::_Tree_node<std::pair<unsigned long const ,CPythonBackground::SReserveTargetEffect>,void *> > >::~_Tree_temp_node<std::allocator<std::_Tree_node<std::pair<unsigned long const ,CPythonBackground::SReserveTargetEffect>,void *> > >
PUBLIC	?_Release@?$_Alloc_construct_ptr@V?$allocator@U?$_Tree_node@U?$pair@$$CBKUSReserveTargetEffect@CPythonBackground@@@std@@PAX@std@@@std@@@std@@QAEPAU?$_Tree_node@U?$pair@$$CBKUSReserveTargetEffect@CPythonBackground@@@std@@PAX@2@XZ ; std::_Alloc_construct_ptr<std::allocator<std::_Tree_node<std::pair<unsigned long const ,CPythonBackground::SReserveTargetEffect>,void *> > >::_Release
PUBLIC	??$_Buyheadnode@V?$allocator@U?$_Tree_node@HPAX@std@@@std@@@?$_Tree_node@HPAX@std@@SAPAU01@AAV?$allocator@U?$_Tree_node@HPAX@std@@@1@@Z ; std::_Tree_node<int,void *>::_Buyheadnode<std::allocator<std::_Tree_node<int,void *> > >
PUBLIC	??$addressof@$$CBV?$_Tree_val@U?$_Tree_simple_types@H@std@@@std@@@std@@YAPBV?$_Tree_val@U?$_Tree_simple_types@H@std@@@0@ABV10@@Z ; std::addressof<std::_Tree_val<std::_Tree_simple_types<int> > const >
PUBLIC	??$_Refancy_maybe_null@PAUTMapInfo@CMapManager@@$0A@@std@@YAPAUTMapInfo@CMapManager@@PAU12@@Z ; std::_Refancy_maybe_null<CMapManager::TMapInfo *,0>
PUBLIC	??$_Buyheadnode@V?$allocator@U?$_Tree_node@V?$basic_string@DU?$char_traits@D@std@@V?$allocator@D@2@@std@@PAX@std@@@std@@@?$_Tree_node@V?$basic_string@DU?$char_traits@D@std@@V?$allocator@D@2@@std@@PAX@std@@SAPAU01@AAV?$allocator@U?$_Tree_node@V?$basic_string@DU?$char_traits@D@std@@V?$allocator@D@2@@std@@PAX@std@@@1@@Z ; std::_Tree_node<std::basic_string<char,std::char_traits<char>,std::allocator<char> >,void *>::_Buyheadnode<std::allocator<std::_Tree_node<std::basic_string<char,std::char_traits<char>,std::allocator<char> >,void *> > >
PUBLIC	??$addressof@$$CBV?$_Tree_val@U?$_Tree_simple_types@V?$basic_string@DU?$char_traits@D@std@@V?$allocator@D@2@@std@@@std@@@std@@@std@@YAPBV?$_Tree_val@U?$_Tree_simple_types@V?$basic_string@DU?$char_traits@D@std@@V?$allocator@D@2@@std@@@std@@@0@ABV10@@Z ; std::addressof<std::_Tree_val<std::_Tree_simple_types<std::basic_string<char,std::char_traits<char>,std::allocator<char> > > > const >
PUBLIC	??$_Buyheadnode@V?$allocator@U?$_Tree_node@U?$pair@$$CBKUSReserveTargetEffect@CPythonBackground@@@std@@PAX@std@@@std@@@?$_Tree_node@U?$pair@$$CBKUSReserveTargetEffect@CPythonBackground@@@std@@PAX@std@@SAPAU01@AAV?$allocator@U?$_Tree_node@U?$pair@$$CBKUSReserveTargetEffect@CPythonBackground@@@std@@PAX@std@@@1@@Z ; std::_Tree_node<std::pair<unsigned long const ,CPythonBackground::SReserveTargetEffect>,void *>::_Buyheadnode<std::allocator<std::_Tree_node<std::pair<unsigned long const ,CPythonBackground::SReserveTargetEffect>,void *> > >
PUBLIC	??$addressof@$$CBV?$_Tree_val@U?$_Tree_simple_types@U?$pair@$$CBKUSReserveTargetEffect@CPythonBackground@@@std@@@std@@@std@@@std@@YAPBV?$_Tree_val@U?$_Tree_simple_types@U?$pair@$$CBKUSReserveTargetEffect@CPythonBackground@@@std@@@std@@@0@ABV10@@Z ; std::addressof<std::_Tree_val<std::_Tree_simple_types<std::pair<unsigned long const ,CPythonBackground::SReserveTargetEffect> > > const >
PUBLIC	??$exchange@PAU?$_Tree_node@HPAX@std@@$$T@std@@YAPAU?$_Tree_node@HPAX@0@AAPAU10@$$QA$$T@Z ; std::exchange<std::_Tree_node<int,void *> *,std::nullptr_t>
PUBLIC	??$destroy@V?$basic_string@DU?$char_traits@D@std@@V?$allocator@D@2@@std@@@?$_Default_allocator_traits@V?$allocator@U?$_Tree_node@V?$basic_string@DU?$char_traits@D@std@@V?$allocator@D@2@@std@@PAX@std@@@std@@@std@@SAXAAV?$allocator@U?$_Tree_node@V?$basic_string@DU?$char_traits@D@std@@V?$allocator@D@2@@std@@PAX@std@@@1@QAV?$basic_string@DU?$char_traits@D@std@@V?$allocator@D@2@@1@@Z ; std::_Default_allocator_traits<std::allocator<std::_Tree_node<std::basic_string<char,std::char_traits<char>,std::allocator<char> >,void *> > >::destroy<std::basic_string<char,std::char_traits<char>,std::allocator<char> > >
PUBLIC	??$exchange@PAU?$_Tree_node@V?$basic_string@DU?$char_traits@D@std@@V?$allocator@D@2@@std@@PAX@std@@$$T@std@@YAPAU?$_Tree_node@V?$basic_string@DU?$char_traits@D@std@@V?$allocator@D@2@@std@@PAX@0@AAPAU10@$$QA$$T@Z ; std::exchange<std::_Tree_node<std::basic_string<char,std::char_traits<char>,std::allocator<char> >,void *> *,std::nullptr_t>
PUBLIC	??$_Copy_nodes@$0A@@?$_Tree@V?$_Tset_traits@HU?$less@H@std@@V?$allocator@H@2@$0A@@std@@@std@@IAEPAU?$_Tree_node@HPAX@1@PAU21@0@Z ; std::_Tree<std::_Tset_traits<int,std::less<int>,std::allocator<int>,0> >::_Copy_nodes<0>
PUBLIC	??$forward@ABU?$less@V?$basic_string@DU?$char_traits@D@std@@V?$allocator@D@2@@std@@@std@@@std@@YAABU?$less@V?$basic_string@DU?$char_traits@D@std@@V?$allocator@D@2@@std@@@0@ABU10@@Z ; std::forward<std::less<std::basic_string<char,std::char_traits<char>,std::allocator<char> > > const &>
PUBLIC	??$_Adl_verify_range@V?$_Tree_unchecked_const_iterator@V?$_Tree_val@U?$_Tree_simple_types@U?$pair@$$CBKK@std@@@std@@@std@@U_Iterator_base0@2@@std@@V12@@std@@YAXABV?$_Tree_unchecked_const_iterator@V?$_Tree_val@U?$_Tree_simple_types@U?$pair@$$CBKK@std@@@std@@@std@@U_Iterator_base0@2@@0@0@Z ; std::_Adl_verify_range<std::_Tree_unchecked_const_iterator<std::_Tree_val<std::_Tree_simple_types<std::pair<unsigned long const ,unsigned long> > >,std::_Iterator_base0>,std::_Tree_unchecked_const_iterator<std::_Tree_val<std::_Tree_simple_types<std::pair<unsigned long const ,unsigned long> > >,std::_Iterator_base0> >
PUBLIC	??$_Adl_verify_range@V?$_Tree_unchecked_const_iterator@V?$_Tree_val@U?$_Tree_simple_types@U?$pair@$$CBKUSReserveTargetEffect@CPythonBackground@@@std@@@std@@@std@@U_Iterator_base0@2@@std@@V12@@std@@YAXABV?$_Tree_unchecked_const_iterator@V?$_Tree_val@U?$_Tree_simple_types@U?$pair@$$CBKUSReserveTargetEffect@CPythonBackground@@@std@@@std@@@std@@U_Iterator_base0@2@@0@0@Z ; std::_Adl_verify_range<std::_Tree_unchecked_const_iterator<std::_Tree_val<std::_Tree_simple_types<std::pair<unsigned long const ,CPythonBackground::SReserveTargetEffect> > >,std::_Iterator_base0>,std::_Tree_unchecked_const_iterator<std::_Tree_val<std::_Tree_simple_types<std::pair<unsigned long const ,CPythonBackground::SReserveTargetEffect> > >,std::_Iterator_base0> >
PUBLIC	??$_Destroy_in_place@PAU?$_Tree_node@HPAX@std@@@std@@YAXAAPAU?$_Tree_node@HPAX@0@@Z ; std::_Destroy_in_place<std::_Tree_node<int,void *> *>
PUBLIC	??$destroy@H@?$_Default_allocator_traits@V?$allocator@U?$_Tree_node@HPAX@std@@@std@@@std@@SAXAAV?$allocator@U?$_Tree_node@HPAX@std@@@1@QAH@Z ; std::_Default_allocator_traits<std::allocator<std::_Tree_node<int,void *> > >::destroy<int>
PUBLIC	??$_Destroy_in_place@PAU?$_Tree_node@V?$basic_string@DU?$char_traits@D@std@@V?$allocator@D@2@@std@@PAX@std@@@std@@YAXAAPAU?$_Tree_node@V?$basic_string@DU?$char_traits@D@std@@V?$allocator@D@2@@std@@PAX@0@@Z ; std::_Destroy_in_place<std::_Tree_node<std::basic_string<char,std::char_traits<char>,std::allocator<char> >,void *> *>
PUBLIC	??$_Freenode@V?$allocator@U?$_Tree_node@V?$basic_string@DU?$char_traits@D@std@@V?$allocator@D@2@@std@@PAX@std@@@std@@@?$_Tree_node@V?$basic_string@DU?$char_traits@D@std@@V?$allocator@D@2@@std@@PAX@std@@SAXAAV?$allocator@U?$_Tree_node@V?$basic_string@DU?$char_traits@D@std@@V?$allocator@D@2@@std@@PAX@std@@@1@PAU01@@Z ; std::_Tree_node<std::basic_string<char,std::char_traits<char>,std::allocator<char> >,void *>::_Freenode<std::allocator<std::_Tree_node<std::basic_string<char,std::char_traits<char>,std::allocator<char> >,void *> > >
PUBLIC	??$exchange@PAU?$_Tree_node@V?$basic_string@DU?$char_traits@D@std@@V?$allocator@D@2@@std@@PAX@std@@AAPAU12@@std@@YAPAU?$_Tree_node@V?$basic_string@DU?$char_traits@D@std@@V?$allocator@D@2@@std@@PAX@0@AAPAU10@0@Z ; std::exchange<std::_Tree_node<std::basic_string<char,std::char_traits<char>,std::allocator<char> >,void *> *,std::_Tree_node<std::basic_string<char,std::char_traits<char>,std::allocator<char> >,void *> * &>
PUBLIC	??$_Destroy_in_place@PAU?$_Tree_node@U?$pair@$$CBKUSReserveTargetEffect@CPythonBackground@@@std@@PAX@std@@@std@@YAXAAPAU?$_Tree_node@U?$pair@$$CBKUSReserveTargetEffect@CPythonBackground@@@std@@PAX@0@@Z ; std::_Destroy_in_place<std::_Tree_node<std::pair<unsigned long const ,CPythonBackground::SReserveTargetEffect>,void *> *>
PUBLIC	??$destroy@U?$pair@$$CBKUSReserveTargetEffect@CPythonBackground@@@std@@@?$_Default_allocator_traits@V?$allocator@U?$_Tree_node@U?$pair@$$CBKUSReserveTargetEffect@CPythonBackground@@@std@@PAX@std@@@std@@@std@@SAXAAV?$allocator@U?$_Tree_node@U?$pair@$$CBKUSReserveTargetEffect@CPythonBackground@@@std@@PAX@std@@@1@QAU?$pair@$$CBKUSReserveTargetEffect@CPythonBackground@@@1@@Z ; std::_Default_allocator_traits<std::allocator<std::_Tree_node<std::pair<unsigned long const ,CPythonBackground::SReserveTargetEffect>,void *> > >::destroy<std::pair<unsigned long const ,CPythonBackground::SReserveTargetEffect> >
PUBLIC	??$forward@V?$_Tree_iterator@V?$_Tree_val@U?$_Tree_simple_types@U?$pair@$$CBKUSReserveTargetEffect@CPythonBackground@@@std@@@std@@@std@@@std@@@std@@YA$$QAV?$_Tree_iterator@V?$_Tree_val@U?$_Tree_simple_types@U?$pair@$$CBKUSReserveTargetEffect@CPythonBackground@@@std@@@std@@@std@@@0@AAV10@@Z ; std::forward<std::_Tree_iterator<std::_Tree_val<std::_Tree_simple_types<std::pair<unsigned long const ,CPythonBackground::SReserveTargetEffect> > > > >
PUBLIC	??$?0PAU?$_Tree_node@U?$pair@$$CBKUSReserveTargetEffect@CPythonBackground@@@std@@PAX@std@@_N$0A@@?$pair@PAU?$_Tree_node@U?$pair@$$CBKUSReserveTargetEffect@CPythonBackground@@@std@@PAX@std@@_N@std@@QAE@$$QAPAU?$_Tree_node@U?$pair@$$CBKUSReserveTargetEffect@CPythonBackground@@@std@@PAX@1@$$QA_N@Z ; std::pair<std::_Tree_node<std::pair<unsigned long const ,CPythonBackground::SReserveTargetEffect>,void *> *,bool>::pair<std::_Tree_node<std::pair<unsigned long const ,CPythonBackground::SReserveTargetEffect>,void *> *,bool><std::_Tree_node<std::pair<unsigned long const ,CPythonBackground::SReserveTargetEffect>,void *> *,bool,0>
PUBLIC	??$?0AAPAU?$_Tree_node@U?$pair@$$CBKUSReserveTargetEffect@CPythonBackground@@@std@@PAX@std@@_N$0A@@?$pair@PAU?$_Tree_node@U?$pair@$$CBKUSReserveTargetEffect@CPythonBackground@@@std@@PAX@std@@_N@std@@QAE@AAPAU?$_Tree_node@U?$pair@$$CBKUSReserveTargetEffect@CPythonBackground@@@std@@PAX@1@$$QA_N@Z ; std::pair<std::_Tree_node<std::pair<unsigned long const ,CPythonBackground::SReserveTargetEffect>,void *> *,bool>::pair<std::_Tree_node<std::pair<unsigned long const ,CPythonBackground::SReserveTargetEffect>,void *> *,bool><std::_Tree_node<std::pair<unsigned long const ,CPythonBackground::SReserveTargetEffect>,void *> * &,bool,0>
PUBLIC	??$?0U?$pair@KUSReserveTargetEffect@CPythonBackground@@@std@@@?$_Tree_temp_node@V?$allocator@U?$_Tree_node@U?$pair@$$CBKUSReserveTargetEffect@CPythonBackground@@@std@@PAX@std@@@std@@@std@@QAE@AAV?$allocator@U?$_Tree_node@U?$pair@$$CBKUSReserveTargetEffect@CPythonBackground@@@std@@PAX@std@@@1@PAU?$_Tree_node@U?$pair@$$CBKUSReserveTargetEffect@CPythonBackground@@@std@@PAX@1@$$QAU?$pair@KUSReserveTargetEffect@CPythonBackground@@@1@@Z ; std::_Tree_temp_node<std::allocator<std::_Tree_node<std::pair<unsigned long const ,CPythonBackground::SReserveTargetEffect>,void *> > >::_Tree_temp_node<std::allocator<std::_Tree_node<std::pair<unsigned long const ,CPythonBackground::SReserveTargetEffect>,void *> > ><std::pair<unsigned long,CPythonBackground::SReserveTargetEffect> >
PUBLIC	??$forward@PAU?$_Tree_node@V?$basic_string@DU?$char_traits@D@std@@V?$allocator@D@2@@std@@PAX@std@@@std@@YA$$QAPAU?$_Tree_node@V?$basic_string@DU?$char_traits@D@std@@V?$allocator@D@2@@std@@PAX@0@AAPAU10@@Z ; std::forward<std::_Tree_node<std::basic_string<char,std::char_traits<char>,std::allocator<char> >,void *> *>
PUBLIC	??$forward@AAPAU?$_Tree_node@V?$basic_string@DU?$char_traits@D@std@@V?$allocator@D@2@@std@@PAX@std@@@std@@YAAAPAU?$_Tree_node@V?$basic_string@DU?$char_traits@D@std@@V?$allocator@D@2@@std@@PAX@0@AAPAU10@@Z ; std::forward<std::_Tree_node<std::basic_string<char,std::char_traits<char>,std::allocator<char> >,void *> * &>
PUBLIC	??$_Construct_in_place@PAU?$_Tree_node@V?$basic_string@DU?$char_traits@D@std@@V?$allocator@D@2@@std@@PAX@std@@AAPAU12@@std@@YAXAAPAU?$_Tree_node@V?$basic_string@DU?$char_traits@D@std@@V?$allocator@D@2@@std@@PAX@0@0@Z ; std::_Construct_in_place<std::_Tree_node<std::basic_string<char,std::char_traits<char>,std::allocator<char> >,void *> *,std::_Tree_node<std::basic_string<char,std::char_traits<char>,std::allocator<char> >,void *> * &>
PUBLIC	??$construct@V?$basic_string@DU?$char_traits@D@std@@V?$allocator@D@2@@std@@V12@@?$_Default_allocator_traits@V?$allocator@U?$_Tree_node@V?$basic_string@DU?$char_traits@D@std@@V?$allocator@D@2@@std@@PAX@std@@@std@@@std@@SAXAAV?$allocator@U?$_Tree_node@V?$basic_string@DU?$char_traits@D@std@@V?$allocator@D@2@@std@@PAX@std@@@1@QAV?$basic_string@DU?$char_traits@D@std@@V?$allocator@D@2@@1@$$QAV31@@Z ; std::_Default_allocator_traits<std::allocator<std::_Tree_node<std::basic_string<char,std::char_traits<char>,std::allocator<char> >,void *> > >::construct<std::basic_string<char,std::char_traits<char>,std::allocator<char> >,std::basic_string<char,std::char_traits<char>,std::allocator<char> > >
PUBLIC	??$forward@PAU?$_Tree_node@HPAX@std@@@std@@YA$$QAPAU?$_Tree_node@HPAX@0@AAPAU10@@Z ; std::forward<std::_Tree_node<int,void *> *>
PUBLIC	??$forward@AAPAU?$_Tree_node@HPAX@std@@@std@@YAAAPAU?$_Tree_node@HPAX@0@AAPAU10@@Z ; std::forward<std::_Tree_node<int,void *> * &>
PUBLIC	??$_Construct_in_place@PAU?$_Tree_node@HPAX@std@@AAPAU12@@std@@YAXAAPAU?$_Tree_node@HPAX@0@0@Z ; std::_Construct_in_place<std::_Tree_node<int,void *> *,std::_Tree_node<int,void *> * &>
PUBLIC	??$construct@HABH@?$_Default_allocator_traits@V?$allocator@U?$_Tree_node@HPAX@std@@@std@@@std@@SAXAAV?$allocator@U?$_Tree_node@HPAX@std@@@1@QAHABH@Z ; std::_Default_allocator_traits<std::allocator<std::_Tree_node<int,void *> > >::construct<int,int const &>
PUBLIC	??$addressof@H@std@@YAPAHAAH@Z			; std::addressof<int>
PUBLIC	??$forward@AAPAU?$_Tree_node@U?$pair@$$CBKUSReserveTargetEffect@CPythonBackground@@@std@@PAX@std@@@std@@YAAAPAU?$_Tree_node@U?$pair@$$CBKUSReserveTargetEffect@CPythonBackground@@@std@@PAX@0@AAPAU10@@Z ; std::forward<std::_Tree_node<std::pair<unsigned long const ,CPythonBackground::SReserveTargetEffect>,void *> * &>
PUBLIC	??$?0$$V@?$_Compressed_pair@V?$allocator@U?$_Tree_node@HPAX@std@@@std@@V?$_Tree_val@U?$_Tree_simple_types@H@std@@@2@$00@std@@QAE@U_Zero_then_variadic_args_t@1@@Z ; std::_Compressed_pair<std::allocator<std::_Tree_node<int,void *> >,std::_Tree_val<std::_Tree_simple_types<int> >,1>::_Compressed_pair<std::allocator<std::_Tree_node<int,void *> >,std::_Tree_val<std::_Tree_simple_types<int> >,1><>
PUBLIC	??$?0$$V@?$_Compressed_pair@V?$allocator@U?$_Tree_node@V?$basic_string@DU?$char_traits@D@std@@V?$allocator@D@2@@std@@PAX@std@@@std@@V?$_Tree_val@U?$_Tree_simple_types@V?$basic_string@DU?$char_traits@D@std@@V?$allocator@D@2@@std@@@std@@@2@$00@std@@QAE@U_Zero_then_variadic_args_t@1@@Z ; std::_Compressed_pair<std::allocator<std::_Tree_node<std::basic_string<char,std::char_traits<char>,std::allocator<char> >,void *> >,std::_Tree_val<std::_Tree_simple_types<std::basic_string<char,std::char_traits<char>,std::allocator<char> > > >,1>::_Compressed_pair<std::allocator<std::_Tree_node<std::basic_string<char,std::char_traits<char>,std::allocator<char> >,void *> >,std::_Tree_val<std::_Tree_simple_types<std::basic_string<char,std::char_traits<char>,std::allocator<char> > > >,1><>
PUBLIC	??$?0$$V@?$_Compressed_pair@V?$allocator@U?$_Tree_node@U?$pair@$$CBKUSReserveTargetEffect@CPythonBackground@@@std@@PAX@std@@@std@@V?$_Tree_val@U?$_Tree_simple_types@U?$pair@$$CBKUSReserveTargetEffect@CPythonBackground@@@std@@@std@@@2@$00@std@@QAE@U_Zero_then_variadic_args_t@1@@Z ; std::_Compressed_pair<std::allocator<std::_Tree_node<std::pair<unsigned long const ,CPythonBackground::SReserveTargetEffect>,void *> >,std::_Tree_val<std::_Tree_simple_types<std::pair<unsigned long const ,CPythonBackground::SReserveTargetEffect> > >,1>::_Compressed_pair<std::allocator<std::_Tree_node<std::pair<unsigned long const ,CPythonBackground::SReserveTargetEffect>,void *> >,std::_Tree_val<std::_Tree_simple_types<std::pair<unsigned long const ,CPythonBackground::SReserveTargetEffect> > >,1><>
PUBLIC	??1?$_Tree_temp_node_alloc@V?$allocator@U?$_Tree_node@V?$basic_string@DU?$char_traits@D@std@@V?$allocator@D@2@@std@@PAX@std@@@std@@@std@@QAE@XZ ; std::_Tree_temp_node_alloc<std::allocator<std::_Tree_node<std::basic_string<char,std::char_traits<char>,std::allocator<char> >,void *> > >::~_Tree_temp_node_alloc<std::allocator<std::_Tree_node<std::basic_string<char,std::char_traits<char>,std::allocator<char> >,void *> > >
PUBLIC	??1?$_Tree_temp_node_alloc@V?$allocator@U?$_Tree_node@HPAX@std@@@std@@@std@@QAE@XZ ; std::_Tree_temp_node_alloc<std::allocator<std::_Tree_node<int,void *> > >::~_Tree_temp_node_alloc<std::allocator<std::_Tree_node<int,void *> > >
PUBLIC	?_Check_grow_by_1@?$_Tree@V?$_Tset_traits@HU?$less@H@std@@V?$allocator@H@2@$0A@@std@@@std@@IAEXXZ ; std::_Tree<std::_Tset_traits<int,std::less<int>,std::allocator<int>,0> >::_Check_grow_by_1
PUBLIC	?_Alloc_sentinel_and_proxy@?$_Tree@V?$_Tset_traits@HU?$less@H@std@@V?$allocator@H@2@$0A@@std@@@std@@IAEXXZ ; std::_Tree<std::_Tset_traits<int,std::less<int>,std::allocator<int>,0> >::_Alloc_sentinel_and_proxy
PUBLIC	?_Getcomp@?$_Tree@V?$_Tset_traits@HU?$less@H@std@@V?$allocator@H@2@$0A@@std@@@std@@IAEAAU?$less@H@2@XZ ; std::_Tree<std::_Tset_traits<int,std::less<int>,std::allocator<int>,0> >::_Getcomp
PUBLIC	?_Getcomp@?$_Tree@V?$_Tset_traits@HU?$less@H@std@@V?$allocator@H@2@$0A@@std@@@std@@IBEABU?$less@H@2@XZ ; std::_Tree<std::_Tset_traits<int,std::less<int>,std::allocator<int>,0> >::_Getcomp
PUBLIC	?_Getal@?$_Tree@V?$_Tset_traits@HU?$less@H@std@@V?$allocator@H@2@$0A@@std@@@std@@IBEABV?$allocator@U?$_Tree_node@HPAX@std@@@2@XZ ; std::_Tree<std::_Tset_traits<int,std::less<int>,std::allocator<int>,0> >::_Getal
PUBLIC	?_Get_scary@?$_Tree@V?$_Tset_traits@HU?$less@H@std@@V?$allocator@H@2@$0A@@std@@@std@@IBEPBV?$_Tree_val@U?$_Tree_simple_types@H@std@@@2@XZ ; std::_Tree<std::_Tset_traits<int,std::less<int>,std::allocator<int>,0> >::_Get_scary
PUBLIC	?_Min@?$_Tree_val@U?$_Tree_simple_types@H@std@@@std@@SAPAU?$_Tree_node@HPAX@2@PAU32@@Z ; std::_Tree_val<std::_Tree_simple_types<int> >::_Min
PUBLIC	?_Insert_node@?$_Tree_val@U?$_Tree_simple_types@H@std@@@std@@QAEPAU?$_Tree_node@HPAX@2@U?$_Tree_id@PAU?$_Tree_node@HPAX@std@@@2@QAU32@@Z ; std::_Tree_val<std::_Tree_simple_types<int> >::_Insert_node
PUBLIC	?_Get_first@?$_Compressed_pair@V?$allocator@U?$_Tree_node@HPAX@std@@@std@@V?$_Tree_val@U?$_Tree_simple_types@H@std@@@2@$00@std@@QAEAAV?$allocator@U?$_Tree_node@HPAX@std@@@2@XZ ; std::_Compressed_pair<std::allocator<std::_Tree_node<int,void *> >,std::_Tree_val<std::_Tree_simple_types<int> >,1>::_Get_first
PUBLIC	?_Seek_to@?$_Vector_const_iterator@V?$_Vector_val@U?$_Simple_types@UTMapInfo@CMapManager@@@std@@@std@@@std@@QAEXPBUTMapInfo@CMapManager@@@Z ; std::_Vector_const_iterator<std::_Vector_val<std::_Simple_types<CMapManager::TMapInfo> > >::_Seek_to
PUBLIC	?_Check_grow_by_1@?$_Tree@V?$_Tset_traits@V?$basic_string@DU?$char_traits@D@std@@V?$allocator@D@2@@std@@U?$less@V?$basic_string@DU?$char_traits@D@std@@V?$allocator@D@2@@std@@@2@V?$allocator@V?$basic_string@DU?$char_traits@D@std@@V?$allocator@D@2@@std@@@2@$0A@@std@@@std@@IAEXXZ ; std::_Tree<std::_Tset_traits<std::basic_string<char,std::char_traits<char>,std::allocator<char> >,std::less<std::basic_string<char,std::char_traits<char>,std::allocator<char> > >,std::allocator<std::basic_string<char,std::char_traits<char>,std::allocator<char> > >,0> >::_Check_grow_by_1
PUBLIC	?_Alloc_sentinel_and_proxy@?$_Tree@V?$_Tset_traits@V?$basic_string@DU?$char_traits@D@std@@V?$allocator@D@2@@std@@U?$less@V?$basic_string@DU?$char_traits@D@std@@V?$allocator@D@2@@std@@@2@V?$allocator@V?$basic_string@DU?$char_traits@D@std@@V?$allocator@D@2@@std@@@2@$0A@@std@@@std@@IAEXXZ ; std::_Tree<std::_Tset_traits<std::basic_string<char,std::char_traits<char>,std::allocator<char> >,std::less<std::basic_string<char,std::char_traits<char>,std::allocator<char> > >,std::allocator<std::basic_string<char,std::char_traits<char>,std::allocator<char> > >,0> >::_Alloc_sentinel_and_proxy
PUBLIC	?_Get_scary@?$_Tree@V?$_Tset_traits@V?$basic_string@DU?$char_traits@D@std@@V?$allocator@D@2@@std@@U?$less@V?$basic_string@DU?$char_traits@D@std@@V?$allocator@D@2@@std@@@2@V?$allocator@V?$basic_string@DU?$char_traits@D@std@@V?$allocator@D@2@@std@@@2@$0A@@std@@@std@@IBEPBV?$_Tree_val@U?$_Tree_simple_types@V?$basic_string@DU?$char_traits@D@std@@V?$allocator@D@2@@std@@@std@@@2@XZ ; std::_Tree<std::_Tset_traits<std::basic_string<char,std::char_traits<char>,std::allocator<char> >,std::less<std::basic_string<char,std::char_traits<char>,std::allocator<char> > >,std::allocator<std::basic_string<char,std::char_traits<char>,std::allocator<char> > >,0> >::_Get_scary
PUBLIC	?_Insert_node@?$_Tree_val@U?$_Tree_simple_types@V?$basic_string@DU?$char_traits@D@std@@V?$allocator@D@2@@std@@@std@@@std@@QAEPAU?$_Tree_node@V?$basic_string@DU?$char_traits@D@std@@V?$allocator@D@2@@std@@PAX@2@U?$_Tree_id@PAU?$_Tree_node@V?$basic_string@DU?$char_traits@D@std@@V?$allocator@D@2@@std@@PAX@std@@@2@QAU32@@Z ; std::_Tree_val<std::_Tree_simple_types<std::basic_string<char,std::char_traits<char>,std::allocator<char> > > >::_Insert_node
PUBLIC	?_Get_first@?$_Compressed_pair@V?$allocator@U?$_Tree_node@V?$basic_string@DU?$char_traits@D@std@@V?$allocator@D@2@@std@@PAX@std@@@std@@V?$_Tree_val@U?$_Tree_simple_types@V?$basic_string@DU?$char_traits@D@std@@V?$allocator@D@2@@std@@@std@@@2@$00@std@@QAEAAV?$allocator@U?$_Tree_node@V?$basic_string@DU?$char_traits@D@std@@V?$allocator@D@2@@std@@PAX@std@@@2@XZ ; std::_Compressed_pair<std::allocator<std::_Tree_node<std::basic_string<char,std::char_traits<char>,std::allocator<char> >,void *> >,std::_Tree_val<std::_Tree_simple_types<std::basic_string<char,std::char_traits<char>,std::allocator<char> > > >,1>::_Get_first
PUBLIC	?_Erase_unchecked@?$_Tree@V?$_Tmap_traits@KKU?$less@K@std@@V?$allocator@U?$pair@$$CBKK@std@@@2@$0A@@std@@@std@@AAEPAU?$_Tree_node@U?$pair@$$CBKK@std@@PAX@2@V?$_Tree_unchecked_const_iterator@V?$_Tree_val@U?$_Tree_simple_types@U?$pair@$$CBKK@std@@@std@@@std@@U_Iterator_base0@2@@2@0@Z ; std::_Tree<std::_Tmap_traits<unsigned long,unsigned long,std::less<unsigned long>,std::allocator<std::pair<unsigned long const ,unsigned long> >,0> >::_Erase_unchecked
PUBLIC	?_Erase_unchecked@?$_Tree@V?$_Tmap_traits@KUSReserveTargetEffect@CPythonBackground@@U?$less@K@std@@V?$allocator@U?$pair@$$CBKUSReserveTargetEffect@CPythonBackground@@@std@@@4@$0A@@std@@@std@@AAEPAU?$_Tree_node@U?$pair@$$CBKUSReserveTargetEffect@CPythonBackground@@@std@@PAX@2@V?$_Tree_unchecked_const_iterator@V?$_Tree_val@U?$_Tree_simple_types@U?$pair@$$CBKUSReserveTargetEffect@CPythonBackground@@@std@@@std@@@std@@U_Iterator_base0@2@@2@0@Z ; std::_Tree<std::_Tmap_traits<unsigned long,CPythonBackground::SReserveTargetEffect,std::less<unsigned long>,std::allocator<std::pair<unsigned long const ,CPythonBackground::SReserveTargetEffect> >,0> >::_Erase_unchecked
PUBLIC	?_Alloc_sentinel_and_proxy@?$_Tree@V?$_Tmap_traits@KUSReserveTargetEffect@CPythonBackground@@U?$less@K@std@@V?$allocator@U?$pair@$$CBKUSReserveTargetEffect@CPythonBackground@@@std@@@4@$0A@@std@@@std@@IAEXXZ ; std::_Tree<std::_Tmap_traits<unsigned long,CPythonBackground::SReserveTargetEffect,std::less<unsigned long>,std::allocator<std::pair<unsigned long const ,CPythonBackground::SReserveTargetEffect> >,0> >::_Alloc_sentinel_and_proxy
PUBLIC	?_Getcomp@?$_Tree@V?$_Tmap_traits@KUSReserveTargetEffect@CPythonBackground@@U?$less@K@std@@V?$allocator@U?$pair@$$CBKUSReserveTargetEffect@CPythonBackground@@@std@@@4@$0A@@std@@@std@@IBEABU?$less@K@2@XZ ; std::_Tree<std::_Tmap_traits<unsigned long,CPythonBackground::SReserveTargetEffect,std::less<unsigned long>,std::allocator<std::pair<unsigned long const ,CPythonBackground::SReserveTargetEffect> >,0> >::_Getcomp
PUBLIC	?_Get_scary@?$_Tree@V?$_Tmap_traits@KUSReserveTargetEffect@CPythonBackground@@U?$less@K@std@@V?$allocator@U?$pair@$$CBKUSReserveTargetEffect@CPythonBackground@@@std@@@4@$0A@@std@@@std@@IBEPBV?$_Tree_val@U?$_Tree_simple_types@U?$pair@$$CBKUSReserveTargetEffect@CPythonBackground@@@std@@@std@@@2@XZ ; std::_Tree<std::_Tmap_traits<unsigned long,CPythonBackground::SReserveTargetEffect,std::less<unsigned long>,std::allocator<std::pair<unsigned long const ,CPythonBackground::SReserveTargetEffect> >,0> >::_Get_scary
PUBLIC	?_Extract@?$_Tree_val@U?$_Tree_simple_types@U?$pair@$$CBKUSReserveTargetEffect@CPythonBackground@@@std@@@std@@@std@@QAEPAU?$_Tree_node@U?$pair@$$CBKUSReserveTargetEffect@CPythonBackground@@@std@@PAX@2@V?$_Tree_unchecked_const_iterator@V?$_Tree_val@U?$_Tree_simple_types@U?$pair@$$CBKUSReserveTargetEffect@CPythonBackground@@@std@@@std@@@std@@U_Iterator_base0@2@@2@@Z ; std::_Tree_val<std::_Tree_simple_types<std::pair<unsigned long const ,CPythonBackground::SReserveTargetEffect> > >::_Extract
PUBLIC	??D?$_Tree_const_iterator@V?$_Tree_val@U?$_Tree_simple_types@U?$pair@$$CBKUSReserveTargetEffect@CPythonBackground@@@std@@@std@@@std@@@std@@QBEABU?$pair@$$CBKUSReserveTargetEffect@CPythonBackground@@@1@XZ ; std::_Tree_const_iterator<std::_Tree_val<std::_Tree_simple_types<std::pair<unsigned long const ,CPythonBackground::SReserveTargetEffect> > > >::operator*
PUBLIC	??E?$_Tree_unchecked_const_iterator@V?$_Tree_val@U?$_Tree_simple_types@U?$pair@$$CBKUSReserveTargetEffect@CPythonBackground@@@std@@@std@@@std@@U_Iterator_base0@2@@std@@QAEAAV01@XZ ; std::_Tree_unchecked_const_iterator<std::_Tree_val<std::_Tree_simple_types<std::pair<unsigned long const ,CPythonBackground::SReserveTargetEffect> > >,std::_Iterator_base0>::operator++
PUBLIC	?_Get_first@?$_Compressed_pair@V?$allocator@U?$_Tree_node@U?$pair@$$CBKUSReserveTargetEffect@CPythonBackground@@@std@@PAX@std@@@std@@V?$_Tree_val@U?$_Tree_simple_types@U?$pair@$$CBKUSReserveTargetEffect@CPythonBackground@@@std@@@std@@@2@$00@std@@QAEAAV?$allocator@U?$_Tree_node@U?$pair@$$CBKUSReserveTargetEffect@CPythonBackground@@@std@@PAX@std@@@2@XZ ; std::_Compressed_pair<std::allocator<std::_Tree_node<std::pair<unsigned long const ,CPythonBackground::SReserveTargetEffect>,void *> >,std::_Tree_val<std::_Tree_simple_types<std::pair<unsigned long const ,CPythonBackground::SReserveTargetEffect> > >,1>::_Get_first
PUBLIC	?_Extract@?$_In_place_key_extract_set_impl@HH@std@@SAABHABH@Z ; std::_In_place_key_extract_set_impl<int,int>::_Extract
PUBLIC	??1?$_Tree_temp_node@V?$allocator@U?$_Tree_node@HPAX@std@@@std@@@std@@QAE@XZ ; std::_Tree_temp_node<std::allocator<std::_Tree_node<int,void *> > >::~_Tree_temp_node<std::allocator<std::_Tree_node<int,void *> > >
PUBLIC	?_Release@?$_Alloc_construct_ptr@V?$allocator@U?$_Tree_node@HPAX@std@@@std@@@std@@QAEPAU?$_Tree_node@HPAX@2@XZ ; std::_Alloc_construct_ptr<std::allocator<std::_Tree_node<int,void *> > >::_Release
PUBLIC	?_Extract@?$_In_place_key_extract_set_impl@V?$basic_string@DU?$char_traits@D@std@@V?$allocator@D@2@@std@@V12@@std@@SAABV?$basic_string@DU?$char_traits@D@std@@V?$allocator@D@2@@2@ABV32@@Z ; std::_In_place_key_extract_set_impl<std::basic_string<char,std::char_traits<char>,std::allocator<char> >,std::basic_string<char,std::char_traits<char>,std::allocator<char> > >::_Extract
PUBLIC	??1?$_Tree_temp_node@V?$allocator@U?$_Tree_node@V?$basic_string@DU?$char_traits@D@std@@V?$allocator@D@2@@std@@PAX@std@@@std@@@std@@QAE@XZ ; std::_Tree_temp_node<std::allocator<std::_Tree_node<std::basic_string<char,std::char_traits<char>,std::allocator<char> >,void *> > >::~_Tree_temp_node<std::allocator<std::_Tree_node<std::basic_string<char,std::char_traits<char>,std::allocator<char> >,void *> > >
PUBLIC	?_Release@?$_Alloc_construct_ptr@V?$allocator@U?$_Tree_node@V?$basic_string@DU?$char_traits@D@std@@V?$allocator@D@2@@std@@PAX@std@@@std@@@std@@QAEPAU?$_Tree_node@V?$basic_string@DU?$char_traits@D@std@@V?$allocator@D@2@@std@@PAX@2@XZ ; std::_Alloc_construct_ptr<std::allocator<std::_Tree_node<std::basic_string<char,std::char_traits<char>,std::allocator<char> >,void *> > >::_Release
PUBLIC	??$?0ABU?$less@H@std@@U_Zero_then_variadic_args_t@1@@?$_Compressed_pair@U?$less@H@std@@V?$_Compressed_pair@V?$allocator@U?$_Tree_node@HPAX@std@@@std@@V?$_Tree_val@U?$_Tree_simple_types@H@std@@@2@$00@2@$00@std@@QAE@U_One_then_variadic_args_t@1@ABU?$less@H@1@$$QAU_Zero_then_variadic_args_t@1@@Z ; std::_Compressed_pair<std::less<int>,std::_Compressed_pair<std::allocator<std::_Tree_node<int,void *> >,std::_Tree_val<std::_Tree_simple_types<int> >,1>,1>::_Compressed_pair<std::less<int>,std::_Compressed_pair<std::allocator<std::_Tree_node<int,void *> >,std::_Tree_val<std::_Tree_simple_types<int> >,1>,1><std::less<int> const &,std::_Zero_then_variadic_args_t>
PUBLIC	??$_Copy@$0A@@?$_Tree@V?$_Tset_traits@HU?$less@H@std@@V?$allocator@H@2@$0A@@std@@@std@@IAEXABV01@@Z ; std::_Tree<std::_Tset_traits<int,std::less<int>,std::allocator<int>,0> >::_Copy<0>
PUBLIC	??$_Pocca@V?$allocator@U?$_Tree_node@HPAX@std@@@std@@@std@@YAXAAV?$allocator@U?$_Tree_node@HPAX@std@@@0@ABV10@@Z ; std::_Pocca<std::allocator<std::_Tree_node<int,void *> > >
PUBLIC	??$addressof@$$CBV?$_Tree@V?$_Tset_traits@HU?$less@H@std@@V?$allocator@H@2@$0A@@std@@@std@@@std@@YAPBV?$_Tree@V?$_Tset_traits@HU?$less@H@std@@V?$allocator@H@2@$0A@@std@@@0@ABV10@@Z ; std::addressof<std::_Tree<std::_Tset_traits<int,std::less<int>,std::allocator<int>,0> > const >
PUBLIC	??$addressof@V?$_Tree_val@U?$_Tree_simple_types@H@std@@@std@@@std@@YAPAV?$_Tree_val@U?$_Tree_simple_types@H@std@@@0@AAV10@@Z ; std::addressof<std::_Tree_val<std::_Tree_simple_types<int> > >
PUBLIC	??$?0ABU?$less@V?$basic_string@DU?$char_traits@D@std@@V?$allocator@D@2@@std@@@std@@U_Zero_then_variadic_args_t@1@@?$_Compressed_pair@U?$less@V?$basic_string@DU?$char_traits@D@std@@V?$allocator@D@2@@std@@@std@@V?$_Compressed_pair@V?$allocator@U?$_Tree_node@V?$basic_string@DU?$char_traits@D@std@@V?$allocator@D@2@@std@@PAX@std@@@std@@V?$_Tree_val@U?$_Tree_simple_types@V?$basic_string@DU?$char_traits@D@std@@V?$allocator@D@2@@std@@@std@@@2@$00@2@$00@std@@QAE@U_One_then_variadic_args_t@1@ABU?$less@V?$basic_string@DU?$char_traits@D@std@@V?$allocator@D@2@@std@@@1@$$QAU_Zero_then_variadic_args_t@1@@Z ; std::_Compressed_pair<std::less<std::basic_string<char,std::char_traits<char>,std::allocator<char> > >,std::_Compressed_pair<std::allocator<std::_Tree_node<std::basic_string<char,std::char_traits<char>,std::allocator<char> >,void *> >,std::_Tree_val<std::_Tree_simple_types<std::basic_string<char,std::char_traits<char>,std::allocator<char> > > >,1>,1>::_Compressed_pair<std::less<std::basic_string<char,std::char_traits<char>,std::allocator<char> > >,std::_Compressed_pair<std::allocator<std::_Tree_node<std::basic_string<char,std::char_traits<char>,std::allocator<char> >,void *> >,std::_Tree_val<std::_Tree_simple_types<std::basic_string<char,std::char_traits<char>,std::allocator<char> > > >,1>,1><std::less<std::basic_string<char,std::char_traits<char>,std::allocator<char> > > const &,std::_Zero_then_variadic_args_t>
PUBLIC	??$addressof@V?$_Tree_val@U?$_Tree_simple_types@V?$basic_string@DU?$char_traits@D@std@@V?$allocator@D@2@@std@@@std@@@std@@@std@@YAPAV?$_Tree_val@U?$_Tree_simple_types@V?$basic_string@DU?$char_traits@D@std@@V?$allocator@D@2@@std@@@std@@@0@AAV10@@Z ; std::addressof<std::_Tree_val<std::_Tree_simple_types<std::basic_string<char,std::char_traits<char>,std::allocator<char> > > > >
PUBLIC	??$_Get_unwrapped@AAV?$_Tree_unchecked_const_iterator@V?$_Tree_val@U?$_Tree_simple_types@U?$pair@$$CBKK@std@@@std@@@std@@U_Iterator_base0@2@@std@@@std@@YA?A_TAAV?$_Tree_unchecked_const_iterator@V?$_Tree_val@U?$_Tree_simple_types@U?$pair@$$CBKK@std@@@std@@@std@@U_Iterator_base0@2@@0@@Z ; std::_Get_unwrapped<std::_Tree_unchecked_const_iterator<std::_Tree_val<std::_Tree_simple_types<std::pair<unsigned long const ,unsigned long> > >,std::_Iterator_base0> &>
PUBLIC	??$distance@V?$_Tree_unchecked_const_iterator@V?$_Tree_val@U?$_Tree_simple_types@U?$pair@$$CBKK@std@@@std@@@std@@U_Iterator_base0@2@@std@@@std@@YAHV?$_Tree_unchecked_const_iterator@V?$_Tree_val@U?$_Tree_simple_types@U?$pair@$$CBKK@std@@@std@@@std@@U_Iterator_base0@2@@0@0@Z ; std::distance<std::_Tree_unchecked_const_iterator<std::_Tree_val<std::_Tree_simple_types<std::pair<unsigned long const ,unsigned long> > >,std::_Iterator_base0> >
PUBLIC	??$?0ABU?$less@K@std@@U_Zero_then_variadic_args_t@1@@?$_Compressed_pair@U?$less@K@std@@V?$_Compressed_pair@V?$allocator@U?$_Tree_node@U?$pair@$$CBKUSReserveTargetEffect@CPythonBackground@@@std@@PAX@std@@@std@@V?$_Tree_val@U?$_Tree_simple_types@U?$pair@$$CBKUSReserveTargetEffect@CPythonBackground@@@std@@@std@@@2@$00@2@$00@std@@QAE@U_One_then_variadic_args_t@1@ABU?$less@K@1@$$QAU_Zero_then_variadic_args_t@1@@Z ; std::_Compressed_pair<std::less<unsigned long>,std::_Compressed_pair<std::allocator<std::_Tree_node<std::pair<unsigned long const ,CPythonBackground::SReserveTargetEffect>,void *> >,std::_Tree_val<std::_Tree_simple_types<std::pair<unsigned long const ,CPythonBackground::SReserveTargetEffect> > >,1>,1>::_Compressed_pair<std::less<unsigned long>,std::_Compressed_pair<std::allocator<std::_Tree_node<std::pair<unsigned long const ,CPythonBackground::SReserveTargetEffect>,void *> >,std::_Tree_val<std::_Tree_simple_types<std::pair<unsigned long const ,CPythonBackground::SReserveTargetEffect> > >,1>,1><std::less<unsigned long> const &,std::_Zero_then_variadic_args_t>
PUBLIC	??$_Get_unwrapped@AAV?$_Tree_unchecked_const_iterator@V?$_Tree_val@U?$_Tree_simple_types@U?$pair@$$CBKUSReserveTargetEffect@CPythonBackground@@@std@@@std@@@std@@U_Iterator_base0@2@@std@@@std@@YA?A_TAAV?$_Tree_unchecked_const_iterator@V?$_Tree_val@U?$_Tree_simple_types@U?$pair@$$CBKUSReserveTargetEffect@CPythonBackground@@@std@@@std@@@std@@U_Iterator_base0@2@@0@@Z ; std::_Get_unwrapped<std::_Tree_unchecked_const_iterator<std::_Tree_val<std::_Tree_simple_types<std::pair<unsigned long const ,CPythonBackground::SReserveTargetEffect> > >,std::_Iterator_base0> &>
PUBLIC	??$distance@V?$_Tree_unchecked_const_iterator@V?$_Tree_val@U?$_Tree_simple_types@U?$pair@$$CBKUSReserveTargetEffect@CPythonBackground@@@std@@@std@@@std@@U_Iterator_base0@2@@std@@@std@@YAHV?$_Tree_unchecked_const_iterator@V?$_Tree_val@U?$_Tree_simple_types@U?$pair@$$CBKUSReserveTargetEffect@CPythonBackground@@@std@@@std@@@std@@U_Iterator_base0@2@@0@0@Z ; std::distance<std::_Tree_unchecked_const_iterator<std::_Tree_val<std::_Tree_simple_types<std::pair<unsigned long const ,CPythonBackground::SReserveTargetEffect> > >,std::_Iterator_base0> >
PUBLIC	??$addressof@V?$_Tree_val@U?$_Tree_simple_types@U?$pair@$$CBKUSReserveTargetEffect@CPythonBackground@@@std@@@std@@@std@@@std@@YAPAV?$_Tree_val@U?$_Tree_simple_types@U?$pair@$$CBKUSReserveTargetEffect@CPythonBackground@@@std@@@std@@@0@AAV10@@Z ; std::addressof<std::_Tree_val<std::_Tree_simple_types<std::pair<unsigned long const ,CPythonBackground::SReserveTargetEffect> > > >
PUBLIC	??$addressof@U?$pair@$$CBKUSReserveTargetEffect@CPythonBackground@@@std@@@std@@YAPAU?$pair@$$CBKUSReserveTargetEffect@CPythonBackground@@@0@AAU10@@Z ; std::addressof<std::pair<unsigned long const ,CPythonBackground::SReserveTargetEffect> >
PUBLIC	??$_Freenode0@V?$allocator@U?$_Tree_node@HPAX@std@@@std@@@?$_Tree_node@HPAX@std@@SAXAAV?$allocator@U?$_Tree_node@HPAX@std@@@1@PAU01@@Z ; std::_Tree_node<int,void *>::_Freenode0<std::allocator<std::_Tree_node<int,void *> > >
PUBLIC	??$_Freenode@V?$allocator@U?$_Tree_node@HPAX@std@@@std@@@?$_Tree_node@HPAX@std@@SAXAAV?$allocator@U?$_Tree_node@HPAX@std@@@1@PAU01@@Z ; std::_Tree_node<int,void *>::_Freenode<std::allocator<std::_Tree_node<int,void *> > >
PUBLIC	??$exchange@PAU?$_Tree_node@HPAX@std@@AAPAU12@@std@@YAPAU?$_Tree_node@HPAX@0@AAPAU10@0@Z ; std::exchange<std::_Tree_node<int,void *> *,std::_Tree_node<int,void *> * &>
PUBLIC	??$_Freenode0@V?$allocator@U?$_Tree_node@V?$basic_string@DU?$char_traits@D@std@@V?$allocator@D@2@@std@@PAX@std@@@std@@@?$_Tree_node@V?$basic_string@DU?$char_traits@D@std@@V?$allocator@D@2@@std@@PAX@std@@SAXAAV?$allocator@U?$_Tree_node@V?$basic_string@DU?$char_traits@D@std@@V?$allocator@D@2@@std@@PAX@std@@@1@PAU01@@Z ; std::_Tree_node<std::basic_string<char,std::char_traits<char>,std::allocator<char> >,void *>::_Freenode0<std::allocator<std::_Tree_node<std::basic_string<char,std::char_traits<char>,std::allocator<char> >,void *> > >
PUBLIC	??$_Erase_tree@V?$allocator@U?$_Tree_node@V?$basic_string@DU?$char_traits@D@std@@V?$allocator@D@2@@std@@PAX@std@@@std@@@?$_Tree_val@U?$_Tree_simple_types@V?$basic_string@DU?$char_traits@D@std@@V?$allocator@D@2@@std@@@std@@@std@@QAEXAAV?$allocator@U?$_Tree_node@V?$basic_string@DU?$char_traits@D@std@@V?$allocator@D@2@@std@@PAX@std@@@1@PAU?$_Tree_node@V?$basic_string@DU?$char_traits@D@std@@V?$allocator@D@2@@std@@PAX@1@@Z ; std::_Tree_val<std::_Tree_simple_types<std::basic_string<char,std::char_traits<char>,std::allocator<char> > > >::_Erase_tree<std::allocator<std::_Tree_node<std::basic_string<char,std::char_traits<char>,std::allocator<char> >,void *> > >
PUBLIC	??$_Freenode0@V?$allocator@U?$_Tree_node@U?$pair@$$CBKUSReserveTargetEffect@CPythonBackground@@@std@@PAX@std@@@std@@@?$_Tree_node@U?$pair@$$CBKUSReserveTargetEffect@CPythonBackground@@@std@@PAX@std@@SAXAAV?$allocator@U?$_Tree_node@U?$pair@$$CBKUSReserveTargetEffect@CPythonBackground@@@std@@PAX@std@@@1@PAU01@@Z ; std::_Tree_node<std::pair<unsigned long const ,CPythonBackground::SReserveTargetEffect>,void *>::_Freenode0<std::allocator<std::_Tree_node<std::pair<unsigned long const ,CPythonBackground::SReserveTargetEffect>,void *> > >
PUBLIC	??$_Freenode@V?$allocator@U?$_Tree_node@U?$pair@$$CBKUSReserveTargetEffect@CPythonBackground@@@std@@PAX@std@@@std@@@?$_Tree_node@U?$pair@$$CBKUSReserveTargetEffect@CPythonBackground@@@std@@PAX@std@@SAXAAV?$allocator@U?$_Tree_node@U?$pair@$$CBKUSReserveTargetEffect@CPythonBackground@@@std@@PAX@std@@@1@PAU01@@Z ; std::_Tree_node<std::pair<unsigned long const ,CPythonBackground::SReserveTargetEffect>,void *>::_Freenode<std::allocator<std::_Tree_node<std::pair<unsigned long const ,CPythonBackground::SReserveTargetEffect>,void *> > >
PUBLIC	??$exchange@PAU?$_Tree_node@U?$pair@$$CBKUSReserveTargetEffect@CPythonBackground@@@std@@PAX@std@@AAPAU12@@std@@YAPAU?$_Tree_node@U?$pair@$$CBKUSReserveTargetEffect@CPythonBackground@@@std@@PAX@0@AAPAU10@0@Z ; std::exchange<std::_Tree_node<std::pair<unsigned long const ,CPythonBackground::SReserveTargetEffect>,void *> *,std::_Tree_node<std::pair<unsigned long const ,CPythonBackground::SReserveTargetEffect>,void *> * &>
PUBLIC	??$_Lower_bound_duplicate@K@?$_Tree@V?$_Tmap_traits@KUSReserveTargetEffect@CPythonBackground@@U?$less@K@std@@V?$allocator@U?$pair@$$CBKUSReserveTargetEffect@CPythonBackground@@@std@@@4@$0A@@std@@@std@@IBE_NQAU?$_Tree_node@U?$pair@$$CBKUSReserveTargetEffect@CPythonBackground@@@std@@PAX@1@ABK@Z ; std::_Tree<std::_Tmap_traits<unsigned long,CPythonBackground::SReserveTargetEffect,std::less<unsigned long>,std::allocator<std::pair<unsigned long const ,CPythonBackground::SReserveTargetEffect> >,0> >::_Lower_bound_duplicate<unsigned long>
PUBLIC	??$_Find_lower_bound@K@?$_Tree@V?$_Tmap_traits@KUSReserveTargetEffect@CPythonBackground@@U?$less@K@std@@V?$allocator@U?$pair@$$CBKUSReserveTargetEffect@CPythonBackground@@@std@@@4@$0A@@std@@@std@@IBE?AU?$_Tree_find_result@PAU?$_Tree_node@U?$pair@$$CBKUSReserveTargetEffect@CPythonBackground@@@std@@PAX@std@@@1@ABK@Z ; std::_Tree<std::_Tmap_traits<unsigned long,CPythonBackground::SReserveTargetEffect,std::less<unsigned long>,std::allocator<std::pair<unsigned long const ,CPythonBackground::SReserveTargetEffect> >,0> >::_Find_lower_bound<unsigned long>
PUBLIC	??$?0V?$_Tree_iterator@V?$_Tree_val@U?$_Tree_simple_types@U?$pair@$$CBKUSReserveTargetEffect@CPythonBackground@@@std@@@std@@@std@@@std@@AB_N$0A@@?$pair@V?$_Tree_iterator@V?$_Tree_val@U?$_Tree_simple_types@U?$pair@$$CBKUSReserveTargetEffect@CPythonBackground@@@std@@@std@@@std@@@std@@_N@std@@QAE@$$QAV?$_Tree_iterator@V?$_Tree_val@U?$_Tree_simple_types@U?$pair@$$CBKUSReserveTargetEffect@CPythonBackground@@@std@@@std@@@std@@@1@AB_N@Z ; std::pair<std::_Tree_iterator<std::_Tree_val<std::_Tree_simple_types<std::pair<unsigned long const ,CPythonBackground::SReserveTargetEffect> > > >,bool>::pair<std::_Tree_iterator<std::_Tree_val<std::_Tree_simple_types<std::pair<unsigned long const ,CPythonBackground::SReserveTargetEffect> > > >,bool><std::_Tree_iterator<std::_Tree_val<std::_Tree_simple_types<std::pair<unsigned long const ,CPythonBackground::SReserveTargetEffect> > > >,bool const &,0>
PUBLIC	??$_Emplace@U?$pair@KUSReserveTargetEffect@CPythonBackground@@@std@@@?$_Tree@V?$_Tmap_traits@KUSReserveTargetEffect@CPythonBackground@@U?$less@K@std@@V?$allocator@U?$pair@$$CBKUSReserveTargetEffect@CPythonBackground@@@std@@@4@$0A@@std@@@std@@IAE?AU?$pair@PAU?$_Tree_node@U?$pair@$$CBKUSReserveTargetEffect@CPythonBackground@@@std@@PAX@std@@_N@1@$$QAU?$pair@KUSReserveTargetEffect@CPythonBackground@@@1@@Z ; std::_Tree<std::_Tmap_traits<unsigned long,CPythonBackground::SReserveTargetEffect,std::less<unsigned long>,std::allocator<std::pair<unsigned long const ,CPythonBackground::SReserveTargetEffect> >,0> >::_Emplace<std::pair<unsigned long,CPythonBackground::SReserveTargetEffect> >
PUBLIC	??$forward@AAPAUTMapInfo@CMapManager@@@std@@YAAAPAUTMapInfo@CMapManager@@AAPAU12@@Z ; std::forward<CMapManager::TMapInfo * &>
PUBLIC	??$forward@V?$_Tree_const_iterator@V?$_Tree_val@U?$_Tree_simple_types@V?$basic_string@DU?$char_traits@D@std@@V?$allocator@D@2@@std@@@std@@@std@@@std@@@std@@YA$$QAV?$_Tree_const_iterator@V?$_Tree_val@U?$_Tree_simple_types@V?$basic_string@DU?$char_traits@D@std@@V?$allocator@D@2@@std@@@std@@@std@@@0@AAV10@@Z ; std::forward<std::_Tree_const_iterator<std::_Tree_val<std::_Tree_simple_types<std::basic_string<char,std::char_traits<char>,std::allocator<char> > > > > >
PUBLIC	??$?0PAU?$_Tree_node@V?$basic_string@DU?$char_traits@D@std@@V?$allocator@D@2@@std@@PAX@std@@_N$0A@@?$pair@PAU?$_Tree_node@V?$basic_string@DU?$char_traits@D@std@@V?$allocator@D@2@@std@@PAX@std@@_N@std@@QAE@$$QAPAU?$_Tree_node@V?$basic_string@DU?$char_traits@D@std@@V?$allocator@D@2@@std@@PAX@1@$$QA_N@Z ; std::pair<std::_Tree_node<std::basic_string<char,std::char_traits<char>,std::allocator<char> >,void *> *,bool>::pair<std::_Tree_node<std::basic_string<char,std::char_traits<char>,std::allocator<char> >,void *> *,bool><std::_Tree_node<std::basic_string<char,std::char_traits<char>,std::allocator<char> >,void *> *,bool,0>
PUBLIC	??$?0AAPAU?$_Tree_node@V?$basic_string@DU?$char_traits@D@std@@V?$allocator@D@2@@std@@PAX@std@@_N$0A@@?$pair@PAU?$_Tree_node@V?$basic_string@DU?$char_traits@D@std@@V?$allocator@D@2@@std@@PAX@std@@_N@std@@QAE@AAPAU?$_Tree_node@V?$basic_string@DU?$char_traits@D@std@@V?$allocator@D@2@@std@@PAX@1@$$QA_N@Z ; std::pair<std::_Tree_node<std::basic_string<char,std::char_traits<char>,std::allocator<char> >,void *> *,bool>::pair<std::_Tree_node<std::basic_string<char,std::char_traits<char>,std::allocator<char> >,void *> *,bool><std::_Tree_node<std::basic_string<char,std::char_traits<char>,std::allocator<char> >,void *> * &,bool,0>
PUBLIC	??$?0V?$basic_string@DU?$char_traits@D@std@@V?$allocator@D@2@@std@@@?$_Tree_temp_node@V?$allocator@U?$_Tree_node@V?$basic_string@DU?$char_traits@D@std@@V?$allocator@D@2@@std@@PAX@std@@@std@@@std@@QAE@AAV?$allocator@U?$_Tree_node@V?$basic_string@DU?$char_traits@D@std@@V?$allocator@D@2@@std@@PAX@std@@@1@PAU?$_Tree_node@V?$basic_string@DU?$char_traits@D@std@@V?$allocator@D@2@@std@@PAX@1@$$QAV?$basic_string@DU?$char_traits@D@std@@V?$allocator@D@2@@1@@Z ; std::_Tree_temp_node<std::allocator<std::_Tree_node<std::basic_string<char,std::char_traits<char>,std::allocator<char> >,void *> > >::_Tree_temp_node<std::allocator<std::_Tree_node<std::basic_string<char,std::char_traits<char>,std::allocator<char> >,void *> > ><std::basic_string<char,std::char_traits<char>,std::allocator<char> > >
PUBLIC	??$_Lower_bound_duplicate@V?$basic_string@DU?$char_traits@D@std@@V?$allocator@D@2@@std@@@?$_Tree@V?$_Tset_traits@V?$basic_string@DU?$char_traits@D@std@@V?$allocator@D@2@@std@@U?$less@V?$basic_string@DU?$char_traits@D@std@@V?$allocator@D@2@@std@@@2@V?$allocator@V?$basic_string@DU?$char_traits@D@std@@V?$allocator@D@2@@std@@@2@$0A@@std@@@std@@IBE_NQAU?$_Tree_node@V?$basic_string@DU?$char_traits@D@std@@V?$allocator@D@2@@std@@PAX@1@ABV?$basic_string@DU?$char_traits@D@std@@V?$allocator@D@2@@1@@Z ; std::_Tree<std::_Tset_traits<std::basic_string<char,std::char_traits<char>,std::allocator<char> >,std::less<std::basic_string<char,std::char_traits<char>,std::allocator<char> > >,std::allocator<std::basic_string<char,std::char_traits<char>,std::allocator<char> > >,0> >::_Lower_bound_duplicate<std::basic_string<char,std::char_traits<char>,std::allocator<char> > >
PUBLIC	??$_Find_lower_bound@V?$basic_string@DU?$char_traits@D@std@@V?$allocator@D@2@@std@@@?$_Tree@V?$_Tset_traits@V?$basic_string@DU?$char_traits@D@std@@V?$allocator@D@2@@std@@U?$less@V?$basic_string@DU?$char_traits@D@std@@V?$allocator@D@2@@std@@@2@V?$allocator@V?$basic_string@DU?$char_traits@D@std@@V?$allocator@D@2@@std@@@2@$0A@@std@@@std@@IBE?AU?$_Tree_find_result@PAU?$_Tree_node@V?$basic_string@DU?$char_traits@D@std@@V?$allocator@D@2@@std@@PAX@std@@@1@ABV?$basic_string@DU?$char_traits@D@std@@V?$allocator@D@2@@1@@Z ; std::_Tree<std::_Tset_traits<std::basic_string<char,std::char_traits<char>,std::allocator<char> >,std::less<std::basic_string<char,std::char_traits<char>,std::allocator<char> > >,std::allocator<std::basic_string<char,std::char_traits<char>,std::allocator<char> > >,0> >::_Find_lower_bound<std::basic_string<char,std::char_traits<char>,std::allocator<char> > >
PUBLIC	??$forward@V?$_Tree_const_iterator@V?$_Tree_val@U?$_Tree_simple_types@H@std@@@std@@@std@@@std@@YA$$QAV?$_Tree_const_iterator@V?$_Tree_val@U?$_Tree_simple_types@H@std@@@std@@@0@AAV10@@Z ; std::forward<std::_Tree_const_iterator<std::_Tree_val<std::_Tree_simple_types<int> > > >
PUBLIC	??$?0PAU?$_Tree_node@HPAX@std@@_N$0A@@?$pair@PAU?$_Tree_node@HPAX@std@@_N@std@@QAE@$$QAPAU?$_Tree_node@HPAX@1@$$QA_N@Z ; std::pair<std::_Tree_node<int,void *> *,bool>::pair<std::_Tree_node<int,void *> *,bool><std::_Tree_node<int,void *> *,bool,0>
PUBLIC	??$?0AAPAU?$_Tree_node@HPAX@std@@_N$0A@@?$pair@PAU?$_Tree_node@HPAX@std@@_N@std@@QAE@AAPAU?$_Tree_node@HPAX@1@$$QA_N@Z ; std::pair<std::_Tree_node<int,void *> *,bool>::pair<std::_Tree_node<int,void *> *,bool><std::_Tree_node<int,void *> * &,bool,0>
PUBLIC	??$?0ABH@?$_Tree_temp_node@V?$allocator@U?$_Tree_node@HPAX@std@@@std@@@std@@QAE@AAV?$allocator@U?$_Tree_node@HPAX@std@@@1@PAU?$_Tree_node@HPAX@1@ABH@Z ; std::_Tree_temp_node<std::allocator<std::_Tree_node<int,void *> > >::_Tree_temp_node<std::allocator<std::_Tree_node<int,void *> > ><int const &>
PUBLIC	??$forward@ABH@std@@YAABHABH@Z			; std::forward<int const &>
PUBLIC	??$_Lower_bound_duplicate@H@?$_Tree@V?$_Tset_traits@HU?$less@H@std@@V?$allocator@H@2@$0A@@std@@@std@@IBE_NQAU?$_Tree_node@HPAX@1@ABH@Z ; std::_Tree<std::_Tset_traits<int,std::less<int>,std::allocator<int>,0> >::_Lower_bound_duplicate<int>
PUBLIC	??$_Find_lower_bound@H@?$_Tree@V?$_Tset_traits@HU?$less@H@std@@V?$allocator@H@2@$0A@@std@@@std@@IBE?AU?$_Tree_find_result@PAU?$_Tree_node@HPAX@std@@@1@ABH@Z ; std::_Tree<std::_Tset_traits<int,std::less<int>,std::allocator<int>,0> >::_Find_lower_bound<int>
PUBLIC	??$?0AAPAU?$_Tree_node@U?$pair@$$CBKK@std@@PAX@std@@AAPAU01@$0A@@?$pair@PAU?$_Tree_node@U?$pair@$$CBKK@std@@PAX@std@@PAU12@@std@@QAE@AAPAU?$_Tree_node@U?$pair@$$CBKK@std@@PAX@1@0@Z ; std::pair<std::_Tree_node<std::pair<unsigned long const ,unsigned long>,void *> *,std::_Tree_node<std::pair<unsigned long const ,unsigned long>,void *> *>::pair<std::_Tree_node<std::pair<unsigned long const ,unsigned long>,void *> *,std::_Tree_node<std::pair<unsigned long const ,unsigned long>,void *> *><std::_Tree_node<std::pair<unsigned long const ,unsigned long>,void *> * &,std::_Tree_node<std::pair<unsigned long const ,unsigned long>,void *> * &,0>
PUBLIC	??$?0AAPAU?$_Tree_node@U?$pair@$$CBKUSReserveTargetEffect@CPythonBackground@@@std@@PAX@std@@AAPAU01@$0A@@?$pair@PAU?$_Tree_node@U?$pair@$$CBKUSReserveTargetEffect@CPythonBackground@@@std@@PAX@std@@PAU12@@std@@QAE@AAPAU?$_Tree_node@U?$pair@$$CBKUSReserveTargetEffect@CPythonBackground@@@std@@PAX@1@0@Z ; std::pair<std::_Tree_node<std::pair<unsigned long const ,CPythonBackground::SReserveTargetEffect>,void *> *,std::_Tree_node<std::pair<unsigned long const ,CPythonBackground::SReserveTargetEffect>,void *> *>::pair<std::_Tree_node<std::pair<unsigned long const ,CPythonBackground::SReserveTargetEffect>,void *> *,std::_Tree_node<std::pair<unsigned long const ,CPythonBackground::SReserveTargetEffect>,void *> *><std::_Tree_node<std::pair<unsigned long const ,CPythonBackground::SReserveTargetEffect>,void *> * &,std::_Tree_node<std::pair<unsigned long const ,CPythonBackground::SReserveTargetEffect>,void *> * &,0>
PUBLIC	??$_Kfn@$$CBKUSReserveTargetEffect@CPythonBackground@@@?$_Tmap_traits@KUSReserveTargetEffect@CPythonBackground@@U?$less@K@std@@V?$allocator@U?$pair@$$CBKUSReserveTargetEffect@CPythonBackground@@@std@@@4@$0A@@std@@SAABKABU?$pair@$$CBKUSReserveTargetEffect@CPythonBackground@@@1@@Z ; std::_Tmap_traits<unsigned long,CPythonBackground::SReserveTargetEffect,std::less<unsigned long>,std::allocator<std::pair<unsigned long const ,CPythonBackground::SReserveTargetEffect> >,0>::_Kfn<unsigned long const ,CPythonBackground::SReserveTargetEffect>
PUBLIC	??0?$_Tree_unchecked_iterator@V?$_Tree_val@U?$_Tree_simple_types@U?$pair@$$CBKUSReserveTargetEffect@CPythonBackground@@@std@@@std@@@std@@@std@@QAE@PAU?$_Tree_node@U?$pair@$$CBKUSReserveTargetEffect@CPythonBackground@@@std@@PAX@1@PBV?$_Tree_val@U?$_Tree_simple_types@U?$pair@$$CBKUSReserveTargetEffect@CPythonBackground@@@std@@@std@@@1@@Z ; std::_Tree_unchecked_iterator<std::_Tree_val<std::_Tree_simple_types<std::pair<unsigned long const ,CPythonBackground::SReserveTargetEffect> > > >::_Tree_unchecked_iterator<std::_Tree_val<std::_Tree_simple_types<std::pair<unsigned long const ,CPythonBackground::SReserveTargetEffect> > > >
PUBLIC	??_G?$RangeTester@UFGetPortalID@@@@UAEPAXI@Z	; RangeTester<FGetPortalID>::`scalar deleting destructor'
PUBLIC	??_G?$RangeTester@UCollisionAdjustChecker@@@@UAEPAXI@Z ; RangeTester<CollisionAdjustChecker>::`scalar deleting destructor'
PUBLIC	??_G?$RangeTester@UCollisionChecker@@@@UAEPAXI@Z ; RangeTester<CollisionChecker>::`scalar deleting destructor'
PUBLIC	??0?$_Tree@V?$_Tset_traits@HU?$less@H@std@@V?$allocator@H@2@$0A@@std@@@std@@QAE@ABU?$less@H@1@@Z ; std::_Tree<std::_Tset_traits<int,std::less<int>,std::allocator<int>,0> >::_Tree<std::_Tset_traits<int,std::less<int>,std::allocator<int>,0> >
PUBLIC	??4?$_Tree@V?$_Tset_traits@HU?$less@H@std@@V?$allocator@H@2@$0A@@std@@@std@@QAEAAV01@ABV01@@Z ; std::_Tree<std::_Tset_traits<int,std::less<int>,std::allocator<int>,0> >::operator=
PUBLIC	?_Getal@?$_Tree@V?$_Tset_traits@HU?$less@H@std@@V?$allocator@H@2@$0A@@std@@@std@@IAEAAV?$allocator@U?$_Tree_node@HPAX@std@@@2@XZ ; std::_Tree<std::_Tset_traits<int,std::less<int>,std::allocator<int>,0> >::_Getal
PUBLIC	?_Get_scary@?$_Tree@V?$_Tset_traits@HU?$less@H@std@@V?$allocator@H@2@$0A@@std@@@std@@IAEPAV?$_Tree_val@U?$_Tree_simple_types@H@std@@@2@XZ ; std::_Tree<std::_Tset_traits<int,std::less<int>,std::allocator<int>,0> >::_Get_scary
PUBLIC	?_Orphan_ptr@?$_Tree_val@U?$_Tree_simple_types@H@std@@@std@@QAEXQAU?$_Tree_node@HPAX@2@@Z ; std::_Tree_val<std::_Tree_simple_types<int> >::_Orphan_ptr
PUBLIC	??0?$_Tree_unchecked_const_iterator@V?$_Tree_val@U?$_Tree_simple_types@H@std@@@std@@U_Iterator_base0@2@@std@@QAE@PAU?$_Tree_node@HPAX@1@PBV?$_Tree_val@U?$_Tree_simple_types@H@std@@@1@@Z ; std::_Tree_unchecked_const_iterator<std::_Tree_val<std::_Tree_simple_types<int> >,std::_Iterator_base0>::_Tree_unchecked_const_iterator<std::_Tree_val<std::_Tree_simple_types<int> >,std::_Iterator_base0>
PUBLIC	??E?$_Tree_unchecked_const_iterator@V?$_Tree_val@U?$_Tree_simple_types@H@std@@@std@@U_Iterator_base0@2@@std@@QAEAAV01@XZ ; std::_Tree_unchecked_const_iterator<std::_Tree_val<std::_Tree_simple_types<int> >,std::_Iterator_base0>::operator++
PUBLIC	??0?$_Vector_const_iterator@V?$_Vector_val@U?$_Simple_types@UTMapInfo@CMapManager@@@std@@@std@@@std@@QAE@PAUTMapInfo@CMapManager@@PBU_Container_base0@1@@Z ; std::_Vector_const_iterator<std::_Vector_val<std::_Simple_types<CMapManager::TMapInfo> > >::_Vector_const_iterator<std::_Vector_val<std::_Simple_types<CMapManager::TMapInfo> > >
PUBLIC	??D?$_Vector_const_iterator@V?$_Vector_val@U?$_Simple_types@UTMapInfo@CMapManager@@@std@@@std@@@std@@QBEABUTMapInfo@CMapManager@@XZ ; std::_Vector_const_iterator<std::_Vector_val<std::_Simple_types<CMapManager::TMapInfo> > >::operator*
PUBLIC	?_Compat@?$_Vector_const_iterator@V?$_Vector_val@U?$_Simple_types@UTMapInfo@CMapManager@@@std@@@std@@@std@@QBEXABV12@@Z ; std::_Vector_const_iterator<std::_Vector_val<std::_Simple_types<CMapManager::TMapInfo> > >::_Compat
PUBLIC	??0?$_Tree@V?$_Tset_traits@V?$basic_string@DU?$char_traits@D@std@@V?$allocator@D@2@@std@@U?$less@V?$basic_string@DU?$char_traits@D@std@@V?$allocator@D@2@@std@@@2@V?$allocator@V?$basic_string@DU?$char_traits@D@std@@V?$allocator@D@2@@std@@@2@$0A@@std@@@std@@QAE@ABU?$less@V?$basic_string@DU?$char_traits@D@std@@V?$allocator@D@2@@std@@@1@@Z ; std::_Tree<std::_Tset_traits<std::basic_string<char,std::char_traits<char>,std::allocator<char> >,std::less<std::basic_string<char,std::char_traits<char>,std::allocator<char> > >,std::allocator<std::basic_string<char,std::char_traits<char>,std::allocator<char> > >,0> >::_Tree<std::_Tset_traits<std::basic_string<char,std::char_traits<char>,std::allocator<char> >,std::less<std::basic_string<char,std::char_traits<char>,std::allocator<char> > >,std::allocator<std::basic_string<char,std::char_traits<char>,std::allocator<char> > >,0> >
PUBLIC	?_Getal@?$_Tree@V?$_Tset_traits@V?$basic_string@DU?$char_traits@D@std@@V?$allocator@D@2@@std@@U?$less@V?$basic_string@DU?$char_traits@D@std@@V?$allocator@D@2@@std@@@2@V?$allocator@V?$basic_string@DU?$char_traits@D@std@@V?$allocator@D@2@@std@@@2@$0A@@std@@@std@@IAEAAV?$allocator@U?$_Tree_node@V?$basic_string@DU?$char_traits@D@std@@V?$allocator@D@2@@std@@PAX@std@@@2@XZ ; std::_Tree<std::_Tset_traits<std::basic_string<char,std::char_traits<char>,std::allocator<char> >,std::less<std::basic_string<char,std::char_traits<char>,std::allocator<char> > >,std::allocator<std::basic_string<char,std::char_traits<char>,std::allocator<char> > >,0> >::_Getal
PUBLIC	?_Get_scary@?$_Tree@V?$_Tset_traits@V?$basic_string@DU?$char_traits@D@std@@V?$allocator@D@2@@std@@U?$less@V?$basic_string@DU?$char_traits@D@std@@V?$allocator@D@2@@std@@@2@V?$allocator@V?$basic_string@DU?$char_traits@D@std@@V?$allocator@D@2@@std@@@2@$0A@@std@@@std@@IAEPAV?$_Tree_val@U?$_Tree_simple_types@V?$basic_string@DU?$char_traits@D@std@@V?$allocator@D@2@@std@@@std@@@2@XZ ; std::_Tree<std::_Tset_traits<std::basic_string<char,std::char_traits<char>,std::allocator<char> >,std::less<std::basic_string<char,std::char_traits<char>,std::allocator<char> > >,std::allocator<std::basic_string<char,std::char_traits<char>,std::allocator<char> > >,0> >::_Get_scary
PUBLIC	??0?$_Tree_unchecked_const_iterator@V?$_Tree_val@U?$_Tree_simple_types@V?$basic_string@DU?$char_traits@D@std@@V?$allocator@D@2@@std@@@std@@@std@@U_Iterator_base0@2@@std@@QAE@PAU?$_Tree_node@V?$basic_string@DU?$char_traits@D@std@@V?$allocator@D@2@@std@@PAX@1@PBV?$_Tree_val@U?$_Tree_simple_types@V?$basic_string@DU?$char_traits@D@std@@V?$allocator@D@2@@std@@@std@@@1@@Z ; std::_Tree_unchecked_const_iterator<std::_Tree_val<std::_Tree_simple_types<std::basic_string<char,std::char_traits<char>,std::allocator<char> > > >,std::_Iterator_base0>::_Tree_unchecked_const_iterator<std::_Tree_val<std::_Tree_simple_types<std::basic_string<char,std::char_traits<char>,std::allocator<char> > > >,std::_Iterator_base0>
PUBLIC	?_Erase@?$_Tree@V?$_Tmap_traits@KKU?$less@K@std@@V?$allocator@U?$pair@$$CBKK@std@@@2@$0A@@std@@@std@@AAEIU?$pair@PAU?$_Tree_node@U?$pair@$$CBKK@std@@PAX@std@@PAU12@@2@@Z ; std::_Tree<std::_Tmap_traits<unsigned long,unsigned long,std::less<unsigned long>,std::allocator<std::pair<unsigned long const ,unsigned long> >,0> >::_Erase
PUBLIC	??0?$_Tree@V?$_Tmap_traits@KUSReserveTargetEffect@CPythonBackground@@U?$less@K@std@@V?$allocator@U?$pair@$$CBKUSReserveTargetEffect@CPythonBackground@@@std@@@4@$0A@@std@@@std@@QAE@ABU?$less@K@1@@Z ; std::_Tree<std::_Tmap_traits<unsigned long,CPythonBackground::SReserveTargetEffect,std::less<unsigned long>,std::allocator<std::pair<unsigned long const ,CPythonBackground::SReserveTargetEffect> >,0> >::_Tree<std::_Tmap_traits<unsigned long,CPythonBackground::SReserveTargetEffect,std::less<unsigned long>,std::allocator<std::pair<unsigned long const ,CPythonBackground::SReserveTargetEffect> >,0> >
PUBLIC	?_Erase_unchecked@?$_Tree@V?$_Tmap_traits@KUSReserveTargetEffect@CPythonBackground@@U?$less@K@std@@V?$allocator@U?$pair@$$CBKUSReserveTargetEffect@CPythonBackground@@@std@@@4@$0A@@std@@@std@@AAEPAU?$_Tree_node@U?$pair@$$CBKUSReserveTargetEffect@CPythonBackground@@@std@@PAX@2@V?$_Tree_unchecked_const_iterator@V?$_Tree_val@U?$_Tree_simple_types@U?$pair@$$CBKUSReserveTargetEffect@CPythonBackground@@@std@@@std@@@std@@U_Iterator_base0@2@@2@@Z ; std::_Tree<std::_Tmap_traits<unsigned long,CPythonBackground::SReserveTargetEffect,std::less<unsigned long>,std::allocator<std::pair<unsigned long const ,CPythonBackground::SReserveTargetEffect> >,0> >::_Erase_unchecked
PUBLIC	?_Erase@?$_Tree@V?$_Tmap_traits@KUSReserveTargetEffect@CPythonBackground@@U?$less@K@std@@V?$allocator@U?$pair@$$CBKUSReserveTargetEffect@CPythonBackground@@@std@@@4@$0A@@std@@@std@@AAEIU?$pair@PAU?$_Tree_node@U?$pair@$$CBKUSReserveTargetEffect@CPythonBackground@@@std@@PAX@std@@PAU12@@2@@Z ; std::_Tree<std::_Tmap_traits<unsigned long,CPythonBackground::SReserveTargetEffect,std::less<unsigned long>,std::allocator<std::pair<unsigned long const ,CPythonBackground::SReserveTargetEffect> >,0> >::_Erase
PUBLIC	?_Getal@?$_Tree@V?$_Tmap_traits@KUSReserveTargetEffect@CPythonBackground@@U?$less@K@std@@V?$allocator@U?$pair@$$CBKUSReserveTargetEffect@CPythonBackground@@@std@@@4@$0A@@std@@@std@@IAEAAV?$allocator@U?$_Tree_node@U?$pair@$$CBKUSReserveTargetEffect@CPythonBackground@@@std@@PAX@std@@@2@XZ ; std::_Tree<std::_Tmap_traits<unsigned long,CPythonBackground::SReserveTargetEffect,std::less<unsigned long>,std::allocator<std::pair<unsigned long const ,CPythonBackground::SReserveTargetEffect> >,0> >::_Getal
PUBLIC	?_Get_scary@?$_Tree@V?$_Tmap_traits@KUSReserveTargetEffect@CPythonBackground@@U?$less@K@std@@V?$allocator@U?$pair@$$CBKUSReserveTargetEffect@CPythonBackground@@@std@@@4@$0A@@std@@@std@@IAEPAV?$_Tree_val@U?$_Tree_simple_types@U?$pair@$$CBKUSReserveTargetEffect@CPythonBackground@@@std@@@std@@@2@XZ ; std::_Tree<std::_Tmap_traits<unsigned long,CPythonBackground::SReserveTargetEffect,std::less<unsigned long>,std::allocator<std::pair<unsigned long const ,CPythonBackground::SReserveTargetEffect> >,0> >::_Get_scary
PUBLIC	?_Orphan_ptr@?$_Tree_val@U?$_Tree_simple_types@U?$pair@$$CBKUSReserveTargetEffect@CPythonBackground@@@std@@@std@@@std@@QAEXQAU?$_Tree_node@U?$pair@$$CBKUSReserveTargetEffect@CPythonBackground@@@std@@PAX@2@@Z ; std::_Tree_val<std::_Tree_simple_types<std::pair<unsigned long const ,CPythonBackground::SReserveTargetEffect> > >::_Orphan_ptr
PUBLIC	??E?$_Tree_const_iterator@V?$_Tree_val@U?$_Tree_simple_types@U?$pair@$$CBKUSReserveTargetEffect@CPythonBackground@@@std@@@std@@@std@@@std@@QAEAAV01@XZ ; std::_Tree_const_iterator<std::_Tree_val<std::_Tree_simple_types<std::pair<unsigned long const ,CPythonBackground::SReserveTargetEffect> > > >::operator++
PUBLIC	??D?$_Tree_iterator@V?$_Tree_val@U?$_Tree_simple_types@U?$pair@$$CBKUSReserveTargetEffect@CPythonBackground@@@std@@@std@@@std@@@std@@QBEAAU?$pair@$$CBKUSReserveTargetEffect@CPythonBackground@@@1@XZ ; std::_Tree_iterator<std::_Tree_val<std::_Tree_simple_types<std::pair<unsigned long const ,CPythonBackground::SReserveTargetEffect> > > >::operator*
PUBLIC	?_Unwrapped@?$_Tree_iterator@V?$_Tree_val@U?$_Tree_simple_types@U?$pair@$$CBKUSReserveTargetEffect@CPythonBackground@@@std@@@std@@@std@@@std@@QBE?AV?$_Tree_unchecked_iterator@V?$_Tree_val@U?$_Tree_simple_types@U?$pair@$$CBKUSReserveTargetEffect@CPythonBackground@@@std@@@std@@@std@@@2@XZ ; std::_Tree_iterator<std::_Tree_val<std::_Tree_simple_types<std::pair<unsigned long const ,CPythonBackground::SReserveTargetEffect> > > >::_Unwrapped
PUBLIC	??0?$_Tree_unchecked_const_iterator@V?$_Tree_val@U?$_Tree_simple_types@U?$pair@$$CBKUSReserveTargetEffect@CPythonBackground@@@std@@@std@@@std@@U_Iterator_base0@2@@std@@QAE@PAU?$_Tree_node@U?$pair@$$CBKUSReserveTargetEffect@CPythonBackground@@@std@@PAX@1@PBV?$_Tree_val@U?$_Tree_simple_types@U?$pair@$$CBKUSReserveTargetEffect@CPythonBackground@@@std@@@std@@@1@@Z ; std::_Tree_unchecked_const_iterator<std::_Tree_val<std::_Tree_simple_types<std::pair<unsigned long const ,CPythonBackground::SReserveTargetEffect> > >,std::_Iterator_base0>::_Tree_unchecked_const_iterator<std::_Tree_val<std::_Tree_simple_types<std::pair<unsigned long const ,CPythonBackground::SReserveTargetEffect> > >,std::_Iterator_base0>
PUBLIC	??0?$RangeTester@UFGetPortalID@@@@QAE@PAUFGetPortalID@@M@Z ; RangeTester<FGetPortalID>::RangeTester<FGetPortalID>
PUBLIC	??1?$RangeTester@UFGetPortalID@@@@UAE@XZ	; RangeTester<FGetPortalID>::~RangeTester<FGetPortalID>
PUBLIC	?RayTraceCallback@?$RangeTester@UFGetPortalID@@@@UAEXABVVector3d@@0M0PAVSpherePack@@@Z ; RangeTester<FGetPortalID>::RayTraceCallback
PUBLIC	?VisibilityCallback@?$RangeTester@UFGetPortalID@@@@UAEXABVFrustum@@PAVSpherePack@@W4ViewState@@@Z ; RangeTester<FGetPortalID>::VisibilityCallback
PUBLIC	?RangeTestCallback@?$RangeTester@UFGetPortalID@@@@UAEXABVVector3d@@MPAVSpherePack@@W4ViewState@@@Z ; RangeTester<FGetPortalID>::RangeTestCallback
PUBLIC	?PointTest2dCallback@?$RangeTester@UFGetPortalID@@@@UAEXABVVector3d@@PAVSpherePack@@W4ViewState@@@Z ; RangeTester<FGetPortalID>::PointTest2dCallback
PUBLIC	??0?$RangeTester@UCollisionAdjustChecker@@@@QAE@PAUCollisionAdjustChecker@@M@Z ; RangeTester<CollisionAdjustChecker>::RangeTester<CollisionAdjustChecker>
PUBLIC	??1?$RangeTester@UCollisionAdjustChecker@@@@UAE@XZ ; RangeTester<CollisionAdjustChecker>::~RangeTester<CollisionAdjustChecker>
PUBLIC	?RayTraceCallback@?$RangeTester@UCollisionAdjustChecker@@@@UAEXABVVector3d@@0M0PAVSpherePack@@@Z ; RangeTester<CollisionAdjustChecker>::RayTraceCallback
PUBLIC	?VisibilityCallback@?$RangeTester@UCollisionAdjustChecker@@@@UAEXABVFrustum@@PAVSpherePack@@W4ViewState@@@Z ; RangeTester<CollisionAdjustChecker>::VisibilityCallback
PUBLIC	?RangeTestCallback@?$RangeTester@UCollisionAdjustChecker@@@@UAEXABVVector3d@@MPAVSpherePack@@W4ViewState@@@Z ; RangeTester<CollisionAdjustChecker>::RangeTestCallback
PUBLIC	?PointTest2dCallback@?$RangeTester@UCollisionAdjustChecker@@@@UAEXABVVector3d@@PAVSpherePack@@W4ViewState@@@Z ; RangeTester<CollisionAdjustChecker>::PointTest2dCallback
PUBLIC	??0?$RangeTester@UCollisionChecker@@@@QAE@PAUCollisionChecker@@M@Z ; RangeTester<CollisionChecker>::RangeTester<CollisionChecker>
PUBLIC	??1?$RangeTester@UCollisionChecker@@@@UAE@XZ	; RangeTester<CollisionChecker>::~RangeTester<CollisionChecker>
PUBLIC	?RayTraceCallback@?$RangeTester@UCollisionChecker@@@@UAEXABVVector3d@@0M0PAVSpherePack@@@Z ; RangeTester<CollisionChecker>::RayTraceCallback
PUBLIC	?VisibilityCallback@?$RangeTester@UCollisionChecker@@@@UAEXABVFrustum@@PAVSpherePack@@W4ViewState@@@Z ; RangeTester<CollisionChecker>::VisibilityCallback
PUBLIC	?RangeTestCallback@?$RangeTester@UCollisionChecker@@@@UAEXABVVector3d@@MPAVSpherePack@@W4ViewState@@@Z ; RangeTester<CollisionChecker>::RangeTestCallback
PUBLIC	?PointTest2dCallback@?$RangeTester@UCollisionChecker@@@@UAEXABVVector3d@@PAVSpherePack@@W4ViewState@@@Z ; RangeTester<CollisionChecker>::PointTest2dCallback
PUBLIC	?pointer_to@?$pointer_traits@PAU?$pair@$$CBKUSReserveTargetEffect@CPythonBackground@@@std@@@std@@SAPAU?$pair@$$CBKUSReserveTargetEffect@CPythonBackground@@@2@AAU32@@Z ; std::pointer_traits<std::pair<unsigned long const ,CPythonBackground::SReserveTargetEffect> *>::pointer_to
PUBLIC	??$_Erase_head@V?$allocator@U?$_Tree_node@HPAX@std@@@std@@@?$_Tree_val@U?$_Tree_simple_types@H@std@@@std@@QAEXAAV?$allocator@U?$_Tree_node@HPAX@std@@@1@@Z ; std::_Tree_val<std::_Tree_simple_types<int> >::_Erase_head<std::allocator<std::_Tree_node<int,void *> > >
PUBLIC	??$_Erase_tree@V?$allocator@U?$_Tree_node@HPAX@std@@@std@@@?$_Tree_val@U?$_Tree_simple_types@H@std@@@std@@QAEXAAV?$allocator@U?$_Tree_node@HPAX@std@@@1@PAU?$_Tree_node@HPAX@1@@Z ; std::_Tree_val<std::_Tree_simple_types<int> >::_Erase_tree<std::allocator<std::_Tree_node<int,void *> > >
PUBLIC	??$_Find@H@?$_Tree@V?$_Tset_traits@HU?$less@H@std@@V?$allocator@H@2@$0A@@std@@@std@@ABEPAU?$_Tree_node@HPAX@1@ABH@Z ; std::_Tree<std::_Tset_traits<int,std::less<int>,std::allocator<int>,0> >::_Find<int>
PUBLIC	??$addressof@V?$_Vector_val@U?$_Simple_types@UTMapInfo@CMapManager@@@std@@@std@@@std@@YAPAV?$_Vector_val@U?$_Simple_types@UTMapInfo@CMapManager@@@std@@@0@AAV10@@Z ; std::addressof<std::_Vector_val<std::_Simple_types<CMapManager::TMapInfo> > >
PUBLIC	??$_Erase_head@V?$allocator@U?$_Tree_node@V?$basic_string@DU?$char_traits@D@std@@V?$allocator@D@2@@std@@PAX@std@@@std@@@?$_Tree_val@U?$_Tree_simple_types@V?$basic_string@DU?$char_traits@D@std@@V?$allocator@D@2@@std@@@std@@@std@@QAEXAAV?$allocator@U?$_Tree_node@V?$basic_string@DU?$char_traits@D@std@@V?$allocator@D@2@@std@@PAX@std@@@1@@Z ; std::_Tree_val<std::_Tree_simple_types<std::basic_string<char,std::char_traits<char>,std::allocator<char> > > >::_Erase_head<std::allocator<std::_Tree_node<std::basic_string<char,std::char_traits<char>,std::allocator<char> >,void *> > >
PUBLIC	??$_Find@V?$basic_string@DU?$char_traits@D@std@@V?$allocator@D@2@@std@@@?$_Tree@V?$_Tset_traits@V?$basic_string@DU?$char_traits@D@std@@V?$allocator@D@2@@std@@U?$less@V?$basic_string@DU?$char_traits@D@std@@V?$allocator@D@2@@std@@@2@V?$allocator@V?$basic_string@DU?$char_traits@D@std@@V?$allocator@D@2@@std@@@2@$0A@@std@@@std@@ABEPAU?$_Tree_node@V?$basic_string@DU?$char_traits@D@std@@V?$allocator@D@2@@std@@PAX@1@ABV?$basic_string@DU?$char_traits@D@std@@V?$allocator@D@2@@1@@Z ; std::_Tree<std::_Tset_traits<std::basic_string<char,std::char_traits<char>,std::allocator<char> >,std::less<std::basic_string<char,std::char_traits<char>,std::allocator<char> > >,std::allocator<std::basic_string<char,std::char_traits<char>,std::allocator<char> > >,0> >::_Find<std::basic_string<char,std::char_traits<char>,std::allocator<char> > >
PUBLIC	??$_Erase_head@V?$allocator@U?$_Tree_node@U?$pair@$$CBKUSReserveTargetEffect@CPythonBackground@@@std@@PAX@std@@@std@@@?$_Tree_val@U?$_Tree_simple_types@U?$pair@$$CBKUSReserveTargetEffect@CPythonBackground@@@std@@@std@@@std@@QAEXAAV?$allocator@U?$_Tree_node@U?$pair@$$CBKUSReserveTargetEffect@CPythonBackground@@@std@@PAX@std@@@1@@Z ; std::_Tree_val<std::_Tree_simple_types<std::pair<unsigned long const ,CPythonBackground::SReserveTargetEffect> > >::_Erase_head<std::allocator<std::_Tree_node<std::pair<unsigned long const ,CPythonBackground::SReserveTargetEffect>,void *> > >
PUBLIC	??$_Erase_tree@V?$allocator@U?$_Tree_node@U?$pair@$$CBKUSReserveTargetEffect@CPythonBackground@@@std@@PAX@std@@@std@@@?$_Tree_val@U?$_Tree_simple_types@U?$pair@$$CBKUSReserveTargetEffect@CPythonBackground@@@std@@@std@@@std@@QAEXAAV?$allocator@U?$_Tree_node@U?$pair@$$CBKUSReserveTargetEffect@CPythonBackground@@@std@@PAX@std@@@1@PAU?$_Tree_node@U?$pair@$$CBKUSReserveTargetEffect@CPythonBackground@@@std@@PAX@1@@Z ; std::_Tree_val<std::_Tree_simple_types<std::pair<unsigned long const ,CPythonBackground::SReserveTargetEffect> > >::_Erase_tree<std::allocator<std::_Tree_node<std::pair<unsigned long const ,CPythonBackground::SReserveTargetEffect>,void *> > >
PUBLIC	??$_Find@K@?$_Tree@V?$_Tmap_traits@KUSReserveTargetEffect@CPythonBackground@@U?$less@K@std@@V?$allocator@U?$pair@$$CBKUSReserveTargetEffect@CPythonBackground@@@std@@@4@$0A@@std@@@std@@ABEPAU?$_Tree_node@U?$pair@$$CBKUSReserveTargetEffect@CPythonBackground@@@std@@PAX@1@ABK@Z ; std::_Tree<std::_Tmap_traits<unsigned long,CPythonBackground::SReserveTargetEffect,std::less<unsigned long>,std::allocator<std::pair<unsigned long const ,CPythonBackground::SReserveTargetEffect> >,0> >::_Find<unsigned long>
PUBLIC	??$emplace@U?$pair@KUSReserveTargetEffect@CPythonBackground@@@std@@@?$_Tree@V?$_Tmap_traits@KUSReserveTargetEffect@CPythonBackground@@U?$less@K@std@@V?$allocator@U?$pair@$$CBKUSReserveTargetEffect@CPythonBackground@@@std@@@4@$0A@@std@@@std@@QAE?AU?$pair@V?$_Tree_iterator@V?$_Tree_val@U?$_Tree_simple_types@U?$pair@$$CBKUSReserveTargetEffect@CPythonBackground@@@std@@@std@@@std@@@std@@_N@1@$$QAU?$pair@KUSReserveTargetEffect@CPythonBackground@@@1@@Z ; std::_Tree<std::_Tmap_traits<unsigned long,CPythonBackground::SReserveTargetEffect,std::less<unsigned long>,std::allocator<std::pair<unsigned long const ,CPythonBackground::SReserveTargetEffect> >,0> >::emplace<std::pair<unsigned long,CPythonBackground::SReserveTargetEffect> >
PUBLIC	??$forward@U?$pair@KUSReserveTargetEffect@CPythonBackground@@@std@@@std@@YA$$QAU?$pair@KUSReserveTargetEffect@CPythonBackground@@@0@AAU10@@Z ; std::forward<std::pair<unsigned long,CPythonBackground::SReserveTargetEffect> >
PUBLIC	??$?0AAKAAUSReserveTargetEffect@CPythonBackground@@$0A@@?$pair@KUSReserveTargetEffect@CPythonBackground@@@std@@QAE@AAKAAUSReserveTargetEffect@CPythonBackground@@@Z ; std::pair<unsigned long,CPythonBackground::SReserveTargetEffect>::pair<unsigned long,CPythonBackground::SReserveTargetEffect><unsigned long &,CPythonBackground::SReserveTargetEffect &,0>
PUBLIC	??$forward@AAUSReserveTargetEffect@CPythonBackground@@@std@@YAAAUSReserveTargetEffect@CPythonBackground@@AAU12@@Z ; std::forward<CPythonBackground::SReserveTargetEffect &>
PUBLIC	??$_Seek_wrapped@V?$_Vector_iterator@V?$_Vector_val@U?$_Simple_types@UTMapInfo@CMapManager@@@std@@@std@@@std@@AAPAUTMapInfo@CMapManager@@@std@@YAXAAV?$_Vector_iterator@V?$_Vector_val@U?$_Simple_types@UTMapInfo@CMapManager@@@std@@@std@@@0@AAPAUTMapInfo@CMapManager@@@Z ; std::_Seek_wrapped<std::_Vector_iterator<std::_Vector_val<std::_Simple_types<CMapManager::TMapInfo> > >,CMapManager::TMapInfo * &>
PUBLIC	??$_Unfancy_maybe_null@UTMapInfo@CMapManager@@@std@@YAPAUTMapInfo@CMapManager@@PAU12@@Z ; std::_Unfancy_maybe_null<CMapManager::TMapInfo>
PUBLIC	??$_Adl_verify_range@V?$_Vector_iterator@V?$_Vector_val@U?$_Simple_types@UTMapInfo@CMapManager@@@std@@@std@@@std@@V12@@std@@YAXABV?$_Vector_iterator@V?$_Vector_val@U?$_Simple_types@UTMapInfo@CMapManager@@@std@@@std@@@0@0@Z ; std::_Adl_verify_range<std::_Vector_iterator<std::_Vector_val<std::_Simple_types<CMapManager::TMapInfo> > >,std::_Vector_iterator<std::_Vector_val<std::_Simple_types<CMapManager::TMapInfo> > > >
PUBLIC	??$?0V?$_Tree_const_iterator@V?$_Tree_val@U?$_Tree_simple_types@V?$basic_string@DU?$char_traits@D@std@@V?$allocator@D@2@@std@@@std@@@std@@@std@@AB_N$0A@@?$pair@V?$_Tree_const_iterator@V?$_Tree_val@U?$_Tree_simple_types@V?$basic_string@DU?$char_traits@D@std@@V?$allocator@D@2@@std@@@std@@@std@@@std@@_N@std@@QAE@$$QAV?$_Tree_const_iterator@V?$_Tree_val@U?$_Tree_simple_types@V?$basic_string@DU?$char_traits@D@std@@V?$allocator@D@2@@std@@@std@@@std@@@1@AB_N@Z ; std::pair<std::_Tree_const_iterator<std::_Tree_val<std::_Tree_simple_types<std::basic_string<char,std::char_traits<char>,std::allocator<char> > > > >,bool>::pair<std::_Tree_const_iterator<std::_Tree_val<std::_Tree_simple_types<std::basic_string<char,std::char_traits<char>,std::allocator<char> > > > >,bool><std::_Tree_const_iterator<std::_Tree_val<std::_Tree_simple_types<std::basic_string<char,std::char_traits<char>,std::allocator<char> > > > >,bool const &,0>
PUBLIC	??$_Emplace@V?$basic_string@DU?$char_traits@D@std@@V?$allocator@D@2@@std@@@?$_Tree@V?$_Tset_traits@V?$basic_string@DU?$char_traits@D@std@@V?$allocator@D@2@@std@@U?$less@V?$basic_string@DU?$char_traits@D@std@@V?$allocator@D@2@@std@@@2@V?$allocator@V?$basic_string@DU?$char_traits@D@std@@V?$allocator@D@2@@std@@@2@$0A@@std@@@std@@IAE?AU?$pair@PAU?$_Tree_node@V?$basic_string@DU?$char_traits@D@std@@V?$allocator@D@2@@std@@PAX@std@@_N@1@$$QAV?$basic_string@DU?$char_traits@D@std@@V?$allocator@D@2@@1@@Z ; std::_Tree<std::_Tset_traits<std::basic_string<char,std::char_traits<char>,std::allocator<char> >,std::less<std::basic_string<char,std::char_traits<char>,std::allocator<char> > >,std::allocator<std::basic_string<char,std::char_traits<char>,std::allocator<char> > >,0> >::_Emplace<std::basic_string<char,std::char_traits<char>,std::allocator<char> > >
PUBLIC	??$?0V?$_Tree_const_iterator@V?$_Tree_val@U?$_Tree_simple_types@H@std@@@std@@@std@@AB_N$0A@@?$pair@V?$_Tree_const_iterator@V?$_Tree_val@U?$_Tree_simple_types@H@std@@@std@@@std@@_N@std@@QAE@$$QAV?$_Tree_const_iterator@V?$_Tree_val@U?$_Tree_simple_types@H@std@@@std@@@1@AB_N@Z ; std::pair<std::_Tree_const_iterator<std::_Tree_val<std::_Tree_simple_types<int> > >,bool>::pair<std::_Tree_const_iterator<std::_Tree_val<std::_Tree_simple_types<int> > >,bool><std::_Tree_const_iterator<std::_Tree_val<std::_Tree_simple_types<int> > >,bool const &,0>
PUBLIC	??$_Emplace@ABH@?$_Tree@V?$_Tset_traits@HU?$less@H@std@@V?$allocator@H@2@$0A@@std@@@std@@IAE?AU?$pair@PAU?$_Tree_node@HPAX@std@@_N@1@ABH@Z ; std::_Tree<std::_Tset_traits<int,std::less<int>,std::allocator<int>,0> >::_Emplace<int const &>
PUBLIC	??$_Eqrange@K@?$_Tree@V?$_Tmap_traits@KKU?$less@K@std@@V?$allocator@U?$pair@$$CBKK@std@@@2@$0A@@std@@@std@@IBE?AU?$pair@PAU?$_Tree_node@U?$pair@$$CBKK@std@@PAX@std@@PAU12@@1@ABK@Z ; std::_Tree<std::_Tmap_traits<unsigned long,unsigned long,std::less<unsigned long>,std::allocator<std::pair<unsigned long const ,unsigned long> >,0> >::_Eqrange<unsigned long>
PUBLIC	??$_Eqrange@K@?$_Tree@V?$_Tmap_traits@KUSReserveTargetEffect@CPythonBackground@@U?$less@K@std@@V?$allocator@U?$pair@$$CBKUSReserveTargetEffect@CPythonBackground@@@std@@@4@$0A@@std@@@std@@IBE?AU?$pair@PAU?$_Tree_node@U?$pair@$$CBKUSReserveTargetEffect@CPythonBackground@@@std@@PAX@std@@PAU12@@1@ABK@Z ; std::_Tree<std::_Tmap_traits<unsigned long,CPythonBackground::SReserveTargetEffect,std::less<unsigned long>,std::allocator<std::pair<unsigned long const ,CPythonBackground::SReserveTargetEffect> >,0> >::_Eqrange<unsigned long>
PUBLIC	??0?$_Tree_const_iterator@V?$_Tree_val@U?$_Tree_simple_types@U?$pair@$$CBKUSReserveTargetEffect@CPythonBackground@@@std@@@std@@@std@@@std@@QAE@PAU?$_Tree_node@U?$pair@$$CBKUSReserveTargetEffect@CPythonBackground@@@std@@PAX@1@PBV?$_Tree_val@U?$_Tree_simple_types@U?$pair@$$CBKUSReserveTargetEffect@CPythonBackground@@@std@@@std@@@1@@Z ; std::_Tree_const_iterator<std::_Tree_val<std::_Tree_simple_types<std::pair<unsigned long const ,CPythonBackground::SReserveTargetEffect> > > >::_Tree_const_iterator<std::_Tree_val<std::_Tree_simple_types<std::pair<unsigned long const ,CPythonBackground::SReserveTargetEffect> > > >
PUBLIC	??_G?$CSingleton@VCPythonBackground@@@@UAEPAXI@Z ; CSingleton<CPythonBackground>::`scalar deleting destructor'
PUBLIC	??0?$_Tree_const_iterator@V?$_Tree_val@U?$_Tree_simple_types@V?$basic_string@DU?$char_traits@D@std@@V?$allocator@D@2@@std@@@std@@@std@@@std@@QAE@PAU?$_Tree_node@V?$basic_string@DU?$char_traits@D@std@@V?$allocator@D@2@@std@@PAX@1@PBV?$_Tree_val@U?$_Tree_simple_types@V?$basic_string@DU?$char_traits@D@std@@V?$allocator@D@2@@std@@@std@@@1@@Z ; std::_Tree_const_iterator<std::_Tree_val<std::_Tree_simple_types<std::basic_string<char,std::char_traits<char>,std::allocator<char> > > > >::_Tree_const_iterator<std::_Tree_val<std::_Tree_simple_types<std::basic_string<char,std::char_traits<char>,std::allocator<char> > > > >
PUBLIC	??0?$_Tree_iterator@V?$_Tree_val@U?$_Tree_simple_types@U?$pair@$$CBKUSReserveTargetEffect@CPythonBackground@@@std@@@std@@@std@@@std@@QAE@PAU?$_Tree_node@U?$pair@$$CBKUSReserveTargetEffect@CPythonBackground@@@std@@PAX@1@PBV?$_Tree_val@U?$_Tree_simple_types@U?$pair@$$CBKUSReserveTargetEffect@CPythonBackground@@@std@@@std@@@1@@Z ; std::_Tree_iterator<std::_Tree_val<std::_Tree_simple_types<std::pair<unsigned long const ,CPythonBackground::SReserveTargetEffect> > > >::_Tree_iterator<std::_Tree_val<std::_Tree_simple_types<std::pair<unsigned long const ,CPythonBackground::SReserveTargetEffect> > > >
PUBLIC	??0?$_Tree_const_iterator@V?$_Tree_val@U?$_Tree_simple_types@H@std@@@std@@@std@@QAE@PAU?$_Tree_node@HPAX@1@PBV?$_Tree_val@U?$_Tree_simple_types@H@std@@@1@@Z ; std::_Tree_const_iterator<std::_Tree_val<std::_Tree_simple_types<int> > >::_Tree_const_iterator<std::_Tree_val<std::_Tree_simple_types<int> > >
PUBLIC	??0?$set@V?$basic_string@DU?$char_traits@D@std@@V?$allocator@D@2@@std@@U?$less@V?$basic_string@DU?$char_traits@D@std@@V?$allocator@D@2@@std@@@2@V?$allocator@V?$basic_string@DU?$char_traits@D@std@@V?$allocator@D@2@@std@@@2@@std@@QAE@XZ ; std::set<std::basic_string<char,std::char_traits<char>,std::allocator<char> >,std::less<std::basic_string<char,std::char_traits<char>,std::allocator<char> > >,std::allocator<std::basic_string<char,std::char_traits<char>,std::allocator<char> > > >::set<std::basic_string<char,std::char_traits<char>,std::allocator<char> >,std::less<std::basic_string<char,std::char_traits<char>,std::allocator<char> > >,std::allocator<std::basic_string<char,std::char_traits<char>,std::allocator<char> > > >
PUBLIC	??0?$set@HU?$less@H@std@@V?$allocator@H@2@@std@@QAE@XZ ; std::set<int,std::less<int>,std::allocator<int> >::set<int,std::less<int>,std::allocator<int> >
PUBLIC	??4?$set@HU?$less@H@std@@V?$allocator@H@2@@std@@QAEAAV01@ABV01@@Z ; std::set<int,std::less<int>,std::allocator<int> >::operator=
PUBLIC	??1?$_Tree@V?$_Tset_traits@HU?$less@H@std@@V?$allocator@H@2@$0A@@std@@@std@@QAE@XZ ; std::_Tree<std::_Tset_traits<int,std::less<int>,std::allocator<int>,0> >::~_Tree<std::_Tset_traits<int,std::less<int>,std::allocator<int>,0> >
PUBLIC	?begin@?$_Tree@V?$_Tset_traits@HU?$less@H@std@@V?$allocator@H@2@$0A@@std@@@std@@QAE?AV?$_Tree_const_iterator@V?$_Tree_val@U?$_Tree_simple_types@H@std@@@std@@@2@XZ ; std::_Tree<std::_Tset_traits<int,std::less<int>,std::allocator<int>,0> >::begin
PUBLIC	?end@?$_Tree@V?$_Tset_traits@HU?$less@H@std@@V?$allocator@H@2@$0A@@std@@@std@@QAE?AV?$_Tree_const_iterator@V?$_Tree_val@U?$_Tree_simple_types@H@std@@@std@@@2@XZ ; std::_Tree<std::_Tset_traits<int,std::less<int>,std::allocator<int>,0> >::end
PUBLIC	?clear@?$_Tree@V?$_Tset_traits@HU?$less@H@std@@V?$allocator@H@2@$0A@@std@@@std@@QAEXXZ ; std::_Tree<std::_Tset_traits<int,std::less<int>,std::allocator<int>,0> >::clear
PUBLIC	?find@?$_Tree@V?$_Tset_traits@HU?$less@H@std@@V?$allocator@H@2@$0A@@std@@@std@@QAE?AV?$_Tree_const_iterator@V?$_Tree_val@U?$_Tree_simple_types@H@std@@@std@@@2@ABH@Z ; std::_Tree<std::_Tset_traits<int,std::less<int>,std::allocator<int>,0> >::find
PUBLIC	??D?$_Tree_const_iterator@V?$_Tree_val@U?$_Tree_simple_types@H@std@@@std@@@std@@QBEABHXZ ; std::_Tree_const_iterator<std::_Tree_val<std::_Tree_simple_types<int> > >::operator*
PUBLIC	??E?$_Tree_const_iterator@V?$_Tree_val@U?$_Tree_simple_types@H@std@@@std@@@std@@QAEAAV01@XZ ; std::_Tree_const_iterator<std::_Tree_val<std::_Tree_simple_types<int> > >::operator++
PUBLIC	??8?$_Tree_const_iterator@V?$_Tree_val@U?$_Tree_simple_types@H@std@@@std@@@std@@QBE_NABV01@@Z ; std::_Tree_const_iterator<std::_Tree_val<std::_Tree_simple_types<int> > >::operator==
PUBLIC	??0?$_Tree_unchecked_const_iterator@V?$_Tree_val@U?$_Tree_simple_types@H@std@@@std@@U_Iterator_base0@2@@std@@QAE@XZ ; std::_Tree_unchecked_const_iterator<std::_Tree_val<std::_Tree_simple_types<int> >,std::_Iterator_base0>::_Tree_unchecked_const_iterator<std::_Tree_val<std::_Tree_simple_types<int> >,std::_Iterator_base0>
PUBLIC	?begin@?$vector@UTMapInfo@CMapManager@@V?$allocator@UTMapInfo@CMapManager@@@std@@@std@@QAE?AV?$_Vector_iterator@V?$_Vector_val@U?$_Simple_types@UTMapInfo@CMapManager@@@std@@@std@@@2@XZ ; std::vector<CMapManager::TMapInfo,std::allocator<CMapManager::TMapInfo> >::begin
PUBLIC	??0?$_Vector_iterator@V?$_Vector_val@U?$_Simple_types@UTMapInfo@CMapManager@@@std@@@std@@@std@@QAE@PAUTMapInfo@CMapManager@@PBU_Container_base0@1@@Z ; std::_Vector_iterator<std::_Vector_val<std::_Simple_types<CMapManager::TMapInfo> > >::_Vector_iterator<std::_Vector_val<std::_Simple_types<CMapManager::TMapInfo> > >
PUBLIC	?end@?$vector@UTMapInfo@CMapManager@@V?$allocator@UTMapInfo@CMapManager@@@std@@@std@@QAE?AV?$_Vector_iterator@V?$_Vector_val@U?$_Simple_types@UTMapInfo@CMapManager@@@std@@@std@@@2@XZ ; std::vector<CMapManager::TMapInfo,std::allocator<CMapManager::TMapInfo> >::end
PUBLIC	??D?$_Vector_iterator@V?$_Vector_val@U?$_Simple_types@UTMapInfo@CMapManager@@@std@@@std@@@std@@QBEAAUTMapInfo@CMapManager@@XZ ; std::_Vector_iterator<std::_Vector_val<std::_Simple_types<CMapManager::TMapInfo> > >::operator*
PUBLIC	??8?$_Vector_const_iterator@V?$_Vector_val@U?$_Simple_types@UTMapInfo@CMapManager@@@std@@@std@@@std@@QBE_NABV01@@Z ; std::_Vector_const_iterator<std::_Vector_val<std::_Simple_types<CMapManager::TMapInfo> > >::operator==
PUBLIC	??0?$CSingleton@VCPythonBackground@@@@QAE@XZ	; CSingleton<CPythonBackground>::CSingleton<CPythonBackground>
PUBLIC	??1?$CSingleton@VCPythonBackground@@@@UAE@XZ	; CSingleton<CPythonBackground>::~CSingleton<CPythonBackground>
PUBLIC	??1?$_Tree@V?$_Tset_traits@V?$basic_string@DU?$char_traits@D@std@@V?$allocator@D@2@@std@@U?$less@V?$basic_string@DU?$char_traits@D@std@@V?$allocator@D@2@@std@@@2@V?$allocator@V?$basic_string@DU?$char_traits@D@std@@V?$allocator@D@2@@std@@@2@$0A@@std@@@std@@QAE@XZ ; std::_Tree<std::_Tset_traits<std::basic_string<char,std::char_traits<char>,std::allocator<char> >,std::less<std::basic_string<char,std::char_traits<char>,std::allocator<char> > >,std::allocator<std::basic_string<char,std::char_traits<char>,std::allocator<char> > >,0> >::~_Tree<std::_Tset_traits<std::basic_string<char,std::char_traits<char>,std::allocator<char> >,std::less<std::basic_string<char,std::char_traits<char>,std::allocator<char> > >,std::allocator<std::basic_string<char,std::char_traits<char>,std::allocator<char> > >,0> >
PUBLIC	?end@?$_Tree@V?$_Tset_traits@V?$basic_string@DU?$char_traits@D@std@@V?$allocator@D@2@@std@@U?$less@V?$basic_string@DU?$char_traits@D@std@@V?$allocator@D@2@@std@@@2@V?$allocator@V?$basic_string@DU?$char_traits@D@std@@V?$allocator@D@2@@std@@@2@$0A@@std@@@std@@QAE?AV?$_Tree_const_iterator@V?$_Tree_val@U?$_Tree_simple_types@V?$basic_string@DU?$char_traits@D@std@@V?$allocator@D@2@@std@@@std@@@std@@@2@XZ ; std::_Tree<std::_Tset_traits<std::basic_string<char,std::char_traits<char>,std::allocator<char> >,std::less<std::basic_string<char,std::char_traits<char>,std::allocator<char> > >,std::allocator<std::basic_string<char,std::char_traits<char>,std::allocator<char> > >,0> >::end
PUBLIC	?find@?$_Tree@V?$_Tset_traits@V?$basic_string@DU?$char_traits@D@std@@V?$allocator@D@2@@std@@U?$less@V?$basic_string@DU?$char_traits@D@std@@V?$allocator@D@2@@std@@@2@V?$allocator@V?$basic_string@DU?$char_traits@D@std@@V?$allocator@D@2@@std@@@2@$0A@@std@@@std@@QAE?AV?$_Tree_const_iterator@V?$_Tree_val@U?$_Tree_simple_types@V?$basic_string@DU?$char_traits@D@std@@V?$allocator@D@2@@std@@@std@@@std@@@2@ABV?$basic_string@DU?$char_traits@D@std@@V?$allocator@D@2@@2@@Z ; std::_Tree<std::_Tset_traits<std::basic_string<char,std::char_traits<char>,std::allocator<char> >,std::less<std::basic_string<char,std::char_traits<char>,std::allocator<char> > >,std::allocator<std::basic_string<char,std::char_traits<char>,std::allocator<char> > >,0> >::find
PUBLIC	??8?$_Tree_const_iterator@V?$_Tree_val@U?$_Tree_simple_types@V?$basic_string@DU?$char_traits@D@std@@V?$allocator@D@2@@std@@@std@@@std@@@std@@QBE_NABV01@@Z ; std::_Tree_const_iterator<std::_Tree_val<std::_Tree_simple_types<std::basic_string<char,std::char_traits<char>,std::allocator<char> > > > >::operator==
PUBLIC	?erase@?$_Tree@V?$_Tmap_traits@KKU?$less@K@std@@V?$allocator@U?$pair@$$CBKK@std@@@2@$0A@@std@@@std@@QAEIABK@Z ; std::_Tree<std::_Tmap_traits<unsigned long,unsigned long,std::less<unsigned long>,std::allocator<std::pair<unsigned long const ,unsigned long> >,0> >::erase
PUBLIC	??0?$map@KUSReserveTargetEffect@CPythonBackground@@U?$less@K@std@@V?$allocator@U?$pair@$$CBKUSReserveTargetEffect@CPythonBackground@@@std@@@4@@std@@QAE@XZ ; std::map<unsigned long,CPythonBackground::SReserveTargetEffect,std::less<unsigned long>,std::allocator<std::pair<unsigned long const ,CPythonBackground::SReserveTargetEffect> > >::map<unsigned long,CPythonBackground::SReserveTargetEffect,std::less<unsigned long>,std::allocator<std::pair<unsigned long const ,CPythonBackground::SReserveTargetEffect> > >
PUBLIC	??1?$_Tree@V?$_Tmap_traits@KUSReserveTargetEffect@CPythonBackground@@U?$less@K@std@@V?$allocator@U?$pair@$$CBKUSReserveTargetEffect@CPythonBackground@@@std@@@4@$0A@@std@@@std@@QAE@XZ ; std::_Tree<std::_Tmap_traits<unsigned long,CPythonBackground::SReserveTargetEffect,std::less<unsigned long>,std::allocator<std::pair<unsigned long const ,CPythonBackground::SReserveTargetEffect> >,0> >::~_Tree<std::_Tmap_traits<unsigned long,CPythonBackground::SReserveTargetEffect,std::less<unsigned long>,std::allocator<std::pair<unsigned long const ,CPythonBackground::SReserveTargetEffect> >,0> >
PUBLIC	?begin@?$_Tree@V?$_Tmap_traits@KUSReserveTargetEffect@CPythonBackground@@U?$less@K@std@@V?$allocator@U?$pair@$$CBKUSReserveTargetEffect@CPythonBackground@@@std@@@4@$0A@@std@@@std@@QAE?AV?$_Tree_iterator@V?$_Tree_val@U?$_Tree_simple_types@U?$pair@$$CBKUSReserveTargetEffect@CPythonBackground@@@std@@@std@@@std@@@2@XZ ; std::_Tree<std::_Tmap_traits<unsigned long,CPythonBackground::SReserveTargetEffect,std::less<unsigned long>,std::allocator<std::pair<unsigned long const ,CPythonBackground::SReserveTargetEffect> >,0> >::begin
PUBLIC	?end@?$_Tree@V?$_Tmap_traits@KUSReserveTargetEffect@CPythonBackground@@U?$less@K@std@@V?$allocator@U?$pair@$$CBKUSReserveTargetEffect@CPythonBackground@@@std@@@4@$0A@@std@@@std@@QAE?AV?$_Tree_iterator@V?$_Tree_val@U?$_Tree_simple_types@U?$pair@$$CBKUSReserveTargetEffect@CPythonBackground@@@std@@@std@@@std@@@2@XZ ; std::_Tree<std::_Tmap_traits<unsigned long,CPythonBackground::SReserveTargetEffect,std::less<unsigned long>,std::allocator<std::pair<unsigned long const ,CPythonBackground::SReserveTargetEffect> >,0> >::end
PUBLIC	?erase@?$_Tree@V?$_Tmap_traits@KUSReserveTargetEffect@CPythonBackground@@U?$less@K@std@@V?$allocator@U?$pair@$$CBKUSReserveTargetEffect@CPythonBackground@@@std@@@4@$0A@@std@@@std@@QAEIABK@Z ; std::_Tree<std::_Tmap_traits<unsigned long,CPythonBackground::SReserveTargetEffect,std::less<unsigned long>,std::allocator<std::pair<unsigned long const ,CPythonBackground::SReserveTargetEffect> >,0> >::erase
PUBLIC	?clear@?$_Tree@V?$_Tmap_traits@KUSReserveTargetEffect@CPythonBackground@@U?$less@K@std@@V?$allocator@U?$pair@$$CBKUSReserveTargetEffect@CPythonBackground@@@std@@@4@$0A@@std@@@std@@QAEXXZ ; std::_Tree<std::_Tmap_traits<unsigned long,CPythonBackground::SReserveTargetEffect,std::less<unsigned long>,std::allocator<std::pair<unsigned long const ,CPythonBackground::SReserveTargetEffect> >,0> >::clear
PUBLIC	?find@?$_Tree@V?$_Tmap_traits@KUSReserveTargetEffect@CPythonBackground@@U?$less@K@std@@V?$allocator@U?$pair@$$CBKUSReserveTargetEffect@CPythonBackground@@@std@@@4@$0A@@std@@@std@@QAE?AV?$_Tree_iterator@V?$_Tree_val@U?$_Tree_simple_types@U?$pair@$$CBKUSReserveTargetEffect@CPythonBackground@@@std@@@std@@@std@@@2@ABK@Z ; std::_Tree<std::_Tmap_traits<unsigned long,CPythonBackground::SReserveTargetEffect,std::less<unsigned long>,std::allocator<std::pair<unsigned long const ,CPythonBackground::SReserveTargetEffect> >,0> >::find
PUBLIC	??8?$_Tree_const_iterator@V?$_Tree_val@U?$_Tree_simple_types@U?$pair@$$CBKUSReserveTargetEffect@CPythonBackground@@@std@@@std@@@std@@@std@@QBE_NABV01@@Z ; std::_Tree_const_iterator<std::_Tree_val<std::_Tree_simple_types<std::pair<unsigned long const ,CPythonBackground::SReserveTargetEffect> > > >::operator==
PUBLIC	??C?$_Tree_iterator@V?$_Tree_val@U?$_Tree_simple_types@U?$pair@$$CBKUSReserveTargetEffect@CPythonBackground@@@std@@@std@@@std@@@std@@QBEPAU?$pair@$$CBKUSReserveTargetEffect@CPythonBackground@@@1@XZ ; std::_Tree_iterator<std::_Tree_val<std::_Tree_simple_types<std::pair<unsigned long const ,CPythonBackground::SReserveTargetEffect> > > >::operator->
PUBLIC	??E?$_Tree_iterator@V?$_Tree_val@U?$_Tree_simple_types@U?$pair@$$CBKUSReserveTargetEffect@CPythonBackground@@@std@@@std@@@std@@@std@@QAEAAV01@XZ ; std::_Tree_iterator<std::_Tree_val<std::_Tree_simple_types<std::pair<unsigned long const ,CPythonBackground::SReserveTargetEffect> > > >::operator++
PUBLIC	?Instance@?$CSingleton@VCPythonMiniMap@@@@SAAAVCPythonMiniMap@@XZ ; CSingleton<CPythonMiniMap>::Instance
PUBLIC	??$insert@U?$pair@KUSReserveTargetEffect@CPythonBackground@@@std@@$0A@@?$map@KUSReserveTargetEffect@CPythonBackground@@U?$less@K@std@@V?$allocator@U?$pair@$$CBKUSReserveTargetEffect@CPythonBackground@@@std@@@4@@std@@QAE?AU?$pair@V?$_Tree_iterator@V?$_Tree_val@U?$_Tree_simple_types@U?$pair@$$CBKUSReserveTargetEffect@CPythonBackground@@@std@@@std@@@std@@@std@@_N@1@$$QAU?$pair@KUSReserveTargetEffect@CPythonBackground@@@1@@Z ; std::map<unsigned long,CPythonBackground::SReserveTargetEffect,std::less<unsigned long>,std::allocator<std::pair<unsigned long const ,CPythonBackground::SReserveTargetEffect> > >::insert<std::pair<unsigned long,CPythonBackground::SReserveTargetEffect>,0>
PUBLIC	??$make_pair@AAKAAUSReserveTargetEffect@CPythonBackground@@@std@@YA?AU?$pair@KUSReserveTargetEffect@CPythonBackground@@@0@AAKAAUSReserveTargetEffect@CPythonBackground@@@Z ; std::make_pair<unsigned long &,CPythonBackground::SReserveTargetEffect &>
PUBLIC	?_Unwrapped@?$_Vector_iterator@V?$_Vector_val@U?$_Simple_types@UTMapInfo@CMapManager@@@std@@@std@@@std@@QBEPAUTMapInfo@CMapManager@@XZ ; std::_Vector_iterator<std::_Vector_val<std::_Simple_types<CMapManager::TMapInfo> > >::_Unwrapped
PUBLIC	??$_Get_unwrapped@ABV?$_Vector_iterator@V?$_Vector_val@U?$_Simple_types@UTMapInfo@CMapManager@@@std@@@std@@@std@@@std@@YA?A_TABV?$_Vector_iterator@V?$_Vector_val@U?$_Simple_types@UTMapInfo@CMapManager@@@std@@@std@@@0@@Z ; std::_Get_unwrapped<std::_Vector_iterator<std::_Vector_val<std::_Simple_types<CMapManager::TMapInfo> > > const &>
PUBLIC	??$_Get_unwrapped@AAV?$_Vector_iterator@V?$_Vector_val@U?$_Simple_types@UTMapInfo@CMapManager@@@std@@@std@@@std@@@std@@YA?A_TAAV?$_Vector_iterator@V?$_Vector_val@U?$_Simple_types@UTMapInfo@CMapManager@@@std@@@std@@@0@@Z ; std::_Get_unwrapped<std::_Vector_iterator<std::_Vector_val<std::_Simple_types<CMapManager::TMapInfo> > > &>
PUBLIC	??$find_if@V?$_Vector_iterator@V?$_Vector_val@U?$_Simple_types@UTMapInfo@CMapManager@@@std@@@std@@@std@@UFFindWarpMapName@CPythonBackground@@@std@@YA?AV?$_Vector_iterator@V?$_Vector_val@U?$_Simple_types@UTMapInfo@CMapManager@@@std@@@std@@@0@V10@V10@UFFindWarpMapName@CPythonBackground@@@Z ; std::find_if<std::_Vector_iterator<std::_Vector_val<std::_Simple_types<CMapManager::TMapInfo> > >,CPythonBackground::FFindWarpMapName>
PUBLIC	??$insert@$0A@$0A@@?$_Tree@V?$_Tset_traits@V?$basic_string@DU?$char_traits@D@std@@V?$allocator@D@2@@std@@U?$less@V?$basic_string@DU?$char_traits@D@std@@V?$allocator@D@2@@std@@@2@V?$allocator@V?$basic_string@DU?$char_traits@D@std@@V?$allocator@D@2@@std@@@2@$0A@@std@@@std@@QAE?AU?$pair@V?$_Tree_const_iterator@V?$_Tree_val@U?$_Tree_simple_types@V?$basic_string@DU?$char_traits@D@std@@V?$allocator@D@2@@std@@@std@@@std@@@std@@_N@1@$$QAV?$basic_string@DU?$char_traits@D@std@@V?$allocator@D@2@@1@@Z ; std::_Tree<std::_Tset_traits<std::basic_string<char,std::char_traits<char>,std::allocator<char> >,std::less<std::basic_string<char,std::char_traits<char>,std::allocator<char> > >,std::allocator<std::basic_string<char,std::char_traits<char>,std::allocator<char> > >,0> >::insert<0,0>
PUBLIC	??$ForInRange@UCollisionChecker@@@CCullingManager@@QAEXABVVector3d@@MPAUCollisionChecker@@@Z ; CCullingManager::ForInRange<CollisionChecker>
PUBLIC	??$ForInRange@UCollisionAdjustChecker@@@CCullingManager@@QAEXABVVector3d@@MPAUCollisionAdjustChecker@@@Z ; CCullingManager::ForInRange<CollisionAdjustChecker>
PUBLIC	??$erase@V?$_Tree_iterator@V?$_Tree_val@U?$_Tree_simple_types@U?$pair@$$CBKUSReserveTargetEffect@CPythonBackground@@@std@@@std@@@std@@@std@@$0A@@?$_Tree@V?$_Tmap_traits@KUSReserveTargetEffect@CPythonBackground@@U?$less@K@std@@V?$allocator@U?$pair@$$CBKUSReserveTargetEffect@CPythonBackground@@@std@@@4@$0A@@std@@@std@@QAE?AV?$_Tree_iterator@V?$_Tree_val@U?$_Tree_simple_types@U?$pair@$$CBKUSReserveTargetEffect@CPythonBackground@@@std@@@std@@@std@@@1@V21@@Z ; std::_Tree<std::_Tmap_traits<unsigned long,CPythonBackground::SReserveTargetEffect,std::less<unsigned long>,std::allocator<std::pair<unsigned long const ,CPythonBackground::SReserveTargetEffect> >,0> >::erase<std::_Tree_iterator<std::_Tree_val<std::_Tree_simple_types<std::pair<unsigned long const ,CPythonBackground::SReserveTargetEffect> > > >,0>
PUBLIC	??$ForInRay@UFGetPortalID@@@CCullingManager@@QAEXABVVector3d@@0PAUFGetPortalID@@@Z ; CCullingManager::ForInRay<FGetPortalID>
PUBLIC	??$insert@$0A@$0A@@?$_Tree@V?$_Tset_traits@HU?$less@H@std@@V?$allocator@H@2@$0A@@std@@@std@@QAE?AU?$pair@V?$_Tree_const_iterator@V?$_Tree_val@U?$_Tree_simple_types@H@std@@@std@@@std@@_N@1@ABH@Z ; std::_Tree<std::_Tset_traits<int,std::less<int>,std::allocator<int>,0> >::insert<0,0>
PUBLIC	?DeleteSpecialEffect@CPythonBackground@@QAEXK@Z	; CPythonBackground::DeleteSpecialEffect
PUBLIC	?CreateSpecialEffect@CPythonBackground@@QAEXKMMMPBD@Z ; CPythonBackground::CreateSpecialEffect
PUBLIC	?DeleteTargetEffect@CPythonBackground@@QAEXK@Z	; CPythonBackground::DeleteTargetEffect
PUBLIC	?CreateTargetEffect@CPythonBackground@@QAEXKJJ@Z ; CPythonBackground::CreateTargetEffect
PUBLIC	?CreateTargetEffect@CPythonBackground@@QAEXKK@Z	; CPythonBackground::CreateTargetEffect
PUBLIC	?SetXMaxTree@CPythonBackground@@QAEXH@Z		; CPythonBackground::SetXMaxTree
PUBLIC	?DisableSnowEnvironment@CPythonBackground@@QAEXXZ ; CPythonBackground::DisableSnowEnvironment
PUBLIC	?EnableSnowEnvironment@CPythonBackground@@QAEXXZ ; CPythonBackground::EnableSnowEnvironment
PUBLIC	?GetWarpMapName@CPythonBackground@@QAEPBDXZ	; CPythonBackground::GetWarpMapName
PUBLIC	?DisableGuildArea@CPythonBackground@@QAEXXZ	; CPythonBackground::DisableGuildArea
PUBLIC	?VisibleGuildArea@CPythonBackground@@QAEXXZ	; CPythonBackground::VisibleGuildArea
PUBLIC	?Warp@CPythonBackground@@QAEXKK@Z		; CPythonBackground::Warp
PUBLIC	?GlobalPositionToMapInfo@CPythonBackground@@QAEPAUTMapInfo@CMapManager@@KK@Z ; CPythonBackground::GlobalPositionToMapInfo
PUBLIC	?RegisterDungeonMapName@CPythonBackground@@QAEXPBD@Z ; CPythonBackground::RegisterDungeonMapName
PUBLIC	?LocalPositionToGlobalPosition@CPythonBackground@@QAEXAAJ0@Z ; CPythonBackground::LocalPositionToGlobalPosition
PUBLIC	?RegisterGuildArea@CPythonBackground@@QAEXHHHH@Z ; CPythonBackground::RegisterGuildArea
PUBLIC	?ClearGuildArea@CPythonBackground@@QAEXXZ	; CPythonBackground::ClearGuildArea
PUBLIC	?CheckAdvancing@CPythonBackground@@QAE_NPAVCInstanceBase@@@Z ; CPythonBackground::CheckAdvancing
PUBLIC	??RCollisionAdjustChecker@@QAEXPAVCGraphicObjectInstance@@@Z ; CollisionAdjustChecker::operator()
PUBLIC	??0CollisionAdjustChecker@@QAE@PAVCInstanceBase@@@Z ; CollisionAdjustChecker::CollisionAdjustChecker
PUBLIC	??RCollisionChecker@@QAEXPAVCGraphicObjectInstance@@@Z ; CollisionChecker::operator()
PUBLIC	??0CollisionChecker@@QAE@PAVCInstanceBase@@@Z	; CollisionChecker::CollisionChecker
PUBLIC	?RenderCollision@CPythonBackground@@QAEXXZ	; CPythonBackground::RenderCollision
PUBLIC	??0?$_Tree_const_iterator@V?$_Tree_val@U?$_Tree_simple_types@H@std@@@std@@@std@@QAE@XZ ; std::_Tree_const_iterator<std::_Tree_val<std::_Tree_simple_types<int> > >::_Tree_const_iterator<std::_Tree_val<std::_Tree_simple_types<int> > >
PUBLIC	?__IsSame@CPythonBackground@@IAE_NAAV?$set@HU?$less@H@std@@V?$allocator@H@2@@std@@0@Z ; CPythonBackground::__IsSame
PUBLIC	??1FGetPortalID@@QAE@XZ				; FGetPortalID::~FGetPortalID
PUBLIC	??RFGetPortalID@@QAEXPAVCGraphicObjectInstance@@@Z ; FGetPortalID::operator()
PUBLIC	??0FGetPortalID@@QAE@MM@Z			; FGetPortalID::FGetPortalID
PUBLIC	?Create@CPythonBackground@@QAEXXZ		; CPythonBackground::Create
PUBLIC	?GetPickingPoint@CPythonBackground@@QAE_NPAUD3DXVECTOR3@@@Z ; CPythonBackground::GetPickingPoint
PUBLIC	?__CreateProperty@CPythonBackground@@IAEXXZ	; CPythonBackground::__CreateProperty
PUBLIC	?Initialize@CPythonBackground@@QAEXXZ		; CPythonBackground::Initialize
PUBLIC	??1?$map@KUSReserveTargetEffect@CPythonBackground@@U?$less@K@std@@V?$allocator@U?$pair@$$CBKUSReserveTargetEffect@CPythonBackground@@@std@@@4@@std@@QAE@XZ ; std::map<unsigned long,CPythonBackground::SReserveTargetEffect,std::less<unsigned long>,std::allocator<std::pair<unsigned long const ,CPythonBackground::SReserveTargetEffect> > >::~map<unsigned long,CPythonBackground::SReserveTargetEffect,std::less<unsigned long>,std::allocator<std::pair<unsigned long const ,CPythonBackground::SReserveTargetEffect> > >
PUBLIC	??1?$set@V?$basic_string@DU?$char_traits@D@std@@V?$allocator@D@2@@std@@U?$less@V?$basic_string@DU?$char_traits@D@std@@V?$allocator@D@2@@std@@@2@V?$allocator@V?$basic_string@DU?$char_traits@D@std@@V?$allocator@D@2@@std@@@2@@std@@QAE@XZ ; std::set<std::basic_string<char,std::char_traits<char>,std::allocator<char> >,std::less<std::basic_string<char,std::char_traits<char>,std::allocator<char> > >,std::allocator<std::basic_string<char,std::char_traits<char>,std::allocator<char> > > >::~set<std::basic_string<char,std::char_traits<char>,std::allocator<char> >,std::less<std::basic_string<char,std::char_traits<char>,std::allocator<char> > >,std::allocator<std::basic_string<char,std::char_traits<char>,std::allocator<char> > > >
PUBLIC	??1?$set@HU?$less@H@std@@V?$allocator@H@2@@std@@QAE@XZ ; std::set<int,std::less<int>,std::allocator<int> >::~set<int,std::less<int>,std::allocator<int> >
PUBLIC	??0SVIEWDISTANCESET@CPythonBackground@@QAE@XZ	; CPythonBackground::SVIEWDISTANCESET::SVIEWDISTANCESET
PUBLIC	??_GCPythonBackground@@UAEPAXI@Z		; CPythonBackground::`scalar deleting destructor'
PUBLIC	?GetDistanceSetInfo@CPythonBackground@@QAEXPAHPAM11@Z ; CPythonBackground::GetDistanceSetInfo
PUBLIC	?SelectViewDistanceNum@CPythonBackground@@QAEXH@Z ; CPythonBackground::SelectViewDistanceNum
PUBLIC	?SetShadowLevel@CPythonBackground@@QAE_NH@Z	; CPythonBackground::SetShadowLevel
PUBLIC	?RefreshShadowLevel@CPythonBackground@@QAEXXZ	; CPythonBackground::RefreshShadowLevel
PUBLIC	?SetSplatLimit@CPythonBackground@@QAE_NH@Z	; CPythonBackground::SetSplatLimit
PUBLIC	?EnableTerrainOnlyForHeight@CPythonBackground@@QAEXXZ ; CPythonBackground::EnableTerrainOnlyForHeight
PUBLIC	?SetVisiblePart@CPythonBackground@@QAE_NH_N@Z	; CPythonBackground::SetVisiblePart
PUBLIC	?GetRenderShadowTime@CPythonBackground@@QAEKXZ	; CPythonBackground::GetRenderShadowTime
PUBLIC	??RFFindWarpMapName@CPythonBackground@@QAE_NAAUTMapInfo@CMapManager@@@Z ; CPythonBackground::FFindWarpMapName::operator()
PUBLIC	??0FFindWarpMapName@CPythonBackground@@QAE@KK@Z	; CPythonBackground::FFindWarpMapName::FFindWarpMapName
PUBLIC	?SetAtlasInfoFileName@CMapManager@@QAEXPBD@Z	; CMapManager::SetAtlasInfoFileName
PUBLIC	?IsEnablePortal@CMapOutdoor@@QAE_NXZ		; CMapOutdoor::IsEnablePortal
PUBLIC	?EnableTerrainOnlyForHeight@CMapOutdoor@@QAEX_N@Z ; CMapOutdoor::EnableTerrainOnlyForHeight
PUBLIC	??0CPythonBackground@@QAE@XZ			; CPythonBackground::CPythonBackground
PUBLIC	??1CPythonBackground@@UAE@XZ			; CPythonBackground::~CPythonBackground
PUBLIC	?GetFarClip@CPythonBackground@@QAEMXZ		; CPythonBackground::GetFarClip
PUBLIC	?RenderCharacterShadowToTexture@CPythonBackground@@QAEXXZ ; CPythonBackground::RenderCharacterShadowToTexture
PUBLIC	?RenderSky@CPythonBackground@@QAEXXZ		; CPythonBackground::RenderSky
PUBLIC	?RenderBeforeLensFlare@CPythonBackground@@QAEXXZ ; CPythonBackground::RenderBeforeLensFlare
PUBLIC	?RenderCloud@CPythonBackground@@QAEXXZ		; CPythonBackground::RenderCloud
PUBLIC	?Render@CPythonBackground@@QAEXXZ		; CPythonBackground::Render
PUBLIC	?SetCharacterDirLight@CPythonBackground@@QAEXXZ	; CPythonBackground::SetCharacterDirLight
PUBLIC	?SetBackgroundDirLight@CPythonBackground@@QAEXXZ ; CPythonBackground::SetBackgroundDirLight
PUBLIC	?RenderWater@CPythonBackground@@QAEXXZ		; CPythonBackground::RenderWater
PUBLIC	?RenderSnow@CPythonBackground@@QAEXXZ		; CPythonBackground::RenderSnow
PUBLIC	?RenderEffect@CPythonBackground@@QAEXXZ		; CPythonBackground::RenderEffect
PUBLIC	?RenderPCBlocker@CPythonBackground@@QAEXXZ	; CPythonBackground::RenderPCBlocker
PUBLIC	?RenderAfterLensFlare@CPythonBackground@@QAEXXZ	; CPythonBackground::RenderAfterLensFlare
PUBLIC	?Update@CPythonBackground@@QAEXMMM@Z		; CPythonBackground::Update
PUBLIC	?ReleaseCharacterShadowTexture@CPythonBackground@@QAEXXZ ; CPythonBackground::ReleaseCharacterShadowTexture
PUBLIC	?CreateCharacterShadowTexture@CPythonBackground@@QAEXXZ ; CPythonBackground::CreateCharacterShadowTexture
PUBLIC	?SetViewDistanceSet@CPythonBackground@@QAEXHM@Z	; CPythonBackground::SetViewDistanceSet
PUBLIC	?GlobalPositionToLocalPosition@CPythonBackground@@QAEXAAJ0@Z ; CPythonBackground::GlobalPositionToLocalPosition
PUBLIC	?Destroy@CPythonBackground@@QAEXXZ		; CPythonBackground::Destroy
PUBLIC	?GetPickingPointWithRayOnlyTerrain@CPythonBackground@@QAE_NABVCRay@@PAUD3DXVECTOR3@@@Z ; CPythonBackground::GetPickingPointWithRayOnlyTerrain
PUBLIC	?g_strEffectName@@3V?$basic_string@DU?$char_traits@D@std@@V?$allocator@D@2@@std@@A ; g_strEffectName
EXTRN	??_ECPythonBackground@@UAEPAXI@Z:PROC		; CPythonBackground::`vector deleting destructor'
EXTRN	??_E?$CSingleton@VCPythonBackground@@@@UAEPAXI@Z:PROC ; CSingleton<CPythonBackground>::`vector deleting destructor'
EXTRN	??_E?$RangeTester@UFGetPortalID@@@@UAEPAXI@Z:PROC ; RangeTester<FGetPortalID>::`vector deleting destructor'
EXTRN	??_E?$RangeTester@UCollisionAdjustChecker@@@@UAEPAXI@Z:PROC ; RangeTester<CollisionAdjustChecker>::`vector deleting destructor'
EXTRN	??_E?$RangeTester@UCollisionChecker@@@@UAEPAXI@Z:PROC ; RangeTester<CollisionChecker>::`vector deleting destructor'
?g_strEffectName@@3V?$basic_string@DU?$char_traits@D@std@@V?$allocator@D@2@@std@@A DB 018H DUP (?) ; g_strEffectName
_BSS	ENDS
;	COMDAT ?$TSS0@?1??SetXMaxTree@CPythonBackground@@QAEXH@Z@4HA
_BSS	SEGMENT
?$TSS0@?1??SetXMaxTree@CPythonBackground@@QAEXH@Z@4HA DD 01H DUP (?) ; `CPythonBackground::SetXMaxTree'::`2'::$TSS0
_BSS	ENDS
;	COMDAT ?s_strTreeName@?1??SetXMaxTree@CPythonBackground@@QAEXH@Z@4PAV?$basic_string@DU?$char_traits@D@std@@V?$allocator@D@2@@std@@A
_BSS	SEGMENT
?s_strTreeName@?1??SetXMaxTree@CPythonBackground@@QAEXH@Z@4PAV?$basic_string@DU?$char_traits@D@std@@V?$allocator@D@2@@std@@A DB 048H DUP (?) ; `CPythonBackground::SetXMaxTree'::`2'::s_strTreeName
_BSS	ENDS
;	COMDAT ?$TSS1@?1??SetXMaxTree@CPythonBackground@@QAEXH@Z@4HA
_BSS	SEGMENT
?$TSS1@?1??SetXMaxTree@CPythonBackground@@QAEXH@Z@4HA DD 01H DUP (?) ; `CPythonBackground::SetXMaxTree'::`2'::$TSS1
_BSS	ENDS
;	COMDAT ?s_strEffectName@?1??SetXMaxTree@CPythonBackground@@QAEXH@Z@4PAV?$basic_string@DU?$char_traits@D@std@@V?$allocator@D@2@@std@@A
_BSS	SEGMENT
?s_strEffectName@?1??SetXMaxTree@CPythonBackground@@QAEXH@Z@4PAV?$basic_string@DU?$char_traits@D@std@@V?$allocator@D@2@@std@@A DB 048H DUP (?) ; `CPythonBackground::SetXMaxTree'::`2'::s_strEffectName
_BSS	ENDS
?c_v3TreePos@@3UD3DXVECTOR3@@B DD 047956a00r	; 76500	; c_v3TreePos
	DD	0c76de400r			; -60900
	DD	0469dee00r			; 20215
CONST	ENDS
;	COMDAT xdata$x
xdata$x	SEGMENT
__ehfuncinfo$?Update@CPythonBackground@@QAEXMMM@Z DD 019930522H
	DD	02H
	DD	FLAT:__unwindtable$?Update@CPythonBackground@@QAEXMMM@Z
	DD	2 DUP(00H)
	DD	2 DUP(00H)
	DD	00H
	DD	01H
__unwindtable$?Update@CPythonBackground@@QAEXMMM@Z DD 0ffffffffH
	DD	FLAT:__unwindfunclet$?Update@CPythonBackground@@QAEXMMM@Z$0
	DD	00H
	DD	FLAT:__unwindfunclet$?Update@CPythonBackground@@QAEXMMM@Z$5
xdata$x	ENDS
;	COMDAT xdata$x
xdata$x	SEGMENT
__ehfuncinfo$??1CPythonBackground@@UAE@XZ DD 019930522H
	DD	00H
	DD	00H
	DD	2 DUP(00H)
	DD	2 DUP(00H)
	DD	00H
	DD	05H
xdata$x	ENDS
;	COMDAT xdata$x
xdata$x	SEGMENT
__ehfuncinfo$??0CPythonBackground@@QAE@XZ DD 019930522H
	DD	08H
	DD	FLAT:__unwindtable$??0CPythonBackground@@QAE@XZ
	DD	2 DUP(00H)
	DD	2 DUP(00H)
	DD	00H
	DD	01H
	ORG $+4
__unwindtable$??0CPythonBackground@@QAE@XZ DD 0ffffffffH
	DD	FLAT:__unwindfunclet$??0CPythonBackground@@QAE@XZ$0
	DD	00H
	DD	FLAT:__unwindfunclet$??0CPythonBackground@@QAE@XZ$1
	DD	01H
	DD	FLAT:__unwindfunclet$??0CPythonBackground@@QAE@XZ$2
	DD	02H
	DD	FLAT:__unwindfunclet$??0CPythonBackground@@QAE@XZ$3
	DD	03H
	DD	FLAT:__unwindfunclet$??0CPythonBackground@@QAE@XZ$4
	DD	04H
	DD	FLAT:__unwindfunclet$??0CPythonBackground@@QAE@XZ$5
	DD	05H
	DD	FLAT:__unwindfunclet$??0CPythonBackground@@QAE@XZ$6
	DD	06H
	DD	FLAT:__unwindfunclet$??0CPythonBackground@@QAE@XZ$7
xdata$x	ENDS
;	COMDAT xdata$x
xdata$x	SEGMENT
__ehfuncinfo$?Initialize@CPythonBackground@@QAEXXZ DD 019930522H
	DD	01H
	DD	FLAT:__unwindtable$?Initialize@CPythonBackground@@QAEXXZ
	DD	2 DUP(00H)
	DD	2 DUP(00H)
	DD	00H
	DD	01H
__unwindtable$?Initialize@CPythonBackground@@QAEXXZ DD 0ffffffffH
	DD	FLAT:__unwindfunclet$?Initialize@CPythonBackground@@QAEXXZ$0
xdata$x	ENDS
;	COMDAT xdata$x
xdata$x	SEGMENT
__ehfuncinfo$?__CreateProperty@CPythonBackground@@IAEXXZ DD 019930522H
	DD	01H
	DD	FLAT:__unwindtable$?__CreateProperty@CPythonBackground@@IAEXXZ
	DD	2 DUP(00H)
	DD	2 DUP(00H)
	DD	00H
	DD	01H
__unwindtable$?__CreateProperty@CPythonBackground@@IAEXXZ DD 0ffffffffH
	DD	FLAT:__unwindfunclet$?__CreateProperty@CPythonBackground@@IAEXXZ$0
xdata$x	ENDS
;	COMDAT xdata$x
xdata$x	SEGMENT
__ehfuncinfo$??RFGetPortalID@@QAEXPAVCGraphicObjectInstance@@@Z DD 019930522H
	DD	01H
	DD	FLAT:__unwindtable$??RFGetPortalID@@QAEXPAVCGraphicObjectInstance@@@Z
	DD	2 DUP(00H)
	DD	2 DUP(00H)
	DD	00H
	DD	01H
__unwindtable$??RFGetPortalID@@QAEXPAVCGraphicObjectInstance@@@Z DD 0ffffffffH
	DD	FLAT:__unwindfunclet$??RFGetPortalID@@QAEXPAVCGraphicObjectInstance@@@Z$2
xdata$x	ENDS
;	COMDAT xdata$x
xdata$x	SEGMENT
__ehfuncinfo$?CheckAdvancing@CPythonBackground@@QAE_NPAVCInstanceBase@@@Z DD 019930522H
	DD	02H
	DD	FLAT:__unwindtable$?CheckAdvancing@CPythonBackground@@QAE_NPAVCInstanceBase@@@Z
	DD	2 DUP(00H)
	DD	2 DUP(00H)
	DD	00H
	DD	01H
__unwindtable$?CheckAdvancing@CPythonBackground@@QAE_NPAVCInstanceBase@@@Z DD 0ffffffffH
	DD	FLAT:__unwindfunclet$?CheckAdvancing@CPythonBackground@@QAE_NPAVCInstanceBase@@@Z$0
	DD	0ffffffffH
	DD	FLAT:__unwindfunclet$?CheckAdvancing@CPythonBackground@@QAE_NPAVCInstanceBase@@@Z$1
xdata$x	ENDS
;	COMDAT xdata$x
xdata$x	SEGMENT
__ehfuncinfo$?RegisterDungeonMapName@CPythonBackground@@QAEXPBD@Z DD 019930522H
	DD	01H
	DD	FLAT:__unwindtable$?RegisterDungeonMapName@CPythonBackground@@QAEXPBD@Z
	DD	2 DUP(00H)
	DD	2 DUP(00H)
	DD	00H
	DD	01H
__unwindtable$?RegisterDungeonMapName@CPythonBackground@@QAEXPBD@Z DD 0ffffffffH
	DD	FLAT:__unwindfunclet$?RegisterDungeonMapName@CPythonBackground@@QAEXPBD@Z$0
xdata$x	ENDS
;	COMDAT xdata$x
xdata$x	SEGMENT
__ehfuncinfo$?SetXMaxTree@CPythonBackground@@QAEXH@Z DD 019930522H
	DD	04H
	DD	FLAT:__unwindtable$?SetXMaxTree@CPythonBackground@@QAEXH@Z
	DD	2 DUP(00H)
	DD	2 DUP(00H)
	DD	00H
	DD	01H
__unwindtable$?SetXMaxTree@CPythonBackground@@QAEXH@Z DD 0ffffffffH
	DD	FLAT:__unwindfunclet$?SetXMaxTree@CPythonBackground@@QAEXH@Z$0
	DD	00H
	DD	FLAT:__unwindfunclet$?SetXMaxTree@CPythonBackground@@QAEXH@Z$1
	DD	0ffffffffH
	DD	FLAT:__unwindfunclet$?SetXMaxTree@CPythonBackground@@QAEXH@Z$3
	DD	02H
	DD	FLAT:__unwindfunclet$?SetXMaxTree@CPythonBackground@@QAEXH@Z$4
xdata$x	ENDS
;	COMDAT xdata$x
xdata$x	SEGMENT
__ehfuncinfo$?CreateTargetEffect@CPythonBackground@@QAEXKJJ@Z DD 019930522H
	DD	01H
	DD	FLAT:__unwindtable$?CreateTargetEffect@CPythonBackground@@QAEXKJJ@Z
	DD	2 DUP(00H)
	DD	2 DUP(00H)
	DD	00H
	DD	01H
__unwindtable$?CreateTargetEffect@CPythonBackground@@QAEXKJJ@Z DD 0ffffffffH
	DD	FLAT:__unwindfunclet$?CreateTargetEffect@CPythonBackground@@QAEXKJJ@Z$2
xdata$x	ENDS
;	COMDAT xdata$x
xdata$x	SEGMENT
__ehfuncinfo$??$insert@$0A@$0A@@?$_Tree@V?$_Tset_traits@HU?$less@H@std@@V?$allocator@H@2@$0A@@std@@@std@@QAE?AU?$pair@V?$_Tree_const_iterator@V?$_Tree_val@U?$_Tree_simple_types@H@std@@@std@@@std@@_N@1@ABH@Z DD 019930522H
	DD	01H
	DD	FLAT:__unwindtable$??$insert@$0A@$0A@@?$_Tree@V?$_Tset_traits@HU?$less@H@std@@V?$allocator@H@2@$0A@@std@@@std@@QAE?AU?$pair@V?$_Tree_const_iterator@V?$_Tree_val@U?$_Tree_simple_types@H@std@@@std@@@std@@_N@1@ABH@Z
	DD	2 DUP(00H)
	DD	2 DUP(00H)
	DD	00H
	DD	01H
__unwindtable$??$insert@$0A@$0A@@?$_Tree@V?$_Tset_traits@HU?$less@H@std@@V?$allocator@H@2@$0A@@std@@@std@@QAE?AU?$pair@V?$_Tree_const_iterator@V?$_Tree_val@U?$_Tree_simple_types@H@std@@@std@@@std@@_N@1@ABH@Z DD 0ffffffffH
	DD	FLAT:__unwindfunclet$??$insert@$0A@$0A@@?$_Tree@V?$_Tset_traits@HU?$less@H@std@@V?$allocator@H@2@$0A@@std@@@std@@QAE?AU?$pair@V?$_Tree_const_iterator@V?$_Tree_val@U?$_Tree_simple_types@H@std@@@std@@@std@@_N@1@ABH@Z$2
xdata$x	ENDS
;	COMDAT xdata$x
xdata$x	SEGMENT
__ehfuncinfo$??$ForInRay@UFGetPortalID@@@CCullingManager@@QAEXABVVector3d@@0PAUFGetPortalID@@@Z DD 019930522H
	DD	01H
	DD	FLAT:__unwindtable$??$ForInRay@UFGetPortalID@@@CCullingManager@@QAEXABVVector3d@@0PAUFGetPortalID@@@Z
	DD	2 DUP(00H)
	DD	2 DUP(00H)
	DD	00H
	DD	01H
__unwindtable$??$ForInRay@UFGetPortalID@@@CCullingManager@@QAEXABVVector3d@@0PAUFGetPortalID@@@Z DD 0ffffffffH
	DD	FLAT:__unwindfunclet$??$ForInRay@UFGetPortalID@@@CCullingManager@@QAEXABVVector3d@@0PAUFGetPortalID@@@Z$0
xdata$x	ENDS
;	COMDAT xdata$x
xdata$x	SEGMENT
__ehfuncinfo$??$ForInRange@UCollisionAdjustChecker@@@CCullingManager@@QAEXABVVector3d@@MPAUCollisionAdjustChecker@@@Z DD 019930522H
	DD	01H
	DD	FLAT:__unwindtable$??$ForInRange@UCollisionAdjustChecker@@@CCullingManager@@QAEXABVVector3d@@MPAUCollisionAdjustChecker@@@Z
	DD	2 DUP(00H)
	DD	2 DUP(00H)
	DD	00H
	DD	01H
__unwindtable$??$ForInRange@UCollisionAdjustChecker@@@CCullingManager@@QAEXABVVector3d@@MPAUCollisionAdjustChecker@@@Z DD 0ffffffffH
	DD	FLAT:__unwindfunclet$??$ForInRange@UCollisionAdjustChecker@@@CCullingManager@@QAEXABVVector3d@@MPAUCollisionAdjustChecker@@@Z$0
xdata$x	ENDS
;	COMDAT xdata$x
xdata$x	SEGMENT
__ehfuncinfo$??$ForInRange@UCollisionChecker@@@CCullingManager@@QAEXABVVector3d@@MPAUCollisionChecker@@@Z DD 019930522H
	DD	01H
	DD	FLAT:__unwindtable$??$ForInRange@UCollisionChecker@@@CCullingManager@@QAEXABVVector3d@@MPAUCollisionChecker@@@Z
	DD	2 DUP(00H)
	DD	2 DUP(00H)
	DD	00H
	DD	01H
__unwindtable$??$ForInRange@UCollisionChecker@@@CCullingManager@@QAEXABVVector3d@@MPAUCollisionChecker@@@Z DD 0ffffffffH
	DD	FLAT:__unwindfunclet$??$ForInRange@UCollisionChecker@@@CCullingManager@@QAEXABVVector3d@@MPAUCollisionChecker@@@Z$0
xdata$x	ENDS
;	COMDAT xdata$x
xdata$x	SEGMENT
__ehfuncinfo$??$insert@$0A@$0A@@?$_Tree@V?$_Tset_traits@V?$basic_string@DU?$char_traits@D@std@@V?$allocator@D@2@@std@@U?$less@V?$basic_string@DU?$char_traits@D@std@@V?$allocator@D@2@@std@@@2@V?$allocator@V?$basic_string@DU?$char_traits@D@std@@V?$allocator@D@2@@std@@@2@$0A@@std@@@std@@QAE?AU?$pair@V?$_Tree_const_iterator@V?$_Tree_val@U?$_Tree_simple_types@V?$basic_string@DU?$char_traits@D@std@@V?$allocator@D@2@@std@@@std@@@std@@@std@@_N@1@$$QAV?$basic_string@DU?$char_traits@D@std@@V?$allocator@D@2@@1@@Z DD 019930522H
	DD	01H
	DD	FLAT:__unwindtable$??$insert@$0A@$0A@@?$_Tree@V?$_Tset_traits@V?$basic_string@DU?$char_traits@D@std@@V?$allocator@D@2@@std@@U?$less@V?$basic_string@DU?$char_traits@D@std@@V?$allocator@D@2@@std@@@2@V?$allocator@V?$basic_string@DU?$char_traits@D@std@@V?$allocator@D@2@@std@@@2@$0A@@std@@@std@@QAE?AU?$pair@V?$_Tree_const_iterator@V?$_Tree_val@U?$_Tree_simple_types@V?$basic_string@DU?$char_traits@D@std@@V?$allocator@D@2@@std@@@std@@@std@@@std@@_N@1@$$QAV?$basic_string@DU?$char_traits@D@std@@V?$allocator@D@2@@1@@Z
	DD	2 DUP(00H)
	DD	2 DUP(00H)
	DD	00H
	DD	01H
__unwindtable$??$insert@$0A@$0A@@?$_Tree@V?$_Tset_traits@V?$basic_string@DU?$char_traits@D@std@@V?$allocator@D@2@@std@@U?$less@V?$basic_string@DU?$char_traits@D@std@@V?$allocator@D@2@@std@@@2@V?$allocator@V?$basic_string@DU?$char_traits@D@std@@V?$allocator@D@2@@std@@@2@$0A@@std@@@std@@QAE?AU?$pair@V?$_Tree_const_iterator@V?$_Tree_val@U?$_Tree_simple_types@V?$basic_string@DU?$char_traits@D@std@@V?$allocator@D@2@@std@@@std@@@std@@@std@@_N@1@$$QAV?$basic_string@DU?$char_traits@D@std@@V?$allocator@D@2@@1@@Z DD 0ffffffffH
	DD	FLAT:__unwindfunclet$??$insert@$0A@$0A@@?$_Tree@V?$_Tset_traits@V?$basic_string@DU?$char_traits@D@std@@V?$allocator@D@2@@std@@U?$less@V?$basic_string@DU?$char_traits@D@std@@V?$allocator@D@2@@std@@@2@V?$allocator@V?$basic_string@DU?$char_traits@D@std@@V?$allocator@D@2@@std@@@2@$0A@@std@@@std@@QAE?AU?$pair@V?$_Tree_const_iterator@V?$_Tree_val@U?$_Tree_simple_types@V?$basic_string@DU?$char_traits@D@std@@V?$allocator@D@2@@std@@@std@@@std@@@std@@_N@1@$$QAV?$basic_string@DU?$char_traits@D@std@@V?$allocator@D@2@@1@@Z$2
xdata$x	ENDS
;	COMDAT xdata$x
xdata$x	SEGMENT
__ehfuncinfo$??$insert@U?$pair@KUSReserveTargetEffect@CPythonBackground@@@std@@$0A@@?$map@KUSReserveTargetEffect@CPythonBackground@@U?$less@K@std@@V?$allocator@U?$pair@$$CBKUSReserveTargetEffect@CPythonBackground@@@std@@@4@@std@@QAE?AU?$pair@V?$_Tree_iterator@V?$_Tree_val@U?$_Tree_simple_types@U?$pair@$$CBKUSReserveTargetEffect@CPythonBackground@@@std@@@std@@@std@@@std@@_N@1@$$QAU?$pair@KUSReserveTargetEffect@CPythonBackground@@@1@@Z DD 019930522H
	DD	01H
	DD	FLAT:__unwindtable$??$insert@U?$pair@KUSReserveTargetEffect@CPythonBackground@@@std@@$0A@@?$map@KUSReserveTargetEffect@CPythonBackground@@U?$less@K@std@@V?$allocator@U?$pair@$$CBKUSReserveTargetEffect@CPythonBackground@@@std@@@4@@std@@QAE?AU?$pair@V?$_Tree_iterator@V?$_Tree_val@U?$_Tree_simple_types@U?$pair@$$CBKUSReserveTargetEffect@CPythonBackground@@@std@@@std@@@std@@@std@@_N@1@$$QAU?$pair@KUSReserveTargetEffect@CPythonBackground@@@1@@Z
	DD	2 DUP(00H)
	DD	2 DUP(00H)
	DD	00H
	DD	01H
__unwindtable$??$insert@U?$pair@KUSReserveTargetEffect@CPythonBackground@@@std@@$0A@@?$map@KUSReserveTargetEffect@CPythonBackground@@U?$less@K@std@@V?$allocator@U?$pair@$$CBKUSReserveTargetEffect@CPythonBackground@@@std@@@4@@std@@QAE?AU?$pair@V?$_Tree_iterator@V?$_Tree_val@U?$_Tree_simple_types@U?$pair@$$CBKUSReserveTargetEffect@CPythonBackground@@@std@@@std@@@std@@@std@@_N@1@$$QAU?$pair@KUSReserveTargetEffect@CPythonBackground@@@1@@Z DD 0ffffffffH
	DD	FLAT:__unwindfunclet$??$insert@U?$pair@KUSReserveTargetEffect@CPythonBackground@@@std@@$0A@@?$map@KUSReserveTargetEffect@CPythonBackground@@U?$less@K@std@@V?$allocator@U?$pair@$$CBKUSReserveTargetEffect@CPythonBackground@@@std@@@4@@std@@QAE?AU?$pair@V?$_Tree_iterator@V?$_Tree_val@U?$_Tree_simple_types@U?$pair@$$CBKUSReserveTargetEffect@CPythonBackground@@@std@@@std@@@std@@@std@@_N@1@$$QAU?$pair@KUSReserveTargetEffect@CPythonBackground@@@1@@Z$2
xdata$x	ENDS
;	COMDAT xdata$x
xdata$x	SEGMENT
__ehfuncinfo$??$_Emplace@ABH@?$_Tree@V?$_Tset_traits@HU?$less@H@std@@V?$allocator@H@2@$0A@@std@@@std@@IAE?AU?$pair@PAU?$_Tree_node@HPAX@std@@_N@1@ABH@Z DD 019930522H
	DD	01H
	DD	FLAT:__unwindtable$??$_Emplace@ABH@?$_Tree@V?$_Tset_traits@HU?$less@H@std@@V?$allocator@H@2@$0A@@std@@@std@@IAE?AU?$pair@PAU?$_Tree_node@HPAX@std@@_N@1@ABH@Z
	DD	2 DUP(00H)
	DD	2 DUP(00H)
	DD	00H
	DD	01H
__unwindtable$??$_Emplace@ABH@?$_Tree@V?$_Tset_traits@HU?$less@H@std@@V?$allocator@H@2@$0A@@std@@@std@@IAE?AU?$pair@PAU?$_Tree_node@HPAX@std@@_N@1@ABH@Z DD 0ffffffffH
	DD	FLAT:__unwindfunclet$??$_Emplace@ABH@?$_Tree@V?$_Tset_traits@HU?$less@H@std@@V?$allocator@H@2@$0A@@std@@@std@@IAE?AU?$pair@PAU?$_Tree_node@HPAX@std@@_N@1@ABH@Z$2
xdata$x	ENDS
;	COMDAT xdata$x
xdata$x	SEGMENT
__ehfuncinfo$??$_Emplace@V?$basic_string@DU?$char_traits@D@std@@V?$allocator@D@2@@std@@@?$_Tree@V?$_Tset_traits@V?$basic_string@DU?$char_traits@D@std@@V?$allocator@D@2@@std@@U?$less@V?$basic_string@DU?$char_traits@D@std@@V?$allocator@D@2@@std@@@2@V?$allocator@V?$basic_string@DU?$char_traits@D@std@@V?$allocator@D@2@@std@@@2@$0A@@std@@@std@@IAE?AU?$pair@PAU?$_Tree_node@V?$basic_string@DU?$char_traits@D@std@@V?$allocator@D@2@@std@@PAX@std@@_N@1@$$QAV?$basic_string@DU?$char_traits@D@std@@V?$allocator@D@2@@1@@Z DD 019930522H
	DD	01H
	DD	FLAT:__unwindtable$??$_Emplace@V?$basic_string@DU?$char_traits@D@std@@V?$allocator@D@2@@std@@@?$_Tree@V?$_Tset_traits@V?$basic_string@DU?$char_traits@D@std@@V?$allocator@D@2@@std@@U?$less@V?$basic_string@DU?$char_traits@D@std@@V?$allocator@D@2@@std@@@2@V?$allocator@V?$basic_string@DU?$char_traits@D@std@@V?$allocator@D@2@@std@@@2@$0A@@std@@@std@@IAE?AU?$pair@PAU?$_Tree_node@V?$basic_string@DU?$char_traits@D@std@@V?$allocator@D@2@@std@@PAX@std@@_N@1@$$QAV?$basic_string@DU?$char_traits@D@std@@V?$allocator@D@2@@1@@Z
	DD	2 DUP(00H)
	DD	2 DUP(00H)
	DD	00H
	DD	01H
__unwindtable$??$_Emplace@V?$basic_string@DU?$char_traits@D@std@@V?$allocator@D@2@@std@@@?$_Tree@V?$_Tset_traits@V?$basic_string@DU?$char_traits@D@std@@V?$allocator@D@2@@std@@U?$less@V?$basic_string@DU?$char_traits@D@std@@V?$allocator@D@2@@std@@@2@V?$allocator@V?$basic_string@DU?$char_traits@D@std@@V?$allocator@D@2@@std@@@2@$0A@@std@@@std@@IAE?AU?$pair@PAU?$_Tree_node@V?$basic_string@DU?$char_traits@D@std@@V?$allocator@D@2@@std@@PAX@std@@_N@1@$$QAV?$basic_string@DU?$char_traits@D@std@@V?$allocator@D@2@@1@@Z DD 0ffffffffH
	DD	FLAT:__unwindfunclet$??$_Emplace@V?$basic_string@DU?$char_traits@D@std@@V?$allocator@D@2@@std@@@?$_Tree@V?$_Tset_traits@V?$basic_string@DU?$char_traits@D@std@@V?$allocator@D@2@@std@@U?$less@V?$basic_string@DU?$char_traits@D@std@@V?$allocator@D@2@@std@@@2@V?$allocator@V?$basic_string@DU?$char_traits@D@std@@V?$allocator@D@2@@std@@@2@$0A@@std@@@std@@IAE?AU?$pair@PAU?$_Tree_node@V?$basic_string@DU?$char_traits@D@std@@V?$allocator@D@2@@std@@PAX@std@@_N@1@$$QAV?$basic_string@DU?$char_traits@D@std@@V?$allocator@D@2@@1@@Z$2
xdata$x	ENDS
;	COMDAT xdata$x
xdata$x	SEGMENT
__ehfuncinfo$??$emplace@U?$pair@KUSReserveTargetEffect@CPythonBackground@@@std@@@?$_Tree@V?$_Tmap_traits@KUSReserveTargetEffect@CPythonBackground@@U?$less@K@std@@V?$allocator@U?$pair@$$CBKUSReserveTargetEffect@CPythonBackground@@@std@@@4@$0A@@std@@@std@@QAE?AU?$pair@V?$_Tree_iterator@V?$_Tree_val@U?$_Tree_simple_types@U?$pair@$$CBKUSReserveTargetEffect@CPythonBackground@@@std@@@std@@@std@@@std@@_N@1@$$QAU?$pair@KUSReserveTargetEffect@CPythonBackground@@@1@@Z DD 019930522H
	DD	01H
	DD	FLAT:__unwindtable$??$emplace@U?$pair@KUSReserveTargetEffect@CPythonBackground@@@std@@@?$_Tree@V?$_Tmap_traits@KUSReserveTargetEffect@CPythonBackground@@U?$less@K@std@@V?$allocator@U?$pair@$$CBKUSReserveTargetEffect@CPythonBackground@@@std@@@4@$0A@@std@@@std@@QAE?AU?$pair@V?$_Tree_iterator@V?$_Tree_val@U?$_Tree_simple_types@U?$pair@$$CBKUSReserveTargetEffect@CPythonBackground@@@std@@@std@@@std@@@std@@_N@1@$$QAU?$pair@KUSReserveTargetEffect@CPythonBackground@@@1@@Z
	DD	2 DUP(00H)
	DD	2 DUP(00H)
	DD	00H
	DD	01H
__unwindtable$??$emplace@U?$pair@KUSReserveTargetEffect@CPythonBackground@@@std@@@?$_Tree@V?$_Tmap_traits@KUSReserveTargetEffect@CPythonBackground@@U?$less@K@std@@V?$allocator@U?$pair@$$CBKUSReserveTargetEffect@CPythonBackground@@@std@@@4@$0A@@std@@@std@@QAE?AU?$pair@V?$_Tree_iterator@V?$_Tree_val@U?$_Tree_simple_types@U?$pair@$$CBKUSReserveTargetEffect@CPythonBackground@@@std@@@std@@@std@@@std@@_N@1@$$QAU?$pair@KUSReserveTargetEffect@CPythonBackground@@@1@@Z DD 0ffffffffH
	DD	FLAT:__unwindfunclet$??$emplace@U?$pair@KUSReserveTargetEffect@CPythonBackground@@@std@@@?$_Tree@V?$_Tmap_traits@KUSReserveTargetEffect@CPythonBackground@@U?$less@K@std@@V?$allocator@U?$pair@$$CBKUSReserveTargetEffect@CPythonBackground@@@std@@@4@$0A@@std@@@std@@QAE?AU?$pair@V?$_Tree_iterator@V?$_Tree_val@U?$_Tree_simple_types@U?$pair@$$CBKUSReserveTargetEffect@CPythonBackground@@@std@@@std@@@std@@@std@@_N@1@$$QAU?$pair@KUSReserveTargetEffect@CPythonBackground@@@1@@Z$2
xdata$x	ENDS
;	COMDAT xdata$x
xdata$x	SEGMENT
__ehfuncinfo$??$?0ABH@?$_Tree_temp_node@V?$allocator@U?$_Tree_node@HPAX@std@@@std@@@std@@QAE@AAV?$allocator@U?$_Tree_node@HPAX@std@@@1@PAU?$_Tree_node@HPAX@1@ABH@Z DD 019930522H
	DD	01H
	DD	FLAT:__unwindtable$??$?0ABH@?$_Tree_temp_node@V?$allocator@U?$_Tree_node@HPAX@std@@@std@@@std@@QAE@AAV?$allocator@U?$_Tree_node@HPAX@std@@@1@PAU?$_Tree_node@HPAX@1@ABH@Z
	DD	2 DUP(00H)
	DD	2 DUP(00H)
	DD	00H
	DD	01H
__unwindtable$??$?0ABH@?$_Tree_temp_node@V?$allocator@U?$_Tree_node@HPAX@std@@@std@@@std@@QAE@AAV?$allocator@U?$_Tree_node@HPAX@std@@@1@PAU?$_Tree_node@HPAX@1@ABH@Z DD 0ffffffffH
	DD	FLAT:__unwindfunclet$??$?0ABH@?$_Tree_temp_node@V?$allocator@U?$_Tree_node@HPAX@std@@@std@@@std@@QAE@AAV?$allocator@U?$_Tree_node@HPAX@std@@@1@PAU?$_Tree_node@HPAX@1@ABH@Z$1
xdata$x	ENDS
;	COMDAT xdata$x
xdata$x	SEGMENT
__ehfuncinfo$??$?0V?$basic_string@DU?$char_traits@D@std@@V?$allocator@D@2@@std@@@?$_Tree_temp_node@V?$allocator@U?$_Tree_node@V?$basic_string@DU?$char_traits@D@std@@V?$allocator@D@2@@std@@PAX@std@@@std@@@std@@QAE@AAV?$allocator@U?$_Tree_node@V?$basic_string@DU?$char_traits@D@std@@V?$allocator@D@2@@std@@PAX@std@@@1@PAU?$_Tree_node@V?$basic_string@DU?$char_traits@D@std@@V?$allocator@D@2@@std@@PAX@1@$$QAV?$basic_string@DU?$char_traits@D@std@@V?$allocator@D@2@@1@@Z DD 019930522H
	DD	01H
	DD	FLAT:__unwindtable$??$?0V?$basic_string@DU?$char_traits@D@std@@V?$allocator@D@2@@std@@@?$_Tree_temp_node@V?$allocator@U?$_Tree_node@V?$basic_string@DU?$char_traits@D@std@@V?$allocator@D@2@@std@@PAX@std@@@std@@@std@@QAE@AAV?$allocator@U?$_Tree_node@V?$basic_string@DU?$char_traits@D@std@@V?$allocator@D@2@@std@@PAX@std@@@1@PAU?$_Tree_node@V?$basic_string@DU?$char_traits@D@std@@V?$allocator@D@2@@std@@PAX@1@$$QAV?$basic_string@DU?$char_traits@D@std@@V?$allocator@D@2@@1@@Z
	DD	2 DUP(00H)
	DD	2 DUP(00H)
	DD	00H
	DD	01H
__unwindtable$??$?0V?$basic_string@DU?$char_traits@D@std@@V?$allocator@D@2@@std@@@?$_Tree_temp_node@V?$allocator@U?$_Tree_node@V?$basic_string@DU?$char_traits@D@std@@V?$allocator@D@2@@std@@PAX@std@@@std@@@std@@QAE@AAV?$allocator@U?$_Tree_node@V?$basic_string@DU?$char_traits@D@std@@V?$allocator@D@2@@std@@PAX@std@@@1@PAU?$_Tree_node@V?$basic_string@DU?$char_traits@D@std@@V?$allocator@D@2@@std@@PAX@1@$$QAV?$basic_string@DU?$char_traits@D@std@@V?$allocator@D@2@@1@@Z DD 0ffffffffH
	DD	FLAT:__unwindfunclet$??$?0V?$basic_string@DU?$char_traits@D@std@@V?$allocator@D@2@@std@@@?$_Tree_temp_node@V?$allocator@U?$_Tree_node@V?$basic_string@DU?$char_traits@D@std@@V?$allocator@D@2@@std@@PAX@std@@@std@@@std@@QAE@AAV?$allocator@U?$_Tree_node@V?$basic_string@DU?$char_traits@D@std@@V?$allocator@D@2@@std@@PAX@std@@@1@PAU?$_Tree_node@V?$basic_string@DU?$char_traits@D@std@@V?$allocator@D@2@@std@@PAX@1@$$QAV?$basic_string@DU?$char_traits@D@std@@V?$allocator@D@2@@1@@Z$1
xdata$x	ENDS
;	COMDAT xdata$x
xdata$x	SEGMENT
__ehfuncinfo$??$_Emplace@U?$pair@KUSReserveTargetEffect@CPythonBackground@@@std@@@?$_Tree@V?$_Tmap_traits@KUSReserveTargetEffect@CPythonBackground@@U?$less@K@std@@V?$allocator@U?$pair@$$CBKUSReserveTargetEffect@CPythonBackground@@@std@@@4@$0A@@std@@@std@@IAE?AU?$pair@PAU?$_Tree_node@U?$pair@$$CBKUSReserveTargetEffect@CPythonBackground@@@std@@PAX@std@@_N@1@$$QAU?$pair@KUSReserveTargetEffect@CPythonBackground@@@1@@Z DD 019930522H
	DD	01H
	DD	FLAT:__unwindtable$??$_Emplace@U?$pair@KUSReserveTargetEffect@CPythonBackground@@@std@@@?$_Tree@V?$_Tmap_traits@KUSReserveTargetEffect@CPythonBackground@@U?$less@K@std@@V?$allocator@U?$pair@$$CBKUSReserveTargetEffect@CPythonBackground@@@std@@@4@$0A@@std@@@std@@IAE?AU?$pair@PAU?$_Tree_node@U?$pair@$$CBKUSReserveTargetEffect@CPythonBackground@@@std@@PAX@std@@_N@1@$$QAU?$pair@KUSReserveTargetEffect@CPythonBackground@@@1@@Z
	DD	2 DUP(00H)
	DD	2 DUP(00H)
	DD	00H
	DD	01H
__unwindtable$??$_Emplace@U?$pair@KUSReserveTargetEffect@CPythonBackground@@@std@@@?$_Tree@V?$_Tmap_traits@KUSReserveTargetEffect@CPythonBackground@@U?$less@K@std@@V?$allocator@U?$pair@$$CBKUSReserveTargetEffect@CPythonBackground@@@std@@@4@$0A@@std@@@std@@IAE?AU?$pair@PAU?$_Tree_node@U?$pair@$$CBKUSReserveTargetEffect@CPythonBackground@@@std@@PAX@std@@_N@1@$$QAU?$pair@KUSReserveTargetEffect@CPythonBackground@@@1@@Z DD 0ffffffffH
	DD	FLAT:__unwindfunclet$??$_Emplace@U?$pair@KUSReserveTargetEffect@CPythonBackground@@@std@@@?$_Tree@V?$_Tmap_traits@KUSReserveTargetEffect@CPythonBackground@@U?$less@K@std@@V?$allocator@U?$pair@$$CBKUSReserveTargetEffect@CPythonBackground@@@std@@@4@$0A@@std@@@std@@IAE?AU?$pair@PAU?$_Tree_node@U?$pair@$$CBKUSReserveTargetEffect@CPythonBackground@@@std@@PAX@std@@_N@1@$$QAU?$pair@KUSReserveTargetEffect@CPythonBackground@@@1@@Z$2
xdata$x	ENDS
;	COMDAT xdata$x
xdata$x	SEGMENT
__ehfuncinfo$??$?0U?$pair@KUSReserveTargetEffect@CPythonBackground@@@std@@@?$_Tree_temp_node@V?$allocator@U?$_Tree_node@U?$pair@$$CBKUSReserveTargetEffect@CPythonBackground@@@std@@PAX@std@@@std@@@std@@QAE@AAV?$allocator@U?$_Tree_node@U?$pair@$$CBKUSReserveTargetEffect@CPythonBackground@@@std@@PAX@std@@@1@PAU?$_Tree_node@U?$pair@$$CBKUSReserveTargetEffect@CPythonBackground@@@std@@PAX@1@$$QAU?$pair@KUSReserveTargetEffect@CPythonBackground@@@1@@Z DD 019930522H
	DD	01H
	DD	FLAT:__unwindtable$??$?0U?$pair@KUSReserveTargetEffect@CPythonBackground@@@std@@@?$_Tree_temp_node@V?$allocator@U?$_Tree_node@U?$pair@$$CBKUSReserveTargetEffect@CPythonBackground@@@std@@PAX@std@@@std@@@std@@QAE@AAV?$allocator@U?$_Tree_node@U?$pair@$$CBKUSReserveTargetEffect@CPythonBackground@@@std@@PAX@std@@@1@PAU?$_Tree_node@U?$pair@$$CBKUSReserveTargetEffect@CPythonBackground@@@std@@PAX@1@$$QAU?$pair@KUSReserveTargetEffect@CPythonBackground@@@1@@Z
	DD	2 DUP(00H)
	DD	2 DUP(00H)
	DD	00H
	DD	01H
__unwindtable$??$?0U?$pair@KUSReserveTargetEffect@CPythonBackground@@@std@@@?$_Tree_temp_node@V?$allocator@U?$_Tree_node@U?$pair@$$CBKUSReserveTargetEffect@CPythonBackground@@@std@@PAX@std@@@std@@@std@@QAE@AAV?$allocator@U?$_Tree_node@U?$pair@$$CBKUSReserveTargetEffect@CPythonBackground@@@std@@PAX@std@@@1@PAU?$_Tree_node@U?$pair@$$CBKUSReserveTargetEffect@CPythonBackground@@@std@@PAX@1@$$QAU?$pair@KUSReserveTargetEffect@CPythonBackground@@@1@@Z DD 0ffffffffH
	DD	FLAT:__unwindfunclet$??$?0U?$pair@KUSReserveTargetEffect@CPythonBackground@@@std@@@?$_Tree_temp_node@V?$allocator@U?$_Tree_node@U?$pair@$$CBKUSReserveTargetEffect@CPythonBackground@@@std@@PAX@std@@@std@@@std@@QAE@AAV?$allocator@U?$_Tree_node@U?$pair@$$CBKUSReserveTargetEffect@CPythonBackground@@@std@@PAX@std@@@1@PAU?$_Tree_node@U?$pair@$$CBKUSReserveTargetEffect@CPythonBackground@@@std@@PAX@1@$$QAU?$pair@KUSReserveTargetEffect@CPythonBackground@@@1@@Z$1
xdata$x	ENDS
;	COMDAT xdata$x
xdata$x	SEGMENT
__ehfuncinfo$??$_Copy_nodes@$0A@@?$_Tree@V?$_Tset_traits@HU?$less@H@std@@V?$allocator@H@2@$0A@@std@@@std@@IAEPAU?$_Tree_node@HPAX@1@PAU21@0@Z DD 019930522H
	DD	02H
	DD	FLAT:__unwindtable$??$_Copy_nodes@$0A@@?$_Tree@V?$_Tset_traits@HU?$less@H@std@@V?$allocator@H@2@$0A@@std@@@std@@IAEPAU?$_Tree_node@HPAX@1@PAU21@0@Z
	DD	2 DUP(00H)
	DD	2 DUP(00H)
	DD	00H
	DD	01H
__unwindtable$??$_Copy_nodes@$0A@@?$_Tree@V?$_Tset_traits@HU?$less@H@std@@V?$allocator@H@2@$0A@@std@@@std@@IAEPAU?$_Tree_node@HPAX@1@PAU21@0@Z DD 0ffffffffH
	DD	FLAT:__unwindfunclet$??$_Copy_nodes@$0A@@?$_Tree@V?$_Tset_traits@HU?$less@H@std@@V?$allocator@H@2@$0A@@std@@@std@@IAEPAU?$_Tree_node@HPAX@1@PAU21@0@Z$1
	DD	0ffffffffH
	DD	FLAT:__unwindfunclet$??$_Copy_nodes@$0A@@?$_Tree@V?$_Tset_traits@HU?$less@H@std@@V?$allocator@H@2@$0A@@std@@@std@@IAEPAU?$_Tree_node@HPAX@1@PAU21@0@Z$0
xdata$x	ENDS
;	COMDAT xdata$x
xdata$x	SEGMENT
__ehfuncinfo$??0?$_Tree_temp_node_alloc@V?$allocator@U?$_Tree_node@V?$basic_string@DU?$char_traits@D@std@@V?$allocator@D@2@@std@@PAX@std@@@std@@@std@@QAE@AAV?$allocator@U?$_Tree_node@V?$basic_string@DU?$char_traits@D@std@@V?$allocator@D@2@@std@@PAX@std@@@1@@Z DD 019930522H
	DD	01H
	DD	FLAT:__unwindtable$??0?$_Tree_temp_node_alloc@V?$allocator@U?$_Tree_node@V?$basic_string@DU?$char_traits@D@std@@V?$allocator@D@2@@std@@PAX@std@@@std@@@std@@QAE@AAV?$allocator@U?$_Tree_node@V?$basic_string@DU?$char_traits@D@std@@V?$allocator@D@2@@std@@PAX@std@@@1@@Z
	DD	2 DUP(00H)
	DD	2 DUP(00H)
	DD	00H
	DD	01H
__unwindtable$??0?$_Tree_temp_node_alloc@V?$allocator@U?$_Tree_node@V?$basic_string@DU?$char_traits@D@std@@V?$allocator@D@2@@std@@PAX@std@@@std@@@std@@QAE@AAV?$allocator@U?$_Tree_node@V?$basic_string@DU?$char_traits@D@std@@V?$allocator@D@2@@std@@PAX@std@@@1@@Z DD 0ffffffffH
	DD	FLAT:__unwindfunclet$??0?$_Tree_temp_node_alloc@V?$allocator@U?$_Tree_node@V?$basic_string@DU?$char_traits@D@std@@V?$allocator@D@2@@std@@PAX@std@@@std@@@std@@QAE@AAV?$allocator@U?$_Tree_node@V?$basic_string@DU?$char_traits@D@std@@V?$allocator@D@2@@std@@PAX@std@@@1@@Z$0
xdata$x	ENDS
;	COMDAT xdata$x
xdata$x	SEGMENT
__ehfuncinfo$??0?$_Tree_temp_node_alloc@V?$allocator@U?$_Tree_node@HPAX@std@@@std@@@std@@QAE@AAV?$allocator@U?$_Tree_node@HPAX@std@@@1@@Z DD 019930522H
	DD	01H
	DD	FLAT:__unwindtable$??0?$_Tree_temp_node_alloc@V?$allocator@U?$_Tree_node@HPAX@std@@@std@@@std@@QAE@AAV?$allocator@U?$_Tree_node@HPAX@std@@@1@@Z
	DD	2 DUP(00H)
	DD	2 DUP(00H)
	DD	00H
	DD	01H
__unwindtable$??0?$_Tree_temp_node_alloc@V?$allocator@U?$_Tree_node@HPAX@std@@@std@@@std@@QAE@AAV?$allocator@U?$_Tree_node@HPAX@std@@@1@@Z DD 0ffffffffH
	DD	FLAT:__unwindfunclet$??0?$_Tree_temp_node_alloc@V?$allocator@U?$_Tree_node@HPAX@std@@@std@@@std@@QAE@AAV?$allocator@U?$_Tree_node@HPAX@std@@@1@@Z$0
xdata$x	ENDS
;	COMDAT xdata$x
xdata$x	SEGMENT
__ehfuncinfo$??$_Copy_or_move@$0A@H@?$_Tree@V?$_Tset_traits@HU?$less@H@std@@V?$allocator@H@2@$0A@@std@@@std@@IAEPAU?$_Tree_node@HPAX@1@AAH@Z DD 019930522H
	DD	01H
	DD	FLAT:__unwindtable$??$_Copy_or_move@$0A@H@?$_Tree@V?$_Tset_traits@HU?$less@H@std@@V?$allocator@H@2@$0A@@std@@@std@@IAEPAU?$_Tree_node@HPAX@1@AAH@Z
	DD	2 DUP(00H)
	DD	2 DUP(00H)
	DD	00H
	DD	01H
__unwindtable$??$_Copy_or_move@$0A@H@?$_Tree@V?$_Tset_traits@HU?$less@H@std@@V?$allocator@H@2@$0A@@std@@@std@@IAEPAU?$_Tree_node@HPAX@1@AAH@Z DD 0ffffffffH
	DD	FLAT:__unwindfunclet$??$_Copy_or_move@$0A@H@?$_Tree@V?$_Tset_traits@HU?$less@H@std@@V?$allocator@H@2@$0A@@std@@@std@@IAEPAU?$_Tree_node@HPAX@1@AAH@Z$0
xdata$x	ENDS
;	COMDAT xdata$x
xdata$x	SEGMENT
__ehfuncinfo$??0?$_Tree_temp_node_alloc@V?$allocator@U?$_Tree_node@U?$pair@$$CBKUSReserveTargetEffect@CPythonBackground@@@std@@PAX@std@@@std@@@std@@QAE@AAV?$allocator@U?$_Tree_node@U?$pair@$$CBKUSReserveTargetEffect@CPythonBackground@@@std@@PAX@std@@@1@@Z DD 019930522H
	DD	01H
	DD	FLAT:__unwindtable$??0?$_Tree_temp_node_alloc@V?$allocator@U?$_Tree_node@U?$pair@$$CBKUSReserveTargetEffect@CPythonBackground@@@std@@PAX@std@@@std@@@std@@QAE@AAV?$allocator@U?$_Tree_node@U?$pair@$$CBKUSReserveTargetEffect@CPythonBackground@@@std@@PAX@std@@@1@@Z
	DD	2 DUP(00H)
	DD	2 DUP(00H)
	DD	00H
	DD	01H
__unwindtable$??0?$_Tree_temp_node_alloc@V?$allocator@U?$_Tree_node@U?$pair@$$CBKUSReserveTargetEffect@CPythonBackground@@@std@@PAX@std@@@std@@@std@@QAE@AAV?$allocator@U?$_Tree_node@U?$pair@$$CBKUSReserveTargetEffect@CPythonBackground@@@std@@PAX@std@@@1@@Z DD 0ffffffffH
	DD	FLAT:__unwindfunclet$??0?$_Tree_temp_node_alloc@V?$allocator@U?$_Tree_node@U?$pair@$$CBKUSReserveTargetEffect@CPythonBackground@@@std@@PAX@std@@@std@@@std@@QAE@AAV?$allocator@U?$_Tree_node@U?$pair@$$CBKUSReserveTargetEffect@CPythonBackground@@@std@@PAX@std@@@1@@Z$0
xdata$x	ENDS
;	COMDAT xdata$x
xdata$x	SEGMENT
__ehfuncinfo$??$_Buynode@AAH@?$_Tree@V?$_Tset_traits@HU?$less@H@std@@V?$allocator@H@2@$0A@@std@@@std@@IAEPAU?$_Tree_node@HPAX@1@AAH@Z DD 019930522H
	DD	01H
	DD	FLAT:__unwindtable$??$_Buynode@AAH@?$_Tree@V?$_Tset_traits@HU?$less@H@std@@V?$allocator@H@2@$0A@@std@@@std@@IAEPAU?$_Tree_node@HPAX@1@AAH@Z
	DD	2 DUP(00H)
	DD	2 DUP(00H)
	DD	00H
	DD	01H
__unwindtable$??$_Buynode@AAH@?$_Tree@V?$_Tset_traits@HU?$less@H@std@@V?$allocator@H@2@$0A@@std@@@std@@IAEPAU?$_Tree_node@HPAX@1@AAH@Z DD 0ffffffffH
	DD	FLAT:__unwindfunclet$??$_Buynode@AAH@?$_Tree@V?$_Tset_traits@HU?$less@H@std@@V?$allocator@H@2@$0A@@std@@@std@@IAEPAU?$_Tree_node@HPAX@1@AAH@Z$0
xdata$x	ENDS
;	COMDAT xdata$x
xdata$x	SEGMENT
__ehfuncinfo$??$_Buynode@V?$allocator@U?$_Tree_node@HPAX@std@@@std@@AAH@?$_Tree_node@HPAX@std@@SAPAU01@AAV?$allocator@U?$_Tree_node@HPAX@std@@@1@PAU01@AAH@Z DD 019930522H
	DD	01H
	DD	FLAT:__unwindtable$??$_Buynode@V?$allocator@U?$_Tree_node@HPAX@std@@@std@@AAH@?$_Tree_node@HPAX@std@@SAPAU01@AAV?$allocator@U?$_Tree_node@HPAX@std@@@1@PAU01@AAH@Z
	DD	2 DUP(00H)
	DD	2 DUP(00H)
	DD	00H
	DD	01H
__unwindtable$??$_Buynode@V?$allocator@U?$_Tree_node@HPAX@std@@@std@@AAH@?$_Tree_node@HPAX@std@@SAPAU01@AAV?$allocator@U?$_Tree_node@HPAX@std@@@1@PAU01@AAH@Z DD 0ffffffffH
	DD	FLAT:__unwindfunclet$??$_Buynode@V?$allocator@U?$_Tree_node@HPAX@std@@@std@@AAH@?$_Tree_node@HPAX@std@@SAPAU01@AAV?$allocator@U?$_Tree_node@HPAX@std@@@1@PAU01@AAH@Z$0
?g_strEffectName$initializer$@@3P6AXXZA DD FLAT:??__Eg_strEffectName@@YAXXZ ; g_strEffectName$initializer$
; Function compile flags: /Ogtp
; File D:\_m2work\txoko-m2-work\txoko-client-src\source\UserInterface\PythonBackground.cpp
;	COMDAT ?GetPickingPointWithRayOnlyTerrain@CPythonBackground@@QAE_NABVCRay@@PAUD3DXVECTOR3@@@Z
_TEXT	SEGMENT
_rRay$ = 8						; size = 4
_v3IntersectPt$ = 12					; size = 4
?GetPickingPointWithRayOnlyTerrain@CPythonBackground@@QAE_NABVCRay@@PAUD3DXVECTOR3@@@Z PROC ; CPythonBackground::GetPickingPointWithRayOnlyTerrain, COMDAT
; _this$ = ecx

; 276  : {

  00000	55		 push	 ebp
  00001	8b ec		 mov	 ebp, esp

; 277  : 	CMapOutdoor& rkMap=GetMapOutdoorRef();

  00003	e8 00 00 00 00	 call	 ?GetMapOutdoorRef@CMapManager@@QAEAAVCMapOutdoor@@XZ ; CMapManager::GetMapOutdoorRef

; 278  : 	return rkMap.GetPickingPointWithRayOnlyTerrain(rRay, v3IntersectPt);

  00008	8b c8		 mov	 ecx, eax

; 279  : }

  0000a	5d		 pop	 ebp

; 278  : 	return rkMap.GetPickingPointWithRayOnlyTerrain(rRay, v3IntersectPt);

  0000b	e9 00 00 00 00	 jmp	 ?GetPickingPointWithRayOnlyTerrain@CMapOutdoor@@QAE_NABVCRay@@PAUD3DXVECTOR3@@@Z ; CMapOutdoor::GetPickingPointWithRayOnlyTerrain
?GetPickingPointWithRayOnlyTerrain@CPythonBackground@@QAE_NABVCRay@@PAUD3DXVECTOR3@@@Z ENDP ; CPythonBackground::GetPickingPointWithRayOnlyTerrain
_TEXT	ENDS
; Function compile flags: /Ogtp
; File D:\_m2work\txoko-m2-work\txoko-client-src\source\UserInterface\PythonBackground.cpp
;	COMDAT ?Destroy@CPythonBackground@@QAEXXZ
_TEXT	SEGMENT
?Destroy@CPythonBackground@@QAEXXZ PROC			; CPythonBackground::Destroy, COMDAT
; _this$ = ecx

; 296  : {

  00000	56		 push	 esi
  00001	8b f1		 mov	 esi, ecx

; 297  : 	CMapManager::Destroy();

  00003	e8 00 00 00 00	 call	 ?Destroy@CMapManager@@QAEXXZ ; CMapManager::Destroy

; 298  : 	m_SnowEnvironment.Destroy();

  00008	8d 8e 10 15 00
	00		 lea	 ecx, DWORD PTR [esi+5392]
  0000e	e8 00 00 00 00	 call	 ?Destroy@CSnowEnvironment@@QAEXXZ ; CSnowEnvironment::Destroy

; 299  : 	m_bVisibleGuildArea = FALSE;

  00013	c7 86 78 15 00
	00 00 00 00 00	 mov	 DWORD PTR [esi+5496], 0
  0001d	5e		 pop	 esi

; 300  : }

  0001e	c3		 ret	 0
?Destroy@CPythonBackground@@QAEXXZ ENDP			; CPythonBackground::Destroy
_TEXT	ENDS
; Function compile flags: /Ogtp
; File D:\_m2work\txoko-m2-work\txoko-client-src\source\UserInterface\PythonBackground.cpp
;	COMDAT ?GlobalPositionToLocalPosition@CPythonBackground@@QAEXAAJ0@Z
_TEXT	SEGMENT
_rGlobalX$ = 8						; size = 4
_rGlobalY$ = 12						; size = 4
?GlobalPositionToLocalPosition@CPythonBackground@@QAEXAAJ0@Z PROC ; CPythonBackground::GlobalPositionToLocalPosition, COMDAT
; _this$ = ecx

; 706  : {

  00000	55		 push	 ebp
  00001	8b ec		 mov	 ebp, esp

; 707  : 	rGlobalX-=m_dwBaseX;

  00003	8b 45 08	 mov	 eax, DWORD PTR _rGlobalX$[ebp]
  00006	8b 91 80 15 00
	00		 mov	 edx, DWORD PTR [ecx+5504]
  0000c	29 10		 sub	 DWORD PTR [eax], edx

; 708  : 	rGlobalY-=m_dwBaseY;

  0000e	8b 45 0c	 mov	 eax, DWORD PTR _rGlobalY$[ebp]
  00011	8b 89 84 15 00
	00		 mov	 ecx, DWORD PTR [ecx+5508]
  00017	29 08		 sub	 DWORD PTR [eax], ecx

; 709  : }

  00019	5d		 pop	 ebp
  0001a	c2 08 00	 ret	 8
?GlobalPositionToLocalPosition@CPythonBackground@@QAEXAAJ0@Z ENDP ; CPythonBackground::GlobalPositionToLocalPosition
_TEXT	ENDS
; Function compile flags: /Ogtp
; File D:\_m2work\txoko-m2-work\txoko-client-src\source\UserInterface\PythonBackground.cpp
;	COMDAT ?SetViewDistanceSet@CPythonBackground@@QAEXHM@Z
_TEXT	SEGMENT
_eNum$ = 8						; size = 4
?SetViewDistanceSet@CPythonBackground@@QAEXHM@Z PROC	; CPythonBackground::SetViewDistanceSet, COMDAT
; _this$ = ecx
; _fFarClip$ = xmm2s

; 158  : {

  00000	55		 push	 ebp
  00001	8b ec		 mov	 ebp, esp

; 159  : 	if (!m_pkMap)

  00003	83 b9 48 14 00
	00 00		 cmp	 DWORD PTR [ecx+5192], 0
  0000a	74 71		 je	 SHORT $LN3@SetViewDis

; 160  : 		return;
; 161  : 	
; 162  : 	m_ViewDistanceSet[eNum].m_fFogStart		= fFarClip * 0.5f;//0.3333333f;

  0000c	8b 55 08	 mov	 edx, DWORD PTR _eNum$[ebp]
  0000f	0f 28 c2	 movaps	 xmm0, xmm2
  00012	f3 0f 59 05 00
	00 00 00	 mulss	 xmm0, DWORD PTR __real@3f000000
  0001a	8d 04 52	 lea	 eax, DWORD PTR [edx+edx*2]
  0001d	f3 0f 11 84 c1
	88 15 00 00	 movss	 DWORD PTR [ecx+eax*8+5512], xmm0

; 163  : 	m_ViewDistanceSet[eNum].m_fFogEnd		= fFarClip * 0.7f;//0.6666667f;

  00026	0f 28 c2	 movaps	 xmm0, xmm2
  00029	f3 0f 59 05 00
	00 00 00	 mulss	 xmm0, DWORD PTR __real@3f333333
  00031	f3 0f 11 84 c1
	8c 15 00 00	 movss	 DWORD PTR [ecx+eax*8+5516], xmm0

; 164  : 	
; 165  : 	float fSkyBoxScale						= fFarClip * 0.6f;//0.5773502f;

  0003a	0f 28 c2	 movaps	 xmm0, xmm2
  0003d	f3 0f 59 05 00
	00 00 00	 mulss	 xmm0, DWORD PTR __real@3f19999a

; 166  : 	m_ViewDistanceSet[eNum].m_v3SkyBoxScale	= D3DXVECTOR3(fSkyBoxScale, fSkyBoxScale, fSkyBoxScale);

  00045	f3 0f 11 84 c1
	94 15 00 00	 movss	 DWORD PTR [ecx+eax*8+5524], xmm0
  0004e	f3 0f 11 84 c1
	98 15 00 00	 movss	 DWORD PTR [ecx+eax*8+5528], xmm0
  00057	f3 0f 11 84 c1
	9c 15 00 00	 movss	 DWORD PTR [ecx+eax*8+5532], xmm0

; 167  : 	m_ViewDistanceSet[eNum].m_fFarClip		= fFarClip;

  00060	8d 04 52	 lea	 eax, DWORD PTR [edx+edx*2]
  00063	f3 0f 11 94 c1
	90 15 00 00	 movss	 DWORD PTR [ecx+eax*8+5520], xmm2

; 168  : 
; 169  : 	if (eNum == m_eViewDistanceNum)

  0006c	3b 91 74 15 00
	00		 cmp	 edx, DWORD PTR [ecx+5492]
  00072	75 09		 jne	 SHORT $LN3@SetViewDis

; 170  : 		SelectViewDistanceNum(eNum);

  00074	89 55 08	 mov	 DWORD PTR _eNum$[ebp], edx

; 171  : }

  00077	5d		 pop	 ebp

; 170  : 		SelectViewDistanceNum(eNum);

  00078	e9 00 00 00 00	 jmp	 ?SelectViewDistanceNum@CPythonBackground@@QAEXH@Z ; CPythonBackground::SelectViewDistanceNum
$LN3@SetViewDis:

; 171  : }

  0007d	5d		 pop	 ebp
  0007e	c2 04 00	 ret	 4
?SetViewDistanceSet@CPythonBackground@@QAEXHM@Z ENDP	; CPythonBackground::SetViewDistanceSet
_TEXT	ENDS
; Function compile flags: /Ogtp
; File D:\_m2work\txoko-m2-work\txoko-client-src\source\UserInterface\PythonBackground.cpp
;	COMDAT ?CreateCharacterShadowTexture@CPythonBackground@@QAEXXZ
_TEXT	SEGMENT
?CreateCharacterShadowTexture@CPythonBackground@@QAEXXZ PROC ; CPythonBackground::CreateCharacterShadowTexture, COMDAT
; _this$ = ecx

; 56   : 	if (!m_pkMap)

  00000	83 b9 48 14 00
	00 00		 cmp	 DWORD PTR [ecx+5192], 0
  00007	74 0c		 je	 SHORT $LN1@CreateChar

; 57   : 		return;
; 58   : 
; 59   : 	CMapOutdoor& rkMap = GetMapOutdoorRef();

  00009	e8 00 00 00 00	 call	 ?GetMapOutdoorRef@CMapManager@@QAEAAVCMapOutdoor@@XZ ; CMapManager::GetMapOutdoorRef

; 60   : 	rkMap.CreateCharacterShadowTexture();

  0000e	8b c8		 mov	 ecx, eax
  00010	e9 00 00 00 00	 jmp	 ?CreateCharacterShadowTexture@CMapOutdoor@@QAEXXZ ; CMapOutdoor::CreateCharacterShadowTexture
$LN1@CreateChar:

; 61   : }

  00015	c3		 ret	 0
?CreateCharacterShadowTexture@CPythonBackground@@QAEXXZ ENDP ; CPythonBackground::CreateCharacterShadowTexture
_TEXT	ENDS
; Function compile flags: /Ogtp
; File D:\_m2work\txoko-m2-work\txoko-client-src\source\UserInterface\PythonBackground.cpp
;	COMDAT ?ReleaseCharacterShadowTexture@CPythonBackground@@QAEXXZ
_TEXT	SEGMENT
?ReleaseCharacterShadowTexture@CPythonBackground@@QAEXXZ PROC ; CPythonBackground::ReleaseCharacterShadowTexture, COMDAT
; _this$ = ecx

; 65   : 	if (!m_pkMap)

  00000	83 b9 48 14 00
	00 00		 cmp	 DWORD PTR [ecx+5192], 0
  00007	74 0c		 je	 SHORT $LN1@ReleaseCha

; 66   : 		return;
; 67   : 
; 68   : 	CMapOutdoor& rkMap = GetMapOutdoorRef();

  00009	e8 00 00 00 00	 call	 ?GetMapOutdoorRef@CMapManager@@QAEAAVCMapOutdoor@@XZ ; CMapManager::GetMapOutdoorRef

; 69   : 	rkMap.ReleaseCharacterShadowTexture();

  0000e	8b c8		 mov	 ecx, eax
  00010	e9 00 00 00 00	 jmp	 ?ReleaseCharacterShadowTexture@CMapOutdoor@@QAEXXZ ; CMapOutdoor::ReleaseCharacterShadowTexture
$LN1@ReleaseCha:

; 70   : }

  00015	c3		 ret	 0
?ReleaseCharacterShadowTexture@CPythonBackground@@QAEXXZ ENDP ; CPythonBackground::ReleaseCharacterShadowTexture
_TEXT	ENDS
; Function compile flags: /Ogtp
; File D:\_m2work\txoko-m2-work\txoko-client-src\source\UserInterface\PythonBackground.cpp
; File D:\_m2work\txoko-m2-work\txoko-client-src\extern\include\d3dx8math.inl
; File D:\_m2work\txoko-m2-work\txoko-client-src\source\UserInterface\PythonBackground.cpp
; File D:\_m2work\txoko-m2-work\txoko-client-src\extern\include\d3dx8math.inl
; File D:\_m2work\txoko-m2-work\txoko-client-src\source\UserInterface\PythonBackground.cpp
; File D:\_m2work\txoko-m2-work\txoko-client-src\extern\include\d3dx8math.inl
; File D:\_m2work\txoko-m2-work\txoko-client-src\source\UserInterface\PythonBackground.cpp
; File D:\_m2work\txoko-m2-work\txoko-client-src\extern\include\d3dx8math.inl
; File D:\_m2work\txoko-m2-work\txoko-client-src\source\UserInterface\PythonBackground.cpp
; File C:\Program Files\Microsoft Visual Studio\2022\Community\VC\Tools\MSVC\14.44.35207\include\xtree
; File D:\_m2work\txoko-m2-work\txoko-client-src\source\UserInterface\PythonBackground.cpp
; File C:\Program Files\Microsoft Visual Studio\2022\Community\VC\Tools\MSVC\14.44.35207\include\xtree
; File D:\_m2work\txoko-m2-work\txoko-client-src\source\UserInterface\PythonBackground.cpp
; File C:\Program Files\Microsoft Visual Studio\2022\Community\VC\Tools\MSVC\14.44.35207\include\xtree
; File D:\_m2work\txoko-m2-work\txoko-client-src\source\UserInterface\PythonBackground.cpp
; File D:\_m2work\txoko-m2-work\txoko-client-src\source\eterlib\CullingManager.h
; File D:\_m2work\txoko-m2-work\txoko-client-src\source\SphereLib\vector.h
; File D:\_m2work\txoko-m2-work\txoko-client-src\source\eterlib\CullingManager.h
; File D:\_m2work\txoko-m2-work\txoko-client-src\source\UserInterface\PythonBackground.cpp
; File D:\_m2work\txoko-m2-work\txoko-client-src\source\eterlib\CullingManager.h
; File D:\_m2work\txoko-m2-work\txoko-client-src\source\UserInterface\PythonBackground.cpp
; File C:\Program Files\Microsoft Visual Studio\2022\Community\VC\Tools\MSVC\14.44.35207\include\xtree
; File D:\_m2work\txoko-m2-work\txoko-client-src\source\UserInterface\PythonBackground.cpp
; File C:\Program Files\Microsoft Visual Studio\2022\Community\VC\Tools\MSVC\14.44.35207\include\xtree
; File D:\_m2work\txoko-m2-work\txoko-client-src\source\UserInterface\PythonBackground.cpp
; File C:\Program Files\Microsoft Visual Studio\2022\Community\VC\Tools\MSVC\14.44.35207\include\xtree
; File D:\_m2work\txoko-m2-work\txoko-client-src\source\UserInterface\PythonBackground.cpp
; File C:\Program Files\Microsoft Visual Studio\2022\Community\VC\Tools\MSVC\14.44.35207\include\xtree
; File C:\Program Files\Microsoft Visual Studio\2022\Community\VC\Tools\MSVC\14.44.35207\include\xmemory
; File C:\Program Files\Microsoft Visual Studio\2022\Community\VC\Tools\MSVC\14.44.35207\include\xtree
; File D:\_m2work\txoko-m2-work\txoko-client-src\source\UserInterface\PythonBackground.cpp
; File C:\Program Files\Microsoft Visual Studio\2022\Community\VC\Tools\MSVC\14.44.35207\include\xstring
; File D:\_m2work\txoko-m2-work\txoko-client-src\source\UserInterface\PythonBackground.cpp
; File C:\Program Files\Microsoft Visual Studio\2022\Community\VC\Tools\MSVC\14.44.35207\include\xstring
; File D:\_m2work\txoko-m2-work\txoko-client-src\source\UserInterface\PythonBackground.cpp
; File C:\Program Files\Microsoft Visual Studio\2022\Community\VC\Tools\MSVC\14.44.35207\include\xtree
; File D:\_m2work\txoko-m2-work\txoko-client-src\source\UserInterface\PythonBackground.cpp
; File C:\Program Files\Microsoft Visual Studio\2022\Community\VC\Tools\MSVC\14.44.35207\include\xtree
; File D:\_m2work\txoko-m2-work\txoko-client-src\source\UserInterface\PythonBackground.cpp
; File C:\Program Files\Microsoft Visual Studio\2022\Community\VC\Tools\MSVC\14.44.35207\include\xtree
; File D:\_m2work\txoko-m2-work\txoko-client-src\source\UserInterface\PythonBackground.cpp
; File C:\Program Files\Microsoft Visual Studio\2022\Community\VC\Tools\MSVC\14.44.35207\include\xstring
; File D:\_m2work\txoko-m2-work\txoko-client-src\source\UserInterface\PythonBackground.cpp
; File C:\Program Files\Microsoft Visual Studio\2022\Community\VC\Tools\MSVC\14.44.35207\include\xstring
; File D:\_m2work\txoko-m2-work\txoko-client-src\source\UserInterface\PythonBackground.cpp
; File C:\Program Files\Microsoft Visual Studio\2022\Community\VC\Tools\MSVC\14.44.35207\include\xtree
; File C:\Program Files\Microsoft Visual Studio\2022\Community\VC\Tools\MSVC\14.44.35207\include\xmemory
; File D:\_m2work\txoko-m2-work\txoko-client-src\source\UserInterface\PythonBackground.cpp
; File C:\Program Files\Microsoft Visual Studio\2022\Community\VC\Tools\MSVC\14.44.35207\include\xmemory
; File D:\_m2work\txoko-m2-work\txoko-client-src\source\UserInterface\PythonBackground.cpp
; File C:\Program Files\Microsoft Visual Studio\2022\Community\VC\Tools\MSVC\14.44.35207\include\xtree
; File D:\_m2work\txoko-m2-work\txoko-client-src\source\UserInterface\PythonBackground.cpp
;	COMDAT ?Update@CPythonBackground@@QAEXMMM@Z
_TEXT	SEGMENT
_ily$1$ = -96						; size = 4
_rkMap$1$ = -92						; size = 4
_ilx$1$ = -88						; size = 4
_kGetPortalID$2 = -84					; size = 16
_dwID$1$ = -68						; size = 4
_fCenterY$GSCopy$1$ = -68				; size = 4
_fHeight$3 = -64					; size = 4
tv349 = -64						; size = 4
_fCenterX$GSCopy$1$ = -64				; size = 4
_itor$4 = -60						; size = 4
_itor$5 = -60						; size = 4
_itor$6 = -60						; size = 4
__Successor$7 = -60					; size = 4
tv1659 = -60						; size = 4
_fCenterZ$GSCopy$1$ = -60				; size = 4
_aVector3d$8 = -56					; size = 12
_toTop$9 = -44						; size = 12
$T10 = -32						; size = 12
_kPixelPosition$11 = -32				; size = 12
_r$12 = -32						; size = 12
__$ArrayPad$ = -20					; size = 4
__$EHRec$ = -12						; size = 12
?Update@CPythonBackground@@QAEXMMM@Z PROC		; CPythonBackground::Update, COMDAT
; _this$ = ecx
; _fCenterX$ = xmm1s
; _fCenterY$ = xmm2s
; _fCenterZ$ = xmm3s

; 340  : {

  00000	53		 push	 ebx
  00001	8b dc		 mov	 ebx, esp
  00003	83 ec 08	 sub	 esp, 8
  00006	83 e4 f8	 and	 esp, -8			; fffffff8H
  00009	83 c4 04	 add	 esp, 4
  0000c	55		 push	 ebp
  0000d	8b 6b 04	 mov	 ebp, DWORD PTR [ebx+4]
  00010	89 6c 24 04	 mov	 DWORD PTR [esp+4], ebp
  00014	8b ec		 mov	 ebp, esp
  00016	6a ff		 push	 -1
  00018	68 00 00 00 00	 push	 __ehhandler$?Update@CPythonBackground@@QAEXMMM@Z
  0001d	64 a1 00 00 00
	00		 mov	 eax, DWORD PTR fs:0
  00023	50		 push	 eax
  00024	53		 push	 ebx
  00025	83 ec 50	 sub	 esp, 80			; 00000050H
  00028	a1 00 00 00 00	 mov	 eax, DWORD PTR ___security_cookie
  0002d	33 c5		 xor	 eax, ebp
  0002f	89 45 ec	 mov	 DWORD PTR __$ArrayPad$[ebp], eax
  00032	56		 push	 esi
  00033	57		 push	 edi
  00034	50		 push	 eax
  00035	8d 45 f4	 lea	 eax, DWORD PTR __$EHRec$[ebp]
  00038	64 a3 00 00 00
	00		 mov	 DWORD PTR fs:0, eax
  0003e	f3 0f 11 5d c4	 movss	 DWORD PTR _fCenterZ$GSCopy$1$[ebp], xmm3
  00043	f3 0f 11 55 bc	 movss	 DWORD PTR _fCenterY$GSCopy$1$[ebp], xmm2
  00048	f3 0f 11 4d c0	 movss	 DWORD PTR _fCenterX$GSCopy$1$[ebp], xmm1
  0004d	8b f9		 mov	 edi, ecx

; 341  : 	if (!IsMapReady())

  0004f	e8 00 00 00 00	 call	 ?IsMapReady@CMapManager@@QAE_NXZ ; CMapManager::IsMapReady
  00054	84 c0		 test	 al, al
  00056	0f 84 a7 03 00
	00		 je	 $LN371@Update

; 342  : 		return;
; 343  : #ifdef __PERFORMANCE_CHECKER__
; 344  : 	DWORD t1=ELTimer_GetMSec();
; 345  : #endif
; 346  : 	UpdateMap(fCenterX, fCenterY, fCenterZ);

  0005c	f3 0f 10 45 c4	 movss	 xmm0, DWORD PTR _fCenterZ$GSCopy$1$[ebp]
  00061	83 ec 0c	 sub	 esp, 12			; 0000000cH
  00064	8b cf		 mov	 ecx, edi
  00066	f3 0f 11 44 24
	08		 movss	 DWORD PTR [esp+8], xmm0
  0006c	f3 0f 10 45 bc	 movss	 xmm0, DWORD PTR _fCenterY$GSCopy$1$[ebp]
  00071	f3 0f 11 44 24
	04		 movss	 DWORD PTR [esp+4], xmm0
  00077	f3 0f 10 45 c0	 movss	 xmm0, DWORD PTR _fCenterX$GSCopy$1$[ebp]
  0007c	f3 0f 11 04 24	 movss	 DWORD PTR [esp], xmm0
  00081	e8 00 00 00 00	 call	 ?UpdateMap@CMapManager@@QAE_NMMM@Z ; CMapManager::UpdateMap

; 347  : #ifdef __PERFORMANCE_CHECKER__
; 348  : 	DWORD t2=ELTimer_GetMSec();
; 349  : #endif
; 350  : 	UpdateAroundAmbience(fCenterX, fCenterY, fCenterZ);

  00086	f3 0f 10 45 c4	 movss	 xmm0, DWORD PTR _fCenterZ$GSCopy$1$[ebp]
  0008b	83 ec 0c	 sub	 esp, 12			; 0000000cH
  0008e	8b cf		 mov	 ecx, edi
  00090	f3 0f 11 44 24
	08		 movss	 DWORD PTR [esp+8], xmm0
  00096	f3 0f 10 45 bc	 movss	 xmm0, DWORD PTR _fCenterY$GSCopy$1$[ebp]
  0009b	f3 0f 11 44 24
	04		 movss	 DWORD PTR [esp+4], xmm0
  000a1	f3 0f 10 45 c0	 movss	 xmm0, DWORD PTR _fCenterX$GSCopy$1$[ebp]
  000a6	f3 0f 11 04 24	 movss	 DWORD PTR [esp], xmm0
  000ab	e8 00 00 00 00	 call	 ?UpdateAroundAmbience@CMapManager@@QAEXMMM@Z ; CMapManager::UpdateAroundAmbience
; File D:\_m2work\txoko-m2-work\txoko-client-src\extern\include\d3dx8math.inl

; 180  :     x = fx;

  000b0	f3 0f 10 45 c0	 movss	 xmm0, DWORD PTR _fCenterX$GSCopy$1$[ebp]
; File D:\_m2work\txoko-m2-work\txoko-client-src\source\UserInterface\PythonBackground.cpp

; 354  : 	m_SnowEnvironment.Update(D3DXVECTOR3(fCenterX, -fCenterY, fCenterZ));

  000b5	8d 45 e0	 lea	 eax, DWORD PTR $T10[ebp]
; File D:\_m2work\txoko-m2-work\txoko-client-src\extern\include\d3dx8math.inl

; 180  :     x = fx;

  000b8	f3 0f 11 45 e0	 movss	 DWORD PTR $T10[ebp], xmm0
; File D:\_m2work\txoko-m2-work\txoko-client-src\source\UserInterface\PythonBackground.cpp

; 354  : 	m_SnowEnvironment.Update(D3DXVECTOR3(fCenterX, -fCenterY, fCenterZ));

  000bd	8d 8f 10 15 00
	00		 lea	 ecx, DWORD PTR [edi+5392]
  000c3	f3 0f 10 45 bc	 movss	 xmm0, DWORD PTR _fCenterY$GSCopy$1$[ebp]
  000c8	0f 57 05 00 00
	00 00		 xorps	 xmm0, DWORD PTR __xmm@80000000800000008000000080000000
  000cf	f3 0f 11 45 bc	 movss	 DWORD PTR _fCenterY$GSCopy$1$[ebp], xmm0
; File D:\_m2work\txoko-m2-work\txoko-client-src\extern\include\d3dx8math.inl

; 181  :     y = fy;

  000d4	f3 0f 11 45 e4	 movss	 DWORD PTR $T10[ebp+4], xmm0

; 182  :     z = fz;

  000d9	f3 0f 10 45 c4	 movss	 xmm0, DWORD PTR _fCenterZ$GSCopy$1$[ebp]
; File D:\_m2work\txoko-m2-work\txoko-client-src\source\UserInterface\PythonBackground.cpp

; 354  : 	m_SnowEnvironment.Update(D3DXVECTOR3(fCenterX, -fCenterY, fCenterZ));

  000de	50		 push	 eax
; File D:\_m2work\txoko-m2-work\txoko-client-src\extern\include\d3dx8math.inl

; 182  :     z = fz;

  000df	f3 0f 11 45 e8	 movss	 DWORD PTR $T10[ebp+8], xmm0
; File D:\_m2work\txoko-m2-work\txoko-client-src\source\UserInterface\PythonBackground.cpp

; 354  : 	m_SnowEnvironment.Update(D3DXVECTOR3(fCenterX, -fCenterY, fCenterZ));

  000e4	e8 00 00 00 00	 call	 ?Update@CSnowEnvironment@@QAEXABUD3DXVECTOR3@@@Z ; CSnowEnvironment::Update

; 355  : 
; 356  : #ifdef __PERFORMANCE_CHECKER__
; 357  : 	{
; 358  : 		static FILE* fp=fopen("perf_bg_update.txt", "w");
; 359  : 		if (t3-t1>5)
; 360  : 		{
; 361  : 			fprintf(fp, "BG.Total %d (Time %f)\n", t3-t1, ELTimer_GetMSec()/1000.0f);
; 362  : 			fprintf(fp, "BG.UpdateMap %d\n", t2-t1);
; 363  : 			fprintf(fp, "BG.UpdateAmb %d\n", t3-t2);
; 364  : 			fflush(fp);
; 365  : 		}
; 366  : 	}
; 367  : #endif
; 368  : 
; 369  : 	// Portal Process
; 370  : 	CMapOutdoor& rkMap=GetMapOutdoorRef();

  000e9	8b cf		 mov	 ecx, edi
  000eb	e8 00 00 00 00	 call	 ?GetMapOutdoorRef@CMapManager@@QAEAAVCMapOutdoor@@XZ ; CMapManager::GetMapOutdoorRef
  000f0	89 45 a4	 mov	 DWORD PTR _rkMap$1$[ebp], eax

; 371  : 	if (rkMap.IsEnablePortal())

  000f3	80 b8 b7 0e 00
	00 00		 cmp	 BYTE PTR [eax+3767], 0
  000fa	0f 84 ac 01 00
	00		 je	 $LN244@Update

; 372  : 	{
; 373  : 		CCullingManager & rkCullingMgr = CCullingManager::Instance();

  00100	8b 35 00 00 00
	00		 mov	 esi, DWORD PTR ?ms_singleton@?$CSingleton@VCCullingManager@@@@0PAVCCullingManager@@A ; CSingleton<CCullingManager>::ms_singleton
; File C:\Program Files\Microsoft Visual Studio\2022\Community\VC\Tools\MSVC\14.44.35207\include\xtree

; 345  :         const auto _Pnode = _Al.allocate(1);

  00106	6a 14		 push	 20			; 00000014H

; 450  :     _Tree_val() noexcept : _Myhead(), _Mysize(0) {}

  00108	c7 45 b4 00 00
	00 00		 mov	 DWORD PTR _kGetPortalID$2[ebp+8], 0
  0010f	c7 45 b8 00 00
	00 00		 mov	 DWORD PTR _kGetPortalID$2[ebp+12], 0

; 345  :         const auto _Pnode = _Al.allocate(1);

  00116	e8 00 00 00 00	 call	 ??2@YAPAXI@Z		; operator new
; File D:\_m2work\txoko-m2-work\txoko-client-src\source\UserInterface\PythonBackground.cpp

; 323  : 		m_fRequestX=fRequestX;

  0011b	f3 0f 10 4d c0	 movss	 xmm1, DWORD PTR _fCenterX$GSCopy$1$[ebp]
; File C:\Program Files\Microsoft Visual Studio\2022\Community\VC\Tools\MSVC\14.44.35207\include\xtree

; 345  :         const auto _Pnode = _Al.allocate(1);

  00120	83 c4 04	 add	 esp, 4
; File D:\_m2work\txoko-m2-work\txoko-client-src\source\UserInterface\PythonBackground.cpp

; 324  : 		m_fRequestY=fRequestY;

  00123	f3 0f 10 45 bc	 movss	 xmm0, DWORD PTR _fCenterY$GSCopy$1$[ebp]
; File C:\Program Files\Microsoft Visual Studio\2022\Community\VC\Tools\MSVC\14.44.35207\include\xtree

; 346  :         _Construct_in_place(_Pnode->_Left, _Pnode);

  00128	89 00		 mov	 DWORD PTR [eax], eax

; 347  :         _Construct_in_place(_Pnode->_Parent, _Pnode);

  0012a	89 40 04	 mov	 DWORD PTR [eax+4], eax

; 348  :         _Construct_in_place(_Pnode->_Right, _Pnode);

  0012d	89 40 08	 mov	 DWORD PTR [eax+8], eax

; 349  :         _Pnode->_Color = _Black;

  00130	66 c7 40 0c 01
	01		 mov	 WORD PTR [eax+12], 257	; 00000101H

; 1957 :         _Scary->_Myhead = _Node::_Buyheadnode(_Getal());

  00136	89 45 b4	 mov	 DWORD PTR _kGetPortalID$2[ebp+8], eax
; File D:\_m2work\txoko-m2-work\txoko-client-src\source\UserInterface\PythonBackground.cpp

; 323  : 		m_fRequestX=fRequestX;

  00139	f3 0f 11 4d ac	 movss	 DWORD PTR _kGetPortalID$2[ebp], xmm1

; 324  : 		m_fRequestY=fRequestY;

  0013e	f3 0f 11 45 b0	 movss	 DWORD PTR _kGetPortalID$2[ebp+4], xmm0

; 374  : 		FGetPortalID kGetPortalID(fCenterX, -fCenterY);

  00143	c7 45 fc 00 00
	00 00		 mov	 DWORD PTR __$EHRec$[ebp+8], 0
; File D:\_m2work\txoko-m2-work\txoko-client-src\source\eterlib\CullingManager.h

; 15   : 		: f(fn), dist(distance)

  0014a	8d 45 ac	 lea	 eax, DWORD PTR _kGetPortalID$2[ebp]
; File D:\_m2work\txoko-m2-work\txoko-client-src\source\SphereLib\vector.h

; 108  : 		y = b;

  0014d	f3 0f 11 45 cc	 movss	 DWORD PTR _aVector3d$8[ebp+4], xmm0

; 109  : 		z = c;

  00152	f3 0f 10 45 c4	 movss	 xmm0, DWORD PTR _fCenterZ$GSCopy$1$[ebp]
  00157	f3 0f 11 4d c8	 movss	 DWORD PTR _aVector3d$8[ebp], xmm1
  0015c	f3 0f 11 45 d0	 movss	 DWORD PTR _aVector3d$8[ebp+8], xmm0

; 107  : 		x = a;

  00161	c7 45 d4 00 00
	00 00		 mov	 DWORD PTR _toTop$9[ebp], 0

; 108  : 		y = b;

  00168	c7 45 d8 00 00
	00 00		 mov	 DWORD PTR _toTop$9[ebp+4], 0

; 109  : 		z = c;

  0016f	c7 45 dc 00 50
	c3 46		 mov	 DWORD PTR _toTop$9[ebp+8], 1187205120 ; 46c35000H
; File D:\_m2work\txoko-m2-work\txoko-client-src\source\eterlib\CullingManager.h

; 16   : 	{}

  00176	c7 45 e0 00 00
	00 00		 mov	 DWORD PTR _r$12[ebp], OFFSET ??_7?$RangeTester@UFGetPortalID@@@@6B@

; 15   : 		: f(fn), dist(distance)

  0017d	89 45 e4	 mov	 DWORD PTR _r$12[ebp+4], eax
  00180	c7 45 e8 00 00
	80 bf		 mov	 DWORD PTR _r$12[ebp+8], -1082130432 ; bf800000H

; 127  : 		m_Factory->RayTrace(p1, dir, &r/*this*/);		

  00187	8d 45 e0	 lea	 eax, DWORD PTR _r$12[ebp]
  0018a	c6 45 fc 01	 mov	 BYTE PTR __$EHRec$[ebp+8], 1
  0018e	8b 4e 1c	 mov	 ecx, DWORD PTR [esi+28]
  00191	50		 push	 eax
  00192	8d 45 d4	 lea	 eax, DWORD PTR _toTop$9[ebp]
  00195	50		 push	 eax
  00196	8d 45 c8	 lea	 eax, DWORD PTR _aVector3d$8[ebp]
  00199	50		 push	 eax
  0019a	e8 00 00 00 00	 call	 ?RayTrace@SpherePackFactory@@QAEXABVVector3d@@0PAVSpherePackCallback@@@Z ; SpherePackFactory::RayTrace
; File D:\_m2work\txoko-m2-work\txoko-client-src\source\UserInterface\PythonBackground.cpp

; 385  : 		if (!__IsSame(kGetPortalID.m_kSet_iPortalID, m_kSet_iShowingPortalID))

  0019f	8d b7 00 16 00
	00		 lea	 esi, DWORD PTR [edi+5632]
; File D:\_m2work\txoko-m2-work\txoko-client-src\source\eterlib\CullingManager.h

; 128  : 	}

  001a5	c6 45 fc 00	 mov	 BYTE PTR __$EHRec$[ebp+8], 0
; File D:\_m2work\txoko-m2-work\txoko-client-src\source\UserInterface\PythonBackground.cpp

; 385  : 		if (!__IsSame(kGetPortalID.m_kSet_iPortalID, m_kSet_iShowingPortalID))

  001a9	56		 push	 esi
  001aa	8d 45 b4	 lea	 eax, DWORD PTR _kGetPortalID$2[ebp+8]
  001ad	50		 push	 eax
  001ae	e8 00 00 00 00	 call	 ?__IsSame@CPythonBackground@@IAE_NAAV?$set@HU?$less@H@std@@V?$allocator@H@2@@std@@0@Z ; CPythonBackground::__IsSame
  001b3	84 c0		 test	 al, al
  001b5	0f 85 cc 00 00
	00		 jne	 $LN281@Update

; 386  : 		{
; 387  : 			ClearPortal();

  001bb	8b cf		 mov	 ecx, edi
  001bd	e8 00 00 00 00	 call	 ?ClearPortal@CMapManager@@QAEXXZ ; CMapManager::ClearPortal
; File C:\Program Files\Microsoft Visual Studio\2022\Community\VC\Tools\MSVC\14.44.35207\include\xtree

; 37   :     _Tree_unchecked_const_iterator(_Nodeptr _Pnode, const _Mytree* _Plist) noexcept : _Ptr(_Pnode) {

  001c2	8b 4d b4	 mov	 ecx, DWORD PTR _kGetPortalID$2[ebp+8]
  001c5	8b 01		 mov	 eax, DWORD PTR [ecx]
  001c7	89 45 c4	 mov	 DWORD PTR _itor$4[ebp], eax
  001ca	3b c1		 cmp	 eax, ecx
; File D:\_m2work\txoko-m2-work\txoko-client-src\source\UserInterface\PythonBackground.cpp

; 389  : 			for (; itor!=kGetPortalID.m_kSet_iPortalID.end(); ++itor)

  001cc	74 1c		 je	 SHORT $LN3@Update
  001ce	66 90		 npad	 2
$LL4@Update:

; 390  : 			{
; 391  : 				AddShowingPortalID(*itor);

  001d0	ff 70 10	 push	 DWORD PTR [eax+16]
  001d3	8b cf		 mov	 ecx, edi
  001d5	e8 00 00 00 00	 call	 ?AddShowingPortalID@CMapManager@@QAEXH@Z ; CMapManager::AddShowingPortalID
  001da	8d 4d c4	 lea	 ecx, DWORD PTR _itor$4[ebp]
  001dd	e8 00 00 00 00	 call	 ??E?$_Tree_const_iterator@V?$_Tree_val@U?$_Tree_simple_types@H@std@@@std@@@std@@QAEAAV01@XZ ; std::_Tree_const_iterator<std::_Tree_val<std::_Tree_simple_types<int> > >::operator++
; File C:\Program Files\Microsoft Visual Studio\2022\Community\VC\Tools\MSVC\14.44.35207\include\xtree

; 232  :         return this->_Ptr == _Right._Ptr;

  001e2	8b 45 c4	 mov	 eax, DWORD PTR _itor$4[ebp]
  001e5	3b 45 b4	 cmp	 eax, DWORD PTR _kGetPortalID$2[ebp+8]
; File D:\_m2work\txoko-m2-work\txoko-client-src\source\UserInterface\PythonBackground.cpp

; 389  : 			for (; itor!=kGetPortalID.m_kSet_iPortalID.end(); ++itor)

  001e8	75 e6		 jne	 SHORT $LL4@Update
$LN3@Update:

; 392  : 			}
; 393  : 			RefreshPortal();

  001ea	8b cf		 mov	 ecx, edi
  001ec	e8 00 00 00 00	 call	 ?RefreshPortal@CMapManager@@QAEXXZ ; CMapManager::RefreshPortal
; File C:\Program Files\Microsoft Visual Studio\2022\Community\VC\Tools\MSVC\14.44.35207\include\xtree

; 1106 :         if (this == _STD addressof(_Right)) {

  001f1	8d 45 b4	 lea	 eax, DWORD PTR _kGetPortalID$2[ebp+8]
  001f4	3b f0		 cmp	 esi, eax
  001f6	0f 84 8b 00 00
	00		 je	 $LN281@Update

; 1373 :         auto _Head = _Scary->_Myhead;

  001fc	8b 36		 mov	 esi, DWORD PTR [esi]

; 1374 :         _Scary->_Erase_tree(_Getal(), _Head->_Parent);

  001fe	8d 8f 00 16 00
	00		 lea	 ecx, DWORD PTR [edi+5632]
  00204	ff 76 04	 push	 DWORD PTR [esi+4]
  00207	51		 push	 ecx
  00208	e8 00 00 00 00	 call	 ??$_Erase_tree@V?$allocator@U?$_Tree_node@HPAX@std@@@std@@@?$_Tree_val@U?$_Tree_simple_types@H@std@@@std@@QAEXAAV?$allocator@U?$_Tree_node@HPAX@std@@@1@PAU?$_Tree_node@HPAX@1@@Z ; std::_Tree_val<std::_Tree_simple_types<int> >::_Erase_tree<std::allocator<std::_Tree_node<int,void *> > >

; 1375 :         _Head->_Parent  = _Head;

  0020d	89 76 04	 mov	 DWORD PTR [esi+4], esi

; 1376 :         _Head->_Left    = _Head;

  00210	89 36		 mov	 DWORD PTR [esi], esi

; 1377 :         _Head->_Right   = _Head;

  00212	89 76 08	 mov	 DWORD PTR [esi+8], esi

; 1378 :         _Scary->_Mysize = 0;

  00215	8d b7 00 16 00
	00		 lea	 esi, DWORD PTR [edi+5632]

; 1657 :         _Scary->_Myhead->_Parent = _Copy_nodes<_Strat>(_Right_scary->_Myhead->_Parent, _Scary->_Myhead);

  0021b	8b 45 b4	 mov	 eax, DWORD PTR _kGetPortalID$2[ebp+8]
  0021e	8b ce		 mov	 ecx, esi
  00220	ff 36		 push	 DWORD PTR [esi]

; 1378 :         _Scary->_Mysize = 0;

  00222	c7 46 04 00 00
	00 00		 mov	 DWORD PTR [esi+4], 0

; 1657 :         _Scary->_Myhead->_Parent = _Copy_nodes<_Strat>(_Right_scary->_Myhead->_Parent, _Scary->_Myhead);

  00229	ff 70 04	 push	 DWORD PTR [eax+4]
  0022c	e8 00 00 00 00	 call	 ??$_Copy_nodes@$0A@@?$_Tree@V?$_Tset_traits@HU?$less@H@std@@V?$allocator@H@2@$0A@@std@@@std@@IAEPAU?$_Tree_node@HPAX@1@PAU21@0@Z ; std::_Tree<std::_Tset_traits<int,std::less<int>,std::allocator<int>,0> >::_Copy_nodes<0>
  00231	8b 0e		 mov	 ecx, DWORD PTR [esi]
  00233	89 41 04	 mov	 DWORD PTR [ecx+4], eax

; 1658 :         _Scary->_Mysize          = _Right_scary->_Mysize;

  00236	8b 45 b8	 mov	 eax, DWORD PTR _kGetPortalID$2[ebp+12]
  00239	89 46 04	 mov	 DWORD PTR [esi+4], eax

; 1659 :         if (!_Scary->_Myhead->_Parent->_Isnil) { // nonempty tree, look for new smallest and largest

  0023c	8b 06		 mov	 eax, DWORD PTR [esi]
  0023e	8b 50 04	 mov	 edx, DWORD PTR [eax+4]
  00241	80 7a 0d 00	 cmp	 BYTE PTR [edx+13], 0
  00245	75 39		 jne	 SHORT $LN280@Update

; 476  :         while (!_Pnode->_Left->_Isnil) {

  00247	8b 0a		 mov	 ecx, DWORD PTR [edx]
  00249	80 79 0d 00	 cmp	 BYTE PTR [ecx+13], 0
  0024d	75 0f		 jne	 SHORT $LN285@Update
  0024f	90		 npad	 1
$LL284@Update:
  00250	8b 01		 mov	 eax, DWORD PTR [ecx]

; 477  :             _Pnode = _Pnode->_Left;

  00252	8b d1		 mov	 edx, ecx
  00254	8b c8		 mov	 ecx, eax
  00256	80 78 0d 00	 cmp	 BYTE PTR [eax+13], 0
  0025a	74 f4		 je	 SHORT $LL284@Update
  0025c	8b 06		 mov	 eax, DWORD PTR [esi]
$LN285@Update:

; 1660 :             _Scary->_Myhead->_Left  = _Scary_val::_Min(_Scary->_Myhead->_Parent);

  0025e	89 10		 mov	 DWORD PTR [eax], edx

; 1661 :             _Scary->_Myhead->_Right = _Scary_val::_Max(_Scary->_Myhead->_Parent);

  00260	8b 16		 mov	 edx, DWORD PTR [esi]
  00262	8b 4a 04	 mov	 ecx, DWORD PTR [edx+4]

; 468  :         while (!_Pnode->_Right->_Isnil) {

  00265	8b 41 08	 mov	 eax, DWORD PTR [ecx+8]
  00268	80 78 0d 00	 cmp	 BYTE PTR [eax+13], 0
  0026c	75 0d		 jne	 SHORT $LN290@Update
  0026e	66 90		 npad	 2
$LL289@Update:

; 469  :             _Pnode = _Pnode->_Right;

  00270	8b c8		 mov	 ecx, eax
  00272	8b 41 08	 mov	 eax, DWORD PTR [ecx+8]
  00275	80 78 0d 00	 cmp	 BYTE PTR [eax+13], 0
  00279	74 f5		 je	 SHORT $LL289@Update
$LN290@Update:

; 1661 :             _Scary->_Myhead->_Right = _Scary_val::_Max(_Scary->_Myhead->_Parent);

  0027b	89 4a 08	 mov	 DWORD PTR [edx+8], ecx

; 1662 :         } else { // empty tree, just tidy head pointers

  0027e	eb 07		 jmp	 SHORT $LN281@Update
$LN280@Update:

; 1663 :             _Scary->_Myhead->_Left  = _Scary->_Myhead;

  00280	89 00		 mov	 DWORD PTR [eax], eax

; 1664 :             _Scary->_Myhead->_Right = _Scary->_Myhead;

  00282	8b 06		 mov	 eax, DWORD PTR [esi]
  00284	89 40 08	 mov	 DWORD PTR [eax+8], eax
$LN281@Update:
; File D:\_m2work\txoko-m2-work\txoko-client-src\source\UserInterface\PythonBackground.cpp

; 397  : 	}

  00287	c7 45 fc ff ff
	ff ff		 mov	 DWORD PTR __$EHRec$[ebp+8], -1
; File C:\Program Files\Microsoft Visual Studio\2022\Community\VC\Tools\MSVC\14.44.35207\include\xtree

; 777  :         _Erase_tree(_Al, _Myhead->_Parent);

  0028e	8b 45 b4	 mov	 eax, DWORD PTR _kGetPortalID$2[ebp+8]
  00291	ff 70 04	 push	 DWORD PTR [eax+4]
  00294	8d 45 b4	 lea	 eax, DWORD PTR _kGetPortalID$2[ebp+8]
  00297	50		 push	 eax
  00298	8b c8		 mov	 ecx, eax
  0029a	e8 00 00 00 00	 call	 ??$_Erase_tree@V?$allocator@U?$_Tree_node@HPAX@std@@@std@@@?$_Tree_val@U?$_Tree_simple_types@H@std@@@std@@QAEXAAV?$allocator@U?$_Tree_node@HPAX@std@@@1@PAU?$_Tree_node@HPAX@1@@Z ; std::_Tree_val<std::_Tree_simple_types<int> >::_Erase_tree<std::allocator<std::_Tree_node<int,void *> > >
; File C:\Program Files\Microsoft Visual Studio\2022\Community\VC\Tools\MSVC\14.44.35207\include\xmemory

; 289  :         ::operator delete(_Ptr, _Bytes);

  0029f	6a 14		 push	 20			; 00000014H
  002a1	ff 75 b4	 push	 DWORD PTR _kGetPortalID$2[ebp+8]
  002a4	e8 00 00 00 00	 call	 ??3@YAXPAXI@Z		; operator delete
  002a9	83 c4 08	 add	 esp, 8
$LN244@Update:
; File C:\Program Files\Microsoft Visual Studio\2022\Community\VC\Tools\MSVC\14.44.35207\include\xtree

; 1142 :         return iterator(_Scary->_Myhead->_Left, _Scary);

  002ac	8b 8f 10 16 00
	00		 mov	 ecx, DWORD PTR [edi+5648]

; 37   :     _Tree_unchecked_const_iterator(_Nodeptr _Pnode, const _Mytree* _Plist) noexcept : _Ptr(_Pnode) {

  002b2	8b 01		 mov	 eax, DWORD PTR [ecx]
  002b4	89 45 c4	 mov	 DWORD PTR _itor$5[ebp], eax
  002b7	3b c1		 cmp	 eax, ecx
; File D:\_m2work\txoko-m2-work\txoko-client-src\source\UserInterface\PythonBackground.cpp

; 402  : 		for (; itor != m_kMap_dwTargetID_dwChrID.end(); ++itor)

  002b9	74 76		 je	 SHORT $LN6@Update
  002bb	0f 1f 44 00 00	 npad	 5
$LL7@Update:

; 403  : 		{
; 404  : 			DWORD dwTargetID = itor->first;
; 405  : 			DWORD dwChrID = itor->second;
; 406  : 
; 407  : 			CInstanceBase * pInstance = CPythonCharacterManager::Instance().GetInstancePtr(dwChrID);

  002c0	8b 0d 00 00 00
	00		 mov	 ecx, DWORD PTR ?ms_singleton@?$CSingleton@VCPythonCharacterManager@@@@0PAVCPythonCharacterManager@@A ; CSingleton<CPythonCharacterManager>::ms_singleton
  002c6	8b 50 14	 mov	 edx, DWORD PTR [eax+20]
  002c9	83 c1 04	 add	 ecx, 4
  002cc	8b 70 10	 mov	 esi, DWORD PTR [eax+16]
  002cf	52		 push	 edx
  002d0	8b 01		 mov	 eax, DWORD PTR [ecx]
  002d2	8b 40 08	 mov	 eax, DWORD PTR [eax+8]
  002d5	ff d0		 call	 eax

; 408  : 
; 409  : 			if (!pInstance)

  002d7	85 c0		 test	 eax, eax
  002d9	74 43		 je	 SHORT $LN5@Update

; 410  : 				continue;
; 411  : 
; 412  : 			TPixelPosition kPixelPosition;
; 413  : 			pInstance->NEW_GetPixelPosition(&kPixelPosition);

  002db	8d 4d e0	 lea	 ecx, DWORD PTR _kPixelPosition$11[ebp]
  002de	51		 push	 ecx
  002df	8b c8		 mov	 ecx, eax
  002e1	e8 00 00 00 00	 call	 ?NEW_GetPixelPosition@CInstanceBase@@QAEXPAUD3DXVECTOR3@@@Z ; CInstanceBase::NEW_GetPixelPosition
; File C:\Program Files\Microsoft Visual Studio\2022\Community\VC\Tools\MSVC\14.44.35207\include\xstring

; 453  :         return _Myres > _Small_string_capacity;

  002e6	83 3d 14 00 00
	00 0f		 cmp	 DWORD PTR ?g_strEffectName@@3V?$basic_string@DU?$char_traits@D@std@@V?$allocator@D@2@@std@@A+20, 15 ; 0000000fH

; 444  :         const value_type* _Result = _Bx._Buf;

  002ed	b8 00 00 00 00	 mov	 eax, OFFSET ?g_strEffectName@@3V?$basic_string@DU?$char_traits@D@std@@V?$allocator@D@2@@std@@A ; g_strEffectName
; File D:\_m2work\txoko-m2-work\txoko-client-src\source\UserInterface\PythonBackground.cpp

; 415  : 			CreateSpecialEffect(dwTargetID,

  002f2	f3 0f 10 45 e8	 movss	 xmm0, DWORD PTR _kPixelPosition$11[ebp+8]
; File C:\Program Files\Microsoft Visual Studio\2022\Community\VC\Tools\MSVC\14.44.35207\include\xstring

; 445  :         if (_Large_mode_engaged()) {

  002f7	0f 47 05 00 00
	00 00		 cmova	 eax, DWORD PTR ?g_strEffectName@@3V?$basic_string@DU?$char_traits@D@std@@V?$allocator@D@2@@std@@A
; File D:\_m2work\txoko-m2-work\txoko-client-src\source\UserInterface\PythonBackground.cpp

; 415  : 			CreateSpecialEffect(dwTargetID,

  002fe	f3 0f 10 5d e4	 movss	 xmm3, DWORD PTR _kPixelPosition$11[ebp+4]
  00303	0f 57 1d 00 00
	00 00		 xorps	 xmm3, DWORD PTR __xmm@80000000800000008000000080000000
  0030a	f3 0f 10 55 e0	 movss	 xmm2, DWORD PTR _kPixelPosition$11[ebp]
  0030f	50		 push	 eax
  00310	51		 push	 ecx
  00311	f3 0f 11 04 24	 movss	 DWORD PTR [esp], xmm0
  00316	8b cf		 mov	 ecx, edi
  00318	56		 push	 esi
  00319	e8 00 00 00 00	 call	 ?CreateSpecialEffect@CPythonBackground@@QAEXKMMMPBD@Z ; CPythonBackground::CreateSpecialEffect
$LN5@Update:
; File C:\Program Files\Microsoft Visual Studio\2022\Community\VC\Tools\MSVC\14.44.35207\include\xtree

; 198  :         _Mybase::operator++();

  0031e	8d 4d c4	 lea	 ecx, DWORD PTR _itor$5[ebp]
  00321	e8 00 00 00 00	 call	 ??E?$_Tree_unchecked_const_iterator@V?$_Tree_val@U?$_Tree_simple_types@U?$pair@$$CBKK@std@@@std@@@std@@U_Iterator_base0@2@@std@@QAEAAV01@XZ ; std::_Tree_unchecked_const_iterator<std::_Tree_val<std::_Tree_simple_types<std::pair<unsigned long const ,unsigned long> > >,std::_Iterator_base0>::operator++

; 232  :         return this->_Ptr == _Right._Ptr;

  00326	8b 45 c4	 mov	 eax, DWORD PTR _itor$5[ebp]
  00329	3b 87 10 16 00
	00		 cmp	 eax, DWORD PTR [edi+5648]
; File D:\_m2work\txoko-m2-work\txoko-client-src\source\UserInterface\PythonBackground.cpp

; 402  : 		for (; itor != m_kMap_dwTargetID_dwChrID.end(); ++itor)

  0032f	75 8f		 jne	 SHORT $LL7@Update
$LN6@Update:
; File C:\Program Files\Microsoft Visual Studio\2022\Community\VC\Tools\MSVC\14.44.35207\include\xtree

; 1142 :         return iterator(_Scary->_Myhead->_Left, _Scary);

  00331	8b 87 18 16 00
	00		 mov	 eax, DWORD PTR [edi+5656]

; 37   :     _Tree_unchecked_const_iterator(_Nodeptr _Pnode, const _Mytree* _Plist) noexcept : _Ptr(_Pnode) {

  00337	8b 30		 mov	 esi, DWORD PTR [eax]
  00339	89 75 c4	 mov	 DWORD PTR _itor$6[ebp], esi
  0033c	3b f0		 cmp	 esi, eax
; File D:\_m2work\txoko-m2-work\txoko-client-src\source\UserInterface\PythonBackground.cpp

; 426  : 		for (; itor != m_kMap_dwID_kReserveTargetEffect.end();)

  0033e	0f 84 bf 00 00
	00		 je	 $LN371@Update
$LL10@Update:

; 427  : 		{
; 428  : 			DWORD dwID = itor->first;
; 429  : 			SReserveTargetEffect & rReserveTargetEffect = itor->second;
; 430  : 
; 431  : 			float ilx = float(rReserveTargetEffect.ilx);
; 432  : 			float ily = float(rReserveTargetEffect.ily);
; 433  : 
; 434  : 			float fHeight = rkMap.GetHeight(ilx, ily);

  00344	8b 4d a4	 mov	 ecx, DWORD PTR _rkMap$1$[ebp]
  00347	83 ec 08	 sub	 esp, 8
  0034a	8b 46 10	 mov	 eax, DWORD PTR [esi+16]
  0034d	66 0f 6e 4e 18	 movd	 xmm1, DWORD PTR [esi+24]
  00352	66 0f 6e 46 14	 movd	 xmm0, DWORD PTR [esi+20]
  00357	89 45 bc	 mov	 DWORD PTR _dwID$1$[ebp], eax
  0035a	8b 01		 mov	 eax, DWORD PTR [ecx]
  0035c	0f 5b c9	 cvtdq2ps xmm1, xmm1
  0035f	8b 40 1c	 mov	 eax, DWORD PTR [eax+28]
  00362	89 45 c0	 mov	 DWORD PTR tv349[ebp], eax
  00365	0f 5b c0	 cvtdq2ps xmm0, xmm0
  00368	f3 0f 11 4c 24
	04		 movss	 DWORD PTR [esp+4], xmm1
  0036e	f3 0f 11 45 a8	 movss	 DWORD PTR _ilx$1$[ebp], xmm0
  00373	f3 0f 11 4d a0	 movss	 DWORD PTR _ily$1$[ebp], xmm1
  00378	f3 0f 11 04 24	 movss	 DWORD PTR [esp], xmm0
  0037d	ff 55 c0	 call	 DWORD PTR tv349[ebp]
  00380	d9 5d c0	 fstp	 DWORD PTR _fHeight$3[ebp]

; 435  : 			if (0.0f == fHeight)

  00383	f3 0f 10 45 c0	 movss	 xmm0, DWORD PTR _fHeight$3[ebp]
  00388	0f 57 c9	 xorps	 xmm1, xmm1
  0038b	0f 2e c8	 ucomiss xmm1, xmm0
  0038e	9f		 lahf
  0038f	f6 c4 44	 test	 ah, 68			; 00000044H
  00392	7a 0d		 jp	 SHORT $LN15@Update
; File C:\Program Files\Microsoft Visual Studio\2022\Community\VC\Tools\MSVC\14.44.35207\include\xtree

; 198  :         _Mybase::operator++();

  00394	8d 4d c4	 lea	 ecx, DWORD PTR _itor$6[ebp]
  00397	e8 00 00 00 00	 call	 ??E?$_Tree_unchecked_const_iterator@V?$_Tree_val@U?$_Tree_simple_types@U?$pair@$$CBKUSReserveTargetEffect@CPythonBackground@@@std@@@std@@@std@@U_Iterator_base0@2@@std@@QAEAAV01@XZ ; std::_Tree_unchecked_const_iterator<std::_Tree_val<std::_Tree_simple_types<std::pair<unsigned long const ,CPythonBackground::SReserveTargetEffect> > >,std::_Iterator_base0>::operator++
; File D:\_m2work\txoko-m2-work\txoko-client-src\source\UserInterface\PythonBackground.cpp

; 438  : 				continue;

  0039c	8b 75 c4	 mov	 esi, DWORD PTR _itor$6[ebp]
  0039f	eb 56		 jmp	 SHORT $LN8@Update
$LN15@Update:
; File C:\Program Files\Microsoft Visual Studio\2022\Community\VC\Tools\MSVC\14.44.35207\include\xstring

; 453  :         return _Myres > _Small_string_capacity;

  003a1	83 3d 14 00 00
	00 0f		 cmp	 DWORD PTR ?g_strEffectName@@3V?$basic_string@DU?$char_traits@D@std@@V?$allocator@D@2@@std@@A+20, 15 ; 0000000fH

; 444  :         const value_type* _Result = _Bx._Buf;

  003a8	b8 00 00 00 00	 mov	 eax, OFFSET ?g_strEffectName@@3V?$basic_string@DU?$char_traits@D@std@@V?$allocator@D@2@@std@@A ; g_strEffectName
; File D:\_m2work\txoko-m2-work\txoko-client-src\source\UserInterface\PythonBackground.cpp

; 441  : 			CreateSpecialEffect(dwID, ilx, ily, fHeight, g_strEffectName.c_str());

  003ad	f3 0f 10 5d a0	 movss	 xmm3, DWORD PTR _ily$1$[ebp]
; File C:\Program Files\Microsoft Visual Studio\2022\Community\VC\Tools\MSVC\14.44.35207\include\xstring

; 445  :         if (_Large_mode_engaged()) {

  003b2	0f 47 05 00 00
	00 00		 cmova	 eax, DWORD PTR ?g_strEffectName@@3V?$basic_string@DU?$char_traits@D@std@@V?$allocator@D@2@@std@@A
; File D:\_m2work\txoko-m2-work\txoko-client-src\source\UserInterface\PythonBackground.cpp

; 441  : 			CreateSpecialEffect(dwID, ilx, ily, fHeight, g_strEffectName.c_str());

  003b9	f3 0f 10 55 a8	 movss	 xmm2, DWORD PTR _ilx$1$[ebp]
  003be	50		 push	 eax
  003bf	51		 push	 ecx
  003c0	f3 0f 11 04 24	 movss	 DWORD PTR [esp], xmm0
  003c5	8b cf		 mov	 ecx, edi
  003c7	ff 75 bc	 push	 DWORD PTR _dwID$1$[ebp]
  003ca	e8 00 00 00 00	 call	 ?CreateSpecialEffect@CPythonBackground@@QAEXKMMMPBD@Z ; CPythonBackground::CreateSpecialEffect
; File C:\Program Files\Microsoft Visual Studio\2022\Community\VC\Tools\MSVC\14.44.35207\include\xtree

; 1302 :         ++_Successor; // save successor iterator for return

  003cf	8d 4d c4	 lea	 ecx, DWORD PTR __Successor$7[ebp]
  003d2	89 75 c4	 mov	 DWORD PTR __Successor$7[ebp], esi
  003d5	e8 00 00 00 00	 call	 ??E?$_Tree_unchecked_const_iterator@V?$_Tree_val@U?$_Tree_simple_types@U?$pair@$$CBKUSReserveTargetEffect@CPythonBackground@@@std@@@std@@@std@@U_Iterator_base0@2@@std@@QAEAAV01@XZ ; std::_Tree_unchecked_const_iterator<std::_Tree_val<std::_Tree_simple_types<std::pair<unsigned long const ,CPythonBackground::SReserveTargetEffect> > >,std::_Iterator_base0>::operator++

; 1303 :         _Nodeptr _Erasednode = _Scary->_Extract(_Where); // node to erase

  003da	56		 push	 esi
  003db	8d 8f 18 16 00
	00		 lea	 ecx, DWORD PTR [edi+5656]
  003e1	e8 00 00 00 00	 call	 ?_Extract@?$_Tree_val@U?$_Tree_simple_types@U?$pair@$$CBKUSReserveTargetEffect@CPythonBackground@@@std@@@std@@@std@@QAEPAU?$_Tree_node@U?$pair@$$CBKUSReserveTargetEffect@CPythonBackground@@@std@@PAX@2@V?$_Tree_unchecked_const_iterator@V?$_Tree_val@U?$_Tree_simple_types@U?$pair@$$CBKUSReserveTargetEffect@CPythonBackground@@@std@@@std@@@std@@U_Iterator_base0@2@@2@@Z ; std::_Tree_val<std::_Tree_simple_types<std::pair<unsigned long const ,CPythonBackground::SReserveTargetEffect> > >::_Extract
; File C:\Program Files\Microsoft Visual Studio\2022\Community\VC\Tools\MSVC\14.44.35207\include\xmemory

; 289  :         ::operator delete(_Ptr, _Bytes);

  003e6	6a 1c		 push	 28			; 0000001cH
  003e8	50		 push	 eax
  003e9	e8 00 00 00 00	 call	 ??3@YAXPAXI@Z		; operator delete
; File D:\_m2work\txoko-m2-work\txoko-client-src\source\UserInterface\PythonBackground.cpp

; 443  : 			itor = m_kMap_dwID_kReserveTargetEffect.erase(itor);

  003ee	8b 75 c4	 mov	 esi, DWORD PTR __Successor$7[ebp]
; File C:\Program Files\Microsoft Visual Studio\2022\Community\VC\Tools\MSVC\14.44.35207\include\xmemory

; 289  :         ::operator delete(_Ptr, _Bytes);

  003f1	83 c4 08	 add	 esp, 8
; File D:\_m2work\txoko-m2-work\txoko-client-src\source\UserInterface\PythonBackground.cpp

; 443  : 			itor = m_kMap_dwID_kReserveTargetEffect.erase(itor);

  003f4	89 75 c4	 mov	 DWORD PTR _itor$6[ebp], esi
$LN8@Update:
; File C:\Program Files\Microsoft Visual Studio\2022\Community\VC\Tools\MSVC\14.44.35207\include\xtree

; 37   :     _Tree_unchecked_const_iterator(_Nodeptr _Pnode, const _Mytree* _Plist) noexcept : _Ptr(_Pnode) {

  003f7	3b b7 18 16 00
	00		 cmp	 esi, DWORD PTR [edi+5656]
; File D:\_m2work\txoko-m2-work\txoko-client-src\source\UserInterface\PythonBackground.cpp

; 426  : 		for (; itor != m_kMap_dwID_kReserveTargetEffect.end();)

  003fd	0f 85 41 ff ff
	ff		 jne	 $LL10@Update
$LN371@Update:

; 444  : 		}
; 445  : 	}
; 446  : }

  00403	8b 4d f4	 mov	 ecx, DWORD PTR __$EHRec$[ebp]
  00406	64 89 0d 00 00
	00 00		 mov	 DWORD PTR fs:0, ecx
  0040d	59		 pop	 ecx
  0040e	5f		 pop	 edi
  0040f	5e		 pop	 esi
  00410	8b 4d ec	 mov	 ecx, DWORD PTR __$ArrayPad$[ebp]
  00413	33 cd		 xor	 ecx, ebp
  00415	e8 00 00 00 00	 call	 @__security_check_cookie@4
  0041a	8b e5		 mov	 esp, ebp
  0041c	5d		 pop	 ebp
  0041d	8b e3		 mov	 esp, ebx
  0041f	5b		 pop	 ebx
  00420	c3		 ret	 0
_TEXT	ENDS
;	COMDAT text$x
text$x	SEGMENT
__unwindfunclet$?Update@CPythonBackground@@QAEXMMM@Z$0:
  00000	8d 4d ac	 lea	 ecx, DWORD PTR _kGetPortalID$2[ebp]
  00003	e9 00 00 00 00	 jmp	 ??1FGetPortalID@@QAE@XZ
__unwindfunclet$?Update@CPythonBackground@@QAEXMMM@Z$5:
  00008	8d 4d e0	 lea	 ecx, DWORD PTR _r$12[ebp]
  0000b	e9 00 00 00 00	 jmp	 ??1?$RangeTester@UFGetPortalID@@@@UAE@XZ ; RangeTester<FGetPortalID>::~RangeTester<FGetPortalID>
  00010	cc		 int	 3
  00011	cc		 int	 3
  00012	cc		 int	 3
  00013	cc		 int	 3
  00014	cc		 int	 3
__ehhandler$?Update@CPythonBackground@@QAEXMMM@Z:
  00015	90		 npad	 1
  00016	90		 npad	 1
  00017	8b 54 24 08	 mov	 edx, DWORD PTR [esp+8]
  0001b	8d 42 0c	 lea	 eax, DWORD PTR [edx+12]
  0001e	8b 4a a0	 mov	 ecx, DWORD PTR [edx-96]
  00021	33 c8		 xor	 ecx, eax
  00023	e8 00 00 00 00	 call	 @__security_check_cookie@4
  00028	8b 4a f8	 mov	 ecx, DWORD PTR [edx-8]
  0002b	33 c8		 xor	 ecx, eax
  0002d	e8 00 00 00 00	 call	 @__security_check_cookie@4
  00032	b8 00 00 00 00	 mov	 eax, OFFSET __ehfuncinfo$?Update@CPythonBackground@@QAEXMMM@Z
  00037	e9 00 00 00 00	 jmp	 ___CxxFrameHandler3
text$x	ENDS
?Update@CPythonBackground@@QAEXMMM@Z ENDP		; CPythonBackground::Update
; Function compile flags: /Ogtp
; File D:\_m2work\txoko-m2-work\txoko-client-src\source\UserInterface\PythonBackground.cpp
;	COMDAT ?RenderAfterLensFlare@CPythonBackground@@QAEXXZ
_TEXT	SEGMENT
?RenderAfterLensFlare@CPythonBackground@@QAEXXZ PROC	; CPythonBackground::RenderAfterLensFlare, COMDAT
; _this$ = ecx

; 658  : {

  00000	56		 push	 esi
  00001	8b f1		 mov	 esi, ecx

; 659  : 	if (!IsMapReady())

  00003	e8 00 00 00 00	 call	 ?IsMapReady@CMapManager@@QAE_NXZ ; CMapManager::IsMapReady
  00008	84 c0		 test	 al, al
  0000a	74 0f		 je	 SHORT $LN1@RenderAfte

; 660  : 		return;
; 661  : 
; 662  : 	CMapOutdoor& rkMap=GetMapOutdoorRef();

  0000c	8b ce		 mov	 ecx, esi
  0000e	e8 00 00 00 00	 call	 ?GetMapOutdoorRef@CMapManager@@QAEAAVCMapOutdoor@@XZ ; CMapManager::GetMapOutdoorRef

; 663  : 	rkMap.RenderAfterLensFlare();

  00013	8b c8		 mov	 ecx, eax
  00015	5e		 pop	 esi
  00016	e9 00 00 00 00	 jmp	 ?RenderAfterLensFlare@CMapOutdoor@@QAEXXZ ; CMapOutdoor::RenderAfterLensFlare
$LN1@RenderAfte:
  0001b	5e		 pop	 esi

; 664  : }

  0001c	c3		 ret	 0
?RenderAfterLensFlare@CPythonBackground@@QAEXXZ ENDP	; CPythonBackground::RenderAfterLensFlare
_TEXT	ENDS
; Function compile flags: /Ogtp
; File D:\_m2work\txoko-m2-work\txoko-client-src\source\UserInterface\PythonBackground.cpp
;	COMDAT ?RenderPCBlocker@CPythonBackground@@QAEXXZ
_TEXT	SEGMENT
?RenderPCBlocker@CPythonBackground@@QAEXXZ PROC		; CPythonBackground::RenderPCBlocker, COMDAT
; _this$ = ecx

; 487  : {

  00000	56		 push	 esi
  00001	8b f1		 mov	 esi, ecx

; 488  : 	if (!IsMapReady())

  00003	e8 00 00 00 00	 call	 ?IsMapReady@CMapManager@@QAE_NXZ ; CMapManager::IsMapReady
  00008	84 c0		 test	 al, al
  0000a	74 0f		 je	 SHORT $LN1@RenderPCBl

; 489  : 		return;
; 490  : 
; 491  : 	CMapOutdoor& rkMap=GetMapOutdoorRef();

  0000c	8b ce		 mov	 ecx, esi
  0000e	e8 00 00 00 00	 call	 ?GetMapOutdoorRef@CMapManager@@QAEAAVCMapOutdoor@@XZ ; CMapManager::GetMapOutdoorRef

; 492  : 	rkMap.RenderPCBlocker();

  00013	8b c8		 mov	 ecx, eax
  00015	5e		 pop	 esi
  00016	e9 00 00 00 00	 jmp	 ?RenderPCBlocker@CMapOutdoor@@QAEXXZ ; CMapOutdoor::RenderPCBlocker
$LN1@RenderPCBl:
  0001b	5e		 pop	 esi

; 493  : }

  0001c	c3		 ret	 0
?RenderPCBlocker@CPythonBackground@@QAEXXZ ENDP		; CPythonBackground::RenderPCBlocker
_TEXT	ENDS
; Function compile flags: /Ogtp
; File D:\_m2work\txoko-m2-work\txoko-client-src\source\UserInterface\PythonBackground.cpp
;	COMDAT ?RenderEffect@CPythonBackground@@QAEXXZ
_TEXT	SEGMENT
?RenderEffect@CPythonBackground@@QAEXXZ PROC		; CPythonBackground::RenderEffect, COMDAT
; _this$ = ecx

; 640  : {

  00000	56		 push	 esi
  00001	8b f1		 mov	 esi, ecx

; 641  : 	if (!IsMapReady())

  00003	e8 00 00 00 00	 call	 ?IsMapReady@CMapManager@@QAE_NXZ ; CMapManager::IsMapReady
  00008	84 c0		 test	 al, al
  0000a	74 0f		 je	 SHORT $LN1@RenderEffe

; 642  : 		return;
; 643  : 
; 644  : 	CMapOutdoor& rkMap=GetMapOutdoorRef();

  0000c	8b ce		 mov	 ecx, esi
  0000e	e8 00 00 00 00	 call	 ?GetMapOutdoorRef@CMapManager@@QAEAAVCMapOutdoor@@XZ ; CMapManager::GetMapOutdoorRef

; 645  : 	rkMap.RenderEffect();

  00013	8b c8		 mov	 ecx, eax
  00015	5e		 pop	 esi
  00016	e9 00 00 00 00	 jmp	 ?RenderEffect@CMapOutdoor@@QAEXXZ ; CMapOutdoor::RenderEffect
$LN1@RenderEffe:
  0001b	5e		 pop	 esi

; 646  : }

  0001c	c3		 ret	 0
?RenderEffect@CPythonBackground@@QAEXXZ ENDP		; CPythonBackground::RenderEffect
_TEXT	ENDS
; Function compile flags: /Ogtp
; File D:\_m2work\txoko-m2-work\txoko-client-src\source\UserInterface\PythonBackground.cpp
;	COMDAT ?RenderSnow@CPythonBackground@@QAEXXZ
