; Listing generated by Microsoft (R) Optimizing Compiler Version 19.44.35217.0 

	TITLE	d:\_m2work\server client tmp4\clientvs22\vs_files\userinterface\distribute\pythonquest.obj
	.686P
	.XMM
	include listing.inc
	.model	flat

INCLUDELIB OLDNAMES

PUBLIC	??_C@_0CG@FJJGJNND@d?3?1ymir?5work?1ui?1game?1quest?1ques@ ; `string'
PUBLIC	??_C@_0CB@KNIDBLNN@Failed?5to?5find?5quest?5by?5index?5?$CF@ ; `string'
PUBLIC	??_C@_04CDAJCMJD@sisi@				; `string'
PUBLIC	??_C@_0BN@GHGBHNOC@season1?1icon?1scroll_open?4tga@ ; `string'
PUBLIC	??_C@_0N@PGFCKADA@GetQuestData@			; `string'
PUBLIC	??_C@_0O@HMKJHAHP@GetQuestCount@		; `string'
PUBLIC	??_C@_0BB@LFMNEJD@GetQuestLastTime@		; `string'
PUBLIC	??_C@_0O@KIBHOKLO@GetQuestIndex@		; `string'
PUBLIC	??_C@_0O@IKHMHCIN@QUEST_MAX_NUM@		; `string'
PUBLIC	??_C@_05KOGNICEN@quest@				; `string'
PUBLIC	??_R2CPythonQuest@@8				; CPythonQuest::`RTTI Base Class Array'
PUBLIC	??_R1A@?0A@EA@CPythonQuest@@8			; CPythonQuest::`RTTI Base Class Descriptor at (0,-1,0,64)'
PUBLIC	??_R2?$CSingleton@VCPythonQuest@@@@8		; CSingleton<CPythonQuest>::`RTTI Base Class Array'
PUBLIC	??_R3?$CSingleton@VCPythonQuest@@@@8		; CSingleton<CPythonQuest>::`RTTI Class Hierarchy Descriptor'
PUBLIC	??_R1A@?0A@EA@?$CSingleton@VCPythonQuest@@@@8	; CSingleton<CPythonQuest>::`RTTI Base Class Descriptor at (0,-1,0,64)'
PUBLIC	??_R3CPythonQuest@@8				; CPythonQuest::`RTTI Class Hierarchy Descriptor'
PUBLIC	??_R0?AV?$CSingleton@VCPythonQuest@@@@@8	; CSingleton<CPythonQuest> `RTTI Type Descriptor'
PUBLIC	??_R4?$CSingleton@VCPythonQuest@@@@6B@		; CSingleton<CPythonQuest>::`RTTI Complete Object Locator'
PUBLIC	??_R0?AVCPythonQuest@@@8			; CPythonQuest `RTTI Type Descriptor'
PUBLIC	??_R4CPythonQuest@@6B@				; CPythonQuest::`RTTI Complete Object Locator'
PUBLIC	??_7?$CSingleton@VCPythonQuest@@@@6B@		; CSingleton<CPythonQuest>::`vftable'
PUBLIC	??_7CPythonQuest@@6B@				; CPythonQuest::`vftable'
;	COMDAT ??_7CPythonQuest@@6B@
CONST	SEGMENT
??_7CPythonQuest@@6B@ DD FLAT:??_R4CPythonQuest@@6B@	; CPythonQuest::`vftable'
	DD	FLAT:??_ECPythonQuest@@UAEPAXI@Z
CONST	ENDS
;	COMDAT ?s_methods@?1??initquest@@YAXXZ@4PAUPyMethodDef@@A
_DATA	SEGMENT
?s_methods@?1??initquest@@YAXXZ@4PAUPyMethodDef@@A DD FLAT:??_C@_0O@HMKJHAHP@GetQuestCount@ ; `initquest'::`2'::s_methods
	DD	FLAT:?questGetQuestCount@@YAPAU_object@@PAU1@0@Z
	DD	01H
	ORG $+4
	DD	FLAT:??_C@_0N@PGFCKADA@GetQuestData@
	DD	FLAT:?questGetQuestData@@YAPAU_object@@PAU1@0@Z
	DD	01H
	ORG $+4
	DD	FLAT:??_C@_0O@KIBHOKLO@GetQuestIndex@
	DD	FLAT:?questGetQuestIndex@@YAPAU_object@@PAU1@0@Z
	DD	01H
	ORG $+4
	DD	FLAT:??_C@_0BB@LFMNEJD@GetQuestLastTime@
	DD	FLAT:?questGetQuestLastTime@@YAPAU_object@@PAU1@0@Z
	DD	01H
	ORG $+4
	DD	FLAT:??_C@_05MDNHABIA@Clear@
	DD	FLAT:?questClear@@YAPAU_object@@PAU1@0@Z
	DD	01H
	ORG $+4
	DD	00H
	DD	00H
	DD	00H
	ORG $+4
_DATA	ENDS
;	COMDAT ??_7?$CSingleton@VCPythonQuest@@@@6B@
CONST	SEGMENT
??_7?$CSingleton@VCPythonQuest@@@@6B@ DD FLAT:??_R4?$CSingleton@VCPythonQuest@@@@6B@ ; CSingleton<CPythonQuest>::`vftable'
	DD	FLAT:??_E?$CSingleton@VCPythonQuest@@@@UAEPAXI@Z
CONST	ENDS
;	COMDAT ??_R4CPythonQuest@@6B@
rdata$r	SEGMENT
??_R4CPythonQuest@@6B@ DD 00H				; CPythonQuest::`RTTI Complete Object Locator'
	DD	00H
	DD	00H
	DD	FLAT:??_R0?AVCPythonQuest@@@8
	DD	FLAT:??_R3CPythonQuest@@8
rdata$r	ENDS
;	COMDAT ??_R0?AVCPythonQuest@@@8
data$rs	SEGMENT
??_R0?AVCPythonQuest@@@8 DD FLAT:??_7type_info@@6B@	; CPythonQuest `RTTI Type Descriptor'
	DD	00H
	DB	'.?AVCPythonQuest@@', 00H
data$rs	ENDS
;	COMDAT ??_R4?$CSingleton@VCPythonQuest@@@@6B@
rdata$r	SEGMENT
??_R4?$CSingleton@VCPythonQuest@@@@6B@ DD 00H		; CSingleton<CPythonQuest>::`RTTI Complete Object Locator'
	DD	00H
	DD	00H
	DD	FLAT:??_R0?AV?$CSingleton@VCPythonQuest@@@@@8
	DD	FLAT:??_R3?$CSingleton@VCPythonQuest@@@@8
rdata$r	ENDS
;	COMDAT ??_R0?AV?$CSingleton@VCPythonQuest@@@@@8
data$rs	SEGMENT
??_R0?AV?$CSingleton@VCPythonQuest@@@@@8 DD FLAT:??_7type_info@@6B@ ; CSingleton<CPythonQuest> `RTTI Type Descriptor'
	DD	00H
	DB	'.?AV?$CSingleton@VCPythonQuest@@@@', 00H
data$rs	ENDS
;	COMDAT ??_R3CPythonQuest@@8
rdata$r	SEGMENT
??_R3CPythonQuest@@8 DD 00H				; CPythonQuest::`RTTI Class Hierarchy Descriptor'
	DD	00H
	DD	02H
	DD	FLAT:??_R2CPythonQuest@@8
rdata$r	ENDS
;	COMDAT ??_R1A@?0A@EA@?$CSingleton@VCPythonQuest@@@@8
rdata$r	SEGMENT
??_R1A@?0A@EA@?$CSingleton@VCPythonQuest@@@@8 DD FLAT:??_R0?AV?$CSingleton@VCPythonQuest@@@@@8 ; CSingleton<CPythonQuest>::`RTTI Base Class Descriptor at (0,-1,0,64)'
	DD	00H
	DD	00H
	DD	0ffffffffH
	DD	00H
	DD	040H
	DD	FLAT:??_R3?$CSingleton@VCPythonQuest@@@@8
rdata$r	ENDS
;	COMDAT ??_R3?$CSingleton@VCPythonQuest@@@@8
rdata$r	SEGMENT
??_R3?$CSingleton@VCPythonQuest@@@@8 DD 00H		; CSingleton<CPythonQuest>::`RTTI Class Hierarchy Descriptor'
	DD	00H
	DD	01H
	DD	FLAT:??_R2?$CSingleton@VCPythonQuest@@@@8
rdata$r	ENDS
;	COMDAT ??_R2?$CSingleton@VCPythonQuest@@@@8
rdata$r	SEGMENT
??_R2?$CSingleton@VCPythonQuest@@@@8 DD FLAT:??_R1A@?0A@EA@?$CSingleton@VCPythonQuest@@@@8 ; CSingleton<CPythonQuest>::`RTTI Base Class Array'
rdata$r	ENDS
;	COMDAT ??_R1A@?0A@EA@CPythonQuest@@8
rdata$r	SEGMENT
??_R1A@?0A@EA@CPythonQuest@@8 DD FLAT:??_R0?AVCPythonQuest@@@8 ; CPythonQuest::`RTTI Base Class Descriptor at (0,-1,0,64)'
	DD	01H
	DD	00H
	DD	0ffffffffH
	DD	00H
	DD	040H
	DD	FLAT:??_R3CPythonQuest@@8
rdata$r	ENDS
;	COMDAT ??_R2CPythonQuest@@8
rdata$r	SEGMENT
??_R2CPythonQuest@@8 DD FLAT:??_R1A@?0A@EA@CPythonQuest@@8 ; CPythonQuest::`RTTI Base Class Array'
	DD	FLAT:??_R1A@?0A@EA@?$CSingleton@VCPythonQuest@@@@8
rdata$r	ENDS
;	COMDAT ??_C@_05KOGNICEN@quest@
CONST	SEGMENT
??_C@_05KOGNICEN@quest@ DB 'quest', 00H			; `string'
CONST	ENDS
;	COMDAT ??_C@_0O@IKHMHCIN@QUEST_MAX_NUM@
CONST	SEGMENT
??_C@_0O@IKHMHCIN@QUEST_MAX_NUM@ DB 'QUEST_MAX_NUM', 00H ; `string'
CONST	ENDS
;	COMDAT ??_C@_0O@KIBHOKLO@GetQuestIndex@
CONST	SEGMENT
??_C@_0O@KIBHOKLO@GetQuestIndex@ DB 'GetQuestIndex', 00H ; `string'
CONST	ENDS
;	COMDAT ??_C@_0BB@LFMNEJD@GetQuestLastTime@
CONST	SEGMENT
??_C@_0BB@LFMNEJD@GetQuestLastTime@ DB 'GetQuestLastTime', 00H ; `string'
CONST	ENDS
;	COMDAT ??_C@_0O@HMKJHAHP@GetQuestCount@
CONST	SEGMENT
??_C@_0O@HMKJHAHP@GetQuestCount@ DB 'GetQuestCount', 00H ; `string'
CONST	ENDS
;	COMDAT ??_C@_0N@PGFCKADA@GetQuestData@
CONST	SEGMENT
??_C@_0N@PGFCKADA@GetQuestData@ DB 'GetQuestData', 00H	; `string'
CONST	ENDS
;	COMDAT ??_C@_0BN@GHGBHNOC@season1?1icon?1scroll_open?4tga@
CONST	SEGMENT
??_C@_0BN@GHGBHNOC@season1?1icon?1scroll_open?4tga@ DB 'season1/icon/scro'
	DB	'll_open.tga', 00H				; `string'
CONST	ENDS
;	COMDAT ??_C@_04CDAJCMJD@sisi@
CONST	SEGMENT
??_C@_04CDAJCMJD@sisi@ DB 'sisi', 00H			; `string'
CONST	ENDS
;	COMDAT ??_C@_0CB@KNIDBLNN@Failed?5to?5find?5quest?5by?5index?5?$CF@
CONST	SEGMENT
??_C@_0CB@KNIDBLNN@Failed?5to?5find?5quest?5by?5index?5?$CF@ DB 'Failed t'
	DB	'o find quest by index %d', 00H		; `string'
CONST	ENDS
;	COMDAT ??_C@_0CG@FJJGJNND@d?3?1ymir?5work?1ui?1game?1quest?1ques@
CONST	SEGMENT
??_C@_0CG@FJJGJNND@d?3?1ymir?5work?1ui?1game?1quest?1ques@ DB 'd:/ymir wo'
	DB	'rk/ui/game/quest/questicon/', 00H		; `string'
PUBLIC	?_Get_first@?$_Compressed_pair@V?$allocator@USQuestInstance@CPythonQuest@@@std@@V?$_Vector_val@U?$_Simple_types@USQuestInstance@CPythonQuest@@@std@@@2@$00@std@@QBEABV?$allocator@USQuestInstance@CPythonQuest@@@2@XZ ; std::_Compressed_pair<std::allocator<CPythonQuest::SQuestInstance>,std::_Vector_val<std::_Simple_types<CPythonQuest::SQuestInstance> >,1>::_Get_first
PUBLIC	??$_Get_size_of_n@$0HA@@std@@YAII@Z		; std::_Get_size_of_n<112>
PUBLIC	??0SQuestInstance@CPythonQuest@@QAE@ABU01@@Z	; CPythonQuest::SQuestInstance::SQuestInstance
PUBLIC	?allocate@?$allocator@USQuestInstance@CPythonQuest@@@std@@QAEPAUSQuestInstance@CPythonQuest@@I@Z ; std::allocator<CPythonQuest::SQuestInstance>::allocate
PUBLIC	?capacity@?$vector@USQuestInstance@CPythonQuest@@V?$allocator@USQuestInstance@CPythonQuest@@@std@@@std@@QBEIXZ ; std::vector<CPythonQuest::SQuestInstance,std::allocator<CPythonQuest::SQuestInstance> >::capacity
PUBLIC	?_Getal@?$vector@USQuestInstance@CPythonQuest@@V?$allocator@USQuestInstance@CPythonQuest@@@std@@@std@@ABEABV?$allocator@USQuestInstance@CPythonQuest@@@2@XZ ; std::vector<CPythonQuest::SQuestInstance,std::allocator<CPythonQuest::SQuestInstance> >::_Getal
PUBLIC	?max_size@?$_Default_allocator_traits@V?$allocator@USQuestInstance@CPythonQuest@@@std@@@std@@SAIABV?$allocator@USQuestInstance@CPythonQuest@@@2@@Z ; std::_Default_allocator_traits<std::allocator<CPythonQuest::SQuestInstance> >::max_size
PUBLIC	??0?$_Uninitialized_backout_al@V?$allocator@USQuestInstance@CPythonQuest@@@std@@@std@@QAE@PAUSQuestInstance@CPythonQuest@@AAV?$allocator@USQuestInstance@CPythonQuest@@@1@@Z ; std::_Uninitialized_backout_al<std::allocator<CPythonQuest::SQuestInstance> >::_Uninitialized_backout_al<std::allocator<CPythonQuest::SQuestInstance> >
PUBLIC	??1?$_Uninitialized_backout_al@V?$allocator@USQuestInstance@CPythonQuest@@@std@@@std@@QAE@XZ ; std::_Uninitialized_backout_al<std::allocator<CPythonQuest::SQuestInstance> >::~_Uninitialized_backout_al<std::allocator<CPythonQuest::SQuestInstance> >
PUBLIC	?_Release@?$_Uninitialized_backout_al@V?$allocator@USQuestInstance@CPythonQuest@@@std@@@std@@QAEPAUSQuestInstance@CPythonQuest@@XZ ; std::_Uninitialized_backout_al<std::allocator<CPythonQuest::SQuestInstance> >::_Release
PUBLIC	??$construct_at@USQuestInstance@CPythonQuest@@ABU12@@std@@YAPAUSQuestInstance@CPythonQuest@@QAU12@ABU12@@Z ; std::construct_at<CPythonQuest::SQuestInstance,CPythonQuest::SQuestInstance const &>
PUBLIC	??$_Emplace_back@USQuestInstance@CPythonQuest@@@?$_Uninitialized_backout_al@V?$allocator@USQuestInstance@CPythonQuest@@@std@@@std@@QAEX$$QAUSQuestInstance@CPythonQuest@@@Z ; std::_Uninitialized_backout_al<std::allocator<CPythonQuest::SQuestInstance> >::_Emplace_back<CPythonQuest::SQuestInstance>
PUBLIC	??$construct_at@USQuestInstance@CPythonQuest@@U12@@std@@YAPAUSQuestInstance@CPythonQuest@@QAU12@$$QAU12@@Z ; std::construct_at<CPythonQuest::SQuestInstance,CPythonQuest::SQuestInstance>
PUBLIC	??$addressof@USQuestInstance@CPythonQuest@@@std@@YAPAUSQuestInstance@CPythonQuest@@AAU12@@Z ; std::addressof<CPythonQuest::SQuestInstance>
PUBLIC	??0SQuestInstance@CPythonQuest@@QAE@$$QAU01@@Z	; CPythonQuest::SQuestInstance::SQuestInstance
PUBLIC	?max_size@?$vector@USQuestInstance@CPythonQuest@@V?$allocator@USQuestInstance@CPythonQuest@@@std@@@std@@QBEIXZ ; std::vector<CPythonQuest::SQuestInstance,std::allocator<CPythonQuest::SQuestInstance> >::max_size
PUBLIC	?_Calculate_growth@?$vector@USQuestInstance@CPythonQuest@@V?$allocator@USQuestInstance@CPythonQuest@@@std@@@std@@ABEII@Z ; std::vector<CPythonQuest::SQuestInstance,std::allocator<CPythonQuest::SQuestInstance> >::_Calculate_growth
PUBLIC	?_Change_array@?$vector@USQuestInstance@CPythonQuest@@V?$allocator@USQuestInstance@CPythonQuest@@@std@@@std@@AAEXQAUSQuestInstance@CPythonQuest@@II@Z ; std::vector<CPythonQuest::SQuestInstance,std::allocator<CPythonQuest::SQuestInstance> >::_Change_array
PUBLIC	?_Xlength@?$vector@USQuestInstance@CPythonQuest@@V?$allocator@USQuestInstance@CPythonQuest@@@std@@@std@@CAXXZ ; std::vector<CPythonQuest::SQuestInstance,std::allocator<CPythonQuest::SQuestInstance> >::_Xlength
PUBLIC	??1_Reallocation_guard@?$vector@USQuestInstance@CPythonQuest@@V?$allocator@USQuestInstance@CPythonQuest@@@std@@@std@@QAE@XZ ; std::vector<CPythonQuest::SQuestInstance,std::allocator<CPythonQuest::SQuestInstance> >::_Reallocation_guard::~_Reallocation_guard
PUBLIC	??$_Refancy_maybe_null@PAUSQuestInstance@CPythonQuest@@$0A@@std@@YAPAUSQuestInstance@CPythonQuest@@PAU12@@Z ; std::_Refancy_maybe_null<CPythonQuest::SQuestInstance *,0>
PUBLIC	??$construct@USQuestInstance@CPythonQuest@@ABU12@@?$_Default_allocator_traits@V?$allocator@USQuestInstance@CPythonQuest@@@std@@@std@@SAXAAV?$allocator@USQuestInstance@CPythonQuest@@@1@QAUSQuestInstance@CPythonQuest@@ABU34@@Z ; std::_Default_allocator_traits<std::allocator<CPythonQuest::SQuestInstance> >::construct<CPythonQuest::SQuestInstance,CPythonQuest::SQuestInstance const &>
PUBLIC	??$_Uninitialized_move@PAUSQuestInstance@CPythonQuest@@V?$allocator@USQuestInstance@CPythonQuest@@@std@@@std@@YAPAUSQuestInstance@CPythonQuest@@QAU12@0PAU12@AAV?$allocator@USQuestInstance@CPythonQuest@@@0@@Z ; std::_Uninitialized_move<CPythonQuest::SQuestInstance *,std::allocator<CPythonQuest::SQuestInstance> >
PUBLIC	??$_Get_unwrapped@ABQAUSQuestInstance@CPythonQuest@@@std@@YA?A_TABQAUSQuestInstance@CPythonQuest@@@Z ; std::_Get_unwrapped<CPythonQuest::SQuestInstance * const &>
PUBLIC	??$construct@USQuestInstance@CPythonQuest@@U12@@?$_Default_allocator_traits@V?$allocator@USQuestInstance@CPythonQuest@@@std@@@std@@SAXAAV?$allocator@USQuestInstance@CPythonQuest@@@1@QAUSQuestInstance@CPythonQuest@@$$QAU34@@Z ; std::_Default_allocator_traits<std::allocator<CPythonQuest::SQuestInstance> >::construct<CPythonQuest::SQuestInstance,CPythonQuest::SQuestInstance>
PUBLIC	??$_Allocate_at_least_helper@V?$allocator@USQuestInstance@CPythonQuest@@@std@@@std@@YAPAUSQuestInstance@CPythonQuest@@AAV?$allocator@USQuestInstance@CPythonQuest@@@0@AAI@Z ; std::_Allocate_at_least_helper<std::allocator<CPythonQuest::SQuestInstance> >
PUBLIC	??$_Construct_in_place@USQuestInstance@CPythonQuest@@U12@@std@@YAXAAUSQuestInstance@CPythonQuest@@$$QAU12@@Z ; std::_Construct_in_place<CPythonQuest::SQuestInstance,CPythonQuest::SQuestInstance>
PUBLIC	??_GSQuestInstance@CPythonQuest@@QAEPAXI@Z	; CPythonQuest::SQuestInstance::`scalar deleting destructor'
PUBLIC	??0?$allocator@USQuestInstance@CPythonQuest@@@std@@QAE@XZ ; std::allocator<CPythonQuest::SQuestInstance>::allocator<CPythonQuest::SQuestInstance>
PUBLIC	?deallocate@?$allocator@USQuestInstance@CPythonQuest@@@std@@QAEXQAUSQuestInstance@CPythonQuest@@I@Z ; std::allocator<CPythonQuest::SQuestInstance>::deallocate
PUBLIC	??0?$_Vector_val@U?$_Simple_types@USQuestInstance@CPythonQuest@@@std@@@std@@QAE@XZ ; std::_Vector_val<std::_Simple_types<CPythonQuest::SQuestInstance> >::_Vector_val<std::_Simple_types<CPythonQuest::SQuestInstance> >
PUBLIC	??F?$_Vector_const_iterator@V?$_Vector_val@U?$_Simple_types@USQuestInstance@CPythonQuest@@@std@@@std@@@std@@QAEAAV01@XZ ; std::_Vector_const_iterator<std::_Vector_val<std::_Simple_types<CPythonQuest::SQuestInstance> > >::operator--
PUBLIC	?_Seek_to@?$_Vector_const_iterator@V?$_Vector_val@U?$_Simple_types@USQuestInstance@CPythonQuest@@@std@@@std@@@std@@QAEXPBUSQuestInstance@CPythonQuest@@@Z ; std::_Vector_const_iterator<std::_Vector_val<std::_Simple_types<CPythonQuest::SQuestInstance> > >::_Seek_to
PUBLIC	?_Get_first@?$_Compressed_pair@V?$allocator@USQuestInstance@CPythonQuest@@@std@@V?$_Vector_val@U?$_Simple_types@USQuestInstance@CPythonQuest@@@std@@@2@$00@std@@QAEAAV?$allocator@USQuestInstance@CPythonQuest@@@2@XZ ; std::_Compressed_pair<std::allocator<CPythonQuest::SQuestInstance>,std::_Vector_val<std::_Simple_types<CPythonQuest::SQuestInstance> >,1>::_Get_first
PUBLIC	??$move@AAV?$_Vector_iterator@V?$_Vector_val@U?$_Simple_types@USQuestInstance@CPythonQuest@@@std@@@std@@@std@@@std@@YA$$QAV?$_Vector_iterator@V?$_Vector_val@U?$_Simple_types@USQuestInstance@CPythonQuest@@@std@@@std@@@0@AAV10@@Z ; std::move<std::_Vector_iterator<std::_Vector_val<std::_Simple_types<CPythonQuest::SQuestInstance> > > &>
PUBLIC	??$_Emplace_reallocate@ABUSQuestInstance@CPythonQuest@@@?$vector@USQuestInstance@CPythonQuest@@V?$allocator@USQuestInstance@CPythonQuest@@@std@@@std@@AAEPAUSQuestInstance@CPythonQuest@@QAU23@ABU23@@Z ; std::vector<CPythonQuest::SQuestInstance,std::allocator<CPythonQuest::SQuestInstance> >::_Emplace_reallocate<CPythonQuest::SQuestInstance const &>
PUBLIC	??$_Emplace_back_with_unused_capacity@ABUSQuestInstance@CPythonQuest@@@?$vector@USQuestInstance@CPythonQuest@@V?$allocator@USQuestInstance@CPythonQuest@@@std@@@std@@AAEAAUSQuestInstance@CPythonQuest@@ABU23@@Z ; std::vector<CPythonQuest::SQuestInstance,std::allocator<CPythonQuest::SQuestInstance> >::_Emplace_back_with_unused_capacity<CPythonQuest::SQuestInstance const &>
PUBLIC	??$forward@ABUSQuestInstance@CPythonQuest@@@std@@YAABUSQuestInstance@CPythonQuest@@ABU12@@Z ; std::forward<CPythonQuest::SQuestInstance const &>
PUBLIC	??$_Emplace_reallocate@USQuestInstance@CPythonQuest@@@?$vector@USQuestInstance@CPythonQuest@@V?$allocator@USQuestInstance@CPythonQuest@@@std@@@std@@AAEPAUSQuestInstance@CPythonQuest@@QAU23@$$QAU23@@Z ; std::vector<CPythonQuest::SQuestInstance,std::allocator<CPythonQuest::SQuestInstance> >::_Emplace_reallocate<CPythonQuest::SQuestInstance>
PUBLIC	??$_Emplace_back_with_unused_capacity@USQuestInstance@CPythonQuest@@@?$vector@USQuestInstance@CPythonQuest@@V?$allocator@USQuestInstance@CPythonQuest@@@std@@@std@@AAEAAUSQuestInstance@CPythonQuest@@$$QAU23@@Z ; std::vector<CPythonQuest::SQuestInstance,std::allocator<CPythonQuest::SQuestInstance> >::_Emplace_back_with_unused_capacity<CPythonQuest::SQuestInstance>
PUBLIC	??$forward@USQuestInstance@CPythonQuest@@@std@@YA$$QAUSQuestInstance@CPythonQuest@@AAU12@@Z ; std::forward<CPythonQuest::SQuestInstance>
PUBLIC	??$destroy_at@USQuestInstance@CPythonQuest@@@std@@YAXQAUSQuestInstance@CPythonQuest@@@Z ; std::destroy_at<CPythonQuest::SQuestInstance>
PUBLIC	??$forward@AAPAUSQuestInstance@CPythonQuest@@@std@@YAAAPAUSQuestInstance@CPythonQuest@@AAPAU12@@Z ; std::forward<CPythonQuest::SQuestInstance * &>
PUBLIC	?_Tidy@?$vector@USQuestInstance@CPythonQuest@@V?$allocator@USQuestInstance@CPythonQuest@@@std@@@std@@AAEXXZ ; std::vector<CPythonQuest::SQuestInstance,std::allocator<CPythonQuest::SQuestInstance> >::_Tidy
PUBLIC	?_Orphan_range@?$vector@USQuestInstance@CPythonQuest@@V?$allocator@USQuestInstance@CPythonQuest@@@std@@@std@@ABEXPAUSQuestInstance@CPythonQuest@@0@Z ; std::vector<CPythonQuest::SQuestInstance,std::allocator<CPythonQuest::SQuestInstance> >::_Orphan_range
PUBLIC	?_Getal@?$vector@USQuestInstance@CPythonQuest@@V?$allocator@USQuestInstance@CPythonQuest@@@std@@@std@@AAEAAV?$allocator@USQuestInstance@CPythonQuest@@@2@XZ ; std::vector<CPythonQuest::SQuestInstance,std::allocator<CPythonQuest::SQuestInstance> >::_Getal
PUBLIC	??F?$_Vector_iterator@V?$_Vector_val@U?$_Simple_types@USQuestInstance@CPythonQuest@@@std@@@std@@@std@@QAEAAV01@XZ ; std::_Vector_iterator<std::_Vector_val<std::_Simple_types<CPythonQuest::SQuestInstance> > >::operator--
PUBLIC	??0?$_Vector_const_iterator@V?$_Vector_val@U?$_Simple_types@USQuestInstance@CPythonQuest@@@std@@@std@@@std@@QAE@PAUSQuestInstance@CPythonQuest@@PBU_Container_base0@1@@Z ; std::_Vector_const_iterator<std::_Vector_val<std::_Simple_types<CPythonQuest::SQuestInstance> > >::_Vector_const_iterator<std::_Vector_val<std::_Simple_types<CPythonQuest::SQuestInstance> > >
PUBLIC	??D?$_Vector_const_iterator@V?$_Vector_val@U?$_Simple_types@USQuestInstance@CPythonQuest@@@std@@@std@@@std@@QBEABUSQuestInstance@CPythonQuest@@XZ ; std::_Vector_const_iterator<std::_Vector_val<std::_Simple_types<CPythonQuest::SQuestInstance> > >::operator*
PUBLIC	?_Compat@?$_Vector_const_iterator@V?$_Vector_val@U?$_Simple_types@USQuestInstance@CPythonQuest@@@std@@@std@@@std@@QBEXABV12@@Z ; std::_Vector_const_iterator<std::_Vector_val<std::_Simple_types<CPythonQuest::SQuestInstance> > >::_Compat
PUBLIC	??0?$reverse_iterator@V?$_Vector_iterator@V?$_Vector_val@U?$_Simple_types@USQuestInstance@CPythonQuest@@@std@@@std@@@std@@@std@@QAE@V?$_Vector_iterator@V?$_Vector_val@U?$_Simple_types@USQuestInstance@CPythonQuest@@@std@@@std@@@1@@Z ; std::reverse_iterator<std::_Vector_iterator<std::_Vector_val<std::_Simple_types<CPythonQuest::SQuestInstance> > > >::reverse_iterator<std::_Vector_iterator<std::_Vector_val<std::_Simple_types<CPythonQuest::SQuestInstance> > > >
PUBLIC	??$?0$$V@?$_Compressed_pair@V?$allocator@USQuestInstance@CPythonQuest@@@std@@V?$_Vector_val@U?$_Simple_types@USQuestInstance@CPythonQuest@@@std@@@2@$00@std@@QAE@U_Zero_then_variadic_args_t@1@@Z ; std::_Compressed_pair<std::allocator<CPythonQuest::SQuestInstance>,std::_Vector_val<std::_Simple_types<CPythonQuest::SQuestInstance> >,1>::_Compressed_pair<std::allocator<CPythonQuest::SQuestInstance>,std::_Vector_val<std::_Simple_types<CPythonQuest::SQuestInstance> >,1><>
PUBLIC	??$_Emplace_one_at_back@ABUSQuestInstance@CPythonQuest@@@?$vector@USQuestInstance@CPythonQuest@@V?$allocator@USQuestInstance@CPythonQuest@@@std@@@std@@AAEAAUSQuestInstance@CPythonQuest@@ABU23@@Z ; std::vector<CPythonQuest::SQuestInstance,std::allocator<CPythonQuest::SQuestInstance> >::_Emplace_one_at_back<CPythonQuest::SQuestInstance const &>
PUBLIC	??$_Emplace_one_at_back@USQuestInstance@CPythonQuest@@@?$vector@USQuestInstance@CPythonQuest@@V?$allocator@USQuestInstance@CPythonQuest@@@std@@@std@@AAEAAUSQuestInstance@CPythonQuest@@$$QAU23@@Z ; std::vector<CPythonQuest::SQuestInstance,std::allocator<CPythonQuest::SQuestInstance> >::_Emplace_one_at_back<CPythonQuest::SQuestInstance>
PUBLIC	??$destroy@USQuestInstance@CPythonQuest@@@?$_Default_allocator_traits@V?$allocator@USQuestInstance@CPythonQuest@@@std@@@std@@SAXAAV?$allocator@USQuestInstance@CPythonQuest@@@1@QAUSQuestInstance@CPythonQuest@@@Z ; std::_Default_allocator_traits<std::allocator<CPythonQuest::SQuestInstance> >::destroy<CPythonQuest::SQuestInstance>
PUBLIC	??$_Unfancy@USQuestInstance@CPythonQuest@@@std@@YAPAUSQuestInstance@CPythonQuest@@PAU12@@Z ; std::_Unfancy<CPythonQuest::SQuestInstance>
PUBLIC	??4SQuestInstance@CPythonQuest@@QAEAAU01@$$QAU01@@Z ; CPythonQuest::SQuestInstance::operator=
PUBLIC	??$_Move_unchecked@PAUSQuestInstance@CPythonQuest@@PAU12@@std@@YAPAUSQuestInstance@CPythonQuest@@PAU12@00@Z ; std::_Move_unchecked<CPythonQuest::SQuestInstance *,CPythonQuest::SQuestInstance *>
PUBLIC	??$_Destroy_range@V?$allocator@USQuestInstance@CPythonQuest@@@std@@@std@@YAXPAUSQuestInstance@CPythonQuest@@QAU12@AAV?$allocator@USQuestInstance@CPythonQuest@@@0@@Z ; std::_Destroy_range<std::allocator<CPythonQuest::SQuestInstance> >
PUBLIC	??$addressof@V?$_Vector_val@U?$_Simple_types@USQuestInstance@CPythonQuest@@@std@@@std@@@std@@YAPAV?$_Vector_val@U?$_Simple_types@USQuestInstance@CPythonQuest@@@std@@@0@AAV10@@Z ; std::addressof<std::_Vector_val<std::_Simple_types<CPythonQuest::SQuestInstance> > >
PUBLIC	??$_Seek_wrapped@V?$_Vector_iterator@V?$_Vector_val@U?$_Simple_types@USQuestInstance@CPythonQuest@@@std@@@std@@@std@@AAPAUSQuestInstance@CPythonQuest@@@std@@YAXAAV?$_Vector_iterator@V?$_Vector_val@U?$_Simple_types@USQuestInstance@CPythonQuest@@@std@@@std@@@0@AAPAUSQuestInstance@CPythonQuest@@@Z ; std::_Seek_wrapped<std::_Vector_iterator<std::_Vector_val<std::_Simple_types<CPythonQuest::SQuestInstance> > >,CPythonQuest::SQuestInstance * &>
PUBLIC	??$_Unfancy_maybe_null@USQuestInstance@CPythonQuest@@@std@@YAPAUSQuestInstance@CPythonQuest@@PAU12@@Z ; std::_Unfancy_maybe_null<CPythonQuest::SQuestInstance>
PUBLIC	??$_Adl_verify_range@V?$_Vector_iterator@V?$_Vector_val@U?$_Simple_types@USQuestInstance@CPythonQuest@@@std@@@std@@@std@@V12@@std@@YAXABV?$_Vector_iterator@V?$_Vector_val@U?$_Simple_types@USQuestInstance@CPythonQuest@@@std@@@std@@@0@0@Z ; std::_Adl_verify_range<std::_Vector_iterator<std::_Vector_val<std::_Simple_types<CPythonQuest::SQuestInstance> > >,std::_Vector_iterator<std::_Vector_val<std::_Simple_types<CPythonQuest::SQuestInstance> > > >
PUBLIC	??_G?$CSingleton@VCPythonQuest@@@@UAEPAXI@Z	; CSingleton<CPythonQuest>::`scalar deleting destructor'
PUBLIC	??0?$CSingleton@VCPythonQuest@@@@QAE@XZ		; CSingleton<CPythonQuest>::CSingleton<CPythonQuest>
PUBLIC	??1?$CSingleton@VCPythonQuest@@@@UAE@XZ		; CSingleton<CPythonQuest>::~CSingleton<CPythonQuest>
PUBLIC	??0?$vector@USQuestInstance@CPythonQuest@@V?$allocator@USQuestInstance@CPythonQuest@@@std@@@std@@QAE@XZ ; std::vector<CPythonQuest::SQuestInstance,std::allocator<CPythonQuest::SQuestInstance> >::vector<CPythonQuest::SQuestInstance,std::allocator<CPythonQuest::SQuestInstance> >
PUBLIC	??1?$vector@USQuestInstance@CPythonQuest@@V?$allocator@USQuestInstance@CPythonQuest@@@std@@@std@@QAE@XZ ; std::vector<CPythonQuest::SQuestInstance,std::allocator<CPythonQuest::SQuestInstance> >::~vector<CPythonQuest::SQuestInstance,std::allocator<CPythonQuest::SQuestInstance> >
PUBLIC	?push_back@?$vector@USQuestInstance@CPythonQuest@@V?$allocator@USQuestInstance@CPythonQuest@@@std@@@std@@QAEXABUSQuestInstance@CPythonQuest@@@Z ; std::vector<CPythonQuest::SQuestInstance,std::allocator<CPythonQuest::SQuestInstance> >::push_back
PUBLIC	?push_back@?$vector@USQuestInstance@CPythonQuest@@V?$allocator@USQuestInstance@CPythonQuest@@@std@@@std@@QAEX$$QAUSQuestInstance@CPythonQuest@@@Z ; std::vector<CPythonQuest::SQuestInstance,std::allocator<CPythonQuest::SQuestInstance> >::push_back
PUBLIC	?erase@?$vector@USQuestInstance@CPythonQuest@@V?$allocator@USQuestInstance@CPythonQuest@@@std@@@std@@QAE?AV?$_Vector_iterator@V?$_Vector_val@U?$_Simple_types@USQuestInstance@CPythonQuest@@@std@@@std@@@2@V?$_Vector_const_iterator@V?$_Vector_val@U?$_Simple_types@USQuestInstance@CPythonQuest@@@std@@@std@@@2@@Z ; std::vector<CPythonQuest::SQuestInstance,std::allocator<CPythonQuest::SQuestInstance> >::erase
PUBLIC	?clear@?$vector@USQuestInstance@CPythonQuest@@V?$allocator@USQuestInstance@CPythonQuest@@@std@@@std@@QAEXXZ ; std::vector<CPythonQuest::SQuestInstance,std::allocator<CPythonQuest::SQuestInstance> >::clear
PUBLIC	?begin@?$vector@USQuestInstance@CPythonQuest@@V?$allocator@USQuestInstance@CPythonQuest@@@std@@@std@@QAE?AV?$_Vector_iterator@V?$_Vector_val@U?$_Simple_types@USQuestInstance@CPythonQuest@@@std@@@std@@@2@XZ ; std::vector<CPythonQuest::SQuestInstance,std::allocator<CPythonQuest::SQuestInstance> >::begin
PUBLIC	??0?$_Vector_iterator@V?$_Vector_val@U?$_Simple_types@USQuestInstance@CPythonQuest@@@std@@@std@@@std@@QAE@PAUSQuestInstance@CPythonQuest@@PBU_Container_base0@1@@Z ; std::_Vector_iterator<std::_Vector_val<std::_Simple_types<CPythonQuest::SQuestInstance> > >::_Vector_iterator<std::_Vector_val<std::_Simple_types<CPythonQuest::SQuestInstance> > >
PUBLIC	?end@?$vector@USQuestInstance@CPythonQuest@@V?$allocator@USQuestInstance@CPythonQuest@@@std@@@std@@QAE?AV?$_Vector_iterator@V?$_Vector_val@U?$_Simple_types@USQuestInstance@CPythonQuest@@@std@@@std@@@2@XZ ; std::vector<CPythonQuest::SQuestInstance,std::allocator<CPythonQuest::SQuestInstance> >::end
PUBLIC	?rbegin@?$vector@USQuestInstance@CPythonQuest@@V?$allocator@USQuestInstance@CPythonQuest@@@std@@@std@@QAE?AV?$reverse_iterator@V?$_Vector_iterator@V?$_Vector_val@U?$_Simple_types@USQuestInstance@CPythonQuest@@@std@@@std@@@std@@@2@XZ ; std::vector<CPythonQuest::SQuestInstance,std::allocator<CPythonQuest::SQuestInstance> >::rbegin
PUBLIC	?size@?$vector@USQuestInstance@CPythonQuest@@V?$allocator@USQuestInstance@CPythonQuest@@@std@@@std@@QBEIXZ ; std::vector<CPythonQuest::SQuestInstance,std::allocator<CPythonQuest::SQuestInstance> >::size
PUBLIC	??A?$vector@USQuestInstance@CPythonQuest@@V?$allocator@USQuestInstance@CPythonQuest@@@std@@@std@@QAEAAUSQuestInstance@CPythonQuest@@I@Z ; std::vector<CPythonQuest::SQuestInstance,std::allocator<CPythonQuest::SQuestInstance> >::operator[]
PUBLIC	??D?$_Vector_iterator@V?$_Vector_val@U?$_Simple_types@USQuestInstance@CPythonQuest@@@std@@@std@@@std@@QBEAAUSQuestInstance@CPythonQuest@@XZ ; std::_Vector_iterator<std::_Vector_val<std::_Simple_types<CPythonQuest::SQuestInstance> > >::operator*
PUBLIC	??8?$_Vector_const_iterator@V?$_Vector_val@U?$_Simple_types@USQuestInstance@CPythonQuest@@@std@@@std@@@std@@QBE_NABV01@@Z ; std::_Vector_const_iterator<std::_Vector_val<std::_Simple_types<CPythonQuest::SQuestInstance> > >::operator==
PUBLIC	??D?$reverse_iterator@V?$_Vector_iterator@V?$_Vector_val@U?$_Simple_types@USQuestInstance@CPythonQuest@@@std@@@std@@@std@@@std@@QBEAAUSQuestInstance@CPythonQuest@@XZ ; std::reverse_iterator<std::_Vector_iterator<std::_Vector_val<std::_Simple_types<CPythonQuest::SQuestInstance> > > >::operator*
PUBLIC	?_Unwrapped@?$_Vector_iterator@V?$_Vector_val@U?$_Simple_types@USQuestInstance@CPythonQuest@@@std@@@std@@@std@@QBEPAUSQuestInstance@CPythonQuest@@XZ ; std::_Vector_iterator<std::_Vector_val<std::_Simple_types<CPythonQuest::SQuestInstance> > >::_Unwrapped
PUBLIC	??$_Get_unwrapped@ABV?$_Vector_iterator@V?$_Vector_val@U?$_Simple_types@USQuestInstance@CPythonQuest@@@std@@@std@@@std@@@std@@YA?A_TABV?$_Vector_iterator@V?$_Vector_val@U?$_Simple_types@USQuestInstance@CPythonQuest@@@std@@@std@@@0@@Z ; std::_Get_unwrapped<std::_Vector_iterator<std::_Vector_val<std::_Simple_types<CPythonQuest::SQuestInstance> > > const &>
PUBLIC	??$_Get_unwrapped@AAV?$_Vector_iterator@V?$_Vector_val@U?$_Simple_types@USQuestInstance@CPythonQuest@@@std@@@std@@@std@@@std@@YA?A_TAAV?$_Vector_iterator@V?$_Vector_val@U?$_Simple_types@USQuestInstance@CPythonQuest@@@std@@@std@@@0@@Z ; std::_Get_unwrapped<std::_Vector_iterator<std::_Vector_val<std::_Simple_types<CPythonQuest::SQuestInstance> > > &>
PUBLIC	??$find_if@V?$_Vector_iterator@V?$_Vector_val@U?$_Simple_types@USQuestInstance@CPythonQuest@@@std@@@std@@@std@@UFQuestInstanceCompare@@@std@@YA?AV?$_Vector_iterator@V?$_Vector_val@U?$_Simple_types@USQuestInstance@CPythonQuest@@@std@@@std@@@0@V10@V10@UFQuestInstanceCompare@@@Z ; std::find_if<std::_Vector_iterator<std::_Vector_val<std::_Simple_types<CPythonQuest::SQuestInstance> > >,FQuestInstanceCompare>
PUBLIC	??$move@AAUSQuestInstance@CPythonQuest@@@std@@YA$$QAUSQuestInstance@CPythonQuest@@AAU12@@Z ; std::move<CPythonQuest::SQuestInstance &>
PUBLIC	?initquest@@YAXXZ				; initquest
PUBLIC	?questClear@@YAPAU_object@@PAU1@0@Z		; questClear
PUBLIC	?questGetQuestLastTime@@YAPAU_object@@PAU1@0@Z	; questGetQuestLastTime
PUBLIC	?questGetQuestIndex@@YAPAU_object@@PAU1@0@Z	; questGetQuestIndex
PUBLIC	?questGetQuestData@@YAPAU_object@@PAU1@0@Z	; questGetQuestData
PUBLIC	?questGetQuestCount@@YAPAU_object@@PAU1@0@Z	; questGetQuestCount
PUBLIC	??_GCPythonQuest@@UAEPAXI@Z			; CPythonQuest::`scalar deleting destructor'
PUBLIC	?Clear@CPythonQuest@@QAEXXZ			; CPythonQuest::Clear
PUBLIC	?__Initialize@CPythonQuest@@IAEXXZ		; CPythonQuest::__Initialize
PUBLIC	?__GetQuestInstancePtr@CPythonQuest@@IAE_NKPAPAUSQuestInstance@1@@Z ; CPythonQuest::__GetQuestInstancePtr
PUBLIC	?GetQuestInstancePtr@CPythonQuest@@QAE_NKPAPAUSQuestInstance@1@@Z ; CPythonQuest::GetQuestInstancePtr
PUBLIC	?GetQuestCount@CPythonQuest@@QAEHXZ		; CPythonQuest::GetQuestCount
PUBLIC	??RFQuestInstanceCompare@@QAE_NABUSQuestInstance@CPythonQuest@@@Z ; FQuestInstanceCompare::operator()
PUBLIC	??0FQuestInstanceCompare@@QAE@K@Z		; FQuestInstanceCompare::FQuestInstanceCompare
PUBLIC	?DeleteQuestInstance@CPythonQuest@@QAEXK@Z	; CPythonQuest::DeleteQuestInstance
PUBLIC	?IsQuest@CPythonQuest@@QAE_NK@Z			; CPythonQuest::IsQuest
PUBLIC	?MakeQuest@CPythonQuest@@QAEXK@Z		; CPythonQuest::MakeQuest
PUBLIC	?SetQuestTitle@CPythonQuest@@QAEXKPBD@Z		; CPythonQuest::SetQuestTitle
PUBLIC	?SetQuestClockName@CPythonQuest@@QAEXKPBD@Z	; CPythonQuest::SetQuestClockName
PUBLIC	?SetQuestCounterName@CPythonQuest@@QAEXKPBD@Z	; CPythonQuest::SetQuestCounterName
PUBLIC	?SetQuestIconFileName@CPythonQuest@@QAEXKPBD@Z	; CPythonQuest::SetQuestIconFileName
PUBLIC	?SetQuestClockValue@CPythonQuest@@QAEXKH@Z	; CPythonQuest::SetQuestClockValue
PUBLIC	?SetQuestCounterValue@CPythonQuest@@QAEXKH@Z	; CPythonQuest::SetQuestCounterValue
PUBLIC	?RegisterQuestInstance@CPythonQuest@@QAEXABUSQuestInstance@1@@Z ; CPythonQuest::RegisterQuestInstance
PUBLIC	??0CPythonQuest@@QAE@XZ				; CPythonQuest::CPythonQuest
PUBLIC	??1CPythonQuest@@UAE@XZ				; CPythonQuest::~CPythonQuest
EXTRN	??_ECPythonQuest@@UAEPAXI@Z:PROC		; CPythonQuest::`vector deleting destructor'
EXTRN	??_E?$CSingleton@VCPythonQuest@@@@UAEPAXI@Z:PROC ; CSingleton<CPythonQuest>::`vector deleting destructor'
;	COMDAT xdata$x
xdata$x	SEGMENT
__ehfuncinfo$?MakeQuest@CPythonQuest@@QAEXK@Z DD 019930522H
	DD	01H
	DD	FLAT:__unwindtable$?MakeQuest@CPythonQuest@@QAEXK@Z
	DD	2 DUP(00H)
	DD	2 DUP(00H)
	DD	00H
	DD	01H
__unwindtable$?MakeQuest@CPythonQuest@@QAEXK@Z DD 0ffffffffH
	DD	FLAT:__unwindfunclet$?MakeQuest@CPythonQuest@@QAEXK@Z$0
xdata$x	ENDS
;	COMDAT xdata$x
xdata$x	SEGMENT
__ehfuncinfo$?questGetQuestData@@YAPAU_object@@PAU1@0@Z DD 019930522H
	DD	02H
	DD	FLAT:__unwindtable$?questGetQuestData@@YAPAU_object@@PAU1@0@Z
	DD	2 DUP(00H)
	DD	2 DUP(00H)
	DD	00H
	DD	01H
__unwindtable$?questGetQuestData@@YAPAU_object@@PAU1@0@Z DD 0ffffffffH
	DD	FLAT:__unwindfunclet$?questGetQuestData@@YAPAU_object@@PAU1@0@Z$0
	DD	0ffffffffH
	DD	FLAT:__unwindfunclet$?questGetQuestData@@YAPAU_object@@PAU1@0@Z$1
xdata$x	ENDS
;	COMDAT xdata$x
xdata$x	SEGMENT
__ehfuncinfo$??$_Emplace_reallocate@ABUSQuestInstance@CPythonQuest@@@?$vector@USQuestInstance@CPythonQuest@@V?$allocator@USQuestInstance@CPythonQuest@@@std@@@std@@AAEPAUSQuestInstance@CPythonQuest@@QAU23@ABU23@@Z DD 019930522H
	DD	01H
	DD	FLAT:__unwindtable$??$_Emplace_reallocate@ABUSQuestInstance@CPythonQuest@@@?$vector@USQuestInstance@CPythonQuest@@V?$allocator@USQuestInstance@CPythonQuest@@@std@@@std@@AAEPAUSQuestInstance@CPythonQuest@@QAU23@ABU23@@Z
	DD	2 DUP(00H)
	DD	2 DUP(00H)
	DD	00H
	DD	01H
__unwindtable$??$_Emplace_reallocate@ABUSQuestInstance@CPythonQuest@@@?$vector@USQuestInstance@CPythonQuest@@V?$allocator@USQuestInstance@CPythonQuest@@@std@@@std@@AAEPAUSQuestInstance@CPythonQuest@@QAU23@ABU23@@Z DD 0ffffffffH
	DD	FLAT:__unwindfunclet$??$_Emplace_reallocate@ABUSQuestInstance@CPythonQuest@@@?$vector@USQuestInstance@CPythonQuest@@V?$allocator@USQuestInstance@CPythonQuest@@@std@@@std@@AAEPAUSQuestInstance@CPythonQuest@@QAU23@ABU23@@Z$0
xdata$x	ENDS
;	COMDAT xdata$x
xdata$x	SEGMENT
__ehfuncinfo$??$construct@USQuestInstance@CPythonQuest@@ABU12@@?$_Default_allocator_traits@V?$allocator@USQuestInstance@CPythonQuest@@@std@@@std@@SAXAAV?$allocator@USQuestInstance@CPythonQuest@@@1@QAUSQuestInstance@CPythonQuest@@ABU34@@Z DD 019930522H
	DD	03H
	DD	FLAT:__unwindtable$??$construct@USQuestInstance@CPythonQuest@@ABU12@@?$_Default_allocator_traits@V?$allocator@USQuestInstance@CPythonQuest@@@std@@@std@@SAXAAV?$allocator@USQuestInstance@CPythonQuest@@@1@QAUSQuestInstance@CPythonQuest@@ABU34@@Z
	DD	2 DUP(00H)
	DD	2 DUP(00H)
	DD	00H
	DD	01H
__unwindtable$??$construct@USQuestInstance@CPythonQuest@@ABU12@@?$_Default_allocator_traits@V?$allocator@USQuestInstance@CPythonQuest@@@std@@@std@@SAXAAV?$allocator@USQuestInstance@CPythonQuest@@@1@QAUSQuestInstance@CPythonQuest@@ABU34@@Z DD 0ffffffffH
	DD	FLAT:__unwindfunclet$??$construct@USQuestInstance@CPythonQuest@@ABU12@@?$_Default_allocator_traits@V?$allocator@USQuestInstance@CPythonQuest@@@std@@@std@@SAXAAV?$allocator@USQuestInstance@CPythonQuest@@@1@QAUSQuestInstance@CPythonQuest@@ABU34@@Z$0
	DD	00H
	DD	FLAT:__unwindfunclet$??$construct@USQuestInstance@CPythonQuest@@ABU12@@?$_Default_allocator_traits@V?$allocator@USQuestInstance@CPythonQuest@@@std@@@std@@SAXAAV?$allocator@USQuestInstance@CPythonQuest@@@1@QAUSQuestInstance@CPythonQuest@@ABU34@@Z$1
	DD	01H
	DD	FLAT:__unwindfunclet$??$construct@USQuestInstance@CPythonQuest@@ABU12@@?$_Default_allocator_traits@V?$allocator@USQuestInstance@CPythonQuest@@@std@@@std@@SAXAAV?$allocator@USQuestInstance@CPythonQuest@@@1@QAUSQuestInstance@CPythonQuest@@ABU34@@Z$2
xdata$x	ENDS
;	COMDAT xdata$x
xdata$x	SEGMENT
__ehfuncinfo$??$construct_at@USQuestInstance@CPythonQuest@@ABU12@@std@@YAPAUSQuestInstance@CPythonQuest@@QAU12@ABU12@@Z DD 019930522H
	DD	03H
	DD	FLAT:__unwindtable$??$construct_at@USQuestInstance@CPythonQuest@@ABU12@@std@@YAPAUSQuestInstance@CPythonQuest@@QAU12@ABU12@@Z
	DD	2 DUP(00H)
	DD	2 DUP(00H)
	DD	00H
	DD	01H
__unwindtable$??$construct_at@USQuestInstance@CPythonQuest@@ABU12@@std@@YAPAUSQuestInstance@CPythonQuest@@QAU12@ABU12@@Z DD 0ffffffffH
	DD	FLAT:__unwindfunclet$??$construct_at@USQuestInstance@CPythonQuest@@ABU12@@std@@YAPAUSQuestInstance@CPythonQuest@@QAU12@ABU12@@Z$0
	DD	00H
	DD	FLAT:__unwindfunclet$??$construct_at@USQuestInstance@CPythonQuest@@ABU12@@std@@YAPAUSQuestInstance@CPythonQuest@@QAU12@ABU12@@Z$1
	DD	01H
	DD	FLAT:__unwindfunclet$??$construct_at@USQuestInstance@CPythonQuest@@ABU12@@std@@YAPAUSQuestInstance@CPythonQuest@@QAU12@ABU12@@Z$2
xdata$x	ENDS
;	COMDAT xdata$x
xdata$x	SEGMENT
__ehfuncinfo$??0SQuestInstance@CPythonQuest@@QAE@ABU01@@Z DD 019930522H
	DD	03H
	DD	FLAT:__unwindtable$??0SQuestInstance@CPythonQuest@@QAE@ABU01@@Z
	DD	2 DUP(00H)
	DD	2 DUP(00H)
	DD	00H
	DD	01H
__unwindtable$??0SQuestInstance@CPythonQuest@@QAE@ABU01@@Z DD 0ffffffffH
	DD	FLAT:__unwindfunclet$??0SQuestInstance@CPythonQuest@@QAE@ABU01@@Z$0
	DD	00H
	DD	FLAT:__unwindfunclet$??0SQuestInstance@CPythonQuest@@QAE@ABU01@@Z$1
	DD	01H
	DD	FLAT:__unwindfunclet$??0SQuestInstance@CPythonQuest@@QAE@ABU01@@Z$2
; Function compile flags: /Ogtp
; File D:\_m2work\Server Client TMP4\ClientVS22\source\UserInterface\PythonQuest.cpp
; File D:\_m2work\Server Client TMP4\ClientVS22\source\eterBase\Singleton.h
; File D:\_m2work\Server Client TMP4\ClientVS22\source\UserInterface\PythonQuest.cpp
;	COMDAT ??1CPythonQuest@@UAE@XZ
_TEXT	SEGMENT
??1CPythonQuest@@UAE@XZ PROC				; CPythonQuest::~CPythonQuest, COMDAT
; _this$ = ecx

; 165  : {

  00000	56		 push	 esi
  00001	8b f1		 mov	 esi, ecx
  00003	c7 06 00 00 00
	00		 mov	 DWORD PTR [esi], OFFSET ??_7CPythonQuest@@6B@

; 166  : 	Clear();

  00009	e8 00 00 00 00	 call	 ?Clear@CPythonQuest@@QAEXXZ ; CPythonQuest::Clear

; 167  : }

  0000e	8d 4e 04	 lea	 ecx, DWORD PTR [esi+4]
  00011	e8 00 00 00 00	 call	 ??1?$vector@USQuestInstance@CPythonQuest@@V?$allocator@USQuestInstance@CPythonQuest@@@std@@@std@@QAE@XZ ; std::vector<CPythonQuest::SQuestInstance,std::allocator<CPythonQuest::SQuestInstance> >::~vector<CPythonQuest::SQuestInstance,std::allocator<CPythonQuest::SQuestInstance> >
; File D:\_m2work\Server Client TMP4\ClientVS22\source\eterBase\Singleton.h

; 19   : 	{ 

  00016	c7 06 00 00 00
	00		 mov	 DWORD PTR [esi], OFFSET ??_7?$CSingleton@VCPythonQuest@@@@6B@

; 20   : 		assert(ms_singleton);
; 21   : 		ms_singleton = 0; 

  0001c	c7 05 00 00 00
	00 00 00 00 00	 mov	 DWORD PTR ?ms_singleton@?$CSingleton@VCPythonQuest@@@@0PAVCPythonQuest@@A, 0 ; CSingleton<CPythonQuest>::ms_singleton
  00026	5e		 pop	 esi
; File D:\_m2work\Server Client TMP4\ClientVS22\source\UserInterface\PythonQuest.cpp

; 167  : }

  00027	c3		 ret	 0
??1CPythonQuest@@UAE@XZ ENDP				; CPythonQuest::~CPythonQuest
_TEXT	ENDS
; Function compile flags: /Ogtp
; File D:\_m2work\Server Client TMP4\ClientVS22\source\UserInterface\PythonQuest.cpp
; File D:\_m2work\Server Client TMP4\ClientVS22\source\eterBase\Singleton.h
; File D:\_m2work\Server Client TMP4\ClientVS22\source\UserInterface\PythonQuest.cpp
; File C:\Program Files\Microsoft Visual Studio\2022\Community\VC\Tools\MSVC\14.44.35207\include\vector
; File D:\_m2work\Server Client TMP4\ClientVS22\source\UserInterface\PythonQuest.cpp
;	COMDAT ??0CPythonQuest@@QAE@XZ
_TEXT	SEGMENT
??0CPythonQuest@@QAE@XZ PROC				; CPythonQuest::CPythonQuest, COMDAT
; _this$ = ecx
; File D:\_m2work\Server Client TMP4\ClientVS22\source\eterBase\Singleton.h

; 15   : 		ms_singleton = (T*) ((int) this + offset);

  00000	89 0d 00 00 00
	00		 mov	 DWORD PTR ?ms_singleton@?$CSingleton@VCPythonQuest@@@@0PAVCPythonQuest@@A, ecx ; CSingleton<CPythonQuest>::ms_singleton
; File D:\_m2work\Server Client TMP4\ClientVS22\source\UserInterface\PythonQuest.cpp

; 162  : }

  00006	8b c1		 mov	 eax, ecx
  00008	c7 01 00 00 00
	00		 mov	 DWORD PTR [ecx], OFFSET ??_7CPythonQuest@@6B@
; File C:\Program Files\Microsoft Visual Studio\2022\Community\VC\Tools\MSVC\14.44.35207\include\vector

; 400  :     _CONSTEXPR20 _Vector_val() noexcept : _Myfirst(), _Mylast(), _Myend() {}

  0000e	c7 41 04 00 00
	00 00		 mov	 DWORD PTR [ecx+4], 0
  00015	c7 41 08 00 00
	00 00		 mov	 DWORD PTR [ecx+8], 0
  0001c	c7 41 0c 00 00
	00 00		 mov	 DWORD PTR [ecx+12], 0
; File D:\_m2work\Server Client TMP4\ClientVS22\source\UserInterface\PythonQuest.cpp

; 162  : }

  00023	c3		 ret	 0
??0CPythonQuest@@QAE@XZ ENDP				; CPythonQuest::CPythonQuest
_TEXT	ENDS
; Function compile flags: /Ogtp
; File D:\_m2work\Server Client TMP4\ClientVS22\source\UserInterface\PythonQuest.cpp
; File C:\Program Files\Microsoft Visual Studio\2022\Community\VC\Tools\MSVC\14.44.35207\include\vector
; File D:\_m2work\Server Client TMP4\ClientVS22\source\UserInterface\PythonQuest.cpp
; File C:\Program Files\Microsoft Visual Studio\2022\Community\VC\Tools\MSVC\14.44.35207\include\vector
; File D:\_m2work\Server Client TMP4\ClientVS22\source\UserInterface\PythonQuest.cpp
; File C:\Program Files\Microsoft Visual Studio\2022\Community\VC\Tools\MSVC\14.44.35207\include\vector
; File D:\_m2work\Server Client TMP4\ClientVS22\source\UserInterface\PythonQuest.cpp
;	COMDAT ?RegisterQuestInstance@CPythonQuest@@QAEXABUSQuestInstance@1@@Z
_TEXT	SEGMENT
_c_rQuestInstance$ = 8					; size = 4
?RegisterQuestInstance@CPythonQuest@@QAEXABUSQuestInstance@1@@Z PROC ; CPythonQuest::RegisterQuestInstance, COMDAT
; _this$ = ecx

; 5    : {

  00000	55		 push	 ebp
  00001	8b ec		 mov	 ebp, esp
  00003	56		 push	 esi
  00004	57		 push	 edi

; 6    : 	DeleteQuestInstance(c_rQuestInstance.dwIndex);

  00005	8b 7d 08	 mov	 edi, DWORD PTR _c_rQuestInstance$[ebp]
  00008	8b f1		 mov	 esi, ecx
  0000a	ff 37		 push	 DWORD PTR [edi]
  0000c	e8 00 00 00 00	 call	 ?DeleteQuestInstance@CPythonQuest@@QAEXK@Z ; CPythonQuest::DeleteQuestInstance
; File C:\Program Files\Microsoft Visual Studio\2022\Community\VC\Tools\MSVC\14.44.35207\include\vector

; 844  :         if (_Mylast != _My_data._Myend) {

  00011	8b 46 08	 mov	 eax, DWORD PTR [esi+8]
; File D:\_m2work\Server Client TMP4\ClientVS22\source\UserInterface\PythonQuest.cpp

; 7    : 	m_QuestInstanceContainer.push_back(c_rQuestInstance);

  00014	8d 4e 04	 lea	 ecx, DWORD PTR [esi+4]
; File C:\Program Files\Microsoft Visual Studio\2022\Community\VC\Tools\MSVC\14.44.35207\include\vector

; 844  :         if (_Mylast != _My_data._Myend) {

  00017	57		 push	 edi
  00018	3b 46 0c	 cmp	 eax, DWORD PTR [esi+12]
  0001b	74 10		 je	 SHORT $LN6@RegisterQu

; 863  :             _Alty_traits::construct(_Getal(), _Unfancy(_Mylast), _STD forward<_Valty>(_Val)...);

  0001d	8b d0		 mov	 edx, eax
  0001f	e8 00 00 00 00	 call	 ??$construct@USQuestInstance@CPythonQuest@@ABU12@@?$_Default_allocator_traits@V?$allocator@USQuestInstance@CPythonQuest@@@std@@@std@@SAXAAV?$allocator@USQuestInstance@CPythonQuest@@@1@QAUSQuestInstance@CPythonQuest@@ABU34@@Z ; std::_Default_allocator_traits<std::allocator<CPythonQuest::SQuestInstance> >::construct<CPythonQuest::SQuestInstance,CPythonQuest::SQuestInstance const &>
  00024	83 c4 04	 add	 esp, 4

; 864  :             _ASAN_VECTOR_RELEASE_GUARD;
; 865  :         }
; 866  : 
; 867  :         _Orphan_range(_Mylast, _Mylast);
; 868  :         _Ty& _Result = *_Mylast;
; 869  :         ++_Mylast;

  00027	83 46 08 70	 add	 DWORD PTR [esi+8], 112	; 00000070H

; 845  :             return _Emplace_back_with_unused_capacity(_STD forward<_Valty>(_Val)...);

  0002b	eb 06		 jmp	 SHORT $LN5@RegisterQu
$LN6@RegisterQu:

; 846  :         }
; 847  : 
; 848  :         return *_Emplace_reallocate(_Mylast, _STD forward<_Valty>(_Val)...);

  0002d	50		 push	 eax
  0002e	e8 00 00 00 00	 call	 ??$_Emplace_reallocate@ABUSQuestInstance@CPythonQuest@@@?$vector@USQuestInstance@CPythonQuest@@V?$allocator@USQuestInstance@CPythonQuest@@@std@@@std@@AAEPAUSQuestInstance@CPythonQuest@@QAU23@ABU23@@Z ; std::vector<CPythonQuest::SQuestInstance,std::allocator<CPythonQuest::SQuestInstance> >::_Emplace_reallocate<CPythonQuest::SQuestInstance const &>
$LN5@RegisterQu:
; File D:\_m2work\Server Client TMP4\ClientVS22\source\UserInterface\PythonQuest.cpp

; 12   : 	rQuestInstance.iStartTime = int(CTimer::Instance().GetCurrentSecond());

  00033	8b 0d 00 00 00
	00		 mov	 ecx, DWORD PTR ?ms_singleton@?$CSingleton@VCTimer@@@@0PAVCTimer@@A ; CSingleton<CTimer>::ms_singleton
; File C:\Program Files\Microsoft Visual Studio\2022\Community\VC\Tools\MSVC\14.44.35207\include\vector

; 46   :     _CONSTEXPR20 _Vector_const_iterator(_Tptr _Parg, const _Container_base* _Pvector) noexcept : _Ptr(_Parg) {

  00039	8b 76 08	 mov	 esi, DWORD PTR [esi+8]
; File D:\_m2work\Server Client TMP4\ClientVS22\source\UserInterface\PythonQuest.cpp

; 12   : 	rQuestInstance.iStartTime = int(CTimer::Instance().GetCurrentSecond());

  0003c	e8 00 00 00 00	 call	 ?GetCurrentSecond@CTimer@@QAEMXZ ; CTimer::GetCurrentSecond
  00041	e8 00 00 00 00	 call	 __ftol2_sse
  00046	5f		 pop	 edi
  00047	89 46 fc	 mov	 DWORD PTR [esi-4], eax
  0004a	5e		 pop	 esi

; 13   : }

  0004b	5d		 pop	 ebp
  0004c	c2 04 00	 ret	 4
?RegisterQuestInstance@CPythonQuest@@QAEXABUSQuestInstance@1@@Z ENDP ; CPythonQuest::RegisterQuestInstance
_TEXT	ENDS
; Function compile flags: /Ogtp
; File D:\_m2work\Server Client TMP4\ClientVS22\source\UserInterface\PythonQuest.cpp
;	COMDAT ?SetQuestCounterValue@CPythonQuest@@QAEXKH@Z
_TEXT	SEGMENT
_pQuestInstance$ = -4					; size = 4
_dwIndex$ = 8						; size = 4
_iCounterValue$ = 12					; size = 4
?SetQuestCounterValue@CPythonQuest@@QAEXKH@Z PROC	; CPythonQuest::SetQuestCounterValue, COMDAT
; _this$ = ecx

; 90   : {

  00000	55		 push	 ebp
  00001	8b ec		 mov	 ebp, esp
  00003	51		 push	 ecx

; 91   : 	SQuestInstance * pQuestInstance;
; 92   : 	if (!__GetQuestInstancePtr(dwIndex, &pQuestInstance))

  00004	8d 45 fc	 lea	 eax, DWORD PTR _pQuestInstance$[ebp]
  00007	50		 push	 eax
  00008	ff 75 08	 push	 DWORD PTR _dwIndex$[ebp]
  0000b	e8 00 00 00 00	 call	 ?__GetQuestInstancePtr@CPythonQuest@@IAE_NKPAPAUSQuestInstance@1@@Z ; CPythonQuest::__GetQuestInstancePtr
  00010	84 c0		 test	 al, al
  00012	74 09		 je	 SHORT $LN1@SetQuestCo

; 93   : 		return;
; 94   : 
; 95   : 	pQuestInstance->iCounterValue = iCounterValue;

  00014	8b 45 fc	 mov	 eax, DWORD PTR _pQuestInstance$[ebp]
  00017	8b 4d 0c	 mov	 ecx, DWORD PTR _iCounterValue$[ebp]
  0001a	89 48 68	 mov	 DWORD PTR [eax+104], ecx
$LN1@SetQuestCo:

; 96   : }

  0001d	8b e5		 mov	 esp, ebp
  0001f	5d		 pop	 ebp
  00020	c2 08 00	 ret	 8
?SetQuestCounterValue@CPythonQuest@@QAEXKH@Z ENDP	; CPythonQuest::SetQuestCounterValue
_TEXT	ENDS
; Function compile flags: /Ogtp
; File D:\_m2work\Server Client TMP4\ClientVS22\source\UserInterface\PythonQuest.cpp
;	COMDAT ?SetQuestClockValue@CPythonQuest@@QAEXKH@Z
_TEXT	SEGMENT
_pQuestInstance$ = -4					; size = 4
_dwIndex$ = 8						; size = 4
_iClockValue$ = 12					; size = 4
?SetQuestClockValue@CPythonQuest@@QAEXKH@Z PROC		; CPythonQuest::SetQuestClockValue, COMDAT
; _this$ = ecx

; 80   : {

  00000	55		 push	 ebp
  00001	8b ec		 mov	 ebp, esp
  00003	51		 push	 ecx

; 81   : 	SQuestInstance * pQuestInstance;
; 82   : 	if (!__GetQuestInstancePtr(dwIndex, &pQuestInstance))

  00004	8d 45 fc	 lea	 eax, DWORD PTR _pQuestInstance$[ebp]
  00007	50		 push	 eax
  00008	ff 75 08	 push	 DWORD PTR _dwIndex$[ebp]
  0000b	e8 00 00 00 00	 call	 ?__GetQuestInstancePtr@CPythonQuest@@IAE_NKPAPAUSQuestInstance@1@@Z ; CPythonQuest::__GetQuestInstancePtr
  00010	84 c0		 test	 al, al
  00012	74 1e		 je	 SHORT $LN1@SetQuestCl

; 83   : 		return;
; 84   : 
; 85   : 	pQuestInstance->iClockValue = iClockValue;

  00014	8b 45 0c	 mov	 eax, DWORD PTR _iClockValue$[ebp]
  00017	56		 push	 esi
  00018	8b 75 fc	 mov	 esi, DWORD PTR _pQuestInstance$[ebp]
  0001b	89 46 64	 mov	 DWORD PTR [esi+100], eax

; 86   : 	pQuestInstance->iStartTime = int(CTimer::Instance().GetCurrentSecond());

  0001e	8b 0d 00 00 00
	00		 mov	 ecx, DWORD PTR ?ms_singleton@?$CSingleton@VCTimer@@@@0PAVCTimer@@A ; CSingleton<CTimer>::ms_singleton
  00024	e8 00 00 00 00	 call	 ?GetCurrentSecond@CTimer@@QAEMXZ ; CTimer::GetCurrentSecond
  00029	e8 00 00 00 00	 call	 __ftol2_sse
  0002e	89 46 6c	 mov	 DWORD PTR [esi+108], eax
  00031	5e		 pop	 esi
$LN1@SetQuestCl:

; 87   : }

  00032	8b e5		 mov	 esp, ebp
  00034	5d		 pop	 ebp
  00035	c2 08 00	 ret	 8
?SetQuestClockValue@CPythonQuest@@QAEXKH@Z ENDP		; CPythonQuest::SetQuestClockValue
_TEXT	ENDS
; Function compile flags: /Ogtp
; File D:\_m2work\Server Client TMP4\ClientVS22\source\UserInterface\PythonQuest.cpp
; File C:\Program Files\Microsoft Visual Studio\2022\Community\VC\Tools\MSVC\14.44.35207\include\__msvc_string_view.hpp
; File D:\_m2work\Server Client TMP4\ClientVS22\source\UserInterface\PythonQuest.cpp
; File C:\Program Files\Microsoft Visual Studio\2022\Community\VC\Tools\MSVC\14.44.35207\include\__msvc_string_view.hpp
; File C:\Program Files\Microsoft Visual Studio\2022\Community\VC\Tools\MSVC\14.44.35207\include\xstring
; File D:\_m2work\Server Client TMP4\ClientVS22\source\UserInterface\PythonQuest.cpp
; File C:\Program Files\Microsoft Visual Studio\2022\Community\VC\Tools\MSVC\14.44.35207\include\xstring
; File D:\_m2work\Server Client TMP4\ClientVS22\source\UserInterface\PythonQuest.cpp
;	COMDAT ?SetQuestIconFileName@CPythonQuest@@QAEXKPBD@Z
_TEXT	SEGMENT
_pQuestInstance$ = -4					; size = 4
_dwIndex$ = 8						; size = 4
_c_szIconFileName$ = 12					; size = 4
?SetQuestIconFileName@CPythonQuest@@QAEXKPBD@Z PROC	; CPythonQuest::SetQuestIconFileName, COMDAT
; _this$ = ecx

; 99   : {

  00000	55		 push	 ebp
  00001	8b ec		 mov	 ebp, esp
  00003	51		 push	 ecx

; 100  : 	SQuestInstance * pQuestInstance;
; 101  : 	if (!__GetQuestInstancePtr(dwIndex, &pQuestInstance))

  00004	8d 45 fc	 lea	 eax, DWORD PTR _pQuestInstance$[ebp]
  00007	50		 push	 eax
  00008	ff 75 08	 push	 DWORD PTR _dwIndex$[ebp]
  0000b	e8 00 00 00 00	 call	 ?__GetQuestInstancePtr@CPythonQuest@@IAE_NKPAPAUSQuestInstance@1@@Z ; CPythonQuest::__GetQuestInstancePtr
  00010	84 c0		 test	 al, al
  00012	74 23		 je	 SHORT $LN1@SetQuestIc
; File C:\Program Files\Microsoft Visual Studio\2022\Community\VC\Tools\MSVC\14.44.35207\include\__msvc_string_view.hpp

; 456  :             return __builtin_strlen(_First);

  00014	8b 55 0c	 mov	 edx, DWORD PTR _c_szIconFileName$[ebp]
  00017	8b c2		 mov	 eax, edx
  00019	56		 push	 esi
  0001a	8d 70 01	 lea	 esi, DWORD PTR [eax+1]
  0001d	0f 1f 00	 npad	 3
$LL11@SetQuestIc:
  00020	8a 08		 mov	 cl, BYTE PTR [eax]
  00022	40		 inc	 eax
  00023	84 c9		 test	 cl, cl
  00025	75 f9		 jne	 SHORT $LL11@SetQuestIc
; File D:\_m2work\Server Client TMP4\ClientVS22\source\UserInterface\PythonQuest.cpp

; 104  : 	pQuestInstance->strIconFileName = c_szIconFileName;

  00027	8b 4d fc	 mov	 ecx, DWORD PTR _pQuestInstance$[ebp]
; File C:\Program Files\Microsoft Visual Studio\2022\Community\VC\Tools\MSVC\14.44.35207\include\__msvc_string_view.hpp

; 456  :             return __builtin_strlen(_First);

  0002a	2b c6		 sub	 eax, esi
; File C:\Program Files\Microsoft Visual Studio\2022\Community\VC\Tools\MSVC\14.44.35207\include\xstring

; 1638 :         return assign(_Ptr, _Convert_size<size_type>(_Traits::length(_Ptr)));

  0002c	50		 push	 eax
  0002d	52		 push	 edx
; File D:\_m2work\Server Client TMP4\ClientVS22\source\UserInterface\PythonQuest.cpp

; 104  : 	pQuestInstance->strIconFileName = c_szIconFileName;

  0002e	8d 49 04	 lea	 ecx, DWORD PTR [ecx+4]
; File C:\Program Files\Microsoft Visual Studio\2022\Community\VC\Tools\MSVC\14.44.35207\include\xstring

; 1638 :         return assign(_Ptr, _Convert_size<size_type>(_Traits::length(_Ptr)));

  00031	e8 00 00 00 00	 call	 ?assign@?$basic_string@DU?$char_traits@D@std@@V?$allocator@D@2@@std@@QAEAAV12@QBDI@Z ; std::basic_string<char,std::char_traits<char>,std::allocator<char> >::assign
  00036	5e		 pop	 esi
$LN1@SetQuestIc:
; File D:\_m2work\Server Client TMP4\ClientVS22\source\UserInterface\PythonQuest.cpp

; 105  : }

  00037	8b e5		 mov	 esp, ebp
  00039	5d		 pop	 ebp
  0003a	c2 08 00	 ret	 8
?SetQuestIconFileName@CPythonQuest@@QAEXKPBD@Z ENDP	; CPythonQuest::SetQuestIconFileName
_TEXT	ENDS
; Function compile flags: /Ogtp
; File D:\_m2work\Server Client TMP4\ClientVS22\source\UserInterface\PythonQuest.cpp
; File C:\Program Files\Microsoft Visual Studio\2022\Community\VC\Tools\MSVC\14.44.35207\include\__msvc_string_view.hpp
; File D:\_m2work\Server Client TMP4\ClientVS22\source\UserInterface\PythonQuest.cpp
; File C:\Program Files\Microsoft Visual Studio\2022\Community\VC\Tools\MSVC\14.44.35207\include\__msvc_string_view.hpp
; File C:\Program Files\Microsoft Visual Studio\2022\Community\VC\Tools\MSVC\14.44.35207\include\xstring
; File D:\_m2work\Server Client TMP4\ClientVS22\source\UserInterface\PythonQuest.cpp
; File C:\Program Files\Microsoft Visual Studio\2022\Community\VC\Tools\MSVC\14.44.35207\include\xstring
; File D:\_m2work\Server Client TMP4\ClientVS22\source\UserInterface\PythonQuest.cpp
;	COMDAT ?SetQuestCounterName@CPythonQuest@@QAEXKPBD@Z
_TEXT	SEGMENT
_pQuestInstance$ = -4					; size = 4
_dwIndex$ = 8						; size = 4
_c_szCounterName$ = 12					; size = 4
?SetQuestCounterName@CPythonQuest@@QAEXKPBD@Z PROC	; CPythonQuest::SetQuestCounterName, COMDAT
; _this$ = ecx

; 71   : {

  00000	55		 push	 ebp
  00001	8b ec		 mov	 ebp, esp
  00003	51		 push	 ecx

; 72   : 	SQuestInstance * pQuestInstance;
; 73   : 	if (!__GetQuestInstancePtr(dwIndex, &pQuestInstance))

  00004	8d 45 fc	 lea	 eax, DWORD PTR _pQuestInstance$[ebp]
  00007	50		 push	 eax
  00008	ff 75 08	 push	 DWORD PTR _dwIndex$[ebp]
  0000b	e8 00 00 00 00	 call	 ?__GetQuestInstancePtr@CPythonQuest@@IAE_NKPAPAUSQuestInstance@1@@Z ; CPythonQuest::__GetQuestInstancePtr
  00010	84 c0		 test	 al, al
  00012	74 23		 je	 SHORT $LN1@SetQuestCo
; File C:\Program Files\Microsoft Visual Studio\2022\Community\VC\Tools\MSVC\14.44.35207\include\__msvc_string_view.hpp

; 456  :             return __builtin_strlen(_First);

  00014	8b 55 0c	 mov	 edx, DWORD PTR _c_szCounterName$[ebp]
  00017	8b c2		 mov	 eax, edx
  00019	56		 push	 esi
  0001a	8d 70 01	 lea	 esi, DWORD PTR [eax+1]
  0001d	0f 1f 00	 npad	 3
$LL11@SetQuestCo:
  00020	8a 08		 mov	 cl, BYTE PTR [eax]
  00022	40		 inc	 eax
  00023	84 c9		 test	 cl, cl
  00025	75 f9		 jne	 SHORT $LL11@SetQuestCo
; File D:\_m2work\Server Client TMP4\ClientVS22\source\UserInterface\PythonQuest.cpp

; 76   : 	pQuestInstance->strCounterName = c_szCounterName;

  00027	8b 4d fc	 mov	 ecx, DWORD PTR _pQuestInstance$[ebp]
; File C:\Program Files\Microsoft Visual Studio\2022\Community\VC\Tools\MSVC\14.44.35207\include\__msvc_string_view.hpp

; 456  :             return __builtin_strlen(_First);

  0002a	2b c6		 sub	 eax, esi
; File C:\Program Files\Microsoft Visual Studio\2022\Community\VC\Tools\MSVC\14.44.35207\include\xstring

; 1638 :         return assign(_Ptr, _Convert_size<size_type>(_Traits::length(_Ptr)));

  0002c	50		 push	 eax
  0002d	52		 push	 edx
; File D:\_m2work\Server Client TMP4\ClientVS22\source\UserInterface\PythonQuest.cpp

; 76   : 	pQuestInstance->strCounterName = c_szCounterName;

  0002e	8d 49 4c	 lea	 ecx, DWORD PTR [ecx+76]
; File C:\Program Files\Microsoft Visual Studio\2022\Community\VC\Tools\MSVC\14.44.35207\include\xstring

; 1638 :         return assign(_Ptr, _Convert_size<size_type>(_Traits::length(_Ptr)));

  00031	e8 00 00 00 00	 call	 ?assign@?$basic_string@DU?$char_traits@D@std@@V?$allocator@D@2@@std@@QAEAAV12@QBDI@Z ; std::basic_string<char,std::char_traits<char>,std::allocator<char> >::assign
  00036	5e		 pop	 esi
$LN1@SetQuestCo:
; File D:\_m2work\Server Client TMP4\ClientVS22\source\UserInterface\PythonQuest.cpp

; 77   : }

  00037	8b e5		 mov	 esp, ebp
  00039	5d		 pop	 ebp
  0003a	c2 08 00	 ret	 8
?SetQuestCounterName@CPythonQuest@@QAEXKPBD@Z ENDP	; CPythonQuest::SetQuestCounterName
_TEXT	ENDS
; Function compile flags: /Ogtp
; File D:\_m2work\Server Client TMP4\ClientVS22\source\UserInterface\PythonQuest.cpp
; File C:\Program Files\Microsoft Visual Studio\2022\Community\VC\Tools\MSVC\14.44.35207\include\__msvc_string_view.hpp
; File D:\_m2work\Server Client TMP4\ClientVS22\source\UserInterface\PythonQuest.cpp
; File C:\Program Files\Microsoft Visual Studio\2022\Community\VC\Tools\MSVC\14.44.35207\include\__msvc_string_view.hpp
; File C:\Program Files\Microsoft Visual Studio\2022\Community\VC\Tools\MSVC\14.44.35207\include\xstring
; File D:\_m2work\Server Client TMP4\ClientVS22\source\UserInterface\PythonQuest.cpp
; File C:\Program Files\Microsoft Visual Studio\2022\Community\VC\Tools\MSVC\14.44.35207\include\xstring
; File D:\_m2work\Server Client TMP4\ClientVS22\source\UserInterface\PythonQuest.cpp
;	COMDAT ?SetQuestClockName@CPythonQuest@@QAEXKPBD@Z
_TEXT	SEGMENT
_pQuestInstance$ = -4					; size = 4
_dwIndex$ = 8						; size = 4
_c_szClockName$ = 12					; size = 4
?SetQuestClockName@CPythonQuest@@QAEXKPBD@Z PROC	; CPythonQuest::SetQuestClockName, COMDAT
; _this$ = ecx

; 62   : {

  00000	55		 push	 ebp
  00001	8b ec		 mov	 ebp, esp
  00003	51		 push	 ecx

; 63   : 	SQuestInstance * pQuestInstance;
; 64   : 	if (!__GetQuestInstancePtr(dwIndex, &pQuestInstance))

  00004	8d 45 fc	 lea	 eax, DWORD PTR _pQuestInstance$[ebp]
  00007	50		 push	 eax
  00008	ff 75 08	 push	 DWORD PTR _dwIndex$[ebp]
  0000b	e8 00 00 00 00	 call	 ?__GetQuestInstancePtr@CPythonQuest@@IAE_NKPAPAUSQuestInstance@1@@Z ; CPythonQuest::__GetQuestInstancePtr
  00010	84 c0		 test	 al, al
  00012	74 23		 je	 SHORT $LN1@SetQuestCl
; File C:\Program Files\Microsoft Visual Studio\2022\Community\VC\Tools\MSVC\14.44.35207\include\__msvc_string_view.hpp

; 456  :             return __builtin_strlen(_First);

  00014	8b 55 0c	 mov	 edx, DWORD PTR _c_szClockName$[ebp]
  00017	8b c2		 mov	 eax, edx
  00019	56		 push	 esi
  0001a	8d 70 01	 lea	 esi, DWORD PTR [eax+1]
  0001d	0f 1f 00	 npad	 3
$LL11@SetQuestCl:
  00020	8a 08		 mov	 cl, BYTE PTR [eax]
  00022	40		 inc	 eax
  00023	84 c9		 test	 cl, cl
  00025	75 f9		 jne	 SHORT $LL11@SetQuestCl
; File D:\_m2work\Server Client TMP4\ClientVS22\source\UserInterface\PythonQuest.cpp

; 67   : 	pQuestInstance->strClockName = c_szClockName;

  00027	8b 4d fc	 mov	 ecx, DWORD PTR _pQuestInstance$[ebp]
; File C:\Program Files\Microsoft Visual Studio\2022\Community\VC\Tools\MSVC\14.44.35207\include\__msvc_string_view.hpp

; 456  :             return __builtin_strlen(_First);

  0002a	2b c6		 sub	 eax, esi
; File C:\Program Files\Microsoft Visual Studio\2022\Community\VC\Tools\MSVC\14.44.35207\include\xstring

; 1638 :         return assign(_Ptr, _Convert_size<size_type>(_Traits::length(_Ptr)));

  0002c	50		 push	 eax
  0002d	52		 push	 edx
; File D:\_m2work\Server Client TMP4\ClientVS22\source\UserInterface\PythonQuest.cpp

; 67   : 	pQuestInstance->strClockName = c_szClockName;

  0002e	8d 49 34	 lea	 ecx, DWORD PTR [ecx+52]
; File C:\Program Files\Microsoft Visual Studio\2022\Community\VC\Tools\MSVC\14.44.35207\include\xstring

; 1638 :         return assign(_Ptr, _Convert_size<size_type>(_Traits::length(_Ptr)));

  00031	e8 00 00 00 00	 call	 ?assign@?$basic_string@DU?$char_traits@D@std@@V?$allocator@D@2@@std@@QAEAAV12@QBDI@Z ; std::basic_string<char,std::char_traits<char>,std::allocator<char> >::assign
  00036	5e		 pop	 esi
$LN1@SetQuestCl:
; File D:\_m2work\Server Client TMP4\ClientVS22\source\UserInterface\PythonQuest.cpp

; 68   : }

  00037	8b e5		 mov	 esp, ebp
  00039	5d		 pop	 ebp
  0003a	c2 08 00	 ret	 8
?SetQuestClockName@CPythonQuest@@QAEXKPBD@Z ENDP	; CPythonQuest::SetQuestClockName
_TEXT	ENDS
; Function compile flags: /Ogtp
; File D:\_m2work\Server Client TMP4\ClientVS22\source\UserInterface\PythonQuest.cpp
; File C:\Program Files\Microsoft Visual Studio\2022\Community\VC\Tools\MSVC\14.44.35207\include\__msvc_string_view.hpp
; File D:\_m2work\Server Client TMP4\ClientVS22\source\UserInterface\PythonQuest.cpp
; File C:\Program Files\Microsoft Visual Studio\2022\Community\VC\Tools\MSVC\14.44.35207\include\__msvc_string_view.hpp
; File C:\Program Files\Microsoft Visual Studio\2022\Community\VC\Tools\MSVC\14.44.35207\include\xstring
; File D:\_m2work\Server Client TMP4\ClientVS22\source\UserInterface\PythonQuest.cpp
; File C:\Program Files\Microsoft Visual Studio\2022\Community\VC\Tools\MSVC\14.44.35207\include\xstring
; File D:\_m2work\Server Client TMP4\ClientVS22\source\UserInterface\PythonQuest.cpp
;	COMDAT ?SetQuestTitle@CPythonQuest@@QAEXKPBD@Z
_TEXT	SEGMENT
_pQuestInstance$ = -4					; size = 4
_dwIndex$ = 8						; size = 4
_c_szTitle$ = 12					; size = 4
?SetQuestTitle@CPythonQuest@@QAEXKPBD@Z PROC		; CPythonQuest::SetQuestTitle, COMDAT
; _this$ = ecx

; 53   : {

  00000	55		 push	 ebp
  00001	8b ec		 mov	 ebp, esp
  00003	51		 push	 ecx

; 54   : 	SQuestInstance * pQuestInstance;
; 55   : 	if (!__GetQuestInstancePtr(dwIndex, &pQuestInstance))

  00004	8d 45 fc	 lea	 eax, DWORD PTR _pQuestInstance$[ebp]
  00007	50		 push	 eax
  00008	ff 75 08	 push	 DWORD PTR _dwIndex$[ebp]
  0000b	e8 00 00 00 00	 call	 ?__GetQuestInstancePtr@CPythonQuest@@IAE_NKPAPAUSQuestInstance@1@@Z ; CPythonQuest::__GetQuestInstancePtr
  00010	84 c0		 test	 al, al
  00012	74 23		 je	 SHORT $LN1@SetQuestTi
; File C:\Program Files\Microsoft Visual Studio\2022\Community\VC\Tools\MSVC\14.44.35207\include\__msvc_string_view.hpp

; 456  :             return __builtin_strlen(_First);

  00014	8b 55 0c	 mov	 edx, DWORD PTR _c_szTitle$[ebp]
  00017	8b c2		 mov	 eax, edx
  00019	56		 push	 esi
  0001a	8d 70 01	 lea	 esi, DWORD PTR [eax+1]
  0001d	0f 1f 00	 npad	 3
$LL11@SetQuestTi:
  00020	8a 08		 mov	 cl, BYTE PTR [eax]
  00022	40		 inc	 eax
  00023	84 c9		 test	 cl, cl
  00025	75 f9		 jne	 SHORT $LL11@SetQuestTi
; File D:\_m2work\Server Client TMP4\ClientVS22\source\UserInterface\PythonQuest.cpp

; 58   : 	pQuestInstance->strTitle = c_szTitle;

  00027	8b 4d fc	 mov	 ecx, DWORD PTR _pQuestInstance$[ebp]
; File C:\Program Files\Microsoft Visual Studio\2022\Community\VC\Tools\MSVC\14.44.35207\include\__msvc_string_view.hpp

; 456  :             return __builtin_strlen(_First);

  0002a	2b c6		 sub	 eax, esi
; File C:\Program Files\Microsoft Visual Studio\2022\Community\VC\Tools\MSVC\14.44.35207\include\xstring

; 1638 :         return assign(_Ptr, _Convert_size<size_type>(_Traits::length(_Ptr)));

  0002c	50		 push	 eax
  0002d	52		 push	 edx
; File D:\_m2work\Server Client TMP4\ClientVS22\source\UserInterface\PythonQuest.cpp

; 58   : 	pQuestInstance->strTitle = c_szTitle;

  0002e	8d 49 1c	 lea	 ecx, DWORD PTR [ecx+28]
; File C:\Program Files\Microsoft Visual Studio\2022\Community\VC\Tools\MSVC\14.44.35207\include\xstring

; 1638 :         return assign(_Ptr, _Convert_size<size_type>(_Traits::length(_Ptr)));

  00031	e8 00 00 00 00	 call	 ?assign@?$basic_string@DU?$char_traits@D@std@@V?$allocator@D@2@@std@@QAEAAV12@QBDI@Z ; std::basic_string<char,std::char_traits<char>,std::allocator<char> >::assign
  00036	5e		 pop	 esi
$LN1@SetQuestTi:
; File D:\_m2work\Server Client TMP4\ClientVS22\source\UserInterface\PythonQuest.cpp

; 59   : }

  00037	8b e5		 mov	 esp, ebp
  00039	5d		 pop	 ebp
  0003a	c2 08 00	 ret	 8
?SetQuestTitle@CPythonQuest@@QAEXKPBD@Z ENDP		; CPythonQuest::SetQuestTitle
_TEXT	ENDS
; Function compile flags: /Ogtp
; File D:\_m2work\Server Client TMP4\ClientVS22\source\UserInterface\PythonQuest.cpp
; File C:\Program Files\Microsoft Visual Studio\2022\Community\VC\Tools\MSVC\14.44.35207\include\vector
; File C:\Program Files\Microsoft Visual Studio\2022\Community\VC\Tools\MSVC\14.44.35207\include\xstring
; File D:\_m2work\Server Client TMP4\ClientVS22\source\UserInterface\PythonQuest.cpp
; File C:\Program Files\Microsoft Visual Studio\2022\Community\VC\Tools\MSVC\14.44.35207\include\xstring
; File C:\Program Files\Microsoft Visual Studio\2022\Community\VC\Tools\MSVC\14.44.35207\include\vector
; File D:\_m2work\Server Client TMP4\ClientVS22\source\UserInterface\PythonQuest.cpp
;	COMDAT ?MakeQuest@CPythonQuest@@QAEXK@Z
_TEXT	SEGMENT
$T2 = -128						; size = 112
__$ArrayPad$ = -16					; size = 4
__$EHRec$ = -12						; size = 12
_dwIndex$ = 8						; size = 4
?MakeQuest@CPythonQuest@@QAEXK@Z PROC			; CPythonQuest::MakeQuest, COMDAT
; _this$ = ecx

; 41   : {

  00000	55		 push	 ebp
  00001	8b ec		 mov	 ebp, esp
  00003	6a ff		 push	 -1
  00005	68 00 00 00 00	 push	 __ehhandler$?MakeQuest@CPythonQuest@@QAEXK@Z
  0000a	64 a1 00 00 00
	00		 mov	 eax, DWORD PTR fs:0
  00010	50		 push	 eax
  00011	83 ec 74	 sub	 esp, 116		; 00000074H
  00014	a1 00 00 00 00	 mov	 eax, DWORD PTR ___security_cookie
  00019	33 c5		 xor	 eax, ebp
  0001b	89 45 f0	 mov	 DWORD PTR __$ArrayPad$[ebp], eax
  0001e	56		 push	 esi
  0001f	57		 push	 edi
  00020	50		 push	 eax
  00021	8d 45 f4	 lea	 eax, DWORD PTR __$EHRec$[ebp]
  00024	64 a3 00 00 00
	00		 mov	 DWORD PTR fs:0, eax
  0002a	8b f1		 mov	 esi, ecx

; 42   : 	DeleteQuestInstance(dwIndex);

  0002c	8b 7d 08	 mov	 edi, DWORD PTR _dwIndex$[ebp]
  0002f	57		 push	 edi
  00030	e8 00 00 00 00	 call	 ?DeleteQuestInstance@CPythonQuest@@QAEXK@Z ; CPythonQuest::DeleteQuestInstance

; 43   : 	m_QuestInstanceContainer.push_back(SQuestInstance());

  00035	8d 4d 80	 lea	 ecx, DWORD PTR $T2[ebp]
  00038	e8 00 00 00 00	 call	 ??0SQuestInstance@CPythonQuest@@QAE@XZ ; CPythonQuest::SQuestInstance::SQuestInstance
  0003d	c7 45 fc 00 00
	00 00		 mov	 DWORD PTR __$EHRec$[ebp+8], 0
; File C:\Program Files\Microsoft Visual Studio\2022\Community\VC\Tools\MSVC\14.44.35207\include\vector

; 844  :         if (_Mylast != _My_data._Myend) {

  00044	8b 4e 08	 mov	 ecx, DWORD PTR [esi+8]
  00047	50		 push	 eax
  00048	3b 4e 0c	 cmp	 ecx, DWORD PTR [esi+12]
  0004b	74 0b		 je	 SHORT $LN7@MakeQuest

; 869  :         ++_Mylast;

  0004d	e8 00 00 00 00	 call	 ??0SQuestInstance@CPythonQuest@@QAE@$$QAU01@@Z
  00052	83 46 08 70	 add	 DWORD PTR [esi+8], 112	; 00000070H

; 845  :             return _Emplace_back_with_unused_capacity(_STD forward<_Valty>(_Val)...);

  00056	eb 09		 jmp	 SHORT $LN6@MakeQuest
$LN7@MakeQuest:

; 846  :         }
; 847  : 
; 848  :         return *_Emplace_reallocate(_Mylast, _STD forward<_Valty>(_Val)...);

  00058	51		 push	 ecx
  00059	8d 4e 04	 lea	 ecx, DWORD PTR [esi+4]
  0005c	e8 00 00 00 00	 call	 ??$_Emplace_reallocate@USQuestInstance@CPythonQuest@@@?$vector@USQuestInstance@CPythonQuest@@V?$allocator@USQuestInstance@CPythonQuest@@@std@@@std@@AAEPAUSQuestInstance@CPythonQuest@@QAU23@$$QAU23@@Z ; std::vector<CPythonQuest::SQuestInstance,std::allocator<CPythonQuest::SQuestInstance> >::_Emplace_reallocate<CPythonQuest::SQuestInstance>
$LN6@MakeQuest:
; File C:\Program Files\Microsoft Visual Studio\2022\Community\VC\Tools\MSVC\14.44.35207\include\xstring

; 1383 :         _Tidy_deallocate();

  00061	8d 4d cc	 lea	 ecx, DWORD PTR $T2[ebp+76]
; File D:\_m2work\Server Client TMP4\ClientVS22\source\UserInterface\PythonQuest.cpp

; 43   : 	m_QuestInstanceContainer.push_back(SQuestInstance());

  00064	c7 45 fc ff ff
	ff ff		 mov	 DWORD PTR __$EHRec$[ebp+8], -1
; File C:\Program Files\Microsoft Visual Studio\2022\Community\VC\Tools\MSVC\14.44.35207\include\xstring

; 1383 :         _Tidy_deallocate();

  0006b	e8 00 00 00 00	 call	 ?_Tidy_deallocate@?$basic_string@DU?$char_traits@D@std@@V?$allocator@D@2@@std@@AAEXXZ ; std::basic_string<char,std::char_traits<char>,std::allocator<char> >::_Tidy_deallocate
  00070	8d 4d b4	 lea	 ecx, DWORD PTR $T2[ebp+52]
  00073	e8 00 00 00 00	 call	 ?_Tidy_deallocate@?$basic_string@DU?$char_traits@D@std@@V?$allocator@D@2@@std@@AAEXXZ ; std::basic_string<char,std::char_traits<char>,std::allocator<char> >::_Tidy_deallocate
  00078	8d 4d 9c	 lea	 ecx, DWORD PTR $T2[ebp+28]
  0007b	e8 00 00 00 00	 call	 ?_Tidy_deallocate@?$basic_string@DU?$char_traits@D@std@@V?$allocator@D@2@@std@@AAEXXZ ; std::basic_string<char,std::char_traits<char>,std::allocator<char> >::_Tidy_deallocate
  00080	8d 4d 84	 lea	 ecx, DWORD PTR $T2[ebp+4]
  00083	e8 00 00 00 00	 call	 ?_Tidy_deallocate@?$basic_string@DU?$char_traits@D@std@@V?$allocator@D@2@@std@@AAEXXZ ; std::basic_string<char,std::char_traits<char>,std::allocator<char> >::_Tidy_deallocate
; File C:\Program Files\Microsoft Visual Studio\2022\Community\VC\Tools\MSVC\14.44.35207\include\vector

; 46   :     _CONSTEXPR20 _Vector_const_iterator(_Tptr _Parg, const _Container_base* _Pvector) noexcept : _Ptr(_Parg) {

  00088	8b 76 08	 mov	 esi, DWORD PTR [esi+8]
; File D:\_m2work\Server Client TMP4\ClientVS22\source\UserInterface\PythonQuest.cpp

; 48   : 	rQuestInstance.dwIndex = dwIndex;

  0008b	89 7e 90	 mov	 DWORD PTR [esi-112], edi

; 49   : 	rQuestInstance.iStartTime = int(CTimer::Instance().GetCurrentSecond());

  0008e	8b 0d 00 00 00
	00		 mov	 ecx, DWORD PTR ?ms_singleton@?$CSingleton@VCTimer@@@@0PAVCTimer@@A ; CSingleton<CTimer>::ms_singleton
  00094	e8 00 00 00 00	 call	 ?GetCurrentSecond@CTimer@@QAEMXZ ; CTimer::GetCurrentSecond
  00099	e8 00 00 00 00	 call	 __ftol2_sse
  0009e	89 46 fc	 mov	 DWORD PTR [esi-4], eax

; 50   : }

  000a1	8b 4d f4	 mov	 ecx, DWORD PTR __$EHRec$[ebp]
  000a4	64 89 0d 00 00
	00 00		 mov	 DWORD PTR fs:0, ecx
  000ab	59		 pop	 ecx
  000ac	5f		 pop	 edi
  000ad	5e		 pop	 esi
  000ae	8b 4d f0	 mov	 ecx, DWORD PTR __$ArrayPad$[ebp]
  000b1	33 cd		 xor	 ecx, ebp
  000b3	e8 00 00 00 00	 call	 @__security_check_cookie@4
  000b8	8b e5		 mov	 esp, ebp
  000ba	5d		 pop	 ebp
  000bb	c2 04 00	 ret	 4
_TEXT	ENDS
;	COMDAT text$x
text$x	SEGMENT
__unwindfunclet$?MakeQuest@CPythonQuest@@QAEXK@Z$0:
  00000	8d 4d 80	 lea	 ecx, DWORD PTR $T2[ebp]
  00003	e9 00 00 00 00	 jmp	 ??1SQuestInstance@CPythonQuest@@QAE@XZ
  00008	cc		 int	 3
  00009	cc		 int	 3
  0000a	cc		 int	 3
  0000b	cc		 int	 3
  0000c	cc		 int	 3
__ehhandler$?MakeQuest@CPythonQuest@@QAEXK@Z:
  0000d	90		 npad	 1
  0000e	90		 npad	 1
  0000f	8b 54 24 08	 mov	 edx, DWORD PTR [esp+8]
  00013	8d 42 0c	 lea	 eax, DWORD PTR [edx+12]
  00016	8b 4a 80	 mov	 ecx, DWORD PTR [edx-128]
  00019	33 c8		 xor	 ecx, eax
  0001b	e8 00 00 00 00	 call	 @__security_check_cookie@4
  00020	8b 4a fc	 mov	 ecx, DWORD PTR [edx-4]
  00023	33 c8		 xor	 ecx, eax
  00025	e8 00 00 00 00	 call	 @__security_check_cookie@4
  0002a	b8 00 00 00 00	 mov	 eax, OFFSET __ehfuncinfo$?MakeQuest@CPythonQuest@@QAEXK@Z
  0002f	e9 00 00 00 00	 jmp	 ___CxxFrameHandler3
text$x	ENDS
?MakeQuest@CPythonQuest@@QAEXK@Z ENDP			; CPythonQuest::MakeQuest
; Function compile flags: /Ogtp
; File D:\_m2work\Server Client TMP4\ClientVS22\source\UserInterface\PythonQuest.cpp
; File C:\Program Files\Microsoft Visual Studio\2022\Community\VC\Tools\MSVC\14.44.35207\include\vector
; File C:\Program Files\Microsoft Visual Studio\2022\Community\VC\Tools\MSVC\14.44.35207\include\xutility
; File D:\_m2work\Server Client TMP4\ClientVS22\source\UserInterface\PythonQuest.cpp
; File C:\Program Files\Microsoft Visual Studio\2022\Community\VC\Tools\MSVC\14.44.35207\include\xutility
; File C:\Program Files\Microsoft Visual Studio\2022\Community\VC\Tools\MSVC\14.44.35207\include\vector
; File D:\_m2work\Server Client TMP4\ClientVS22\source\UserInterface\PythonQuest.cpp
;	COMDAT ?IsQuest@CPythonQuest@@QAE_NK@Z
_TEXT	SEGMENT
_dwIndex$ = 8						; size = 4
?IsQuest@CPythonQuest@@QAE_NK@Z PROC			; CPythonQuest::IsQuest, COMDAT
; _this$ = ecx

; 35   : {

  00000	55		 push	 ebp
  00001	8b ec		 mov	 ebp, esp
; File C:\Program Files\Microsoft Visual Studio\2022\Community\VC\Tools\MSVC\14.44.35207\include\vector

; 46   :     _CONSTEXPR20 _Vector_const_iterator(_Tptr _Parg, const _Container_base* _Pvector) noexcept : _Ptr(_Parg) {

  00003	8b 51 08	 mov	 edx, DWORD PTR [ecx+8]
  00006	8b 41 04	 mov	 eax, DWORD PTR [ecx+4]
; File C:\Program Files\Microsoft Visual Studio\2022\Community\VC\Tools\MSVC\14.44.35207\include\xutility

; 6623 :     for (; _UFirst != _ULast; ++_UFirst) {

  00009	3b c2		 cmp	 eax, edx
  0000b	74 10		 je	 SHORT $LN49@IsQuest
  0000d	8b 4d 08	 mov	 ecx, DWORD PTR _dwIndex$[ebp]
$LL26@IsQuest:
; File D:\_m2work\Server Client TMP4\ClientVS22\source\UserInterface\PythonQuest.cpp

; 21   : 		return dwSearchIndex == rQuestInstance.dwIndex;

  00010	3b 08		 cmp	 ecx, DWORD PTR [eax]
; File C:\Program Files\Microsoft Visual Studio\2022\Community\VC\Tools\MSVC\14.44.35207\include\xutility

; 6624 :         if (_Pred(*_UFirst)) {

  00012	74 07		 je	 SHORT $LN44@IsQuest

; 6623 :     for (; _UFirst != _ULast; ++_UFirst) {

  00014	83 c0 70	 add	 eax, 112		; 00000070H
  00017	3b c2		 cmp	 eax, edx
  00019	75 f5		 jne	 SHORT $LL26@IsQuest
$LN44@IsQuest:
; File C:\Program Files\Microsoft Visual Studio\2022\Community\VC\Tools\MSVC\14.44.35207\include\vector

; 46   :     _CONSTEXPR20 _Vector_const_iterator(_Tptr _Parg, const _Container_base* _Pvector) noexcept : _Ptr(_Parg) {

  0001b	3b c2		 cmp	 eax, edx
$LN49@IsQuest:
; File D:\_m2work\Server Client TMP4\ClientVS22\source\UserInterface\PythonQuest.cpp

; 37   : 	return itor != m_QuestInstanceContainer.end();

  0001d	0f 95 c0	 setne	 al

; 38   : }

  00020	5d		 pop	 ebp
  00021	c2 04 00	 ret	 4
?IsQuest@CPythonQuest@@QAE_NK@Z ENDP			; CPythonQuest::IsQuest
_TEXT	ENDS
; Function compile flags: /Ogtp
; File D:\_m2work\Server Client TMP4\ClientVS22\source\UserInterface\PythonQuest.cpp
; File C:\Program Files\Microsoft Visual Studio\2022\Community\VC\Tools\MSVC\14.44.35207\include\vector
; File C:\Program Files\Microsoft Visual Studio\2022\Community\VC\Tools\MSVC\14.44.35207\include\xutility
; File D:\_m2work\Server Client TMP4\ClientVS22\source\UserInterface\PythonQuest.cpp
; File C:\Program Files\Microsoft Visual Studio\2022\Community\VC\Tools\MSVC\14.44.35207\include\xutility
; File D:\_m2work\Server Client TMP4\ClientVS22\source\UserInterface\PythonQuest.cpp
; File C:\Program Files\Microsoft Visual Studio\2022\Community\VC\Tools\MSVC\14.44.35207\include\vector
; File C:\Program Files\Microsoft Visual Studio\2022\Community\VC\Tools\MSVC\14.44.35207\include\xutility
; File C:\Program Files\Microsoft Visual Studio\2022\Community\VC\Tools\MSVC\14.44.35207\include\vector
; File C:\Program Files\Microsoft Visual Studio\2022\Community\VC\Tools\MSVC\14.44.35207\include\xstring
; File C:\Program Files\Microsoft Visual Studio\2022\Community\VC\Tools\MSVC\14.44.35207\include\xutility
; File C:\Program Files\Microsoft Visual Studio\2022\Community\VC\Tools\MSVC\14.44.35207\include\vector
; File C:\Program Files\Microsoft Visual Studio\2022\Community\VC\Tools\MSVC\14.44.35207\include\xstring
; File C:\Program Files\Microsoft Visual Studio\2022\Community\VC\Tools\MSVC\14.44.35207\include\vector
; File D:\_m2work\Server Client TMP4\ClientVS22\source\UserInterface\PythonQuest.cpp
;	COMDAT ?DeleteQuestInstance@CPythonQuest@@QAEXK@Z
_TEXT	SEGMENT
_this$1$ = -4						; size = 4
_dwIndex$ = 8						; size = 4
__Last$1$ = 8						; size = 4
?DeleteQuestInstance@CPythonQuest@@QAEXK@Z PROC		; CPythonQuest::DeleteQuestInstance, COMDAT
; _this$ = ecx

; 26   : {

  00000	55		 push	 ebp
  00001	8b ec		 mov	 ebp, esp
  00003	51		 push	 ecx
  00004	53		 push	 ebx
  00005	8b d9		 mov	 ebx, ecx
  00007	89 5d fc	 mov	 DWORD PTR _this$1$[ebp], ebx
; File C:\Program Files\Microsoft Visual Studio\2022\Community\VC\Tools\MSVC\14.44.35207\include\vector

; 46   :     _CONSTEXPR20 _Vector_const_iterator(_Tptr _Parg, const _Container_base* _Pvector) noexcept : _Ptr(_Parg) {

  0000a	8b 53 08	 mov	 edx, DWORD PTR [ebx+8]
  0000d	8b 43 04	 mov	 eax, DWORD PTR [ebx+4]
; File C:\Program Files\Microsoft Visual Studio\2022\Community\VC\Tools\MSVC\14.44.35207\include\xutility

; 6623 :     for (; _UFirst != _ULast; ++_UFirst) {

  00010	3b c2		 cmp	 eax, edx
  00012	0f 84 92 01 00
	00		 je	 $LN185@DeleteQues
  00018	8b 4d 08	 mov	 ecx, DWORD PTR _dwIndex$[ebp]
  0001b	57		 push	 edi
  0001c	0f 1f 40 00	 npad	 4
$LL27@DeleteQues:
; File D:\_m2work\Server Client TMP4\ClientVS22\source\UserInterface\PythonQuest.cpp

; 21   : 		return dwSearchIndex == rQuestInstance.dwIndex;

  00020	8d 78 70	 lea	 edi, DWORD PTR [eax+112]
  00023	3b 08		 cmp	 ecx, DWORD PTR [eax]
; File C:\Program Files\Microsoft Visual Studio\2022\Community\VC\Tools\MSVC\14.44.35207\include\xutility

; 6624 :         if (_Pred(*_UFirst)) {

  00025	74 0e		 je	 SHORT $LN232@DeleteQues

; 6623 :     for (; _UFirst != _ULast; ++_UFirst) {

  00027	8b c7		 mov	 eax, edi
  00029	3b c2		 cmp	 eax, edx
  0002b	75 f3		 jne	 SHORT $LL27@DeleteQues
  0002d	5f		 pop	 edi
  0002e	5b		 pop	 ebx
; File D:\_m2work\Server Client TMP4\ClientVS22\source\UserInterface\PythonQuest.cpp

; 32   : }

  0002f	8b e5		 mov	 esp, ebp
  00031	5d		 pop	 ebp
  00032	c2 04 00	 ret	 4
$LN232@DeleteQues:
; File C:\Program Files\Microsoft Visual Studio\2022\Community\VC\Tools\MSVC\14.44.35207\include\vector

; 1775 :         _STD _Move_unchecked(_Whereptr + 1, _Mylast, _Whereptr);

  00035	8b c2		 mov	 eax, edx
  00037	89 45 08	 mov	 DWORD PTR __Last$1$[ebp], eax
  0003a	56		 push	 esi
; File C:\Program Files\Microsoft Visual Studio\2022\Community\VC\Tools\MSVC\14.44.35207\include\xutility

; 5151 :         for (; _First != _Last; ++_Dest, (void) ++_First) {

  0003b	3b f8		 cmp	 edi, eax
  0003d	0f 84 3e 01 00
	00		 je	 $LN49@DeleteQues
; File C:\Program Files\Microsoft Visual Studio\2022\Community\VC\Tools\MSVC\14.44.35207\include\vector

; 1766 :         pointer& _Mylast        = _My_data._Mylast;

  00043	8d 77 94	 lea	 esi, DWORD PTR [edi-108]
$LL50@DeleteQues:
  00046	8b 07		 mov	 eax, DWORD PTR [edi]
; File C:\Program Files\Microsoft Visual Studio\2022\Community\VC\Tools\MSVC\14.44.35207\include\xstring

; 1226 :         if (this == _STD addressof(_Right)) {

  00048	8d 5e 70	 lea	 ebx, DWORD PTR [esi+112]
  0004b	89 46 fc	 mov	 DWORD PTR [esi-4], eax
  0004e	3b f3		 cmp	 esi, ebx
  00050	74 2e		 je	 SHORT $LN62@DeleteQues

; 1227 :             return *this;
; 1228 :         }
; 1229 : 
; 1230 :         auto& _Al                 = _Getal();
; 1231 :         auto& _Right_al           = _Right._Getal();
; 1232 :         constexpr auto _Pocma_val = _Choose_pocma_v<_Alty>;
; 1233 :         if constexpr (_Pocma_val == _Pocma_values::_Propagate_allocators) {
; 1234 :             if (_Al != _Right_al) {
; 1235 :                 // intentionally slams into noexcept on OOM, TRANSITION, VSO-466800
; 1236 :                 _Mypair._Myval2._Orphan_all();
; 1237 :                 _Mypair._Myval2._Reload_proxy(_GET_PROXY_ALLOCATOR(_Alty, _Al), _GET_PROXY_ALLOCATOR(_Alty, _Right_al));
; 1238 :             }
; 1239 :         } else if constexpr (_Pocma_val == _Pocma_values::_No_propagate_allocators) {
; 1240 :             if (_Al != _Right_al) {
; 1241 :                 assign(_Right._Mypair._Myval2._Myptr(), _Right._Mypair._Myval2._Mysize);
; 1242 :                 return *this;
; 1243 :             }
; 1244 :         }
; 1245 : 
; 1246 :         _Tidy_deallocate();

  00052	8b ce		 mov	 ecx, esi
  00054	e8 00 00 00 00	 call	 ?_Tidy_deallocate@?$basic_string@DU?$char_traits@D@std@@V?$allocator@D@2@@std@@AAEXXZ ; std::basic_string<char,std::char_traits<char>,std::allocator<char> >::_Tidy_deallocate

; 1286 :                 _CSTD memcpy(_My_data_mem, _Right_data_mem, _Memcpy_val_size);

  00059	0f 10 03	 movups	 xmm0, XMMWORD PTR [ebx]
  0005c	0f 11 06	 movups	 XMMWORD PTR [esi], xmm0
  0005f	f3 0f 7e 43 10	 movq	 xmm0, QWORD PTR [ebx+16]
  00064	66 0f d6 46 10	 movq	 QWORD PTR [esi+16], xmm0

; 1287 : 
; 1288 :                 _Right_data._Mysize = 0;

  00069	c7 86 80 00 00
	00 00 00 00 00	 mov	 DWORD PTR [esi+128], 0

; 1289 :                 _Right_data._Myres  = _Small_string_capacity;

  00073	c7 86 84 00 00
	00 0f 00 00 00	 mov	 DWORD PTR [esi+132], 15	; 0000000fH

; 1290 :                 _Right_data._Activate_SSO_buffer();
; 1291 :                 _Traits::assign(_Right_data._Bx._Buf[0], _Elem());

  0007d	c6 03 00	 mov	 BYTE PTR [ebx], 0
$LN62@DeleteQues:

; 1226 :         if (this == _STD addressof(_Right)) {

  00080	8d 46 18	 lea	 eax, DWORD PTR [esi+24]
  00083	8d 8e 88 00 00
	00		 lea	 ecx, DWORD PTR [esi+136]
  00089	3b c1		 cmp	 eax, ecx
  0008b	74 3a		 je	 SHORT $LN85@DeleteQues

; 1227 :             return *this;
; 1228 :         }
; 1229 : 
; 1230 :         auto& _Al                 = _Getal();
; 1231 :         auto& _Right_al           = _Right._Getal();
; 1232 :         constexpr auto _Pocma_val = _Choose_pocma_v<_Alty>;
; 1233 :         if constexpr (_Pocma_val == _Pocma_values::_Propagate_allocators) {
; 1234 :             if (_Al != _Right_al) {
; 1235 :                 // intentionally slams into noexcept on OOM, TRANSITION, VSO-466800
; 1236 :                 _Mypair._Myval2._Orphan_all();
; 1237 :                 _Mypair._Myval2._Reload_proxy(_GET_PROXY_ALLOCATOR(_Alty, _Al), _GET_PROXY_ALLOCATOR(_Alty, _Right_al));
; 1238 :             }
; 1239 :         } else if constexpr (_Pocma_val == _Pocma_values::_No_propagate_allocators) {
; 1240 :             if (_Al != _Right_al) {
; 1241 :                 assign(_Right._Mypair._Myval2._Myptr(), _Right._Mypair._Myval2._Mysize);
; 1242 :                 return *this;
; 1243 :             }
; 1244 :         }
; 1245 : 
; 1246 :         _Tidy_deallocate();

  0008d	8b c8		 mov	 ecx, eax
  0008f	e8 00 00 00 00	 call	 ?_Tidy_deallocate@?$basic_string@DU?$char_traits@D@std@@V?$allocator@D@2@@std@@AAEXXZ ; std::basic_string<char,std::char_traits<char>,std::allocator<char> >::_Tidy_deallocate

; 1286 :                 _CSTD memcpy(_My_data_mem, _Right_data_mem, _Memcpy_val_size);

  00094	0f 10 86 88 00
	00 00		 movups	 xmm0, XMMWORD PTR [esi+136]
  0009b	0f 11 46 18	 movups	 XMMWORD PTR [esi+24], xmm0
  0009f	f3 0f 7e 86 98
	00 00 00	 movq	 xmm0, QWORD PTR [esi+152]
  000a7	66 0f d6 46 28	 movq	 QWORD PTR [esi+40], xmm0

; 1287 : 
; 1288 :                 _Right_data._Mysize = 0;

  000ac	c7 86 98 00 00
	00 00 00 00 00	 mov	 DWORD PTR [esi+152], 0

; 1289 :                 _Right_data._Myres  = _Small_string_capacity;

  000b6	c7 86 9c 00 00
	00 0f 00 00 00	 mov	 DWORD PTR [esi+156], 15	; 0000000fH

; 1290 :                 _Right_data._Activate_SSO_buffer();
; 1291 :                 _Traits::assign(_Right_data._Bx._Buf[0], _Elem());

  000c0	c6 86 88 00 00
	00 00		 mov	 BYTE PTR [esi+136], 0
$LN85@DeleteQues:

; 1226 :         if (this == _STD addressof(_Right)) {

  000c7	8d 46 30	 lea	 eax, DWORD PTR [esi+48]
  000ca	8d 8e a0 00 00
	00		 lea	 ecx, DWORD PTR [esi+160]
  000d0	3b c1		 cmp	 eax, ecx
  000d2	74 3a		 je	 SHORT $LN108@DeleteQues

; 1227 :             return *this;
; 1228 :         }
; 1229 : 
; 1230 :         auto& _Al                 = _Getal();
; 1231 :         auto& _Right_al           = _Right._Getal();
; 1232 :         constexpr auto _Pocma_val = _Choose_pocma_v<_Alty>;
; 1233 :         if constexpr (_Pocma_val == _Pocma_values::_Propagate_allocators) {
; 1234 :             if (_Al != _Right_al) {
; 1235 :                 // intentionally slams into noexcept on OOM, TRANSITION, VSO-466800
; 1236 :                 _Mypair._Myval2._Orphan_all();
; 1237 :                 _Mypair._Myval2._Reload_proxy(_GET_PROXY_ALLOCATOR(_Alty, _Al), _GET_PROXY_ALLOCATOR(_Alty, _Right_al));
; 1238 :             }
; 1239 :         } else if constexpr (_Pocma_val == _Pocma_values::_No_propagate_allocators) {
; 1240 :             if (_Al != _Right_al) {
; 1241 :                 assign(_Right._Mypair._Myval2._Myptr(), _Right._Mypair._Myval2._Mysize);
; 1242 :                 return *this;
; 1243 :             }
; 1244 :         }
; 1245 : 
; 1246 :         _Tidy_deallocate();

  000d4	8b c8		 mov	 ecx, eax
  000d6	e8 00 00 00 00	 call	 ?_Tidy_deallocate@?$basic_string@DU?$char_traits@D@std@@V?$allocator@D@2@@std@@AAEXXZ ; std::basic_string<char,std::char_traits<char>,std::allocator<char> >::_Tidy_deallocate

; 1286 :                 _CSTD memcpy(_My_data_mem, _Right_data_mem, _Memcpy_val_size);

  000db	0f 10 86 a0 00
	00 00		 movups	 xmm0, XMMWORD PTR [esi+160]
  000e2	0f 11 46 30	 movups	 XMMWORD PTR [esi+48], xmm0
  000e6	f3 0f 7e 86 b0
	00 00 00	 movq	 xmm0, QWORD PTR [esi+176]
  000ee	66 0f d6 46 40	 movq	 QWORD PTR [esi+64], xmm0

; 1287 : 
; 1288 :                 _Right_data._Mysize = 0;

  000f3	c7 86 b0 00 00
	00 00 00 00 00	 mov	 DWORD PTR [esi+176], 0

; 1289 :                 _Right_data._Myres  = _Small_string_capacity;

  000fd	c7 86 b4 00 00
	00 0f 00 00 00	 mov	 DWORD PTR [esi+180], 15	; 0000000fH

; 1290 :                 _Right_data._Activate_SSO_buffer();
; 1291 :                 _Traits::assign(_Right_data._Bx._Buf[0], _Elem());

  00107	c6 86 a0 00 00
	00 00		 mov	 BYTE PTR [esi+160], 0
$LN108@DeleteQues:

; 1226 :         if (this == _STD addressof(_Right)) {

  0010e	8d 46 48	 lea	 eax, DWORD PTR [esi+72]
  00111	8d 8e b8 00 00
	00		 lea	 ecx, DWORD PTR [esi+184]
  00117	3b c1		 cmp	 eax, ecx
  00119	74 3a		 je	 SHORT $LN131@DeleteQues

; 1227 :             return *this;
; 1228 :         }
; 1229 : 
; 1230 :         auto& _Al                 = _Getal();
; 1231 :         auto& _Right_al           = _Right._Getal();
; 1232 :         constexpr auto _Pocma_val = _Choose_pocma_v<_Alty>;
; 1233 :         if constexpr (_Pocma_val == _Pocma_values::_Propagate_allocators) {
; 1234 :             if (_Al != _Right_al) {
; 1235 :                 // intentionally slams into noexcept on OOM, TRANSITION, VSO-466800
; 1236 :                 _Mypair._Myval2._Orphan_all();
; 1237 :                 _Mypair._Myval2._Reload_proxy(_GET_PROXY_ALLOCATOR(_Alty, _Al), _GET_PROXY_ALLOCATOR(_Alty, _Right_al));
; 1238 :             }
; 1239 :         } else if constexpr (_Pocma_val == _Pocma_values::_No_propagate_allocators) {
; 1240 :             if (_Al != _Right_al) {
; 1241 :                 assign(_Right._Mypair._Myval2._Myptr(), _Right._Mypair._Myval2._Mysize);
; 1242 :                 return *this;
; 1243 :             }
; 1244 :         }
; 1245 : 
; 1246 :         _Tidy_deallocate();

  0011b	8b c8		 mov	 ecx, eax
  0011d	e8 00 00 00 00	 call	 ?_Tidy_deallocate@?$basic_string@DU?$char_traits@D@std@@V?$allocator@D@2@@std@@AAEXXZ ; std::basic_string<char,std::char_traits<char>,std::allocator<char> >::_Tidy_deallocate

; 1286 :                 _CSTD memcpy(_My_data_mem, _Right_data_mem, _Memcpy_val_size);

  00122	0f 10 86 b8 00
	00 00		 movups	 xmm0, XMMWORD PTR [esi+184]
  00129	0f 11 46 48	 movups	 XMMWORD PTR [esi+72], xmm0
  0012d	f3 0f 7e 86 c8
	00 00 00	 movq	 xmm0, QWORD PTR [esi+200]
  00135	66 0f d6 46 58	 movq	 QWORD PTR [esi+88], xmm0

; 1287 : 
; 1288 :                 _Right_data._Mysize = 0;

  0013a	c7 86 c8 00 00
	00 00 00 00 00	 mov	 DWORD PTR [esi+200], 0

; 1289 :                 _Right_data._Myres  = _Small_string_capacity;

  00144	c7 86 cc 00 00
	00 0f 00 00 00	 mov	 DWORD PTR [esi+204], 15	; 0000000fH

; 1290 :                 _Right_data._Activate_SSO_buffer();
; 1291 :                 _Traits::assign(_Right_data._Bx._Buf[0], _Elem());

  0014e	c6 86 b8 00 00
	00 00		 mov	 BYTE PTR [esi+184], 0
$LN131@DeleteQues:
  00155	8b 86 d0 00 00
	00		 mov	 eax, DWORD PTR [esi+208]
; File C:\Program Files\Microsoft Visual Studio\2022\Community\VC\Tools\MSVC\14.44.35207\include\xutility

; 5151 :         for (; _First != _Last; ++_Dest, (void) ++_First) {

  0015b	83 c7 70	 add	 edi, 112		; 00000070H
  0015e	89 46 60	 mov	 DWORD PTR [esi+96], eax
  00161	8b 86 d4 00 00
	00		 mov	 eax, DWORD PTR [esi+212]
  00167	89 46 64	 mov	 DWORD PTR [esi+100], eax
  0016a	8b 86 d8 00 00
	00		 mov	 eax, DWORD PTR [esi+216]
  00170	89 46 68	 mov	 DWORD PTR [esi+104], eax
  00173	8b f3		 mov	 esi, ebx
  00175	3b 7d 08	 cmp	 edi, DWORD PTR __Last$1$[ebp]
  00178	0f 85 c8 fe ff
	ff		 jne	 $LL50@DeleteQues
  0017e	8b 5d fc	 mov	 ebx, DWORD PTR _this$1$[ebp]
$LN49@DeleteQues:
; File C:\Program Files\Microsoft Visual Studio\2022\Community\VC\Tools\MSVC\14.44.35207\include\vector

; 1776 :         _Alty_traits::destroy(_Getal(), _Unfancy(_Mylast - 1));

  00181	8b 73 08	 mov	 esi, DWORD PTR [ebx+8]
  00184	8d 4e dc	 lea	 ecx, DWORD PTR [esi-36]
; File C:\Program Files\Microsoft Visual Studio\2022\Community\VC\Tools\MSVC\14.44.35207\include\xstring

; 1383 :         _Tidy_deallocate();

  00187	e8 00 00 00 00	 call	 ?_Tidy_deallocate@?$basic_string@DU?$char_traits@D@std@@V?$allocator@D@2@@std@@AAEXXZ ; std::basic_string<char,std::char_traits<char>,std::allocator<char> >::_Tidy_deallocate
  0018c	8d 4e c4	 lea	 ecx, DWORD PTR [esi-60]
  0018f	e8 00 00 00 00	 call	 ?_Tidy_deallocate@?$basic_string@DU?$char_traits@D@std@@V?$allocator@D@2@@std@@AAEXXZ ; std::basic_string<char,std::char_traits<char>,std::allocator<char> >::_Tidy_deallocate
  00194	8d 4e ac	 lea	 ecx, DWORD PTR [esi-84]
  00197	e8 00 00 00 00	 call	 ?_Tidy_deallocate@?$basic_string@DU?$char_traits@D@std@@V?$allocator@D@2@@std@@AAEXXZ ; std::basic_string<char,std::char_traits<char>,std::allocator<char> >::_Tidy_deallocate
  0019c	8d 4e 94	 lea	 ecx, DWORD PTR [esi-108]
  0019f	e8 00 00 00 00	 call	 ?_Tidy_deallocate@?$basic_string@DU?$char_traits@D@std@@V?$allocator@D@2@@std@@AAEXXZ ; std::basic_string<char,std::char_traits<char>,std::allocator<char> >::_Tidy_deallocate
; File C:\Program Files\Microsoft Visual Studio\2022\Community\VC\Tools\MSVC\14.44.35207\include\vector

; 1778 :         --_Mylast;

  001a4	83 43 08 90	 add	 DWORD PTR [ebx+8], -112	; ffffff90H
  001a8	5e		 pop	 esi
  001a9	5f		 pop	 edi
$LN185@DeleteQues:
  001aa	5b		 pop	 ebx
; File D:\_m2work\Server Client TMP4\ClientVS22\source\UserInterface\PythonQuest.cpp

; 32   : }

  001ab	8b e5		 mov	 esp, ebp
  001ad	5d		 pop	 ebp
  001ae	c2 04 00	 ret	 4
?DeleteQuestInstance@CPythonQuest@@QAEXK@Z ENDP		; CPythonQuest::DeleteQuestInstance
_TEXT	ENDS
; Function compile flags: /Ogtp
; File D:\_m2work\Server Client TMP4\ClientVS22\source\UserInterface\PythonQuest.cpp
;	COMDAT ??0FQuestInstanceCompare@@QAE@K@Z
_TEXT	SEGMENT
_dwIndex$ = 8						; size = 4
??0FQuestInstanceCompare@@QAE@K@Z PROC			; FQuestInstanceCompare::FQuestInstanceCompare, COMDAT
; _this$ = ecx

; 18   : 	FQuestInstanceCompare(DWORD dwIndex) : dwSearchIndex(dwIndex) {}

  00000	55		 push	 ebp
  00001	8b ec		 mov	 ebp, esp
  00003	8b 45 08	 mov	 eax, DWORD PTR _dwIndex$[ebp]
  00006	89 01		 mov	 DWORD PTR [ecx], eax
  00008	8b c1		 mov	 eax, ecx
  0000a	5d		 pop	 ebp
  0000b	c2 04 00	 ret	 4
??0FQuestInstanceCompare@@QAE@K@Z ENDP			; FQuestInstanceCompare::FQuestInstanceCompare
_TEXT	ENDS
; Function compile flags: /Ogtp
; File D:\_m2work\Server Client TMP4\ClientVS22\source\UserInterface\PythonQuest.cpp
;	COMDAT ??RFQuestInstanceCompare@@QAE_NABUSQuestInstance@CPythonQuest@@@Z
_TEXT	SEGMENT
_rQuestInstance$ = 8					; size = 4
??RFQuestInstanceCompare@@QAE_NABUSQuestInstance@CPythonQuest@@@Z PROC ; FQuestInstanceCompare::operator(), COMDAT
; _this$ = ecx

; 20   : 	{

  00000	55		 push	 ebp
  00001	8b ec		 mov	 ebp, esp

; 21   : 		return dwSearchIndex == rQuestInstance.dwIndex;

  00003	8b 45 08	 mov	 eax, DWORD PTR _rQuestInstance$[ebp]
  00006	8b 09		 mov	 ecx, DWORD PTR [ecx]
  00008	3b 08		 cmp	 ecx, DWORD PTR [eax]
  0000a	0f 94 c0	 sete	 al

; 22   : 	}

  0000d	5d		 pop	 ebp
  0000e	c2 04 00	 ret	 4
??RFQuestInstanceCompare@@QAE_NABUSQuestInstance@CPythonQuest@@@Z ENDP ; FQuestInstanceCompare::operator()
_TEXT	ENDS
; Function compile flags: /Ogtp
; File D:\_m2work\Server Client TMP4\ClientVS22\source\UserInterface\PythonQuest.cpp
; File C:\Program Files\Microsoft Visual Studio\2022\Community\VC\Tools\MSVC\14.44.35207\include\vector
; File D:\_m2work\Server Client TMP4\ClientVS22\source\UserInterface\PythonQuest.cpp
;	COMDAT ?GetQuestCount@CPythonQuest@@QAEHXZ
_TEXT	SEGMENT
?GetQuestCount@CPythonQuest@@QAEHXZ PROC		; CPythonQuest::GetQuestCount, COMDAT
; _this$ = ecx
; File C:\Program Files\Microsoft Visual Studio\2022\Community\VC\Tools\MSVC\14.44.35207\include\vector

; 1915 :         return static_cast<size_type>(_My_data._Mylast - _My_data._Myfirst);

  00000	8b 41 08	 mov	 eax, DWORD PTR [ecx+8]
  00003	2b 41 04	 sub	 eax, DWORD PTR [ecx+4]
  00006	c1 f8 04	 sar	 eax, 4
  00009	69 c0 b7 6d db
	b6		 imul	 eax, eax, -1227133513
; File D:\_m2work\Server Client TMP4\ClientVS22\source\UserInterface\PythonQuest.cpp

; 110  : }

  0000f	c3		 ret	 0
?GetQuestCount@CPythonQuest@@QAEHXZ ENDP		; CPythonQuest::GetQuestCount
_TEXT	ENDS
; Function compile flags: /Ogtp
; File D:\_m2work\Server Client TMP4\ClientVS22\source\UserInterface\PythonQuest.cpp
; File C:\Program Files\Microsoft Visual Studio\2022\Community\VC\Tools\MSVC\14.44.35207\include\vector
; File D:\_m2work\Server Client TMP4\ClientVS22\source\UserInterface\PythonQuest.cpp
; File C:\Program Files\Microsoft Visual Studio\2022\Community\VC\Tools\MSVC\14.44.35207\include\vector
; File D:\_m2work\Server Client TMP4\ClientVS22\source\UserInterface\PythonQuest.cpp
; File C:\Program Files\Microsoft Visual Studio\2022\Community\VC\Tools\MSVC\14.44.35207\include\vector
; File D:\_m2work\Server Client TMP4\ClientVS22\source\UserInterface\PythonQuest.cpp
;	COMDAT ?GetQuestInstancePtr@CPythonQuest@@QAE_NKPAPAUSQuestInstance@1@@Z
_TEXT	SEGMENT
_dwArrayIndex$ = 8					; size = 4
_ppQuestInstance$ = 12					; size = 4
?GetQuestInstancePtr@CPythonQuest@@QAE_NKPAPAUSQuestInstance@1@@Z PROC ; CPythonQuest::GetQuestInstancePtr, COMDAT
; _this$ = ecx

; 113  : {

  00000	55		 push	 ebp
  00001	8b ec		 mov	 ebp, esp
; File C:\Program Files\Microsoft Visual Studio\2022\Community\VC\Tools\MSVC\14.44.35207\include\vector

; 1915 :         return static_cast<size_type>(_My_data._Mylast - _My_data._Myfirst);

  00003	8b 41 08	 mov	 eax, DWORD PTR [ecx+8]
  00006	8b 51 04	 mov	 edx, DWORD PTR [ecx+4]
  00009	2b c2		 sub	 eax, edx
; File D:\_m2work\Server Client TMP4\ClientVS22\source\UserInterface\PythonQuest.cpp

; 114  : 	if (dwArrayIndex >= m_QuestInstanceContainer.size())

  0000b	8b 4d 08	 mov	 ecx, DWORD PTR _dwArrayIndex$[ebp]
; File C:\Program Files\Microsoft Visual Studio\2022\Community\VC\Tools\MSVC\14.44.35207\include\vector

; 1915 :         return static_cast<size_type>(_My_data._Mylast - _My_data._Myfirst);

  0000e	c1 f8 04	 sar	 eax, 4
  00011	69 c0 b7 6d db
	b6		 imul	 eax, eax, -1227133513
; File D:\_m2work\Server Client TMP4\ClientVS22\source\UserInterface\PythonQuest.cpp

; 114  : 	if (dwArrayIndex >= m_QuestInstanceContainer.size())

  00017	3b c8		 cmp	 ecx, eax
  00019	72 06		 jb	 SHORT $LN2@GetQuestIn

; 115  : 		return false;

  0001b	32 c0		 xor	 al, al

; 120  : }

  0001d	5d		 pop	 ebp
  0001e	c2 08 00	 ret	 8
$LN2@GetQuestIn:

; 117  : 	*ppQuestInstance = &m_QuestInstanceContainer[dwArrayIndex];

  00021	8b 45 0c	 mov	 eax, DWORD PTR _ppQuestInstance$[ebp]
; File C:\Program Files\Microsoft Visual Studio\2022\Community\VC\Tools\MSVC\14.44.35207\include\vector

; 1934 :         return _My_data._Myfirst[_Pos];

  00024	6b c9 70	 imul	 ecx, ecx, 112
  00027	03 ca		 add	 ecx, edx
; File D:\_m2work\Server Client TMP4\ClientVS22\source\UserInterface\PythonQuest.cpp

; 117  : 	*ppQuestInstance = &m_QuestInstanceContainer[dwArrayIndex];

  00029	89 08		 mov	 DWORD PTR [eax], ecx

; 118  : 
; 119  : 	return true;

  0002b	b0 01		 mov	 al, 1

; 120  : }

  0002d	5d		 pop	 ebp
  0002e	c2 08 00	 ret	 8
?GetQuestInstancePtr@CPythonQuest@@QAE_NKPAPAUSQuestInstance@1@@Z ENDP ; CPythonQuest::GetQuestInstancePtr
_TEXT	ENDS
; Function compile flags: /Ogtp
; File D:\_m2work\Server Client TMP4\ClientVS22\source\UserInterface\PythonQuest.cpp
; File C:\Program Files\Microsoft Visual Studio\2022\Community\VC\Tools\MSVC\14.44.35207\include\vector
; File C:\Program Files\Microsoft Visual Studio\2022\Community\VC\Tools\MSVC\14.44.35207\include\xutility
; File D:\_m2work\Server Client TMP4\ClientVS22\source\UserInterface\PythonQuest.cpp
; File C:\Program Files\Microsoft Visual Studio\2022\Community\VC\Tools\MSVC\14.44.35207\include\xutility
; File D:\_m2work\Server Client TMP4\ClientVS22\source\UserInterface\PythonQuest.cpp
;	COMDAT ?__GetQuestInstancePtr@CPythonQuest@@IAE_NKPAPAUSQuestInstance@1@@Z
_TEXT	SEGMENT
_dwQuestIndex$ = 8					; size = 4
_ppQuestInstance$ = 12					; size = 4
?__GetQuestInstancePtr@CPythonQuest@@IAE_NKPAPAUSQuestInstance@1@@Z PROC ; CPythonQuest::__GetQuestInstancePtr, COMDAT
; _this$ = ecx

; 123  : {

  00000	55		 push	 ebp
  00001	8b ec		 mov	 ebp, esp
; File C:\Program Files\Microsoft Visual Studio\2022\Community\VC\Tools\MSVC\14.44.35207\include\vector

; 46   :     _CONSTEXPR20 _Vector_const_iterator(_Tptr _Parg, const _Container_base* _Pvector) noexcept : _Ptr(_Parg) {

  00003	8b 51 08	 mov	 edx, DWORD PTR [ecx+8]
  00006	8b 41 04	 mov	 eax, DWORD PTR [ecx+4]
; File C:\Program Files\Microsoft Visual Studio\2022\Community\VC\Tools\MSVC\14.44.35207\include\xutility

; 6623 :     for (; _UFirst != _ULast; ++_UFirst) {

  00009	3b c2		 cmp	 eax, edx
  0000b	74 0e		 je	 SHORT $LN45@GetQuestIn
  0000d	8b 4d 08	 mov	 ecx, DWORD PTR _dwQuestIndex$[ebp]
$LL27@GetQuestIn:
; File D:\_m2work\Server Client TMP4\ClientVS22\source\UserInterface\PythonQuest.cpp

; 21   : 		return dwSearchIndex == rQuestInstance.dwIndex;

  00010	3b 08		 cmp	 ecx, DWORD PTR [eax]
; File C:\Program Files\Microsoft Visual Studio\2022\Community\VC\Tools\MSVC\14.44.35207\include\xutility

; 6624 :         if (_Pred(*_UFirst)) {

  00012	74 0d		 je	 SHORT $LN2@GetQuestIn

; 6623 :     for (; _UFirst != _ULast; ++_UFirst) {

  00014	83 c0 70	 add	 eax, 112		; 00000070H
  00017	3b c2		 cmp	 eax, edx
  00019	75 f5		 jne	 SHORT $LL27@GetQuestIn
$LN45@GetQuestIn:
; File D:\_m2work\Server Client TMP4\ClientVS22\source\UserInterface\PythonQuest.cpp

; 126  : 		return false;

  0001b	32 c0		 xor	 al, al

; 131  : }

  0001d	5d		 pop	 ebp
  0001e	c2 08 00	 ret	 8
$LN2@GetQuestIn:

; 127  : 
; 128  : 	*ppQuestInstance = &(*itor);

  00021	8b 4d 0c	 mov	 ecx, DWORD PTR _ppQuestInstance$[ebp]
  00024	89 01		 mov	 DWORD PTR [ecx], eax

; 129  : 
; 130  : 	return true;

  00026	b0 01		 mov	 al, 1

; 131  : }

  00028	5d		 pop	 ebp
  00029	c2 08 00	 ret	 8
?__GetQuestInstancePtr@CPythonQuest@@IAE_NKPAPAUSQuestInstance@1@@Z ENDP ; CPythonQuest::__GetQuestInstancePtr
_TEXT	ENDS
; Function compile flags: /Ogtp
; File D:\_m2work\Server Client TMP4\ClientVS22\source\UserInterface\PythonQuest.cpp
;	COMDAT ?__Initialize@CPythonQuest@@IAEXXZ
_TEXT	SEGMENT
?__Initialize@CPythonQuest@@IAEXXZ PROC			; CPythonQuest::__Initialize, COMDAT
; _this$dead$ = ecx

; 135  : /*
; 136  : #ifdef _DEBUG
; 137  : 	for (int i = 0; i < 7; ++i)
; 138  : 	{
; 139  : 		SQuestInstance test;
; 140  : 		test.dwIndex = i;
; 141  : 		test.strIconFileName = "";
; 142  : 		test.strTitle = _getf("test%d", i);
; 143  : 		test.strClockName = " ";
; 144  : 		test.strCounterName = " ";
; 145  : 		test.iClockValue = 1000;
; 146  : 		test.iCounterValue = 1000;
; 147  : 		test.iStartTime = 0;
; 148  : 		RegisterQuestInstance(test);
; 149  : 	}
; 150  : #endif
; 151  : */
; 152  : }

  00000	c2 00 00	 ret	 0
?__Initialize@CPythonQuest@@IAEXXZ ENDP			; CPythonQuest::__Initialize
_TEXT	ENDS
; Function compile flags: /Ogtp
; File D:\_m2work\Server Client TMP4\ClientVS22\source\UserInterface\PythonQuest.cpp
; File C:\Program Files\Microsoft Visual Studio\2022\Community\VC\Tools\MSVC\14.44.35207\include\vector
; File D:\_m2work\Server Client TMP4\ClientVS22\source\UserInterface\PythonQuest.cpp
;	COMDAT ?Clear@CPythonQuest@@QAEXXZ
_TEXT	SEGMENT
?Clear@CPythonQuest@@QAEXXZ PROC			; CPythonQuest::Clear, COMDAT
; _this$ = ecx

; 155  : {

  00000	56		 push	 esi
  00001	8b f1		 mov	 esi, ecx
; File C:\Program Files\Microsoft Visual Studio\2022\Community\VC\Tools\MSVC\14.44.35207\include\vector

; 1812 :         if (_Myfirst == _Mylast) { // already empty, nothing to do

  00003	8b 4e 04	 mov	 ecx, DWORD PTR [esi+4]
  00006	8b 56 08	 mov	 edx, DWORD PTR [esi+8]
  00009	3b ca		 cmp	 ecx, edx
  0000b	74 0f		 je	 SHORT $LN3@Clear

; 1813 :             // This is an optimization for debug mode: we can avoid taking the debug lock to invalidate iterators.
; 1814 :             // Note that when clearing an empty vector, this will preserve past-the-end iterators, which is allowed by
; 1815 :             // N4950 [sequence.reqmts]/54 "a.clear() [...] may invalidate the past-the-end iterator".
; 1816 :             return;
; 1817 :         }
; 1818 : 
; 1819 :         _My_data._Orphan_all();
; 1820 :         _Destroy_range(_Myfirst, _Mylast, _Getal());

  0000d	51		 push	 ecx
  0000e	e8 00 00 00 00	 call	 ??$_Destroy_range@V?$allocator@USQuestInstance@CPythonQuest@@@std@@@std@@YAXPAUSQuestInstance@CPythonQuest@@QAU12@AAV?$allocator@USQuestInstance@CPythonQuest@@@0@@Z ; std::_Destroy_range<std::allocator<CPythonQuest::SQuestInstance> >

; 1821 :         _ASAN_VECTOR_MODIFY(static_cast<difference_type>(_Myfirst - _Mylast)); // negative when destroying elements
; 1822 :         _Mylast = _Myfirst;

  00013	8b 46 04	 mov	 eax, DWORD PTR [esi+4]
  00016	83 c4 04	 add	 esp, 4
  00019	89 46 08	 mov	 DWORD PTR [esi+8], eax
$LN3@Clear:
  0001c	5e		 pop	 esi
; File D:\_m2work\Server Client TMP4\ClientVS22\source\UserInterface\PythonQuest.cpp

; 157  : }

  0001d	c3		 ret	 0
?Clear@CPythonQuest@@QAEXXZ ENDP			; CPythonQuest::Clear
_TEXT	ENDS
; Function compile flags: /Ogtp
;	COMDAT ??_GCPythonQuest@@UAEPAXI@Z
_TEXT	SEGMENT
___flags$ = 8						; size = 4
??_GCPythonQuest@@UAEPAXI@Z PROC			; CPythonQuest::`scalar deleting destructor', COMDAT
; _this$ = ecx
  00000	55		 push	 ebp
  00001	8b ec		 mov	 ebp, esp
  00003	56		 push	 esi
  00004	8b f1		 mov	 esi, ecx
  00006	e8 00 00 00 00	 call	 ??1CPythonQuest@@UAE@XZ	; CPythonQuest::~CPythonQuest
  0000b	f6 45 08 01	 test	 BYTE PTR ___flags$[ebp], 1
  0000f	74 0b		 je	 SHORT $LN5@scalar
  00011	6a 10		 push	 16			; 00000010H
  00013	56		 push	 esi
  00014	e8 00 00 00 00	 call	 ??3@YAXPAXI@Z		; operator delete
  00019	83 c4 08	 add	 esp, 8
$LN5@scalar:
  0001c	8b c6		 mov	 eax, esi
  0001e	5e		 pop	 esi
  0001f	5d		 pop	 ebp
  00020	c2 04 00	 ret	 4
??_GCPythonQuest@@UAEPAXI@Z ENDP			; CPythonQuest::`scalar deleting destructor'
_TEXT	ENDS
; Function compile flags: /Ogtp
; File D:\_m2work\Server Client TMP4\ClientVS22\source\UserInterface\PythonQuest.cpp
;	COMDAT ?questGetQuestCount@@YAPAU_object@@PAU1@0@Z
_TEXT	SEGMENT
_poSelf$ = 8						; size = 4
_poArgs$ = 12						; size = 4
?questGetQuestCount@@YAPAU_object@@PAU1@0@Z PROC	; questGetQuestCount, COMDAT

; 175  : 	return Py_BuildValue("i", CPythonQuest::Instance().GetQuestCount());

  00000	8b 0d 00 00 00
	00		 mov	 ecx, DWORD PTR ?ms_singleton@?$CSingleton@VCPythonQuest@@@@0PAVCPythonQuest@@A ; CSingleton<CPythonQuest>::ms_singleton
  00006	e8 00 00 00 00	 call	 ?GetQuestCount@CPythonQuest@@QAEHXZ ; CPythonQuest::GetQuestCount
  0000b	50		 push	 eax
  0000c	68 00 00 00 00	 push	 OFFSET ??_C@_01KBJDNOO@i@
  00011	ff 15 00 00 00
	00		 call	 DWORD PTR __imp__Py_BuildValue
  00017	83 c4 08	 add	 esp, 8

; 176  : }

  0001a	c3		 ret	 0
?questGetQuestCount@@YAPAU_object@@PAU1@0@Z ENDP	; questGetQuestCount
_TEXT	ENDS
; Function compile flags: /Ogtp
; File D:\_m2work\Server Client TMP4\ClientVS22\source\UserInterface\PythonQuest.cpp
; File C:\Program Files\Microsoft Visual Studio\2022\Community\VC\Tools\MSVC\14.44.35207\include\xstring
; File D:\_m2work\Server Client TMP4\ClientVS22\source\UserInterface\PythonQuest.cpp
; File C:\Program Files\Microsoft Visual Studio\2022\Community\VC\Tools\MSVC\14.44.35207\include\xstring
; File D:\_m2work\Server Client TMP4\ClientVS22\source\UserInterface\PythonQuest.cpp
; File C:\Program Files\Microsoft Visual Studio\2022\Community\VC\Tools\MSVC\14.44.35207\include\xstring
; File C:\Program Files\Microsoft Visual Studio\2022\Community\VC\Tools\MSVC\14.44.35207\include\xmemory
; File D:\_m2work\Server Client TMP4\ClientVS22\source\UserInterface\PythonQuest.cpp
; File C:\Program Files\Microsoft Visual Studio\2022\Community\VC\Tools\MSVC\14.44.35207\include\xmemory
; File C:\Program Files\Microsoft Visual Studio\2022\Community\VC\Tools\MSVC\14.44.35207\include\__msvc_string_view.hpp
; File C:\Program Files\Microsoft Visual Studio\2022\Community\VC\Tools\MSVC\14.44.35207\include\xstring
; File C:\Program Files\Microsoft Visual Studio\2022\Community\VC\Tools\MSVC\14.44.35207\include\xmemory
; File C:\Program Files\Microsoft Visual Studio\2022\Community\VC\Tools\MSVC\14.44.35207\include\__msvc_string_view.hpp
; File C:\Program Files\Microsoft Visual Studio\2022\Community\VC\Tools\MSVC\14.44.35207\include\xstring
; File C:\Program Files\Microsoft Visual Studio\2022\Community\VC\Tools\MSVC\14.44.35207\include\__msvc_string_view.hpp
; File C:\Program Files\Microsoft Visual Studio\2022\Community\VC\Tools\MSVC\14.44.35207\include\xstring
; File D:\_m2work\Server Client TMP4\ClientVS22\source\UserInterface\PythonQuest.cpp
; File C:\Program Files\Microsoft Visual Studio\2022\Community\VC\Tools\MSVC\14.44.35207\include\xstring
; File D:\_m2work\Server Client TMP4\ClientVS22\source\UserInterface\PythonQuest.cpp
; File C:\Program Files\Microsoft Visual Studio\2022\Community\VC\Tools\MSVC\14.44.35207\include\xstring
; File D:\_m2work\Server Client TMP4\ClientVS22\source\UserInterface\PythonQuest.cpp
; File C:\Program Files\Microsoft Visual Studio\2022\Community\VC\Tools\MSVC\14.44.35207\include\xstring
; File C:\Program Files\Microsoft Visual Studio\2022\Community\VC\Tools\MSVC\14.44.35207\include\xmemory
; File C:\Program Files\Microsoft Visual Studio\2022\Community\VC\Tools\MSVC\14.44.35207\include\xstring
; File C:\Program Files\Microsoft Visual Studio\2022\Community\VC\Tools\MSVC\14.44.35207\include\xmemory
; File C:\Program Files\Microsoft Visual Studio\2022\Community\VC\Tools\MSVC\14.44.35207\include\xstring
; File D:\_m2work\Server Client TMP4\ClientVS22\source\UserInterface\PythonQuest.cpp
; File C:\Program Files\Microsoft Visual Studio\2022\Community\VC\Tools\MSVC\14.44.35207\include\xmemory
; File C:\Program Files\Microsoft Visual Studio\2022\Community\VC\Tools\MSVC\14.44.35207\include\xstring
; File C:\Program Files\Microsoft Visual Studio\2022\Community\VC\Tools\MSVC\14.44.35207\include\xmemory
; File C:\Program Files\Microsoft Visual Studio\2022\Community\VC\Tools\MSVC\14.44.35207\include\__msvc_string_view.hpp
; File C:\Program Files\Microsoft Visual Studio\2022\Community\VC\Tools\MSVC\14.44.35207\include\xstring
; File C:\Program Files\Microsoft Visual Studio\2022\Community\VC\Tools\MSVC\14.44.35207\include\xmemory
; File C:\Program Files\Microsoft Visual Studio\2022\Community\VC\Tools\MSVC\14.44.35207\include\xstring
; File C:\Program Files\Microsoft Visual Studio\2022\Community\VC\Tools\MSVC\14.44.35207\include\__msvc_string_view.hpp
; File C:\Program Files\Microsoft Visual Studio\2022\Community\VC\Tools\MSVC\14.44.35207\include\xstring
; File D:\_m2work\Server Client TMP4\ClientVS22\source\UserInterface\PythonQuest.cpp
; File C:\Program Files\Microsoft Visual Studio\2022\Community\VC\Tools\MSVC\14.44.35207\include\xstring
; File D:\_m2work\Server Client TMP4\ClientVS22\source\UserInterface\PythonQuest.cpp
; File C:\Program Files\Microsoft Visual Studio\2022\Community\VC\Tools\MSVC\14.44.35207\include\xstring
; File D:\_m2work\Server Client TMP4\ClientVS22\source\UserInterface\PythonQuest.cpp
; File C:\Program Files\Microsoft Visual Studio\2022\Community\VC\Tools\MSVC\14.44.35207\include\xstring
; File D:\_m2work\Server Client TMP4\ClientVS22\source\UserInterface\PythonQuest.cpp
; File C:\Program Files\Microsoft Visual Studio\2022\Community\VC\Tools\MSVC\14.44.35207\include\xstring
; File C:\Program Files\Microsoft Visual Studio\2022\Community\VC\Tools\MSVC\14.44.35207\include\xmemory
; File C:\Program Files\Microsoft Visual Studio\2022\Community\VC\Tools\MSVC\14.44.35207\include\xstring
; File C:\Program Files\Microsoft Visual Studio\2022\Community\VC\Tools\MSVC\14.44.35207\include\xmemory
; File C:\Program Files\Microsoft Visual Studio\2022\Community\VC\Tools\MSVC\14.44.35207\include\xstring
; File D:\_m2work\Server Client TMP4\ClientVS22\source\UserInterface\PythonQuest.cpp
; File C:\Program Files\Microsoft Visual Studio\2022\Community\VC\Tools\MSVC\14.44.35207\include\xmemory
; File D:\_m2work\Server Client TMP4\ClientVS22\source\UserInterface\PythonQuest.cpp
;	COMDAT ?questGetQuestData@@YAPAU_object@@PAU1@0@Z
_TEXT	SEGMENT
_pQuestInstance$ = -76					; size = 4
_iIndex$ = -72						; size = 4
_strIconFileName$2 = -68				; size = 24
_strIconFileName$3 = -40				; size = 24
__$ArrayPad$ = -16					; size = 4
__$EHRec$ = -12						; size = 12
_poSelf$ = 8						; size = 4
_poArgs$ = 12						; size = 4
?questGetQuestData@@YAPAU_object@@PAU1@0@Z PROC		; questGetQuestData, COMDAT

; 179  : {

  00000	55		 push	 ebp
  00001	8b ec		 mov	 ebp, esp
  00003	6a ff		 push	 -1
  00005	68 00 00 00 00	 push	 __ehhandler$?questGetQuestData@@YAPAU_object@@PAU1@0@Z
  0000a	64 a1 00 00 00
	00		 mov	 eax, DWORD PTR fs:0
  00010	50		 push	 eax
  00011	83 ec 40	 sub	 esp, 64			; 00000040H
  00014	a1 00 00 00 00	 mov	 eax, DWORD PTR ___security_cookie
  00019	33 c5		 xor	 eax, ebp
  0001b	89 45 f0	 mov	 DWORD PTR __$ArrayPad$[ebp], eax
  0001e	56		 push	 esi
  0001f	57		 push	 edi
  00020	50		 push	 eax
  00021	8d 45 f4	 lea	 eax, DWORD PTR __$EHRec$[ebp]
  00024	64 a3 00 00 00
	00		 mov	 DWORD PTR fs:0, eax
  0002a	8b 45 0c	 mov	 eax, DWORD PTR _poArgs$[ebp]

; 180  : 	int iIndex;
; 181  : 	if (!PyTuple_GetInteger(poArgs, 0, &iIndex))

  0002d	8d 4d b8	 lea	 ecx, DWORD PTR _iIndex$[ebp]
  00030	51		 push	 ecx
  00031	6a 00		 push	 0
  00033	50		 push	 eax
  00034	e8 00 00 00 00	 call	 ?PyTuple_GetInteger@@YA_NPAU_object@@HPAH@Z ; PyTuple_GetInteger
  00039	83 c4 0c	 add	 esp, 12			; 0000000cH
  0003c	84 c0		 test	 al, al
  0003e	75 0a		 jne	 SHORT $LN2@questGetQu

; 182  : 		return Py_BadArgument();

  00040	e8 00 00 00 00	 call	 ?Py_BadArgument@@YAPAU_object@@XZ ; Py_BadArgument
  00045	e9 02 02 00 00	 jmp	 $LN1@questGetQu
$LN2@questGetQu:

; 183  : 
; 184  : 	CPythonQuest::SQuestInstance * pQuestInstance;
; 185  : 	if (!CPythonQuest::Instance().GetQuestInstancePtr(iIndex, &pQuestInstance))

  0004a	8b 0d 00 00 00
	00		 mov	 ecx, DWORD PTR ?ms_singleton@?$CSingleton@VCPythonQuest@@@@0PAVCPythonQuest@@A ; CSingleton<CPythonQuest>::ms_singleton
  00050	8d 45 b4	 lea	 eax, DWORD PTR _pQuestInstance$[ebp]
  00053	50		 push	 eax
  00054	ff 75 b8	 push	 DWORD PTR _iIndex$[ebp]
  00057	e8 00 00 00 00	 call	 ?GetQuestInstancePtr@CPythonQuest@@QAE_NKPAPAUSQuestInstance@1@@Z ; CPythonQuest::GetQuestInstancePtr
  0005c	84 c0		 test	 al, al
  0005e	75 15		 jne	 SHORT $LN3@questGetQu

; 186  : 		return Py_BuildException("Failed to find quest by index %d", iIndex);

  00060	ff 75 b8	 push	 DWORD PTR _iIndex$[ebp]
  00063	68 00 00 00 00	 push	 OFFSET ??_C@_0CB@KNIDBLNN@Failed?5to?5find?5quest?5by?5index?5?$CF@
  00068	e8 00 00 00 00	 call	 ?Py_BuildException@@YAPAU_object@@PBDZZ ; Py_BuildException
  0006d	83 c4 08	 add	 esp, 8
  00070	e9 d7 01 00 00	 jmp	 $LN1@questGetQu
$LN3@questGetQu:
; File C:\Program Files\Microsoft Visual Studio\2022\Community\VC\Tools\MSVC\14.44.35207\include\xstring

; 2494 :         return _Mypair._Myval2._Mysize == 0;

  00075	8b 75 b4	 mov	 esi, DWORD PTR _pQuestInstance$[ebp]
; File D:\_m2work\Server Client TMP4\ClientVS22\source\UserInterface\PythonQuest.cpp

; 189  : 	if (!pQuestInstance->strIconFileName.empty())

  00078	0f 57 c0	 xorps	 xmm0, xmm0
; File C:\Program Files\Microsoft Visual Studio\2022\Community\VC\Tools\MSVC\14.44.35207\include\xstring

; 2494 :         return _Mypair._Myval2._Mysize == 0;

  0007b	83 7e 14 00	 cmp	 DWORD PTR [esi+20], 0
; File D:\_m2work\Server Client TMP4\ClientVS22\source\UserInterface\PythonQuest.cpp

; 189  : 	if (!pQuestInstance->strIconFileName.empty())

  0007f	0f 84 ea 00 00
	00		 je	 $LN4@questGetQu
; File C:\Program Files\Microsoft Visual Studio\2022\Community\VC\Tools\MSVC\14.44.35207\include\xstring

; 493  :         _CONSTEXPR20 _Bxty() noexcept : _Buf() {} // user-provided, for fancy pointers

  00085	0f 11 45 d8	 movups	 XMMWORD PTR _strIconFileName$3[ebp], xmm0

; 860  :         _My_data._Mysize = 0;

  00089	c7 45 e8 00 00
	00 00		 mov	 DWORD PTR _strIconFileName$3[ebp+16], 0

; 861  :         _My_data._Myres  = _Small_string_capacity;

  00090	c7 45 ec 0f 00
	00 00		 mov	 DWORD PTR _strIconFileName$3[ebp+20], 15 ; 0000000fH

; 862  :         _My_data._Activate_SSO_buffer();
; 863  : 
; 864  :         // the _Traits::assign is last so the codegen doesn't think the char write can alias this
; 865  :         _Traits::assign(_My_data._Bx._Buf[0], _Elem());

  00097	c6 45 d8 00	 mov	 BYTE PTR _strIconFileName$3[ebp], 0
; File C:\Program Files\Microsoft Visual Studio\2022\Community\VC\Tools\MSVC\14.44.35207\include\xmemory

; 136  :         return ::operator new(_Bytes);

  0009b	6a 30		 push	 48			; 00000030H
; File D:\_m2work\Server Client TMP4\ClientVS22\source\UserInterface\PythonQuest.cpp

; 191  : 		std::string strIconFileName;

  0009d	c7 45 fc 00 00
	00 00		 mov	 DWORD PTR __$EHRec$[ebp+8], 0
; File C:\Program Files\Microsoft Visual Studio\2022\Community\VC\Tools\MSVC\14.44.35207\include\xmemory

; 136  :         return ::operator new(_Bytes);

  000a4	e8 00 00 00 00	 call	 ??2@YAPAXI@Z		; operator new
; File C:\Program Files\Microsoft Visual Studio\2022\Community\VC\Tools\MSVC\14.44.35207\include\__msvc_string_view.hpp

; 121  :         _CSTD memcpy(_First1, _First2, _Count * sizeof(_Elem));

  000a9	0f 10 05 00 00
	00 00		 movups	 xmm0, XMMWORD PTR ??_C@_0CG@FJJGJNND@d?3?1ymir?5work?1ui?1game?1quest?1ques@
; File C:\Program Files\Microsoft Visual Studio\2022\Community\VC\Tools\MSVC\14.44.35207\include\xstring

; 3009 :         _Mypair._Myval2._Mysize = _New_size;

  000b0	c7 45 e8 25 00
	00 00		 mov	 DWORD PTR _strIconFileName$3[ebp+16], 37 ; 00000025H

; 2356 :         return _Mypair._Myval2._Myptr();

  000b7	8d 56 04	 lea	 edx, DWORD PTR [esi+4]

; 3010 :         _Mypair._Myval2._Myres  = _New_capacity;

  000ba	c7 45 ec 2f 00
	00 00		 mov	 DWORD PTR _strIconFileName$3[ebp+20], 47 ; 0000002fH
; File C:\Program Files\Microsoft Visual Studio\2022\Community\VC\Tools\MSVC\14.44.35207\include\xmemory

; 136  :         return ::operator new(_Bytes);

  000c1	83 c4 04	 add	 esp, 4
; File C:\Program Files\Microsoft Visual Studio\2022\Community\VC\Tools\MSVC\14.44.35207\include\__msvc_string_view.hpp

; 121  :         _CSTD memcpy(_First1, _First2, _Count * sizeof(_Elem));

  000c4	0f 11 00	 movups	 XMMWORD PTR [eax], xmm0
  000c7	0f 10 05 10 00
	00 00		 movups	 xmm0, XMMWORD PTR ??_C@_0CG@FJJGJNND@d?3?1ymir?5work?1ui?1game?1quest?1ques@+16
  000ce	0f 11 40 10	 movups	 XMMWORD PTR [eax+16], xmm0
  000d2	8b 0d 20 00 00
	00		 mov	 ecx, DWORD PTR ??_C@_0CG@FJJGJNND@d?3?1ymir?5work?1ui?1game?1quest?1ques@+32
  000d8	89 48 20	 mov	 DWORD PTR [eax+32], ecx
  000db	8a 0d 24 00 00
	00		 mov	 cl, BYTE PTR ??_C@_0CG@FJJGJNND@d?3?1ymir?5work?1ui?1game?1quest?1ques@+36
  000e1	88 48 24	 mov	 BYTE PTR [eax+36], cl
; File C:\Program Files\Microsoft Visual Studio\2022\Community\VC\Tools\MSVC\14.44.35207\include\xstring

; 1632 :                 _Traits::assign(_New_ptr[_Count], _Elem());

  000e4	c6 40 25 00	 mov	 BYTE PTR [eax+37], 0

; 3016 :             _Construct_in_place(_Mypair._Myval2._Bx._Ptr, _New_ptr);

  000e8	89 45 d8	 mov	 DWORD PTR _strIconFileName$3[ebp], eax

; 453  :         return _Myres > _Small_string_capacity;

  000eb	83 7a 14 0f	 cmp	 DWORD PTR [edx+20], 15	; 0000000fH

; 445  :         if (_Large_mode_engaged()) {

  000ef	76 02		 jbe	 SHORT $LN159@questGetQu

; 446  :             _Result = _Unfancy(_Bx._Ptr);

  000f1	8b 12		 mov	 edx, DWORD PTR [edx]
$LN159@questGetQu:
; File C:\Program Files\Microsoft Visual Studio\2022\Community\VC\Tools\MSVC\14.44.35207\include\__msvc_string_view.hpp

; 456  :             return __builtin_strlen(_First);

  000f3	8b ca		 mov	 ecx, edx
  000f5	8d 79 01	 lea	 edi, DWORD PTR [ecx+1]
$LL376@questGetQu:
  000f8	8a 01		 mov	 al, BYTE PTR [ecx]
  000fa	41		 inc	 ecx
  000fb	84 c0		 test	 al, al
  000fd	75 f9		 jne	 SHORT $LL376@questGetQu
  000ff	2b cf		 sub	 ecx, edi
; File C:\Program Files\Microsoft Visual Studio\2022\Community\VC\Tools\MSVC\14.44.35207\include\xstring

; 1534 :         return append(_Ptr, _Convert_size<size_type>(_Traits::length(_Ptr)));

  00101	51		 push	 ecx
  00102	52		 push	 edx
  00103	8d 4d d8	 lea	 ecx, DWORD PTR _strIconFileName$3[ebp]
  00106	e8 00 00 00 00	 call	 ?append@?$basic_string@DU?$char_traits@D@std@@V?$allocator@D@2@@std@@QAEAAV12@QBDI@Z ; std::basic_string<char,std::char_traits<char>,std::allocator<char> >::append

; 453  :         return _Myres > _Small_string_capacity;

  0010b	83 7d ec 0f	 cmp	 DWORD PTR _strIconFileName$3[ebp+20], 15 ; 0000000fH

; 444  :         const value_type* _Result = _Bx._Buf;

  0010f	8d 45 d8	 lea	 eax, DWORD PTR _strIconFileName$3[ebp]
; File D:\_m2work\Server Client TMP4\ClientVS22\source\UserInterface\PythonQuest.cpp

; 194  : 		pImage = (CGraphicImage *)CResourceManager::Instance().GetResourcePointer(strIconFileName.c_str());

  00112	8b 0d 00 00 00
	00		 mov	 ecx, DWORD PTR ?ms_singleton@?$CSingleton@VCResourceManager@@@@0PAVCResourceManager@@A ; CSingleton<CResourceManager>::ms_singleton
; File C:\Program Files\Microsoft Visual Studio\2022\Community\VC\Tools\MSVC\14.44.35207\include\xstring

; 445  :         if (_Large_mode_engaged()) {

  00118	0f 47 45 d8	 cmova	 eax, DWORD PTR _strIconFileName$3[ebp]
; File D:\_m2work\Server Client TMP4\ClientVS22\source\UserInterface\PythonQuest.cpp

; 194  : 		pImage = (CGraphicImage *)CResourceManager::Instance().GetResourcePointer(strIconFileName.c_str());

  0011c	50		 push	 eax
  0011d	e8 00 00 00 00	 call	 ?GetResourcePointer@CResourceManager@@QAEPAVCResource@@PBD@Z ; CResourceManager::GetResourcePointer
; File C:\Program Files\Microsoft Visual Studio\2022\Community\VC\Tools\MSVC\14.44.35207\include\xstring

; 453  :         return _Myres > _Small_string_capacity;

  00122	8b 4d ec	 mov	 ecx, DWORD PTR _strIconFileName$3[ebp+20]
; File D:\_m2work\Server Client TMP4\ClientVS22\source\UserInterface\PythonQuest.cpp

; 194  : 		pImage = (CGraphicImage *)CResourceManager::Instance().GetResourcePointer(strIconFileName.c_str());

  00125	8b f8		 mov	 edi, eax
; File C:\Program Files\Microsoft Visual Studio\2022\Community\VC\Tools\MSVC\14.44.35207\include\xstring

; 453  :         return _Myres > _Small_string_capacity;

  00127	83 f9 0f	 cmp	 ecx, 15			; 0000000fH

; 3083 :         if (_My_data._Large_mode_engaged()) {

  0012a	76 2c		 jbe	 SHORT $LN200@questGetQu
; File C:\Program Files\Microsoft Visual Studio\2022\Community\VC\Tools\MSVC\14.44.35207\include\xmemory

; 985  :         _STD _Deallocate<_New_alignof<_Ty>>(_Ptr, sizeof(_Ty) * _Count);

  0012c	8b 55 d8	 mov	 edx, DWORD PTR _strIconFileName$3[ebp]
; File C:\Program Files\Microsoft Visual Studio\2022\Community\VC\Tools\MSVC\14.44.35207\include\xstring

; 852  :         _Al.deallocate(_Old_ptr, _Capacity + 1); // +1 for null terminator

  0012f	41		 inc	 ecx
; File C:\Program Files\Microsoft Visual Studio\2022\Community\VC\Tools\MSVC\14.44.35207\include\xmemory

; 985  :         _STD _Deallocate<_New_alignof<_Ty>>(_Ptr, sizeof(_Ty) * _Count);

  00130	8b c2		 mov	 eax, edx

; 284  :         if (_Bytes >= _Big_allocation_threshold) {

  00132	81 f9 00 10 00
	00		 cmp	 ecx, 4096		; 00001000H
  00138	72 14		 jb	 SHORT $LN208@questGetQu

; 205  :     const uintptr_t _Ptr_container   = _Ptr_user[-1];

  0013a	8b 50 fc	 mov	 edx, DWORD PTR [eax-4]
  0013d	83 c1 23	 add	 ecx, 35			; 00000023H
  00140	2b c2		 sub	 eax, edx

; 219  :     _STL_VERIFY(_Back_shift >= _Min_back_shift && _Back_shift <= _Non_user_size, "invalid argument");

  00142	83 c0 fc	 add	 eax, -4			; fffffffcH
  00145	83 f8 1f	 cmp	 eax, 31			; 0000001fH
  00148	0f 87 19 01 00
	00		 ja	 $LN380@questGetQu
$LN208@questGetQu:

; 289  :         ::operator delete(_Ptr, _Bytes);

  0014e	51		 push	 ecx
  0014f	52		 push	 edx
  00150	e8 00 00 00 00	 call	 ??3@YAXPAXI@Z		; operator delete
  00155	83 c4 08	 add	 esp, 8
$LN200@questGetQu:
; File C:\Program Files\Microsoft Visual Studio\2022\Community\VC\Tools\MSVC\14.44.35207\include\xstring

; 3090 :         _My_data._Mysize = 0;

  00158	c7 45 e8 00 00
	00 00		 mov	 DWORD PTR _strIconFileName$3[ebp+16], 0

; 3091 :         _My_data._Myres  = _Small_string_capacity;

  0015f	c7 45 ec 0f 00
	00 00		 mov	 DWORD PTR _strIconFileName$3[ebp+20], 15 ; 0000000fH

; 3092 :         // the _Traits::assign is last so the codegen doesn't think the char write can alias this
; 3093 :         _Traits::assign(_My_data._Bx._Buf[0], _Elem());

  00166	c6 45 d8 00	 mov	 BYTE PTR _strIconFileName$3[ebp], 0
; File D:\_m2work\Server Client TMP4\ClientVS22\source\UserInterface\PythonQuest.cpp

; 195  : 	}

  0016a	e9 b3 00 00 00	 jmp	 $LN298@questGetQu
$LN4@questGetQu:
; File C:\Program Files\Microsoft Visual Studio\2022\Community\VC\Tools\MSVC\14.44.35207\include\xmemory

; 136  :         return ::operator new(_Bytes);

  0016f	6a 20		 push	 32			; 00000020H
; File C:\Program Files\Microsoft Visual Studio\2022\Community\VC\Tools\MSVC\14.44.35207\include\xstring

; 493  :         _CONSTEXPR20 _Bxty() noexcept : _Buf() {} // user-provided, for fancy pointers

  00171	0f 11 45 bc	 movups	 XMMWORD PTR _strIconFileName$2[ebp], xmm0

; 517  :     size_type _Mysize = 0; // current length of string (size)

  00175	c7 45 cc 00 00
	00 00		 mov	 DWORD PTR _strIconFileName$2[ebp+16], 0

; 518  :     size_type _Myres  = 0; // current storage reserved for string (capacity)

  0017c	c7 45 d0 00 00
	00 00		 mov	 DWORD PTR _strIconFileName$2[ebp+20], 0
; File C:\Program Files\Microsoft Visual Studio\2022\Community\VC\Tools\MSVC\14.44.35207\include\xmemory

; 136  :         return ::operator new(_Bytes);

  00183	e8 00 00 00 00	 call	 ??2@YAPAXI@Z		; operator new
; File C:\Program Files\Microsoft Visual Studio\2022\Community\VC\Tools\MSVC\14.44.35207\include\__msvc_string_view.hpp

; 121  :         _CSTD memcpy(_First1, _First2, _Count * sizeof(_Elem));

  00188	0f 10 05 00 00
	00 00		 movups	 xmm0, XMMWORD PTR ??_C@_0BN@GHGBHNOC@season1?1icon?1scroll_open?4tga@
; File C:\Program Files\Microsoft Visual Studio\2022\Community\VC\Tools\MSVC\14.44.35207\include\xstring

; 913  :         _Construct_in_place(_My_data._Bx._Ptr, _New_ptr);

  0018f	89 45 bc	 mov	 DWORD PTR _strIconFileName$2[ebp], eax
; File C:\Program Files\Microsoft Visual Studio\2022\Community\VC\Tools\MSVC\14.44.35207\include\xmemory

; 136  :         return ::operator new(_Bytes);

  00192	83 c4 04	 add	 esp, 4
; File C:\Program Files\Microsoft Visual Studio\2022\Community\VC\Tools\MSVC\14.44.35207\include\xstring

; 915  :         _My_data._Mysize = _Count;

  00195	c7 45 cc 1c 00
	00 00		 mov	 DWORD PTR _strIconFileName$2[ebp+16], 28 ; 0000001cH

; 916  :         _My_data._Myres  = _New_capacity;

  0019c	c7 45 d0 1f 00
	00 00		 mov	 DWORD PTR _strIconFileName$2[ebp+20], 31 ; 0000001fH
; File C:\Program Files\Microsoft Visual Studio\2022\Community\VC\Tools\MSVC\14.44.35207\include\__msvc_string_view.hpp

; 121  :         _CSTD memcpy(_First1, _First2, _Count * sizeof(_Elem));

  001a3	0f 11 00	 movups	 XMMWORD PTR [eax], xmm0
  001a6	f3 0f 7e 05 10
	00 00 00	 movq	 xmm0, QWORD PTR ??_C@_0BN@GHGBHNOC@season1?1icon?1scroll_open?4tga@+16
  001ae	66 0f d6 40 10	 movq	 QWORD PTR [eax+16], xmm0
  001b3	8b 0d 18 00 00
	00		 mov	 ecx, DWORD PTR ??_C@_0BN@GHGBHNOC@season1?1icon?1scroll_open?4tga@+24
  001b9	89 48 18	 mov	 DWORD PTR [eax+24], ecx
; File C:\Program Files\Microsoft Visual Studio\2022\Community\VC\Tools\MSVC\14.44.35207\include\xstring

; 922  :             _Traits::assign(_Unfancy(_New_ptr)[_Count], _Elem());

  001bc	c6 40 1c 00	 mov	 BYTE PTR [eax+28], 0
; File D:\_m2work\Server Client TMP4\ClientVS22\source\UserInterface\PythonQuest.cpp

; 200  : 			std::string strIconFileName = "season1/icon/scroll_open.tga";

  001c0	c7 45 fc 01 00
	00 00		 mov	 DWORD PTR __$EHRec$[ebp+8], 1
; File C:\Program Files\Microsoft Visual Studio\2022\Community\VC\Tools\MSVC\14.44.35207\include\xstring

; 444  :         const value_type* _Result = _Bx._Buf;

  001c7	8d 45 bc	 lea	 eax, DWORD PTR _strIconFileName$2[ebp]

; 453  :         return _Myres > _Small_string_capacity;

  001ca	83 7d d0 0f	 cmp	 DWORD PTR _strIconFileName$2[ebp+20], 15 ; 0000000fH
; File D:\_m2work\Server Client TMP4\ClientVS22\source\UserInterface\PythonQuest.cpp

; 201  : 			pImage = (CGraphicImage *)CResourceManager::Instance().GetResourcePointer(strIconFileName.c_str());

  001ce	8b 0d 00 00 00
	00		 mov	 ecx, DWORD PTR ?ms_singleton@?$CSingleton@VCResourceManager@@@@0PAVCResourceManager@@A ; CSingleton<CResourceManager>::ms_singleton
; File C:\Program Files\Microsoft Visual Studio\2022\Community\VC\Tools\MSVC\14.44.35207\include\xstring

; 445  :         if (_Large_mode_engaged()) {

  001d4	0f 47 45 bc	 cmova	 eax, DWORD PTR _strIconFileName$2[ebp]
; File D:\_m2work\Server Client TMP4\ClientVS22\source\UserInterface\PythonQuest.cpp

; 201  : 			pImage = (CGraphicImage *)CResourceManager::Instance().GetResourcePointer(strIconFileName.c_str());

  001d8	50		 push	 eax
  001d9	e8 00 00 00 00	 call	 ?GetResourcePointer@CResourceManager@@QAEPAVCResource@@PBD@Z ; CResourceManager::GetResourcePointer
; File C:\Program Files\Microsoft Visual Studio\2022\Community\VC\Tools\MSVC\14.44.35207\include\xstring

; 453  :         return _Myres > _Small_string_capacity;

  001de	8b 4d d0	 mov	 ecx, DWORD PTR _strIconFileName$2[ebp+20]
; File D:\_m2work\Server Client TMP4\ClientVS22\source\UserInterface\PythonQuest.cpp

; 201  : 			pImage = (CGraphicImage *)CResourceManager::Instance().GetResourcePointer(strIconFileName.c_str());

  001e1	8b f8		 mov	 edi, eax
; File C:\Program Files\Microsoft Visual Studio\2022\Community\VC\Tools\MSVC\14.44.35207\include\xstring

; 453  :         return _Myres > _Small_string_capacity;

  001e3	83 f9 0f	 cmp	 ecx, 15			; 0000000fH

; 3083 :         if (_My_data._Large_mode_engaged()) {

  001e6	76 28		 jbe	 SHORT $LN309@questGetQu
; File C:\Program Files\Microsoft Visual Studio\2022\Community\VC\Tools\MSVC\14.44.35207\include\xmemory

; 985  :         _STD _Deallocate<_New_alignof<_Ty>>(_Ptr, sizeof(_Ty) * _Count);

  001e8	8b 55 bc	 mov	 edx, DWORD PTR _strIconFileName$2[ebp]
; File C:\Program Files\Microsoft Visual Studio\2022\Community\VC\Tools\MSVC\14.44.35207\include\xstring

; 852  :         _Al.deallocate(_Old_ptr, _Capacity + 1); // +1 for null terminator

  001eb	41		 inc	 ecx
; File C:\Program Files\Microsoft Visual Studio\2022\Community\VC\Tools\MSVC\14.44.35207\include\xmemory

; 985  :         _STD _Deallocate<_New_alignof<_Ty>>(_Ptr, sizeof(_Ty) * _Count);

  001ec	8b c2		 mov	 eax, edx

; 284  :         if (_Bytes >= _Big_allocation_threshold) {

  001ee	81 f9 00 10 00
	00		 cmp	 ecx, 4096		; 00001000H
  001f4	72 10		 jb	 SHORT $LN317@questGetQu

; 205  :     const uintptr_t _Ptr_container   = _Ptr_user[-1];

  001f6	8b 50 fc	 mov	 edx, DWORD PTR [eax-4]
  001f9	83 c1 23	 add	 ecx, 35			; 00000023H
  001fc	2b c2		 sub	 eax, edx

; 219  :     _STL_VERIFY(_Back_shift >= _Min_back_shift && _Back_shift <= _Non_user_size, "invalid argument");

  001fe	83 c0 fc	 add	 eax, -4			; fffffffcH
  00201	83 f8 1f	 cmp	 eax, 31			; 0000001fH
  00204	77 70		 ja	 SHORT $LN381@questGetQu
$LN317@questGetQu:

; 289  :         ::operator delete(_Ptr, _Bytes);

  00206	51		 push	 ecx
  00207	52		 push	 edx
  00208	e8 00 00 00 00	 call	 ??3@YAXPAXI@Z		; operator delete
  0020d	83 c4 08	 add	 esp, 8
$LN309@questGetQu:
; File C:\Program Files\Microsoft Visual Studio\2022\Community\VC\Tools\MSVC\14.44.35207\include\xstring

; 3090 :         _My_data._Mysize = 0;

  00210	c7 45 cc 00 00
	00 00		 mov	 DWORD PTR _strIconFileName$2[ebp+16], 0

; 3091 :         _My_data._Myres  = _Small_string_capacity;

  00217	c7 45 d0 0f 00
	00 00		 mov	 DWORD PTR _strIconFileName$2[ebp+20], 15 ; 0000000fH

; 3092 :         // the _Traits::assign is last so the codegen doesn't think the char write can alias this
; 3093 :         _Traits::assign(_My_data._Bx._Buf[0], _Elem());

  0021e	c6 45 bc 00	 mov	 BYTE PTR _strIconFileName$2[ebp], 0
$LN298@questGetQu:

; 453  :         return _Myres > _Small_string_capacity;

  00222	83 7e 60 0f	 cmp	 DWORD PTR [esi+96], 15	; 0000000fH

; 2356 :         return _Mypair._Myval2._Myptr();

  00226	8d 46 4c	 lea	 eax, DWORD PTR [esi+76]

; 445  :         if (_Large_mode_engaged()) {

  00229	76 02		 jbe	 SHORT $LN16@questGetQu

; 446  :             _Result = _Unfancy(_Bx._Ptr);

  0022b	8b 00		 mov	 eax, DWORD PTR [eax]
$LN16@questGetQu:

; 453  :         return _Myres > _Small_string_capacity;

  0022d	83 7e 30 0f	 cmp	 DWORD PTR [esi+48], 15	; 0000000fH

; 2356 :         return _Mypair._Myval2._Myptr();

  00231	8d 4e 1c	 lea	 ecx, DWORD PTR [esi+28]

; 445  :         if (_Large_mode_engaged()) {

  00234	76 02		 jbe	 SHORT $LN26@questGetQu

; 446  :             _Result = _Unfancy(_Bx._Ptr);

  00236	8b 09		 mov	 ecx, DWORD PTR [ecx]
$LN26@questGetQu:
; File D:\_m2work\Server Client TMP4\ClientVS22\source\UserInterface\PythonQuest.cpp

; 205  : 	return Py_BuildValue("sisi",	pQuestInstance->strTitle.c_str(),

  00238	ff 76 68	 push	 DWORD PTR [esi+104]
  0023b	50		 push	 eax
  0023c	57		 push	 edi
  0023d	51		 push	 ecx
  0023e	68 00 00 00 00	 push	 OFFSET ??_C@_04CDAJCMJD@sisi@
  00243	ff 15 00 00 00
	00		 call	 DWORD PTR __imp__Py_BuildValue
  00249	83 c4 14	 add	 esp, 20			; 00000014H
$LN1@questGetQu:

; 209  : }

  0024c	8b 4d f4	 mov	 ecx, DWORD PTR __$EHRec$[ebp]
  0024f	64 89 0d 00 00
	00 00		 mov	 DWORD PTR fs:0, ecx
  00256	59		 pop	 ecx
  00257	5f		 pop	 edi
  00258	5e		 pop	 esi
  00259	8b 4d f0	 mov	 ecx, DWORD PTR __$ArrayPad$[ebp]
  0025c	33 cd		 xor	 ecx, ebp
  0025e	e8 00 00 00 00	 call	 @__security_check_cookie@4
  00263	8b e5		 mov	 esp, ebp
  00265	5d		 pop	 ebp
  00266	c3		 ret	 0
$LN380@questGetQu:
; File C:\Program Files\Microsoft Visual Studio\2022\Community\VC\Tools\MSVC\14.44.35207\include\xmemory

; 219  :     _STL_VERIFY(_Back_shift >= _Min_back_shift && _Back_shift <= _Non_user_size, "invalid argument");

  00267	6a 00		 push	 0
  00269	6a 00		 push	 0
  0026b	6a 00		 push	 0
  0026d	6a 00		 push	 0
  0026f	6a 00		 push	 0
  00271	e8 00 00 00 00	 call	 __invoke_watson
$LN381@questGetQu:
  00276	6a 00		 push	 0
  00278	6a 00		 push	 0
  0027a	6a 00		 push	 0
  0027c	6a 00		 push	 0
  0027e	6a 00		 push	 0
  00280	e8 00 00 00 00	 call	 __invoke_watson
$LN378@questGetQu:
  00285	cc		 int	 3
_TEXT	ENDS
;	COMDAT text$x
text$x	SEGMENT
__unwindfunclet$?questGetQuestData@@YAPAU_object@@PAU1@0@Z$0:
  00000	8d 4d d8	 lea	 ecx, DWORD PTR _strIconFileName$3[ebp]
  00003	e9 00 00 00 00	 jmp	 ??1?$basic_string@DU?$char_traits@D@std@@V?$allocator@D@2@@std@@QAE@XZ ; std::basic_string<char,std::char_traits<char>,std::allocator<char> >::~basic_string<char,std::char_traits<char>,std::allocator<char> >
__unwindfunclet$?questGetQuestData@@YAPAU_object@@PAU1@0@Z$1:
  00008	8d 4d bc	 lea	 ecx, DWORD PTR _strIconFileName$2[ebp]
  0000b	e9 00 00 00 00	 jmp	 ??1?$basic_string@DU?$char_traits@D@std@@V?$allocator@D@2@@std@@QAE@XZ ; std::basic_string<char,std::char_traits<char>,std::allocator<char> >::~basic_string<char,std::char_traits<char>,std::allocator<char> >
  00010	cc		 int	 3
  00011	cc		 int	 3
  00012	cc		 int	 3
  00013	cc		 int	 3
  00014	cc		 int	 3
__ehhandler$?questGetQuestData@@YAPAU_object@@PAU1@0@Z:
  00015	90		 npad	 1
  00016	90		 npad	 1
  00017	8b 54 24 08	 mov	 edx, DWORD PTR [esp+8]
  0001b	8d 42 0c	 lea	 eax, DWORD PTR [edx+12]
  0001e	8b 4a b4	 mov	 ecx, DWORD PTR [edx-76]
  00021	33 c8		 xor	 ecx, eax
  00023	e8 00 00 00 00	 call	 @__security_check_cookie@4
  00028	8b 4a fc	 mov	 ecx, DWORD PTR [edx-4]
  0002b	33 c8		 xor	 ecx, eax
  0002d	e8 00 00 00 00	 call	 @__security_check_cookie@4
  00032	b8 00 00 00 00	 mov	 eax, OFFSET __ehfuncinfo$?questGetQuestData@@YAPAU_object@@PAU1@0@Z
  00037	e9 00 00 00 00	 jmp	 ___CxxFrameHandler3
text$x	ENDS
?questGetQuestData@@YAPAU_object@@PAU1@0@Z ENDP		; questGetQuestData
; Function compile flags: /Ogtp
; File D:\_m2work\Server Client TMP4\ClientVS22\source\UserInterface\PythonQuest.cpp
;	COMDAT ?questGetQuestIndex@@YAPAU_object@@PAU1@0@Z
_TEXT	SEGMENT
_pQuestInstance$ = -8					; size = 4
_iIndex$ = -4						; size = 4
_poSelf$ = 8						; size = 4
_poArgs$ = 12						; size = 4
?questGetQuestIndex@@YAPAU_object@@PAU1@0@Z PROC	; questGetQuestIndex, COMDAT

; 212  : {

  00000	55		 push	 ebp
  00001	8b ec		 mov	 ebp, esp
  00003	83 ec 08	 sub	 esp, 8

; 213  : 	int iIndex;
; 214  : 	if (!PyTuple_GetInteger(poArgs, 0, &iIndex))

  00006	8d 45 fc	 lea	 eax, DWORD PTR _iIndex$[ebp]
  00009	50		 push	 eax
  0000a	6a 00		 push	 0
  0000c	ff 75 0c	 push	 DWORD PTR _poArgs$[ebp]
  0000f	e8 00 00 00 00	 call	 ?PyTuple_GetInteger@@YA_NPAU_object@@HPAH@Z ; PyTuple_GetInteger
  00014	83 c4 0c	 add	 esp, 12			; 0000000cH
  00017	84 c0		 test	 al, al
  00019	75 09		 jne	 SHORT $LN2@questGetQu

; 215  : 		return Py_BadArgument();

  0001b	e8 00 00 00 00	 call	 ?Py_BadArgument@@YAPAU_object@@XZ ; Py_BadArgument

; 222  : }

  00020	8b e5		 mov	 esp, ebp
  00022	5d		 pop	 ebp
  00023	c3		 ret	 0
$LN2@questGetQu:

; 216  : 
; 217  : 	CPythonQuest::SQuestInstance * pQuestInstance;
; 218  : 	if (!CPythonQuest::Instance().GetQuestInstancePtr(iIndex, &pQuestInstance))

  00024	8b 0d 00 00 00
	00		 mov	 ecx, DWORD PTR ?ms_singleton@?$CSingleton@VCPythonQuest@@@@0PAVCPythonQuest@@A ; CSingleton<CPythonQuest>::ms_singleton
  0002a	8d 45 f8	 lea	 eax, DWORD PTR _pQuestInstance$[ebp]
  0002d	50		 push	 eax
  0002e	ff 75 fc	 push	 DWORD PTR _iIndex$[ebp]
  00031	e8 00 00 00 00	 call	 ?GetQuestInstancePtr@CPythonQuest@@QAE_NKPAPAUSQuestInstance@1@@Z ; CPythonQuest::GetQuestInstancePtr
  00036	84 c0		 test	 al, al
  00038	75 14		 jne	 SHORT $LN3@questGetQu

; 219  : 		return Py_BuildException("Failed to find quest by index %d", iIndex);

  0003a	ff 75 fc	 push	 DWORD PTR _iIndex$[ebp]
  0003d	68 00 00 00 00	 push	 OFFSET ??_C@_0CB@KNIDBLNN@Failed?5to?5find?5quest?5by?5index?5?$CF@
  00042	e8 00 00 00 00	 call	 ?Py_BuildException@@YAPAU_object@@PBDZZ ; Py_BuildException

; 222  : }

  00047	83 c4 08	 add	 esp, 8
  0004a	8b e5		 mov	 esp, ebp
  0004c	5d		 pop	 ebp
  0004d	c3		 ret	 0
$LN3@questGetQu:

; 220  : 
; 221  : 	return Py_BuildValue("i", pQuestInstance->dwIndex);

  0004e	8b 45 f8	 mov	 eax, DWORD PTR _pQuestInstance$[ebp]
  00051	ff 30		 push	 DWORD PTR [eax]
  00053	68 00 00 00 00	 push	 OFFSET ??_C@_01KBJDNOO@i@
  00058	ff 15 00 00 00
	00		 call	 DWORD PTR __imp__Py_BuildValue

; 222  : }

  0005e	83 c4 08	 add	 esp, 8
  00061	8b e5		 mov	 esp, ebp
  00063	5d		 pop	 ebp
  00064	c3		 ret	 0
?questGetQuestIndex@@YAPAU_object@@PAU1@0@Z ENDP	; questGetQuestIndex
_TEXT	ENDS
; Function compile flags: /Ogtp
; File D:\_m2work\Server Client TMP4\ClientVS22\source\UserInterface\PythonQuest.cpp
; File C:\Program Files\Microsoft Visual Studio\2022\Community\VC\Tools\MSVC\14.44.35207\include\xstring
; File D:\_m2work\Server Client TMP4\ClientVS22\source\UserInterface\PythonQuest.cpp
;	COMDAT ?questGetQuestLastTime@@YAPAU_object@@PAU1@0@Z
_TEXT	SEGMENT
_pQuestInstance$ = -8					; size = 4
tv177 = -8						; size = 4
_iIndex$ = -4						; size = 4
_poSelf$ = 8						; size = 4
_poArgs$ = 12						; size = 4
?questGetQuestLastTime@@YAPAU_object@@PAU1@0@Z PROC	; questGetQuestLastTime, COMDAT

; 225  : {

  00000	55		 push	 ebp
  00001	8b ec		 mov	 ebp, esp
  00003	83 ec 08	 sub	 esp, 8

; 226  : 	int iIndex;
; 227  : 	if (!PyTuple_GetInteger(poArgs, 0, &iIndex))

  00006	8d 45 fc	 lea	 eax, DWORD PTR _iIndex$[ebp]
  00009	50		 push	 eax
  0000a	6a 00		 push	 0
  0000c	ff 75 0c	 push	 DWORD PTR _poArgs$[ebp]
  0000f	e8 00 00 00 00	 call	 ?PyTuple_GetInteger@@YA_NPAU_object@@HPAH@Z ; PyTuple_GetInteger
  00014	83 c4 0c	 add	 esp, 12			; 0000000cH
  00017	84 c0		 test	 al, al
  00019	75 09		 jne	 SHORT $LN2@questGetQu

; 228  : 		return Py_BadArgument();

  0001b	e8 00 00 00 00	 call	 ?Py_BadArgument@@YAPAU_object@@XZ ; Py_BadArgument

; 248  : }

  00020	8b e5		 mov	 esp, ebp
  00022	5d		 pop	 ebp
  00023	c3		 ret	 0
$LN2@questGetQu:

; 229  : 
; 230  : 	CPythonQuest::SQuestInstance * pQuestInstance;
; 231  : 	if (!CPythonQuest::Instance().GetQuestInstancePtr(iIndex, &pQuestInstance))

  00024	8b 0d 00 00 00
	00		 mov	 ecx, DWORD PTR ?ms_singleton@?$CSingleton@VCPythonQuest@@@@0PAVCPythonQuest@@A ; CSingleton<CPythonQuest>::ms_singleton
  0002a	8d 45 f8	 lea	 eax, DWORD PTR _pQuestInstance$[ebp]
  0002d	50		 push	 eax
  0002e	ff 75 fc	 push	 DWORD PTR _iIndex$[ebp]
  00031	e8 00 00 00 00	 call	 ?GetQuestInstancePtr@CPythonQuest@@QAE_NKPAPAUSQuestInstance@1@@Z ; CPythonQuest::GetQuestInstancePtr
  00036	84 c0		 test	 al, al
  00038	75 14		 jne	 SHORT $LN3@questGetQu

; 232  : 		return Py_BuildException("Failed to find quest by index %d", iIndex);

  0003a	ff 75 fc	 push	 DWORD PTR _iIndex$[ebp]
  0003d	68 00 00 00 00	 push	 OFFSET ??_C@_0CB@KNIDBLNN@Failed?5to?5find?5quest?5by?5index?5?$CF@
  00042	e8 00 00 00 00	 call	 ?Py_BuildException@@YAPAU_object@@PBDZZ ; Py_BuildException
  00047	83 c4 08	 add	 esp, 8

; 248  : }

  0004a	8b e5		 mov	 esp, ebp
  0004c	5d		 pop	 ebp
  0004d	c3		 ret	 0
$LN3@questGetQu:
  0004e	56		 push	 esi

; 233  : 
; 234  : 	int iLastTime = 0;
; 235  : 
; 236  : 	if (pQuestInstance->iClockValue >= 0)

  0004f	8b 75 f8	 mov	 esi, DWORD PTR _pQuestInstance$[ebp]
  00052	33 c9		 xor	 ecx, ecx
  00054	39 4e 64	 cmp	 DWORD PTR [esi+100], ecx
  00057	7c 1b		 jl	 SHORT $LN4@questGetQu

; 237  : 	{
; 238  : 		iLastTime = (pQuestInstance->iStartTime + pQuestInstance->iClockValue) - int(CTimer::Instance().GetCurrentSecond());

  00059	8b 0d 00 00 00
	00		 mov	 ecx, DWORD PTR ?ms_singleton@?$CSingleton@VCTimer@@@@0PAVCTimer@@A ; CSingleton<CTimer>::ms_singleton
  0005f	e8 00 00 00 00	 call	 ?GetCurrentSecond@CTimer@@QAEMXZ ; CTimer::GetCurrentSecond
  00064	8b 4e 6c	 mov	 ecx, DWORD PTR [esi+108]
  00067	d9 5d f8	 fstp	 DWORD PTR tv177[ebp]
  0006a	f3 0f 2c 45 f8	 cvttss2si eax, DWORD PTR tv177[ebp]
  0006f	2b c8		 sub	 ecx, eax
  00071	03 4e 64	 add	 ecx, DWORD PTR [esi+100]
$LN4@questGetQu:
; File C:\Program Files\Microsoft Visual Studio\2022\Community\VC\Tools\MSVC\14.44.35207\include\xstring

; 453  :         return _Myres > _Small_string_capacity;

  00074	83 7e 48 0f	 cmp	 DWORD PTR [esi+72], 15	; 0000000fH

; 2356 :         return _Mypair._Myval2._Myptr();

  00078	8d 46 34	 lea	 eax, DWORD PTR [esi+52]
  0007b	5e		 pop	 esi

; 445  :         if (_Large_mode_engaged()) {

  0007c	76 02		 jbe	 SHORT $LN10@questGetQu

; 446  :             _Result = _Unfancy(_Bx._Ptr);

  0007e	8b 00		 mov	 eax, DWORD PTR [eax]
$LN10@questGetQu:
; File D:\_m2work\Server Client TMP4\ClientVS22\source\UserInterface\PythonQuest.cpp

; 247  : 	return Py_BuildValue("si", pQuestInstance->strClockName.c_str(), iLastTime);

  00080	51		 push	 ecx
  00081	50		 push	 eax
  00082	68 00 00 00 00	 push	 OFFSET ??_C@_02OCDGCAAK@si@
  00087	ff 15 00 00 00
	00		 call	 DWORD PTR __imp__Py_BuildValue
  0008d	83 c4 0c	 add	 esp, 12			; 0000000cH

; 248  : }

  00090	8b e5		 mov	 esp, ebp
  00092	5d		 pop	 ebp
  00093	c3		 ret	 0
?questGetQuestLastTime@@YAPAU_object@@PAU1@0@Z ENDP	; questGetQuestLastTime
_TEXT	ENDS
; Function compile flags: /Ogtp
; File D:\_m2work\Server Client TMP4\ClientVS22\source\UserInterface\PythonQuest.cpp
;	COMDAT ?questClear@@YAPAU_object@@PAU1@0@Z
_TEXT	SEGMENT
_poSelf$ = 8						; size = 4
_poArgs$ = 12						; size = 4
?questClear@@YAPAU_object@@PAU1@0@Z PROC		; questClear, COMDAT

; 252  : 	CPythonQuest::Instance().Clear();

  00000	8b 0d 00 00 00
	00		 mov	 ecx, DWORD PTR ?ms_singleton@?$CSingleton@VCPythonQuest@@@@0PAVCPythonQuest@@A ; CSingleton<CPythonQuest>::ms_singleton
  00006	e8 00 00 00 00	 call	 ?Clear@CPythonQuest@@QAEXXZ ; CPythonQuest::Clear

; 253  : 	return Py_BuildNone();

  0000b	e9 00 00 00 00	 jmp	 ?Py_BuildNone@@YAPAU_object@@XZ ; Py_BuildNone
?questClear@@YAPAU_object@@PAU1@0@Z ENDP		; questClear
_TEXT	ENDS
; Function compile flags: /Ogtp
; File D:\_m2work\Server Client TMP4\ClientVS22\source\UserInterface\PythonQuest.cpp
;	COMDAT ?initquest@@YAXXZ
_TEXT	SEGMENT
?initquest@@YAXXZ PROC					; initquest, COMDAT

; 258  : 	static PyMethodDef s_methods[] =
; 259  : 	{
; 260  : 		{ "GetQuestCount",				questGetQuestCount,				METH_VARARGS },
; 261  : 		{ "GetQuestData",				questGetQuestData,				METH_VARARGS },
; 262  : 		{ "GetQuestIndex",				questGetQuestIndex,				METH_VARARGS },
; 263  : 		{ "GetQuestLastTime",			questGetQuestLastTime,			METH_VARARGS },
; 264  : 		{ "Clear",						questClear,						METH_VARARGS },
; 265  : 		{ NULL,							NULL,							NULL },
; 266  : 	};
; 267  : 
; 268  : 	PyObject * poModule = Py_InitModule("quest", s_methods);

  00000	68 f5 03 00 00	 push	 1013			; 000003f5H
  00005	6a 00		 push	 0
  00007	6a 00		 push	 0
  00009	68 00 00 00 00	 push	 OFFSET ?s_methods@?1??initquest@@YAXXZ@4PAUPyMethodDef@@A
  0000e	68 00 00 00 00	 push	 OFFSET ??_C@_05KOGNICEN@quest@
  00013	ff 15 00 00 00
	00		 call	 DWORD PTR __imp__Py_InitModule4

; 269  : 	PyModule_AddIntConstant(poModule, "QUEST_MAX_NUM", 5);

  00019	6a 05		 push	 5
  0001b	68 00 00 00 00	 push	 OFFSET ??_C@_0O@IKHMHCIN@QUEST_MAX_NUM@
  00020	50		 push	 eax
  00021	ff 15 00 00 00
	00		 call	 DWORD PTR __imp__PyModule_AddIntConstant
  00027	83 c4 20	 add	 esp, 32			; 00000020H

; 270  : }

  0002a	c3		 ret	 0
?initquest@@YAXXZ ENDP					; initquest
_TEXT	ENDS
; Function compile flags: /Ogtp
; File C:\Program Files\Microsoft Visual Studio\2022\Community\VC\Tools\MSVC\14.44.35207\include\type_traits
;	COMDAT ??$move@AAUSQuestInstance@CPythonQuest@@@std@@YA$$QAUSQuestInstance@CPythonQuest@@AAU12@@Z
_TEXT	SEGMENT
??$move@AAUSQuestInstance@CPythonQuest@@@std@@YA$$QAUSQuestInstance@CPythonQuest@@AAU12@@Z PROC ; std::move<CPythonQuest::SQuestInstance &>, COMDAT
; __Arg$ = ecx

; 1513 :     return static_cast<remove_reference_t<_Ty>&&>(_Arg);

  00000	8b c1		 mov	 eax, ecx

; 1514 : }

  00002	c3		 ret	 0
??$move@AAUSQuestInstance@CPythonQuest@@@std@@YA$$QAUSQuestInstance@CPythonQuest@@AAU12@@Z ENDP ; std::move<CPythonQuest::SQuestInstance &>
_TEXT	ENDS
; Function compile flags: /Ogtp
; File C:\Program Files\Microsoft Visual Studio\2022\Community\VC\Tools\MSVC\14.44.35207\include\xutility
; File D:\_m2work\Server Client TMP4\ClientVS22\source\UserInterface\PythonQuest.cpp
; File C:\Program Files\Microsoft Visual Studio\2022\Community\VC\Tools\MSVC\14.44.35207\include\xutility
;	COMDAT ??$find_if@V?$_Vector_iterator@V?$_Vector_val@U?$_Simple_types@USQuestInstance@CPythonQuest@@@std@@@std@@@std@@UFQuestInstanceCompare@@@std@@YA?AV?$_Vector_iterator@V?$_Vector_val@U?$_Simple_types@USQuestInstance@CPythonQuest@@@std@@@std@@@0@V10@V10@UFQuestInstanceCompare@@@Z
_TEXT	SEGMENT
__First$ = 8						; size = 4
__Last$ = 12						; size = 4
__Pred$ = 16						; size = 4
??$find_if@V?$_Vector_iterator@V?$_Vector_val@U?$_Simple_types@USQuestInstance@CPythonQuest@@@std@@@std@@@std@@UFQuestInstanceCompare@@@std@@YA?AV?$_Vector_iterator@V?$_Vector_val@U?$_Simple_types@USQuestInstance@CPythonQuest@@@std@@@std@@@0@V10@V10@UFQuestInstanceCompare@@@Z PROC ; std::find_if<std::_Vector_iterator<std::_Vector_val<std::_Simple_types<CPythonQuest::SQuestInstance> > >,FQuestInstanceCompare>, COMDAT
; ___$ReturnUdt$ = ecx

; 6619 : _NODISCARD _CONSTEXPR20 _InIt find_if(_InIt _First, const _InIt _Last, _Pr _Pred) { // find first satisfying _Pred

  00000	55		 push	 ebp
  00001	8b ec		 mov	 ebp, esp

; 6620 :     _STD _Adl_verify_range(_First, _Last);
; 6621 :     auto _UFirst      = _STD _Get_unwrapped(_First);
; 6622 :     const auto _ULast = _STD _Get_unwrapped(_Last);
; 6623 :     for (; _UFirst != _ULast; ++_UFirst) {

  00003	8b 45 0c	 mov	 eax, DWORD PTR __Last$[ebp]
  00006	56		 push	 esi
  00007	8b 75 08	 mov	 esi, DWORD PTR __First$[ebp]
  0000a	3b f0		 cmp	 esi, eax
  0000c	74 0e		 je	 SHORT $LN15@find_if
  0000e	8b 55 10	 mov	 edx, DWORD PTR __Pred$[ebp]
$LL4@find_if:
; File D:\_m2work\Server Client TMP4\ClientVS22\source\UserInterface\PythonQuest.cpp

; 21   : 		return dwSearchIndex == rQuestInstance.dwIndex;

  00011	3b 16		 cmp	 edx, DWORD PTR [esi]
; File C:\Program Files\Microsoft Visual Studio\2022\Community\VC\Tools\MSVC\14.44.35207\include\xutility

; 6624 :         if (_Pred(*_UFirst)) {

  00013	74 07		 je	 SHORT $LN15@find_if

; 6620 :     _STD _Adl_verify_range(_First, _Last);
; 6621 :     auto _UFirst      = _STD _Get_unwrapped(_First);
; 6622 :     const auto _ULast = _STD _Get_unwrapped(_Last);
; 6623 :     for (; _UFirst != _ULast; ++_UFirst) {

  00015	83 c6 70	 add	 esi, 112		; 00000070H
  00018	3b f0		 cmp	 esi, eax
  0001a	75 f5		 jne	 SHORT $LL4@find_if
$LN15@find_if:

; 6625 :             break;
; 6626 :         }
; 6627 :     }
; 6628 : 
; 6629 :     _STD _Seek_wrapped(_First, _UFirst);
; 6630 :     return _First;
; 6631 : }

  0001c	89 31		 mov	 DWORD PTR [ecx], esi
  0001e	8b c1		 mov	 eax, ecx
  00020	5e		 pop	 esi
  00021	5d		 pop	 ebp
  00022	c3		 ret	 0
??$find_if@V?$_Vector_iterator@V?$_Vector_val@U?$_Simple_types@USQuestInstance@CPythonQuest@@@std@@@std@@@std@@UFQuestInstanceCompare@@@std@@YA?AV?$_Vector_iterator@V?$_Vector_val@U?$_Simple_types@USQuestInstance@CPythonQuest@@@std@@@std@@@0@V10@V10@UFQuestInstanceCompare@@@Z ENDP ; std::find_if<std::_Vector_iterator<std::_Vector_val<std::_Simple_types<CPythonQuest::SQuestInstance> > >,FQuestInstanceCompare>
_TEXT	ENDS
; Function compile flags: /Ogtp
; File C:\Program Files\Microsoft Visual Studio\2022\Community\VC\Tools\MSVC\14.44.35207\include\xutility
;	COMDAT ??$_Get_unwrapped@AAV?$_Vector_iterator@V?$_Vector_val@U?$_Simple_types@USQuestInstance@CPythonQuest@@@std@@@std@@@std@@@std@@YA?A_TAAV?$_Vector_iterator@V?$_Vector_val@U?$_Simple_types@USQuestInstance@CPythonQuest@@@std@@@std@@@0@@Z
_TEXT	SEGMENT
??$_Get_unwrapped@AAV?$_Vector_iterator@V?$_Vector_val@U?$_Simple_types@USQuestInstance@CPythonQuest@@@std@@@std@@@std@@@std@@YA?A_TAAV?$_Vector_iterator@V?$_Vector_val@U?$_Simple_types@USQuestInstance@CPythonQuest@@@std@@@std@@@0@@Z PROC ; std::_Get_unwrapped<std::_Vector_iterator<std::_Vector_val<std::_Simple_types<CPythonQuest::SQuestInstance> > > &>, COMDAT
; __It$ = ecx

; 1380 :     // unwrap an iterator previously subjected to _Adl_verify_range or otherwise validated
; 1381 :     if constexpr (is_pointer_v<decay_t<_Iter>>) { // special-case pointers and arrays
; 1382 :         return _It + 0;
; 1383 :     } else if constexpr (_Unwrappable_v<_Iter>) {
; 1384 :         return static_cast<_Iter&&>(_It)._Unwrapped();

  00000	8b 01		 mov	 eax, DWORD PTR [ecx]

; 1385 :     } else {
; 1386 :         return static_cast<_Iter&&>(_It);
; 1387 :     }
; 1388 : }

  00002	c3		 ret	 0
??$_Get_unwrapped@AAV?$_Vector_iterator@V?$_Vector_val@U?$_Simple_types@USQuestInstance@CPythonQuest@@@std@@@std@@@std@@@std@@YA?A_TAAV?$_Vector_iterator@V?$_Vector_val@U?$_Simple_types@USQuestInstance@CPythonQuest@@@std@@@std@@@0@@Z ENDP ; std::_Get_unwrapped<std::_Vector_iterator<std::_Vector_val<std::_Simple_types<CPythonQuest::SQuestInstance> > > &>
_TEXT	ENDS
; Function compile flags: /Ogtp
; File C:\Program Files\Microsoft Visual Studio\2022\Community\VC\Tools\MSVC\14.44.35207\include\xutility
;	COMDAT ??$_Get_unwrapped@ABV?$_Vector_iterator@V?$_Vector_val@U?$_Simple_types@USQuestInstance@CPythonQuest@@@std@@@std@@@std@@@std@@YA?A_TABV?$_Vector_iterator@V?$_Vector_val@U?$_Simple_types@USQuestInstance@CPythonQuest@@@std@@@std@@@0@@Z
_TEXT	SEGMENT
??$_Get_unwrapped@ABV?$_Vector_iterator@V?$_Vector_val@U?$_Simple_types@USQuestInstance@CPythonQuest@@@std@@@std@@@std@@@std@@YA?A_TABV?$_Vector_iterator@V?$_Vector_val@U?$_Simple_types@USQuestInstance@CPythonQuest@@@std@@@std@@@0@@Z PROC ; std::_Get_unwrapped<std::_Vector_iterator<std::_Vector_val<std::_Simple_types<CPythonQuest::SQuestInstance> > > const &>, COMDAT
; __It$ = ecx

; 1380 :     // unwrap an iterator previously subjected to _Adl_verify_range or otherwise validated
; 1381 :     if constexpr (is_pointer_v<decay_t<_Iter>>) { // special-case pointers and arrays
; 1382 :         return _It + 0;
; 1383 :     } else if constexpr (_Unwrappable_v<_Iter>) {
; 1384 :         return static_cast<_Iter&&>(_It)._Unwrapped();

  00000	8b 01		 mov	 eax, DWORD PTR [ecx]

; 1385 :     } else {
; 1386 :         return static_cast<_Iter&&>(_It);
; 1387 :     }
; 1388 : }

  00002	c3		 ret	 0
??$_Get_unwrapped@ABV?$_Vector_iterator@V?$_Vector_val@U?$_Simple_types@USQuestInstance@CPythonQuest@@@std@@@std@@@std@@@std@@YA?A_TABV?$_Vector_iterator@V?$_Vector_val@U?$_Simple_types@USQuestInstance@CPythonQuest@@@std@@@std@@@0@@Z ENDP ; std::_Get_unwrapped<std::_Vector_iterator<std::_Vector_val<std::_Simple_types<CPythonQuest::SQuestInstance> > > const &>
_TEXT	ENDS
; Function compile flags: /Ogtp
; File C:\Program Files\Microsoft Visual Studio\2022\Community\VC\Tools\MSVC\14.44.35207\include\vector
;	COMDAT ?_Unwrapped@?$_Vector_iterator@V?$_Vector_val@U?$_Simple_types@USQuestInstance@CPythonQuest@@@std@@@std@@@std@@QBEPAUSQuestInstance@CPythonQuest@@XZ
_TEXT	SEGMENT
?_Unwrapped@?$_Vector_iterator@V?$_Vector_val@U?$_Simple_types@USQuestInstance@CPythonQuest@@@std@@@std@@@std@@QBEPAUSQuestInstance@CPythonQuest@@XZ PROC ; std::_Vector_iterator<std::_Vector_val<std::_Simple_types<CPythonQuest::SQuestInstance> > >::_Unwrapped, COMDAT
; _this$ = ecx

; 345  :         return _STD _Unfancy_maybe_null(this->_Ptr);

  00000	8b 01		 mov	 eax, DWORD PTR [ecx]

; 346  :     }

  00002	c3		 ret	 0
?_Unwrapped@?$_Vector_iterator@V?$_Vector_val@U?$_Simple_types@USQuestInstance@CPythonQuest@@@std@@@std@@@std@@QBEPAUSQuestInstance@CPythonQuest@@XZ ENDP ; std::_Vector_iterator<std::_Vector_val<std::_Simple_types<CPythonQuest::SQuestInstance> > >::_Unwrapped
_TEXT	ENDS
; Function compile flags: /Ogtp
; File C:\Program Files\Microsoft Visual Studio\2022\Community\VC\Tools\MSVC\14.44.35207\include\xutility
; File C:\Program Files\Microsoft Visual Studio\2022\Community\VC\Tools\MSVC\14.44.35207\include\vector
; File C:\Program Files\Microsoft Visual Studio\2022\Community\VC\Tools\MSVC\14.44.35207\include\xutility
;	COMDAT ??D?$reverse_iterator@V?$_Vector_iterator@V?$_Vector_val@U?$_Simple_types@USQuestInstance@CPythonQuest@@@std@@@std@@@std@@@std@@QBEAAUSQuestInstance@CPythonQuest@@XZ
_TEXT	SEGMENT
??D?$reverse_iterator@V?$_Vector_iterator@V?$_Vector_val@U?$_Simple_types@USQuestInstance@CPythonQuest@@@std@@@std@@@std@@@std@@QBEAAUSQuestInstance@CPythonQuest@@XZ PROC ; std::reverse_iterator<std::_Vector_iterator<std::_Vector_val<std::_Simple_types<CPythonQuest::SQuestInstance> > > >::operator*, COMDAT
; _this$ = ecx
; File C:\Program Files\Microsoft Visual Studio\2022\Community\VC\Tools\MSVC\14.44.35207\include\vector

; 100  :         --_Ptr;

  00000	8b 01		 mov	 eax, DWORD PTR [ecx]
  00002	83 e8 70	 sub	 eax, 112		; 00000070H
; File C:\Program Files\Microsoft Visual Studio\2022\Community\VC\Tools\MSVC\14.44.35207\include\xutility

; 1766 :     }

  00005	c3		 ret	 0
??D?$reverse_iterator@V?$_Vector_iterator@V?$_Vector_val@U?$_Simple_types@USQuestInstance@CPythonQuest@@@std@@@std@@@std@@@std@@QBEAAUSQuestInstance@CPythonQuest@@XZ ENDP ; std::reverse_iterator<std::_Vector_iterator<std::_Vector_val<std::_Simple_types<CPythonQuest::SQuestInstance> > > >::operator*
_TEXT	ENDS
; Function compile flags: /Ogtp
; File C:\Program Files\Microsoft Visual Studio\2022\Community\VC\Tools\MSVC\14.44.35207\include\vector
;	COMDAT ??8?$_Vector_const_iterator@V?$_Vector_val@U?$_Simple_types@USQuestInstance@CPythonQuest@@@std@@@std@@@std@@QBE_NABV01@@Z
_TEXT	SEGMENT
__Right$ = 8						; size = 4
??8?$_Vector_const_iterator@V?$_Vector_val@U?$_Simple_types@USQuestInstance@CPythonQuest@@@std@@@std@@@std@@QBE_NABV01@@Z PROC ; std::_Vector_const_iterator<std::_Vector_val<std::_Simple_types<CPythonQuest::SQuestInstance> > >::operator==, COMDAT
; _this$ = ecx

; 164  :     _NODISCARD _CONSTEXPR20 bool operator==(const _Vector_const_iterator& _Right) const noexcept {

  00000	55		 push	 ebp
  00001	8b ec		 mov	 ebp, esp

; 165  :         _Compat(_Right);
; 166  :         return _Ptr == _Right._Ptr;

  00003	8b 45 08	 mov	 eax, DWORD PTR __Right$[ebp]
  00006	8b 09		 mov	 ecx, DWORD PTR [ecx]
  00008	3b 08		 cmp	 ecx, DWORD PTR [eax]
  0000a	0f 94 c0	 sete	 al

; 167  :     }

  0000d	5d		 pop	 ebp
  0000e	c2 04 00	 ret	 4
??8?$_Vector_const_iterator@V?$_Vector_val@U?$_Simple_types@USQuestInstance@CPythonQuest@@@std@@@std@@@std@@QBE_NABV01@@Z ENDP ; std::_Vector_const_iterator<std::_Vector_val<std::_Simple_types<CPythonQuest::SQuestInstance> > >::operator==
_TEXT	ENDS
; Function compile flags: /Ogtp
; File C:\Program Files\Microsoft Visual Studio\2022\Community\VC\Tools\MSVC\14.44.35207\include\vector
;	COMDAT ??D?$_Vector_iterator@V?$_Vector_val@U?$_Simple_types@USQuestInstance@CPythonQuest@@@std@@@std@@@std@@QBEAAUSQuestInstance@CPythonQuest@@XZ
_TEXT	SEGMENT
??D?$_Vector_iterator@V?$_Vector_val@U?$_Simple_types@USQuestInstance@CPythonQuest@@@std@@@std@@@std@@QBEAAUSQuestInstance@CPythonQuest@@XZ PROC ; std::_Vector_iterator<std::_Vector_val<std::_Simple_types<CPythonQuest::SQuestInstance> > >::operator*, COMDAT
; _this$ = ecx

; 271  :         return const_cast<reference>(_Mybase::operator*());

  00000	8b 01		 mov	 eax, DWORD PTR [ecx]

; 272  :     }

  00002	c3		 ret	 0
??D?$_Vector_iterator@V?$_Vector_val@U?$_Simple_types@USQuestInstance@CPythonQuest@@@std@@@std@@@std@@QBEAAUSQuestInstance@CPythonQuest@@XZ ENDP ; std::_Vector_iterator<std::_Vector_val<std::_Simple_types<CPythonQuest::SQuestInstance> > >::operator*
_TEXT	ENDS
; Function compile flags: /Ogtp
; File C:\Program Files\Microsoft Visual Studio\2022\Community\VC\Tools\MSVC\14.44.35207\include\vector
;	COMDAT ??A?$vector@USQuestInstance@CPythonQuest@@V?$allocator@USQuestInstance@CPythonQuest@@@std@@@std@@QAEAAUSQuestInstance@CPythonQuest@@I@Z
_TEXT	SEGMENT
__Pos$ = 8						; size = 4
??A?$vector@USQuestInstance@CPythonQuest@@V?$allocator@USQuestInstance@CPythonQuest@@@std@@@std@@QAEAAUSQuestInstance@CPythonQuest@@I@Z PROC ; std::vector<CPythonQuest::SQuestInstance,std::allocator<CPythonQuest::SQuestInstance> >::operator[], COMDAT
; _this$ = ecx

; 1927 :     _NODISCARD _CONSTEXPR20 _Ty& operator[](const size_type _Pos) noexcept /* strengthened */ {

  00000	55		 push	 ebp
  00001	8b ec		 mov	 ebp, esp

; 1928 :         auto& _My_data = _Mypair._Myval2;
; 1929 : #if _MSVC_STL_HARDENING_VECTOR || _ITERATOR_DEBUG_LEVEL != 0
; 1930 :         _STL_VERIFY(
; 1931 :             _Pos < static_cast<size_type>(_My_data._Mylast - _My_data._Myfirst), "vector subscript out of range");
; 1932 : #endif
; 1933 : 
; 1934 :         return _My_data._Myfirst[_Pos];

  00003	6b 45 08 70	 imul	 eax, DWORD PTR __Pos$[ebp], 112
  00007	03 01		 add	 eax, DWORD PTR [ecx]

; 1935 :     }

  00009	5d		 pop	 ebp
  0000a	c2 04 00	 ret	 4
??A?$vector@USQuestInstance@CPythonQuest@@V?$allocator@USQuestInstance@CPythonQuest@@@std@@@std@@QAEAAUSQuestInstance@CPythonQuest@@I@Z ENDP ; std::vector<CPythonQuest::SQuestInstance,std::allocator<CPythonQuest::SQuestInstance> >::operator[]
_TEXT	ENDS
; Function compile flags: /Ogtp
; File C:\Program Files\Microsoft Visual Studio\2022\Community\VC\Tools\MSVC\14.44.35207\include\vector
;	COMDAT ?size@?$vector@USQuestInstance@CPythonQuest@@V?$allocator@USQuestInstance@CPythonQuest@@@std@@@std@@QBEIXZ
_TEXT	SEGMENT
?size@?$vector@USQuestInstance@CPythonQuest@@V?$allocator@USQuestInstance@CPythonQuest@@@std@@@std@@QBEIXZ PROC ; std::vector<CPythonQuest::SQuestInstance,std::allocator<CPythonQuest::SQuestInstance> >::size, COMDAT
; _this$ = ecx

; 1914 :         auto& _My_data = _Mypair._Myval2;
; 1915 :         return static_cast<size_type>(_My_data._Mylast - _My_data._Myfirst);

  00000	8b 41 04	 mov	 eax, DWORD PTR [ecx+4]
  00003	2b 01		 sub	 eax, DWORD PTR [ecx]
  00005	c1 f8 04	 sar	 eax, 4
  00008	69 c0 b7 6d db
	b6		 imul	 eax, eax, -1227133513

; 1916 :     }

  0000e	c3		 ret	 0
?size@?$vector@USQuestInstance@CPythonQuest@@V?$allocator@USQuestInstance@CPythonQuest@@@std@@@std@@QBEIXZ ENDP ; std::vector<CPythonQuest::SQuestInstance,std::allocator<CPythonQuest::SQuestInstance> >::size
_TEXT	ENDS
; Function compile flags: /Ogtp
; File C:\Program Files\Microsoft Visual Studio\2022\Community\VC\Tools\MSVC\14.44.35207\include\vector
; File C:\Program Files\Microsoft Visual Studio\2022\Community\VC\Tools\MSVC\14.44.35207\include\xutility
; File C:\Program Files\Microsoft Visual Studio\2022\Community\VC\Tools\MSVC\14.44.35207\include\vector
;	COMDAT ?rbegin@?$vector@USQuestInstance@CPythonQuest@@V?$allocator@USQuestInstance@CPythonQuest@@@std@@@std@@QAE?AV?$reverse_iterator@V?$_Vector_iterator@V?$_Vector_val@U?$_Simple_types@USQuestInstance@CPythonQuest@@@std@@@std@@@std@@@2@XZ
_TEXT	SEGMENT
___$ReturnUdt$ = 8					; size = 4
?rbegin@?$vector@USQuestInstance@CPythonQuest@@V?$allocator@USQuestInstance@CPythonQuest@@@std@@@std@@QAE?AV?$reverse_iterator@V?$_Vector_iterator@V?$_Vector_val@U?$_Simple_types@USQuestInstance@CPythonQuest@@@std@@@std@@@std@@@2@XZ PROC ; std::vector<CPythonQuest::SQuestInstance,std::allocator<CPythonQuest::SQuestInstance> >::rbegin, COMDAT
; _this$ = ecx

; 1860 :     _NODISCARD _CONSTEXPR20 reverse_iterator rbegin() noexcept {

  00000	55		 push	 ebp
  00001	8b ec		 mov	 ebp, esp
; File C:\Program Files\Microsoft Visual Studio\2022\Community\VC\Tools\MSVC\14.44.35207\include\xutility

; 1736 :         : current(_STD move(_Right)) {}

  00003	8b 45 08	 mov	 eax, DWORD PTR ___$ReturnUdt$[ebp]
  00006	8b 49 04	 mov	 ecx, DWORD PTR [ecx+4]
  00009	89 08		 mov	 DWORD PTR [eax], ecx
; File C:\Program Files\Microsoft Visual Studio\2022\Community\VC\Tools\MSVC\14.44.35207\include\vector

; 1862 :     }

  0000b	5d		 pop	 ebp
  0000c	c2 04 00	 ret	 4
?rbegin@?$vector@USQuestInstance@CPythonQuest@@V?$allocator@USQuestInstance@CPythonQuest@@@std@@@std@@QAE?AV?$reverse_iterator@V?$_Vector_iterator@V?$_Vector_val@U?$_Simple_types@USQuestInstance@CPythonQuest@@@std@@@std@@@std@@@2@XZ ENDP ; std::vector<CPythonQuest::SQuestInstance,std::allocator<CPythonQuest::SQuestInstance> >::rbegin
_TEXT	ENDS
; Function compile flags: /Ogtp
; File C:\Program Files\Microsoft Visual Studio\2022\Community\VC\Tools\MSVC\14.44.35207\include\vector
;	COMDAT ?end@?$vector@USQuestInstance@CPythonQuest@@V?$allocator@USQuestInstance@CPythonQuest@@@std@@@std@@QAE?AV?$_Vector_iterator@V?$_Vector_val@U?$_Simple_types@USQuestInstance@CPythonQuest@@@std@@@std@@@2@XZ
_TEXT	SEGMENT
___$ReturnUdt$ = 8					; size = 4
?end@?$vector@USQuestInstance@CPythonQuest@@V?$allocator@USQuestInstance@CPythonQuest@@@std@@@std@@QAE?AV?$_Vector_iterator@V?$_Vector_val@U?$_Simple_types@USQuestInstance@CPythonQuest@@@std@@@std@@@2@XZ PROC ; std::vector<CPythonQuest::SQuestInstance,std::allocator<CPythonQuest::SQuestInstance> >::end, COMDAT
; _this$ = ecx

; 1850 :     _NODISCARD _CONSTEXPR20 iterator end() noexcept {

  00000	55		 push	 ebp
  00001	8b ec		 mov	 ebp, esp

; 46   :     _CONSTEXPR20 _Vector_const_iterator(_Tptr _Parg, const _Container_base* _Pvector) noexcept : _Ptr(_Parg) {

  00003	8b 45 08	 mov	 eax, DWORD PTR ___$ReturnUdt$[ebp]
  00006	8b 49 04	 mov	 ecx, DWORD PTR [ecx+4]
  00009	89 08		 mov	 DWORD PTR [eax], ecx

; 1851 :         auto& _My_data = _Mypair._Myval2;
; 1852 :         return iterator(_My_data._Mylast, _STD addressof(_My_data));
; 1853 :     }

  0000b	5d		 pop	 ebp
  0000c	c2 04 00	 ret	 4
?end@?$vector@USQuestInstance@CPythonQuest@@V?$allocator@USQuestInstance@CPythonQuest@@@std@@@std@@QAE?AV?$_Vector_iterator@V?$_Vector_val@U?$_Simple_types@USQuestInstance@CPythonQuest@@@std@@@std@@@2@XZ ENDP ; std::vector<CPythonQuest::SQuestInstance,std::allocator<CPythonQuest::SQuestInstance> >::end
_TEXT	ENDS
; Function compile flags: /Ogtp
; File C:\Program Files\Microsoft Visual Studio\2022\Community\VC\Tools\MSVC\14.44.35207\include\vector
;	COMDAT ??0?$_Vector_iterator@V?$_Vector_val@U?$_Simple_types@USQuestInstance@CPythonQuest@@@std@@@std@@@std@@QAE@PAUSQuestInstance@CPythonQuest@@PBU_Container_base0@1@@Z
_TEXT	SEGMENT
___param0$ = 8						; size = 4
___param1$dead$ = 12					; size = 4
??0?$_Vector_iterator@V?$_Vector_val@U?$_Simple_types@USQuestInstance@CPythonQuest@@@std@@@std@@@std@@QAE@PAUSQuestInstance@CPythonQuest@@PBU_Container_base0@1@@Z PROC ; std::_Vector_iterator<std::_Vector_val<std::_Simple_types<CPythonQuest::SQuestInstance> > >::_Vector_iterator<std::_Vector_val<std::_Simple_types<CPythonQuest::SQuestInstance> > >, COMDAT
; _this$ = ecx
  00000	55		 push	 ebp
  00001	8b ec		 mov	 ebp, esp

; 46   :     _CONSTEXPR20 _Vector_const_iterator(_Tptr _Parg, const _Container_base* _Pvector) noexcept : _Ptr(_Parg) {

  00003	8b 45 08	 mov	 eax, DWORD PTR ___param0$[ebp]
  00006	89 01		 mov	 DWORD PTR [ecx], eax
  00008	8b c1		 mov	 eax, ecx
  0000a	5d		 pop	 ebp
  0000b	c2 08 00	 ret	 8
??0?$_Vector_iterator@V?$_Vector_val@U?$_Simple_types@USQuestInstance@CPythonQuest@@@std@@@std@@@std@@QAE@PAUSQuestInstance@CPythonQuest@@PBU_Container_base0@1@@Z ENDP ; std::_Vector_iterator<std::_Vector_val<std::_Simple_types<CPythonQuest::SQuestInstance> > >::_Vector_iterator<std::_Vector_val<std::_Simple_types<CPythonQuest::SQuestInstance> > >
_TEXT	ENDS
; Function compile flags: /Ogtp
; File C:\Program Files\Microsoft Visual Studio\2022\Community\VC\Tools\MSVC\14.44.35207\include\vector
;	COMDAT ?begin@?$vector@USQuestInstance@CPythonQuest@@V?$allocator@USQuestInstance@CPythonQuest@@@std@@@std@@QAE?AV?$_Vector_iterator@V?$_Vector_val@U?$_Simple_types@USQuestInstance@CPythonQuest@@@std@@@std@@@2@XZ
_TEXT	SEGMENT
___$ReturnUdt$ = 8					; size = 4
?begin@?$vector@USQuestInstance@CPythonQuest@@V?$allocator@USQuestInstance@CPythonQuest@@@std@@@std@@QAE?AV?$_Vector_iterator@V?$_Vector_val@U?$_Simple_types@USQuestInstance@CPythonQuest@@@std@@@std@@@2@XZ PROC ; std::vector<CPythonQuest::SQuestInstance,std::allocator<CPythonQuest::SQuestInstance> >::begin, COMDAT
; _this$ = ecx

; 1840 :     _NODISCARD _CONSTEXPR20 iterator begin() noexcept {

  00000	55		 push	 ebp
  00001	8b ec		 mov	 ebp, esp

; 46   :     _CONSTEXPR20 _Vector_const_iterator(_Tptr _Parg, const _Container_base* _Pvector) noexcept : _Ptr(_Parg) {

  00003	8b 45 08	 mov	 eax, DWORD PTR ___$ReturnUdt$[ebp]
  00006	8b 09		 mov	 ecx, DWORD PTR [ecx]
  00008	89 08		 mov	 DWORD PTR [eax], ecx

; 1841 :         auto& _My_data = _Mypair._Myval2;
; 1842 :         return iterator(_My_data._Myfirst, _STD addressof(_My_data));
; 1843 :     }

  0000a	5d		 pop	 ebp
  0000b	c2 04 00	 ret	 4
?begin@?$vector@USQuestInstance@CPythonQuest@@V?$allocator@USQuestInstance@CPythonQuest@@@std@@@std@@QAE?AV?$_Vector_iterator@V?$_Vector_val@U?$_Simple_types@USQuestInstance@CPythonQuest@@@std@@@std@@@2@XZ ENDP ; std::vector<CPythonQuest::SQuestInstance,std::allocator<CPythonQuest::SQuestInstance> >::begin
_TEXT	ENDS
; Function compile flags: /Ogtp
; File C:\Program Files\Microsoft Visual Studio\2022\Community\VC\Tools\MSVC\14.44.35207\include\vector
;	COMDAT ?clear@?$vector@USQuestInstance@CPythonQuest@@V?$allocator@USQuestInstance@CPythonQuest@@@std@@@std@@QAEXXZ
_TEXT	SEGMENT
?clear@?$vector@USQuestInstance@CPythonQuest@@V?$allocator@USQuestInstance@CPythonQuest@@@std@@@std@@QAEXXZ PROC ; std::vector<CPythonQuest::SQuestInstance,std::allocator<CPythonQuest::SQuestInstance> >::clear, COMDAT
; _this$ = ecx

; 1807 :     _CONSTEXPR20 void clear() noexcept { // erase all

  00000	56		 push	 esi
  00001	8b f1		 mov	 esi, ecx

; 1808 :         auto& _My_data    = _Mypair._Myval2;
; 1809 :         pointer& _Myfirst = _My_data._Myfirst;
; 1810 :         pointer& _Mylast  = _My_data._Mylast;
; 1811 : 
; 1812 :         if (_Myfirst == _Mylast) { // already empty, nothing to do

  00003	8b 0e		 mov	 ecx, DWORD PTR [esi]
  00005	8b 56 04	 mov	 edx, DWORD PTR [esi+4]
  00008	3b ca		 cmp	 ecx, edx
  0000a	74 0e		 je	 SHORT $LN1@clear

; 1813 :             // This is an optimization for debug mode: we can avoid taking the debug lock to invalidate iterators.
; 1814 :             // Note that when clearing an empty vector, this will preserve past-the-end iterators, which is allowed by
; 1815 :             // N4950 [sequence.reqmts]/54 "a.clear() [...] may invalidate the past-the-end iterator".
; 1816 :             return;
; 1817 :         }
; 1818 : 
; 1819 :         _My_data._Orphan_all();
; 1820 :         _Destroy_range(_Myfirst, _Mylast, _Getal());

  0000c	51		 push	 ecx
  0000d	e8 00 00 00 00	 call	 ??$_Destroy_range@V?$allocator@USQuestInstance@CPythonQuest@@@std@@@std@@YAXPAUSQuestInstance@CPythonQuest@@QAU12@AAV?$allocator@USQuestInstance@CPythonQuest@@@0@@Z ; std::_Destroy_range<std::allocator<CPythonQuest::SQuestInstance> >

; 1821 :         _ASAN_VECTOR_MODIFY(static_cast<difference_type>(_Myfirst - _Mylast)); // negative when destroying elements
; 1822 :         _Mylast = _Myfirst;

  00012	8b 06		 mov	 eax, DWORD PTR [esi]
  00014	83 c4 04	 add	 esp, 4
  00017	89 46 04	 mov	 DWORD PTR [esi+4], eax
$LN1@clear:

; 1823 :     }

  0001a	5e		 pop	 esi
  0001b	c3		 ret	 0
?clear@?$vector@USQuestInstance@CPythonQuest@@V?$allocator@USQuestInstance@CPythonQuest@@@std@@@std@@QAEXXZ ENDP ; std::vector<CPythonQuest::SQuestInstance,std::allocator<CPythonQuest::SQuestInstance> >::clear
_TEXT	ENDS
; Function compile flags: /Ogtp
; File C:\Program Files\Microsoft Visual Studio\2022\Community\VC\Tools\MSVC\14.44.35207\include\vector
; File C:\Program Files\Microsoft Visual Studio\2022\Community\VC\Tools\MSVC\14.44.35207\include\xutility
; File C:\Program Files\Microsoft Visual Studio\2022\Community\VC\Tools\MSVC\14.44.35207\include\vector
; File C:\Program Files\Microsoft Visual Studio\2022\Community\VC\Tools\MSVC\14.44.35207\include\xstring
; File C:\Program Files\Microsoft Visual Studio\2022\Community\VC\Tools\MSVC\14.44.35207\include\xutility
; File C:\Program Files\Microsoft Visual Studio\2022\Community\VC\Tools\MSVC\14.44.35207\include\vector
; File C:\Program Files\Microsoft Visual Studio\2022\Community\VC\Tools\MSVC\14.44.35207\include\xstring
; File C:\Program Files\Microsoft Visual Studio\2022\Community\VC\Tools\MSVC\14.44.35207\include\vector
;	COMDAT ?erase@?$vector@USQuestInstance@CPythonQuest@@V?$allocator@USQuestInstance@CPythonQuest@@@std@@@std@@QAE?AV?$_Vector_iterator@V?$_Vector_val@U?$_Simple_types@USQuestInstance@CPythonQuest@@@std@@@std@@@2@V?$_Vector_const_iterator@V?$_Vector_val@U?$_Simple_types@USQuestInstance@CPythonQuest@@@std@@@std@@@2@@Z
_TEXT	SEGMENT
__Whereptr$1$ = -16					; size = 4
_this$1$ = -12						; size = 4
__Last$1$ = -8						; size = 4
__First$1$ = -4						; size = 4
___$ReturnUdt$ = 8					; size = 4
__Where$ = 12						; size = 4
?erase@?$vector@USQuestInstance@CPythonQuest@@V?$allocator@USQuestInstance@CPythonQuest@@@std@@@std@@QAE?AV?$_Vector_iterator@V?$_Vector_val@U?$_Simple_types@USQuestInstance@CPythonQuest@@@std@@@std@@@2@V?$_Vector_const_iterator@V?$_Vector_val@U?$_Simple_types@USQuestInstance@CPythonQuest@@@std@@@std@@@2@@Z PROC ; std::vector<CPythonQuest::SQuestInstance,std::allocator<CPythonQuest::SQuestInstance> >::erase, COMDAT
; _this$ = ecx

; 1763 :         noexcept(is_nothrow_move_assignable_v<value_type>) /* strengthened */ {

  00000	55		 push	 ebp
  00001	8b ec		 mov	 ebp, esp
  00003	83 ec 10	 sub	 esp, 16			; 00000010H

; 1764 :         const pointer _Whereptr = _Where._Ptr;

  00006	8b 55 0c	 mov	 edx, DWORD PTR __Where$[ebp]
  00009	53		 push	 ebx
  0000a	8b d9		 mov	 ebx, ecx
  0000c	89 55 f0	 mov	 DWORD PTR __Whereptr$1$[ebp], edx
  0000f	56		 push	 esi

; 1767 : 
; 1768 : #if _ITERATOR_DEBUG_LEVEL == 2
; 1769 :         _STL_VERIFY(
; 1770 :             _Where._Getcont() == _STD addressof(_My_data) && _Whereptr >= _My_data._Myfirst && _Mylast > _Whereptr,
; 1771 :             "vector erase iterator outside range");
; 1772 : #endif // _ITERATOR_DEBUG_LEVEL == 2
; 1773 : 
; 1774 :         _Orphan_range(_Whereptr, _Mylast);
; 1775 :         _STD _Move_unchecked(_Whereptr + 1, _Mylast, _Whereptr);

  00010	8d 42 70	 lea	 eax, DWORD PTR [edx+112]
  00013	89 5d f4	 mov	 DWORD PTR _this$1$[ebp], ebx
  00016	89 45 fc	 mov	 DWORD PTR __First$1$[ebp], eax
  00019	8b 4b 04	 mov	 ecx, DWORD PTR [ebx+4]
  0001c	89 4d f8	 mov	 DWORD PTR __Last$1$[ebp], ecx
; File C:\Program Files\Microsoft Visual Studio\2022\Community\VC\Tools\MSVC\14.44.35207\include\xutility

; 5151 :         for (; _First != _Last; ++_Dest, (void) ++_First) {

  0001f	3b c1		 cmp	 eax, ecx
  00021	0f 84 02 01 00
	00		 je	 $LN6@erase
; File C:\Program Files\Microsoft Visual Studio\2022\Community\VC\Tools\MSVC\14.44.35207\include\vector

; 1766 :         pointer& _Mylast        = _My_data._Mylast;

  00027	8d 5a 1c	 lea	 ebx, DWORD PTR [edx+28]
  0002a	8d 70 14	 lea	 esi, DWORD PTR [eax+20]
  0002d	57		 push	 edi
  0002e	66 90		 npad	 2
$LL7@erase:
  00030	8b 00		 mov	 eax, DWORD PTR [eax]
  00032	89 43 e4	 mov	 DWORD PTR [ebx-28], eax
; File C:\Program Files\Microsoft Visual Studio\2022\Community\VC\Tools\MSVC\14.44.35207\include\xstring

; 1226 :         if (this == _STD addressof(_Right)) {

  00035	8d 46 08	 lea	 eax, DWORD PTR [esi+8]
  00038	3b d8		 cmp	 ebx, eax
  0003a	74 2a		 je	 SHORT $LN19@erase

; 1227 :             return *this;
; 1228 :         }
; 1229 : 
; 1230 :         auto& _Al                 = _Getal();
; 1231 :         auto& _Right_al           = _Right._Getal();
; 1232 :         constexpr auto _Pocma_val = _Choose_pocma_v<_Alty>;
; 1233 :         if constexpr (_Pocma_val == _Pocma_values::_Propagate_allocators) {
; 1234 :             if (_Al != _Right_al) {
; 1235 :                 // intentionally slams into noexcept on OOM, TRANSITION, VSO-466800
; 1236 :                 _Mypair._Myval2._Orphan_all();
; 1237 :                 _Mypair._Myval2._Reload_proxy(_GET_PROXY_ALLOCATOR(_Alty, _Al), _GET_PROXY_ALLOCATOR(_Alty, _Right_al));
; 1238 :             }
; 1239 :         } else if constexpr (_Pocma_val == _Pocma_values::_No_propagate_allocators) {
; 1240 :             if (_Al != _Right_al) {
; 1241 :                 assign(_Right._Mypair._Myval2._Myptr(), _Right._Mypair._Myval2._Mysize);
; 1242 :                 return *this;
; 1243 :             }
; 1244 :         }
; 1245 : 
; 1246 :         _Tidy_deallocate();

  0003c	8d 4b e8	 lea	 ecx, DWORD PTR [ebx-24]
  0003f	e8 00 00 00 00	 call	 ?_Tidy_deallocate@?$basic_string@DU?$char_traits@D@std@@V?$allocator@D@2@@std@@AAEXXZ ; std::basic_string<char,std::char_traits<char>,std::allocator<char> >::_Tidy_deallocate

; 1286 :                 _CSTD memcpy(_My_data_mem, _Right_data_mem, _Memcpy_val_size);

  00044	0f 10 46 f0	 movups	 xmm0, XMMWORD PTR [esi-16]
  00048	0f 11 43 e8	 movups	 XMMWORD PTR [ebx-24], xmm0
  0004c	f3 0f 7e 06	 movq	 xmm0, QWORD PTR [esi]
  00050	66 0f d6 43 f8	 movq	 QWORD PTR [ebx-8], xmm0

; 1287 : 
; 1288 :                 _Right_data._Mysize = 0;

  00055	c7 06 00 00 00
	00		 mov	 DWORD PTR [esi], 0

; 1289 :                 _Right_data._Myres  = _Small_string_capacity;

  0005b	c7 46 04 0f 00
	00 00		 mov	 DWORD PTR [esi+4], 15	; 0000000fH

; 1290 :                 _Right_data._Activate_SSO_buffer();
; 1291 :                 _Traits::assign(_Right_data._Bx._Buf[0], _Elem());

  00062	c6 46 f0 00	 mov	 BYTE PTR [esi-16], 0
$LN19@erase:

; 1226 :         if (this == _STD addressof(_Right)) {

  00066	8d 7e 08	 lea	 edi, DWORD PTR [esi+8]
  00069	3b df		 cmp	 ebx, edi
  0006b	74 28		 je	 SHORT $LN42@erase

; 1227 :             return *this;
; 1228 :         }
; 1229 : 
; 1230 :         auto& _Al                 = _Getal();
; 1231 :         auto& _Right_al           = _Right._Getal();
; 1232 :         constexpr auto _Pocma_val = _Choose_pocma_v<_Alty>;
; 1233 :         if constexpr (_Pocma_val == _Pocma_values::_Propagate_allocators) {
; 1234 :             if (_Al != _Right_al) {
; 1235 :                 // intentionally slams into noexcept on OOM, TRANSITION, VSO-466800
; 1236 :                 _Mypair._Myval2._Orphan_all();
; 1237 :                 _Mypair._Myval2._Reload_proxy(_GET_PROXY_ALLOCATOR(_Alty, _Al), _GET_PROXY_ALLOCATOR(_Alty, _Right_al));
; 1238 :             }
; 1239 :         } else if constexpr (_Pocma_val == _Pocma_values::_No_propagate_allocators) {
; 1240 :             if (_Al != _Right_al) {
; 1241 :                 assign(_Right._Mypair._Myval2._Myptr(), _Right._Mypair._Myval2._Mysize);
; 1242 :                 return *this;
; 1243 :             }
; 1244 :         }
; 1245 : 
; 1246 :         _Tidy_deallocate();

  0006d	8b cb		 mov	 ecx, ebx
  0006f	e8 00 00 00 00	 call	 ?_Tidy_deallocate@?$basic_string@DU?$char_traits@D@std@@V?$allocator@D@2@@std@@AAEXXZ ; std::basic_string<char,std::char_traits<char>,std::allocator<char> >::_Tidy_deallocate

; 1286 :                 _CSTD memcpy(_My_data_mem, _Right_data_mem, _Memcpy_val_size);

  00074	0f 10 07	 movups	 xmm0, XMMWORD PTR [edi]
  00077	0f 11 03	 movups	 XMMWORD PTR [ebx], xmm0
  0007a	f3 0f 7e 47 10	 movq	 xmm0, QWORD PTR [edi+16]
  0007f	66 0f d6 43 10	 movq	 QWORD PTR [ebx+16], xmm0

; 1287 : 
; 1288 :                 _Right_data._Mysize = 0;

  00084	c7 46 18 00 00
	00 00		 mov	 DWORD PTR [esi+24], 0

; 1289 :                 _Right_data._Myres  = _Small_string_capacity;

  0008b	c7 46 1c 0f 00
	00 00		 mov	 DWORD PTR [esi+28], 15	; 0000000fH

; 1290 :                 _Right_data._Activate_SSO_buffer();
; 1291 :                 _Traits::assign(_Right_data._Bx._Buf[0], _Elem());

  00092	c6 07 00	 mov	 BYTE PTR [edi], 0
$LN42@erase:

; 1226 :         if (this == _STD addressof(_Right)) {

  00095	8d 7e 20	 lea	 edi, DWORD PTR [esi+32]
  00098	8d 43 18	 lea	 eax, DWORD PTR [ebx+24]
  0009b	3b c7		 cmp	 eax, edi
  0009d	74 29		 je	 SHORT $LN65@erase

; 1227 :             return *this;
; 1228 :         }
; 1229 : 
; 1230 :         auto& _Al                 = _Getal();
; 1231 :         auto& _Right_al           = _Right._Getal();
; 1232 :         constexpr auto _Pocma_val = _Choose_pocma_v<_Alty>;
; 1233 :         if constexpr (_Pocma_val == _Pocma_values::_Propagate_allocators) {
; 1234 :             if (_Al != _Right_al) {
; 1235 :                 // intentionally slams into noexcept on OOM, TRANSITION, VSO-466800
; 1236 :                 _Mypair._Myval2._Orphan_all();
; 1237 :                 _Mypair._Myval2._Reload_proxy(_GET_PROXY_ALLOCATOR(_Alty, _Al), _GET_PROXY_ALLOCATOR(_Alty, _Right_al));
; 1238 :             }
; 1239 :         } else if constexpr (_Pocma_val == _Pocma_values::_No_propagate_allocators) {
; 1240 :             if (_Al != _Right_al) {
; 1241 :                 assign(_Right._Mypair._Myval2._Myptr(), _Right._Mypair._Myval2._Mysize);
; 1242 :                 return *this;
; 1243 :             }
; 1244 :         }
; 1245 : 
; 1246 :         _Tidy_deallocate();

  0009f	8b c8		 mov	 ecx, eax
  000a1	e8 00 00 00 00	 call	 ?_Tidy_deallocate@?$basic_string@DU?$char_traits@D@std@@V?$allocator@D@2@@std@@AAEXXZ ; std::basic_string<char,std::char_traits<char>,std::allocator<char> >::_Tidy_deallocate

; 1286 :                 _CSTD memcpy(_My_data_mem, _Right_data_mem, _Memcpy_val_size);

  000a6	0f 10 07	 movups	 xmm0, XMMWORD PTR [edi]
  000a9	0f 11 43 18	 movups	 XMMWORD PTR [ebx+24], xmm0
  000ad	f3 0f 7e 47 10	 movq	 xmm0, QWORD PTR [edi+16]
  000b2	66 0f d6 43 28	 movq	 QWORD PTR [ebx+40], xmm0

; 1287 : 
; 1288 :                 _Right_data._Mysize = 0;

  000b7	c7 46 30 00 00
	00 00		 mov	 DWORD PTR [esi+48], 0

; 1289 :                 _Right_data._Myres  = _Small_string_capacity;

  000be	c7 46 34 0f 00
	00 00		 mov	 DWORD PTR [esi+52], 15	; 0000000fH

; 1290 :                 _Right_data._Activate_SSO_buffer();
; 1291 :                 _Traits::assign(_Right_data._Bx._Buf[0], _Elem());

  000c5	c6 07 00	 mov	 BYTE PTR [edi], 0
$LN65@erase:

; 1226 :         if (this == _STD addressof(_Right)) {

  000c8	8d 7e 38	 lea	 edi, DWORD PTR [esi+56]
  000cb	8d 43 30	 lea	 eax, DWORD PTR [ebx+48]
  000ce	3b c7		 cmp	 eax, edi
  000d0	74 29		 je	 SHORT $LN88@erase

; 1227 :             return *this;
; 1228 :         }
; 1229 : 
; 1230 :         auto& _Al                 = _Getal();
; 1231 :         auto& _Right_al           = _Right._Getal();
; 1232 :         constexpr auto _Pocma_val = _Choose_pocma_v<_Alty>;
; 1233 :         if constexpr (_Pocma_val == _Pocma_values::_Propagate_allocators) {
; 1234 :             if (_Al != _Right_al) {
; 1235 :                 // intentionally slams into noexcept on OOM, TRANSITION, VSO-466800
; 1236 :                 _Mypair._Myval2._Orphan_all();
; 1237 :                 _Mypair._Myval2._Reload_proxy(_GET_PROXY_ALLOCATOR(_Alty, _Al), _GET_PROXY_ALLOCATOR(_Alty, _Right_al));
; 1238 :             }
; 1239 :         } else if constexpr (_Pocma_val == _Pocma_values::_No_propagate_allocators) {
; 1240 :             if (_Al != _Right_al) {
; 1241 :                 assign(_Right._Mypair._Myval2._Myptr(), _Right._Mypair._Myval2._Mysize);
; 1242 :                 return *this;
; 1243 :             }
; 1244 :         }
; 1245 : 
; 1246 :         _Tidy_deallocate();

  000d2	8b c8		 mov	 ecx, eax
  000d4	e8 00 00 00 00	 call	 ?_Tidy_deallocate@?$basic_string@DU?$char_traits@D@std@@V?$allocator@D@2@@std@@AAEXXZ ; std::basic_string<char,std::char_traits<char>,std::allocator<char> >::_Tidy_deallocate

; 1286 :                 _CSTD memcpy(_My_data_mem, _Right_data_mem, _Memcpy_val_size);

  000d9	0f 10 07	 movups	 xmm0, XMMWORD PTR [edi]
  000dc	0f 11 43 30	 movups	 XMMWORD PTR [ebx+48], xmm0
  000e0	f3 0f 7e 47 10	 movq	 xmm0, QWORD PTR [edi+16]
  000e5	66 0f d6 43 40	 movq	 QWORD PTR [ebx+64], xmm0

; 1287 : 
; 1288 :                 _Right_data._Mysize = 0;

  000ea	c7 46 48 00 00
	00 00		 mov	 DWORD PTR [esi+72], 0

; 1289 :                 _Right_data._Myres  = _Small_string_capacity;

  000f1	c7 46 4c 0f 00
	00 00		 mov	 DWORD PTR [esi+76], 15	; 0000000fH

; 1290 :                 _Right_data._Activate_SSO_buffer();
; 1291 :                 _Traits::assign(_Right_data._Bx._Buf[0], _Elem());

  000f8	c6 07 00	 mov	 BYTE PTR [edi], 0
$LN88@erase:
  000fb	8b 46 50	 mov	 eax, DWORD PTR [esi+80]
  000fe	89 43 48	 mov	 DWORD PTR [ebx+72], eax
  00101	8b 46 54	 mov	 eax, DWORD PTR [esi+84]
  00104	89 43 4c	 mov	 DWORD PTR [ebx+76], eax
  00107	8b 46 58	 mov	 eax, DWORD PTR [esi+88]
; File C:\Program Files\Microsoft Visual Studio\2022\Community\VC\Tools\MSVC\14.44.35207\include\xutility

; 5151 :         for (; _First != _Last; ++_Dest, (void) ++_First) {

  0010a	83 c6 70	 add	 esi, 112		; 00000070H
  0010d	89 43 50	 mov	 DWORD PTR [ebx+80], eax
  00110	83 c3 70	 add	 ebx, 112		; 00000070H
  00113	8b 45 fc	 mov	 eax, DWORD PTR __First$1$[ebp]
  00116	83 c0 70	 add	 eax, 112		; 00000070H
  00119	89 45 fc	 mov	 DWORD PTR __First$1$[ebp], eax
  0011c	3b 45 f8	 cmp	 eax, DWORD PTR __Last$1$[ebp]
  0011f	0f 85 0b ff ff
	ff		 jne	 $LL7@erase
  00125	8b 5d f4	 mov	 ebx, DWORD PTR _this$1$[ebp]
  00128	5f		 pop	 edi
$LN6@erase:
; File C:\Program Files\Microsoft Visual Studio\2022\Community\VC\Tools\MSVC\14.44.35207\include\vector

; 1776 :         _Alty_traits::destroy(_Getal(), _Unfancy(_Mylast - 1));

  00129	8b 73 04	 mov	 esi, DWORD PTR [ebx+4]
  0012c	8d 4e dc	 lea	 ecx, DWORD PTR [esi-36]
; File C:\Program Files\Microsoft Visual Studio\2022\Community\VC\Tools\MSVC\14.44.35207\include\xstring

; 1383 :         _Tidy_deallocate();

  0012f	e8 00 00 00 00	 call	 ?_Tidy_deallocate@?$basic_string@DU?$char_traits@D@std@@V?$allocator@D@2@@std@@AAEXXZ ; std::basic_string<char,std::char_traits<char>,std::allocator<char> >::_Tidy_deallocate
  00134	8d 4e c4	 lea	 ecx, DWORD PTR [esi-60]
  00137	e8 00 00 00 00	 call	 ?_Tidy_deallocate@?$basic_string@DU?$char_traits@D@std@@V?$allocator@D@2@@std@@AAEXXZ ; std::basic_string<char,std::char_traits<char>,std::allocator<char> >::_Tidy_deallocate
  0013c	8d 4e ac	 lea	 ecx, DWORD PTR [esi-84]
  0013f	e8 00 00 00 00	 call	 ?_Tidy_deallocate@?$basic_string@DU?$char_traits@D@std@@V?$allocator@D@2@@std@@AAEXXZ ; std::basic_string<char,std::char_traits<char>,std::allocator<char> >::_Tidy_deallocate
  00144	8d 4e 94	 lea	 ecx, DWORD PTR [esi-108]
  00147	e8 00 00 00 00	 call	 ?_Tidy_deallocate@?$basic_string@DU?$char_traits@D@std@@V?$allocator@D@2@@std@@AAEXXZ ; std::basic_string<char,std::char_traits<char>,std::allocator<char> >::_Tidy_deallocate
; File C:\Program Files\Microsoft Visual Studio\2022\Community\VC\Tools\MSVC\14.44.35207\include\vector

; 46   :     _CONSTEXPR20 _Vector_const_iterator(_Tptr _Parg, const _Container_base* _Pvector) noexcept : _Ptr(_Parg) {

  0014c	8b 45 08	 mov	 eax, DWORD PTR ___$ReturnUdt$[ebp]

; 1777 :         _ASAN_VECTOR_MODIFY(-1);
; 1778 :         --_Mylast;

  0014f	83 43 04 90	 add	 DWORD PTR [ebx+4], -112	; ffffff90H

; 46   :     _CONSTEXPR20 _Vector_const_iterator(_Tptr _Parg, const _Container_base* _Pvector) noexcept : _Ptr(_Parg) {

  00153	8b 4d f0	 mov	 ecx, DWORD PTR __Whereptr$1$[ebp]

; 1779 :         return iterator(_Whereptr, _STD addressof(_My_data));

  00156	5e		 pop	 esi

; 46   :     _CONSTEXPR20 _Vector_const_iterator(_Tptr _Parg, const _Container_base* _Pvector) noexcept : _Ptr(_Parg) {

  00157	89 08		 mov	 DWORD PTR [eax], ecx

; 1779 :         return iterator(_Whereptr, _STD addressof(_My_data));

  00159	5b		 pop	 ebx

; 1780 :     }

  0015a	8b e5		 mov	 esp, ebp
  0015c	5d		 pop	 ebp
  0015d	c2 08 00	 ret	 8
?erase@?$vector@USQuestInstance@CPythonQuest@@V?$allocator@USQuestInstance@CPythonQuest@@@std@@@std@@QAE?AV?$_Vector_iterator@V?$_Vector_val@U?$_Simple_types@USQuestInstance@CPythonQuest@@@std@@@std@@@2@V?$_Vector_const_iterator@V?$_Vector_val@U?$_Simple_types@USQuestInstance@CPythonQuest@@@std@@@std@@@2@@Z ENDP ; std::vector<CPythonQuest::SQuestInstance,std::allocator<CPythonQuest::SQuestInstance> >::erase
_TEXT	ENDS
; Function compile flags: /Ogtp
; File C:\Program Files\Microsoft Visual Studio\2022\Community\VC\Tools\MSVC\14.44.35207\include\vector
;	COMDAT ?push_back@?$vector@USQuestInstance@CPythonQuest@@V?$allocator@USQuestInstance@CPythonQuest@@@std@@@std@@QAEX$$QAUSQuestInstance@CPythonQuest@@@Z
_TEXT	SEGMENT
__Val$ = 8						; size = 4
?push_back@?$vector@USQuestInstance@CPythonQuest@@V?$allocator@USQuestInstance@CPythonQuest@@@std@@@std@@QAEX$$QAUSQuestInstance@CPythonQuest@@@Z PROC ; std::vector<CPythonQuest::SQuestInstance,std::allocator<CPythonQuest::SQuestInstance> >::push_back, COMDAT
; _this$ = ecx

; 936  :     _CONSTEXPR20 void push_back(_Ty&& _Val) {

  00000	55		 push	 ebp
  00001	8b ec		 mov	 ebp, esp
  00003	56		 push	 esi

; 844  :         if (_Mylast != _My_data._Myend) {

  00004	ff 75 08	 push	 DWORD PTR __Val$[ebp]

; 936  :     _CONSTEXPR20 void push_back(_Ty&& _Val) {

  00007	8b f1		 mov	 esi, ecx

; 844  :         if (_Mylast != _My_data._Myend) {

  00009	8b 4e 04	 mov	 ecx, DWORD PTR [esi+4]
  0000c	3b 4e 08	 cmp	 ecx, DWORD PTR [esi+8]
  0000f	74 0e		 je	 SHORT $LN4@push_back

; 869  :         ++_Mylast;

  00011	e8 00 00 00 00	 call	 ??0SQuestInstance@CPythonQuest@@QAE@$$QAU01@@Z
  00016	83 46 04 70	 add	 DWORD PTR [esi+4], 112	; 00000070H
  0001a	5e		 pop	 esi

; 937  :         // insert by moving into element at end, provide strong guarantee
; 938  :         _Emplace_one_at_back(_STD move(_Val));
; 939  :     }

  0001b	5d		 pop	 ebp
  0001c	c2 04 00	 ret	 4
$LN4@push_back:

; 848  :         return *_Emplace_reallocate(_Mylast, _STD forward<_Valty>(_Val)...);

  0001f	51		 push	 ecx
  00020	8b ce		 mov	 ecx, esi
  00022	e8 00 00 00 00	 call	 ??$_Emplace_reallocate@USQuestInstance@CPythonQuest@@@?$vector@USQuestInstance@CPythonQuest@@V?$allocator@USQuestInstance@CPythonQuest@@@std@@@std@@AAEPAUSQuestInstance@CPythonQuest@@QAU23@$$QAU23@@Z ; std::vector<CPythonQuest::SQuestInstance,std::allocator<CPythonQuest::SQuestInstance> >::_Emplace_reallocate<CPythonQuest::SQuestInstance>
  00027	5e		 pop	 esi

; 937  :         // insert by moving into element at end, provide strong guarantee
; 938  :         _Emplace_one_at_back(_STD move(_Val));
; 939  :     }

  00028	5d		 pop	 ebp
  00029	c2 04 00	 ret	 4
?push_back@?$vector@USQuestInstance@CPythonQuest@@V?$allocator@USQuestInstance@CPythonQuest@@@std@@@std@@QAEX$$QAUSQuestInstance@CPythonQuest@@@Z ENDP ; std::vector<CPythonQuest::SQuestInstance,std::allocator<CPythonQuest::SQuestInstance> >::push_back
_TEXT	ENDS
; Function compile flags: /Ogtp
; File C:\Program Files\Microsoft Visual Studio\2022\Community\VC\Tools\MSVC\14.44.35207\include\vector
;	COMDAT ?push_back@?$vector@USQuestInstance@CPythonQuest@@V?$allocator@USQuestInstance@CPythonQuest@@@std@@@std@@QAEXABUSQuestInstance@CPythonQuest@@@Z
_TEXT	SEGMENT
__Val$ = 8						; size = 4
?push_back@?$vector@USQuestInstance@CPythonQuest@@V?$allocator@USQuestInstance@CPythonQuest@@@std@@@std@@QAEXABUSQuestInstance@CPythonQuest@@@Z PROC ; std::vector<CPythonQuest::SQuestInstance,std::allocator<CPythonQuest::SQuestInstance> >::push_back, COMDAT
; _this$ = ecx

; 932  :     _CONSTEXPR20 void push_back(const _Ty& _Val) { // insert element at end, provide strong guarantee

  00000	55		 push	 ebp
  00001	8b ec		 mov	 ebp, esp
  00003	56		 push	 esi

; 844  :         if (_Mylast != _My_data._Myend) {

  00004	ff 75 08	 push	 DWORD PTR __Val$[ebp]

; 932  :     _CONSTEXPR20 void push_back(const _Ty& _Val) { // insert element at end, provide strong guarantee

  00007	8b f1		 mov	 esi, ecx

; 844  :         if (_Mylast != _My_data._Myend) {

  00009	8b 46 04	 mov	 eax, DWORD PTR [esi+4]
  0000c	3b 46 08	 cmp	 eax, DWORD PTR [esi+8]
  0000f	74 13		 je	 SHORT $LN4@push_back

; 863  :             _Alty_traits::construct(_Getal(), _Unfancy(_Mylast), _STD forward<_Valty>(_Val)...);

  00011	8b d0		 mov	 edx, eax
  00013	e8 00 00 00 00	 call	 ??$construct@USQuestInstance@CPythonQuest@@ABU12@@?$_Default_allocator_traits@V?$allocator@USQuestInstance@CPythonQuest@@@std@@@std@@SAXAAV?$allocator@USQuestInstance@CPythonQuest@@@1@QAUSQuestInstance@CPythonQuest@@ABU34@@Z ; std::_Default_allocator_traits<std::allocator<CPythonQuest::SQuestInstance> >::construct<CPythonQuest::SQuestInstance,CPythonQuest::SQuestInstance const &>
  00018	83 c4 04	 add	 esp, 4

; 864  :             _ASAN_VECTOR_RELEASE_GUARD;
; 865  :         }
; 866  : 
; 867  :         _Orphan_range(_Mylast, _Mylast);
; 868  :         _Ty& _Result = *_Mylast;
; 869  :         ++_Mylast;

  0001b	83 46 04 70	 add	 DWORD PTR [esi+4], 112	; 00000070H
  0001f	5e		 pop	 esi

; 933  :         _Emplace_one_at_back(_Val);
; 934  :     }

  00020	5d		 pop	 ebp
  00021	c2 04 00	 ret	 4
$LN4@push_back:

; 848  :         return *_Emplace_reallocate(_Mylast, _STD forward<_Valty>(_Val)...);

  00024	50		 push	 eax
  00025	e8 00 00 00 00	 call	 ??$_Emplace_reallocate@ABUSQuestInstance@CPythonQuest@@@?$vector@USQuestInstance@CPythonQuest@@V?$allocator@USQuestInstance@CPythonQuest@@@std@@@std@@AAEPAUSQuestInstance@CPythonQuest@@QAU23@ABU23@@Z ; std::vector<CPythonQuest::SQuestInstance,std::allocator<CPythonQuest::SQuestInstance> >::_Emplace_reallocate<CPythonQuest::SQuestInstance const &>
  0002a	5e		 pop	 esi

; 933  :         _Emplace_one_at_back(_Val);
; 934  :     }

  0002b	5d		 pop	 ebp
  0002c	c2 04 00	 ret	 4
?push_back@?$vector@USQuestInstance@CPythonQuest@@V?$allocator@USQuestInstance@CPythonQuest@@@std@@@std@@QAEXABUSQuestInstance@CPythonQuest@@@Z ENDP ; std::vector<CPythonQuest::SQuestInstance,std::allocator<CPythonQuest::SQuestInstance> >::push_back
_TEXT	ENDS
; Function compile flags: /Ogtp
; File C:\Program Files\Microsoft Visual Studio\2022\Community\VC\Tools\MSVC\14.44.35207\include\vector
; File C:\Program Files\Microsoft Visual Studio\2022\Community\VC\Tools\MSVC\14.44.35207\include\xmemory
; File C:\Program Files\Microsoft Visual Studio\2022\Community\VC\Tools\MSVC\14.44.35207\include\vector
; File C:\Program Files\Microsoft Visual Studio\2022\Community\VC\Tools\MSVC\14.44.35207\include\xmemory
; File C:\Program Files\Microsoft Visual Studio\2022\Community\VC\Tools\MSVC\14.44.35207\include\vector
; File C:\Program Files\Microsoft Visual Studio\2022\Community\VC\Tools\MSVC\14.44.35207\include\xmemory
; File C:\Program Files\Microsoft Visual Studio\2022\Community\VC\Tools\MSVC\14.44.35207\include\vector
;	COMDAT ??1?$vector@USQuestInstance@CPythonQuest@@V?$allocator@USQuestInstance@CPythonQuest@@@std@@@std@@QAE@XZ
_TEXT	SEGMENT
??1?$vector@USQuestInstance@CPythonQuest@@V?$allocator@USQuestInstance@CPythonQuest@@@std@@@std@@QAE@XZ PROC ; std::vector<CPythonQuest::SQuestInstance,std::allocator<CPythonQuest::SQuestInstance> >::~vector<CPythonQuest::SQuestInstance,std::allocator<CPythonQuest::SQuestInstance> >, COMDAT
; _this$ = ecx

; 829  :     _CONSTEXPR20 ~vector() noexcept {

  00000	56		 push	 esi
  00001	8b f1		 mov	 esi, ecx

; 2090 :         if (_Myfirst) { // destroy and deallocate old array

  00003	8b 0e		 mov	 ecx, DWORD PTR [esi]
  00005	85 c9		 test	 ecx, ecx
  00007	74 59		 je	 SHORT $LN5@vector

; 2091 :             _STD _Destroy_range(_Myfirst, _Mylast, _Al);

  00009	8b 56 04	 mov	 edx, DWORD PTR [esi+4]
  0000c	51		 push	 ecx
  0000d	e8 00 00 00 00	 call	 ??$_Destroy_range@V?$allocator@USQuestInstance@CPythonQuest@@@std@@@std@@YAXPAUSQuestInstance@CPythonQuest@@QAU12@AAV?$allocator@USQuestInstance@CPythonQuest@@@0@@Z ; std::_Destroy_range<std::allocator<CPythonQuest::SQuestInstance> >

; 2092 :             _ASAN_VECTOR_REMOVE;
; 2093 :             _Al.deallocate(_Myfirst, static_cast<size_type>(_Myend - _Myfirst));

  00012	8b 46 08	 mov	 eax, DWORD PTR [esi+8]
  00015	83 c4 04	 add	 esp, 4
  00018	8b 0e		 mov	 ecx, DWORD PTR [esi]
  0001a	2b c1		 sub	 eax, ecx
  0001c	c1 f8 04	 sar	 eax, 4
  0001f	69 c0 b7 6d db
	b6		 imul	 eax, eax, -1227133513
; File C:\Program Files\Microsoft Visual Studio\2022\Community\VC\Tools\MSVC\14.44.35207\include\xmemory

; 985  :         _STD _Deallocate<_New_alignof<_Ty>>(_Ptr, sizeof(_Ty) * _Count);

  00025	6b d0 70	 imul	 edx, eax, 112

; 284  :         if (_Bytes >= _Big_allocation_threshold) {

  00028	81 fa 00 10 00
	00		 cmp	 edx, 4096		; 00001000H
  0002e	72 14		 jb	 SHORT $LN19@vector
  00030	57		 push	 edi

; 205  :     const uintptr_t _Ptr_container   = _Ptr_user[-1];

  00031	8b 79 fc	 mov	 edi, DWORD PTR [ecx-4]
  00034	83 c2 23	 add	 edx, 35			; 00000023H

; 206  : 
; 207  :     // If the following asserts, it likely means that we are performing
; 208  :     // an aligned delete on memory coming from an unaligned allocation.
; 209  :     _STL_ASSERT(_Ptr_user[-2] == _Big_allocation_sentinel, "invalid argument");
; 210  : 
; 211  :     // Extra paranoia on aligned allocation/deallocation; ensure _Ptr_container is
; 212  :     // in range [_Min_back_shift, _Non_user_size]
; 213  : #ifdef _DEBUG
; 214  :     constexpr uintptr_t _Min_back_shift = 2 * sizeof(void*);
; 215  : #else // ^^^ defined(_DEBUG) / !defined(_DEBUG) vvv
; 216  :     constexpr uintptr_t _Min_back_shift = sizeof(void*);
; 217  : #endif // ^^^ !defined(_DEBUG) ^^^
; 218  :     const uintptr_t _Back_shift = reinterpret_cast<uintptr_t>(_Ptr) - _Ptr_container;

  00037	2b cf		 sub	 ecx, edi

; 219  :     _STL_VERIFY(_Back_shift >= _Min_back_shift && _Back_shift <= _Non_user_size, "invalid argument");

  00039	8d 41 fc	 lea	 eax, DWORD PTR [ecx-4]
  0003c	83 f8 1f	 cmp	 eax, 31			; 0000001fH
  0003f	77 23		 ja	 SHORT $LN18@vector

; 220  :     _Ptr = reinterpret_cast<void*>(_Ptr_container);

  00041	8b cf		 mov	 ecx, edi
  00043	5f		 pop	 edi
$LN19@vector:

; 289  :         ::operator delete(_Ptr, _Bytes);

  00044	52		 push	 edx
  00045	51		 push	 ecx
  00046	e8 00 00 00 00	 call	 ??3@YAXPAXI@Z		; operator delete
; File C:\Program Files\Microsoft Visual Studio\2022\Community\VC\Tools\MSVC\14.44.35207\include\vector

; 2095 :             _Myfirst = nullptr;

  0004b	c7 06 00 00 00
	00		 mov	 DWORD PTR [esi], 0
; File C:\Program Files\Microsoft Visual Studio\2022\Community\VC\Tools\MSVC\14.44.35207\include\xmemory

; 289  :         ::operator delete(_Ptr, _Bytes);

  00051	83 c4 08	 add	 esp, 8
; File C:\Program Files\Microsoft Visual Studio\2022\Community\VC\Tools\MSVC\14.44.35207\include\vector

; 2096 :             _Mylast  = nullptr;

  00054	c7 46 04 00 00
	00 00		 mov	 DWORD PTR [esi+4], 0

; 2097 :             _Myend   = nullptr;

  0005b	c7 46 08 00 00
	00 00		 mov	 DWORD PTR [esi+8], 0
$LN5@vector:
  00062	5e		 pop	 esi

; 835  :     }

  00063	c3		 ret	 0
$LN18@vector:
; File C:\Program Files\Microsoft Visual Studio\2022\Community\VC\Tools\MSVC\14.44.35207\include\xmemory

; 219  :     _STL_VERIFY(_Back_shift >= _Min_back_shift && _Back_shift <= _Non_user_size, "invalid argument");

  00064	6a 00		 push	 0
  00066	6a 00		 push	 0
  00068	6a 00		 push	 0
  0006a	6a 00		 push	 0
  0006c	6a 00		 push	 0
  0006e	e8 00 00 00 00	 call	 __invoke_watson
$LN27@vector:
  00073	cc		 int	 3
??1?$vector@USQuestInstance@CPythonQuest@@V?$allocator@USQuestInstance@CPythonQuest@@@std@@@std@@QAE@XZ ENDP ; std::vector<CPythonQuest::SQuestInstance,std::allocator<CPythonQuest::SQuestInstance> >::~vector<CPythonQuest::SQuestInstance,std::allocator<CPythonQuest::SQuestInstance> >
_TEXT	ENDS
; Function compile flags: /Ogtp
; File C:\Program Files\Microsoft Visual Studio\2022\Community\VC\Tools\MSVC\14.44.35207\include\vector
;	COMDAT ??0?$vector@USQuestInstance@CPythonQuest@@V?$allocator@USQuestInstance@CPythonQuest@@@std@@@std@@QAE@XZ
_TEXT	SEGMENT
??0?$vector@USQuestInstance@CPythonQuest@@V?$allocator@USQuestInstance@CPythonQuest@@@std@@@std@@QAE@XZ PROC ; std::vector<CPythonQuest::SQuestInstance,std::allocator<CPythonQuest::SQuestInstance> >::vector<CPythonQuest::SQuestInstance,std::allocator<CPythonQuest::SQuestInstance> >, COMDAT
; _this$ = ecx

; 400  :     _CONSTEXPR20 _Vector_val() noexcept : _Myfirst(), _Mylast(), _Myend() {}

  00000	c7 01 00 00 00
	00		 mov	 DWORD PTR [ecx], 0

; 671  :         _Mypair._Myval2._Alloc_proxy(_GET_PROXY_ALLOCATOR(_Alty, _Getal()));
; 672  :     }

  00006	8b c1		 mov	 eax, ecx

; 400  :     _CONSTEXPR20 _Vector_val() noexcept : _Myfirst(), _Mylast(), _Myend() {}

  00008	c7 41 04 00 00
	00 00		 mov	 DWORD PTR [ecx+4], 0
  0000f	c7 41 08 00 00
	00 00		 mov	 DWORD PTR [ecx+8], 0

; 671  :         _Mypair._Myval2._Alloc_proxy(_GET_PROXY_ALLOCATOR(_Alty, _Getal()));
; 672  :     }

  00016	c3		 ret	 0
??0?$vector@USQuestInstance@CPythonQuest@@V?$allocator@USQuestInstance@CPythonQuest@@@std@@@std@@QAE@XZ ENDP ; std::vector<CPythonQuest::SQuestInstance,std::allocator<CPythonQuest::SQuestInstance> >::vector<CPythonQuest::SQuestInstance,std::allocator<CPythonQuest::SQuestInstance> >
_TEXT	ENDS
; Function compile flags: /Ogtp
; File D:\_m2work\Server Client TMP4\ClientVS22\source\eterBase\Singleton.h
;	COMDAT ??1?$CSingleton@VCPythonQuest@@@@UAE@XZ
_TEXT	SEGMENT
??1?$CSingleton@VCPythonQuest@@@@UAE@XZ PROC		; CSingleton<CPythonQuest>::~CSingleton<CPythonQuest>, COMDAT
; _this$ = ecx

; 19   : 	{ 

  00000	c7 01 00 00 00
	00		 mov	 DWORD PTR [ecx], OFFSET ??_7?$CSingleton@VCPythonQuest@@@@6B@

; 20   : 		assert(ms_singleton);
; 21   : 		ms_singleton = 0; 

  00006	c7 05 00 00 00
	00 00 00 00 00	 mov	 DWORD PTR ?ms_singleton@?$CSingleton@VCPythonQuest@@@@0PAVCPythonQuest@@A, 0 ; CSingleton<CPythonQuest>::ms_singleton

; 22   : 	}

  00010	c3		 ret	 0
??1?$CSingleton@VCPythonQuest@@@@UAE@XZ ENDP		; CSingleton<CPythonQuest>::~CSingleton<CPythonQuest>
_TEXT	ENDS
; Function compile flags: /Ogtp
; File D:\_m2work\Server Client TMP4\ClientVS22\source\eterBase\Singleton.h
;	COMDAT ??0?$CSingleton@VCPythonQuest@@@@QAE@XZ
_TEXT	SEGMENT
??0?$CSingleton@VCPythonQuest@@@@QAE@XZ PROC		; CSingleton<CPythonQuest>::CSingleton<CPythonQuest>, COMDAT
; _this$ = ecx

; 12   : 	{ 

  00000	c7 01 00 00 00
	00		 mov	 DWORD PTR [ecx], OFFSET ??_7?$CSingleton@VCPythonQuest@@@@6B@

; 13   : 		assert(!ms_singleton);
; 14   : 		int offset = (int) (T*) 1 - (int) (CSingleton <T>*) (T*) 1; 
; 15   : 		ms_singleton = (T*) ((int) this + offset);
; 16   : 	} 

  00006	8b c1		 mov	 eax, ecx
  00008	89 0d 00 00 00
	00		 mov	 DWORD PTR ?ms_singleton@?$CSingleton@VCPythonQuest@@@@0PAVCPythonQuest@@A, ecx ; CSingleton<CPythonQuest>::ms_singleton
  0000e	c3		 ret	 0
??0?$CSingleton@VCPythonQuest@@@@QAE@XZ ENDP		; CSingleton<CPythonQuest>::CSingleton<CPythonQuest>
_TEXT	ENDS
; Function compile flags: /Ogtp
; File D:\_m2work\Server Client TMP4\ClientVS22\source\eterBase\Singleton.h
;	COMDAT ??_G?$CSingleton@VCPythonQuest@@@@UAEPAXI@Z
_TEXT	SEGMENT
___flags$ = 8						; size = 4
??_G?$CSingleton@VCPythonQuest@@@@UAEPAXI@Z PROC	; CSingleton<CPythonQuest>::`scalar deleting destructor', COMDAT
; _this$ = ecx
  00000	55		 push	 ebp
  00001	8b ec		 mov	 ebp, esp
  00003	f6 45 08 01	 test	 BYTE PTR ___flags$[ebp], 1

; 19   : 	{ 

  00007	56		 push	 esi
  00008	8b f1		 mov	 esi, ecx

; 20   : 		assert(ms_singleton);
; 21   : 		ms_singleton = 0; 

  0000a	c7 05 00 00 00
	00 00 00 00 00	 mov	 DWORD PTR ?ms_singleton@?$CSingleton@VCPythonQuest@@@@0PAVCPythonQuest@@A, 0 ; CSingleton<CPythonQuest>::ms_singleton
  00014	c7 06 00 00 00
	00		 mov	 DWORD PTR [esi], OFFSET ??_7?$CSingleton@VCPythonQuest@@@@6B@
  0001a	74 0b		 je	 SHORT $LN8@scalar
  0001c	6a 04		 push	 4
  0001e	56		 push	 esi
  0001f	e8 00 00 00 00	 call	 ??3@YAXPAXI@Z		; operator delete
  00024	83 c4 08	 add	 esp, 8
$LN8@scalar:
  00027	8b c6		 mov	 eax, esi
  00029	5e		 pop	 esi
  0002a	5d		 pop	 ebp
  0002b	c2 04 00	 ret	 4
??_G?$CSingleton@VCPythonQuest@@@@UAEPAXI@Z ENDP	; CSingleton<CPythonQuest>::`scalar deleting destructor'
_TEXT	ENDS
; Function compile flags: /Ogtp
; File C:\Program Files\Microsoft Visual Studio\2022\Community\VC\Tools\MSVC\14.44.35207\include\xutility
;	COMDAT ??$_Adl_verify_range@V?$_Vector_iterator@V?$_Vector_val@U?$_Simple_types@USQuestInstance@CPythonQuest@@@std@@@std@@@std@@V12@@std@@YAXABV?$_Vector_iterator@V?$_Vector_val@U?$_Simple_types@USQuestInstance@CPythonQuest@@@std@@@std@@@0@0@Z
_TEXT	SEGMENT
??$_Adl_verify_range@V?$_Vector_iterator@V?$_Vector_val@U?$_Simple_types@USQuestInstance@CPythonQuest@@@std@@@std@@@std@@V12@@std@@YAXABV?$_Vector_iterator@V?$_Vector_val@U?$_Simple_types@USQuestInstance@CPythonQuest@@@std@@@std@@@0@0@Z PROC ; std::_Adl_verify_range<std::_Vector_iterator<std::_Vector_val<std::_Simple_types<CPythonQuest::SQuestInstance> > >,std::_Vector_iterator<std::_Vector_val<std::_Simple_types<CPythonQuest::SQuestInstance> > > >, COMDAT
; __First$dead$ = ecx
; __Last$dead$ = edx

; 1353 :     // check that [_First, _Last) forms an iterator range
; 1354 :     if constexpr (is_pointer_v<_Iter> && is_pointer_v<_Sentinel>) {
; 1355 : #if _ITERATOR_DEBUG_LEVEL != 0
; 1356 :         _STL_VERIFY(_First <= _Last, "transposed pointer range");
; 1357 : #endif // _ITERATOR_DEBUG_LEVEL != 0
; 1358 :     } else if constexpr (_Range_verifiable_v<_Iter, _Sentinel>) {
; 1359 :         _Verify_range(_First, _Last);
; 1360 :     }
; 1361 : }

  00000	c2 00 00	 ret	 0
??$_Adl_verify_range@V?$_Vector_iterator@V?$_Vector_val@U?$_Simple_types@USQuestInstance@CPythonQuest@@@std@@@std@@@std@@V12@@std@@YAXABV?$_Vector_iterator@V?$_Vector_val@U?$_Simple_types@USQuestInstance@CPythonQuest@@@std@@@std@@@0@0@Z ENDP ; std::_Adl_verify_range<std::_Vector_iterator<std::_Vector_val<std::_Simple_types<CPythonQuest::SQuestInstance> > >,std::_Vector_iterator<std::_Vector_val<std::_Simple_types<CPythonQuest::SQuestInstance> > > >
_TEXT	ENDS
; Function compile flags: /Ogtp
; File C:\Program Files\Microsoft Visual Studio\2022\Community\VC\Tools\MSVC\14.44.35207\include\xmemory
;	COMDAT ??$_Unfancy_maybe_null@USQuestInstance@CPythonQuest@@@std@@YAPAUSQuestInstance@CPythonQuest@@PAU12@@Z
_TEXT	SEGMENT
??$_Unfancy_maybe_null@USQuestInstance@CPythonQuest@@@std@@YAPAUSQuestInstance@CPythonQuest@@PAU12@@Z PROC ; std::_Unfancy_maybe_null<CPythonQuest::SQuestInstance>, COMDAT
; __Ptr$ = ecx

; 80   :     return _Ptr;

  00000	8b c1		 mov	 eax, ecx

; 81   : }

  00002	c3		 ret	 0
??$_Unfancy_maybe_null@USQuestInstance@CPythonQuest@@@std@@YAPAUSQuestInstance@CPythonQuest@@PAU12@@Z ENDP ; std::_Unfancy_maybe_null<CPythonQuest::SQuestInstance>
_TEXT	ENDS
; Function compile flags: /Ogtp
; File C:\Program Files\Microsoft Visual Studio\2022\Community\VC\Tools\MSVC\14.44.35207\include\xutility
;	COMDAT ??$_Seek_wrapped@V?$_Vector_iterator@V?$_Vector_val@U?$_Simple_types@USQuestInstance@CPythonQuest@@@std@@@std@@@std@@AAPAUSQuestInstance@CPythonQuest@@@std@@YAXAAV?$_Vector_iterator@V?$_Vector_val@U?$_Simple_types@USQuestInstance@CPythonQuest@@@std@@@std@@@0@AAPAUSQuestInstance@CPythonQuest@@@Z
_TEXT	SEGMENT
??$_Seek_wrapped@V?$_Vector_iterator@V?$_Vector_val@U?$_Simple_types@USQuestInstance@CPythonQuest@@@std@@@std@@@std@@AAPAUSQuestInstance@CPythonQuest@@@std@@YAXAAV?$_Vector_iterator@V?$_Vector_val@U?$_Simple_types@USQuestInstance@CPythonQuest@@@std@@@std@@@0@AAPAUSQuestInstance@CPythonQuest@@@Z PROC ; std::_Seek_wrapped<std::_Vector_iterator<std::_Vector_val<std::_Simple_types<CPythonQuest::SQuestInstance> > >,CPythonQuest::SQuestInstance * &>, COMDAT
; __It$ = ecx
; __UIt$ = edx

; 1478 :     if constexpr (_Wrapped_seekable_v<_Iter, _UIter>) {
; 1479 :         _It._Seek_to(_STD forward<_UIter>(_UIt));

  00000	8b 02		 mov	 eax, DWORD PTR [edx]
  00002	89 01		 mov	 DWORD PTR [ecx], eax

; 1480 :     } else {
; 1481 :         _It = _STD forward<_UIter>(_UIt);
; 1482 :     }
; 1483 : }

  00004	c3		 ret	 0
??$_Seek_wrapped@V?$_Vector_iterator@V?$_Vector_val@U?$_Simple_types@USQuestInstance@CPythonQuest@@@std@@@std@@@std@@AAPAUSQuestInstance@CPythonQuest@@@std@@YAXAAV?$_Vector_iterator@V?$_Vector_val@U?$_Simple_types@USQuestInstance@CPythonQuest@@@std@@@std@@@0@AAPAUSQuestInstance@CPythonQuest@@@Z ENDP ; std::_Seek_wrapped<std::_Vector_iterator<std::_Vector_val<std::_Simple_types<CPythonQuest::SQuestInstance> > >,CPythonQuest::SQuestInstance * &>
_TEXT	ENDS
; Function compile flags: /Ogtp
; File C:\Program Files\Microsoft Visual Studio\2022\Community\VC\Tools\MSVC\14.44.35207\include\type_traits
;	COMDAT ??$addressof@V?$_Vector_val@U?$_Simple_types@USQuestInstance@CPythonQuest@@@std@@@std@@@std@@YAPAV?$_Vector_val@U?$_Simple_types@USQuestInstance@CPythonQuest@@@std@@@0@AAV10@@Z
_TEXT	SEGMENT
??$addressof@V?$_Vector_val@U?$_Simple_types@USQuestInstance@CPythonQuest@@@std@@@std@@@std@@YAPAV?$_Vector_val@U?$_Simple_types@USQuestInstance@CPythonQuest@@@std@@@0@AAV10@@Z PROC ; std::addressof<std::_Vector_val<std::_Simple_types<CPythonQuest::SQuestInstance> > >, COMDAT
; __Val$ = ecx

; 1525 :     return __builtin_addressof(_Val);

  00000	8b c1		 mov	 eax, ecx

; 1526 : }

  00002	c3		 ret	 0
??$addressof@V?$_Vector_val@U?$_Simple_types@USQuestInstance@CPythonQuest@@@std@@@std@@@std@@YAPAV?$_Vector_val@U?$_Simple_types@USQuestInstance@CPythonQuest@@@std@@@0@AAV10@@Z ENDP ; std::addressof<std::_Vector_val<std::_Simple_types<CPythonQuest::SQuestInstance> > >
_TEXT	ENDS
; Function compile flags: /Ogtp
; File C:\Program Files\Microsoft Visual Studio\2022\Community\VC\Tools\MSVC\14.44.35207\include\xmemory
; File C:\Program Files\Microsoft Visual Studio\2022\Community\VC\Tools\MSVC\14.44.35207\include\xstring
; File C:\Program Files\Microsoft Visual Studio\2022\Community\VC\Tools\MSVC\14.44.35207\include\xmemory
;	COMDAT ??$_Destroy_range@V?$allocator@USQuestInstance@CPythonQuest@@@std@@@std@@YAXPAUSQuestInstance@CPythonQuest@@QAU12@AAV?$allocator@USQuestInstance@CPythonQuest@@@0@@Z
_TEXT	SEGMENT
__Al$dead$ = 8						; size = 4
??$_Destroy_range@V?$allocator@USQuestInstance@CPythonQuest@@@std@@@std@@YAXPAUSQuestInstance@CPythonQuest@@QAU12@AAV?$allocator@USQuestInstance@CPythonQuest@@@0@@Z PROC ; std::_Destroy_range<std::allocator<CPythonQuest::SQuestInstance> >, COMDAT
; __First$ = ecx
; __Last$ = edx

; 1098 : _CONSTEXPR20 void _Destroy_range(_Alloc_ptr_t<_Alloc> _First, const _Alloc_ptr_t<_Alloc> _Last, _Alloc& _Al) noexcept {

  00000	57		 push	 edi
  00001	8b fa		 mov	 edi, edx

; 1102 :         for (; _First != _Last; ++_First) {

  00003	3b cf		 cmp	 ecx, edi
  00005	74 33		 je	 SHORT $LN3@Destroy_ra
  00007	56		 push	 esi
  00008	8d 71 34	 lea	 esi, DWORD PTR [ecx+52]
  0000b	0f 1f 44 00 00	 npad	 5
$LL4@Destroy_ra:
; File C:\Program Files\Microsoft Visual Studio\2022\Community\VC\Tools\MSVC\14.44.35207\include\xstring

; 1383 :         _Tidy_deallocate();

  00010	8d 4e 18	 lea	 ecx, DWORD PTR [esi+24]
  00013	e8 00 00 00 00	 call	 ?_Tidy_deallocate@?$basic_string@DU?$char_traits@D@std@@V?$allocator@D@2@@std@@AAEXXZ ; std::basic_string<char,std::char_traits<char>,std::allocator<char> >::_Tidy_deallocate
  00018	8b ce		 mov	 ecx, esi
  0001a	e8 00 00 00 00	 call	 ?_Tidy_deallocate@?$basic_string@DU?$char_traits@D@std@@V?$allocator@D@2@@std@@AAEXXZ ; std::basic_string<char,std::char_traits<char>,std::allocator<char> >::_Tidy_deallocate
  0001f	8d 4e e8	 lea	 ecx, DWORD PTR [esi-24]
  00022	e8 00 00 00 00	 call	 ?_Tidy_deallocate@?$basic_string@DU?$char_traits@D@std@@V?$allocator@D@2@@std@@AAEXXZ ; std::basic_string<char,std::char_traits<char>,std::allocator<char> >::_Tidy_deallocate
  00027	8d 4e d0	 lea	 ecx, DWORD PTR [esi-48]
  0002a	e8 00 00 00 00	 call	 ?_Tidy_deallocate@?$basic_string@DU?$char_traits@D@std@@V?$allocator@D@2@@std@@AAEXXZ ; std::basic_string<char,std::char_traits<char>,std::allocator<char> >::_Tidy_deallocate
; File C:\Program Files\Microsoft Visual Studio\2022\Community\VC\Tools\MSVC\14.44.35207\include\xmemory

; 1102 :         for (; _First != _Last; ++_First) {

  0002f	83 c6 70	 add	 esi, 112		; 00000070H
  00032	8d 46 cc	 lea	 eax, DWORD PTR [esi-52]
  00035	3b c7		 cmp	 eax, edi
  00037	75 d7		 jne	 SHORT $LL4@Destroy_ra
  00039	5e		 pop	 esi
$LN3@Destroy_ra:
  0003a	5f		 pop	 edi

; 1103 :             allocator_traits<_Alloc>::destroy(_Al, _STD _Unfancy(_First));
; 1104 :         }
; 1105 :     }
; 1106 : }

  0003b	c3		 ret	 0
??$_Destroy_range@V?$allocator@USQuestInstance@CPythonQuest@@@std@@@std@@YAXPAUSQuestInstance@CPythonQuest@@QAU12@AAV?$allocator@USQuestInstance@CPythonQuest@@@0@@Z ENDP ; std::_Destroy_range<std::allocator<CPythonQuest::SQuestInstance> >
_TEXT	ENDS
; Function compile flags: /Ogtp
; File C:\Program Files\Microsoft Visual Studio\2022\Community\VC\Tools\MSVC\14.44.35207\include\xutility
; File C:\Program Files\Microsoft Visual Studio\2022\Community\VC\Tools\MSVC\14.44.35207\include\xstring
; File C:\Program Files\Microsoft Visual Studio\2022\Community\VC\Tools\MSVC\14.44.35207\include\xutility
;	COMDAT ??$_Move_unchecked@PAUSQuestInstance@CPythonQuest@@PAU12@@std@@YAPAUSQuestInstance@CPythonQuest@@PAU12@00@Z
_TEXT	SEGMENT
__Last$1$ = -4						; size = 4
__Dest$ = 8						; size = 4
__Dest$1$ = 8						; size = 4
??$_Move_unchecked@PAUSQuestInstance@CPythonQuest@@PAU12@@std@@YAPAUSQuestInstance@CPythonQuest@@PAU12@00@Z PROC ; std::_Move_unchecked<CPythonQuest::SQuestInstance *,CPythonQuest::SQuestInstance *>, COMDAT
; __First$ = ecx
; __Last$ = edx

; 5136 : _CONSTEXPR20 _OutIt _Move_unchecked(_InIt _First, _InIt _Last, _OutIt _Dest) {

  00000	55		 push	 ebp
  00001	8b ec		 mov	 ebp, esp
  00003	51		 push	 ecx
  00004	8b c2		 mov	 eax, edx
  00006	89 45 fc	 mov	 DWORD PTR __Last$1$[ebp], eax

; 5151 :         for (; _First != _Last; ++_Dest, (void) ++_First) {

  00009	3b c8		 cmp	 ecx, eax
  0000b	0f 84 10 01 00
	00		 je	 $LN141@Move_unche
  00011	8b 55 08	 mov	 edx, DWORD PTR __Dest$[ebp]
  00014	53		 push	 ebx
  00015	56		 push	 esi
  00016	57		 push	 edi
  00017	89 55 08	 mov	 DWORD PTR __Dest$1$[ebp], edx
  0001a	8d 5a 1c	 lea	 ebx, DWORD PTR [edx+28]
  0001d	8d 71 14	 lea	 esi, DWORD PTR [ecx+20]
$LL4@Move_unche:
  00020	8b 46 ec	 mov	 eax, DWORD PTR [esi-20]
  00023	89 02		 mov	 DWORD PTR [edx], eax
; File C:\Program Files\Microsoft Visual Studio\2022\Community\VC\Tools\MSVC\14.44.35207\include\xstring

; 1226 :         if (this == _STD addressof(_Right)) {

  00025	8d 46 08	 lea	 eax, DWORD PTR [esi+8]
  00028	3b d8		 cmp	 ebx, eax
  0002a	74 2a		 je	 SHORT $LN16@Move_unche

; 1227 :             return *this;
; 1228 :         }
; 1229 : 
; 1230 :         auto& _Al                 = _Getal();
; 1231 :         auto& _Right_al           = _Right._Getal();
; 1232 :         constexpr auto _Pocma_val = _Choose_pocma_v<_Alty>;
; 1233 :         if constexpr (_Pocma_val == _Pocma_values::_Propagate_allocators) {
; 1234 :             if (_Al != _Right_al) {
; 1235 :                 // intentionally slams into noexcept on OOM, TRANSITION, VSO-466800
; 1236 :                 _Mypair._Myval2._Orphan_all();
; 1237 :                 _Mypair._Myval2._Reload_proxy(_GET_PROXY_ALLOCATOR(_Alty, _Al), _GET_PROXY_ALLOCATOR(_Alty, _Right_al));
; 1238 :             }
; 1239 :         } else if constexpr (_Pocma_val == _Pocma_values::_No_propagate_allocators) {
; 1240 :             if (_Al != _Right_al) {
; 1241 :                 assign(_Right._Mypair._Myval2._Myptr(), _Right._Mypair._Myval2._Mysize);
; 1242 :                 return *this;
; 1243 :             }
; 1244 :         }
; 1245 : 
; 1246 :         _Tidy_deallocate();

  0002c	8d 4b e8	 lea	 ecx, DWORD PTR [ebx-24]
  0002f	e8 00 00 00 00	 call	 ?_Tidy_deallocate@?$basic_string@DU?$char_traits@D@std@@V?$allocator@D@2@@std@@AAEXXZ ; std::basic_string<char,std::char_traits<char>,std::allocator<char> >::_Tidy_deallocate

; 1286 :                 _CSTD memcpy(_My_data_mem, _Right_data_mem, _Memcpy_val_size);

  00034	0f 10 46 f0	 movups	 xmm0, XMMWORD PTR [esi-16]
  00038	0f 11 43 e8	 movups	 XMMWORD PTR [ebx-24], xmm0
  0003c	f3 0f 7e 06	 movq	 xmm0, QWORD PTR [esi]
  00040	66 0f d6 43 f8	 movq	 QWORD PTR [ebx-8], xmm0

; 1287 : 
; 1288 :                 _Right_data._Mysize = 0;

  00045	c7 06 00 00 00
	00		 mov	 DWORD PTR [esi], 0

; 1289 :                 _Right_data._Myres  = _Small_string_capacity;

  0004b	c7 46 04 0f 00
	00 00		 mov	 DWORD PTR [esi+4], 15	; 0000000fH

; 1290 :                 _Right_data._Activate_SSO_buffer();
; 1291 :                 _Traits::assign(_Right_data._Bx._Buf[0], _Elem());

  00052	c6 46 f0 00	 mov	 BYTE PTR [esi-16], 0
$LN16@Move_unche:

; 1226 :         if (this == _STD addressof(_Right)) {

  00056	8d 7e 08	 lea	 edi, DWORD PTR [esi+8]
  00059	3b df		 cmp	 ebx, edi
  0005b	74 28		 je	 SHORT $LN39@Move_unche

; 1227 :             return *this;
; 1228 :         }
; 1229 : 
; 1230 :         auto& _Al                 = _Getal();
; 1231 :         auto& _Right_al           = _Right._Getal();
; 1232 :         constexpr auto _Pocma_val = _Choose_pocma_v<_Alty>;
; 1233 :         if constexpr (_Pocma_val == _Pocma_values::_Propagate_allocators) {
; 1234 :             if (_Al != _Right_al) {
; 1235 :                 // intentionally slams into noexcept on OOM, TRANSITION, VSO-466800
; 1236 :                 _Mypair._Myval2._Orphan_all();
; 1237 :                 _Mypair._Myval2._Reload_proxy(_GET_PROXY_ALLOCATOR(_Alty, _Al), _GET_PROXY_ALLOCATOR(_Alty, _Right_al));
; 1238 :             }
; 1239 :         } else if constexpr (_Pocma_val == _Pocma_values::_No_propagate_allocators) {
; 1240 :             if (_Al != _Right_al) {
; 1241 :                 assign(_Right._Mypair._Myval2._Myptr(), _Right._Mypair._Myval2._Mysize);
; 1242 :                 return *this;
; 1243 :             }
; 1244 :         }
; 1245 : 
; 1246 :         _Tidy_deallocate();

  0005d	8b cb		 mov	 ecx, ebx
  0005f	e8 00 00 00 00	 call	 ?_Tidy_deallocate@?$basic_string@DU?$char_traits@D@std@@V?$allocator@D@2@@std@@AAEXXZ ; std::basic_string<char,std::char_traits<char>,std::allocator<char> >::_Tidy_deallocate

; 1286 :                 _CSTD memcpy(_My_data_mem, _Right_data_mem, _Memcpy_val_size);

  00064	0f 10 07	 movups	 xmm0, XMMWORD PTR [edi]
  00067	0f 11 03	 movups	 XMMWORD PTR [ebx], xmm0
  0006a	f3 0f 7e 47 10	 movq	 xmm0, QWORD PTR [edi+16]
  0006f	66 0f d6 43 10	 movq	 QWORD PTR [ebx+16], xmm0

; 1287 : 
; 1288 :                 _Right_data._Mysize = 0;

  00074	c7 46 18 00 00
	00 00		 mov	 DWORD PTR [esi+24], 0

; 1289 :                 _Right_data._Myres  = _Small_string_capacity;

  0007b	c7 46 1c 0f 00
	00 00		 mov	 DWORD PTR [esi+28], 15	; 0000000fH

; 1290 :                 _Right_data._Activate_SSO_buffer();
; 1291 :                 _Traits::assign(_Right_data._Bx._Buf[0], _Elem());

  00082	c6 07 00	 mov	 BYTE PTR [edi], 0
$LN39@Move_unche:

; 1226 :         if (this == _STD addressof(_Right)) {

  00085	8d 7e 20	 lea	 edi, DWORD PTR [esi+32]
  00088	8d 43 18	 lea	 eax, DWORD PTR [ebx+24]
  0008b	3b c7		 cmp	 eax, edi
  0008d	74 29		 je	 SHORT $LN62@Move_unche

; 1227 :             return *this;
; 1228 :         }
; 1229 : 
; 1230 :         auto& _Al                 = _Getal();
; 1231 :         auto& _Right_al           = _Right._Getal();
; 1232 :         constexpr auto _Pocma_val = _Choose_pocma_v<_Alty>;
; 1233 :         if constexpr (_Pocma_val == _Pocma_values::_Propagate_allocators) {
; 1234 :             if (_Al != _Right_al) {
; 1235 :                 // intentionally slams into noexcept on OOM, TRANSITION, VSO-466800
; 1236 :                 _Mypair._Myval2._Orphan_all();
; 1237 :                 _Mypair._Myval2._Reload_proxy(_GET_PROXY_ALLOCATOR(_Alty, _Al), _GET_PROXY_ALLOCATOR(_Alty, _Right_al));
; 1238 :             }
; 1239 :         } else if constexpr (_Pocma_val == _Pocma_values::_No_propagate_allocators) {
; 1240 :             if (_Al != _Right_al) {
; 1241 :                 assign(_Right._Mypair._Myval2._Myptr(), _Right._Mypair._Myval2._Mysize);
; 1242 :                 return *this;
; 1243 :             }
; 1244 :         }
; 1245 : 
; 1246 :         _Tidy_deallocate();

  0008f	8b c8		 mov	 ecx, eax
  00091	e8 00 00 00 00	 call	 ?_Tidy_deallocate@?$basic_string@DU?$char_traits@D@std@@V?$allocator@D@2@@std@@AAEXXZ ; std::basic_string<char,std::char_traits<char>,std::allocator<char> >::_Tidy_deallocate

; 1286 :                 _CSTD memcpy(_My_data_mem, _Right_data_mem, _Memcpy_val_size);

  00096	0f 10 07	 movups	 xmm0, XMMWORD PTR [edi]
  00099	0f 11 43 18	 movups	 XMMWORD PTR [ebx+24], xmm0
  0009d	f3 0f 7e 47 10	 movq	 xmm0, QWORD PTR [edi+16]
  000a2	66 0f d6 43 28	 movq	 QWORD PTR [ebx+40], xmm0

; 1287 : 
; 1288 :                 _Right_data._Mysize = 0;

  000a7	c7 46 30 00 00
	00 00		 mov	 DWORD PTR [esi+48], 0

; 1289 :                 _Right_data._Myres  = _Small_string_capacity;

  000ae	c7 46 34 0f 00
	00 00		 mov	 DWORD PTR [esi+52], 15	; 0000000fH

; 1290 :                 _Right_data._Activate_SSO_buffer();
; 1291 :                 _Traits::assign(_Right_data._Bx._Buf[0], _Elem());

  000b5	c6 07 00	 mov	 BYTE PTR [edi], 0
$LN62@Move_unche:

; 1226 :         if (this == _STD addressof(_Right)) {

  000b8	8d 7e 38	 lea	 edi, DWORD PTR [esi+56]
  000bb	8d 43 30	 lea	 eax, DWORD PTR [ebx+48]
  000be	3b c7		 cmp	 eax, edi
  000c0	74 29		 je	 SHORT $LN85@Move_unche

; 1227 :             return *this;
; 1228 :         }
; 1229 : 
; 1230 :         auto& _Al                 = _Getal();
; 1231 :         auto& _Right_al           = _Right._Getal();
; 1232 :         constexpr auto _Pocma_val = _Choose_pocma_v<_Alty>;
; 1233 :         if constexpr (_Pocma_val == _Pocma_values::_Propagate_allocators) {
; 1234 :             if (_Al != _Right_al) {
; 1235 :                 // intentionally slams into noexcept on OOM, TRANSITION, VSO-466800
; 1236 :                 _Mypair._Myval2._Orphan_all();
; 1237 :                 _Mypair._Myval2._Reload_proxy(_GET_PROXY_ALLOCATOR(_Alty, _Al), _GET_PROXY_ALLOCATOR(_Alty, _Right_al));
; 1238 :             }
; 1239 :         } else if constexpr (_Pocma_val == _Pocma_values::_No_propagate_allocators) {
; 1240 :             if (_Al != _Right_al) {
; 1241 :                 assign(_Right._Mypair._Myval2._Myptr(), _Right._Mypair._Myval2._Mysize);
; 1242 :                 return *this;
; 1243 :             }
; 1244 :         }
; 1245 : 
; 1246 :         _Tidy_deallocate();

  000c2	8b c8		 mov	 ecx, eax
  000c4	e8 00 00 00 00	 call	 ?_Tidy_deallocate@?$basic_string@DU?$char_traits@D@std@@V?$allocator@D@2@@std@@AAEXXZ ; std::basic_string<char,std::char_traits<char>,std::allocator<char> >::_Tidy_deallocate

; 1286 :                 _CSTD memcpy(_My_data_mem, _Right_data_mem, _Memcpy_val_size);

  000c9	0f 10 07	 movups	 xmm0, XMMWORD PTR [edi]
  000cc	0f 11 43 30	 movups	 XMMWORD PTR [ebx+48], xmm0
  000d0	f3 0f 7e 47 10	 movq	 xmm0, QWORD PTR [edi+16]
  000d5	66 0f d6 43 40	 movq	 QWORD PTR [ebx+64], xmm0

; 1287 : 
; 1288 :                 _Right_data._Mysize = 0;

  000da	c7 46 48 00 00
	00 00		 mov	 DWORD PTR [esi+72], 0

; 1289 :                 _Right_data._Myres  = _Small_string_capacity;

  000e1	c7 46 4c 0f 00
	00 00		 mov	 DWORD PTR [esi+76], 15	; 0000000fH

; 1290 :                 _Right_data._Activate_SSO_buffer();
; 1291 :                 _Traits::assign(_Right_data._Bx._Buf[0], _Elem());

  000e8	c6 07 00	 mov	 BYTE PTR [edi], 0
$LN85@Move_unche:
  000eb	8b 46 50	 mov	 eax, DWORD PTR [esi+80]
; File C:\Program Files\Microsoft Visual Studio\2022\Community\VC\Tools\MSVC\14.44.35207\include\xutility

; 5151 :         for (; _First != _Last; ++_Dest, (void) ++_First) {

  000ee	8b 55 08	 mov	 edx, DWORD PTR __Dest$1$[ebp]
  000f1	89 43 48	 mov	 DWORD PTR [ebx+72], eax
  000f4	83 c2 70	 add	 edx, 112		; 00000070H
  000f7	8b 46 54	 mov	 eax, DWORD PTR [esi+84]
  000fa	89 43 4c	 mov	 DWORD PTR [ebx+76], eax
  000fd	8b 4e 58	 mov	 ecx, DWORD PTR [esi+88]
  00100	83 c6 70	 add	 esi, 112		; 00000070H
  00103	89 4b 50	 mov	 DWORD PTR [ebx+80], ecx
  00106	83 c3 70	 add	 ebx, 112		; 00000070H
  00109	89 55 08	 mov	 DWORD PTR __Dest$1$[ebp], edx
  0010c	8d 4e ec	 lea	 ecx, DWORD PTR [esi-20]
  0010f	3b 4d fc	 cmp	 ecx, DWORD PTR __Last$1$[ebp]
  00112	0f 85 08 ff ff
	ff		 jne	 $LL4@Move_unche
  00118	5f		 pop	 edi
  00119	5e		 pop	 esi
  0011a	5b		 pop	 ebx

; 5152 :             *_Dest = _STD move(*_First);
; 5153 :         }
; 5154 : 
; 5155 :         return _Dest;

  0011b	8b c2		 mov	 eax, edx

; 5156 :     }
; 5157 : }

  0011d	8b e5		 mov	 esp, ebp
  0011f	5d		 pop	 ebp
  00120	c3		 ret	 0
$LN141@Move_unche:

; 5152 :             *_Dest = _STD move(*_First);
; 5153 :         }
; 5154 : 
; 5155 :         return _Dest;

  00121	8b 45 08	 mov	 eax, DWORD PTR __Dest$[ebp]

; 5156 :     }
; 5157 : }

  00124	8b e5		 mov	 esp, ebp
  00126	5d		 pop	 ebp
  00127	c3		 ret	 0
??$_Move_unchecked@PAUSQuestInstance@CPythonQuest@@PAU12@@std@@YAPAUSQuestInstance@CPythonQuest@@PAU12@00@Z ENDP ; std::_Move_unchecked<CPythonQuest::SQuestInstance *,CPythonQuest::SQuestInstance *>
_TEXT	ENDS
; Function compile flags: /Ogtp
; File C:\Program Files\Microsoft Visual Studio\2022\Community\VC\Tools\MSVC\14.44.35207\include\xstring
;	COMDAT ??4SQuestInstance@CPythonQuest@@QAEAAU01@$$QAU01@@Z
_TEXT	SEGMENT
___that$ = 8						; size = 4
??4SQuestInstance@CPythonQuest@@QAEAAU01@$$QAU01@@Z PROC ; CPythonQuest::SQuestInstance::operator=, COMDAT
; _this$ = ecx
  00000	55		 push	 ebp
  00001	8b ec		 mov	 ebp, esp

; 1226 :         if (this == _STD addressof(_Right)) {

  00003	53		 push	 ebx
  00004	56		 push	 esi
  00005	57		 push	 edi
  00006	8b 7d 08	 mov	 edi, DWORD PTR ___that$[ebp]
  00009	8b f1		 mov	 esi, ecx
  0000b	8b 07		 mov	 eax, DWORD PTR [edi]
  0000d	8d 5f 04	 lea	 ebx, DWORD PTR [edi+4]
  00010	89 06		 mov	 DWORD PTR [esi], eax
  00012	8d 46 04	 lea	 eax, DWORD PTR [esi+4]
  00015	3b c3		 cmp	 eax, ebx
  00017	74 29		 je	 SHORT $LN11@operator

; 1227 :             return *this;
; 1228 :         }
; 1229 : 
; 1230 :         auto& _Al                 = _Getal();
; 1231 :         auto& _Right_al           = _Right._Getal();
; 1232 :         constexpr auto _Pocma_val = _Choose_pocma_v<_Alty>;
; 1233 :         if constexpr (_Pocma_val == _Pocma_values::_Propagate_allocators) {
; 1234 :             if (_Al != _Right_al) {
; 1235 :                 // intentionally slams into noexcept on OOM, TRANSITION, VSO-466800
; 1236 :                 _Mypair._Myval2._Orphan_all();
; 1237 :                 _Mypair._Myval2._Reload_proxy(_GET_PROXY_ALLOCATOR(_Alty, _Al), _GET_PROXY_ALLOCATOR(_Alty, _Right_al));
; 1238 :             }
; 1239 :         } else if constexpr (_Pocma_val == _Pocma_values::_No_propagate_allocators) {
; 1240 :             if (_Al != _Right_al) {
; 1241 :                 assign(_Right._Mypair._Myval2._Myptr(), _Right._Mypair._Myval2._Mysize);
; 1242 :                 return *this;
; 1243 :             }
; 1244 :         }
; 1245 : 
; 1246 :         _Tidy_deallocate();

  00019	8b c8		 mov	 ecx, eax
  0001b	e8 00 00 00 00	 call	 ?_Tidy_deallocate@?$basic_string@DU?$char_traits@D@std@@V?$allocator@D@2@@std@@AAEXXZ ; std::basic_string<char,std::char_traits<char>,std::allocator<char> >::_Tidy_deallocate

; 1286 :                 _CSTD memcpy(_My_data_mem, _Right_data_mem, _Memcpy_val_size);

  00020	0f 10 03	 movups	 xmm0, XMMWORD PTR [ebx]
  00023	0f 11 46 04	 movups	 XMMWORD PTR [esi+4], xmm0
  00027	f3 0f 7e 43 10	 movq	 xmm0, QWORD PTR [ebx+16]
  0002c	66 0f d6 46 14	 movq	 QWORD PTR [esi+20], xmm0

; 1287 : 
; 1288 :                 _Right_data._Mysize = 0;

  00031	c7 43 10 00 00
	00 00		 mov	 DWORD PTR [ebx+16], 0

; 1289 :                 _Right_data._Myres  = _Small_string_capacity;

  00038	c7 43 14 0f 00
	00 00		 mov	 DWORD PTR [ebx+20], 15	; 0000000fH

; 1290 :                 _Right_data._Activate_SSO_buffer();
; 1291 :                 _Traits::assign(_Right_data._Bx._Buf[0], _Elem());

  0003f	c6 03 00	 mov	 BYTE PTR [ebx], 0
$LN11@operator:
  00042	8d 5f 1c	 lea	 ebx, DWORD PTR [edi+28]
  00045	8d 46 1c	 lea	 eax, DWORD PTR [esi+28]

; 1226 :         if (this == _STD addressof(_Right)) {

  00048	3b c3		 cmp	 eax, ebx
  0004a	74 29		 je	 SHORT $LN34@operator

; 1227 :             return *this;
; 1228 :         }
; 1229 : 
; 1230 :         auto& _Al                 = _Getal();
; 1231 :         auto& _Right_al           = _Right._Getal();
; 1232 :         constexpr auto _Pocma_val = _Choose_pocma_v<_Alty>;
; 1233 :         if constexpr (_Pocma_val == _Pocma_values::_Propagate_allocators) {
; 1234 :             if (_Al != _Right_al) {
; 1235 :                 // intentionally slams into noexcept on OOM, TRANSITION, VSO-466800
; 1236 :                 _Mypair._Myval2._Orphan_all();
; 1237 :                 _Mypair._Myval2._Reload_proxy(_GET_PROXY_ALLOCATOR(_Alty, _Al), _GET_PROXY_ALLOCATOR(_Alty, _Right_al));
; 1238 :             }
; 1239 :         } else if constexpr (_Pocma_val == _Pocma_values::_No_propagate_allocators) {
; 1240 :             if (_Al != _Right_al) {
; 1241 :                 assign(_Right._Mypair._Myval2._Myptr(), _Right._Mypair._Myval2._Mysize);
; 1242 :                 return *this;
; 1243 :             }
; 1244 :         }
; 1245 : 
; 1246 :         _Tidy_deallocate();

  0004c	8b c8		 mov	 ecx, eax
  0004e	e8 00 00 00 00	 call	 ?_Tidy_deallocate@?$basic_string@DU?$char_traits@D@std@@V?$allocator@D@2@@std@@AAEXXZ ; std::basic_string<char,std::char_traits<char>,std::allocator<char> >::_Tidy_deallocate

; 1286 :                 _CSTD memcpy(_My_data_mem, _Right_data_mem, _Memcpy_val_size);

  00053	0f 10 03	 movups	 xmm0, XMMWORD PTR [ebx]
  00056	0f 11 46 1c	 movups	 XMMWORD PTR [esi+28], xmm0
  0005a	f3 0f 7e 43 10	 movq	 xmm0, QWORD PTR [ebx+16]
  0005f	66 0f d6 46 2c	 movq	 QWORD PTR [esi+44], xmm0

; 1287 : 
; 1288 :                 _Right_data._Mysize = 0;

  00064	c7 43 10 00 00
	00 00		 mov	 DWORD PTR [ebx+16], 0

; 1289 :                 _Right_data._Myres  = _Small_string_capacity;

  0006b	c7 43 14 0f 00
	00 00		 mov	 DWORD PTR [ebx+20], 15	; 0000000fH

; 1290 :                 _Right_data._Activate_SSO_buffer();
; 1291 :                 _Traits::assign(_Right_data._Bx._Buf[0], _Elem());

  00072	c6 03 00	 mov	 BYTE PTR [ebx], 0
$LN34@operator:
  00075	8d 5f 34	 lea	 ebx, DWORD PTR [edi+52]
  00078	8d 46 34	 lea	 eax, DWORD PTR [esi+52]

; 1226 :         if (this == _STD addressof(_Right)) {

  0007b	3b c3		 cmp	 eax, ebx
  0007d	74 29		 je	 SHORT $LN57@operator

; 1227 :             return *this;
; 1228 :         }
; 1229 : 
; 1230 :         auto& _Al                 = _Getal();
; 1231 :         auto& _Right_al           = _Right._Getal();
; 1232 :         constexpr auto _Pocma_val = _Choose_pocma_v<_Alty>;
; 1233 :         if constexpr (_Pocma_val == _Pocma_values::_Propagate_allocators) {
; 1234 :             if (_Al != _Right_al) {
; 1235 :                 // intentionally slams into noexcept on OOM, TRANSITION, VSO-466800
; 1236 :                 _Mypair._Myval2._Orphan_all();
; 1237 :                 _Mypair._Myval2._Reload_proxy(_GET_PROXY_ALLOCATOR(_Alty, _Al), _GET_PROXY_ALLOCATOR(_Alty, _Right_al));
; 1238 :             }
; 1239 :         } else if constexpr (_Pocma_val == _Pocma_values::_No_propagate_allocators) {
; 1240 :             if (_Al != _Right_al) {
; 1241 :                 assign(_Right._Mypair._Myval2._Myptr(), _Right._Mypair._Myval2._Mysize);
; 1242 :                 return *this;
; 1243 :             }
; 1244 :         }
; 1245 : 
; 1246 :         _Tidy_deallocate();

  0007f	8b c8		 mov	 ecx, eax
  00081	e8 00 00 00 00	 call	 ?_Tidy_deallocate@?$basic_string@DU?$char_traits@D@std@@V?$allocator@D@2@@std@@AAEXXZ ; std::basic_string<char,std::char_traits<char>,std::allocator<char> >::_Tidy_deallocate

; 1286 :                 _CSTD memcpy(_My_data_mem, _Right_data_mem, _Memcpy_val_size);

  00086	0f 10 03	 movups	 xmm0, XMMWORD PTR [ebx]
  00089	0f 11 46 34	 movups	 XMMWORD PTR [esi+52], xmm0
  0008d	f3 0f 7e 43 10	 movq	 xmm0, QWORD PTR [ebx+16]
  00092	66 0f d6 46 44	 movq	 QWORD PTR [esi+68], xmm0

; 1287 : 
; 1288 :                 _Right_data._Mysize = 0;

  00097	c7 43 10 00 00
	00 00		 mov	 DWORD PTR [ebx+16], 0

; 1289 :                 _Right_data._Myres  = _Small_string_capacity;

  0009e	c7 43 14 0f 00
	00 00		 mov	 DWORD PTR [ebx+20], 15	; 0000000fH

; 1290 :                 _Right_data._Activate_SSO_buffer();
; 1291 :                 _Traits::assign(_Right_data._Bx._Buf[0], _Elem());

  000a5	c6 03 00	 mov	 BYTE PTR [ebx], 0
$LN57@operator:
  000a8	8d 5f 4c	 lea	 ebx, DWORD PTR [edi+76]
  000ab	8d 46 4c	 lea	 eax, DWORD PTR [esi+76]

; 1226 :         if (this == _STD addressof(_Right)) {

  000ae	3b c3		 cmp	 eax, ebx
  000b0	74 29		 je	 SHORT $LN80@operator

; 1227 :             return *this;
; 1228 :         }
; 1229 : 
; 1230 :         auto& _Al                 = _Getal();
; 1231 :         auto& _Right_al           = _Right._Getal();
; 1232 :         constexpr auto _Pocma_val = _Choose_pocma_v<_Alty>;
; 1233 :         if constexpr (_Pocma_val == _Pocma_values::_Propagate_allocators) {
; 1234 :             if (_Al != _Right_al) {
; 1235 :                 // intentionally slams into noexcept on OOM, TRANSITION, VSO-466800
; 1236 :                 _Mypair._Myval2._Orphan_all();
; 1237 :                 _Mypair._Myval2._Reload_proxy(_GET_PROXY_ALLOCATOR(_Alty, _Al), _GET_PROXY_ALLOCATOR(_Alty, _Right_al));
; 1238 :             }
; 1239 :         } else if constexpr (_Pocma_val == _Pocma_values::_No_propagate_allocators) {
; 1240 :             if (_Al != _Right_al) {
; 1241 :                 assign(_Right._Mypair._Myval2._Myptr(), _Right._Mypair._Myval2._Mysize);
; 1242 :                 return *this;
; 1243 :             }
; 1244 :         }
; 1245 : 
; 1246 :         _Tidy_deallocate();

  000b2	8b c8		 mov	 ecx, eax
  000b4	e8 00 00 00 00	 call	 ?_Tidy_deallocate@?$basic_string@DU?$char_traits@D@std@@V?$allocator@D@2@@std@@AAEXXZ ; std::basic_string<char,std::char_traits<char>,std::allocator<char> >::_Tidy_deallocate

; 1286 :                 _CSTD memcpy(_My_data_mem, _Right_data_mem, _Memcpy_val_size);

  000b9	0f 10 03	 movups	 xmm0, XMMWORD PTR [ebx]
  000bc	0f 11 46 4c	 movups	 XMMWORD PTR [esi+76], xmm0
  000c0	f3 0f 7e 43 10	 movq	 xmm0, QWORD PTR [ebx+16]
  000c5	66 0f d6 46 5c	 movq	 QWORD PTR [esi+92], xmm0

; 1287 : 
; 1288 :                 _Right_data._Mysize = 0;

  000ca	c7 43 10 00 00
	00 00		 mov	 DWORD PTR [ebx+16], 0

; 1289 :                 _Right_data._Myres  = _Small_string_capacity;

  000d1	c7 43 14 0f 00
	00 00		 mov	 DWORD PTR [ebx+20], 15	; 0000000fH

; 1290 :                 _Right_data._Activate_SSO_buffer();
; 1291 :                 _Traits::assign(_Right_data._Bx._Buf[0], _Elem());

  000d8	c6 03 00	 mov	 BYTE PTR [ebx], 0
$LN80@operator:
  000db	8b 47 64	 mov	 eax, DWORD PTR [edi+100]
  000de	89 46 64	 mov	 DWORD PTR [esi+100], eax
  000e1	8b 47 68	 mov	 eax, DWORD PTR [edi+104]
  000e4	89 46 68	 mov	 DWORD PTR [esi+104], eax
  000e7	8b 47 6c	 mov	 eax, DWORD PTR [edi+108]
  000ea	89 46 6c	 mov	 DWORD PTR [esi+108], eax
  000ed	8b c6		 mov	 eax, esi
  000ef	5f		 pop	 edi
  000f0	5e		 pop	 esi
  000f1	5b		 pop	 ebx
  000f2	5d		 pop	 ebp
  000f3	c2 04 00	 ret	 4
??4SQuestInstance@CPythonQuest@@QAEAAU01@$$QAU01@@Z ENDP ; CPythonQuest::SQuestInstance::operator=
_TEXT	ENDS
; Function compile flags: /Ogtp
; File C:\Program Files\Microsoft Visual Studio\2022\Community\VC\Tools\MSVC\14.44.35207\include\xmemory
;	COMDAT ??$_Unfancy@USQuestInstance@CPythonQuest@@@std@@YAPAUSQuestInstance@CPythonQuest@@PAU12@@Z
_TEXT	SEGMENT
??$_Unfancy@USQuestInstance@CPythonQuest@@@std@@YAPAUSQuestInstance@CPythonQuest@@PAU12@@Z PROC ; std::_Unfancy<CPythonQuest::SQuestInstance>, COMDAT
; __Ptr$ = ecx

; 69   :     return _Ptr;

  00000	8b c1		 mov	 eax, ecx

; 70   : }

  00002	c3		 ret	 0
??$_Unfancy@USQuestInstance@CPythonQuest@@@std@@YAPAUSQuestInstance@CPythonQuest@@PAU12@@Z ENDP ; std::_Unfancy<CPythonQuest::SQuestInstance>
_TEXT	ENDS
; Function compile flags: /Ogtp
; File C:\Program Files\Microsoft Visual Studio\2022\Community\VC\Tools\MSVC\14.44.35207\include\xmemory
; File C:\Program Files\Microsoft Visual Studio\2022\Community\VC\Tools\MSVC\14.44.35207\include\xstring
; File C:\Program Files\Microsoft Visual Studio\2022\Community\VC\Tools\MSVC\14.44.35207\include\xmemory
;	COMDAT ??$destroy@USQuestInstance@CPythonQuest@@@?$_Default_allocator_traits@V?$allocator@USQuestInstance@CPythonQuest@@@std@@@std@@SAXAAV?$allocator@USQuestInstance@CPythonQuest@@@1@QAUSQuestInstance@CPythonQuest@@@Z
_TEXT	SEGMENT
??$destroy@USQuestInstance@CPythonQuest@@@?$_Default_allocator_traits@V?$allocator@USQuestInstance@CPythonQuest@@@std@@@std@@SAXAAV?$allocator@USQuestInstance@CPythonQuest@@@1@QAUSQuestInstance@CPythonQuest@@@Z PROC ; std::_Default_allocator_traits<std::allocator<CPythonQuest::SQuestInstance> >::destroy<CPythonQuest::SQuestInstance>, COMDAT
; ___formal$dead$ = ecx
; __Ptr$ = edx

; 737  :     static _CONSTEXPR20 void destroy(_Alloc&, _Uty* const _Ptr) {

  00000	56		 push	 esi
  00001	8b f2		 mov	 esi, edx
  00003	8d 4e 4c	 lea	 ecx, DWORD PTR [esi+76]
; File C:\Program Files\Microsoft Visual Studio\2022\Community\VC\Tools\MSVC\14.44.35207\include\xstring

; 1383 :         _Tidy_deallocate();

  00006	e8 00 00 00 00	 call	 ?_Tidy_deallocate@?$basic_string@DU?$char_traits@D@std@@V?$allocator@D@2@@std@@AAEXXZ ; std::basic_string<char,std::char_traits<char>,std::allocator<char> >::_Tidy_deallocate
  0000b	8d 4e 34	 lea	 ecx, DWORD PTR [esi+52]
  0000e	e8 00 00 00 00	 call	 ?_Tidy_deallocate@?$basic_string@DU?$char_traits@D@std@@V?$allocator@D@2@@std@@AAEXXZ ; std::basic_string<char,std::char_traits<char>,std::allocator<char> >::_Tidy_deallocate
  00013	8d 4e 1c	 lea	 ecx, DWORD PTR [esi+28]
  00016	e8 00 00 00 00	 call	 ?_Tidy_deallocate@?$basic_string@DU?$char_traits@D@std@@V?$allocator@D@2@@std@@AAEXXZ ; std::basic_string<char,std::char_traits<char>,std::allocator<char> >::_Tidy_deallocate
  0001b	8d 4e 04	 lea	 ecx, DWORD PTR [esi+4]
  0001e	5e		 pop	 esi
  0001f	e9 00 00 00 00	 jmp	 ?_Tidy_deallocate@?$basic_string@DU?$char_traits@D@std@@V?$allocator@D@2@@std@@AAEXXZ ; std::basic_string<char,std::char_traits<char>,std::allocator<char> >::_Tidy_deallocate
??$destroy@USQuestInstance@CPythonQuest@@@?$_Default_allocator_traits@V?$allocator@USQuestInstance@CPythonQuest@@@std@@@std@@SAXAAV?$allocator@USQuestInstance@CPythonQuest@@@1@QAUSQuestInstance@CPythonQuest@@@Z ENDP ; std::_Default_allocator_traits<std::allocator<CPythonQuest::SQuestInstance> >::destroy<CPythonQuest::SQuestInstance>
_TEXT	ENDS
; Function compile flags: /Ogtp
; File C:\Program Files\Microsoft Visual Studio\2022\Community\VC\Tools\MSVC\14.44.35207\include\vector
;	COMDAT ??$_Emplace_one_at_back@USQuestInstance@CPythonQuest@@@?$vector@USQuestInstance@CPythonQuest@@V?$allocator@USQuestInstance@CPythonQuest@@@std@@@std@@AAEAAUSQuestInstance@CPythonQuest@@$$QAU23@@Z
_TEXT	SEGMENT
_<_Val_0>$ = 8						; size = 4
??$_Emplace_one_at_back@USQuestInstance@CPythonQuest@@@?$vector@USQuestInstance@CPythonQuest@@V?$allocator@USQuestInstance@CPythonQuest@@@std@@@std@@AAEAAUSQuestInstance@CPythonQuest@@$$QAU23@@Z PROC ; std::vector<CPythonQuest::SQuestInstance,std::allocator<CPythonQuest::SQuestInstance> >::_Emplace_one_at_back<CPythonQuest::SQuestInstance>, COMDAT
; _this$ = ecx

; 839  :     _CONSTEXPR20 _Ty& _Emplace_one_at_back(_Valty&&... _Val) {

  00000	55		 push	 ebp
  00001	8b ec		 mov	 ebp, esp
  00003	56		 push	 esi

; 840  :         // insert by perfectly forwarding into element at end, provide strong guarantee
; 841  :         auto& _My_data   = _Mypair._Myval2;
; 842  :         pointer& _Mylast = _My_data._Mylast;
; 843  : 
; 844  :         if (_Mylast != _My_data._Myend) {

  00004	ff 75 08	 push	 DWORD PTR _<_Val_0>$[ebp]
  00007	8b f1		 mov	 esi, ecx
  00009	8b 4e 04	 mov	 ecx, DWORD PTR [esi+4]
  0000c	3b 4e 08	 cmp	 ecx, DWORD PTR [esi+8]
  0000f	74 13		 je	 SHORT $LN2@Emplace_on

; 868  :         _Ty& _Result = *_Mylast;

  00011	e8 00 00 00 00	 call	 ??0SQuestInstance@CPythonQuest@@QAE@$$QAU01@@Z
  00016	8b 46 04	 mov	 eax, DWORD PTR [esi+4]

; 869  :         ++_Mylast;

  00019	8d 48 70	 lea	 ecx, DWORD PTR [eax+112]
  0001c	89 4e 04	 mov	 DWORD PTR [esi+4], ecx
  0001f	5e		 pop	 esi

; 849  :     }

  00020	5d		 pop	 ebp
  00021	c2 04 00	 ret	 4
$LN2@Emplace_on:

; 845  :             return _Emplace_back_with_unused_capacity(_STD forward<_Valty>(_Val)...);
; 846  :         }
; 847  : 
; 848  :         return *_Emplace_reallocate(_Mylast, _STD forward<_Valty>(_Val)...);

  00024	51		 push	 ecx
  00025	8b ce		 mov	 ecx, esi
  00027	e8 00 00 00 00	 call	 ??$_Emplace_reallocate@USQuestInstance@CPythonQuest@@@?$vector@USQuestInstance@CPythonQuest@@V?$allocator@USQuestInstance@CPythonQuest@@@std@@@std@@AAEPAUSQuestInstance@CPythonQuest@@QAU23@$$QAU23@@Z ; std::vector<CPythonQuest::SQuestInstance,std::allocator<CPythonQuest::SQuestInstance> >::_Emplace_reallocate<CPythonQuest::SQuestInstance>
  0002c	5e		 pop	 esi

; 849  :     }

  0002d	5d		 pop	 ebp
  0002e	c2 04 00	 ret	 4
??$_Emplace_one_at_back@USQuestInstance@CPythonQuest@@@?$vector@USQuestInstance@CPythonQuest@@V?$allocator@USQuestInstance@CPythonQuest@@@std@@@std@@AAEAAUSQuestInstance@CPythonQuest@@$$QAU23@@Z ENDP ; std::vector<CPythonQuest::SQuestInstance,std::allocator<CPythonQuest::SQuestInstance> >::_Emplace_one_at_back<CPythonQuest::SQuestInstance>
_TEXT	ENDS
; Function compile flags: /Ogtp
; File C:\Program Files\Microsoft Visual Studio\2022\Community\VC\Tools\MSVC\14.44.35207\include\vector
;	COMDAT ??$_Emplace_one_at_back@ABUSQuestInstance@CPythonQuest@@@?$vector@USQuestInstance@CPythonQuest@@V?$allocator@USQuestInstance@CPythonQuest@@@std@@@std@@AAEAAUSQuestInstance@CPythonQuest@@ABU23@@Z
_TEXT	SEGMENT
_<_Val_0>$ = 8						; size = 4
??$_Emplace_one_at_back@ABUSQuestInstance@CPythonQuest@@@?$vector@USQuestInstance@CPythonQuest@@V?$allocator@USQuestInstance@CPythonQuest@@@std@@@std@@AAEAAUSQuestInstance@CPythonQuest@@ABU23@@Z PROC ; std::vector<CPythonQuest::SQuestInstance,std::allocator<CPythonQuest::SQuestInstance> >::_Emplace_one_at_back<CPythonQuest::SQuestInstance const &>, COMDAT
; _this$ = ecx

; 839  :     _CONSTEXPR20 _Ty& _Emplace_one_at_back(_Valty&&... _Val) {

  00000	55		 push	 ebp
  00001	8b ec		 mov	 ebp, esp
  00003	56		 push	 esi

; 840  :         // insert by perfectly forwarding into element at end, provide strong guarantee
; 841  :         auto& _My_data   = _Mypair._Myval2;
; 842  :         pointer& _Mylast = _My_data._Mylast;
; 843  : 
; 844  :         if (_Mylast != _My_data._Myend) {

  00004	ff 75 08	 push	 DWORD PTR _<_Val_0>$[ebp]
  00007	8b f1		 mov	 esi, ecx
  00009	8b 46 04	 mov	 eax, DWORD PTR [esi+4]
  0000c	3b 46 08	 cmp	 eax, DWORD PTR [esi+8]
  0000f	74 18		 je	 SHORT $LN2@Emplace_on

; 863  :             _Alty_traits::construct(_Getal(), _Unfancy(_Mylast), _STD forward<_Valty>(_Val)...);

  00011	8b d0		 mov	 edx, eax
  00013	e8 00 00 00 00	 call	 ??$construct@USQuestInstance@CPythonQuest@@ABU12@@?$_Default_allocator_traits@V?$allocator@USQuestInstance@CPythonQuest@@@std@@@std@@SAXAAV?$allocator@USQuestInstance@CPythonQuest@@@1@QAUSQuestInstance@CPythonQuest@@ABU34@@Z ; std::_Default_allocator_traits<std::allocator<CPythonQuest::SQuestInstance> >::construct<CPythonQuest::SQuestInstance,CPythonQuest::SQuestInstance const &>

; 864  :             _ASAN_VECTOR_RELEASE_GUARD;
; 865  :         }
; 866  : 
; 867  :         _Orphan_range(_Mylast, _Mylast);
; 868  :         _Ty& _Result = *_Mylast;

  00018	8b 46 04	 mov	 eax, DWORD PTR [esi+4]
  0001b	83 c4 04	 add	 esp, 4

; 869  :         ++_Mylast;

  0001e	8d 48 70	 lea	 ecx, DWORD PTR [eax+112]
  00021	89 4e 04	 mov	 DWORD PTR [esi+4], ecx
  00024	5e		 pop	 esi

; 849  :     }

  00025	5d		 pop	 ebp
  00026	c2 04 00	 ret	 4
$LN2@Emplace_on:

; 845  :             return _Emplace_back_with_unused_capacity(_STD forward<_Valty>(_Val)...);
; 846  :         }
; 847  : 
; 848  :         return *_Emplace_reallocate(_Mylast, _STD forward<_Valty>(_Val)...);

  00029	50		 push	 eax
  0002a	e8 00 00 00 00	 call	 ??$_Emplace_reallocate@ABUSQuestInstance@CPythonQuest@@@?$vector@USQuestInstance@CPythonQuest@@V?$allocator@USQuestInstance@CPythonQuest@@@std@@@std@@AAEPAUSQuestInstance@CPythonQuest@@QAU23@ABU23@@Z ; std::vector<CPythonQuest::SQuestInstance,std::allocator<CPythonQuest::SQuestInstance> >::_Emplace_reallocate<CPythonQuest::SQuestInstance const &>
  0002f	5e		 pop	 esi

; 849  :     }

  00030	5d		 pop	 ebp
  00031	c2 04 00	 ret	 4
??$_Emplace_one_at_back@ABUSQuestInstance@CPythonQuest@@@?$vector@USQuestInstance@CPythonQuest@@V?$allocator@USQuestInstance@CPythonQuest@@@std@@@std@@AAEAAUSQuestInstance@CPythonQuest@@ABU23@@Z ENDP ; std::vector<CPythonQuest::SQuestInstance,std::allocator<CPythonQuest::SQuestInstance> >::_Emplace_one_at_back<CPythonQuest::SQuestInstance const &>
_TEXT	ENDS
; Function compile flags: /Ogtp
; File C:\Program Files\Microsoft Visual Studio\2022\Community\VC\Tools\MSVC\14.44.35207\include\xmemory
; File C:\Program Files\Microsoft Visual Studio\2022\Community\VC\Tools\MSVC\14.44.35207\include\vector
; File C:\Program Files\Microsoft Visual Studio\2022\Community\VC\Tools\MSVC\14.44.35207\include\xmemory
; File C:\Program Files\Microsoft Visual Studio\2022\Community\VC\Tools\MSVC\14.44.35207\include\vector
; File C:\Program Files\Microsoft Visual Studio\2022\Community\VC\Tools\MSVC\14.44.35207\include\xmemory
;	COMDAT ??$?0$$V@?$_Compressed_pair@V?$allocator@USQuestInstance@CPythonQuest@@@std@@V?$_Vector_val@U?$_Simple_types@USQuestInstance@CPythonQuest@@@std@@@2@$00@std@@QAE@U_Zero_then_variadic_args_t@1@@Z
_TEXT	SEGMENT
___formal$ = 8						; size = 1
??$?0$$V@?$_Compressed_pair@V?$allocator@USQuestInstance@CPythonQuest@@@std@@V?$_Vector_val@U?$_Simple_types@USQuestInstance@CPythonQuest@@@std@@@2@$00@std@@QAE@U_Zero_then_variadic_args_t@1@@Z PROC ; std::_Compressed_pair<std::allocator<CPythonQuest::SQuestInstance>,std::_Vector_val<std::_Simple_types<CPythonQuest::SQuestInstance> >,1>::_Compressed_pair<std::allocator<CPythonQuest::SQuestInstance>,std::_Vector_val<std::_Simple_types<CPythonQuest::SQuestInstance> >,1><>, COMDAT
; _this$ = ecx
; File C:\Program Files\Microsoft Visual Studio\2022\Community\VC\Tools\MSVC\14.44.35207\include\vector

; 400  :     _CONSTEXPR20 _Vector_val() noexcept : _Myfirst(), _Mylast(), _Myend() {}

  00000	c7 01 00 00 00
	00		 mov	 DWORD PTR [ecx], 0
; File C:\Program Files\Microsoft Visual Studio\2022\Community\VC\Tools\MSVC\14.44.35207\include\xmemory

; 1531 :         : _Ty1(), _Myval2(_STD forward<_Other2>(_Val2)...) {}

  00006	8b c1		 mov	 eax, ecx
; File C:\Program Files\Microsoft Visual Studio\2022\Community\VC\Tools\MSVC\14.44.35207\include\vector

; 400  :     _CONSTEXPR20 _Vector_val() noexcept : _Myfirst(), _Mylast(), _Myend() {}

  00008	c7 41 04 00 00
	00 00		 mov	 DWORD PTR [ecx+4], 0
  0000f	c7 41 08 00 00
	00 00		 mov	 DWORD PTR [ecx+8], 0
; File C:\Program Files\Microsoft Visual Studio\2022\Community\VC\Tools\MSVC\14.44.35207\include\xmemory

; 1531 :         : _Ty1(), _Myval2(_STD forward<_Other2>(_Val2)...) {}

  00016	c2 04 00	 ret	 4
??$?0$$V@?$_Compressed_pair@V?$allocator@USQuestInstance@CPythonQuest@@@std@@V?$_Vector_val@U?$_Simple_types@USQuestInstance@CPythonQuest@@@std@@@2@$00@std@@QAE@U_Zero_then_variadic_args_t@1@@Z ENDP ; std::_Compressed_pair<std::allocator<CPythonQuest::SQuestInstance>,std::_Vector_val<std::_Simple_types<CPythonQuest::SQuestInstance> >,1>::_Compressed_pair<std::allocator<CPythonQuest::SQuestInstance>,std::_Vector_val<std::_Simple_types<CPythonQuest::SQuestInstance> >,1><>
_TEXT	ENDS
; Function compile flags: /Ogtp
; File C:\Program Files\Microsoft Visual Studio\2022\Community\VC\Tools\MSVC\14.44.35207\include\xutility
;	COMDAT ??0?$reverse_iterator@V?$_Vector_iterator@V?$_Vector_val@U?$_Simple_types@USQuestInstance@CPythonQuest@@@std@@@std@@@std@@@std@@QAE@V?$_Vector_iterator@V?$_Vector_val@U?$_Simple_types@USQuestInstance@CPythonQuest@@@std@@@std@@@1@@Z
_TEXT	SEGMENT
__Right$ = 8						; size = 4
??0?$reverse_iterator@V?$_Vector_iterator@V?$_Vector_val@U?$_Simple_types@USQuestInstance@CPythonQuest@@@std@@@std@@@std@@@std@@QAE@V?$_Vector_iterator@V?$_Vector_val@U?$_Simple_types@USQuestInstance@CPythonQuest@@@std@@@std@@@1@@Z PROC ; std::reverse_iterator<std::_Vector_iterator<std::_Vector_val<std::_Simple_types<CPythonQuest::SQuestInstance> > > >::reverse_iterator<std::_Vector_iterator<std::_Vector_val<std::_Simple_types<CPythonQuest::SQuestInstance> > > >, COMDAT
; _this$ = ecx

; 1734 :     _CONSTEXPR17 explicit reverse_iterator(_BidIt _Right)

  00000	55		 push	 ebp
  00001	8b ec		 mov	 ebp, esp

; 1735 :         noexcept(is_nothrow_move_constructible_v<_BidIt>) // strengthened
; 1736 :         : current(_STD move(_Right)) {}

  00003	8b 45 08	 mov	 eax, DWORD PTR __Right$[ebp]
  00006	89 01		 mov	 DWORD PTR [ecx], eax
  00008	8b c1		 mov	 eax, ecx
  0000a	5d		 pop	 ebp
  0000b	c2 04 00	 ret	 4
??0?$reverse_iterator@V?$_Vector_iterator@V?$_Vector_val@U?$_Simple_types@USQuestInstance@CPythonQuest@@@std@@@std@@@std@@@std@@QAE@V?$_Vector_iterator@V?$_Vector_val@U?$_Simple_types@USQuestInstance@CPythonQuest@@@std@@@std@@@1@@Z ENDP ; std::reverse_iterator<std::_Vector_iterator<std::_Vector_val<std::_Simple_types<CPythonQuest::SQuestInstance> > > >::reverse_iterator<std::_Vector_iterator<std::_Vector_val<std::_Simple_types<CPythonQuest::SQuestInstance> > > >
_TEXT	ENDS
; Function compile flags: /Ogtp
; File C:\Program Files\Microsoft Visual Studio\2022\Community\VC\Tools\MSVC\14.44.35207\include\vector
;	COMDAT ?_Compat@?$_Vector_const_iterator@V?$_Vector_val@U?$_Simple_types@USQuestInstance@CPythonQuest@@@std@@@std@@@std@@QBEXABV12@@Z
_TEXT	SEGMENT
__Right$dead$ = 8					; size = 4
?_Compat@?$_Vector_const_iterator@V?$_Vector_val@U?$_Simple_types@USQuestInstance@CPythonQuest@@@std@@@std@@@std@@QBEXABV12@@Z PROC ; std::_Vector_const_iterator<std::_Vector_val<std::_Simple_types<CPythonQuest::SQuestInstance> > >::_Compat, COMDAT
; _this$dead$ = ecx

; 198  :         // test for compatible iterator pair
; 199  : #if _ITERATOR_DEBUG_LEVEL == 0
; 200  :         (void) _Right;
; 201  : #else // ^^^ _ITERATOR_DEBUG_LEVEL == 0 / _ITERATOR_DEBUG_LEVEL != 0 vvv
; 202  :         _STL_VERIFY(this->_Getcont() == _Right._Getcont(), "vector iterators incompatible");
; 203  : #endif // ^^^ _ITERATOR_DEBUG_LEVEL != 0 ^^^
; 204  :     }

  00000	c2 04 00	 ret	 4
?_Compat@?$_Vector_const_iterator@V?$_Vector_val@U?$_Simple_types@USQuestInstance@CPythonQuest@@@std@@@std@@@std@@QBEXABV12@@Z ENDP ; std::_Vector_const_iterator<std::_Vector_val<std::_Simple_types<CPythonQuest::SQuestInstance> > >::_Compat
_TEXT	ENDS
; Function compile flags: /Ogtp
; File C:\Program Files\Microsoft Visual Studio\2022\Community\VC\Tools\MSVC\14.44.35207\include\vector
;	COMDAT ??D?$_Vector_const_iterator@V?$_Vector_val@U?$_Simple_types@USQuestInstance@CPythonQuest@@@std@@@std@@@std@@QBEABUSQuestInstance@CPythonQuest@@XZ
_TEXT	SEGMENT
??D?$_Vector_const_iterator@V?$_Vector_val@U?$_Simple_types@USQuestInstance@CPythonQuest@@@std@@@std@@@std@@QBEABUSQuestInstance@CPythonQuest@@XZ PROC ; std::_Vector_const_iterator<std::_Vector_val<std::_Simple_types<CPythonQuest::SQuestInstance> > >::operator*, COMDAT
; _this$ = ecx

; 51   : #if _ITERATOR_DEBUG_LEVEL != 0
; 52   :         const auto _Mycont = static_cast<const _Myvec*>(this->_Getcont());
; 53   :         _STL_VERIFY(_Ptr, "can't dereference value-initialized vector iterator");
; 54   :         _STL_VERIFY(_Mycont, "can't dereference invalidated vector iterator");
; 55   :         _STL_VERIFY(
; 56   :             _Mycont->_Myfirst <= _Ptr && _Ptr < _Mycont->_Mylast, "can't dereference out of range vector iterator");
; 57   : #endif // _ITERATOR_DEBUG_LEVEL != 0
; 58   : 
; 59   :         return *_Ptr;

  00000	8b 01		 mov	 eax, DWORD PTR [ecx]

; 60   :     }

  00002	c3		 ret	 0
??D?$_Vector_const_iterator@V?$_Vector_val@U?$_Simple_types@USQuestInstance@CPythonQuest@@@std@@@std@@@std@@QBEABUSQuestInstance@CPythonQuest@@XZ ENDP ; std::_Vector_const_iterator<std::_Vector_val<std::_Simple_types<CPythonQuest::SQuestInstance> > >::operator*
_TEXT	ENDS
; Function compile flags: /Ogtp
; File C:\Program Files\Microsoft Visual Studio\2022\Community\VC\Tools\MSVC\14.44.35207\include\vector
;	COMDAT ??0?$_Vector_const_iterator@V?$_Vector_val@U?$_Simple_types@USQuestInstance@CPythonQuest@@@std@@@std@@@std@@QAE@PAUSQuestInstance@CPythonQuest@@PBU_Container_base0@1@@Z
_TEXT	SEGMENT
__Parg$ = 8						; size = 4
__Pvector$dead$ = 12					; size = 4
??0?$_Vector_const_iterator@V?$_Vector_val@U?$_Simple_types@USQuestInstance@CPythonQuest@@@std@@@std@@@std@@QAE@PAUSQuestInstance@CPythonQuest@@PBU_Container_base0@1@@Z PROC ; std::_Vector_const_iterator<std::_Vector_val<std::_Simple_types<CPythonQuest::SQuestInstance> > >::_Vector_const_iterator<std::_Vector_val<std::_Simple_types<CPythonQuest::SQuestInstance> > >, COMDAT
; _this$ = ecx

; 46   :     _CONSTEXPR20 _Vector_const_iterator(_Tptr _Parg, const _Container_base* _Pvector) noexcept : _Ptr(_Parg) {

  00000	55		 push	 ebp
  00001	8b ec		 mov	 ebp, esp
  00003	8b 45 08	 mov	 eax, DWORD PTR __Parg$[ebp]
  00006	89 01		 mov	 DWORD PTR [ecx], eax

; 47   :         this->_Adopt(_Pvector);
; 48   :     }

  00008	8b c1		 mov	 eax, ecx
  0000a	5d		 pop	 ebp
  0000b	c2 08 00	 ret	 8
??0?$_Vector_const_iterator@V?$_Vector_val@U?$_Simple_types@USQuestInstance@CPythonQuest@@@std@@@std@@@std@@QAE@PAUSQuestInstance@CPythonQuest@@PBU_Container_base0@1@@Z ENDP ; std::_Vector_const_iterator<std::_Vector_val<std::_Simple_types<CPythonQuest::SQuestInstance> > >::_Vector_const_iterator<std::_Vector_val<std::_Simple_types<CPythonQuest::SQuestInstance> > >
_TEXT	ENDS
; Function compile flags: /Ogtp
; File C:\Program Files\Microsoft Visual Studio\2022\Community\VC\Tools\MSVC\14.44.35207\include\vector
;	COMDAT ??F?$_Vector_iterator@V?$_Vector_val@U?$_Simple_types@USQuestInstance@CPythonQuest@@@std@@@std@@@std@@QAEAAV01@XZ
_TEXT	SEGMENT
??F?$_Vector_iterator@V?$_Vector_val@U?$_Simple_types@USQuestInstance@CPythonQuest@@@std@@@std@@@std@@QAEAAV01@XZ PROC ; std::_Vector_iterator<std::_Vector_val<std::_Simple_types<CPythonQuest::SQuestInstance> > >::operator--, COMDAT
; _this$ = ecx

; 100  :         --_Ptr;

  00000	83 01 90	 add	 DWORD PTR [ecx], -112	; ffffff90H

; 298  :         _Mybase::operator--();
; 299  :         return *this;

  00003	8b c1		 mov	 eax, ecx

; 300  :     }

  00005	c3		 ret	 0
??F?$_Vector_iterator@V?$_Vector_val@U?$_Simple_types@USQuestInstance@CPythonQuest@@@std@@@std@@@std@@QAEAAV01@XZ ENDP ; std::_Vector_iterator<std::_Vector_val<std::_Simple_types<CPythonQuest::SQuestInstance> > >::operator--
_TEXT	ENDS
; Function compile flags: /Ogtp
; File C:\Program Files\Microsoft Visual Studio\2022\Community\VC\Tools\MSVC\14.44.35207\include\vector
;	COMDAT ?_Getal@?$vector@USQuestInstance@CPythonQuest@@V?$allocator@USQuestInstance@CPythonQuest@@@std@@@std@@AAEAAV?$allocator@USQuestInstance@CPythonQuest@@@2@XZ
_TEXT	SEGMENT
?_Getal@?$vector@USQuestInstance@CPythonQuest@@V?$allocator@USQuestInstance@CPythonQuest@@@std@@@std@@AAEAAV?$allocator@USQuestInstance@CPythonQuest@@@2@XZ PROC ; std::vector<CPythonQuest::SQuestInstance,std::allocator<CPythonQuest::SQuestInstance> >::_Getal, COMDAT
; _this$ = ecx

; 2227 :         return _Mypair._Get_first();

  00000	8b c1		 mov	 eax, ecx

; 2228 :     }

  00002	c3		 ret	 0
?_Getal@?$vector@USQuestInstance@CPythonQuest@@V?$allocator@USQuestInstance@CPythonQuest@@@std@@@std@@AAEAAV?$allocator@USQuestInstance@CPythonQuest@@@2@XZ ENDP ; std::vector<CPythonQuest::SQuestInstance,std::allocator<CPythonQuest::SQuestInstance> >::_Getal
_TEXT	ENDS
; Function compile flags: /Ogtp
; File C:\Program Files\Microsoft Visual Studio\2022\Community\VC\Tools\MSVC\14.44.35207\include\vector
;	COMDAT ?_Orphan_range@?$vector@USQuestInstance@CPythonQuest@@V?$allocator@USQuestInstance@CPythonQuest@@@std@@@std@@ABEXPAUSQuestInstance@CPythonQuest@@0@Z
_TEXT	SEGMENT
___formal$dead$ = 8					; size = 4
___formal$dead$ = 12					; size = 4
?_Orphan_range@?$vector@USQuestInstance@CPythonQuest@@V?$allocator@USQuestInstance@CPythonQuest@@@std@@@std@@ABEXPAUSQuestInstance@CPythonQuest@@0@Z PROC ; std::vector<CPythonQuest::SQuestInstance,std::allocator<CPythonQuest::SQuestInstance> >::_Orphan_range, COMDAT
; _this$dead$ = ecx

; 2223 :     _CONSTEXPR20 void _Orphan_range(pointer, pointer) const {}

  00000	c2 08 00	 ret	 8
?_Orphan_range@?$vector@USQuestInstance@CPythonQuest@@V?$allocator@USQuestInstance@CPythonQuest@@@std@@@std@@ABEXPAUSQuestInstance@CPythonQuest@@0@Z ENDP ; std::vector<CPythonQuest::SQuestInstance,std::allocator<CPythonQuest::SQuestInstance> >::_Orphan_range
_TEXT	ENDS
; Function compile flags: /Ogtp
; File C:\Program Files\Microsoft Visual Studio\2022\Community\VC\Tools\MSVC\14.44.35207\include\vector
; File C:\Program Files\Microsoft Visual Studio\2022\Community\VC\Tools\MSVC\14.44.35207\include\xmemory
; File C:\Program Files\Microsoft Visual Studio\2022\Community\VC\Tools\MSVC\14.44.35207\include\vector
; File C:\Program Files\Microsoft Visual Studio\2022\Community\VC\Tools\MSVC\14.44.35207\include\xmemory
; File C:\Program Files\Microsoft Visual Studio\2022\Community\VC\Tools\MSVC\14.44.35207\include\vector
; File C:\Program Files\Microsoft Visual Studio\2022\Community\VC\Tools\MSVC\14.44.35207\include\xmemory
; File C:\Program Files\Microsoft Visual Studio\2022\Community\VC\Tools\MSVC\14.44.35207\include\vector
;	COMDAT ?_Tidy@?$vector@USQuestInstance@CPythonQuest@@V?$allocator@USQuestInstance@CPythonQuest@@@std@@@std@@AAEXXZ
_TEXT	SEGMENT
?_Tidy@?$vector@USQuestInstance@CPythonQuest@@V?$allocator@USQuestInstance@CPythonQuest@@@std@@@std@@AAEXXZ PROC ; std::vector<CPythonQuest::SQuestInstance,std::allocator<CPythonQuest::SQuestInstance> >::_Tidy, COMDAT
; _this$ = ecx

; 2081 :     _CONSTEXPR20 void _Tidy() noexcept { // free all storage

  00000	56		 push	 esi
  00001	8b f1		 mov	 esi, ecx

; 2082 :         auto& _Al         = _Getal();
; 2083 :         auto& _My_data    = _Mypair._Myval2;
; 2084 :         pointer& _Myfirst = _My_data._Myfirst;
; 2085 :         pointer& _Mylast  = _My_data._Mylast;
; 2086 :         pointer& _Myend   = _My_data._Myend;
; 2087 : 
; 2088 :         _My_data._Orphan_all();
; 2089 : 
; 2090 :         if (_Myfirst) { // destroy and deallocate old array

  00003	8b 0e		 mov	 ecx, DWORD PTR [esi]
  00005	85 c9		 test	 ecx, ecx
  00007	74 59		 je	 SHORT $LN2@Tidy

; 2091 :             _STD _Destroy_range(_Myfirst, _Mylast, _Al);

  00009	8b 56 04	 mov	 edx, DWORD PTR [esi+4]
  0000c	51		 push	 ecx
  0000d	e8 00 00 00 00	 call	 ??$_Destroy_range@V?$allocator@USQuestInstance@CPythonQuest@@@std@@@std@@YAXPAUSQuestInstance@CPythonQuest@@QAU12@AAV?$allocator@USQuestInstance@CPythonQuest@@@0@@Z ; std::_Destroy_range<std::allocator<CPythonQuest::SQuestInstance> >

; 2092 :             _ASAN_VECTOR_REMOVE;
; 2093 :             _Al.deallocate(_Myfirst, static_cast<size_type>(_Myend - _Myfirst));

  00012	8b 46 08	 mov	 eax, DWORD PTR [esi+8]
  00015	83 c4 04	 add	 esp, 4
  00018	8b 0e		 mov	 ecx, DWORD PTR [esi]
  0001a	2b c1		 sub	 eax, ecx
  0001c	c1 f8 04	 sar	 eax, 4
  0001f	69 c0 b7 6d db
	b6		 imul	 eax, eax, -1227133513
; File C:\Program Files\Microsoft Visual Studio\2022\Community\VC\Tools\MSVC\14.44.35207\include\xmemory

; 985  :         _STD _Deallocate<_New_alignof<_Ty>>(_Ptr, sizeof(_Ty) * _Count);

  00025	6b d0 70	 imul	 edx, eax, 112

; 284  :         if (_Bytes >= _Big_allocation_threshold) {

  00028	81 fa 00 10 00
	00		 cmp	 edx, 4096		; 00001000H
  0002e	72 14		 jb	 SHORT $LN16@Tidy
  00030	57		 push	 edi

; 205  :     const uintptr_t _Ptr_container   = _Ptr_user[-1];

  00031	8b 79 fc	 mov	 edi, DWORD PTR [ecx-4]
  00034	83 c2 23	 add	 edx, 35			; 00000023H

; 206  : 
; 207  :     // If the following asserts, it likely means that we are performing
; 208  :     // an aligned delete on memory coming from an unaligned allocation.
; 209  :     _STL_ASSERT(_Ptr_user[-2] == _Big_allocation_sentinel, "invalid argument");
; 210  : 
; 211  :     // Extra paranoia on aligned allocation/deallocation; ensure _Ptr_container is
; 212  :     // in range [_Min_back_shift, _Non_user_size]
; 213  : #ifdef _DEBUG
; 214  :     constexpr uintptr_t _Min_back_shift = 2 * sizeof(void*);
; 215  : #else // ^^^ defined(_DEBUG) / !defined(_DEBUG) vvv
; 216  :     constexpr uintptr_t _Min_back_shift = sizeof(void*);
; 217  : #endif // ^^^ !defined(_DEBUG) ^^^
; 218  :     const uintptr_t _Back_shift = reinterpret_cast<uintptr_t>(_Ptr) - _Ptr_container;

  00037	2b cf		 sub	 ecx, edi

; 219  :     _STL_VERIFY(_Back_shift >= _Min_back_shift && _Back_shift <= _Non_user_size, "invalid argument");

  00039	8d 41 fc	 lea	 eax, DWORD PTR [ecx-4]
  0003c	83 f8 1f	 cmp	 eax, 31			; 0000001fH
  0003f	77 23		 ja	 SHORT $LN15@Tidy

; 220  :     _Ptr = reinterpret_cast<void*>(_Ptr_container);

  00041	8b cf		 mov	 ecx, edi
  00043	5f		 pop	 edi
$LN16@Tidy:

; 289  :         ::operator delete(_Ptr, _Bytes);

  00044	52		 push	 edx
  00045	51		 push	 ecx
  00046	e8 00 00 00 00	 call	 ??3@YAXPAXI@Z		; operator delete
; File C:\Program Files\Microsoft Visual Studio\2022\Community\VC\Tools\MSVC\14.44.35207\include\vector

; 2095 :             _Myfirst = nullptr;

  0004b	c7 06 00 00 00
	00		 mov	 DWORD PTR [esi], 0
; File C:\Program Files\Microsoft Visual Studio\2022\Community\VC\Tools\MSVC\14.44.35207\include\xmemory

; 289  :         ::operator delete(_Ptr, _Bytes);

  00051	83 c4 08	 add	 esp, 8
; File C:\Program Files\Microsoft Visual Studio\2022\Community\VC\Tools\MSVC\14.44.35207\include\vector

; 2096 :             _Mylast  = nullptr;

  00054	c7 46 04 00 00
	00 00		 mov	 DWORD PTR [esi+4], 0

; 2097 :             _Myend   = nullptr;

  0005b	c7 46 08 00 00
	00 00		 mov	 DWORD PTR [esi+8], 0
$LN2@Tidy:

; 2099 :     }

  00062	5e		 pop	 esi
  00063	c3		 ret	 0
$LN15@Tidy:
; File C:\Program Files\Microsoft Visual Studio\2022\Community\VC\Tools\MSVC\14.44.35207\include\xmemory

; 219  :     _STL_VERIFY(_Back_shift >= _Min_back_shift && _Back_shift <= _Non_user_size, "invalid argument");

  00064	6a 00		 push	 0
  00066	6a 00		 push	 0
  00068	6a 00		 push	 0
  0006a	6a 00		 push	 0
  0006c	6a 00		 push	 0
  0006e	e8 00 00 00 00	 call	 __invoke_watson
$LN23@Tidy:
  00073	cc		 int	 3
?_Tidy@?$vector@USQuestInstance@CPythonQuest@@V?$allocator@USQuestInstance@CPythonQuest@@@std@@@std@@AAEXXZ ENDP ; std::vector<CPythonQuest::SQuestInstance,std::allocator<CPythonQuest::SQuestInstance> >::_Tidy
_TEXT	ENDS
; Function compile flags: /Ogtp
; File C:\Program Files\Microsoft Visual Studio\2022\Community\VC\Tools\MSVC\14.44.35207\include\type_traits
;	COMDAT ??$forward@AAPAUSQuestInstance@CPythonQuest@@@std@@YAAAPAUSQuestInstance@CPythonQuest@@AAPAU12@@Z
_TEXT	SEGMENT
??$forward@AAPAUSQuestInstance@CPythonQuest@@@std@@YAAAPAUSQuestInstance@CPythonQuest@@AAPAU12@@Z PROC ; std::forward<CPythonQuest::SQuestInstance * &>, COMDAT
; __Arg$ = ecx

; 1502 :     return static_cast<_Ty&&>(_Arg);

  00000	8b c1		 mov	 eax, ecx

; 1503 : }

  00002	c3		 ret	 0
??$forward@AAPAUSQuestInstance@CPythonQuest@@@std@@YAAAPAUSQuestInstance@CPythonQuest@@AAPAU12@@Z ENDP ; std::forward<CPythonQuest::SQuestInstance * &>
_TEXT	ENDS
; Function compile flags: /Ogtp
; File C:\Program Files\Microsoft Visual Studio\2022\Community\VC\Tools\MSVC\14.44.35207\include\xmemory
; File C:\Program Files\Microsoft Visual Studio\2022\Community\VC\Tools\MSVC\14.44.35207\include\xstring
; File C:\Program Files\Microsoft Visual Studio\2022\Community\VC\Tools\MSVC\14.44.35207\include\xmemory
;	COMDAT ??$destroy_at@USQuestInstance@CPythonQuest@@@std@@YAXQAUSQuestInstance@CPythonQuest@@@Z
_TEXT	SEGMENT
??$destroy_at@USQuestInstance@CPythonQuest@@@std@@YAXQAUSQuestInstance@CPythonQuest@@@Z PROC ; std::destroy_at<CPythonQuest::SQuestInstance>, COMDAT
; __Location$ = ecx

; 330  : _CONSTEXPR20 void destroy_at(_Ty* const _Location) noexcept /* strengthened */ {

  00000	56		 push	 esi
  00001	8b f1		 mov	 esi, ecx
  00003	8d 4e 4c	 lea	 ecx, DWORD PTR [esi+76]
; File C:\Program Files\Microsoft Visual Studio\2022\Community\VC\Tools\MSVC\14.44.35207\include\xstring

; 1383 :         _Tidy_deallocate();

  00006	e8 00 00 00 00	 call	 ?_Tidy_deallocate@?$basic_string@DU?$char_traits@D@std@@V?$allocator@D@2@@std@@AAEXXZ ; std::basic_string<char,std::char_traits<char>,std::allocator<char> >::_Tidy_deallocate
  0000b	8d 4e 34	 lea	 ecx, DWORD PTR [esi+52]
  0000e	e8 00 00 00 00	 call	 ?_Tidy_deallocate@?$basic_string@DU?$char_traits@D@std@@V?$allocator@D@2@@std@@AAEXXZ ; std::basic_string<char,std::char_traits<char>,std::allocator<char> >::_Tidy_deallocate
  00013	8d 4e 1c	 lea	 ecx, DWORD PTR [esi+28]
  00016	e8 00 00 00 00	 call	 ?_Tidy_deallocate@?$basic_string@DU?$char_traits@D@std@@V?$allocator@D@2@@std@@AAEXXZ ; std::basic_string<char,std::char_traits<char>,std::allocator<char> >::_Tidy_deallocate
  0001b	8d 4e 04	 lea	 ecx, DWORD PTR [esi+4]
  0001e	5e		 pop	 esi
  0001f	e9 00 00 00 00	 jmp	 ?_Tidy_deallocate@?$basic_string@DU?$char_traits@D@std@@V?$allocator@D@2@@std@@AAEXXZ ; std::basic_string<char,std::char_traits<char>,std::allocator<char> >::_Tidy_deallocate
??$destroy_at@USQuestInstance@CPythonQuest@@@std@@YAXQAUSQuestInstance@CPythonQuest@@@Z ENDP ; std::destroy_at<CPythonQuest::SQuestInstance>
_TEXT	ENDS
; Function compile flags: /Ogtp
; File C:\Program Files\Microsoft Visual Studio\2022\Community\VC\Tools\MSVC\14.44.35207\include\type_traits
;	COMDAT ??$forward@USQuestInstance@CPythonQuest@@@std@@YA$$QAUSQuestInstance@CPythonQuest@@AAU12@@Z
_TEXT	SEGMENT
??$forward@USQuestInstance@CPythonQuest@@@std@@YA$$QAUSQuestInstance@CPythonQuest@@AAU12@@Z PROC ; std::forward<CPythonQuest::SQuestInstance>, COMDAT
; __Arg$ = ecx

; 1502 :     return static_cast<_Ty&&>(_Arg);

  00000	8b c1		 mov	 eax, ecx

; 1503 : }

  00002	c3		 ret	 0
??$forward@USQuestInstance@CPythonQuest@@@std@@YA$$QAUSQuestInstance@CPythonQuest@@AAU12@@Z ENDP ; std::forward<CPythonQuest::SQuestInstance>
_TEXT	ENDS
; Function compile flags: /Ogtp
; File C:\Program Files\Microsoft Visual Studio\2022\Community\VC\Tools\MSVC\14.44.35207\include\vector
;	COMDAT ??$_Emplace_back_with_unused_capacity@USQuestInstance@CPythonQuest@@@?$vector@USQuestInstance@CPythonQuest@@V?$allocator@USQuestInstance@CPythonQuest@@@std@@@std@@AAEAAUSQuestInstance@CPythonQuest@@$$QAU23@@Z
_TEXT	SEGMENT
_<_Val_0>$ = 8						; size = 4
??$_Emplace_back_with_unused_capacity@USQuestInstance@CPythonQuest@@@?$vector@USQuestInstance@CPythonQuest@@V?$allocator@USQuestInstance@CPythonQuest@@@std@@@std@@AAEAAUSQuestInstance@CPythonQuest@@$$QAU23@@Z PROC ; std::vector<CPythonQuest::SQuestInstance,std::allocator<CPythonQuest::SQuestInstance> >::_Emplace_back_with_unused_capacity<CPythonQuest::SQuestInstance>, COMDAT
; _this$ = ecx

; 852  :     _CONSTEXPR20 _Ty& _Emplace_back_with_unused_capacity(_Valty&&... _Val) {

  00000	55		 push	 ebp
  00001	8b ec		 mov	 ebp, esp
  00003	56		 push	 esi

; 853  :         // insert by perfectly forwarding into element at end, provide strong guarantee
; 854  :         auto& _My_data   = _Mypair._Myval2;
; 855  :         pointer& _Mylast = _My_data._Mylast;
; 856  :         _STL_INTERNAL_CHECK(_Mylast != _My_data._Myend); // check that we have unused capacity
; 857  :         if constexpr (conjunction_v<is_nothrow_constructible<_Ty, _Valty...>,
; 858  :                           _Uses_default_construct<_Alloc, _Ty*, _Valty...>>) {
; 859  :             _ASAN_VECTOR_MODIFY(1);
; 860  :             _STD _Construct_in_place(*_Mylast, _STD forward<_Valty>(_Val)...);
; 861  :         } else {
; 862  :             _ASAN_VECTOR_EXTEND_GUARD(static_cast<size_type>(_Mylast - _My_data._Myfirst) + 1);
; 863  :             _Alty_traits::construct(_Getal(), _Unfancy(_Mylast), _STD forward<_Valty>(_Val)...);
; 864  :             _ASAN_VECTOR_RELEASE_GUARD;
; 865  :         }
; 866  : 
; 867  :         _Orphan_range(_Mylast, _Mylast);
; 868  :         _Ty& _Result = *_Mylast;

  00004	ff 75 08	 push	 DWORD PTR _<_Val_0>$[ebp]
  00007	8b f1		 mov	 esi, ecx
  00009	8b 4e 04	 mov	 ecx, DWORD PTR [esi+4]
  0000c	e8 00 00 00 00	 call	 ??0SQuestInstance@CPythonQuest@@QAE@$$QAU01@@Z
  00011	8b 46 04	 mov	 eax, DWORD PTR [esi+4]

; 869  :         ++_Mylast;

  00014	8d 50 70	 lea	 edx, DWORD PTR [eax+112]
  00017	89 56 04	 mov	 DWORD PTR [esi+4], edx

; 870  : 
; 871  :         return _Result;

  0001a	5e		 pop	 esi

; 872  :     }

  0001b	5d		 pop	 ebp
  0001c	c2 04 00	 ret	 4
??$_Emplace_back_with_unused_capacity@USQuestInstance@CPythonQuest@@@?$vector@USQuestInstance@CPythonQuest@@V?$allocator@USQuestInstance@CPythonQuest@@@std@@@std@@AAEAAUSQuestInstance@CPythonQuest@@$$QAU23@@Z ENDP ; std::vector<CPythonQuest::SQuestInstance,std::allocator<CPythonQuest::SQuestInstance> >::_Emplace_back_with_unused_capacity<CPythonQuest::SQuestInstance>
_TEXT	ENDS
; Function compile flags: /Ogtp
; File C:\Program Files\Microsoft Visual Studio\2022\Community\VC\Tools\MSVC\14.44.35207\include\vector
; File C:\Program Files\Microsoft Visual Studio\2022\Community\VC\Tools\MSVC\14.44.35207\include\xmemory
; File C:\Program Files\Microsoft Visual Studio\2022\Community\VC\Tools\MSVC\14.44.35207\include\vector
; File C:\Program Files\Microsoft Visual Studio\2022\Community\VC\Tools\MSVC\14.44.35207\include\xmemory
; File C:\Program Files\Microsoft Visual Studio\2022\Community\VC\Tools\MSVC\14.44.35207\include\vector
; File C:\Program Files\Microsoft Visual Studio\2022\Community\VC\Tools\MSVC\14.44.35207\include\xutility
; File C:\Program Files\Microsoft Visual Studio\2022\Community\VC\Tools\MSVC\14.44.35207\include\vector
; File C:\Program Files\Microsoft Visual Studio\2022\Community\VC\Tools\MSVC\14.44.35207\include\xutility
; File C:\Program Files\Microsoft Visual Studio\2022\Community\VC\Tools\MSVC\14.44.35207\include\vector
; File C:\Program Files\Microsoft Visual Studio\2022\Community\VC\Tools\MSVC\14.44.35207\include\xmemory
; File C:\Program Files\Microsoft Visual Studio\2022\Community\VC\Tools\MSVC\14.44.35207\include\vector
;	COMDAT ??$_Emplace_reallocate@USQuestInstance@CPythonQuest@@@?$vector@USQuestInstance@CPythonQuest@@V?$allocator@USQuestInstance@CPythonQuest@@@std@@@std@@AAEPAUSQuestInstance@CPythonQuest@@QAU23@$$QAU23@@Z
_TEXT	SEGMENT
__Guard$ = -32						; size = 20
tv331 = -12						; size = 4
__Oldsize$1$ = -8					; size = 4
__Whereoff$1$ = -4					; size = 4
tv329 = -4						; size = 4
__Whereptr$ = 8						; size = 4
_<_Val_0>$ = 12						; size = 4
??$_Emplace_reallocate@USQuestInstance@CPythonQuest@@@?$vector@USQuestInstance@CPythonQuest@@V?$allocator@USQuestInstance@CPythonQuest@@@std@@@std@@AAEPAUSQuestInstance@CPythonQuest@@QAU23@$$QAU23@@Z PROC ; std::vector<CPythonQuest::SQuestInstance,std::allocator<CPythonQuest::SQuestInstance> >::_Emplace_reallocate<CPythonQuest::SQuestInstance>, COMDAT
; _this$ = ecx

; 875  :     _CONSTEXPR20 pointer _Emplace_reallocate(const pointer _Whereptr, _Valty&&... _Val) {

  00000	55		 push	 ebp
  00001	8b ec		 mov	 ebp, esp
  00003	83 ec 20	 sub	 esp, 32			; 00000020H
  00006	53		 push	 ebx
  00007	8b d9		 mov	 ebx, ecx

; 876  :         // reallocate and insert by perfectly forwarding _Val at _Whereptr
; 877  :         _Alty& _Al        = _Getal();
; 878  :         auto& _My_data    = _Mypair._Myval2;
; 879  :         pointer& _Myfirst = _My_data._Myfirst;
; 880  :         pointer& _Mylast  = _My_data._Mylast;
; 881  : 
; 882  :         _STL_INTERNAL_CHECK(_Mylast == _My_data._Myend); // check that we have no unused capacity
; 883  : 
; 884  :         const auto _Whereoff = static_cast<size_type>(_Whereptr - _Myfirst);

  00009	b8 93 24 49 92	 mov	 eax, -1840700269	; 92492493H
  0000e	56		 push	 esi
  0000f	8b 75 08	 mov	 esi, DWORD PTR __Whereptr$[ebp]
  00012	57		 push	 edi
  00013	8b 0b		 mov	 ecx, DWORD PTR [ebx]
  00015	2b f1		 sub	 esi, ecx
  00017	f7 ee		 imul	 esi
  00019	03 d6		 add	 edx, esi
  0001b	c1 fa 06	 sar	 edx, 6
  0001e	8b c2		 mov	 eax, edx
  00020	c1 e8 1f	 shr	 eax, 31			; 0000001fH
  00023	03 c2		 add	 eax, edx
  00025	89 45 fc	 mov	 DWORD PTR __Whereoff$1$[ebp], eax

; 885  :         const auto _Oldsize  = static_cast<size_type>(_Mylast - _Myfirst);

  00028	8b 43 04	 mov	 eax, DWORD PTR [ebx+4]
  0002b	2b c1		 sub	 eax, ecx
  0002d	c1 f8 04	 sar	 eax, 4
  00030	69 c0 b7 6d db
	b6		 imul	 eax, eax, -1227133513
  00036	89 45 f8	 mov	 DWORD PTR __Oldsize$1$[ebp], eax

; 886  : 
; 887  :         if (_Oldsize == max_size()) {

  00039	3d 92 24 49 02	 cmp	 eax, 38347922		; 02492492H
  0003e	0f 84 e5 00 00
	00		 je	 $LN48@Emplace_re

; 889  :         }
; 890  : 
; 891  :         const size_type _Newsize = _Oldsize + 1;

  00044	8d 50 01	 lea	 edx, DWORD PTR [eax+1]

; 1924 :         return static_cast<size_type>(_My_data._Myend - _My_data._Myfirst);

  00047	8b 43 08	 mov	 eax, DWORD PTR [ebx+8]
  0004a	2b c1		 sub	 eax, ecx
  0004c	c1 f8 04	 sar	 eax, 4
  0004f	69 f0 b7 6d db
	b6		 imul	 esi, eax, -1227133513

; 2011 :         if (_Oldcapacity > _Max - _Oldcapacity / 2) {

  00055	b8 92 24 49 02	 mov	 eax, 38347922		; 02492492H
  0005a	8b ce		 mov	 ecx, esi
  0005c	d1 e9		 shr	 ecx, 1
  0005e	2b c1		 sub	 eax, ecx
  00060	3b f0		 cmp	 esi, eax
  00062	76 12		 jbe	 SHORT $LN8@Emplace_re

; 2012 :             return _Max; // geometric growth would overflow

  00064	b8 e0 ff ff ff	 mov	 eax, -32		; ffffffe0H
  00069	be 92 24 49 02	 mov	 esi, 38347922		; 02492492H
; File C:\Program Files\Microsoft Visual Studio\2022\Community\VC\Tools\MSVC\14.44.35207\include\xmemory

; 253  :             return _Allocate_manually_vector_aligned<_Traits>(_Bytes);

  0006e	50		 push	 eax
  0006f	e8 00 00 00 00	 call	 ??$_Allocate_manually_vector_aligned@U_Default_allocate_traits@std@@@std@@YAPAXI@Z ; std::_Allocate_manually_vector_aligned<std::_Default_allocate_traits>
  00074	eb 36		 jmp	 SHORT $LN45@Emplace_re
$LN8@Emplace_re:
; File C:\Program Files\Microsoft Visual Studio\2022\Community\VC\Tools\MSVC\14.44.35207\include\vector

; 2015 :         const size_type _Geometric = _Oldcapacity + _Oldcapacity / 2;

  00076	8d 04 31	 lea	 eax, DWORD PTR [ecx+esi]
; File C:\Program Files\Microsoft Visual Studio\2022\Community\VC\Tools\MSVC\14.44.35207\include\xmemory

; 117  :         if (_Count > _Max_possible) {

  00079	8b f2		 mov	 esi, edx
  0007b	3b c2		 cmp	 eax, edx
  0007d	0f 43 f0	 cmovae	 esi, eax
  00080	81 fe 92 24 49
	02		 cmp	 esi, 38347922		; 02492492H
  00086	0f 87 a2 00 00
	00		 ja	 $LN49@Emplace_re

; 119  :         }
; 120  :     }
; 121  : 
; 122  :     return _Count * _Ty_size;

  0008c	6b c6 70	 imul	 eax, esi, 112

; 227  :     if (_Bytes == 0) {

  0008f	85 c0		 test	 eax, eax
  00091	75 04		 jne	 SHORT $LN23@Emplace_re

; 228  :         return nullptr;

  00093	33 ff		 xor	 edi, edi
  00095	eb 1a		 jmp	 SHORT $LN22@Emplace_re
$LN23@Emplace_re:

; 229  :     }
; 230  : 
; 231  : #if _HAS_CXX20 // TRANSITION, GH-1532
; 232  :     if (_STD is_constant_evaluated()) {
; 233  :         return _Traits::_Allocate(_Bytes);
; 234  :     }
; 235  : #endif // _HAS_CXX20
; 236  : 
; 237  : #ifdef __cpp_aligned_new
; 238  :     if constexpr (_Align > __STDCPP_DEFAULT_NEW_ALIGNMENT__) {
; 239  :         size_t _Passed_align = _Align;
; 240  : #if defined(_M_IX86) || defined(_M_X64)
; 241  :         if (_Bytes >= _Big_allocation_threshold) {
; 242  :             // boost the alignment of big allocations to help autovectorization
; 243  :             _Passed_align = (_STD max)(_Align, _Big_allocation_alignment);
; 244  :         }
; 245  : #endif // defined(_M_IX86) || defined(_M_X64)
; 246  :         return _Traits::_Allocate_aligned(_Bytes, _Passed_align);
; 247  :     } else
; 248  : #endif // defined(__cpp_aligned_new)
; 249  :     {
; 250  : #if defined(_M_IX86) || defined(_M_X64)
; 251  :         if (_Bytes >= _Big_allocation_threshold) {

  00097	3d 00 10 00 00	 cmp	 eax, 4096		; 00001000H
  0009c	72 08		 jb	 SHORT $LN25@Emplace_re

; 253  :             return _Allocate_manually_vector_aligned<_Traits>(_Bytes);

  0009e	50		 push	 eax
  0009f	e8 00 00 00 00	 call	 ??$_Allocate_manually_vector_aligned@U_Default_allocate_traits@std@@@std@@YAPAXI@Z ; std::_Allocate_manually_vector_aligned<std::_Default_allocate_traits>
  000a4	eb 06		 jmp	 SHORT $LN45@Emplace_re
$LN25@Emplace_re:

; 136  :         return ::operator new(_Bytes);

  000a6	50		 push	 eax
  000a7	e8 00 00 00 00	 call	 ??2@YAPAXI@Z		; operator new
$LN45@Emplace_re:
; File C:\Program Files\Microsoft Visual Studio\2022\Community\VC\Tools\MSVC\14.44.35207\include\vector

; 895  :         const pointer _Constructed_last = _Newvec + _Whereoff + 1;

  000ac	8b f8		 mov	 edi, eax
  000ae	83 c4 04	 add	 esp, 4
$LN22@Emplace_re:
  000b1	6b 4d fc 70	 imul	 ecx, DWORD PTR __Whereoff$1$[ebp], 112
; File C:\Program Files\Microsoft Visual Studio\2022\Community\VC\Tools\MSVC\14.44.35207\include\xutility

; 463  :     _MSVC_CONSTEXPR return ::new (static_cast<void*>(_Location)) _Ty(_STD forward<_Types>(_Args)...);

  000b5	ff 75 0c	 push	 DWORD PTR _<_Val_0>$[ebp]
; File C:\Program Files\Microsoft Visual Studio\2022\Community\VC\Tools\MSVC\14.44.35207\include\vector

; 897  :         _Reallocation_guard _Guard{_Al, _Newvec, _Newcapacity, _Constructed_last, _Constructed_last};

  000b8	89 5d e0	 mov	 DWORD PTR __Guard$[ebp], ebx
  000bb	89 75 e8	 mov	 DWORD PTR __Guard$[ebp+8], esi
  000be	03 cf		 add	 ecx, edi
  000c0	89 4d f4	 mov	 DWORD PTR tv331[ebp], ecx
  000c3	8d 41 70	 lea	 eax, DWORD PTR [ecx+112]
  000c6	89 45 fc	 mov	 DWORD PTR tv329[ebp], eax
  000c9	89 45 f0	 mov	 DWORD PTR __Guard$[ebp+16], eax
; File C:\Program Files\Microsoft Visual Studio\2022\Community\VC\Tools\MSVC\14.44.35207\include\xutility

; 463  :     _MSVC_CONSTEXPR return ::new (static_cast<void*>(_Location)) _Ty(_STD forward<_Types>(_Args)...);

  000cc	e8 00 00 00 00	 call	 ??0SQuestInstance@CPythonQuest@@QAE@$$QAU01@@Z
; File C:\Program Files\Microsoft Visual Studio\2022\Community\VC\Tools\MSVC\14.44.35207\include\vector

; 903  :         if (_Whereptr == _Mylast) { // at back, provide strong guarantee

  000d1	8b 53 04	 mov	 edx, DWORD PTR [ebx+4]
  000d4	8b 45 08	 mov	 eax, DWORD PTR __Whereptr$[ebp]
  000d7	89 4d ec	 mov	 DWORD PTR __Guard$[ebp+12], ecx
  000da	8b 0b		 mov	 ecx, DWORD PTR [ebx]
  000dc	51		 push	 ecx
  000dd	57		 push	 edi
  000de	3b c2		 cmp	 eax, edx
  000e0	74 16		 je	 SHORT $LN46@Emplace_re

; 904  :             if constexpr (is_nothrow_move_constructible_v<_Ty> || !is_copy_constructible_v<_Ty>) {
; 905  :                 _STD _Uninitialized_move(_Myfirst, _Mylast, _Newvec, _Al);
; 906  :             } else {
; 907  :                 _STD _Uninitialized_copy(_Myfirst, _Mylast, _Newvec, _Al);
; 908  :             }
; 909  :         } else { // provide basic guarantee
; 910  :             _STD _Uninitialized_move(_Myfirst, _Whereptr, _Newvec, _Al);

  000e2	8b d0		 mov	 edx, eax
  000e4	e8 00 00 00 00	 call	 ??$_Uninitialized_move@PAUSQuestInstance@CPythonQuest@@V?$allocator@USQuestInstance@CPythonQuest@@@std@@@std@@YAPAUSQuestInstance@CPythonQuest@@QAU12@0PAU12@AAV?$allocator@USQuestInstance@CPythonQuest@@@0@@Z ; std::_Uninitialized_move<CPythonQuest::SQuestInstance *,std::allocator<CPythonQuest::SQuestInstance> >

; 911  :             _Constructed_first = _Newvec;
; 912  :             _STD _Uninitialized_move(_Whereptr, _Mylast, _Newvec + _Whereoff + 1, _Al);

  000e9	8b 53 04	 mov	 edx, DWORD PTR [ebx+4]
  000ec	83 c4 04	 add	 esp, 4
  000ef	8b 4d 08	 mov	 ecx, DWORD PTR __Whereptr$[ebp]
  000f2	89 7d ec	 mov	 DWORD PTR __Guard$[ebp+12], edi
  000f5	ff 75 fc	 push	 DWORD PTR tv329[ebp]
$LN46@Emplace_re:

; 913  :         }
; 914  : 
; 915  :         _Guard._New_begin = nullptr;

  000f8	e8 00 00 00 00	 call	 ??$_Uninitialized_move@PAUSQuestInstance@CPythonQuest@@V?$allocator@USQuestInstance@CPythonQuest@@@std@@@std@@YAPAUSQuestInstance@CPythonQuest@@QAU12@0PAU12@AAV?$allocator@USQuestInstance@CPythonQuest@@@0@@Z ; std::_Uninitialized_move<CPythonQuest::SQuestInstance *,std::allocator<CPythonQuest::SQuestInstance> >

; 916  :         _Change_array(_Newvec, _Newsize, _Newcapacity);

  000fd	8b 45 f8	 mov	 eax, DWORD PTR __Oldsize$1$[ebp]
  00100	83 c4 08	 add	 esp, 8
  00103	40		 inc	 eax
  00104	c7 45 e4 00 00
	00 00		 mov	 DWORD PTR __Guard$[ebp+4], 0
  0010b	8b cb		 mov	 ecx, ebx
  0010d	56		 push	 esi
  0010e	50		 push	 eax
  0010f	57		 push	 edi
  00110	e8 00 00 00 00	 call	 ?_Change_array@?$vector@USQuestInstance@CPythonQuest@@V?$allocator@USQuestInstance@CPythonQuest@@@std@@@std@@AAEXQAUSQuestInstance@CPythonQuest@@II@Z ; std::vector<CPythonQuest::SQuestInstance,std::allocator<CPythonQuest::SQuestInstance> >::_Change_array

; 917  :         return _Newvec + _Whereoff;

  00115	8d 4d e0	 lea	 ecx, DWORD PTR __Guard$[ebp]
  00118	e8 00 00 00 00	 call	 ??1_Reallocation_guard@?$vector@USQuestInstance@CPythonQuest@@V?$allocator@USQuestInstance@CPythonQuest@@@std@@@std@@QAE@XZ ; std::vector<CPythonQuest::SQuestInstance,std::allocator<CPythonQuest::SQuestInstance> >::_Reallocation_guard::~_Reallocation_guard
  0011d	8b 45 f4	 mov	 eax, DWORD PTR tv331[ebp]

; 918  :     }

  00120	5f		 pop	 edi
  00121	5e		 pop	 esi
  00122	5b		 pop	 ebx
  00123	8b e5		 mov	 esp, ebp
  00125	5d		 pop	 ebp
  00126	c2 08 00	 ret	 8
$LN48@Emplace_re:

; 888  :             _Xlength();

  00129	e8 00 00 00 00	 call	 ?_Xlength@?$vector@USQuestInstance@CPythonQuest@@V?$allocator@USQuestInstance@CPythonQuest@@@std@@@std@@CAXXZ ; std::vector<CPythonQuest::SQuestInstance,std::allocator<CPythonQuest::SQuestInstance> >::_Xlength
$LN49@Emplace_re:
; File C:\Program Files\Microsoft Visual Studio\2022\Community\VC\Tools\MSVC\14.44.35207\include\xmemory

; 118  :             _Throw_bad_array_new_length(); // multiply overflow

  0012e	e8 00 00 00 00	 call	 ?_Throw_bad_array_new_length@std@@YAXXZ ; std::_Throw_bad_array_new_length
$LN44@Emplace_re:
  00133	cc		 int	 3
??$_Emplace_reallocate@USQuestInstance@CPythonQuest@@@?$vector@USQuestInstance@CPythonQuest@@V?$allocator@USQuestInstance@CPythonQuest@@@std@@@std@@AAEPAUSQuestInstance@CPythonQuest@@QAU23@$$QAU23@@Z ENDP ; std::vector<CPythonQuest::SQuestInstance,std::allocator<CPythonQuest::SQuestInstance> >::_Emplace_reallocate<CPythonQuest::SQuestInstance>
_TEXT	ENDS
; Function compile flags: /Ogtp
; File C:\Program Files\Microsoft Visual Studio\2022\Community\VC\Tools\MSVC\14.44.35207\include\type_traits
;	COMDAT ??$forward@ABUSQuestInstance@CPythonQuest@@@std@@YAABUSQuestInstance@CPythonQuest@@ABU12@@Z
_TEXT	SEGMENT
??$forward@ABUSQuestInstance@CPythonQuest@@@std@@YAABUSQuestInstance@CPythonQuest@@ABU12@@Z PROC ; std::forward<CPythonQuest::SQuestInstance const &>, COMDAT
; __Arg$ = ecx

; 1502 :     return static_cast<_Ty&&>(_Arg);

  00000	8b c1		 mov	 eax, ecx

; 1503 : }

  00002	c3		 ret	 0
??$forward@ABUSQuestInstance@CPythonQuest@@@std@@YAABUSQuestInstance@CPythonQuest@@ABU12@@Z ENDP ; std::forward<CPythonQuest::SQuestInstance const &>
_TEXT	ENDS
; Function compile flags: /Ogtp
; File C:\Program Files\Microsoft Visual Studio\2022\Community\VC\Tools\MSVC\14.44.35207\include\vector
;	COMDAT ??$_Emplace_back_with_unused_capacity@ABUSQuestInstance@CPythonQuest@@@?$vector@USQuestInstance@CPythonQuest@@V?$allocator@USQuestInstance@CPythonQuest@@@std@@@std@@AAEAAUSQuestInstance@CPythonQuest@@ABU23@@Z
_TEXT	SEGMENT
_<_Val_0>$ = 8						; size = 4
??$_Emplace_back_with_unused_capacity@ABUSQuestInstance@CPythonQuest@@@?$vector@USQuestInstance@CPythonQuest@@V?$allocator@USQuestInstance@CPythonQuest@@@std@@@std@@AAEAAUSQuestInstance@CPythonQuest@@ABU23@@Z PROC ; std::vector<CPythonQuest::SQuestInstance,std::allocator<CPythonQuest::SQuestInstance> >::_Emplace_back_with_unused_capacity<CPythonQuest::SQuestInstance const &>, COMDAT
; _this$ = ecx

; 852  :     _CONSTEXPR20 _Ty& _Emplace_back_with_unused_capacity(_Valty&&... _Val) {

  00000	55		 push	 ebp
  00001	8b ec		 mov	 ebp, esp
  00003	56		 push	 esi

; 853  :         // insert by perfectly forwarding into element at end, provide strong guarantee
; 854  :         auto& _My_data   = _Mypair._Myval2;
; 855  :         pointer& _Mylast = _My_data._Mylast;
; 856  :         _STL_INTERNAL_CHECK(_Mylast != _My_data._Myend); // check that we have unused capacity
; 857  :         if constexpr (conjunction_v<is_nothrow_constructible<_Ty, _Valty...>,
; 858  :                           _Uses_default_construct<_Alloc, _Ty*, _Valty...>>) {
; 859  :             _ASAN_VECTOR_MODIFY(1);
; 860  :             _STD _Construct_in_place(*_Mylast, _STD forward<_Valty>(_Val)...);
; 861  :         } else {
; 862  :             _ASAN_VECTOR_EXTEND_GUARD(static_cast<size_type>(_Mylast - _My_data._Myfirst) + 1);
; 863  :             _Alty_traits::construct(_Getal(), _Unfancy(_Mylast), _STD forward<_Valty>(_Val)...);

  00004	ff 75 08	 push	 DWORD PTR _<_Val_0>$[ebp]
  00007	8b f1		 mov	 esi, ecx
  00009	8b 56 04	 mov	 edx, DWORD PTR [esi+4]
  0000c	e8 00 00 00 00	 call	 ??$construct@USQuestInstance@CPythonQuest@@ABU12@@?$_Default_allocator_traits@V?$allocator@USQuestInstance@CPythonQuest@@@std@@@std@@SAXAAV?$allocator@USQuestInstance@CPythonQuest@@@1@QAUSQuestInstance@CPythonQuest@@ABU34@@Z ; std::_Default_allocator_traits<std::allocator<CPythonQuest::SQuestInstance> >::construct<CPythonQuest::SQuestInstance,CPythonQuest::SQuestInstance const &>

; 864  :             _ASAN_VECTOR_RELEASE_GUARD;
; 865  :         }
; 866  : 
; 867  :         _Orphan_range(_Mylast, _Mylast);
; 868  :         _Ty& _Result = *_Mylast;

  00011	8b 46 04	 mov	 eax, DWORD PTR [esi+4]
  00014	83 c4 04	 add	 esp, 4

; 869  :         ++_Mylast;

  00017	8d 48 70	 lea	 ecx, DWORD PTR [eax+112]
  0001a	89 4e 04	 mov	 DWORD PTR [esi+4], ecx

; 870  : 
; 871  :         return _Result;

  0001d	5e		 pop	 esi

; 872  :     }

  0001e	5d		 pop	 ebp
  0001f	c2 04 00	 ret	 4
??$_Emplace_back_with_unused_capacity@ABUSQuestInstance@CPythonQuest@@@?$vector@USQuestInstance@CPythonQuest@@V?$allocator@USQuestInstance@CPythonQuest@@@std@@@std@@AAEAAUSQuestInstance@CPythonQuest@@ABU23@@Z ENDP ; std::vector<CPythonQuest::SQuestInstance,std::allocator<CPythonQuest::SQuestInstance> >::_Emplace_back_with_unused_capacity<CPythonQuest::SQuestInstance const &>
_TEXT	ENDS
; Function compile flags: /Ogtp
; File C:\Program Files\Microsoft Visual Studio\2022\Community\VC\Tools\MSVC\14.44.35207\include\vector
; File C:\Program Files\Microsoft Visual Studio\2022\Community\VC\Tools\MSVC\14.44.35207\include\xmemory
; File C:\Program Files\Microsoft Visual Studio\2022\Community\VC\Tools\MSVC\14.44.35207\include\vector
; File C:\Program Files\Microsoft Visual Studio\2022\Community\VC\Tools\MSVC\14.44.35207\include\xmemory
; File C:\Program Files\Microsoft Visual Studio\2022\Community\VC\Tools\MSVC\14.44.35207\include\vector
; File C:\Program Files\Microsoft Visual Studio\2022\Community\VC\Tools\MSVC\14.44.35207\include\xmemory
; File C:\Program Files\Microsoft Visual Studio\2022\Community\VC\Tools\MSVC\14.44.35207\include\vector
;	COMDAT ??$_Emplace_reallocate@ABUSQuestInstance@CPythonQuest@@@?$vector@USQuestInstance@CPythonQuest@@V?$allocator@USQuestInstance@CPythonQuest@@@std@@@std@@AAEPAUSQuestInstance@CPythonQuest@@QAU23@ABU23@@Z
_TEXT	SEGMENT
__Guard$ = -44						; size = 20
__Oldsize$1$ = -24					; size = 4
__Constructed_last$1$ = -20				; size = 4
__Whereoff$1$ = -16					; size = 4
tv336 = -16						; size = 4
__$EHRec$ = -12						; size = 12
__Whereptr$ = 8						; size = 4
_<_Val_0>$ = 12						; size = 4
??$_Emplace_reallocate@ABUSQuestInstance@CPythonQuest@@@?$vector@USQuestInstance@CPythonQuest@@V?$allocator@USQuestInstance@CPythonQuest@@@std@@@std@@AAEPAUSQuestInstance@CPythonQuest@@QAU23@ABU23@@Z PROC ; std::vector<CPythonQuest::SQuestInstance,std::allocator<CPythonQuest::SQuestInstance> >::_Emplace_reallocate<CPythonQuest::SQuestInstance const &>, COMDAT
; _this$ = ecx

; 875  :     _CONSTEXPR20 pointer _Emplace_reallocate(const pointer _Whereptr, _Valty&&... _Val) {

  00000	55		 push	 ebp
  00001	8b ec		 mov	 ebp, esp
  00003	6a ff		 push	 -1
  00005	68 00 00 00 00	 push	 __ehhandler$??$_Emplace_reallocate@ABUSQuestInstance@CPythonQuest@@@?$vector@USQuestInstance@CPythonQuest@@V?$allocator@USQuestInstance@CPythonQuest@@@std@@@std@@AAEPAUSQuestInstance@CPythonQuest@@QAU23@ABU23@@Z
  0000a	64 a1 00 00 00
	00		 mov	 eax, DWORD PTR fs:0
  00010	50		 push	 eax
  00011	83 ec 20	 sub	 esp, 32			; 00000020H
  00014	53		 push	 ebx
  00015	56		 push	 esi
  00016	57		 push	 edi
  00017	a1 00 00 00 00	 mov	 eax, DWORD PTR ___security_cookie
  0001c	33 c5		 xor	 eax, ebp
  0001e	50		 push	 eax
  0001f	8d 45 f4	 lea	 eax, DWORD PTR __$EHRec$[ebp]
  00022	64 a3 00 00 00
	00		 mov	 DWORD PTR fs:0, eax
  00028	8b d9		 mov	 ebx, ecx

; 876  :         // reallocate and insert by perfectly forwarding _Val at _Whereptr
; 877  :         _Alty& _Al        = _Getal();
; 878  :         auto& _My_data    = _Mypair._Myval2;
; 879  :         pointer& _Myfirst = _My_data._Myfirst;
; 880  :         pointer& _Mylast  = _My_data._Mylast;
; 881  : 
; 882  :         _STL_INTERNAL_CHECK(_Mylast == _My_data._Myend); // check that we have no unused capacity
; 883  : 
; 884  :         const auto _Whereoff = static_cast<size_type>(_Whereptr - _Myfirst);

  0002a	8b 0b		 mov	 ecx, DWORD PTR [ebx]
  0002c	b8 93 24 49 92	 mov	 eax, -1840700269	; 92492493H
  00031	8b 75 08	 mov	 esi, DWORD PTR __Whereptr$[ebp]
  00034	2b f1		 sub	 esi, ecx
  00036	f7 ee		 imul	 esi
  00038	03 d6		 add	 edx, esi
  0003a	c1 fa 06	 sar	 edx, 6
  0003d	8b c2		 mov	 eax, edx
  0003f	c1 e8 1f	 shr	 eax, 31			; 0000001fH
  00042	03 c2		 add	 eax, edx
  00044	89 45 f0	 mov	 DWORD PTR __Whereoff$1$[ebp], eax

; 885  :         const auto _Oldsize  = static_cast<size_type>(_Mylast - _Myfirst);

  00047	8b 43 04	 mov	 eax, DWORD PTR [ebx+4]
  0004a	2b c1		 sub	 eax, ecx
  0004c	c1 f8 04	 sar	 eax, 4
  0004f	69 c0 b7 6d db
	b6		 imul	 eax, eax, -1227133513
  00055	89 45 e8	 mov	 DWORD PTR __Oldsize$1$[ebp], eax

; 886  : 
; 887  :         if (_Oldsize == max_size()) {

  00058	3d 92 24 49 02	 cmp	 eax, 38347922		; 02492492H
  0005d	0f 84 05 01 00
	00		 je	 $LN39@Emplace_re

; 889  :         }
; 890  : 
; 891  :         const size_type _Newsize = _Oldsize + 1;

  00063	8d 50 01	 lea	 edx, DWORD PTR [eax+1]

; 1924 :         return static_cast<size_type>(_My_data._Myend - _My_data._Myfirst);

  00066	8b 43 08	 mov	 eax, DWORD PTR [ebx+8]
  00069	2b c1		 sub	 eax, ecx
  0006b	c1 f8 04	 sar	 eax, 4
  0006e	69 f0 b7 6d db
	b6		 imul	 esi, eax, -1227133513

; 2011 :         if (_Oldcapacity > _Max - _Oldcapacity / 2) {

  00074	b8 92 24 49 02	 mov	 eax, 38347922		; 02492492H
  00079	8b ce		 mov	 ecx, esi
  0007b	d1 e9		 shr	 ecx, 1
  0007d	2b c1		 sub	 eax, ecx
  0007f	3b f0		 cmp	 esi, eax
  00081	76 12		 jbe	 SHORT $LN8@Emplace_re

; 2012 :             return _Max; // geometric growth would overflow

  00083	b8 e0 ff ff ff	 mov	 eax, -32		; ffffffe0H
  00088	bf 92 24 49 02	 mov	 edi, 38347922		; 02492492H
; File C:\Program Files\Microsoft Visual Studio\2022\Community\VC\Tools\MSVC\14.44.35207\include\xmemory

; 253  :             return _Allocate_manually_vector_aligned<_Traits>(_Bytes);

  0008d	50		 push	 eax
  0008e	e8 00 00 00 00	 call	 ??$_Allocate_manually_vector_aligned@U_Default_allocate_traits@std@@@std@@YAPAXI@Z ; std::_Allocate_manually_vector_aligned<std::_Default_allocate_traits>
  00093	eb 36		 jmp	 SHORT $LN36@Emplace_re
$LN8@Emplace_re:
; File C:\Program Files\Microsoft Visual Studio\2022\Community\VC\Tools\MSVC\14.44.35207\include\vector

; 2015 :         const size_type _Geometric = _Oldcapacity + _Oldcapacity / 2;

  00095	8d 04 31	 lea	 eax, DWORD PTR [ecx+esi]
; File C:\Program Files\Microsoft Visual Studio\2022\Community\VC\Tools\MSVC\14.44.35207\include\xmemory

; 117  :         if (_Count > _Max_possible) {

  00098	8b fa		 mov	 edi, edx
  0009a	3b c2		 cmp	 eax, edx
  0009c	0f 43 f8	 cmovae	 edi, eax
  0009f	81 ff 92 24 49
	02		 cmp	 edi, 38347922		; 02492492H
  000a5	0f 87 c2 00 00
	00		 ja	 $LN40@Emplace_re

; 119  :         }
; 120  :     }
; 121  : 
; 122  :     return _Count * _Ty_size;

  000ab	6b c7 70	 imul	 eax, edi, 112

; 227  :     if (_Bytes == 0) {

  000ae	85 c0		 test	 eax, eax
  000b0	75 04		 jne	 SHORT $LN23@Emplace_re

; 228  :         return nullptr;

  000b2	33 f6		 xor	 esi, esi
  000b4	eb 1a		 jmp	 SHORT $LN22@Emplace_re
$LN23@Emplace_re:

; 229  :     }
; 230  : 
; 231  : #if _HAS_CXX20 // TRANSITION, GH-1532
; 232  :     if (_STD is_constant_evaluated()) {
; 233  :         return _Traits::_Allocate(_Bytes);
; 234  :     }
; 235  : #endif // _HAS_CXX20
; 236  : 
; 237  : #ifdef __cpp_aligned_new
; 238  :     if constexpr (_Align > __STDCPP_DEFAULT_NEW_ALIGNMENT__) {
; 239  :         size_t _Passed_align = _Align;
; 240  : #if defined(_M_IX86) || defined(_M_X64)
; 241  :         if (_Bytes >= _Big_allocation_threshold) {
; 242  :             // boost the alignment of big allocations to help autovectorization
; 243  :             _Passed_align = (_STD max)(_Align, _Big_allocation_alignment);
; 244  :         }
; 245  : #endif // defined(_M_IX86) || defined(_M_X64)
; 246  :         return _Traits::_Allocate_aligned(_Bytes, _Passed_align);
; 247  :     } else
; 248  : #endif // defined(__cpp_aligned_new)
; 249  :     {
; 250  : #if defined(_M_IX86) || defined(_M_X64)
; 251  :         if (_Bytes >= _Big_allocation_threshold) {

  000b6	3d 00 10 00 00	 cmp	 eax, 4096		; 00001000H
  000bb	72 08		 jb	 SHORT $LN25@Emplace_re

; 253  :             return _Allocate_manually_vector_aligned<_Traits>(_Bytes);

  000bd	50		 push	 eax
  000be	e8 00 00 00 00	 call	 ??$_Allocate_manually_vector_aligned@U_Default_allocate_traits@std@@@std@@YAPAXI@Z ; std::_Allocate_manually_vector_aligned<std::_Default_allocate_traits>
  000c3	eb 06		 jmp	 SHORT $LN36@Emplace_re
$LN25@Emplace_re:

; 136  :         return ::operator new(_Bytes);

  000c5	50		 push	 eax
  000c6	e8 00 00 00 00	 call	 ??2@YAPAXI@Z		; operator new
$LN36@Emplace_re:
; File C:\Program Files\Microsoft Visual Studio\2022\Community\VC\Tools\MSVC\14.44.35207\include\vector

; 895  :         const pointer _Constructed_last = _Newvec + _Whereoff + 1;

  000cb	8b f0		 mov	 esi, eax
  000cd	83 c4 04	 add	 esp, 4
$LN22@Emplace_re:
  000d0	6b 45 f0 70	 imul	 eax, DWORD PTR __Whereoff$1$[ebp], 112

; 896  : 
; 897  :         _Reallocation_guard _Guard{_Al, _Newvec, _Newcapacity, _Constructed_last, _Constructed_last};

  000d4	89 5d d4	 mov	 DWORD PTR __Guard$[ebp], ebx
  000d7	89 75 d8	 mov	 DWORD PTR __Guard$[ebp+4], esi
  000da	89 7d dc	 mov	 DWORD PTR __Guard$[ebp+8], edi
  000dd	03 c6		 add	 eax, esi
  000df	89 45 f0	 mov	 DWORD PTR tv336[ebp], eax
  000e2	8d 48 70	 lea	 ecx, DWORD PTR [eax+112]
  000e5	89 4d ec	 mov	 DWORD PTR __Constructed_last$1$[ebp], ecx
  000e8	89 4d e0	 mov	 DWORD PTR __Guard$[ebp+12], ecx
  000eb	89 4d e4	 mov	 DWORD PTR __Guard$[ebp+16], ecx

; 898  :         auto& _Constructed_first = _Guard._Constructed_first;
; 899  : 
; 900  :         _Alty_traits::construct(_Al, _STD _Unfancy(_Newvec + _Whereoff), _STD forward<_Valty>(_Val)...);

  000ee	ff 75 0c	 push	 DWORD PTR _<_Val_0>$[ebp]
  000f1	8b d0		 mov	 edx, eax
  000f3	c7 45 fc 00 00
	00 00		 mov	 DWORD PTR __$EHRec$[ebp+8], 0
  000fa	e8 00 00 00 00	 call	 ??$construct@USQuestInstance@CPythonQuest@@ABU12@@?$_Default_allocator_traits@V?$allocator@USQuestInstance@CPythonQuest@@@std@@@std@@SAXAAV?$allocator@USQuestInstance@CPythonQuest@@@1@QAUSQuestInstance@CPythonQuest@@ABU34@@Z ; std::_Default_allocator_traits<std::allocator<CPythonQuest::SQuestInstance> >::construct<CPythonQuest::SQuestInstance,CPythonQuest::SQuestInstance const &>

; 901  :         _Constructed_first = _Newvec + _Whereoff;

  000ff	8b 45 f0	 mov	 eax, DWORD PTR tv336[ebp]
  00102	83 c4 04	 add	 esp, 4

; 902  : 
; 903  :         if (_Whereptr == _Mylast) { // at back, provide strong guarantee

  00105	8b 0b		 mov	 ecx, DWORD PTR [ebx]
  00107	8b 53 04	 mov	 edx, DWORD PTR [ebx+4]
  0010a	89 45 e0	 mov	 DWORD PTR __Guard$[ebp+12], eax
  0010d	8b 45 08	 mov	 eax, DWORD PTR __Whereptr$[ebp]
  00110	51		 push	 ecx
  00111	56		 push	 esi
  00112	3b c2		 cmp	 eax, edx
  00114	74 16		 je	 SHORT $LN37@Emplace_re

; 904  :             if constexpr (is_nothrow_move_constructible_v<_Ty> || !is_copy_constructible_v<_Ty>) {
; 905  :                 _STD _Uninitialized_move(_Myfirst, _Mylast, _Newvec, _Al);
; 906  :             } else {
; 907  :                 _STD _Uninitialized_copy(_Myfirst, _Mylast, _Newvec, _Al);
; 908  :             }
; 909  :         } else { // provide basic guarantee
; 910  :             _STD _Uninitialized_move(_Myfirst, _Whereptr, _Newvec, _Al);

  00116	8b d0		 mov	 edx, eax
  00118	e8 00 00 00 00	 call	 ??$_Uninitialized_move@PAUSQuestInstance@CPythonQuest@@V?$allocator@USQuestInstance@CPythonQuest@@@std@@@std@@YAPAUSQuestInstance@CPythonQuest@@QAU12@0PAU12@AAV?$allocator@USQuestInstance@CPythonQuest@@@0@@Z ; std::_Uninitialized_move<CPythonQuest::SQuestInstance *,std::allocator<CPythonQuest::SQuestInstance> >

; 911  :             _Constructed_first = _Newvec;
; 912  :             _STD _Uninitialized_move(_Whereptr, _Mylast, _Newvec + _Whereoff + 1, _Al);

  0011d	8b 53 04	 mov	 edx, DWORD PTR [ebx+4]
  00120	83 c4 04	 add	 esp, 4
  00123	8b 4d 08	 mov	 ecx, DWORD PTR __Whereptr$[ebp]
  00126	89 75 e0	 mov	 DWORD PTR __Guard$[ebp+12], esi
  00129	ff 75 ec	 push	 DWORD PTR __Constructed_last$1$[ebp]
$LN37@Emplace_re:

; 913  :         }
; 914  : 
; 915  :         _Guard._New_begin = nullptr;

  0012c	e8 00 00 00 00	 call	 ??$_Uninitialized_move@PAUSQuestInstance@CPythonQuest@@V?$allocator@USQuestInstance@CPythonQuest@@@std@@@std@@YAPAUSQuestInstance@CPythonQuest@@QAU12@0PAU12@AAV?$allocator@USQuestInstance@CPythonQuest@@@0@@Z ; std::_Uninitialized_move<CPythonQuest::SQuestInstance *,std::allocator<CPythonQuest::SQuestInstance> >

; 916  :         _Change_array(_Newvec, _Newsize, _Newcapacity);

  00131	8b 45 e8	 mov	 eax, DWORD PTR __Oldsize$1$[ebp]
  00134	83 c4 08	 add	 esp, 8
  00137	40		 inc	 eax
  00138	c7 45 d8 00 00
	00 00		 mov	 DWORD PTR __Guard$[ebp+4], 0
  0013f	8b cb		 mov	 ecx, ebx
  00141	57		 push	 edi
  00142	50		 push	 eax
  00143	56		 push	 esi
  00144	e8 00 00 00 00	 call	 ?_Change_array@?$vector@USQuestInstance@CPythonQuest@@V?$allocator@USQuestInstance@CPythonQuest@@@std@@@std@@AAEXQAUSQuestInstance@CPythonQuest@@II@Z ; std::vector<CPythonQuest::SQuestInstance,std::allocator<CPythonQuest::SQuestInstance> >::_Change_array

; 917  :         return _Newvec + _Whereoff;

  00149	8d 4d d4	 lea	 ecx, DWORD PTR __Guard$[ebp]
  0014c	e8 00 00 00 00	 call	 ??1_Reallocation_guard@?$vector@USQuestInstance@CPythonQuest@@V?$allocator@USQuestInstance@CPythonQuest@@@std@@@std@@QAE@XZ ; std::vector<CPythonQuest::SQuestInstance,std::allocator<CPythonQuest::SQuestInstance> >::_Reallocation_guard::~_Reallocation_guard
  00151	8b 45 f0	 mov	 eax, DWORD PTR tv336[ebp]

; 918  :     }

  00154	8b 4d f4	 mov	 ecx, DWORD PTR __$EHRec$[ebp]
  00157	64 89 0d 00 00
	00 00		 mov	 DWORD PTR fs:0, ecx
  0015e	59		 pop	 ecx
  0015f	5f		 pop	 edi
  00160	5e		 pop	 esi
  00161	5b		 pop	 ebx
  00162	8b e5		 mov	 esp, ebp
  00164	5d		 pop	 ebp
  00165	c2 08 00	 ret	 8
$LN39@Emplace_re:

; 888  :             _Xlength();

  00168	e8 00 00 00 00	 call	 ?_Xlength@?$vector@USQuestInstance@CPythonQuest@@V?$allocator@USQuestInstance@CPythonQuest@@@std@@@std@@CAXXZ ; std::vector<CPythonQuest::SQuestInstance,std::allocator<CPythonQuest::SQuestInstance> >::_Xlength
$LN40@Emplace_re:
; File C:\Program Files\Microsoft Visual Studio\2022\Community\VC\Tools\MSVC\14.44.35207\include\xmemory

; 118  :             _Throw_bad_array_new_length(); // multiply overflow

  0016d	e8 00 00 00 00	 call	 ?_Throw_bad_array_new_length@std@@YAXXZ ; std::_Throw_bad_array_new_length
$LN35@Emplace_re:
  00172	cc		 int	 3
_TEXT	ENDS
;	COMDAT text$x
text$x	SEGMENT
__unwindfunclet$??$_Emplace_reallocate@ABUSQuestInstance@CPythonQuest@@@?$vector@USQuestInstance@CPythonQuest@@V?$allocator@USQuestInstance@CPythonQuest@@@std@@@std@@AAEPAUSQuestInstance@CPythonQuest@@QAU23@ABU23@@Z$0:
  00000	8d 4d d4	 lea	 ecx, DWORD PTR __Guard$[ebp]
  00003	e9 00 00 00 00	 jmp	 ??1_Reallocation_guard@?$vector@USQuestInstance@CPythonQuest@@V?$allocator@USQuestInstance@CPythonQuest@@@std@@@std@@QAE@XZ ; std::vector<CPythonQuest::SQuestInstance,std::allocator<CPythonQuest::SQuestInstance> >::_Reallocation_guard::~_Reallocation_guard
  00008	cc		 int	 3
  00009	cc		 int	 3
  0000a	cc		 int	 3
  0000b	cc		 int	 3
  0000c	cc		 int	 3
__ehhandler$??$_Emplace_reallocate@ABUSQuestInstance@CPythonQuest@@@?$vector@USQuestInstance@CPythonQuest@@V?$allocator@USQuestInstance@CPythonQuest@@@std@@@std@@AAEPAUSQuestInstance@CPythonQuest@@QAU23@ABU23@@Z:
  0000d	90		 npad	 1
  0000e	90		 npad	 1
  0000f	8b 54 24 08	 mov	 edx, DWORD PTR [esp+8]
  00013	8d 42 0c	 lea	 eax, DWORD PTR [edx+12]
  00016	8b 4a d0	 mov	 ecx, DWORD PTR [edx-48]
  00019	33 c8		 xor	 ecx, eax
  0001b	e8 00 00 00 00	 call	 @__security_check_cookie@4
  00020	b8 00 00 00 00	 mov	 eax, OFFSET __ehfuncinfo$??$_Emplace_reallocate@ABUSQuestInstance@CPythonQuest@@@?$vector@USQuestInstance@CPythonQuest@@V?$allocator@USQuestInstance@CPythonQuest@@@std@@@std@@AAEPAUSQuestInstance@CPythonQuest@@QAU23@ABU23@@Z
  00025	e9 00 00 00 00	 jmp	 ___CxxFrameHandler3
text$x	ENDS
??$_Emplace_reallocate@ABUSQuestInstance@CPythonQuest@@@?$vector@USQuestInstance@CPythonQuest@@V?$allocator@USQuestInstance@CPythonQuest@@@std@@@std@@AAEPAUSQuestInstance@CPythonQuest@@QAU23@ABU23@@Z ENDP ; std::vector<CPythonQuest::SQuestInstance,std::allocator<CPythonQuest::SQuestInstance> >::_Emplace_reallocate<CPythonQuest::SQuestInstance const &>
; Function compile flags: /Ogtp
; File C:\Program Files\Microsoft Visual Studio\2022\Community\VC\Tools\MSVC\14.44.35207\include\type_traits
;	COMDAT ??$move@AAV?$_Vector_iterator@V?$_Vector_val@U?$_Simple_types@USQuestInstance@CPythonQuest@@@std@@@std@@@std@@@std@@YA$$QAV?$_Vector_iterator@V?$_Vector_val@U?$_Simple_types@USQuestInstance@CPythonQuest@@@std@@@std@@@0@AAV10@@Z
_TEXT	SEGMENT
??$move@AAV?$_Vector_iterator@V?$_Vector_val@U?$_Simple_types@USQuestInstance@CPythonQuest@@@std@@@std@@@std@@@std@@YA$$QAV?$_Vector_iterator@V?$_Vector_val@U?$_Simple_types@USQuestInstance@CPythonQuest@@@std@@@std@@@0@AAV10@@Z PROC ; std::move<std::_Vector_iterator<std::_Vector_val<std::_Simple_types<CPythonQuest::SQuestInstance> > > &>, COMDAT
; __Arg$ = ecx

; 1513 :     return static_cast<remove_reference_t<_Ty>&&>(_Arg);

  00000	8b c1		 mov	 eax, ecx

; 1514 : }

  00002	c3		 ret	 0
??$move@AAV?$_Vector_iterator@V?$_Vector_val@U?$_Simple_types@USQuestInstance@CPythonQuest@@@std@@@std@@@std@@@std@@YA$$QAV?$_Vector_iterator@V?$_Vector_val@U?$_Simple_types@USQuestInstance@CPythonQuest@@@std@@@std@@@0@AAV10@@Z ENDP ; std::move<std::_Vector_iterator<std::_Vector_val<std::_Simple_types<CPythonQuest::SQuestInstance> > > &>
_TEXT	ENDS
; Function compile flags: /Ogtp
; File C:\Program Files\Microsoft Visual Studio\2022\Community\VC\Tools\MSVC\14.44.35207\include\xmemory
;	COMDAT ?_Get_first@?$_Compressed_pair@V?$allocator@USQuestInstance@CPythonQuest@@@std@@V?$_Vector_val@U?$_Simple_types@USQuestInstance@CPythonQuest@@@std@@@2@$00@std@@QAEAAV?$allocator@USQuestInstance@CPythonQuest@@@2@XZ
_TEXT	SEGMENT
?_Get_first@?$_Compressed_pair@V?$allocator@USQuestInstance@CPythonQuest@@@std@@V?$_Vector_val@U?$_Simple_types@USQuestInstance@CPythonQuest@@@std@@@2@$00@std@@QAEAAV?$allocator@USQuestInstance@CPythonQuest@@@2@XZ PROC ; std::_Compressed_pair<std::allocator<CPythonQuest::SQuestInstance>,std::_Vector_val<std::_Simple_types<CPythonQuest::SQuestInstance> >,1>::_Get_first, COMDAT
; _this$ = ecx

; 1539 :         return *this;

  00000	8b c1		 mov	 eax, ecx

; 1540 :     }

  00002	c3		 ret	 0
?_Get_first@?$_Compressed_pair@V?$allocator@USQuestInstance@CPythonQuest@@@std@@V?$_Vector_val@U?$_Simple_types@USQuestInstance@CPythonQuest@@@std@@@2@$00@std@@QAEAAV?$allocator@USQuestInstance@CPythonQuest@@@2@XZ ENDP ; std::_Compressed_pair<std::allocator<CPythonQuest::SQuestInstance>,std::_Vector_val<std::_Simple_types<CPythonQuest::SQuestInstance> >,1>::_Get_first
_TEXT	ENDS
; Function compile flags: /Ogtp
; File C:\Program Files\Microsoft Visual Studio\2022\Community\VC\Tools\MSVC\14.44.35207\include\vector
;	COMDAT ?_Seek_to@?$_Vector_const_iterator@V?$_Vector_val@U?$_Simple_types@USQuestInstance@CPythonQuest@@@std@@@std@@@std@@QAEXPBUSQuestInstance@CPythonQuest@@@Z
_TEXT	SEGMENT
__It$ = 8						; size = 4
?_Seek_to@?$_Vector_const_iterator@V?$_Vector_val@U?$_Simple_types@USQuestInstance@CPythonQuest@@@std@@@std@@@std@@QAEXPBUSQuestInstance@CPythonQuest@@@Z PROC ; std::_Vector_const_iterator<std::_Vector_val<std::_Simple_types<CPythonQuest::SQuestInstance> > >::_Seek_to, COMDAT
; _this$ = ecx

; 220  :     _CONSTEXPR20 void _Seek_to(const value_type* _It) noexcept {

  00000	55		 push	 ebp
  00001	8b ec		 mov	 ebp, esp

; 221  :         _Ptr = _STD _Refancy_maybe_null<_Tptr>(const_cast<value_type*>(_It));

  00003	8b 45 08	 mov	 eax, DWORD PTR __It$[ebp]
  00006	89 01		 mov	 DWORD PTR [ecx], eax

; 222  :     }

  00008	5d		 pop	 ebp
  00009	c2 04 00	 ret	 4
?_Seek_to@?$_Vector_const_iterator@V?$_Vector_val@U?$_Simple_types@USQuestInstance@CPythonQuest@@@std@@@std@@@std@@QAEXPBUSQuestInstance@CPythonQuest@@@Z ENDP ; std::_Vector_const_iterator<std::_Vector_val<std::_Simple_types<CPythonQuest::SQuestInstance> > >::_Seek_to
_TEXT	ENDS
; Function compile flags: /Ogtp
; File C:\Program Files\Microsoft Visual Studio\2022\Community\VC\Tools\MSVC\14.44.35207\include\vector
;	COMDAT ??F?$_Vector_const_iterator@V?$_Vector_val@U?$_Simple_types@USQuestInstance@CPythonQuest@@@std@@@std@@@std@@QAEAAV01@XZ
_TEXT	SEGMENT
??F?$_Vector_const_iterator@V?$_Vector_val@U?$_Simple_types@USQuestInstance@CPythonQuest@@@std@@@std@@@std@@QAEAAV01@XZ PROC ; std::_Vector_const_iterator<std::_Vector_val<std::_Simple_types<CPythonQuest::SQuestInstance> > >::operator--, COMDAT
; _this$ = ecx

; 93   : #if _ITERATOR_DEBUG_LEVEL != 0
; 94   :         const auto _Mycont = static_cast<const _Myvec*>(this->_Getcont());
; 95   :         _STL_VERIFY(_Ptr, "can't decrement value-initialized vector iterator");
; 96   :         _STL_VERIFY(_Mycont, "can't decrement invalidated vector iterator");
; 97   :         _STL_VERIFY(_Mycont->_Myfirst < _Ptr, "can't decrement vector iterator before begin");
; 98   : #endif // _ITERATOR_DEBUG_LEVEL != 0
; 99   : 
; 100  :         --_Ptr;

  00000	83 01 90	 add	 DWORD PTR [ecx], -112	; ffffff90H

; 101  :         return *this;

  00003	8b c1		 mov	 eax, ecx

; 102  :     }

  00005	c3		 ret	 0
??F?$_Vector_const_iterator@V?$_Vector_val@U?$_Simple_types@USQuestInstance@CPythonQuest@@@std@@@std@@@std@@QAEAAV01@XZ ENDP ; std::_Vector_const_iterator<std::_Vector_val<std::_Simple_types<CPythonQuest::SQuestInstance> > >::operator--
_TEXT	ENDS
; Function compile flags: /Ogtp
; File C:\Program Files\Microsoft Visual Studio\2022\Community\VC\Tools\MSVC\14.44.35207\include\vector
;	COMDAT ??0?$_Vector_val@U?$_Simple_types@USQuestInstance@CPythonQuest@@@std@@@std@@QAE@XZ
_TEXT	SEGMENT
??0?$_Vector_val@U?$_Simple_types@USQuestInstance@CPythonQuest@@@std@@@std@@QAE@XZ PROC ; std::_Vector_val<std::_Simple_types<CPythonQuest::SQuestInstance> >::_Vector_val<std::_Simple_types<CPythonQuest::SQuestInstance> >, COMDAT
; _this$ = ecx

; 400  :     _CONSTEXPR20 _Vector_val() noexcept : _Myfirst(), _Mylast(), _Myend() {}

  00000	c7 01 00 00 00
	00		 mov	 DWORD PTR [ecx], 0
  00006	8b c1		 mov	 eax, ecx
  00008	c7 41 04 00 00
	00 00		 mov	 DWORD PTR [ecx+4], 0
  0000f	c7 41 08 00 00
	00 00		 mov	 DWORD PTR [ecx+8], 0
  00016	c3		 ret	 0
??0?$_Vector_val@U?$_Simple_types@USQuestInstance@CPythonQuest@@@std@@@std@@QAE@XZ ENDP ; std::_Vector_val<std::_Simple_types<CPythonQuest::SQuestInstance> >::_Vector_val<std::_Simple_types<CPythonQuest::SQuestInstance> >
_TEXT	ENDS
; Function compile flags: /Ogtp
; File C:\Program Files\Microsoft Visual Studio\2022\Community\VC\Tools\MSVC\14.44.35207\include\xmemory
;	COMDAT ?deallocate@?$allocator@USQuestInstance@CPythonQuest@@@std@@QAEXQAUSQuestInstance@CPythonQuest@@I@Z
_TEXT	SEGMENT
__Ptr$ = 8						; size = 4
__Count$ = 12						; size = 4
?deallocate@?$allocator@USQuestInstance@CPythonQuest@@@std@@QAEXQAUSQuestInstance@CPythonQuest@@I@Z PROC ; std::allocator<CPythonQuest::SQuestInstance>::deallocate, COMDAT
; _this$dead$ = ecx

; 982  :     _CONSTEXPR20 void deallocate(_Ty* const _Ptr, const size_t _Count) noexcept /* strengthened */ {

  00000	55		 push	 ebp
  00001	8b ec		 mov	 ebp, esp

; 983  :         _STL_ASSERT(_Ptr != nullptr || _Count == 0, "null pointer cannot point to a block of non-zero size");
; 984  :         // no overflow check on the following multiply; we assume _Allocate did that check
; 985  :         _STD _Deallocate<_New_alignof<_Ty>>(_Ptr, sizeof(_Ty) * _Count);

  00003	6b 4d 0c 70	 imul	 ecx, DWORD PTR __Count$[ebp], 112
  00007	8b 45 08	 mov	 eax, DWORD PTR __Ptr$[ebp]

; 284  :         if (_Bytes >= _Big_allocation_threshold) {

  0000a	81 f9 00 10 00
	00		 cmp	 ecx, 4096		; 00001000H
  00010	72 12		 jb	 SHORT $LN12@deallocate

; 205  :     const uintptr_t _Ptr_container   = _Ptr_user[-1];

  00012	8b 50 fc	 mov	 edx, DWORD PTR [eax-4]
  00015	83 c1 23	 add	 ecx, 35			; 00000023H

; 206  : 
; 207  :     // If the following asserts, it likely means that we are performing
; 208  :     // an aligned delete on memory coming from an unaligned allocation.
; 209  :     _STL_ASSERT(_Ptr_user[-2] == _Big_allocation_sentinel, "invalid argument");
; 210  : 
; 211  :     // Extra paranoia on aligned allocation/deallocation; ensure _Ptr_container is
; 212  :     // in range [_Min_back_shift, _Non_user_size]
; 213  : #ifdef _DEBUG
; 214  :     constexpr uintptr_t _Min_back_shift = 2 * sizeof(void*);
; 215  : #else // ^^^ defined(_DEBUG) / !defined(_DEBUG) vvv
; 216  :     constexpr uintptr_t _Min_back_shift = sizeof(void*);
; 217  : #endif // ^^^ !defined(_DEBUG) ^^^
; 218  :     const uintptr_t _Back_shift = reinterpret_cast<uintptr_t>(_Ptr) - _Ptr_container;

  00018	2b c2		 sub	 eax, edx

; 219  :     _STL_VERIFY(_Back_shift >= _Min_back_shift && _Back_shift <= _Non_user_size, "invalid argument");

  0001a	83 c0 fc	 add	 eax, -4			; fffffffcH
  0001d	83 f8 1f	 cmp	 eax, 31			; 0000001fH
  00020	77 10		 ja	 SHORT $LN11@deallocate

; 220  :     _Ptr = reinterpret_cast<void*>(_Ptr_container);

  00022	8b c2		 mov	 eax, edx
$LN12@deallocate:

; 289  :         ::operator delete(_Ptr, _Bytes);

  00024	51		 push	 ecx
  00025	50		 push	 eax
  00026	e8 00 00 00 00	 call	 ??3@YAXPAXI@Z		; operator delete
  0002b	83 c4 08	 add	 esp, 8

; 986  :     }

  0002e	5d		 pop	 ebp
  0002f	c2 08 00	 ret	 8
$LN11@deallocate:

; 219  :     _STL_VERIFY(_Back_shift >= _Min_back_shift && _Back_shift <= _Non_user_size, "invalid argument");

  00032	6a 00		 push	 0
  00034	6a 00		 push	 0
  00036	6a 00		 push	 0
  00038	6a 00		 push	 0
  0003a	6a 00		 push	 0
  0003c	e8 00 00 00 00	 call	 __invoke_watson
$LN15@deallocate:
  00041	cc		 int	 3
?deallocate@?$allocator@USQuestInstance@CPythonQuest@@@std@@QAEXQAUSQuestInstance@CPythonQuest@@I@Z ENDP ; std::allocator<CPythonQuest::SQuestInstance>::deallocate
_TEXT	ENDS
; Function compile flags: /Ogtp
; File C:\Program Files\Microsoft Visual Studio\2022\Community\VC\Tools\MSVC\14.44.35207\include\xmemory
;	COMDAT ??0?$allocator@USQuestInstance@CPythonQuest@@@std@@QAE@XZ
_TEXT	SEGMENT
??0?$allocator@USQuestInstance@CPythonQuest@@@std@@QAE@XZ PROC ; std::allocator<CPythonQuest::SQuestInstance>::allocator<CPythonQuest::SQuestInstance>, COMDAT
; _this$ = ecx

; 974  :     constexpr allocator() noexcept {}

  00000	8b c1		 mov	 eax, ecx
  00002	c3		 ret	 0
??0?$allocator@USQuestInstance@CPythonQuest@@@std@@QAE@XZ ENDP ; std::allocator<CPythonQuest::SQuestInstance>::allocator<CPythonQuest::SQuestInstance>
_TEXT	ENDS
; Function compile flags: /Ogtp
; File C:\Program Files\Microsoft Visual Studio\2022\Community\VC\Tools\MSVC\14.44.35207\include\xstring
;	COMDAT ??_GSQuestInstance@CPythonQuest@@QAEPAXI@Z
_TEXT	SEGMENT
___flags$dead$ = 8					; size = 4
??_GSQuestInstance@CPythonQuest@@QAEPAXI@Z PROC		; CPythonQuest::SQuestInstance::`scalar deleting destructor', COMDAT
; _this$ = ecx

; 1383 :         _Tidy_deallocate();

  00000	56		 push	 esi
  00001	8b f1		 mov	 esi, ecx
  00003	8d 4e 4c	 lea	 ecx, DWORD PTR [esi+76]
  00006	e8 00 00 00 00	 call	 ?_Tidy_deallocate@?$basic_string@DU?$char_traits@D@std@@V?$allocator@D@2@@std@@AAEXXZ ; std::basic_string<char,std::char_traits<char>,std::allocator<char> >::_Tidy_deallocate
  0000b	8d 4e 34	 lea	 ecx, DWORD PTR [esi+52]
  0000e	e8 00 00 00 00	 call	 ?_Tidy_deallocate@?$basic_string@DU?$char_traits@D@std@@V?$allocator@D@2@@std@@AAEXXZ ; std::basic_string<char,std::char_traits<char>,std::allocator<char> >::_Tidy_deallocate
  00013	8d 4e 1c	 lea	 ecx, DWORD PTR [esi+28]
  00016	e8 00 00 00 00	 call	 ?_Tidy_deallocate@?$basic_string@DU?$char_traits@D@std@@V?$allocator@D@2@@std@@AAEXXZ ; std::basic_string<char,std::char_traits<char>,std::allocator<char> >::_Tidy_deallocate
  0001b	8d 4e 04	 lea	 ecx, DWORD PTR [esi+4]
  0001e	e8 00 00 00 00	 call	 ?_Tidy_deallocate@?$basic_string@DU?$char_traits@D@std@@V?$allocator@D@2@@std@@AAEXXZ ; std::basic_string<char,std::char_traits<char>,std::allocator<char> >::_Tidy_deallocate
  00023	8b c6		 mov	 eax, esi
  00025	5e		 pop	 esi
  00026	c2 04 00	 ret	 4
??_GSQuestInstance@CPythonQuest@@QAEPAXI@Z ENDP		; CPythonQuest::SQuestInstance::`scalar deleting destructor'
_TEXT	ENDS
; Function compile flags: /Ogtp
; File C:\Program Files\Microsoft Visual Studio\2022\Community\VC\Tools\MSVC\14.44.35207\include\xutility
;	COMDAT ??$_Construct_in_place@USQuestInstance@CPythonQuest@@U12@@std@@YAXAAUSQuestInstance@CPythonQuest@@$$QAU12@@Z
_TEXT	SEGMENT
??$_Construct_in_place@USQuestInstance@CPythonQuest@@U12@@std@@YAXAAUSQuestInstance@CPythonQuest@@$$QAU12@@Z PROC ; std::_Construct_in_place<CPythonQuest::SQuestInstance,CPythonQuest::SQuestInstance>, COMDAT
; __Obj$ = ecx
; _<_Args_0>$ = edx

; 470  : #if _HAS_CXX20
; 471  :     if (_STD is_constant_evaluated()) {
; 472  :         _STD construct_at(_STD addressof(_Obj), _STD forward<_Types>(_Args)...);
; 473  :     } else
; 474  : #endif // _HAS_CXX20
; 475  :     {
; 476  :         ::new (static_cast<void*>(_STD addressof(_Obj))) _Ty(_STD forward<_Types>(_Args)...);
; 477  :     }
; 478  : }

  00000	52		 push	 edx
  00001	e8 00 00 00 00	 call	 ??0SQuestInstance@CPythonQuest@@QAE@$$QAU01@@Z
  00006	c3		 ret	 0
??$_Construct_in_place@USQuestInstance@CPythonQuest@@U12@@std@@YAXAAUSQuestInstance@CPythonQuest@@$$QAU12@@Z ENDP ; std::_Construct_in_place<CPythonQuest::SQuestInstance,CPythonQuest::SQuestInstance>
_TEXT	ENDS
; Function compile flags: /Ogtp
; File C:\Program Files\Microsoft Visual Studio\2022\Community\VC\Tools\MSVC\14.44.35207\include\xmemory
;	COMDAT ??$_Allocate_at_least_helper@V?$allocator@USQuestInstance@CPythonQuest@@@std@@@std@@YAPAUSQuestInstance@CPythonQuest@@AAV?$allocator@USQuestInstance@CPythonQuest@@@0@AAI@Z
_TEXT	SEGMENT
??$_Allocate_at_least_helper@V?$allocator@USQuestInstance@CPythonQuest@@@std@@@std@@YAPAUSQuestInstance@CPythonQuest@@AAV?$allocator@USQuestInstance@CPythonQuest@@@0@AAI@Z PROC ; std::_Allocate_at_least_helper<std::allocator<CPythonQuest::SQuestInstance> >, COMDAT
; __Al$dead$ = ecx
; __Count$ = edx

; 2295 : #if _HAS_CXX23
; 2296 :     if constexpr (_Should_allocate_at_least<_Alloc>) {
; 2297 :         auto [_Ptr, _Allocated] = _Al.allocate_at_least(_Count);
; 2298 :         _Count                  = _Allocated;
; 2299 :         return _Ptr;
; 2300 :     } else
; 2301 : #endif // _HAS_CXX23
; 2302 :     {
; 2303 :         return _Al.allocate(_Count);

  00000	8b 02		 mov	 eax, DWORD PTR [edx]

; 117  :         if (_Count > _Max_possible) {

  00002	3d 92 24 49 02	 cmp	 eax, 38347922		; 02492492H
  00007	0f 87 00 00 00
	00		 ja	 ?_Throw_bad_array_new_length@std@@YAXXZ ; std::_Throw_bad_array_new_length

; 118  :             _Throw_bad_array_new_length(); // multiply overflow
; 119  :         }
; 120  :     }
; 121  : 
; 122  :     return _Count * _Ty_size;

  0000d	6b c0 70	 imul	 eax, eax, 112

; 227  :     if (_Bytes == 0) {

  00010	85 c0		 test	 eax, eax
  00012	75 01		 jne	 SHORT $LN10@Allocate_a

; 2304 :     }
; 2305 : }

  00014	c3		 ret	 0
$LN10@Allocate_a:

; 251  :         if (_Bytes >= _Big_allocation_threshold) {

  00015	50		 push	 eax
  00016	3d 00 10 00 00	 cmp	 eax, 4096		; 00001000H
  0001b	72 09		 jb	 SHORT $LN12@Allocate_a

; 252  :             // boost the alignment of big allocations to help autovectorization
; 253  :             return _Allocate_manually_vector_aligned<_Traits>(_Bytes);

  0001d	e8 00 00 00 00	 call	 ??$_Allocate_manually_vector_aligned@U_Default_allocate_traits@std@@@std@@YAPAXI@Z ; std::_Allocate_manually_vector_aligned<std::_Default_allocate_traits>

; 2304 :     }
; 2305 : }

  00022	83 c4 04	 add	 esp, 4
  00025	c3		 ret	 0
$LN12@Allocate_a:

; 136  :         return ::operator new(_Bytes);

  00026	e8 00 00 00 00	 call	 ??2@YAPAXI@Z		; operator new

; 2304 :     }
; 2305 : }

  0002b	83 c4 04	 add	 esp, 4
  0002e	c3		 ret	 0
??$_Allocate_at_least_helper@V?$allocator@USQuestInstance@CPythonQuest@@@std@@@std@@YAPAUSQuestInstance@CPythonQuest@@AAV?$allocator@USQuestInstance@CPythonQuest@@@0@AAI@Z ENDP ; std::_Allocate_at_least_helper<std::allocator<CPythonQuest::SQuestInstance> >
_TEXT	ENDS
; Function compile flags: /Ogtp
; File C:\Program Files\Microsoft Visual Studio\2022\Community\VC\Tools\MSVC\14.44.35207\include\xmemory
; File C:\Program Files\Microsoft Visual Studio\2022\Community\VC\Tools\MSVC\14.44.35207\include\xutility
; File C:\Program Files\Microsoft Visual Studio\2022\Community\VC\Tools\MSVC\14.44.35207\include\xmemory
;	COMDAT ??$construct@USQuestInstance@CPythonQuest@@U12@@?$_Default_allocator_traits@V?$allocator@USQuestInstance@CPythonQuest@@@std@@@std@@SAXAAV?$allocator@USQuestInstance@CPythonQuest@@@1@QAUSQuestInstance@CPythonQuest@@$$QAU34@@Z
_TEXT	SEGMENT
_<_Args_0>$ = 8						; size = 4
??$construct@USQuestInstance@CPythonQuest@@U12@@?$_Default_allocator_traits@V?$allocator@USQuestInstance@CPythonQuest@@@std@@@std@@SAXAAV?$allocator@USQuestInstance@CPythonQuest@@@1@QAUSQuestInstance@CPythonQuest@@$$QAU34@@Z PROC ; std::_Default_allocator_traits<std::allocator<CPythonQuest::SQuestInstance> >::construct<CPythonQuest::SQuestInstance,CPythonQuest::SQuestInstance>, COMDAT
; ___formal$dead$ = ecx
; __Ptr$ = edx

; 728  :     static _CONSTEXPR20 void construct(_Alloc&, _Objty* const _Ptr, _Types&&... _Args) {

  00000	55		 push	 ebp
  00001	8b ec		 mov	 ebp, esp
; File C:\Program Files\Microsoft Visual Studio\2022\Community\VC\Tools\MSVC\14.44.35207\include\xutility

; 463  :     _MSVC_CONSTEXPR return ::new (static_cast<void*>(_Location)) _Ty(_STD forward<_Types>(_Args)...);

  00003	ff 75 08	 push	 DWORD PTR _<_Args_0>$[ebp]
  00006	8b ca		 mov	 ecx, edx
  00008	e8 00 00 00 00	 call	 ??0SQuestInstance@CPythonQuest@@QAE@$$QAU01@@Z
; File C:\Program Files\Microsoft Visual Studio\2022\Community\VC\Tools\MSVC\14.44.35207\include\xmemory

; 734  :     }

  0000d	5d		 pop	 ebp
  0000e	c3		 ret	 0
??$construct@USQuestInstance@CPythonQuest@@U12@@?$_Default_allocator_traits@V?$allocator@USQuestInstance@CPythonQuest@@@std@@@std@@SAXAAV?$allocator@USQuestInstance@CPythonQuest@@@1@QAUSQuestInstance@CPythonQuest@@$$QAU34@@Z ENDP ; std::_Default_allocator_traits<std::allocator<CPythonQuest::SQuestInstance> >::construct<CPythonQuest::SQuestInstance,CPythonQuest::SQuestInstance>
_TEXT	ENDS
; Function compile flags: /Ogtp
; File C:\Program Files\Microsoft Visual Studio\2022\Community\VC\Tools\MSVC\14.44.35207\include\xutility
;	COMDAT ??$_Get_unwrapped@ABQAUSQuestInstance@CPythonQuest@@@std@@YA?A_TABQAUSQuestInstance@CPythonQuest@@@Z
_TEXT	SEGMENT
??$_Get_unwrapped@ABQAUSQuestInstance@CPythonQuest@@@std@@YA?A_TABQAUSQuestInstance@CPythonQuest@@@Z PROC ; std::_Get_unwrapped<CPythonQuest::SQuestInstance * const &>, COMDAT
; __It$ = ecx

; 1380 :     // unwrap an iterator previously subjected to _Adl_verify_range or otherwise validated
; 1381 :     if constexpr (is_pointer_v<decay_t<_Iter>>) { // special-case pointers and arrays
; 1382 :         return _It + 0;

  00000	8b 01		 mov	 eax, DWORD PTR [ecx]

; 1383 :     } else if constexpr (_Unwrappable_v<_Iter>) {
; 1384 :         return static_cast<_Iter&&>(_It)._Unwrapped();
; 1385 :     } else {
; 1386 :         return static_cast<_Iter&&>(_It);
; 1387 :     }
; 1388 : }

  00002	c3		 ret	 0
??$_Get_unwrapped@ABQAUSQuestInstance@CPythonQuest@@@std@@YA?A_TABQAUSQuestInstance@CPythonQuest@@@Z ENDP ; std::_Get_unwrapped<CPythonQuest::SQuestInstance * const &>
_TEXT	ENDS
; Function compile flags: /Ogtp
; File C:\Program Files\Microsoft Visual Studio\2022\Community\VC\Tools\MSVC\14.44.35207\include\xmemory
; File C:\Program Files\Microsoft Visual Studio\2022\Community\VC\Tools\MSVC\14.44.35207\include\xutility
; File C:\Program Files\Microsoft Visual Studio\2022\Community\VC\Tools\MSVC\14.44.35207\include\xmemory
;	COMDAT ??$_Uninitialized_move@PAUSQuestInstance@CPythonQuest@@V?$allocator@USQuestInstance@CPythonQuest@@@std@@@std@@YAPAUSQuestInstance@CPythonQuest@@QAU12@0PAU12@AAV?$allocator@USQuestInstance@CPythonQuest@@@0@@Z
_TEXT	SEGMENT
__Dest$ = 8						; size = 4
__Al$dead$ = 12						; size = 4
??$_Uninitialized_move@PAUSQuestInstance@CPythonQuest@@V?$allocator@USQuestInstance@CPythonQuest@@@std@@@std@@YAPAUSQuestInstance@CPythonQuest@@QAU12@0PAU12@AAV?$allocator@USQuestInstance@CPythonQuest@@@0@@Z PROC ; std::_Uninitialized_move<CPythonQuest::SQuestInstance *,std::allocator<CPythonQuest::SQuestInstance> >, COMDAT
; __First$ = ecx
; __Last$ = edx

; 1977 :     const _InIt _First, const _InIt _Last, _Alloc_ptr_t<_Alloc> _Dest, _Alloc& _Al) {

  00000	55		 push	 ebp
  00001	8b ec		 mov	 ebp, esp
  00003	53		 push	 ebx
  00004	56		 push	 esi
  00005	8b da		 mov	 ebx, edx
  00007	8b f1		 mov	 esi, ecx
  00009	57		 push	 edi

; 1833 :     _CONSTEXPR20 _Uninitialized_backout_al(pointer _Dest, _Alloc& _Al_) : _First(_Dest), _Last(_Dest), _Al(_Al_) {}

  0000a	8b 7d 08	 mov	 edi, DWORD PTR __Dest$[ebp]

; 1978 :     // move [_First, _Last) to raw _Dest, using _Al
; 1979 :     // note: only called internally from elsewhere in the STL
; 1980 : #ifdef _ENABLE_STL_INTERNAL_CHECK
; 1981 :     _STD _Adl_verify_range(_First, _Last);
; 1982 : #endif // ^^^ defined(_ENABLE_STL_INTERNAL_CHECK) ^^^
; 1983 :     using _Ptrval     = typename _Alloc::value_type*;
; 1984 :     auto _UFirst      = _STD _Get_unwrapped(_First);
; 1985 :     const auto _ULast = _STD _Get_unwrapped(_Last);
; 1986 :     if constexpr (conjunction_v<bool_constant<_Iter_move_cat<decltype(_UFirst), _Ptrval>::_Bitcopy_constructible>,
; 1987 :                       _Uses_default_construct<_Alloc, _Ptrval, decltype(_STD move(*_UFirst))>>) {
; 1988 : #if _HAS_CXX20
; 1989 :         if (!_STD is_constant_evaluated())
; 1990 : #endif // _HAS_CXX20
; 1991 :         {
; 1992 :             _STD _Copy_memmove(_UFirst, _ULast, _STD _Unfancy(_Dest));
; 1993 :             return _Dest + (_ULast - _UFirst);
; 1994 :         }
; 1995 :     }
; 1996 : 
; 1997 :     _Uninitialized_backout_al<_Alloc> _Backout{_Dest, _Al};
; 1998 :     for (; _UFirst != _ULast; ++_UFirst) {

  0000d	3b f3		 cmp	 esi, ebx
  0000f	74 12		 je	 SHORT $LN3@Uninitiali
$LL4@Uninitiali:
; File C:\Program Files\Microsoft Visual Studio\2022\Community\VC\Tools\MSVC\14.44.35207\include\xutility

; 463  :     _MSVC_CONSTEXPR return ::new (static_cast<void*>(_Location)) _Ty(_STD forward<_Types>(_Args)...);

  00011	56		 push	 esi
  00012	8b cf		 mov	 ecx, edi
  00014	e8 00 00 00 00	 call	 ??0SQuestInstance@CPythonQuest@@QAE@$$QAU01@@Z
; File C:\Program Files\Microsoft Visual Studio\2022\Community\VC\Tools\MSVC\14.44.35207\include\xmemory

; 1845 :         ++_Last;

  00019	83 c6 70	 add	 esi, 112		; 00000070H
  0001c	83 c7 70	 add	 edi, 112		; 00000070H

; 1978 :     // move [_First, _Last) to raw _Dest, using _Al
; 1979 :     // note: only called internally from elsewhere in the STL
; 1980 : #ifdef _ENABLE_STL_INTERNAL_CHECK
; 1981 :     _STD _Adl_verify_range(_First, _Last);
; 1982 : #endif // ^^^ defined(_ENABLE_STL_INTERNAL_CHECK) ^^^
; 1983 :     using _Ptrval     = typename _Alloc::value_type*;
; 1984 :     auto _UFirst      = _STD _Get_unwrapped(_First);
; 1985 :     const auto _ULast = _STD _Get_unwrapped(_Last);
; 1986 :     if constexpr (conjunction_v<bool_constant<_Iter_move_cat<decltype(_UFirst), _Ptrval>::_Bitcopy_constructible>,
; 1987 :                       _Uses_default_construct<_Alloc, _Ptrval, decltype(_STD move(*_UFirst))>>) {
; 1988 : #if _HAS_CXX20
; 1989 :         if (!_STD is_constant_evaluated())
; 1990 : #endif // _HAS_CXX20
; 1991 :         {
; 1992 :             _STD _Copy_memmove(_UFirst, _ULast, _STD _Unfancy(_Dest));
; 1993 :             return _Dest + (_ULast - _UFirst);
; 1994 :         }
; 1995 :     }
; 1996 : 
; 1997 :     _Uninitialized_backout_al<_Alloc> _Backout{_Dest, _Al};
; 1998 :     for (; _UFirst != _ULast; ++_UFirst) {

  0001f	3b f3		 cmp	 esi, ebx
  00021	75 ee		 jne	 SHORT $LL4@Uninitiali
$LN3@Uninitiali:

; 1839 :         _STD _Destroy_range(_First, _Last, _Al);

  00023	51		 push	 ecx
  00024	8b d7		 mov	 edx, edi
  00026	8b cf		 mov	 ecx, edi
  00028	e8 00 00 00 00	 call	 ??$_Destroy_range@V?$allocator@USQuestInstance@CPythonQuest@@@std@@@std@@YAXPAUSQuestInstance@CPythonQuest@@QAU12@AAV?$allocator@USQuestInstance@CPythonQuest@@@0@@Z ; std::_Destroy_range<std::allocator<CPythonQuest::SQuestInstance> >
  0002d	83 c4 04	 add	 esp, 4

; 1999 :         _Backout._Emplace_back(_STD move(*_UFirst));
; 2000 :     }
; 2001 : 
; 2002 :     return _Backout._Release();

  00030	8b c7		 mov	 eax, edi
  00032	5f		 pop	 edi
  00033	5e		 pop	 esi
  00034	5b		 pop	 ebx

; 2003 : }

  00035	5d		 pop	 ebp
  00036	c3		 ret	 0
??$_Uninitialized_move@PAUSQuestInstance@CPythonQuest@@V?$allocator@USQuestInstance@CPythonQuest@@@std@@@std@@YAPAUSQuestInstance@CPythonQuest@@QAU12@0PAU12@AAV?$allocator@USQuestInstance@CPythonQuest@@@0@@Z ENDP ; std::_Uninitialized_move<CPythonQuest::SQuestInstance *,std::allocator<CPythonQuest::SQuestInstance> >
_TEXT	ENDS
; Function compile flags: /Ogtp
; File C:\Program Files\Microsoft Visual Studio\2022\Community\VC\Tools\MSVC\14.44.35207\include\xmemory
; File C:\Program Files\Microsoft Visual Studio\2022\Community\VC\Tools\MSVC\14.44.35207\include\xutility
; File C:\Program Files\Microsoft Visual Studio\2022\Community\VC\Tools\MSVC\14.44.35207\include\xmemory
;	COMDAT ??$construct@USQuestInstance@CPythonQuest@@ABU12@@?$_Default_allocator_traits@V?$allocator@USQuestInstance@CPythonQuest@@@std@@@std@@SAXAAV?$allocator@USQuestInstance@CPythonQuest@@@1@QAUSQuestInstance@CPythonQuest@@ABU34@@Z
_TEXT	SEGMENT
$T2 = -16						; size = 4
__$EHRec$ = -12						; size = 12
_<_Args_0>$ = 8						; size = 4
??$construct@USQuestInstance@CPythonQuest@@ABU12@@?$_Default_allocator_traits@V?$allocator@USQuestInstance@CPythonQuest@@@std@@@std@@SAXAAV?$allocator@USQuestInstance@CPythonQuest@@@1@QAUSQuestInstance@CPythonQuest@@ABU34@@Z PROC ; std::_Default_allocator_traits<std::allocator<CPythonQuest::SQuestInstance> >::construct<CPythonQuest::SQuestInstance,CPythonQuest::SQuestInstance const &>, COMDAT
; ___formal$dead$ = ecx
; __Ptr$ = edx

; 728  :     static _CONSTEXPR20 void construct(_Alloc&, _Objty* const _Ptr, _Types&&... _Args) {

  00000	55		 push	 ebp
  00001	8b ec		 mov	 ebp, esp
  00003	6a ff		 push	 -1
  00005	68 00 00 00 00	 push	 __ehhandler$??$construct@USQuestInstance@CPythonQuest@@ABU12@@?$_Default_allocator_traits@V?$allocator@USQuestInstance@CPythonQuest@@@std@@@std@@SAXAAV?$allocator@USQuestInstance@CPythonQuest@@@1@QAUSQuestInstance@CPythonQuest@@ABU34@@Z
  0000a	64 a1 00 00 00
	00		 mov	 eax, DWORD PTR fs:0
  00010	50		 push	 eax
  00011	51		 push	 ecx
  00012	56		 push	 esi
  00013	57		 push	 edi
  00014	a1 00 00 00 00	 mov	 eax, DWORD PTR ___security_cookie
  00019	33 c5		 xor	 eax, ebp
  0001b	50		 push	 eax
  0001c	8d 45 f4	 lea	 eax, DWORD PTR __$EHRec$[ebp]
  0001f	64 a3 00 00 00
	00		 mov	 DWORD PTR fs:0, eax
  00025	8b fa		 mov	 edi, edx
; File C:\Program Files\Microsoft Visual Studio\2022\Community\VC\Tools\MSVC\14.44.35207\include\xutility

; 463  :     _MSVC_CONSTEXPR return ::new (static_cast<void*>(_Location)) _Ty(_STD forward<_Types>(_Args)...);

  00027	8b 75 08	 mov	 esi, DWORD PTR _<_Args_0>$[ebp]
  0002a	8d 4f 04	 lea	 ecx, DWORD PTR [edi+4]
  0002d	89 7d f0	 mov	 DWORD PTR $T2[ebp], edi
  00030	8b 06		 mov	 eax, DWORD PTR [esi]
  00032	89 07		 mov	 DWORD PTR [edi], eax
  00034	8d 46 04	 lea	 eax, DWORD PTR [esi+4]
  00037	50		 push	 eax
  00038	e8 00 00 00 00	 call	 ??0?$basic_string@DU?$char_traits@D@std@@V?$allocator@D@2@@std@@QAE@ABV01@@Z ; std::basic_string<char,std::char_traits<char>,std::allocator<char> >::basic_string<char,std::char_traits<char>,std::allocator<char> >
  0003d	8d 46 1c	 lea	 eax, DWORD PTR [esi+28]
  00040	c7 45 fc 00 00
	00 00		 mov	 DWORD PTR __$EHRec$[ebp+8], 0
  00047	8d 4f 1c	 lea	 ecx, DWORD PTR [edi+28]
  0004a	50		 push	 eax
  0004b	e8 00 00 00 00	 call	 ??0?$basic_string@DU?$char_traits@D@std@@V?$allocator@D@2@@std@@QAE@ABV01@@Z ; std::basic_string<char,std::char_traits<char>,std::allocator<char> >::basic_string<char,std::char_traits<char>,std::allocator<char> >
  00050	8d 46 34	 lea	 eax, DWORD PTR [esi+52]
  00053	c6 45 fc 01	 mov	 BYTE PTR __$EHRec$[ebp+8], 1
  00057	8d 4f 34	 lea	 ecx, DWORD PTR [edi+52]
  0005a	50		 push	 eax
  0005b	e8 00 00 00 00	 call	 ??0?$basic_string@DU?$char_traits@D@std@@V?$allocator@D@2@@std@@QAE@ABV01@@Z ; std::basic_string<char,std::char_traits<char>,std::allocator<char> >::basic_string<char,std::char_traits<char>,std::allocator<char> >
  00060	8d 46 4c	 lea	 eax, DWORD PTR [esi+76]
  00063	c6 45 fc 02	 mov	 BYTE PTR __$EHRec$[ebp+8], 2
  00067	50		 push	 eax
  00068	8d 4f 4c	 lea	 ecx, DWORD PTR [edi+76]
  0006b	e8 00 00 00 00	 call	 ??0?$basic_string@DU?$char_traits@D@std@@V?$allocator@D@2@@std@@QAE@ABV01@@Z ; std::basic_string<char,std::char_traits<char>,std::allocator<char> >::basic_string<char,std::char_traits<char>,std::allocator<char> >
  00070	8b 46 64	 mov	 eax, DWORD PTR [esi+100]
  00073	89 47 64	 mov	 DWORD PTR [edi+100], eax
  00076	8b 46 68	 mov	 eax, DWORD PTR [esi+104]
  00079	89 47 68	 mov	 DWORD PTR [edi+104], eax
  0007c	8b 46 6c	 mov	 eax, DWORD PTR [esi+108]
  0007f	89 47 6c	 mov	 DWORD PTR [edi+108], eax
; File C:\Program Files\Microsoft Visual Studio\2022\Community\VC\Tools\MSVC\14.44.35207\include\xmemory

; 734  :     }

  00082	8b 4d f4	 mov	 ecx, DWORD PTR __$EHRec$[ebp]
  00085	64 89 0d 00 00
	00 00		 mov	 DWORD PTR fs:0, ecx
  0008c	59		 pop	 ecx
  0008d	5f		 pop	 edi
  0008e	5e		 pop	 esi
  0008f	8b e5		 mov	 esp, ebp
  00091	5d		 pop	 ebp
  00092	c3		 ret	 0
_TEXT	ENDS
;	COMDAT text$x
text$x	SEGMENT
__unwindfunclet$??$construct@USQuestInstance@CPythonQuest@@ABU12@@?$_Default_allocator_traits@V?$allocator@USQuestInstance@CPythonQuest@@@std@@@std@@SAXAAV?$allocator@USQuestInstance@CPythonQuest@@@1@QAUSQuestInstance@CPythonQuest@@ABU34@@Z$0:
  00000	8b 4d f0	 mov	 ecx, DWORD PTR $T2[ebp]
  00003	83 c1 04	 add	 ecx, 4
  00006	e9 00 00 00 00	 jmp	 ??1?$basic_string@DU?$char_traits@D@std@@V?$allocator@D@2@@std@@QAE@XZ ; std::basic_string<char,std::char_traits<char>,std::allocator<char> >::~basic_string<char,std::char_traits<char>,std::allocator<char> >
__unwindfunclet$??$construct@USQuestInstance@CPythonQuest@@ABU12@@?$_Default_allocator_traits@V?$allocator@USQuestInstance@CPythonQuest@@@std@@@std@@SAXAAV?$allocator@USQuestInstance@CPythonQuest@@@1@QAUSQuestInstance@CPythonQuest@@ABU34@@Z$1:
  0000b	8b 4d f0	 mov	 ecx, DWORD PTR $T2[ebp]
  0000e	83 c1 1c	 add	 ecx, 28			; 0000001cH
  00011	e9 00 00 00 00	 jmp	 ??1?$basic_string@DU?$char_traits@D@std@@V?$allocator@D@2@@std@@QAE@XZ ; std::basic_string<char,std::char_traits<char>,std::allocator<char> >::~basic_string<char,std::char_traits<char>,std::allocator<char> >
__unwindfunclet$??$construct@USQuestInstance@CPythonQuest@@ABU12@@?$_Default_allocator_traits@V?$allocator@USQuestInstance@CPythonQuest@@@std@@@std@@SAXAAV?$allocator@USQuestInstance@CPythonQuest@@@1@QAUSQuestInstance@CPythonQuest@@ABU34@@Z$2:
  00016	8b 4d f0	 mov	 ecx, DWORD PTR $T2[ebp]
  00019	83 c1 34	 add	 ecx, 52			; 00000034H
  0001c	e9 00 00 00 00	 jmp	 ??1?$basic_string@DU?$char_traits@D@std@@V?$allocator@D@2@@std@@QAE@XZ ; std::basic_string<char,std::char_traits<char>,std::allocator<char> >::~basic_string<char,std::char_traits<char>,std::allocator<char> >
  00021	cc		 int	 3
  00022	cc		 int	 3
  00023	cc		 int	 3
  00024	cc		 int	 3
  00025	cc		 int	 3
__ehhandler$??$construct@USQuestInstance@CPythonQuest@@ABU12@@?$_Default_allocator_traits@V?$allocator@USQuestInstance@CPythonQuest@@@std@@@std@@SAXAAV?$allocator@USQuestInstance@CPythonQuest@@@1@QAUSQuestInstance@CPythonQuest@@ABU34@@Z:
  00026	90		 npad	 1
  00027	90		 npad	 1
  00028	8b 54 24 08	 mov	 edx, DWORD PTR [esp+8]
  0002c	8d 42 0c	 lea	 eax, DWORD PTR [edx+12]
  0002f	8b 4a f0	 mov	 ecx, DWORD PTR [edx-16]
  00032	33 c8		 xor	 ecx, eax
  00034	e8 00 00 00 00	 call	 @__security_check_cookie@4
  00039	b8 00 00 00 00	 mov	 eax, OFFSET __ehfuncinfo$??$construct@USQuestInstance@CPythonQuest@@ABU12@@?$_Default_allocator_traits@V?$allocator@USQuestInstance@CPythonQuest@@@std@@@std@@SAXAAV?$allocator@USQuestInstance@CPythonQuest@@@1@QAUSQuestInstance@CPythonQuest@@ABU34@@Z
  0003e	e9 00 00 00 00	 jmp	 ___CxxFrameHandler3
text$x	ENDS
??$construct@USQuestInstance@CPythonQuest@@ABU12@@?$_Default_allocator_traits@V?$allocator@USQuestInstance@CPythonQuest@@@std@@@std@@SAXAAV?$allocator@USQuestInstance@CPythonQuest@@@1@QAUSQuestInstance@CPythonQuest@@ABU34@@Z ENDP ; std::_Default_allocator_traits<std::allocator<CPythonQuest::SQuestInstance> >::construct<CPythonQuest::SQuestInstance,CPythonQuest::SQuestInstance const &>
; Function compile flags: /Ogtp
; File C:\Program Files\Microsoft Visual Studio\2022\Community\VC\Tools\MSVC\14.44.35207\include\xmemory
;	COMDAT ??$_Refancy_maybe_null@PAUSQuestInstance@CPythonQuest@@$0A@@std@@YAPAUSQuestInstance@CPythonQuest@@PAU12@@Z
_TEXT	SEGMENT
??$_Refancy_maybe_null@PAUSQuestInstance@CPythonQuest@@$0A@@std@@YAPAUSQuestInstance@CPythonQuest@@PAU12@@Z PROC ; std::_Refancy_maybe_null<CPythonQuest::SQuestInstance *,0>, COMDAT
; __Ptr$ = ecx

; 313  :     return _Ptr;

  00000	8b c1		 mov	 eax, ecx

; 314  : }

  00002	c3		 ret	 0
??$_Refancy_maybe_null@PAUSQuestInstance@CPythonQuest@@$0A@@std@@YAPAUSQuestInstance@CPythonQuest@@PAU12@@Z ENDP ; std::_Refancy_maybe_null<CPythonQuest::SQuestInstance *,0>
_TEXT	ENDS
; Function compile flags: /Ogtp
; File C:\Program Files\Microsoft Visual Studio\2022\Community\VC\Tools\MSVC\14.44.35207\include\vector
; File C:\Program Files\Microsoft Visual Studio\2022\Community\VC\Tools\MSVC\14.44.35207\include\xmemory
; File C:\Program Files\Microsoft Visual Studio\2022\Community\VC\Tools\MSVC\14.44.35207\include\vector
; File C:\Program Files\Microsoft Visual Studio\2022\Community\VC\Tools\MSVC\14.44.35207\include\xmemory
; File C:\Program Files\Microsoft Visual Studio\2022\Community\VC\Tools\MSVC\14.44.35207\include\vector
; File C:\Program Files\Microsoft Visual Studio\2022\Community\VC\Tools\MSVC\14.44.35207\include\xmemory
; File C:\Program Files\Microsoft Visual Studio\2022\Community\VC\Tools\MSVC\14.44.35207\include\vector
;	COMDAT ??1_Reallocation_guard@?$vector@USQuestInstance@CPythonQuest@@V?$allocator@USQuestInstance@CPythonQuest@@@std@@@std@@QAE@XZ
_TEXT	SEGMENT
??1_Reallocation_guard@?$vector@USQuestInstance@CPythonQuest@@V?$allocator@USQuestInstance@CPythonQuest@@@std@@@std@@QAE@XZ PROC ; std::vector<CPythonQuest::SQuestInstance,std::allocator<CPythonQuest::SQuestInstance> >::_Reallocation_guard::~_Reallocation_guard, COMDAT
; _this$ = ecx

; 620  :         _CONSTEXPR20 ~_Reallocation_guard() noexcept {

  00000	56		 push	 esi
  00001	8b f1		 mov	 esi, ecx

; 621  :             if (_New_begin != nullptr) {

  00003	83 7e 04 00	 cmp	 DWORD PTR [esi+4], 0
  00007	74 3a		 je	 SHORT $LN8@Reallocati

; 622  :                 _STD _Destroy_range(_Constructed_first, _Constructed_last, _Al);

  00009	8b 56 10	 mov	 edx, DWORD PTR [esi+16]
  0000c	51		 push	 ecx
  0000d	8b 4e 0c	 mov	 ecx, DWORD PTR [esi+12]
  00010	e8 00 00 00 00	 call	 ??$_Destroy_range@V?$allocator@USQuestInstance@CPythonQuest@@@std@@@std@@YAXPAUSQuestInstance@CPythonQuest@@QAU12@AAV?$allocator@USQuestInstance@CPythonQuest@@@0@@Z ; std::_Destroy_range<std::allocator<CPythonQuest::SQuestInstance> >
; File C:\Program Files\Microsoft Visual Studio\2022\Community\VC\Tools\MSVC\14.44.35207\include\xmemory

; 985  :         _STD _Deallocate<_New_alignof<_Ty>>(_Ptr, sizeof(_Ty) * _Count);

  00015	6b 4e 08 70	 imul	 ecx, DWORD PTR [esi+8], 112
; File C:\Program Files\Microsoft Visual Studio\2022\Community\VC\Tools\MSVC\14.44.35207\include\vector

; 622  :                 _STD _Destroy_range(_Constructed_first, _Constructed_last, _Al);

  00019	83 c4 04	 add	 esp, 4
; File C:\Program Files\Microsoft Visual Studio\2022\Community\VC\Tools\MSVC\14.44.35207\include\xmemory

; 985  :         _STD _Deallocate<_New_alignof<_Ty>>(_Ptr, sizeof(_Ty) * _Count);

  0001c	8b 46 04	 mov	 eax, DWORD PTR [esi+4]

; 284  :         if (_Bytes >= _Big_allocation_threshold) {

  0001f	81 f9 00 10 00
	00		 cmp	 ecx, 4096		; 00001000H
  00025	72 12		 jb	 SHORT $LN16@Reallocati

; 205  :     const uintptr_t _Ptr_container   = _Ptr_user[-1];

  00027	8b 50 fc	 mov	 edx, DWORD PTR [eax-4]
  0002a	83 c1 23	 add	 ecx, 35			; 00000023H

; 206  : 
; 207  :     // If the following asserts, it likely means that we are performing
; 208  :     // an aligned delete on memory coming from an unaligned allocation.
; 209  :     _STL_ASSERT(_Ptr_user[-2] == _Big_allocation_sentinel, "invalid argument");
; 210  : 
; 211  :     // Extra paranoia on aligned allocation/deallocation; ensure _Ptr_container is
; 212  :     // in range [_Min_back_shift, _Non_user_size]
; 213  : #ifdef _DEBUG
; 214  :     constexpr uintptr_t _Min_back_shift = 2 * sizeof(void*);
; 215  : #else // ^^^ defined(_DEBUG) / !defined(_DEBUG) vvv
; 216  :     constexpr uintptr_t _Min_back_shift = sizeof(void*);
; 217  : #endif // ^^^ !defined(_DEBUG) ^^^
; 218  :     const uintptr_t _Back_shift = reinterpret_cast<uintptr_t>(_Ptr) - _Ptr_container;

  0002d	2b c2		 sub	 eax, edx

; 219  :     _STL_VERIFY(_Back_shift >= _Min_back_shift && _Back_shift <= _Non_user_size, "invalid argument");

  0002f	83 c0 fc	 add	 eax, -4			; fffffffcH
  00032	83 f8 1f	 cmp	 eax, 31			; 0000001fH
  00035	77 0e		 ja	 SHORT $LN15@Reallocati

; 220  :     _Ptr = reinterpret_cast<void*>(_Ptr_container);

  00037	8b c2		 mov	 eax, edx
$LN16@Reallocati:

; 289  :         ::operator delete(_Ptr, _Bytes);

  00039	51		 push	 ecx
  0003a	50		 push	 eax
  0003b	e8 00 00 00 00	 call	 ??3@YAXPAXI@Z		; operator delete
  00040	83 c4 08	 add	 esp, 8
$LN8@Reallocati:
  00043	5e		 pop	 esi
; File C:\Program Files\Microsoft Visual Studio\2022\Community\VC\Tools\MSVC\14.44.35207\include\vector

; 625  :         }

  00044	c3		 ret	 0
$LN15@Reallocati:
; File C:\Program Files\Microsoft Visual Studio\2022\Community\VC\Tools\MSVC\14.44.35207\include\xmemory

; 219  :     _STL_VERIFY(_Back_shift >= _Min_back_shift && _Back_shift <= _Non_user_size, "invalid argument");

  00045	6a 00		 push	 0
  00047	6a 00		 push	 0
  00049	6a 00		 push	 0
  0004b	6a 00		 push	 0
  0004d	6a 00		 push	 0
  0004f	e8 00 00 00 00	 call	 __invoke_watson
$LN23@Reallocati:
  00054	cc		 int	 3
??1_Reallocation_guard@?$vector@USQuestInstance@CPythonQuest@@V?$allocator@USQuestInstance@CPythonQuest@@@std@@@std@@QAE@XZ ENDP ; std::vector<CPythonQuest::SQuestInstance,std::allocator<CPythonQuest::SQuestInstance> >::_Reallocation_guard::~_Reallocation_guard
_TEXT	ENDS
; Function compile flags: /Ogtp
; File C:\Program Files\Microsoft Visual Studio\2022\Community\VC\Tools\MSVC\14.44.35207\include\vector
;	COMDAT ?_Xlength@?$vector@USQuestInstance@CPythonQuest@@V?$allocator@USQuestInstance@CPythonQuest@@@std@@@std@@CAXXZ
_TEXT	SEGMENT
?_Xlength@?$vector@USQuestInstance@CPythonQuest@@V?$allocator@USQuestInstance@CPythonQuest@@@std@@@std@@CAXXZ PROC ; std::vector<CPythonQuest::SQuestInstance,std::allocator<CPythonQuest::SQuestInstance> >::_Xlength, COMDAT

; 2184 :         _Xlength_error("vector too long");

  00000	68 00 00 00 00	 push	 OFFSET ??_C@_0BA@FOIKENOD@vector?5too?5long@
  00005	e8 00 00 00 00	 call	 ?_Xlength_error@std@@YAXPBD@Z ; std::_Xlength_error
$LN3@Xlength:
  0000a	cc		 int	 3
?_Xlength@?$vector@USQuestInstance@CPythonQuest@@V?$allocator@USQuestInstance@CPythonQuest@@@std@@@std@@CAXXZ ENDP ; std::vector<CPythonQuest::SQuestInstance,std::allocator<CPythonQuest::SQuestInstance> >::_Xlength
_TEXT	ENDS
; Function compile flags: /Ogtp
; File C:\Program Files\Microsoft Visual Studio\2022\Community\VC\Tools\MSVC\14.44.35207\include\vector
; File C:\Program Files\Microsoft Visual Studio\2022\Community\VC\Tools\MSVC\14.44.35207\include\xmemory
; File C:\Program Files\Microsoft Visual Studio\2022\Community\VC\Tools\MSVC\14.44.35207\include\vector
; File C:\Program Files\Microsoft Visual Studio\2022\Community\VC\Tools\MSVC\14.44.35207\include\xmemory
; File C:\Program Files\Microsoft Visual Studio\2022\Community\VC\Tools\MSVC\14.44.35207\include\vector
;	COMDAT ?_Change_array@?$vector@USQuestInstance@CPythonQuest@@V?$allocator@USQuestInstance@CPythonQuest@@@std@@@std@@AAEXQAUSQuestInstance@CPythonQuest@@II@Z
_TEXT	SEGMENT
__Newvec$ = 8						; size = 4
__Newsize$ = 12						; size = 4
__Newcapacity$ = 16					; size = 4
?_Change_array@?$vector@USQuestInstance@CPythonQuest@@V?$allocator@USQuestInstance@CPythonQuest@@@std@@@std@@AAEXQAUSQuestInstance@CPythonQuest@@II@Z PROC ; std::vector<CPythonQuest::SQuestInstance,std::allocator<CPythonQuest::SQuestInstance> >::_Change_array, COMDAT
; _this$ = ecx

; 2059 :         const pointer _Newvec, const size_type _Newsize, const size_type _Newcapacity) noexcept {

  00000	55		 push	 ebp
  00001	8b ec		 mov	 ebp, esp
  00003	56		 push	 esi
  00004	8b f1		 mov	 esi, ecx

; 2060 :         // orphan all iterators, discard old array, acquire new array
; 2061 :         auto& _Al         = _Getal();
; 2062 :         auto& _My_data    = _Mypair._Myval2;
; 2063 :         pointer& _Myfirst = _My_data._Myfirst;
; 2064 :         pointer& _Mylast  = _My_data._Mylast;
; 2065 :         pointer& _Myend   = _My_data._Myend;
; 2066 : 
; 2067 :         _My_data._Orphan_all();
; 2068 : 
; 2069 :         if (_Myfirst) { // destroy and deallocate old array

  00006	8b 0e		 mov	 ecx, DWORD PTR [esi]
  00008	85 c9		 test	 ecx, ecx
  0000a	74 45		 je	 SHORT $LN8@Change_arr

; 2070 :             _STD _Destroy_range(_Myfirst, _Mylast, _Al);

  0000c	8b 56 04	 mov	 edx, DWORD PTR [esi+4]
  0000f	51		 push	 ecx
  00010	e8 00 00 00 00	 call	 ??$_Destroy_range@V?$allocator@USQuestInstance@CPythonQuest@@@std@@@std@@YAXPAUSQuestInstance@CPythonQuest@@QAU12@AAV?$allocator@USQuestInstance@CPythonQuest@@@0@@Z ; std::_Destroy_range<std::allocator<CPythonQuest::SQuestInstance> >

; 2071 :             _ASAN_VECTOR_REMOVE;
; 2072 :             _Al.deallocate(_Myfirst, static_cast<size_type>(_Myend - _Myfirst));

  00015	8b 46 08	 mov	 eax, DWORD PTR [esi+8]
  00018	83 c4 04	 add	 esp, 4
  0001b	8b 0e		 mov	 ecx, DWORD PTR [esi]
  0001d	2b c1		 sub	 eax, ecx
  0001f	c1 f8 04	 sar	 eax, 4
  00022	69 c0 b7 6d db
	b6		 imul	 eax, eax, -1227133513
; File C:\Program Files\Microsoft Visual Studio\2022\Community\VC\Tools\MSVC\14.44.35207\include\xmemory

; 985  :         _STD _Deallocate<_New_alignof<_Ty>>(_Ptr, sizeof(_Ty) * _Count);

  00028	6b d0 70	 imul	 edx, eax, 112

; 284  :         if (_Bytes >= _Big_allocation_threshold) {

  0002b	81 fa 00 10 00
	00		 cmp	 edx, 4096		; 00001000H
  00031	72 14		 jb	 SHORT $LN16@Change_arr
  00033	57		 push	 edi

; 205  :     const uintptr_t _Ptr_container   = _Ptr_user[-1];

  00034	8b 79 fc	 mov	 edi, DWORD PTR [ecx-4]
  00037	83 c2 23	 add	 edx, 35			; 00000023H

; 206  : 
; 207  :     // If the following asserts, it likely means that we are performing
; 208  :     // an aligned delete on memory coming from an unaligned allocation.
; 209  :     _STL_ASSERT(_Ptr_user[-2] == _Big_allocation_sentinel, "invalid argument");
; 210  : 
; 211  :     // Extra paranoia on aligned allocation/deallocation; ensure _Ptr_container is
; 212  :     // in range [_Min_back_shift, _Non_user_size]
; 213  : #ifdef _DEBUG
; 214  :     constexpr uintptr_t _Min_back_shift = 2 * sizeof(void*);
; 215  : #else // ^^^ defined(_DEBUG) / !defined(_DEBUG) vvv
; 216  :     constexpr uintptr_t _Min_back_shift = sizeof(void*);
; 217  : #endif // ^^^ !defined(_DEBUG) ^^^
; 218  :     const uintptr_t _Back_shift = reinterpret_cast<uintptr_t>(_Ptr) - _Ptr_container;

  0003a	2b cf		 sub	 ecx, edi

; 219  :     _STL_VERIFY(_Back_shift >= _Min_back_shift && _Back_shift <= _Non_user_size, "invalid argument");

  0003c	8d 41 fc	 lea	 eax, DWORD PTR [ecx-4]
  0003f	83 f8 1f	 cmp	 eax, 31			; 0000001fH
  00042	77 29		 ja	 SHORT $LN15@Change_arr

; 220  :     _Ptr = reinterpret_cast<void*>(_Ptr_container);

  00044	8b cf		 mov	 ecx, edi
  00046	5f		 pop	 edi
$LN16@Change_arr:

; 289  :         ::operator delete(_Ptr, _Bytes);

  00047	52		 push	 edx
  00048	51		 push	 ecx
  00049	e8 00 00 00 00	 call	 ??3@YAXPAXI@Z		; operator delete
  0004e	83 c4 08	 add	 esp, 8
$LN8@Change_arr:
; File C:\Program Files\Microsoft Visual Studio\2022\Community\VC\Tools\MSVC\14.44.35207\include\vector

; 2076 :         _Mylast  = _Newvec + _Newsize;

  00051	6b 45 0c 70	 imul	 eax, DWORD PTR __Newsize$[ebp], 112
  00055	8b 4d 08	 mov	 ecx, DWORD PTR __Newvec$[ebp]
  00058	89 0e		 mov	 DWORD PTR [esi], ecx
  0005a	03 c1		 add	 eax, ecx
  0005c	89 46 04	 mov	 DWORD PTR [esi+4], eax

; 2077 :         _Myend   = _Newvec + _Newcapacity;

  0005f	6b 45 10 70	 imul	 eax, DWORD PTR __Newcapacity$[ebp], 112
  00063	03 c1		 add	 eax, ecx
  00065	89 46 08	 mov	 DWORD PTR [esi+8], eax
  00068	5e		 pop	 esi

; 2079 :     }

  00069	5d		 pop	 ebp
  0006a	c2 0c 00	 ret	 12			; 0000000cH
$LN15@Change_arr:
; File C:\Program Files\Microsoft Visual Studio\2022\Community\VC\Tools\MSVC\14.44.35207\include\xmemory

; 219  :     _STL_VERIFY(_Back_shift >= _Min_back_shift && _Back_shift <= _Non_user_size, "invalid argument");

  0006d	6a 00		 push	 0
  0006f	6a 00		 push	 0
  00071	6a 00		 push	 0
  00073	6a 00		 push	 0
  00075	6a 00		 push	 0
  00077	e8 00 00 00 00	 call	 __invoke_watson
$LN23@Change_arr:
  0007c	cc		 int	 3
?_Change_array@?$vector@USQuestInstance@CPythonQuest@@V?$allocator@USQuestInstance@CPythonQuest@@@std@@@std@@AAEXQAUSQuestInstance@CPythonQuest@@II@Z ENDP ; std::vector<CPythonQuest::SQuestInstance,std::allocator<CPythonQuest::SQuestInstance> >::_Change_array
_TEXT	ENDS
; Function compile flags: /Ogtp
; File C:\Program Files\Microsoft Visual Studio\2022\Community\VC\Tools\MSVC\14.44.35207\include\vector
;	COMDAT ?_Calculate_growth@?$vector@USQuestInstance@CPythonQuest@@V?$allocator@USQuestInstance@CPythonQuest@@@std@@@std@@ABEII@Z
_TEXT	SEGMENT
__Newsize$ = 8						; size = 4
?_Calculate_growth@?$vector@USQuestInstance@CPythonQuest@@V?$allocator@USQuestInstance@CPythonQuest@@@std@@@std@@ABEII@Z PROC ; std::vector<CPythonQuest::SQuestInstance,std::allocator<CPythonQuest::SQuestInstance> >::_Calculate_growth, COMDAT
; _this$ = ecx

; 2006 :     _CONSTEXPR20 size_type _Calculate_growth(const size_type _Newsize) const {

  00000	55		 push	 ebp
  00001	8b ec		 mov	 ebp, esp

; 1924 :         return static_cast<size_type>(_My_data._Myend - _My_data._Myfirst);

  00003	8b 41 08	 mov	 eax, DWORD PTR [ecx+8]
  00006	2b 01		 sub	 eax, DWORD PTR [ecx]

; 2007 :         // given _Oldcapacity and _Newsize, calculate geometric growth
; 2008 :         const size_type _Oldcapacity = capacity();
; 2009 :         const auto _Max              = max_size();
; 2010 : 
; 2011 :         if (_Oldcapacity > _Max - _Oldcapacity / 2) {

  00008	b9 92 24 49 02	 mov	 ecx, 38347922		; 02492492H

; 1924 :         return static_cast<size_type>(_My_data._Myend - _My_data._Myfirst);

  0000d	c1 f8 04	 sar	 eax, 4

; 2006 :     _CONSTEXPR20 size_type _Calculate_growth(const size_type _Newsize) const {

  00010	57		 push	 edi

; 1924 :         return static_cast<size_type>(_My_data._Myend - _My_data._Myfirst);

  00011	69 f8 b7 6d db
	b6		 imul	 edi, eax, -1227133513

; 2007 :         // given _Oldcapacity and _Newsize, calculate geometric growth
; 2008 :         const size_type _Oldcapacity = capacity();
; 2009 :         const auto _Max              = max_size();
; 2010 : 
; 2011 :         if (_Oldcapacity > _Max - _Oldcapacity / 2) {

  00017	8b d7		 mov	 edx, edi
  00019	d1 ea		 shr	 edx, 1
  0001b	2b ca		 sub	 ecx, edx
  0001d	3b f9		 cmp	 edi, ecx
  0001f	76 0a		 jbe	 SHORT $LN2@Calculate_

; 2012 :             return _Max; // geometric growth would overflow

  00021	b8 92 24 49 02	 mov	 eax, 38347922		; 02492492H
  00026	5f		 pop	 edi

; 2018 :             return _Newsize; // geometric growth would be insufficient
; 2019 :         }
; 2020 : 
; 2021 :         return _Geometric; // geometric growth is sufficient
; 2022 :     }

  00027	5d		 pop	 ebp
  00028	c2 04 00	 ret	 4
$LN2@Calculate_:

; 2013 :         }
; 2014 : 
; 2015 :         const size_type _Geometric = _Oldcapacity + _Oldcapacity / 2;

  0002b	8d 04 3a	 lea	 eax, DWORD PTR [edx+edi]

; 2016 : 
; 2017 :         if (_Geometric < _Newsize) {

  0002e	3b 45 08	 cmp	 eax, DWORD PTR __Newsize$[ebp]
  00031	5f		 pop	 edi
  00032	0f 42 45 08	 cmovb	 eax, DWORD PTR __Newsize$[ebp]

; 2018 :             return _Newsize; // geometric growth would be insufficient
; 2019 :         }
; 2020 : 
; 2021 :         return _Geometric; // geometric growth is sufficient
; 2022 :     }

  00036	5d		 pop	 ebp
  00037	c2 04 00	 ret	 4
?_Calculate_growth@?$vector@USQuestInstance@CPythonQuest@@V?$allocator@USQuestInstance@CPythonQuest@@@std@@@std@@ABEII@Z ENDP ; std::vector<CPythonQuest::SQuestInstance,std::allocator<CPythonQuest::SQuestInstance> >::_Calculate_growth
_TEXT	ENDS
; Function compile flags: /Ogtp
; File C:\Program Files\Microsoft Visual Studio\2022\Community\VC\Tools\MSVC\14.44.35207\include\vector
;	COMDAT ?max_size@?$vector@USQuestInstance@CPythonQuest@@V?$allocator@USQuestInstance@CPythonQuest@@@std@@@std@@QBEIXZ
_TEXT	SEGMENT
?max_size@?$vector@USQuestInstance@CPythonQuest@@V?$allocator@USQuestInstance@CPythonQuest@@@std@@@std@@QBEIXZ PROC ; std::vector<CPythonQuest::SQuestInstance,std::allocator<CPythonQuest::SQuestInstance> >::max_size, COMDAT
; _this$dead$ = ecx

; 1919 :         return (_STD min)(static_cast<size_type>(_STD _Max_limit<difference_type>()), _Alty_traits::max_size(_Getal()));

  00000	b8 92 24 49 02	 mov	 eax, 38347922		; 02492492H

; 1920 :     }

  00005	c3		 ret	 0
?max_size@?$vector@USQuestInstance@CPythonQuest@@V?$allocator@USQuestInstance@CPythonQuest@@@std@@@std@@QBEIXZ ENDP ; std::vector<CPythonQuest::SQuestInstance,std::allocator<CPythonQuest::SQuestInstance> >::max_size
_TEXT	ENDS
; Function compile flags: /Ogtp
; File C:\Program Files\Microsoft Visual Studio\2022\Community\VC\Tools\MSVC\14.44.35207\include\xmemory
; File C:\Program Files\Microsoft Visual Studio\2022\Community\VC\Tools\MSVC\14.44.35207\include\xstring
; File C:\Program Files\Microsoft Visual Studio\2022\Community\VC\Tools\MSVC\14.44.35207\include\xmemory
; File C:\Program Files\Microsoft Visual Studio\2022\Community\VC\Tools\MSVC\14.44.35207\include\xstring
; File C:\Program Files\Microsoft Visual Studio\2022\Community\VC\Tools\MSVC\14.44.35207\include\xmemory
; File C:\Program Files\Microsoft Visual Studio\2022\Community\VC\Tools\MSVC\14.44.35207\include\xstring
; File C:\Program Files\Microsoft Visual Studio\2022\Community\VC\Tools\MSVC\14.44.35207\include\xmemory
; File C:\Program Files\Microsoft Visual Studio\2022\Community\VC\Tools\MSVC\14.44.35207\include\xstring
;	COMDAT ??0SQuestInstance@CPythonQuest@@QAE@$$QAU01@@Z
_TEXT	SEGMENT
___that$ = 8						; size = 4
??0SQuestInstance@CPythonQuest@@QAE@$$QAU01@@Z PROC	; CPythonQuest::SQuestInstance::SQuestInstance, COMDAT
; _this$ = ecx
  00000	55		 push	 ebp
  00001	8b ec		 mov	 ebp, esp
; File C:\Program Files\Microsoft Visual Studio\2022\Community\VC\Tools\MSVC\14.44.35207\include\xmemory

; 1536 :         : _Ty1(_STD forward<_Other1>(_Val1)), _Myval2(_STD forward<_Other2>(_Val2)...) {}

  00003	8b 55 08	 mov	 edx, DWORD PTR ___that$[ebp]
  00006	0f 57 c0	 xorps	 xmm0, xmm0
  00009	8b 02		 mov	 eax, DWORD PTR [edx]
  0000b	89 01		 mov	 DWORD PTR [ecx], eax
; File C:\Program Files\Microsoft Visual Studio\2022\Community\VC\Tools\MSVC\14.44.35207\include\xstring

; 493  :         _CONSTEXPR20 _Bxty() noexcept : _Buf() {} // user-provided, for fancy pointers

  0000d	0f 11 41 04	 movups	 XMMWORD PTR [ecx+4], xmm0

; 517  :     size_type _Mysize = 0; // current length of string (size)

  00011	c7 41 14 00 00
	00 00		 mov	 DWORD PTR [ecx+20], 0

; 518  :     size_type _Myres  = 0; // current storage reserved for string (capacity)

  00018	c7 41 18 00 00
	00 00		 mov	 DWORD PTR [ecx+24], 0

; 1286 :                 _CSTD memcpy(_My_data_mem, _Right_data_mem, _Memcpy_val_size);

  0001f	0f 10 42 04	 movups	 xmm0, XMMWORD PTR [edx+4]
  00023	0f 11 41 04	 movups	 XMMWORD PTR [ecx+4], xmm0
  00027	f3 0f 7e 42 14	 movq	 xmm0, QWORD PTR [edx+20]
  0002c	66 0f d6 41 14	 movq	 QWORD PTR [ecx+20], xmm0
  00031	0f 57 c0	 xorps	 xmm0, xmm0

; 1287 : 
; 1288 :                 _Right_data._Mysize = 0;
; 1289 :                 _Right_data._Myres  = _Small_string_capacity;

  00034	c7 42 18 0f 00
	00 00		 mov	 DWORD PTR [edx+24], 15	; 0000000fH
; File C:\Program Files\Microsoft Visual Studio\2022\Community\VC\Tools\MSVC\14.44.35207\include\xmemory

; 1536 :         : _Ty1(_STD forward<_Other1>(_Val1)), _Myval2(_STD forward<_Other2>(_Val2)...) {}

  0003b	c7 42 14 00 00
	00 00		 mov	 DWORD PTR [edx+20], 0
  00042	c6 42 04 00	 mov	 BYTE PTR [edx+4], 0
; File C:\Program Files\Microsoft Visual Studio\2022\Community\VC\Tools\MSVC\14.44.35207\include\xstring

; 493  :         _CONSTEXPR20 _Bxty() noexcept : _Buf() {} // user-provided, for fancy pointers

  00046	0f 11 41 1c	 movups	 XMMWORD PTR [ecx+28], xmm0

; 517  :     size_type _Mysize = 0; // current length of string (size)

  0004a	c7 41 2c 00 00
	00 00		 mov	 DWORD PTR [ecx+44], 0

; 518  :     size_type _Myres  = 0; // current storage reserved for string (capacity)

  00051	c7 41 30 00 00
	00 00		 mov	 DWORD PTR [ecx+48], 0

; 1286 :                 _CSTD memcpy(_My_data_mem, _Right_data_mem, _Memcpy_val_size);

  00058	0f 10 42 1c	 movups	 xmm0, XMMWORD PTR [edx+28]
  0005c	0f 11 41 1c	 movups	 XMMWORD PTR [ecx+28], xmm0
  00060	f3 0f 7e 42 2c	 movq	 xmm0, QWORD PTR [edx+44]
  00065	66 0f d6 41 2c	 movq	 QWORD PTR [ecx+44], xmm0
  0006a	0f 57 c0	 xorps	 xmm0, xmm0

; 1287 : 
; 1288 :                 _Right_data._Mysize = 0;
; 1289 :                 _Right_data._Myres  = _Small_string_capacity;

  0006d	c7 42 30 0f 00
	00 00		 mov	 DWORD PTR [edx+48], 15	; 0000000fH
; File C:\Program Files\Microsoft Visual Studio\2022\Community\VC\Tools\MSVC\14.44.35207\include\xmemory

; 1536 :         : _Ty1(_STD forward<_Other1>(_Val1)), _Myval2(_STD forward<_Other2>(_Val2)...) {}

  00074	c7 42 2c 00 00
	00 00		 mov	 DWORD PTR [edx+44], 0
  0007b	c6 42 1c 00	 mov	 BYTE PTR [edx+28], 0
; File C:\Program Files\Microsoft Visual Studio\2022\Community\VC\Tools\MSVC\14.44.35207\include\xstring

; 493  :         _CONSTEXPR20 _Bxty() noexcept : _Buf() {} // user-provided, for fancy pointers

  0007f	0f 11 41 34	 movups	 XMMWORD PTR [ecx+52], xmm0

; 517  :     size_type _Mysize = 0; // current length of string (size)

  00083	c7 41 44 00 00
	00 00		 mov	 DWORD PTR [ecx+68], 0

; 518  :     size_type _Myres  = 0; // current storage reserved for string (capacity)

  0008a	c7 41 48 00 00
	00 00		 mov	 DWORD PTR [ecx+72], 0

; 1286 :                 _CSTD memcpy(_My_data_mem, _Right_data_mem, _Memcpy_val_size);

  00091	0f 10 42 34	 movups	 xmm0, XMMWORD PTR [edx+52]
  00095	0f 11 41 34	 movups	 XMMWORD PTR [ecx+52], xmm0
  00099	f3 0f 7e 42 44	 movq	 xmm0, QWORD PTR [edx+68]
  0009e	66 0f d6 41 44	 movq	 QWORD PTR [ecx+68], xmm0
  000a3	0f 57 c0	 xorps	 xmm0, xmm0

; 1287 : 
; 1288 :                 _Right_data._Mysize = 0;
; 1289 :                 _Right_data._Myres  = _Small_string_capacity;

  000a6	c7 42 48 0f 00
	00 00		 mov	 DWORD PTR [edx+72], 15	; 0000000fH
; File C:\Program Files\Microsoft Visual Studio\2022\Community\VC\Tools\MSVC\14.44.35207\include\xmemory

; 1536 :         : _Ty1(_STD forward<_Other1>(_Val1)), _Myval2(_STD forward<_Other2>(_Val2)...) {}

  000ad	c7 42 44 00 00
	00 00		 mov	 DWORD PTR [edx+68], 0
  000b4	c6 42 34 00	 mov	 BYTE PTR [edx+52], 0
; File C:\Program Files\Microsoft Visual Studio\2022\Community\VC\Tools\MSVC\14.44.35207\include\xstring

; 493  :         _CONSTEXPR20 _Bxty() noexcept : _Buf() {} // user-provided, for fancy pointers

  000b8	0f 11 41 4c	 movups	 XMMWORD PTR [ecx+76], xmm0

; 517  :     size_type _Mysize = 0; // current length of string (size)

  000bc	c7 41 5c 00 00
	00 00		 mov	 DWORD PTR [ecx+92], 0

; 518  :     size_type _Myres  = 0; // current storage reserved for string (capacity)

  000c3	c7 41 60 00 00
	00 00		 mov	 DWORD PTR [ecx+96], 0

; 1286 :                 _CSTD memcpy(_My_data_mem, _Right_data_mem, _Memcpy_val_size);

  000ca	0f 10 42 4c	 movups	 xmm0, XMMWORD PTR [edx+76]
  000ce	0f 11 41 4c	 movups	 XMMWORD PTR [ecx+76], xmm0
  000d2	f3 0f 7e 42 5c	 movq	 xmm0, QWORD PTR [edx+92]
  000d7	66 0f d6 41 5c	 movq	 QWORD PTR [ecx+92], xmm0
  000dc	c7 42 5c 00 00
	00 00		 mov	 DWORD PTR [edx+92], 0
  000e3	c7 42 60 0f 00
	00 00		 mov	 DWORD PTR [edx+96], 15	; 0000000fH
  000ea	c6 42 4c 00	 mov	 BYTE PTR [edx+76], 0
  000ee	8b 42 64	 mov	 eax, DWORD PTR [edx+100]
  000f1	89 41 64	 mov	 DWORD PTR [ecx+100], eax
  000f4	8b 42 68	 mov	 eax, DWORD PTR [edx+104]
  000f7	89 41 68	 mov	 DWORD PTR [ecx+104], eax
  000fa	8b 42 6c	 mov	 eax, DWORD PTR [edx+108]
  000fd	89 41 6c	 mov	 DWORD PTR [ecx+108], eax
  00100	8b c1		 mov	 eax, ecx
  00102	5d		 pop	 ebp
  00103	c2 04 00	 ret	 4
??0SQuestInstance@CPythonQuest@@QAE@$$QAU01@@Z ENDP	; CPythonQuest::SQuestInstance::SQuestInstance
_TEXT	ENDS
; Function compile flags: /Ogtp
; File C:\Program Files\Microsoft Visual Studio\2022\Community\VC\Tools\MSVC\14.44.35207\include\type_traits
;	COMDAT ??$addressof@USQuestInstance@CPythonQuest@@@std@@YAPAUSQuestInstance@CPythonQuest@@AAU12@@Z
_TEXT	SEGMENT
??$addressof@USQuestInstance@CPythonQuest@@@std@@YAPAUSQuestInstance@CPythonQuest@@AAU12@@Z PROC ; std::addressof<CPythonQuest::SQuestInstance>, COMDAT
; __Val$ = ecx

; 1525 :     return __builtin_addressof(_Val);

  00000	8b c1		 mov	 eax, ecx

; 1526 : }

  00002	c3		 ret	 0
??$addressof@USQuestInstance@CPythonQuest@@@std@@YAPAUSQuestInstance@CPythonQuest@@AAU12@@Z ENDP ; std::addressof<CPythonQuest::SQuestInstance>
_TEXT	ENDS
; Function compile flags: /Ogtp
; File C:\Program Files\Microsoft Visual Studio\2022\Community\VC\Tools\MSVC\14.44.35207\include\xutility
;	COMDAT ??$construct_at@USQuestInstance@CPythonQuest@@U12@@std@@YAPAUSQuestInstance@CPythonQuest@@QAU12@$$QAU12@@Z
_TEXT	SEGMENT
??$construct_at@USQuestInstance@CPythonQuest@@U12@@std@@YAPAUSQuestInstance@CPythonQuest@@QAU12@$$QAU12@@Z PROC ; std::construct_at<CPythonQuest::SQuestInstance,CPythonQuest::SQuestInstance>, COMDAT
; __Location$ = ecx
; _<_Args_0>$ = edx

; 463  :     _MSVC_CONSTEXPR return ::new (static_cast<void*>(_Location)) _Ty(_STD forward<_Types>(_Args)...);

  00000	52		 push	 edx
  00001	e8 00 00 00 00	 call	 ??0SQuestInstance@CPythonQuest@@QAE@$$QAU01@@Z

; 464  : }

  00006	c3		 ret	 0
??$construct_at@USQuestInstance@CPythonQuest@@U12@@std@@YAPAUSQuestInstance@CPythonQuest@@QAU12@$$QAU12@@Z ENDP ; std::construct_at<CPythonQuest::SQuestInstance,CPythonQuest::SQuestInstance>
_TEXT	ENDS
; Function compile flags: /Ogtp
; File C:\Program Files\Microsoft Visual Studio\2022\Community\VC\Tools\MSVC\14.44.35207\include\xmemory
; File C:\Program Files\Microsoft Visual Studio\2022\Community\VC\Tools\MSVC\14.44.35207\include\xutility
; File C:\Program Files\Microsoft Visual Studio\2022\Community\VC\Tools\MSVC\14.44.35207\include\xmemory
; File C:\Program Files\Microsoft Visual Studio\2022\Community\VC\Tools\MSVC\14.44.35207\include\xutility
; File C:\Program Files\Microsoft Visual Studio\2022\Community\VC\Tools\MSVC\14.44.35207\include\xmemory
;	COMDAT ??$_Emplace_back@USQuestInstance@CPythonQuest@@@?$_Uninitialized_backout_al@V?$allocator@USQuestInstance@CPythonQuest@@@std@@@std@@QAEX$$QAUSQuestInstance@CPythonQuest@@@Z
_TEXT	SEGMENT
_<_Vals_0>$ = 8						; size = 4
??$_Emplace_back@USQuestInstance@CPythonQuest@@@?$_Uninitialized_backout_al@V?$allocator@USQuestInstance@CPythonQuest@@@std@@@std@@QAEX$$QAUSQuestInstance@CPythonQuest@@@Z PROC ; std::_Uninitialized_backout_al<std::allocator<CPythonQuest::SQuestInstance> >::_Emplace_back<CPythonQuest::SQuestInstance>, COMDAT
; _this$ = ecx

; 1843 :     _CONSTEXPR20 void _Emplace_back(_Types&&... _Vals) { // construct a new element at *_Last and increment

  00000	55		 push	 ebp
  00001	8b ec		 mov	 ebp, esp
  00003	56		 push	 esi
; File C:\Program Files\Microsoft Visual Studio\2022\Community\VC\Tools\MSVC\14.44.35207\include\xutility

; 463  :     _MSVC_CONSTEXPR return ::new (static_cast<void*>(_Location)) _Ty(_STD forward<_Types>(_Args)...);

  00004	ff 75 08	 push	 DWORD PTR _<_Vals_0>$[ebp]
; File C:\Program Files\Microsoft Visual Studio\2022\Community\VC\Tools\MSVC\14.44.35207\include\xmemory

; 1843 :     _CONSTEXPR20 void _Emplace_back(_Types&&... _Vals) { // construct a new element at *_Last and increment

  00007	8b f1		 mov	 esi, ecx
; File C:\Program Files\Microsoft Visual Studio\2022\Community\VC\Tools\MSVC\14.44.35207\include\xutility

; 463  :     _MSVC_CONSTEXPR return ::new (static_cast<void*>(_Location)) _Ty(_STD forward<_Types>(_Args)...);

  00009	8b 4e 04	 mov	 ecx, DWORD PTR [esi+4]
  0000c	e8 00 00 00 00	 call	 ??0SQuestInstance@CPythonQuest@@QAE@$$QAU01@@Z
; File C:\Program Files\Microsoft Visual Studio\2022\Community\VC\Tools\MSVC\14.44.35207\include\xmemory

; 1845 :         ++_Last;

  00011	83 46 04 70	 add	 DWORD PTR [esi+4], 112	; 00000070H
  00015	5e		 pop	 esi

; 1846 :     }

  00016	5d		 pop	 ebp
  00017	c2 04 00	 ret	 4
??$_Emplace_back@USQuestInstance@CPythonQuest@@@?$_Uninitialized_backout_al@V?$allocator@USQuestInstance@CPythonQuest@@@std@@@std@@QAEX$$QAUSQuestInstance@CPythonQuest@@@Z ENDP ; std::_Uninitialized_backout_al<std::allocator<CPythonQuest::SQuestInstance> >::_Emplace_back<CPythonQuest::SQuestInstance>
_TEXT	ENDS
; Function compile flags: /Ogtp
; File C:\Program Files\Microsoft Visual Studio\2022\Community\VC\Tools\MSVC\14.44.35207\include\xutility
;	COMDAT ??$construct_at@USQuestInstance@CPythonQuest@@ABU12@@std@@YAPAUSQuestInstance@CPythonQuest@@QAU12@ABU12@@Z
_TEXT	SEGMENT
$T2 = -16						; size = 4
__$EHRec$ = -12						; size = 12
??$construct_at@USQuestInstance@CPythonQuest@@ABU12@@std@@YAPAUSQuestInstance@CPythonQuest@@QAU12@ABU12@@Z PROC ; std::construct_at<CPythonQuest::SQuestInstance,CPythonQuest::SQuestInstance const &>, COMDAT
; __Location$ = ecx
; _<_Args_0>$ = edx

; 462  :     noexcept(noexcept(::new (static_cast<void*>(_Location)) _Ty(_STD forward<_Types>(_Args)...))) /* strengthened */ {

  00000	55		 push	 ebp
  00001	8b ec		 mov	 ebp, esp
  00003	6a ff		 push	 -1
  00005	68 00 00 00 00	 push	 __ehhandler$??$construct_at@USQuestInstance@CPythonQuest@@ABU12@@std@@YAPAUSQuestInstance@CPythonQuest@@QAU12@ABU12@@Z
  0000a	64 a1 00 00 00
	00		 mov	 eax, DWORD PTR fs:0
  00010	50		 push	 eax
  00011	51		 push	 ecx
  00012	56		 push	 esi
  00013	57		 push	 edi
  00014	a1 00 00 00 00	 mov	 eax, DWORD PTR ___security_cookie
  00019	33 c5		 xor	 eax, ebp
  0001b	50		 push	 eax
  0001c	8d 45 f4	 lea	 eax, DWORD PTR __$EHRec$[ebp]
  0001f	64 a3 00 00 00
	00		 mov	 DWORD PTR fs:0, eax
  00025	8b f2		 mov	 esi, edx
  00027	8b f9		 mov	 edi, ecx
  00029	8b 06		 mov	 eax, DWORD PTR [esi]
  0002b	8d 4f 04	 lea	 ecx, DWORD PTR [edi+4]
  0002e	89 07		 mov	 DWORD PTR [edi], eax
  00030	8d 46 04	 lea	 eax, DWORD PTR [esi+4]
  00033	50		 push	 eax

; 463  :     _MSVC_CONSTEXPR return ::new (static_cast<void*>(_Location)) _Ty(_STD forward<_Types>(_Args)...);

  00034	89 7d f0	 mov	 DWORD PTR $T2[ebp], edi
  00037	e8 00 00 00 00	 call	 ??0?$basic_string@DU?$char_traits@D@std@@V?$allocator@D@2@@std@@QAE@ABV01@@Z ; std::basic_string<char,std::char_traits<char>,std::allocator<char> >::basic_string<char,std::char_traits<char>,std::allocator<char> >
  0003c	8d 46 1c	 lea	 eax, DWORD PTR [esi+28]
  0003f	c7 45 fc 00 00
	00 00		 mov	 DWORD PTR __$EHRec$[ebp+8], 0
  00046	8d 4f 1c	 lea	 ecx, DWORD PTR [edi+28]
  00049	50		 push	 eax
  0004a	e8 00 00 00 00	 call	 ??0?$basic_string@DU?$char_traits@D@std@@V?$allocator@D@2@@std@@QAE@ABV01@@Z ; std::basic_string<char,std::char_traits<char>,std::allocator<char> >::basic_string<char,std::char_traits<char>,std::allocator<char> >
  0004f	8d 46 34	 lea	 eax, DWORD PTR [esi+52]
  00052	c6 45 fc 01	 mov	 BYTE PTR __$EHRec$[ebp+8], 1
  00056	8d 4f 34	 lea	 ecx, DWORD PTR [edi+52]
  00059	50		 push	 eax
  0005a	e8 00 00 00 00	 call	 ??0?$basic_string@DU?$char_traits@D@std@@V?$allocator@D@2@@std@@QAE@ABV01@@Z ; std::basic_string<char,std::char_traits<char>,std::allocator<char> >::basic_string<char,std::char_traits<char>,std::allocator<char> >
  0005f	8d 46 4c	 lea	 eax, DWORD PTR [esi+76]
  00062	c6 45 fc 02	 mov	 BYTE PTR __$EHRec$[ebp+8], 2
  00066	50		 push	 eax
  00067	8d 4f 4c	 lea	 ecx, DWORD PTR [edi+76]
  0006a	e8 00 00 00 00	 call	 ??0?$basic_string@DU?$char_traits@D@std@@V?$allocator@D@2@@std@@QAE@ABV01@@Z ; std::basic_string<char,std::char_traits<char>,std::allocator<char> >::basic_string<char,std::char_traits<char>,std::allocator<char> >
  0006f	8b 46 64	 mov	 eax, DWORD PTR [esi+100]
  00072	89 47 64	 mov	 DWORD PTR [edi+100], eax
  00075	8b 46 68	 mov	 eax, DWORD PTR [esi+104]
  00078	89 47 68	 mov	 DWORD PTR [edi+104], eax
  0007b	8b 46 6c	 mov	 eax, DWORD PTR [esi+108]
  0007e	89 47 6c	 mov	 DWORD PTR [edi+108], eax
  00081	8b c7		 mov	 eax, edi

; 464  : }

  00083	8b 4d f4	 mov	 ecx, DWORD PTR __$EHRec$[ebp]
  00086	64 89 0d 00 00
	00 00		 mov	 DWORD PTR fs:0, ecx
  0008d	59		 pop	 ecx
  0008e	5f		 pop	 edi
  0008f	5e		 pop	 esi
  00090	8b e5		 mov	 esp, ebp
  00092	5d		 pop	 ebp
  00093	c3		 ret	 0
_TEXT	ENDS
;	COMDAT text$x
text$x	SEGMENT
__unwindfunclet$??$construct_at@USQuestInstance@CPythonQuest@@ABU12@@std@@YAPAUSQuestInstance@CPythonQuest@@QAU12@ABU12@@Z$0:
  00000	8b 4d f0	 mov	 ecx, DWORD PTR $T2[ebp]
  00003	83 c1 04	 add	 ecx, 4
  00006	e9 00 00 00 00	 jmp	 ??1?$basic_string@DU?$char_traits@D@std@@V?$allocator@D@2@@std@@QAE@XZ ; std::basic_string<char,std::char_traits<char>,std::allocator<char> >::~basic_string<char,std::char_traits<char>,std::allocator<char> >
__unwindfunclet$??$construct_at@USQuestInstance@CPythonQuest@@ABU12@@std@@YAPAUSQuestInstance@CPythonQuest@@QAU12@ABU12@@Z$1:
  0000b	8b 4d f0	 mov	 ecx, DWORD PTR $T2[ebp]
  0000e	83 c1 1c	 add	 ecx, 28			; 0000001cH
  00011	e9 00 00 00 00	 jmp	 ??1?$basic_string@DU?$char_traits@D@std@@V?$allocator@D@2@@std@@QAE@XZ ; std::basic_string<char,std::char_traits<char>,std::allocator<char> >::~basic_string<char,std::char_traits<char>,std::allocator<char> >
__unwindfunclet$??$construct_at@USQuestInstance@CPythonQuest@@ABU12@@std@@YAPAUSQuestInstance@CPythonQuest@@QAU12@ABU12@@Z$2:
  00016	8b 4d f0	 mov	 ecx, DWORD PTR $T2[ebp]
  00019	83 c1 34	 add	 ecx, 52			; 00000034H
  0001c	e9 00 00 00 00	 jmp	 ??1?$basic_string@DU?$char_traits@D@std@@V?$allocator@D@2@@std@@QAE@XZ ; std::basic_string<char,std::char_traits<char>,std::allocator<char> >::~basic_string<char,std::char_traits<char>,std::allocator<char> >
  00021	cc		 int	 3
  00022	cc		 int	 3
  00023	cc		 int	 3
  00024	cc		 int	 3
  00025	cc		 int	 3
__ehhandler$??$construct_at@USQuestInstance@CPythonQuest@@ABU12@@std@@YAPAUSQuestInstance@CPythonQuest@@QAU12@ABU12@@Z:
  00026	90		 npad	 1
  00027	90		 npad	 1
  00028	8b 54 24 08	 mov	 edx, DWORD PTR [esp+8]
  0002c	8d 42 0c	 lea	 eax, DWORD PTR [edx+12]
  0002f	8b 4a f0	 mov	 ecx, DWORD PTR [edx-16]
  00032	33 c8		 xor	 ecx, eax
  00034	e8 00 00 00 00	 call	 @__security_check_cookie@4
  00039	b8 00 00 00 00	 mov	 eax, OFFSET __ehfuncinfo$??$construct_at@USQuestInstance@CPythonQuest@@ABU12@@std@@YAPAUSQuestInstance@CPythonQuest@@QAU12@ABU12@@Z
  0003e	e9 00 00 00 00	 jmp	 ___CxxFrameHandler3
text$x	ENDS
??$construct_at@USQuestInstance@CPythonQuest@@ABU12@@std@@YAPAUSQuestInstance@CPythonQuest@@QAU12@ABU12@@Z ENDP ; std::construct_at<CPythonQuest::SQuestInstance,CPythonQuest::SQuestInstance const &>
; Function compile flags: /Ogtp
; File C:\Program Files\Microsoft Visual Studio\2022\Community\VC\Tools\MSVC\14.44.35207\include\xmemory
;	COMDAT ?_Release@?$_Uninitialized_backout_al@V?$allocator@USQuestInstance@CPythonQuest@@@std@@@std@@QAEPAUSQuestInstance@CPythonQuest@@XZ
_TEXT	SEGMENT
?_Release@?$_Uninitialized_backout_al@V?$allocator@USQuestInstance@CPythonQuest@@@std@@@std@@QAEPAUSQuestInstance@CPythonQuest@@XZ PROC ; std::_Uninitialized_backout_al<std::allocator<CPythonQuest::SQuestInstance> >::_Release, COMDAT
; _this$ = ecx

; 1849 :         _First = _Last;

  00000	8b 41 04	 mov	 eax, DWORD PTR [ecx+4]
  00003	89 01		 mov	 DWORD PTR [ecx], eax

; 1850 :         return _Last;
; 1851 :     }

  00005	c3		 ret	 0
?_Release@?$_Uninitialized_backout_al@V?$allocator@USQuestInstance@CPythonQuest@@@std@@@std@@QAEPAUSQuestInstance@CPythonQuest@@XZ ENDP ; std::_Uninitialized_backout_al<std::allocator<CPythonQuest::SQuestInstance> >::_Release
_TEXT	ENDS
; Function compile flags: /Ogtp
; File C:\Program Files\Microsoft Visual Studio\2022\Community\VC\Tools\MSVC\14.44.35207\include\xmemory
;	COMDAT ??1?$_Uninitialized_backout_al@V?$allocator@USQuestInstance@CPythonQuest@@@std@@@std@@QAE@XZ
_TEXT	SEGMENT
??1?$_Uninitialized_backout_al@V?$allocator@USQuestInstance@CPythonQuest@@@std@@@std@@QAE@XZ PROC ; std::_Uninitialized_backout_al<std::allocator<CPythonQuest::SQuestInstance> >::~_Uninitialized_backout_al<std::allocator<CPythonQuest::SQuestInstance> >, COMDAT
; _this$ = ecx

; 1839 :         _STD _Destroy_range(_First, _Last, _Al);

  00000	8b 51 04	 mov	 edx, DWORD PTR [ecx+4]
  00003	51		 push	 ecx
  00004	8b 09		 mov	 ecx, DWORD PTR [ecx]
  00006	e8 00 00 00 00	 call	 ??$_Destroy_range@V?$allocator@USQuestInstance@CPythonQuest@@@std@@@std@@YAXPAUSQuestInstance@CPythonQuest@@QAU12@AAV?$allocator@USQuestInstance@CPythonQuest@@@0@@Z ; std::_Destroy_range<std::allocator<CPythonQuest::SQuestInstance> >
  0000b	59		 pop	 ecx

; 1840 :     }

  0000c	c3		 ret	 0
??1?$_Uninitialized_backout_al@V?$allocator@USQuestInstance@CPythonQuest@@@std@@@std@@QAE@XZ ENDP ; std::_Uninitialized_backout_al<std::allocator<CPythonQuest::SQuestInstance> >::~_Uninitialized_backout_al<std::allocator<CPythonQuest::SQuestInstance> >
_TEXT	ENDS
; Function compile flags: /Ogtp
; File C:\Program Files\Microsoft Visual Studio\2022\Community\VC\Tools\MSVC\14.44.35207\include\xmemory
;	COMDAT ??0?$_Uninitialized_backout_al@V?$allocator@USQuestInstance@CPythonQuest@@@std@@@std@@QAE@PAUSQuestInstance@CPythonQuest@@AAV?$allocator@USQuestInstance@CPythonQuest@@@1@@Z
_TEXT	SEGMENT
__Dest$ = 8						; size = 4
__Al_$ = 12						; size = 4
??0?$_Uninitialized_backout_al@V?$allocator@USQuestInstance@CPythonQuest@@@std@@@std@@QAE@PAUSQuestInstance@CPythonQuest@@AAV?$allocator@USQuestInstance@CPythonQuest@@@1@@Z PROC ; std::_Uninitialized_backout_al<std::allocator<CPythonQuest::SQuestInstance> >::_Uninitialized_backout_al<std::allocator<CPythonQuest::SQuestInstance> >, COMDAT
; _this$ = ecx

; 1833 :     _CONSTEXPR20 _Uninitialized_backout_al(pointer _Dest, _Alloc& _Al_) : _First(_Dest), _Last(_Dest), _Al(_Al_) {}

  00000	55		 push	 ebp
  00001	8b ec		 mov	 ebp, esp
  00003	8b 45 08	 mov	 eax, DWORD PTR __Dest$[ebp]
  00006	89 01		 mov	 DWORD PTR [ecx], eax
  00008	89 41 04	 mov	 DWORD PTR [ecx+4], eax
  0000b	8b 45 0c	 mov	 eax, DWORD PTR __Al_$[ebp]
  0000e	89 41 08	 mov	 DWORD PTR [ecx+8], eax
  00011	8b c1		 mov	 eax, ecx
  00013	5d		 pop	 ebp
  00014	c2 08 00	 ret	 8
??0?$_Uninitialized_backout_al@V?$allocator@USQuestInstance@CPythonQuest@@@std@@@std@@QAE@PAUSQuestInstance@CPythonQuest@@AAV?$allocator@USQuestInstance@CPythonQuest@@@1@@Z ENDP ; std::_Uninitialized_backout_al<std::allocator<CPythonQuest::SQuestInstance> >::_Uninitialized_backout_al<std::allocator<CPythonQuest::SQuestInstance> >
_TEXT	ENDS
; Function compile flags: /Ogtp
; File C:\Program Files\Microsoft Visual Studio\2022\Community\VC\Tools\MSVC\14.44.35207\include\xmemory
;	COMDAT ?max_size@?$_Default_allocator_traits@V?$allocator@USQuestInstance@CPythonQuest@@@std@@@std@@SAIABV?$allocator@USQuestInstance@CPythonQuest@@@2@@Z
_TEXT	SEGMENT
?max_size@?$_Default_allocator_traits@V?$allocator@USQuestInstance@CPythonQuest@@@std@@@std@@SAIABV?$allocator@USQuestInstance@CPythonQuest@@@2@@Z PROC ; std::_Default_allocator_traits<std::allocator<CPythonQuest::SQuestInstance> >::max_size, COMDAT
; ___formal$dead$ = ecx

; 746  :         return static_cast<size_t>(-1) / sizeof(value_type);

  00000	b8 92 24 49 02	 mov	 eax, 38347922		; 02492492H

; 747  :     }

  00005	c3		 ret	 0
?max_size@?$_Default_allocator_traits@V?$allocator@USQuestInstance@CPythonQuest@@@std@@@std@@SAIABV?$allocator@USQuestInstance@CPythonQuest@@@2@@Z ENDP ; std::_Default_allocator_traits<std::allocator<CPythonQuest::SQuestInstance> >::max_size
_TEXT	ENDS
; Function compile flags: /Ogtp
; File C:\Program Files\Microsoft Visual Studio\2022\Community\VC\Tools\MSVC\14.44.35207\include\vector
;	COMDAT ?_Getal@?$vector@USQuestInstance@CPythonQuest@@V?$allocator@USQuestInstance@CPythonQuest@@@std@@@std@@ABEABV?$allocator@USQuestInstance@CPythonQuest@@@2@XZ
_TEXT	SEGMENT
?_Getal@?$vector@USQuestInstance@CPythonQuest@@V?$allocator@USQuestInstance@CPythonQuest@@@std@@@std@@ABEABV?$allocator@USQuestInstance@CPythonQuest@@@2@XZ PROC ; std::vector<CPythonQuest::SQuestInstance,std::allocator<CPythonQuest::SQuestInstance> >::_Getal, COMDAT
; _this$ = ecx

; 2231 :         return _Mypair._Get_first();

  00000	8b c1		 mov	 eax, ecx

; 2232 :     }

  00002	c3		 ret	 0
?_Getal@?$vector@USQuestInstance@CPythonQuest@@V?$allocator@USQuestInstance@CPythonQuest@@@std@@@std@@ABEABV?$allocator@USQuestInstance@CPythonQuest@@@2@XZ ENDP ; std::vector<CPythonQuest::SQuestInstance,std::allocator<CPythonQuest::SQuestInstance> >::_Getal
_TEXT	ENDS
; Function compile flags: /Ogtp
; File C:\Program Files\Microsoft Visual Studio\2022\Community\VC\Tools\MSVC\14.44.35207\include\vector
;	COMDAT ?capacity@?$vector@USQuestInstance@CPythonQuest@@V?$allocator@USQuestInstance@CPythonQuest@@@std@@@std@@QBEIXZ
_TEXT	SEGMENT
?capacity@?$vector@USQuestInstance@CPythonQuest@@V?$allocator@USQuestInstance@CPythonQuest@@@std@@@std@@QBEIXZ PROC ; std::vector<CPythonQuest::SQuestInstance,std::allocator<CPythonQuest::SQuestInstance> >::capacity, COMDAT
; _this$ = ecx

; 1923 :         auto& _My_data = _Mypair._Myval2;
; 1924 :         return static_cast<size_type>(_My_data._Myend - _My_data._Myfirst);

  00000	8b 41 08	 mov	 eax, DWORD PTR [ecx+8]
  00003	2b 01		 sub	 eax, DWORD PTR [ecx]
  00005	c1 f8 04	 sar	 eax, 4
  00008	69 c0 b7 6d db
	b6		 imul	 eax, eax, -1227133513

; 1925 :     }

  0000e	c3		 ret	 0
?capacity@?$vector@USQuestInstance@CPythonQuest@@V?$allocator@USQuestInstance@CPythonQuest@@@std@@@std@@QBEIXZ ENDP ; std::vector<CPythonQuest::SQuestInstance,std::allocator<CPythonQuest::SQuestInstance> >::capacity
_TEXT	ENDS
; Function compile flags: /Ogtp
; File C:\Program Files\Microsoft Visual Studio\2022\Community\VC\Tools\MSVC\14.44.35207\include\xmemory
;	COMDAT ?allocate@?$allocator@USQuestInstance@CPythonQuest@@@std@@QAEPAUSQuestInstance@CPythonQuest@@I@Z
_TEXT	SEGMENT
__Count$ = 8						; size = 4
?allocate@?$allocator@USQuestInstance@CPythonQuest@@@std@@QAEPAUSQuestInstance@CPythonQuest@@I@Z PROC ; std::allocator<CPythonQuest::SQuestInstance>::allocate, COMDAT
; _this$dead$ = ecx

; 988  :     _NODISCARD_RAW_PTR_ALLOC _CONSTEXPR20 __declspec(allocator) _Ty* allocate(_CRT_GUARDOVERFLOW const size_t _Count) {

  00000	55		 push	 ebp
  00001	8b ec		 mov	 ebp, esp

; 117  :         if (_Count > _Max_possible) {

  00003	8b 45 08	 mov	 eax, DWORD PTR __Count$[ebp]
  00006	3d 92 24 49 02	 cmp	 eax, 38347922		; 02492492H
  0000b	77 2b		 ja	 SHORT $LN19@allocate

; 119  :         }
; 120  :     }
; 121  : 
; 122  :     return _Count * _Ty_size;

  0000d	6b c0 70	 imul	 eax, eax, 112

; 227  :     if (_Bytes == 0) {

  00010	85 c0		 test	 eax, eax
  00012	75 04		 jne	 SHORT $LN8@allocate

; 989  :         static_assert(sizeof(value_type) > 0, "value_type must be complete before calling allocate.");
; 990  :         return static_cast<_Ty*>(_STD _Allocate<_New_alignof<_Ty>>(_Get_size_of_n<sizeof(_Ty)>(_Count)));
; 991  :     }

  00014	5d		 pop	 ebp
  00015	c2 04 00	 ret	 4
$LN8@allocate:

; 251  :         if (_Bytes >= _Big_allocation_threshold) {

  00018	50		 push	 eax
  00019	3d 00 10 00 00	 cmp	 eax, 4096		; 00001000H
  0001e	72 0c		 jb	 SHORT $LN10@allocate

; 252  :             // boost the alignment of big allocations to help autovectorization
; 253  :             return _Allocate_manually_vector_aligned<_Traits>(_Bytes);

  00020	e8 00 00 00 00	 call	 ??$_Allocate_manually_vector_aligned@U_Default_allocate_traits@std@@@std@@YAPAXI@Z ; std::_Allocate_manually_vector_aligned<std::_Default_allocate_traits>

; 989  :         static_assert(sizeof(value_type) > 0, "value_type must be complete before calling allocate.");
; 990  :         return static_cast<_Ty*>(_STD _Allocate<_New_alignof<_Ty>>(_Get_size_of_n<sizeof(_Ty)>(_Count)));
; 991  :     }

  00025	83 c4 04	 add	 esp, 4
  00028	5d		 pop	 ebp
  00029	c2 04 00	 ret	 4
$LN10@allocate:

; 136  :         return ::operator new(_Bytes);

  0002c	e8 00 00 00 00	 call	 ??2@YAPAXI@Z		; operator new

; 989  :         static_assert(sizeof(value_type) > 0, "value_type must be complete before calling allocate.");
; 990  :         return static_cast<_Ty*>(_STD _Allocate<_New_alignof<_Ty>>(_Get_size_of_n<sizeof(_Ty)>(_Count)));
; 991  :     }

  00031	83 c4 04	 add	 esp, 4
  00034	5d		 pop	 ebp
  00035	c2 04 00	 ret	 4
$LN19@allocate:

; 118  :             _Throw_bad_array_new_length(); // multiply overflow

  00038	e8 00 00 00 00	 call	 ?_Throw_bad_array_new_length@std@@YAXXZ ; std::_Throw_bad_array_new_length
$LN16@allocate:
  0003d	cc		 int	 3
?allocate@?$allocator@USQuestInstance@CPythonQuest@@@std@@QAEPAUSQuestInstance@CPythonQuest@@I@Z ENDP ; std::allocator<CPythonQuest::SQuestInstance>::allocate
_TEXT	ENDS
; Function compile flags: /Ogtp
;	COMDAT ??0SQuestInstance@CPythonQuest@@QAE@ABU01@@Z
_TEXT	SEGMENT
_this$ = -16						; size = 4
__$EHRec$ = -12						; size = 12
___that$ = 8						; size = 4
??0SQuestInstance@CPythonQuest@@QAE@ABU01@@Z PROC	; CPythonQuest::SQuestInstance::SQuestInstance, COMDAT
; _this$ = ecx
  00000	55		 push	 ebp
  00001	8b ec		 mov	 ebp, esp
  00003	6a ff		 push	 -1
  00005	68 00 00 00 00	 push	 __ehhandler$??0SQuestInstance@CPythonQuest@@QAE@ABU01@@Z
  0000a	64 a1 00 00 00
	00		 mov	 eax, DWORD PTR fs:0
  00010	50		 push	 eax
  00011	51		 push	 ecx
  00012	56		 push	 esi
  00013	57		 push	 edi
  00014	a1 00 00 00 00	 mov	 eax, DWORD PTR ___security_cookie
  00019	33 c5		 xor	 eax, ebp
  0001b	50		 push	 eax
  0001c	8d 45 f4	 lea	 eax, DWORD PTR __$EHRec$[ebp]
  0001f	64 a3 00 00 00
	00		 mov	 DWORD PTR fs:0, eax
  00025	8b f9		 mov	 edi, ecx
  00027	89 7d f0	 mov	 DWORD PTR _this$[ebp], edi
  0002a	8b 75 08	 mov	 esi, DWORD PTR ___that$[ebp]
  0002d	8d 4f 04	 lea	 ecx, DWORD PTR [edi+4]
  00030	8b 06		 mov	 eax, DWORD PTR [esi]
  00032	89 07		 mov	 DWORD PTR [edi], eax
  00034	8d 46 04	 lea	 eax, DWORD PTR [esi+4]
  00037	50		 push	 eax
  00038	e8 00 00 00 00	 call	 ??0?$basic_string@DU?$char_traits@D@std@@V?$allocator@D@2@@std@@QAE@ABV01@@Z ; std::basic_string<char,std::char_traits<char>,std::allocator<char> >::basic_string<char,std::char_traits<char>,std::allocator<char> >
  0003d	8d 46 1c	 lea	 eax, DWORD PTR [esi+28]
  00040	c7 45 fc 00 00
	00 00		 mov	 DWORD PTR __$EHRec$[ebp+8], 0
  00047	8d 4f 1c	 lea	 ecx, DWORD PTR [edi+28]
  0004a	50		 push	 eax
  0004b	e8 00 00 00 00	 call	 ??0?$basic_string@DU?$char_traits@D@std@@V?$allocator@D@2@@std@@QAE@ABV01@@Z ; std::basic_string<char,std::char_traits<char>,std::allocator<char> >::basic_string<char,std::char_traits<char>,std::allocator<char> >
  00050	8d 46 34	 lea	 eax, DWORD PTR [esi+52]
  00053	c6 45 fc 01	 mov	 BYTE PTR __$EHRec$[ebp+8], 1
  00057	8d 4f 34	 lea	 ecx, DWORD PTR [edi+52]
  0005a	50		 push	 eax
  0005b	e8 00 00 00 00	 call	 ??0?$basic_string@DU?$char_traits@D@std@@V?$allocator@D@2@@std@@QAE@ABV01@@Z ; std::basic_string<char,std::char_traits<char>,std::allocator<char> >::basic_string<char,std::char_traits<char>,std::allocator<char> >
  00060	8d 46 4c	 lea	 eax, DWORD PTR [esi+76]
  00063	c6 45 fc 02	 mov	 BYTE PTR __$EHRec$[ebp+8], 2
  00067	50		 push	 eax
  00068	8d 4f 4c	 lea	 ecx, DWORD PTR [edi+76]
  0006b	e8 00 00 00 00	 call	 ??0?$basic_string@DU?$char_traits@D@std@@V?$allocator@D@2@@std@@QAE@ABV01@@Z ; std::basic_string<char,std::char_traits<char>,std::allocator<char> >::basic_string<char,std::char_traits<char>,std::allocator<char> >
  00070	8b 46 64	 mov	 eax, DWORD PTR [esi+100]
  00073	89 47 64	 mov	 DWORD PTR [edi+100], eax
  00076	8b 46 68	 mov	 eax, DWORD PTR [esi+104]
  00079	89 47 68	 mov	 DWORD PTR [edi+104], eax
  0007c	8b 46 6c	 mov	 eax, DWORD PTR [esi+108]
  0007f	89 47 6c	 mov	 DWORD PTR [edi+108], eax
  00082	8b c7		 mov	 eax, edi
  00084	8b 4d f4	 mov	 ecx, DWORD PTR __$EHRec$[ebp]
  00087	64 89 0d 00 00
	00 00		 mov	 DWORD PTR fs:0, ecx
  0008e	59		 pop	 ecx
  0008f	5f		 pop	 edi
  00090	5e		 pop	 esi
  00091	8b e5		 mov	 esp, ebp
  00093	5d		 pop	 ebp
  00094	c2 04 00	 ret	 4
_TEXT	ENDS
;	COMDAT text$x
text$x	SEGMENT
__unwindfunclet$??0SQuestInstance@CPythonQuest@@QAE@ABU01@@Z$0:
  00000	8b 4d f0	 mov	 ecx, DWORD PTR _this$[ebp]
  00003	83 c1 04	 add	 ecx, 4
  00006	e9 00 00 00 00	 jmp	 ??1?$basic_string@DU?$char_traits@D@std@@V?$allocator@D@2@@std@@QAE@XZ ; std::basic_string<char,std::char_traits<char>,std::allocator<char> >::~basic_string<char,std::char_traits<char>,std::allocator<char> >
__unwindfunclet$??0SQuestInstance@CPythonQuest@@QAE@ABU01@@Z$1:
  0000b	8b 4d f0	 mov	 ecx, DWORD PTR _this$[ebp]
  0000e	83 c1 1c	 add	 ecx, 28			; 0000001cH
  00011	e9 00 00 00 00	 jmp	 ??1?$basic_string@DU?$char_traits@D@std@@V?$allocator@D@2@@std@@QAE@XZ ; std::basic_string<char,std::char_traits<char>,std::allocator<char> >::~basic_string<char,std::char_traits<char>,std::allocator<char> >
__unwindfunclet$??0SQuestInstance@CPythonQuest@@QAE@ABU01@@Z$2:
  00016	8b 4d f0	 mov	 ecx, DWORD PTR _this$[ebp]
  00019	83 c1 34	 add	 ecx, 52			; 00000034H
  0001c	e9 00 00 00 00	 jmp	 ??1?$basic_string@DU?$char_traits@D@std@@V?$allocator@D@2@@std@@QAE@XZ ; std::basic_string<char,std::char_traits<char>,std::allocator<char> >::~basic_string<char,std::char_traits<char>,std::allocator<char> >
  00021	cc		 int	 3
  00022	cc		 int	 3
  00023	cc		 int	 3
  00024	cc		 int	 3
  00025	cc		 int	 3
__ehhandler$??0SQuestInstance@CPythonQuest@@QAE@ABU01@@Z:
  00026	90		 npad	 1
  00027	90		 npad	 1
  00028	8b 54 24 08	 mov	 edx, DWORD PTR [esp+8]
  0002c	8d 42 0c	 lea	 eax, DWORD PTR [edx+12]
  0002f	8b 4a f0	 mov	 ecx, DWORD PTR [edx-16]
  00032	33 c8		 xor	 ecx, eax
  00034	e8 00 00 00 00	 call	 @__security_check_cookie@4
  00039	b8 00 00 00 00	 mov	 eax, OFFSET __ehfuncinfo$??0SQuestInstance@CPythonQuest@@QAE@ABU01@@Z
  0003e	e9 00 00 00 00	 jmp	 ___CxxFrameHandler3
text$x	ENDS
??0SQuestInstance@CPythonQuest@@QAE@ABU01@@Z ENDP	; CPythonQuest::SQuestInstance::SQuestInstance
; Function compile flags: /Ogtp
; File C:\Program Files\Microsoft Visual Studio\2022\Community\VC\Tools\MSVC\14.44.35207\include\xmemory
;	COMDAT ??$_Get_size_of_n@$0HA@@std@@YAII@Z
_TEXT	SEGMENT
??$_Get_size_of_n@$0HA@@std@@YAII@Z PROC		; std::_Get_size_of_n<112>, COMDAT
; __Count$ = ecx

; 113  :     constexpr bool _Overflow_is_possible = _Ty_size > 1;
; 114  : 
; 115  :     if constexpr (_Overflow_is_possible) {
; 116  :         constexpr size_t _Max_possible = static_cast<size_t>(-1) / _Ty_size;
; 117  :         if (_Count > _Max_possible) {

  00000	81 f9 92 24 49
	02		 cmp	 ecx, 38347922		; 02492492H
  00006	0f 87 00 00 00
	00		 ja	 ?_Throw_bad_array_new_length@std@@YAXXZ ; std::_Throw_bad_array_new_length

; 118  :             _Throw_bad_array_new_length(); // multiply overflow
; 119  :         }
; 120  :     }
; 121  : 
; 122  :     return _Count * _Ty_size;

  0000c	6b c1 70	 imul	 eax, ecx, 112

; 123  : }

  0000f	c3		 ret	 0
??$_Get_size_of_n@$0HA@@std@@YAII@Z ENDP		; std::_Get_size_of_n<112>
_TEXT	ENDS
; Function compile flags: /Ogtp
; File C:\Program Files\Microsoft Visual Studio\2022\Community\VC\Tools\MSVC\14.44.35207\include\xmemory
;	COMDAT ?_Get_first@?$_Compressed_pair@V?$allocator@USQuestInstance@CPythonQuest@@@std@@V?$_Vector_val@U?$_Simple_types@USQuestInstance@CPythonQuest@@@std@@@2@$00@std@@QBEABV?$allocator@USQuestInstance@CPythonQuest@@@2@XZ
_TEXT	SEGMENT
?_Get_first@?$_Compressed_pair@V?$allocator@USQuestInstance@CPythonQuest@@@std@@V?$_Vector_val@U?$_Simple_types@USQuestInstance@CPythonQuest@@@std@@@2@$00@std@@QBEABV?$allocator@USQuestInstance@CPythonQuest@@@2@XZ PROC ; std::_Compressed_pair<std::allocator<CPythonQuest::SQuestInstance>,std::_Vector_val<std::_Simple_types<CPythonQuest::SQuestInstance> >,1>::_Get_first, COMDAT
; _this$ = ecx

; 1543 :         return *this;

  00000	8b c1		 mov	 eax, ecx

; 1544 :     }

  00002	c3		 ret	 0
?_Get_first@?$_Compressed_pair@V?$allocator@USQuestInstance@CPythonQuest@@@std@@V?$_Vector_val@U?$_Simple_types@USQuestInstance@CPythonQuest@@@std@@@2@$00@std@@QBEABV?$allocator@USQuestInstance@CPythonQuest@@@2@XZ ENDP ; std::_Compressed_pair<std::allocator<CPythonQuest::SQuestInstance>,std::_Vector_val<std::_Simple_types<CPythonQuest::SQuestInstance> >,1>::_Get_first
_TEXT	ENDS
END
