; Listing generated by Microsoft (R) Optimizing Compiler Version 19.44.35217.0 

	TITLE	d:\_m2work\txoko-m2-work\txoko-client-src\vs_files\userinterface\distribute\pythonplayermodule.obj
	.686P
	.XMM
	include listing.inc
	.model	flat

INCLUDELIB OLDNAMES

PUBLIC	??_C@_0EA@OHLDKNFC@playerSetAttackKeyState?$CIisPress@ ; `string'
PUBLIC	??_C@_0DF@ILFGGFEI@CPythonPlayer?3?3RegisterEffect?$CIe@ ; `string'
PUBLIC	??_C@_0EK@IDBGKDBN@playerSetSingleDIKKeyState?$CIeDIK@ ; `string'
PUBLIC	??_C@_0EJ@BNKMOLIP@playerSetSingleDIKKeyState?$CIeDIK@ ; `string'
PUBLIC	??_C@_01HHGOMJKL@l@				; `string'
PUBLIC	??_C@_02HPEDFNFO@ff@				; `string'
PUBLIC	??_C@_0BK@MCOKCAKI@?5?$HMh?$HMr?$FL?$CFs?$FN?$HMcffffc700?$HMH?$CFs?$HMh@ ; `string'
PUBLIC	??_C@_06FAMCNHHL@?3?$CFx?3?$CFd@		; `string'
PUBLIC	??_C@_0BF@BGKCJNBK@Can?8t?5find?5item?5data@	; `string'
PUBLIC	??_C@_0BK@MGKBEPOF@?5?$HMh?$HMr?$FL?$CFs?$FN?$HMcfff1e6c0?$HMH?$CFs?$HMh@ ; `string'
PUBLIC	??_C@_07EFJJEBFG@iiiiiii@			; `string'
PUBLIC	??_C@_0BF@IBGKLIMC@can?8t?5find?5item?5data@	; `string'
PUBLIC	??_C@_0BC@CHIABFDI@GetAutoPotionInfo@		; `string'
PUBLIC	??_C@_04GPDILEAH@biii@				; `string'
PUBLIC	??_C@_0O@MAEJALBO@PickCloseItem@		; `string'
PUBLIC	??_C@_0BC@CILJOCG@SetAutoPotionInfo@		; `string'
PUBLIC	??_C@_0O@HDELDAFI@SetMouseState@		; `string'
PUBLIC	??_C@_0O@MNPFFDEJ@SetGameWindow@		; `string'
PUBLIC	??_C@_0N@MACDDOCA@GetMouseFunc@			; `string'
PUBLIC	??_C@_0N@LEJNPCGM@SetMouseFunc@			; `string'
PUBLIC	??_C@_0BG@JCNMOACA@SetMainCharacterIndex@	; `string'
PUBLIC	??_C@_0BK@JBJLNCBH@SetMouseMiddleButtonState@	; `string'
PUBLIC	??_C@_0BF@OMDPKDFM@GetMainCharacterName@	; `string'
PUBLIC	??_C@_0BG@GHIKDJGB@GetMainCharacterIndex@	; `string'
PUBLIC	??_C@_0BF@GALHNOAL@IsMainCharacterIndex@	; `string'
PUBLIC	??_C@_0BJ@GIKFEPMH@GetMainCharacterPosition@	; `string'
PUBLIC	??_C@_0BA@ODCBPOEF@IsActingEmotion@		; `string'
PUBLIC	??_C@_0BC@FLPEGJDD@CanAttackInstance@		; `string'
PUBLIC	??_C@_0N@CBEDFALN@IsSameEmpire@			; `string'
PUBLIC	??_C@_0O@ECCODAC@IsPVPInstance@			; `string'
PUBLIC	??_C@_0BC@IKOEAPGC@IsRevengeInstance@		; `string'
PUBLIC	??_C@_0BE@FOIPHJLO@IsChallengeInstance@		; `string'
PUBLIC	??_C@_0BF@DABJOKIF@GetCharacterDistance@	; `string'
PUBLIC	??_C@_0BE@HJOMPGKI@IsCantFightInstance@		; `string'
PUBLIC	??_C@_0BA@GFJLKENO@IsMountingHorse@		; `string'
PUBLIC	??_C@_0N@IKPCBCPA@IsInSafeArea@			; `string'
PUBLIC	??_C@_0L@JEBGMNAH@ActEmotion@			; `string'
PUBLIC	??_C@_0P@LDENHACE@IsObserverMode@		; `string'
PUBLIC	??_C@_0L@PBBGGCLG@HidePlayer@			; `string'
PUBLIC	??_C@_0L@CPMIOCIM@ShowPlayer@			; `string'
PUBLIC	??_C@_0BL@IEKDAKHC@SetAutoCameraRotationSpeed@	; `string'
PUBLIC	??_C@_0M@GOCDIKPN@ComboAttack@			; `string'
PUBLIC	??_C@_0BF@PNJNANBI@SetSingleDIKKeyState@	; `string'
PUBLIC	??_C@_0BC@DAIEHFBH@SetAttackKeyState@		; `string'
PUBLIC	??_C@_0BC@NCHFPCDM@StartMouseWalking@		; `string'
PUBLIC	??_C@_0BJ@HGLJKHIH@EndKeyWalkingImmediately@	; `string'
PUBLIC	??_C@_0BE@MCFGJOPA@ResetCameraRotation@		; `string'
PUBLIC	??_C@_0BA@JEOKFDLP@EndMouseWalking@		; `string'
PUBLIC	??_C@_08HIFGFOGG@SetSkill@			; `string'
PUBLIC	??_C@_0BD@DPHLFGPP@SetQuickCameraMode@		; `string'
PUBLIC	??_C@_0O@IIOIANPE@GetSkillGrade@		; `string'
PUBLIC	??_C@_0BC@HNJMANI@GetSkillSlotIndex@		; `string'
PUBLIC	??_C@_0CA@JHGONPGM@GetSkillNextEfficientPercentage@ ; `string'
PUBLIC	??_C@_0CD@EFGGIKHI@GetSkillCurrentEfficientPercent@ ; `string'
PUBLIC	??_C@_0BN@BPJDEKED@ChangeCurrentSkillNumberOnly@ ; `string'
PUBLIC	??_C@_0P@IGNHDBHH@ClickSkillSlot@		; `string'
PUBLIC	??_C@_0N@GABOCBEH@GetItemIndex@			; `string'
PUBLIC	??_C@_0P@MJOJKOJJ@ClearSkillDict@		; `string'
PUBLIC	??_C@_0N@LEKALLIG@GetItemCount@			; `string'
PUBLIC	??_C@_0N@DMCGDNGF@GetItemFlags@			; `string'
PUBLIC	??_C@_0BD@JBOBKHIE@GetItemMetinSocket@		; `string'
PUBLIC	??_C@_0BD@DBLILMFK@GetItemCountByVnum@		; `string'
PUBLIC	??_C@_08MHJANHDM@MoveItem@			; `string'
PUBLIC	??_C@_0BB@GOKPPDHH@GetItemAttribute@		; `string'
PUBLIC	??_C@_06FHLNIOPB@GetJob@			; `string'
PUBLIC	??_C@_0BE@DBIFLBAC@SendClickItemPacket@		; `string'
PUBLIC	??_C@_0M@DGCMFHDN@SetPlayTime@			; `string'
PUBLIC	??_C@_0M@DJDCIBLO@GetPlayTime@			; `string'
PUBLIC	??_C@_0BB@CNGGKNGL@GetSkillCoolTime@		; `string'
PUBLIC	??_C@_0BA@FOPKKJJD@IsSkillCoolTime@		; `string'
PUBLIC	??_C@_0O@HHBOBCLE@UseGuildSkill@		; `string'
PUBLIC	??_C@_0O@IAPCJJAC@IsSkillActive@		; `string'
PUBLIC	??_C@_06MDIKDJMD@GetEXP@			; `string'
PUBLIC	??_C@_0BI@JIGEMOFF@AffectIndexToSkillIndex@	; `string'
PUBLIC	??_C@_09OEBBKEAG@SetStatus@			; `string'
PUBLIC	??_C@_09MKFEIFJE@GetStatus@			; `string'
PUBLIC	??_C@_08OAJFGNBC@GetMoney@			; `string'
PUBLIC	??_C@_06NMFKJLLH@GetElk@			; `string'
PUBLIC	??_C@_0BJ@DNLGAMEO@RequestAddLocalQuickSlot@	; `string'
PUBLIC	??_C@_0BB@LANDCIKG@GetAlignmentData@		; `string'
PUBLIC	??_C@_0BN@NACLJDMA@RequestDeleteGlobalQuickSlot@ ; `string'
PUBLIC	??_C@_0CA@JMFCJJPL@RequestAddToEmptyLocalQuickSlot@ ; `string'
PUBLIC	??_C@_0BJ@IBBGPDPH@RequestUseLocalQuickSlot@	; `string'
PUBLIC	??_C@_0CL@IEMBKGLN@RequestMoveGlobalQuickSlotToLoc@ ; `string'
PUBLIC	??_C@_0N@NLMPHAJA@GetQuickPage@			; `string'
PUBLIC	??_C@_0CK@GNGKFIDB@LocalQuickSlotIndexToGlobalQuic@ ; `string'
PUBLIC	??_C@_0BC@LNKMMBDG@GetLocalQuickSlot@		; `string'
PUBLIC	??_C@_0N@KPHBLMNM@SetQuickPage@			; `string'
PUBLIC	??_C@_0BH@JNCIKJMC@RemoveQuickSlotByValue@	; `string'
PUBLIC	??_C@_0BD@ECGPDHPA@GetGlobalQuickSlot@		; `string'
PUBLIC	??_C@_0BA@EMKHGGAL@IsEquipmentSlot@		; `string'
PUBLIC	??_C@_06NOPKEHAK@isItem@			; `string'
PUBLIC	??_C@_0O@KCAGNEAI@IsCostumeSlot@		; `string'
PUBLIC	??_C@_0BC@DDCIGDKO@IsDSEquipmentSlot@		; `string'
PUBLIC	??_C@_0BC@DCFDMADN@IsOpenPrivateShop@		; `string'
PUBLIC	??_C@_0P@LAJFBPPH@IsValuableItem@		; `string'
PUBLIC	??_C@_0BA@OBALOJLG@IsEquippingBelt@		; `string'
PUBLIC	??_C@_0BE@HECMLJG@IsBeltInventorySlot@		; `string'
PUBLIC	??_C@_0N@DGHEMMKN@GetItemGrade@			; `string'
PUBLIC	??_C@_0BN@DKGNHJIB@IsAvailableBeltInventoryCell@ ; `string'
PUBLIC	??_C@_09GHIBIBHI@CanDetach@			; `string'
PUBLIC	??_C@_09BGNCJJP@CanRefine@			; `string'
PUBLIC	??_C@_0P@BLOGPKFO@CanAttachMetin@		; `string'
PUBLIC	??_C@_09FHINBOHC@CanUnlock@			; `string'
PUBLIC	??_C@_0M@DPCEEMCG@ClearTarget@			; `string'
PUBLIC	??_C@_0BE@ELNKJPMC@IsRefineGradeScroll@		; `string'
PUBLIC	??_C@_0BC@HAEJEFBP@OpenCharacterMenu@		; `string'
PUBLIC	??_C@_09EECGCJDE@SetTarget@			; `string'
PUBLIC	??_C@_0BD@HGKJMFNK@IsPartyLeaderByPID@		; `string'
PUBLIC	??_C@_0O@BPMJGNAC@IsPartyLeader@		; `string'
PUBLIC	??_C@_0BE@HKIJMBKK@GetPartyMemberState@		; `string'
PUBLIC	??_C@_0BL@EPAFEFHI@GetPartyMemberHPPercentage@	; `string'
PUBLIC	??_C@_09DMPBEJCG@ExitParty@			; `string'
PUBLIC	??_C@_0BG@EEFAFMJC@GetPartyMemberAffects@	; `string'
PUBLIC	??_C@_0BF@CLGCEOLO@HasMobilePhoneNumber@	; `string'
PUBLIC	??_C@_09IMMFEEHK@GetPKMode@			; `string'
PUBLIC	??_C@_0BE@FELKHKJF@GetEmotionIconImage@		; `string'
PUBLIC	??_C@_0BE@PMDABIKP@RegisterEmotionIcon@		; `string'
PUBLIC	??_C@_0P@ILOOLMDH@ToggleCoolTime@		; `string'
PUBLIC	??_C@_0BJ@CFCMHNHB@SetWeaponAttackBonusFlag@	; `string'
PUBLIC	??_C@_0N@MEKPPHGC@GetTargetVID@			; `string'
PUBLIC	??_C@_0BB@DJKKOCLB@ToggleLevelLimit@		; `string'
PUBLIC	??_C@_0BD@GLMLJBGM@SetItemMetinSocket@		; `string'
PUBLIC	??_C@_0M@CHNGAPIB@SetItemData@			; `string'
PUBLIC	??_C@_0N@MABOHHMK@SetItemCount@			; `string'
PUBLIC	??_C@_0BB@KPGENMF@SetItemAttribute@		; `string'
PUBLIC	??_C@_0BE@IOMKCPHN@SlotTypeToInvenType@		; `string'
PUBLIC	??_C@_0M@DGFCHEAA@GetItemLink@			; `string'
PUBLIC	??_C@_06BALNJMNP@player@			; `string'
PUBLIC	??_C@_0BF@PLGNHJMH@SendDragonSoulRefine@	; `string'
PUBLIC	??_C@_05FHIHOFEA@VOICE@				; `string'
PUBLIC	??_C@_05GCEPFMCO@LEVEL@				; `string'
PUBLIC	??_C@_08CHGDMADF@NEXT_EXP@			; `string'
PUBLIC	??_C@_03KKGFKKLA@EXP@				; `string'
PUBLIC	??_C@_06NMHEPHCD@MAX_HP@			; `string'
PUBLIC	??_C@_02MEIMKHMB@HP@				; `string'
PUBLIC	??_C@_06MMAHLLLC@MAX_SP@			; `string'
PUBLIC	??_C@_02NEPPOLFA@SP@				; `string'
PUBLIC	??_C@_0M@CHCGLEDD@MAX_STAMINA@			; `string'
PUBLIC	??_C@_07IHPDJFBP@STAMINA@			; `string'
PUBLIC	??_C@_02LAJDCOFE@ST@				; `string'
PUBLIC	??_C@_03BIHMGKIG@ELK@				; `string'
PUBLIC	??_C@_02FEPNEKN@DX@				; `string'
PUBLIC	??_C@_02KAOAGCMF@HT@				; `string'
PUBLIC	??_C@_09DIGJAPIG@ATT_POWER@			; `string'
PUBLIC	??_C@_02NMFFPMLH@IQ@				; `string'
PUBLIC	??_C@_07OPGIINPB@ATT_MAX@			; `string'
PUBLIC	??_C@_07PNODGJJO@ATT_MIN@			; `string'
PUBLIC	??_C@_0O@JAPECJBK@MAX_MAGIC_WEP@		; `string'
PUBLIC	??_C@_0O@CJNCLCGL@MIN_MAGIC_WEP@		; `string'
PUBLIC	??_C@_09FOFLCGDC@ATT_BONUS@			; `string'
PUBLIC	??_C@_09LKMFFHLI@ATT_SPEED@			; `string'
PUBLIC	??_C@_0N@KGGLAJKM@MOVING_SPEED@			; `string'
PUBLIC	??_C@_0L@IPHIKIMB@EVADE_RATE@			; `string'
PUBLIC	??_C@_09DNFHINBC@DEF_BONUS@			; `string'
PUBLIC	??_C@_09KMPFCDFE@DEF_GRADE@			; `string'
PUBLIC	??_C@_07PEONMKMN@MAG_ATT@			; `string'
PUBLIC	??_C@_0O@IOLIEEIE@CASTING_SPEED@		; `string'
PUBLIC	??_C@_0N@JIFCAIPA@EMPIRE_POINT@			; `string'
PUBLIC	??_C@_07KGCDIDGL@MAG_DEF@			; `string'
PUBLIC	??_C@_0O@DGEPJFAK@SKILL_PASSIVE@		; `string'
PUBLIC	??_C@_04KNIOFKKL@STAT@				; `string'
PUBLIC	??_C@_0N@DNBJLBPA@SKILL_ACTIVE@			; `string'
PUBLIC	??_C@_0O@JLNOPGFK@SKILL_SUPPORT@		; `string'
PUBLIC	??_C@_08CKIIBBI@PLAYTIME@			; `string'
PUBLIC	??_C@_0M@HAFIBGFL@SKILL_HORSE@			; `string'
PUBLIC	??_C@_0M@CLAIAEPM@HP_RECOVERY@			; `string'
PUBLIC	??_C@_0N@KHDDEEFG@BOW_DISTANCE@			; `string'
PUBLIC	??_C@_0P@GAAMLPFK@ATTACKER_BONUS@		; `string'
PUBLIC	??_C@_0M@FGICENAO@SP_RECOVERY@			; `string'
PUBLIC	??_C@_0BD@CPEECKKP@POINT_CRITICAL_PCT@		; `string'
PUBLIC	??_C@_07MEMMKJPK@MAX_NUM@			; `string'
PUBLIC	??_C@_0BE@FDGMKOPN@POINT_MALL_ATTBONUS@		; `string'
PUBLIC	??_C@_0BE@BGNEFMNJ@POINT_PENETRATE_PCT@		; `string'
PUBLIC	??_C@_0BE@KNGAMOKN@POINT_MALL_EXPBONUS@		; `string'
PUBLIC	??_C@_0BE@FJKLFHOA@POINT_MALL_DEFBONUS@		; `string'
PUBLIC	??_C@_0BF@LPKHMJJF@POINT_MALL_GOLDBONUS@	; `string'
PUBLIC	??_C@_0BF@FCMHLHC@POINT_MALL_ITEMBONUS@		; `string'
PUBLIC	??_C@_0BB@IHDKAICM@POINT_MAX_SP_PCT@		; `string'
PUBLIC	??_C@_0BB@OCODMABI@POINT_MAX_HP_PCT@		; `string'
PUBLIC	??_C@_0BO@GNDIKOOF@POINT_NORMAL_HIT_DAMAGE_BONUS@ ; `string'
PUBLIC	??_C@_0BJ@PGEFOCDG@POINT_SKILL_DAMAGE_BONUS@	; `string'
PUBLIC	??_C@_0BO@CEPNAEGB@POINT_NORMAL_HIT_DEFEND_BONUS@ ; `string'
PUBLIC	??_C@_0BJ@LPIAEILC@POINT_SKILL_DEFEND_BONUS@	; `string'
PUBLIC	??_C@_0BJ@LFKCHGEO@POINT_PC_BANG_DROP_BONUS@	; `string'
PUBLIC	??_C@_0BI@BAKJJELL@POINT_PC_BANG_EXP_BONUS@	; `string'
PUBLIC	??_C@_0BA@PIHNCBED@ENERGY_END_TIME@		; `string'
PUBLIC	??_C@_06KOEJHMAL@ENERGY@			; `string'
PUBLIC	??_C@_0BD@HIHOAICI@SKILL_GRADE_MASTER@		; `string'
PUBLIC	??_C@_0BD@LAKFNFGD@SKILL_GRADE_NORMAL@		; `string'
PUBLIC	??_C@_0BL@DCIPLDCA@SKILL_GRADE_PERFECT_MASTER@	; `string'
PUBLIC	??_C@_0BJ@CFOEIGCN@SKILL_GRADE_GRAND_MASTER@	; `string'
PUBLIC	??_C@_0BB@HCMEALJK@CATEGORY_PASSIVE@		; `string'
PUBLIC	??_C@_0BA@LCKKFCJM@CATEGORY_ACTIVE@		; `string'
PUBLIC	??_C@_0BF@NFIFHHOM@INVENTORY_PAGE_COUNT@	; `string'
PUBLIC	??_C@_0BE@CEBDMLGH@INVENTORY_PAGE_SIZE@		; `string'
PUBLIC	??_C@_0BF@HJEBPPMM@EQUIPMENT_SLOT_START@	; `string'
PUBLIC	??_C@_0BF@LCFAAJPA@INVENTORY_SLOT_COUNT@	; `string'
PUBLIC	??_C@_0BJ@COKKCHPJ@NEW_EQUIPMENT_SLOT_START@	; `string'
PUBLIC	??_C@_0BF@MADFLPAE@EQUIPMENT_PAGE_COUNT@	; `string'
PUBLIC	??_C@_09NLFDBCDH@MBF_SKILL@			; `string'
PUBLIC	??_C@_0BJ@PAALBJCN@NEW_EQUIPMENT_SLOT_COUNT@	; `string'
PUBLIC	??_C@_0L@JHBFAMB@MBF_CAMERA@			; `string'
PUBLIC	??_C@_0L@MIGMJBKJ@MBF_ATTACK@			; `string'
PUBLIC	??_C@_08BLLANCB@MBF_MOVE@			; `string'
PUBLIC	??_C@_09FAENJFL@MBF_SMART@			; `string'
PUBLIC	??_C@_09JEJKPPEO@MBS_PRESS@			; `string'
PUBLIC	??_C@_08CIEGLDP@MBF_AUTO@			; `string'
PUBLIC	??_C@_09DBJMODBC@MBT_RIGHT@			; `string'
PUBLIC	??_C@_09BKODCCAJ@MBS_CLICK@			; `string'
PUBLIC	??_C@_0P@JBDPGPGM@SLOT_TYPE_NONE@		; `string'
PUBLIC	??_C@_08OMNIMJHC@MBT_LEFT@			; `string'
PUBLIC	??_C@_0BA@MAJHKGKG@SLOT_TYPE_SKILL@		; `string'
PUBLIC	??_C@_0BE@BNOEBHPE@SLOT_TYPE_INVENTORY@		; `string'
PUBLIC	??_C@_0BJ@DBNHPJKE@SLOT_TYPE_EXCHANGE_OWNER@	; `string'
PUBLIC	??_C@_0P@KCOPIIMF@SLOT_TYPE_SHOP@		; `string'
PUBLIC	??_C@_0BF@CPPFMLHN@SLOT_TYPE_QUICK_SLOT@	; `string'
PUBLIC	??_C@_0BK@KJHLAGBH@SLOT_TYPE_EXCHANGE_TARGET@	; `string'
PUBLIC	??_C@_0BH@MJAEADNE@SLOT_TYPE_PRIVATE_SHOP@	; `string'
PUBLIC	??_C@_0BC@HGKFDIFN@SLOT_TYPE_SAFEBOX@		; `string'
PUBLIC	??_C@_0BC@LKMHLHKJ@SLOT_TYPE_EMOTION@		; `string'
PUBLIC	??_C@_0P@OEAGANKI@SLOT_TYPE_MALL@		; `string'
PUBLIC	??_C@_0BA@NKAFFIGF@RESERVED_WINDOW@		; `string'
PUBLIC	??_C@_0CA@FHKIPOOP@SLOT_TYPE_DRAGON_SOUL_INVENTORY@ ; `string'
PUBLIC	??_C@_09GJGOMHMK@EQUIPMENT@			; `string'
PUBLIC	??_C@_09NCAHJFFG@INVENTORY@			; `string'
PUBLIC	??_C@_04JPFKNPOP@MALL@				; `string'
PUBLIC	??_C@_07NCKDBJCB@SAFEBOX@			; `string'
PUBLIC	??_C@_06GKBINIEJ@GROUND@			; `string'
PUBLIC	??_C@_0BG@FHEDCCNN@DRAGON_SOUL_INVENTORY@	; `string'
PUBLIC	??_C@_0BB@IOEKBHAE@SKILL_SLOT_COUNT@		; `string'
PUBLIC	??_C@_0L@HFAEBHHD@ITEM_MONEY@			; `string'
PUBLIC	??_C@_0BH@FCKCIMBH@METIN_SOCKET_TYPE_NONE@	; `string'
PUBLIC	??_C@_0M@CHLINENA@EFFECT_PICK@			; `string'
PUBLIC	??_C@_0BH@EFCNALEJ@METIN_SOCKET_TYPE_GOLD@	; `string'
PUBLIC	??_C@_0BJ@PHGNNMMA@METIN_SOCKET_TYPE_SILVER@	; `string'
PUBLIC	??_C@_0BH@BPEONNLD@ATTRIBUTE_SLOT_MAX_NUM@	; `string'
PUBLIC	??_C@_0BF@HOKBLOCN@METIN_SOCKET_MAX_NUM@	; `string'
PUBLIC	??_C@_09FFJEIDJG@REFINE_OK@			; `string'
PUBLIC	??_C@_0M@FNDEJPGN@REFINE_CANT@			; `string'
PUBLIC	??_C@_0BN@FMBLMMOD@REFINE_NEED_MORE_GOOD_SCROLL@ ; `string'
PUBLIC	??_C@_0CA@CPLGFHBD@REFINE_ALREADY_MAX_SOCKET_COUNT@ ; `string'
PUBLIC	??_C@_0BL@EILCCEPE@REFINE_NOT_NEXT_GRADE_ITEM@	; `string'
PUBLIC	??_C@_0BN@JPDLJDPD@REFINE_CANT_MAKE_SOCKET_ITEM@ ; `string'
PUBLIC	??_C@_0BH@OENPPLJB@REFINE_CANT_REFINE_ROD@	; `string'
PUBLIC	??_C@_0CG@LFLLDFCE@REFINE_CANT_REFINE_METIN_TO_EQU@ ; `string'
PUBLIC	??_C@_0BA@HOJAFGB@ATTACH_METIN_OK@		; `string'
PUBLIC	??_C@_0BC@CBCJMHP@ATTACH_METIN_CANT@		; `string'
PUBLIC	??_C@_0CB@MAILDNNI@ATTACH_METIN_NO_MATCHABLE_SOCKE@ ; `string'
PUBLIC	??_C@_0CA@OFAKGLFM@ATTACH_METIN_NOT_MATCHABLE_ITEM@ ; `string'
PUBLIC	??_C@_0CG@BCIFDNEM@ATTACH_METIN_CANT_ATTACH_TO_EQU@ ; `string'
PUBLIC	??_C@_0CD@JNOPKOFJ@ATTACH_METIN_NOT_EXIST_GOLD_SOC@ ; `string'
PUBLIC	??_C@_0BA@IACJJMNA@DETACH_METIN_OK@		; `string'
PUBLIC	??_C@_0BC@HGBPKPKG@DETACH_METIN_CANT@		; `string'
PUBLIC	??_C@_0BD@ECFFHEOH@PARTY_STATE_LEADER@		; `string'
PUBLIC	??_C@_0BD@PNFBHDHD@PARTY_STATE_NORMAL@		; `string'
PUBLIC	??_C@_0BD@FHMGGDNP@PARTY_STATE_TANKER@		; `string'
PUBLIC	??_C@_0BF@DOKPPLCL@PARTY_STATE_ATTACKER@	; `string'
PUBLIC	??_C@_0BJ@EIPCPJKC@PARTY_STATE_SKILL_MASTER@	; `string'
PUBLIC	??_C@_0BD@JJFBJLK@PARTY_STATE_BUFFER@		; `string'
PUBLIC	??_C@_0BF@PAKJEMH@PARTY_STATE_DEFENDER@		; `string'
PUBLIC	??_C@_0BG@LCNEBE@PARTY_STATE_BERSERKER@		; `string'
PUBLIC	??_C@_0BE@MNBFKLPI@SKILL_INDEX_TONGSOL@		; `string'
PUBLIC	??_C@_0BE@KCLJFDCO@PARTY_STATE_MAX_NUM@		; `string'
PUBLIC	??_C@_0BD@KFCAJBFG@SKILL_INDEX_MINING@		; `string'
PUBLIC	??_C@_0BE@HANBCKAH@SKILL_INDEX_FISHING@		; `string'
PUBLIC	??_C@_0BC@HACNAMIK@SKILL_INDEX_COMBO@		; `string'
PUBLIC	??_C@_0BD@IBJDJMEL@SKILL_INDEX_MAKING@		; `string'
PUBLIC	??_C@_0BG@EEJDAHGJ@SKILL_INDEX_LANGUAGE2@	; `string'
PUBLIC	??_C@_0BG@GPLOFEKK@SKILL_INDEX_LANGUAGE1@	; `string'
PUBLIC	??_C@_0BG@DMEIDEKO@SKILL_INDEX_POLYMORPH@	; `string'
PUBLIC	??_C@_0BG@FNIIDGCI@SKILL_INDEX_LANGUAGE3@	; `string'
PUBLIC	??_C@_0BD@POBHIINM@SKILL_INDEX_SUMMON@		; `string'
PUBLIC	??_C@_0BD@HOAGGFNA@SKILL_INDEX_RIDING@		; `string'
PUBLIC	??_C@_0BA@HNNGLCOB@PK_MODE_REVENGE@		; `string'
PUBLIC	??_C@_0O@BIPAMBIG@PK_MODE_PEACE@		; `string'
PUBLIC	??_C@_0BA@GHACPGHA@PK_MODE_PROTECT@		; `string'
PUBLIC	??_C@_0N@DCANEGJG@PK_MODE_FREE@			; `string'
PUBLIC	??_C@_0BA@OLCDKGDA@PK_MODE_MAX_NUM@		; `string'
PUBLIC	??_C@_0O@LBDADKLE@PK_MODE_GUILD@		; `string'
PUBLIC	??_C@_0M@KFDBGBIL@BLOCK_PARTY@			; `string'
PUBLIC	??_C@_0P@CDMGAFPE@BLOCK_EXCHANGE@		; `string'
PUBLIC	??_C@_0O@CFHKOIIK@BLOCK_WHISPER@		; `string'
PUBLIC	??_C@_0M@EEMDCMKA@BLOCK_GUILD@			; `string'
PUBLIC	??_C@_0BE@NDGMABKO@BLOCK_PARTY_REQUEST@		; `string'
PUBLIC	??_C@_0N@IJGKBLJF@BLOCK_FRIEND@			; `string'
PUBLIC	??_C@_0BO@CBJBDFJC@PARTY_EXP_DISTRIBUTION_PARITY@ ; `string'
PUBLIC	??_C@_0BL@OELLICOI@PARTY_EXP_NON_DISTRIBUTION@	; `string'
PUBLIC	??_C@_0BB@MCMBOGFC@EMOTION_CHEERS_1@		; `string'
PUBLIC	??_C@_0N@GFLIEIGE@EMOTION_CLAP@			; `string'
PUBLIC	??_C@_0BA@CLHGMEE@EMOTION_DANCE_1@		; `string'
PUBLIC	??_C@_0BB@OJOMLFJB@EMOTION_CHEERS_2@		; `string'
PUBLIC	??_C@_0BA@DAIBAOMG@EMOTION_DANCE_3@		; `string'
PUBLIC	??_C@_0BA@CJJKDPIH@EMOTION_DANCE_2@		; `string'
PUBLIC	??_C@_0BA@GGNLKJEA@EMOTION_DANCE_5@		; `string'
PUBLIC	??_C@_0BA@HPMAJIAB@EMOTION_DANCE_4@		; `string'
PUBLIC	??_C@_0BH@FIIEKKHF@EMOTION_CONGRATULATION@	; `string'
PUBLIC	??_C@_0BA@ENPGPKID@EMOTION_DANCE_6@		; `string'
PUBLIC	??_C@_0O@DACEICMN@EMOTION_ANGRY@		; `string'
PUBLIC	??_C@_0BA@JPGNEMIB@EMOTION_FORGIVE@		; `string'
PUBLIC	??_C@_0M@EGEMMDCF@EMOTION_SAD@			; `string'
PUBLIC	??_C@_0BD@FLNIBF@EMOTION_ATTRACTIVE@		; `string'
PUBLIC	??_C@_0BA@MENCJFPL@EMOTION_CHEERUP@		; `string'
PUBLIC	??_C@_0M@LGPBJELG@EMOTION_SHY@			; `string'
PUBLIC	??_C@_0M@JOKPJKCG@EMOTION_JOY@			; `string'
PUBLIC	??_C@_0P@JAJBGKKI@EMOTION_BANTER@		; `string'
PUBLIC	??_C@_0BE@KCAKKBPE@EMOTION_FRENCH_KISS@		; `string'
PUBLIC	??_C@_0N@FGJJNHEK@EMOTION_KISS@			; `string'
PUBLIC	??_C@_0BE@LLABJENL@AUTO_POTION_TYPE_HP@		; `string'
PUBLIC	??_C@_0N@FFINPOG@EMOTION_SLAP@			; `string'
PUBLIC	??_C@_0BG@FEPFCIIM@DRAGON_SOUL_PAGE_SIZE@	; `string'
PUBLIC	??_C@_0BE@KLHCNIEK@AUTO_POTION_TYPE_SP@		; `string'
PUBLIC	??_C@_0BH@IFPINEOD@DRAGON_SOUL_SLOT_COUNT@	; `string'
PUBLIC	??_C@_0BH@OCCNKKPP@DRAGON_SOUL_PAGE_COUNT@	; `string'
PUBLIC	??_C@_0CB@GAHKEECK@DRAGON_SOUL_EQUIPMENT_PAGE_COUN@ ; `string'
PUBLIC	??_C@_0CB@NJAOAEOC@DRAGON_SOUL_EQUIPMENT_SLOT_STAR@ ; `string'
PUBLIC	??_C@_0BJ@MMGGGOHJ@DRAGON_SOUL_REFINE_CLOSE@	; `string'
PUBLIC	??_C@_0CB@OIFHBJMG@DRAGON_SOUL_EQUIPMENT_FIRST_SIZ@ ; `string'
PUBLIC	??_C@_0BN@PCPINHKH@DS_SUB_HEADER_DO_IMPROVEMENT@ ; `string'
PUBLIC	??_C@_0BJ@JKFAJIJN@DS_SUB_HEADER_DO_UPGRADE@	; `string'
PUBLIC	??_C@_0BI@NHBOLMGK@DS_SUB_HEADER_DO_REFINE@	; `string'
PUBLIC	?availableRuleByGrade@?1??GetAvailableRuleTableByGrade@CBeltInventoryHelper@@SAPBEXZ@4PAEA ; `CBeltInventoryHelper::GetAvailableRuleTableByGrade'::`2'::availableRuleByGrade
PUBLIC	?c_iSkillIndex_Riding@@3KB			; c_iSkillIndex_Riding
PUBLIC	?c_iSkillIndex_Summon@@3KB			; c_iSkillIndex_Summon
PUBLIC	?c_iSkillIndex_Combo@@3KB			; c_iSkillIndex_Combo
PUBLIC	?c_iSkillIndex_Fishing@@3KB			; c_iSkillIndex_Fishing
EXTRN	__imp__PyDict_Size:PROC
EXTRN	__imp__PyDict_Next:PROC
EXTRN	?PyTuple_GetLong@@YA_NPAU_object@@HPAJ@Z:PROC	; PyTuple_GetLong
EXTRN	?GetWearFlags@CItemData@@QBEKXZ:PROC		; CItemData::GetWearFlags
EXTRN	?HasNextGrade@CItemData@@QBEHXZ:PROC		; CItemData::HasNextGrade
EXTRN	?Hide@CGraphicObjectInstance@@QAEXXZ:PROC	; CGraphicObjectInstance::Hide
;	COMDAT ?availableRuleByGrade@?1??GetAvailableRuleTableByGrade@CBeltInventoryHelper@@SAPBEXZ@4PAEA
_DATA	SEGMENT
?availableRuleByGrade@?1??GetAvailableRuleTableByGrade@CBeltInventoryHelper@@SAPBEXZ@4PAEA DB 01H ; `CBeltInventoryHelper::GetAvailableRuleTableByGrade'::`2'::availableRuleByGrade
	DB	02H
	DB	04H
	DB	06H
	DB	03H
	DB	03H
	DB	04H
	DB	06H
	DB	05H
	DB	05H
	DB	05H
	DB	06H
	DB	07H
	DB	07H
	DB	07H
	DB	07H
_DATA	ENDS
;	COMDAT ?s_methods@?1??initPlayer@@YAXXZ@4PAUPyMethodDef@@A
_DATA	SEGMENT
?s_methods@?1??initPlayer@@YAXXZ@4PAUPyMethodDef@@A DD FLAT:??_C@_0BC@CHIABFDI@GetAutoPotionInfo@ ; `initPlayer'::`2'::s_methods
	DD	FLAT:?playerGetAutoPotionInfo@@YAPAU_object@@PAU1@0@Z
	DD	01H
	ORG $+4
	DD	FLAT:??_C@_0BC@CILJOCG@SetAutoPotionInfo@
	DD	FLAT:?playerSetAutoPotionInfo@@YAPAU_object@@PAU1@0@Z
	DD	01H
	ORG $+4
	DD	FLAT:??_C@_0O@MAEJALBO@PickCloseItem@
	DD	FLAT:?playerPickCloseItem@@YAPAU_object@@PAU1@0@Z
	DD	01H
	ORG $+4
	DD	FLAT:??_C@_0O@MNPFFDEJ@SetGameWindow@
	DD	FLAT:?playerSetGameWindow@@YAPAU_object@@PAU1@0@Z
	DD	01H
	ORG $+4
	DD	FLAT:??_C@_0P@HDADHLLI@RegisterEffect@
	DD	FLAT:?playerRegisterEffect@@YAPAU_object@@PAU1@0@Z
	DD	01H
	ORG $+4
	DD	FLAT:??_C@_0BE@EGCDGLCF@RegisterCacheEffect@
	DD	FLAT:?playerRegisterCacheEffect@@YAPAU_object@@PAU1@0@Z
	DD	01H
	ORG $+4
	DD	FLAT:??_C@_0O@HDELDAFI@SetMouseState@
	DD	FLAT:?playerSetMouseState@@YAPAU_object@@PAU1@0@Z
	DD	01H
	ORG $+4
	DD	FLAT:??_C@_0N@LEJNPCGM@SetMouseFunc@
	DD	FLAT:?playerSetMouseFunc@@YAPAU_object@@PAU1@0@Z
	DD	01H
	ORG $+4
	DD	FLAT:??_C@_0N@MACDDOCA@GetMouseFunc@
	DD	FLAT:?playerGetMouseFunc@@YAPAU_object@@PAU1@0@Z
	DD	01H
	ORG $+4
	DD	FLAT:??_C@_0BK@JBJLNCBH@SetMouseMiddleButtonState@
	DD	FLAT:?playerSetMouseMiddleButtonState@@YAPAU_object@@PAU1@0@Z
	DD	01H
	ORG $+4
	DD	FLAT:??_C@_0BG@JCNMOACA@SetMainCharacterIndex@
	DD	FLAT:?playerSetMainCharacterIndex@@YAPAU_object@@PAU1@0@Z
	DD	01H
	ORG $+4
	DD	FLAT:??_C@_0BG@GHIKDJGB@GetMainCharacterIndex@
	DD	FLAT:?playerGetMainCharacterIndex@@YAPAU_object@@PAU1@0@Z
	DD	01H
	ORG $+4
	DD	FLAT:??_C@_0BF@OMDPKDFM@GetMainCharacterName@
	DD	FLAT:?playerGetMainCharacterName@@YAPAU_object@@PAU1@0@Z
	DD	01H
	ORG $+4
	DD	FLAT:??_C@_0BJ@GIKFEPMH@GetMainCharacterPosition@
	DD	FLAT:?playerGetMainCharacterPosition@@YAPAU_object@@PAU1@0@Z
	DD	01H
	ORG $+4
	DD	FLAT:??_C@_0BF@GALHNOAL@IsMainCharacterIndex@
	DD	FLAT:?playerIsMainCharacterIndex@@YAPAU_object@@PAU1@0@Z
	DD	01H
	ORG $+4
	DD	FLAT:??_C@_0BC@FLPEGJDD@CanAttackInstance@
	DD	FLAT:?playerCanAttackInstance@@YAPAU_object@@PAU1@0@Z
	DD	01H
	ORG $+4
	DD	FLAT:??_C@_0BA@ODCBPOEF@IsActingEmotion@
	DD	FLAT:?playerIsActingEmotion@@YAPAU_object@@PAU1@0@Z
	DD	01H
	ORG $+4
	DD	FLAT:??_C@_0O@ECCODAC@IsPVPInstance@
	DD	FLAT:?playerIsPVPInstance@@YAPAU_object@@PAU1@0@Z
	DD	01H
	ORG $+4
	DD	FLAT:??_C@_0N@CBEDFALN@IsSameEmpire@
	DD	FLAT:?playerIsSameEmpire@@YAPAU_object@@PAU1@0@Z
	DD	01H
	ORG $+4
	DD	FLAT:??_C@_0BE@FOIPHJLO@IsChallengeInstance@
	DD	FLAT:?playerIsChallengeInstance@@YAPAU_object@@PAU1@0@Z
	DD	01H
	ORG $+4
	DD	FLAT:??_C@_0BC@IKOEAPGC@IsRevengeInstance@
	DD	FLAT:?playerIsRevengeInstance@@YAPAU_object@@PAU1@0@Z
	DD	01H
	ORG $+4
	DD	FLAT:??_C@_0BE@HJOMPGKI@IsCantFightInstance@
	DD	FLAT:?playerIsCantFightInstance@@YAPAU_object@@PAU1@0@Z
	DD	01H
	ORG $+4
	DD	FLAT:??_C@_0BF@DABJOKIF@GetCharacterDistance@
	DD	FLAT:?playerGetCharacterDistance@@YAPAU_object@@PAU1@0@Z
	DD	01H
	ORG $+4
	DD	FLAT:??_C@_0N@IKPCBCPA@IsInSafeArea@
	DD	FLAT:?playerIsInSafeArea@@YAPAU_object@@PAU1@0@Z
	DD	01H
	ORG $+4
	DD	FLAT:??_C@_0BA@GFJLKENO@IsMountingHorse@
	DD	FLAT:?playerIsMountingHorse@@YAPAU_object@@PAU1@0@Z
	DD	01H
	ORG $+4
	DD	FLAT:??_C@_0P@LDENHACE@IsObserverMode@
	DD	FLAT:?playerIsObserverMode@@YAPAU_object@@PAU1@0@Z
	DD	01H
	ORG $+4
	DD	FLAT:??_C@_0L@JEBGMNAH@ActEmotion@
	DD	FLAT:?playerActEmotion@@YAPAU_object@@PAU1@0@Z
	DD	01H
	ORG $+4
	DD	FLAT:??_C@_0L@CPMIOCIM@ShowPlayer@
	DD	FLAT:?playerShowPlayer@@YAPAU_object@@PAU1@0@Z
	DD	01H
	ORG $+4
	DD	FLAT:??_C@_0L@PBBGGCLG@HidePlayer@
	DD	FLAT:?playerHidePlayer@@YAPAU_object@@PAU1@0@Z
	DD	01H
	ORG $+4
	DD	FLAT:??_C@_0M@GOCDIKPN@ComboAttack@
	DD	FLAT:?playerComboAttack@@YAPAU_object@@PAU1@0@Z
	DD	01H
	ORG $+4
	DD	FLAT:??_C@_0BL@IEKDAKHC@SetAutoCameraRotationSpeed@
	DD	FLAT:?playerSetAutoCameraRotationSpeed@@YAPAU_object@@PAU1@0@Z
	DD	01H
	ORG $+4
	DD	FLAT:??_C@_0BC@DAIEHFBH@SetAttackKeyState@
	DD	FLAT:?playerSetAttackKeyState@@YAPAU_object@@PAU1@0@Z
	DD	01H
	ORG $+4
	DD	FLAT:??_C@_0BF@PNJNANBI@SetSingleDIKKeyState@
	DD	FLAT:?playerSetSingleDIKKeyState@@YAPAU_object@@PAU1@0@Z
	DD	01H
	ORG $+4
	DD	FLAT:??_C@_0BJ@HGLJKHIH@EndKeyWalkingImmediately@
	DD	FLAT:?playerEndKeyWalkingImmediately@@YAPAU_object@@PAU1@0@Z
	DD	01H
	ORG $+4
	DD	FLAT:??_C@_0BC@NCHFPCDM@StartMouseWalking@
	DD	FLAT:?playerStartMouseWalking@@YAPAU_object@@PAU1@0@Z
	DD	01H
	ORG $+4
	DD	FLAT:??_C@_0BA@JEOKFDLP@EndMouseWalking@
	DD	FLAT:?playerEndMouseWalking@@YAPAU_object@@PAU1@0@Z
	DD	01H
	ORG $+4
	DD	FLAT:??_C@_0BE@MCFGJOPA@ResetCameraRotation@
	DD	FLAT:?playerResetCameraRotation@@YAPAU_object@@PAU1@0@Z
	DD	01H
	ORG $+4
	DD	FLAT:??_C@_0BD@DPHLFGPP@SetQuickCameraMode@
	DD	FLAT:?playerSetQuickCameraMode@@YAPAU_object@@PAU1@0@Z
	DD	01H
	ORG $+4
	DD	FLAT:??_C@_08HIFGFOGG@SetSkill@
	DD	FLAT:?playerSetSkill@@YAPAU_object@@PAU1@0@Z
	DD	01H
	ORG $+4
	DD	FLAT:??_C@_0O@NOICOABO@GetSkillIndex@
	DD	FLAT:?playerGetSkillIndex@@YAPAU_object@@PAU1@0@Z
	DD	01H
	ORG $+4
	DD	FLAT:??_C@_0BC@HNJMANI@GetSkillSlotIndex@
	DD	FLAT:?playerGetSkillSlotIndex@@YAPAU_object@@PAU1@0@Z
	DD	01H
	ORG $+4
	DD	FLAT:??_C@_0O@IIOIANPE@GetSkillGrade@
	DD	FLAT:?playerGetSkillGrade@@YAPAU_object@@PAU1@0@Z
	DD	01H
	ORG $+4
	DD	FLAT:??_C@_0O@CNCBAIPN@GetSkillLevel@
	DD	FLAT:?playerGetSkillLevel@@YAPAU_object@@PAU1@0@Z
	DD	01H
	ORG $+4
	DD	FLAT:??_C@_0CD@EFGGIKHI@GetSkillCurrentEfficientPercent@
	DD	FLAT:?playerGetSkillCurrentEfficientPercentage@@YAPAU_object@@PAU1@0@Z
	DD	01H
	ORG $+4
	DD	FLAT:??_C@_0CA@JHGONPGM@GetSkillNextEfficientPercentage@
	DD	FLAT:?playerGetSkillNextEfficientPercentage@@YAPAU_object@@PAU1@0@Z
	DD	01H
	ORG $+4
	DD	FLAT:??_C@_0P@IGNHDBHH@ClickSkillSlot@
	DD	FLAT:?playerClickSkillSlot@@YAPAU_object@@PAU1@0@Z
	DD	01H
	ORG $+4
	DD	FLAT:??_C@_0BN@BPJDEKED@ChangeCurrentSkillNumberOnly@
	DD	FLAT:?playerChangeCurrentSkillNumberOnly@@YAPAU_object@@PAU1@0@Z
	DD	01H
	ORG $+4
	DD	FLAT:??_C@_0P@MJOJKOJJ@ClearSkillDict@
	DD	FLAT:?playerClearSkillDict@@YAPAU_object@@PAU1@0@Z
	DD	01H
	ORG $+4
	DD	FLAT:??_C@_0N@GABOCBEH@GetItemIndex@
	DD	FLAT:?playerGetItemIndex@@YAPAU_object@@PAU1@0@Z
	DD	01H
	ORG $+4
	DD	FLAT:??_C@_0N@DMCGDNGF@GetItemFlags@
	DD	FLAT:?playerGetItemFlags@@YAPAU_object@@PAU1@0@Z
	DD	01H
	ORG $+4
	DD	FLAT:??_C@_0N@LEKALLIG@GetItemCount@
	DD	FLAT:?playerGetItemCount@@YAPAU_object@@PAU1@0@Z
	DD	01H
	ORG $+4
	DD	FLAT:??_C@_0BD@DBLILMFK@GetItemCountByVnum@
	DD	FLAT:?playerGetItemCountByVnum@@YAPAU_object@@PAU1@0@Z
	DD	01H
	ORG $+4
	DD	FLAT:??_C@_0BD@JBOBKHIE@GetItemMetinSocket@
	DD	FLAT:?playerGetItemMetinSocket@@YAPAU_object@@PAU1@0@Z
	DD	01H
	ORG $+4
	DD	FLAT:??_C@_0BB@GOKPPDHH@GetItemAttribute@
	DD	FLAT:?playerGetItemAttribute@@YAPAU_object@@PAU1@0@Z
	DD	01H
	ORG $+4
	DD	FLAT:??_C@_0BC@OKNBBEMG@GetISellItemPrice@
	DD	FLAT:?playerGetISellItemPrice@@YAPAU_object@@PAU1@0@Z
	DD	01H
	ORG $+4
	DD	FLAT:??_C@_08MHJANHDM@MoveItem@
	DD	FLAT:?playerMoveItem@@YAPAU_object@@PAU1@0@Z
	DD	01H
	ORG $+4
	DD	FLAT:??_C@_0BE@DBIFLBAC@SendClickItemPacket@
	DD	FLAT:?playerSendClickItemPacket@@YAPAU_object@@PAU1@0@Z
	DD	01H
	ORG $+4
	DD	FLAT:??_C@_07MMGEHGCI@GetName@
	DD	FLAT:?playerGetName@@YAPAU_object@@PAU1@0@Z
	DD	01H
	ORG $+4
	DD	FLAT:??_C@_06FHLNIOPB@GetJob@
	DD	FLAT:?playerGetJob@@YAPAU_object@@PAU1@0@Z
	DD	01H
	ORG $+4
	DD	FLAT:??_C@_07GDOKCBKB@GetRace@
	DD	FLAT:?playerGetRace@@YAPAU_object@@PAU1@0@Z
	DD	01H
	ORG $+4
	DD	FLAT:??_C@_0M@DJDCIBLO@GetPlayTime@
	DD	FLAT:?playerGetPlayTime@@YAPAU_object@@PAU1@0@Z
	DD	01H
	ORG $+4
	DD	FLAT:??_C@_0M@DGCMFHDN@SetPlayTime@
	DD	FLAT:?playerSetPlayTime@@YAPAU_object@@PAU1@0@Z
	DD	01H
	ORG $+4
	DD	FLAT:??_C@_0BA@FOPKKJJD@IsSkillCoolTime@
	DD	FLAT:?playerIsSkillCoolTime@@YAPAU_object@@PAU1@0@Z
	DD	01H
	ORG $+4
	DD	FLAT:??_C@_0BB@CNGGKNGL@GetSkillCoolTime@
	DD	FLAT:?playerGetSkillCoolTime@@YAPAU_object@@PAU1@0@Z
	DD	01H
	ORG $+4
	DD	FLAT:??_C@_0O@IAPCJJAC@IsSkillActive@
	DD	FLAT:?playerIsSkillActive@@YAPAU_object@@PAU1@0@Z
	DD	01H
	ORG $+4
	DD	FLAT:??_C@_0O@HHBOBCLE@UseGuildSkill@
	DD	FLAT:?playerUseGuildSkill@@YAPAU_object@@PAU1@0@Z
	DD	01H
	ORG $+4
	DD	FLAT:??_C@_0BI@JIGEMOFF@AffectIndexToSkillIndex@
	DD	FLAT:?playerAffectIndexToSkillIndex@@YAPAU_object@@PAU1@0@Z
	DD	01H
	ORG $+4
	DD	FLAT:??_C@_06MDIKDJMD@GetEXP@
	DD	FLAT:?playerGetEXP@@YAPAU_object@@PAU1@0@Z
	DD	01H
	ORG $+4
	DD	FLAT:??_C@_09MKFEIFJE@GetStatus@
	DD	FLAT:?playerGetStatus@@YAPAU_object@@PAU1@0@Z
	DD	01H
	ORG $+4
	DD	FLAT:??_C@_09OEBBKEAG@SetStatus@
	DD	FLAT:?playerSetStatus@@YAPAU_object@@PAU1@0@Z
	DD	01H
	ORG $+4
	DD	FLAT:??_C@_06NMFKJLLH@GetElk@
	DD	FLAT:?playerGetElk@@YAPAU_object@@PAU1@0@Z
	DD	01H
	ORG $+4
	DD	FLAT:??_C@_08OAJFGNBC@GetMoney@
	DD	FLAT:?playerGetElk@@YAPAU_object@@PAU1@0@Z
	DD	01H
	ORG $+4
	DD	FLAT:??_C@_0L@EAKBLDCO@GetGuildID@
	DD	FLAT:?playerGetGuildID@@YAPAU_object@@PAU1@0@Z
	DD	01H
	ORG $+4
	DD	FLAT:??_C@_0N@CECGOPDG@GetGuildName@
	DD	FLAT:?playerGetGuildName@@YAPAU_object@@PAU1@0@Z
	DD	01H
	ORG $+4
	DD	FLAT:??_C@_0BB@LANDCIKG@GetAlignmentData@
	DD	FLAT:?playerGetAlignmentData@@YAPAU_object@@PAU1@0@Z
	DD	01H
	ORG $+4
	DD	FLAT:??_C@_0BJ@DNLGAMEO@RequestAddLocalQuickSlot@
	DD	FLAT:?playerRequestAddLocalQuickSlot@@YAPAU_object@@PAU1@0@Z
	DD	01H
	ORG $+4
	DD	FLAT:??_C@_0CA@JMFCJJPL@RequestAddToEmptyLocalQuickSlot@
	DD	FLAT:?playerRequestAddToEmptyLocalQuickSlot@@YAPAU_object@@PAU1@0@Z
	DD	01H
	ORG $+4
	DD	FLAT:??_C@_0BN@NACLJDMA@RequestDeleteGlobalQuickSlot@
	DD	FLAT:?playerRequestDeleteGlobalQuickSlot@@YAPAU_object@@PAU1@0@Z
	DD	01H
	ORG $+4
	DD	FLAT:??_C@_0CL@IEMBKGLN@RequestMoveGlobalQuickSlotToLoc@
	DD	FLAT:?playerRequestMoveGlobalQuickSlotToLocalQuickSlot@@YAPAU_object@@PAU1@0@Z
	DD	01H
	ORG $+4
	DD	FLAT:??_C@_0BJ@IBBGPDPH@RequestUseLocalQuickSlot@
	DD	FLAT:?playerRequestUseLocalQuickSlot@@YAPAU_object@@PAU1@0@Z
	DD	01H
	ORG $+4
	DD	FLAT:??_C@_0CK@GNGKFIDB@LocalQuickSlotIndexToGlobalQuic@
	DD	FLAT:?playerLocalQuickSlotIndexToGlobalQuickSlotIndex@@YAPAU_object@@PAU1@0@Z
	DD	01H
	ORG $+4
	DD	FLAT:??_C@_0N@NLMPHAJA@GetQuickPage@
	DD	FLAT:?playerGetQuickPage@@YAPAU_object@@PAU1@0@Z
	DD	01H
	ORG $+4
	DD	FLAT:??_C@_0N@KPHBLMNM@SetQuickPage@
	DD	FLAT:?playerSetQuickPage@@YAPAU_object@@PAU1@0@Z
	DD	01H
	ORG $+4
	DD	FLAT:??_C@_0BC@LNKMMBDG@GetLocalQuickSlot@
	DD	FLAT:?playerGetLocalQuickSlot@@YAPAU_object@@PAU1@0@Z
	DD	01H
	ORG $+4
	DD	FLAT:??_C@_0BD@ECGPDHPA@GetGlobalQuickSlot@
	DD	FLAT:?playerGetGlobalQuickSlot@@YAPAU_object@@PAU1@0@Z
	DD	01H
	ORG $+4
	DD	FLAT:??_C@_0BH@JNCIKJMC@RemoveQuickSlotByValue@
	DD	FLAT:?playerRemoveQuickSlotByValue@@YAPAU_object@@PAU1@0@Z
	DD	01H
	ORG $+4
	DD	FLAT:??_C@_06NOPKEHAK@isItem@
	DD	FLAT:?playerisItem@@YAPAU_object@@PAU1@0@Z
	DD	01H
	ORG $+4
	DD	FLAT:??_C@_0BA@EMKHGGAL@IsEquipmentSlot@
	DD	FLAT:?playerIsEquipmentSlot@@YAPAU_object@@PAU1@0@Z
	DD	01H
	ORG $+4
	DD	FLAT:??_C@_0BC@DDCIGDKO@IsDSEquipmentSlot@
	DD	FLAT:?playerIsDSEquipmentSlot@@YAPAU_object@@PAU1@0@Z
	DD	01H
	ORG $+4
	DD	FLAT:??_C@_0O@KCAGNEAI@IsCostumeSlot@
	DD	FLAT:?playerIsCostumeSlot@@YAPAU_object@@PAU1@0@Z
	DD	01H
	ORG $+4
	DD	FLAT:??_C@_0P@LAJFBPPH@IsValuableItem@
	DD	FLAT:?playerIsValuableItem@@YAPAU_object@@PAU1@0@Z
	DD	01H
	ORG $+4
	DD	FLAT:??_C@_0BC@DCFDMADN@IsOpenPrivateShop@
	DD	FLAT:?playerIsOpenPrivateShop@@YAPAU_object@@PAU1@0@Z
	DD	01H
	ORG $+4
	DD	FLAT:??_C@_0BE@HECMLJG@IsBeltInventorySlot@
	DD	FLAT:?playerIsBeltInventorySlot@@YAPAU_object@@PAU1@0@Z
	DD	01H
	ORG $+4
	DD	FLAT:??_C@_0BA@OBALOJLG@IsEquippingBelt@
	DD	FLAT:?playerIsEquippingBelt@@YAPAU_object@@PAU1@0@Z
	DD	01H
	ORG $+4
	DD	FLAT:??_C@_0BN@DKGNHJIB@IsAvailableBeltInventoryCell@
	DD	FLAT:?playerIsAvailableBeltInventoryCell@@YAPAU_object@@PAU1@0@Z
	DD	01H
	ORG $+4
	DD	FLAT:??_C@_0N@DGHEMMKN@GetItemGrade@
	DD	FLAT:?playerGetItemGrade@@YAPAU_object@@PAU1@0@Z
	DD	01H
	ORG $+4
	DD	FLAT:??_C@_09BGNCJJP@CanRefine@
	DD	FLAT:?playerCanRefine@@YAPAU_object@@PAU1@0@Z
	DD	01H
	ORG $+4
	DD	FLAT:??_C@_09GHIBIBHI@CanDetach@
	DD	FLAT:?playerCanDetach@@YAPAU_object@@PAU1@0@Z
	DD	01H
	ORG $+4
	DD	FLAT:??_C@_09FHINBOHC@CanUnlock@
	DD	FLAT:?playerCanUnlock@@YAPAU_object@@PAU1@0@Z
	DD	01H
	ORG $+4
	DD	FLAT:??_C@_0P@BLOGPKFO@CanAttachMetin@
	DD	FLAT:?playerCanAttachMetin@@YAPAU_object@@PAU1@0@Z
	DD	01H
	ORG $+4
	DD	FLAT:??_C@_0BE@ELNKJPMC@IsRefineGradeScroll@
	DD	FLAT:?playerIsRefineGradeScroll@@YAPAU_object@@PAU1@0@Z
	DD	01H
	ORG $+4
	DD	FLAT:??_C@_0M@DPCEEMCG@ClearTarget@
	DD	FLAT:?playerClearTarget@@YAPAU_object@@PAU1@0@Z
	DD	01H
	ORG $+4
	DD	FLAT:??_C@_09EECGCJDE@SetTarget@
	DD	FLAT:?playerSetTarget@@YAPAU_object@@PAU1@0@Z
	DD	01H
	ORG $+4
	DD	FLAT:??_C@_0BC@HAEJEFBP@OpenCharacterMenu@
	DD	FLAT:?playerOpenCharacterMenu@@YAPAU_object@@PAU1@0@Z
	DD	01H
	ORG $+4
	DD	FLAT:??_C@_06LMAGPFNF@Update@
	DD	FLAT:?playerUpdate@@YAPAU_object@@PAU1@0@Z
	DD	01H
	ORG $+4
	DD	FLAT:??_C@_06EPLDPNDB@Render@
	DD	FLAT:?playerRender@@YAPAU_object@@PAU1@0@Z
	DD	01H
	ORG $+4
	DD	FLAT:??_C@_05MDNHABIA@Clear@
	DD	FLAT:?playerClear@@YAPAU_object@@PAU1@0@Z
	DD	01H
	ORG $+4
	DD	FLAT:??_C@_0O@FJCFNEGL@IsPartyMember@
	DD	FLAT:?playerIsPartyMember@@YAPAU_object@@PAU1@0@Z
	DD	01H
	ORG $+4
	DD	FLAT:??_C@_0O@BPMJGNAC@IsPartyLeader@
	DD	FLAT:?playerIsPartyLeader@@YAPAU_object@@PAU1@0@Z
	DD	01H
	ORG $+4
	DD	FLAT:??_C@_0BD@HGKJMFNK@IsPartyLeaderByPID@
	DD	FLAT:?playerIsPartyLeaderByPID@@YAPAU_object@@PAU1@0@Z
	DD	01H
	ORG $+4
	DD	FLAT:??_C@_0BL@EPAFEFHI@GetPartyMemberHPPercentage@
	DD	FLAT:?playerGetPartyMemberHPPercentage@@YAPAU_object@@PAU1@0@Z
	DD	01H
	ORG $+4
	DD	FLAT:??_C@_0BE@HKIJMBKK@GetPartyMemberState@
	DD	FLAT:?playerGetPartyMemberState@@YAPAU_object@@PAU1@0@Z
	DD	01H
	ORG $+4
	DD	FLAT:??_C@_0BG@EEFAFMJC@GetPartyMemberAffects@
	DD	FLAT:?playerGetPartyMemberAffects@@YAPAU_object@@PAU1@0@Z
	DD	01H
	ORG $+4
	DD	FLAT:??_C@_0BC@DGCJFOHN@RemovePartyMember@
	DD	FLAT:?playerRemovePartyMember@@YAPAU_object@@PAU1@0@Z
	DD	01H
	ORG $+4
	DD	FLAT:??_C@_09DMPBEJCG@ExitParty@
	DD	FLAT:?playerExitParty@@YAPAU_object@@PAU1@0@Z
	DD	01H
	ORG $+4
	DD	FLAT:??_C@_09IMMFEEHK@GetPKMode@
	DD	FLAT:?playerGetPKMode@@YAPAU_object@@PAU1@0@Z
	DD	01H
	ORG $+4
	DD	FLAT:??_C@_0BF@CLGCEOLO@HasMobilePhoneNumber@
	DD	FLAT:?playerHasMobilePhoneNumber@@YAPAU_object@@PAU1@0@Z
	DD	01H
	ORG $+4
	DD	FLAT:??_C@_0BE@PMDABIKP@RegisterEmotionIcon@
	DD	FLAT:?playerRegisterEmotionIcon@@YAPAU_object@@PAU1@0@Z
	DD	01H
	ORG $+4
	DD	FLAT:??_C@_0BE@FELKHKJF@GetEmotionIconImage@
	DD	FLAT:?playerGetEmotionIconImage@@YAPAU_object@@PAU1@0@Z
	DD	01H
	ORG $+4
	DD	FLAT:??_C@_0BJ@CFCMHNHB@SetWeaponAttackBonusFlag@
	DD	FLAT:?playerSetWeaponAttackBonusFlag@@YAPAU_object@@PAU1@0@Z
	DD	01H
	ORG $+4
	DD	FLAT:??_C@_0P@ILOOLMDH@ToggleCoolTime@
	DD	FLAT:?playerToggleCoolTime@@YAPAU_object@@PAU1@0@Z
	DD	01H
	ORG $+4
	DD	FLAT:??_C@_0BB@DJKKOCLB@ToggleLevelLimit@
	DD	FLAT:?playerToggleLevelLimit@@YAPAU_object@@PAU1@0@Z
	DD	01H
	ORG $+4
	DD	FLAT:??_C@_0N@MEKPPHGC@GetTargetVID@
	DD	FLAT:?playerGetTargetVID@@YAPAU_object@@PAU1@0@Z
	DD	01H
	ORG $+4
	DD	FLAT:??_C@_0M@CHNGAPIB@SetItemData@
	DD	FLAT:?playerSetItemData@@YAPAU_object@@PAU1@0@Z
	DD	01H
	ORG $+4
	DD	FLAT:??_C@_0BD@GLMLJBGM@SetItemMetinSocket@
	DD	FLAT:?playerSetItemMetinSocket@@YAPAU_object@@PAU1@0@Z
	DD	01H
	ORG $+4
	DD	FLAT:??_C@_0BB@KPGENMF@SetItemAttribute@
	DD	FLAT:?playerSetItemAttribute@@YAPAU_object@@PAU1@0@Z
	DD	01H
	ORG $+4
	DD	FLAT:??_C@_0N@MABOHHMK@SetItemCount@
	DD	FLAT:?playerSetItemCount@@YAPAU_object@@PAU1@0@Z
	DD	01H
	ORG $+4
	DD	FLAT:??_C@_0M@DGFCHEAA@GetItemLink@
	DD	FLAT:?playerGetItemLink@@YAPAU_object@@PAU1@0@Z
	DD	01H
	ORG $+4
	DD	FLAT:??_C@_0BE@IOMKCPHN@SlotTypeToInvenType@
	DD	FLAT:?playerSlotTypeToInvenType@@YAPAU_object@@PAU1@0@Z
	DD	01H
	ORG $+4
	DD	FLAT:??_C@_0BF@PLGNHJMH@SendDragonSoulRefine@
	DD	FLAT:?playerSendDragonSoulRefine@@YAPAU_object@@PAU1@0@Z
	DD	01H
	ORG $+4
	DD	00H
	DD	00H
	DD	00H
	ORG $+4
_DATA	ENDS
;	COMDAT ??_C@_0BI@NHBOLMGK@DS_SUB_HEADER_DO_REFINE@
CONST	SEGMENT
??_C@_0BI@NHBOLMGK@DS_SUB_HEADER_DO_REFINE@ DB 'DS_SUB_HEADER_DO_REFINE', 00H ; `string'
CONST	ENDS
;	COMDAT ??_C@_0BJ@JKFAJIJN@DS_SUB_HEADER_DO_UPGRADE@
CONST	SEGMENT
??_C@_0BJ@JKFAJIJN@DS_SUB_HEADER_DO_UPGRADE@ DB 'DS_SUB_HEADER_DO_UPGRADE'
	DB	00H						; `string'
CONST	ENDS
;	COMDAT ??_C@_0BN@PCPINHKH@DS_SUB_HEADER_DO_IMPROVEMENT@
CONST	SEGMENT
??_C@_0BN@PCPINHKH@DS_SUB_HEADER_DO_IMPROVEMENT@ DB 'DS_SUB_HEADER_DO_IMP'
	DB	'ROVEMENT', 00H				; `string'
CONST	ENDS
;	COMDAT ??_C@_0CB@OIFHBJMG@DRAGON_SOUL_EQUIPMENT_FIRST_SIZ@
CONST	SEGMENT
??_C@_0CB@OIFHBJMG@DRAGON_SOUL_EQUIPMENT_FIRST_SIZ@ DB 'DRAGON_SOUL_EQUIP'
	DB	'MENT_FIRST_SIZE', 00H			; `string'
CONST	ENDS
;	COMDAT ??_C@_0BJ@MMGGGOHJ@DRAGON_SOUL_REFINE_CLOSE@
CONST	SEGMENT
??_C@_0BJ@MMGGGOHJ@DRAGON_SOUL_REFINE_CLOSE@ DB 'DRAGON_SOUL_REFINE_CLOSE'
	DB	00H						; `string'
CONST	ENDS
;	COMDAT ??_C@_0CB@NJAOAEOC@DRAGON_SOUL_EQUIPMENT_SLOT_STAR@
CONST	SEGMENT
??_C@_0CB@NJAOAEOC@DRAGON_SOUL_EQUIPMENT_SLOT_STAR@ DB 'DRAGON_SOUL_EQUIP'
	DB	'MENT_SLOT_START', 00H			; `string'
CONST	ENDS
;	COMDAT ??_C@_0CB@GAHKEECK@DRAGON_SOUL_EQUIPMENT_PAGE_COUN@
CONST	SEGMENT
??_C@_0CB@GAHKEECK@DRAGON_SOUL_EQUIPMENT_PAGE_COUN@ DB 'DRAGON_SOUL_EQUIP'
	DB	'MENT_PAGE_COUNT', 00H			; `string'
CONST	ENDS
;	COMDAT ??_C@_0BH@OCCNKKPP@DRAGON_SOUL_PAGE_COUNT@
CONST	SEGMENT
??_C@_0BH@OCCNKKPP@DRAGON_SOUL_PAGE_COUNT@ DB 'DRAGON_SOUL_PAGE_COUNT', 00H ; `string'
CONST	ENDS
;	COMDAT ??_C@_0BH@IFPINEOD@DRAGON_SOUL_SLOT_COUNT@
CONST	SEGMENT
??_C@_0BH@IFPINEOD@DRAGON_SOUL_SLOT_COUNT@ DB 'DRAGON_SOUL_SLOT_COUNT', 00H ; `string'
CONST	ENDS
;	COMDAT ??_C@_0BE@KLHCNIEK@AUTO_POTION_TYPE_SP@
CONST	SEGMENT
??_C@_0BE@KLHCNIEK@AUTO_POTION_TYPE_SP@ DB 'AUTO_POTION_TYPE_SP', 00H ; `string'
CONST	ENDS
;	COMDAT ??_C@_0BG@FEPFCIIM@DRAGON_SOUL_PAGE_SIZE@
CONST	SEGMENT
??_C@_0BG@FEPFCIIM@DRAGON_SOUL_PAGE_SIZE@ DB 'DRAGON_SOUL_PAGE_SIZE', 00H ; `string'
CONST	ENDS
;	COMDAT ??_C@_0N@FFINPOG@EMOTION_SLAP@
CONST	SEGMENT
??_C@_0N@FFINPOG@EMOTION_SLAP@ DB 'EMOTION_SLAP', 00H	; `string'
CONST	ENDS
;	COMDAT ??_C@_0BE@LLABJENL@AUTO_POTION_TYPE_HP@
CONST	SEGMENT
??_C@_0BE@LLABJENL@AUTO_POTION_TYPE_HP@ DB 'AUTO_POTION_TYPE_HP', 00H ; `string'
CONST	ENDS
;	COMDAT ??_C@_0N@FGJJNHEK@EMOTION_KISS@
CONST	SEGMENT
??_C@_0N@FGJJNHEK@EMOTION_KISS@ DB 'EMOTION_KISS', 00H	; `string'
CONST	ENDS
;	COMDAT ??_C@_0BE@KCAKKBPE@EMOTION_FRENCH_KISS@
CONST	SEGMENT
??_C@_0BE@KCAKKBPE@EMOTION_FRENCH_KISS@ DB 'EMOTION_FRENCH_KISS', 00H ; `string'
CONST	ENDS
;	COMDAT ??_C@_0P@JAJBGKKI@EMOTION_BANTER@
CONST	SEGMENT
??_C@_0P@JAJBGKKI@EMOTION_BANTER@ DB 'EMOTION_BANTER', 00H ; `string'
CONST	ENDS
;	COMDAT ??_C@_0M@JOKPJKCG@EMOTION_JOY@
CONST	SEGMENT
??_C@_0M@JOKPJKCG@EMOTION_JOY@ DB 'EMOTION_JOY', 00H	; `string'
CONST	ENDS
;	COMDAT ??_C@_0M@LGPBJELG@EMOTION_SHY@
CONST	SEGMENT
??_C@_0M@LGPBJELG@EMOTION_SHY@ DB 'EMOTION_SHY', 00H	; `string'
CONST	ENDS
;	COMDAT ??_C@_0BA@MENCJFPL@EMOTION_CHEERUP@
CONST	SEGMENT
??_C@_0BA@MENCJFPL@EMOTION_CHEERUP@ DB 'EMOTION_CHEERUP', 00H ; `string'
CONST	ENDS
;	COMDAT ??_C@_0BD@FLNIBF@EMOTION_ATTRACTIVE@
CONST	SEGMENT
??_C@_0BD@FLNIBF@EMOTION_ATTRACTIVE@ DB 'EMOTION_ATTRACTIVE', 00H ; `string'
CONST	ENDS
;	COMDAT ??_C@_0M@EGEMMDCF@EMOTION_SAD@
CONST	SEGMENT
??_C@_0M@EGEMMDCF@EMOTION_SAD@ DB 'EMOTION_SAD', 00H	; `string'
CONST	ENDS
;	COMDAT ??_C@_0BA@JPGNEMIB@EMOTION_FORGIVE@
CONST	SEGMENT
??_C@_0BA@JPGNEMIB@EMOTION_FORGIVE@ DB 'EMOTION_FORGIVE', 00H ; `string'
CONST	ENDS
;	COMDAT ??_C@_0O@DACEICMN@EMOTION_ANGRY@
CONST	SEGMENT
??_C@_0O@DACEICMN@EMOTION_ANGRY@ DB 'EMOTION_ANGRY', 00H ; `string'
CONST	ENDS
;	COMDAT ??_C@_0BA@ENPGPKID@EMOTION_DANCE_6@
CONST	SEGMENT
??_C@_0BA@ENPGPKID@EMOTION_DANCE_6@ DB 'EMOTION_DANCE_6', 00H ; `string'
CONST	ENDS
;	COMDAT ??_C@_0BH@FIIEKKHF@EMOTION_CONGRATULATION@
CONST	SEGMENT
??_C@_0BH@FIIEKKHF@EMOTION_CONGRATULATION@ DB 'EMOTION_CONGRATULATION', 00H ; `string'
CONST	ENDS
;	COMDAT ??_C@_0BA@HPMAJIAB@EMOTION_DANCE_4@
CONST	SEGMENT
??_C@_0BA@HPMAJIAB@EMOTION_DANCE_4@ DB 'EMOTION_DANCE_4', 00H ; `string'
CONST	ENDS
;	COMDAT ??_C@_0BA@GGNLKJEA@EMOTION_DANCE_5@
CONST	SEGMENT
??_C@_0BA@GGNLKJEA@EMOTION_DANCE_5@ DB 'EMOTION_DANCE_5', 00H ; `string'
CONST	ENDS
;	COMDAT ??_C@_0BA@CJJKDPIH@EMOTION_DANCE_2@
CONST	SEGMENT
??_C@_0BA@CJJKDPIH@EMOTION_DANCE_2@ DB 'EMOTION_DANCE_2', 00H ; `string'
CONST	ENDS
;	COMDAT ??_C@_0BA@DAIBAOMG@EMOTION_DANCE_3@
CONST	SEGMENT
??_C@_0BA@DAIBAOMG@EMOTION_DANCE_3@ DB 'EMOTION_DANCE_3', 00H ; `string'
CONST	ENDS
;	COMDAT ??_C@_0BB@OJOMLFJB@EMOTION_CHEERS_2@
CONST	SEGMENT
??_C@_0BB@OJOMLFJB@EMOTION_CHEERS_2@ DB 'EMOTION_CHEERS_2', 00H ; `string'
CONST	ENDS
;	COMDAT ??_C@_0BA@CLHGMEE@EMOTION_DANCE_1@
CONST	SEGMENT
??_C@_0BA@CLHGMEE@EMOTION_DANCE_1@ DB 'EMOTION_DANCE_1', 00H ; `string'
CONST	ENDS
;	COMDAT ??_C@_0N@GFLIEIGE@EMOTION_CLAP@
CONST	SEGMENT
??_C@_0N@GFLIEIGE@EMOTION_CLAP@ DB 'EMOTION_CLAP', 00H	; `string'
CONST	ENDS
;	COMDAT ??_C@_0BB@MCMBOGFC@EMOTION_CHEERS_1@
CONST	SEGMENT
??_C@_0BB@MCMBOGFC@EMOTION_CHEERS_1@ DB 'EMOTION_CHEERS_1', 00H ; `string'
CONST	ENDS
;	COMDAT ??_C@_0BL@OELLICOI@PARTY_EXP_NON_DISTRIBUTION@
CONST	SEGMENT
??_C@_0BL@OELLICOI@PARTY_EXP_NON_DISTRIBUTION@ DB 'PARTY_EXP_NON_DISTRIBU'
	DB	'TION', 00H					; `string'
CONST	ENDS
;	COMDAT ??_C@_0BO@CBJBDFJC@PARTY_EXP_DISTRIBUTION_PARITY@
CONST	SEGMENT
??_C@_0BO@CBJBDFJC@PARTY_EXP_DISTRIBUTION_PARITY@ DB 'PARTY_EXP_DISTRIBUT'
	DB	'ION_PARITY', 00H				; `string'
CONST	ENDS
;	COMDAT ??_C@_0N@IJGKBLJF@BLOCK_FRIEND@
CONST	SEGMENT
??_C@_0N@IJGKBLJF@BLOCK_FRIEND@ DB 'BLOCK_FRIEND', 00H	; `string'
CONST	ENDS
;	COMDAT ??_C@_0BE@NDGMABKO@BLOCK_PARTY_REQUEST@
CONST	SEGMENT
??_C@_0BE@NDGMABKO@BLOCK_PARTY_REQUEST@ DB 'BLOCK_PARTY_REQUEST', 00H ; `string'
CONST	ENDS
;	COMDAT ??_C@_0M@EEMDCMKA@BLOCK_GUILD@
CONST	SEGMENT
??_C@_0M@EEMDCMKA@BLOCK_GUILD@ DB 'BLOCK_GUILD', 00H	; `string'
CONST	ENDS
;	COMDAT ??_C@_0O@CFHKOIIK@BLOCK_WHISPER@
CONST	SEGMENT
??_C@_0O@CFHKOIIK@BLOCK_WHISPER@ DB 'BLOCK_WHISPER', 00H ; `string'
CONST	ENDS
;	COMDAT ??_C@_0P@CDMGAFPE@BLOCK_EXCHANGE@
CONST	SEGMENT
??_C@_0P@CDMGAFPE@BLOCK_EXCHANGE@ DB 'BLOCK_EXCHANGE', 00H ; `string'
CONST	ENDS
;	COMDAT ??_C@_0M@KFDBGBIL@BLOCK_PARTY@
CONST	SEGMENT
??_C@_0M@KFDBGBIL@BLOCK_PARTY@ DB 'BLOCK_PARTY', 00H	; `string'
CONST	ENDS
;	COMDAT ??_C@_0O@LBDADKLE@PK_MODE_GUILD@
CONST	SEGMENT
??_C@_0O@LBDADKLE@PK_MODE_GUILD@ DB 'PK_MODE_GUILD', 00H ; `string'
CONST	ENDS
;	COMDAT ??_C@_0BA@OLCDKGDA@PK_MODE_MAX_NUM@
CONST	SEGMENT
??_C@_0BA@OLCDKGDA@PK_MODE_MAX_NUM@ DB 'PK_MODE_MAX_NUM', 00H ; `string'
CONST	ENDS
;	COMDAT ??_C@_0N@DCANEGJG@PK_MODE_FREE@
CONST	SEGMENT
??_C@_0N@DCANEGJG@PK_MODE_FREE@ DB 'PK_MODE_FREE', 00H	; `string'
CONST	ENDS
;	COMDAT ??_C@_0BA@GHACPGHA@PK_MODE_PROTECT@
CONST	SEGMENT
??_C@_0BA@GHACPGHA@PK_MODE_PROTECT@ DB 'PK_MODE_PROTECT', 00H ; `string'
CONST	ENDS
;	COMDAT ??_C@_0O@BIPAMBIG@PK_MODE_PEACE@
CONST	SEGMENT
??_C@_0O@BIPAMBIG@PK_MODE_PEACE@ DB 'PK_MODE_PEACE', 00H ; `string'
CONST	ENDS
;	COMDAT ??_C@_0BA@HNNGLCOB@PK_MODE_REVENGE@
CONST	SEGMENT
??_C@_0BA@HNNGLCOB@PK_MODE_REVENGE@ DB 'PK_MODE_REVENGE', 00H ; `string'
CONST	ENDS
;	COMDAT ??_C@_0BD@HOAGGFNA@SKILL_INDEX_RIDING@
CONST	SEGMENT
??_C@_0BD@HOAGGFNA@SKILL_INDEX_RIDING@ DB 'SKILL_INDEX_RIDING', 00H ; `string'
CONST	ENDS
;	COMDAT ??_C@_0BD@POBHIINM@SKILL_INDEX_SUMMON@
CONST	SEGMENT
??_C@_0BD@POBHIINM@SKILL_INDEX_SUMMON@ DB 'SKILL_INDEX_SUMMON', 00H ; `string'
CONST	ENDS
;	COMDAT ??_C@_0BG@FNIIDGCI@SKILL_INDEX_LANGUAGE3@
CONST	SEGMENT
??_C@_0BG@FNIIDGCI@SKILL_INDEX_LANGUAGE3@ DB 'SKILL_INDEX_LANGUAGE3', 00H ; `string'
CONST	ENDS
;	COMDAT ??_C@_0BG@DMEIDEKO@SKILL_INDEX_POLYMORPH@
CONST	SEGMENT
??_C@_0BG@DMEIDEKO@SKILL_INDEX_POLYMORPH@ DB 'SKILL_INDEX_POLYMORPH', 00H ; `string'
CONST	ENDS
;	COMDAT ??_C@_0BG@GPLOFEKK@SKILL_INDEX_LANGUAGE1@
CONST	SEGMENT
??_C@_0BG@GPLOFEKK@SKILL_INDEX_LANGUAGE1@ DB 'SKILL_INDEX_LANGUAGE1', 00H ; `string'
CONST	ENDS
;	COMDAT ??_C@_0BG@EEJDAHGJ@SKILL_INDEX_LANGUAGE2@
CONST	SEGMENT
??_C@_0BG@EEJDAHGJ@SKILL_INDEX_LANGUAGE2@ DB 'SKILL_INDEX_LANGUAGE2', 00H ; `string'
CONST	ENDS
;	COMDAT ??_C@_0BD@IBJDJMEL@SKILL_INDEX_MAKING@
CONST	SEGMENT
??_C@_0BD@IBJDJMEL@SKILL_INDEX_MAKING@ DB 'SKILL_INDEX_MAKING', 00H ; `string'
CONST	ENDS
;	COMDAT ??_C@_0BC@HACNAMIK@SKILL_INDEX_COMBO@
CONST	SEGMENT
??_C@_0BC@HACNAMIK@SKILL_INDEX_COMBO@ DB 'SKILL_INDEX_COMBO', 00H ; `string'
CONST	ENDS
;	COMDAT ??_C@_0BE@HANBCKAH@SKILL_INDEX_FISHING@
CONST	SEGMENT
??_C@_0BE@HANBCKAH@SKILL_INDEX_FISHING@ DB 'SKILL_INDEX_FISHING', 00H ; `string'
CONST	ENDS
;	COMDAT ??_C@_0BD@KFCAJBFG@SKILL_INDEX_MINING@
CONST	SEGMENT
??_C@_0BD@KFCAJBFG@SKILL_INDEX_MINING@ DB 'SKILL_INDEX_MINING', 00H ; `string'
CONST	ENDS
;	COMDAT ??_C@_0BE@KCLJFDCO@PARTY_STATE_MAX_NUM@
CONST	SEGMENT
??_C@_0BE@KCLJFDCO@PARTY_STATE_MAX_NUM@ DB 'PARTY_STATE_MAX_NUM', 00H ; `string'
CONST	ENDS
;	COMDAT ??_C@_0BE@MNBFKLPI@SKILL_INDEX_TONGSOL@
CONST	SEGMENT
??_C@_0BE@MNBFKLPI@SKILL_INDEX_TONGSOL@ DB 'SKILL_INDEX_TONGSOL', 00H ; `string'
CONST	ENDS
;	COMDAT ??_C@_0BG@LCNEBE@PARTY_STATE_BERSERKER@
CONST	SEGMENT
??_C@_0BG@LCNEBE@PARTY_STATE_BERSERKER@ DB 'PARTY_STATE_BERSERKER', 00H ; `string'
CONST	ENDS
;	COMDAT ??_C@_0BF@PAKJEMH@PARTY_STATE_DEFENDER@
CONST	SEGMENT
??_C@_0BF@PAKJEMH@PARTY_STATE_DEFENDER@ DB 'PARTY_STATE_DEFENDER', 00H ; `string'
CONST	ENDS
;	COMDAT ??_C@_0BD@JJFBJLK@PARTY_STATE_BUFFER@
CONST	SEGMENT
??_C@_0BD@JJFBJLK@PARTY_STATE_BUFFER@ DB 'PARTY_STATE_BUFFER', 00H ; `string'
CONST	ENDS
;	COMDAT ??_C@_0BJ@EIPCPJKC@PARTY_STATE_SKILL_MASTER@
CONST	SEGMENT
??_C@_0BJ@EIPCPJKC@PARTY_STATE_SKILL_MASTER@ DB 'PARTY_STATE_SKILL_MASTER'
	DB	00H						; `string'
CONST	ENDS
;	COMDAT ??_C@_0BF@DOKPPLCL@PARTY_STATE_ATTACKER@
CONST	SEGMENT
??_C@_0BF@DOKPPLCL@PARTY_STATE_ATTACKER@ DB 'PARTY_STATE_ATTACKER', 00H ; `string'
CONST	ENDS
;	COMDAT ??_C@_0BD@FHMGGDNP@PARTY_STATE_TANKER@
CONST	SEGMENT
??_C@_0BD@FHMGGDNP@PARTY_STATE_TANKER@ DB 'PARTY_STATE_TANKER', 00H ; `string'
CONST	ENDS
;	COMDAT ??_C@_0BD@PNFBHDHD@PARTY_STATE_NORMAL@
CONST	SEGMENT
??_C@_0BD@PNFBHDHD@PARTY_STATE_NORMAL@ DB 'PARTY_STATE_NORMAL', 00H ; `string'
CONST	ENDS
;	COMDAT ??_C@_0BD@ECFFHEOH@PARTY_STATE_LEADER@
CONST	SEGMENT
??_C@_0BD@ECFFHEOH@PARTY_STATE_LEADER@ DB 'PARTY_STATE_LEADER', 00H ; `string'
CONST	ENDS
;	COMDAT ??_C@_0BC@HGBPKPKG@DETACH_METIN_CANT@
CONST	SEGMENT
??_C@_0BC@HGBPKPKG@DETACH_METIN_CANT@ DB 'DETACH_METIN_CANT', 00H ; `string'
CONST	ENDS
;	COMDAT ??_C@_0BA@IACJJMNA@DETACH_METIN_OK@
CONST	SEGMENT
??_C@_0BA@IACJJMNA@DETACH_METIN_OK@ DB 'DETACH_METIN_OK', 00H ; `string'
CONST	ENDS
;	COMDAT ??_C@_0CD@JNOPKOFJ@ATTACH_METIN_NOT_EXIST_GOLD_SOC@
CONST	SEGMENT
??_C@_0CD@JNOPKOFJ@ATTACH_METIN_NOT_EXIST_GOLD_SOC@ DB 'ATTACH_METIN_NOT_'
	DB	'EXIST_GOLD_SOCKET', 00H			; `string'
CONST	ENDS
;	COMDAT ??_C@_0CG@BCIFDNEM@ATTACH_METIN_CANT_ATTACH_TO_EQU@
CONST	SEGMENT
??_C@_0CG@BCIFDNEM@ATTACH_METIN_CANT_ATTACH_TO_EQU@ DB 'ATTACH_METIN_CANT'
	DB	'_ATTACH_TO_EQUIPMENT', 00H			; `string'
CONST	ENDS
;	COMDAT ??_C@_0CA@OFAKGLFM@ATTACH_METIN_NOT_MATCHABLE_ITEM@
CONST	SEGMENT
??_C@_0CA@OFAKGLFM@ATTACH_METIN_NOT_MATCHABLE_ITEM@ DB 'ATTACH_METIN_NOT_'
	DB	'MATCHABLE_ITEM', 00H			; `string'
CONST	ENDS
;	COMDAT ??_C@_0CB@MAILDNNI@ATTACH_METIN_NO_MATCHABLE_SOCKE@
CONST	SEGMENT
??_C@_0CB@MAILDNNI@ATTACH_METIN_NO_MATCHABLE_SOCKE@ DB 'ATTACH_METIN_NO_M'
	DB	'ATCHABLE_SOCKET', 00H			; `string'
CONST	ENDS
;	COMDAT ??_C@_0BC@CBCJMHP@ATTACH_METIN_CANT@
CONST	SEGMENT
??_C@_0BC@CBCJMHP@ATTACH_METIN_CANT@ DB 'ATTACH_METIN_CANT', 00H ; `string'
CONST	ENDS
;	COMDAT ??_C@_0BA@HOJAFGB@ATTACH_METIN_OK@
CONST	SEGMENT
??_C@_0BA@HOJAFGB@ATTACH_METIN_OK@ DB 'ATTACH_METIN_OK', 00H ; `string'
CONST	ENDS
;	COMDAT ??_C@_0CG@LFLLDFCE@REFINE_CANT_REFINE_METIN_TO_EQU@
CONST	SEGMENT
??_C@_0CG@LFLLDFCE@REFINE_CANT_REFINE_METIN_TO_EQU@ DB 'REFINE_CANT_REFIN'
	DB	'E_METIN_TO_EQUIPMENT', 00H			; `string'
CONST	ENDS
;	COMDAT ??_C@_0BH@OENPPLJB@REFINE_CANT_REFINE_ROD@
CONST	SEGMENT
??_C@_0BH@OENPPLJB@REFINE_CANT_REFINE_ROD@ DB 'REFINE_CANT_REFINE_ROD', 00H ; `string'
CONST	ENDS
;	COMDAT ??_C@_0BN@JPDLJDPD@REFINE_CANT_MAKE_SOCKET_ITEM@
CONST	SEGMENT
??_C@_0BN@JPDLJDPD@REFINE_CANT_MAKE_SOCKET_ITEM@ DB 'REFINE_CANT_MAKE_SOC'
	DB	'KET_ITEM', 00H				; `string'
CONST	ENDS
;	COMDAT ??_C@_0BL@EILCCEPE@REFINE_NOT_NEXT_GRADE_ITEM@
CONST	SEGMENT
??_C@_0BL@EILCCEPE@REFINE_NOT_NEXT_GRADE_ITEM@ DB 'REFINE_NOT_NEXT_GRADE_'
	DB	'ITEM', 00H					; `string'
CONST	ENDS
;	COMDAT ??_C@_0CA@CPLGFHBD@REFINE_ALREADY_MAX_SOCKET_COUNT@
CONST	SEGMENT
??_C@_0CA@CPLGFHBD@REFINE_ALREADY_MAX_SOCKET_COUNT@ DB 'REFINE_ALREADY_MA'
	DB	'X_SOCKET_COUNT', 00H			; `string'
CONST	ENDS
;	COMDAT ??_C@_0BN@FMBLMMOD@REFINE_NEED_MORE_GOOD_SCROLL@
CONST	SEGMENT
??_C@_0BN@FMBLMMOD@REFINE_NEED_MORE_GOOD_SCROLL@ DB 'REFINE_NEED_MORE_GOO'
	DB	'D_SCROLL', 00H				; `string'
CONST	ENDS
;	COMDAT ??_C@_0M@FNDEJPGN@REFINE_CANT@
CONST	SEGMENT
??_C@_0M@FNDEJPGN@REFINE_CANT@ DB 'REFINE_CANT', 00H	; `string'
CONST	ENDS
;	COMDAT ??_C@_09FFJEIDJG@REFINE_OK@
CONST	SEGMENT
??_C@_09FFJEIDJG@REFINE_OK@ DB 'REFINE_OK', 00H		; `string'
CONST	ENDS
;	COMDAT ??_C@_0BF@HOKBLOCN@METIN_SOCKET_MAX_NUM@
CONST	SEGMENT
??_C@_0BF@HOKBLOCN@METIN_SOCKET_MAX_NUM@ DB 'METIN_SOCKET_MAX_NUM', 00H ; `string'
CONST	ENDS
;	COMDAT ??_C@_0BH@BPEONNLD@ATTRIBUTE_SLOT_MAX_NUM@
CONST	SEGMENT
??_C@_0BH@BPEONNLD@ATTRIBUTE_SLOT_MAX_NUM@ DB 'ATTRIBUTE_SLOT_MAX_NUM', 00H ; `string'
CONST	ENDS
;	COMDAT ??_C@_0BJ@PHGNNMMA@METIN_SOCKET_TYPE_SILVER@
CONST	SEGMENT
??_C@_0BJ@PHGNNMMA@METIN_SOCKET_TYPE_SILVER@ DB 'METIN_SOCKET_TYPE_SILVER'
	DB	00H						; `string'
CONST	ENDS
;	COMDAT ??_C@_0BH@EFCNALEJ@METIN_SOCKET_TYPE_GOLD@
CONST	SEGMENT
??_C@_0BH@EFCNALEJ@METIN_SOCKET_TYPE_GOLD@ DB 'METIN_SOCKET_TYPE_GOLD', 00H ; `string'
CONST	ENDS
;	COMDAT ??_C@_0M@CHLINENA@EFFECT_PICK@
CONST	SEGMENT
??_C@_0M@CHLINENA@EFFECT_PICK@ DB 'EFFECT_PICK', 00H	; `string'
CONST	ENDS
;	COMDAT ??_C@_0BH@FCKCIMBH@METIN_SOCKET_TYPE_NONE@
CONST	SEGMENT
??_C@_0BH@FCKCIMBH@METIN_SOCKET_TYPE_NONE@ DB 'METIN_SOCKET_TYPE_NONE', 00H ; `string'
CONST	ENDS
;	COMDAT ??_C@_0L@HFAEBHHD@ITEM_MONEY@
CONST	SEGMENT
??_C@_0L@HFAEBHHD@ITEM_MONEY@ DB 'ITEM_MONEY', 00H	; `string'
CONST	ENDS
;	COMDAT ??_C@_0BB@IOEKBHAE@SKILL_SLOT_COUNT@
CONST	SEGMENT
??_C@_0BB@IOEKBHAE@SKILL_SLOT_COUNT@ DB 'SKILL_SLOT_COUNT', 00H ; `string'
CONST	ENDS
;	COMDAT ??_C@_0BG@FHEDCCNN@DRAGON_SOUL_INVENTORY@
CONST	SEGMENT
??_C@_0BG@FHEDCCNN@DRAGON_SOUL_INVENTORY@ DB 'DRAGON_SOUL_INVENTORY', 00H ; `string'
CONST	ENDS
;	COMDAT ??_C@_06GKBINIEJ@GROUND@
CONST	SEGMENT
??_C@_06GKBINIEJ@GROUND@ DB 'GROUND', 00H		; `string'
CONST	ENDS
;	COMDAT ??_C@_07NCKDBJCB@SAFEBOX@
CONST	SEGMENT
??_C@_07NCKDBJCB@SAFEBOX@ DB 'SAFEBOX', 00H		; `string'
CONST	ENDS
;	COMDAT ??_C@_04JPFKNPOP@MALL@
CONST	SEGMENT
??_C@_04JPFKNPOP@MALL@ DB 'MALL', 00H			; `string'
CONST	ENDS
;	COMDAT ??_C@_09NCAHJFFG@INVENTORY@
CONST	SEGMENT
??_C@_09NCAHJFFG@INVENTORY@ DB 'INVENTORY', 00H		; `string'
CONST	ENDS
;	COMDAT ??_C@_09GJGOMHMK@EQUIPMENT@
CONST	SEGMENT
??_C@_09GJGOMHMK@EQUIPMENT@ DB 'EQUIPMENT', 00H		; `string'
CONST	ENDS
;	COMDAT ??_C@_0CA@FHKIPOOP@SLOT_TYPE_DRAGON_SOUL_INVENTORY@
CONST	SEGMENT
??_C@_0CA@FHKIPOOP@SLOT_TYPE_DRAGON_SOUL_INVENTORY@ DB 'SLOT_TYPE_DRAGON_'
	DB	'SOUL_INVENTORY', 00H			; `string'
CONST	ENDS
;	COMDAT ??_C@_0BA@NKAFFIGF@RESERVED_WINDOW@
CONST	SEGMENT
??_C@_0BA@NKAFFIGF@RESERVED_WINDOW@ DB 'RESERVED_WINDOW', 00H ; `string'
CONST	ENDS
;	COMDAT ??_C@_0P@OEAGANKI@SLOT_TYPE_MALL@
CONST	SEGMENT
??_C@_0P@OEAGANKI@SLOT_TYPE_MALL@ DB 'SLOT_TYPE_MALL', 00H ; `string'
CONST	ENDS
;	COMDAT ??_C@_0BC@LKMHLHKJ@SLOT_TYPE_EMOTION@
CONST	SEGMENT
??_C@_0BC@LKMHLHKJ@SLOT_TYPE_EMOTION@ DB 'SLOT_TYPE_EMOTION', 00H ; `string'
CONST	ENDS
;	COMDAT ??_C@_0BC@HGKFDIFN@SLOT_TYPE_SAFEBOX@
CONST	SEGMENT
??_C@_0BC@HGKFDIFN@SLOT_TYPE_SAFEBOX@ DB 'SLOT_TYPE_SAFEBOX', 00H ; `string'
CONST	ENDS
;	COMDAT ??_C@_0BH@MJAEADNE@SLOT_TYPE_PRIVATE_SHOP@
CONST	SEGMENT
??_C@_0BH@MJAEADNE@SLOT_TYPE_PRIVATE_SHOP@ DB 'SLOT_TYPE_PRIVATE_SHOP', 00H ; `string'
CONST	ENDS
;	COMDAT ??_C@_0BK@KJHLAGBH@SLOT_TYPE_EXCHANGE_TARGET@
CONST	SEGMENT
??_C@_0BK@KJHLAGBH@SLOT_TYPE_EXCHANGE_TARGET@ DB 'SLOT_TYPE_EXCHANGE_TARG'
	DB	'ET', 00H					; `string'
CONST	ENDS
;	COMDAT ??_C@_0BF@CPPFMLHN@SLOT_TYPE_QUICK_SLOT@
CONST	SEGMENT
??_C@_0BF@CPPFMLHN@SLOT_TYPE_QUICK_SLOT@ DB 'SLOT_TYPE_QUICK_SLOT', 00H ; `string'
CONST	ENDS
;	COMDAT ??_C@_0P@KCOPIIMF@SLOT_TYPE_SHOP@
CONST	SEGMENT
??_C@_0P@KCOPIIMF@SLOT_TYPE_SHOP@ DB 'SLOT_TYPE_SHOP', 00H ; `string'
CONST	ENDS
;	COMDAT ??_C@_0BJ@DBNHPJKE@SLOT_TYPE_EXCHANGE_OWNER@
CONST	SEGMENT
??_C@_0BJ@DBNHPJKE@SLOT_TYPE_EXCHANGE_OWNER@ DB 'SLOT_TYPE_EXCHANGE_OWNER'
	DB	00H						; `string'
CONST	ENDS
;	COMDAT ??_C@_0BE@BNOEBHPE@SLOT_TYPE_INVENTORY@
CONST	SEGMENT
??_C@_0BE@BNOEBHPE@SLOT_TYPE_INVENTORY@ DB 'SLOT_TYPE_INVENTORY', 00H ; `string'
CONST	ENDS
;	COMDAT ??_C@_0BA@MAJHKGKG@SLOT_TYPE_SKILL@
CONST	SEGMENT
??_C@_0BA@MAJHKGKG@SLOT_TYPE_SKILL@ DB 'SLOT_TYPE_SKILL', 00H ; `string'
CONST	ENDS
;	COMDAT ??_C@_08OMNIMJHC@MBT_LEFT@
CONST	SEGMENT
??_C@_08OMNIMJHC@MBT_LEFT@ DB 'MBT_LEFT', 00H		; `string'
CONST	ENDS
;	COMDAT ??_C@_0P@JBDPGPGM@SLOT_TYPE_NONE@
CONST	SEGMENT
??_C@_0P@JBDPGPGM@SLOT_TYPE_NONE@ DB 'SLOT_TYPE_NONE', 00H ; `string'
CONST	ENDS
;	COMDAT ??_C@_09BKODCCAJ@MBS_CLICK@
CONST	SEGMENT
??_C@_09BKODCCAJ@MBS_CLICK@ DB 'MBS_CLICK', 00H		; `string'
CONST	ENDS
;	COMDAT ??_C@_09DBJMODBC@MBT_RIGHT@
CONST	SEGMENT
??_C@_09DBJMODBC@MBT_RIGHT@ DB 'MBT_RIGHT', 00H		; `string'
CONST	ENDS
;	COMDAT ??_C@_08CIEGLDP@MBF_AUTO@
CONST	SEGMENT
??_C@_08CIEGLDP@MBF_AUTO@ DB 'MBF_AUTO', 00H		; `string'
CONST	ENDS
;	COMDAT ??_C@_09JEJKPPEO@MBS_PRESS@
CONST	SEGMENT
??_C@_09JEJKPPEO@MBS_PRESS@ DB 'MBS_PRESS', 00H		; `string'
CONST	ENDS
;	COMDAT ??_C@_09FAENJFL@MBF_SMART@
CONST	SEGMENT
??_C@_09FAENJFL@MBF_SMART@ DB 'MBF_SMART', 00H		; `string'
CONST	ENDS
;	COMDAT ??_C@_08BLLANCB@MBF_MOVE@
CONST	SEGMENT
??_C@_08BLLANCB@MBF_MOVE@ DB 'MBF_MOVE', 00H		; `string'
CONST	ENDS
;	COMDAT ??_C@_0L@MIGMJBKJ@MBF_ATTACK@
CONST	SEGMENT
??_C@_0L@MIGMJBKJ@MBF_ATTACK@ DB 'MBF_ATTACK', 00H	; `string'
CONST	ENDS
;	COMDAT ??_C@_0L@JHBFAMB@MBF_CAMERA@
CONST	SEGMENT
??_C@_0L@JHBFAMB@MBF_CAMERA@ DB 'MBF_CAMERA', 00H	; `string'
CONST	ENDS
;	COMDAT ??_C@_0BJ@PAALBJCN@NEW_EQUIPMENT_SLOT_COUNT@
CONST	SEGMENT
??_C@_0BJ@PAALBJCN@NEW_EQUIPMENT_SLOT_COUNT@ DB 'NEW_EQUIPMENT_SLOT_COUNT'
	DB	00H						; `string'
CONST	ENDS
;	COMDAT ??_C@_09NLFDBCDH@MBF_SKILL@
CONST	SEGMENT
??_C@_09NLFDBCDH@MBF_SKILL@ DB 'MBF_SKILL', 00H		; `string'
CONST	ENDS
;	COMDAT ??_C@_0BF@MADFLPAE@EQUIPMENT_PAGE_COUNT@
CONST	SEGMENT
??_C@_0BF@MADFLPAE@EQUIPMENT_PAGE_COUNT@ DB 'EQUIPMENT_PAGE_COUNT', 00H ; `string'
CONST	ENDS
;	COMDAT ??_C@_0BJ@COKKCHPJ@NEW_EQUIPMENT_SLOT_START@
CONST	SEGMENT
??_C@_0BJ@COKKCHPJ@NEW_EQUIPMENT_SLOT_START@ DB 'NEW_EQUIPMENT_SLOT_START'
	DB	00H						; `string'
CONST	ENDS
;	COMDAT ??_C@_0BF@LCFAAJPA@INVENTORY_SLOT_COUNT@
CONST	SEGMENT
??_C@_0BF@LCFAAJPA@INVENTORY_SLOT_COUNT@ DB 'INVENTORY_SLOT_COUNT', 00H ; `string'
CONST	ENDS
;	COMDAT ??_C@_0BF@HJEBPPMM@EQUIPMENT_SLOT_START@
CONST	SEGMENT
??_C@_0BF@HJEBPPMM@EQUIPMENT_SLOT_START@ DB 'EQUIPMENT_SLOT_START', 00H ; `string'
CONST	ENDS
;	COMDAT ??_C@_0BE@CEBDMLGH@INVENTORY_PAGE_SIZE@
CONST	SEGMENT
??_C@_0BE@CEBDMLGH@INVENTORY_PAGE_SIZE@ DB 'INVENTORY_PAGE_SIZE', 00H ; `string'
CONST	ENDS
;	COMDAT ??_C@_0BF@NFIFHHOM@INVENTORY_PAGE_COUNT@
CONST	SEGMENT
??_C@_0BF@NFIFHHOM@INVENTORY_PAGE_COUNT@ DB 'INVENTORY_PAGE_COUNT', 00H ; `string'
CONST	ENDS
;	COMDAT ??_C@_0BA@LCKKFCJM@CATEGORY_ACTIVE@
CONST	SEGMENT
??_C@_0BA@LCKKFCJM@CATEGORY_ACTIVE@ DB 'CATEGORY_ACTIVE', 00H ; `string'
CONST	ENDS
;	COMDAT ??_C@_0BB@HCMEALJK@CATEGORY_PASSIVE@
CONST	SEGMENT
??_C@_0BB@HCMEALJK@CATEGORY_PASSIVE@ DB 'CATEGORY_PASSIVE', 00H ; `string'
CONST	ENDS
;	COMDAT ??_C@_0BJ@CFOEIGCN@SKILL_GRADE_GRAND_MASTER@
CONST	SEGMENT
??_C@_0BJ@CFOEIGCN@SKILL_GRADE_GRAND_MASTER@ DB 'SKILL_GRADE_GRAND_MASTER'
	DB	00H						; `string'
CONST	ENDS
;	COMDAT ??_C@_0BL@DCIPLDCA@SKILL_GRADE_PERFECT_MASTER@
CONST	SEGMENT
??_C@_0BL@DCIPLDCA@SKILL_GRADE_PERFECT_MASTER@ DB 'SKILL_GRADE_PERFECT_MA'
	DB	'STER', 00H					; `string'
CONST	ENDS
;	COMDAT ??_C@_0BD@LAKFNFGD@SKILL_GRADE_NORMAL@
CONST	SEGMENT
??_C@_0BD@LAKFNFGD@SKILL_GRADE_NORMAL@ DB 'SKILL_GRADE_NORMAL', 00H ; `string'
CONST	ENDS
;	COMDAT ??_C@_0BD@HIHOAICI@SKILL_GRADE_MASTER@
CONST	SEGMENT
??_C@_0BD@HIHOAICI@SKILL_GRADE_MASTER@ DB 'SKILL_GRADE_MASTER', 00H ; `string'
CONST	ENDS
;	COMDAT ??_C@_06KOEJHMAL@ENERGY@
CONST	SEGMENT
??_C@_06KOEJHMAL@ENERGY@ DB 'ENERGY', 00H		; `string'
CONST	ENDS
;	COMDAT ??_C@_0BA@PIHNCBED@ENERGY_END_TIME@
CONST	SEGMENT
??_C@_0BA@PIHNCBED@ENERGY_END_TIME@ DB 'ENERGY_END_TIME', 00H ; `string'
CONST	ENDS
;	COMDAT ??_C@_0BI@BAKJJELL@POINT_PC_BANG_EXP_BONUS@
CONST	SEGMENT
??_C@_0BI@BAKJJELL@POINT_PC_BANG_EXP_BONUS@ DB 'POINT_PC_BANG_EXP_BONUS', 00H ; `string'
CONST	ENDS
;	COMDAT ??_C@_0BJ@LFKCHGEO@POINT_PC_BANG_DROP_BONUS@
CONST	SEGMENT
??_C@_0BJ@LFKCHGEO@POINT_PC_BANG_DROP_BONUS@ DB 'POINT_PC_BANG_DROP_BONUS'
	DB	00H						; `string'
CONST	ENDS
;	COMDAT ??_C@_0BJ@LPIAEILC@POINT_SKILL_DEFEND_BONUS@
CONST	SEGMENT
??_C@_0BJ@LPIAEILC@POINT_SKILL_DEFEND_BONUS@ DB 'POINT_SKILL_DEFEND_BONUS'
	DB	00H						; `string'
CONST	ENDS
;	COMDAT ??_C@_0BO@CEPNAEGB@POINT_NORMAL_HIT_DEFEND_BONUS@
CONST	SEGMENT
??_C@_0BO@CEPNAEGB@POINT_NORMAL_HIT_DEFEND_BONUS@ DB 'POINT_NORMAL_HIT_DE'
	DB	'FEND_BONUS', 00H				; `string'
CONST	ENDS
;	COMDAT ??_C@_0BJ@PGEFOCDG@POINT_SKILL_DAMAGE_BONUS@
CONST	SEGMENT
??_C@_0BJ@PGEFOCDG@POINT_SKILL_DAMAGE_BONUS@ DB 'POINT_SKILL_DAMAGE_BONUS'
	DB	00H						; `string'
CONST	ENDS
;	COMDAT ??_C@_0BO@GNDIKOOF@POINT_NORMAL_HIT_DAMAGE_BONUS@
CONST	SEGMENT
??_C@_0BO@GNDIKOOF@POINT_NORMAL_HIT_DAMAGE_BONUS@ DB 'POINT_NORMAL_HIT_DA'
	DB	'MAGE_BONUS', 00H				; `string'
CONST	ENDS
;	COMDAT ??_C@_0BB@OCODMABI@POINT_MAX_HP_PCT@
CONST	SEGMENT
??_C@_0BB@OCODMABI@POINT_MAX_HP_PCT@ DB 'POINT_MAX_HP_PCT', 00H ; `string'
CONST	ENDS
;	COMDAT ??_C@_0BB@IHDKAICM@POINT_MAX_SP_PCT@
CONST	SEGMENT
??_C@_0BB@IHDKAICM@POINT_MAX_SP_PCT@ DB 'POINT_MAX_SP_PCT', 00H ; `string'
CONST	ENDS
;	COMDAT ??_C@_0BF@FCMHLHC@POINT_MALL_ITEMBONUS@
CONST	SEGMENT
??_C@_0BF@FCMHLHC@POINT_MALL_ITEMBONUS@ DB 'POINT_MALL_ITEMBONUS', 00H ; `string'
CONST	ENDS
;	COMDAT ??_C@_0BF@LPKHMJJF@POINT_MALL_GOLDBONUS@
CONST	SEGMENT
??_C@_0BF@LPKHMJJF@POINT_MALL_GOLDBONUS@ DB 'POINT_MALL_GOLDBONUS', 00H ; `string'
CONST	ENDS
;	COMDAT ??_C@_0BE@FJKLFHOA@POINT_MALL_DEFBONUS@
CONST	SEGMENT
??_C@_0BE@FJKLFHOA@POINT_MALL_DEFBONUS@ DB 'POINT_MALL_DEFBONUS', 00H ; `string'
CONST	ENDS
;	COMDAT ??_C@_0BE@KNGAMOKN@POINT_MALL_EXPBONUS@
CONST	SEGMENT
??_C@_0BE@KNGAMOKN@POINT_MALL_EXPBONUS@ DB 'POINT_MALL_EXPBONUS', 00H ; `string'
CONST	ENDS
;	COMDAT ??_C@_0BE@BGNEFMNJ@POINT_PENETRATE_PCT@
CONST	SEGMENT
??_C@_0BE@BGNEFMNJ@POINT_PENETRATE_PCT@ DB 'POINT_PENETRATE_PCT', 00H ; `string'
CONST	ENDS
;	COMDAT ??_C@_0BE@FDGMKOPN@POINT_MALL_ATTBONUS@
CONST	SEGMENT
??_C@_0BE@FDGMKOPN@POINT_MALL_ATTBONUS@ DB 'POINT_MALL_ATTBONUS', 00H ; `string'
CONST	ENDS
;	COMDAT ??_C@_07MEMMKJPK@MAX_NUM@
CONST	SEGMENT
??_C@_07MEMMKJPK@MAX_NUM@ DB 'MAX_NUM', 00H		; `string'
CONST	ENDS
;	COMDAT ??_C@_0BD@CPEECKKP@POINT_CRITICAL_PCT@
CONST	SEGMENT
??_C@_0BD@CPEECKKP@POINT_CRITICAL_PCT@ DB 'POINT_CRITICAL_PCT', 00H ; `string'
CONST	ENDS
;	COMDAT ??_C@_0M@FGICENAO@SP_RECOVERY@
CONST	SEGMENT
??_C@_0M@FGICENAO@SP_RECOVERY@ DB 'SP_RECOVERY', 00H	; `string'
CONST	ENDS
;	COMDAT ??_C@_0P@GAAMLPFK@ATTACKER_BONUS@
CONST	SEGMENT
??_C@_0P@GAAMLPFK@ATTACKER_BONUS@ DB 'ATTACKER_BONUS', 00H ; `string'
CONST	ENDS
;	COMDAT ??_C@_0N@KHDDEEFG@BOW_DISTANCE@
CONST	SEGMENT
??_C@_0N@KHDDEEFG@BOW_DISTANCE@ DB 'BOW_DISTANCE', 00H	; `string'
CONST	ENDS
;	COMDAT ??_C@_0M@CLAIAEPM@HP_RECOVERY@
CONST	SEGMENT
??_C@_0M@CLAIAEPM@HP_RECOVERY@ DB 'HP_RECOVERY', 00H	; `string'
CONST	ENDS
;	COMDAT ??_C@_0M@HAFIBGFL@SKILL_HORSE@
CONST	SEGMENT
??_C@_0M@HAFIBGFL@SKILL_HORSE@ DB 'SKILL_HORSE', 00H	; `string'
CONST	ENDS
;	COMDAT ??_C@_08CKIIBBI@PLAYTIME@
CONST	SEGMENT
??_C@_08CKIIBBI@PLAYTIME@ DB 'PLAYTIME', 00H		; `string'
CONST	ENDS
;	COMDAT ??_C@_0O@JLNOPGFK@SKILL_SUPPORT@
CONST	SEGMENT
??_C@_0O@JLNOPGFK@SKILL_SUPPORT@ DB 'SKILL_SUPPORT', 00H ; `string'
CONST	ENDS
;	COMDAT ??_C@_0N@DNBJLBPA@SKILL_ACTIVE@
CONST	SEGMENT
??_C@_0N@DNBJLBPA@SKILL_ACTIVE@ DB 'SKILL_ACTIVE', 00H	; `string'
CONST	ENDS
;	COMDAT ??_C@_04KNIOFKKL@STAT@
CONST	SEGMENT
??_C@_04KNIOFKKL@STAT@ DB 'STAT', 00H			; `string'
CONST	ENDS
;	COMDAT ??_C@_0O@DGEPJFAK@SKILL_PASSIVE@
CONST	SEGMENT
??_C@_0O@DGEPJFAK@SKILL_PASSIVE@ DB 'SKILL_PASSIVE', 00H ; `string'
CONST	ENDS
;	COMDAT ??_C@_07KGCDIDGL@MAG_DEF@
CONST	SEGMENT
??_C@_07KGCDIDGL@MAG_DEF@ DB 'MAG_DEF', 00H		; `string'
CONST	ENDS
;	COMDAT ??_C@_0N@JIFCAIPA@EMPIRE_POINT@
CONST	SEGMENT
??_C@_0N@JIFCAIPA@EMPIRE_POINT@ DB 'EMPIRE_POINT', 00H	; `string'
CONST	ENDS
;	COMDAT ??_C@_0O@IOLIEEIE@CASTING_SPEED@
CONST	SEGMENT
??_C@_0O@IOLIEEIE@CASTING_SPEED@ DB 'CASTING_SPEED', 00H ; `string'
CONST	ENDS
;	COMDAT ??_C@_07PEONMKMN@MAG_ATT@
CONST	SEGMENT
??_C@_07PEONMKMN@MAG_ATT@ DB 'MAG_ATT', 00H		; `string'
CONST	ENDS
;	COMDAT ??_C@_09KMPFCDFE@DEF_GRADE@
CONST	SEGMENT
??_C@_09KMPFCDFE@DEF_GRADE@ DB 'DEF_GRADE', 00H		; `string'
CONST	ENDS
;	COMDAT ??_C@_09DNFHINBC@DEF_BONUS@
CONST	SEGMENT
??_C@_09DNFHINBC@DEF_BONUS@ DB 'DEF_BONUS', 00H		; `string'
CONST	ENDS
;	COMDAT ??_C@_0L@IPHIKIMB@EVADE_RATE@
CONST	SEGMENT
??_C@_0L@IPHIKIMB@EVADE_RATE@ DB 'EVADE_RATE', 00H	; `string'
CONST	ENDS
;	COMDAT ??_C@_0N@KGGLAJKM@MOVING_SPEED@
CONST	SEGMENT
??_C@_0N@KGGLAJKM@MOVING_SPEED@ DB 'MOVING_SPEED', 00H	; `string'
CONST	ENDS
;	COMDAT ??_C@_09LKMFFHLI@ATT_SPEED@
CONST	SEGMENT
??_C@_09LKMFFHLI@ATT_SPEED@ DB 'ATT_SPEED', 00H		; `string'
CONST	ENDS
;	COMDAT ??_C@_09FOFLCGDC@ATT_BONUS@
CONST	SEGMENT
??_C@_09FOFLCGDC@ATT_BONUS@ DB 'ATT_BONUS', 00H		; `string'
CONST	ENDS
;	COMDAT ??_C@_0O@CJNCLCGL@MIN_MAGIC_WEP@
CONST	SEGMENT
??_C@_0O@CJNCLCGL@MIN_MAGIC_WEP@ DB 'MIN_MAGIC_WEP', 00H ; `string'
CONST	ENDS
;	COMDAT ??_C@_0O@JAPECJBK@MAX_MAGIC_WEP@
CONST	SEGMENT
??_C@_0O@JAPECJBK@MAX_MAGIC_WEP@ DB 'MAX_MAGIC_WEP', 00H ; `string'
CONST	ENDS
;	COMDAT ??_C@_07PNODGJJO@ATT_MIN@
CONST	SEGMENT
??_C@_07PNODGJJO@ATT_MIN@ DB 'ATT_MIN', 00H		; `string'
CONST	ENDS
;	COMDAT ??_C@_07OPGIINPB@ATT_MAX@
CONST	SEGMENT
??_C@_07OPGIINPB@ATT_MAX@ DB 'ATT_MAX', 00H		; `string'
CONST	ENDS
;	COMDAT ??_C@_02NMFFPMLH@IQ@
CONST	SEGMENT
??_C@_02NMFFPMLH@IQ@ DB 'IQ', 00H			; `string'
CONST	ENDS
;	COMDAT ??_C@_09DIGJAPIG@ATT_POWER@
CONST	SEGMENT
??_C@_09DIGJAPIG@ATT_POWER@ DB 'ATT_POWER', 00H		; `string'
CONST	ENDS
;	COMDAT ??_C@_02KAOAGCMF@HT@
CONST	SEGMENT
??_C@_02KAOAGCMF@HT@ DB 'HT', 00H			; `string'
CONST	ENDS
;	COMDAT ??_C@_02FEPNEKN@DX@
CONST	SEGMENT
??_C@_02FEPNEKN@DX@ DB 'DX', 00H			; `string'
CONST	ENDS
;	COMDAT ??_C@_03BIHMGKIG@ELK@
CONST	SEGMENT
??_C@_03BIHMGKIG@ELK@ DB 'ELK', 00H			; `string'
CONST	ENDS
;	COMDAT ??_C@_02LAJDCOFE@ST@
CONST	SEGMENT
??_C@_02LAJDCOFE@ST@ DB 'ST', 00H			; `string'
CONST	ENDS
;	COMDAT ??_C@_07IHPDJFBP@STAMINA@
CONST	SEGMENT
??_C@_07IHPDJFBP@STAMINA@ DB 'STAMINA', 00H		; `string'
CONST	ENDS
;	COMDAT ??_C@_0M@CHCGLEDD@MAX_STAMINA@
CONST	SEGMENT
??_C@_0M@CHCGLEDD@MAX_STAMINA@ DB 'MAX_STAMINA', 00H	; `string'
CONST	ENDS
;	COMDAT ??_C@_02NEPPOLFA@SP@
CONST	SEGMENT
??_C@_02NEPPOLFA@SP@ DB 'SP', 00H			; `string'
CONST	ENDS
;	COMDAT ??_C@_06MMAHLLLC@MAX_SP@
CONST	SEGMENT
??_C@_06MMAHLLLC@MAX_SP@ DB 'MAX_SP', 00H		; `string'
CONST	ENDS
;	COMDAT ??_C@_02MEIMKHMB@HP@
CONST	SEGMENT
??_C@_02MEIMKHMB@HP@ DB 'HP', 00H			; `string'
CONST	ENDS
;	COMDAT ??_C@_06NMHEPHCD@MAX_HP@
CONST	SEGMENT
??_C@_06NMHEPHCD@MAX_HP@ DB 'MAX_HP', 00H		; `string'
CONST	ENDS
;	COMDAT ??_C@_03KKGFKKLA@EXP@
CONST	SEGMENT
??_C@_03KKGFKKLA@EXP@ DB 'EXP', 00H			; `string'
CONST	ENDS
;	COMDAT ??_C@_08CHGDMADF@NEXT_EXP@
CONST	SEGMENT
??_C@_08CHGDMADF@NEXT_EXP@ DB 'NEXT_EXP', 00H		; `string'
CONST	ENDS
;	COMDAT ??_C@_05GCEPFMCO@LEVEL@
CONST	SEGMENT
??_C@_05GCEPFMCO@LEVEL@ DB 'LEVEL', 00H			; `string'
CONST	ENDS
;	COMDAT ??_C@_05FHIHOFEA@VOICE@
CONST	SEGMENT
??_C@_05FHIHOFEA@VOICE@ DB 'VOICE', 00H			; `string'
CONST	ENDS
;	COMDAT ??_C@_0BF@PLGNHJMH@SendDragonSoulRefine@
CONST	SEGMENT
??_C@_0BF@PLGNHJMH@SendDragonSoulRefine@ DB 'SendDragonSoulRefine', 00H ; `string'
CONST	ENDS
;	COMDAT ??_C@_06BALNJMNP@player@
CONST	SEGMENT
??_C@_06BALNJMNP@player@ DB 'player', 00H		; `string'
CONST	ENDS
;	COMDAT ??_C@_0M@DGFCHEAA@GetItemLink@
CONST	SEGMENT
??_C@_0M@DGFCHEAA@GetItemLink@ DB 'GetItemLink', 00H	; `string'
CONST	ENDS
;	COMDAT ??_C@_0BE@IOMKCPHN@SlotTypeToInvenType@
CONST	SEGMENT
??_C@_0BE@IOMKCPHN@SlotTypeToInvenType@ DB 'SlotTypeToInvenType', 00H ; `string'
CONST	ENDS
;	COMDAT ??_C@_0BB@KPGENMF@SetItemAttribute@
CONST	SEGMENT
??_C@_0BB@KPGENMF@SetItemAttribute@ DB 'SetItemAttribute', 00H ; `string'
CONST	ENDS
;	COMDAT ??_C@_0N@MABOHHMK@SetItemCount@
CONST	SEGMENT
??_C@_0N@MABOHHMK@SetItemCount@ DB 'SetItemCount', 00H	; `string'
CONST	ENDS
;	COMDAT ??_C@_0M@CHNGAPIB@SetItemData@
CONST	SEGMENT
??_C@_0M@CHNGAPIB@SetItemData@ DB 'SetItemData', 00H	; `string'
CONST	ENDS
;	COMDAT ??_C@_0BD@GLMLJBGM@SetItemMetinSocket@
CONST	SEGMENT
??_C@_0BD@GLMLJBGM@SetItemMetinSocket@ DB 'SetItemMetinSocket', 00H ; `string'
CONST	ENDS
;	COMDAT ??_C@_0BB@DJKKOCLB@ToggleLevelLimit@
CONST	SEGMENT
??_C@_0BB@DJKKOCLB@ToggleLevelLimit@ DB 'ToggleLevelLimit', 00H ; `string'
CONST	ENDS
;	COMDAT ??_C@_0N@MEKPPHGC@GetTargetVID@
CONST	SEGMENT
??_C@_0N@MEKPPHGC@GetTargetVID@ DB 'GetTargetVID', 00H	; `string'
CONST	ENDS
;	COMDAT ??_C@_0BJ@CFCMHNHB@SetWeaponAttackBonusFlag@
CONST	SEGMENT
??_C@_0BJ@CFCMHNHB@SetWeaponAttackBonusFlag@ DB 'SetWeaponAttackBonusFlag'
	DB	00H						; `string'
CONST	ENDS
;	COMDAT ??_C@_0P@ILOOLMDH@ToggleCoolTime@
CONST	SEGMENT
??_C@_0P@ILOOLMDH@ToggleCoolTime@ DB 'ToggleCoolTime', 00H ; `string'
CONST	ENDS
;	COMDAT ??_C@_0BE@PMDABIKP@RegisterEmotionIcon@
CONST	SEGMENT
??_C@_0BE@PMDABIKP@RegisterEmotionIcon@ DB 'RegisterEmotionIcon', 00H ; `string'
CONST	ENDS
;	COMDAT ??_C@_0BE@FELKHKJF@GetEmotionIconImage@
CONST	SEGMENT
??_C@_0BE@FELKHKJF@GetEmotionIconImage@ DB 'GetEmotionIconImage', 00H ; `string'
CONST	ENDS
;	COMDAT ??_C@_09IMMFEEHK@GetPKMode@
CONST	SEGMENT
??_C@_09IMMFEEHK@GetPKMode@ DB 'GetPKMode', 00H		; `string'
CONST	ENDS
;	COMDAT ??_C@_0BF@CLGCEOLO@HasMobilePhoneNumber@
CONST	SEGMENT
??_C@_0BF@CLGCEOLO@HasMobilePhoneNumber@ DB 'HasMobilePhoneNumber', 00H ; `string'
CONST	ENDS
;	COMDAT ??_C@_0BG@EEFAFMJC@GetPartyMemberAffects@
CONST	SEGMENT
??_C@_0BG@EEFAFMJC@GetPartyMemberAffects@ DB 'GetPartyMemberAffects', 00H ; `string'
CONST	ENDS
;	COMDAT ??_C@_09DMPBEJCG@ExitParty@
CONST	SEGMENT
??_C@_09DMPBEJCG@ExitParty@ DB 'ExitParty', 00H		; `string'
CONST	ENDS
;	COMDAT ??_C@_0BL@EPAFEFHI@GetPartyMemberHPPercentage@
CONST	SEGMENT
??_C@_0BL@EPAFEFHI@GetPartyMemberHPPercentage@ DB 'GetPartyMemberHPPercen'
	DB	'tage', 00H					; `string'
CONST	ENDS
;	COMDAT ??_C@_0BE@HKIJMBKK@GetPartyMemberState@
CONST	SEGMENT
??_C@_0BE@HKIJMBKK@GetPartyMemberState@ DB 'GetPartyMemberState', 00H ; `string'
CONST	ENDS
;	COMDAT ??_C@_0O@BPMJGNAC@IsPartyLeader@
CONST	SEGMENT
??_C@_0O@BPMJGNAC@IsPartyLeader@ DB 'IsPartyLeader', 00H ; `string'
CONST	ENDS
;	COMDAT ??_C@_0BD@HGKJMFNK@IsPartyLeaderByPID@
CONST	SEGMENT
??_C@_0BD@HGKJMFNK@IsPartyLeaderByPID@ DB 'IsPartyLeaderByPID', 00H ; `string'
CONST	ENDS
;	COMDAT ??_C@_09EECGCJDE@SetTarget@
CONST	SEGMENT
??_C@_09EECGCJDE@SetTarget@ DB 'SetTarget', 00H		; `string'
CONST	ENDS
;	COMDAT ??_C@_0BC@HAEJEFBP@OpenCharacterMenu@
CONST	SEGMENT
??_C@_0BC@HAEJEFBP@OpenCharacterMenu@ DB 'OpenCharacterMenu', 00H ; `string'
CONST	ENDS
;	COMDAT ??_C@_0BE@ELNKJPMC@IsRefineGradeScroll@
CONST	SEGMENT
??_C@_0BE@ELNKJPMC@IsRefineGradeScroll@ DB 'IsRefineGradeScroll', 00H ; `string'
CONST	ENDS
;	COMDAT ??_C@_0M@DPCEEMCG@ClearTarget@
CONST	SEGMENT
??_C@_0M@DPCEEMCG@ClearTarget@ DB 'ClearTarget', 00H	; `string'
CONST	ENDS
;	COMDAT ??_C@_09FHINBOHC@CanUnlock@
CONST	SEGMENT
??_C@_09FHINBOHC@CanUnlock@ DB 'CanUnlock', 00H		; `string'
CONST	ENDS
;	COMDAT ??_C@_0P@BLOGPKFO@CanAttachMetin@
CONST	SEGMENT
??_C@_0P@BLOGPKFO@CanAttachMetin@ DB 'CanAttachMetin', 00H ; `string'
CONST	ENDS
;	COMDAT ??_C@_09BGNCJJP@CanRefine@
CONST	SEGMENT
??_C@_09BGNCJJP@CanRefine@ DB 'CanRefine', 00H		; `string'
CONST	ENDS
;	COMDAT ??_C@_09GHIBIBHI@CanDetach@
CONST	SEGMENT
??_C@_09GHIBIBHI@CanDetach@ DB 'CanDetach', 00H		; `string'
CONST	ENDS
;	COMDAT ??_C@_0BN@DKGNHJIB@IsAvailableBeltInventoryCell@
CONST	SEGMENT
??_C@_0BN@DKGNHJIB@IsAvailableBeltInventoryCell@ DB 'IsAvailableBeltInven'
	DB	'toryCell', 00H				; `string'
CONST	ENDS
;	COMDAT ??_C@_0N@DGHEMMKN@GetItemGrade@
CONST	SEGMENT
??_C@_0N@DGHEMMKN@GetItemGrade@ DB 'GetItemGrade', 00H	; `string'
CONST	ENDS
;	COMDAT ??_C@_0BE@HECMLJG@IsBeltInventorySlot@
CONST	SEGMENT
??_C@_0BE@HECMLJG@IsBeltInventorySlot@ DB 'IsBeltInventorySlot', 00H ; `string'
CONST	ENDS
;	COMDAT ??_C@_0BA@OBALOJLG@IsEquippingBelt@
CONST	SEGMENT
??_C@_0BA@OBALOJLG@IsEquippingBelt@ DB 'IsEquippingBelt', 00H ; `string'
CONST	ENDS
;	COMDAT ??_C@_0P@LAJFBPPH@IsValuableItem@
CONST	SEGMENT
??_C@_0P@LAJFBPPH@IsValuableItem@ DB 'IsValuableItem', 00H ; `string'
CONST	ENDS
;	COMDAT ??_C@_0BC@DCFDMADN@IsOpenPrivateShop@
CONST	SEGMENT
??_C@_0BC@DCFDMADN@IsOpenPrivateShop@ DB 'IsOpenPrivateShop', 00H ; `string'
CONST	ENDS
;	COMDAT ??_C@_0BC@DDCIGDKO@IsDSEquipmentSlot@
CONST	SEGMENT
??_C@_0BC@DDCIGDKO@IsDSEquipmentSlot@ DB 'IsDSEquipmentSlot', 00H ; `string'
CONST	ENDS
;	COMDAT ??_C@_0O@KCAGNEAI@IsCostumeSlot@
CONST	SEGMENT
??_C@_0O@KCAGNEAI@IsCostumeSlot@ DB 'IsCostumeSlot', 00H ; `string'
CONST	ENDS
;	COMDAT ??_C@_06NOPKEHAK@isItem@
CONST	SEGMENT
??_C@_06NOPKEHAK@isItem@ DB 'isItem', 00H		; `string'
CONST	ENDS
;	COMDAT ??_C@_0BA@EMKHGGAL@IsEquipmentSlot@
CONST	SEGMENT
??_C@_0BA@EMKHGGAL@IsEquipmentSlot@ DB 'IsEquipmentSlot', 00H ; `string'
CONST	ENDS
;	COMDAT ??_C@_0BD@ECGPDHPA@GetGlobalQuickSlot@
CONST	SEGMENT
??_C@_0BD@ECGPDHPA@GetGlobalQuickSlot@ DB 'GetGlobalQuickSlot', 00H ; `string'
CONST	ENDS
;	COMDAT ??_C@_0BH@JNCIKJMC@RemoveQuickSlotByValue@
CONST	SEGMENT
??_C@_0BH@JNCIKJMC@RemoveQuickSlotByValue@ DB 'RemoveQuickSlotByValue', 00H ; `string'
CONST	ENDS
;	COMDAT ??_C@_0N@KPHBLMNM@SetQuickPage@
CONST	SEGMENT
??_C@_0N@KPHBLMNM@SetQuickPage@ DB 'SetQuickPage', 00H	; `string'
CONST	ENDS
;	COMDAT ??_C@_0BC@LNKMMBDG@GetLocalQuickSlot@
CONST	SEGMENT
??_C@_0BC@LNKMMBDG@GetLocalQuickSlot@ DB 'GetLocalQuickSlot', 00H ; `string'
CONST	ENDS
;	COMDAT ??_C@_0CK@GNGKFIDB@LocalQuickSlotIndexToGlobalQuic@
CONST	SEGMENT
??_C@_0CK@GNGKFIDB@LocalQuickSlotIndexToGlobalQuic@ DB 'LocalQuickSlotInd'
	DB	'exToGlobalQuickSlotIndex', 00H		; `string'
CONST	ENDS
;	COMDAT ??_C@_0N@NLMPHAJA@GetQuickPage@
CONST	SEGMENT
??_C@_0N@NLMPHAJA@GetQuickPage@ DB 'GetQuickPage', 00H	; `string'
CONST	ENDS
;	COMDAT ??_C@_0CL@IEMBKGLN@RequestMoveGlobalQuickSlotToLoc@
CONST	SEGMENT
??_C@_0CL@IEMBKGLN@RequestMoveGlobalQuickSlotToLoc@ DB 'RequestMoveGlobal'
	DB	'QuickSlotToLocalQuickSlot', 00H		; `string'
CONST	ENDS
;	COMDAT ??_C@_0BJ@IBBGPDPH@RequestUseLocalQuickSlot@
CONST	SEGMENT
??_C@_0BJ@IBBGPDPH@RequestUseLocalQuickSlot@ DB 'RequestUseLocalQuickSlot'
	DB	00H						; `string'
CONST	ENDS
;	COMDAT ??_C@_0CA@JMFCJJPL@RequestAddToEmptyLocalQuickSlot@
CONST	SEGMENT
??_C@_0CA@JMFCJJPL@RequestAddToEmptyLocalQuickSlot@ DB 'RequestAddToEmpty'
	DB	'LocalQuickSlot', 00H			; `string'
CONST	ENDS
;	COMDAT ??_C@_0BN@NACLJDMA@RequestDeleteGlobalQuickSlot@
CONST	SEGMENT
??_C@_0BN@NACLJDMA@RequestDeleteGlobalQuickSlot@ DB 'RequestDeleteGlobalQ'
	DB	'uickSlot', 00H				; `string'
CONST	ENDS
;	COMDAT ??_C@_0BB@LANDCIKG@GetAlignmentData@
CONST	SEGMENT
??_C@_0BB@LANDCIKG@GetAlignmentData@ DB 'GetAlignmentData', 00H ; `string'
CONST	ENDS
;	COMDAT ??_C@_0BJ@DNLGAMEO@RequestAddLocalQuickSlot@
CONST	SEGMENT
??_C@_0BJ@DNLGAMEO@RequestAddLocalQuickSlot@ DB 'RequestAddLocalQuickSlot'
	DB	00H						; `string'
CONST	ENDS
;	COMDAT ??_C@_06NMFKJLLH@GetElk@
CONST	SEGMENT
??_C@_06NMFKJLLH@GetElk@ DB 'GetElk', 00H		; `string'
CONST	ENDS
;	COMDAT ??_C@_08OAJFGNBC@GetMoney@
CONST	SEGMENT
??_C@_08OAJFGNBC@GetMoney@ DB 'GetMoney', 00H		; `string'
CONST	ENDS
;	COMDAT ??_C@_09MKFEIFJE@GetStatus@
CONST	SEGMENT
??_C@_09MKFEIFJE@GetStatus@ DB 'GetStatus', 00H		; `string'
CONST	ENDS
;	COMDAT ??_C@_09OEBBKEAG@SetStatus@
CONST	SEGMENT
??_C@_09OEBBKEAG@SetStatus@ DB 'SetStatus', 00H		; `string'
CONST	ENDS
;	COMDAT ??_C@_0BI@JIGEMOFF@AffectIndexToSkillIndex@
CONST	SEGMENT
??_C@_0BI@JIGEMOFF@AffectIndexToSkillIndex@ DB 'AffectIndexToSkillIndex', 00H ; `string'
CONST	ENDS
;	COMDAT ??_C@_06MDIKDJMD@GetEXP@
CONST	SEGMENT
??_C@_06MDIKDJMD@GetEXP@ DB 'GetEXP', 00H		; `string'
CONST	ENDS
;	COMDAT ??_C@_0O@IAPCJJAC@IsSkillActive@
CONST	SEGMENT
??_C@_0O@IAPCJJAC@IsSkillActive@ DB 'IsSkillActive', 00H ; `string'
CONST	ENDS
;	COMDAT ??_C@_0O@HHBOBCLE@UseGuildSkill@
CONST	SEGMENT
??_C@_0O@HHBOBCLE@UseGuildSkill@ DB 'UseGuildSkill', 00H ; `string'
CONST	ENDS
;	COMDAT ??_C@_0BA@FOPKKJJD@IsSkillCoolTime@
CONST	SEGMENT
??_C@_0BA@FOPKKJJD@IsSkillCoolTime@ DB 'IsSkillCoolTime', 00H ; `string'
CONST	ENDS
;	COMDAT ??_C@_0BB@CNGGKNGL@GetSkillCoolTime@
CONST	SEGMENT
??_C@_0BB@CNGGKNGL@GetSkillCoolTime@ DB 'GetSkillCoolTime', 00H ; `string'
CONST	ENDS
;	COMDAT ??_C@_0M@DJDCIBLO@GetPlayTime@
CONST	SEGMENT
??_C@_0M@DJDCIBLO@GetPlayTime@ DB 'GetPlayTime', 00H	; `string'
CONST	ENDS
;	COMDAT ??_C@_0M@DGCMFHDN@SetPlayTime@
CONST	SEGMENT
??_C@_0M@DGCMFHDN@SetPlayTime@ DB 'SetPlayTime', 00H	; `string'
CONST	ENDS
;	COMDAT ??_C@_0BE@DBIFLBAC@SendClickItemPacket@
CONST	SEGMENT
??_C@_0BE@DBIFLBAC@SendClickItemPacket@ DB 'SendClickItemPacket', 00H ; `string'
CONST	ENDS
;	COMDAT ??_C@_06FHLNIOPB@GetJob@
CONST	SEGMENT
??_C@_06FHLNIOPB@GetJob@ DB 'GetJob', 00H		; `string'
CONST	ENDS
;	COMDAT ??_C@_0BB@GOKPPDHH@GetItemAttribute@
CONST	SEGMENT
??_C@_0BB@GOKPPDHH@GetItemAttribute@ DB 'GetItemAttribute', 00H ; `string'
CONST	ENDS
;	COMDAT ??_C@_08MHJANHDM@MoveItem@
CONST	SEGMENT
??_C@_08MHJANHDM@MoveItem@ DB 'MoveItem', 00H		; `string'
CONST	ENDS
;	COMDAT ??_C@_0BD@DBLILMFK@GetItemCountByVnum@
CONST	SEGMENT
??_C@_0BD@DBLILMFK@GetItemCountByVnum@ DB 'GetItemCountByVnum', 00H ; `string'
CONST	ENDS
;	COMDAT ??_C@_0BD@JBOBKHIE@GetItemMetinSocket@
CONST	SEGMENT
??_C@_0BD@JBOBKHIE@GetItemMetinSocket@ DB 'GetItemMetinSocket', 00H ; `string'
CONST	ENDS
;	COMDAT ??_C@_0N@DMCGDNGF@GetItemFlags@
CONST	SEGMENT
??_C@_0N@DMCGDNGF@GetItemFlags@ DB 'GetItemFlags', 00H	; `string'
CONST	ENDS
;	COMDAT ??_C@_0N@LEKALLIG@GetItemCount@
CONST	SEGMENT
??_C@_0N@LEKALLIG@GetItemCount@ DB 'GetItemCount', 00H	; `string'
CONST	ENDS
;	COMDAT ??_C@_0P@MJOJKOJJ@ClearSkillDict@
CONST	SEGMENT
??_C@_0P@MJOJKOJJ@ClearSkillDict@ DB 'ClearSkillDict', 00H ; `string'
CONST	ENDS
;	COMDAT ??_C@_0N@GABOCBEH@GetItemIndex@
CONST	SEGMENT
??_C@_0N@GABOCBEH@GetItemIndex@ DB 'GetItemIndex', 00H	; `string'
CONST	ENDS
;	COMDAT ??_C@_0P@IGNHDBHH@ClickSkillSlot@
CONST	SEGMENT
??_C@_0P@IGNHDBHH@ClickSkillSlot@ DB 'ClickSkillSlot', 00H ; `string'
CONST	ENDS
;	COMDAT ??_C@_0BN@BPJDEKED@ChangeCurrentSkillNumberOnly@
CONST	SEGMENT
??_C@_0BN@BPJDEKED@ChangeCurrentSkillNumberOnly@ DB 'ChangeCurrentSkillNu'
	DB	'mberOnly', 00H				; `string'
CONST	ENDS
;	COMDAT ??_C@_0CD@EFGGIKHI@GetSkillCurrentEfficientPercent@
CONST	SEGMENT
??_C@_0CD@EFGGIKHI@GetSkillCurrentEfficientPercent@ DB 'GetSkillCurrentEf'
	DB	'ficientPercentage', 00H			; `string'
CONST	ENDS
;	COMDAT ??_C@_0CA@JHGONPGM@GetSkillNextEfficientPercentage@
CONST	SEGMENT
??_C@_0CA@JHGONPGM@GetSkillNextEfficientPercentage@ DB 'GetSkillNextEffic'
	DB	'ientPercentage', 00H			; `string'
CONST	ENDS
;	COMDAT ??_C@_0BC@HNJMANI@GetSkillSlotIndex@
CONST	SEGMENT
??_C@_0BC@HNJMANI@GetSkillSlotIndex@ DB 'GetSkillSlotIndex', 00H ; `string'
CONST	ENDS
;	COMDAT ??_C@_0O@IIOIANPE@GetSkillGrade@
CONST	SEGMENT
??_C@_0O@IIOIANPE@GetSkillGrade@ DB 'GetSkillGrade', 00H ; `string'
CONST	ENDS
;	COMDAT ??_C@_0BD@DPHLFGPP@SetQuickCameraMode@
CONST	SEGMENT
??_C@_0BD@DPHLFGPP@SetQuickCameraMode@ DB 'SetQuickCameraMode', 00H ; `string'
CONST	ENDS
;	COMDAT ??_C@_08HIFGFOGG@SetSkill@
CONST	SEGMENT
??_C@_08HIFGFOGG@SetSkill@ DB 'SetSkill', 00H		; `string'
CONST	ENDS
;	COMDAT ??_C@_0BA@JEOKFDLP@EndMouseWalking@
CONST	SEGMENT
??_C@_0BA@JEOKFDLP@EndMouseWalking@ DB 'EndMouseWalking', 00H ; `string'
CONST	ENDS
;	COMDAT ??_C@_0BE@MCFGJOPA@ResetCameraRotation@
CONST	SEGMENT
??_C@_0BE@MCFGJOPA@ResetCameraRotation@ DB 'ResetCameraRotation', 00H ; `string'
CONST	ENDS
;	COMDAT ??_C@_0BJ@HGLJKHIH@EndKeyWalkingImmediately@
CONST	SEGMENT
??_C@_0BJ@HGLJKHIH@EndKeyWalkingImmediately@ DB 'EndKeyWalkingImmediately'
	DB	00H						; `string'
CONST	ENDS
;	COMDAT ??_C@_0BC@NCHFPCDM@StartMouseWalking@
CONST	SEGMENT
??_C@_0BC@NCHFPCDM@StartMouseWalking@ DB 'StartMouseWalking', 00H ; `string'
CONST	ENDS
;	COMDAT ??_C@_0BC@DAIEHFBH@SetAttackKeyState@
CONST	SEGMENT
??_C@_0BC@DAIEHFBH@SetAttackKeyState@ DB 'SetAttackKeyState', 00H ; `string'
CONST	ENDS
;	COMDAT ??_C@_0BF@PNJNANBI@SetSingleDIKKeyState@
CONST	SEGMENT
??_C@_0BF@PNJNANBI@SetSingleDIKKeyState@ DB 'SetSingleDIKKeyState', 00H ; `string'
CONST	ENDS
;	COMDAT ??_C@_0M@GOCDIKPN@ComboAttack@
CONST	SEGMENT
??_C@_0M@GOCDIKPN@ComboAttack@ DB 'ComboAttack', 00H	; `string'
CONST	ENDS
;	COMDAT ??_C@_0BL@IEKDAKHC@SetAutoCameraRotationSpeed@
CONST	SEGMENT
??_C@_0BL@IEKDAKHC@SetAutoCameraRotationSpeed@ DB 'SetAutoCameraRotationS'
	DB	'peed', 00H					; `string'
CONST	ENDS
;	COMDAT ??_C@_0L@CPMIOCIM@ShowPlayer@
CONST	SEGMENT
??_C@_0L@CPMIOCIM@ShowPlayer@ DB 'ShowPlayer', 00H	; `string'
CONST	ENDS
;	COMDAT ??_C@_0L@PBBGGCLG@HidePlayer@
CONST	SEGMENT
??_C@_0L@PBBGGCLG@HidePlayer@ DB 'HidePlayer', 00H	; `string'
CONST	ENDS
;	COMDAT ??_C@_0P@LDENHACE@IsObserverMode@
CONST	SEGMENT
??_C@_0P@LDENHACE@IsObserverMode@ DB 'IsObserverMode', 00H ; `string'
CONST	ENDS
;	COMDAT ??_C@_0L@JEBGMNAH@ActEmotion@
CONST	SEGMENT
??_C@_0L@JEBGMNAH@ActEmotion@ DB 'ActEmotion', 00H	; `string'
CONST	ENDS
;	COMDAT ??_C@_0N@IKPCBCPA@IsInSafeArea@
CONST	SEGMENT
??_C@_0N@IKPCBCPA@IsInSafeArea@ DB 'IsInSafeArea', 00H	; `string'
CONST	ENDS
;	COMDAT ??_C@_0BA@GFJLKENO@IsMountingHorse@
CONST	SEGMENT
??_C@_0BA@GFJLKENO@IsMountingHorse@ DB 'IsMountingHorse', 00H ; `string'
CONST	ENDS
;	COMDAT ??_C@_0BE@HJOMPGKI@IsCantFightInstance@
CONST	SEGMENT
??_C@_0BE@HJOMPGKI@IsCantFightInstance@ DB 'IsCantFightInstance', 00H ; `string'
CONST	ENDS
;	COMDAT ??_C@_0BF@DABJOKIF@GetCharacterDistance@
CONST	SEGMENT
??_C@_0BF@DABJOKIF@GetCharacterDistance@ DB 'GetCharacterDistance', 00H ; `string'
CONST	ENDS
;	COMDAT ??_C@_0BE@FOIPHJLO@IsChallengeInstance@
CONST	SEGMENT
??_C@_0BE@FOIPHJLO@IsChallengeInstance@ DB 'IsChallengeInstance', 00H ; `string'
CONST	ENDS
;	COMDAT ??_C@_0BC@IKOEAPGC@IsRevengeInstance@
CONST	SEGMENT
??_C@_0BC@IKOEAPGC@IsRevengeInstance@ DB 'IsRevengeInstance', 00H ; `string'
CONST	ENDS
;	COMDAT ??_C@_0O@ECCODAC@IsPVPInstance@
CONST	SEGMENT
??_C@_0O@ECCODAC@IsPVPInstance@ DB 'IsPVPInstance', 00H	; `string'
CONST	ENDS
;	COMDAT ??_C@_0N@CBEDFALN@IsSameEmpire@
CONST	SEGMENT
??_C@_0N@CBEDFALN@IsSameEmpire@ DB 'IsSameEmpire', 00H	; `string'
CONST	ENDS
;	COMDAT ??_C@_0BC@FLPEGJDD@CanAttackInstance@
CONST	SEGMENT
??_C@_0BC@FLPEGJDD@CanAttackInstance@ DB 'CanAttackInstance', 00H ; `string'
CONST	ENDS
;	COMDAT ??_C@_0BA@ODCBPOEF@IsActingEmotion@
CONST	SEGMENT
??_C@_0BA@ODCBPOEF@IsActingEmotion@ DB 'IsActingEmotion', 00H ; `string'
CONST	ENDS
;	COMDAT ??_C@_0BJ@GIKFEPMH@GetMainCharacterPosition@
CONST	SEGMENT
??_C@_0BJ@GIKFEPMH@GetMainCharacterPosition@ DB 'GetMainCharacterPosition'
	DB	00H						; `string'
CONST	ENDS
;	COMDAT ??_C@_0BF@GALHNOAL@IsMainCharacterIndex@
CONST	SEGMENT
??_C@_0BF@GALHNOAL@IsMainCharacterIndex@ DB 'IsMainCharacterIndex', 00H ; `string'
CONST	ENDS
;	COMDAT ??_C@_0BG@GHIKDJGB@GetMainCharacterIndex@
CONST	SEGMENT
??_C@_0BG@GHIKDJGB@GetMainCharacterIndex@ DB 'GetMainCharacterIndex', 00H ; `string'
CONST	ENDS
;	COMDAT ??_C@_0BF@OMDPKDFM@GetMainCharacterName@
CONST	SEGMENT
??_C@_0BF@OMDPKDFM@GetMainCharacterName@ DB 'GetMainCharacterName', 00H ; `string'
CONST	ENDS
;	COMDAT ??_C@_0BK@JBJLNCBH@SetMouseMiddleButtonState@
CONST	SEGMENT
??_C@_0BK@JBJLNCBH@SetMouseMiddleButtonState@ DB 'SetMouseMiddleButtonSta'
	DB	'te', 00H					; `string'
CONST	ENDS
;	COMDAT ??_C@_0BG@JCNMOACA@SetMainCharacterIndex@
CONST	SEGMENT
??_C@_0BG@JCNMOACA@SetMainCharacterIndex@ DB 'SetMainCharacterIndex', 00H ; `string'
CONST	ENDS
;	COMDAT ??_C@_0N@LEJNPCGM@SetMouseFunc@
CONST	SEGMENT
??_C@_0N@LEJNPCGM@SetMouseFunc@ DB 'SetMouseFunc', 00H	; `string'
CONST	ENDS
;	COMDAT ??_C@_0N@MACDDOCA@GetMouseFunc@
CONST	SEGMENT
??_C@_0N@MACDDOCA@GetMouseFunc@ DB 'GetMouseFunc', 00H	; `string'
CONST	ENDS
;	COMDAT ??_C@_0O@MNPFFDEJ@SetGameWindow@
CONST	SEGMENT
??_C@_0O@MNPFFDEJ@SetGameWindow@ DB 'SetGameWindow', 00H ; `string'
CONST	ENDS
;	COMDAT ??_C@_0O@HDELDAFI@SetMouseState@
CONST	SEGMENT
??_C@_0O@HDELDAFI@SetMouseState@ DB 'SetMouseState', 00H ; `string'
CONST	ENDS
;	COMDAT ??_C@_0BC@CILJOCG@SetAutoPotionInfo@
CONST	SEGMENT
??_C@_0BC@CILJOCG@SetAutoPotionInfo@ DB 'SetAutoPotionInfo', 00H ; `string'
CONST	ENDS
;	COMDAT ??_C@_0O@MAEJALBO@PickCloseItem@
CONST	SEGMENT
??_C@_0O@MAEJALBO@PickCloseItem@ DB 'PickCloseItem', 00H ; `string'
CONST	ENDS
;	COMDAT ??_C@_04GPDILEAH@biii@
CONST	SEGMENT
??_C@_04GPDILEAH@biii@ DB 'biii', 00H			; `string'
CONST	ENDS
;	COMDAT ??_C@_0BC@CHIABFDI@GetAutoPotionInfo@
CONST	SEGMENT
??_C@_0BC@CHIABFDI@GetAutoPotionInfo@ DB 'GetAutoPotionInfo', 00H ; `string'
CONST	ENDS
;	COMDAT ??_C@_0BF@IBGKLIMC@can?8t?5find?5item?5data@
CONST	SEGMENT
??_C@_0BF@IBGKLIMC@can?8t?5find?5item?5data@ DB 'can''t find item data', 00H ; `string'
CONST	ENDS
;	COMDAT ??_C@_07EFJJEBFG@iiiiiii@
CONST	SEGMENT
??_C@_07EFJJEBFG@iiiiiii@ DB 'iiiiiii', 00H		; `string'
CONST	ENDS
;	COMDAT ??_C@_0BK@MGKBEPOF@?5?$HMh?$HMr?$FL?$CFs?$FN?$HMcfff1e6c0?$HMH?$CFs?$HMh@
CONST	SEGMENT
??_C@_0BK@MGKBEPOF@?5?$HMh?$HMr?$FL?$CFs?$FN?$HMcfff1e6c0?$HMH?$CFs?$HMh@ DB ' '
	DB	'|h|r[%s]|cfff1e6c0|H%s|h', 00H		; `string'
CONST	ENDS
;	COMDAT ??_C@_0BF@BGKCJNBK@Can?8t?5find?5item?5data@
CONST	SEGMENT
??_C@_0BF@BGKCJNBK@Can?8t?5find?5item?5data@ DB 'Can''t find item data', 00H ; `string'
CONST	ENDS
;	COMDAT ??_C@_06FAMCNHHL@?3?$CFx?3?$CFd@
CONST	SEGMENT
??_C@_06FAMCNHHL@?3?$CFx?3?$CFd@ DB ':%x:%d', 00H	; `string'
CONST	ENDS
;	COMDAT ??_C@_0BK@MCOKCAKI@?5?$HMh?$HMr?$FL?$CFs?$FN?$HMcffffc700?$HMH?$CFs?$HMh@
CONST	SEGMENT
??_C@_0BK@MCOKCAKI@?5?$HMh?$HMr?$FL?$CFs?$FN?$HMcffffc700?$HMH?$CFs?$HMh@ DB ' '
	DB	'|h|r[%s]|cffffc700|H%s|h', 00H		; `string'
CONST	ENDS
;	COMDAT ??_C@_02HPEDFNFO@ff@
CONST	SEGMENT
??_C@_02HPEDFNFO@ff@ DB 'ff', 00H			; `string'
CONST	ENDS
;	COMDAT ??_C@_01HHGOMJKL@l@
CONST	SEGMENT
??_C@_01HHGOMJKL@l@ DB 'l', 00H				; `string'
CONST	ENDS
;	COMDAT ??_C@_0EJ@BNKMOLIP@playerSetSingleDIKKeyState?$CIeDIK@
CONST	SEGMENT
??_C@_0EJ@BNKMOLIP@playerSetSingleDIKKeyState?$CIeDIK@ DB 'playerSetSingl'
	DB	'eDIKKeyState(eDIK, isPressed) - There is no first argument', 00H ; `string'
CONST	ENDS
;	COMDAT ??_C@_0EK@IDBGKDBN@playerSetSingleDIKKeyState?$CIeDIK@
CONST	SEGMENT
??_C@_0EK@IDBGKDBN@playerSetSingleDIKKeyState?$CIeDIK@ DB 'playerSetSingl'
	DB	'eDIKKeyState(eDIK, isPressed) - There is no second argument', 00H ; `string'
CONST	ENDS
;	COMDAT ??_C@_0DF@ILFGGFEI@CPythonPlayer?3?3RegisterEffect?$CIe@
CONST	SEGMENT
??_C@_0DF@ILFGGFEI@CPythonPlayer?3?3RegisterEffect?$CIe@ DB 'CPythonPlaye'
	DB	'r::RegisterEffect(eEft=%d, szFileName=%s', 00H ; `string'
CONST	ENDS
;	COMDAT ??_C@_0EA@OHLDKNFC@playerSetAttackKeyState?$CIisPress@
CONST	SEGMENT
??_C@_0EA@OHLDKNFC@playerSetAttackKeyState?$CIisPress@ DB 'playerSetAttac'
	DB	'kKeyState(isPressed) - There is no first argument', 00H ; `string'
?c_iSkillIndex_Riding@@3KB DD 082H			; c_iSkillIndex_Riding
?c_iSkillIndex_Summon@@3KB DD 083H			; c_iSkillIndex_Summon
?c_iSkillIndex_Combo@@3KB DD 07aH			; c_iSkillIndex_Combo
?c_iSkillIndex_Fishing@@3KB DD 07bH			; c_iSkillIndex_Fishing
PUBLIC	??$move@AAV?$tuple@ABH@std@@@std@@YA$$QAV?$tuple@ABH@0@AAV10@@Z ; std::move<std::tuple<int const &> &>
PUBLIC	??$forward@PAVCGraphicImage@@@std@@YA$$QAPAVCGraphicImage@@AAPAV1@@Z ; std::forward<CGraphicImage *>
PUBLIC	??$_Tuple_get@$0A@ABH@std@@YA$$QA_P$$QAV?$tuple@ABH@0@@Z ; std::_Tuple_get<0,int const &>
PUBLIC	??$?0V?$tuple@ABH@std@@V?$tuple@$$V@1@$0A@$$Z$S@?$pair@$$CBHPAVCGraphicImage@@@std@@AAE@AAV?$tuple@ABH@1@AAV?$tuple@$$V@1@U?$integer_sequence@I$0A@@1@U?$integer_sequence@I$S@1@@Z ; std::pair<int const ,CGraphicImage *>::pair<int const ,CGraphicImage *><std::tuple<int const &>,std::tuple<>,0>
PUBLIC	??$?0HPAVCGraphicImage@@$0A@@?$pair@$$CBHPAVCGraphicImage@@@std@@QAE@$$QAU?$pair@HPAVCGraphicImage@@@1@@Z ; std::pair<int const ,CGraphicImage *>::pair<int const ,CGraphicImage *><int,CGraphicImage *,0>
PUBLIC	?_Get_first@?$_Compressed_pair@V?$allocator@U?$_Tree_node@U?$pair@$$CBHPAVCGraphicImage@@@std@@PAX@std@@@std@@V?$_Tree_val@U?$_Tree_simple_types@U?$pair@$$CBHPAVCGraphicImage@@@std@@@std@@@2@$00@std@@QBEABV?$allocator@U?$_Tree_node@U?$pair@$$CBHPAVCGraphicImage@@@std@@PAX@std@@@2@XZ ; std::_Compressed_pair<std::allocator<std::_Tree_node<std::pair<int const ,CGraphicImage *>,void *> >,std::_Tree_val<std::_Tree_simple_types<std::pair<int const ,CGraphicImage *> > >,1>::_Get_first
PUBLIC	??$construct_at@PAU?$_Tree_node@U?$pair@$$CBHPAVCGraphicImage@@@std@@PAX@std@@ABQAU12@@std@@YAPAPAU?$_Tree_node@U?$pair@$$CBHPAVCGraphicImage@@@std@@PAX@0@QAPAU10@ABQAU10@@Z ; std::construct_at<std::_Tree_node<std::pair<int const ,CGraphicImage *>,void *> *,std::_Tree_node<std::pair<int const ,CGraphicImage *>,void *> * const &>
PUBLIC	??$?0ABH@?$_Tuple_val@ABH@std@@QAE@ABH@Z	; std::_Tuple_val<int const &>::_Tuple_val<int const &><int const &>
PUBLIC	??$construct_at@U?$pair@$$CBHPAVCGraphicImage@@@std@@U?$pair@HPAVCGraphicImage@@@2@@std@@YAPAU?$pair@$$CBHPAVCGraphicImage@@@0@QAU10@$$QAU?$pair@HPAVCGraphicImage@@@0@@Z ; std::construct_at<std::pair<int const ,CGraphicImage *>,std::pair<int,CGraphicImage *> >
PUBLIC	??$?0ABH$$Z$$V@?$pair@$$CBHPAVCGraphicImage@@@std@@QAE@Upiecewise_construct_t@1@V?$tuple@ABH@1@V?$tuple@$$V@1@@Z ; std::pair<int const ,CGraphicImage *>::pair<int const ,CGraphicImage *><int const &>
PUBLIC	??0?$tuple@ABH@std@@QAE@$$QAV01@@Z		; std::tuple<int const &>::tuple<int const &>
PUBLIC	?_Getal@?$_Tree@V?$_Tmap_traits@HPAVCGraphicImage@@U?$less@H@std@@V?$allocator@U?$pair@$$CBHPAVCGraphicImage@@@std@@@3@$0A@@std@@@std@@IBEABV?$allocator@U?$_Tree_node@U?$pair@$$CBHPAVCGraphicImage@@@std@@PAX@std@@@2@XZ ; std::_Tree<std::_Tmap_traits<int,CGraphicImage *,std::less<int>,std::allocator<std::pair<int const ,CGraphicImage *> >,0> >::_Getal
PUBLIC	??0?$allocator@U?$_Tree_node@U?$pair@$$CBHPAVCGraphicImage@@@std@@PAX@std@@@std@@QAE@XZ ; std::allocator<std::_Tree_node<std::pair<int const ,CGraphicImage *>,void *> >::allocator<std::_Tree_node<std::pair<int const ,CGraphicImage *>,void *> >
PUBLIC	?deallocate@?$allocator@U?$_Tree_node@U?$pair@$$CBHPAVCGraphicImage@@@std@@PAX@std@@@std@@QAEXQAU?$_Tree_node@U?$pair@$$CBHPAVCGraphicImage@@@std@@PAX@2@I@Z ; std::allocator<std::_Tree_node<std::pair<int const ,CGraphicImage *>,void *> >::deallocate
PUBLIC	?allocate@?$allocator@U?$_Tree_node@U?$pair@$$CBHPAVCGraphicImage@@@std@@PAX@std@@@std@@QAEPAU?$_Tree_node@U?$pair@$$CBHPAVCGraphicImage@@@std@@PAX@2@I@Z ; std::allocator<std::_Tree_node<std::pair<int const ,CGraphicImage *>,void *> >::allocate
PUBLIC	?max_size@?$_Default_allocator_traits@V?$allocator@U?$_Tree_node@U?$pair@$$CBHPAVCGraphicImage@@@std@@PAX@std@@@std@@@std@@SAIABV?$allocator@U?$_Tree_node@U?$pair@$$CBHPAVCGraphicImage@@@std@@PAX@std@@@2@@Z ; std::_Default_allocator_traits<std::allocator<std::_Tree_node<std::pair<int const ,CGraphicImage *>,void *> > >::max_size
PUBLIC	??0?$_Tree_val@U?$_Tree_simple_types@U?$pair@$$CBHPAVCGraphicImage@@@std@@@std@@@std@@QAE@XZ ; std::_Tree_val<std::_Tree_simple_types<std::pair<int const ,CGraphicImage *> > >::_Tree_val<std::_Tree_simple_types<std::pair<int const ,CGraphicImage *> > >
PUBLIC	?_Get_first@?$_Compressed_pair@U?$less@H@std@@V?$_Compressed_pair@V?$allocator@U?$_Tree_node@U?$pair@$$CBHPAVCGraphicImage@@@std@@PAX@std@@@std@@V?$_Tree_val@U?$_Tree_simple_types@U?$pair@$$CBHPAVCGraphicImage@@@std@@@std@@@2@$00@2@$00@std@@QBEABU?$less@H@2@XZ ; std::_Compressed_pair<std::less<int>,std::_Compressed_pair<std::allocator<std::_Tree_node<std::pair<int const ,CGraphicImage *>,void *> >,std::_Tree_val<std::_Tree_simple_types<std::pair<int const ,CGraphicImage *> > >,1>,1>::_Get_first
PUBLIC	??0?$_Alloc_construct_ptr@V?$allocator@U?$_Tree_node@U?$pair@$$CBHPAVCGraphicImage@@@std@@PAX@std@@@std@@@std@@QAE@AAV?$allocator@U?$_Tree_node@U?$pair@$$CBHPAVCGraphicImage@@@std@@PAX@std@@@1@@Z ; std::_Alloc_construct_ptr<std::allocator<std::_Tree_node<std::pair<int const ,CGraphicImage *>,void *> > >::_Alloc_construct_ptr<std::allocator<std::_Tree_node<std::pair<int const ,CGraphicImage *>,void *> > >
PUBLIC	?_Allocate@?$_Alloc_construct_ptr@V?$allocator@U?$_Tree_node@U?$pair@$$CBHPAVCGraphicImage@@@std@@PAX@std@@@std@@@std@@QAEXXZ ; std::_Alloc_construct_ptr<std::allocator<std::_Tree_node<std::pair<int const ,CGraphicImage *>,void *> > >::_Allocate
PUBLIC	??$_Construct_in_place@PAU?$_Tree_node@U?$pair@$$CBHPAVCGraphicImage@@@std@@PAX@std@@ABQAU12@@std@@YAXAAPAU?$_Tree_node@U?$pair@$$CBHPAVCGraphicImage@@@std@@PAX@0@ABQAU10@@Z ; std::_Construct_in_place<std::_Tree_node<std::pair<int const ,CGraphicImage *>,void *> *,std::_Tree_node<std::pair<int const ,CGraphicImage *>,void *> * const &>
PUBLIC	??$destroy_at@U?$pair@$$CBHPAVCGraphicImage@@@std@@@std@@YAXQAU?$pair@$$CBHPAVCGraphicImage@@@0@@Z ; std::destroy_at<std::pair<int const ,CGraphicImage *> >
PUBLIC	??$construct_at@PAU?$_Tree_node@U?$pair@$$CBHPAVCGraphicImage@@@std@@PAX@std@@AAPAU12@@std@@YAPAPAU?$_Tree_node@U?$pair@$$CBHPAVCGraphicImage@@@std@@PAX@0@QAPAU10@AAPAU10@@Z ; std::construct_at<std::_Tree_node<std::pair<int const ,CGraphicImage *>,void *> *,std::_Tree_node<std::pair<int const ,CGraphicImage *>,void *> * &>
PUBLIC	??$addressof@PAU?$_Tree_node@U?$pair@$$CBHPAVCGraphicImage@@@std@@PAX@std@@@std@@YAPAPAU?$_Tree_node@U?$pair@$$CBHPAVCGraphicImage@@@std@@PAX@0@AAPAU10@@Z ; std::addressof<std::_Tree_node<std::pair<int const ,CGraphicImage *>,void *> *>
PUBLIC	??$construct_at@U?$pair@$$CBHPAVCGraphicImage@@@std@@ABUpiecewise_construct_t@2@V?$tuple@ABH@2@V?$tuple@$$V@2@@std@@YAPAU?$pair@$$CBHPAVCGraphicImage@@@0@QAU10@ABUpiecewise_construct_t@0@$$QAV?$tuple@ABH@0@$$QAV?$tuple@$$V@0@@Z ; std::construct_at<std::pair<int const ,CGraphicImage *>,std::piecewise_construct_t const &,std::tuple<int const &>,std::tuple<> >
PUBLIC	??$?0U_Exact_args_t@std@@ABH$$V$0A@@?$tuple@ABH@std@@QAE@U_Exact_args_t@1@ABH@Z ; std::tuple<int const &>::tuple<int const &><std::_Exact_args_t,int const &,0>
PUBLIC	??$forward@AAPAU?$_Tree_node@U?$pair@$$CBHPAVCGraphicImage@@@std@@PAX@std@@@std@@YAAAPAU?$_Tree_node@U?$pair@$$CBHPAVCGraphicImage@@@std@@PAX@0@AAPAU10@@Z ; std::forward<std::_Tree_node<std::pair<int const ,CGraphicImage *>,void *> * &>
PUBLIC	??$construct@U?$pair@$$CBHPAVCGraphicImage@@@std@@U?$pair@HPAVCGraphicImage@@@2@@?$_Default_allocator_traits@V?$allocator@U?$_Tree_node@U?$pair@$$CBHPAVCGraphicImage@@@std@@PAX@std@@@std@@@std@@SAXAAV?$allocator@U?$_Tree_node@U?$pair@$$CBHPAVCGraphicImage@@@std@@PAX@std@@@1@QAU?$pair@$$CBHPAVCGraphicImage@@@1@$$QAU?$pair@HPAVCGraphicImage@@@1@@Z ; std::_Default_allocator_traits<std::allocator<std::_Tree_node<std::pair<int const ,CGraphicImage *>,void *> > >::construct<std::pair<int const ,CGraphicImage *>,std::pair<int,CGraphicImage *> >
PUBLIC	?max_size@?$_Tree@V?$_Tmap_traits@HPAVCGraphicImage@@U?$less@H@std@@V?$allocator@U?$pair@$$CBHPAVCGraphicImage@@@std@@@3@$0A@@std@@@std@@QBEIXZ ; std::_Tree<std::_Tmap_traits<int,CGraphicImage *,std::less<int>,std::allocator<std::pair<int const ,CGraphicImage *> >,0> >::max_size
PUBLIC	?_Getcomp@?$_Tree@V?$_Tmap_traits@HPAVCGraphicImage@@U?$less@H@std@@V?$allocator@U?$pair@$$CBHPAVCGraphicImage@@@std@@@3@$0A@@std@@@std@@IBEABU?$less@H@2@XZ ; std::_Tree<std::_Tmap_traits<int,CGraphicImage *,std::less<int>,std::allocator<std::pair<int const ,CGraphicImage *> >,0> >::_Getcomp
PUBLIC	?deallocate@?$_Default_allocator_traits@V?$allocator@U?$_Tree_node@U?$pair@$$CBHPAVCGraphicImage@@@std@@PAX@std@@@std@@@std@@SAXAAV?$allocator@U?$_Tree_node@U?$pair@$$CBHPAVCGraphicImage@@@std@@PAX@std@@@2@QAU?$_Tree_node@U?$pair@$$CBHPAVCGraphicImage@@@std@@PAX@2@I@Z ; std::_Default_allocator_traits<std::allocator<std::_Tree_node<std::pair<int const ,CGraphicImage *>,void *> > >::deallocate
PUBLIC	?_Lrotate@?$_Tree_val@U?$_Tree_simple_types@U?$pair@$$CBHPAVCGraphicImage@@@std@@@std@@@std@@QAEXPAU?$_Tree_node@U?$pair@$$CBHPAVCGraphicImage@@@std@@PAX@2@@Z ; std::_Tree_val<std::_Tree_simple_types<std::pair<int const ,CGraphicImage *> > >::_Lrotate
PUBLIC	?_Rrotate@?$_Tree_val@U?$_Tree_simple_types@U?$pair@$$CBHPAVCGraphicImage@@@std@@@std@@@std@@QAEXPAU?$_Tree_node@U?$pair@$$CBHPAVCGraphicImage@@@std@@PAX@2@@Z ; std::_Tree_val<std::_Tree_simple_types<std::pair<int const ,CGraphicImage *> > >::_Rrotate
PUBLIC	??0?$_Tree_temp_node_alloc@V?$allocator@U?$_Tree_node@U?$pair@$$CBHPAVCGraphicImage@@@std@@PAX@std@@@std@@@std@@QAE@AAV?$allocator@U?$_Tree_node@U?$pair@$$CBHPAVCGraphicImage@@@std@@PAX@std@@@1@@Z ; std::_Tree_temp_node_alloc<std::allocator<std::_Tree_node<std::pair<int const ,CGraphicImage *>,void *> > >::_Tree_temp_node_alloc<std::allocator<std::_Tree_node<std::pair<int const ,CGraphicImage *>,void *> > >
PUBLIC	??1?$_Alloc_construct_ptr@V?$allocator@U?$_Tree_node@U?$pair@$$CBHPAVCGraphicImage@@@std@@PAX@std@@@std@@@std@@QAE@XZ ; std::_Alloc_construct_ptr<std::allocator<std::_Tree_node<std::pair<int const ,CGraphicImage *>,void *> > >::~_Alloc_construct_ptr<std::allocator<std::_Tree_node<std::pair<int const ,CGraphicImage *>,void *> > >
PUBLIC	?_Extract@?$_In_place_key_extract_map_impl@HU?$pair@HPAVCGraphicImage@@@std@@@std@@SAABHABU?$pair@HPAVCGraphicImage@@@2@@Z ; std::_In_place_key_extract_map_impl<int,std::pair<int,CGraphicImage *> >::_Extract
PUBLIC	??$_Buyheadnode@V?$allocator@U?$_Tree_node@U?$pair@$$CBHPAVCGraphicImage@@@std@@PAX@std@@@std@@@?$_Tree_node@U?$pair@$$CBHPAVCGraphicImage@@@std@@PAX@std@@SAPAU01@AAV?$allocator@U?$_Tree_node@U?$pair@$$CBHPAVCGraphicImage@@@std@@PAX@std@@@1@@Z ; std::_Tree_node<std::pair<int const ,CGraphicImage *>,void *>::_Buyheadnode<std::allocator<std::_Tree_node<std::pair<int const ,CGraphicImage *>,void *> > >
PUBLIC	??$addressof@$$CBV?$_Tree_val@U?$_Tree_simple_types@U?$pair@$$CBHPAVCGraphicImage@@@std@@@std@@@std@@@std@@YAPBV?$_Tree_val@U?$_Tree_simple_types@U?$pair@$$CBHPAVCGraphicImage@@@std@@@std@@@0@ABV10@@Z ; std::addressof<std::_Tree_val<std::_Tree_simple_types<std::pair<int const ,CGraphicImage *> > > const >
PUBLIC	??$destroy@U?$pair@$$CBHPAVCGraphicImage@@@std@@@?$_Default_allocator_traits@V?$allocator@U?$_Tree_node@U?$pair@$$CBHPAVCGraphicImage@@@std@@PAX@std@@@std@@@std@@SAXAAV?$allocator@U?$_Tree_node@U?$pair@$$CBHPAVCGraphicImage@@@std@@PAX@std@@@1@QAU?$pair@$$CBHPAVCGraphicImage@@@1@@Z ; std::_Default_allocator_traits<std::allocator<std::_Tree_node<std::pair<int const ,CGraphicImage *>,void *> > >::destroy<std::pair<int const ,CGraphicImage *> >
PUBLIC	??$exchange@PAU?$_Tree_node@U?$pair@$$CBHPAVCGraphicImage@@@std@@PAX@std@@$$T@std@@YAPAU?$_Tree_node@U?$pair@$$CBHPAVCGraphicImage@@@std@@PAX@0@AAPAU10@$$QA$$T@Z ; std::exchange<std::_Tree_node<std::pair<int const ,CGraphicImage *>,void *> *,std::nullptr_t>
PUBLIC	??$forward@PAU?$_Tree_node@U?$pair@$$CBHPAVCGraphicImage@@@std@@PAX@std@@@std@@YA$$QAPAU?$_Tree_node@U?$pair@$$CBHPAVCGraphicImage@@@std@@PAX@0@AAPAU10@@Z ; std::forward<std::_Tree_node<std::pair<int const ,CGraphicImage *>,void *> *>
PUBLIC	??$forward@ABQAU?$_Tree_node@U?$pair@$$CBHPAVCGraphicImage@@@std@@PAX@std@@@std@@YAABQAU?$_Tree_node@U?$pair@$$CBHPAVCGraphicImage@@@std@@PAX@0@ABQAU10@@Z ; std::forward<std::_Tree_node<std::pair<int const ,CGraphicImage *>,void *> * const &>
PUBLIC	??$_Construct_in_place@PAU?$_Tree_node@U?$pair@$$CBHPAVCGraphicImage@@@std@@PAX@std@@AAPAU12@@std@@YAXAAPAU?$_Tree_node@U?$pair@$$CBHPAVCGraphicImage@@@std@@PAX@0@0@Z ; std::_Construct_in_place<std::_Tree_node<std::pair<int const ,CGraphicImage *>,void *> *,std::_Tree_node<std::pair<int const ,CGraphicImage *>,void *> * &>
PUBLIC	??$construct@U?$pair@$$CBHPAVCGraphicImage@@@std@@ABUpiecewise_construct_t@2@V?$tuple@ABH@2@V?$tuple@$$V@2@@?$_Default_allocator_traits@V?$allocator@U?$_Tree_node@U?$pair@$$CBHPAVCGraphicImage@@@std@@PAX@std@@@std@@@std@@SAXAAV?$allocator@U?$_Tree_node@U?$pair@$$CBHPAVCGraphicImage@@@std@@PAX@std@@@1@QAU?$pair@$$CBHPAVCGraphicImage@@@1@ABUpiecewise_construct_t@1@$$QAV?$tuple@ABH@1@$$QAV?$tuple@$$V@1@@Z ; std::_Default_allocator_traits<std::allocator<std::_Tree_node<std::pair<int const ,CGraphicImage *>,void *> > >::construct<std::pair<int const ,CGraphicImage *>,std::piecewise_construct_t const &,std::tuple<int const &>,std::tuple<> >
PUBLIC	??$forward@V?$tuple@ABH@std@@@std@@YA$$QAV?$tuple@ABH@0@AAV10@@Z ; std::forward<std::tuple<int const &> >
PUBLIC	??$addressof@U?$pair@$$CBHPAVCGraphicImage@@@std@@@std@@YAPAU?$pair@$$CBHPAVCGraphicImage@@@0@AAU10@@Z ; std::addressof<std::pair<int const ,CGraphicImage *> >
PUBLIC	??$?0ABH$0A@@?$tuple@ABH@std@@QAE@ABH@Z		; std::tuple<int const &>::tuple<int const &><int const &,0>
PUBLIC	??$_Destroy_in_place@PAU?$_Tree_node@U?$pair@$$CBHPAVCGraphicImage@@@std@@PAX@std@@@std@@YAXAAPAU?$_Tree_node@U?$pair@$$CBHPAVCGraphicImage@@@std@@PAX@0@@Z ; std::_Destroy_in_place<std::_Tree_node<std::pair<int const ,CGraphicImage *>,void *> *>
PUBLIC	??$_Freenode@V?$allocator@U?$_Tree_node@U?$pair@$$CBHPAVCGraphicImage@@@std@@PAX@std@@@std@@@?$_Tree_node@U?$pair@$$CBHPAVCGraphicImage@@@std@@PAX@std@@SAXAAV?$allocator@U?$_Tree_node@U?$pair@$$CBHPAVCGraphicImage@@@std@@PAX@std@@@1@PAU01@@Z ; std::_Tree_node<std::pair<int const ,CGraphicImage *>,void *>::_Freenode<std::allocator<std::_Tree_node<std::pair<int const ,CGraphicImage *>,void *> > >
PUBLIC	??$exchange@PAU?$_Tree_node@U?$pair@$$CBHPAVCGraphicImage@@@std@@PAX@std@@AAPAU12@@std@@YAPAU?$_Tree_node@U?$pair@$$CBHPAVCGraphicImage@@@std@@PAX@0@AAPAU10@0@Z ; std::exchange<std::_Tree_node<std::pair<int const ,CGraphicImage *>,void *> *,std::_Tree_node<std::pair<int const ,CGraphicImage *>,void *> * &>
PUBLIC	??$_Kfn@$$CBHPAVCGraphicImage@@@?$_Tmap_traits@HPAVCGraphicImage@@U?$less@H@std@@V?$allocator@U?$pair@$$CBHPAVCGraphicImage@@@std@@@3@$0A@@std@@SAABHABU?$pair@$$CBHPAVCGraphicImage@@@1@@Z ; std::_Tmap_traits<int,CGraphicImage *,std::less<int>,std::allocator<std::pair<int const ,CGraphicImage *> >,0>::_Kfn<int const ,CGraphicImage *>
PUBLIC	??$forward@V?$_Tree_iterator@V?$_Tree_val@U?$_Tree_simple_types@U?$pair@$$CBHPAVCGraphicImage@@@std@@@std@@@std@@@std@@@std@@YA$$QAV?$_Tree_iterator@V?$_Tree_val@U?$_Tree_simple_types@U?$pair@$$CBHPAVCGraphicImage@@@std@@@std@@@std@@@0@AAV10@@Z ; std::forward<std::_Tree_iterator<std::_Tree_val<std::_Tree_simple_types<std::pair<int const ,CGraphicImage *> > > > >
PUBLIC	??$?0AAPAU?$_Tree_node@U?$pair@$$CBHPAVCGraphicImage@@@std@@PAX@std@@_N$0A@@?$pair@PAU?$_Tree_node@U?$pair@$$CBHPAVCGraphicImage@@@std@@PAX@std@@_N@std@@QAE@AAPAU?$_Tree_node@U?$pair@$$CBHPAVCGraphicImage@@@std@@PAX@1@$$QA_N@Z ; std::pair<std::_Tree_node<std::pair<int const ,CGraphicImage *>,void *> *,bool>::pair<std::_Tree_node<std::pair<int const ,CGraphicImage *>,void *> *,bool><std::_Tree_node<std::pair<int const ,CGraphicImage *>,void *> * &,bool,0>
PUBLIC	??$?0U?$pair@HPAVCGraphicImage@@@std@@@?$_Tree_temp_node@V?$allocator@U?$_Tree_node@U?$pair@$$CBHPAVCGraphicImage@@@std@@PAX@std@@@std@@@std@@QAE@AAV?$allocator@U?$_Tree_node@U?$pair@$$CBHPAVCGraphicImage@@@std@@PAX@std@@@1@PAU?$_Tree_node@U?$pair@$$CBHPAVCGraphicImage@@@std@@PAX@1@$$QAU?$pair@HPAVCGraphicImage@@@1@@Z ; std::_Tree_temp_node<std::allocator<std::_Tree_node<std::pair<int const ,CGraphicImage *>,void *> > >::_Tree_temp_node<std::allocator<std::_Tree_node<std::pair<int const ,CGraphicImage *>,void *> > ><std::pair<int,CGraphicImage *> >
PUBLIC	??$?0$$V@?$_Compressed_pair@V?$allocator@U?$_Tree_node@U?$pair@$$CBHPAVCGraphicImage@@@std@@PAX@std@@@std@@V?$_Tree_val@U?$_Tree_simple_types@U?$pair@$$CBHPAVCGraphicImage@@@std@@@std@@@2@$00@std@@QAE@U_Zero_then_variadic_args_t@1@@Z ; std::_Compressed_pair<std::allocator<std::_Tree_node<std::pair<int const ,CGraphicImage *>,void *> >,std::_Tree_val<std::_Tree_simple_types<std::pair<int const ,CGraphicImage *> > >,1>::_Compressed_pair<std::allocator<std::_Tree_node<std::pair<int const ,CGraphicImage *>,void *> >,std::_Tree_val<std::_Tree_simple_types<std::pair<int const ,CGraphicImage *> > >,1><>
PUBLIC	??1?$_Tree_temp_node_alloc@V?$allocator@U?$_Tree_node@U?$pair@$$CBHPAVCGraphicImage@@@std@@PAX@std@@@std@@@std@@QAE@XZ ; std::_Tree_temp_node_alloc<std::allocator<std::_Tree_node<std::pair<int const ,CGraphicImage *>,void *> > >::~_Tree_temp_node_alloc<std::allocator<std::_Tree_node<std::pair<int const ,CGraphicImage *>,void *> > >
PUBLIC	?_Check_grow_by_1@?$_Tree@V?$_Tmap_traits@HPAVCGraphicImage@@U?$less@H@std@@V?$allocator@U?$pair@$$CBHPAVCGraphicImage@@@std@@@3@$0A@@std@@@std@@IAEXXZ ; std::_Tree<std::_Tmap_traits<int,CGraphicImage *,std::less<int>,std::allocator<std::pair<int const ,CGraphicImage *> >,0> >::_Check_grow_by_1
PUBLIC	?_Alloc_sentinel_and_proxy@?$_Tree@V?$_Tmap_traits@HPAVCGraphicImage@@U?$less@H@std@@V?$allocator@U?$pair@$$CBHPAVCGraphicImage@@@std@@@3@$0A@@std@@@std@@IAEXXZ ; std::_Tree<std::_Tmap_traits<int,CGraphicImage *,std::less<int>,std::allocator<std::pair<int const ,CGraphicImage *> >,0> >::_Alloc_sentinel_and_proxy
PUBLIC	?_Get_scary@?$_Tree@V?$_Tmap_traits@HPAVCGraphicImage@@U?$less@H@std@@V?$allocator@U?$pair@$$CBHPAVCGraphicImage@@@std@@@3@$0A@@std@@@std@@IBEPBV?$_Tree_val@U?$_Tree_simple_types@U?$pair@$$CBHPAVCGraphicImage@@@std@@@std@@@2@XZ ; std::_Tree<std::_Tmap_traits<int,CGraphicImage *,std::less<int>,std::allocator<std::pair<int const ,CGraphicImage *> >,0> >::_Get_scary
PUBLIC	?_Insert_node@?$_Tree_val@U?$_Tree_simple_types@U?$pair@$$CBHPAVCGraphicImage@@@std@@@std@@@std@@QAEPAU?$_Tree_node@U?$pair@$$CBHPAVCGraphicImage@@@std@@PAX@2@U?$_Tree_id@PAU?$_Tree_node@U?$pair@$$CBHPAVCGraphicImage@@@std@@PAX@std@@@2@QAU32@@Z ; std::_Tree_val<std::_Tree_simple_types<std::pair<int const ,CGraphicImage *> > >::_Insert_node
PUBLIC	?_Get_first@?$_Compressed_pair@V?$allocator@U?$_Tree_node@U?$pair@$$CBHPAVCGraphicImage@@@std@@PAX@std@@@std@@V?$_Tree_val@U?$_Tree_simple_types@U?$pair@$$CBHPAVCGraphicImage@@@std@@@std@@@2@$00@std@@QAEAAV?$allocator@U?$_Tree_node@U?$pair@$$CBHPAVCGraphicImage@@@std@@PAX@std@@@2@XZ ; std::_Compressed_pair<std::allocator<std::_Tree_node<std::pair<int const ,CGraphicImage *>,void *> >,std::_Tree_val<std::_Tree_simple_types<std::pair<int const ,CGraphicImage *> > >,1>::_Get_first
PUBLIC	??1?$_Tree_temp_node@V?$allocator@U?$_Tree_node@U?$pair@$$CBHPAVCGraphicImage@@@std@@PAX@std@@@std@@@std@@QAE@XZ ; std::_Tree_temp_node<std::allocator<std::_Tree_node<std::pair<int const ,CGraphicImage *>,void *> > >::~_Tree_temp_node<std::allocator<std::_Tree_node<std::pair<int const ,CGraphicImage *>,void *> > >
PUBLIC	?_Release@?$_Alloc_construct_ptr@V?$allocator@U?$_Tree_node@U?$pair@$$CBHPAVCGraphicImage@@@std@@PAX@std@@@std@@@std@@QAEPAU?$_Tree_node@U?$pair@$$CBHPAVCGraphicImage@@@std@@PAX@2@XZ ; std::_Alloc_construct_ptr<std::allocator<std::_Tree_node<std::pair<int const ,CGraphicImage *>,void *> > >::_Release
PUBLIC	??$?0ABU?$less@H@std@@U_Zero_then_variadic_args_t@1@@?$_Compressed_pair@U?$less@H@std@@V?$_Compressed_pair@V?$allocator@U?$_Tree_node@U?$pair@$$CBHPAVCGraphicImage@@@std@@PAX@std@@@std@@V?$_Tree_val@U?$_Tree_simple_types@U?$pair@$$CBHPAVCGraphicImage@@@std@@@std@@@2@$00@2@$00@std@@QAE@U_One_then_variadic_args_t@1@ABU?$less@H@1@$$QAU_Zero_then_variadic_args_t@1@@Z ; std::_Compressed_pair<std::less<int>,std::_Compressed_pair<std::allocator<std::_Tree_node<std::pair<int const ,CGraphicImage *>,void *> >,std::_Tree_val<std::_Tree_simple_types<std::pair<int const ,CGraphicImage *> > >,1>,1>::_Compressed_pair<std::less<int>,std::_Compressed_pair<std::allocator<std::_Tree_node<std::pair<int const ,CGraphicImage *>,void *> >,std::_Tree_val<std::_Tree_simple_types<std::pair<int const ,CGraphicImage *> > >,1>,1><std::less<int> const &,std::_Zero_then_variadic_args_t>
PUBLIC	??$addressof@V?$_Tree_val@U?$_Tree_simple_types@U?$pair@$$CBHPAVCGraphicImage@@@std@@@std@@@std@@@std@@YAPAV?$_Tree_val@U?$_Tree_simple_types@U?$pair@$$CBHPAVCGraphicImage@@@std@@@std@@@0@AAV10@@Z ; std::addressof<std::_Tree_val<std::_Tree_simple_types<std::pair<int const ,CGraphicImage *> > > >
PUBLIC	??$?0PAU?$_Tree_node@U?$pair@$$CBHPAVCGraphicImage@@@std@@PAX@std@@_N$0A@@?$pair@PAU?$_Tree_node@U?$pair@$$CBHPAVCGraphicImage@@@std@@PAX@std@@_N@std@@QAE@$$QAPAU?$_Tree_node@U?$pair@$$CBHPAVCGraphicImage@@@std@@PAX@1@$$QA_N@Z ; std::pair<std::_Tree_node<std::pair<int const ,CGraphicImage *>,void *> *,bool>::pair<std::_Tree_node<std::pair<int const ,CGraphicImage *>,void *> *,bool><std::_Tree_node<std::pair<int const ,CGraphicImage *>,void *> *,bool,0>
PUBLIC	??$?0ABQAU?$_Tree_node@U?$pair@$$CBHPAVCGraphicImage@@@std@@PAX@std@@_N$0A@@?$pair@PAU?$_Tree_node@U?$pair@$$CBHPAVCGraphicImage@@@std@@PAX@std@@_N@std@@QAE@ABQAU?$_Tree_node@U?$pair@$$CBHPAVCGraphicImage@@@std@@PAX@1@$$QA_N@Z ; std::pair<std::_Tree_node<std::pair<int const ,CGraphicImage *>,void *> *,bool>::pair<std::_Tree_node<std::pair<int const ,CGraphicImage *>,void *> *,bool><std::_Tree_node<std::pair<int const ,CGraphicImage *>,void *> * const &,bool,0>
PUBLIC	??$?0ABUpiecewise_construct_t@std@@V?$tuple@ABH@1@V?$tuple@$$V@1@@?$_Tree_temp_node@V?$allocator@U?$_Tree_node@U?$pair@$$CBHPAVCGraphicImage@@@std@@PAX@std@@@std@@@std@@QAE@AAV?$allocator@U?$_Tree_node@U?$pair@$$CBHPAVCGraphicImage@@@std@@PAX@std@@@1@PAU?$_Tree_node@U?$pair@$$CBHPAVCGraphicImage@@@std@@PAX@1@ABUpiecewise_construct_t@1@$$QAV?$tuple@ABH@1@$$QAV?$tuple@$$V@1@@Z ; std::_Tree_temp_node<std::allocator<std::_Tree_node<std::pair<int const ,CGraphicImage *>,void *> > >::_Tree_temp_node<std::allocator<std::_Tree_node<std::pair<int const ,CGraphicImage *>,void *> > ><std::piecewise_construct_t const &,std::tuple<int const &>,std::tuple<> >
PUBLIC	??$forward_as_tuple@ABH@std@@YA?AV?$tuple@ABH@0@ABH@Z ; std::forward_as_tuple<int const &>
PUBLIC	??$_Freenode0@V?$allocator@U?$_Tree_node@U?$pair@$$CBHPAVCGraphicImage@@@std@@PAX@std@@@std@@@?$_Tree_node@U?$pair@$$CBHPAVCGraphicImage@@@std@@PAX@std@@SAXAAV?$allocator@U?$_Tree_node@U?$pair@$$CBHPAVCGraphicImage@@@std@@PAX@std@@@1@PAU01@@Z ; std::_Tree_node<std::pair<int const ,CGraphicImage *>,void *>::_Freenode0<std::allocator<std::_Tree_node<std::pair<int const ,CGraphicImage *>,void *> > >
PUBLIC	??$_Erase_tree@V?$allocator@U?$_Tree_node@U?$pair@$$CBHPAVCGraphicImage@@@std@@PAX@std@@@std@@@?$_Tree_val@U?$_Tree_simple_types@U?$pair@$$CBHPAVCGraphicImage@@@std@@@std@@@std@@QAEXAAV?$allocator@U?$_Tree_node@U?$pair@$$CBHPAVCGraphicImage@@@std@@PAX@std@@@1@PAU?$_Tree_node@U?$pair@$$CBHPAVCGraphicImage@@@std@@PAX@1@@Z ; std::_Tree_val<std::_Tree_simple_types<std::pair<int const ,CGraphicImage *> > >::_Erase_tree<std::allocator<std::_Tree_node<std::pair<int const ,CGraphicImage *>,void *> > >
PUBLIC	??$_Lower_bound_duplicate@H@?$_Tree@V?$_Tmap_traits@HPAVCGraphicImage@@U?$less@H@std@@V?$allocator@U?$pair@$$CBHPAVCGraphicImage@@@std@@@3@$0A@@std@@@std@@IBE_NQAU?$_Tree_node@U?$pair@$$CBHPAVCGraphicImage@@@std@@PAX@1@ABH@Z ; std::_Tree<std::_Tmap_traits<int,CGraphicImage *,std::less<int>,std::allocator<std::pair<int const ,CGraphicImage *> >,0> >::_Lower_bound_duplicate<int>
PUBLIC	??$_Find_lower_bound@H@?$_Tree@V?$_Tmap_traits@HPAVCGraphicImage@@U?$less@H@std@@V?$allocator@U?$pair@$$CBHPAVCGraphicImage@@@std@@@3@$0A@@std@@@std@@IBE?AU?$_Tree_find_result@PAU?$_Tree_node@U?$pair@$$CBHPAVCGraphicImage@@@std@@PAX@std@@@1@ABH@Z ; std::_Tree<std::_Tmap_traits<int,CGraphicImage *,std::less<int>,std::allocator<std::pair<int const ,CGraphicImage *> >,0> >::_Find_lower_bound<int>
PUBLIC	??$?0V?$_Tree_iterator@V?$_Tree_val@U?$_Tree_simple_types@U?$pair@$$CBHPAVCGraphicImage@@@std@@@std@@@std@@@std@@AB_N$0A@@?$pair@V?$_Tree_iterator@V?$_Tree_val@U?$_Tree_simple_types@U?$pair@$$CBHPAVCGraphicImage@@@std@@@std@@@std@@@std@@_N@std@@QAE@$$QAV?$_Tree_iterator@V?$_Tree_val@U?$_Tree_simple_types@U?$pair@$$CBHPAVCGraphicImage@@@std@@@std@@@std@@@1@AB_N@Z ; std::pair<std::_Tree_iterator<std::_Tree_val<std::_Tree_simple_types<std::pair<int const ,CGraphicImage *> > > >,bool>::pair<std::_Tree_iterator<std::_Tree_val<std::_Tree_simple_types<std::pair<int const ,CGraphicImage *> > > >,bool><std::_Tree_iterator<std::_Tree_val<std::_Tree_simple_types<std::pair<int const ,CGraphicImage *> > > >,bool const &,0>
PUBLIC	??$_Emplace@U?$pair@HPAVCGraphicImage@@@std@@@?$_Tree@V?$_Tmap_traits@HPAVCGraphicImage@@U?$less@H@std@@V?$allocator@U?$pair@$$CBHPAVCGraphicImage@@@std@@@3@$0A@@std@@@std@@IAE?AU?$pair@PAU?$_Tree_node@U?$pair@$$CBHPAVCGraphicImage@@@std@@PAX@std@@_N@1@$$QAU?$pair@HPAVCGraphicImage@@@1@@Z ; std::_Tree<std::_Tmap_traits<int,CGraphicImage *,std::less<int>,std::allocator<std::pair<int const ,CGraphicImage *> >,0> >::_Emplace<std::pair<int,CGraphicImage *> >
PUBLIC	??0?$_Tree@V?$_Tmap_traits@HPAVCGraphicImage@@U?$less@H@std@@V?$allocator@U?$pair@$$CBHPAVCGraphicImage@@@std@@@3@$0A@@std@@@std@@QAE@ABU?$less@H@1@@Z ; std::_Tree<std::_Tmap_traits<int,CGraphicImage *,std::less<int>,std::allocator<std::pair<int const ,CGraphicImage *> >,0> >::_Tree<std::_Tmap_traits<int,CGraphicImage *,std::less<int>,std::allocator<std::pair<int const ,CGraphicImage *> >,0> >
PUBLIC	?_Getal@?$_Tree@V?$_Tmap_traits@HPAVCGraphicImage@@U?$less@H@std@@V?$allocator@U?$pair@$$CBHPAVCGraphicImage@@@std@@@3@$0A@@std@@@std@@IAEAAV?$allocator@U?$_Tree_node@U?$pair@$$CBHPAVCGraphicImage@@@std@@PAX@std@@@2@XZ ; std::_Tree<std::_Tmap_traits<int,CGraphicImage *,std::less<int>,std::allocator<std::pair<int const ,CGraphicImage *> >,0> >::_Getal
PUBLIC	?_Get_scary@?$_Tree@V?$_Tmap_traits@HPAVCGraphicImage@@U?$less@H@std@@V?$allocator@U?$pair@$$CBHPAVCGraphicImage@@@std@@@3@$0A@@std@@@std@@IAEPAV?$_Tree_val@U?$_Tree_simple_types@U?$pair@$$CBHPAVCGraphicImage@@@std@@@std@@@2@XZ ; std::_Tree<std::_Tmap_traits<int,CGraphicImage *,std::less<int>,std::allocator<std::pair<int const ,CGraphicImage *> >,0> >::_Get_scary
PUBLIC	??0?$_Tree_unchecked_const_iterator@V?$_Tree_val@U?$_Tree_simple_types@U?$pair@$$CBHPAVCGraphicImage@@@std@@@std@@@std@@U_Iterator_base0@2@@std@@QAE@PAU?$_Tree_node@U?$pair@$$CBHPAVCGraphicImage@@@std@@PAX@1@PBV?$_Tree_val@U?$_Tree_simple_types@U?$pair@$$CBHPAVCGraphicImage@@@std@@@std@@@1@@Z ; std::_Tree_unchecked_const_iterator<std::_Tree_val<std::_Tree_simple_types<std::pair<int const ,CGraphicImage *> > >,std::_Iterator_base0>::_Tree_unchecked_const_iterator<std::_Tree_val<std::_Tree_simple_types<std::pair<int const ,CGraphicImage *> > >,std::_Iterator_base0>
PUBLIC	??$_Try_emplace@ABH$$V@?$map@HPAVCGraphicImage@@U?$less@H@std@@V?$allocator@U?$pair@$$CBHPAVCGraphicImage@@@std@@@3@@std@@AAE?AU?$pair@PAU?$_Tree_node@U?$pair@$$CBHPAVCGraphicImage@@@std@@PAX@std@@_N@1@ABH@Z ; std::map<int,CGraphicImage *,std::less<int>,std::allocator<std::pair<int const ,CGraphicImage *> > >::_Try_emplace<int const &>
PUBLIC	??$_Erase_head@V?$allocator@U?$_Tree_node@U?$pair@$$CBHPAVCGraphicImage@@@std@@PAX@std@@@std@@@?$_Tree_val@U?$_Tree_simple_types@U?$pair@$$CBHPAVCGraphicImage@@@std@@@std@@@std@@QAEXAAV?$allocator@U?$_Tree_node@U?$pair@$$CBHPAVCGraphicImage@@@std@@PAX@std@@@1@@Z ; std::_Tree_val<std::_Tree_simple_types<std::pair<int const ,CGraphicImage *> > >::_Erase_head<std::allocator<std::_Tree_node<std::pair<int const ,CGraphicImage *>,void *> > >
PUBLIC	??$_Find@H@?$_Tree@V?$_Tmap_traits@HPAVCGraphicImage@@U?$less@H@std@@V?$allocator@U?$pair@$$CBHPAVCGraphicImage@@@std@@@3@$0A@@std@@@std@@ABEPAU?$_Tree_node@U?$pair@$$CBHPAVCGraphicImage@@@std@@PAX@1@ABH@Z ; std::_Tree<std::_Tmap_traits<int,CGraphicImage *,std::less<int>,std::allocator<std::pair<int const ,CGraphicImage *> >,0> >::_Find<int>
PUBLIC	??$emplace@U?$pair@HPAVCGraphicImage@@@std@@@?$_Tree@V?$_Tmap_traits@HPAVCGraphicImage@@U?$less@H@std@@V?$allocator@U?$pair@$$CBHPAVCGraphicImage@@@std@@@3@$0A@@std@@@std@@QAE?AU?$pair@V?$_Tree_iterator@V?$_Tree_val@U?$_Tree_simple_types@U?$pair@$$CBHPAVCGraphicImage@@@std@@@std@@@std@@@std@@_N@1@$$QAU?$pair@HPAVCGraphicImage@@@1@@Z ; std::_Tree<std::_Tmap_traits<int,CGraphicImage *,std::less<int>,std::allocator<std::pair<int const ,CGraphicImage *> >,0> >::emplace<std::pair<int,CGraphicImage *> >
PUBLIC	??$forward@U?$pair@HPAVCGraphicImage@@@std@@@std@@YA$$QAU?$pair@HPAVCGraphicImage@@@0@AAU10@@Z ; std::forward<std::pair<int,CGraphicImage *> >
PUBLIC	??$?0AAHAAPAVCGraphicImage@@$0A@@?$pair@HPAVCGraphicImage@@@std@@QAE@AAHAAPAVCGraphicImage@@@Z ; std::pair<int,CGraphicImage *>::pair<int,CGraphicImage *><int &,CGraphicImage * &,0>
PUBLIC	??$forward@AAPAVCGraphicImage@@@std@@YAAAPAVCGraphicImage@@AAPAV1@@Z ; std::forward<CGraphicImage * &>
PUBLIC	??0?$_Tree_const_iterator@V?$_Tree_val@U?$_Tree_simple_types@U?$pair@$$CBHPAVCGraphicImage@@@std@@@std@@@std@@@std@@QAE@PAU?$_Tree_node@U?$pair@$$CBHPAVCGraphicImage@@@std@@PAX@1@PBV?$_Tree_val@U?$_Tree_simple_types@U?$pair@$$CBHPAVCGraphicImage@@@std@@@std@@@1@@Z ; std::_Tree_const_iterator<std::_Tree_val<std::_Tree_simple_types<std::pair<int const ,CGraphicImage *> > > >::_Tree_const_iterator<std::_Tree_val<std::_Tree_simple_types<std::pair<int const ,CGraphicImage *> > > >
PUBLIC	??0?$_Tree_iterator@V?$_Tree_val@U?$_Tree_simple_types@U?$pair@$$CBHPAVCGraphicImage@@@std@@@std@@@std@@@std@@QAE@PAU?$_Tree_node@U?$pair@$$CBHPAVCGraphicImage@@@std@@PAX@1@PBV?$_Tree_val@U?$_Tree_simple_types@U?$pair@$$CBHPAVCGraphicImage@@@std@@@std@@@1@@Z ; std::_Tree_iterator<std::_Tree_val<std::_Tree_simple_types<std::pair<int const ,CGraphicImage *> > > >::_Tree_iterator<std::_Tree_val<std::_Tree_simple_types<std::pair<int const ,CGraphicImage *> > > >
PUBLIC	?InstancePtr@?$CSingleton@VCPythonPlayer@@@@SAPAVCPythonPlayer@@XZ ; CSingleton<CPythonPlayer>::InstancePtr
PUBLIC	??0?$map@HPAVCGraphicImage@@U?$less@H@std@@V?$allocator@U?$pair@$$CBHPAVCGraphicImage@@@std@@@3@@std@@QAE@XZ ; std::map<int,CGraphicImage *,std::less<int>,std::allocator<std::pair<int const ,CGraphicImage *> > >::map<int,CGraphicImage *,std::less<int>,std::allocator<std::pair<int const ,CGraphicImage *> > >
PUBLIC	??A?$map@HPAVCGraphicImage@@U?$less@H@std@@V?$allocator@U?$pair@$$CBHPAVCGraphicImage@@@std@@@3@@std@@QAEAAPAVCGraphicImage@@ABH@Z ; std::map<int,CGraphicImage *,std::less<int>,std::allocator<std::pair<int const ,CGraphicImage *> > >::operator[]
PUBLIC	??1?$_Tree@V?$_Tmap_traits@HPAVCGraphicImage@@U?$less@H@std@@V?$allocator@U?$pair@$$CBHPAVCGraphicImage@@@std@@@3@$0A@@std@@@std@@QAE@XZ ; std::_Tree<std::_Tmap_traits<int,CGraphicImage *,std::less<int>,std::allocator<std::pair<int const ,CGraphicImage *> >,0> >::~_Tree<std::_Tmap_traits<int,CGraphicImage *,std::less<int>,std::allocator<std::pair<int const ,CGraphicImage *> >,0> >
PUBLIC	?end@?$_Tree@V?$_Tmap_traits@HPAVCGraphicImage@@U?$less@H@std@@V?$allocator@U?$pair@$$CBHPAVCGraphicImage@@@std@@@3@$0A@@std@@@std@@QAE?AV?$_Tree_iterator@V?$_Tree_val@U?$_Tree_simple_types@U?$pair@$$CBHPAVCGraphicImage@@@std@@@std@@@std@@@2@XZ ; std::_Tree<std::_Tmap_traits<int,CGraphicImage *,std::less<int>,std::allocator<std::pair<int const ,CGraphicImage *> >,0> >::end
PUBLIC	?find@?$_Tree@V?$_Tmap_traits@HPAVCGraphicImage@@U?$less@H@std@@V?$allocator@U?$pair@$$CBHPAVCGraphicImage@@@std@@@3@$0A@@std@@@std@@QAE?AV?$_Tree_iterator@V?$_Tree_val@U?$_Tree_simple_types@U?$pair@$$CBHPAVCGraphicImage@@@std@@@std@@@std@@@2@ABH@Z ; std::_Tree<std::_Tmap_traits<int,CGraphicImage *,std::less<int>,std::allocator<std::pair<int const ,CGraphicImage *> >,0> >::find
PUBLIC	??8?$_Tree_const_iterator@V?$_Tree_val@U?$_Tree_simple_types@U?$pair@$$CBHPAVCGraphicImage@@@std@@@std@@@std@@@std@@QBE_NABV01@@Z ; std::_Tree_const_iterator<std::_Tree_val<std::_Tree_simple_types<std::pair<int const ,CGraphicImage *> > > >::operator==
PUBLIC	??$insert@U?$pair@HPAVCGraphicImage@@@std@@$0A@@?$map@HPAVCGraphicImage@@U?$less@H@std@@V?$allocator@U?$pair@$$CBHPAVCGraphicImage@@@std@@@3@@std@@QAE?AU?$pair@V?$_Tree_iterator@V?$_Tree_val@U?$_Tree_simple_types@U?$pair@$$CBHPAVCGraphicImage@@@std@@@std@@@std@@@std@@_N@1@$$QAU?$pair@HPAVCGraphicImage@@@1@@Z ; std::map<int,CGraphicImage *,std::less<int>,std::allocator<std::pair<int const ,CGraphicImage *> > >::insert<std::pair<int,CGraphicImage *>,0>
PUBLIC	??$make_pair@AAHAAPAVCGraphicImage@@@std@@YA?AU?$pair@HPAVCGraphicImage@@@0@AAHAAPAVCGraphicImage@@@Z ; std::make_pair<int &,CGraphicImage * &>
PUBLIC	?initPlayer@@YAXXZ				; initPlayer
PUBLIC	?playerSendDragonSoulRefine@@YAPAU_object@@PAU1@0@Z ; playerSendDragonSoulRefine
PUBLIC	?playerIsAvailableBeltInventoryCell@@YAPAU_object@@PAU1@0@Z ; playerIsAvailableBeltInventoryCell
PUBLIC	?playerIsEquippingBelt@@YAPAU_object@@PAU1@0@Z	; playerIsEquippingBelt
PUBLIC	?playerSlotTypeToInvenType@@YAPAU_object@@PAU1@0@Z ; playerSlotTypeToInvenType
PUBLIC	?playerGetAutoPotionInfo@@YAPAU_object@@PAU1@0@Z ; playerGetAutoPotionInfo
PUBLIC	?playerSetAutoPotionInfo@@YAPAU_object@@PAU1@0@Z ; playerSetAutoPotionInfo
PUBLIC	?playerSetItemAttribute@@YAPAU_object@@PAU1@0@Z	; playerSetItemAttribute
PUBLIC	?playerSetItemMetinSocket@@YAPAU_object@@PAU1@0@Z ; playerSetItemMetinSocket
PUBLIC	?playerSetItemData@@YAPAU_object@@PAU1@0@Z	; playerSetItemData
PUBLIC	?playerGetEmotionIconImage@@YAPAU_object@@PAU1@0@Z ; playerGetEmotionIconImage
PUBLIC	?playerRegisterEmotionIcon@@YAPAU_object@@PAU1@0@Z ; playerRegisterEmotionIcon
PUBLIC	?playerGetTargetVID@@YAPAU_object@@PAU1@0@Z	; playerGetTargetVID
PUBLIC	?playerToggleLevelLimit@@YAPAU_object@@PAU1@0@Z	; playerToggleLevelLimit
PUBLIC	?playerToggleCoolTime@@YAPAU_object@@PAU1@0@Z	; playerToggleCoolTime
PUBLIC	?playerSetWeaponAttackBonusFlag@@YAPAU_object@@PAU1@0@Z ; playerSetWeaponAttackBonusFlag
PUBLIC	?playerHasMobilePhoneNumber@@YAPAU_object@@PAU1@0@Z ; playerHasMobilePhoneNumber
PUBLIC	?playerGetPKMode@@YAPAU_object@@PAU1@0@Z	; playerGetPKMode
PUBLIC	?playerExitParty@@YAPAU_object@@PAU1@0@Z	; playerExitParty
PUBLIC	?playerRemovePartyMember@@YAPAU_object@@PAU1@0@Z ; playerRemovePartyMember
PUBLIC	?playerGetPartyMemberAffects@@YAPAU_object@@PAU1@0@Z ; playerGetPartyMemberAffects
PUBLIC	?playerGetPartyMemberState@@YAPAU_object@@PAU1@0@Z ; playerGetPartyMemberState
PUBLIC	?playerGetPartyMemberHPPercentage@@YAPAU_object@@PAU1@0@Z ; playerGetPartyMemberHPPercentage
PUBLIC	?playerIsPartyLeaderByPID@@YAPAU_object@@PAU1@0@Z ; playerIsPartyLeaderByPID
PUBLIC	?playerIsPartyLeader@@YAPAU_object@@PAU1@0@Z	; playerIsPartyLeader
PUBLIC	?playerIsPartyMember@@YAPAU_object@@PAU1@0@Z	; playerIsPartyMember
PUBLIC	?playerOpenCharacterMenu@@YAPAU_object@@PAU1@0@Z ; playerOpenCharacterMenu
PUBLIC	?playerSetTarget@@YAPAU_object@@PAU1@0@Z	; playerSetTarget
PUBLIC	?playerClearTarget@@YAPAU_object@@PAU1@0@Z	; playerClearTarget
PUBLIC	?playerClear@@YAPAU_object@@PAU1@0@Z		; playerClear
PUBLIC	?playerRender@@YAPAU_object@@PAU1@0@Z		; playerRender
PUBLIC	?playerUpdate@@YAPAU_object@@PAU1@0@Z		; playerUpdate
PUBLIC	?playerIsRefineGradeScroll@@YAPAU_object@@PAU1@0@Z ; playerIsRefineGradeScroll
PUBLIC	?playerCanUnlock@@YAPAU_object@@PAU1@0@Z	; playerCanUnlock
PUBLIC	?playerCanDetach@@YAPAU_object@@PAU1@0@Z	; playerCanDetach
PUBLIC	?playerCanAttachMetin@@YAPAU_object@@PAU1@0@Z	; playerCanAttachMetin
PUBLIC	?playerCanRefine@@YAPAU_object@@PAU1@0@Z	; playerCanRefine
PUBLIC	?playerGetItemGrade@@YAPAU_object@@PAU1@0@Z	; playerGetItemGrade
PUBLIC	?GetItemGrade@@YAHPBD@Z				; GetItemGrade
PUBLIC	?playerIsValuableItem@@YAPAU_object@@PAU1@0@Z	; playerIsValuableItem
PUBLIC	?playerIsOpenPrivateShop@@YAPAU_object@@PAU1@0@Z ; playerIsOpenPrivateShop
PUBLIC	?playerIsCostumeSlot@@YAPAU_object@@PAU1@0@Z	; playerIsCostumeSlot
PUBLIC	?playerIsDSEquipmentSlot@@YAPAU_object@@PAU1@0@Z ; playerIsDSEquipmentSlot
PUBLIC	?playerIsEquipmentSlot@@YAPAU_object@@PAU1@0@Z	; playerIsEquipmentSlot
PUBLIC	?playerIsBeltInventorySlot@@YAPAU_object@@PAU1@0@Z ; playerIsBeltInventorySlot
PUBLIC	?playerisItem@@YAPAU_object@@PAU1@0@Z		; playerisItem
PUBLIC	?playerRemoveQuickSlotByValue@@YAPAU_object@@PAU1@0@Z ; playerRemoveQuickSlotByValue
PUBLIC	?playerRequestUseLocalQuickSlot@@YAPAU_object@@PAU1@0@Z ; playerRequestUseLocalQuickSlot
PUBLIC	?playerRequestMoveGlobalQuickSlotToLocalQuickSlot@@YAPAU_object@@PAU1@0@Z ; playerRequestMoveGlobalQuickSlotToLocalQuickSlot
PUBLIC	?playerRequestDeleteGlobalQuickSlot@@YAPAU_object@@PAU1@0@Z ; playerRequestDeleteGlobalQuickSlot
PUBLIC	?playerRequestAddToEmptyLocalQuickSlot@@YAPAU_object@@PAU1@0@Z ; playerRequestAddToEmptyLocalQuickSlot
PUBLIC	?playerRequestAddLocalQuickSlot@@YAPAU_object@@PAU1@0@Z ; playerRequestAddLocalQuickSlot
PUBLIC	?playerGetGlobalQuickSlot@@YAPAU_object@@PAU1@0@Z ; playerGetGlobalQuickSlot
PUBLIC	?playerGetLocalQuickSlot@@YAPAU_object@@PAU1@0@Z ; playerGetLocalQuickSlot
PUBLIC	?playerLocalQuickSlotIndexToGlobalQuickSlotIndex@@YAPAU_object@@PAU1@0@Z ; playerLocalQuickSlotIndexToGlobalQuickSlotIndex
PUBLIC	?playerSetQuickPage@@YAPAU_object@@PAU1@0@Z	; playerSetQuickPage
PUBLIC	?playerGetQuickPage@@YAPAU_object@@PAU1@0@Z	; playerGetQuickPage
PUBLIC	?playerGetISellItemPrice@@YAPAU_object@@PAU1@0@Z ; playerGetISellItemPrice
PUBLIC	?playerGetItemLink@@YAPAU_object@@PAU1@0@Z	; playerGetItemLink
PUBLIC	?playerGetItemAttribute@@YAPAU_object@@PAU1@0@Z	; playerGetItemAttribute
PUBLIC	?playerGetItemMetinSocket@@YAPAU_object@@PAU1@0@Z ; playerGetItemMetinSocket
PUBLIC	?playerGetItemCountByVnum@@YAPAU_object@@PAU1@0@Z ; playerGetItemCountByVnum
PUBLIC	?playerSetItemCount@@YAPAU_object@@PAU1@0@Z	; playerSetItemCount
PUBLIC	?playerGetItemCount@@YAPAU_object@@PAU1@0@Z	; playerGetItemCount
PUBLIC	?playerGetItemFlags@@YAPAU_object@@PAU1@0@Z	; playerGetItemFlags
PUBLIC	?playerGetItemIndex@@YAPAU_object@@PAU1@0@Z	; playerGetItemIndex
PUBLIC	?playerSendClickItemPacket@@YAPAU_object@@PAU1@0@Z ; playerSendClickItemPacket
PUBLIC	?playerMoveItem@@YAPAU_object@@PAU1@0@Z		; playerMoveItem
PUBLIC	?playerClearSkillDict@@YAPAU_object@@PAU1@0@Z	; playerClearSkillDict
PUBLIC	?playerChangeCurrentSkillNumberOnly@@YAPAU_object@@PAU1@0@Z ; playerChangeCurrentSkillNumberOnly
PUBLIC	?playerClickSkillSlot@@YAPAU_object@@PAU1@0@Z	; playerClickSkillSlot
PUBLIC	?playerGetSkillNextEfficientPercentage@@YAPAU_object@@PAU1@0@Z ; playerGetSkillNextEfficientPercentage
PUBLIC	?playerGetSkillCurrentEfficientPercentage@@YAPAU_object@@PAU1@0@Z ; playerGetSkillCurrentEfficientPercentage
PUBLIC	?playerGetSkillLevel@@YAPAU_object@@PAU1@0@Z	; playerGetSkillLevel
PUBLIC	?playerGetSkillGrade@@YAPAU_object@@PAU1@0@Z	; playerGetSkillGrade
PUBLIC	?playerGetSkillSlotIndex@@YAPAU_object@@PAU1@0@Z ; playerGetSkillSlotIndex
PUBLIC	?playerGetSkillIndex@@YAPAU_object@@PAU1@0@Z	; playerGetSkillIndex
PUBLIC	?playerSetSkill@@YAPAU_object@@PAU1@0@Z		; playerSetSkill
PUBLIC	?playerGetAlignmentData@@YAPAU_object@@PAU1@0@Z	; playerGetAlignmentData
PUBLIC	?playerGetGuildName@@YAPAU_object@@PAU1@0@Z	; playerGetGuildName
PUBLIC	?playerGetGuildID@@YAPAU_object@@PAU1@0@Z	; playerGetGuildID
PUBLIC	?playerGetElk@@YAPAU_object@@PAU1@0@Z		; playerGetElk
PUBLIC	?playerSetStatus@@YAPAU_object@@PAU1@0@Z	; playerSetStatus
PUBLIC	?playerGetStatus@@YAPAU_object@@PAU1@0@Z	; playerGetStatus
PUBLIC	?playerGetEXP@@YAPAU_object@@PAU1@0@Z		; playerGetEXP
PUBLIC	?playerAffectIndexToSkillIndex@@YAPAU_object@@PAU1@0@Z ; playerAffectIndexToSkillIndex
PUBLIC	?playerUseGuildSkill@@YAPAU_object@@PAU1@0@Z	; playerUseGuildSkill
PUBLIC	?playerIsSkillActive@@YAPAU_object@@PAU1@0@Z	; playerIsSkillActive
PUBLIC	?playerGetSkillCoolTime@@YAPAU_object@@PAU1@0@Z	; playerGetSkillCoolTime
PUBLIC	?playerIsSkillCoolTime@@YAPAU_object@@PAU1@0@Z	; playerIsSkillCoolTime
PUBLIC	?playerSetPlayTime@@YAPAU_object@@PAU1@0@Z	; playerSetPlayTime
PUBLIC	?playerGetPlayTime@@YAPAU_object@@PAU1@0@Z	; playerGetPlayTime
PUBLIC	?playerGetJob@@YAPAU_object@@PAU1@0@Z		; playerGetJob
PUBLIC	?playerGetRace@@YAPAU_object@@PAU1@0@Z		; playerGetRace
PUBLIC	?playerGetName@@YAPAU_object@@PAU1@0@Z		; playerGetName
PUBLIC	?playerSetMouseMiddleButtonState@@YAPAU_object@@PAU1@0@Z ; playerSetMouseMiddleButtonState
PUBLIC	?playerGetMouseFunc@@YAPAU_object@@PAU1@0@Z	; playerGetMouseFunc
PUBLIC	?playerSetMouseFunc@@YAPAU_object@@PAU1@0@Z	; playerSetMouseFunc
PUBLIC	?playerSetMouseState@@YAPAU_object@@PAU1@0@Z	; playerSetMouseState
PUBLIC	?playerSetAutoCameraRotationSpeed@@YAPAU_object@@PAU1@0@Z ; playerSetAutoCameraRotationSpeed
PUBLIC	?playerResetCameraRotation@@YAPAU_object@@PAU1@0@Z ; playerResetCameraRotation
PUBLIC	?playerEndMouseWalking@@YAPAU_object@@PAU1@0@Z	; playerEndMouseWalking
PUBLIC	?playerStartMouseWalking@@YAPAU_object@@PAU1@0@Z ; playerStartMouseWalking
PUBLIC	?playerEndKeyWalkingImmediately@@YAPAU_object@@PAU1@0@Z ; playerEndKeyWalkingImmediately
PUBLIC	?playerSetSingleDIKKeyState@@YAPAU_object@@PAU1@0@Z ; playerSetSingleDIKKeyState
PUBLIC	?playerSetAttackKeyState@@YAPAU_object@@PAU1@0@Z ; playerSetAttackKeyState
PUBLIC	?playerRegisterCacheEffect@@YAPAU_object@@PAU1@0@Z ; playerRegisterCacheEffect
PUBLIC	?playerRegisterEffect@@YAPAU_object@@PAU1@0@Z	; playerRegisterEffect
PUBLIC	?playerComboAttack@@YAPAU_object@@PAU1@0@Z	; playerComboAttack
PUBLIC	?playerHidePlayer@@YAPAU_object@@PAU1@0@Z	; playerHidePlayer
PUBLIC	?playerShowPlayer@@YAPAU_object@@PAU1@0@Z	; playerShowPlayer
PUBLIC	?playerActEmotion@@YAPAU_object@@PAU1@0@Z	; playerActEmotion
PUBLIC	?playerIsObserverMode@@YAPAU_object@@PAU1@0@Z	; playerIsObserverMode
PUBLIC	?playerIsMountingHorse@@YAPAU_object@@PAU1@0@Z	; playerIsMountingHorse
PUBLIC	?playerIsInSafeArea@@YAPAU_object@@PAU1@0@Z	; playerIsInSafeArea
PUBLIC	?playerGetCharacterDistance@@YAPAU_object@@PAU1@0@Z ; playerGetCharacterDistance
PUBLIC	?playerIsCantFightInstance@@YAPAU_object@@PAU1@0@Z ; playerIsCantFightInstance
PUBLIC	?playerIsRevengeInstance@@YAPAU_object@@PAU1@0@Z ; playerIsRevengeInstance
PUBLIC	?playerIsChallengeInstance@@YAPAU_object@@PAU1@0@Z ; playerIsChallengeInstance
PUBLIC	?playerIsSameEmpire@@YAPAU_object@@PAU1@0@Z	; playerIsSameEmpire
PUBLIC	?playerIsPVPInstance@@YAPAU_object@@PAU1@0@Z	; playerIsPVPInstance
PUBLIC	?playerIsActingEmotion@@YAPAU_object@@PAU1@0@Z	; playerIsActingEmotion
PUBLIC	?playerCanAttackInstance@@YAPAU_object@@PAU1@0@Z ; playerCanAttackInstance
PUBLIC	?playerIsMainCharacterIndex@@YAPAU_object@@PAU1@0@Z ; playerIsMainCharacterIndex
PUBLIC	?playerGetMainCharacterPosition@@YAPAU_object@@PAU1@0@Z ; playerGetMainCharacterPosition
PUBLIC	?playerGetMainCharacterName@@YAPAU_object@@PAU1@0@Z ; playerGetMainCharacterName
PUBLIC	?playerGetMainCharacterIndex@@YAPAU_object@@PAU1@0@Z ; playerGetMainCharacterIndex
PUBLIC	?playerSetMainCharacterIndex@@YAPAU_object@@PAU1@0@Z ; playerSetMainCharacterIndex
PUBLIC	?playerSetQuickCameraMode@@YAPAU_object@@PAU1@0@Z ; playerSetQuickCameraMode
PUBLIC	?playerSetGameWindow@@YAPAU_object@@PAU1@0@Z	; playerSetGameWindow
PUBLIC	?playerPickCloseItem@@YAPAU_object@@PAU1@0@Z	; playerPickCloseItem
PUBLIC	?IsAvailableCell@CBeltInventoryHelper@@SA_NGH@Z	; CBeltInventoryHelper::IsAvailableCell
PUBLIC	?GetAvailableRuleTableByGrade@CBeltInventoryHelper@@SAPBEXZ ; CBeltInventoryHelper::GetAvailableRuleTableByGrade
PUBLIC	??1?$map@HPAVCGraphicImage@@U?$less@H@std@@V?$allocator@U?$pair@$$CBHPAVCGraphicImage@@@std@@@3@@std@@QAE@XZ ; std::map<int,CGraphicImage *,std::less<int>,std::allocator<std::pair<int const ,CGraphicImage *> > >::~map<int,CGraphicImage *,std::less<int>,std::allocator<std::pair<int const ,CGraphicImage *> > >
PUBLIC	?GetAutoPotionInfo@CPythonPlayer@@QAEAAUSAutoPotionInfo@1@H@Z ; CPythonPlayer::GetAutoPotionInfo
PUBLIC	?m_kMap_iEmotionIndex_pkIconImage@@3V?$map@HPAVCGraphicImage@@U?$less@H@std@@V?$allocator@U?$pair@$$CBHPAVCGraphicImage@@@std@@@3@@std@@A ; m_kMap_iEmotionIndex_pkIconImage
	ALIGN	8

?m_kMap_iEmotionIndex_pkIconImage@@3V?$map@HPAVCGraphicImage@@U?$less@H@std@@V?$allocator@U?$pair@$$CBHPAVCGraphicImage@@@std@@@3@@std@@A DQ 01H DUP (?) ; m_kMap_iEmotionIndex_pkIconImage
_BSS	ENDS
;	COMDAT xdata$x
xdata$x	SEGMENT
__ehfuncinfo$?playerGetGuildName@@YAPAU_object@@PAU1@0@Z DD 019930522H
	DD	01H
	DD	FLAT:__unwindtable$?playerGetGuildName@@YAPAU_object@@PAU1@0@Z
	DD	2 DUP(00H)
	DD	2 DUP(00H)
	DD	00H
	DD	01H
__unwindtable$?playerGetGuildName@@YAPAU_object@@PAU1@0@Z DD 0ffffffffH
	DD	FLAT:__unwindfunclet$?playerGetGuildName@@YAPAU_object@@PAU1@0@Z$0
xdata$x	ENDS
;	COMDAT xdata$x
xdata$x	SEGMENT
__ehfuncinfo$?playerRegisterEmotionIcon@@YAPAU_object@@PAU1@0@Z DD 019930522H
	DD	01H
	DD	FLAT:__unwindtable$?playerRegisterEmotionIcon@@YAPAU_object@@PAU1@0@Z
	DD	2 DUP(00H)
	DD	2 DUP(00H)
	DD	00H
	DD	01H
__unwindtable$?playerRegisterEmotionIcon@@YAPAU_object@@PAU1@0@Z DD 0ffffffffH
	DD	FLAT:__unwindfunclet$?playerRegisterEmotionIcon@@YAPAU_object@@PAU1@0@Z$2
xdata$x	ENDS
;	COMDAT xdata$x
xdata$x	SEGMENT
__ehfuncinfo$??$insert@U?$pair@HPAVCGraphicImage@@@std@@$0A@@?$map@HPAVCGraphicImage@@U?$less@H@std@@V?$allocator@U?$pair@$$CBHPAVCGraphicImage@@@std@@@3@@std@@QAE?AU?$pair@V?$_Tree_iterator@V?$_Tree_val@U?$_Tree_simple_types@U?$pair@$$CBHPAVCGraphicImage@@@std@@@std@@@std@@@std@@_N@1@$$QAU?$pair@HPAVCGraphicImage@@@1@@Z DD 019930522H
	DD	01H
	DD	FLAT:__unwindtable$??$insert@U?$pair@HPAVCGraphicImage@@@std@@$0A@@?$map@HPAVCGraphicImage@@U?$less@H@std@@V?$allocator@U?$pair@$$CBHPAVCGraphicImage@@@std@@@3@@std@@QAE?AU?$pair@V?$_Tree_iterator@V?$_Tree_val@U?$_Tree_simple_types@U?$pair@$$CBHPAVCGraphicImage@@@std@@@std@@@std@@@std@@_N@1@$$QAU?$pair@HPAVCGraphicImage@@@1@@Z
	DD	2 DUP(00H)
	DD	2 DUP(00H)
	DD	00H
	DD	01H
__unwindtable$??$insert@U?$pair@HPAVCGraphicImage@@@std@@$0A@@?$map@HPAVCGraphicImage@@U?$less@H@std@@V?$allocator@U?$pair@$$CBHPAVCGraphicImage@@@std@@@3@@std@@QAE?AU?$pair@V?$_Tree_iterator@V?$_Tree_val@U?$_Tree_simple_types@U?$pair@$$CBHPAVCGraphicImage@@@std@@@std@@@std@@@std@@_N@1@$$QAU?$pair@HPAVCGraphicImage@@@1@@Z DD 0ffffffffH
	DD	FLAT:__unwindfunclet$??$insert@U?$pair@HPAVCGraphicImage@@@std@@$0A@@?$map@HPAVCGraphicImage@@U?$less@H@std@@V?$allocator@U?$pair@$$CBHPAVCGraphicImage@@@std@@@3@@std@@QAE?AU?$pair@V?$_Tree_iterator@V?$_Tree_val@U?$_Tree_simple_types@U?$pair@$$CBHPAVCGraphicImage@@@std@@@std@@@std@@@std@@_N@1@$$QAU?$pair@HPAVCGraphicImage@@@1@@Z$2
xdata$x	ENDS
;	COMDAT xdata$x
xdata$x	SEGMENT
__ehfuncinfo$??A?$map@HPAVCGraphicImage@@U?$less@H@std@@V?$allocator@U?$pair@$$CBHPAVCGraphicImage@@@std@@@3@@std@@QAEAAPAVCGraphicImage@@ABH@Z DD 019930522H
	DD	01H
	DD	FLAT:__unwindtable$??A?$map@HPAVCGraphicImage@@U?$less@H@std@@V?$allocator@U?$pair@$$CBHPAVCGraphicImage@@@std@@@3@@std@@QAEAAPAVCGraphicImage@@ABH@Z
	DD	2 DUP(00H)
	DD	2 DUP(00H)
	DD	00H
	DD	01H
__unwindtable$??A?$map@HPAVCGraphicImage@@U?$less@H@std@@V?$allocator@U?$pair@$$CBHPAVCGraphicImage@@@std@@@3@@std@@QAEAAPAVCGraphicImage@@ABH@Z DD 0ffffffffH
	DD	FLAT:__unwindfunclet$??A?$map@HPAVCGraphicImage@@U?$less@H@std@@V?$allocator@U?$pair@$$CBHPAVCGraphicImage@@@std@@@3@@std@@QAEAAPAVCGraphicImage@@ABH@Z$2
xdata$x	ENDS
;	COMDAT xdata$x
xdata$x	SEGMENT
__ehfuncinfo$??$emplace@U?$pair@HPAVCGraphicImage@@@std@@@?$_Tree@V?$_Tmap_traits@HPAVCGraphicImage@@U?$less@H@std@@V?$allocator@U?$pair@$$CBHPAVCGraphicImage@@@std@@@3@$0A@@std@@@std@@QAE?AU?$pair@V?$_Tree_iterator@V?$_Tree_val@U?$_Tree_simple_types@U?$pair@$$CBHPAVCGraphicImage@@@std@@@std@@@std@@@std@@_N@1@$$QAU?$pair@HPAVCGraphicImage@@@1@@Z DD 019930522H
	DD	01H
	DD	FLAT:__unwindtable$??$emplace@U?$pair@HPAVCGraphicImage@@@std@@@?$_Tree@V?$_Tmap_traits@HPAVCGraphicImage@@U?$less@H@std@@V?$allocator@U?$pair@$$CBHPAVCGraphicImage@@@std@@@3@$0A@@std@@@std@@QAE?AU?$pair@V?$_Tree_iterator@V?$_Tree_val@U?$_Tree_simple_types@U?$pair@$$CBHPAVCGraphicImage@@@std@@@std@@@std@@@std@@_N@1@$$QAU?$pair@HPAVCGraphicImage@@@1@@Z
	DD	2 DUP(00H)
	DD	2 DUP(00H)
	DD	00H
	DD	01H
__unwindtable$??$emplace@U?$pair@HPAVCGraphicImage@@@std@@@?$_Tree@V?$_Tmap_traits@HPAVCGraphicImage@@U?$less@H@std@@V?$allocator@U?$pair@$$CBHPAVCGraphicImage@@@std@@@3@$0A@@std@@@std@@QAE?AU?$pair@V?$_Tree_iterator@V?$_Tree_val@U?$_Tree_simple_types@U?$pair@$$CBHPAVCGraphicImage@@@std@@@std@@@std@@@std@@_N@1@$$QAU?$pair@HPAVCGraphicImage@@@1@@Z DD 0ffffffffH
	DD	FLAT:__unwindfunclet$??$emplace@U?$pair@HPAVCGraphicImage@@@std@@@?$_Tree@V?$_Tmap_traits@HPAVCGraphicImage@@U?$less@H@std@@V?$allocator@U?$pair@$$CBHPAVCGraphicImage@@@std@@@3@$0A@@std@@@std@@QAE?AU?$pair@V?$_Tree_iterator@V?$_Tree_val@U?$_Tree_simple_types@U?$pair@$$CBHPAVCGraphicImage@@@std@@@std@@@std@@@std@@_N@1@$$QAU?$pair@HPAVCGraphicImage@@@1@@Z$2
xdata$x	ENDS
;	COMDAT xdata$x
xdata$x	SEGMENT
__ehfuncinfo$??$_Try_emplace@ABH$$V@?$map@HPAVCGraphicImage@@U?$less@H@std@@V?$allocator@U?$pair@$$CBHPAVCGraphicImage@@@std@@@3@@std@@AAE?AU?$pair@PAU?$_Tree_node@U?$pair@$$CBHPAVCGraphicImage@@@std@@PAX@std@@_N@1@ABH@Z DD 019930522H
	DD	01H
	DD	FLAT:__unwindtable$??$_Try_emplace@ABH$$V@?$map@HPAVCGraphicImage@@U?$less@H@std@@V?$allocator@U?$pair@$$CBHPAVCGraphicImage@@@std@@@3@@std@@AAE?AU?$pair@PAU?$_Tree_node@U?$pair@$$CBHPAVCGraphicImage@@@std@@PAX@std@@_N@1@ABH@Z
	DD	2 DUP(00H)
	DD	2 DUP(00H)
	DD	00H
	DD	01H
__unwindtable$??$_Try_emplace@ABH$$V@?$map@HPAVCGraphicImage@@U?$less@H@std@@V?$allocator@U?$pair@$$CBHPAVCGraphicImage@@@std@@@3@@std@@AAE?AU?$pair@PAU?$_Tree_node@U?$pair@$$CBHPAVCGraphicImage@@@std@@PAX@std@@_N@1@ABH@Z DD 0ffffffffH
	DD	FLAT:__unwindfunclet$??$_Try_emplace@ABH$$V@?$map@HPAVCGraphicImage@@U?$less@H@std@@V?$allocator@U?$pair@$$CBHPAVCGraphicImage@@@std@@@3@@std@@AAE?AU?$pair@PAU?$_Tree_node@U?$pair@$$CBHPAVCGraphicImage@@@std@@PAX@std@@_N@1@ABH@Z$2
xdata$x	ENDS
;	COMDAT xdata$x
xdata$x	SEGMENT
__ehfuncinfo$??$_Emplace@U?$pair@HPAVCGraphicImage@@@std@@@?$_Tree@V?$_Tmap_traits@HPAVCGraphicImage@@U?$less@H@std@@V?$allocator@U?$pair@$$CBHPAVCGraphicImage@@@std@@@3@$0A@@std@@@std@@IAE?AU?$pair@PAU?$_Tree_node@U?$pair@$$CBHPAVCGraphicImage@@@std@@PAX@std@@_N@1@$$QAU?$pair@HPAVCGraphicImage@@@1@@Z DD 019930522H
	DD	01H
	DD	FLAT:__unwindtable$??$_Emplace@U?$pair@HPAVCGraphicImage@@@std@@@?$_Tree@V?$_Tmap_traits@HPAVCGraphicImage@@U?$less@H@std@@V?$allocator@U?$pair@$$CBHPAVCGraphicImage@@@std@@@3@$0A@@std@@@std@@IAE?AU?$pair@PAU?$_Tree_node@U?$pair@$$CBHPAVCGraphicImage@@@std@@PAX@std@@_N@1@$$QAU?$pair@HPAVCGraphicImage@@@1@@Z
	DD	2 DUP(00H)
	DD	2 DUP(00H)
	DD	00H
	DD	01H
__unwindtable$??$_Emplace@U?$pair@HPAVCGraphicImage@@@std@@@?$_Tree@V?$_Tmap_traits@HPAVCGraphicImage@@U?$less@H@std@@V?$allocator@U?$pair@$$CBHPAVCGraphicImage@@@std@@@3@$0A@@std@@@std@@IAE?AU?$pair@PAU?$_Tree_node@U?$pair@$$CBHPAVCGraphicImage@@@std@@PAX@std@@_N@1@$$QAU?$pair@HPAVCGraphicImage@@@1@@Z DD 0ffffffffH
	DD	FLAT:__unwindfunclet$??$_Emplace@U?$pair@HPAVCGraphicImage@@@std@@@?$_Tree@V?$_Tmap_traits@HPAVCGraphicImage@@U?$less@H@std@@V?$allocator@U?$pair@$$CBHPAVCGraphicImage@@@std@@@3@$0A@@std@@@std@@IAE?AU?$pair@PAU?$_Tree_node@U?$pair@$$CBHPAVCGraphicImage@@@std@@PAX@std@@_N@1@$$QAU?$pair@HPAVCGraphicImage@@@1@@Z$2
xdata$x	ENDS
;	COMDAT xdata$x
xdata$x	SEGMENT
__ehfuncinfo$??$?0ABUpiecewise_construct_t@std@@V?$tuple@ABH@1@V?$tuple@$$V@1@@?$_Tree_temp_node@V?$allocator@U?$_Tree_node@U?$pair@$$CBHPAVCGraphicImage@@@std@@PAX@std@@@std@@@std@@QAE@AAV?$allocator@U?$_Tree_node@U?$pair@$$CBHPAVCGraphicImage@@@std@@PAX@std@@@1@PAU?$_Tree_node@U?$pair@$$CBHPAVCGraphicImage@@@std@@PAX@1@ABUpiecewise_construct_t@1@$$QAV?$tuple@ABH@1@$$QAV?$tuple@$$V@1@@Z DD 019930522H
	DD	01H
	DD	FLAT:__unwindtable$??$?0ABUpiecewise_construct_t@std@@V?$tuple@ABH@1@V?$tuple@$$V@1@@?$_Tree_temp_node@V?$allocator@U?$_Tree_node@U?$pair@$$CBHPAVCGraphicImage@@@std@@PAX@std@@@std@@@std@@QAE@AAV?$allocator@U?$_Tree_node@U?$pair@$$CBHPAVCGraphicImage@@@std@@PAX@std@@@1@PAU?$_Tree_node@U?$pair@$$CBHPAVCGraphicImage@@@std@@PAX@1@ABUpiecewise_construct_t@1@$$QAV?$tuple@ABH@1@$$QAV?$tuple@$$V@1@@Z
	DD	2 DUP(00H)
	DD	2 DUP(00H)
	DD	00H
	DD	01H
__unwindtable$??$?0ABUpiecewise_construct_t@std@@V?$tuple@ABH@1@V?$tuple@$$V@1@@?$_Tree_temp_node@V?$allocator@U?$_Tree_node@U?$pair@$$CBHPAVCGraphicImage@@@std@@PAX@std@@@std@@@std@@QAE@AAV?$allocator@U?$_Tree_node@U?$pair@$$CBHPAVCGraphicImage@@@std@@PAX@std@@@1@PAU?$_Tree_node@U?$pair@$$CBHPAVCGraphicImage@@@std@@PAX@1@ABUpiecewise_construct_t@1@$$QAV?$tuple@ABH@1@$$QAV?$tuple@$$V@1@@Z DD 0ffffffffH
	DD	FLAT:__unwindfunclet$??$?0ABUpiecewise_construct_t@std@@V?$tuple@ABH@1@V?$tuple@$$V@1@@?$_Tree_temp_node@V?$allocator@U?$_Tree_node@U?$pair@$$CBHPAVCGraphicImage@@@std@@PAX@std@@@std@@@std@@QAE@AAV?$allocator@U?$_Tree_node@U?$pair@$$CBHPAVCGraphicImage@@@std@@PAX@std@@@1@PAU?$_Tree_node@U?$pair@$$CBHPAVCGraphicImage@@@std@@PAX@1@ABUpiecewise_construct_t@1@$$QAV?$tuple@ABH@1@$$QAV?$tuple@$$V@1@@Z$1
xdata$x	ENDS
;	COMDAT xdata$x
xdata$x	SEGMENT
__ehfuncinfo$??$?0U?$pair@HPAVCGraphicImage@@@std@@@?$_Tree_temp_node@V?$allocator@U?$_Tree_node@U?$pair@$$CBHPAVCGraphicImage@@@std@@PAX@std@@@std@@@std@@QAE@AAV?$allocator@U?$_Tree_node@U?$pair@$$CBHPAVCGraphicImage@@@std@@PAX@std@@@1@PAU?$_Tree_node@U?$pair@$$CBHPAVCGraphicImage@@@std@@PAX@1@$$QAU?$pair@HPAVCGraphicImage@@@1@@Z DD 019930522H
	DD	01H
	DD	FLAT:__unwindtable$??$?0U?$pair@HPAVCGraphicImage@@@std@@@?$_Tree_temp_node@V?$allocator@U?$_Tree_node@U?$pair@$$CBHPAVCGraphicImage@@@std@@PAX@std@@@std@@@std@@QAE@AAV?$allocator@U?$_Tree_node@U?$pair@$$CBHPAVCGraphicImage@@@std@@PAX@std@@@1@PAU?$_Tree_node@U?$pair@$$CBHPAVCGraphicImage@@@std@@PAX@1@$$QAU?$pair@HPAVCGraphicImage@@@1@@Z
	DD	2 DUP(00H)
	DD	2 DUP(00H)
	DD	00H
	DD	01H
__unwindtable$??$?0U?$pair@HPAVCGraphicImage@@@std@@@?$_Tree_temp_node@V?$allocator@U?$_Tree_node@U?$pair@$$CBHPAVCGraphicImage@@@std@@PAX@std@@@std@@@std@@QAE@AAV?$allocator@U?$_Tree_node@U?$pair@$$CBHPAVCGraphicImage@@@std@@PAX@std@@@1@PAU?$_Tree_node@U?$pair@$$CBHPAVCGraphicImage@@@std@@PAX@1@$$QAU?$pair@HPAVCGraphicImage@@@1@@Z DD 0ffffffffH
	DD	FLAT:__unwindfunclet$??$?0U?$pair@HPAVCGraphicImage@@@std@@@?$_Tree_temp_node@V?$allocator@U?$_Tree_node@U?$pair@$$CBHPAVCGraphicImage@@@std@@PAX@std@@@std@@@std@@QAE@AAV?$allocator@U?$_Tree_node@U?$pair@$$CBHPAVCGraphicImage@@@std@@PAX@std@@@1@PAU?$_Tree_node@U?$pair@$$CBHPAVCGraphicImage@@@std@@PAX@1@$$QAU?$pair@HPAVCGraphicImage@@@1@@Z$1
xdata$x	ENDS
;	COMDAT xdata$x
xdata$x	SEGMENT
__ehfuncinfo$??0?$_Tree_temp_node_alloc@V?$allocator@U?$_Tree_node@U?$pair@$$CBHPAVCGraphicImage@@@std@@PAX@std@@@std@@@std@@QAE@AAV?$allocator@U?$_Tree_node@U?$pair@$$CBHPAVCGraphicImage@@@std@@PAX@std@@@1@@Z DD 019930522H
	DD	01H
	DD	FLAT:__unwindtable$??0?$_Tree_temp_node_alloc@V?$allocator@U?$_Tree_node@U?$pair@$$CBHPAVCGraphicImage@@@std@@PAX@std@@@std@@@std@@QAE@AAV?$allocator@U?$_Tree_node@U?$pair@$$CBHPAVCGraphicImage@@@std@@PAX@std@@@1@@Z
	DD	2 DUP(00H)
	DD	2 DUP(00H)
	DD	00H
	DD	01H
__unwindtable$??0?$_Tree_temp_node_alloc@V?$allocator@U?$_Tree_node@U?$pair@$$CBHPAVCGraphicImage@@@std@@PAX@std@@@std@@@std@@QAE@AAV?$allocator@U?$_Tree_node@U?$pair@$$CBHPAVCGraphicImage@@@std@@PAX@std@@@1@@Z DD 0ffffffffH
	DD	FLAT:__unwindfunclet$??0?$_Tree_temp_node_alloc@V?$allocator@U?$_Tree_node@U?$pair@$$CBHPAVCGraphicImage@@@std@@PAX@std@@@std@@@std@@QAE@AAV?$allocator@U?$_Tree_node@U?$pair@$$CBHPAVCGraphicImage@@@std@@PAX@std@@@1@@Z$0
?m_kMap_iEmotionIndex_pkIconImage$initializer$@@3P6AXXZA DD FLAT:??__Em_kMap_iEmotionIndex_pkIconImage@@YAXXZ ; m_kMap_iEmotionIndex_pkIconImage$initializer$
; Function compile flags: /Ogtp
; File D:\_m2work\txoko-m2-work\txoko-client-src\source\UserInterface\PythonPlayer.h
;	COMDAT ?GetAutoPotionInfo@CPythonPlayer@@QAEAAUSAutoPotionInfo@1@H@Z
_TEXT	SEGMENT
_type$ = 8						; size = 4
?GetAutoPotionInfo@CPythonPlayer@@QAEAAUSAutoPotionInfo@1@H@Z PROC ; CPythonPlayer::GetAutoPotionInfo, COMDAT
; _this$ = ecx

; 427  : 		__inline		SAutoPotionInfo& GetAutoPotionInfo(int type)		{ return m_kAutoPotionInfo[type]; }

  00000	55		 push	 ebp
  00001	8b ec		 mov	 ebp, esp
  00003	8b 45 08	 mov	 eax, DWORD PTR _type$[ebp]
  00006	81 c1 24 08 01
	00		 add	 ecx, 67620		; 00010824H
  0000c	c1 e0 04	 shl	 eax, 4
  0000f	03 c1		 add	 eax, ecx
  00011	5d		 pop	 ebp
  00012	c2 04 00	 ret	 4
?GetAutoPotionInfo@CPythonPlayer@@QAEAAUSAutoPotionInfo@1@H@Z ENDP ; CPythonPlayer::GetAutoPotionInfo
_TEXT	ENDS
; Function compile flags: /Ogtp
; File D:\_m2work\txoko-m2-work\txoko-client-src\source\UserInterface\PythonPlayerModule.cpp
; File C:\Program Files\Microsoft Visual Studio\2022\Community\VC\Tools\MSVC\14.44.35207\include\xmemory
; File D:\_m2work\txoko-m2-work\txoko-client-src\source\UserInterface\PythonPlayerModule.cpp
; File C:\Program Files\Microsoft Visual Studio\2022\Community\VC\Tools\MSVC\14.44.35207\include\xtree
; File D:\_m2work\txoko-m2-work\txoko-client-src\source\UserInterface\PythonPlayerModule.cpp
;	COMDAT ??__Em_kMap_iEmotionIndex_pkIconImage@@YAXXZ
text$di	SEGMENT
??__Em_kMap_iEmotionIndex_pkIconImage@@YAXXZ PROC	; `dynamic initializer for 'm_kMap_iEmotionIndex_pkIconImage'', COMDAT
; File C:\Program Files\Microsoft Visual Studio\2022\Community\VC\Tools\MSVC\14.44.35207\include\xmemory

; 136  :         return ::operator new(_Bytes);

  00000	6a 18		 push	 24			; 00000018H
  00002	e8 00 00 00 00	 call	 ??2@YAPAXI@Z		; operator new
; File D:\_m2work\txoko-m2-work\txoko-client-src\source\UserInterface\PythonPlayerModule.cpp

; 45   : std::map<int, CGraphicImage *> m_kMap_iEmotionIndex_pkIconImage;

  00007	68 00 00 00 00	 push	 OFFSET ??__Fm_kMap_iEmotionIndex_pkIconImage@@YAXXZ ; `dynamic atexit destructor for 'm_kMap_iEmotionIndex_pkIconImage''
; File C:\Program Files\Microsoft Visual Studio\2022\Community\VC\Tools\MSVC\14.44.35207\include\xtree

; 346  :         _Construct_in_place(_Pnode->_Left, _Pnode);

  0000c	89 00		 mov	 DWORD PTR [eax], eax

; 347  :         _Construct_in_place(_Pnode->_Parent, _Pnode);

  0000e	89 40 04	 mov	 DWORD PTR [eax+4], eax

; 348  :         _Construct_in_place(_Pnode->_Right, _Pnode);

  00011	89 40 08	 mov	 DWORD PTR [eax+8], eax

; 349  :         _Pnode->_Color = _Black;

  00014	66 c7 40 0c 01
	01		 mov	 WORD PTR [eax+12], 257	; 00000101H

; 1957 :         _Scary->_Myhead = _Node::_Buyheadnode(_Getal());

  0001a	a3 00 00 00 00	 mov	 DWORD PTR ?m_kMap_iEmotionIndex_pkIconImage@@3V?$map@HPAVCGraphicImage@@U?$less@H@std@@V?$allocator@U?$pair@$$CBHPAVCGraphicImage@@@std@@@3@@std@@A, eax
; File D:\_m2work\txoko-m2-work\txoko-client-src\source\UserInterface\PythonPlayerModule.cpp

; 45   : std::map<int, CGraphicImage *> m_kMap_iEmotionIndex_pkIconImage;

  0001f	e8 00 00 00 00	 call	 _atexit
  00024	83 c4 08	 add	 esp, 8
  00027	c3		 ret	 0
??__Em_kMap_iEmotionIndex_pkIconImage@@YAXXZ ENDP	; `dynamic initializer for 'm_kMap_iEmotionIndex_pkIconImage''
text$di	ENDS
; Function compile flags: /Ogtp
; File C:\Program Files\Microsoft Visual Studio\2022\Community\VC\Tools\MSVC\14.44.35207\include\xtree
; File C:\Program Files\Microsoft Visual Studio\2022\Community\VC\Tools\MSVC\14.44.35207\include\utility
; File C:\Program Files\Microsoft Visual Studio\2022\Community\VC\Tools\MSVC\14.44.35207\include\xmemory
; File C:\Program Files\Microsoft Visual Studio\2022\Community\VC\Tools\MSVC\14.44.35207\include\xtree
; File C:\Program Files\Microsoft Visual Studio\2022\Community\VC\Tools\MSVC\14.44.35207\include\xmemory
;	COMDAT ??__Fm_kMap_iEmotionIndex_pkIconImage@@YAXXZ
text$yd	SEGMENT
??__Fm_kMap_iEmotionIndex_pkIconImage@@YAXXZ PROC	; `dynamic atexit destructor for 'm_kMap_iEmotionIndex_pkIconImage'', COMDAT
; File C:\Program Files\Microsoft Visual Studio\2022\Community\VC\Tools\MSVC\14.44.35207\include\xtree

; 777  :         _Erase_tree(_Al, _Myhead->_Parent);

  00000	a1 00 00 00 00	 mov	 eax, DWORD PTR ?m_kMap_iEmotionIndex_pkIconImage@@3V?$map@HPAVCGraphicImage@@U?$less@H@std@@V?$allocator@U?$pair@$$CBHPAVCGraphicImage@@@std@@@3@@std@@A
  00005	56		 push	 esi
  00006	8b 70 04	 mov	 esi, DWORD PTR [eax+4]

; 768  :         while (!_Rootnode->_Isnil) { // free subtrees, then node

  00009	80 7e 0d 00	 cmp	 BYTE PTR [esi+13], 0
  0000d	75 2d		 jne	 SHORT $LN102@dynamic
  0000f	90		 npad	 1
$LL15@dynamic:

; 769  :             _Erase_tree(_Al, _Rootnode->_Right);

  00010	ff 76 08	 push	 DWORD PTR [esi+8]
  00013	b9 00 00 00 00	 mov	 ecx, OFFSET ?m_kMap_iEmotionIndex_pkIconImage@@3V?$map@HPAVCGraphicImage@@U?$less@H@std@@V?$allocator@U?$pair@$$CBHPAVCGraphicImage@@@std@@@3@@std@@A ; m_kMap_iEmotionIndex_pkIconImage
  00018	68 00 00 00 00	 push	 OFFSET ?m_kMap_iEmotionIndex_pkIconImage@@3V?$map@HPAVCGraphicImage@@U?$less@H@std@@V?$allocator@U?$pair@$$CBHPAVCGraphicImage@@@std@@@3@@std@@A ; m_kMap_iEmotionIndex_pkIconImage
  0001d	e8 00 00 00 00	 call	 ??$_Erase_tree@V?$allocator@U?$_Tree_node@U?$pair@$$CBHPAVCGraphicImage@@@std@@PAX@std@@@std@@@?$_Tree_val@U?$_Tree_simple_types@U?$pair@$$CBHPAVCGraphicImage@@@std@@@std@@@std@@QAEXAAV?$allocator@U?$_Tree_node@U?$pair@$$CBHPAVCGraphicImage@@@std@@PAX@std@@@1@PAU?$_Tree_node@U?$pair@$$CBHPAVCGraphicImage@@@std@@PAX@1@@Z ; std::_Tree_val<std::_Tree_simple_types<std::pair<int const ,CGraphicImage *> > >::_Erase_tree<std::allocator<std::_Tree_node<std::pair<int const ,CGraphicImage *>,void *> > >
; File C:\Program Files\Microsoft Visual Studio\2022\Community\VC\Tools\MSVC\14.44.35207\include\utility

; 773  :     _Ty _Old_val = static_cast<_Ty&&>(_Val);

  00022	8b c6		 mov	 eax, esi

; 774  :     _Val         = static_cast<_Other&&>(_New_val);

  00024	8b 36		 mov	 esi, DWORD PTR [esi]
; File C:\Program Files\Microsoft Visual Studio\2022\Community\VC\Tools\MSVC\14.44.35207\include\xmemory

; 289  :         ::operator delete(_Ptr, _Bytes);

  00026	6a 18		 push	 24			; 00000018H
  00028	50		 push	 eax
  00029	e8 00 00 00 00	 call	 ??3@YAXPAXI@Z		; operator delete
  0002e	83 c4 08	 add	 esp, 8
; File C:\Program Files\Microsoft Visual Studio\2022\Community\VC\Tools\MSVC\14.44.35207\include\xtree

; 768  :         while (!_Rootnode->_Isnil) { // free subtrees, then node

  00031	80 7e 0d 00	 cmp	 BYTE PTR [esi+13], 0
  00035	74 d9		 je	 SHORT $LL15@dynamic
  00037	a1 00 00 00 00	 mov	 eax, DWORD PTR ?m_kMap_iEmotionIndex_pkIconImage@@3V?$map@HPAVCGraphicImage@@U?$less@H@std@@V?$allocator@U?$pair@$$CBHPAVCGraphicImage@@@std@@@3@@std@@A
$LN102@dynamic:
; File C:\Program Files\Microsoft Visual Studio\2022\Community\VC\Tools\MSVC\14.44.35207\include\xmemory

; 289  :         ::operator delete(_Ptr, _Bytes);

  0003c	6a 18		 push	 24			; 00000018H
  0003e	50		 push	 eax
  0003f	e8 00 00 00 00	 call	 ??3@YAXPAXI@Z		; operator delete
  00044	83 c4 08	 add	 esp, 8
  00047	5e		 pop	 esi
  00048	c3		 ret	 0
??__Fm_kMap_iEmotionIndex_pkIconImage@@YAXXZ ENDP	; `dynamic atexit destructor for 'm_kMap_iEmotionIndex_pkIconImage''
text$yd	ENDS
; Function compile flags: /Ogtp
; File C:\Program Files\Microsoft Visual Studio\2022\Community\VC\Tools\MSVC\14.44.35207\include\xtree
; File C:\Program Files\Microsoft Visual Studio\2022\Community\VC\Tools\MSVC\14.44.35207\include\xmemory
;	COMDAT ??1?$map@HPAVCGraphicImage@@U?$less@H@std@@V?$allocator@U?$pair@$$CBHPAVCGraphicImage@@@std@@@3@@std@@QAE@XZ
_TEXT	SEGMENT
??1?$map@HPAVCGraphicImage@@U?$less@H@std@@V?$allocator@U?$pair@$$CBHPAVCGraphicImage@@@std@@@3@@std@@QAE@XZ PROC ; std::map<int,CGraphicImage *,std::less<int>,std::allocator<std::pair<int const ,CGraphicImage *> > >::~map<int,CGraphicImage *,std::less<int>,std::allocator<std::pair<int const ,CGraphicImage *> > >, COMDAT
; _this$ = ecx
; File C:\Program Files\Microsoft Visual Studio\2022\Community\VC\Tools\MSVC\14.44.35207\include\xtree

; 777  :         _Erase_tree(_Al, _Myhead->_Parent);

  00000	56		 push	 esi
  00001	8b f1		 mov	 esi, ecx
  00003	8b 06		 mov	 eax, DWORD PTR [esi]
  00005	ff 70 04	 push	 DWORD PTR [eax+4]
  00008	56		 push	 esi
  00009	e8 00 00 00 00	 call	 ??$_Erase_tree@V?$allocator@U?$_Tree_node@U?$pair@$$CBHPAVCGraphicImage@@@std@@PAX@std@@@std@@@?$_Tree_val@U?$_Tree_simple_types@U?$pair@$$CBHPAVCGraphicImage@@@std@@@std@@@std@@QAEXAAV?$allocator@U?$_Tree_node@U?$pair@$$CBHPAVCGraphicImage@@@std@@PAX@std@@@1@PAU?$_Tree_node@U?$pair@$$CBHPAVCGraphicImage@@@std@@PAX@1@@Z ; std::_Tree_val<std::_Tree_simple_types<std::pair<int const ,CGraphicImage *> > >::_Erase_tree<std::allocator<std::_Tree_node<std::pair<int const ,CGraphicImage *>,void *> > >
; File C:\Program Files\Microsoft Visual Studio\2022\Community\VC\Tools\MSVC\14.44.35207\include\xmemory

; 289  :         ::operator delete(_Ptr, _Bytes);

  0000e	6a 18		 push	 24			; 00000018H
  00010	ff 36		 push	 DWORD PTR [esi]
  00012	e8 00 00 00 00	 call	 ??3@YAXPAXI@Z		; operator delete
  00017	83 c4 08	 add	 esp, 8
  0001a	5e		 pop	 esi
  0001b	c3		 ret	 0
??1?$map@HPAVCGraphicImage@@U?$less@H@std@@V?$allocator@U?$pair@$$CBHPAVCGraphicImage@@@std@@@3@@std@@QAE@XZ ENDP ; std::map<int,CGraphicImage *,std::less<int>,std::allocator<std::pair<int const ,CGraphicImage *> > >::~map<int,CGraphicImage *,std::less<int>,std::allocator<std::pair<int const ,CGraphicImage *> > >
_TEXT	ENDS
; Function compile flags: /Ogtp
; File D:\_m2work\txoko-m2-work\txoko-client-src\source\UserInterface\PythonPlayerModule.cpp
;	COMDAT ?GetAvailableRuleTableByGrade@CBeltInventoryHelper@@SAPBEXZ
_TEXT	SEGMENT
?GetAvailableRuleTableByGrade@CBeltInventoryHelper@@SAPBEXZ PROC ; CBeltInventoryHelper::GetAvailableRuleTableByGrade, COMDAT

; 78   : 		/**
; 79   : 			  +0 ~ +9    ,   7      .
; 80   : 			        .   >=    .
; 81   : 			(,   0   ,    )
; 82   : 			
; 83   : 				2(1)  4(2)  6(4)  8(6)
; 84   : 				5(3)  5(3)  6(4)  8(6)
; 85   : 				7(5)  7(5)  7(5)  8(6)
; 86   : 				9(7)  9(7)  9(7)  9(7)
; 87   : 
; 88   : 			   4x4 (16)
; 89   : 		*/
; 90   : 
; 91   : 		static TGradeUnit availableRuleByGrade[c_Belt_Inventory_Slot_Count] = {
; 92   : 			1, 2, 4, 6,
; 93   : 			3, 3, 4, 6,
; 94   : 			5, 5, 5, 6,
; 95   : 			7, 7, 7, 7
; 96   : 		};
; 97   : 
; 98   : 		return availableRuleByGrade;

  00000	b8 00 00 00 00	 mov	 eax, OFFSET ?availableRuleByGrade@?1??GetAvailableRuleTableByGrade@CBeltInventoryHelper@@SAPBEXZ@4PAEA ; `CBeltInventoryHelper::GetAvailableRuleTableByGrade'::`2'::availableRuleByGrade

; 99   : 	}

  00005	c3		 ret	 0
?GetAvailableRuleTableByGrade@CBeltInventoryHelper@@SAPBEXZ ENDP ; CBeltInventoryHelper::GetAvailableRuleTableByGrade
_TEXT	ENDS
; Function compile flags: /Ogtp
; File D:\_m2work\txoko-m2-work\txoko-client-src\source\UserInterface\PythonPlayerModule.cpp
;	COMDAT ?IsAvailableCell@CBeltInventoryHelper@@SA_NGH@Z
_TEXT	SEGMENT
?IsAvailableCell@CBeltInventoryHelper@@SA_NGH@Z PROC	; CBeltInventoryHelper::IsAvailableCell, COMDAT
; _cell$ = cx
; _beltGrade$ = edx

; 103  : 		//   .. ...
; 104  : 		//const TGradeUnit beltGrade = GetBeltGradeByRefineLevel(beltLevel);		
; 105  : 		const TGradeUnit* ruleTable = GetAvailableRuleTableByGrade();
; 106  : 
; 107  : 		return ruleTable[cell] <= beltGrade;

  00000	0f b7 c1	 movzx	 eax, cx
  00003	0f b6 80 00 00
	00 00		 movzx	 eax, BYTE PTR ?availableRuleByGrade@?1??GetAvailableRuleTableByGrade@CBeltInventoryHelper@@SAPBEXZ@4PAEA[eax]
  0000a	3b c2		 cmp	 eax, edx
  0000c	0f 9e c0	 setle	 al

; 108  : 	}

  0000f	c3		 ret	 0
?IsAvailableCell@CBeltInventoryHelper@@SA_NGH@Z ENDP	; CBeltInventoryHelper::IsAvailableCell
_TEXT	ENDS
; Function compile flags: /Ogtp
; File D:\_m2work\txoko-m2-work\txoko-client-src\source\UserInterface\PythonPlayerModule.cpp
;	COMDAT ?playerPickCloseItem@@YAPAU_object@@PAU1@0@Z
_TEXT	SEGMENT
_poSelf$ = 8						; size = 4
_poArgs$ = 12						; size = 4
?playerPickCloseItem@@YAPAU_object@@PAU1@0@Z PROC	; playerPickCloseItem, COMDAT

; 115  : 	CPythonPlayer::Instance().PickCloseItem();

  00000	8b 0d 00 00 00
	00		 mov	 ecx, DWORD PTR ?ms_singleton@?$CSingleton@VCPythonPlayer@@@@0PAVCPythonPlayer@@A ; CSingleton<CPythonPlayer>::ms_singleton
  00006	e8 00 00 00 00	 call	 ?PickCloseItem@CPythonPlayer@@QAEXXZ ; CPythonPlayer::PickCloseItem

; 116  : 	return Py_BuildNone();

  0000b	e9 00 00 00 00	 jmp	 ?Py_BuildNone@@YAPAU_object@@XZ ; Py_BuildNone
?playerPickCloseItem@@YAPAU_object@@PAU1@0@Z ENDP	; playerPickCloseItem
_TEXT	ENDS
; Function compile flags: /Ogtp
; File D:\_m2work\txoko-m2-work\txoko-client-src\source\UserInterface\PythonPlayerModule.cpp
;	COMDAT ?playerSetGameWindow@@YAPAU_object@@PAU1@0@Z
_TEXT	SEGMENT
_pyHandle$ = -4						; size = 4
_poSelf$ = 8						; size = 4
_poArgs$ = 12						; size = 4
?playerSetGameWindow@@YAPAU_object@@PAU1@0@Z PROC	; playerSetGameWindow, COMDAT

; 121  : {

  00000	55		 push	 ebp
  00001	8b ec		 mov	 ebp, esp
  00003	51		 push	 ecx

; 122  : 	PyObject * pyHandle;
; 123  : 	if (!PyTuple_GetObject(poArgs, 0, &pyHandle))

  00004	8d 45 fc	 lea	 eax, DWORD PTR _pyHandle$[ebp]
  00007	50		 push	 eax
  00008	6a 00		 push	 0
  0000a	ff 75 0c	 push	 DWORD PTR _poArgs$[ebp]
  0000d	e8 00 00 00 00	 call	 ?PyTuple_GetObject@@YA_NPAU_object@@HPAPAU1@@Z ; PyTuple_GetObject
  00012	83 c4 0c	 add	 esp, 12			; 0000000cH
  00015	84 c0		 test	 al, al
  00017	75 09		 jne	 SHORT $LN2@playerSetG

; 124  : 		return Py_BadArgument();

  00019	e8 00 00 00 00	 call	 ?Py_BadArgument@@YAPAU_object@@XZ ; Py_BadArgument

; 129  : }

  0001e	8b e5		 mov	 esp, ebp
  00020	5d		 pop	 ebp
  00021	c3		 ret	 0
$LN2@playerSetG:

; 125  : 
; 126  : 	CPythonPlayer & rkPlayer = CPythonPlayer::Instance();
; 127  : 	rkPlayer.SetGameWindow(pyHandle);

  00022	ff 75 fc	 push	 DWORD PTR _pyHandle$[ebp]
  00025	8b 0d 00 00 00
	00		 mov	 ecx, DWORD PTR ?ms_singleton@?$CSingleton@VCPythonPlayer@@@@0PAVCPythonPlayer@@A ; CSingleton<CPythonPlayer>::ms_singleton
  0002b	e8 00 00 00 00	 call	 ?SetGameWindow@CPythonPlayer@@QAEXPAU_object@@@Z ; CPythonPlayer::SetGameWindow

; 128  : 	return Py_BuildNone();

  00030	e8 00 00 00 00	 call	 ?Py_BuildNone@@YAPAU_object@@XZ ; Py_BuildNone

; 129  : }

  00035	8b e5		 mov	 esp, ebp
  00037	5d		 pop	 ebp
  00038	c3		 ret	 0
?playerSetGameWindow@@YAPAU_object@@PAU1@0@Z ENDP	; playerSetGameWindow
_TEXT	ENDS
; Function compile flags: /Ogtp
; File D:\_m2work\txoko-m2-work\txoko-client-src\source\UserInterface\PythonPlayerModule.cpp
;	COMDAT ?playerSetQuickCameraMode@@YAPAU_object@@PAU1@0@Z
_TEXT	SEGMENT
_nIsEnable$ = -4					; size = 4
_poSelf$ = 8						; size = 4
_poArgs$ = 12						; size = 4
?playerSetQuickCameraMode@@YAPAU_object@@PAU1@0@Z PROC	; playerSetQuickCameraMode, COMDAT

; 133  : {

  00000	55		 push	 ebp
  00001	8b ec		 mov	 ebp, esp
  00003	51		 push	 ecx

; 134  : 	int nIsEnable;
; 135  : 	if (!PyTuple_GetInteger(poArgs, 0, &nIsEnable))

  00004	8d 45 fc	 lea	 eax, DWORD PTR _nIsEnable$[ebp]
  00007	50		 push	 eax
  00008	6a 00		 push	 0
  0000a	ff 75 0c	 push	 DWORD PTR _poArgs$[ebp]
  0000d	e8 00 00 00 00	 call	 ?PyTuple_GetInteger@@YA_NPAU_object@@HPAH@Z ; PyTuple_GetInteger
  00012	83 c4 0c	 add	 esp, 12			; 0000000cH
  00015	84 c0		 test	 al, al
  00017	75 09		 jne	 SHORT $LN2@playerSetQ

; 136  : 		return Py_BadArgument();

  00019	e8 00 00 00 00	 call	 ?Py_BadArgument@@YAPAU_object@@XZ ; Py_BadArgument

; 142  : }

  0001e	8b e5		 mov	 esp, ebp
  00020	5d		 pop	 ebp
  00021	c3		 ret	 0
$LN2@playerSetQ:

; 137  : 
; 138  : 	CPythonPlayer & rkPlayer = CPythonPlayer::Instance();
; 139  : 	rkPlayer.SetQuickCameraMode(nIsEnable ? true : false);	

  00022	83 7d fc 00	 cmp	 DWORD PTR _nIsEnable$[ebp], 0
  00026	8b 0d 00 00 00
	00		 mov	 ecx, DWORD PTR ?ms_singleton@?$CSingleton@VCPythonPlayer@@@@0PAVCPythonPlayer@@A ; CSingleton<CPythonPlayer>::ms_singleton
  0002c	0f 95 c0	 setne	 al
  0002f	0f b6 c0	 movzx	 eax, al
  00032	50		 push	 eax
  00033	e8 00 00 00 00	 call	 ?SetQuickCameraMode@CPythonPlayer@@QAEX_N@Z ; CPythonPlayer::SetQuickCameraMode

; 140  : 
; 141  : 	return Py_BuildNone();

  00038	e8 00 00 00 00	 call	 ?Py_BuildNone@@YAPAU_object@@XZ ; Py_BuildNone

; 142  : }

  0003d	8b e5		 mov	 esp, ebp
  0003f	5d		 pop	 ebp
  00040	c3		 ret	 0
?playerSetQuickCameraMode@@YAPAU_object@@PAU1@0@Z ENDP	; playerSetQuickCameraMode
_TEXT	ENDS
; Function compile flags: /Ogtp
; File D:\_m2work\txoko-m2-work\txoko-client-src\source\UserInterface\PythonPlayerModule.cpp
;	COMDAT ?playerSetMainCharacterIndex@@YAPAU_object@@PAU1@0@Z
_TEXT	SEGMENT
_iVID$ = -4						; size = 4
_poSelf$ = 8						; size = 4
_poArgs$ = 12						; size = 4
?playerSetMainCharacterIndex@@YAPAU_object@@PAU1@0@Z PROC ; playerSetMainCharacterIndex, COMDAT

; 146  : {

  00000	55		 push	 ebp
  00001	8b ec		 mov	 ebp, esp
  00003	51		 push	 ecx

; 147  : 	int iVID;
; 148  : 	if (!PyTuple_GetInteger(poArgs, 0, &iVID))

  00004	8d 45 fc	 lea	 eax, DWORD PTR _iVID$[ebp]
  00007	50		 push	 eax
  00008	6a 00		 push	 0
  0000a	ff 75 0c	 push	 DWORD PTR _poArgs$[ebp]
  0000d	e8 00 00 00 00	 call	 ?PyTuple_GetInteger@@YA_NPAU_object@@HPAH@Z ; PyTuple_GetInteger
  00012	83 c4 0c	 add	 esp, 12			; 0000000cH
  00015	84 c0		 test	 al, al
  00017	75 0e		 jne	 SHORT $LN2@playerSetM

; 149  : 		return Py_BuildException();

  00019	6a 00		 push	 0
  0001b	e8 00 00 00 00	 call	 ?Py_BuildException@@YAPAU_object@@PBDZZ ; Py_BuildException
  00020	83 c4 04	 add	 esp, 4

; 155  : }

  00023	8b e5		 mov	 esp, ebp
  00025	5d		 pop	 ebp
  00026	c3		 ret	 0
$LN2@playerSetM:

; 150  : 
; 151  : 	CPythonPlayer::Instance().SetMainCharacterIndex(iVID);

  00027	8b 0d 00 00 00
	00		 mov	 ecx, DWORD PTR ?ms_singleton@?$CSingleton@VCPythonPlayer@@@@0PAVCPythonPlayer@@A ; CSingleton<CPythonPlayer>::ms_singleton
  0002d	ff 75 fc	 push	 DWORD PTR _iVID$[ebp]
  00030	83 c1 04	 add	 ecx, 4
  00033	8b 01		 mov	 eax, DWORD PTR [ecx]
  00035	ff 50 08	 call	 DWORD PTR [eax+8]

; 152  : 	CPythonCharacterManager::Instance().SetMainInstance(iVID);

  00038	ff 75 fc	 push	 DWORD PTR _iVID$[ebp]
  0003b	8b 0d 00 00 00
	00		 mov	 ecx, DWORD PTR ?ms_singleton@?$CSingleton@VCPythonCharacterManager@@@@0PAVCPythonCharacterManager@@A ; CSingleton<CPythonCharacterManager>::ms_singleton
  00041	e8 00 00 00 00	 call	 ?SetMainInstance@CPythonCharacterManager@@QAE_NK@Z ; CPythonCharacterManager::SetMainInstance

; 153  : 
; 154  : 	return Py_BuildNone();

  00046	e8 00 00 00 00	 call	 ?Py_BuildNone@@YAPAU_object@@XZ ; Py_BuildNone

; 155  : }

  0004b	8b e5		 mov	 esp, ebp
  0004d	5d		 pop	 ebp
  0004e	c3		 ret	 0
?playerSetMainCharacterIndex@@YAPAU_object@@PAU1@0@Z ENDP ; playerSetMainCharacterIndex
_TEXT	ENDS
; Function compile flags: /Ogtp
; File D:\_m2work\txoko-m2-work\txoko-client-src\source\UserInterface\PythonPlayerModule.cpp
;	COMDAT ?playerGetMainCharacterIndex@@YAPAU_object@@PAU1@0@Z
_TEXT	SEGMENT
_poSelf$ = 8						; size = 4
_poArgs$ = 12						; size = 4
?playerGetMainCharacterIndex@@YAPAU_object@@PAU1@0@Z PROC ; playerGetMainCharacterIndex, COMDAT

; 160  : 	return Py_BuildValue("i", CPythonPlayer::Instance().GetMainCharacterIndex());

  00000	8b 0d 00 00 00
	00		 mov	 ecx, DWORD PTR ?ms_singleton@?$CSingleton@VCPythonPlayer@@@@0PAVCPythonPlayer@@A ; CSingleton<CPythonPlayer>::ms_singleton
  00006	83 c1 04	 add	 ecx, 4
  00009	8b 01		 mov	 eax, DWORD PTR [ecx]
  0000b	ff 50 04	 call	 DWORD PTR [eax+4]
  0000e	50		 push	 eax
  0000f	68 00 00 00 00	 push	 OFFSET ??_C@_01KBJDNOO@i@
  00014	ff 15 00 00 00
	00		 call	 DWORD PTR __imp__Py_BuildValue
  0001a	83 c4 08	 add	 esp, 8

; 161  : }

  0001d	c3		 ret	 0
?playerGetMainCharacterIndex@@YAPAU_object@@PAU1@0@Z ENDP ; playerGetMainCharacterIndex
_TEXT	ENDS
; Function compile flags: /Ogtp
; File D:\_m2work\txoko-m2-work\txoko-client-src\source\UserInterface\PythonPlayerModule.cpp
;	COMDAT ?playerGetMainCharacterName@@YAPAU_object@@PAU1@0@Z
_TEXT	SEGMENT
_poSelf$ = 8						; size = 4
_poArgs$ = 12						; size = 4
?playerGetMainCharacterName@@YAPAU_object@@PAU1@0@Z PROC ; playerGetMainCharacterName, COMDAT

; 165  : 	return Py_BuildValue("s", CPythonPlayer::Instance().GetName());

  00000	8b 0d 00 00 00
	00		 mov	 ecx, DWORD PTR ?ms_singleton@?$CSingleton@VCPythonPlayer@@@@0PAVCPythonPlayer@@A ; CSingleton<CPythonPlayer>::ms_singleton
  00006	83 c1 04	 add	 ecx, 4
  00009	8b 01		 mov	 eax, DWORD PTR [ecx]
  0000b	ff 50 14	 call	 DWORD PTR [eax+20]
  0000e	50		 push	 eax
  0000f	68 00 00 00 00	 push	 OFFSET ??_C@_01LKDEMHDF@s@
  00014	ff 15 00 00 00
	00		 call	 DWORD PTR __imp__Py_BuildValue
  0001a	83 c4 08	 add	 esp, 8

; 166  : }

  0001d	c3		 ret	 0
?playerGetMainCharacterName@@YAPAU_object@@PAU1@0@Z ENDP ; playerGetMainCharacterName
_TEXT	ENDS
; Function compile flags: /Ogtp
; File D:\_m2work\txoko-m2-work\txoko-client-src\source\UserInterface\PythonPlayerModule.cpp
;	COMDAT ?playerGetMainCharacterPosition@@YAPAU_object@@PAU1@0@Z
_TEXT	SEGMENT
_kPPosMainActor$ = -12					; size = 12
_poSelf$ = 8						; size = 4
_poArgs$ = 12						; size = 4
?playerGetMainCharacterPosition@@YAPAU_object@@PAU1@0@Z PROC ; playerGetMainCharacterPosition, COMDAT

; 169  : {

  00000	55		 push	 ebp
  00001	8b ec		 mov	 ebp, esp
  00003	83 e4 c0	 and	 esp, -64		; ffffffc0H
  00006	83 ec 40	 sub	 esp, 64			; 00000040H

; 170  : 	TPixelPosition kPPosMainActor;
; 171  : 	CPythonPlayer & rkPlayer = CPythonPlayer::Instance();
; 172  : 	rkPlayer.NEW_GetMainActorPosition(&kPPosMainActor);

  00009	8d 44 24 34	 lea	 eax, DWORD PTR _kPPosMainActor$[esp+64]
  0000d	50		 push	 eax
  0000e	e8 00 00 00 00	 call	 ?NEW_GetMainActorPosition@CPythonPlayer@@QAEXPAUD3DXVECTOR3@@@Z ; CPythonPlayer::NEW_GetMainActorPosition
  00013	f3 0f 10 44 24
	3c		 movss	 xmm0, DWORD PTR _kPPosMainActor$[esp+72]

; 173  : 	return Py_BuildValue("fff", kPPosMainActor.x, kPPosMainActor.y, kPPosMainActor.z);

  00019	83 ec 18	 sub	 esp, 24			; 00000018H
  0001c	0f 5a c0	 cvtps2pd xmm0, xmm0
  0001f	f2 0f 11 44 24
	10		 movsd	 QWORD PTR [esp+16], xmm0
  00025	f3 0f 10 44 24
	50		 movss	 xmm0, DWORD PTR _kPPosMainActor$[esp+92]
  0002b	0f 5a c0	 cvtps2pd xmm0, xmm0
  0002e	f2 0f 11 44 24
	08		 movsd	 QWORD PTR [esp+8], xmm0
  00034	f3 0f 10 44 24
	4c		 movss	 xmm0, DWORD PTR _kPPosMainActor$[esp+88]
  0003a	0f 5a c0	 cvtps2pd xmm0, xmm0
  0003d	f2 0f 11 04 24	 movsd	 QWORD PTR [esp], xmm0
  00042	68 00 00 00 00	 push	 OFFSET ??_C@_03LPALPDIP@fff@
  00047	ff 15 00 00 00
	00		 call	 DWORD PTR __imp__Py_BuildValue
  0004d	83 c4 1c	 add	 esp, 28			; 0000001cH

; 174  : }

  00050	8b e5		 mov	 esp, ebp
  00052	5d		 pop	 ebp
  00053	c3		 ret	 0
?playerGetMainCharacterPosition@@YAPAU_object@@PAU1@0@Z ENDP ; playerGetMainCharacterPosition
_TEXT	ENDS
; Function compile flags: /Ogtp
; File D:\_m2work\txoko-m2-work\txoko-client-src\source\UserInterface\PythonPlayerModule.cpp
;	COMDAT ?playerIsMainCharacterIndex@@YAPAU_object@@PAU1@0@Z
_TEXT	SEGMENT
_iVID$ = -4						; size = 4
_poSelf$ = 8						; size = 4
_poArgs$ = 12						; size = 4
?playerIsMainCharacterIndex@@YAPAU_object@@PAU1@0@Z PROC ; playerIsMainCharacterIndex, COMDAT

; 177  : {

  00000	55		 push	 ebp
  00001	8b ec		 mov	 ebp, esp
  00003	51		 push	 ecx

; 178  : 	int iVID;
; 179  : 	if (!PyTuple_GetInteger(poArgs, 0, &iVID))

  00004	8d 45 fc	 lea	 eax, DWORD PTR _iVID$[ebp]
  00007	50		 push	 eax
  00008	6a 00		 push	 0
  0000a	ff 75 0c	 push	 DWORD PTR _poArgs$[ebp]
  0000d	e8 00 00 00 00	 call	 ?PyTuple_GetInteger@@YA_NPAU_object@@HPAH@Z ; PyTuple_GetInteger
  00012	83 c4 0c	 add	 esp, 12			; 0000000cH
  00015	84 c0		 test	 al, al
  00017	75 0e		 jne	 SHORT $LN2@playerIsMa

; 180  : 		return Py_BuildException();

  00019	6a 00		 push	 0
  0001b	e8 00 00 00 00	 call	 ?Py_BuildException@@YAPAU_object@@PBDZZ ; Py_BuildException
  00020	83 c4 04	 add	 esp, 4

; 183  : }

  00023	8b e5		 mov	 esp, ebp
  00025	5d		 pop	 ebp
  00026	c3		 ret	 0
$LN2@playerIsMa:

; 181  : 
; 182  : 	return Py_BuildValue("i", CPythonPlayer::Instance().IsMainCharacterIndex(iVID));

  00027	8b 0d 00 00 00
	00		 mov	 ecx, DWORD PTR ?ms_singleton@?$CSingleton@VCPythonPlayer@@@@0PAVCPythonPlayer@@A ; CSingleton<CPythonPlayer>::ms_singleton
  0002d	ff 75 fc	 push	 DWORD PTR _iVID$[ebp]
  00030	83 c1 04	 add	 ecx, 4
  00033	8b 01		 mov	 eax, DWORD PTR [ecx]
  00035	8b 40 0c	 mov	 eax, DWORD PTR [eax+12]
  00038	ff d0		 call	 eax
  0003a	0f b6 c0	 movzx	 eax, al
  0003d	50		 push	 eax
  0003e	68 00 00 00 00	 push	 OFFSET ??_C@_01KBJDNOO@i@
  00043	ff 15 00 00 00
	00		 call	 DWORD PTR __imp__Py_BuildValue
  00049	83 c4 08	 add	 esp, 8

; 183  : }

  0004c	8b e5		 mov	 esp, ebp
  0004e	5d		 pop	 ebp
  0004f	c3		 ret	 0
?playerIsMainCharacterIndex@@YAPAU_object@@PAU1@0@Z ENDP ; playerIsMainCharacterIndex
_TEXT	ENDS
; Function compile flags: /Ogtp
; File D:\_m2work\txoko-m2-work\txoko-client-src\source\UserInterface\PythonPlayerModule.cpp
;	COMDAT ?playerCanAttackInstance@@YAPAU_object@@PAU1@0@Z
_TEXT	SEGMENT
_iVID$ = -4						; size = 4
_poSelf$ = 8						; size = 4
_poArgs$ = 12						; size = 4
?playerCanAttackInstance@@YAPAU_object@@PAU1@0@Z PROC	; playerCanAttackInstance, COMDAT

; 186  : {

  00000	55		 push	 ebp
  00001	8b ec		 mov	 ebp, esp
  00003	51		 push	 ecx

; 187  : 	int iVID;
; 188  : 	if (!PyTuple_GetInteger(poArgs, 0, &iVID))

  00004	8d 45 fc	 lea	 eax, DWORD PTR _iVID$[ebp]
  00007	50		 push	 eax
  00008	6a 00		 push	 0
  0000a	ff 75 0c	 push	 DWORD PTR _poArgs$[ebp]
  0000d	e8 00 00 00 00	 call	 ?PyTuple_GetInteger@@YA_NPAU_object@@HPAH@Z ; PyTuple_GetInteger
  00012	83 c4 0c	 add	 esp, 12			; 0000000cH
  00015	84 c0		 test	 al, al
  00017	75 0e		 jne	 SHORT $LN2@playerCanA

; 189  : 		return Py_BuildException();

  00019	6a 00		 push	 0
  0001b	e8 00 00 00 00	 call	 ?Py_BuildException@@YAPAU_object@@PBDZZ ; Py_BuildException
  00020	83 c4 04	 add	 esp, 4

; 199  : }

  00023	8b e5		 mov	 esp, ebp
  00025	5d		 pop	 ebp
  00026	c3		 ret	 0
$LN2@playerCanA:

; 190  : 
; 191  : 	CInstanceBase * pMainInstance = CPythonPlayer::Instance().NEW_GetMainActorPtr();

  00027	8b 0d 00 00 00
	00		 mov	 ecx, DWORD PTR ?ms_singleton@?$CSingleton@VCPythonPlayer@@@@0PAVCPythonPlayer@@A ; CSingleton<CPythonPlayer>::ms_singleton
  0002d	83 c1 04	 add	 ecx, 4
  00030	56		 push	 esi
  00031	8b 01		 mov	 eax, DWORD PTR [ecx]
  00033	ff 90 88 00 00
	00		 call	 DWORD PTR [eax+136]

; 192  : 	CInstanceBase * pTargetInstance = CPythonCharacterManager::Instance().GetInstancePtr(iVID);

  00039	8b 0d 00 00 00
	00		 mov	 ecx, DWORD PTR ?ms_singleton@?$CSingleton@VCPythonCharacterManager@@@@0PAVCPythonCharacterManager@@A ; CSingleton<CPythonCharacterManager>::ms_singleton
  0003f	8b f0		 mov	 esi, eax
  00041	ff 75 fc	 push	 DWORD PTR _iVID$[ebp]
  00044	83 c1 04	 add	 ecx, 4
  00047	8b 11		 mov	 edx, DWORD PTR [ecx]
  00049	ff 52 08	 call	 DWORD PTR [edx+8]

; 193  : 	if (!pMainInstance)

  0004c	85 f6		 test	 esi, esi
  0004e	75 15		 jne	 SHORT $LN3@playerCanA
$LN11@playerCanA:

; 196  : 		return Py_BuildValue("i", 0);
; 197  : 
; 198  : 	return Py_BuildValue("i", pMainInstance->IsAttackableInstance(*pTargetInstance));

  00050	6a 00		 push	 0
  00052	68 00 00 00 00	 push	 OFFSET ??_C@_01KBJDNOO@i@
  00057	ff 15 00 00 00
	00		 call	 DWORD PTR __imp__Py_BuildValue
  0005d	83 c4 08	 add	 esp, 8
  00060	5e		 pop	 esi

; 199  : }

  00061	8b e5		 mov	 esp, ebp
  00063	5d		 pop	 ebp
  00064	c3		 ret	 0
$LN3@playerCanA:

; 194  : 		return Py_BuildValue("i", 0);
; 195  : 	if (!pTargetInstance)

  00065	85 c0		 test	 eax, eax
  00067	74 e7		 je	 SHORT $LN11@playerCanA

; 196  : 		return Py_BuildValue("i", 0);
; 197  : 
; 198  : 	return Py_BuildValue("i", pMainInstance->IsAttackableInstance(*pTargetInstance));

  00069	50		 push	 eax
  0006a	8b ce		 mov	 ecx, esi
  0006c	e8 00 00 00 00	 call	 ?IsAttackableInstance@CInstanceBase@@QAE_NAAV1@@Z ; CInstanceBase::IsAttackableInstance
  00071	0f b6 c0	 movzx	 eax, al
  00074	50		 push	 eax
  00075	68 00 00 00 00	 push	 OFFSET ??_C@_01KBJDNOO@i@
  0007a	ff 15 00 00 00
	00		 call	 DWORD PTR __imp__Py_BuildValue
  00080	83 c4 08	 add	 esp, 8
  00083	5e		 pop	 esi

; 199  : }

  00084	8b e5		 mov	 esp, ebp
  00086	5d		 pop	 ebp
  00087	c3		 ret	 0
?playerCanAttackInstance@@YAPAU_object@@PAU1@0@Z ENDP	; playerCanAttackInstance
_TEXT	ENDS
; Function compile flags: /Ogtp
; File D:\_m2work\txoko-m2-work\txoko-client-src\source\UserInterface\PythonPlayerModule.cpp
;	COMDAT ?playerIsActingEmotion@@YAPAU_object@@PAU1@0@Z
_TEXT	SEGMENT
_poSelf$ = 8						; size = 4
_poArgs$ = 12						; size = 4
?playerIsActingEmotion@@YAPAU_object@@PAU1@0@Z PROC	; playerIsActingEmotion, COMDAT

; 203  : 	CInstanceBase * pMainInstance = CPythonPlayer::Instance().NEW_GetMainActorPtr();

  00000	8b 0d 00 00 00
	00		 mov	 ecx, DWORD PTR ?ms_singleton@?$CSingleton@VCPythonPlayer@@@@0PAVCPythonPlayer@@A ; CSingleton<CPythonPlayer>::ms_singleton
  00006	83 c1 04	 add	 ecx, 4
  00009	8b 01		 mov	 eax, DWORD PTR [ecx]
  0000b	ff 90 88 00 00
	00		 call	 DWORD PTR [eax+136]

; 204  : 	if (!pMainInstance)

  00011	85 c0		 test	 eax, eax
  00013	75 10		 jne	 SHORT $LN2@playerIsAc

; 205  : 		return Py_BuildValue("i", 0);

  00015	50		 push	 eax

; 208  : }

  00016	68 00 00 00 00	 push	 OFFSET ??_C@_01KBJDNOO@i@
  0001b	ff 15 00 00 00
	00		 call	 DWORD PTR __imp__Py_BuildValue
  00021	83 c4 08	 add	 esp, 8
  00024	c3		 ret	 0
$LN2@playerIsAc:

; 206  : 
; 207  : 	return Py_BuildValue("i", pMainInstance->IsActingEmotion());

  00025	8b c8		 mov	 ecx, eax
  00027	e8 00 00 00 00	 call	 ?IsActingEmotion@CInstanceBase@@QAEHXZ ; CInstanceBase::IsActingEmotion
  0002c	50		 push	 eax

; 208  : }

  0002d	68 00 00 00 00	 push	 OFFSET ??_C@_01KBJDNOO@i@
  00032	ff 15 00 00 00
	00		 call	 DWORD PTR __imp__Py_BuildValue
  00038	83 c4 08	 add	 esp, 8
  0003b	c3		 ret	 0
?playerIsActingEmotion@@YAPAU_object@@PAU1@0@Z ENDP	; playerIsActingEmotion
_TEXT	ENDS
; Function compile flags: /Ogtp
; File D:\_m2work\txoko-m2-work\txoko-client-src\source\UserInterface\PythonPlayerModule.cpp
;	COMDAT ?playerIsPVPInstance@@YAPAU_object@@PAU1@0@Z
_TEXT	SEGMENT
_iVID$ = -4						; size = 4
_poSelf$ = 8						; size = 4
_poArgs$ = 12						; size = 4
?playerIsPVPInstance@@YAPAU_object@@PAU1@0@Z PROC	; playerIsPVPInstance, COMDAT

; 211  : {

  00000	55		 push	 ebp
  00001	8b ec		 mov	 ebp, esp
  00003	51		 push	 ecx

; 212  : 	int iVID;
; 213  : 	if (!PyTuple_GetInteger(poArgs, 0, &iVID))

  00004	8d 45 fc	 lea	 eax, DWORD PTR _iVID$[ebp]
  00007	50		 push	 eax
  00008	6a 00		 push	 0
  0000a	ff 75 0c	 push	 DWORD PTR _poArgs$[ebp]
  0000d	e8 00 00 00 00	 call	 ?PyTuple_GetInteger@@YA_NPAU_object@@HPAH@Z ; PyTuple_GetInteger
  00012	83 c4 0c	 add	 esp, 12			; 0000000cH
  00015	84 c0		 test	 al, al
  00017	75 0e		 jne	 SHORT $LN2@playerIsPV

; 214  : 		return Py_BuildException();

  00019	6a 00		 push	 0
  0001b	e8 00 00 00 00	 call	 ?Py_BuildException@@YAPAU_object@@PBDZZ ; Py_BuildException
  00020	83 c4 04	 add	 esp, 4

; 224  : }

  00023	8b e5		 mov	 esp, ebp
  00025	5d		 pop	 ebp
  00026	c3		 ret	 0
$LN2@playerIsPV:

; 215  : 
; 216  : 	CInstanceBase * pMainInstance = CPythonPlayer::Instance().NEW_GetMainActorPtr();

  00027	8b 0d 00 00 00
	00		 mov	 ecx, DWORD PTR ?ms_singleton@?$CSingleton@VCPythonPlayer@@@@0PAVCPythonPlayer@@A ; CSingleton<CPythonPlayer>::ms_singleton
  0002d	83 c1 04	 add	 ecx, 4
  00030	56		 push	 esi
  00031	8b 01		 mov	 eax, DWORD PTR [ecx]
  00033	ff 90 88 00 00
	00		 call	 DWORD PTR [eax+136]

; 217  : 	CInstanceBase * pTargetInstance = CPythonCharacterManager::Instance().GetInstancePtr(iVID);

  00039	8b 0d 00 00 00
	00		 mov	 ecx, DWORD PTR ?ms_singleton@?$CSingleton@VCPythonCharacterManager@@@@0PAVCPythonCharacterManager@@A ; CSingleton<CPythonCharacterManager>::ms_singleton
  0003f	8b f0		 mov	 esi, eax
  00041	ff 75 fc	 push	 DWORD PTR _iVID$[ebp]
  00044	83 c1 04	 add	 ecx, 4
  00047	8b 11		 mov	 edx, DWORD PTR [ecx]
  00049	ff 52 08	 call	 DWORD PTR [edx+8]

; 218  : 	if (!pMainInstance)

  0004c	85 f6		 test	 esi, esi
  0004e	75 15		 jne	 SHORT $LN3@playerIsPV
$LN11@playerIsPV:

; 221  : 		return Py_BuildValue("i", 0);
; 222  : 
; 223  : 	return Py_BuildValue("i", pMainInstance->IsPVPInstance(*pTargetInstance));

  00050	6a 00		 push	 0
  00052	68 00 00 00 00	 push	 OFFSET ??_C@_01KBJDNOO@i@
  00057	ff 15 00 00 00
	00		 call	 DWORD PTR __imp__Py_BuildValue
  0005d	83 c4 08	 add	 esp, 8
  00060	5e		 pop	 esi

; 224  : }

  00061	8b e5		 mov	 esp, ebp
  00063	5d		 pop	 ebp
  00064	c3		 ret	 0
$LN3@playerIsPV:

; 219  : 		return Py_BuildValue("i", 0);
; 220  : 	if (!pTargetInstance)

  00065	85 c0		 test	 eax, eax
  00067	74 e7		 je	 SHORT $LN11@playerIsPV

; 221  : 		return Py_BuildValue("i", 0);
; 222  : 
; 223  : 	return Py_BuildValue("i", pMainInstance->IsPVPInstance(*pTargetInstance));

  00069	50		 push	 eax
  0006a	8b ce		 mov	 ecx, esi
  0006c	e8 00 00 00 00	 call	 ?IsPVPInstance@CInstanceBase@@QAE_NAAV1@@Z ; CInstanceBase::IsPVPInstance
  00071	0f b6 c0	 movzx	 eax, al
  00074	50		 push	 eax
  00075	68 00 00 00 00	 push	 OFFSET ??_C@_01KBJDNOO@i@
  0007a	ff 15 00 00 00
	00		 call	 DWORD PTR __imp__Py_BuildValue
  00080	83 c4 08	 add	 esp, 8
  00083	5e		 pop	 esi

; 224  : }

  00084	8b e5		 mov	 esp, ebp
  00086	5d		 pop	 ebp
  00087	c3		 ret	 0
?playerIsPVPInstance@@YAPAU_object@@PAU1@0@Z ENDP	; playerIsPVPInstance
_TEXT	ENDS
; Function compile flags: /Ogtp
; File D:\_m2work\txoko-m2-work\txoko-client-src\source\UserInterface\PythonPlayerModule.cpp
;	COMDAT ?playerIsSameEmpire@@YAPAU_object@@PAU1@0@Z
_TEXT	SEGMENT
_iVID$ = -4						; size = 4
_poSelf$ = 8						; size = 4
_poArgs$ = 12						; size = 4
?playerIsSameEmpire@@YAPAU_object@@PAU1@0@Z PROC	; playerIsSameEmpire, COMDAT

; 227  : {

  00000	55		 push	 ebp
  00001	8b ec		 mov	 ebp, esp
  00003	51		 push	 ecx

; 228  : 	int iVID;
; 229  : 	if (!PyTuple_GetInteger(poArgs, 0, &iVID))

  00004	8d 45 fc	 lea	 eax, DWORD PTR _iVID$[ebp]
  00007	50		 push	 eax
  00008	6a 00		 push	 0
  0000a	ff 75 0c	 push	 DWORD PTR _poArgs$[ebp]
  0000d	e8 00 00 00 00	 call	 ?PyTuple_GetInteger@@YA_NPAU_object@@HPAH@Z ; PyTuple_GetInteger
  00012	83 c4 0c	 add	 esp, 12			; 0000000cH
  00015	84 c0		 test	 al, al
  00017	75 0e		 jne	 SHORT $LN2@playerIsSa

; 230  : 		return Py_BuildException();

  00019	6a 00		 push	 0
  0001b	e8 00 00 00 00	 call	 ?Py_BuildException@@YAPAU_object@@PBDZZ ; Py_BuildException
  00020	83 c4 04	 add	 esp, 4

; 240  : }

  00023	8b e5		 mov	 esp, ebp
  00025	5d		 pop	 ebp
  00026	c3		 ret	 0
$LN2@playerIsSa:

; 231  : 
; 232  : 	CInstanceBase * pMainInstance = CPythonPlayer::Instance().NEW_GetMainActorPtr();

  00027	8b 0d 00 00 00
	00		 mov	 ecx, DWORD PTR ?ms_singleton@?$CSingleton@VCPythonPlayer@@@@0PAVCPythonPlayer@@A ; CSingleton<CPythonPlayer>::ms_singleton
  0002d	83 c1 04	 add	 ecx, 4
  00030	56		 push	 esi
  00031	8b 01		 mov	 eax, DWORD PTR [ecx]
  00033	ff 90 88 00 00
	00		 call	 DWORD PTR [eax+136]

; 233  : 	CInstanceBase * pTargetInstance = CPythonCharacterManager::Instance().GetInstancePtr(iVID);

  00039	8b 0d 00 00 00
	00		 mov	 ecx, DWORD PTR ?ms_singleton@?$CSingleton@VCPythonCharacterManager@@@@0PAVCPythonCharacterManager@@A ; CSingleton<CPythonCharacterManager>::ms_singleton
  0003f	8b f0		 mov	 esi, eax
  00041	ff 75 fc	 push	 DWORD PTR _iVID$[ebp]
  00044	83 c1 04	 add	 ecx, 4
  00047	8b 11		 mov	 edx, DWORD PTR [ecx]
  00049	ff 52 08	 call	 DWORD PTR [edx+8]

; 234  : 	if (!pMainInstance)

  0004c	85 f6		 test	 esi, esi
  0004e	75 15		 jne	 SHORT $LN3@playerIsSa
$LN11@playerIsSa:

; 237  : 		return Py_BuildValue("i", FALSE);
; 238  : 
; 239  : 	return Py_BuildValue("i", pMainInstance->IsSameEmpire(*pTargetInstance));

  00050	6a 00		 push	 0
  00052	68 00 00 00 00	 push	 OFFSET ??_C@_01KBJDNOO@i@
  00057	ff 15 00 00 00
	00		 call	 DWORD PTR __imp__Py_BuildValue
  0005d	83 c4 08	 add	 esp, 8
  00060	5e		 pop	 esi

; 240  : }

  00061	8b e5		 mov	 esp, ebp
  00063	5d		 pop	 ebp
  00064	c3		 ret	 0
$LN3@playerIsSa:

; 235  : 		return Py_BuildValue("i", FALSE);
; 236  : 	if (!pTargetInstance)

  00065	85 c0		 test	 eax, eax
  00067	74 e7		 je	 SHORT $LN11@playerIsSa

; 237  : 		return Py_BuildValue("i", FALSE);
; 238  : 
; 239  : 	return Py_BuildValue("i", pMainInstance->IsSameEmpire(*pTargetInstance));

  00069	50		 push	 eax
  0006a	8b ce		 mov	 ecx, esi
  0006c	e8 00 00 00 00	 call	 ?IsSameEmpire@CInstanceBase@@QAEHAAV1@@Z ; CInstanceBase::IsSameEmpire
  00071	50		 push	 eax
  00072	68 00 00 00 00	 push	 OFFSET ??_C@_01KBJDNOO@i@
  00077	ff 15 00 00 00
	00		 call	 DWORD PTR __imp__Py_BuildValue
  0007d	83 c4 08	 add	 esp, 8
  00080	5e		 pop	 esi

; 240  : }

  00081	8b e5		 mov	 esp, ebp
  00083	5d		 pop	 ebp
  00084	c3		 ret	 0
?playerIsSameEmpire@@YAPAU_object@@PAU1@0@Z ENDP	; playerIsSameEmpire
_TEXT	ENDS
; Function compile flags: /Ogtp
; File D:\_m2work\txoko-m2-work\txoko-client-src\source\UserInterface\PythonPlayerModule.cpp
;	COMDAT ?playerIsChallengeInstance@@YAPAU_object@@PAU1@0@Z
_TEXT	SEGMENT
_iVID$ = -4						; size = 4
_poSelf$ = 8						; size = 4
_poArgs$ = 12						; size = 4
?playerIsChallengeInstance@@YAPAU_object@@PAU1@0@Z PROC	; playerIsChallengeInstance, COMDAT

; 243  : {

  00000	55		 push	 ebp
  00001	8b ec		 mov	 ebp, esp
  00003	51		 push	 ecx

; 244  : 	int iVID;
; 245  : 	if (!PyTuple_GetInteger(poArgs, 0, &iVID))

  00004	8d 45 fc	 lea	 eax, DWORD PTR _iVID$[ebp]
  00007	50		 push	 eax
  00008	6a 00		 push	 0
  0000a	ff 75 0c	 push	 DWORD PTR _poArgs$[ebp]
  0000d	e8 00 00 00 00	 call	 ?PyTuple_GetInteger@@YA_NPAU_object@@HPAH@Z ; PyTuple_GetInteger
  00012	83 c4 0c	 add	 esp, 12			; 0000000cH
  00015	84 c0		 test	 al, al
  00017	75 0e		 jne	 SHORT $LN2@playerIsCh

; 246  : 		return Py_BuildException();

  00019	6a 00		 push	 0
  0001b	e8 00 00 00 00	 call	 ?Py_BuildException@@YAPAU_object@@PBDZZ ; Py_BuildException
  00020	83 c4 04	 add	 esp, 4

; 249  : }

  00023	8b e5		 mov	 esp, ebp
  00025	5d		 pop	 ebp
  00026	c3		 ret	 0
$LN2@playerIsCh:

; 247  : 
; 248  : 	return Py_BuildValue("i", CPythonPlayer::Instance().IsChallengeInstance(iVID));

  00027	ff 75 fc	 push	 DWORD PTR _iVID$[ebp]
  0002a	8b 0d 00 00 00
	00		 mov	 ecx, DWORD PTR ?ms_singleton@?$CSingleton@VCPythonPlayer@@@@0PAVCPythonPlayer@@A ; CSingleton<CPythonPlayer>::ms_singleton
  00030	e8 00 00 00 00	 call	 ?IsChallengeInstance@CPythonPlayer@@QAE_NK@Z ; CPythonPlayer::IsChallengeInstance
  00035	0f b6 c0	 movzx	 eax, al
  00038	50		 push	 eax
  00039	68 00 00 00 00	 push	 OFFSET ??_C@_01KBJDNOO@i@
  0003e	ff 15 00 00 00
	00		 call	 DWORD PTR __imp__Py_BuildValue
  00044	83 c4 08	 add	 esp, 8

; 249  : }

  00047	8b e5		 mov	 esp, ebp
  00049	5d		 pop	 ebp
  0004a	c3		 ret	 0
?playerIsChallengeInstance@@YAPAU_object@@PAU1@0@Z ENDP	; playerIsChallengeInstance
_TEXT	ENDS
; Function compile flags: /Ogtp
; File D:\_m2work\txoko-m2-work\txoko-client-src\source\UserInterface\PythonPlayerModule.cpp
;	COMDAT ?playerIsRevengeInstance@@YAPAU_object@@PAU1@0@Z
_TEXT	SEGMENT
_iVID$ = -4						; size = 4
_poSelf$ = 8						; size = 4
_poArgs$ = 12						; size = 4
?playerIsRevengeInstance@@YAPAU_object@@PAU1@0@Z PROC	; playerIsRevengeInstance, COMDAT

; 252  : {

  00000	55		 push	 ebp
  00001	8b ec		 mov	 ebp, esp
  00003	51		 push	 ecx

; 253  : 	int iVID;
; 254  : 	if (!PyTuple_GetInteger(poArgs, 0, &iVID))

  00004	8d 45 fc	 lea	 eax, DWORD PTR _iVID$[ebp]
  00007	50		 push	 eax
  00008	6a 00		 push	 0
  0000a	ff 75 0c	 push	 DWORD PTR _poArgs$[ebp]
  0000d	e8 00 00 00 00	 call	 ?PyTuple_GetInteger@@YA_NPAU_object@@HPAH@Z ; PyTuple_GetInteger
  00012	83 c4 0c	 add	 esp, 12			; 0000000cH
  00015	84 c0		 test	 al, al
  00017	75 0e		 jne	 SHORT $LN2@playerIsRe

; 255  : 		return Py_BuildException();

  00019	6a 00		 push	 0
  0001b	e8 00 00 00 00	 call	 ?Py_BuildException@@YAPAU_object@@PBDZZ ; Py_BuildException
  00020	83 c4 04	 add	 esp, 4

; 258  : }

  00023	8b e5		 mov	 esp, ebp
  00025	5d		 pop	 ebp
  00026	c3		 ret	 0
$LN2@playerIsRe:

; 256  : 
; 257  : 	return Py_BuildValue("i", CPythonPlayer::Instance().IsRevengeInstance(iVID));

  00027	ff 75 fc	 push	 DWORD PTR _iVID$[ebp]
  0002a	8b 0d 00 00 00
	00		 mov	 ecx, DWORD PTR ?ms_singleton@?$CSingleton@VCPythonPlayer@@@@0PAVCPythonPlayer@@A ; CSingleton<CPythonPlayer>::ms_singleton
  00030	e8 00 00 00 00	 call	 ?IsRevengeInstance@CPythonPlayer@@QAE_NK@Z ; CPythonPlayer::IsRevengeInstance
  00035	0f b6 c0	 movzx	 eax, al
  00038	50		 push	 eax
  00039	68 00 00 00 00	 push	 OFFSET ??_C@_01KBJDNOO@i@
  0003e	ff 15 00 00 00
	00		 call	 DWORD PTR __imp__Py_BuildValue
  00044	83 c4 08	 add	 esp, 8

; 258  : }

  00047	8b e5		 mov	 esp, ebp
  00049	5d		 pop	 ebp
  0004a	c3		 ret	 0
?playerIsRevengeInstance@@YAPAU_object@@PAU1@0@Z ENDP	; playerIsRevengeInstance
_TEXT	ENDS
; Function compile flags: /Ogtp
; File D:\_m2work\txoko-m2-work\txoko-client-src\source\UserInterface\PythonPlayerModule.cpp
;	COMDAT ?playerIsCantFightInstance@@YAPAU_object@@PAU1@0@Z
_TEXT	SEGMENT
_iVID$ = -4						; size = 4
_poSelf$ = 8						; size = 4
_poArgs$ = 12						; size = 4
?playerIsCantFightInstance@@YAPAU_object@@PAU1@0@Z PROC	; playerIsCantFightInstance, COMDAT

; 261  : {

  00000	55		 push	 ebp
  00001	8b ec		 mov	 ebp, esp
  00003	51		 push	 ecx

; 262  : 	int iVID;
; 263  : 	if (!PyTuple_GetInteger(poArgs, 0, &iVID))

  00004	8d 45 fc	 lea	 eax, DWORD PTR _iVID$[ebp]
  00007	50		 push	 eax
  00008	6a 00		 push	 0
  0000a	ff 75 0c	 push	 DWORD PTR _poArgs$[ebp]
  0000d	e8 00 00 00 00	 call	 ?PyTuple_GetInteger@@YA_NPAU_object@@HPAH@Z ; PyTuple_GetInteger
  00012	83 c4 0c	 add	 esp, 12			; 0000000cH
  00015	84 c0		 test	 al, al
  00017	75 0e		 jne	 SHORT $LN2@playerIsCa

; 264  : 		return Py_BuildException();

  00019	6a 00		 push	 0
  0001b	e8 00 00 00 00	 call	 ?Py_BuildException@@YAPAU_object@@PBDZZ ; Py_BuildException
  00020	83 c4 04	 add	 esp, 4

; 267  : }

  00023	8b e5		 mov	 esp, ebp
  00025	5d		 pop	 ebp
  00026	c3		 ret	 0
$LN2@playerIsCa:

; 265  : 
; 266  : 	return Py_BuildValue("i", CPythonPlayer::Instance().IsCantFightInstance(iVID));

  00027	ff 75 fc	 push	 DWORD PTR _iVID$[ebp]
  0002a	8b 0d 00 00 00
	00		 mov	 ecx, DWORD PTR ?ms_singleton@?$CSingleton@VCPythonPlayer@@@@0PAVCPythonPlayer@@A ; CSingleton<CPythonPlayer>::ms_singleton
  00030	e8 00 00 00 00	 call	 ?IsCantFightInstance@CPythonPlayer@@QAE_NK@Z ; CPythonPlayer::IsCantFightInstance
  00035	0f b6 c0	 movzx	 eax, al
  00038	50		 push	 eax
  00039	68 00 00 00 00	 push	 OFFSET ??_C@_01KBJDNOO@i@
  0003e	ff 15 00 00 00
	00		 call	 DWORD PTR __imp__Py_BuildValue
  00044	83 c4 08	 add	 esp, 8

; 267  : }

  00047	8b e5		 mov	 esp, ebp
  00049	5d		 pop	 ebp
  0004a	c3		 ret	 0
?playerIsCantFightInstance@@YAPAU_object@@PAU1@0@Z ENDP	; playerIsCantFightInstance
_TEXT	ENDS
; Function compile flags: /Ogtp
; File D:\_m2work\txoko-m2-work\txoko-client-src\source\UserInterface\PythonPlayerModule.cpp
;	COMDAT ?playerGetCharacterDistance@@YAPAU_object@@PAU1@0@Z
_TEXT	SEGMENT
_iVID$ = -4						; size = 4
_poSelf$ = 8						; size = 4
_poArgs$ = 12						; size = 4
?playerGetCharacterDistance@@YAPAU_object@@PAU1@0@Z PROC ; playerGetCharacterDistance, COMDAT

; 270  : {

  00000	55		 push	 ebp
  00001	8b ec		 mov	 ebp, esp
  00003	83 e4 c0	 and	 esp, -64		; ffffffc0H
  00006	83 ec 3c	 sub	 esp, 60			; 0000003cH

; 271  : 	int iVID;
; 272  : 	if (!PyTuple_GetInteger(poArgs, 0, &iVID))

  00009	8d 44 24 38	 lea	 eax, DWORD PTR _iVID$[esp+60]
  0000d	56		 push	 esi
  0000e	50		 push	 eax
  0000f	6a 00		 push	 0
  00011	ff 75 0c	 push	 DWORD PTR _poArgs$[ebp]
  00014	e8 00 00 00 00	 call	 ?PyTuple_GetInteger@@YA_NPAU_object@@HPAH@Z ; PyTuple_GetInteger
  00019	83 c4 0c	 add	 esp, 12			; 0000000cH
  0001c	84 c0		 test	 al, al
  0001e	75 0f		 jne	 SHORT $LN2@playerGetC

; 273  : 		return Py_BuildException();

  00020	6a 00		 push	 0
  00022	e8 00 00 00 00	 call	 ?Py_BuildException@@YAPAU_object@@PBDZZ ; Py_BuildException
  00027	83 c4 04	 add	 esp, 4

; 283  : }

  0002a	5e		 pop	 esi
  0002b	8b e5		 mov	 esp, ebp
  0002d	5d		 pop	 ebp
  0002e	c3		 ret	 0
$LN2@playerGetC:

; 274  : 
; 275  : 	CInstanceBase * pMainInstance = CPythonPlayer::Instance().NEW_GetMainActorPtr();

  0002f	8b 0d 00 00 00
	00		 mov	 ecx, DWORD PTR ?ms_singleton@?$CSingleton@VCPythonPlayer@@@@0PAVCPythonPlayer@@A ; CSingleton<CPythonPlayer>::ms_singleton
  00035	83 c1 04	 add	 ecx, 4
  00038	8b 01		 mov	 eax, DWORD PTR [ecx]
  0003a	ff 90 88 00 00
	00		 call	 DWORD PTR [eax+136]

; 276  : 	CInstanceBase * pTargetInstance = CPythonCharacterManager::Instance().GetInstancePtr(iVID);

  00040	8b 0d 00 00 00
	00		 mov	 ecx, DWORD PTR ?ms_singleton@?$CSingleton@VCPythonCharacterManager@@@@0PAVCPythonCharacterManager@@A ; CSingleton<CPythonCharacterManager>::ms_singleton
  00046	8b f0		 mov	 esi, eax
  00048	ff 74 24 3c	 push	 DWORD PTR _iVID$[esp+64]
  0004c	83 c1 04	 add	 ecx, 4
  0004f	8b 11		 mov	 edx, DWORD PTR [ecx]
  00051	ff 52 08	 call	 DWORD PTR [edx+8]

; 277  : 	if (!pMainInstance)

  00054	85 f6		 test	 esi, esi
  00056	75 0a		 jne	 SHORT $LN3@playerGetC
$LN7@playerGetC:

; 283  : }

  00058	f2 0f 10 05 00
	00 00 00	 movsd	 xmm0, QWORD PTR __real@bff0000000000000
  00060	eb 10		 jmp	 SHORT $LN6@playerGetC
$LN3@playerGetC:

; 278  : 		return Py_BuildValue("f", -1.0f);
; 279  : 	if (!pTargetInstance)

  00062	85 c0		 test	 eax, eax
  00064	74 f2		 je	 SHORT $LN7@playerGetC

; 280  : 		return Py_BuildValue("f", -1.0f);
; 281  : 
; 282  : 	return Py_BuildValue("f", pMainInstance->GetDistance(pTargetInstance));

  00066	50		 push	 eax
  00067	8b ce		 mov	 ecx, esi
  00069	e8 00 00 00 00	 call	 ?GetDistance@CInstanceBase@@QAEMPAV1@@Z ; CInstanceBase::GetDistance
  0006e	f3 0f 5a c0	 cvtss2sd xmm0, xmm0
$LN6@playerGetC:

; 283  : }

  00072	83 ec 08	 sub	 esp, 8
  00075	f2 0f 11 04 24	 movsd	 QWORD PTR [esp], xmm0
  0007a	68 00 00 00 00	 push	 OFFSET ??_C@_01INIBCBCB@f@
  0007f	ff 15 00 00 00
	00		 call	 DWORD PTR __imp__Py_BuildValue
  00085	83 c4 0c	 add	 esp, 12			; 0000000cH
  00088	5e		 pop	 esi
  00089	8b e5		 mov	 esp, ebp
  0008b	5d		 pop	 ebp
  0008c	c3		 ret	 0
?playerGetCharacterDistance@@YAPAU_object@@PAU1@0@Z ENDP ; playerGetCharacterDistance
_TEXT	ENDS
; Function compile flags: /Ogtp
; File D:\_m2work\txoko-m2-work\txoko-client-src\source\UserInterface\PythonPlayerModule.cpp
;	COMDAT ?playerIsInSafeArea@@YAPAU_object@@PAU1@0@Z
_TEXT	SEGMENT
_poSelf$ = 8						; size = 4
_poArgs$ = 12						; size = 4
?playerIsInSafeArea@@YAPAU_object@@PAU1@0@Z PROC	; playerIsInSafeArea, COMDAT

; 287  : 	CInstanceBase * pMainInstance = CPythonPlayer::Instance().NEW_GetMainActorPtr();

  00000	8b 0d 00 00 00
	00		 mov	 ecx, DWORD PTR ?ms_singleton@?$CSingleton@VCPythonPlayer@@@@0PAVCPythonPlayer@@A ; CSingleton<CPythonPlayer>::ms_singleton
  00006	83 c1 04	 add	 ecx, 4
  00009	8b 01		 mov	 eax, DWORD PTR [ecx]
  0000b	ff 90 88 00 00
	00		 call	 DWORD PTR [eax+136]

; 288  : 	if (!pMainInstance)

  00011	85 c0		 test	 eax, eax
  00013	75 10		 jne	 SHORT $LN2@playerIsIn

; 289  : 		return Py_BuildValue("i", FALSE);

  00015	50		 push	 eax

; 292  : }

  00016	68 00 00 00 00	 push	 OFFSET ??_C@_01KBJDNOO@i@
  0001b	ff 15 00 00 00
	00		 call	 DWORD PTR __imp__Py_BuildValue
  00021	83 c4 08	 add	 esp, 8
  00024	c3		 ret	 0
$LN2@playerIsIn:

; 290  : 
; 291  : 	return Py_BuildValue("i", pMainInstance->IsInSafe());

  00025	8b c8		 mov	 ecx, eax
  00027	e8 00 00 00 00	 call	 ?IsInSafe@CInstanceBase@@QAEHXZ ; CInstanceBase::IsInSafe
  0002c	50		 push	 eax

; 292  : }

  0002d	68 00 00 00 00	 push	 OFFSET ??_C@_01KBJDNOO@i@
  00032	ff 15 00 00 00
	00		 call	 DWORD PTR __imp__Py_BuildValue
  00038	83 c4 08	 add	 esp, 8
  0003b	c3		 ret	 0
?playerIsInSafeArea@@YAPAU_object@@PAU1@0@Z ENDP	; playerIsInSafeArea
_TEXT	ENDS
; Function compile flags: /Ogtp
; File D:\_m2work\txoko-m2-work\txoko-client-src\source\UserInterface\PythonPlayerModule.cpp
;	COMDAT ?playerIsMountingHorse@@YAPAU_object@@PAU1@0@Z
_TEXT	SEGMENT
_poSelf$ = 8						; size = 4
_poArgs$ = 12						; size = 4
?playerIsMountingHorse@@YAPAU_object@@PAU1@0@Z PROC	; playerIsMountingHorse, COMDAT

; 296  : 	CInstanceBase * pMainInstance = CPythonPlayer::Instance().NEW_GetMainActorPtr();

  00000	8b 0d 00 00 00
	00		 mov	 ecx, DWORD PTR ?ms_singleton@?$CSingleton@VCPythonPlayer@@@@0PAVCPythonPlayer@@A ; CSingleton<CPythonPlayer>::ms_singleton
  00006	83 c1 04	 add	 ecx, 4
  00009	8b 01		 mov	 eax, DWORD PTR [ecx]
  0000b	ff 90 88 00 00
	00		 call	 DWORD PTR [eax+136]

; 297  : 	if (!pMainInstance)

  00011	85 c0		 test	 eax, eax
  00013	75 10		 jne	 SHORT $LN2@playerIsMo

; 298  : 		return Py_BuildValue("i", FALSE);

  00015	50		 push	 eax

; 301  : }

  00016	68 00 00 00 00	 push	 OFFSET ??_C@_01KBJDNOO@i@
  0001b	ff 15 00 00 00
	00		 call	 DWORD PTR __imp__Py_BuildValue
  00021	83 c4 08	 add	 esp, 8
  00024	c3		 ret	 0
$LN2@playerIsMo:

; 299  : 
; 300  : 	return Py_BuildValue("i", pMainInstance->IsMountingHorse());

  00025	8b c8		 mov	 ecx, eax
  00027	e8 00 00 00 00	 call	 ?IsMountingHorse@CInstanceBase@@QAEHXZ ; CInstanceBase::IsMountingHorse
  0002c	50		 push	 eax

; 301  : }

  0002d	68 00 00 00 00	 push	 OFFSET ??_C@_01KBJDNOO@i@
  00032	ff 15 00 00 00
	00		 call	 DWORD PTR __imp__Py_BuildValue
  00038	83 c4 08	 add	 esp, 8
  0003b	c3		 ret	 0
?playerIsMountingHorse@@YAPAU_object@@PAU1@0@Z ENDP	; playerIsMountingHorse
_TEXT	ENDS
; Function compile flags: /Ogtp
; File D:\_m2work\txoko-m2-work\txoko-client-src\source\UserInterface\PythonPlayerModule.cpp
;	COMDAT ?playerIsObserverMode@@YAPAU_object@@PAU1@0@Z
_TEXT	SEGMENT
_poSelf$ = 8						; size = 4
_poArgs$ = 12						; size = 4
?playerIsObserverMode@@YAPAU_object@@PAU1@0@Z PROC	; playerIsObserverMode, COMDAT

; 305  : 	CPythonPlayer& rkPlayer=CPythonPlayer::Instance();
; 306  : 	return Py_BuildValue("i", rkPlayer.IsObserverMode());

  00000	8b 0d 00 00 00
	00		 mov	 ecx, DWORD PTR ?ms_singleton@?$CSingleton@VCPythonPlayer@@@@0PAVCPythonPlayer@@A ; CSingleton<CPythonPlayer>::ms_singleton
  00006	e8 00 00 00 00	 call	 ?IsObserverMode@CPythonPlayer@@QAE_NXZ ; CPythonPlayer::IsObserverMode
  0000b	0f b6 c0	 movzx	 eax, al
  0000e	50		 push	 eax
  0000f	68 00 00 00 00	 push	 OFFSET ??_C@_01KBJDNOO@i@
  00014	ff 15 00 00 00
	00		 call	 DWORD PTR __imp__Py_BuildValue
  0001a	83 c4 08	 add	 esp, 8

; 307  : }

  0001d	c3		 ret	 0
?playerIsObserverMode@@YAPAU_object@@PAU1@0@Z ENDP	; playerIsObserverMode
_TEXT	ENDS
; Function compile flags: /Ogtp
; File D:\_m2work\txoko-m2-work\txoko-client-src\source\UserInterface\PythonPlayerModule.cpp
;	COMDAT ?playerActEmotion@@YAPAU_object@@PAU1@0@Z
_TEXT	SEGMENT
_iVID$ = -4						; size = 4
_poSelf$ = 8						; size = 4
_poArgs$ = 12						; size = 4
?playerActEmotion@@YAPAU_object@@PAU1@0@Z PROC		; playerActEmotion, COMDAT

; 310  : {

  00000	55		 push	 ebp
  00001	8b ec		 mov	 ebp, esp
  00003	51		 push	 ecx

; 311  : 	int iVID;
; 312  : 	if (!PyTuple_GetInteger(poArgs, 0, &iVID))

  00004	8d 45 fc	 lea	 eax, DWORD PTR _iVID$[ebp]
  00007	50		 push	 eax
  00008	6a 00		 push	 0
  0000a	ff 75 0c	 push	 DWORD PTR _poArgs$[ebp]
  0000d	e8 00 00 00 00	 call	 ?PyTuple_GetInteger@@YA_NPAU_object@@HPAH@Z ; PyTuple_GetInteger
  00012	83 c4 0c	 add	 esp, 12			; 0000000cH
  00015	84 c0		 test	 al, al
  00017	75 0e		 jne	 SHORT $LN2@playerActE

; 313  : 		return Py_BuildException();

  00019	6a 00		 push	 0
  0001b	e8 00 00 00 00	 call	 ?Py_BuildException@@YAPAU_object@@PBDZZ ; Py_BuildException
  00020	83 c4 04	 add	 esp, 4

; 318  : }

  00023	8b e5		 mov	 esp, ebp
  00025	5d		 pop	 ebp
  00026	c3		 ret	 0
$LN2@playerActE:

; 314  : 
; 315  : 	CPythonPlayer& rkPlayer=CPythonPlayer::Instance();
; 316  : 	rkPlayer.ActEmotion(iVID);

  00027	51		 push	 ecx
  00028	8b 0d 00 00 00
	00		 mov	 ecx, DWORD PTR ?ms_singleton@?$CSingleton@VCPythonPlayer@@@@0PAVCPythonPlayer@@A ; CSingleton<CPythonPlayer>::ms_singleton
  0002e	e8 00 00 00 00	 call	 ?ActEmotion@CPythonPlayer@@QAEXK@Z ; CPythonPlayer::ActEmotion

; 317  : 	return Py_BuildNone();

  00033	e8 00 00 00 00	 call	 ?Py_BuildNone@@YAPAU_object@@XZ ; Py_BuildNone

; 318  : }

  00038	8b e5		 mov	 esp, ebp
  0003a	5d		 pop	 ebp
  0003b	c3		 ret	 0
?playerActEmotion@@YAPAU_object@@PAU1@0@Z ENDP		; playerActEmotion
_TEXT	ENDS
; Function compile flags: /Ogtp
; File D:\_m2work\txoko-m2-work\txoko-client-src\source\UserInterface\PythonPlayerModule.cpp
;	COMDAT ?playerShowPlayer@@YAPAU_object@@PAU1@0@Z
_TEXT	SEGMENT
_poSelf$ = 8						; size = 4
_poArgs$ = 12						; size = 4
?playerShowPlayer@@YAPAU_object@@PAU1@0@Z PROC		; playerShowPlayer, COMDAT

; 322  : 	CInstanceBase * pMainInstance = CPythonPlayer::Instance().NEW_GetMainActorPtr();

  00000	8b 0d 00 00 00
	00		 mov	 ecx, DWORD PTR ?ms_singleton@?$CSingleton@VCPythonPlayer@@@@0PAVCPythonPlayer@@A ; CSingleton<CPythonPlayer>::ms_singleton
  00006	83 c1 04	 add	 ecx, 4
  00009	8b 01		 mov	 eax, DWORD PTR [ecx]
  0000b	ff 90 88 00 00
	00		 call	 DWORD PTR [eax+136]

; 323  : 	if (pMainInstance)

  00011	85 c0		 test	 eax, eax
  00013	74 0e		 je	 SHORT $LN2@playerShow

; 324  : 		pMainInstance->GetGraphicThingInstanceRef().Show();

  00015	8b c8		 mov	 ecx, eax
  00017	e8 00 00 00 00	 call	 ?GetGraphicThingInstanceRef@CInstanceBase@@QAEAAVCActorInstance@@XZ ; CInstanceBase::GetGraphicThingInstanceRef
  0001c	8b c8		 mov	 ecx, eax
  0001e	e8 00 00 00 00	 call	 ?Show@CGraphicObjectInstance@@QAEXXZ ; CGraphicObjectInstance::Show
$LN2@playerShow:

; 325  : 	return Py_BuildNone();

  00023	e9 00 00 00 00	 jmp	 ?Py_BuildNone@@YAPAU_object@@XZ ; Py_BuildNone
?playerShowPlayer@@YAPAU_object@@PAU1@0@Z ENDP		; playerShowPlayer
_TEXT	ENDS
; Function compile flags: /Ogtp
; File D:\_m2work\txoko-m2-work\txoko-client-src\source\UserInterface\PythonPlayerModule.cpp
;	COMDAT ?playerHidePlayer@@YAPAU_object@@PAU1@0@Z
_TEXT	SEGMENT
_poSelf$ = 8						; size = 4
_poArgs$ = 12						; size = 4
?playerHidePlayer@@YAPAU_object@@PAU1@0@Z PROC		; playerHidePlayer, COMDAT

; 330  : 	CInstanceBase * pMainInstance = CPythonPlayer::Instance().NEW_GetMainActorPtr();

  00000	8b 0d 00 00 00
	00		 mov	 ecx, DWORD PTR ?ms_singleton@?$CSingleton@VCPythonPlayer@@@@0PAVCPythonPlayer@@A ; CSingleton<CPythonPlayer>::ms_singleton
  00006	83 c1 04	 add	 ecx, 4
  00009	8b 01		 mov	 eax, DWORD PTR [ecx]
  0000b	ff 90 88 00 00
	00		 call	 DWORD PTR [eax+136]

; 331  : 	if (pMainInstance)

  00011	85 c0		 test	 eax, eax
  00013	74 0e		 je	 SHORT $LN2@playerHide

; 332  : 		pMainInstance->GetGraphicThingInstanceRef().Hide();

  00015	8b c8		 mov	 ecx, eax
  00017	e8 00 00 00 00	 call	 ?GetGraphicThingInstanceRef@CInstanceBase@@QAEAAVCActorInstance@@XZ ; CInstanceBase::GetGraphicThingInstanceRef
  0001c	8b c8		 mov	 ecx, eax
  0001e	e8 00 00 00 00	 call	 ?Hide@CGraphicObjectInstance@@QAEXXZ ; CGraphicObjectInstance::Hide
$LN2@playerHide:

; 333  : 	return Py_BuildNone();

  00023	e9 00 00 00 00	 jmp	 ?Py_BuildNone@@YAPAU_object@@XZ ; Py_BuildNone
?playerHidePlayer@@YAPAU_object@@PAU1@0@Z ENDP		; playerHidePlayer
_TEXT	ENDS
; Function compile flags: /Ogtp
; File D:\_m2work\txoko-m2-work\txoko-client-src\source\UserInterface\PythonPlayerModule.cpp
;	COMDAT ?playerComboAttack@@YAPAU_object@@PAU1@0@Z
_TEXT	SEGMENT
_poSelf$ = 8						; size = 4
_poArgs$ = 12						; size = 4
?playerComboAttack@@YAPAU_object@@PAU1@0@Z PROC		; playerComboAttack, COMDAT

; 339  : 	CPythonPlayer::Instance().NEW_Attack();

  00000	8b 0d 00 00 00
	00		 mov	 ecx, DWORD PTR ?ms_singleton@?$CSingleton@VCPythonPlayer@@@@0PAVCPythonPlayer@@A ; CSingleton<CPythonPlayer>::ms_singleton
  00006	e8 00 00 00 00	 call	 ?NEW_Attack@CPythonPlayer@@QAEXXZ ; CPythonPlayer::NEW_Attack

; 340  : 	return Py_BuildNone();

  0000b	e9 00 00 00 00	 jmp	 ?Py_BuildNone@@YAPAU_object@@XZ ; Py_BuildNone
?playerComboAttack@@YAPAU_object@@PAU1@0@Z ENDP		; playerComboAttack
_TEXT	ENDS
; Function compile flags: /Ogtp
; File D:\_m2work\txoko-m2-work\txoko-client-src\source\UserInterface\PythonPlayerModule.cpp
;	COMDAT ?playerRegisterEffect@@YAPAU_object@@PAU1@0@Z
_TEXT	SEGMENT
_iEft$ = -8						; size = 4
_szFileName$ = -4					; size = 4
_poSelf$ = 8						; size = 4
_poArgs$ = 12						; size = 4
?playerRegisterEffect@@YAPAU_object@@PAU1@0@Z PROC	; playerRegisterEffect, COMDAT

; 345  : {

  00000	55		 push	 ebp
  00001	8b ec		 mov	 ebp, esp
  00003	83 ec 08	 sub	 esp, 8

; 346  : 	int iEft;
; 347  : 	if (!PyTuple_GetInteger(poArgs, 0, &iEft))

  00006	8d 45 f8	 lea	 eax, DWORD PTR _iEft$[ebp]
  00009	50		 push	 eax
  0000a	6a 00		 push	 0
  0000c	ff 75 0c	 push	 DWORD PTR _poArgs$[ebp]
  0000f	e8 00 00 00 00	 call	 ?PyTuple_GetInteger@@YA_NPAU_object@@HPAH@Z ; PyTuple_GetInteger
  00014	83 c4 0c	 add	 esp, 12			; 0000000cH
  00017	84 c0		 test	 al, al
  00019	75 09		 jne	 SHORT $LN2@playerRegi
$LN6@playerRegi:

; 359  : }

  0001b	e8 00 00 00 00	 call	 ?Py_BadArgument@@YAPAU_object@@XZ ; Py_BadArgument
  00020	8b e5		 mov	 esp, ebp
  00022	5d		 pop	 ebp
  00023	c3		 ret	 0
$LN2@playerRegi:

; 348  : 		return Py_BadArgument();
; 349  : 
; 350  : 	char* szFileName;
; 351  : 	if (!PyTuple_GetString(poArgs, 1, &szFileName))

  00024	8d 45 fc	 lea	 eax, DWORD PTR _szFileName$[ebp]
  00027	50		 push	 eax
  00028	6a 01		 push	 1
  0002a	ff 75 0c	 push	 DWORD PTR _poArgs$[ebp]
  0002d	e8 00 00 00 00	 call	 ?PyTuple_GetString@@YA_NPAU_object@@HPAPAD@Z ; PyTuple_GetString
  00032	83 c4 0c	 add	 esp, 12			; 0000000cH
  00035	84 c0		 test	 al, al
  00037	74 e2		 je	 SHORT $LN6@playerRegi

; 352  : 		return Py_BadArgument();
; 353  : 
; 354  : 	CPythonPlayer & rkPlayer = CPythonPlayer::Instance();
; 355  : 	if (!rkPlayer.RegisterEffect(iEft, szFileName, false))

  00039	8b 0d 00 00 00
	00		 mov	 ecx, DWORD PTR ?ms_singleton@?$CSingleton@VCPythonPlayer@@@@0PAVCPythonPlayer@@A ; CSingleton<CPythonPlayer>::ms_singleton
  0003f	6a 00		 push	 0
  00041	ff 75 fc	 push	 DWORD PTR _szFileName$[ebp]
  00044	ff 75 f8	 push	 DWORD PTR _iEft$[ebp]
  00047	e8 00 00 00 00	 call	 ?RegisterEffect@CPythonPlayer@@QAE_NKPBD_N@Z ; CPythonPlayer::RegisterEffect
  0004c	84 c0		 test	 al, al
  0004e	75 17		 jne	 SHORT $LN4@playerRegi

; 356  : 		return Py_BuildException("CPythonPlayer::RegisterEffect(eEft=%d, szFileName=%s", iEft, szFileName);

  00050	ff 75 fc	 push	 DWORD PTR _szFileName$[ebp]
  00053	ff 75 f8	 push	 DWORD PTR _iEft$[ebp]
  00056	68 00 00 00 00	 push	 OFFSET ??_C@_0DF@ILFGGFEI@CPythonPlayer?3?3RegisterEffect?$CIe@
  0005b	e8 00 00 00 00	 call	 ?Py_BuildException@@YAPAU_object@@PBDZZ ; Py_BuildException
  00060	83 c4 0c	 add	 esp, 12			; 0000000cH

; 359  : }

  00063	8b e5		 mov	 esp, ebp
  00065	5d		 pop	 ebp
  00066	c3		 ret	 0
$LN4@playerRegi:

; 357  : 
; 358  : 	return Py_BuildNone();

  00067	e8 00 00 00 00	 call	 ?Py_BuildNone@@YAPAU_object@@XZ ; Py_BuildNone

; 359  : }

  0006c	8b e5		 mov	 esp, ebp
  0006e	5d		 pop	 ebp
  0006f	c3		 ret	 0
?playerRegisterEffect@@YAPAU_object@@PAU1@0@Z ENDP	; playerRegisterEffect
_TEXT	ENDS
; Function compile flags: /Ogtp
; File D:\_m2work\txoko-m2-work\txoko-client-src\source\UserInterface\PythonPlayerModule.cpp
;	COMDAT ?playerRegisterCacheEffect@@YAPAU_object@@PAU1@0@Z
_TEXT	SEGMENT
_iEft$ = -8						; size = 4
_szFileName$ = -4					; size = 4
_poSelf$ = 8						; size = 4
_poArgs$ = 12						; size = 4
?playerRegisterCacheEffect@@YAPAU_object@@PAU1@0@Z PROC	; playerRegisterCacheEffect, COMDAT

; 362  : {

  00000	55		 push	 ebp
  00001	8b ec		 mov	 ebp, esp
  00003	83 ec 08	 sub	 esp, 8

; 363  : 	int iEft;
; 364  : 	if (!PyTuple_GetInteger(poArgs, 0, &iEft))

  00006	8d 45 f8	 lea	 eax, DWORD PTR _iEft$[ebp]
  00009	50		 push	 eax
  0000a	6a 00		 push	 0
  0000c	ff 75 0c	 push	 DWORD PTR _poArgs$[ebp]
  0000f	e8 00 00 00 00	 call	 ?PyTuple_GetInteger@@YA_NPAU_object@@HPAH@Z ; PyTuple_GetInteger
  00014	83 c4 0c	 add	 esp, 12			; 0000000cH
  00017	84 c0		 test	 al, al
  00019	75 09		 jne	 SHORT $LN2@playerRegi
$LN6@playerRegi:

; 376  : }

  0001b	e8 00 00 00 00	 call	 ?Py_BadArgument@@YAPAU_object@@XZ ; Py_BadArgument
  00020	8b e5		 mov	 esp, ebp
  00022	5d		 pop	 ebp
  00023	c3		 ret	 0
$LN2@playerRegi:

; 365  : 		return Py_BadArgument();
; 366  : 
; 367  : 	char* szFileName;
; 368  : 	if (!PyTuple_GetString(poArgs, 1, &szFileName))

  00024	8d 45 fc	 lea	 eax, DWORD PTR _szFileName$[ebp]
  00027	50		 push	 eax
  00028	6a 01		 push	 1
  0002a	ff 75 0c	 push	 DWORD PTR _poArgs$[ebp]
  0002d	e8 00 00 00 00	 call	 ?PyTuple_GetString@@YA_NPAU_object@@HPAPAD@Z ; PyTuple_GetString
  00032	83 c4 0c	 add	 esp, 12			; 0000000cH
  00035	84 c0		 test	 al, al
  00037	74 e2		 je	 SHORT $LN6@playerRegi

; 369  : 		return Py_BadArgument();
; 370  : 
; 371  : 	CPythonPlayer & rkPlayer = CPythonPlayer::Instance();
; 372  : 	if (!rkPlayer.RegisterEffect(iEft, szFileName, true))

  00039	8b 0d 00 00 00
	00		 mov	 ecx, DWORD PTR ?ms_singleton@?$CSingleton@VCPythonPlayer@@@@0PAVCPythonPlayer@@A ; CSingleton<CPythonPlayer>::ms_singleton
  0003f	6a 01		 push	 1
  00041	ff 75 fc	 push	 DWORD PTR _szFileName$[ebp]
  00044	ff 75 f8	 push	 DWORD PTR _iEft$[ebp]
  00047	e8 00 00 00 00	 call	 ?RegisterEffect@CPythonPlayer@@QAE_NKPBD_N@Z ; CPythonPlayer::RegisterEffect
  0004c	84 c0		 test	 al, al
  0004e	75 17		 jne	 SHORT $LN4@playerRegi

; 373  : 		return Py_BuildException("CPythonPlayer::RegisterEffect(eEft=%d, szFileName=%s", iEft, szFileName);

  00050	ff 75 fc	 push	 DWORD PTR _szFileName$[ebp]
  00053	ff 75 f8	 push	 DWORD PTR _iEft$[ebp]
  00056	68 00 00 00 00	 push	 OFFSET ??_C@_0DF@ILFGGFEI@CPythonPlayer?3?3RegisterEffect?$CIe@
  0005b	e8 00 00 00 00	 call	 ?Py_BuildException@@YAPAU_object@@PBDZZ ; Py_BuildException
  00060	83 c4 0c	 add	 esp, 12			; 0000000cH

; 376  : }

  00063	8b e5		 mov	 esp, ebp
  00065	5d		 pop	 ebp
  00066	c3		 ret	 0
$LN4@playerRegi:

; 374  : 
; 375  : 	return Py_BuildNone();

  00067	e8 00 00 00 00	 call	 ?Py_BuildNone@@YAPAU_object@@XZ ; Py_BuildNone

; 376  : }

  0006c	8b e5		 mov	 esp, ebp
  0006e	5d		 pop	 ebp
  0006f	c3		 ret	 0
?playerRegisterCacheEffect@@YAPAU_object@@PAU1@0@Z ENDP	; playerRegisterCacheEffect
_TEXT	ENDS
; Function compile flags: /Ogtp
; File D:\_m2work\txoko-m2-work\txoko-client-src\source\UserInterface\PythonPlayerModule.cpp
;	COMDAT ?playerSetAttackKeyState@@YAPAU_object@@PAU1@0@Z
_TEXT	SEGMENT
_isPressed$ = -4					; size = 4
_poSelf$ = 8						; size = 4
_poArgs$ = 12						; size = 4
?playerSetAttackKeyState@@YAPAU_object@@PAU1@0@Z PROC	; playerSetAttackKeyState, COMDAT

; 379  : {

  00000	55		 push	 ebp
  00001	8b ec		 mov	 ebp, esp
  00003	51		 push	 ecx

; 380  : 	int isPressed;
; 381  : 	if (!PyTuple_GetInteger(poArgs, 0, &isPressed))

  00004	8d 45 fc	 lea	 eax, DWORD PTR _isPressed$[ebp]
  00007	50		 push	 eax
  00008	6a 00		 push	 0
  0000a	ff 75 0c	 push	 DWORD PTR _poArgs$[ebp]
  0000d	e8 00 00 00 00	 call	 ?PyTuple_GetInteger@@YA_NPAU_object@@HPAH@Z ; PyTuple_GetInteger
  00012	83 c4 0c	 add	 esp, 12			; 0000000cH
  00015	84 c0		 test	 al, al
  00017	75 11		 jne	 SHORT $LN2@playerSetA

; 382  : 		return Py_BuildException("playerSetAttackKeyState(isPressed) - There is no first argument");

  00019	68 00 00 00 00	 push	 OFFSET ??_C@_0EA@OHLDKNFC@playerSetAttackKeyState?$CIisPress@
  0001e	e8 00 00 00 00	 call	 ?Py_BuildException@@YAPAU_object@@PBDZZ ; Py_BuildException
  00023	83 c4 04	 add	 esp, 4

; 387  : }

  00026	8b e5		 mov	 esp, ebp
  00028	5d		 pop	 ebp
  00029	c3		 ret	 0
$LN2@playerSetA:

; 383  : 
; 384  : 	CPythonPlayer & rkPlayer = CPythonPlayer::Instance();
; 385  : 	rkPlayer.SetAttackKeyState(isPressed ? true : false);

  0002a	83 7d fc 00	 cmp	 DWORD PTR _isPressed$[ebp], 0
  0002e	8b 0d 00 00 00
	00		 mov	 ecx, DWORD PTR ?ms_singleton@?$CSingleton@VCPythonPlayer@@@@0PAVCPythonPlayer@@A ; CSingleton<CPythonPlayer>::ms_singleton
  00034	0f 95 c0	 setne	 al
  00037	0f b6 c0	 movzx	 eax, al
  0003a	50		 push	 eax
  0003b	e8 00 00 00 00	 call	 ?SetAttackKeyState@CPythonPlayer@@QAEX_N@Z ; CPythonPlayer::SetAttackKeyState

; 386  : 	return Py_BuildNone();

  00040	e8 00 00 00 00	 call	 ?Py_BuildNone@@YAPAU_object@@XZ ; Py_BuildNone

; 387  : }

  00045	8b e5		 mov	 esp, ebp
  00047	5d		 pop	 ebp
  00048	c3		 ret	 0
?playerSetAttackKeyState@@YAPAU_object@@PAU1@0@Z ENDP	; playerSetAttackKeyState
_TEXT	ENDS
; Function compile flags: /Ogtp
; File D:\_m2work\txoko-m2-work\txoko-client-src\source\UserInterface\PythonPlayerModule.cpp
;	COMDAT ?playerSetSingleDIKKeyState@@YAPAU_object@@PAU1@0@Z
_TEXT	SEGMENT
_eDIK$ = -8						; size = 4
_isPressed$ = -4					; size = 4
_poSelf$ = 8						; size = 4
_poArgs$ = 12						; size = 4
?playerSetSingleDIKKeyState@@YAPAU_object@@PAU1@0@Z PROC ; playerSetSingleDIKKeyState, COMDAT

; 390  : {

  00000	55		 push	 ebp
  00001	8b ec		 mov	 ebp, esp
  00003	83 ec 08	 sub	 esp, 8

; 391  : 	int eDIK;
; 392  : 	if (!PyTuple_GetInteger(poArgs, 0, &eDIK))

  00006	8d 45 f8	 lea	 eax, DWORD PTR _eDIK$[ebp]
  00009	50		 push	 eax
  0000a	6a 00		 push	 0
  0000c	ff 75 0c	 push	 DWORD PTR _poArgs$[ebp]
  0000f	e8 00 00 00 00	 call	 ?PyTuple_GetInteger@@YA_NPAU_object@@HPAH@Z ; PyTuple_GetInteger
  00014	83 c4 0c	 add	 esp, 12			; 0000000cH
  00017	84 c0		 test	 al, al
  00019	75 11		 jne	 SHORT $LN2@playerSetS

; 393  : 		return Py_BuildException("playerSetSingleDIKKeyState(eDIK, isPressed) - There is no first argument");

  0001b	68 00 00 00 00	 push	 OFFSET ??_C@_0EJ@BNKMOLIP@playerSetSingleDIKKeyState?$CIeDIK@
  00020	e8 00 00 00 00	 call	 ?Py_BuildException@@YAPAU_object@@PBDZZ ; Py_BuildException
  00025	83 c4 04	 add	 esp, 4

; 402  : }

  00028	8b e5		 mov	 esp, ebp
  0002a	5d		 pop	 ebp
  0002b	c3		 ret	 0
$LN2@playerSetS:

; 394  : 
; 395  : 	int isPressed;
; 396  : 	if (!PyTuple_GetInteger(poArgs, 1, &isPressed))

  0002c	8d 45 fc	 lea	 eax, DWORD PTR _isPressed$[ebp]
  0002f	50		 push	 eax
  00030	6a 01		 push	 1
  00032	ff 75 0c	 push	 DWORD PTR _poArgs$[ebp]
  00035	e8 00 00 00 00	 call	 ?PyTuple_GetInteger@@YA_NPAU_object@@HPAH@Z ; PyTuple_GetInteger
  0003a	83 c4 0c	 add	 esp, 12			; 0000000cH
  0003d	84 c0		 test	 al, al
  0003f	75 11		 jne	 SHORT $LN3@playerSetS

; 397  : 		return Py_BuildException("playerSetSingleDIKKeyState(eDIK, isPressed) - There is no second argument");

  00041	68 00 00 00 00	 push	 OFFSET ??_C@_0EK@IDBGKDBN@playerSetSingleDIKKeyState?$CIeDIK@
  00046	e8 00 00 00 00	 call	 ?Py_BuildException@@YAPAU_object@@PBDZZ ; Py_BuildException
  0004b	83 c4 04	 add	 esp, 4

; 402  : }

  0004e	8b e5		 mov	 esp, ebp
  00050	5d		 pop	 ebp
  00051	c3		 ret	 0
$LN3@playerSetS:

; 398  : 
; 399  : 	CPythonPlayer & rkPlayer = CPythonPlayer::Instance();
; 400  : 	rkPlayer.NEW_SetSingleDIKKeyState(eDIK, isPressed ? true : false);

  00052	83 7d fc 00	 cmp	 DWORD PTR _isPressed$[ebp], 0
  00056	8b 0d 00 00 00
	00		 mov	 ecx, DWORD PTR ?ms_singleton@?$CSingleton@VCPythonPlayer@@@@0PAVCPythonPlayer@@A ; CSingleton<CPythonPlayer>::ms_singleton
  0005c	0f 95 c0	 setne	 al
  0005f	0f b6 c0	 movzx	 eax, al
  00062	50		 push	 eax
  00063	ff 75 f8	 push	 DWORD PTR _eDIK$[ebp]
  00066	e8 00 00 00 00	 call	 ?NEW_SetSingleDIKKeyState@CPythonPlayer@@QAEXH_N@Z ; CPythonPlayer::NEW_SetSingleDIKKeyState

; 401  : 	return Py_BuildNone();

  0006b	e8 00 00 00 00	 call	 ?Py_BuildNone@@YAPAU_object@@XZ ; Py_BuildNone

; 402  : }

  00070	8b e5		 mov	 esp, ebp
  00072	5d		 pop	 ebp
  00073	c3		 ret	 0
?playerSetSingleDIKKeyState@@YAPAU_object@@PAU1@0@Z ENDP ; playerSetSingleDIKKeyState
_TEXT	ENDS
; Function compile flags: /Ogtp
; File D:\_m2work\txoko-m2-work\txoko-client-src\source\UserInterface\PythonPlayerModule.cpp
;	COMDAT ?playerEndKeyWalkingImmediately@@YAPAU_object@@PAU1@0@Z
_TEXT	SEGMENT
_poSelf$ = 8						; size = 4
_poArgs$ = 12						; size = 4
?playerEndKeyWalkingImmediately@@YAPAU_object@@PAU1@0@Z PROC ; playerEndKeyWalkingImmediately, COMDAT

; 406  : 	CPythonPlayer::Instance().NEW_Stop();

  00000	8b 0d 00 00 00
	00		 mov	 ecx, DWORD PTR ?ms_singleton@?$CSingleton@VCPythonPlayer@@@@0PAVCPythonPlayer@@A ; CSingleton<CPythonPlayer>::ms_singleton
  00006	e8 00 00 00 00	 call	 ?NEW_Stop@CPythonPlayer@@QAEXXZ ; CPythonPlayer::NEW_Stop

; 407  : 	return Py_BuildNone();

  0000b	e9 00 00 00 00	 jmp	 ?Py_BuildNone@@YAPAU_object@@XZ ; Py_BuildNone
?playerEndKeyWalkingImmediately@@YAPAU_object@@PAU1@0@Z ENDP ; playerEndKeyWalkingImmediately
_TEXT	ENDS
; Function compile flags: /Ogtp
; File D:\_m2work\txoko-m2-work\txoko-client-src\source\UserInterface\PythonPlayerModule.cpp
;	COMDAT ?playerStartMouseWalking@@YAPAU_object@@PAU1@0@Z
_TEXT	SEGMENT
_poSelf$ = 8						; size = 4
_poArgs$ = 12						; size = 4
?playerStartMouseWalking@@YAPAU_object@@PAU1@0@Z PROC	; playerStartMouseWalking, COMDAT

; 413  : 	return Py_BuildNone();

  00000	e9 00 00 00 00	 jmp	 ?Py_BuildNone@@YAPAU_object@@XZ ; Py_BuildNone
?playerStartMouseWalking@@YAPAU_object@@PAU1@0@Z ENDP	; playerStartMouseWalking
_TEXT	ENDS
; Function compile flags: /Ogtp
; File D:\_m2work\txoko-m2-work\txoko-client-src\source\UserInterface\PythonPlayerModule.cpp
;	COMDAT ?playerEndMouseWalking@@YAPAU_object@@PAU1@0@Z
_TEXT	SEGMENT
_poSelf$ = 8						; size = 4
_poArgs$ = 12						; size = 4
?playerEndMouseWalking@@YAPAU_object@@PAU1@0@Z PROC	; playerEndMouseWalking, COMDAT

; 418  : 	return Py_BuildNone();

  00000	e9 00 00 00 00	 jmp	 ?Py_BuildNone@@YAPAU_object@@XZ ; Py_BuildNone
?playerEndMouseWalking@@YAPAU_object@@PAU1@0@Z ENDP	; playerEndMouseWalking
_TEXT	ENDS
; Function compile flags: /Ogtp
; File D:\_m2work\txoko-m2-work\txoko-client-src\source\UserInterface\PythonPlayerModule.cpp
;	COMDAT ?playerResetCameraRotation@@YAPAU_object@@PAU1@0@Z
_TEXT	SEGMENT
_poSelf$ = 8						; size = 4
_poArgs$ = 12						; size = 4
?playerResetCameraRotation@@YAPAU_object@@PAU1@0@Z PROC	; playerResetCameraRotation, COMDAT

; 423  : 	CPythonPlayer::Instance().NEW_ResetCameraRotation();

  00000	e8 00 00 00 00	 call	 ?NEW_ResetCameraRotation@CPythonPlayer@@QAEXXZ ; CPythonPlayer::NEW_ResetCameraRotation

; 424  : 	return Py_BuildNone();

  00005	e9 00 00 00 00	 jmp	 ?Py_BuildNone@@YAPAU_object@@XZ ; Py_BuildNone
?playerResetCameraRotation@@YAPAU_object@@PAU1@0@Z ENDP	; playerResetCameraRotation
_TEXT	ENDS
; Function compile flags: /Ogtp
; File D:\_m2work\txoko-m2-work\txoko-client-src\source\UserInterface\PythonPlayerModule.cpp
;	COMDAT ?playerSetAutoCameraRotationSpeed@@YAPAU_object@@PAU1@0@Z
_TEXT	SEGMENT
_fCmrRotSpd$ = -4					; size = 4
_poSelf$ = 8						; size = 4
_poArgs$ = 12						; size = 4
?playerSetAutoCameraRotationSpeed@@YAPAU_object@@PAU1@0@Z PROC ; playerSetAutoCameraRotationSpeed, COMDAT

; 428  : {

  00000	55		 push	 ebp
  00001	8b ec		 mov	 ebp, esp
  00003	51		 push	 ecx

; 429  : 	float fCmrRotSpd;
; 430  : 	if (!PyTuple_GetFloat(poArgs, 0, &fCmrRotSpd))

  00004	8d 45 fc	 lea	 eax, DWORD PTR _fCmrRotSpd$[ebp]
  00007	50		 push	 eax
  00008	6a 00		 push	 0
  0000a	ff 75 0c	 push	 DWORD PTR _poArgs$[ebp]
  0000d	e8 00 00 00 00	 call	 ?PyTuple_GetFloat@@YA_NPAU_object@@HPAM@Z ; PyTuple_GetFloat
  00012	83 c4 0c	 add	 esp, 12			; 0000000cH
  00015	84 c0		 test	 al, al
  00017	75 0e		 jne	 SHORT $LN2@playerSetA

; 431  : 		return Py_BuildException();	

  00019	6a 00		 push	 0
  0001b	e8 00 00 00 00	 call	 ?Py_BuildException@@YAPAU_object@@PBDZZ ; Py_BuildException
  00020	83 c4 04	 add	 esp, 4

; 436  : }

  00023	8b e5		 mov	 esp, ebp
  00025	5d		 pop	 ebp
  00026	c3		 ret	 0
$LN2@playerSetA:

; 432  : 
; 433  : 	CPythonPlayer& rkPlayer=CPythonPlayer::Instance();
; 434  : 	rkPlayer.NEW_SetAutoCameraRotationSpeed(fCmrRotSpd);

  00027	f3 0f 10 4d fc	 movss	 xmm1, DWORD PTR _fCmrRotSpd$[ebp]
  0002c	8b 0d 00 00 00
	00		 mov	 ecx, DWORD PTR ?ms_singleton@?$CSingleton@VCPythonPlayer@@@@0PAVCPythonPlayer@@A ; CSingleton<CPythonPlayer>::ms_singleton
  00032	e8 00 00 00 00	 call	 ?NEW_SetAutoCameraRotationSpeed@CPythonPlayer@@QAEXM@Z ; CPythonPlayer::NEW_SetAutoCameraRotationSpeed

; 435  : 	return Py_BuildNone();

  00037	e8 00 00 00 00	 call	 ?Py_BuildNone@@YAPAU_object@@XZ ; Py_BuildNone

; 436  : }

  0003c	8b e5		 mov	 esp, ebp
  0003e	5d		 pop	 ebp
  0003f	c3		 ret	 0
?playerSetAutoCameraRotationSpeed@@YAPAU_object@@PAU1@0@Z ENDP ; playerSetAutoCameraRotationSpeed
_TEXT	ENDS
; Function compile flags: /Ogtp
; File D:\_m2work\txoko-m2-work\txoko-client-src\source\UserInterface\PythonPlayerModule.cpp
;	COMDAT ?playerSetMouseState@@YAPAU_object@@PAU1@0@Z
_TEXT	SEGMENT
_eMBT$ = -8						; size = 4
_eMBS$ = -4						; size = 4
_poSelf$ = 8						; size = 4
_poArgs$ = 12						; size = 4
?playerSetMouseState@@YAPAU_object@@PAU1@0@Z PROC	; playerSetMouseState, COMDAT

; 439  : {

  00000	55		 push	 ebp
  00001	8b ec		 mov	 ebp, esp
  00003	83 ec 08	 sub	 esp, 8

; 440  : 	int eMBT;
; 441  : 	if (!PyTuple_GetInteger(poArgs, 0, &eMBT))

  00006	8d 45 f8	 lea	 eax, DWORD PTR _eMBT$[ebp]
  00009	50		 push	 eax
  0000a	6a 00		 push	 0
  0000c	ff 75 0c	 push	 DWORD PTR _poArgs$[ebp]
  0000f	e8 00 00 00 00	 call	 ?PyTuple_GetInteger@@YA_NPAU_object@@HPAH@Z ; PyTuple_GetInteger
  00014	83 c4 0c	 add	 esp, 12			; 0000000cH
  00017	84 c0		 test	 al, al
  00019	75 0e		 jne	 SHORT $LN2@playerSetM
$LN5@playerSetM:

; 452  : }

  0001b	6a 00		 push	 0
  0001d	e8 00 00 00 00	 call	 ?Py_BuildException@@YAPAU_object@@PBDZZ ; Py_BuildException
  00022	83 c4 04	 add	 esp, 4
  00025	8b e5		 mov	 esp, ebp
  00027	5d		 pop	 ebp
  00028	c3		 ret	 0
$LN2@playerSetM:

; 442  : 		return Py_BuildException();	
; 443  : 
; 444  : 	int eMBS;
; 445  : 	if (!PyTuple_GetInteger(poArgs, 1, &eMBS))

  00029	8d 45 fc	 lea	 eax, DWORD PTR _eMBS$[ebp]
  0002c	50		 push	 eax
  0002d	6a 01		 push	 1
  0002f	ff 75 0c	 push	 DWORD PTR _poArgs$[ebp]
  00032	e8 00 00 00 00	 call	 ?PyTuple_GetInteger@@YA_NPAU_object@@HPAH@Z ; PyTuple_GetInteger
  00037	83 c4 0c	 add	 esp, 12			; 0000000cH
  0003a	84 c0		 test	 al, al
  0003c	74 dd		 je	 SHORT $LN5@playerSetM

; 446  : 		return Py_BuildException();	
; 447  : 
; 448  : 	CPythonPlayer& rkPlayer=CPythonPlayer::Instance();
; 449  : 	rkPlayer.NEW_SetMouseState(eMBT, eMBS);

  0003e	ff 75 fc	 push	 DWORD PTR _eMBS$[ebp]
  00041	8b 0d 00 00 00
	00		 mov	 ecx, DWORD PTR ?ms_singleton@?$CSingleton@VCPythonPlayer@@@@0PAVCPythonPlayer@@A ; CSingleton<CPythonPlayer>::ms_singleton
  00047	ff 75 f8	 push	 DWORD PTR _eMBT$[ebp]
  0004a	e8 00 00 00 00	 call	 ?NEW_SetMouseState@CPythonPlayer@@QAE_NHH@Z ; CPythonPlayer::NEW_SetMouseState

; 450  : 
; 451  : 	return Py_BuildNone();

  0004f	e8 00 00 00 00	 call	 ?Py_BuildNone@@YAPAU_object@@XZ ; Py_BuildNone

; 452  : }

  00054	8b e5		 mov	 esp, ebp
  00056	5d		 pop	 ebp
  00057	c3		 ret	 0
?playerSetMouseState@@YAPAU_object@@PAU1@0@Z ENDP	; playerSetMouseState
_TEXT	ENDS
; Function compile flags: /Ogtp
; File D:\_m2work\txoko-m2-work\txoko-client-src\source\UserInterface\PythonPlayerModule.cpp
;	COMDAT ?playerSetMouseFunc@@YAPAU_object@@PAU1@0@Z
_TEXT	SEGMENT
_eMBT$ = -8						; size = 4
_eMBS$ = -4						; size = 4
_poSelf$ = 8						; size = 4
_poArgs$ = 12						; size = 4
?playerSetMouseFunc@@YAPAU_object@@PAU1@0@Z PROC	; playerSetMouseFunc, COMDAT

; 455  : {

  00000	55		 push	 ebp
  00001	8b ec		 mov	 ebp, esp
  00003	83 ec 08	 sub	 esp, 8

; 456  : 	int eMBT;
; 457  : 	if (!PyTuple_GetInteger(poArgs, 0, &eMBT))

  00006	8d 45 f8	 lea	 eax, DWORD PTR _eMBT$[ebp]
  00009	50		 push	 eax
  0000a	6a 00		 push	 0
  0000c	ff 75 0c	 push	 DWORD PTR _poArgs$[ebp]
  0000f	e8 00 00 00 00	 call	 ?PyTuple_GetInteger@@YA_NPAU_object@@HPAH@Z ; PyTuple_GetInteger
  00014	83 c4 0c	 add	 esp, 12			; 0000000cH
  00017	84 c0		 test	 al, al
  00019	75 0e		 jne	 SHORT $LN2@playerSetM
$LN5@playerSetM:

; 468  : }

  0001b	6a 00		 push	 0
  0001d	e8 00 00 00 00	 call	 ?Py_BuildException@@YAPAU_object@@PBDZZ ; Py_BuildException
  00022	83 c4 04	 add	 esp, 4
  00025	8b e5		 mov	 esp, ebp
  00027	5d		 pop	 ebp
  00028	c3		 ret	 0
$LN2@playerSetM:

; 458  : 		return Py_BuildException();	
; 459  : 
; 460  : 	int eMBS;
; 461  : 	if (!PyTuple_GetInteger(poArgs, 1, &eMBS))

  00029	8d 45 fc	 lea	 eax, DWORD PTR _eMBS$[ebp]
  0002c	50		 push	 eax
  0002d	6a 01		 push	 1
  0002f	ff 75 0c	 push	 DWORD PTR _poArgs$[ebp]
  00032	e8 00 00 00 00	 call	 ?PyTuple_GetInteger@@YA_NPAU_object@@HPAH@Z ; PyTuple_GetInteger
  00037	83 c4 0c	 add	 esp, 12			; 0000000cH
  0003a	84 c0		 test	 al, al
  0003c	74 dd		 je	 SHORT $LN5@playerSetM

; 462  : 		return Py_BuildException();	
; 463  : 
; 464  : 	CPythonPlayer& rkPlayer=CPythonPlayer::Instance();
; 465  : 	rkPlayer.NEW_SetMouseFunc(eMBT, eMBS);

  0003e	ff 75 fc	 push	 DWORD PTR _eMBS$[ebp]
  00041	8b 0d 00 00 00
	00		 mov	 ecx, DWORD PTR ?ms_singleton@?$CSingleton@VCPythonPlayer@@@@0PAVCPythonPlayer@@A ; CSingleton<CPythonPlayer>::ms_singleton
  00047	ff 75 f8	 push	 DWORD PTR _eMBT$[ebp]
  0004a	e8 00 00 00 00	 call	 ?NEW_SetMouseFunc@CPythonPlayer@@QAE_NHH@Z ; CPythonPlayer::NEW_SetMouseFunc

; 466  : 
; 467  : 	return Py_BuildNone();

  0004f	e8 00 00 00 00	 call	 ?Py_BuildNone@@YAPAU_object@@XZ ; Py_BuildNone

; 468  : }

  00054	8b e5		 mov	 esp, ebp
  00056	5d		 pop	 ebp
  00057	c3		 ret	 0
?playerSetMouseFunc@@YAPAU_object@@PAU1@0@Z ENDP	; playerSetMouseFunc
_TEXT	ENDS
; Function compile flags: /Ogtp
; File D:\_m2work\txoko-m2-work\txoko-client-src\source\UserInterface\PythonPlayerModule.cpp
;	COMDAT ?playerGetMouseFunc@@YAPAU_object@@PAU1@0@Z
_TEXT	SEGMENT
_eMBT$ = -4						; size = 4
_poSelf$ = 8						; size = 4
_poArgs$ = 12						; size = 4
?playerGetMouseFunc@@YAPAU_object@@PAU1@0@Z PROC	; playerGetMouseFunc, COMDAT

; 471  : {

  00000	55		 push	 ebp
  00001	8b ec		 mov	 ebp, esp
  00003	51		 push	 ecx

; 472  : 	int eMBT;
; 473  : 	if (!PyTuple_GetInteger(poArgs, 0, &eMBT))

  00004	8d 45 fc	 lea	 eax, DWORD PTR _eMBT$[ebp]
  00007	50		 push	 eax
  00008	6a 00		 push	 0
  0000a	ff 75 0c	 push	 DWORD PTR _poArgs$[ebp]
  0000d	e8 00 00 00 00	 call	 ?PyTuple_GetInteger@@YA_NPAU_object@@HPAH@Z ; PyTuple_GetInteger
  00012	83 c4 0c	 add	 esp, 12			; 0000000cH
  00015	84 c0		 test	 al, al
  00017	75 0e		 jne	 SHORT $LN2@playerGetM

; 474  : 		return Py_BuildException();	

  00019	6a 00		 push	 0
  0001b	e8 00 00 00 00	 call	 ?Py_BuildException@@YAPAU_object@@PBDZZ ; Py_BuildException
  00020	83 c4 04	 add	 esp, 4

; 478  : }

  00023	8b e5		 mov	 esp, ebp
  00025	5d		 pop	 ebp
  00026	c3		 ret	 0
$LN2@playerGetM:

; 475  : 
; 476  : 	CPythonPlayer& rkPlayer=CPythonPlayer::Instance();
; 477  : 	return Py_BuildValue("i", rkPlayer.NEW_GetMouseFunc(eMBT));

  00027	ff 75 fc	 push	 DWORD PTR _eMBT$[ebp]
  0002a	8b 0d 00 00 00
	00		 mov	 ecx, DWORD PTR ?ms_singleton@?$CSingleton@VCPythonPlayer@@@@0PAVCPythonPlayer@@A ; CSingleton<CPythonPlayer>::ms_singleton
  00030	e8 00 00 00 00	 call	 ?NEW_GetMouseFunc@CPythonPlayer@@QAEHH@Z ; CPythonPlayer::NEW_GetMouseFunc
  00035	50		 push	 eax
  00036	68 00 00 00 00	 push	 OFFSET ??_C@_01KBJDNOO@i@
  0003b	ff 15 00 00 00
	00		 call	 DWORD PTR __imp__Py_BuildValue
  00041	83 c4 08	 add	 esp, 8

; 478  : }

  00044	8b e5		 mov	 esp, ebp
  00046	5d		 pop	 ebp
  00047	c3		 ret	 0
?playerGetMouseFunc@@YAPAU_object@@PAU1@0@Z ENDP	; playerGetMouseFunc
_TEXT	ENDS
; Function compile flags: /Ogtp
; File D:\_m2work\txoko-m2-work\txoko-client-src\source\UserInterface\PythonPlayerModule.cpp
;	COMDAT ?playerSetMouseMiddleButtonState@@YAPAU_object@@PAU1@0@Z
_TEXT	SEGMENT
_eMBS$ = -4						; size = 4
_poSelf$ = 8						; size = 4
_poArgs$ = 12						; size = 4
?playerSetMouseMiddleButtonState@@YAPAU_object@@PAU1@0@Z PROC ; playerSetMouseMiddleButtonState, COMDAT

; 481  : {

  00000	55		 push	 ebp
  00001	8b ec		 mov	 ebp, esp
  00003	51		 push	 ecx

; 482  : 	int eMBS;
; 483  : 	if (!PyTuple_GetInteger(poArgs, 0, &eMBS))

  00004	8d 45 fc	 lea	 eax, DWORD PTR _eMBS$[ebp]
  00007	50		 push	 eax
  00008	6a 00		 push	 0
  0000a	ff 75 0c	 push	 DWORD PTR _poArgs$[ebp]
  0000d	e8 00 00 00 00	 call	 ?PyTuple_GetInteger@@YA_NPAU_object@@HPAH@Z ; PyTuple_GetInteger
  00012	83 c4 0c	 add	 esp, 12			; 0000000cH
  00015	84 c0		 test	 al, al
  00017	75 0e		 jne	 SHORT $LN2@playerSetM

; 484  : 		return Py_BuildException();	

  00019	6a 00		 push	 0
  0001b	e8 00 00 00 00	 call	 ?Py_BuildException@@YAPAU_object@@PBDZZ ; Py_BuildException
  00020	83 c4 04	 add	 esp, 4

; 490  : }

  00023	8b e5		 mov	 esp, ebp
  00025	5d		 pop	 ebp
  00026	c3		 ret	 0
$LN2@playerSetM:

; 485  : 
; 486  : 	CPythonPlayer& rkPlayer=CPythonPlayer::Instance();
; 487  : 	rkPlayer.NEW_SetMouseMiddleButtonState(eMBS);

  00027	ff 75 fc	 push	 DWORD PTR _eMBS$[ebp]
  0002a	8b 0d 00 00 00
	00		 mov	 ecx, DWORD PTR ?ms_singleton@?$CSingleton@VCPythonPlayer@@@@0PAVCPythonPlayer@@A ; CSingleton<CPythonPlayer>::ms_singleton
  00030	e8 00 00 00 00	 call	 ?NEW_SetMouseMiddleButtonState@CPythonPlayer@@QAEXH@Z ; CPythonPlayer::NEW_SetMouseMiddleButtonState

; 488  : 
; 489  : 	return Py_BuildNone();

  00035	e8 00 00 00 00	 call	 ?Py_BuildNone@@YAPAU_object@@XZ ; Py_BuildNone

; 490  : }

  0003a	8b e5		 mov	 esp, ebp
  0003c	5d		 pop	 ebp
  0003d	c3		 ret	 0
?playerSetMouseMiddleButtonState@@YAPAU_object@@PAU1@0@Z ENDP ; playerSetMouseMiddleButtonState
_TEXT	ENDS
; Function compile flags: /Ogtp
; File D:\_m2work\txoko-m2-work\txoko-client-src\source\UserInterface\PythonPlayerModule.cpp
;	COMDAT ?playerGetName@@YAPAU_object@@PAU1@0@Z
_TEXT	SEGMENT
_poSelf$ = 8						; size = 4
_poArgs$ = 12						; size = 4
?playerGetName@@YAPAU_object@@PAU1@0@Z PROC		; playerGetName, COMDAT

; 496  : 	return Py_BuildValue("s", CPythonPlayer::Instance().GetName()); 

  00000	8b 0d 00 00 00
	00		 mov	 ecx, DWORD PTR ?ms_singleton@?$CSingleton@VCPythonPlayer@@@@0PAVCPythonPlayer@@A ; CSingleton<CPythonPlayer>::ms_singleton
  00006	83 c1 04	 add	 ecx, 4
  00009	8b 01		 mov	 eax, DWORD PTR [ecx]
  0000b	ff 50 14	 call	 DWORD PTR [eax+20]
  0000e	50		 push	 eax
  0000f	68 00 00 00 00	 push	 OFFSET ??_C@_01LKDEMHDF@s@
  00014	ff 15 00 00 00
	00		 call	 DWORD PTR __imp__Py_BuildValue
  0001a	83 c4 08	 add	 esp, 8

; 497  : }

  0001d	c3		 ret	 0
?playerGetName@@YAPAU_object@@PAU1@0@Z ENDP		; playerGetName
_TEXT	ENDS
; Function compile flags: /Ogtp
; File D:\_m2work\txoko-m2-work\txoko-client-src\source\UserInterface\PythonPlayerModule.cpp
;	COMDAT ?playerGetRace@@YAPAU_object@@PAU1@0@Z
_TEXT	SEGMENT
_poSelf$ = 8						; size = 4
_poArgs$ = 12						; size = 4
?playerGetRace@@YAPAU_object@@PAU1@0@Z PROC		; playerGetRace, COMDAT

; 501  : 	return Py_BuildValue("i", CPythonPlayer::Instance().GetRace());

  00000	8b 0d 00 00 00
	00		 mov	 ecx, DWORD PTR ?ms_singleton@?$CSingleton@VCPythonPlayer@@@@0PAVCPythonPlayer@@A ; CSingleton<CPythonPlayer>::ms_singleton
  00006	e8 00 00 00 00	 call	 ?GetRace@CPythonPlayer@@QAEKXZ ; CPythonPlayer::GetRace
  0000b	50		 push	 eax
  0000c	68 00 00 00 00	 push	 OFFSET ??_C@_01KBJDNOO@i@
  00011	ff 15 00 00 00
	00		 call	 DWORD PTR __imp__Py_BuildValue
  00017	83 c4 08	 add	 esp, 8

; 502  : }

  0001a	c3		 ret	 0
?playerGetRace@@YAPAU_object@@PAU1@0@Z ENDP		; playerGetRace
_TEXT	ENDS
; Function compile flags: /Ogtp
; File D:\_m2work\txoko-m2-work\txoko-client-src\source\UserInterface\PythonPlayerModule.cpp
; File D:\_m2work\txoko-m2-work\txoko-client-src\source\UserInterface\InstanceBase.h
; File D:\_m2work\txoko-m2-work\txoko-client-src\source\UserInterface\PythonPlayerModule.cpp
;	COMDAT ?playerGetJob@@YAPAU_object@@PAU1@0@Z
_TEXT	SEGMENT
_poSelf$ = 8						; size = 4
_poArgs$ = 12						; size = 4
?playerGetJob@@YAPAU_object@@PAU1@0@Z PROC		; playerGetJob, COMDAT

; 506  : 	int race = CPythonPlayer::Instance().GetRace();

  00000	8b 0d 00 00 00
	00		 mov	 ecx, DWORD PTR ?ms_singleton@?$CSingleton@VCPythonPlayer@@@@0PAVCPythonPlayer@@A ; CSingleton<CPythonPlayer>::ms_singleton
  00006	e8 00 00 00 00	 call	 ?GetRace@CPythonPlayer@@QAEKXZ ; CPythonPlayer::GetRace
; File D:\_m2work\txoko-m2-work\txoko-client-src\source\UserInterface\InstanceBase.h

; 1112 : 	return race % JOB_NUM;

  0000b	25 03 00 00 80	 and	 eax, -2147483645	; 80000003H
  00010	79 05		 jns	 SHORT $LN5@playerGetJ
  00012	48		 dec	 eax
  00013	83 c8 fc	 or	 eax, -4			; fffffffcH
  00016	40		 inc	 eax
$LN5@playerGetJ:
; File D:\_m2work\txoko-m2-work\txoko-client-src\source\UserInterface\PythonPlayerModule.cpp

; 508  : 	return Py_BuildValue("i", job);

  00017	50		 push	 eax
  00018	68 00 00 00 00	 push	 OFFSET ??_C@_01KBJDNOO@i@
  0001d	ff 15 00 00 00
	00		 call	 DWORD PTR __imp__Py_BuildValue
  00023	83 c4 08	 add	 esp, 8

; 509  : }

  00026	c3		 ret	 0
?playerGetJob@@YAPAU_object@@PAU1@0@Z ENDP		; playerGetJob
_TEXT	ENDS
; Function compile flags: /Ogtp
; File D:\_m2work\txoko-m2-work\txoko-client-src\source\UserInterface\PythonPlayerModule.cpp
;	COMDAT ?playerGetPlayTime@@YAPAU_object@@PAU1@0@Z
_TEXT	SEGMENT
_poSelf$ = 8						; size = 4
_poArgs$ = 12						; size = 4
?playerGetPlayTime@@YAPAU_object@@PAU1@0@Z PROC		; playerGetPlayTime, COMDAT

; 513  : 	return Py_BuildValue("i", CPythonPlayer::Instance().GetPlayTime()); 

  00000	8b 0d 00 00 00
	00		 mov	 ecx, DWORD PTR ?ms_singleton@?$CSingleton@VCPythonPlayer@@@@0PAVCPythonPlayer@@A ; CSingleton<CPythonPlayer>::ms_singleton
  00006	e8 00 00 00 00	 call	 ?GetPlayTime@CPythonPlayer@@QAEKXZ ; CPythonPlayer::GetPlayTime
  0000b	50		 push	 eax
  0000c	68 00 00 00 00	 push	 OFFSET ??_C@_01KBJDNOO@i@
  00011	ff 15 00 00 00
	00		 call	 DWORD PTR __imp__Py_BuildValue
  00017	83 c4 08	 add	 esp, 8

; 514  : }

  0001a	c3		 ret	 0
?playerGetPlayTime@@YAPAU_object@@PAU1@0@Z ENDP		; playerGetPlayTime
_TEXT	ENDS
; Function compile flags: /Ogtp
; File D:\_m2work\txoko-m2-work\txoko-client-src\source\UserInterface\PythonPlayerModule.cpp
;	COMDAT ?playerSetPlayTime@@YAPAU_object@@PAU1@0@Z
_TEXT	SEGMENT
_iTime$ = -4						; size = 4
_poSelf$ = 8						; size = 4
_poArgs$ = 12						; size = 4
?playerSetPlayTime@@YAPAU_object@@PAU1@0@Z PROC		; playerSetPlayTime, COMDAT

; 517  : {

  00000	55		 push	 ebp
  00001	8b ec		 mov	 ebp, esp
  00003	51		 push	 ecx

; 518  : 	int iTime;
; 519  : 	if (!PyTuple_GetInteger(poArgs, 0, &iTime))

  00004	8d 45 fc	 lea	 eax, DWORD PTR _iTime$[ebp]
  00007	50		 push	 eax
  00008	6a 00		 push	 0
  0000a	ff 75 0c	 push	 DWORD PTR _poArgs$[ebp]
  0000d	e8 00 00 00 00	 call	 ?PyTuple_GetInteger@@YA_NPAU_object@@HPAH@Z ; PyTuple_GetInteger
  00012	83 c4 0c	 add	 esp, 12			; 0000000cH
  00015	84 c0		 test	 al, al
  00017	75 0e		 jne	 SHORT $LN2@playerSetP

; 520  : 		return Py_BuildException();

  00019	6a 00		 push	 0
  0001b	e8 00 00 00 00	 call	 ?Py_BuildException@@YAPAU_object@@PBDZZ ; Py_BuildException
  00020	83 c4 04	 add	 esp, 4

; 524  : }

  00023	8b e5		 mov	 esp, ebp
  00025	5d		 pop	 ebp
  00026	c3		 ret	 0
$LN2@playerSetP:

; 521  : 
; 522  : 	CPythonPlayer::Instance().SetPlayTime(iTime);

  00027	ff 75 fc	 push	 DWORD PTR _iTime$[ebp]
  0002a	8b 0d 00 00 00
	00		 mov	 ecx, DWORD PTR ?ms_singleton@?$CSingleton@VCPythonPlayer@@@@0PAVCPythonPlayer@@A ; CSingleton<CPythonPlayer>::ms_singleton
  00030	e8 00 00 00 00	 call	 ?SetPlayTime@CPythonPlayer@@QAEXK@Z ; CPythonPlayer::SetPlayTime

; 523  : 	return Py_BuildNone();

  00035	e8 00 00 00 00	 call	 ?Py_BuildNone@@YAPAU_object@@XZ ; Py_BuildNone

; 524  : }

  0003a	8b e5		 mov	 esp, ebp
  0003c	5d		 pop	 ebp
  0003d	c3		 ret	 0
?playerSetPlayTime@@YAPAU_object@@PAU1@0@Z ENDP		; playerSetPlayTime
_TEXT	ENDS
; Function compile flags: /Ogtp
; File D:\_m2work\txoko-m2-work\txoko-client-src\source\UserInterface\PythonPlayerModule.cpp
;	COMDAT ?playerIsSkillCoolTime@@YAPAU_object@@PAU1@0@Z
_TEXT	SEGMENT
_iSlotIndex$ = -4					; size = 4
_poSelf$ = 8						; size = 4
_poArgs$ = 12						; size = 4
?playerIsSkillCoolTime@@YAPAU_object@@PAU1@0@Z PROC	; playerIsSkillCoolTime, COMDAT

; 527  : {

  00000	55		 push	 ebp
  00001	8b ec		 mov	 ebp, esp
  00003	51		 push	 ecx

; 528  : 	int iSlotIndex;
; 529  : 	if (!PyTuple_GetInteger(poArgs, 0, &iSlotIndex))

  00004	8d 45 fc	 lea	 eax, DWORD PTR _iSlotIndex$[ebp]
  00007	50		 push	 eax
  00008	6a 00		 push	 0
  0000a	ff 75 0c	 push	 DWORD PTR _poArgs$[ebp]
  0000d	e8 00 00 00 00	 call	 ?PyTuple_GetInteger@@YA_NPAU_object@@HPAH@Z ; PyTuple_GetInteger
  00012	83 c4 0c	 add	 esp, 12			; 0000000cH
  00015	84 c0		 test	 al, al
  00017	75 0e		 jne	 SHORT $LN2@playerIsSk

; 530  : 		return Py_BuildException();

  00019	6a 00		 push	 0
  0001b	e8 00 00 00 00	 call	 ?Py_BuildException@@YAPAU_object@@PBDZZ ; Py_BuildException
  00020	83 c4 04	 add	 esp, 4

; 533  : }

  00023	8b e5		 mov	 esp, ebp
  00025	5d		 pop	 ebp
  00026	c3		 ret	 0
$LN2@playerIsSk:

; 531  : 
; 532  : 	return Py_BuildValue("i", CPythonPlayer::Instance().IsSkillCoolTime(iSlotIndex));

  00027	ff 75 fc	 push	 DWORD PTR _iSlotIndex$[ebp]
  0002a	8b 0d 00 00 00
	00		 mov	 ecx, DWORD PTR ?ms_singleton@?$CSingleton@VCPythonPlayer@@@@0PAVCPythonPlayer@@A ; CSingleton<CPythonPlayer>::ms_singleton
  00030	e8 00 00 00 00	 call	 ?IsSkillCoolTime@CPythonPlayer@@QAEHK@Z ; CPythonPlayer::IsSkillCoolTime
  00035	50		 push	 eax
  00036	68 00 00 00 00	 push	 OFFSET ??_C@_01KBJDNOO@i@
  0003b	ff 15 00 00 00
	00		 call	 DWORD PTR __imp__Py_BuildValue
  00041	83 c4 08	 add	 esp, 8

; 533  : }

  00044	8b e5		 mov	 esp, ebp
  00046	5d		 pop	 ebp
  00047	c3		 ret	 0
?playerIsSkillCoolTime@@YAPAU_object@@PAU1@0@Z ENDP	; playerIsSkillCoolTime
_TEXT	ENDS
; Function compile flags: /Ogtp
; File D:\_m2work\txoko-m2-work\txoko-client-src\source\UserInterface\PythonPlayerModule.cpp
;	COMDAT ?playerGetSkillCoolTime@@YAPAU_object@@PAU1@0@Z
_TEXT	SEGMENT
_fCoolTime$1$ = -8					; size = 4
_iSlotIndex$ = -4					; size = 4
_poSelf$ = 8						; size = 4
_poArgs$ = 12						; size = 4
?playerGetSkillCoolTime@@YAPAU_object@@PAU1@0@Z PROC	; playerGetSkillCoolTime, COMDAT

; 536  : {

  00000	55		 push	 ebp
  00001	8b ec		 mov	 ebp, esp
  00003	83 ec 08	 sub	 esp, 8

; 537  : 	int iSlotIndex;
; 538  : 	if (!PyTuple_GetInteger(poArgs, 0, &iSlotIndex))

  00006	8d 45 fc	 lea	 eax, DWORD PTR _iSlotIndex$[ebp]
  00009	50		 push	 eax
  0000a	6a 00		 push	 0
  0000c	ff 75 0c	 push	 DWORD PTR _poArgs$[ebp]
  0000f	e8 00 00 00 00	 call	 ?PyTuple_GetInteger@@YA_NPAU_object@@HPAH@Z ; PyTuple_GetInteger
  00014	83 c4 0c	 add	 esp, 12			; 0000000cH
  00017	84 c0		 test	 al, al
  00019	75 0e		 jne	 SHORT $LN2@playerGetS

; 539  : 		return Py_BuildException();

  0001b	6a 00		 push	 0
  0001d	e8 00 00 00 00	 call	 ?Py_BuildException@@YAPAU_object@@PBDZZ ; Py_BuildException
  00022	83 c4 04	 add	 esp, 4

; 544  : }

  00025	8b e5		 mov	 esp, ebp
  00027	5d		 pop	 ebp
  00028	c3		 ret	 0
$LN2@playerGetS:

; 540  : 
; 541  : 	float fCoolTime = CPythonPlayer::Instance().GetSkillCoolTime(iSlotIndex);

  00029	8b 55 fc	 mov	 edx, DWORD PTR _iSlotIndex$[ebp]
  0002c	8b 0d 00 00 00
	00		 mov	 ecx, DWORD PTR ?ms_singleton@?$CSingleton@VCPythonPlayer@@@@0PAVCPythonPlayer@@A ; CSingleton<CPythonPlayer>::ms_singleton
  00032	52		 push	 edx
  00033	e8 00 00 00 00	 call	 ?GetSkillCoolTime@CPythonPlayer@@QAEMK@Z ; CPythonPlayer::GetSkillCoolTime

; 542  : 	float fElapsedCoolTime = CPythonPlayer::Instance().GetSkillElapsedCoolTime(iSlotIndex);

  00038	52		 push	 edx
  00039	f3 0f 11 45 f8	 movss	 DWORD PTR _fCoolTime$1$[ebp], xmm0
  0003e	e8 00 00 00 00	 call	 ?GetSkillElapsedCoolTime@CPythonPlayer@@QAEMK@Z ; CPythonPlayer::GetSkillElapsedCoolTime

; 543  : 	return Py_BuildValue("ff", fCoolTime, fElapsedCoolTime);

  00043	f3 0f 5a c0	 cvtss2sd xmm0, xmm0
  00047	83 ec 10	 sub	 esp, 16			; 00000010H
  0004a	f2 0f 11 44 24
	08		 movsd	 QWORD PTR [esp+8], xmm0
  00050	f3 0f 10 45 f8	 movss	 xmm0, DWORD PTR _fCoolTime$1$[ebp]
  00055	0f 5a c0	 cvtps2pd xmm0, xmm0
  00058	f2 0f 11 04 24	 movsd	 QWORD PTR [esp], xmm0
  0005d	68 00 00 00 00	 push	 OFFSET ??_C@_02HPEDFNFO@ff@
  00062	ff 15 00 00 00
	00		 call	 DWORD PTR __imp__Py_BuildValue
  00068	83 c4 14	 add	 esp, 20			; 00000014H

; 544  : }

  0006b	8b e5		 mov	 esp, ebp
  0006d	5d		 pop	 ebp
  0006e	c3		 ret	 0
?playerGetSkillCoolTime@@YAPAU_object@@PAU1@0@Z ENDP	; playerGetSkillCoolTime
_TEXT	ENDS
; Function compile flags: /Ogtp
; File D:\_m2work\txoko-m2-work\txoko-client-src\source\UserInterface\PythonPlayerModule.cpp
;	COMDAT ?playerIsSkillActive@@YAPAU_object@@PAU1@0@Z
_TEXT	SEGMENT
_iSlotIndex$ = -4					; size = 4
_poSelf$ = 8						; size = 4
_poArgs$ = 12						; size = 4
?playerIsSkillActive@@YAPAU_object@@PAU1@0@Z PROC	; playerIsSkillActive, COMDAT

; 547  : {

  00000	55		 push	 ebp
  00001	8b ec		 mov	 ebp, esp
  00003	51		 push	 ecx

; 548  : 	int iSlotIndex;
; 549  : 	if (!PyTuple_GetInteger(poArgs, 0, &iSlotIndex))

  00004	8d 45 fc	 lea	 eax, DWORD PTR _iSlotIndex$[ebp]
  00007	50		 push	 eax
  00008	6a 00		 push	 0
  0000a	ff 75 0c	 push	 DWORD PTR _poArgs$[ebp]
  0000d	e8 00 00 00 00	 call	 ?PyTuple_GetInteger@@YA_NPAU_object@@HPAH@Z ; PyTuple_GetInteger
  00012	83 c4 0c	 add	 esp, 12			; 0000000cH
  00015	84 c0		 test	 al, al
  00017	75 0e		 jne	 SHORT $LN2@playerIsSk

; 550  : 		return Py_BuildException();

  00019	6a 00		 push	 0
  0001b	e8 00 00 00 00	 call	 ?Py_BuildException@@YAPAU_object@@PBDZZ ; Py_BuildException
  00020	83 c4 04	 add	 esp, 4

; 553  : }

  00023	8b e5		 mov	 esp, ebp
  00025	5d		 pop	 ebp
  00026	c3		 ret	 0
$LN2@playerIsSk:

; 551  : 
; 552  : 	return Py_BuildValue("i", CPythonPlayer::Instance().IsSkillActive(iSlotIndex));

  00027	ff 75 fc	 push	 DWORD PTR _iSlotIndex$[ebp]
  0002a	8b 0d 00 00 00
	00		 mov	 ecx, DWORD PTR ?ms_singleton@?$CSingleton@VCPythonPlayer@@@@0PAVCPythonPlayer@@A ; CSingleton<CPythonPlayer>::ms_singleton
  00030	e8 00 00 00 00	 call	 ?IsSkillActive@CPythonPlayer@@QAEHK@Z ; CPythonPlayer::IsSkillActive
  00035	50		 push	 eax
  00036	68 00 00 00 00	 push	 OFFSET ??_C@_01KBJDNOO@i@
  0003b	ff 15 00 00 00
	00		 call	 DWORD PTR __imp__Py_BuildValue
  00041	83 c4 08	 add	 esp, 8

; 553  : }

  00044	8b e5		 mov	 esp, ebp
  00046	5d		 pop	 ebp
  00047	c3		 ret	 0
?playerIsSkillActive@@YAPAU_object@@PAU1@0@Z ENDP	; playerIsSkillActive
_TEXT	ENDS
; Function compile flags: /Ogtp
; File D:\_m2work\txoko-m2-work\txoko-client-src\source\UserInterface\PythonPlayerModule.cpp
;	COMDAT ?playerUseGuildSkill@@YAPAU_object@@PAU1@0@Z
_TEXT	SEGMENT
_iSkillSlotIndex$ = -4					; size = 4
_poSelf$ = 8						; size = 4
_poArgs$ = 12						; size = 4
?playerUseGuildSkill@@YAPAU_object@@PAU1@0@Z PROC	; playerUseGuildSkill, COMDAT

; 556  : {

  00000	55		 push	 ebp
  00001	8b ec		 mov	 ebp, esp
  00003	51		 push	 ecx

; 557  : 	int iSkillSlotIndex;
; 558  : 	if (!PyTuple_GetInteger(poArgs, 0, &iSkillSlotIndex))

  00004	8d 45 fc	 lea	 eax, DWORD PTR _iSkillSlotIndex$[ebp]
  00007	50		 push	 eax
  00008	6a 00		 push	 0
  0000a	ff 75 0c	 push	 DWORD PTR _poArgs$[ebp]
  0000d	e8 00 00 00 00	 call	 ?PyTuple_GetInteger@@YA_NPAU_object@@HPAH@Z ; PyTuple_GetInteger
  00012	83 c4 0c	 add	 esp, 12			; 0000000cH
  00015	84 c0		 test	 al, al
  00017	75 0e		 jne	 SHORT $LN2@playerUseG

; 559  : 		return Py_BuildException();

  00019	6a 00		 push	 0
  0001b	e8 00 00 00 00	 call	 ?Py_BuildException@@YAPAU_object@@PBDZZ ; Py_BuildException
  00020	83 c4 04	 add	 esp, 4

; 563  : }

  00023	8b e5		 mov	 esp, ebp
  00025	5d		 pop	 ebp
  00026	c3		 ret	 0
$LN2@playerUseG:

; 560  : 
; 561  : 	CPythonPlayer::Instance().UseGuildSkill(iSkillSlotIndex);

  00027	ff 75 fc	 push	 DWORD PTR _iSkillSlotIndex$[ebp]
  0002a	8b 0d 00 00 00
	00		 mov	 ecx, DWORD PTR ?ms_singleton@?$CSingleton@VCPythonPlayer@@@@0PAVCPythonPlayer@@A ; CSingleton<CPythonPlayer>::ms_singleton
  00030	e8 00 00 00 00	 call	 ?UseGuildSkill@CPythonPlayer@@QAEXK@Z ; CPythonPlayer::UseGuildSkill

; 562  : 	return Py_BuildNone();

  00035	e8 00 00 00 00	 call	 ?Py_BuildNone@@YAPAU_object@@XZ ; Py_BuildNone

; 563  : }

  0003a	8b e5		 mov	 esp, ebp
  0003c	5d		 pop	 ebp
  0003d	c3		 ret	 0
?playerUseGuildSkill@@YAPAU_object@@PAU1@0@Z ENDP	; playerUseGuildSkill
_TEXT	ENDS
; Function compile flags: /Ogtp
; File D:\_m2work\txoko-m2-work\txoko-client-src\source\UserInterface\PythonPlayerModule.cpp
;	COMDAT ?playerAffectIndexToSkillIndex@@YAPAU_object@@PAU1@0@Z
_TEXT	SEGMENT
_dwSkillIndex$ = -8					; size = 4
_iAffectIndex$ = -4					; size = 4
_poSelf$ = 8						; size = 4
_poArgs$ = 12						; size = 4
?playerAffectIndexToSkillIndex@@YAPAU_object@@PAU1@0@Z PROC ; playerAffectIndexToSkillIndex, COMDAT

; 566  : {

  00000	55		 push	 ebp
  00001	8b ec		 mov	 ebp, esp
  00003	83 ec 08	 sub	 esp, 8

; 567  : 	int iAffectIndex;
; 568  : 	if (!PyTuple_GetInteger(poArgs, 0, &iAffectIndex))

  00006	8d 45 fc	 lea	 eax, DWORD PTR _iAffectIndex$[ebp]
  00009	50		 push	 eax
  0000a	6a 00		 push	 0
  0000c	ff 75 0c	 push	 DWORD PTR _poArgs$[ebp]
  0000f	e8 00 00 00 00	 call	 ?PyTuple_GetInteger@@YA_NPAU_object@@HPAH@Z ; PyTuple_GetInteger
  00014	83 c4 0c	 add	 esp, 12			; 0000000cH
  00017	84 c0		 test	 al, al
  00019	75 0e		 jne	 SHORT $LN2@playerAffe

; 569  : 		return Py_BuildException();

  0001b	6a 00		 push	 0
  0001d	e8 00 00 00 00	 call	 ?Py_BuildException@@YAPAU_object@@PBDZZ ; Py_BuildException
  00022	83 c4 04	 add	 esp, 4

; 576  : }

  00025	8b e5		 mov	 esp, ebp
  00027	5d		 pop	 ebp
  00028	c3		 ret	 0
$LN2@playerAffe:

; 570  : 
; 571  : 	DWORD dwSkillIndex;
; 572  : 	if (!CPythonPlayer::Instance().AffectIndexToSkillIndex(iAffectIndex, &dwSkillIndex))

  00029	8b 0d 00 00 00
	00		 mov	 ecx, DWORD PTR ?ms_singleton@?$CSingleton@VCPythonPlayer@@@@0PAVCPythonPlayer@@A ; CSingleton<CPythonPlayer>::ms_singleton
  0002f	8d 45 f8	 lea	 eax, DWORD PTR _dwSkillIndex$[ebp]
  00032	50		 push	 eax
  00033	ff 75 fc	 push	 DWORD PTR _iAffectIndex$[ebp]
  00036	e8 00 00 00 00	 call	 ?AffectIndexToSkillIndex@CPythonPlayer@@QAE_NKPAK@Z ; CPythonPlayer::AffectIndexToSkillIndex
  0003b	84 c0		 test	 al, al
  0003d	75 14		 jne	 SHORT $LN3@playerAffe

; 573  : 		return Py_BuildValue("i", 0);

  0003f	6a 00		 push	 0

; 576  : }

  00041	68 00 00 00 00	 push	 OFFSET ??_C@_01KBJDNOO@i@
  00046	ff 15 00 00 00
	00		 call	 DWORD PTR __imp__Py_BuildValue
  0004c	83 c4 08	 add	 esp, 8
  0004f	8b e5		 mov	 esp, ebp
  00051	5d		 pop	 ebp
  00052	c3		 ret	 0
$LN3@playerAffe:

; 574  : 
; 575  : 	return Py_BuildValue("i", dwSkillIndex);

  00053	ff 75 f8	 push	 DWORD PTR _dwSkillIndex$[ebp]

; 576  : }

  00056	68 00 00 00 00	 push	 OFFSET ??_C@_01KBJDNOO@i@
  0005b	ff 15 00 00 00
	00		 call	 DWORD PTR __imp__Py_BuildValue
  00061	83 c4 08	 add	 esp, 8
  00064	8b e5		 mov	 esp, ebp
  00066	5d		 pop	 ebp
  00067	c3		 ret	 0
?playerAffectIndexToSkillIndex@@YAPAU_object@@PAU1@0@Z ENDP ; playerAffectIndexToSkillIndex
_TEXT	ENDS
; Function compile flags: /Ogtp
; File D:\_m2work\txoko-m2-work\txoko-client-src\source\UserInterface\PythonPlayerModule.cpp
;	COMDAT ?playerGetEXP@@YAPAU_object@@PAU1@0@Z
_TEXT	SEGMENT
_poSelf$ = 8						; size = 4
_poArgs$ = 12						; size = 4
?playerGetEXP@@YAPAU_object@@PAU1@0@Z PROC		; playerGetEXP, COMDAT

; 580  : 	DWORD dwEXP = CPythonPlayer::Instance().GetStatus(POINT_EXP);

  00000	8b 0d 00 00 00
	00		 mov	 ecx, DWORD PTR ?ms_singleton@?$CSingleton@VCPythonPlayer@@@@0PAVCPythonPlayer@@A ; CSingleton<CPythonPlayer>::ms_singleton
  00006	83 c1 04	 add	 ecx, 4
  00009	6a 03		 push	 3
  0000b	8b 01		 mov	 eax, DWORD PTR [ecx]
  0000d	ff 50 10	 call	 DWORD PTR [eax+16]

; 581  : 	return Py_BuildValue("l", dwEXP);

  00010	50		 push	 eax
  00011	68 00 00 00 00	 push	 OFFSET ??_C@_01HHGOMJKL@l@
  00016	ff 15 00 00 00
	00		 call	 DWORD PTR __imp__Py_BuildValue
  0001c	83 c4 08	 add	 esp, 8

; 582  : }

  0001f	c3		 ret	 0
?playerGetEXP@@YAPAU_object@@PAU1@0@Z ENDP		; playerGetEXP
_TEXT	ENDS
; Function compile flags: /Ogtp
; File D:\_m2work\txoko-m2-work\txoko-client-src\source\UserInterface\PythonPlayerModule.cpp
;	COMDAT ?playerGetStatus@@YAPAU_object@@PAU1@0@Z
_TEXT	SEGMENT
_iType$ = -4						; size = 4
_poSelf$ = 8						; size = 4
_poArgs$ = 12						; size = 4
?playerGetStatus@@YAPAU_object@@PAU1@0@Z PROC		; playerGetStatus, COMDAT

; 585  : {

  00000	55		 push	 ebp
  00001	8b ec		 mov	 ebp, esp
  00003	51		 push	 ecx

; 586  : 	int iType;
; 587  : 	if (!PyTuple_GetInteger(poArgs, 0, &iType))

  00004	8d 45 fc	 lea	 eax, DWORD PTR _iType$[ebp]
  00007	50		 push	 eax
  00008	6a 00		 push	 0
  0000a	ff 75 0c	 push	 DWORD PTR _poArgs$[ebp]
  0000d	e8 00 00 00 00	 call	 ?PyTuple_GetInteger@@YA_NPAU_object@@HPAH@Z ; PyTuple_GetInteger
  00012	83 c4 0c	 add	 esp, 12			; 0000000cH
  00015	84 c0		 test	 al, al
  00017	75 0e		 jne	 SHORT $LN2@playerGetS

; 588  : 		return Py_BuildException();

  00019	6a 00		 push	 0
  0001b	e8 00 00 00 00	 call	 ?Py_BuildException@@YAPAU_object@@PBDZZ ; Py_BuildException
  00020	83 c4 04	 add	 esp, 4

; 602  : }

  00023	8b e5		 mov	 esp, ebp
  00025	5d		 pop	 ebp
  00026	c3		 ret	 0
$LN2@playerGetS:

; 589  : 
; 590  : 	long iValue = CPythonPlayer::Instance().GetStatus(iType);

  00027	8b 0d 00 00 00
	00		 mov	 ecx, DWORD PTR ?ms_singleton@?$CSingleton@VCPythonPlayer@@@@0PAVCPythonPlayer@@A ; CSingleton<CPythonPlayer>::ms_singleton
  0002d	83 c1 04	 add	 ecx, 4
  00030	56		 push	 esi
  00031	ff 75 fc	 push	 DWORD PTR _iType$[ebp]
  00034	8b 01		 mov	 eax, DWORD PTR [ecx]
  00036	ff 50 10	 call	 DWORD PTR [eax+16]

; 591  : 
; 592  : 	if (POINT_ATT_SPEED == iType)

  00039	83 7d fc 11	 cmp	 DWORD PTR _iType$[ebp], 17 ; 00000011H
  0003d	8b f0		 mov	 esi, eax
  0003f	75 27		 jne	 SHORT $LN4@playerGetS

; 593  : 	{
; 594  : 		CInstanceBase * pInstance = CPythonPlayer::Instance().NEW_GetMainActorPtr();

  00041	8b 0d 00 00 00
	00		 mov	 ecx, DWORD PTR ?ms_singleton@?$CSingleton@VCPythonPlayer@@@@0PAVCPythonPlayer@@A ; CSingleton<CPythonPlayer>::ms_singleton
  00047	83 c1 04	 add	 ecx, 4
  0004a	8b 11		 mov	 edx, DWORD PTR [ecx]
  0004c	ff 92 88 00 00
	00		 call	 DWORD PTR [edx+136]

; 595  : 		if (pInstance && (CItemData::WEAPON_TWO_HANDED == pInstance->GetWeaponType()))

  00052	85 c0		 test	 eax, eax
  00054	74 12		 je	 SHORT $LN4@playerGetS
  00056	8b c8		 mov	 ecx, eax
  00058	e8 00 00 00 00	 call	 ?GetWeaponType@CInstanceBase@@QAEKXZ ; CInstanceBase::GetWeaponType
  0005d	83 f8 03	 cmp	 eax, 3
  00060	75 06		 jne	 SHORT $LN4@playerGetS

; 596  : 		{
; 597  : 			iValue -= TWOHANDED_WEWAPON_ATT_SPEED_DECREASE_VALUE;

  00062	2b 35 00 00 00
	00		 sub	 esi, DWORD PTR ?TWOHANDED_WEWAPON_ATT_SPEED_DECREASE_VALUE@@3HA ; TWOHANDED_WEWAPON_ATT_SPEED_DECREASE_VALUE
$LN4@playerGetS:

; 598  : 		}
; 599  : 	}
; 600  : 
; 601  : 	return Py_BuildValue("i", iValue);

  00068	56		 push	 esi
  00069	68 00 00 00 00	 push	 OFFSET ??_C@_01KBJDNOO@i@
  0006e	ff 15 00 00 00
	00		 call	 DWORD PTR __imp__Py_BuildValue
  00074	83 c4 08	 add	 esp, 8
  00077	5e		 pop	 esi

; 602  : }

  00078	8b e5		 mov	 esp, ebp
  0007a	5d		 pop	 ebp
  0007b	c3		 ret	 0
?playerGetStatus@@YAPAU_object@@PAU1@0@Z ENDP		; playerGetStatus
_TEXT	ENDS
; Function compile flags: /Ogtp
; File D:\_m2work\txoko-m2-work\txoko-client-src\source\UserInterface\PythonPlayerModule.cpp
;	COMDAT ?playerSetStatus@@YAPAU_object@@PAU1@0@Z
_TEXT	SEGMENT
_iType$ = -8						; size = 4
_iValue$ = -4						; size = 4
_poSelf$ = 8						; size = 4
_poArgs$ = 12						; size = 4
?playerSetStatus@@YAPAU_object@@PAU1@0@Z PROC		; playerSetStatus, COMDAT

; 605  : {

  00000	55		 push	 ebp
  00001	8b ec		 mov	 ebp, esp
  00003	83 ec 08	 sub	 esp, 8

; 606  : 	int iType;
; 607  : 	if (!PyTuple_GetInteger(poArgs, 0, &iType))

  00006	8d 45 f8	 lea	 eax, DWORD PTR _iType$[ebp]
  00009	50		 push	 eax
  0000a	6a 00		 push	 0
  0000c	ff 75 0c	 push	 DWORD PTR _poArgs$[ebp]
  0000f	e8 00 00 00 00	 call	 ?PyTuple_GetInteger@@YA_NPAU_object@@HPAH@Z ; PyTuple_GetInteger
  00014	83 c4 0c	 add	 esp, 12			; 0000000cH
  00017	84 c0		 test	 al, al
  00019	75 0e		 jne	 SHORT $LN2@playerSetS
$LN5@playerSetS:

; 616  : }

  0001b	6a 00		 push	 0
  0001d	e8 00 00 00 00	 call	 ?Py_BuildException@@YAPAU_object@@PBDZZ ; Py_BuildException
  00022	83 c4 04	 add	 esp, 4
  00025	8b e5		 mov	 esp, ebp
  00027	5d		 pop	 ebp
  00028	c3		 ret	 0
$LN2@playerSetS:

; 608  : 		return Py_BuildException();
; 609  : 
; 610  : 	int iValue;
; 611  : 	if (!PyTuple_GetInteger(poArgs, 1, &iValue))

  00029	8d 45 fc	 lea	 eax, DWORD PTR _iValue$[ebp]
  0002c	50		 push	 eax
  0002d	6a 01		 push	 1
  0002f	ff 75 0c	 push	 DWORD PTR _poArgs$[ebp]
  00032	e8 00 00 00 00	 call	 ?PyTuple_GetInteger@@YA_NPAU_object@@HPAH@Z ; PyTuple_GetInteger
  00037	83 c4 0c	 add	 esp, 12			; 0000000cH
  0003a	84 c0		 test	 al, al
  0003c	74 dd		 je	 SHORT $LN5@playerSetS

; 612  : 		return Py_BuildException();
; 613  : 
; 614  : 	CPythonPlayer::Instance().SetStatus(iType, iValue);

  0003e	ff 75 fc	 push	 DWORD PTR _iValue$[ebp]
  00041	8b 0d 00 00 00
	00		 mov	 ecx, DWORD PTR ?ms_singleton@?$CSingleton@VCPythonPlayer@@@@0PAVCPythonPlayer@@A ; CSingleton<CPythonPlayer>::ms_singleton
  00047	ff 75 f8	 push	 DWORD PTR _iType$[ebp]
  0004a	e8 00 00 00 00	 call	 ?SetStatus@CPythonPlayer@@QAEXKJ@Z ; CPythonPlayer::SetStatus

; 615  : 	return Py_BuildNone();

  0004f	e8 00 00 00 00	 call	 ?Py_BuildNone@@YAPAU_object@@XZ ; Py_BuildNone

; 616  : }

  00054	8b e5		 mov	 esp, ebp
  00056	5d		 pop	 ebp
  00057	c3		 ret	 0
?playerSetStatus@@YAPAU_object@@PAU1@0@Z ENDP		; playerSetStatus
_TEXT	ENDS
; Function compile flags: /Ogtp
; File D:\_m2work\txoko-m2-work\txoko-client-src\source\UserInterface\PythonPlayerModule.cpp
;	COMDAT ?playerGetElk@@YAPAU_object@@PAU1@0@Z
_TEXT	SEGMENT
_poSelf$ = 8						; size = 4
_poArgs$ = 12						; size = 4
?playerGetElk@@YAPAU_object@@PAU1@0@Z PROC		; playerGetElk, COMDAT

; 620  : 	return Py_BuildValue("i", CPythonPlayer::Instance().GetStatus(POINT_GOLD));

  00000	8b 0d 00 00 00
	00		 mov	 ecx, DWORD PTR ?ms_singleton@?$CSingleton@VCPythonPlayer@@@@0PAVCPythonPlayer@@A ; CSingleton<CPythonPlayer>::ms_singleton
  00006	83 c1 04	 add	 ecx, 4
  00009	6a 0b		 push	 11			; 0000000bH
  0000b	8b 01		 mov	 eax, DWORD PTR [ecx]
  0000d	ff 50 10	 call	 DWORD PTR [eax+16]
  00010	50		 push	 eax
  00011	68 00 00 00 00	 push	 OFFSET ??_C@_01KBJDNOO@i@
  00016	ff 15 00 00 00
	00		 call	 DWORD PTR __imp__Py_BuildValue
  0001c	83 c4 08	 add	 esp, 8

; 621  : }

  0001f	c3		 ret	 0
?playerGetElk@@YAPAU_object@@PAU1@0@Z ENDP		; playerGetElk
_TEXT	ENDS
; Function compile flags: /Ogtp
; File D:\_m2work\txoko-m2-work\txoko-client-src\source\UserInterface\PythonPlayerModule.cpp
;	COMDAT ?playerGetGuildID@@YAPAU_object@@PAU1@0@Z
_TEXT	SEGMENT
_poSelf$ = 8						; size = 4
_poArgs$ = 12						; size = 4
?playerGetGuildID@@YAPAU_object@@PAU1@0@Z PROC		; playerGetGuildID, COMDAT

; 625  : 	CInstanceBase * pInstance = CPythonPlayer::Instance().NEW_GetMainActorPtr();

  00000	8b 0d 00 00 00
	00		 mov	 ecx, DWORD PTR ?ms_singleton@?$CSingleton@VCPythonPlayer@@@@0PAVCPythonPlayer@@A ; CSingleton<CPythonPlayer>::ms_singleton
  00006	83 c1 04	 add	 ecx, 4
  00009	8b 01		 mov	 eax, DWORD PTR [ecx]
  0000b	ff 90 88 00 00
	00		 call	 DWORD PTR [eax+136]

; 626  : 	if (!pInstance)

  00011	85 c0		 test	 eax, eax
  00013	75 10		 jne	 SHORT $LN2@playerGetG

; 627  : 		return Py_BuildValue("i", 0);

  00015	50		 push	 eax

; 629  : }

  00016	68 00 00 00 00	 push	 OFFSET ??_C@_01KBJDNOO@i@
  0001b	ff 15 00 00 00
	00		 call	 DWORD PTR __imp__Py_BuildValue
  00021	83 c4 08	 add	 esp, 8
  00024	c3		 ret	 0
$LN2@playerGetG:

; 628  : 	return Py_BuildValue("i", pInstance->GetGuildID());

  00025	8b c8		 mov	 ecx, eax
  00027	e8 00 00 00 00	 call	 ?GetGuildID@CInstanceBase@@QAEKXZ ; CInstanceBase::GetGuildID
  0002c	50		 push	 eax

; 629  : }

  0002d	68 00 00 00 00	 push	 OFFSET ??_C@_01KBJDNOO@i@
  00032	ff 15 00 00 00
	00		 call	 DWORD PTR __imp__Py_BuildValue
  00038	83 c4 08	 add	 esp, 8
  0003b	c3		 ret	 0
?playerGetGuildID@@YAPAU_object@@PAU1@0@Z ENDP		; playerGetGuildID
_TEXT	ENDS
; Function compile flags: /Ogtp
; File D:\_m2work\txoko-m2-work\txoko-client-src\source\UserInterface\PythonPlayerModule.cpp
; File C:\Program Files\Microsoft Visual Studio\2022\Community\VC\Tools\MSVC\14.44.35207\include\xstring
; File D:\_m2work\txoko-m2-work\txoko-client-src\source\UserInterface\PythonPlayerModule.cpp
; File C:\Program Files\Microsoft Visual Studio\2022\Community\VC\Tools\MSVC\14.44.35207\include\xstring
; File D:\_m2work\txoko-m2-work\txoko-client-src\source\UserInterface\PythonPlayerModule.cpp
; File C:\Program Files\Microsoft Visual Studio\2022\Community\VC\Tools\MSVC\14.44.35207\include\xstring
; File D:\_m2work\txoko-m2-work\txoko-client-src\source\UserInterface\PythonPlayerModule.cpp
; File C:\Program Files\Microsoft Visual Studio\2022\Community\VC\Tools\MSVC\14.44.35207\include\xstring
; File C:\Program Files\Microsoft Visual Studio\2022\Community\VC\Tools\MSVC\14.44.35207\include\xmemory
; File C:\Program Files\Microsoft Visual Studio\2022\Community\VC\Tools\MSVC\14.44.35207\include\xstring
; File C:\Program Files\Microsoft Visual Studio\2022\Community\VC\Tools\MSVC\14.44.35207\include\xmemory
; File D:\_m2work\txoko-m2-work\txoko-client-src\source\UserInterface\PythonPlayerModule.cpp
; File C:\Program Files\Microsoft Visual Studio\2022\Community\VC\Tools\MSVC\14.44.35207\include\xstring
; File C:\Program Files\Microsoft Visual Studio\2022\Community\VC\Tools\MSVC\14.44.35207\include\xmemory
; File C:\Program Files\Microsoft Visual Studio\2022\Community\VC\Tools\MSVC\14.44.35207\include\xstring
; File C:\Program Files\Microsoft Visual Studio\2022\Community\VC\Tools\MSVC\14.44.35207\include\xmemory
; File D:\_m2work\txoko-m2-work\txoko-client-src\source\UserInterface\PythonPlayerModule.cpp
; File C:\Program Files\Microsoft Visual Studio\2022\Community\VC\Tools\MSVC\14.44.35207\include\xmemory
; File D:\_m2work\txoko-m2-work\txoko-client-src\source\UserInterface\PythonPlayerModule.cpp
;	COMDAT ?playerGetGuildName@@YAPAU_object@@PAU1@0@Z
_TEXT	SEGMENT
_strName$2 = -40					; size = 24
__$ArrayPad$ = -16					; size = 4
__$EHRec$ = -12						; size = 12
_poSelf$ = 8						; size = 4
_poArgs$ = 12						; size = 4
?playerGetGuildName@@YAPAU_object@@PAU1@0@Z PROC	; playerGetGuildName, COMDAT

; 632  : {

  00000	55		 push	 ebp
  00001	8b ec		 mov	 ebp, esp
  00003	6a ff		 push	 -1
  00005	68 00 00 00 00	 push	 __ehhandler$?playerGetGuildName@@YAPAU_object@@PAU1@0@Z
  0000a	64 a1 00 00 00
	00		 mov	 eax, DWORD PTR fs:0
  00010	50		 push	 eax
  00011	83 ec 1c	 sub	 esp, 28			; 0000001cH
  00014	a1 00 00 00 00	 mov	 eax, DWORD PTR ___security_cookie
  00019	33 c5		 xor	 eax, ebp
  0001b	89 45 f0	 mov	 DWORD PTR __$ArrayPad$[ebp], eax
  0001e	56		 push	 esi
  0001f	50		 push	 eax
  00020	8d 45 f4	 lea	 eax, DWORD PTR __$EHRec$[ebp]
  00023	64 a3 00 00 00
	00		 mov	 DWORD PTR fs:0, eax

; 633  : 	CInstanceBase * pInstance = CPythonPlayer::Instance().NEW_GetMainActorPtr();

  00029	8b 0d 00 00 00
	00		 mov	 ecx, DWORD PTR ?ms_singleton@?$CSingleton@VCPythonPlayer@@@@0PAVCPythonPlayer@@A ; CSingleton<CPythonPlayer>::ms_singleton
  0002f	83 c1 04	 add	 ecx, 4
  00032	8b 01		 mov	 eax, DWORD PTR [ecx]
  00034	8b 80 88 00 00
	00		 mov	 eax, DWORD PTR [eax+136]
  0003a	ff d0		 call	 eax

; 634  : 	if (pInstance)

  0003c	85 c0		 test	 eax, eax
  0003e	0f 84 bb 00 00
	00		 je	 $LN87@playerGetG

; 635  : 	{
; 636  : 		DWORD dwID = pInstance->GetGuildID();

  00044	8b c8		 mov	 ecx, eax
  00046	e8 00 00 00 00	 call	 ?GetGuildID@CInstanceBase@@QAEKXZ ; CInstanceBase::GetGuildID
  0004b	0f 57 c0	 xorps	 xmm0, xmm0
; File C:\Program Files\Microsoft Visual Studio\2022\Community\VC\Tools\MSVC\14.44.35207\include\xstring

; 860  :         _My_data._Mysize = 0;

  0004e	c7 45 e8 00 00
	00 00		 mov	 DWORD PTR _strName$2[ebp+16], 0

; 493  :         _CONSTEXPR20 _Bxty() noexcept : _Buf() {} // user-provided, for fancy pointers

  00055	0f 11 45 d8	 movups	 XMMWORD PTR _strName$2[ebp], xmm0

; 861  :         _My_data._Myres  = _Small_string_capacity;

  00059	c7 45 ec 0f 00
	00 00		 mov	 DWORD PTR _strName$2[ebp+20], 15 ; 0000000fH

; 862  :         _My_data._Activate_SSO_buffer();
; 863  : 
; 864  :         // the _Traits::assign is last so the codegen doesn't think the char write can alias this
; 865  :         _Traits::assign(_My_data._Bx._Buf[0], _Elem());

  00060	c6 45 d8 00	 mov	 BYTE PTR _strName$2[ebp], 0
; File D:\_m2work\txoko-m2-work\txoko-client-src\source\UserInterface\PythonPlayerModule.cpp

; 638  : 		if (CPythonGuild::Instance().GetGuildName(dwID, &strName))

  00064	8d 4d d8	 lea	 ecx, DWORD PTR _strName$2[ebp]
  00067	c7 45 fc 00 00
	00 00		 mov	 DWORD PTR __$EHRec$[ebp+8], 0
  0006e	51		 push	 ecx
  0006f	8b 0d 00 00 00
	00		 mov	 ecx, DWORD PTR ?ms_singleton@?$CSingleton@VCPythonGuild@@@@0PAVCPythonGuild@@A ; CSingleton<CPythonGuild>::ms_singleton
  00075	50		 push	 eax
  00076	e8 00 00 00 00	 call	 ?GetGuildName@CPythonGuild@@QAE_NKPAV?$basic_string@DU?$char_traits@D@std@@V?$allocator@D@2@@std@@@Z ; CPythonGuild::GetGuildName
  0007b	84 c0		 test	 al, al
  0007d	74 50		 je	 SHORT $LN3@playerGetG
; File C:\Program Files\Microsoft Visual Studio\2022\Community\VC\Tools\MSVC\14.44.35207\include\xstring

; 453  :         return _Myres > _Small_string_capacity;

  0007f	83 7d ec 0f	 cmp	 DWORD PTR _strName$2[ebp+20], 15 ; 0000000fH

; 444  :         const value_type* _Result = _Bx._Buf;

  00083	8d 45 d8	 lea	 eax, DWORD PTR _strName$2[ebp]

; 445  :         if (_Large_mode_engaged()) {

  00086	0f 47 45 d8	 cmova	 eax, DWORD PTR _strName$2[ebp]
; File D:\_m2work\txoko-m2-work\txoko-client-src\source\UserInterface\PythonPlayerModule.cpp

; 639  : 			return Py_BuildValue("s", strName.c_str());

  0008a	50		 push	 eax
  0008b	68 00 00 00 00	 push	 OFFSET ??_C@_01LKDEMHDF@s@
  00090	ff 15 00 00 00
	00		 call	 DWORD PTR __imp__Py_BuildValue
; File C:\Program Files\Microsoft Visual Studio\2022\Community\VC\Tools\MSVC\14.44.35207\include\xstring

; 453  :         return _Myres > _Small_string_capacity;

  00096	8b 4d ec	 mov	 ecx, DWORD PTR _strName$2[ebp+20]
; File D:\_m2work\txoko-m2-work\txoko-client-src\source\UserInterface\PythonPlayerModule.cpp

; 639  : 			return Py_BuildValue("s", strName.c_str());

  00099	83 c4 08	 add	 esp, 8
  0009c	8b f0		 mov	 esi, eax
; File C:\Program Files\Microsoft Visual Studio\2022\Community\VC\Tools\MSVC\14.44.35207\include\xstring

; 453  :         return _Myres > _Small_string_capacity;

  0009e	83 f9 0f	 cmp	 ecx, 15			; 0000000fH

; 3083 :         if (_My_data._Large_mode_engaged()) {

  000a1	76 28		 jbe	 SHORT $LN54@playerGetG
; File C:\Program Files\Microsoft Visual Studio\2022\Community\VC\Tools\MSVC\14.44.35207\include\xmemory

; 985  :         _STD _Deallocate<_New_alignof<_Ty>>(_Ptr, sizeof(_Ty) * _Count);

  000a3	8b 55 d8	 mov	 edx, DWORD PTR _strName$2[ebp]
; File C:\Program Files\Microsoft Visual Studio\2022\Community\VC\Tools\MSVC\14.44.35207\include\xstring

; 852  :         _Al.deallocate(_Old_ptr, _Capacity + 1); // +1 for null terminator

  000a6	41		 inc	 ecx
; File C:\Program Files\Microsoft Visual Studio\2022\Community\VC\Tools\MSVC\14.44.35207\include\xmemory

; 985  :         _STD _Deallocate<_New_alignof<_Ty>>(_Ptr, sizeof(_Ty) * _Count);

  000a7	8b c2		 mov	 eax, edx

; 284  :         if (_Bytes >= _Big_allocation_threshold) {

  000a9	81 f9 00 10 00
	00		 cmp	 ecx, 4096		; 00001000H
  000af	72 10		 jb	 SHORT $LN62@playerGetG

; 205  :     const uintptr_t _Ptr_container   = _Ptr_user[-1];

  000b1	8b 50 fc	 mov	 edx, DWORD PTR [eax-4]
  000b4	83 c1 23	 add	 ecx, 35			; 00000023H
  000b7	2b c2		 sub	 eax, edx

; 219  :     _STL_VERIFY(_Back_shift >= _Min_back_shift && _Back_shift <= _Non_user_size, "invalid argument");

  000b9	83 c0 fc	 add	 eax, -4			; fffffffcH
  000bc	83 f8 1f	 cmp	 eax, 31			; 0000001fH
  000bf	77 6b		 ja	 SHORT $LN94@playerGetG
$LN62@playerGetG:

; 289  :         ::operator delete(_Ptr, _Bytes);

  000c1	51		 push	 ecx
  000c2	52		 push	 edx
  000c3	e8 00 00 00 00	 call	 ??3@YAXPAXI@Z		; operator delete
  000c8	83 c4 08	 add	 esp, 8
$LN54@playerGetG:
; File D:\_m2work\txoko-m2-work\txoko-client-src\source\UserInterface\PythonPlayerModule.cpp

; 639  : 			return Py_BuildValue("s", strName.c_str());

  000cb	8b c6		 mov	 eax, esi
  000cd	eb 43		 jmp	 SHORT $LN1@playerGetG
$LN3@playerGetG:
; File C:\Program Files\Microsoft Visual Studio\2022\Community\VC\Tools\MSVC\14.44.35207\include\xstring

; 453  :         return _Myres > _Small_string_capacity;

  000cf	8b 4d ec	 mov	 ecx, DWORD PTR _strName$2[ebp+20]
  000d2	83 f9 0f	 cmp	 ecx, 15			; 0000000fH

; 3083 :         if (_My_data._Large_mode_engaged()) {

  000d5	76 28		 jbe	 SHORT $LN87@playerGetG
; File C:\Program Files\Microsoft Visual Studio\2022\Community\VC\Tools\MSVC\14.44.35207\include\xmemory

; 985  :         _STD _Deallocate<_New_alignof<_Ty>>(_Ptr, sizeof(_Ty) * _Count);

  000d7	8b 55 d8	 mov	 edx, DWORD PTR _strName$2[ebp]
; File C:\Program Files\Microsoft Visual Studio\2022\Community\VC\Tools\MSVC\14.44.35207\include\xstring

; 852  :         _Al.deallocate(_Old_ptr, _Capacity + 1); // +1 for null terminator

  000da	41		 inc	 ecx
; File C:\Program Files\Microsoft Visual Studio\2022\Community\VC\Tools\MSVC\14.44.35207\include\xmemory

; 985  :         _STD _Deallocate<_New_alignof<_Ty>>(_Ptr, sizeof(_Ty) * _Count);

  000db	8b c2		 mov	 eax, edx

; 284  :         if (_Bytes >= _Big_allocation_threshold) {

  000dd	81 f9 00 10 00
	00		 cmp	 ecx, 4096		; 00001000H
  000e3	72 10		 jb	 SHORT $LN95@playerGetG

; 205  :     const uintptr_t _Ptr_container   = _Ptr_user[-1];

  000e5	8b 50 fc	 mov	 edx, DWORD PTR [eax-4]
  000e8	83 c1 23	 add	 ecx, 35			; 00000023H
  000eb	2b c2		 sub	 eax, edx

; 219  :     _STL_VERIFY(_Back_shift >= _Min_back_shift && _Back_shift <= _Non_user_size, "invalid argument");

  000ed	83 c0 fc	 add	 eax, -4			; fffffffcH
  000f0	83 f8 1f	 cmp	 eax, 31			; 0000001fH
  000f3	77 37		 ja	 SHORT $LN94@playerGetG
$LN95@playerGetG:

; 289  :         ::operator delete(_Ptr, _Bytes);

  000f5	51		 push	 ecx
  000f6	52		 push	 edx
  000f7	e8 00 00 00 00	 call	 ??3@YAXPAXI@Z		; operator delete
  000fc	83 c4 08	 add	 esp, 8
$LN87@playerGetG:
; File D:\_m2work\txoko-m2-work\txoko-client-src\source\UserInterface\PythonPlayerModule.cpp

; 641  : 	return Py_BuildValue("s", "");

  000ff	68 00 00 00 00	 push	 OFFSET ??_C@_00CNPNBAHC@@
  00104	68 00 00 00 00	 push	 OFFSET ??_C@_01LKDEMHDF@s@
  00109	ff 15 00 00 00
	00		 call	 DWORD PTR __imp__Py_BuildValue
  0010f	83 c4 08	 add	 esp, 8
$LN1@playerGetG:

; 642  : }

  00112	8b 4d f4	 mov	 ecx, DWORD PTR __$EHRec$[ebp]
  00115	64 89 0d 00 00
	00 00		 mov	 DWORD PTR fs:0, ecx
  0011c	59		 pop	 ecx
  0011d	5e		 pop	 esi
  0011e	8b 4d f0	 mov	 ecx, DWORD PTR __$ArrayPad$[ebp]
  00121	33 cd		 xor	 ecx, ebp
  00123	e8 00 00 00 00	 call	 @__security_check_cookie@4
  00128	8b e5		 mov	 esp, ebp
  0012a	5d		 pop	 ebp
  0012b	c3		 ret	 0
$LN94@playerGetG:
; File C:\Program Files\Microsoft Visual Studio\2022\Community\VC\Tools\MSVC\14.44.35207\include\xmemory

; 219  :     _STL_VERIFY(_Back_shift >= _Min_back_shift && _Back_shift <= _Non_user_size, "invalid argument");

  0012c	6a 00		 push	 0
  0012e	6a 00		 push	 0
  00130	6a 00		 push	 0
  00132	6a 00		 push	 0
  00134	6a 00		 push	 0
  00136	e8 00 00 00 00	 call	 __invoke_watson
$LN102@playerGetG:
  0013b	cc		 int	 3
_TEXT	ENDS
;	COMDAT text$x
text$x	SEGMENT
__unwindfunclet$?playerGetGuildName@@YAPAU_object@@PAU1@0@Z$0:
  00000	8d 4d d8	 lea	 ecx, DWORD PTR _strName$2[ebp]
  00003	e9 00 00 00 00	 jmp	 ??1?$basic_string@DU?$char_traits@D@std@@V?$allocator@D@2@@std@@QAE@XZ ; std::basic_string<char,std::char_traits<char>,std::allocator<char> >::~basic_string<char,std::char_traits<char>,std::allocator<char> >
  00008	cc		 int	 3
  00009	cc		 int	 3
  0000a	cc		 int	 3
  0000b	cc		 int	 3
  0000c	cc		 int	 3
__ehhandler$?playerGetGuildName@@YAPAU_object@@PAU1@0@Z:
  0000d	90		 npad	 1
  0000e	90		 npad	 1
  0000f	8b 54 24 08	 mov	 edx, DWORD PTR [esp+8]
  00013	8d 42 0c	 lea	 eax, DWORD PTR [edx+12]
  00016	8b 4a dc	 mov	 ecx, DWORD PTR [edx-36]
  00019	33 c8		 xor	 ecx, eax
  0001b	e8 00 00 00 00	 call	 @__security_check_cookie@4
  00020	8b 4a fc	 mov	 ecx, DWORD PTR [edx-4]
  00023	33 c8		 xor	 ecx, eax
  00025	e8 00 00 00 00	 call	 @__security_check_cookie@4
  0002a	b8 00 00 00 00	 mov	 eax, OFFSET __ehfuncinfo$?playerGetGuildName@@YAPAU_object@@PAU1@0@Z
  0002f	e9 00 00 00 00	 jmp	 ___CxxFrameHandler3
text$x	ENDS
?playerGetGuildName@@YAPAU_object@@PAU1@0@Z ENDP	; playerGetGuildName
; Function compile flags: /Ogtp
; File D:\_m2work\txoko-m2-work\txoko-client-src\source\UserInterface\PythonPlayerModule.cpp
;	COMDAT ?playerGetAlignmentData@@YAPAU_object@@PAU1@0@Z
_TEXT	SEGMENT
_poSelf$ = 8						; size = 4
_poArgs$ = 12						; size = 4
?playerGetAlignmentData@@YAPAU_object@@PAU1@0@Z PROC	; playerGetAlignmentData, COMDAT

; 646  : 	CInstanceBase * pInstance = CPythonPlayer::Instance().NEW_GetMainActorPtr();

  00000	8b 0d 00 00 00
	00		 mov	 ecx, DWORD PTR ?ms_singleton@?$CSingleton@VCPythonPlayer@@@@0PAVCPythonPlayer@@A ; CSingleton<CPythonPlayer>::ms_singleton
  00006	83 c1 04	 add	 ecx, 4
  00009	56		 push	 esi
  0000a	8b 01		 mov	 eax, DWORD PTR [ecx]
  0000c	ff 90 88 00 00
	00		 call	 DWORD PTR [eax+136]

; 647  : 	int iAlignmentPoint = 0;

  00012	33 f6		 xor	 esi, esi
  00014	8b c8		 mov	 ecx, eax

; 648  : 	int iAlignmentGrade = 4;

  00016	8d 46 04	 lea	 eax, DWORD PTR [esi+4]

; 649  : 	if (pInstance)

  00019	85 c9		 test	 ecx, ecx
  0001b	74 0c		 je	 SHORT $LN2@playerGetA

; 650  : 	{
; 651  : 		iAlignmentPoint = pInstance->GetAlignment();

  0001d	e8 00 00 00 00	 call	 ?GetAlignment@CInstanceBase@@QAEHXZ ; CInstanceBase::GetAlignment
  00022	8b f0		 mov	 esi, eax

; 652  : 		iAlignmentGrade = pInstance->GetAlignmentGrade();

  00024	e8 00 00 00 00	 call	 ?GetAlignmentGrade@CInstanceBase@@QAEIXZ ; CInstanceBase::GetAlignmentGrade
$LN2@playerGetA:

; 653  : 	}
; 654  : 	return Py_BuildValue("ii", iAlignmentPoint, iAlignmentGrade);

  00029	50		 push	 eax
  0002a	56		 push	 esi
  0002b	68 00 00 00 00	 push	 OFFSET ??_C@_02PDIHAGKM@ii@
  00030	ff 15 00 00 00
	00		 call	 DWORD PTR __imp__Py_BuildValue
  00036	83 c4 0c	 add	 esp, 12			; 0000000cH
  00039	5e		 pop	 esi

; 655  : }

  0003a	c3		 ret	 0
?playerGetAlignmentData@@YAPAU_object@@PAU1@0@Z ENDP	; playerGetAlignmentData
_TEXT	ENDS
; Function compile flags: /Ogtp
; File D:\_m2work\txoko-m2-work\txoko-client-src\source\UserInterface\PythonPlayerModule.cpp
;	COMDAT ?playerSetSkill@@YAPAU_object@@PAU1@0@Z
_TEXT	SEGMENT
_iSlotIndex$ = -8					; size = 4
_iSkillIndex$ = -4					; size = 4
_poSelf$ = 8						; size = 4
_poArgs$ = 12						; size = 4
?playerSetSkill@@YAPAU_object@@PAU1@0@Z PROC		; playerSetSkill, COMDAT

; 658  : {

  00000	55		 push	 ebp
  00001	8b ec		 mov	 ebp, esp
  00003	83 ec 08	 sub	 esp, 8

; 659  : 	int iSlotIndex;
; 660  : 	if (!PyTuple_GetInteger(poArgs, 0, &iSlotIndex))

  00006	8d 45 f8	 lea	 eax, DWORD PTR _iSlotIndex$[ebp]
  00009	50		 push	 eax
  0000a	6a 00		 push	 0
  0000c	ff 75 0c	 push	 DWORD PTR _poArgs$[ebp]
  0000f	e8 00 00 00 00	 call	 ?PyTuple_GetInteger@@YA_NPAU_object@@HPAH@Z ; PyTuple_GetInteger
  00014	83 c4 0c	 add	 esp, 12			; 0000000cH
  00017	84 c0		 test	 al, al
  00019	75 0e		 jne	 SHORT $LN2@playerSetS
$LN5@playerSetS:

; 669  : }

  0001b	6a 00		 push	 0
  0001d	e8 00 00 00 00	 call	 ?Py_BuildException@@YAPAU_object@@PBDZZ ; Py_BuildException
  00022	83 c4 04	 add	 esp, 4
  00025	8b e5		 mov	 esp, ebp
  00027	5d		 pop	 ebp
  00028	c3		 ret	 0
$LN2@playerSetS:

; 661  : 		return Py_BuildException();
; 662  : 
; 663  : 	int iSkillIndex;
; 664  : 	if (!PyTuple_GetInteger(poArgs, 1, &iSkillIndex))

  00029	8d 45 fc	 lea	 eax, DWORD PTR _iSkillIndex$[ebp]
  0002c	50		 push	 eax
  0002d	6a 01		 push	 1
  0002f	ff 75 0c	 push	 DWORD PTR _poArgs$[ebp]
  00032	e8 00 00 00 00	 call	 ?PyTuple_GetInteger@@YA_NPAU_object@@HPAH@Z ; PyTuple_GetInteger
  00037	83 c4 0c	 add	 esp, 12			; 0000000cH
  0003a	84 c0		 test	 al, al
  0003c	74 dd		 je	 SHORT $LN5@playerSetS

; 665  : 		return Py_BuildException();
; 666  : 
; 667  : 	CPythonPlayer::Instance().SetSkill(iSlotIndex, iSkillIndex);

  0003e	ff 75 fc	 push	 DWORD PTR _iSkillIndex$[ebp]
  00041	8b 0d 00 00 00
	00		 mov	 ecx, DWORD PTR ?ms_singleton@?$CSingleton@VCPythonPlayer@@@@0PAVCPythonPlayer@@A ; CSingleton<CPythonPlayer>::ms_singleton
  00047	ff 75 f8	 push	 DWORD PTR _iSlotIndex$[ebp]
  0004a	e8 00 00 00 00	 call	 ?SetSkill@CPythonPlayer@@QAEXKK@Z ; CPythonPlayer::SetSkill

; 668  : 	return Py_BuildNone();

  0004f	e8 00 00 00 00	 call	 ?Py_BuildNone@@YAPAU_object@@XZ ; Py_BuildNone

; 669  : }

  00054	8b e5		 mov	 esp, ebp
  00056	5d		 pop	 ebp
  00057	c3		 ret	 0
?playerSetSkill@@YAPAU_object@@PAU1@0@Z ENDP		; playerSetSkill
_TEXT	ENDS
; Function compile flags: /Ogtp
; File D:\_m2work\txoko-m2-work\txoko-client-src\source\UserInterface\PythonPlayerModule.cpp
;	COMDAT ?playerGetSkillIndex@@YAPAU_object@@PAU1@0@Z
_TEXT	SEGMENT
_iSlotIndex$ = -4					; size = 4
_poSelf$ = 8						; size = 4
_poArgs$ = 12						; size = 4
?playerGetSkillIndex@@YAPAU_object@@PAU1@0@Z PROC	; playerGetSkillIndex, COMDAT

; 672  : {

  00000	55		 push	 ebp
  00001	8b ec		 mov	 ebp, esp
  00003	51		 push	 ecx

; 673  : 	int iSlotIndex;
; 674  : 	if (!PyTuple_GetInteger(poArgs, 0, &iSlotIndex))

  00004	8d 45 fc	 lea	 eax, DWORD PTR _iSlotIndex$[ebp]
  00007	50		 push	 eax
  00008	6a 00		 push	 0
  0000a	ff 75 0c	 push	 DWORD PTR _poArgs$[ebp]
  0000d	e8 00 00 00 00	 call	 ?PyTuple_GetInteger@@YA_NPAU_object@@HPAH@Z ; PyTuple_GetInteger
  00012	83 c4 0c	 add	 esp, 12			; 0000000cH
  00015	84 c0		 test	 al, al
  00017	75 0e		 jne	 SHORT $LN2@playerGetS

; 675  : 		return Py_BuildException();

  00019	6a 00		 push	 0
  0001b	e8 00 00 00 00	 call	 ?Py_BuildException@@YAPAU_object@@PBDZZ ; Py_BuildException
  00020	83 c4 04	 add	 esp, 4

; 678  : }

  00023	8b e5		 mov	 esp, ebp
  00025	5d		 pop	 ebp
  00026	c3		 ret	 0
$LN2@playerGetS:

; 676  : 
; 677  : 	return Py_BuildValue("i", CPythonPlayer::Instance().GetSkillIndex(iSlotIndex));

  00027	ff 75 fc	 push	 DWORD PTR _iSlotIndex$[ebp]
  0002a	8b 0d 00 00 00
	00		 mov	 ecx, DWORD PTR ?ms_singleton@?$CSingleton@VCPythonPlayer@@@@0PAVCPythonPlayer@@A ; CSingleton<CPythonPlayer>::ms_singleton
  00030	e8 00 00 00 00	 call	 ?GetSkillIndex@CPythonPlayer@@QAEHK@Z ; CPythonPlayer::GetSkillIndex
  00035	50		 push	 eax
  00036	68 00 00 00 00	 push	 OFFSET ??_C@_01KBJDNOO@i@
  0003b	ff 15 00 00 00
	00		 call	 DWORD PTR __imp__Py_BuildValue
  00041	83 c4 08	 add	 esp, 8

; 678  : }

  00044	8b e5		 mov	 esp, ebp
  00046	5d		 pop	 ebp
  00047	c3		 ret	 0
?playerGetSkillIndex@@YAPAU_object@@PAU1@0@Z ENDP	; playerGetSkillIndex
_TEXT	ENDS
; Function compile flags: /Ogtp
; File D:\_m2work\txoko-m2-work\txoko-client-src\source\UserInterface\PythonPlayerModule.cpp
;	COMDAT ?playerGetSkillSlotIndex@@YAPAU_object@@PAU1@0@Z
_TEXT	SEGMENT
_dwSlotIndex$ = -8					; size = 4
_iSkillIndex$ = -4					; size = 4
_poSelf$ = 8						; size = 4
_poArgs$ = 12						; size = 4
?playerGetSkillSlotIndex@@YAPAU_object@@PAU1@0@Z PROC	; playerGetSkillSlotIndex, COMDAT

; 681  : {

  00000	55		 push	 ebp
  00001	8b ec		 mov	 ebp, esp
  00003	83 ec 08	 sub	 esp, 8

; 682  : 	int iSkillIndex;
; 683  : 	if (!PyTuple_GetInteger(poArgs, 0, &iSkillIndex))

  00006	8d 45 fc	 lea	 eax, DWORD PTR _iSkillIndex$[ebp]
  00009	50		 push	 eax
  0000a	6a 00		 push	 0
  0000c	ff 75 0c	 push	 DWORD PTR _poArgs$[ebp]
  0000f	e8 00 00 00 00	 call	 ?PyTuple_GetInteger@@YA_NPAU_object@@HPAH@Z ; PyTuple_GetInteger
  00014	83 c4 0c	 add	 esp, 12			; 0000000cH
  00017	84 c0		 test	 al, al
  00019	75 0e		 jne	 SHORT $LN2@playerGetS
$LN5@playerGetS:

; 691  : }

  0001b	6a 00		 push	 0
  0001d	e8 00 00 00 00	 call	 ?Py_BuildException@@YAPAU_object@@PBDZZ ; Py_BuildException
  00022	83 c4 04	 add	 esp, 4
  00025	8b e5		 mov	 esp, ebp
  00027	5d		 pop	 ebp
  00028	c3		 ret	 0
$LN2@playerGetS:

; 684  : 		return Py_BuildException();
; 685  : 
; 686  : 	DWORD dwSlotIndex;
; 687  : 	if (!CPythonPlayer::Instance().GetSkillSlotIndex(iSkillIndex, &dwSlotIndex))

  00029	8b 0d 00 00 00
	00		 mov	 ecx, DWORD PTR ?ms_singleton@?$CSingleton@VCPythonPlayer@@@@0PAVCPythonPlayer@@A ; CSingleton<CPythonPlayer>::ms_singleton
  0002f	8d 45 f8	 lea	 eax, DWORD PTR _dwSlotIndex$[ebp]
  00032	50		 push	 eax
  00033	ff 75 fc	 push	 DWORD PTR _iSkillIndex$[ebp]
  00036	e8 00 00 00 00	 call	 ?GetSkillSlotIndex@CPythonPlayer@@QAE_NKPAK@Z ; CPythonPlayer::GetSkillSlotIndex
  0003b	84 c0		 test	 al, al
  0003d	74 dc		 je	 SHORT $LN5@playerGetS

; 688  : 		return Py_BuildException();
; 689  : 
; 690  : 	return Py_BuildValue("i", dwSlotIndex);

  0003f	ff 75 f8	 push	 DWORD PTR _dwSlotIndex$[ebp]
  00042	68 00 00 00 00	 push	 OFFSET ??_C@_01KBJDNOO@i@
  00047	ff 15 00 00 00
	00		 call	 DWORD PTR __imp__Py_BuildValue
  0004d	83 c4 08	 add	 esp, 8

; 691  : }

  00050	8b e5		 mov	 esp, ebp
  00052	5d		 pop	 ebp
  00053	c3		 ret	 0
?playerGetSkillSlotIndex@@YAPAU_object@@PAU1@0@Z ENDP	; playerGetSkillSlotIndex
_TEXT	ENDS
; Function compile flags: /Ogtp
; File D:\_m2work\txoko-m2-work\txoko-client-src\source\UserInterface\PythonPlayerModule.cpp
;	COMDAT ?playerGetSkillGrade@@YAPAU_object@@PAU1@0@Z
_TEXT	SEGMENT
_iSlotIndex$ = -4					; size = 4
_poSelf$ = 8						; size = 4
_poArgs$ = 12						; size = 4
?playerGetSkillGrade@@YAPAU_object@@PAU1@0@Z PROC	; playerGetSkillGrade, COMDAT

; 694  : {

  00000	55		 push	 ebp
  00001	8b ec		 mov	 ebp, esp
  00003	51		 push	 ecx

; 695  : 	int iSlotIndex;
; 696  : 	if (!PyTuple_GetInteger(poArgs, 0, &iSlotIndex))

  00004	8d 45 fc	 lea	 eax, DWORD PTR _iSlotIndex$[ebp]
  00007	50		 push	 eax
  00008	6a 00		 push	 0
  0000a	ff 75 0c	 push	 DWORD PTR _poArgs$[ebp]
  0000d	e8 00 00 00 00	 call	 ?PyTuple_GetInteger@@YA_NPAU_object@@HPAH@Z ; PyTuple_GetInteger
  00012	83 c4 0c	 add	 esp, 12			; 0000000cH
  00015	84 c0		 test	 al, al
  00017	75 0e		 jne	 SHORT $LN2@playerGetS

; 697  : 		return Py_BuildException();

  00019	6a 00		 push	 0
  0001b	e8 00 00 00 00	 call	 ?Py_BuildException@@YAPAU_object@@PBDZZ ; Py_BuildException
  00020	83 c4 04	 add	 esp, 4

; 700  : }

  00023	8b e5		 mov	 esp, ebp
  00025	5d		 pop	 ebp
  00026	c3		 ret	 0
$LN2@playerGetS:

; 698  : 
; 699  : 	return Py_BuildValue("i", CPythonPlayer::Instance().GetSkillGrade(iSlotIndex));

  00027	ff 75 fc	 push	 DWORD PTR _iSlotIndex$[ebp]
  0002a	8b 0d 00 00 00
	00		 mov	 ecx, DWORD PTR ?ms_singleton@?$CSingleton@VCPythonPlayer@@@@0PAVCPythonPlayer@@A ; CSingleton<CPythonPlayer>::ms_singleton
  00030	e8 00 00 00 00	 call	 ?GetSkillGrade@CPythonPlayer@@QAEHK@Z ; CPythonPlayer::GetSkillGrade
  00035	50		 push	 eax
  00036	68 00 00 00 00	 push	 OFFSET ??_C@_01KBJDNOO@i@
  0003b	ff 15 00 00 00
	00		 call	 DWORD PTR __imp__Py_BuildValue
  00041	83 c4 08	 add	 esp, 8

; 700  : }

  00044	8b e5		 mov	 esp, ebp
  00046	5d		 pop	 ebp
  00047	c3		 ret	 0
?playerGetSkillGrade@@YAPAU_object@@PAU1@0@Z ENDP	; playerGetSkillGrade
_TEXT	ENDS
; Function compile flags: /Ogtp
; File D:\_m2work\txoko-m2-work\txoko-client-src\source\UserInterface\PythonPlayerModule.cpp
;	COMDAT ?playerGetSkillLevel@@YAPAU_object@@PAU1@0@Z
_TEXT	SEGMENT
_iSlotIndex$ = -4					; size = 4
_poSelf$ = 8						; size = 4
_poArgs$ = 12						; size = 4
?playerGetSkillLevel@@YAPAU_object@@PAU1@0@Z PROC	; playerGetSkillLevel, COMDAT

; 703  : {

  00000	55		 push	 ebp
  00001	8b ec		 mov	 ebp, esp
  00003	51		 push	 ecx

; 704  : 	int iSlotIndex;
; 705  : 	if (!PyTuple_GetInteger(poArgs, 0, &iSlotIndex))

  00004	8d 45 fc	 lea	 eax, DWORD PTR _iSlotIndex$[ebp]
  00007	50		 push	 eax
  00008	6a 00		 push	 0
  0000a	ff 75 0c	 push	 DWORD PTR _poArgs$[ebp]
  0000d	e8 00 00 00 00	 call	 ?PyTuple_GetInteger@@YA_NPAU_object@@HPAH@Z ; PyTuple_GetInteger
  00012	83 c4 0c	 add	 esp, 12			; 0000000cH
  00015	84 c0		 test	 al, al
  00017	75 0e		 jne	 SHORT $LN2@playerGetS

; 706  : 		return Py_BuildException();

  00019	6a 00		 push	 0
  0001b	e8 00 00 00 00	 call	 ?Py_BuildException@@YAPAU_object@@PBDZZ ; Py_BuildException
  00020	83 c4 04	 add	 esp, 4

; 709  : }

  00023	8b e5		 mov	 esp, ebp
  00025	5d		 pop	 ebp
  00026	c3		 ret	 0
$LN2@playerGetS:

; 707  : 
; 708  : 	return Py_BuildValue("i", CPythonPlayer::Instance().GetSkillLevel(iSlotIndex));

  00027	ff 75 fc	 push	 DWORD PTR _iSlotIndex$[ebp]
  0002a	8b 0d 00 00 00
	00		 mov	 ecx, DWORD PTR ?ms_singleton@?$CSingleton@VCPythonPlayer@@@@0PAVCPythonPlayer@@A ; CSingleton<CPythonPlayer>::ms_singleton
  00030	e8 00 00 00 00	 call	 ?GetSkillLevel@CPythonPlayer@@QAEHK@Z ; CPythonPlayer::GetSkillLevel
  00035	50		 push	 eax
  00036	68 00 00 00 00	 push	 OFFSET ??_C@_01KBJDNOO@i@
  0003b	ff 15 00 00 00
	00		 call	 DWORD PTR __imp__Py_BuildValue
  00041	83 c4 08	 add	 esp, 8

; 709  : }

  00044	8b e5		 mov	 esp, ebp
  00046	5d		 pop	 ebp
  00047	c3		 ret	 0
?playerGetSkillLevel@@YAPAU_object@@PAU1@0@Z ENDP	; playerGetSkillLevel
_TEXT	ENDS
; Function compile flags: /Ogtp
; File D:\_m2work\txoko-m2-work\txoko-client-src\source\UserInterface\PythonPlayerModule.cpp
;	COMDAT ?playerGetSkillCurrentEfficientPercentage@@YAPAU_object@@PAU1@0@Z
_TEXT	SEGMENT
_iSlotIndex$ = -4					; size = 4
_poSelf$ = 8						; size = 4
_poArgs$ = 12						; size = 4
?playerGetSkillCurrentEfficientPercentage@@YAPAU_object@@PAU1@0@Z PROC ; playerGetSkillCurrentEfficientPercentage, COMDAT

; 712  : {

  00000	55		 push	 ebp
  00001	8b ec		 mov	 ebp, esp
  00003	51		 push	 ecx

; 713  : 	int iSlotIndex;
; 714  : 	if (!PyTuple_GetInteger(poArgs, 0, &iSlotIndex))

  00004	8d 45 fc	 lea	 eax, DWORD PTR _iSlotIndex$[ebp]
  00007	50		 push	 eax
  00008	6a 00		 push	 0
  0000a	ff 75 0c	 push	 DWORD PTR _poArgs$[ebp]
  0000d	e8 00 00 00 00	 call	 ?PyTuple_GetInteger@@YA_NPAU_object@@HPAH@Z ; PyTuple_GetInteger
  00012	83 c4 0c	 add	 esp, 12			; 0000000cH
  00015	84 c0		 test	 al, al
  00017	75 0e		 jne	 SHORT $LN2@playerGetS

; 715  : 		return Py_BuildException();

  00019	6a 00		 push	 0
  0001b	e8 00 00 00 00	 call	 ?Py_BuildException@@YAPAU_object@@PBDZZ ; Py_BuildException
  00020	83 c4 04	 add	 esp, 4

; 718  : }

  00023	8b e5		 mov	 esp, ebp
  00025	5d		 pop	 ebp
  00026	c3		 ret	 0
$LN2@playerGetS:

; 716  : 
; 717  : 	return Py_BuildValue("f", CPythonPlayer::Instance().GetSkillCurrentEfficientPercentage(iSlotIndex));

  00027	ff 75 fc	 push	 DWORD PTR _iSlotIndex$[ebp]
  0002a	8b 0d 00 00 00
	00		 mov	 ecx, DWORD PTR ?ms_singleton@?$CSingleton@VCPythonPlayer@@@@0PAVCPythonPlayer@@A ; CSingleton<CPythonPlayer>::ms_singleton
  00030	e8 00 00 00 00	 call	 ?GetSkillCurrentEfficientPercentage@CPythonPlayer@@QAEMK@Z ; CPythonPlayer::GetSkillCurrentEfficientPercentage
  00035	f3 0f 5a c0	 cvtss2sd xmm0, xmm0
  00039	83 ec 08	 sub	 esp, 8
  0003c	f2 0f 11 04 24	 movsd	 QWORD PTR [esp], xmm0
  00041	68 00 00 00 00	 push	 OFFSET ??_C@_01INIBCBCB@f@
  00046	ff 15 00 00 00
	00		 call	 DWORD PTR __imp__Py_BuildValue
  0004c	83 c4 0c	 add	 esp, 12			; 0000000cH

; 718  : }

  0004f	8b e5		 mov	 esp, ebp
  00051	5d		 pop	 ebp
  00052	c3		 ret	 0
?playerGetSkillCurrentEfficientPercentage@@YAPAU_object@@PAU1@0@Z ENDP ; playerGetSkillCurrentEfficientPercentage
_TEXT	ENDS
; Function compile flags: /Ogtp
; File D:\_m2work\txoko-m2-work\txoko-client-src\source\UserInterface\PythonPlayerModule.cpp
;	COMDAT ?playerGetSkillNextEfficientPercentage@@YAPAU_object@@PAU1@0@Z
_TEXT	SEGMENT
_iSlotIndex$ = -4					; size = 4
_poSelf$ = 8						; size = 4
_poArgs$ = 12						; size = 4
?playerGetSkillNextEfficientPercentage@@YAPAU_object@@PAU1@0@Z PROC ; playerGetSkillNextEfficientPercentage, COMDAT

; 720  : {

  00000	55		 push	 ebp
  00001	8b ec		 mov	 ebp, esp
  00003	51		 push	 ecx

; 721  : 	int iSlotIndex;
; 722  : 	if (!PyTuple_GetInteger(poArgs, 0, &iSlotIndex))

  00004	8d 45 fc	 lea	 eax, DWORD PTR _iSlotIndex$[ebp]
  00007	50		 push	 eax
  00008	6a 00		 push	 0
  0000a	ff 75 0c	 push	 DWORD PTR _poArgs$[ebp]
  0000d	e8 00 00 00 00	 call	 ?PyTuple_GetInteger@@YA_NPAU_object@@HPAH@Z ; PyTuple_GetInteger
  00012	83 c4 0c	 add	 esp, 12			; 0000000cH
  00015	84 c0		 test	 al, al
  00017	75 0e		 jne	 SHORT $LN2@playerGetS

; 723  : 		return Py_BuildException();

  00019	6a 00		 push	 0
  0001b	e8 00 00 00 00	 call	 ?Py_BuildException@@YAPAU_object@@PBDZZ ; Py_BuildException
  00020	83 c4 04	 add	 esp, 4

; 726  : }

  00023	8b e5		 mov	 esp, ebp
  00025	5d		 pop	 ebp
  00026	c3		 ret	 0
$LN2@playerGetS:

; 724  : 
; 725  : 	return Py_BuildValue("f", CPythonPlayer::Instance().GetSkillNextEfficientPercentage(iSlotIndex));

  00027	ff 75 fc	 push	 DWORD PTR _iSlotIndex$[ebp]
  0002a	8b 0d 00 00 00
	00		 mov	 ecx, DWORD PTR ?ms_singleton@?$CSingleton@VCPythonPlayer@@@@0PAVCPythonPlayer@@A ; CSingleton<CPythonPlayer>::ms_singleton
  00030	e8 00 00 00 00	 call	 ?GetSkillNextEfficientPercentage@CPythonPlayer@@QAEMK@Z ; CPythonPlayer::GetSkillNextEfficientPercentage
  00035	f3 0f 5a c0	 cvtss2sd xmm0, xmm0
  00039	83 ec 08	 sub	 esp, 8
  0003c	f2 0f 11 04 24	 movsd	 QWORD PTR [esp], xmm0
  00041	68 00 00 00 00	 push	 OFFSET ??_C@_01INIBCBCB@f@
  00046	ff 15 00 00 00
	00		 call	 DWORD PTR __imp__Py_BuildValue
  0004c	83 c4 0c	 add	 esp, 12			; 0000000cH

; 726  : }

  0004f	8b e5		 mov	 esp, ebp
  00051	5d		 pop	 ebp
  00052	c3		 ret	 0
?playerGetSkillNextEfficientPercentage@@YAPAU_object@@PAU1@0@Z ENDP ; playerGetSkillNextEfficientPercentage
_TEXT	ENDS
; Function compile flags: /Ogtp
; File D:\_m2work\txoko-m2-work\txoko-client-src\source\UserInterface\PythonPlayerModule.cpp
;	COMDAT ?playerClickSkillSlot@@YAPAU_object@@PAU1@0@Z
_TEXT	SEGMENT
_iSkillSlot$ = -4					; size = 4
_poSelf$ = 8						; size = 4
_poArgs$ = 12						; size = 4
?playerClickSkillSlot@@YAPAU_object@@PAU1@0@Z PROC	; playerClickSkillSlot, COMDAT

; 729  : {

  00000	55		 push	 ebp
  00001	8b ec		 mov	 ebp, esp
  00003	51		 push	 ecx

; 730  : 	int iSkillSlot;
; 731  : 	if (!PyTuple_GetInteger(poArgs, 0, &iSkillSlot))

  00004	8d 45 fc	 lea	 eax, DWORD PTR _iSkillSlot$[ebp]
  00007	50		 push	 eax
  00008	6a 00		 push	 0
  0000a	ff 75 0c	 push	 DWORD PTR _poArgs$[ebp]
  0000d	e8 00 00 00 00	 call	 ?PyTuple_GetInteger@@YA_NPAU_object@@HPAH@Z ; PyTuple_GetInteger
  00012	83 c4 0c	 add	 esp, 12			; 0000000cH
  00015	84 c0		 test	 al, al
  00017	75 09		 jne	 SHORT $LN2@playerClic

; 732  : 		return Py_BadArgument();

  00019	e8 00 00 00 00	 call	 ?Py_BadArgument@@YAPAU_object@@XZ ; Py_BadArgument

; 737  : }

  0001e	8b e5		 mov	 esp, ebp
  00020	5d		 pop	 ebp
  00021	c3		 ret	 0
$LN2@playerClic:

; 733  : 
; 734  : 	CPythonPlayer::Instance().ClickSkillSlot(iSkillSlot);

  00022	ff 75 fc	 push	 DWORD PTR _iSkillSlot$[ebp]
  00025	8b 0d 00 00 00
	00		 mov	 ecx, DWORD PTR ?ms_singleton@?$CSingleton@VCPythonPlayer@@@@0PAVCPythonPlayer@@A ; CSingleton<CPythonPlayer>::ms_singleton
  0002b	e8 00 00 00 00	 call	 ?ClickSkillSlot@CPythonPlayer@@QAEXK@Z ; CPythonPlayer::ClickSkillSlot

; 735  : 
; 736  : 	return Py_BuildNone();

  00030	e8 00 00 00 00	 call	 ?Py_BuildNone@@YAPAU_object@@XZ ; Py_BuildNone

; 737  : }

  00035	8b e5		 mov	 esp, ebp
  00037	5d		 pop	 ebp
  00038	c3		 ret	 0
?playerClickSkillSlot@@YAPAU_object@@PAU1@0@Z ENDP	; playerClickSkillSlot
_TEXT	ENDS
; Function compile flags: /Ogtp
; File D:\_m2work\txoko-m2-work\txoko-client-src\source\UserInterface\PythonPlayerModule.cpp
;	COMDAT ?playerChangeCurrentSkillNumberOnly@@YAPAU_object@@PAU1@0@Z
_TEXT	SEGMENT
_iSlotIndex$ = -4					; size = 4
_poSelf$ = 8						; size = 4
_poArgs$ = 12						; size = 4
?playerChangeCurrentSkillNumberOnly@@YAPAU_object@@PAU1@0@Z PROC ; playerChangeCurrentSkillNumberOnly, COMDAT

; 740  : {

  00000	55		 push	 ebp
  00001	8b ec		 mov	 ebp, esp
  00003	51		 push	 ecx

; 741  : 	int iSlotIndex;
; 742  : 	if (!PyTuple_GetInteger(poArgs, 0, &iSlotIndex))

  00004	8d 45 fc	 lea	 eax, DWORD PTR _iSlotIndex$[ebp]
  00007	50		 push	 eax
  00008	6a 00		 push	 0
  0000a	ff 75 0c	 push	 DWORD PTR _poArgs$[ebp]
  0000d	e8 00 00 00 00	 call	 ?PyTuple_GetInteger@@YA_NPAU_object@@HPAH@Z ; PyTuple_GetInteger
  00012	83 c4 0c	 add	 esp, 12			; 0000000cH
  00015	84 c0		 test	 al, al
  00017	75 09		 jne	 SHORT $LN2@playerChan

; 743  : 		return Py_BadArgument();

  00019	e8 00 00 00 00	 call	 ?Py_BadArgument@@YAPAU_object@@XZ ; Py_BadArgument

; 748  : }

  0001e	8b e5		 mov	 esp, ebp
  00020	5d		 pop	 ebp
  00021	c3		 ret	 0
$LN2@playerChan:

; 744  : 
; 745  : 	CPythonPlayer::Instance().ChangeCurrentSkillNumberOnly(iSlotIndex);

  00022	ff 75 fc	 push	 DWORD PTR _iSlotIndex$[ebp]
  00025	8b 0d 00 00 00
	00		 mov	 ecx, DWORD PTR ?ms_singleton@?$CSingleton@VCPythonPlayer@@@@0PAVCPythonPlayer@@A ; CSingleton<CPythonPlayer>::ms_singleton
  0002b	e8 00 00 00 00	 call	 ?ChangeCurrentSkillNumberOnly@CPythonPlayer@@QAEXK@Z ; CPythonPlayer::ChangeCurrentSkillNumberOnly

; 746  : 
; 747  : 	return Py_BuildNone();

  00030	e8 00 00 00 00	 call	 ?Py_BuildNone@@YAPAU_object@@XZ ; Py_BuildNone

; 748  : }

  00035	8b e5		 mov	 esp, ebp
  00037	5d		 pop	 ebp
  00038	c3		 ret	 0
?playerChangeCurrentSkillNumberOnly@@YAPAU_object@@PAU1@0@Z ENDP ; playerChangeCurrentSkillNumberOnly
_TEXT	ENDS
; Function compile flags: /Ogtp
; File D:\_m2work\txoko-m2-work\txoko-client-src\source\UserInterface\PythonPlayerModule.cpp
;	COMDAT ?playerClearSkillDict@@YAPAU_object@@PAU1@0@Z
_TEXT	SEGMENT
_poSelf$ = 8						; size = 4
_poArgs$ = 12						; size = 4
?playerClearSkillDict@@YAPAU_object@@PAU1@0@Z PROC	; playerClearSkillDict, COMDAT

; 752  : 	CPythonPlayer::Instance().ClearSkillDict();

  00000	8b 0d 00 00 00
	00		 mov	 ecx, DWORD PTR ?ms_singleton@?$CSingleton@VCPythonPlayer@@@@0PAVCPythonPlayer@@A ; CSingleton<CPythonPlayer>::ms_singleton
  00006	e8 00 00 00 00	 call	 ?ClearSkillDict@CPythonPlayer@@QAEXXZ ; CPythonPlayer::ClearSkillDict

; 753  : 	return Py_BuildNone();

  0000b	e9 00 00 00 00	 jmp	 ?Py_BuildNone@@YAPAU_object@@XZ ; Py_BuildNone
?playerClearSkillDict@@YAPAU_object@@PAU1@0@Z ENDP	; playerClearSkillDict
_TEXT	ENDS
; Function compile flags: /Ogtp
; File D:\_m2work\txoko-m2-work\txoko-client-src\source\UserInterface\PythonPlayerModule.cpp
; File D:\_m2work\txoko-m2-work\txoko-client-src\source\UserInterface\GameType.h
; File D:\_m2work\txoko-m2-work\txoko-client-src\source\UserInterface\PythonPlayerModule.cpp
; File D:\_m2work\txoko-m2-work\txoko-client-src\source\UserInterface\GameType.h
; File D:\_m2work\txoko-m2-work\txoko-client-src\source\UserInterface\PythonPlayerModule.cpp
;	COMDAT ?playerMoveItem@@YAPAU_object@@PAU1@0@Z
_TEXT	SEGMENT
_srcCell$ = -8						; size = 3
_dstCell$ = -4						; size = 3
_poSelf$ = 8						; size = 4
_poArgs$ = 12						; size = 4
?playerMoveItem@@YAPAU_object@@PAU1@0@Z PROC		; playerMoveItem, COMDAT

; 757  : {

  00000	55		 push	 ebp
  00001	8b ec		 mov	 ebp, esp
  00003	83 ec 08	 sub	 esp, 8
  00006	56		 push	 esi

; 760  : 	switch (PyTuple_Size(poArgs))

  00007	8b 75 0c	 mov	 esi, DWORD PTR _poArgs$[ebp]
; File D:\_m2work\txoko-m2-work\txoko-client-src\source\UserInterface\GameType.h

; 187  : 		cell = WORD_MAX;

  0000a	b8 ff ff 00 00	 mov	 eax, 65535		; 0000ffffH
; File D:\_m2work\txoko-m2-work\txoko-client-src\source\UserInterface\PythonPlayerModule.cpp

; 760  : 	switch (PyTuple_Size(poArgs))

  0000f	56		 push	 esi
; File D:\_m2work\txoko-m2-work\txoko-client-src\source\UserInterface\GameType.h

; 186  : 		window_type =     INVENTORY;

  00010	c6 45 f8 01	 mov	 BYTE PTR _srcCell$[ebp], 1

; 187  : 		cell = WORD_MAX;

  00014	66 89 45 f9	 mov	 WORD PTR _srcCell$[ebp+1], ax

; 186  : 		window_type =     INVENTORY;

  00018	c6 45 fc 01	 mov	 BYTE PTR _dstCell$[ebp], 1

; 187  : 		cell = WORD_MAX;

  0001c	66 89 45 fd	 mov	 WORD PTR _dstCell$[ebp+1], ax
; File D:\_m2work\txoko-m2-work\txoko-client-src\source\UserInterface\PythonPlayerModule.cpp

; 760  : 	switch (PyTuple_Size(poArgs))

  00020	ff 15 00 00 00
	00		 call	 DWORD PTR __imp__PyTuple_Size
  00026	83 c4 04	 add	 esp, 4
  00029	83 e8 02	 sub	 eax, 2
  0002c	74 5c		 je	 SHORT $LN4@playerMove
  0002e	83 e8 02	 sub	 eax, 2
  00031	75 6a		 jne	 SHORT $LN26@playerMove

; 767  : 			return Py_BuildException();
; 768  : 		break;
; 769  : 	case 4:
; 770  : 		if (!PyTuple_GetByte(poArgs, 0, &srcCell.window_type))

  00033	8d 45 f8	 lea	 eax, DWORD PTR _srcCell$[ebp]
  00036	50		 push	 eax
  00037	6a 00		 push	 0
  00039	56		 push	 esi
  0003a	e8 00 00 00 00	 call	 ?PyTuple_GetByte@@YA_NPAU_object@@HPAE@Z ; PyTuple_GetByte
  0003f	83 c4 0c	 add	 esp, 12			; 0000000cH
  00042	84 c0		 test	 al, al
  00044	74 57		 je	 SHORT $LN26@playerMove

; 771  : 			return Py_BuildException();
; 772  : 		if (!PyTuple_GetInteger(poArgs, 1, &srcCell.cell))

  00046	8d 45 f9	 lea	 eax, DWORD PTR _srcCell$[ebp+1]
  00049	50		 push	 eax
  0004a	6a 01		 push	 1
  0004c	56		 push	 esi
  0004d	e8 00 00 00 00	 call	 ?PyTuple_GetInteger@@YA_NPAU_object@@HPAG@Z ; PyTuple_GetInteger
  00052	83 c4 0c	 add	 esp, 12			; 0000000cH
  00055	84 c0		 test	 al, al
  00057	74 44		 je	 SHORT $LN26@playerMove

; 773  : 			return Py_BuildException();
; 774  : 		if (!PyTuple_GetByte(poArgs, 2, &dstCell.window_type))

  00059	8d 45 fc	 lea	 eax, DWORD PTR _dstCell$[ebp]
  0005c	50		 push	 eax
  0005d	6a 02		 push	 2
  0005f	56		 push	 esi
  00060	e8 00 00 00 00	 call	 ?PyTuple_GetByte@@YA_NPAU_object@@HPAE@Z ; PyTuple_GetByte
  00065	83 c4 0c	 add	 esp, 12			; 0000000cH
  00068	84 c0		 test	 al, al
  0006a	74 31		 je	 SHORT $LN26@playerMove

; 775  : 			return Py_BuildException();
; 776  : 		if (!PyTuple_GetInteger(poArgs, 3, &dstCell.cell))

  0006c	8d 45 fd	 lea	 eax, DWORD PTR _dstCell$[ebp+1]
  0006f	50		 push	 eax
  00070	6a 03		 push	 3
  00072	56		 push	 esi
  00073	e8 00 00 00 00	 call	 ?PyTuple_GetInteger@@YA_NPAU_object@@HPAG@Z ; PyTuple_GetInteger
  00078	83 c4 0c	 add	 esp, 12			; 0000000cH

; 784  : }

  0007b	6a 00		 push	 0
  0007d	e8 00 00 00 00	 call	 ?Py_BuildException@@YAPAU_object@@PBDZZ ; Py_BuildException
  00082	83 c4 04	 add	 esp, 4
  00085	5e		 pop	 esi
  00086	8b e5		 mov	 esp, ebp
  00088	5d		 pop	 ebp
  00089	c3		 ret	 0
$LN4@playerMove:

; 761  : 	{
; 762  : 	case 2:
; 763  : 		//int iSourceSlotIndex;
; 764  : 		if (!PyTuple_GetInteger(poArgs, 0, &srcCell.cell))

  0008a	8d 45 f9	 lea	 eax, DWORD PTR _srcCell$[ebp+1]
  0008d	50		 push	 eax
  0008e	6a 00		 push	 0
  00090	56		 push	 esi
  00091	e8 00 00 00 00	 call	 ?PyTuple_GetInteger@@YA_NPAU_object@@HPAG@Z ; PyTuple_GetInteger
  00096	83 c4 0c	 add	 esp, 12			; 0000000cH
  00099	84 c0		 test	 al, al
  0009b	75 0f		 jne	 SHORT $LN5@playerMove
$LN26@playerMove:

; 784  : }

  0009d	6a 00		 push	 0
  0009f	e8 00 00 00 00	 call	 ?Py_BuildException@@YAPAU_object@@PBDZZ ; Py_BuildException
  000a4	83 c4 04	 add	 esp, 4
  000a7	5e		 pop	 esi
  000a8	8b e5		 mov	 esp, ebp
  000aa	5d		 pop	 ebp
  000ab	c3		 ret	 0
$LN5@playerMove:

; 765  : 			return Py_BuildException();
; 766  : 		if (!PyTuple_GetInteger(poArgs, 1, &dstCell.cell))

  000ac	8d 45 fd	 lea	 eax, DWORD PTR _dstCell$[ebp+1]
  000af	50		 push	 eax
  000b0	6a 01		 push	 1
  000b2	56		 push	 esi
  000b3	e8 00 00 00 00	 call	 ?PyTuple_GetInteger@@YA_NPAU_object@@HPAG@Z ; PyTuple_GetInteger
  000b8	83 c4 0c	 add	 esp, 12			; 0000000cH
  000bb	84 c0		 test	 al, al
  000bd	74 de		 je	 SHORT $LN26@playerMove

; 777  : 			return Py_BuildException();
; 778  : 	default:
; 779  : 		return Py_BuildException();
; 780  : 	}
; 781  : 
; 782  : 	CPythonPlayer::Instance().MoveItemData(srcCell, dstCell);

  000bf	0f b7 45 fc	 movzx	 eax, WORD PTR _dstCell$[ebp]
  000c3	51		 push	 ecx
  000c4	8b cc		 mov	 ecx, esp
  000c6	51		 push	 ecx
  000c7	66 89 01	 mov	 WORD PTR [ecx], ax
  000ca	8a 45 fe	 mov	 al, BYTE PTR _dstCell$[ebp+2]
  000cd	88 41 02	 mov	 BYTE PTR [ecx+2], al
  000d0	8b cc		 mov	 ecx, esp
  000d2	0f b7 45 f8	 movzx	 eax, WORD PTR _srcCell$[ebp]
  000d6	66 89 01	 mov	 WORD PTR [ecx], ax
  000d9	8a 45 fa	 mov	 al, BYTE PTR _srcCell$[ebp+2]
  000dc	88 41 02	 mov	 BYTE PTR [ecx+2], al
  000df	8b 0d 00 00 00
	00		 mov	 ecx, DWORD PTR ?ms_singleton@?$CSingleton@VCPythonPlayer@@@@0PAVCPythonPlayer@@A ; CSingleton<CPythonPlayer>::ms_singleton
  000e5	e8 00 00 00 00	 call	 ?MoveItemData@CPythonPlayer@@QAEXUSItemPos@@0@Z ; CPythonPlayer::MoveItemData

; 783  : 	return Py_BuildNone();

  000ea	e8 00 00 00 00	 call	 ?Py_BuildNone@@YAPAU_object@@XZ ; Py_BuildNone

; 784  : }

  000ef	5e		 pop	 esi
  000f0	8b e5		 mov	 esp, ebp
  000f2	5d		 pop	 ebp
  000f3	c3		 ret	 0
?playerMoveItem@@YAPAU_object@@PAU1@0@Z ENDP		; playerMoveItem
_TEXT	ENDS
; Function compile flags: /Ogtp
; File D:\_m2work\txoko-m2-work\txoko-client-src\source\UserInterface\PythonPlayerModule.cpp
;	COMDAT ?playerSendClickItemPacket@@YAPAU_object@@PAU1@0@Z
_TEXT	SEGMENT
_ivid$ = -4						; size = 4
_poSelf$ = 8						; size = 4
_poArgs$ = 12						; size = 4
?playerSendClickItemPacket@@YAPAU_object@@PAU1@0@Z PROC	; playerSendClickItemPacket, COMDAT

; 787  : {

  00000	55		 push	 ebp
  00001	8b ec		 mov	 ebp, esp
  00003	51		 push	 ecx

; 788  : 	int ivid;
; 789  : 	if (!PyTuple_GetInteger(poArgs, 0, &ivid))

  00004	8d 45 fc	 lea	 eax, DWORD PTR _ivid$[ebp]
  00007	50		 push	 eax
  00008	6a 00		 push	 0
  0000a	ff 75 0c	 push	 DWORD PTR _poArgs$[ebp]
  0000d	e8 00 00 00 00	 call	 ?PyTuple_GetInteger@@YA_NPAU_object@@HPAH@Z ; PyTuple_GetInteger
  00012	83 c4 0c	 add	 esp, 12			; 0000000cH
  00015	84 c0		 test	 al, al
  00017	75 0e		 jne	 SHORT $LN2@playerSend

; 790  : 		return Py_BuildException();

  00019	6a 00		 push	 0
  0001b	e8 00 00 00 00	 call	 ?Py_BuildException@@YAPAU_object@@PBDZZ ; Py_BuildException
  00020	83 c4 04	 add	 esp, 4

; 794  : }

  00023	8b e5		 mov	 esp, ebp
  00025	5d		 pop	 ebp
  00026	c3		 ret	 0
$LN2@playerSend:

; 791  : 
; 792  : 	CPythonPlayer::Instance().SendClickItemPacket(ivid);

  00027	ff 75 fc	 push	 DWORD PTR _ivid$[ebp]
  0002a	8b 0d 00 00 00
	00		 mov	 ecx, DWORD PTR ?ms_singleton@?$CSingleton@VCPythonPlayer@@@@0PAVCPythonPlayer@@A ; CSingleton<CPythonPlayer>::ms_singleton
  00030	e8 00 00 00 00	 call	 ?SendClickItemPacket@CPythonPlayer@@QAEXK@Z ; CPythonPlayer::SendClickItemPacket

; 793  : 	return Py_BuildNone();

  00035	e8 00 00 00 00	 call	 ?Py_BuildNone@@YAPAU_object@@XZ ; Py_BuildNone

; 794  : }

  0003a	8b e5		 mov	 esp, ebp
  0003c	5d		 pop	 ebp
  0003d	c3		 ret	 0
?playerSendClickItemPacket@@YAPAU_object@@PAU1@0@Z ENDP	; playerSendClickItemPacket
_TEXT	ENDS
; Function compile flags: /Ogtp
; File D:\_m2work\txoko-m2-work\txoko-client-src\source\UserInterface\PythonPlayerModule.cpp
; File D:\_m2work\txoko-m2-work\txoko-client-src\source\UserInterface\GameType.h
; File D:\_m2work\txoko-m2-work\txoko-client-src\source\UserInterface\PythonPlayerModule.cpp
;	COMDAT ?playerGetItemIndex@@YAPAU_object@@PAU1@0@Z
_TEXT	SEGMENT
_iSlotIndex$1 = -8					; size = 4
$T2 = -4						; size = 3
_Cell$3 = -4						; size = 3
_poSelf$ = 8						; size = 4
_poArgs$ = 12						; size = 4
?playerGetItemIndex@@YAPAU_object@@PAU1@0@Z PROC	; playerGetItemIndex, COMDAT

; 797  : {

  00000	55		 push	 ebp
  00001	8b ec		 mov	 ebp, esp
  00003	83 ec 08	 sub	 esp, 8
  00006	56		 push	 esi

; 798  : 	switch (PyTuple_Size(poArgs))

  00007	8b 75 0c	 mov	 esi, DWORD PTR _poArgs$[ebp]
  0000a	57		 push	 edi
  0000b	56		 push	 esi
  0000c	ff 15 00 00 00
	00		 call	 DWORD PTR __imp__PyTuple_Size
  00012	83 c4 04	 add	 esp, 4
  00015	83 e8 01	 sub	 eax, 1
  00018	74 59		 je	 SHORT $LN4@playerGetI
  0001a	83 e8 01	 sub	 eax, 1
  0001d	75 67		 jne	 SHORT $LN21@playerGetI
; File D:\_m2work\txoko-m2-work\txoko-client-src\source\UserInterface\GameType.h

; 187  : 		cell = WORD_MAX;

  0001f	b8 ff ff 00 00	 mov	 eax, 65535		; 0000ffffH
  00024	c6 45 fc 01	 mov	 BYTE PTR _Cell$3[ebp], 1
  00028	66 89 45 fd	 mov	 WORD PTR _Cell$3[ebp+1], ax
; File D:\_m2work\txoko-m2-work\txoko-client-src\source\UserInterface\PythonPlayerModule.cpp

; 812  : 			if (!PyTuple_GetByte(poArgs, 0, &Cell.window_type))

  0002c	8d 45 fc	 lea	 eax, DWORD PTR _Cell$3[ebp]
  0002f	50		 push	 eax
  00030	6a 00		 push	 0
  00032	56		 push	 esi
  00033	e8 00 00 00 00	 call	 ?PyTuple_GetByte@@YA_NPAU_object@@HPAE@Z ; PyTuple_GetByte
  00038	83 c4 0c	 add	 esp, 12			; 0000000cH
  0003b	84 c0		 test	 al, al
  0003d	74 47		 je	 SHORT $LN21@playerGetI

; 813  : 				return Py_BuildException();
; 814  : 			if (!PyTuple_GetInteger(poArgs, 1, &Cell.cell))

  0003f	8d 45 fd	 lea	 eax, DWORD PTR _Cell$3[ebp+1]
  00042	50		 push	 eax
  00043	6a 01		 push	 1
  00045	56		 push	 esi
  00046	e8 00 00 00 00	 call	 ?PyTuple_GetInteger@@YA_NPAU_object@@HPAG@Z ; PyTuple_GetInteger
  0004b	83 c4 0c	 add	 esp, 12			; 0000000cH
  0004e	84 c0		 test	 al, al
  00050	74 34		 je	 SHORT $LN21@playerGetI

; 815  : 				return Py_BuildException();
; 816  : 
; 817  : 			int ItemIndex = CPythonPlayer::Instance().GetItemIndex(Cell);

  00052	8b 3d 00 00 00
	00		 mov	 edi, DWORD PTR ?ms_singleton@?$CSingleton@VCPythonPlayer@@@@0PAVCPythonPlayer@@A ; CSingleton<CPythonPlayer>::ms_singleton
  00058	8a 4d fe	 mov	 cl, BYTE PTR _Cell$3[ebp+2]
  0005b	66 8b 55 fc	 mov	 dx, WORD PTR _Cell$3[ebp]
  0005f	51		 push	 ecx
  00060	8b 47 04	 mov	 eax, DWORD PTR [edi+4]
  00063	8b 70 40	 mov	 esi, DWORD PTR [eax+64]
  00066	8b c4		 mov	 eax, esp
  00068	66 89 10	 mov	 WORD PTR [eax], dx
  0006b	88 48 02	 mov	 BYTE PTR [eax+2], cl
  0006e	8d 4f 04	 lea	 ecx, DWORD PTR [edi+4]

; 818  : 			return Py_BuildValue("i", ItemIndex);

  00071	eb 4d		 jmp	 SHORT $LN20@playerGetI
$LN4@playerGetI:

; 799  : 	{
; 800  : 	case 1:
; 801  : 		{
; 802  : 			int iSlotIndex;
; 803  : 			if (!PyTuple_GetInteger(poArgs, 0, &iSlotIndex))

  00073	8d 45 f8	 lea	 eax, DWORD PTR _iSlotIndex$1[ebp]
  00076	50		 push	 eax
  00077	6a 00		 push	 0
  00079	56		 push	 esi
  0007a	e8 00 00 00 00	 call	 ?PyTuple_GetInteger@@YA_NPAU_object@@HPAH@Z ; PyTuple_GetInteger
  0007f	83 c4 0c	 add	 esp, 12			; 0000000cH
  00082	84 c0		 test	 al, al
  00084	75 10		 jne	 SHORT $LN5@playerGetI
$LN21@playerGetI:

; 819  : 		}
; 820  : 	default:
; 821  : 		return Py_BuildException();
; 822  : 
; 823  : 	}
; 824  : }

  00086	6a 00		 push	 0
  00088	e8 00 00 00 00	 call	 ?Py_BuildException@@YAPAU_object@@PBDZZ ; Py_BuildException
  0008d	83 c4 04	 add	 esp, 4
  00090	5f		 pop	 edi
  00091	5e		 pop	 esi
  00092	8b e5		 mov	 esp, ebp
  00094	5d		 pop	 ebp
  00095	c3		 ret	 0
$LN5@playerGetI:

; 804  : 				return Py_BuildException();
; 805  : 
; 806  : 			int ItemIndex = CPythonPlayer::Instance().GetItemIndex(TItemPos (INVENTORY, iSlotIndex));

  00096	8b 0d 00 00 00
	00		 mov	 ecx, DWORD PTR ?ms_singleton@?$CSingleton@VCPythonPlayer@@@@0PAVCPythonPlayer@@A ; CSingleton<CPythonPlayer>::ms_singleton
  0009c	83 c1 04	 add	 ecx, 4
  0009f	c6 45 fc 01	 mov	 BYTE PTR $T2[ebp], 1
  000a3	51		 push	 ecx
  000a4	8b d4		 mov	 edx, esp
  000a6	8b 01		 mov	 eax, DWORD PTR [ecx]
  000a8	8b 70 40	 mov	 esi, DWORD PTR [eax+64]
  000ab	0f b7 45 f8	 movzx	 eax, WORD PTR _iSlotIndex$1[ebp]
  000af	66 89 45 fd	 mov	 WORD PTR $T2[ebp+1], ax
  000b3	0f b7 45 fc	 movzx	 eax, WORD PTR $T2[ebp]
  000b7	66 89 02	 mov	 WORD PTR [edx], ax
  000ba	8a 45 fe	 mov	 al, BYTE PTR $T2[ebp+2]
  000bd	88 42 02	 mov	 BYTE PTR [edx+2], al
$LN20@playerGetI:

; 819  : 		}
; 820  : 	default:
; 821  : 		return Py_BuildException();
; 822  : 
; 823  : 	}
; 824  : }

  000c0	ff d6		 call	 esi
  000c2	50		 push	 eax
  000c3	68 00 00 00 00	 push	 OFFSET ??_C@_01KBJDNOO@i@
  000c8	ff 15 00 00 00
	00		 call	 DWORD PTR __imp__Py_BuildValue
  000ce	83 c4 08	 add	 esp, 8
  000d1	5f		 pop	 edi
  000d2	5e		 pop	 esi
  000d3	8b e5		 mov	 esp, ebp
  000d5	5d		 pop	 ebp
  000d6	c3		 ret	 0
?playerGetItemIndex@@YAPAU_object@@PAU1@0@Z ENDP	; playerGetItemIndex
_TEXT	ENDS
; Function compile flags: /Ogtp
; File D:\_m2work\txoko-m2-work\txoko-client-src\source\UserInterface\PythonPlayerModule.cpp
; File D:\_m2work\txoko-m2-work\txoko-client-src\source\UserInterface\GameType.h
; File D:\_m2work\txoko-m2-work\txoko-client-src\source\UserInterface\PythonPlayerModule.cpp
;	COMDAT ?playerGetItemFlags@@YAPAU_object@@PAU1@0@Z
_TEXT	SEGMENT
_iSlotIndex$1 = -8					; size = 4
$T2 = -4						; size = 3
_Cell$3 = -4						; size = 3
_poSelf$ = 8						; size = 4
_poArgs$ = 12						; size = 4
?playerGetItemFlags@@YAPAU_object@@PAU1@0@Z PROC	; playerGetItemFlags, COMDAT

; 827  : {

  00000	55		 push	 ebp
  00001	8b ec		 mov	 ebp, esp
  00003	83 ec 08	 sub	 esp, 8
  00006	56		 push	 esi

; 828  : 	switch (PyTuple_Size(poArgs))

  00007	8b 75 0c	 mov	 esi, DWORD PTR _poArgs$[ebp]
  0000a	57		 push	 edi
  0000b	56		 push	 esi
  0000c	ff 15 00 00 00
	00		 call	 DWORD PTR __imp__PyTuple_Size
  00012	83 c4 04	 add	 esp, 4
  00015	83 e8 01	 sub	 eax, 1
  00018	74 59		 je	 SHORT $LN4@playerGetI
  0001a	83 e8 01	 sub	 eax, 1
  0001d	75 67		 jne	 SHORT $LN21@playerGetI
; File D:\_m2work\txoko-m2-work\txoko-client-src\source\UserInterface\GameType.h

; 187  : 		cell = WORD_MAX;

  0001f	b8 ff ff 00 00	 mov	 eax, 65535		; 0000ffffH
  00024	c6 45 fc 01	 mov	 BYTE PTR _Cell$3[ebp], 1
  00028	66 89 45 fd	 mov	 WORD PTR _Cell$3[ebp+1], ax
; File D:\_m2work\txoko-m2-work\txoko-client-src\source\UserInterface\PythonPlayerModule.cpp

; 842  : 			if (!PyTuple_GetByte(poArgs, 0, &Cell.window_type))

  0002c	8d 45 fc	 lea	 eax, DWORD PTR _Cell$3[ebp]
  0002f	50		 push	 eax
  00030	6a 00		 push	 0
  00032	56		 push	 esi
  00033	e8 00 00 00 00	 call	 ?PyTuple_GetByte@@YA_NPAU_object@@HPAE@Z ; PyTuple_GetByte
  00038	83 c4 0c	 add	 esp, 12			; 0000000cH
  0003b	84 c0		 test	 al, al
  0003d	74 47		 je	 SHORT $LN21@playerGetI

; 843  : 				return Py_BuildException();
; 844  : 
; 845  : 			if (!PyTuple_GetInteger(poArgs, 1, &Cell.cell))

  0003f	8d 45 fd	 lea	 eax, DWORD PTR _Cell$3[ebp+1]
  00042	50		 push	 eax
  00043	6a 01		 push	 1
  00045	56		 push	 esi
  00046	e8 00 00 00 00	 call	 ?PyTuple_GetInteger@@YA_NPAU_object@@HPAG@Z ; PyTuple_GetInteger
  0004b	83 c4 0c	 add	 esp, 12			; 0000000cH
  0004e	84 c0		 test	 al, al
  00050	74 34		 je	 SHORT $LN21@playerGetI

; 846  : 				return Py_BuildException();
; 847  : 
; 848  : 			DWORD flags = CPythonPlayer::Instance().GetItemFlags(Cell);

  00052	8b 3d 00 00 00
	00		 mov	 edi, DWORD PTR ?ms_singleton@?$CSingleton@VCPythonPlayer@@@@0PAVCPythonPlayer@@A ; CSingleton<CPythonPlayer>::ms_singleton
  00058	8a 4d fe	 mov	 cl, BYTE PTR _Cell$3[ebp+2]
  0005b	66 8b 55 fc	 mov	 dx, WORD PTR _Cell$3[ebp]
  0005f	51		 push	 ecx
  00060	8b 47 04	 mov	 eax, DWORD PTR [edi+4]
  00063	8b 70 44	 mov	 esi, DWORD PTR [eax+68]
  00066	8b c4		 mov	 eax, esp
  00068	66 89 10	 mov	 WORD PTR [eax], dx
  0006b	88 48 02	 mov	 BYTE PTR [eax+2], cl
  0006e	8d 4f 04	 lea	 ecx, DWORD PTR [edi+4]

; 849  : 			return Py_BuildValue("i", flags);

  00071	eb 4d		 jmp	 SHORT $LN20@playerGetI
$LN4@playerGetI:

; 829  : 	{
; 830  : 	case 1:
; 831  : 		{
; 832  : 			int iSlotIndex;
; 833  : 			if (!PyTuple_GetInteger(poArgs, 0, &iSlotIndex))

  00073	8d 45 f8	 lea	 eax, DWORD PTR _iSlotIndex$1[ebp]
  00076	50		 push	 eax
  00077	6a 00		 push	 0
  00079	56		 push	 esi
  0007a	e8 00 00 00 00	 call	 ?PyTuple_GetInteger@@YA_NPAU_object@@HPAH@Z ; PyTuple_GetInteger
  0007f	83 c4 0c	 add	 esp, 12			; 0000000cH
  00082	84 c0		 test	 al, al
  00084	75 10		 jne	 SHORT $LN5@playerGetI
$LN21@playerGetI:

; 850  : 		}
; 851  : 	default:
; 852  : 		return Py_BuildException();
; 853  : 	}
; 854  : }

  00086	6a 00		 push	 0
  00088	e8 00 00 00 00	 call	 ?Py_BuildException@@YAPAU_object@@PBDZZ ; Py_BuildException
  0008d	83 c4 04	 add	 esp, 4
  00090	5f		 pop	 edi
  00091	5e		 pop	 esi
  00092	8b e5		 mov	 esp, ebp
  00094	5d		 pop	 ebp
  00095	c3		 ret	 0
$LN5@playerGetI:

; 834  : 				return Py_BuildException();
; 835  : 
; 836  : 			DWORD flags = CPythonPlayer::Instance().GetItemFlags(TItemPos(INVENTORY, iSlotIndex));

  00096	8b 0d 00 00 00
	00		 mov	 ecx, DWORD PTR ?ms_singleton@?$CSingleton@VCPythonPlayer@@@@0PAVCPythonPlayer@@A ; CSingleton<CPythonPlayer>::ms_singleton
  0009c	83 c1 04	 add	 ecx, 4
  0009f	c6 45 fc 01	 mov	 BYTE PTR $T2[ebp], 1
  000a3	51		 push	 ecx
  000a4	8b d4		 mov	 edx, esp
  000a6	8b 01		 mov	 eax, DWORD PTR [ecx]
  000a8	8b 70 44	 mov	 esi, DWORD PTR [eax+68]
  000ab	0f b7 45 f8	 movzx	 eax, WORD PTR _iSlotIndex$1[ebp]
  000af	66 89 45 fd	 mov	 WORD PTR $T2[ebp+1], ax
  000b3	0f b7 45 fc	 movzx	 eax, WORD PTR $T2[ebp]
  000b7	66 89 02	 mov	 WORD PTR [edx], ax
  000ba	8a 45 fe	 mov	 al, BYTE PTR $T2[ebp+2]
  000bd	88 42 02	 mov	 BYTE PTR [edx+2], al
$LN20@playerGetI:

; 850  : 		}
; 851  : 	default:
; 852  : 		return Py_BuildException();
; 853  : 	}
; 854  : }

  000c0	ff d6		 call	 esi
  000c2	50		 push	 eax
  000c3	68 00 00 00 00	 push	 OFFSET ??_C@_01KBJDNOO@i@
  000c8	ff 15 00 00 00
	00		 call	 DWORD PTR __imp__Py_BuildValue
  000ce	83 c4 08	 add	 esp, 8
  000d1	5f		 pop	 edi
  000d2	5e		 pop	 esi
  000d3	8b e5		 mov	 esp, ebp
  000d5	5d		 pop	 ebp
  000d6	c3		 ret	 0
?playerGetItemFlags@@YAPAU_object@@PAU1@0@Z ENDP	; playerGetItemFlags
_TEXT	ENDS
; Function compile flags: /Ogtp
; File D:\_m2work\txoko-m2-work\txoko-client-src\source\UserInterface\PythonPlayerModule.cpp
; File D:\_m2work\txoko-m2-work\txoko-client-src\source\UserInterface\GameType.h
; File D:\_m2work\txoko-m2-work\txoko-client-src\source\UserInterface\PythonPlayerModule.cpp
;	COMDAT ?playerGetItemCount@@YAPAU_object@@PAU1@0@Z
_TEXT	SEGMENT
_iSlotIndex$1 = -8					; size = 4
$T2 = -4						; size = 3
_Cell$3 = -4						; size = 3
_poSelf$ = 8						; size = 4
_poArgs$ = 12						; size = 4
?playerGetItemCount@@YAPAU_object@@PAU1@0@Z PROC	; playerGetItemCount, COMDAT

; 858  : {

  00000	55		 push	 ebp
  00001	8b ec		 mov	 ebp, esp
  00003	83 ec 08	 sub	 esp, 8
  00006	56		 push	 esi

; 859  : 	switch (PyTuple_Size(poArgs))

  00007	8b 75 0c	 mov	 esi, DWORD PTR _poArgs$[ebp]
  0000a	57		 push	 edi
  0000b	56		 push	 esi
  0000c	ff 15 00 00 00
	00		 call	 DWORD PTR __imp__PyTuple_Size
  00012	83 c4 04	 add	 esp, 4
  00015	83 e8 01	 sub	 eax, 1
  00018	74 59		 je	 SHORT $LN4@playerGetI
  0001a	83 e8 01	 sub	 eax, 1
  0001d	75 67		 jne	 SHORT $LN21@playerGetI
; File D:\_m2work\txoko-m2-work\txoko-client-src\source\UserInterface\GameType.h

; 187  : 		cell = WORD_MAX;

  0001f	b8 ff ff 00 00	 mov	 eax, 65535		; 0000ffffH
  00024	c6 45 fc 01	 mov	 BYTE PTR _Cell$3[ebp], 1
  00028	66 89 45 fd	 mov	 WORD PTR _Cell$3[ebp+1], ax
; File D:\_m2work\txoko-m2-work\txoko-client-src\source\UserInterface\PythonPlayerModule.cpp

; 873  : 			if (!PyTuple_GetByte(poArgs, 0, &Cell.window_type))

  0002c	8d 45 fc	 lea	 eax, DWORD PTR _Cell$3[ebp]
  0002f	50		 push	 eax
  00030	6a 00		 push	 0
  00032	56		 push	 esi
  00033	e8 00 00 00 00	 call	 ?PyTuple_GetByte@@YA_NPAU_object@@HPAE@Z ; PyTuple_GetByte
  00038	83 c4 0c	 add	 esp, 12			; 0000000cH
  0003b	84 c0		 test	 al, al
  0003d	74 47		 je	 SHORT $LN21@playerGetI

; 874  : 				return Py_BuildException();
; 875  : 
; 876  : 			if (!PyTuple_GetInteger(poArgs, 1, &Cell.cell))

  0003f	8d 45 fd	 lea	 eax, DWORD PTR _Cell$3[ebp+1]
  00042	50		 push	 eax
  00043	6a 01		 push	 1
  00045	56		 push	 esi
  00046	e8 00 00 00 00	 call	 ?PyTuple_GetInteger@@YA_NPAU_object@@HPAG@Z ; PyTuple_GetInteger
  0004b	83 c4 0c	 add	 esp, 12			; 0000000cH
  0004e	84 c0		 test	 al, al
  00050	74 34		 je	 SHORT $LN21@playerGetI

; 877  : 				return Py_BuildException();
; 878  : 
; 879  : 			int ItemNum = CPythonPlayer::Instance().GetItemCount(Cell);

  00052	8b 3d 00 00 00
	00		 mov	 edi, DWORD PTR ?ms_singleton@?$CSingleton@VCPythonPlayer@@@@0PAVCPythonPlayer@@A ; CSingleton<CPythonPlayer>::ms_singleton
  00058	8a 4d fe	 mov	 cl, BYTE PTR _Cell$3[ebp+2]
  0005b	66 8b 55 fc	 mov	 dx, WORD PTR _Cell$3[ebp]
  0005f	51		 push	 ecx
  00060	8b 47 04	 mov	 eax, DWORD PTR [edi+4]
  00063	8b 70 48	 mov	 esi, DWORD PTR [eax+72]
  00066	8b c4		 mov	 eax, esp
  00068	66 89 10	 mov	 WORD PTR [eax], dx
  0006b	88 48 02	 mov	 BYTE PTR [eax+2], cl
  0006e	8d 4f 04	 lea	 ecx, DWORD PTR [edi+4]

; 880  : 
; 881  : 			return Py_BuildValue("i", ItemNum);

  00071	eb 4d		 jmp	 SHORT $LN20@playerGetI
$LN4@playerGetI:

; 860  : 	{
; 861  : 	case 1:
; 862  : 		{
; 863  : 			int iSlotIndex;
; 864  : 			if (!PyTuple_GetInteger(poArgs, 0, &iSlotIndex))

  00073	8d 45 f8	 lea	 eax, DWORD PTR _iSlotIndex$1[ebp]
  00076	50		 push	 eax
  00077	6a 00		 push	 0
  00079	56		 push	 esi
  0007a	e8 00 00 00 00	 call	 ?PyTuple_GetInteger@@YA_NPAU_object@@HPAH@Z ; PyTuple_GetInteger
  0007f	83 c4 0c	 add	 esp, 12			; 0000000cH
  00082	84 c0		 test	 al, al
  00084	75 10		 jne	 SHORT $LN5@playerGetI
$LN21@playerGetI:

; 882  : 		}
; 883  : 	default:
; 884  : 		return Py_BuildException();
; 885  : 
; 886  : 	}
; 887  : }

  00086	6a 00		 push	 0
  00088	e8 00 00 00 00	 call	 ?Py_BuildException@@YAPAU_object@@PBDZZ ; Py_BuildException
  0008d	83 c4 04	 add	 esp, 4
  00090	5f		 pop	 edi
  00091	5e		 pop	 esi
  00092	8b e5		 mov	 esp, ebp
  00094	5d		 pop	 ebp
  00095	c3		 ret	 0
$LN5@playerGetI:

; 865  : 				return Py_BuildException();
; 866  : 
; 867  : 			int ItemNum = CPythonPlayer::Instance().GetItemCount(TItemPos (INVENTORY, iSlotIndex));

  00096	8b 0d 00 00 00
	00		 mov	 ecx, DWORD PTR ?ms_singleton@?$CSingleton@VCPythonPlayer@@@@0PAVCPythonPlayer@@A ; CSingleton<CPythonPlayer>::ms_singleton
  0009c	83 c1 04	 add	 ecx, 4
  0009f	c6 45 fc 01	 mov	 BYTE PTR $T2[ebp], 1
  000a3	51		 push	 ecx
  000a4	8b d4		 mov	 edx, esp
  000a6	8b 01		 mov	 eax, DWORD PTR [ecx]
  000a8	8b 70 48	 mov	 esi, DWORD PTR [eax+72]
  000ab	0f b7 45 f8	 movzx	 eax, WORD PTR _iSlotIndex$1[ebp]
  000af	66 89 45 fd	 mov	 WORD PTR $T2[ebp+1], ax
  000b3	0f b7 45 fc	 movzx	 eax, WORD PTR $T2[ebp]
  000b7	66 89 02	 mov	 WORD PTR [edx], ax
  000ba	8a 45 fe	 mov	 al, BYTE PTR $T2[ebp+2]
  000bd	88 42 02	 mov	 BYTE PTR [edx+2], al
$LN20@playerGetI:

; 882  : 		}
; 883  : 	default:
; 884  : 		return Py_BuildException();
; 885  : 
; 886  : 	}
; 887  : }

  000c0	ff d6		 call	 esi
  000c2	50		 push	 eax
  000c3	68 00 00 00 00	 push	 OFFSET ??_C@_01KBJDNOO@i@
  000c8	ff 15 00 00 00
	00		 call	 DWORD PTR __imp__Py_BuildValue
  000ce	83 c4 08	 add	 esp, 8
  000d1	5f		 pop	 edi
  000d2	5e		 pop	 esi
  000d3	8b e5		 mov	 esp, ebp
  000d5	5d		 pop	 ebp
  000d6	c3		 ret	 0
?playerGetItemCount@@YAPAU_object@@PAU1@0@Z ENDP	; playerGetItemCount
_TEXT	ENDS
; Function compile flags: /Ogtp
; File D:\_m2work\txoko-m2-work\txoko-client-src\source\UserInterface\PythonPlayerModule.cpp
; File D:\_m2work\txoko-m2-work\txoko-client-src\source\UserInterface\GameType.h
; File D:\_m2work\txoko-m2-work\txoko-client-src\source\UserInterface\PythonPlayerModule.cpp
;	COMDAT ?playerSetItemCount@@YAPAU_object@@PAU1@0@Z
_TEXT	SEGMENT
_iSlotIndex$1 = -12					; size = 4
_bCount$2 = -8						; size = 1
_bCount$3 = -8						; size = 1
$T4 = -4						; size = 3
_Cell$5 = -4						; size = 3
_poSelf$ = 8						; size = 4
_poArgs$ = 12						; size = 4
?playerSetItemCount@@YAPAU_object@@PAU1@0@Z PROC	; playerSetItemCount, COMDAT

; 890  : {

  00000	55		 push	 ebp
  00001	8b ec		 mov	 ebp, esp
  00003	83 ec 0c	 sub	 esp, 12			; 0000000cH
  00006	56		 push	 esi

; 891  : 	switch (PyTuple_Size(poArgs))

  00007	8b 75 0c	 mov	 esi, DWORD PTR _poArgs$[ebp]
  0000a	56		 push	 esi
  0000b	ff 15 00 00 00
	00		 call	 DWORD PTR __imp__PyTuple_Size
  00011	83 c4 04	 add	 esp, 4
  00014	83 e8 02	 sub	 eax, 2
  00017	74 54		 je	 SHORT $LN4@playerSetI
  00019	83 e8 01	 sub	 eax, 1
  0001c	75 62		 jne	 SHORT $LN27@playerSetI
; File D:\_m2work\txoko-m2-work\txoko-client-src\source\UserInterface\GameType.h

; 187  : 		cell = WORD_MAX;

  0001e	b8 ff ff 00 00	 mov	 eax, 65535		; 0000ffffH
  00023	c6 45 fc 01	 mov	 BYTE PTR _Cell$5[ebp], 1
  00027	66 89 45 fd	 mov	 WORD PTR _Cell$5[ebp+1], ax
; File D:\_m2work\txoko-m2-work\txoko-client-src\source\UserInterface\PythonPlayerModule.cpp

; 912  : 			if (!PyTuple_GetByte(poArgs, 0, &Cell.window_type))

  0002b	8d 45 fc	 lea	 eax, DWORD PTR _Cell$5[ebp]
  0002e	50		 push	 eax
  0002f	6a 00		 push	 0
  00031	56		 push	 esi
  00032	e8 00 00 00 00	 call	 ?PyTuple_GetByte@@YA_NPAU_object@@HPAE@Z ; PyTuple_GetByte
  00037	83 c4 0c	 add	 esp, 12			; 0000000cH
  0003a	84 c0		 test	 al, al
  0003c	74 42		 je	 SHORT $LN27@playerSetI

; 913  : 				return Py_BuildException();
; 914  : 
; 915  : 			if (!PyTuple_GetInteger(poArgs, 1, &Cell.cell))

  0003e	8d 45 fd	 lea	 eax, DWORD PTR _Cell$5[ebp+1]
  00041	50		 push	 eax
  00042	6a 01		 push	 1
  00044	56		 push	 esi
  00045	e8 00 00 00 00	 call	 ?PyTuple_GetInteger@@YA_NPAU_object@@HPAG@Z ; PyTuple_GetInteger
  0004a	83 c4 0c	 add	 esp, 12			; 0000000cH
  0004d	84 c0		 test	 al, al
  0004f	74 2f		 je	 SHORT $LN27@playerSetI

; 916  : 				return Py_BuildException();
; 917  : 
; 918  : 			BYTE bCount;
; 919  : 			if (!PyTuple_GetInteger(poArgs, 2, &bCount))

  00051	8d 45 f8	 lea	 eax, DWORD PTR _bCount$2[ebp]
  00054	50		 push	 eax
  00055	6a 02		 push	 2
  00057	56		 push	 esi
  00058	e8 00 00 00 00	 call	 ?PyTuple_GetInteger@@YA_NPAU_object@@HPAE@Z ; PyTuple_GetInteger
  0005d	83 c4 0c	 add	 esp, 12			; 0000000cH
  00060	84 c0		 test	 al, al
  00062	74 1c		 je	 SHORT $LN27@playerSetI

; 920  : 				return Py_BuildException();
; 921  : 
; 922  : 			CPythonPlayer::Instance().SetItemCount(Cell, bCount);

  00064	ff 75 f8	 push	 DWORD PTR _bCount$2[ebp]
  00067	66 8b 45 fc	 mov	 ax, WORD PTR _Cell$5[ebp]

; 923  : 
; 924  : 			return Py_BuildNone();

  0006b	eb 4d		 jmp	 SHORT $LN26@playerSetI
$LN4@playerSetI:

; 892  : 	{
; 893  : 	case 2:
; 894  : 		{
; 895  : 			int iSlotIndex;
; 896  : 			if (!PyTuple_GetInteger(poArgs, 0, &iSlotIndex))

  0006d	8d 45 f4	 lea	 eax, DWORD PTR _iSlotIndex$1[ebp]
  00070	50		 push	 eax
  00071	6a 00		 push	 0
  00073	56		 push	 esi
  00074	e8 00 00 00 00	 call	 ?PyTuple_GetInteger@@YA_NPAU_object@@HPAH@Z ; PyTuple_GetInteger
  00079	83 c4 0c	 add	 esp, 12			; 0000000cH
  0007c	84 c0		 test	 al, al
  0007e	75 0f		 jne	 SHORT $LN5@playerSetI
$LN27@playerSetI:

; 925  : 		}
; 926  : 	default:
; 927  : 		return Py_BuildException();
; 928  : 
; 929  : 	}
; 930  : }

  00080	6a 00		 push	 0
  00082	e8 00 00 00 00	 call	 ?Py_BuildException@@YAPAU_object@@PBDZZ ; Py_BuildException
  00087	83 c4 04	 add	 esp, 4
  0008a	5e		 pop	 esi
  0008b	8b e5		 mov	 esp, ebp
  0008d	5d		 pop	 ebp
  0008e	c3		 ret	 0
$LN5@playerSetI:

; 897  : 				return Py_BuildException();
; 898  : 
; 899  : 			BYTE bCount;
; 900  : 			if (!PyTuple_GetInteger(poArgs, 1, &bCount))

  0008f	8d 45 f8	 lea	 eax, DWORD PTR _bCount$3[ebp]
  00092	50		 push	 eax
  00093	6a 01		 push	 1
  00095	56		 push	 esi
  00096	e8 00 00 00 00	 call	 ?PyTuple_GetInteger@@YA_NPAU_object@@HPAE@Z ; PyTuple_GetInteger
  0009b	83 c4 0c	 add	 esp, 12			; 0000000cH
  0009e	84 c0		 test	 al, al
  000a0	74 de		 je	 SHORT $LN27@playerSetI

; 901  : 				return Py_BuildException();
; 902  : 
; 903  : 			if (0 == bCount)

  000a2	8b 55 f8	 mov	 edx, DWORD PTR _bCount$3[ebp]
  000a5	84 d2		 test	 dl, dl
  000a7	74 d7		 je	 SHORT $LN27@playerSetI

; 904  : 				return Py_BuildException();
; 905  : 
; 906  : 			CPythonPlayer::Instance().SetItemCount(TItemPos (INVENTORY, iSlotIndex), bCount);

  000a9	0f b7 45 f4	 movzx	 eax, WORD PTR _iSlotIndex$1[ebp]
  000ad	c6 45 fc 01	 mov	 BYTE PTR $T4[ebp], 1
  000b1	66 89 45 fd	 mov	 WORD PTR $T4[ebp+1], ax
  000b5	0f b7 45 fc	 movzx	 eax, WORD PTR $T4[ebp]
  000b9	52		 push	 edx
$LN26@playerSetI:

; 925  : 		}
; 926  : 	default:
; 927  : 		return Py_BuildException();
; 928  : 
; 929  : 	}
; 930  : }

  000ba	8b 0d 00 00 00
	00		 mov	 ecx, DWORD PTR ?ms_singleton@?$CSingleton@VCPythonPlayer@@@@0PAVCPythonPlayer@@A ; CSingleton<CPythonPlayer>::ms_singleton
  000c0	83 c1 04	 add	 ecx, 4
  000c3	51		 push	 ecx
  000c4	8b d4		 mov	 edx, esp
  000c6	8b 31		 mov	 esi, DWORD PTR [ecx]
  000c8	66 89 02	 mov	 WORD PTR [edx], ax
  000cb	8a 45 fe	 mov	 al, BYTE PTR $T4[ebp+2]
  000ce	88 42 02	 mov	 BYTE PTR [edx+2], al
  000d1	ff 56 34	 call	 DWORD PTR [esi+52]
  000d4	e8 00 00 00 00	 call	 ?Py_BuildNone@@YAPAU_object@@XZ ; Py_BuildNone
  000d9	5e		 pop	 esi
  000da	8b e5		 mov	 esp, ebp
  000dc	5d		 pop	 ebp
  000dd	c3		 ret	 0
?playerSetItemCount@@YAPAU_object@@PAU1@0@Z ENDP	; playerSetItemCount
_TEXT	ENDS
; Function compile flags: /Ogtp
; File D:\_m2work\txoko-m2-work\txoko-client-src\source\UserInterface\PythonPlayerModule.cpp
;	COMDAT ?playerGetItemCountByVnum@@YAPAU_object@@PAU1@0@Z
_TEXT	SEGMENT
_ivnum$ = -4						; size = 4
_poSelf$ = 8						; size = 4
_poArgs$ = 12						; size = 4
?playerGetItemCountByVnum@@YAPAU_object@@PAU1@0@Z PROC	; playerGetItemCountByVnum, COMDAT

; 933  : {

  00000	55		 push	 ebp
  00001	8b ec		 mov	 ebp, esp
  00003	51		 push	 ecx

; 934  : 	int ivnum;
; 935  : 	if (!PyTuple_GetInteger(poArgs, 0, &ivnum))

  00004	8d 45 fc	 lea	 eax, DWORD PTR _ivnum$[ebp]
  00007	50		 push	 eax
  00008	6a 00		 push	 0
  0000a	ff 75 0c	 push	 DWORD PTR _poArgs$[ebp]
  0000d	e8 00 00 00 00	 call	 ?PyTuple_GetInteger@@YA_NPAU_object@@HPAH@Z ; PyTuple_GetInteger
  00012	83 c4 0c	 add	 esp, 12			; 0000000cH
  00015	84 c0		 test	 al, al
  00017	75 0e		 jne	 SHORT $LN2@playerGetI

; 936  : 		return Py_BuildException();

  00019	6a 00		 push	 0
  0001b	e8 00 00 00 00	 call	 ?Py_BuildException@@YAPAU_object@@PBDZZ ; Py_BuildException
  00020	83 c4 04	 add	 esp, 4

; 940  : }

  00023	8b e5		 mov	 esp, ebp
  00025	5d		 pop	 ebp
  00026	c3		 ret	 0
$LN2@playerGetI:

; 937  : 
; 938  : 	int ItemNum = CPythonPlayer::Instance().GetItemCountByVnum(ivnum);

  00027	ff 75 fc	 push	 DWORD PTR _ivnum$[ebp]
  0002a	8b 0d 00 00 00
	00		 mov	 ecx, DWORD PTR ?ms_singleton@?$CSingleton@VCPythonPlayer@@@@0PAVCPythonPlayer@@A ; CSingleton<CPythonPlayer>::ms_singleton
  00030	e8 00 00 00 00	 call	 ?GetItemCountByVnum@CPythonPlayer@@QAEKK@Z ; CPythonPlayer::GetItemCountByVnum

; 939  : 	return Py_BuildValue("i", ItemNum);

  00035	50		 push	 eax
  00036	68 00 00 00 00	 push	 OFFSET ??_C@_01KBJDNOO@i@
  0003b	ff 15 00 00 00
	00		 call	 DWORD PTR __imp__Py_BuildValue
  00041	83 c4 08	 add	 esp, 8

; 940  : }

  00044	8b e5		 mov	 esp, ebp
  00046	5d		 pop	 ebp
  00047	c3		 ret	 0
?playerGetItemCountByVnum@@YAPAU_object@@PAU1@0@Z ENDP	; playerGetItemCountByVnum
_TEXT	ENDS
; Function compile flags: /Ogtp
; File D:\_m2work\txoko-m2-work\txoko-client-src\source\UserInterface\PythonPlayerModule.cpp
; File D:\_m2work\txoko-m2-work\txoko-client-src\source\UserInterface\GameType.h
; File D:\_m2work\txoko-m2-work\txoko-client-src\source\UserInterface\PythonPlayerModule.cpp
; File D:\_m2work\txoko-m2-work\txoko-client-src\source\UserInterface\GameType.h
; File D:\_m2work\txoko-m2-work\txoko-client-src\source\UserInterface\PythonPlayerModule.cpp
;	COMDAT ?playerGetItemMetinSocket@@YAPAU_object@@PAU1@0@Z
_TEXT	SEGMENT
_iMetinSocketIndex$ = -8				; size = 4
_Cell$ = -4						; size = 3
_poSelf$ = 8						; size = 4
_poArgs$ = 12						; size = 4
?playerGetItemMetinSocket@@YAPAU_object@@PAU1@0@Z PROC	; playerGetItemMetinSocket, COMDAT

; 943  : {

  00000	55		 push	 ebp
  00001	8b ec		 mov	 ebp, esp
  00003	83 ec 08	 sub	 esp, 8
  00006	56		 push	 esi

; 947  : 	switch (PyTuple_Size(poArgs))

  00007	8b 75 0c	 mov	 esi, DWORD PTR _poArgs$[ebp]
; File D:\_m2work\txoko-m2-work\txoko-client-src\source\UserInterface\GameType.h

; 187  : 		cell = WORD_MAX;

  0000a	b8 ff ff 00 00	 mov	 eax, 65535		; 0000ffffH
; File D:\_m2work\txoko-m2-work\txoko-client-src\source\UserInterface\PythonPlayerModule.cpp

; 947  : 	switch (PyTuple_Size(poArgs))

  0000f	56		 push	 esi
; File D:\_m2work\txoko-m2-work\txoko-client-src\source\UserInterface\GameType.h

; 186  : 		window_type =     INVENTORY;

  00010	c6 45 fc 01	 mov	 BYTE PTR _Cell$[ebp], 1

; 187  : 		cell = WORD_MAX;

  00014	66 89 45 fd	 mov	 WORD PTR _Cell$[ebp+1], ax
; File D:\_m2work\txoko-m2-work\txoko-client-src\source\UserInterface\PythonPlayerModule.cpp

; 947  : 	switch (PyTuple_Size(poArgs))

  00018	ff 15 00 00 00
	00		 call	 DWORD PTR __imp__PyTuple_Size
  0001e	83 c4 04	 add	 esp, 4
  00021	83 e8 02	 sub	 eax, 2
  00024	74 4d		 je	 SHORT $LN4@playerGetI
  00026	83 e8 01	 sub	 eax, 1
  00029	75 39		 jne	 SHORT $LN22@playerGetI

; 954  : 			return Py_BuildException();
; 955  : 
; 956  : 		break;
; 957  : 	case 3:
; 958  : 		if (!PyTuple_GetByte(poArgs, 0, &Cell.window_type))

  0002b	8d 45 fc	 lea	 eax, DWORD PTR _Cell$[ebp]
  0002e	50		 push	 eax
  0002f	6a 00		 push	 0
  00031	56		 push	 esi
  00032	e8 00 00 00 00	 call	 ?PyTuple_GetByte@@YA_NPAU_object@@HPAE@Z ; PyTuple_GetByte
  00037	83 c4 0c	 add	 esp, 12			; 0000000cH
  0003a	84 c0		 test	 al, al
  0003c	74 26		 je	 SHORT $LN22@playerGetI

; 959  : 			return Py_BuildException();
; 960  : 		if (!PyTuple_GetInteger(poArgs, 1, &Cell.cell))

  0003e	8d 45 fd	 lea	 eax, DWORD PTR _Cell$[ebp+1]
  00041	50		 push	 eax
  00042	6a 01		 push	 1
  00044	56		 push	 esi
  00045	e8 00 00 00 00	 call	 ?PyTuple_GetInteger@@YA_NPAU_object@@HPAG@Z ; PyTuple_GetInteger
  0004a	83 c4 0c	 add	 esp, 12			; 0000000cH
  0004d	84 c0		 test	 al, al
  0004f	74 13		 je	 SHORT $LN22@playerGetI

; 961  : 			return Py_BuildException();
; 962  : 		if (!PyTuple_GetInteger(poArgs, 2, &iMetinSocketIndex))

  00051	8d 45 f8	 lea	 eax, DWORD PTR _iMetinSocketIndex$[ebp]
  00054	50		 push	 eax
  00055	6a 02		 push	 2
  00057	56		 push	 esi
  00058	e8 00 00 00 00	 call	 ?PyTuple_GetInteger@@YA_NPAU_object@@HPAH@Z ; PyTuple_GetInteger
  0005d	83 c4 0c	 add	 esp, 12			; 0000000cH
  00060	84 c0		 test	 al, al
  00062	75 35		 jne	 SHORT $LN6@playerGetI
$LN22@playerGetI:

; 973  : }

  00064	6a 00		 push	 0
  00066	e8 00 00 00 00	 call	 ?Py_BuildException@@YAPAU_object@@PBDZZ ; Py_BuildException
  0006b	83 c4 04	 add	 esp, 4
  0006e	5e		 pop	 esi
  0006f	8b e5		 mov	 esp, ebp
  00071	5d		 pop	 ebp
  00072	c3		 ret	 0
$LN4@playerGetI:

; 948  : 	{
; 949  : 	case 2:
; 950  : 		if (!PyTuple_GetInteger(poArgs, 0, &Cell.cell))

  00073	8d 45 fd	 lea	 eax, DWORD PTR _Cell$[ebp+1]
  00076	50		 push	 eax
  00077	6a 00		 push	 0
  00079	56		 push	 esi
  0007a	e8 00 00 00 00	 call	 ?PyTuple_GetInteger@@YA_NPAU_object@@HPAG@Z ; PyTuple_GetInteger
  0007f	83 c4 0c	 add	 esp, 12			; 0000000cH
  00082	84 c0		 test	 al, al
  00084	74 de		 je	 SHORT $LN22@playerGetI

; 951  : 			return Py_BuildException();
; 952  : 
; 953  : 		if (!PyTuple_GetInteger(poArgs, 1, &iMetinSocketIndex))

  00086	8d 45 f8	 lea	 eax, DWORD PTR _iMetinSocketIndex$[ebp]
  00089	50		 push	 eax
  0008a	6a 01		 push	 1
  0008c	56		 push	 esi
  0008d	e8 00 00 00 00	 call	 ?PyTuple_GetInteger@@YA_NPAU_object@@HPAH@Z ; PyTuple_GetInteger
  00092	83 c4 0c	 add	 esp, 12			; 0000000cH
  00095	84 c0		 test	 al, al
  00097	74 cb		 je	 SHORT $LN22@playerGetI
$LN6@playerGetI:

; 963  : 			return Py_BuildException();
; 964  : 
; 965  : 		break;
; 966  : 
; 967  : 	default:
; 968  : 		return Py_BuildException();
; 969  : 
; 970  : 	}
; 971  : 	int nMetinSocketValue = CPythonPlayer::Instance().GetItemMetinSocket(Cell, iMetinSocketIndex);

  00099	ff 75 f8	 push	 DWORD PTR _iMetinSocketIndex$[ebp]
  0009c	66 8b 45 fc	 mov	 ax, WORD PTR _Cell$[ebp]
  000a0	51		 push	 ecx
  000a1	8b cc		 mov	 ecx, esp
  000a3	66 89 01	 mov	 WORD PTR [ecx], ax
  000a6	8a 45 fe	 mov	 al, BYTE PTR _Cell$[ebp+2]
  000a9	88 41 02	 mov	 BYTE PTR [ecx+2], al
  000ac	8b 0d 00 00 00
	00		 mov	 ecx, DWORD PTR ?ms_singleton@?$CSingleton@VCPythonPlayer@@@@0PAVCPythonPlayer@@A ; CSingleton<CPythonPlayer>::ms_singleton
  000b2	e8 00 00 00 00	 call	 ?GetItemMetinSocket@CPythonPlayer@@QAEKUSItemPos@@K@Z ; CPythonPlayer::GetItemMetinSocket

; 972  : 	return Py_BuildValue("i", nMetinSocketValue);

  000b7	50		 push	 eax
  000b8	68 00 00 00 00	 push	 OFFSET ??_C@_01KBJDNOO@i@
  000bd	ff 15 00 00 00
	00		 call	 DWORD PTR __imp__Py_BuildValue
  000c3	83 c4 08	 add	 esp, 8

; 973  : }

  000c6	5e		 pop	 esi
  000c7	8b e5		 mov	 esp, ebp
  000c9	5d		 pop	 ebp
  000ca	c3		 ret	 0
?playerGetItemMetinSocket@@YAPAU_object@@PAU1@0@Z ENDP	; playerGetItemMetinSocket
_TEXT	ENDS
; Function compile flags: /Ogtp
; File D:\_m2work\txoko-m2-work\txoko-client-src\source\UserInterface\PythonPlayerModule.cpp
; File D:\_m2work\txoko-m2-work\txoko-client-src\source\UserInterface\GameType.h
; File D:\_m2work\txoko-m2-work\txoko-client-src\source\UserInterface\PythonPlayerModule.cpp
; File D:\_m2work\txoko-m2-work\txoko-client-src\source\UserInterface\GameType.h
; File D:\_m2work\txoko-m2-work\txoko-client-src\source\UserInterface\PythonPlayerModule.cpp
;	COMDAT ?playerGetItemAttribute@@YAPAU_object@@PAU1@0@Z
_TEXT	SEGMENT
_iAttributeSlotIndex$ = -16				; size = 4
_Cell$ = -12						; size = 3
_sValue$ = -8						; size = 2
_byType$ = -1						; size = 1
_poSelf$ = 8						; size = 4
_poArgs$ = 12						; size = 4
?playerGetItemAttribute@@YAPAU_object@@PAU1@0@Z PROC	; playerGetItemAttribute, COMDAT

; 976  : {

  00000	55		 push	 ebp
  00001	8b ec		 mov	 ebp, esp
  00003	83 ec 10	 sub	 esp, 16			; 00000010H
  00006	56		 push	 esi

; 980  : 	switch (PyTuple_Size(poArgs))

  00007	8b 75 0c	 mov	 esi, DWORD PTR _poArgs$[ebp]
; File D:\_m2work\txoko-m2-work\txoko-client-src\source\UserInterface\GameType.h

; 187  : 		cell = WORD_MAX;

  0000a	b8 ff ff 00 00	 mov	 eax, 65535		; 0000ffffH
; File D:\_m2work\txoko-m2-work\txoko-client-src\source\UserInterface\PythonPlayerModule.cpp

; 980  : 	switch (PyTuple_Size(poArgs))

  0000f	56		 push	 esi
; File D:\_m2work\txoko-m2-work\txoko-client-src\source\UserInterface\GameType.h

; 186  : 		window_type =     INVENTORY;

  00010	c6 45 f4 01	 mov	 BYTE PTR _Cell$[ebp], 1

; 187  : 		cell = WORD_MAX;

  00014	66 89 45 f5	 mov	 WORD PTR _Cell$[ebp+1], ax
; File D:\_m2work\txoko-m2-work\txoko-client-src\source\UserInterface\PythonPlayerModule.cpp

; 980  : 	switch (PyTuple_Size(poArgs))

  00018	ff 15 00 00 00
	00		 call	 DWORD PTR __imp__PyTuple_Size
  0001e	83 c4 04	 add	 esp, 4
  00021	83 e8 02	 sub	 eax, 2
  00024	74 4d		 je	 SHORT $LN4@playerGetI
  00026	83 e8 01	 sub	 eax, 1
  00029	75 39		 jne	 SHORT $LN22@playerGetI

; 987  : 			return Py_BuildException();
; 988  : 
; 989  : 		break;
; 990  : 	case 3:
; 991  : 		if (!PyTuple_GetByte(poArgs, 0, &Cell.window_type))

  0002b	8d 45 f4	 lea	 eax, DWORD PTR _Cell$[ebp]
  0002e	50		 push	 eax
  0002f	6a 00		 push	 0
  00031	56		 push	 esi
  00032	e8 00 00 00 00	 call	 ?PyTuple_GetByte@@YA_NPAU_object@@HPAE@Z ; PyTuple_GetByte
  00037	83 c4 0c	 add	 esp, 12			; 0000000cH
  0003a	84 c0		 test	 al, al
  0003c	74 26		 je	 SHORT $LN22@playerGetI

; 992  : 			return Py_BuildException();
; 993  : 
; 994  : 		if (!PyTuple_GetInteger(poArgs, 1, &Cell.cell))

  0003e	8d 45 f5	 lea	 eax, DWORD PTR _Cell$[ebp+1]
  00041	50		 push	 eax
  00042	6a 01		 push	 1
  00044	56		 push	 esi
  00045	e8 00 00 00 00	 call	 ?PyTuple_GetInteger@@YA_NPAU_object@@HPAG@Z ; PyTuple_GetInteger
  0004a	83 c4 0c	 add	 esp, 12			; 0000000cH
  0004d	84 c0		 test	 al, al
  0004f	74 13		 je	 SHORT $LN22@playerGetI

; 995  : 			return Py_BuildException();
; 996  : 
; 997  : 		if (!PyTuple_GetInteger(poArgs, 2, &iAttributeSlotIndex))

  00051	8d 45 f0	 lea	 eax, DWORD PTR _iAttributeSlotIndex$[ebp]
  00054	50		 push	 eax
  00055	6a 02		 push	 2
  00057	56		 push	 esi
  00058	e8 00 00 00 00	 call	 ?PyTuple_GetInteger@@YA_NPAU_object@@HPAH@Z ; PyTuple_GetInteger
  0005d	83 c4 0c	 add	 esp, 12			; 0000000cH
  00060	84 c0		 test	 al, al
  00062	75 35		 jne	 SHORT $LN6@playerGetI
$LN22@playerGetI:

; 1008 : }

  00064	6a 00		 push	 0
  00066	e8 00 00 00 00	 call	 ?Py_BuildException@@YAPAU_object@@PBDZZ ; Py_BuildException
  0006b	83 c4 04	 add	 esp, 4
  0006e	5e		 pop	 esi
  0006f	8b e5		 mov	 esp, ebp
  00071	5d		 pop	 ebp
  00072	c3		 ret	 0
$LN4@playerGetI:

; 981  : 	{
; 982  : 	case 2:
; 983  : 		if (!PyTuple_GetInteger(poArgs, 0, &Cell.cell))

  00073	8d 45 f5	 lea	 eax, DWORD PTR _Cell$[ebp+1]
  00076	50		 push	 eax
  00077	6a 00		 push	 0
  00079	56		 push	 esi
  0007a	e8 00 00 00 00	 call	 ?PyTuple_GetInteger@@YA_NPAU_object@@HPAG@Z ; PyTuple_GetInteger
  0007f	83 c4 0c	 add	 esp, 12			; 0000000cH
  00082	84 c0		 test	 al, al
  00084	74 de		 je	 SHORT $LN22@playerGetI

; 984  : 			return Py_BuildException();
; 985  : 
; 986  : 		if (!PyTuple_GetInteger(poArgs, 1, &iAttributeSlotIndex))

  00086	8d 45 f0	 lea	 eax, DWORD PTR _iAttributeSlotIndex$[ebp]
  00089	50		 push	 eax
  0008a	6a 01		 push	 1
  0008c	56		 push	 esi
  0008d	e8 00 00 00 00	 call	 ?PyTuple_GetInteger@@YA_NPAU_object@@HPAH@Z ; PyTuple_GetInteger
  00092	83 c4 0c	 add	 esp, 12			; 0000000cH
  00095	84 c0		 test	 al, al
  00097	74 cb		 je	 SHORT $LN22@playerGetI
$LN6@playerGetI:

; 998  : 			return Py_BuildException();
; 999  : 		break;
; 1000 : 	default:
; 1001 : 		return Py_BuildException();
; 1002 : 	}
; 1003 : 	BYTE byType;
; 1004 : 	short sValue;
; 1005 : 	CPythonPlayer::Instance().GetItemAttribute(Cell, iAttributeSlotIndex, &byType, &sValue);

  00099	8d 45 f8	 lea	 eax, DWORD PTR _sValue$[ebp]
  0009c	50		 push	 eax
  0009d	8d 45 ff	 lea	 eax, DWORD PTR _byType$[ebp]
  000a0	50		 push	 eax
  000a1	ff 75 f0	 push	 DWORD PTR _iAttributeSlotIndex$[ebp]
  000a4	66 8b 45 f4	 mov	 ax, WORD PTR _Cell$[ebp]
  000a8	51		 push	 ecx
  000a9	8b cc		 mov	 ecx, esp
  000ab	66 89 01	 mov	 WORD PTR [ecx], ax
  000ae	8a 45 f6	 mov	 al, BYTE PTR _Cell$[ebp+2]
  000b1	88 41 02	 mov	 BYTE PTR [ecx+2], al
  000b4	8b 0d 00 00 00
	00		 mov	 ecx, DWORD PTR ?ms_singleton@?$CSingleton@VCPythonPlayer@@@@0PAVCPythonPlayer@@A ; CSingleton<CPythonPlayer>::ms_singleton
  000ba	e8 00 00 00 00	 call	 ?GetItemAttribute@CPythonPlayer@@QAEXUSItemPos@@KPAEPAF@Z ; CPythonPlayer::GetItemAttribute

; 1006 : 
; 1007 : 	return Py_BuildValue("ii", byType, sValue);

  000bf	0f bf 45 f8	 movsx	 eax, WORD PTR _sValue$[ebp]
  000c3	50		 push	 eax
  000c4	0f b6 45 ff	 movzx	 eax, BYTE PTR _byType$[ebp]
  000c8	50		 push	 eax
  000c9	68 00 00 00 00	 push	 OFFSET ??_C@_02PDIHAGKM@ii@
  000ce	ff 15 00 00 00
	00		 call	 DWORD PTR __imp__Py_BuildValue
  000d4	83 c4 0c	 add	 esp, 12			; 0000000cH

; 1008 : }

  000d7	5e		 pop	 esi
  000d8	8b e5		 mov	 esp, ebp
  000da	5d		 pop	 ebp
  000db	c3		 ret	 0
?playerGetItemAttribute@@YAPAU_object@@PAU1@0@Z ENDP	; playerGetItemAttribute
_TEXT	ENDS
; Function compile flags: /Ogtp
; File D:\_m2work\txoko-m2-work\txoko-client-src\source\UserInterface\PythonPlayerModule.cpp
; File D:\_m2work\txoko-m2-work\txoko-client-src\source\UserInterface\GameType.h
; File D:\_m2work\txoko-m2-work\txoko-client-src\source\UserInterface\PythonPlayerModule.cpp
; File D:\_m2work\txoko-m2-work\txoko-client-src\source\UserInterface\GameType.h
; File D:\_m2work\txoko-m2-work\txoko-client-src\source\UserInterface\PythonPlayerModule.cpp
;	COMDAT ?playerGetItemLink@@YAPAU_object@@PAU1@0@Z
_TEXT	SEGMENT
_pItemData$ = -1296					; size = 4
_Cell$ = -1292						; size = 3
_isAttr$1$ = -1285					; size = 1
_buf$ = -1284						; size = 1024
_itemlink$1 = -260					; size = 256
__$ArrayPad$ = -4					; size = 4
_poSelf$ = 8						; size = 4
_poArgs$ = 12						; size = 4
?playerGetItemLink@@YAPAU_object@@PAU1@0@Z PROC		; playerGetItemLink, COMDAT

; 1011 : {

  00000	55		 push	 ebp
  00001	8b ec		 mov	 ebp, esp
  00003	81 ec 10 05 00
	00		 sub	 esp, 1296		; 00000510H
  00009	a1 00 00 00 00	 mov	 eax, DWORD PTR ___security_cookie
  0000e	33 c5		 xor	 eax, ebp
  00010	89 45 fc	 mov	 DWORD PTR __$ArrayPad$[ebp], eax
  00013	53		 push	 ebx
  00014	56		 push	 esi
  00015	8b 75 0c	 mov	 esi, DWORD PTR _poArgs$[ebp]
; File D:\_m2work\txoko-m2-work\txoko-client-src\source\UserInterface\GameType.h

; 187  : 		cell = WORD_MAX;

  00018	b8 ff ff 00 00	 mov	 eax, 65535		; 0000ffffH
; File D:\_m2work\txoko-m2-work\txoko-client-src\source\UserInterface\PythonPlayerModule.cpp

; 1011 : {

  0001d	57		 push	 edi

; 1014 : 	switch (PyTuple_Size(poArgs))

  0001e	56		 push	 esi
; File D:\_m2work\txoko-m2-work\txoko-client-src\source\UserInterface\GameType.h

; 186  : 		window_type =     INVENTORY;

  0001f	c6 85 f4 fa ff
	ff 01		 mov	 BYTE PTR _Cell$[ebp], 1

; 187  : 		cell = WORD_MAX;

  00026	66 89 85 f5 fa
	ff ff		 mov	 WORD PTR _Cell$[ebp+1], ax
; File D:\_m2work\txoko-m2-work\txoko-client-src\source\UserInterface\PythonPlayerModule.cpp

; 1014 : 	switch (PyTuple_Size(poArgs))

  0002d	ff 15 00 00 00
	00		 call	 DWORD PTR __imp__PyTuple_Size
  00033	83 c4 04	 add	 esp, 4
  00036	83 e8 01	 sub	 eax, 1
  00039	74 26		 je	 SHORT $LN7@playerGetI
  0003b	83 e8 01	 sub	 eax, 1
  0003e	75 37		 jne	 SHORT $LN45@playerGetI

; 1018 : 			return Py_BuildException();
; 1019 : 		break;
; 1020 : 	case 2:
; 1021 : 		if (!PyTuple_GetByte(poArgs, 0, &Cell.window_type))

  00040	8d 85 f4 fa ff
	ff		 lea	 eax, DWORD PTR _Cell$[ebp]
  00046	50		 push	 eax
  00047	6a 00		 push	 0
  00049	56		 push	 esi
  0004a	e8 00 00 00 00	 call	 ?PyTuple_GetByte@@YA_NPAU_object@@HPAE@Z ; PyTuple_GetByte
  0004f	83 c4 0c	 add	 esp, 12			; 0000000cH
  00052	84 c0		 test	 al, al
  00054	74 21		 je	 SHORT $LN45@playerGetI

; 1022 : 			return Py_BuildException();
; 1023 : 		if (!PyTuple_GetInteger(poArgs, 1, &Cell.cell))

  00056	8d 85 f5 fa ff
	ff		 lea	 eax, DWORD PTR _Cell$[ebp+1]
  0005c	50		 push	 eax
  0005d	6a 01		 push	 1

; 1024 : 			return Py_BuildException();

  0005f	eb 09		 jmp	 SHORT $LN46@playerGetI
$LN7@playerGetI:

; 1015 : 	{
; 1016 : 	case 1:	
; 1017 : 		if (!PyTuple_GetInteger(poArgs, 0, &Cell.cell))

  00061	8d 85 f5 fa ff
	ff		 lea	 eax, DWORD PTR _Cell$[ebp+1]
  00067	50		 push	 eax
  00068	6a 00		 push	 0
$LN46@playerGetI:

; 1070 : }

  0006a	56		 push	 esi
  0006b	e8 00 00 00 00	 call	 ?PyTuple_GetInteger@@YA_NPAU_object@@HPAG@Z ; PyTuple_GetInteger
  00070	83 c4 0c	 add	 esp, 12			; 0000000cH
  00073	84 c0		 test	 al, al
  00075	75 1b		 jne	 SHORT $LN8@playerGetI
$LN45@playerGetI:
  00077	6a 00		 push	 0
  00079	e8 00 00 00 00	 call	 ?Py_BuildException@@YAPAU_object@@PBDZZ ; Py_BuildException
  0007e	83 c4 04	 add	 esp, 4
  00081	5f		 pop	 edi
  00082	5e		 pop	 esi
  00083	5b		 pop	 ebx
  00084	8b 4d fc	 mov	 ecx, DWORD PTR __$ArrayPad$[ebp]
  00087	33 cd		 xor	 ecx, ebp
  00089	e8 00 00 00 00	 call	 @__security_check_cookie@4
  0008e	8b e5		 mov	 esp, ebp
  00090	5d		 pop	 ebp
  00091	c3		 ret	 0
$LN8@playerGetI:

; 1025 : 		break;
; 1026 : 	default:
; 1027 : 		return Py_BuildException();
; 1028 : 	}
; 1029 : 	const TItemData * pPlayerItem = CPythonPlayer::Instance().GetItemData(Cell);

  00092	66 8b 85 f4 fa
	ff ff		 mov	 ax, WORD PTR _Cell$[ebp]
  00099	51		 push	 ecx
  0009a	8b cc		 mov	 ecx, esp
  0009c	66 89 01	 mov	 WORD PTR [ecx], ax
  0009f	8a 85 f6 fa ff
	ff		 mov	 al, BYTE PTR _Cell$[ebp+2]
  000a5	88 41 02	 mov	 BYTE PTR [ecx+2], al
  000a8	8b 0d 00 00 00
	00		 mov	 ecx, DWORD PTR ?ms_singleton@?$CSingleton@VCPythonPlayer@@@@0PAVCPythonPlayer@@A ; CSingleton<CPythonPlayer>::ms_singleton
  000ae	e8 00 00 00 00	 call	 ?GetItemData@CPythonPlayer@@QBEPBUpacket_item@@USItemPos@@@Z ; CPythonPlayer::GetItemData
  000b3	8b f0		 mov	 esi, eax

; 1030 : 	CItemData * pItemData = NULL;

  000b5	c7 85 f0 fa ff
	ff 00 00 00 00	 mov	 DWORD PTR _pItemData$[ebp], 0

; 1031 : 	char buf[1024];
; 1032 : 
; 1033 : 	if (pPlayerItem && CItemManager::Instance().GetItemDataPointer(pPlayerItem->vnum, &pItemData))

  000bf	85 f6		 test	 esi, esi
  000c1	0f 84 01 01 00
	00		 je	 $LN13@playerGetI
  000c7	8b 0d 00 00 00
	00		 mov	 ecx, DWORD PTR ?ms_singleton@?$CSingleton@VCItemManager@@@@0PAVCItemManager@@A ; CSingleton<CItemManager>::ms_singleton
  000cd	8d 85 f0 fa ff
	ff		 lea	 eax, DWORD PTR _pItemData$[ebp]
  000d3	50		 push	 eax
  000d4	ff 36		 push	 DWORD PTR [esi]
  000d6	e8 00 00 00 00	 call	 ?GetItemDataPointer@CItemManager@@QAEHKPAPAVCItemData@@@Z ; CItemManager::GetItemDataPointer
  000db	85 c0		 test	 eax, eax
  000dd	0f 84 e5 00 00
	00		 je	 $LN13@playerGetI

; 1034 : 	{
; 1035 : 		char itemlink[256];
; 1036 : 		int len;
; 1037 : 		bool isAttr = false;
; 1038 : 
; 1039 : 		len = snprintf(itemlink, sizeof(itemlink), "item:%x:%x:%x:%x:%x", 

  000e3	ff 76 15	 push	 DWORD PTR [esi+21]
  000e6	32 c0		 xor	 al, al
  000e8	ff 76 11	 push	 DWORD PTR [esi+17]
  000eb	88 85 fb fa ff
	ff		 mov	 BYTE PTR _isAttr$1$[ebp], al
  000f1	8d 85 fc fe ff
	ff		 lea	 eax, DWORD PTR _itemlink$1[ebp]
  000f7	ff 76 0d	 push	 DWORD PTR [esi+13]
  000fa	ff 76 05	 push	 DWORD PTR [esi+5]
  000fd	ff 36		 push	 DWORD PTR [esi]
  000ff	68 00 00 00 00	 push	 OFFSET ??_C@_0BE@FGPADLIF@item?3?$CFx?3?$CFx?3?$CFx?3?$CFx?3?$CFx@
  00104	68 00 01 00 00	 push	 256			; 00000100H
  00109	50		 push	 eax
  0010a	e8 00 00 00 00	 call	 __snprintf
  0010f	83 c4 20	 add	 esp, 32			; 00000020H
  00112	8b f8		 mov	 edi, eax
  00114	83 c6 1a	 add	 esi, 26			; 0000001aH
  00117	bb 07 00 00 00	 mov	 ebx, 7
  0011c	0f 1f 40 00	 npad	 4
$LL6@playerGetI:

; 1044 : 			if (pPlayerItem->aAttr[i].bType != 0)

  00120	8a 4e ff	 mov	 cl, BYTE PTR [esi-1]
  00123	84 c9		 test	 cl, cl
  00125	74 2f		 je	 SHORT $LN4@playerGetI

; 1045 : 			{
; 1046 : 				len += snprintf(itemlink + len, sizeof(itemlink) - len, ":%x:%d", 

  00127	0f bf 06	 movsx	 eax, WORD PTR [esi]
  0012a	50		 push	 eax
  0012b	0f b6 c1	 movzx	 eax, cl
  0012e	50		 push	 eax
  0012f	b8 00 01 00 00	 mov	 eax, 256		; 00000100H
  00134	2b c7		 sub	 eax, edi
  00136	68 00 00 00 00	 push	 OFFSET ??_C@_06FAMCNHHL@?3?$CFx?3?$CFd@
  0013b	50		 push	 eax
  0013c	8d 85 fc fe ff
	ff		 lea	 eax, DWORD PTR _itemlink$1[ebp]
  00142	03 c7		 add	 eax, edi
  00144	50		 push	 eax
  00145	e8 00 00 00 00	 call	 __snprintf
  0014a	83 c4 14	 add	 esp, 20			; 00000014H

; 1047 : 						pPlayerItem->aAttr[i].bType, pPlayerItem->aAttr[i].sValue);
; 1048 : 				isAttr = true;

  0014d	c6 85 fb fa ff
	ff 01		 mov	 BYTE PTR _isAttr$1$[ebp], 1
  00154	03 f8		 add	 edi, eax
$LN4@playerGetI:

; 1040 : 				pPlayerItem->vnum, pPlayerItem->flags,
; 1041 : 				pPlayerItem->alSockets[0], pPlayerItem->alSockets[1], pPlayerItem->alSockets[2]);
; 1042 : 
; 1043 : 		for (int i = 0; i < ITEM_ATTRIBUTE_SLOT_MAX_NUM; ++i)

  00156	83 c6 03	 add	 esi, 3
  00159	83 eb 01	 sub	 ebx, 1
  0015c	75 c2		 jne	 SHORT $LL6@playerGetI

; 1049 : 			}
; 1050 : 
; 1051 : 
; 1052 : 		if( GetDefaultCodePage() == CP_ARABIC ) {

  0015e	e8 00 00 00 00	 call	 ?GetDefaultCodePage@@YAKXZ ; GetDefaultCodePage
  00163	8b 8d f0 fa ff
	ff		 mov	 ecx, DWORD PTR _pItemData$[ebp]
  00169	3d e8 04 00 00	 cmp	 eax, 1256		; 000004e8H
  0016e	75 21		 jne	 SHORT $LN16@playerGetI

; 1053 : 			if (isAttr)
; 1054 : 				//"item:::0:1:2"
; 1055 : 				snprintf(buf, sizeof(buf), " |h|r[%s]|cffffc700|H%s|h", pItemData->GetName(), itemlink);

  00170	be 00 00 00 00	 mov	 esi, OFFSET ??_C@_0BK@MCOKCAKI@?5?$HMh?$HMr?$FL?$CFs?$FN?$HMcffffc700?$HMH?$CFs?$HMh@
  00175	38 9d fb fa ff
	ff		 cmp	 BYTE PTR _isAttr$1$[ebp], bl
  0017b	75 05		 jne	 SHORT $LN43@playerGetI

; 1056 : 			else
; 1057 : 				snprintf(buf, sizeof(buf), " |h|r[%s]|cfff1e6c0|H%s|h", pItemData->GetName(), itemlink);

  0017d	be 00 00 00 00	 mov	 esi, OFFSET ??_C@_0BK@MGKBEPOF@?5?$HMh?$HMr?$FL?$CFs?$FN?$HMcfff1e6c0?$HMH?$CFs?$HMh@
$LN43@playerGetI:

; 1058 : 		} else {

  00182	e8 00 00 00 00	 call	 ?GetName@CItemData@@QBEPBDXZ ; CItemData::GetName
  00187	8b f8		 mov	 edi, eax
  00189	8d 85 fc fe ff
	ff		 lea	 eax, DWORD PTR _itemlink$1[ebp]
  0018f	eb 1e		 jmp	 SHORT $LN21@playerGetI
$LN16@playerGetI:

; 1059 : 			if (isAttr)

  00191	80 bd fb fa ff
	ff 00		 cmp	 BYTE PTR _isAttr$1$[ebp], 0
  00198	8d bd fc fe ff
	ff		 lea	 edi, DWORD PTR _itemlink$1[ebp]

; 1060 : 				//"item:::0:1:2"
; 1061 : 				snprintf(buf, sizeof(buf), "|cffffc700|H%s|h[%s]|h|r", itemlink, pItemData->GetName());

  0019e	be 00 00 00 00	 mov	 esi, OFFSET ??_C@_0BJ@DABMGIOF@?$HMcffffc700?$HMH?$CFs?$HMh?$FL?$CFs?$FN?$HMh?$HMr@
  001a3	75 05		 jne	 SHORT $LN44@playerGetI

; 1062 : 			else
; 1063 : 				snprintf(buf, sizeof(buf), "|cfff1e6c0|H%s|h[%s]|h|r", itemlink, pItemData->GetName());

  001a5	be 00 00 00 00	 mov	 esi, OFFSET ??_C@_0BJ@GPGFNPLK@?$HMcfff1e6c0?$HMH?$CFs?$HMh?$FL?$CFs?$FN?$HMh?$HMr@
$LN44@playerGetI:

; 1064 : 		}
; 1065 : 	}

  001aa	e8 00 00 00 00	 call	 ?GetName@CItemData@@QBEPBDXZ ; CItemData::GetName
$LN21@playerGetI:
  001af	50		 push	 eax
  001b0	57		 push	 edi
  001b1	56		 push	 esi
  001b2	8d 85 fc fa ff
	ff		 lea	 eax, DWORD PTR _buf$[ebp]
  001b8	68 00 04 00 00	 push	 1024			; 00000400H
  001bd	50		 push	 eax
  001be	e8 00 00 00 00	 call	 __snprintf
  001c3	83 c4 14	 add	 esp, 20			; 00000014H
  001c6	eb 07		 jmp	 SHORT $LN14@playerGetI
$LN13@playerGetI:

; 1066 : 	else
; 1067 : 		buf[0] = '\0';

  001c8	c6 85 fc fa ff
	ff 00		 mov	 BYTE PTR _buf$[ebp], 0
$LN14@playerGetI:

; 1068 : 
; 1069 : 	return Py_BuildValue("s", buf);

  001cf	8d 85 fc fa ff
	ff		 lea	 eax, DWORD PTR _buf$[ebp]
  001d5	50		 push	 eax
  001d6	68 00 00 00 00	 push	 OFFSET ??_C@_01LKDEMHDF@s@
  001db	ff 15 00 00 00
	00		 call	 DWORD PTR __imp__Py_BuildValue

; 1070 : }

  001e1	8b 4d fc	 mov	 ecx, DWORD PTR __$ArrayPad$[ebp]
  001e4	83 c4 08	 add	 esp, 8
  001e7	33 cd		 xor	 ecx, ebp
  001e9	5f		 pop	 edi
  001ea	5e		 pop	 esi
  001eb	5b		 pop	 ebx
  001ec	e8 00 00 00 00	 call	 @__security_check_cookie@4
  001f1	8b e5		 mov	 esp, ebp
  001f3	5d		 pop	 ebp
  001f4	c3		 ret	 0
?playerGetItemLink@@YAPAU_object@@PAU1@0@Z ENDP		; playerGetItemLink
_TEXT	ENDS
; Function compile flags: /Ogtp
; File D:\_m2work\txoko-m2-work\txoko-client-src\source\UserInterface\PythonPlayerModule.cpp
; File D:\_m2work\txoko-m2-work\txoko-client-src\source\UserInterface\GameType.h
; File D:\_m2work\txoko-m2-work\txoko-client-src\source\UserInterface\PythonPlayerModule.cpp
; File D:\_m2work\txoko-m2-work\txoko-client-src\source\UserInterface\GameType.h
; File D:\_m2work\txoko-m2-work\txoko-client-src\source\UserInterface\PythonPlayerModule.cpp
;	COMDAT ?playerGetISellItemPrice@@YAPAU_object@@PAU1@0@Z
_TEXT	SEGMENT
tv133 = -12						; size = 4
_pItemData$ = -8					; size = 4
_Cell$ = -4						; size = 3
_poSelf$ = 8						; size = 4
_poArgs$ = 12						; size = 4
?playerGetISellItemPrice@@YAPAU_object@@PAU1@0@Z PROC	; playerGetISellItemPrice, COMDAT

; 1073 : {

  00000	55		 push	 ebp
  00001	8b ec		 mov	 ebp, esp
  00003	83 ec 0c	 sub	 esp, 12			; 0000000cH
  00006	56		 push	 esi

; 1076 : 	switch (PyTuple_Size(poArgs))

  00007	8b 75 0c	 mov	 esi, DWORD PTR _poArgs$[ebp]
; File D:\_m2work\txoko-m2-work\txoko-client-src\source\UserInterface\GameType.h

; 187  : 		cell = WORD_MAX;

  0000a	b8 ff ff 00 00	 mov	 eax, 65535		; 0000ffffH
; File D:\_m2work\txoko-m2-work\txoko-client-src\source\UserInterface\PythonPlayerModule.cpp

; 1073 : {

  0000f	57		 push	 edi

; 1076 : 	switch (PyTuple_Size(poArgs))

  00010	56		 push	 esi
; File D:\_m2work\txoko-m2-work\txoko-client-src\source\UserInterface\GameType.h

; 186  : 		window_type =     INVENTORY;

  00011	c6 45 fc 01	 mov	 BYTE PTR _Cell$[ebp], 1

; 187  : 		cell = WORD_MAX;

  00015	66 89 45 fd	 mov	 WORD PTR _Cell$[ebp+1], ax
; File D:\_m2work\txoko-m2-work\txoko-client-src\source\UserInterface\PythonPlayerModule.cpp

; 1076 : 	switch (PyTuple_Size(poArgs))

  00019	ff 15 00 00 00
	00		 call	 DWORD PTR __imp__PyTuple_Size
  0001f	83 c4 04	 add	 esp, 4
  00022	83 e8 01	 sub	 eax, 1
  00025	74 20		 je	 SHORT $LN4@playerGetI
  00027	83 e8 01	 sub	 eax, 1
  0002a	75 2e		 jne	 SHORT $LN24@playerGetI

; 1080 : 			return Py_BuildException();
; 1081 : 		break;
; 1082 : 	case 2:
; 1083 : 		if (!PyTuple_GetByte(poArgs, 0, &Cell.window_type))

  0002c	8d 45 fc	 lea	 eax, DWORD PTR _Cell$[ebp]
  0002f	50		 push	 eax
  00030	6a 00		 push	 0
  00032	56		 push	 esi
  00033	e8 00 00 00 00	 call	 ?PyTuple_GetByte@@YA_NPAU_object@@HPAE@Z ; PyTuple_GetByte
  00038	83 c4 0c	 add	 esp, 12			; 0000000cH
  0003b	84 c0		 test	 al, al
  0003d	74 1b		 je	 SHORT $LN24@playerGetI

; 1084 : 			return Py_BuildException();
; 1085 : 		if (!PyTuple_GetInteger(poArgs, 1, &Cell.cell))

  0003f	8d 45 fd	 lea	 eax, DWORD PTR _Cell$[ebp+1]
  00042	50		 push	 eax
  00043	6a 01		 push	 1

; 1086 : 			return Py_BuildException();

  00045	eb 06		 jmp	 SHORT $LN25@playerGetI
$LN4@playerGetI:

; 1077 : 	{
; 1078 : 	case 1:	
; 1079 : 		if (!PyTuple_GetInteger(poArgs, 0, &Cell.cell))

  00047	8d 45 fd	 lea	 eax, DWORD PTR _Cell$[ebp+1]
  0004a	50		 push	 eax
  0004b	6a 00		 push	 0
$LN25@playerGetI:

; 1105 : }

  0004d	56		 push	 esi
  0004e	e8 00 00 00 00	 call	 ?PyTuple_GetInteger@@YA_NPAU_object@@HPAG@Z ; PyTuple_GetInteger
  00053	83 c4 0c	 add	 esp, 12			; 0000000cH
  00056	84 c0		 test	 al, al
  00058	75 10		 jne	 SHORT $LN5@playerGetI
$LN24@playerGetI:
  0005a	6a 00		 push	 0
  0005c	e8 00 00 00 00	 call	 ?Py_BuildException@@YAPAU_object@@PBDZZ ; Py_BuildException
  00061	83 c4 04	 add	 esp, 4
  00064	5f		 pop	 edi
  00065	5e		 pop	 esi
  00066	8b e5		 mov	 esp, ebp
  00068	5d		 pop	 ebp
  00069	c3		 ret	 0
$LN5@playerGetI:

; 1087 : 		break;
; 1088 : 	default:
; 1089 : 		return Py_BuildException();
; 1090 : 	}
; 1091 : 	CItemData * pItemData;
; 1092 : 
; 1093 : 	if (!CItemManager::Instance().GetItemDataPointer(CPythonPlayer::Instance().GetItemIndex(Cell), &pItemData))

  0006a	8b 3d 00 00 00
	00		 mov	 edi, DWORD PTR ?ms_singleton@?$CSingleton@VCPythonPlayer@@@@0PAVCPythonPlayer@@A ; CSingleton<CPythonPlayer>::ms_singleton
  00070	a1 00 00 00 00	 mov	 eax, DWORD PTR ?ms_singleton@?$CSingleton@VCItemManager@@@@0PAVCItemManager@@A ; CSingleton<CItemManager>::ms_singleton
  00075	8a 4d fe	 mov	 cl, BYTE PTR _Cell$[ebp+2]
  00078	66 8b 55 fc	 mov	 dx, WORD PTR _Cell$[ebp]
  0007c	89 45 f4	 mov	 DWORD PTR tv133[ebp], eax
  0007f	8b 47 04	 mov	 eax, DWORD PTR [edi+4]
  00082	51		 push	 ecx
  00083	8b 70 40	 mov	 esi, DWORD PTR [eax+64]
  00086	8b c4		 mov	 eax, esp
  00088	66 89 10	 mov	 WORD PTR [eax], dx
  0008b	88 48 02	 mov	 BYTE PTR [eax+2], cl
  0008e	8d 4f 04	 lea	 ecx, DWORD PTR [edi+4]
  00091	ff d6		 call	 esi
  00093	8d 4d f8	 lea	 ecx, DWORD PTR _pItemData$[ebp]
  00096	51		 push	 ecx
  00097	8b 4d f4	 mov	 ecx, DWORD PTR tv133[ebp]
  0009a	50		 push	 eax
  0009b	e8 00 00 00 00	 call	 ?GetItemDataPointer@CItemManager@@QAEHKPAPAVCItemData@@@Z ; CItemManager::GetItemDataPointer
  000a0	85 c0		 test	 eax, eax
  000a2	75 15		 jne	 SHORT $LN10@playerGetI

; 1094 : 		return Py_BuildValue("i", 0);

  000a4	50		 push	 eax

; 1105 : }

  000a5	68 00 00 00 00	 push	 OFFSET ??_C@_01KBJDNOO@i@
  000aa	ff 15 00 00 00
	00		 call	 DWORD PTR __imp__Py_BuildValue
  000b0	83 c4 08	 add	 esp, 8
  000b3	5f		 pop	 edi
  000b4	5e		 pop	 esi
  000b5	8b e5		 mov	 esp, ebp
  000b7	5d		 pop	 ebp
  000b8	c3		 ret	 0
$LN10@playerGetI:

; 1095 : 
; 1096 : 	int iPrice;
; 1097 : 
; 1098 : 	if (pItemData->IsFlag(CItemData::ITEM_FLAG_COUNT_PER_1GOLD))

  000b9	8b 4d f8	 mov	 ecx, DWORD PTR _pItemData$[ebp]
  000bc	6a 08		 push	 8
  000be	e8 00 00 00 00	 call	 ?IsFlag@CItemData@@QBEHK@Z ; CItemData::IsFlag
  000c3	8b 3d 00 00 00
	00		 mov	 edi, DWORD PTR ?ms_singleton@?$CSingleton@VCPythonPlayer@@@@0PAVCPythonPlayer@@A ; CSingleton<CPythonPlayer>::ms_singleton
  000c9	85 c0		 test	 eax, eax
  000cb	8a 4d fe	 mov	 cl, BYTE PTR _Cell$[ebp+2]
  000ce	66 8b 55 fc	 mov	 dx, WORD PTR _Cell$[ebp]
  000d2	51		 push	 ecx
  000d3	8b 47 04	 mov	 eax, DWORD PTR [edi+4]
  000d6	8b 70 48	 mov	 esi, DWORD PTR [eax+72]
  000d9	8b c4		 mov	 eax, esp
  000db	66 89 10	 mov	 WORD PTR [eax], dx
  000de	88 48 02	 mov	 BYTE PTR [eax+2], cl
  000e1	8d 4f 04	 lea	 ecx, DWORD PTR [edi+4]
  000e4	74 18		 je	 SHORT $LN11@playerGetI

; 1099 : 		iPrice = CPythonPlayer::Instance().GetItemCount(Cell) / pItemData->GetISellItemPrice();

  000e6	ff d6		 call	 esi
  000e8	8b 4d f8	 mov	 ecx, DWORD PTR _pItemData$[ebp]
  000eb	8b f0		 mov	 esi, eax
  000ed	e8 00 00 00 00	 call	 ?GetISellItemPrice@CItemData@@QBEKXZ ; CItemData::GetISellItemPrice
  000f2	8b c8		 mov	 ecx, eax
  000f4	33 d2		 xor	 edx, edx
  000f6	8b c6		 mov	 eax, esi
  000f8	f7 f1		 div	 ecx
  000fa	8b c8		 mov	 ecx, eax
  000fc	eb 11		 jmp	 SHORT $LN12@playerGetI
$LN11@playerGetI:

; 1100 : 	else
; 1101 : 		iPrice = pItemData->GetISellItemPrice() * CPythonPlayer::Instance().GetItemCount(Cell);

  000fe	ff d6		 call	 esi
  00100	8b 4d f8	 mov	 ecx, DWORD PTR _pItemData$[ebp]
  00103	8b f0		 mov	 esi, eax
  00105	e8 00 00 00 00	 call	 ?GetISellItemPrice@CItemData@@QBEKXZ ; CItemData::GetISellItemPrice
  0010a	8b c8		 mov	 ecx, eax
  0010c	0f af ce	 imul	 ecx, esi
$LN12@playerGetI:

; 1102 : 
; 1103 : 	iPrice /= 5;

  0010f	b8 67 66 66 66	 mov	 eax, 1717986919		; 66666667H
  00114	f7 e9		 imul	 ecx
  00116	d1 fa		 sar	 edx, 1
  00118	8b c2		 mov	 eax, edx
  0011a	c1 e8 1f	 shr	 eax, 31			; 0000001fH
  0011d	03 c2		 add	 eax, edx

; 1104 : 	return Py_BuildValue("i", iPrice);

  0011f	50		 push	 eax

; 1105 : }

  00120	68 00 00 00 00	 push	 OFFSET ??_C@_01KBJDNOO@i@
  00125	ff 15 00 00 00
	00		 call	 DWORD PTR __imp__Py_BuildValue
  0012b	83 c4 08	 add	 esp, 8
  0012e	5f		 pop	 edi
  0012f	5e		 pop	 esi
  00130	8b e5		 mov	 esp, ebp
  00132	5d		 pop	 ebp
  00133	c3		 ret	 0
?playerGetISellItemPrice@@YAPAU_object@@PAU1@0@Z ENDP	; playerGetISellItemPrice
_TEXT	ENDS
; Function compile flags: /Ogtp
; File D:\_m2work\txoko-m2-work\txoko-client-src\source\UserInterface\PythonPlayerModule.cpp
;	COMDAT ?playerGetQuickPage@@YAPAU_object@@PAU1@0@Z
_TEXT	SEGMENT
_poSelf$ = 8						; size = 4
_poArgs$ = 12						; size = 4
?playerGetQuickPage@@YAPAU_object@@PAU1@0@Z PROC	; playerGetQuickPage, COMDAT

; 1109 : 	return Py_BuildValue("i", CPythonPlayer::Instance().GetQuickPage());

  00000	8b 0d 00 00 00
	00		 mov	 ecx, DWORD PTR ?ms_singleton@?$CSingleton@VCPythonPlayer@@@@0PAVCPythonPlayer@@A ; CSingleton<CPythonPlayer>::ms_singleton
  00006	e8 00 00 00 00	 call	 ?GetQuickPage@CPythonPlayer@@QAEHXZ ; CPythonPlayer::GetQuickPage
  0000b	50		 push	 eax
  0000c	68 00 00 00 00	 push	 OFFSET ??_C@_01KBJDNOO@i@
  00011	ff 15 00 00 00
	00		 call	 DWORD PTR __imp__Py_BuildValue
  00017	83 c4 08	 add	 esp, 8

; 1110 : }

  0001a	c3		 ret	 0
?playerGetQuickPage@@YAPAU_object@@PAU1@0@Z ENDP	; playerGetQuickPage
_TEXT	ENDS
; Function compile flags: /Ogtp
; File D:\_m2work\txoko-m2-work\txoko-client-src\source\UserInterface\PythonPlayerModule.cpp
;	COMDAT ?playerSetQuickPage@@YAPAU_object@@PAU1@0@Z
_TEXT	SEGMENT
_iPageIndex$ = -4					; size = 4
_poSelf$ = 8						; size = 4
_poArgs$ = 12						; size = 4
?playerSetQuickPage@@YAPAU_object@@PAU1@0@Z PROC	; playerSetQuickPage, COMDAT

; 1113 : {

  00000	55		 push	 ebp
  00001	8b ec		 mov	 ebp, esp
  00003	51		 push	 ecx

; 1114 : 	int iPageIndex;
; 1115 : 	if (!PyTuple_GetInteger(poArgs, 0, &iPageIndex))

  00004	8d 45 fc	 lea	 eax, DWORD PTR _iPageIndex$[ebp]
  00007	50		 push	 eax
  00008	6a 00		 push	 0
  0000a	ff 75 0c	 push	 DWORD PTR _poArgs$[ebp]
  0000d	e8 00 00 00 00	 call	 ?PyTuple_GetInteger@@YA_NPAU_object@@HPAH@Z ; PyTuple_GetInteger
  00012	83 c4 0c	 add	 esp, 12			; 0000000cH
  00015	84 c0		 test	 al, al
  00017	75 0e		 jne	 SHORT $LN2@playerSetQ

; 1116 : 		return Py_BuildException();

  00019	6a 00		 push	 0
  0001b	e8 00 00 00 00	 call	 ?Py_BuildException@@YAPAU_object@@PBDZZ ; Py_BuildException
  00020	83 c4 04	 add	 esp, 4

; 1120 : }

  00023	8b e5		 mov	 esp, ebp
  00025	5d		 pop	 ebp
  00026	c3		 ret	 0
$LN2@playerSetQ:

; 1117 : 
; 1118 : 	CPythonPlayer::Instance().SetQuickPage(iPageIndex);

  00027	ff 75 fc	 push	 DWORD PTR _iPageIndex$[ebp]
  0002a	8b 0d 00 00 00
	00		 mov	 ecx, DWORD PTR ?ms_singleton@?$CSingleton@VCPythonPlayer@@@@0PAVCPythonPlayer@@A ; CSingleton<CPythonPlayer>::ms_singleton
  00030	e8 00 00 00 00	 call	 ?SetQuickPage@CPythonPlayer@@QAEXH@Z ; CPythonPlayer::SetQuickPage

; 1119 : 	return Py_BuildNone();

  00035	e8 00 00 00 00	 call	 ?Py_BuildNone@@YAPAU_object@@XZ ; Py_BuildNone

; 1120 : }

  0003a	8b e5		 mov	 esp, ebp
  0003c	5d		 pop	 ebp
  0003d	c3		 ret	 0
?playerSetQuickPage@@YAPAU_object@@PAU1@0@Z ENDP	; playerSetQuickPage
_TEXT	ENDS
; Function compile flags: /Ogtp
; File D:\_m2work\txoko-m2-work\txoko-client-src\source\UserInterface\PythonPlayerModule.cpp
;	COMDAT ?playerLocalQuickSlotIndexToGlobalQuickSlotIndex@@YAPAU_object@@PAU1@0@Z
_TEXT	SEGMENT
_iLocalSlotIndex$ = -4					; size = 4
_poSelf$ = 8						; size = 4
_poArgs$ = 12						; size = 4
?playerLocalQuickSlotIndexToGlobalQuickSlotIndex@@YAPAU_object@@PAU1@0@Z PROC ; playerLocalQuickSlotIndexToGlobalQuickSlotIndex, COMDAT

; 1123 : {

  00000	55		 push	 ebp
  00001	8b ec		 mov	 ebp, esp
  00003	51		 push	 ecx

; 1124 : 	int iLocalSlotIndex;
; 1125 : 	if (!PyTuple_GetInteger(poArgs, 0, &iLocalSlotIndex))

  00004	8d 45 fc	 lea	 eax, DWORD PTR _iLocalSlotIndex$[ebp]
  00007	50		 push	 eax
  00008	6a 00		 push	 0
  0000a	ff 75 0c	 push	 DWORD PTR _poArgs$[ebp]
  0000d	e8 00 00 00 00	 call	 ?PyTuple_GetInteger@@YA_NPAU_object@@HPAH@Z ; PyTuple_GetInteger
  00012	83 c4 0c	 add	 esp, 12			; 0000000cH
  00015	84 c0		 test	 al, al
  00017	75 0e		 jne	 SHORT $LN2@playerLoca

; 1126 : 		return Py_BuildException();

  00019	6a 00		 push	 0
  0001b	e8 00 00 00 00	 call	 ?Py_BuildException@@YAPAU_object@@PBDZZ ; Py_BuildException
  00020	83 c4 04	 add	 esp, 4

; 1130 : }

  00023	8b e5		 mov	 esp, ebp
  00025	5d		 pop	 ebp
  00026	c3		 ret	 0
$LN2@playerLoca:

; 1127 : 
; 1128 : 	CPythonPlayer& rkPlayer=CPythonPlayer::Instance();
; 1129 : 	return Py_BuildValue("i", rkPlayer.LocalQuickSlotIndexToGlobalQuickSlotIndex(iLocalSlotIndex));

  00027	ff 75 fc	 push	 DWORD PTR _iLocalSlotIndex$[ebp]
  0002a	8b 0d 00 00 00
	00		 mov	 ecx, DWORD PTR ?ms_singleton@?$CSingleton@VCPythonPlayer@@@@0PAVCPythonPlayer@@A ; CSingleton<CPythonPlayer>::ms_singleton
  00030	e8 00 00 00 00	 call	 ?LocalQuickSlotIndexToGlobalQuickSlotIndex@CPythonPlayer@@QAEKK@Z ; CPythonPlayer::LocalQuickSlotIndexToGlobalQuickSlotIndex
  00035	50		 push	 eax
  00036	68 00 00 00 00	 push	 OFFSET ??_C@_01KBJDNOO@i@
  0003b	ff 15 00 00 00
	00		 call	 DWORD PTR __imp__Py_BuildValue
  00041	83 c4 08	 add	 esp, 8

; 1130 : }

  00044	8b e5		 mov	 esp, ebp
  00046	5d		 pop	 ebp
  00047	c3		 ret	 0
?playerLocalQuickSlotIndexToGlobalQuickSlotIndex@@YAPAU_object@@PAU1@0@Z ENDP ; playerLocalQuickSlotIndexToGlobalQuickSlotIndex
_TEXT	ENDS
; Function compile flags: /Ogtp
; File D:\_m2work\txoko-m2-work\txoko-client-src\source\UserInterface\PythonPlayerModule.cpp
;	COMDAT ?playerGetLocalQuickSlot@@YAPAU_object@@PAU1@0@Z
_TEXT	SEGMENT
_dwWndType$ = -12					; size = 4
_dwWndItemPos$ = -8					; size = 4
_iSlotIndex$ = -4					; size = 4
_poSelf$ = 8						; size = 4
_poArgs$ = 12						; size = 4
?playerGetLocalQuickSlot@@YAPAU_object@@PAU1@0@Z PROC	; playerGetLocalQuickSlot, COMDAT

; 1134 : {

  00000	55		 push	 ebp
  00001	8b ec		 mov	 ebp, esp
  00003	83 ec 0c	 sub	 esp, 12			; 0000000cH

; 1135 : 	int iSlotIndex;
; 1136 : 	if (!PyTuple_GetInteger(poArgs, 0, &iSlotIndex))

  00006	8d 45 fc	 lea	 eax, DWORD PTR _iSlotIndex$[ebp]
  00009	50		 push	 eax
  0000a	6a 00		 push	 0
  0000c	ff 75 0c	 push	 DWORD PTR _poArgs$[ebp]
  0000f	e8 00 00 00 00	 call	 ?PyTuple_GetInteger@@YA_NPAU_object@@HPAH@Z ; PyTuple_GetInteger
  00014	83 c4 0c	 add	 esp, 12			; 0000000cH
  00017	84 c0		 test	 al, al
  00019	75 0e		 jne	 SHORT $LN2@playerGetL

; 1137 : 		return Py_BuildException();

  0001b	6a 00		 push	 0
  0001d	e8 00 00 00 00	 call	 ?Py_BuildException@@YAPAU_object@@PBDZZ ; Py_BuildException
  00022	83 c4 04	 add	 esp, 4

; 1146 : }

  00025	8b e5		 mov	 esp, ebp
  00027	5d		 pop	 ebp
  00028	c3		 ret	 0
$LN2@playerGetL:

; 1138 : 
; 1139 : 	DWORD dwWndType;
; 1140 : 	DWORD dwWndItemPos;
; 1141 : 
; 1142 : 	CPythonPlayer& rkPlayer=CPythonPlayer::Instance();
; 1143 : 	rkPlayer.GetLocalQuickSlotData(iSlotIndex, &dwWndType, &dwWndItemPos);

  00029	8b 0d 00 00 00
	00		 mov	 ecx, DWORD PTR ?ms_singleton@?$CSingleton@VCPythonPlayer@@@@0PAVCPythonPlayer@@A ; CSingleton<CPythonPlayer>::ms_singleton
  0002f	8d 45 f8	 lea	 eax, DWORD PTR _dwWndItemPos$[ebp]
  00032	50		 push	 eax
  00033	8d 45 f4	 lea	 eax, DWORD PTR _dwWndType$[ebp]
  00036	50		 push	 eax
  00037	ff 75 fc	 push	 DWORD PTR _iSlotIndex$[ebp]
  0003a	e8 00 00 00 00	 call	 ?GetLocalQuickSlotData@CPythonPlayer@@QAEXKPAK0@Z ; CPythonPlayer::GetLocalQuickSlotData

; 1144 : 
; 1145 : 	return Py_BuildValue("ii", dwWndType, dwWndItemPos);

  0003f	ff 75 f8	 push	 DWORD PTR _dwWndItemPos$[ebp]
  00042	ff 75 f4	 push	 DWORD PTR _dwWndType$[ebp]
  00045	68 00 00 00 00	 push	 OFFSET ??_C@_02PDIHAGKM@ii@
  0004a	ff 15 00 00 00
	00		 call	 DWORD PTR __imp__Py_BuildValue
  00050	83 c4 0c	 add	 esp, 12			; 0000000cH

; 1146 : }

  00053	8b e5		 mov	 esp, ebp
  00055	5d		 pop	 ebp
  00056	c3		 ret	 0
?playerGetLocalQuickSlot@@YAPAU_object@@PAU1@0@Z ENDP	; playerGetLocalQuickSlot
_TEXT	ENDS
; Function compile flags: /Ogtp
; File D:\_m2work\txoko-m2-work\txoko-client-src\source\UserInterface\PythonPlayerModule.cpp
;	COMDAT ?playerGetGlobalQuickSlot@@YAPAU_object@@PAU1@0@Z
_TEXT	SEGMENT
_dwWndType$ = -12					; size = 4
_dwWndItemPos$ = -8					; size = 4
_iSlotIndex$ = -4					; size = 4
_poSelf$ = 8						; size = 4
_poArgs$ = 12						; size = 4
?playerGetGlobalQuickSlot@@YAPAU_object@@PAU1@0@Z PROC	; playerGetGlobalQuickSlot, COMDAT

; 1149 : {

  00000	55		 push	 ebp
  00001	8b ec		 mov	 ebp, esp
  00003	83 ec 0c	 sub	 esp, 12			; 0000000cH

; 1150 : 	int iSlotIndex;
; 1151 : 	if (!PyTuple_GetInteger(poArgs, 0, &iSlotIndex))

  00006	8d 45 fc	 lea	 eax, DWORD PTR _iSlotIndex$[ebp]
  00009	50		 push	 eax
  0000a	6a 00		 push	 0
  0000c	ff 75 0c	 push	 DWORD PTR _poArgs$[ebp]
  0000f	e8 00 00 00 00	 call	 ?PyTuple_GetInteger@@YA_NPAU_object@@HPAH@Z ; PyTuple_GetInteger
  00014	83 c4 0c	 add	 esp, 12			; 0000000cH
  00017	84 c0		 test	 al, al
  00019	75 0e		 jne	 SHORT $LN2@playerGetG

; 1152 : 		return Py_BuildException();

  0001b	6a 00		 push	 0
  0001d	e8 00 00 00 00	 call	 ?Py_BuildException@@YAPAU_object@@PBDZZ ; Py_BuildException
  00022	83 c4 04	 add	 esp, 4

; 1161 : }

  00025	8b e5		 mov	 esp, ebp
  00027	5d		 pop	 ebp
  00028	c3		 ret	 0
$LN2@playerGetG:

; 1153 : 
; 1154 : 	DWORD dwWndType;
; 1155 : 	DWORD dwWndItemPos;
; 1156 : 
; 1157 : 	CPythonPlayer& rkPlayer=CPythonPlayer::Instance();
; 1158 : 	rkPlayer.GetGlobalQuickSlotData(iSlotIndex, &dwWndType, &dwWndItemPos);

  00029	8b 0d 00 00 00
	00		 mov	 ecx, DWORD PTR ?ms_singleton@?$CSingleton@VCPythonPlayer@@@@0PAVCPythonPlayer@@A ; CSingleton<CPythonPlayer>::ms_singleton
  0002f	8d 45 f8	 lea	 eax, DWORD PTR _dwWndItemPos$[ebp]
  00032	50		 push	 eax
  00033	8d 45 f4	 lea	 eax, DWORD PTR _dwWndType$[ebp]
  00036	50		 push	 eax
  00037	ff 75 fc	 push	 DWORD PTR _iSlotIndex$[ebp]
  0003a	e8 00 00 00 00	 call	 ?GetGlobalQuickSlotData@CPythonPlayer@@QAEXKPAK0@Z ; CPythonPlayer::GetGlobalQuickSlotData

; 1159 : 
; 1160 : 	return Py_BuildValue("ii", dwWndType, dwWndItemPos);

  0003f	ff 75 f8	 push	 DWORD PTR _dwWndItemPos$[ebp]
  00042	ff 75 f4	 push	 DWORD PTR _dwWndType$[ebp]
  00045	68 00 00 00 00	 push	 OFFSET ??_C@_02PDIHAGKM@ii@
  0004a	ff 15 00 00 00
	00		 call	 DWORD PTR __imp__Py_BuildValue
  00050	83 c4 0c	 add	 esp, 12			; 0000000cH

; 1161 : }

  00053	8b e5		 mov	 esp, ebp
  00055	5d		 pop	 ebp
  00056	c3		 ret	 0
?playerGetGlobalQuickSlot@@YAPAU_object@@PAU1@0@Z ENDP	; playerGetGlobalQuickSlot
_TEXT	ENDS
; Function compile flags: /Ogtp
; File D:\_m2work\txoko-m2-work\txoko-client-src\source\UserInterface\PythonPlayerModule.cpp
;	COMDAT ?playerRequestAddLocalQuickSlot@@YAPAU_object@@PAU1@0@Z
_TEXT	SEGMENT
_nSlotIndex$ = -12					; size = 4
_nWndType$ = -8						; size = 4
_nWndItemPos$ = -4					; size = 4
_poSelf$ = 8						; size = 4
_poArgs$ = 12						; size = 4
?playerRequestAddLocalQuickSlot@@YAPAU_object@@PAU1@0@Z PROC ; playerRequestAddLocalQuickSlot, COMDAT

; 1165 : {

  00000	55		 push	 ebp
  00001	8b ec		 mov	 ebp, esp
  00003	83 ec 0c	 sub	 esp, 12			; 0000000cH

; 1166 : 	int nSlotIndex;
; 1167 : 	int nWndType;
; 1168 : 	int nWndItemPos;
; 1169 : 	
; 1170 : 	if (!PyTuple_GetInteger(poArgs, 0, &nSlotIndex))

  00006	8d 45 f4	 lea	 eax, DWORD PTR _nSlotIndex$[ebp]
  00009	56		 push	 esi
  0000a	8b 75 0c	 mov	 esi, DWORD PTR _poArgs$[ebp]
  0000d	50		 push	 eax
  0000e	6a 00		 push	 0
  00010	56		 push	 esi
  00011	e8 00 00 00 00	 call	 ?PyTuple_GetInteger@@YA_NPAU_object@@HPAH@Z ; PyTuple_GetInteger
  00016	83 c4 0c	 add	 esp, 12			; 0000000cH
  00019	84 c0		 test	 al, al
  0001b	75 0f		 jne	 SHORT $LN2@playerRequ
$LN9@playerRequ:

; 1183 : }

  0001d	6a 00		 push	 0
  0001f	e8 00 00 00 00	 call	 ?Py_BuildException@@YAPAU_object@@PBDZZ ; Py_BuildException
  00024	83 c4 04	 add	 esp, 4
  00027	5e		 pop	 esi
  00028	8b e5		 mov	 esp, ebp
  0002a	5d		 pop	 ebp
  0002b	c3		 ret	 0
$LN2@playerRequ:

; 1171 : 		return Py_BuildException();
; 1172 : 
; 1173 : 	if (!PyTuple_GetInteger(poArgs, 1, &nWndType))

  0002c	8d 45 f8	 lea	 eax, DWORD PTR _nWndType$[ebp]
  0002f	50		 push	 eax
  00030	6a 01		 push	 1
  00032	56		 push	 esi
  00033	e8 00 00 00 00	 call	 ?PyTuple_GetInteger@@YA_NPAU_object@@HPAH@Z ; PyTuple_GetInteger
  00038	83 c4 0c	 add	 esp, 12			; 0000000cH
  0003b	84 c0		 test	 al, al
  0003d	74 de		 je	 SHORT $LN9@playerRequ

; 1174 : 		return Py_BuildException();
; 1175 : 
; 1176 : 	if (!PyTuple_GetInteger(poArgs, 2, &nWndItemPos))

  0003f	8d 45 fc	 lea	 eax, DWORD PTR _nWndItemPos$[ebp]
  00042	50		 push	 eax
  00043	6a 02		 push	 2
  00045	56		 push	 esi
  00046	e8 00 00 00 00	 call	 ?PyTuple_GetInteger@@YA_NPAU_object@@HPAH@Z ; PyTuple_GetInteger
  0004b	83 c4 0c	 add	 esp, 12			; 0000000cH
  0004e	84 c0		 test	 al, al
  00050	74 cb		 je	 SHORT $LN9@playerRequ

; 1177 : 		return Py_BuildException();
; 1178 : 
; 1179 : 	CPythonPlayer& rkPlayer=CPythonPlayer::Instance();
; 1180 : 	rkPlayer.RequestAddLocalQuickSlot(nSlotIndex, nWndType, nWndItemPos);

  00052	ff 75 fc	 push	 DWORD PTR _nWndItemPos$[ebp]
  00055	8b 0d 00 00 00
	00		 mov	 ecx, DWORD PTR ?ms_singleton@?$CSingleton@VCPythonPlayer@@@@0PAVCPythonPlayer@@A ; CSingleton<CPythonPlayer>::ms_singleton
  0005b	ff 75 f8	 push	 DWORD PTR _nWndType$[ebp]
  0005e	ff 75 f4	 push	 DWORD PTR _nSlotIndex$[ebp]
  00061	e8 00 00 00 00	 call	 ?RequestAddLocalQuickSlot@CPythonPlayer@@QAEXKKK@Z ; CPythonPlayer::RequestAddLocalQuickSlot

; 1181 : 
; 1182 : 	return Py_BuildNone();

  00066	e8 00 00 00 00	 call	 ?Py_BuildNone@@YAPAU_object@@XZ ; Py_BuildNone
  0006b	5e		 pop	 esi

; 1183 : }

  0006c	8b e5		 mov	 esp, ebp
  0006e	5d		 pop	 ebp
  0006f	c3		 ret	 0
?playerRequestAddLocalQuickSlot@@YAPAU_object@@PAU1@0@Z ENDP ; playerRequestAddLocalQuickSlot
_TEXT	ENDS
; Function compile flags: /Ogtp
; File D:\_m2work\txoko-m2-work\txoko-client-src\source\UserInterface\PythonPlayerModule.cpp
;	COMDAT ?playerRequestAddToEmptyLocalQuickSlot@@YAPAU_object@@PAU1@0@Z
_TEXT	SEGMENT
_nWndType$ = -8						; size = 4
_nWndItemPos$ = -4					; size = 4
_poSelf$ = 8						; size = 4
_poArgs$ = 12						; size = 4
?playerRequestAddToEmptyLocalQuickSlot@@YAPAU_object@@PAU1@0@Z PROC ; playerRequestAddToEmptyLocalQuickSlot, COMDAT

; 1186 : {

  00000	55		 push	 ebp
  00001	8b ec		 mov	 ebp, esp
  00003	83 ec 08	 sub	 esp, 8

; 1187 : 	int nWndType;
; 1188 : 	if (!PyTuple_GetInteger(poArgs, 0, &nWndType))

  00006	8d 45 f8	 lea	 eax, DWORD PTR _nWndType$[ebp]
  00009	50		 push	 eax
  0000a	6a 00		 push	 0
  0000c	ff 75 0c	 push	 DWORD PTR _poArgs$[ebp]
  0000f	e8 00 00 00 00	 call	 ?PyTuple_GetInteger@@YA_NPAU_object@@HPAH@Z ; PyTuple_GetInteger
  00014	83 c4 0c	 add	 esp, 12			; 0000000cH
  00017	84 c0		 test	 al, al
  00019	75 0e		 jne	 SHORT $LN2@playerRequ
$LN5@playerRequ:

; 1199 : }

  0001b	6a 00		 push	 0
  0001d	e8 00 00 00 00	 call	 ?Py_BuildException@@YAPAU_object@@PBDZZ ; Py_BuildException
  00022	83 c4 04	 add	 esp, 4
  00025	8b e5		 mov	 esp, ebp
  00027	5d		 pop	 ebp
  00028	c3		 ret	 0
$LN2@playerRequ:

; 1189 : 		return Py_BuildException();
; 1190 : 
; 1191 : 	int nWndItemPos;
; 1192 : 	if (!PyTuple_GetInteger(poArgs, 1, &nWndItemPos))

  00029	8d 45 fc	 lea	 eax, DWORD PTR _nWndItemPos$[ebp]
  0002c	50		 push	 eax
  0002d	6a 01		 push	 1
  0002f	ff 75 0c	 push	 DWORD PTR _poArgs$[ebp]
  00032	e8 00 00 00 00	 call	 ?PyTuple_GetInteger@@YA_NPAU_object@@HPAH@Z ; PyTuple_GetInteger
  00037	83 c4 0c	 add	 esp, 12			; 0000000cH
  0003a	84 c0		 test	 al, al
  0003c	74 dd		 je	 SHORT $LN5@playerRequ

; 1193 : 		return Py_BuildException();
; 1194 : 
; 1195 : 	CPythonPlayer& rkPlayer=CPythonPlayer::Instance();
; 1196 : 	rkPlayer.RequestAddToEmptyLocalQuickSlot(nWndType, nWndItemPos);

  0003e	ff 75 fc	 push	 DWORD PTR _nWndItemPos$[ebp]
  00041	8b 0d 00 00 00
	00		 mov	 ecx, DWORD PTR ?ms_singleton@?$CSingleton@VCPythonPlayer@@@@0PAVCPythonPlayer@@A ; CSingleton<CPythonPlayer>::ms_singleton
  00047	ff 75 f8	 push	 DWORD PTR _nWndType$[ebp]
  0004a	e8 00 00 00 00	 call	 ?RequestAddToEmptyLocalQuickSlot@CPythonPlayer@@QAEXKK@Z ; CPythonPlayer::RequestAddToEmptyLocalQuickSlot

; 1197 : 
; 1198 : 	return Py_BuildNone();

  0004f	e8 00 00 00 00	 call	 ?Py_BuildNone@@YAPAU_object@@XZ ; Py_BuildNone

; 1199 : }

  00054	8b e5		 mov	 esp, ebp
  00056	5d		 pop	 ebp
  00057	c3		 ret	 0
?playerRequestAddToEmptyLocalQuickSlot@@YAPAU_object@@PAU1@0@Z ENDP ; playerRequestAddToEmptyLocalQuickSlot
_TEXT	ENDS
; Function compile flags: /Ogtp
; File D:\_m2work\txoko-m2-work\txoko-client-src\source\UserInterface\PythonPlayerModule.cpp
;	COMDAT ?playerRequestDeleteGlobalQuickSlot@@YAPAU_object@@PAU1@0@Z
_TEXT	SEGMENT
_nGlobalSlotIndex$ = -4					; size = 4
_poSelf$ = 8						; size = 4
_poArgs$ = 12						; size = 4
?playerRequestDeleteGlobalQuickSlot@@YAPAU_object@@PAU1@0@Z PROC ; playerRequestDeleteGlobalQuickSlot, COMDAT

; 1202 : {

  00000	55		 push	 ebp
  00001	8b ec		 mov	 ebp, esp
  00003	51		 push	 ecx

; 1203 : 	int nGlobalSlotIndex;
; 1204 : 	if (!PyTuple_GetInteger(poArgs, 0, &nGlobalSlotIndex))

  00004	8d 45 fc	 lea	 eax, DWORD PTR _nGlobalSlotIndex$[ebp]
  00007	50		 push	 eax
  00008	6a 00		 push	 0
  0000a	ff 75 0c	 push	 DWORD PTR _poArgs$[ebp]
  0000d	e8 00 00 00 00	 call	 ?PyTuple_GetInteger@@YA_NPAU_object@@HPAH@Z ; PyTuple_GetInteger
  00012	83 c4 0c	 add	 esp, 12			; 0000000cH
  00015	84 c0		 test	 al, al
  00017	75 0e		 jne	 SHORT $LN2@playerRequ

; 1205 : 		return Py_BuildException();

  00019	6a 00		 push	 0
  0001b	e8 00 00 00 00	 call	 ?Py_BuildException@@YAPAU_object@@PBDZZ ; Py_BuildException
  00020	83 c4 04	 add	 esp, 4

; 1210 : }

  00023	8b e5		 mov	 esp, ebp
  00025	5d		 pop	 ebp
  00026	c3		 ret	 0
$LN2@playerRequ:

; 1206 : 
; 1207 : 	CPythonPlayer& rkPlayer=CPythonPlayer::Instance();
; 1208 : 	rkPlayer.RequestDeleteGlobalQuickSlot(nGlobalSlotIndex);	

  00027	ff 75 fc	 push	 DWORD PTR _nGlobalSlotIndex$[ebp]
  0002a	e8 00 00 00 00	 call	 ?RequestDeleteGlobalQuickSlot@CPythonPlayer@@QAEXK@Z ; CPythonPlayer::RequestDeleteGlobalQuickSlot

; 1209 : 	return Py_BuildNone();

  0002f	e8 00 00 00 00	 call	 ?Py_BuildNone@@YAPAU_object@@XZ ; Py_BuildNone

; 1210 : }

  00034	8b e5		 mov	 esp, ebp
  00036	5d		 pop	 ebp
  00037	c3		 ret	 0
?playerRequestDeleteGlobalQuickSlot@@YAPAU_object@@PAU1@0@Z ENDP ; playerRequestDeleteGlobalQuickSlot
_TEXT	ENDS
; Function compile flags: /Ogtp
; File D:\_m2work\txoko-m2-work\txoko-client-src\source\UserInterface\PythonPlayerModule.cpp
;	COMDAT ?playerRequestMoveGlobalQuickSlotToLocalQuickSlot@@YAPAU_object@@PAU1@0@Z
_TEXT	SEGMENT
_nGlobalSrcSlotIndex$ = -8				; size = 4
_nLocalDstSlotIndex$ = -4				; size = 4
_poSelf$ = 8						; size = 4
_poArgs$ = 12						; size = 4
?playerRequestMoveGlobalQuickSlotToLocalQuickSlot@@YAPAU_object@@PAU1@0@Z PROC ; playerRequestMoveGlobalQuickSlotToLocalQuickSlot, COMDAT

; 1213 : {

  00000	55		 push	 ebp
  00001	8b ec		 mov	 ebp, esp
  00003	83 ec 08	 sub	 esp, 8

; 1214 : 	int nGlobalSrcSlotIndex;
; 1215 : 	int nLocalDstSlotIndex;
; 1216 : 
; 1217 : 	if (!PyTuple_GetInteger(poArgs, 0, &nGlobalSrcSlotIndex))

  00006	8d 45 f8	 lea	 eax, DWORD PTR _nGlobalSrcSlotIndex$[ebp]
  00009	50		 push	 eax
  0000a	6a 00		 push	 0
  0000c	ff 75 0c	 push	 DWORD PTR _poArgs$[ebp]
  0000f	e8 00 00 00 00	 call	 ?PyTuple_GetInteger@@YA_NPAU_object@@HPAH@Z ; PyTuple_GetInteger
  00014	83 c4 0c	 add	 esp, 12			; 0000000cH
  00017	84 c0		 test	 al, al
  00019	75 0e		 jne	 SHORT $LN2@playerRequ
$LN5@playerRequ:

; 1226 : }

  0001b	6a 00		 push	 0
  0001d	e8 00 00 00 00	 call	 ?Py_BuildException@@YAPAU_object@@PBDZZ ; Py_BuildException
  00022	83 c4 04	 add	 esp, 4
  00025	8b e5		 mov	 esp, ebp
  00027	5d		 pop	 ebp
  00028	c3		 ret	 0
$LN2@playerRequ:

; 1218 : 		return Py_BuildException();
; 1219 : 
; 1220 : 	if (!PyTuple_GetInteger(poArgs, 1, &nLocalDstSlotIndex))

  00029	8d 45 fc	 lea	 eax, DWORD PTR _nLocalDstSlotIndex$[ebp]
  0002c	50		 push	 eax
  0002d	6a 01		 push	 1
  0002f	ff 75 0c	 push	 DWORD PTR _poArgs$[ebp]
  00032	e8 00 00 00 00	 call	 ?PyTuple_GetInteger@@YA_NPAU_object@@HPAH@Z ; PyTuple_GetInteger
  00037	83 c4 0c	 add	 esp, 12			; 0000000cH
  0003a	84 c0		 test	 al, al
  0003c	74 dd		 je	 SHORT $LN5@playerRequ

; 1221 : 		return Py_BuildException();
; 1222 : 
; 1223 : 	CPythonPlayer& rkPlayer=CPythonPlayer::Instance();
; 1224 : 	rkPlayer.RequestMoveGlobalQuickSlotToLocalQuickSlot(nGlobalSrcSlotIndex, nLocalDstSlotIndex);

  0003e	ff 75 fc	 push	 DWORD PTR _nLocalDstSlotIndex$[ebp]
  00041	8b 0d 00 00 00
	00		 mov	 ecx, DWORD PTR ?ms_singleton@?$CSingleton@VCPythonPlayer@@@@0PAVCPythonPlayer@@A ; CSingleton<CPythonPlayer>::ms_singleton
  00047	ff 75 f8	 push	 DWORD PTR _nGlobalSrcSlotIndex$[ebp]
  0004a	e8 00 00 00 00	 call	 ?RequestMoveGlobalQuickSlotToLocalQuickSlot@CPythonPlayer@@QAEXKK@Z ; CPythonPlayer::RequestMoveGlobalQuickSlotToLocalQuickSlot

; 1225 : 	return Py_BuildNone();

  0004f	e8 00 00 00 00	 call	 ?Py_BuildNone@@YAPAU_object@@XZ ; Py_BuildNone

; 1226 : }

  00054	8b e5		 mov	 esp, ebp
  00056	5d		 pop	 ebp
  00057	c3		 ret	 0
?playerRequestMoveGlobalQuickSlotToLocalQuickSlot@@YAPAU_object@@PAU1@0@Z ENDP ; playerRequestMoveGlobalQuickSlotToLocalQuickSlot
_TEXT	ENDS
; Function compile flags: /Ogtp
; File D:\_m2work\txoko-m2-work\txoko-client-src\source\UserInterface\PythonPlayerModule.cpp
;	COMDAT ?playerRequestUseLocalQuickSlot@@YAPAU_object@@PAU1@0@Z
_TEXT	SEGMENT
_iLocalPosition$ = -4					; size = 4
_poSelf$ = 8						; size = 4
_poArgs$ = 12						; size = 4
?playerRequestUseLocalQuickSlot@@YAPAU_object@@PAU1@0@Z PROC ; playerRequestUseLocalQuickSlot, COMDAT

; 1229 : {

  00000	55		 push	 ebp
  00001	8b ec		 mov	 ebp, esp
  00003	51		 push	 ecx

; 1230 : 	int iLocalPosition;
; 1231 : 	if (!PyTuple_GetInteger(poArgs, 0, &iLocalPosition))

  00004	8d 45 fc	 lea	 eax, DWORD PTR _iLocalPosition$[ebp]
  00007	50		 push	 eax
  00008	6a 00		 push	 0
  0000a	ff 75 0c	 push	 DWORD PTR _poArgs$[ebp]
  0000d	e8 00 00 00 00	 call	 ?PyTuple_GetInteger@@YA_NPAU_object@@HPAH@Z ; PyTuple_GetInteger
  00012	83 c4 0c	 add	 esp, 12			; 0000000cH
  00015	84 c0		 test	 al, al
  00017	75 0e		 jne	 SHORT $LN2@playerRequ

; 1232 : 		return Py_BuildException();

  00019	6a 00		 push	 0
  0001b	e8 00 00 00 00	 call	 ?Py_BuildException@@YAPAU_object@@PBDZZ ; Py_BuildException
  00020	83 c4 04	 add	 esp, 4

; 1237 : }

  00023	8b e5		 mov	 esp, ebp
  00025	5d		 pop	 ebp
  00026	c3		 ret	 0
$LN2@playerRequ:

; 1233 : 
; 1234 : 	CPythonPlayer::Instance().RequestUseLocalQuickSlot(iLocalPosition);

  00027	ff 75 fc	 push	 DWORD PTR _iLocalPosition$[ebp]
  0002a	8b 0d 00 00 00
	00		 mov	 ecx, DWORD PTR ?ms_singleton@?$CSingleton@VCPythonPlayer@@@@0PAVCPythonPlayer@@A ; CSingleton<CPythonPlayer>::ms_singleton
  00030	e8 00 00 00 00	 call	 ?RequestUseLocalQuickSlot@CPythonPlayer@@QAEXK@Z ; CPythonPlayer::RequestUseLocalQuickSlot

; 1235 : 
; 1236 : 	return Py_BuildNone();

  00035	e8 00 00 00 00	 call	 ?Py_BuildNone@@YAPAU_object@@XZ ; Py_BuildNone

; 1237 : }

  0003a	8b e5		 mov	 esp, ebp
  0003c	5d		 pop	 ebp
  0003d	c3		 ret	 0
?playerRequestUseLocalQuickSlot@@YAPAU_object@@PAU1@0@Z ENDP ; playerRequestUseLocalQuickSlot
_TEXT	ENDS
; Function compile flags: /Ogtp
; File D:\_m2work\txoko-m2-work\txoko-client-src\source\UserInterface\PythonPlayerModule.cpp
;	COMDAT ?playerRemoveQuickSlotByValue@@YAPAU_object@@PAU1@0@Z
_TEXT	SEGMENT
_iType$ = -8						; size = 4
_iPosition$ = -4					; size = 4
_poSelf$ = 8						; size = 4
_poArgs$ = 12						; size = 4
?playerRemoveQuickSlotByValue@@YAPAU_object@@PAU1@0@Z PROC ; playerRemoveQuickSlotByValue, COMDAT

; 1240 : {

  00000	55		 push	 ebp
  00001	8b ec		 mov	 ebp, esp
  00003	83 ec 08	 sub	 esp, 8

; 1241 : 	int iType;
; 1242 : 	if (!PyTuple_GetInteger(poArgs, 0, &iType))

  00006	8d 45 f8	 lea	 eax, DWORD PTR _iType$[ebp]
  00009	50		 push	 eax
  0000a	6a 00		 push	 0
  0000c	ff 75 0c	 push	 DWORD PTR _poArgs$[ebp]
  0000f	e8 00 00 00 00	 call	 ?PyTuple_GetInteger@@YA_NPAU_object@@HPAH@Z ; PyTuple_GetInteger
  00014	83 c4 0c	 add	 esp, 12			; 0000000cH
  00017	84 c0		 test	 al, al
  00019	75 0e		 jne	 SHORT $LN2@playerRemo
$LN5@playerRemo:

; 1252 : }

  0001b	6a 00		 push	 0
  0001d	e8 00 00 00 00	 call	 ?Py_BuildException@@YAPAU_object@@PBDZZ ; Py_BuildException
  00022	83 c4 04	 add	 esp, 4
  00025	8b e5		 mov	 esp, ebp
  00027	5d		 pop	 ebp
  00028	c3		 ret	 0
$LN2@playerRemo:

; 1243 : 		return Py_BuildException();
; 1244 : 	
; 1245 : 	int iPosition;
; 1246 : 	if (!PyTuple_GetInteger(poArgs, 1, &iPosition))

  00029	8d 45 fc	 lea	 eax, DWORD PTR _iPosition$[ebp]
  0002c	50		 push	 eax
  0002d	6a 01		 push	 1
  0002f	ff 75 0c	 push	 DWORD PTR _poArgs$[ebp]
  00032	e8 00 00 00 00	 call	 ?PyTuple_GetInteger@@YA_NPAU_object@@HPAH@Z ; PyTuple_GetInteger
  00037	83 c4 0c	 add	 esp, 12			; 0000000cH
  0003a	84 c0		 test	 al, al
  0003c	74 dd		 je	 SHORT $LN5@playerRemo

; 1247 : 		return Py_BuildException();
; 1248 : 
; 1249 : 	CPythonPlayer::Instance().RemoveQuickSlotByValue(iType, iPosition);

  0003e	ff 75 fc	 push	 DWORD PTR _iPosition$[ebp]
  00041	8b 0d 00 00 00
	00		 mov	 ecx, DWORD PTR ?ms_singleton@?$CSingleton@VCPythonPlayer@@@@0PAVCPythonPlayer@@A ; CSingleton<CPythonPlayer>::ms_singleton
  00047	ff 75 f8	 push	 DWORD PTR _iType$[ebp]
  0004a	e8 00 00 00 00	 call	 ?RemoveQuickSlotByValue@CPythonPlayer@@QAEXHH@Z ; CPythonPlayer::RemoveQuickSlotByValue

; 1250 : 
; 1251 : 	return Py_BuildNone();

  0004f	e8 00 00 00 00	 call	 ?Py_BuildNone@@YAPAU_object@@XZ ; Py_BuildNone

; 1252 : }

  00054	8b e5		 mov	 esp, ebp
  00056	5d		 pop	 ebp
  00057	c3		 ret	 0
?playerRemoveQuickSlotByValue@@YAPAU_object@@PAU1@0@Z ENDP ; playerRemoveQuickSlotByValue
_TEXT	ENDS
; Function compile flags: /Ogtp
; File D:\_m2work\txoko-m2-work\txoko-client-src\source\UserInterface\PythonPlayerModule.cpp
;	COMDAT ?playerisItem@@YAPAU_object@@PAU1@0@Z
_TEXT	SEGMENT
_iSlotIndex$ = -8					; size = 4
$T1 = -4						; size = 3
_poSelf$ = 8						; size = 4
_poArgs$ = 12						; size = 4
?playerisItem@@YAPAU_object@@PAU1@0@Z PROC		; playerisItem, COMDAT

; 1255 : {

  00000	55		 push	 ebp
  00001	8b ec		 mov	 ebp, esp
  00003	83 ec 08	 sub	 esp, 8

; 1256 : 	int iSlotIndex;
; 1257 : 	if (!PyTuple_GetInteger(poArgs, 0, &iSlotIndex))

  00006	8d 45 f8	 lea	 eax, DWORD PTR _iSlotIndex$[ebp]
  00009	50		 push	 eax
  0000a	6a 00		 push	 0
  0000c	ff 75 0c	 push	 DWORD PTR _poArgs$[ebp]
  0000f	e8 00 00 00 00	 call	 ?PyTuple_GetInteger@@YA_NPAU_object@@HPAH@Z ; PyTuple_GetInteger
  00014	83 c4 0c	 add	 esp, 12			; 0000000cH
  00017	84 c0		 test	 al, al
  00019	75 0e		 jne	 SHORT $LN2@playerisIt

; 1258 : 		return Py_BuildException();

  0001b	6a 00		 push	 0
  0001d	e8 00 00 00 00	 call	 ?Py_BuildException@@YAPAU_object@@PBDZZ ; Py_BuildException
  00022	83 c4 04	 add	 esp, 4

; 1263 : }

  00025	8b e5		 mov	 esp, ebp
  00027	5d		 pop	 ebp
  00028	c3		 ret	 0
$LN2@playerisIt:

; 1259 : 
; 1260 : 	char Flag = CPythonPlayer::Instance().IsItem(TItemPos(INVENTORY, iSlotIndex));

  00029	0f b7 45 f8	 movzx	 eax, WORD PTR _iSlotIndex$[ebp]
  0002d	51		 push	 ecx
  0002e	8b cc		 mov	 ecx, esp
  00030	66 89 45 fd	 mov	 WORD PTR $T1[ebp+1], ax
  00034	c6 45 fc 01	 mov	 BYTE PTR $T1[ebp], 1
  00038	0f b7 45 fc	 movzx	 eax, WORD PTR $T1[ebp]
  0003c	66 89 01	 mov	 WORD PTR [ecx], ax
  0003f	8a 45 fe	 mov	 al, BYTE PTR $T1[ebp+2]
  00042	88 41 02	 mov	 BYTE PTR [ecx+2], al
  00045	8b 0d 00 00 00
	00		 mov	 ecx, DWORD PTR ?ms_singleton@?$CSingleton@VCPythonPlayer@@@@0PAVCPythonPlayer@@A ; CSingleton<CPythonPlayer>::ms_singleton
  0004b	e8 00 00 00 00	 call	 ?IsItem@CPythonPlayer@@QAEDUSItemPos@@@Z ; CPythonPlayer::IsItem

; 1261 : 
; 1262 : 	return Py_BuildValue("i", Flag);

  00050	0f be c0	 movsx	 eax, al
  00053	50		 push	 eax
  00054	68 00 00 00 00	 push	 OFFSET ??_C@_01KBJDNOO@i@
  00059	ff 15 00 00 00
	00		 call	 DWORD PTR __imp__Py_BuildValue
  0005f	83 c4 08	 add	 esp, 8

; 1263 : }

  00062	8b e5		 mov	 esp, ebp
  00064	5d		 pop	 ebp
  00065	c3		 ret	 0
?playerisItem@@YAPAU_object@@PAU1@0@Z ENDP		; playerisItem
_TEXT	ENDS
; Function compile flags: /Ogtp
; File D:\_m2work\txoko-m2-work\txoko-client-src\source\UserInterface\PythonPlayerModule.cpp
;	COMDAT ?playerIsBeltInventorySlot@@YAPAU_object@@PAU1@0@Z
_TEXT	SEGMENT
_iSlotIndex$ = -8					; size = 4
$T1 = -4						; size = 3
_poSelf$ = 8						; size = 4
_poArgs$ = 12						; size = 4
?playerIsBeltInventorySlot@@YAPAU_object@@PAU1@0@Z PROC	; playerIsBeltInventorySlot, COMDAT

; 1267 : {

  00000	55		 push	 ebp
  00001	8b ec		 mov	 ebp, esp
  00003	83 ec 08	 sub	 esp, 8

; 1268 : 	int iSlotIndex;
; 1269 : 	if (!PyTuple_GetInteger(poArgs, 0, &iSlotIndex))

  00006	8d 45 f8	 lea	 eax, DWORD PTR _iSlotIndex$[ebp]
  00009	50		 push	 eax
  0000a	6a 00		 push	 0
  0000c	ff 75 0c	 push	 DWORD PTR _poArgs$[ebp]
  0000f	e8 00 00 00 00	 call	 ?PyTuple_GetInteger@@YA_NPAU_object@@HPAH@Z ; PyTuple_GetInteger
  00014	83 c4 0c	 add	 esp, 12			; 0000000cH
  00017	84 c0		 test	 al, al
  00019	75 0e		 jne	 SHORT $LN2@playerIsBe

; 1270 : 		return Py_BuildException();

  0001b	6a 00		 push	 0
  0001d	e8 00 00 00 00	 call	 ?Py_BuildException@@YAPAU_object@@PBDZZ ; Py_BuildException
  00022	83 c4 04	 add	 esp, 4

; 1275 : }

  00025	8b e5		 mov	 esp, ebp
  00027	5d		 pop	 ebp
  00028	c3		 ret	 0
$LN2@playerIsBe:

; 1271 : 
; 1272 : 	char Flag = CPythonPlayer::Instance().IsBeltInventorySlot(TItemPos(INVENTORY, iSlotIndex));

  00029	0f b7 45 f8	 movzx	 eax, WORD PTR _iSlotIndex$[ebp]
  0002d	51		 push	 ecx
  0002e	8b cc		 mov	 ecx, esp
  00030	66 89 45 fd	 mov	 WORD PTR $T1[ebp+1], ax
  00034	c6 45 fc 01	 mov	 BYTE PTR $T1[ebp], 1
  00038	0f b7 45 fc	 movzx	 eax, WORD PTR $T1[ebp]
  0003c	66 89 01	 mov	 WORD PTR [ecx], ax
  0003f	8a 45 fe	 mov	 al, BYTE PTR $T1[ebp+2]
  00042	88 41 02	 mov	 BYTE PTR [ecx+2], al
  00045	e8 00 00 00 00	 call	 ?IsBeltInventorySlot@CPythonPlayer@@QAE_NUSItemPos@@@Z ; CPythonPlayer::IsBeltInventorySlot

; 1273 : 
; 1274 : 	return Py_BuildValue("i", Flag);

  0004a	0f b6 c0	 movzx	 eax, al
  0004d	50		 push	 eax
  0004e	68 00 00 00 00	 push	 OFFSET ??_C@_01KBJDNOO@i@
  00053	ff 15 00 00 00
	00		 call	 DWORD PTR __imp__Py_BuildValue
  00059	83 c4 08	 add	 esp, 8

; 1275 : }

  0005c	8b e5		 mov	 esp, ebp
  0005e	5d		 pop	 ebp
  0005f	c3		 ret	 0
?playerIsBeltInventorySlot@@YAPAU_object@@PAU1@0@Z ENDP	; playerIsBeltInventorySlot
_TEXT	ENDS
; Function compile flags: /Ogtp
; File D:\_m2work\txoko-m2-work\txoko-client-src\source\UserInterface\PythonPlayerModule.cpp
;	COMDAT ?playerIsEquipmentSlot@@YAPAU_object@@PAU1@0@Z
_TEXT	SEGMENT
_iSlotIndex$ = -4					; size = 4
_poSelf$ = 8						; size = 4
_poArgs$ = 12						; size = 4
?playerIsEquipmentSlot@@YAPAU_object@@PAU1@0@Z PROC	; playerIsEquipmentSlot, COMDAT

; 1279 : {

  00000	55		 push	 ebp
  00001	8b ec		 mov	 ebp, esp
  00003	51		 push	 ecx

; 1280 : 	int iSlotIndex;
; 1281 : 	if (!PyTuple_GetInteger(poArgs, 0, &iSlotIndex))

  00004	8d 45 fc	 lea	 eax, DWORD PTR _iSlotIndex$[ebp]
  00007	50		 push	 eax
  00008	6a 00		 push	 0
  0000a	ff 75 0c	 push	 DWORD PTR _poArgs$[ebp]
  0000d	e8 00 00 00 00	 call	 ?PyTuple_GetInteger@@YA_NPAU_object@@HPAH@Z ; PyTuple_GetInteger
  00012	83 c4 0c	 add	 esp, 12			; 0000000cH
  00015	84 c0		 test	 al, al
  00017	75 0e		 jne	 SHORT $LN2@playerIsEq

; 1282 : 		return Py_BuildException();

  00019	6a 00		 push	 0
  0001b	e8 00 00 00 00	 call	 ?Py_BuildException@@YAPAU_object@@PBDZZ ; Py_BuildException
  00020	83 c4 04	 add	 esp, 4

; 1289 : }

  00023	8b e5		 mov	 esp, ebp
  00025	5d		 pop	 ebp
  00026	c3		 ret	 0
$LN2@playerIsEq:

; 1283 : 
; 1284 : 	if (iSlotIndex >= c_Equipment_Start)

  00027	8b 45 fc	 mov	 eax, DWORD PTR _iSlotIndex$[ebp]
  0002a	05 4c ff ff ff	 add	 eax, -180		; ffffff4cH
  0002f	83 f8 2c	 cmp	 eax, 44			; 0000002cH
  00032	77 14		 ja	 SHORT $LN4@playerIsEq

; 1285 : 	if (iSlotIndex <= c_DragonSoul_Equip_End)
; 1286 : 		return Py_BuildValue("i", 1);

  00034	6a 01		 push	 1

; 1289 : }

  00036	68 00 00 00 00	 push	 OFFSET ??_C@_01KBJDNOO@i@
  0003b	ff 15 00 00 00
	00		 call	 DWORD PTR __imp__Py_BuildValue
  00041	83 c4 08	 add	 esp, 8
  00044	8b e5		 mov	 esp, ebp
  00046	5d		 pop	 ebp
  00047	c3		 ret	 0
$LN4@playerIsEq:

; 1287 : 
; 1288 : 	return Py_BuildValue("i", 0);

  00048	6a 00		 push	 0

; 1289 : }

  0004a	68 00 00 00 00	 push	 OFFSET ??_C@_01KBJDNOO@i@
  0004f	ff 15 00 00 00
	00		 call	 DWORD PTR __imp__Py_BuildValue
  00055	83 c4 08	 add	 esp, 8
  00058	8b e5		 mov	 esp, ebp
  0005a	5d		 pop	 ebp
  0005b	c3		 ret	 0
?playerIsEquipmentSlot@@YAPAU_object@@PAU1@0@Z ENDP	; playerIsEquipmentSlot
_TEXT	ENDS
; Function compile flags: /Ogtp
; File D:\_m2work\txoko-m2-work\txoko-client-src\source\UserInterface\PythonPlayerModule.cpp
;	COMDAT ?playerIsDSEquipmentSlot@@YAPAU_object@@PAU1@0@Z
_TEXT	SEGMENT
_iSlotIndex$ = -8					; size = 4
_bWindowType$ = -1					; size = 1
_poSelf$ = 8						; size = 4
_poArgs$ = 12						; size = 4
?playerIsDSEquipmentSlot@@YAPAU_object@@PAU1@0@Z PROC	; playerIsDSEquipmentSlot, COMDAT

; 1292 : {

  00000	55		 push	 ebp
  00001	8b ec		 mov	 ebp, esp
  00003	83 ec 08	 sub	 esp, 8

; 1293 : 	BYTE bWindowType;
; 1294 : 	if (!PyTuple_GetInteger(poArgs, 0, &bWindowType))

  00006	8d 45 ff	 lea	 eax, DWORD PTR _bWindowType$[ebp]
  00009	50		 push	 eax
  0000a	6a 00		 push	 0
  0000c	ff 75 0c	 push	 DWORD PTR _poArgs$[ebp]
  0000f	e8 00 00 00 00	 call	 ?PyTuple_GetInteger@@YA_NPAU_object@@HPAE@Z ; PyTuple_GetInteger
  00014	83 c4 0c	 add	 esp, 12			; 0000000cH
  00017	84 c0		 test	 al, al
  00019	75 0e		 jne	 SHORT $LN2@playerIsDS
$LN9@playerIsDS:

; 1306 : 
; 1307 : }

  0001b	6a 00		 push	 0
  0001d	e8 00 00 00 00	 call	 ?Py_BuildException@@YAPAU_object@@PBDZZ ; Py_BuildException
  00022	83 c4 04	 add	 esp, 4
  00025	8b e5		 mov	 esp, ebp
  00027	5d		 pop	 ebp
  00028	c3		 ret	 0
$LN2@playerIsDS:

; 1295 : 		return Py_BuildException();
; 1296 : 	int iSlotIndex;
; 1297 : 	if (!PyTuple_GetInteger(poArgs, 1, &iSlotIndex))

  00029	8d 45 f8	 lea	 eax, DWORD PTR _iSlotIndex$[ebp]
  0002c	50		 push	 eax
  0002d	6a 01		 push	 1
  0002f	ff 75 0c	 push	 DWORD PTR _poArgs$[ebp]
  00032	e8 00 00 00 00	 call	 ?PyTuple_GetInteger@@YA_NPAU_object@@HPAH@Z ; PyTuple_GetInteger
  00037	83 c4 0c	 add	 esp, 12			; 0000000cH
  0003a	84 c0		 test	 al, al
  0003c	74 dd		 je	 SHORT $LN9@playerIsDS

; 1298 : 		return Py_BuildException();
; 1299 : 
; 1300 : 	if (INVENTORY == bWindowType)

  0003e	80 7d ff 01	 cmp	 BYTE PTR _bWindowType$[ebp], 1
  00042	75 21		 jne	 SHORT $LN6@playerIsDS

; 1301 : 	if (iSlotIndex >= c_DragonSoul_Equip_Start)

  00044	8b 45 f8	 mov	 eax, DWORD PTR _iSlotIndex$[ebp]
  00047	05 2c ff ff ff	 add	 eax, -212		; ffffff2cH
  0004c	83 f8 0c	 cmp	 eax, 12			; 0000000cH
  0004f	77 14		 ja	 SHORT $LN6@playerIsDS

; 1302 : 	if (iSlotIndex <= c_DragonSoul_Equip_End)
; 1303 : 		return Py_BuildValue("i", 1);

  00051	6a 01		 push	 1

; 1306 : 
; 1307 : }

  00053	68 00 00 00 00	 push	 OFFSET ??_C@_01KBJDNOO@i@
  00058	ff 15 00 00 00
	00		 call	 DWORD PTR __imp__Py_BuildValue
  0005e	83 c4 08	 add	 esp, 8
  00061	8b e5		 mov	 esp, ebp
  00063	5d		 pop	 ebp
  00064	c3		 ret	 0
$LN6@playerIsDS:

; 1304 : 
; 1305 : 	return Py_BuildValue("i", 0);

  00065	6a 00		 push	 0

; 1306 : 
; 1307 : }

  00067	68 00 00 00 00	 push	 OFFSET ??_C@_01KBJDNOO@i@
  0006c	ff 15 00 00 00
	00		 call	 DWORD PTR __imp__Py_BuildValue
  00072	83 c4 08	 add	 esp, 8
  00075	8b e5		 mov	 esp, ebp
  00077	5d		 pop	 ebp
  00078	c3		 ret	 0
?playerIsDSEquipmentSlot@@YAPAU_object@@PAU1@0@Z ENDP	; playerIsDSEquipmentSlot
_TEXT	ENDS
; Function compile flags: /Ogtp
; File D:\_m2work\txoko-m2-work\txoko-client-src\source\UserInterface\PythonPlayerModule.cpp
;	COMDAT ?playerIsCostumeSlot@@YAPAU_object@@PAU1@0@Z
_TEXT	SEGMENT
_iSlotIndex$ = -4					; size = 4
_poSelf$ = 8						; size = 4
_poArgs$ = 12						; size = 4
?playerIsCostumeSlot@@YAPAU_object@@PAU1@0@Z PROC	; playerIsCostumeSlot, COMDAT

; 1310 : {

  00000	55		 push	 ebp
  00001	8b ec		 mov	 ebp, esp
  00003	51		 push	 ecx

; 1311 : 	int iSlotIndex;
; 1312 : 	if (!PyTuple_GetInteger(poArgs, 0, &iSlotIndex))

  00004	8d 45 fc	 lea	 eax, DWORD PTR _iSlotIndex$[ebp]
  00007	50		 push	 eax
  00008	6a 00		 push	 0
  0000a	ff 75 0c	 push	 DWORD PTR _poArgs$[ebp]
  0000d	e8 00 00 00 00	 call	 ?PyTuple_GetInteger@@YA_NPAU_object@@HPAH@Z ; PyTuple_GetInteger
  00012	83 c4 0c	 add	 esp, 12			; 0000000cH
  00015	84 c0		 test	 al, al
  00017	75 0e		 jne	 SHORT $LN2@playerIsCo

; 1313 : 		return Py_BuildException();

  00019	6a 00		 push	 0
  0001b	e8 00 00 00 00	 call	 ?Py_BuildException@@YAPAU_object@@PBDZZ ; Py_BuildException
  00020	83 c4 04	 add	 esp, 4

; 1322 : }

  00023	8b e5		 mov	 esp, ebp
  00025	5d		 pop	 ebp
  00026	c3		 ret	 0
$LN2@playerIsCo:

; 1314 : 
; 1315 : #ifdef ENABLE_COSTUME_SYSTEM
; 1316 : 	if (iSlotIndex >= c_Costume_Slot_Start)

  00027	8b 45 fc	 mov	 eax, DWORD PTR _iSlotIndex$[ebp]
  0002a	05 39 ff ff ff	 add	 eax, -199		; ffffff39H
  0002f	83 f8 02	 cmp	 eax, 2
  00032	77 14		 ja	 SHORT $LN4@playerIsCo

; 1317 : 	if (iSlotIndex <= c_Costume_Slot_End)
; 1318 : 		return Py_BuildValue("i", 1);

  00034	6a 01		 push	 1

; 1322 : }

  00036	68 00 00 00 00	 push	 OFFSET ??_C@_01KBJDNOO@i@
  0003b	ff 15 00 00 00
	00		 call	 DWORD PTR __imp__Py_BuildValue
  00041	83 c4 08	 add	 esp, 8
  00044	8b e5		 mov	 esp, ebp
  00046	5d		 pop	 ebp
  00047	c3		 ret	 0
$LN4@playerIsCo:

; 1319 : #endif
; 1320 : 
; 1321 : 	return Py_BuildValue("i", 0);

  00048	6a 00		 push	 0

; 1322 : }

  0004a	68 00 00 00 00	 push	 OFFSET ??_C@_01KBJDNOO@i@
  0004f	ff 15 00 00 00
	00		 call	 DWORD PTR __imp__Py_BuildValue
  00055	83 c4 08	 add	 esp, 8
  00058	8b e5		 mov	 esp, ebp
  0005a	5d		 pop	 ebp
  0005b	c3		 ret	 0
?playerIsCostumeSlot@@YAPAU_object@@PAU1@0@Z ENDP	; playerIsCostumeSlot
_TEXT	ENDS
; Function compile flags: /Ogtp
; File D:\_m2work\txoko-m2-work\txoko-client-src\source\UserInterface\PythonPlayerModule.cpp
;	COMDAT ?playerIsOpenPrivateShop@@YAPAU_object@@PAU1@0@Z
_TEXT	SEGMENT
_poSelf$ = 8						; size = 4
_poArgs$ = 12						; size = 4
?playerIsOpenPrivateShop@@YAPAU_object@@PAU1@0@Z PROC	; playerIsOpenPrivateShop, COMDAT

; 1326 : 	return Py_BuildValue("i", CPythonPlayer::Instance().IsOpenPrivateShop());

  00000	8b 0d 00 00 00
	00		 mov	 ecx, DWORD PTR ?ms_singleton@?$CSingleton@VCPythonPlayer@@@@0PAVCPythonPlayer@@A ; CSingleton<CPythonPlayer>::ms_singleton
  00006	e8 00 00 00 00	 call	 ?IsOpenPrivateShop@CPythonPlayer@@QAE_NXZ ; CPythonPlayer::IsOpenPrivateShop
  0000b	0f b6 c0	 movzx	 eax, al
  0000e	50		 push	 eax
  0000f	68 00 00 00 00	 push	 OFFSET ??_C@_01KBJDNOO@i@
  00014	ff 15 00 00 00
	00		 call	 DWORD PTR __imp__Py_BuildValue
  0001a	83 c4 08	 add	 esp, 8

; 1327 : }

  0001d	c3		 ret	 0
?playerIsOpenPrivateShop@@YAPAU_object@@PAU1@0@Z ENDP	; playerIsOpenPrivateShop
_TEXT	ENDS
; Function compile flags: /Ogtp
; File D:\_m2work\txoko-m2-work\txoko-client-src\source\UserInterface\PythonPlayerModule.cpp
; File D:\_m2work\txoko-m2-work\txoko-client-src\source\UserInterface\GameType.h
; File D:\_m2work\txoko-m2-work\txoko-client-src\source\UserInterface\PythonPlayerModule.cpp
; File D:\_m2work\txoko-m2-work\txoko-client-src\source\UserInterface\GameType.h
; File D:\_m2work\txoko-m2-work\txoko-client-src\source\UserInterface\PythonPlayerModule.cpp
;	COMDAT ?playerIsValuableItem@@YAPAU_object@@PAU1@0@Z
_TEXT	SEGMENT
_pItemData$1$ = -8					; size = 4
_SlotIndex$ = -4					; size = 3
_poSelf$ = 8						; size = 4
_poArgs$ = 12						; size = 4
?playerIsValuableItem@@YAPAU_object@@PAU1@0@Z PROC	; playerIsValuableItem, COMDAT

; 1330 : {

  00000	55		 push	 ebp
  00001	8b ec		 mov	 ebp, esp
  00003	83 ec 08	 sub	 esp, 8
  00006	56		 push	 esi

; 1333 : 	switch (PyTuple_Size (poArgs))

  00007	8b 75 0c	 mov	 esi, DWORD PTR _poArgs$[ebp]
; File D:\_m2work\txoko-m2-work\txoko-client-src\source\UserInterface\GameType.h

; 187  : 		cell = WORD_MAX;

  0000a	b8 ff ff 00 00	 mov	 eax, 65535		; 0000ffffH
; File D:\_m2work\txoko-m2-work\txoko-client-src\source\UserInterface\PythonPlayerModule.cpp

; 1330 : {

  0000f	57		 push	 edi

; 1333 : 	switch (PyTuple_Size (poArgs))

  00010	56		 push	 esi
; File D:\_m2work\txoko-m2-work\txoko-client-src\source\UserInterface\GameType.h

; 186  : 		window_type =     INVENTORY;

  00011	c6 45 fc 01	 mov	 BYTE PTR _SlotIndex$[ebp], 1

; 187  : 		cell = WORD_MAX;

  00015	66 89 45 fd	 mov	 WORD PTR _SlotIndex$[ebp+1], ax
; File D:\_m2work\txoko-m2-work\txoko-client-src\source\UserInterface\PythonPlayerModule.cpp

; 1333 : 	switch (PyTuple_Size (poArgs))

  00019	ff 15 00 00 00
	00		 call	 DWORD PTR __imp__PyTuple_Size
  0001f	83 c4 04	 add	 esp, 4
  00022	83 e8 01	 sub	 eax, 1
  00025	74 18		 je	 SHORT $LN7@playerIsVa
  00027	83 e8 01	 sub	 eax, 1
  0002a	75 26		 jne	 SHORT $LN36@playerIsVa

; 1334 : 	{
; 1335 : 	case 1:
; 1336 : 		if (!PyTuple_GetInteger(poArgs, 0, &SlotIndex.cell))
; 1337 : 			return Py_BuildException();
; 1338 : 		break;
; 1339 : 	case 2:
; 1340 : 		if (!PyTuple_GetInteger(poArgs, 0, &SlotIndex.window_type))

  0002c	8d 45 fc	 lea	 eax, DWORD PTR _SlotIndex$[ebp]
  0002f	50		 push	 eax
  00030	6a 00		 push	 0
  00032	56		 push	 esi
  00033	e8 00 00 00 00	 call	 ?PyTuple_GetInteger@@YA_NPAU_object@@HPAE@Z ; PyTuple_GetInteger
  00038	83 c4 0c	 add	 esp, 12			; 0000000cH
  0003b	84 c0		 test	 al, al
  0003d	74 13		 je	 SHORT $LN36@playerIsVa
$LN7@playerIsVa:

; 1367 : }

  0003f	8d 45 fd	 lea	 eax, DWORD PTR _SlotIndex$[ebp+1]
  00042	50		 push	 eax
  00043	6a 00		 push	 0
  00045	56		 push	 esi
  00046	e8 00 00 00 00	 call	 ?PyTuple_GetInteger@@YA_NPAU_object@@HPAG@Z ; PyTuple_GetInteger
  0004b	83 c4 0c	 add	 esp, 12			; 0000000cH
  0004e	84 c0		 test	 al, al
  00050	75 10		 jne	 SHORT $LN8@playerIsVa
$LN36@playerIsVa:
  00052	6a 00		 push	 0
  00054	e8 00 00 00 00	 call	 ?Py_BuildException@@YAPAU_object@@PBDZZ ; Py_BuildException
  00059	83 c4 04	 add	 esp, 4
  0005c	5f		 pop	 edi
  0005d	5e		 pop	 esi
  0005e	8b e5		 mov	 esp, ebp
  00060	5d		 pop	 ebp
  00061	c3		 ret	 0
$LN8@playerIsVa:

; 1341 : 			return Py_BuildException();
; 1342 : 		if (!PyTuple_GetInteger(poArgs, 0, &SlotIndex.cell))
; 1343 : 			return Py_BuildException();
; 1344 : 		break;
; 1345 : 	default:
; 1346 : 		return Py_BuildException();
; 1347 : 	}
; 1348 : 
; 1349 : 	DWORD dwItemIndex = CPythonPlayer::Instance().GetItemIndex(SlotIndex);

  00062	8b 3d 00 00 00
	00		 mov	 edi, DWORD PTR ?ms_singleton@?$CSingleton@VCPythonPlayer@@@@0PAVCPythonPlayer@@A ; CSingleton<CPythonPlayer>::ms_singleton
  00068	8a 4d fe	 mov	 cl, BYTE PTR _SlotIndex$[ebp+2]
  0006b	66 8b 55 fc	 mov	 dx, WORD PTR _SlotIndex$[ebp]
  0006f	51		 push	 ecx
  00070	8b 47 04	 mov	 eax, DWORD PTR [edi+4]
  00073	8b 70 40	 mov	 esi, DWORD PTR [eax+64]
  00076	8b c4		 mov	 eax, esp
  00078	66 89 10	 mov	 WORD PTR [eax], dx
  0007b	88 48 02	 mov	 BYTE PTR [eax+2], cl
  0007e	8d 4f 04	 lea	 ecx, DWORD PTR [edi+4]
  00081	ff d6		 call	 esi

; 1350 : 	CItemManager::Instance().SelectItemData(dwItemIndex);

  00083	8b 0d 00 00 00
	00		 mov	 ecx, DWORD PTR ?ms_singleton@?$CSingleton@VCItemManager@@@@0PAVCItemManager@@A ; CSingleton<CItemManager>::ms_singleton
  00089	50		 push	 eax
  0008a	e8 00 00 00 00	 call	 ?SelectItemData@CItemManager@@QAEHK@Z ; CItemManager::SelectItemData

; 1351 : 	CItemData * pItemData = CItemManager::Instance().GetSelectedItemDataPointer();

  0008f	8b 0d 00 00 00
	00		 mov	 ecx, DWORD PTR ?ms_singleton@?$CSingleton@VCItemManager@@@@0PAVCItemManager@@A ; CSingleton<CItemManager>::ms_singleton
  00095	e8 00 00 00 00	 call	 ?GetSelectedItemDataPointer@CItemManager@@QAEPAVCItemData@@XZ ; CItemManager::GetSelectedItemDataPointer
  0009a	89 45 f8	 mov	 DWORD PTR _pItemData$1$[ebp], eax

; 1352 : 	if (!pItemData)

  0009d	85 c0		 test	 eax, eax
  0009f	75 13		 jne	 SHORT $LN13@playerIsVa

; 1353 : 		return Py_BuildException("Can't find item data");

  000a1	68 00 00 00 00	 push	 OFFSET ??_C@_0BF@BGKCJNBK@Can?8t?5find?5item?5data@
  000a6	e8 00 00 00 00	 call	 ?Py_BuildException@@YAPAU_object@@PBDZZ ; Py_BuildException
  000ab	83 c4 04	 add	 esp, 4

; 1367 : }

  000ae	5f		 pop	 edi
  000af	5e		 pop	 esi
  000b0	8b e5		 mov	 esp, ebp
  000b2	5d		 pop	 ebp
  000b3	c3		 ret	 0
$LN13@playerIsVa:

; 1354 : 
; 1355 : 	BOOL hasMetinSocket = FALSE;

  000b4	33 f6		 xor	 esi, esi
  000b6	33 ff		 xor	 edi, edi
$LL6@playerIsVa:

; 1356 : 	BOOL isHighPrice = FALSE;
; 1357 : 
; 1358 : 	for (int i = 0; i < METIN_SOCKET_COUNT; ++i)
; 1359 : 		if (CPythonPlayer::METIN_SOCKET_TYPE_NONE != CPythonPlayer::Instance().GetItemMetinSocket(SlotIndex, i))

  000b8	57		 push	 edi
  000b9	51		 push	 ecx
  000ba	66 8b 4d fc	 mov	 cx, WORD PTR _SlotIndex$[ebp]
  000be	8b c4		 mov	 eax, esp
  000c0	66 89 08	 mov	 WORD PTR [eax], cx
  000c3	8a 4d fe	 mov	 cl, BYTE PTR _SlotIndex$[ebp+2]
  000c6	88 48 02	 mov	 BYTE PTR [eax+2], cl
  000c9	8b 0d 00 00 00
	00		 mov	 ecx, DWORD PTR ?ms_singleton@?$CSingleton@VCPythonPlayer@@@@0PAVCPythonPlayer@@A ; CSingleton<CPythonPlayer>::ms_singleton
  000cf	e8 00 00 00 00	 call	 ?GetItemMetinSocket@CPythonPlayer@@QAEKUSItemPos@@K@Z ; CPythonPlayer::GetItemMetinSocket
  000d4	85 c0		 test	 eax, eax
  000d6	b8 01 00 00 00	 mov	 eax, 1
  000db	0f 45 f0	 cmovne	 esi, eax
  000de	47		 inc	 edi
  000df	83 ff 06	 cmp	 edi, 6
  000e2	7c d4		 jl	 SHORT $LL6@playerIsVa

; 1360 : 			hasMetinSocket = TRUE;
; 1361 : 
; 1362 : 	DWORD dwValue = pItemData->GetISellItemPrice();

  000e4	8b 4d f8	 mov	 ecx, DWORD PTR _pItemData$1$[ebp]
  000e7	e8 00 00 00 00	 call	 ?GetISellItemPrice@CItemData@@QBEKXZ ; CItemData::GetISellItemPrice

; 1363 : 	if (dwValue > 5000)
; 1364 : 		isHighPrice = TRUE;
; 1365 : 
; 1366 : 	return Py_BuildValue("i", hasMetinSocket || isHighPrice);

  000ec	85 f6		 test	 esi, esi
  000ee	75 0b		 jne	 SHORT $LN17@playerIsVa
  000f0	3d 88 13 00 00	 cmp	 eax, 5000		; 00001388H
  000f5	77 04		 ja	 SHORT $LN17@playerIsVa
  000f7	33 c0		 xor	 eax, eax
  000f9	eb 05		 jmp	 SHORT $LN18@playerIsVa
$LN17@playerIsVa:
  000fb	b8 01 00 00 00	 mov	 eax, 1
$LN18@playerIsVa:
  00100	50		 push	 eax
  00101	68 00 00 00 00	 push	 OFFSET ??_C@_01KBJDNOO@i@
  00106	ff 15 00 00 00
	00		 call	 DWORD PTR __imp__Py_BuildValue
  0010c	83 c4 08	 add	 esp, 8

; 1367 : }

  0010f	5f		 pop	 edi
  00110	5e		 pop	 esi
  00111	8b e5		 mov	 esp, ebp
  00113	5d		 pop	 ebp
  00114	c3		 ret	 0
?playerIsValuableItem@@YAPAU_object@@PAU1@0@Z ENDP	; playerIsValuableItem
_TEXT	ENDS
; Function compile flags: /Ogtp
; File D:\_m2work\txoko-m2-work\txoko-client-src\source\UserInterface\PythonPlayerModule.cpp
; File C:\Program Files\Microsoft Visual Studio\2022\Community\VC\Tools\MSVC\14.44.35207\include\xstring
; File D:\_m2work\txoko-m2-work\txoko-client-src\source\UserInterface\PythonPlayerModule.cpp
; File C:\Program Files\Microsoft Visual Studio\2022\Community\VC\Tools\MSVC\14.44.35207\include\xstring
; File C:\Program Files\Microsoft Visual Studio\2022\Community\VC\Tools\MSVC\14.44.35207\include\__msvc_string_view.hpp
; File C:\Program Files\Microsoft Visual Studio\2022\Community\VC\Tools\MSVC\14.44.35207\include\xstring
; File D:\_m2work\txoko-m2-work\txoko-client-src\source\UserInterface\PythonPlayerModule.cpp
; File C:\Program Files\Microsoft Visual Studio\2022\Community\VC\Tools\MSVC\14.44.35207\include\xstring
; File D:\_m2work\txoko-m2-work\txoko-client-src\source\UserInterface\PythonPlayerModule.cpp
; File C:\Program Files\Microsoft Visual Studio\2022\Community\VC\Tools\MSVC\14.44.35207\include\xstring
; File D:\_m2work\txoko-m2-work\txoko-client-src\source\UserInterface\PythonPlayerModule.cpp
; File C:\Program Files\Microsoft Visual Studio\2022\Community\VC\Tools\MSVC\14.44.35207\include\xstring
; File C:\Program Files\Microsoft Visual Studio\2022\Community\VC\Tools\MSVC\14.44.35207\include\xmemory
; File D:\_m2work\txoko-m2-work\txoko-client-src\source\UserInterface\PythonPlayerModule.cpp
; File C:\Program Files\Microsoft Visual Studio\2022\Community\VC\Tools\MSVC\14.44.35207\include\xmemory
; File D:\_m2work\txoko-m2-work\txoko-client-src\source\UserInterface\PythonPlayerModule.cpp
;	COMDAT ?GetItemGrade@@YAHPBD@Z
_TEXT	SEGMENT
_strName$ = -48						; size = 24
__$ArrayPad$ = -4					; size = 4
?GetItemGrade@@YAHPBD@Z PROC				; GetItemGrade, COMDAT
; _c_szItemName$ = ecx

; 1370 : {

  00000	55		 push	 ebp
  00001	8b ec		 mov	 ebp, esp
  00003	83 e4 f0	 and	 esp, -16		; fffffff0H
  00006	83 ec 3c	 sub	 esp, 60			; 0000003cH
  00009	a1 00 00 00 00	 mov	 eax, DWORD PTR ___security_cookie
  0000e	33 c4		 xor	 eax, esp
  00010	89 44 24 38	 mov	 DWORD PTR __$ArrayPad$[esp+60], eax
  00014	0f 57 c0	 xorps	 xmm0, xmm0
; File C:\Program Files\Microsoft Visual Studio\2022\Community\VC\Tools\MSVC\14.44.35207\include\xstring

; 517  :     size_type _Mysize = 0; // current length of string (size)

  00017	c7 44 24 1c 00
	00 00 00	 mov	 DWORD PTR _strName$[esp+76], 0
; File D:\_m2work\txoko-m2-work\txoko-client-src\source\UserInterface\PythonPlayerModule.cpp

; 1370 : {

  0001f	56		 push	 esi
  00020	8b d1		 mov	 edx, ecx
; File C:\Program Files\Microsoft Visual Studio\2022\Community\VC\Tools\MSVC\14.44.35207\include\xstring

; 493  :         _CONSTEXPR20 _Bxty() noexcept : _Buf() {} // user-provided, for fancy pointers

  00022	0f 29 44 24 10	 movaps	 XMMWORD PTR _strName$[esp+64], xmm0

; 518  :     size_type _Myres  = 0; // current storage reserved for string (capacity)

  00027	c7 44 24 24 00
	00 00 00	 mov	 DWORD PTR _strName$[esp+84], 0
; File C:\Program Files\Microsoft Visual Studio\2022\Community\VC\Tools\MSVC\14.44.35207\include\__msvc_string_view.hpp

; 456  :             return __builtin_strlen(_First);

  0002f	8d 71 01	 lea	 esi, DWORD PTR [ecx+1]
$LL91@GetItemGra:
  00032	8a 01		 mov	 al, BYTE PTR [ecx]
  00034	41		 inc	 ecx
  00035	84 c0		 test	 al, al
  00037	75 f9		 jne	 SHORT $LL91@GetItemGra
  00039	2b ce		 sub	 ecx, esi
; File C:\Program Files\Microsoft Visual Studio\2022\Community\VC\Tools\MSVC\14.44.35207\include\xstring

; 769  :         _Construct<_Construct_strategy::_From_ptr>(_Ptr, _Convert_size<size_type>(_Traits::length(_Ptr)));

  0003b	51		 push	 ecx
  0003c	52		 push	 edx
  0003d	8d 4c 24 18	 lea	 ecx, DWORD PTR _strName$[esp+72]
  00041	e8 00 00 00 00	 call	 ??$_Construct@$00PBD@?$basic_string@DU?$char_traits@D@std@@V?$allocator@D@2@@std@@AAEXQBDI@Z ; std::basic_string<char,std::char_traits<char>,std::allocator<char> >::_Construct<1,char const *>

; 2494 :         return _Mypair._Myval2._Mysize == 0;

  00046	8b 74 24 20	 mov	 esi, DWORD PTR _strName$[esp+80]
; File D:\_m2work\txoko-m2-work\txoko-client-src\source\UserInterface\PythonPlayerModule.cpp

; 1372 : 	if (strName.empty())

  0004a	8b 54 24 24	 mov	 edx, DWORD PTR _strName$[esp+84]
  0004e	8b 4c 24 10	 mov	 ecx, DWORD PTR _strName$[esp+64]
; File C:\Program Files\Microsoft Visual Studio\2022\Community\VC\Tools\MSVC\14.44.35207\include\xstring

; 2494 :         return _Mypair._Myval2._Mysize == 0;

  00052	85 f6		 test	 esi, esi
; File D:\_m2work\txoko-m2-work\txoko-client-src\source\UserInterface\PythonPlayerModule.cpp

; 1372 : 	if (strName.empty())

  00054	75 04		 jne	 SHORT $LN2@GetItemGra
  00056	33 f6		 xor	 esi, esi
  00058	eb 1e		 jmp	 SHORT $LN7@GetItemGra
$LN2@GetItemGra:
; File C:\Program Files\Microsoft Visual Studio\2022\Community\VC\Tools\MSVC\14.44.35207\include\xstring

; 453  :         return _Myres > _Small_string_capacity;

  0005a	83 fa 0f	 cmp	 edx, 15			; 0000000fH

; 435  :         value_type* _Result = _Bx._Buf;

  0005d	8d 44 24 10	 lea	 eax, DWORD PTR _strName$[esp+64]

; 436  :         if (_Large_mode_engaged()) {

  00061	0f 47 c1	 cmova	 eax, ecx
; File D:\_m2work\txoko-m2-work\txoko-client-src\source\UserInterface\PythonPlayerModule.cpp

; 1375 : 	char chGrade = strName[strName.length() - 1];

  00064	8a 44 06 ff	 mov	 al, BYTE PTR [esi+eax-1]

; 1376 : 	if (chGrade < '0' || chGrade > '9')

  00068	3c 30		 cmp	 al, 48			; 00000030H
  0006a	7c 04		 jl	 SHORT $LN4@GetItemGra
  0006c	3c 39		 cmp	 al, 57			; 00000039H
  0006e	7e 02		 jle	 SHORT $LN3@GetItemGra
$LN4@GetItemGra:

; 1377 : 		chGrade = '0';

  00070	b0 30		 mov	 al, 48			; 00000030H
$LN3@GetItemGra:

; 1378 : 
; 1379 : 	int iGrade = chGrade - '0';

  00072	0f b6 f0	 movzx	 esi, al
  00075	83 ee 30	 sub	 esi, 48			; 00000030H
$LN7@GetItemGra:
; File C:\Program Files\Microsoft Visual Studio\2022\Community\VC\Tools\MSVC\14.44.35207\include\xstring

; 453  :         return _Myres > _Small_string_capacity;

  00078	83 fa 0f	 cmp	 edx, 15			; 0000000fH

; 3083 :         if (_My_data._Large_mode_engaged()) {

  0007b	76 25		 jbe	 SHORT $LN76@GetItemGra

; 852  :         _Al.deallocate(_Old_ptr, _Capacity + 1); // +1 for null terminator

  0007d	42		 inc	 edx
; File C:\Program Files\Microsoft Visual Studio\2022\Community\VC\Tools\MSVC\14.44.35207\include\xmemory

; 985  :         _STD _Deallocate<_New_alignof<_Ty>>(_Ptr, sizeof(_Ty) * _Count);

  0007e	8b c1		 mov	 eax, ecx

; 284  :         if (_Bytes >= _Big_allocation_threshold) {

  00080	81 fa 00 10 00
	00		 cmp	 edx, 4096		; 00001000H
  00086	72 10		 jb	 SHORT $LN84@GetItemGra

; 205  :     const uintptr_t _Ptr_container   = _Ptr_user[-1];

  00088	8b 48 fc	 mov	 ecx, DWORD PTR [eax-4]
  0008b	83 c2 23	 add	 edx, 35			; 00000023H
  0008e	2b c1		 sub	 eax, ecx

; 219  :     _STL_VERIFY(_Back_shift >= _Min_back_shift && _Back_shift <= _Non_user_size, "invalid argument");

  00090	83 c0 fc	 add	 eax, -4			; fffffffcH
  00093	83 f8 1f	 cmp	 eax, 31			; 0000001fH
  00096	77 1c		 ja	 SHORT $LN94@GetItemGra
$LN84@GetItemGra:

; 289  :         ::operator delete(_Ptr, _Bytes);

  00098	52		 push	 edx
  00099	51		 push	 ecx
  0009a	e8 00 00 00 00	 call	 ??3@YAXPAXI@Z		; operator delete
  0009f	83 c4 08	 add	 esp, 8
$LN76@GetItemGra:
; File D:\_m2work\txoko-m2-work\txoko-client-src\source\UserInterface\PythonPlayerModule.cpp

; 1381 : }

  000a2	8b 4c 24 3c	 mov	 ecx, DWORD PTR __$ArrayPad$[esp+64]
  000a6	8b c6		 mov	 eax, esi
  000a8	5e		 pop	 esi
  000a9	33 cc		 xor	 ecx, esp
  000ab	e8 00 00 00 00	 call	 @__security_check_cookie@4
  000b0	8b e5		 mov	 esp, ebp
  000b2	5d		 pop	 ebp
  000b3	c3		 ret	 0
$LN94@GetItemGra:
; File C:\Program Files\Microsoft Visual Studio\2022\Community\VC\Tools\MSVC\14.44.35207\include\xmemory

; 219  :     _STL_VERIFY(_Back_shift >= _Min_back_shift && _Back_shift <= _Non_user_size, "invalid argument");

  000b4	6a 00		 push	 0
  000b6	6a 00		 push	 0
  000b8	6a 00		 push	 0
  000ba	6a 00		 push	 0
  000bc	6a 00		 push	 0
  000be	e8 00 00 00 00	 call	 __invoke_watson
$LN92@GetItemGra:
  000c3	cc		 int	 3
?GetItemGrade@@YAHPBD@Z ENDP				; GetItemGrade
_TEXT	ENDS
; Function compile flags: /Ogtp
; File D:\_m2work\txoko-m2-work\txoko-client-src\source\UserInterface\PythonPlayerModule.cpp
; File D:\_m2work\txoko-m2-work\txoko-client-src\source\UserInterface\GameType.h
; File D:\_m2work\txoko-m2-work\txoko-client-src\source\UserInterface\PythonPlayerModule.cpp
; File D:\_m2work\txoko-m2-work\txoko-client-src\source\UserInterface\GameType.h
; File D:\_m2work\txoko-m2-work\txoko-client-src\source\UserInterface\PythonPlayerModule.cpp
;	COMDAT ?playerGetItemGrade@@YAPAU_object@@PAU1@0@Z
_TEXT	SEGMENT
_SlotIndex$ = -4					; size = 3
_poSelf$ = 8						; size = 4
_poArgs$ = 12						; size = 4
?playerGetItemGrade@@YAPAU_object@@PAU1@0@Z PROC	; playerGetItemGrade, COMDAT

; 1384 : {

  00000	55		 push	 ebp
  00001	8b ec		 mov	 ebp, esp
  00003	51		 push	 ecx
  00004	56		 push	 esi

; 1386 : 	switch (PyTuple_Size(poArgs))

  00005	8b 75 0c	 mov	 esi, DWORD PTR _poArgs$[ebp]
; File D:\_m2work\txoko-m2-work\txoko-client-src\source\UserInterface\GameType.h

; 187  : 		cell = WORD_MAX;

  00008	b8 ff ff 00 00	 mov	 eax, 65535		; 0000ffffH
; File D:\_m2work\txoko-m2-work\txoko-client-src\source\UserInterface\PythonPlayerModule.cpp

; 1384 : {

  0000d	57		 push	 edi

; 1386 : 	switch (PyTuple_Size(poArgs))

  0000e	56		 push	 esi
; File D:\_m2work\txoko-m2-work\txoko-client-src\source\UserInterface\GameType.h

; 186  : 		window_type =     INVENTORY;

  0000f	c6 45 fc 01	 mov	 BYTE PTR _SlotIndex$[ebp], 1

; 187  : 		cell = WORD_MAX;

  00013	66 89 45 fd	 mov	 WORD PTR _SlotIndex$[ebp+1], ax
; File D:\_m2work\txoko-m2-work\txoko-client-src\source\UserInterface\PythonPlayerModule.cpp

; 1386 : 	switch (PyTuple_Size(poArgs))

  00017	ff 15 00 00 00
	00		 call	 DWORD PTR __imp__PyTuple_Size
  0001d	83 c4 04	 add	 esp, 4
  00020	83 e8 01	 sub	 eax, 1
  00023	74 20		 je	 SHORT $LN4@playerGetI
  00025	83 e8 01	 sub	 eax, 1
  00028	75 2e		 jne	 SHORT $LN22@playerGetI

; 1390 : 			return Py_BuildException();
; 1391 : 		break;
; 1392 : 	case 2:
; 1393 : 		if (!PyTuple_GetInteger(poArgs, 0, &SlotIndex.window_type))

  0002a	8d 45 fc	 lea	 eax, DWORD PTR _SlotIndex$[ebp]
  0002d	50		 push	 eax
  0002e	6a 00		 push	 0
  00030	56		 push	 esi
  00031	e8 00 00 00 00	 call	 ?PyTuple_GetInteger@@YA_NPAU_object@@HPAE@Z ; PyTuple_GetInteger
  00036	83 c4 0c	 add	 esp, 12			; 0000000cH
  00039	84 c0		 test	 al, al
  0003b	74 1b		 je	 SHORT $LN22@playerGetI

; 1394 : 			return Py_BuildException();
; 1395 : 		if (!PyTuple_GetInteger(poArgs, 1, &SlotIndex.cell))

  0003d	8d 45 fd	 lea	 eax, DWORD PTR _SlotIndex$[ebp+1]
  00040	50		 push	 eax
  00041	6a 01		 push	 1

; 1396 : 			return Py_BuildException();

  00043	eb 06		 jmp	 SHORT $LN23@playerGetI
$LN4@playerGetI:

; 1387 : 	{
; 1388 : 	case 1:
; 1389 : 		if (!PyTuple_GetInteger(poArgs, 0, &SlotIndex.cell))

  00045	8d 45 fd	 lea	 eax, DWORD PTR _SlotIndex$[ebp+1]
  00048	50		 push	 eax
  00049	6a 00		 push	 0
$LN23@playerGetI:

; 1409 : }

  0004b	56		 push	 esi
  0004c	e8 00 00 00 00	 call	 ?PyTuple_GetInteger@@YA_NPAU_object@@HPAG@Z ; PyTuple_GetInteger
  00051	83 c4 0c	 add	 esp, 12			; 0000000cH
  00054	84 c0		 test	 al, al
  00056	75 10		 jne	 SHORT $LN5@playerGetI
$LN22@playerGetI:
  00058	6a 00		 push	 0
  0005a	e8 00 00 00 00	 call	 ?Py_BuildException@@YAPAU_object@@PBDZZ ; Py_BuildException
  0005f	83 c4 04	 add	 esp, 4
  00062	5f		 pop	 edi
  00063	5e		 pop	 esi
  00064	8b e5		 mov	 esp, ebp
  00066	5d		 pop	 ebp
  00067	c3		 ret	 0
$LN5@playerGetI:

; 1397 : 		break;
; 1398 : 	default:
; 1399 : 		return Py_BuildException();
; 1400 : 	}
; 1401 : 
; 1402 : 	int iItemIndex = CPythonPlayer::Instance().GetItemIndex(SlotIndex);

  00068	8b 3d 00 00 00
	00		 mov	 edi, DWORD PTR ?ms_singleton@?$CSingleton@VCPythonPlayer@@@@0PAVCPythonPlayer@@A ; CSingleton<CPythonPlayer>::ms_singleton
  0006e	8a 4d fe	 mov	 cl, BYTE PTR _SlotIndex$[ebp+2]
  00071	66 8b 55 fc	 mov	 dx, WORD PTR _SlotIndex$[ebp]
  00075	51		 push	 ecx
  00076	8b 47 04	 mov	 eax, DWORD PTR [edi+4]
  00079	8b 70 40	 mov	 esi, DWORD PTR [eax+64]
  0007c	8b c4		 mov	 eax, esp
  0007e	66 89 10	 mov	 WORD PTR [eax], dx
  00081	88 48 02	 mov	 BYTE PTR [eax+2], cl
  00084	8d 4f 04	 lea	 ecx, DWORD PTR [edi+4]
  00087	ff d6		 call	 esi

; 1403 : 	CItemManager::Instance().SelectItemData(iItemIndex);

  00089	8b 0d 00 00 00
	00		 mov	 ecx, DWORD PTR ?ms_singleton@?$CSingleton@VCItemManager@@@@0PAVCItemManager@@A ; CSingleton<CItemManager>::ms_singleton
  0008f	50		 push	 eax
  00090	e8 00 00 00 00	 call	 ?SelectItemData@CItemManager@@QAEHK@Z ; CItemManager::SelectItemData

; 1404 : 	CItemData * pItemData = CItemManager::Instance().GetSelectedItemDataPointer();

  00095	8b 0d 00 00 00
	00		 mov	 ecx, DWORD PTR ?ms_singleton@?$CSingleton@VCItemManager@@@@0PAVCItemManager@@A ; CSingleton<CItemManager>::ms_singleton
  0009b	e8 00 00 00 00	 call	 ?GetSelectedItemDataPointer@CItemManager@@QAEPAVCItemData@@XZ ; CItemManager::GetSelectedItemDataPointer

; 1405 : 	if (!pItemData)

  000a0	85 c0		 test	 eax, eax
  000a2	75 13		 jne	 SHORT $LN10@playerGetI

; 1406 : 		return Py_BuildException("Can't find item data");

  000a4	68 00 00 00 00	 push	 OFFSET ??_C@_0BF@BGKCJNBK@Can?8t?5find?5item?5data@

; 1409 : }

  000a9	e8 00 00 00 00	 call	 ?Py_BuildException@@YAPAU_object@@PBDZZ ; Py_BuildException
  000ae	83 c4 04	 add	 esp, 4
  000b1	5f		 pop	 edi
  000b2	5e		 pop	 esi
  000b3	8b e5		 mov	 esp, ebp
  000b5	5d		 pop	 ebp
  000b6	c3		 ret	 0
$LN10@playerGetI:

; 1407 : 
; 1408 : 	return Py_BuildValue("i", GetItemGrade(pItemData->GetName()));

  000b7	8b c8		 mov	 ecx, eax
  000b9	e8 00 00 00 00	 call	 ?GetName@CItemData@@QBEPBDXZ ; CItemData::GetName
  000be	8b c8		 mov	 ecx, eax
  000c0	e8 00 00 00 00	 call	 ?GetItemGrade@@YAHPBD@Z	; GetItemGrade
  000c5	50		 push	 eax
  000c6	68 00 00 00 00	 push	 OFFSET ??_C@_01KBJDNOO@i@
  000cb	ff 15 00 00 00
	00		 call	 DWORD PTR __imp__Py_BuildValue
  000d1	83 c4 08	 add	 esp, 8

; 1409 : }

  000d4	5f		 pop	 edi
  000d5	5e		 pop	 esi
  000d6	8b e5		 mov	 esp, ebp
  000d8	5d		 pop	 ebp
  000d9	c3		 ret	 0
?playerGetItemGrade@@YAPAU_object@@PAU1@0@Z ENDP	; playerGetItemGrade
_TEXT	ENDS
; Function compile flags: /Ogtp
; File D:\_m2work\txoko-m2-work\txoko-client-src\source\UserInterface\PythonPlayerModule.cpp
; File D:\_m2work\txoko-m2-work\txoko-client-src\source\UserInterface\GameType.h
; File D:\_m2work\txoko-m2-work\txoko-client-src\source\UserInterface\PythonPlayerModule.cpp
; File D:\_m2work\txoko-m2-work\txoko-client-src\source\UserInterface\GameType.h
; File D:\_m2work\txoko-m2-work\txoko-client-src\source\UserInterface\PythonPlayerModule.cpp
;	COMDAT ?playerCanRefine@@YAPAU_object@@PAU1@0@Z
_TEXT	SEGMENT
_iScrollItemIndex$ = -12				; size = 4
_TargetSlotIndex$ = -8					; size = 3
tv181 = -1						; size = 1
_poSelf$ = 8						; size = 4
_poArgs$ = 12						; size = 4
?playerCanRefine@@YAPAU_object@@PAU1@0@Z PROC		; playerCanRefine, COMDAT

; 1441 : {

  00000	55		 push	 ebp
  00001	8b ec		 mov	 ebp, esp
  00003	83 ec 0c	 sub	 esp, 12			; 0000000cH
  00006	56		 push	 esi

; 1445 : 	switch (PyTuple_Size(poArgs))

  00007	8b 75 0c	 mov	 esi, DWORD PTR _poArgs$[ebp]
; File D:\_m2work\txoko-m2-work\txoko-client-src\source\UserInterface\GameType.h

; 187  : 		cell = WORD_MAX;

  0000a	b8 ff ff 00 00	 mov	 eax, 65535		; 0000ffffH
; File D:\_m2work\txoko-m2-work\txoko-client-src\source\UserInterface\PythonPlayerModule.cpp

; 1441 : {

  0000f	57		 push	 edi

; 1445 : 	switch (PyTuple_Size(poArgs))

  00010	56		 push	 esi
; File D:\_m2work\txoko-m2-work\txoko-client-src\source\UserInterface\GameType.h

; 186  : 		window_type =     INVENTORY;

  00011	c6 45 f8 01	 mov	 BYTE PTR _TargetSlotIndex$[ebp], 1

; 187  : 		cell = WORD_MAX;

  00015	66 89 45 f9	 mov	 WORD PTR _TargetSlotIndex$[ebp+1], ax
; File D:\_m2work\txoko-m2-work\txoko-client-src\source\UserInterface\PythonPlayerModule.cpp

; 1445 : 	switch (PyTuple_Size(poArgs))

  00019	ff 15 00 00 00
	00		 call	 DWORD PTR __imp__PyTuple_Size
  0001f	83 c4 04	 add	 esp, 4
  00022	83 e8 02	 sub	 eax, 2
  00025	74 49		 je	 SHORT $LN4@playerCanR
  00027	83 e8 01	 sub	 eax, 1
  0002a	75 39		 jne	 SHORT $LN43@playerCanR

; 1451 : 			return Py_BadArgument();
; 1452 : 		break;
; 1453 : 	case 3:
; 1454 : 		if (!PyTuple_GetInteger(poArgs, 0, &iScrollItemIndex))

  0002c	8d 45 f4	 lea	 eax, DWORD PTR _iScrollItemIndex$[ebp]
  0002f	50		 push	 eax
  00030	6a 00		 push	 0
  00032	56		 push	 esi
  00033	e8 00 00 00 00	 call	 ?PyTuple_GetInteger@@YA_NPAU_object@@HPAH@Z ; PyTuple_GetInteger
  00038	83 c4 0c	 add	 esp, 12			; 0000000cH
  0003b	84 c0		 test	 al, al
  0003d	74 26		 je	 SHORT $LN43@playerCanR

; 1455 : 			return Py_BadArgument();
; 1456 : 		if (!PyTuple_GetInteger(poArgs, 1, &TargetSlotIndex.window_type))

  0003f	8d 45 f8	 lea	 eax, DWORD PTR _TargetSlotIndex$[ebp]
  00042	50		 push	 eax
  00043	6a 01		 push	 1
  00045	56		 push	 esi
  00046	e8 00 00 00 00	 call	 ?PyTuple_GetInteger@@YA_NPAU_object@@HPAE@Z ; PyTuple_GetInteger
  0004b	83 c4 0c	 add	 esp, 12			; 0000000cH
  0004e	84 c0		 test	 al, al
  00050	74 13		 je	 SHORT $LN43@playerCanR

; 1457 : 			return Py_BadArgument();
; 1458 : 		if (!PyTuple_GetInteger(poArgs, 2, &TargetSlotIndex.cell))

  00052	8d 45 f9	 lea	 eax, DWORD PTR _TargetSlotIndex$[ebp+1]
  00055	50		 push	 eax
  00056	6a 02		 push	 2
  00058	56		 push	 esi
  00059	e8 00 00 00 00	 call	 ?PyTuple_GetInteger@@YA_NPAU_object@@HPAG@Z ; PyTuple_GetInteger
  0005e	83 c4 0c	 add	 esp, 12			; 0000000cH
  00061	84 c0		 test	 al, al
  00063	75 31		 jne	 SHORT $LN6@playerCanR
$LN43@playerCanR:

; 1500 : 	}
; 1501 : 
; 1502 : 	return Py_BuildValue("i", REFINE_CANT);
; 1503 : }

  00065	e8 00 00 00 00	 call	 ?Py_BadArgument@@YAPAU_object@@XZ ; Py_BadArgument
  0006a	5f		 pop	 edi
  0006b	5e		 pop	 esi
  0006c	8b e5		 mov	 esp, ebp
  0006e	5d		 pop	 ebp
  0006f	c3		 ret	 0
$LN4@playerCanR:

; 1446 : 	{
; 1447 : 	case 2:
; 1448 : 		if (!PyTuple_GetInteger(poArgs, 0, &iScrollItemIndex))

  00070	8d 45 f4	 lea	 eax, DWORD PTR _iScrollItemIndex$[ebp]
  00073	50		 push	 eax
  00074	6a 00		 push	 0
  00076	56		 push	 esi
  00077	e8 00 00 00 00	 call	 ?PyTuple_GetInteger@@YA_NPAU_object@@HPAH@Z ; PyTuple_GetInteger
  0007c	83 c4 0c	 add	 esp, 12			; 0000000cH
  0007f	84 c0		 test	 al, al
  00081	74 e2		 je	 SHORT $LN43@playerCanR

; 1449 : 			return Py_BadArgument();
; 1450 : 		if (!PyTuple_GetInteger(poArgs, 1, &TargetSlotIndex.cell))

  00083	8d 45 f9	 lea	 eax, DWORD PTR _TargetSlotIndex$[ebp+1]
  00086	50		 push	 eax
  00087	6a 01		 push	 1
  00089	56		 push	 esi
  0008a	e8 00 00 00 00	 call	 ?PyTuple_GetInteger@@YA_NPAU_object@@HPAG@Z ; PyTuple_GetInteger
  0008f	83 c4 0c	 add	 esp, 12			; 0000000cH
  00092	84 c0		 test	 al, al
  00094	74 cf		 je	 SHORT $LN43@playerCanR
$LN6@playerCanR:

; 1459 : 			return Py_BadArgument();
; 1460 : 		break;
; 1461 : 	default:
; 1462 : 		return Py_BadArgument();
; 1463 : 	}
; 1464 : 
; 1465 : 	if (CPythonPlayer::Instance().IsEquipmentSlot(TargetSlotIndex))

  00096	66 8b 45 f8	 mov	 ax, WORD PTR _TargetSlotIndex$[ebp]
  0009a	51		 push	 ecx
  0009b	8b cc		 mov	 ecx, esp
  0009d	66 89 01	 mov	 WORD PTR [ecx], ax
  000a0	8a 45 fa	 mov	 al, BYTE PTR _TargetSlotIndex$[ebp+2]
  000a3	88 41 02	 mov	 BYTE PTR [ecx+2], al
  000a6	e8 00 00 00 00	 call	 ?IsEquipmentSlot@CPythonPlayer@@QAE_NUSItemPos@@@Z ; CPythonPlayer::IsEquipmentSlot
  000ab	84 c0		 test	 al, al
  000ad	74 16		 je	 SHORT $LN12@playerCanR

; 1466 : 	{
; 1467 : 		return Py_BuildValue("i", REFINE_CANT_REFINE_METIN_TO_EQUIPMENT);

  000af	6a 06		 push	 6

; 1500 : 	}
; 1501 : 
; 1502 : 	return Py_BuildValue("i", REFINE_CANT);
; 1503 : }

  000b1	68 00 00 00 00	 push	 OFFSET ??_C@_01KBJDNOO@i@
  000b6	ff 15 00 00 00
	00		 call	 DWORD PTR __imp__Py_BuildValue
  000bc	83 c4 08	 add	 esp, 8
  000bf	5f		 pop	 edi
  000c0	5e		 pop	 esi
  000c1	8b e5		 mov	 esp, ebp
  000c3	5d		 pop	 ebp
  000c4	c3		 ret	 0
$LN12@playerCanR:

; 1468 : 	}
; 1469 : 
; 1470 : 	// Scroll
; 1471 : 	CItemManager::Instance().SelectItemData(iScrollItemIndex);

  000c5	ff 75 f4	 push	 DWORD PTR _iScrollItemIndex$[ebp]
  000c8	8b 0d 00 00 00
	00		 mov	 ecx, DWORD PTR ?ms_singleton@?$CSingleton@VCItemManager@@@@0PAVCItemManager@@A ; CSingleton<CItemManager>::ms_singleton
  000ce	e8 00 00 00 00	 call	 ?SelectItemData@CItemManager@@QAEHK@Z ; CItemManager::SelectItemData

; 1472 : 	CItemData * pScrollItemData = CItemManager::Instance().GetSelectedItemDataPointer();

  000d3	8b 0d 00 00 00
	00		 mov	 ecx, DWORD PTR ?ms_singleton@?$CSingleton@VCItemManager@@@@0PAVCItemManager@@A ; CSingleton<CItemManager>::ms_singleton
  000d9	e8 00 00 00 00	 call	 ?GetSelectedItemDataPointer@CItemManager@@QAEPAVCItemData@@XZ ; CItemManager::GetSelectedItemDataPointer
  000de	8b f0		 mov	 esi, eax

; 1473 : 	if (!pScrollItemData)

  000e0	85 f6		 test	 esi, esi
  000e2	75 16		 jne	 SHORT $LN13@playerCanR
$LN42@playerCanR:

; 1500 : 	}
; 1501 : 
; 1502 : 	return Py_BuildValue("i", REFINE_CANT);
; 1503 : }

  000e4	6a 00		 push	 0
  000e6	68 00 00 00 00	 push	 OFFSET ??_C@_01KBJDNOO@i@
  000eb	ff 15 00 00 00
	00		 call	 DWORD PTR __imp__Py_BuildValue
  000f1	83 c4 08	 add	 esp, 8
  000f4	5f		 pop	 edi
  000f5	5e		 pop	 esi
  000f6	8b e5		 mov	 esp, ebp
  000f8	5d		 pop	 ebp
  000f9	c3		 ret	 0
$LN13@playerCanR:

; 1474 : 		return Py_BuildValue("i", REFINE_CANT);
; 1475 : 	int iScrollType = pScrollItemData->GetType();

  000fa	8b ce		 mov	 ecx, esi
  000fc	e8 00 00 00 00	 call	 ?GetType@CItemData@@QBEEXZ ; CItemData::GetType

; 1476 : 	int iScrollSubType = pScrollItemData->GetSubType();

  00101	8b ce		 mov	 ecx, esi
  00103	88 45 ff	 mov	 BYTE PTR tv181[ebp], al
  00106	e8 00 00 00 00	 call	 ?GetSubType@CItemData@@QBEEXZ ; CItemData::GetSubType

; 1477 : 	if (iScrollType != CItemData::ITEM_TYPE_USE)

  0010b	80 7d ff 03	 cmp	 BYTE PTR tv181[ebp], 3
  0010f	75 d3		 jne	 SHORT $LN42@playerCanR

; 1478 : 		return Py_BuildValue("i", REFINE_CANT);
; 1479 : 	if (iScrollSubType != CItemData::USE_TUNING)

  00111	3c 02		 cmp	 al, 2
  00113	75 cf		 jne	 SHORT $LN42@playerCanR

; 1480 : 		return Py_BuildValue("i", REFINE_CANT);
; 1481 : 
; 1482 : 	// Target Item
; 1483 : 	int iTargetItemIndex = CPythonPlayer::Instance().GetItemIndex(TargetSlotIndex);

  00115	8b 3d 00 00 00
	00		 mov	 edi, DWORD PTR ?ms_singleton@?$CSingleton@VCPythonPlayer@@@@0PAVCPythonPlayer@@A ; CSingleton<CPythonPlayer>::ms_singleton
  0011b	8a 4d fa	 mov	 cl, BYTE PTR _TargetSlotIndex$[ebp+2]
  0011e	66 8b 55 f8	 mov	 dx, WORD PTR _TargetSlotIndex$[ebp]
  00122	51		 push	 ecx
  00123	8b 47 04	 mov	 eax, DWORD PTR [edi+4]
  00126	8b 70 40	 mov	 esi, DWORD PTR [eax+64]
  00129	8b c4		 mov	 eax, esp
  0012b	66 89 10	 mov	 WORD PTR [eax], dx
  0012e	88 48 02	 mov	 BYTE PTR [eax+2], cl
  00131	8d 4f 04	 lea	 ecx, DWORD PTR [edi+4]
  00134	ff d6		 call	 esi

; 1484 : 	CItemManager::Instance().SelectItemData(iTargetItemIndex);

  00136	8b 0d 00 00 00
	00		 mov	 ecx, DWORD PTR ?ms_singleton@?$CSingleton@VCItemManager@@@@0PAVCItemManager@@A ; CSingleton<CItemManager>::ms_singleton
  0013c	50		 push	 eax
  0013d	e8 00 00 00 00	 call	 ?SelectItemData@CItemManager@@QAEHK@Z ; CItemManager::SelectItemData

; 1485 : 	CItemData * pTargetItemData = CItemManager::Instance().GetSelectedItemDataPointer();

  00142	8b 0d 00 00 00
	00		 mov	 ecx, DWORD PTR ?ms_singleton@?$CSingleton@VCItemManager@@@@0PAVCItemManager@@A ; CSingleton<CItemManager>::ms_singleton
  00148	e8 00 00 00 00	 call	 ?GetSelectedItemDataPointer@CItemManager@@QAEPAVCItemData@@XZ ; CItemManager::GetSelectedItemDataPointer
  0014d	8b f0		 mov	 esi, eax

; 1486 : 	if (!pTargetItemData)

  0014f	85 f6		 test	 esi, esi
  00151	74 91		 je	 SHORT $LN42@playerCanR

; 1487 : 		return Py_BuildValue("i", REFINE_CANT);
; 1488 : 	int iTargetType = pTargetItemData->GetType();

  00153	8b ce		 mov	 ecx, esi
  00155	e8 00 00 00 00	 call	 ?GetType@CItemData@@QBEEXZ ; CItemData::GetType

; 1489 : 	//int iTargetSubType = pTargetItemData->GetSubType();
; 1490 : 	if (CItemData::ITEM_TYPE_ROD == iTargetType)

  0015a	3c 0d		 cmp	 al, 13			; 0000000dH
  0015c	75 16		 jne	 SHORT $LN17@playerCanR

; 1491 : 		return Py_BuildValue("i", REFINE_CANT_REFINE_ROD);

  0015e	6a 07		 push	 7

; 1500 : 	}
; 1501 : 
; 1502 : 	return Py_BuildValue("i", REFINE_CANT);
; 1503 : }

  00160	68 00 00 00 00	 push	 OFFSET ??_C@_01KBJDNOO@i@
  00165	ff 15 00 00 00
	00		 call	 DWORD PTR __imp__Py_BuildValue
  0016b	83 c4 08	 add	 esp, 8
  0016e	5f		 pop	 edi
  0016f	5e		 pop	 esi
  00170	8b e5		 mov	 esp, ebp
  00172	5d		 pop	 ebp
  00173	c3		 ret	 0
$LN17@playerCanR:

; 1492 : 
; 1493 : 	if (pTargetItemData->HasNextGrade())

  00174	8b ce		 mov	 ecx, esi
  00176	e8 00 00 00 00	 call	 ?HasNextGrade@CItemData@@QBEHXZ ; CItemData::HasNextGrade
  0017b	85 c0		 test	 eax, eax
  0017d	74 16		 je	 SHORT $LN18@playerCanR

; 1494 : 	{
; 1495 : 		return Py_BuildValue("i", REFINE_OK);

  0017f	6a 01		 push	 1

; 1500 : 	}
; 1501 : 
; 1502 : 	return Py_BuildValue("i", REFINE_CANT);
; 1503 : }

  00181	68 00 00 00 00	 push	 OFFSET ??_C@_01KBJDNOO@i@
  00186	ff 15 00 00 00
	00		 call	 DWORD PTR __imp__Py_BuildValue
  0018c	83 c4 08	 add	 esp, 8
  0018f	5f		 pop	 edi
  00190	5e		 pop	 esi
  00191	8b e5		 mov	 esp, ebp
  00193	5d		 pop	 ebp
  00194	c3		 ret	 0
$LN18@playerCanR:

; 1496 : 	}
; 1497 : 	else
; 1498 : 	{
; 1499 : 		return Py_BuildValue("i", REFINE_NOT_NEXT_GRADE_ITEM);

  00195	6a 05		 push	 5

; 1500 : 	}
; 1501 : 
; 1502 : 	return Py_BuildValue("i", REFINE_CANT);
; 1503 : }

  00197	68 00 00 00 00	 push	 OFFSET ??_C@_01KBJDNOO@i@
  0019c	ff 15 00 00 00
	00		 call	 DWORD PTR __imp__Py_BuildValue
  001a2	83 c4 08	 add	 esp, 8
  001a5	5f		 pop	 edi
  001a6	5e		 pop	 esi
  001a7	8b e5		 mov	 esp, ebp
  001a9	5d		 pop	 ebp
  001aa	c3		 ret	 0
?playerCanRefine@@YAPAU_object@@PAU1@0@Z ENDP		; playerCanRefine
_TEXT	ENDS
; Function compile flags: /Ogtp
; File D:\_m2work\txoko-m2-work\txoko-client-src\source\UserInterface\PythonPlayerModule.cpp
; File D:\_m2work\txoko-m2-work\txoko-client-src\source\UserInterface\GameType.h
; File D:\_m2work\txoko-m2-work\txoko-client-src\source\UserInterface\PythonPlayerModule.cpp
; File D:\_m2work\txoko-m2-work\txoko-client-src\source\UserInterface\GameType.h
; File D:\_m2work\txoko-m2-work\txoko-client-src\source\UserInterface\PythonPlayerModule.cpp
;	COMDAT ?playerCanAttachMetin@@YAPAU_object@@PAU1@0@Z
_TEXT	SEGMENT
_pMetinItemData$ = -20					; size = 4
_pTargetItemData$ = -16					; size = 4
_iMetinItemID$ = -12					; size = 4
_TargetSlotIndex$ = -8					; size = 3
tv185 = -1						; size = 1
_poSelf$ = 8						; size = 4
_poArgs$ = 12						; size = 4
?playerCanAttachMetin@@YAPAU_object@@PAU1@0@Z PROC	; playerCanAttachMetin, COMDAT

; 1516 : {

  00000	55		 push	 ebp
  00001	8b ec		 mov	 ebp, esp
  00003	83 ec 14	 sub	 esp, 20			; 00000014H
  00006	56		 push	 esi

; 1520 : 	switch (PyTuple_Size(poArgs))

  00007	8b 75 0c	 mov	 esi, DWORD PTR _poArgs$[ebp]
; File D:\_m2work\txoko-m2-work\txoko-client-src\source\UserInterface\GameType.h

; 187  : 		cell = WORD_MAX;

  0000a	b8 ff ff 00 00	 mov	 eax, 65535		; 0000ffffH
; File D:\_m2work\txoko-m2-work\txoko-client-src\source\UserInterface\PythonPlayerModule.cpp

; 1516 : {

  0000f	57		 push	 edi

; 1520 : 	switch (PyTuple_Size(poArgs))

  00010	56		 push	 esi
; File D:\_m2work\txoko-m2-work\txoko-client-src\source\UserInterface\GameType.h

; 186  : 		window_type =     INVENTORY;

  00011	c6 45 f8 01	 mov	 BYTE PTR _TargetSlotIndex$[ebp], 1

; 187  : 		cell = WORD_MAX;

  00015	66 89 45 f9	 mov	 WORD PTR _TargetSlotIndex$[ebp+1], ax
; File D:\_m2work\txoko-m2-work\txoko-client-src\source\UserInterface\PythonPlayerModule.cpp

; 1520 : 	switch (PyTuple_Size(poArgs))

  00019	ff 15 00 00 00
	00		 call	 DWORD PTR __imp__PyTuple_Size
  0001f	83 c4 04	 add	 esp, 4
  00022	83 e8 02	 sub	 eax, 2
  00025	74 4e		 je	 SHORT $LN7@playerCanA
  00027	83 e8 01	 sub	 eax, 1
  0002a	75 39		 jne	 SHORT $LN57@playerCanA

; 1526 : 			return Py_BuildException();
; 1527 : 		break;
; 1528 : 	case 3:
; 1529 : 		if (!PyTuple_GetInteger(poArgs, 0, &iMetinItemID))

  0002c	8d 45 f4	 lea	 eax, DWORD PTR _iMetinItemID$[ebp]
  0002f	50		 push	 eax
  00030	6a 00		 push	 0
  00032	56		 push	 esi
  00033	e8 00 00 00 00	 call	 ?PyTuple_GetInteger@@YA_NPAU_object@@HPAH@Z ; PyTuple_GetInteger
  00038	83 c4 0c	 add	 esp, 12			; 0000000cH
  0003b	84 c0		 test	 al, al
  0003d	74 26		 je	 SHORT $LN57@playerCanA

; 1530 : 			return Py_BuildException();
; 1531 : 		if (!PyTuple_GetInteger(poArgs, 1, &TargetSlotIndex.window_type))

  0003f	8d 45 f8	 lea	 eax, DWORD PTR _TargetSlotIndex$[ebp]
  00042	50		 push	 eax
  00043	6a 01		 push	 1
  00045	56		 push	 esi
  00046	e8 00 00 00 00	 call	 ?PyTuple_GetInteger@@YA_NPAU_object@@HPAE@Z ; PyTuple_GetInteger
  0004b	83 c4 0c	 add	 esp, 12			; 0000000cH
  0004e	84 c0		 test	 al, al
  00050	74 13		 je	 SHORT $LN57@playerCanA

; 1532 : 			return Py_BuildException();
; 1533 : 		if (!PyTuple_GetInteger(poArgs, 2, &TargetSlotIndex.cell))

  00052	8d 45 f9	 lea	 eax, DWORD PTR _TargetSlotIndex$[ebp+1]
  00055	50		 push	 eax
  00056	6a 02		 push	 2
  00058	56		 push	 esi
  00059	e8 00 00 00 00	 call	 ?PyTuple_GetInteger@@YA_NPAU_object@@HPAG@Z ; PyTuple_GetInteger
  0005e	83 c4 0c	 add	 esp, 12			; 0000000cH
  00061	84 c0		 test	 al, al
  00063	75 36		 jne	 SHORT $LN9@playerCanA
$LN57@playerCanA:

; 1593 : }

  00065	6a 00		 push	 0
  00067	e8 00 00 00 00	 call	 ?Py_BuildException@@YAPAU_object@@PBDZZ ; Py_BuildException
  0006c	83 c4 04	 add	 esp, 4
  0006f	5f		 pop	 edi
  00070	5e		 pop	 esi
  00071	8b e5		 mov	 esp, ebp
  00073	5d		 pop	 ebp
  00074	c3		 ret	 0
$LN7@playerCanA:

; 1521 : 	{
; 1522 : 	case 2:
; 1523 : 		if (!PyTuple_GetInteger(poArgs, 0, &iMetinItemID))

  00075	8d 45 f4	 lea	 eax, DWORD PTR _iMetinItemID$[ebp]
  00078	50		 push	 eax
  00079	6a 00		 push	 0
  0007b	56		 push	 esi
  0007c	e8 00 00 00 00	 call	 ?PyTuple_GetInteger@@YA_NPAU_object@@HPAH@Z ; PyTuple_GetInteger
  00081	83 c4 0c	 add	 esp, 12			; 0000000cH
  00084	84 c0		 test	 al, al
  00086	74 dd		 je	 SHORT $LN57@playerCanA

; 1524 : 			return Py_BuildException();
; 1525 : 		if (!PyTuple_GetInteger(poArgs, 1, &TargetSlotIndex.cell))

  00088	8d 45 f9	 lea	 eax, DWORD PTR _TargetSlotIndex$[ebp+1]
  0008b	50		 push	 eax
  0008c	6a 01		 push	 1
  0008e	56		 push	 esi
  0008f	e8 00 00 00 00	 call	 ?PyTuple_GetInteger@@YA_NPAU_object@@HPAG@Z ; PyTuple_GetInteger
  00094	83 c4 0c	 add	 esp, 12			; 0000000cH
  00097	84 c0		 test	 al, al
  00099	74 ca		 je	 SHORT $LN57@playerCanA
$LN9@playerCanA:

; 1534 : 			return Py_BuildException();
; 1535 : 		break;
; 1536 : 	default:
; 1537 : 		return Py_BuildException();
; 1538 : 	}
; 1539 : 	if (CPythonPlayer::Instance().IsEquipmentSlot(TargetSlotIndex))

  0009b	66 8b 45 f8	 mov	 ax, WORD PTR _TargetSlotIndex$[ebp]
  0009f	51		 push	 ecx
  000a0	8b cc		 mov	 ecx, esp
  000a2	66 89 01	 mov	 WORD PTR [ecx], ax
  000a5	8a 45 fa	 mov	 al, BYTE PTR _TargetSlotIndex$[ebp+2]
  000a8	88 41 02	 mov	 BYTE PTR [ecx+2], al
  000ab	e8 00 00 00 00	 call	 ?IsEquipmentSlot@CPythonPlayer@@QAE_NUSItemPos@@@Z ; CPythonPlayer::IsEquipmentSlot
  000b0	84 c0		 test	 al, al
  000b2	74 16		 je	 SHORT $LN15@playerCanA

; 1540 : 	{
; 1541 : 		return Py_BuildValue("i", ATTACH_METIN_CANT_ATTACH_TO_EQUIPMENT);

  000b4	6a 05		 push	 5

; 1593 : }

  000b6	68 00 00 00 00	 push	 OFFSET ??_C@_01KBJDNOO@i@
  000bb	ff 15 00 00 00
	00		 call	 DWORD PTR __imp__Py_BuildValue
  000c1	83 c4 08	 add	 esp, 8
  000c4	5f		 pop	 edi
  000c5	5e		 pop	 esi
  000c6	8b e5		 mov	 esp, ebp
  000c8	5d		 pop	 ebp
  000c9	c3		 ret	 0
$LN15@playerCanA:

; 1542 : 	}
; 1543 : 
; 1544 : 	CItemData * pMetinItemData;
; 1545 : 	if (!CItemManager::Instance().GetItemDataPointer(iMetinItemID, &pMetinItemData))

  000ca	8b 0d 00 00 00
	00		 mov	 ecx, DWORD PTR ?ms_singleton@?$CSingleton@VCItemManager@@@@0PAVCItemManager@@A ; CSingleton<CItemManager>::ms_singleton
  000d0	8d 45 ec	 lea	 eax, DWORD PTR _pMetinItemData$[ebp]
  000d3	50		 push	 eax
  000d4	ff 75 f4	 push	 DWORD PTR _iMetinItemID$[ebp]
  000d7	e8 00 00 00 00	 call	 ?GetItemDataPointer@CItemManager@@QAEHKPAPAVCItemData@@@Z ; CItemManager::GetItemDataPointer
  000dc	85 c0		 test	 eax, eax
  000de	75 13		 jne	 SHORT $LN16@playerCanA
$LN58@playerCanA:

; 1593 : }

  000e0	68 00 00 00 00	 push	 OFFSET ??_C@_0BF@IBGKLIMC@can?8t?5find?5item?5data@
  000e5	e8 00 00 00 00	 call	 ?Py_BuildException@@YAPAU_object@@PBDZZ ; Py_BuildException
  000ea	83 c4 04	 add	 esp, 4
  000ed	5f		 pop	 edi
  000ee	5e		 pop	 esi
  000ef	8b e5		 mov	 esp, ebp
  000f1	5d		 pop	 ebp
  000f2	c3		 ret	 0
$LN16@playerCanA:

; 1546 : 		return Py_BuildException("can't find item data");
; 1547 : 
; 1548 : 	DWORD dwTargetItemIndex = CPythonPlayer::Instance().GetItemIndex(TargetSlotIndex);

  000f3	8b 3d 00 00 00
	00		 mov	 edi, DWORD PTR ?ms_singleton@?$CSingleton@VCPythonPlayer@@@@0PAVCPythonPlayer@@A ; CSingleton<CPythonPlayer>::ms_singleton
  000f9	8a 4d fa	 mov	 cl, BYTE PTR _TargetSlotIndex$[ebp+2]
  000fc	66 8b 55 f8	 mov	 dx, WORD PTR _TargetSlotIndex$[ebp]
  00100	51		 push	 ecx
  00101	8b 47 04	 mov	 eax, DWORD PTR [edi+4]
  00104	8b 70 40	 mov	 esi, DWORD PTR [eax+64]
  00107	8b c4		 mov	 eax, esp
  00109	66 89 10	 mov	 WORD PTR [eax], dx
  0010c	88 48 02	 mov	 BYTE PTR [eax+2], cl
  0010f	8d 4f 04	 lea	 ecx, DWORD PTR [edi+4]
  00112	ff d6		 call	 esi

; 1549 : 	CItemData * pTargetItemData;
; 1550 : 	if (!CItemManager::Instance().GetItemDataPointer(dwTargetItemIndex, &pTargetItemData))

  00114	8d 4d f0	 lea	 ecx, DWORD PTR _pTargetItemData$[ebp]
  00117	51		 push	 ecx
  00118	8b 0d 00 00 00
	00		 mov	 ecx, DWORD PTR ?ms_singleton@?$CSingleton@VCItemManager@@@@0PAVCItemManager@@A ; CSingleton<CItemManager>::ms_singleton
  0011e	50		 push	 eax
  0011f	e8 00 00 00 00	 call	 ?GetItemDataPointer@CItemManager@@QAEHKPAPAVCItemData@@@Z ; CItemManager::GetItemDataPointer
  00124	85 c0		 test	 eax, eax
  00126	74 b8		 je	 SHORT $LN58@playerCanA

; 1551 : 		return Py_BuildException("can't find item data");
; 1552 : 
; 1553 : 	DWORD dwMetinWearFlags = pMetinItemData->GetWearFlags();

  00128	8b 4d ec	 mov	 ecx, DWORD PTR _pMetinItemData$[ebp]
  0012b	e8 00 00 00 00	 call	 ?GetWearFlags@CItemData@@QBEKXZ ; CItemData::GetWearFlags

; 1554 : 	DWORD dwTargetWearFlags = pTargetItemData->GetWearFlags();

  00130	8b 4d f0	 mov	 ecx, DWORD PTR _pTargetItemData$[ebp]
  00133	8b f0		 mov	 esi, eax
  00135	e8 00 00 00 00	 call	 ?GetWearFlags@CItemData@@QBEKXZ ; CItemData::GetWearFlags

; 1555 : 	if (0 == (dwMetinWearFlags & dwTargetWearFlags))

  0013a	85 c6		 test	 eax, esi
  0013c	75 16		 jne	 SHORT $LN18@playerCanA

; 1556 : 		return Py_BuildValue("i", ATTACH_METIN_NOT_MATCHABLE_ITEM);

  0013e	6a 02		 push	 2

; 1593 : }

  00140	68 00 00 00 00	 push	 OFFSET ??_C@_01KBJDNOO@i@
  00145	ff 15 00 00 00
	00		 call	 DWORD PTR __imp__Py_BuildValue
  0014b	83 c4 08	 add	 esp, 8
  0014e	5f		 pop	 edi
  0014f	5e		 pop	 esi
  00150	8b e5		 mov	 esp, ebp
  00152	5d		 pop	 ebp
  00153	c3		 ret	 0
$LN18@playerCanA:

; 1557 : 	if (CItemData::ITEM_TYPE_ROD == pTargetItemData->GetType())

  00154	8b 4d f0	 mov	 ecx, DWORD PTR _pTargetItemData$[ebp]
  00157	e8 00 00 00 00	 call	 ?GetType@CItemData@@QBEEXZ ; CItemData::GetType
  0015c	3c 0d		 cmp	 al, 13			; 0000000dH
  0015e	75 16		 jne	 SHORT $LN19@playerCanA

; 1558 : 		return Py_BuildValue("i", ATTACH_METIN_CANT);

  00160	6a 00		 push	 0

; 1593 : }

  00162	68 00 00 00 00	 push	 OFFSET ??_C@_01KBJDNOO@i@
  00167	ff 15 00 00 00
	00		 call	 DWORD PTR __imp__Py_BuildValue
  0016d	83 c4 08	 add	 esp, 8
  00170	5f		 pop	 edi
  00171	5e		 pop	 esi
  00172	8b e5		 mov	 esp, ebp
  00174	5d		 pop	 ebp
  00175	c3		 ret	 0
$LN19@playerCanA:

; 1559 : 
; 1560 : 	BOOL bNotExistGoldSocket = FALSE;
; 1561 : 
; 1562 : 	int iSubType = pMetinItemData->GetSubType();

  00176	8b 4d ec	 mov	 ecx, DWORD PTR _pMetinItemData$[ebp]
  00179	33 ff		 xor	 edi, edi
  0017b	e8 00 00 00 00	 call	 ?GetSubType@CItemData@@QBEEXZ ; CItemData::GetSubType
  00180	88 45 ff	 mov	 BYTE PTR tv185[ebp], al

; 1563 : 	for (int i = 0; i < ITEM_SOCKET_SLOT_MAX_NUM; ++i)

  00183	33 f6		 xor	 esi, esi
$LL6@playerCanA:

; 1564 : 	{
; 1565 : 		DWORD dwSocketType = CPythonPlayer::Instance().GetItemMetinSocket(TargetSlotIndex, i);

  00185	56		 push	 esi
  00186	51		 push	 ecx
  00187	66 8b 4d f8	 mov	 cx, WORD PTR _TargetSlotIndex$[ebp]
  0018b	8b c4		 mov	 eax, esp
  0018d	66 89 08	 mov	 WORD PTR [eax], cx
  00190	8a 4d fa	 mov	 cl, BYTE PTR _TargetSlotIndex$[ebp+2]
  00193	88 48 02	 mov	 BYTE PTR [eax+2], cl
  00196	8b 0d 00 00 00
	00		 mov	 ecx, DWORD PTR ?ms_singleton@?$CSingleton@VCPythonPlayer@@@@0PAVCPythonPlayer@@A ; CSingleton<CPythonPlayer>::ms_singleton
  0019c	e8 00 00 00 00	 call	 ?GetItemMetinSocket@CPythonPlayer@@QAEKUSItemPos@@K@Z ; CPythonPlayer::GetItemMetinSocket

; 1566 : 		if (CItemData::METIN_NORMAL == iSubType)

  001a1	8a 4d ff	 mov	 cl, BYTE PTR tv185[ebp]
  001a4	84 c9		 test	 cl, cl
  001a6	75 20		 jne	 SHORT $LN20@playerCanA

; 1567 : 		{
; 1568 : 			if (CPythonPlayer::METIN_SOCKET_TYPE_SILVER == dwSocketType ||

  001a8	83 f8 01	 cmp	 eax, 1
  001ab	74 05		 je	 SHORT $LN33@playerCanA
  001ad	83 f8 02	 cmp	 eax, 2
  001b0	75 2b		 jne	 SHORT $LN4@playerCanA
$LN33@playerCanA:

; 1593 : }

  001b2	6a 01		 push	 1
  001b4	68 00 00 00 00	 push	 OFFSET ??_C@_01KBJDNOO@i@
  001b9	ff 15 00 00 00
	00		 call	 DWORD PTR __imp__Py_BuildValue
  001bf	83 c4 08	 add	 esp, 8
  001c2	5f		 pop	 edi
  001c3	5e		 pop	 esi
  001c4	8b e5		 mov	 esp, ebp
  001c6	5d		 pop	 ebp
  001c7	c3		 ret	 0
$LN20@playerCanA:

; 1569 : 				CPythonPlayer::METIN_SOCKET_TYPE_GOLD == dwSocketType)
; 1570 : 			{
; 1571 : 				return Py_BuildValue("i", ATTACH_METIN_OK);
; 1572 : 			}
; 1573 : 		}
; 1574 : 		else if (CItemData::METIN_GOLD == iSubType)

  001c8	80 f9 01	 cmp	 cl, 1
  001cb	75 10		 jne	 SHORT $LN4@playerCanA

; 1575 : 		{
; 1576 : 			if (CPythonPlayer::METIN_SOCKET_TYPE_GOLD == dwSocketType)

  001cd	83 f8 02	 cmp	 eax, 2
  001d0	74 e0		 je	 SHORT $LN33@playerCanA

; 1577 : 			{
; 1578 : 				return Py_BuildValue("i", ATTACH_METIN_OK);
; 1579 : 			}
; 1580 : 			else if (CPythonPlayer::METIN_SOCKET_TYPE_SILVER == dwSocketType)

  001d2	83 f8 01	 cmp	 eax, 1
  001d5	b8 01 00 00 00	 mov	 eax, 1
  001da	0f 44 f8	 cmove	 edi, eax
$LN4@playerCanA:

; 1563 : 	for (int i = 0; i < ITEM_SOCKET_SLOT_MAX_NUM; ++i)

  001dd	46		 inc	 esi
  001de	83 fe 03	 cmp	 esi, 3
  001e1	7c a2		 jl	 SHORT $LL6@playerCanA

; 1581 : 			{
; 1582 : 				bNotExistGoldSocket = TRUE;
; 1583 : 			}
; 1584 : 		}
; 1585 : 	}
; 1586 : 
; 1587 : 	if (bNotExistGoldSocket)

  001e3	85 ff		 test	 edi, edi
  001e5	74 16		 je	 SHORT $LN28@playerCanA

; 1588 : 	{
; 1589 : 		return Py_BuildValue("i", ATTACH_METIN_NOT_EXIST_GOLD_SOCKET);

  001e7	6a 04		 push	 4

; 1593 : }

  001e9	68 00 00 00 00	 push	 OFFSET ??_C@_01KBJDNOO@i@
  001ee	ff 15 00 00 00
	00		 call	 DWORD PTR __imp__Py_BuildValue
  001f4	83 c4 08	 add	 esp, 8
  001f7	5f		 pop	 edi
  001f8	5e		 pop	 esi
  001f9	8b e5		 mov	 esp, ebp
  001fb	5d		 pop	 ebp
  001fc	c3		 ret	 0
$LN28@playerCanA:

; 1590 : 	}
; 1591 : 
; 1592 : 	return Py_BuildValue("i", ATTACH_METIN_NO_MATCHABLE_SOCKET);

  001fd	6a 03		 push	 3

; 1593 : }

  001ff	68 00 00 00 00	 push	 OFFSET ??_C@_01KBJDNOO@i@
  00204	ff 15 00 00 00
	00		 call	 DWORD PTR __imp__Py_BuildValue
  0020a	83 c4 08	 add	 esp, 8
  0020d	5f		 pop	 edi
  0020e	5e		 pop	 esi
  0020f	8b e5		 mov	 esp, ebp
  00211	5d		 pop	 ebp
  00212	c3		 ret	 0
?playerCanAttachMetin@@YAPAU_object@@PAU1@0@Z ENDP	; playerCanAttachMetin
_TEXT	ENDS
; Function compile flags: /Ogtp
; File D:\_m2work\txoko-m2-work\txoko-client-src\source\UserInterface\PythonPlayerModule.cpp
; File D:\_m2work\txoko-m2-work\txoko-client-src\source\UserInterface\GameType.h
; File D:\_m2work\txoko-m2-work\txoko-client-src\source\UserInterface\PythonPlayerModule.cpp
; File D:\_m2work\txoko-m2-work\txoko-client-src\source\UserInterface\GameType.h
; File D:\_m2work\txoko-m2-work\txoko-client-src\source\UserInterface\PythonPlayerModule.cpp
;	COMDAT ?playerCanDetach@@YAPAU_object@@PAU1@0@Z
_TEXT	SEGMENT
_iScrollItemIndex$ = -12				; size = 4
_TargetSlotIndex$ = -8					; size = 3
tv168 = -1						; size = 1
_poSelf$ = 8						; size = 4
_poArgs$ = 12						; size = 4
?playerCanDetach@@YAPAU_object@@PAU1@0@Z PROC		; playerCanDetach, COMDAT

; 1602 : {

  00000	55		 push	 ebp
  00001	8b ec		 mov	 ebp, esp
  00003	83 ec 0c	 sub	 esp, 12			; 0000000cH
  00006	56		 push	 esi

; 1605 : 	switch (PyTuple_Size (poArgs))

  00007	8b 75 0c	 mov	 esi, DWORD PTR _poArgs$[ebp]
; File D:\_m2work\txoko-m2-work\txoko-client-src\source\UserInterface\GameType.h

; 187  : 		cell = WORD_MAX;

  0000a	b8 ff ff 00 00	 mov	 eax, 65535		; 0000ffffH
; File D:\_m2work\txoko-m2-work\txoko-client-src\source\UserInterface\PythonPlayerModule.cpp

; 1602 : {

  0000f	57		 push	 edi

; 1605 : 	switch (PyTuple_Size (poArgs))

  00010	56		 push	 esi
; File D:\_m2work\txoko-m2-work\txoko-client-src\source\UserInterface\GameType.h

; 186  : 		window_type =     INVENTORY;

  00011	c6 45 f8 01	 mov	 BYTE PTR _TargetSlotIndex$[ebp], 1

; 187  : 		cell = WORD_MAX;

  00015	66 89 45 f9	 mov	 WORD PTR _TargetSlotIndex$[ebp+1], ax
; File D:\_m2work\txoko-m2-work\txoko-client-src\source\UserInterface\PythonPlayerModule.cpp

; 1605 : 	switch (PyTuple_Size (poArgs))

  00019	ff 15 00 00 00
	00		 call	 DWORD PTR __imp__PyTuple_Size
  0001f	83 c4 04	 add	 esp, 4
  00022	83 e8 02	 sub	 eax, 2
  00025	74 49		 je	 SHORT $LN7@playerCanD
  00027	83 e8 01	 sub	 eax, 1
  0002a	75 39		 jne	 SHORT $LN47@playerCanD

; 1611 : 			return Py_BadArgument();
; 1612 : 		break;
; 1613 : 	case 3:
; 1614 : 		if (!PyTuple_GetInteger(poArgs, 0, &iScrollItemIndex))

  0002c	8d 45 f4	 lea	 eax, DWORD PTR _iScrollItemIndex$[ebp]
  0002f	50		 push	 eax
  00030	6a 00		 push	 0
  00032	56		 push	 esi
  00033	e8 00 00 00 00	 call	 ?PyTuple_GetInteger@@YA_NPAU_object@@HPAH@Z ; PyTuple_GetInteger
  00038	83 c4 0c	 add	 esp, 12			; 0000000cH
  0003b	84 c0		 test	 al, al
  0003d	74 26		 je	 SHORT $LN47@playerCanD

; 1615 : 			return Py_BadArgument();
; 1616 : 		if (!PyTuple_GetInteger(poArgs, 1, &TargetSlotIndex.window_type))

  0003f	8d 45 f8	 lea	 eax, DWORD PTR _TargetSlotIndex$[ebp]
  00042	50		 push	 eax
  00043	6a 01		 push	 1
  00045	56		 push	 esi
  00046	e8 00 00 00 00	 call	 ?PyTuple_GetInteger@@YA_NPAU_object@@HPAE@Z ; PyTuple_GetInteger
  0004b	83 c4 0c	 add	 esp, 12			; 0000000cH
  0004e	84 c0		 test	 al, al
  00050	74 13		 je	 SHORT $LN47@playerCanD

; 1617 : 			return Py_BadArgument();
; 1618 : 		if (!PyTuple_GetInteger(poArgs, 2, &TargetSlotIndex.cell))

  00052	8d 45 f9	 lea	 eax, DWORD PTR _TargetSlotIndex$[ebp+1]
  00055	50		 push	 eax
  00056	6a 02		 push	 2
  00058	56		 push	 esi
  00059	e8 00 00 00 00	 call	 ?PyTuple_GetInteger@@YA_NPAU_object@@HPAG@Z ; PyTuple_GetInteger
  0005e	83 c4 0c	 add	 esp, 12			; 0000000cH
  00061	84 c0		 test	 al, al
  00063	75 31		 jne	 SHORT $LN9@playerCanD
$LN47@playerCanD:

; 1652 : 			}
; 1653 : 	}
; 1654 : 
; 1655 : 	return Py_BuildValue("i", DETACH_METIN_CANT);
; 1656 : }

  00065	e8 00 00 00 00	 call	 ?Py_BadArgument@@YAPAU_object@@XZ ; Py_BadArgument
  0006a	5f		 pop	 edi
  0006b	5e		 pop	 esi
  0006c	8b e5		 mov	 esp, ebp
  0006e	5d		 pop	 ebp
  0006f	c3		 ret	 0
$LN7@playerCanD:

; 1606 : 	{
; 1607 : 	case 2:
; 1608 : 		if (!PyTuple_GetInteger(poArgs, 0, &iScrollItemIndex))

  00070	8d 45 f4	 lea	 eax, DWORD PTR _iScrollItemIndex$[ebp]
  00073	50		 push	 eax
  00074	6a 00		 push	 0
  00076	56		 push	 esi
  00077	e8 00 00 00 00	 call	 ?PyTuple_GetInteger@@YA_NPAU_object@@HPAH@Z ; PyTuple_GetInteger
  0007c	83 c4 0c	 add	 esp, 12			; 0000000cH
  0007f	84 c0		 test	 al, al
  00081	74 e2		 je	 SHORT $LN47@playerCanD

; 1609 : 			return Py_BadArgument();
; 1610 : 		if (!PyTuple_GetInteger(poArgs, 1, &TargetSlotIndex.cell))

  00083	8d 45 f9	 lea	 eax, DWORD PTR _TargetSlotIndex$[ebp+1]
  00086	50		 push	 eax
  00087	6a 01		 push	 1
  00089	56		 push	 esi
  0008a	e8 00 00 00 00	 call	 ?PyTuple_GetInteger@@YA_NPAU_object@@HPAG@Z ; PyTuple_GetInteger
  0008f	83 c4 0c	 add	 esp, 12			; 0000000cH
  00092	84 c0		 test	 al, al
  00094	74 cf		 je	 SHORT $LN47@playerCanD
$LN9@playerCanD:

; 1619 : 			return Py_BadArgument();
; 1620 : 		break;
; 1621 : 	default:
; 1622 : 		return Py_BadArgument();
; 1623 : 	}
; 1624 : 
; 1625 : 	// Scroll
; 1626 : 	CItemManager::Instance().SelectItemData(iScrollItemIndex);

  00096	ff 75 f4	 push	 DWORD PTR _iScrollItemIndex$[ebp]
  00099	8b 0d 00 00 00
	00		 mov	 ecx, DWORD PTR ?ms_singleton@?$CSingleton@VCItemManager@@@@0PAVCItemManager@@A ; CSingleton<CItemManager>::ms_singleton
  0009f	e8 00 00 00 00	 call	 ?SelectItemData@CItemManager@@QAEHK@Z ; CItemManager::SelectItemData

; 1627 : 	CItemData * pScrollItemData = CItemManager::Instance().GetSelectedItemDataPointer();

  000a4	8b 0d 00 00 00
	00		 mov	 ecx, DWORD PTR ?ms_singleton@?$CSingleton@VCItemManager@@@@0PAVCItemManager@@A ; CSingleton<CItemManager>::ms_singleton
  000aa	e8 00 00 00 00	 call	 ?GetSelectedItemDataPointer@CItemManager@@QAEPAVCItemData@@XZ ; CItemManager::GetSelectedItemDataPointer
  000af	8b f0		 mov	 esi, eax

; 1628 : 	if (!pScrollItemData)

  000b1	85 f6		 test	 esi, esi
  000b3	75 13		 jne	 SHORT $LN15@playerCanD
$LN48@playerCanD:

; 1652 : 			}
; 1653 : 	}
; 1654 : 
; 1655 : 	return Py_BuildValue("i", DETACH_METIN_CANT);
; 1656 : }

  000b5	68 00 00 00 00	 push	 OFFSET ??_C@_0BF@BGKCJNBK@Can?8t?5find?5item?5data@
  000ba	e8 00 00 00 00	 call	 ?Py_BuildException@@YAPAU_object@@PBDZZ ; Py_BuildException
  000bf	83 c4 04	 add	 esp, 4
  000c2	5f		 pop	 edi
  000c3	5e		 pop	 esi
  000c4	8b e5		 mov	 esp, ebp
  000c6	5d		 pop	 ebp
  000c7	c3		 ret	 0
$LN15@playerCanD:

; 1629 : 		return Py_BuildException("Can't find item data");
; 1630 : 	int iScrollType = pScrollItemData->GetType();

  000c8	8b ce		 mov	 ecx, esi
  000ca	e8 00 00 00 00	 call	 ?GetType@CItemData@@QBEEXZ ; CItemData::GetType

; 1631 : 	int iScrollSubType = pScrollItemData->GetSubType();

  000cf	8b ce		 mov	 ecx, esi
  000d1	88 45 ff	 mov	 BYTE PTR tv168[ebp], al
  000d4	e8 00 00 00 00	 call	 ?GetSubType@CItemData@@QBEEXZ ; CItemData::GetSubType

; 1632 : 	if (iScrollType != CItemData::ITEM_TYPE_USE)

  000d9	80 7d ff 03	 cmp	 BYTE PTR tv168[ebp], 3
  000dd	75 76		 jne	 SHORT $LN5@playerCanD

; 1633 : 		return Py_BuildValue("i", DETACH_METIN_CANT);
; 1634 : 	if (iScrollSubType != CItemData::USE_DETACHMENT)

  000df	3c 0e		 cmp	 al, 14			; 0000000eH
  000e1	75 72		 jne	 SHORT $LN5@playerCanD

; 1635 : 		return Py_BuildValue("i", DETACH_METIN_CANT);
; 1636 : 
; 1637 : 	// Target Item
; 1638 : 	int iTargetItemIndex = CPythonPlayer::Instance().GetItemIndex(TargetSlotIndex);

  000e3	8b 3d 00 00 00
	00		 mov	 edi, DWORD PTR ?ms_singleton@?$CSingleton@VCPythonPlayer@@@@0PAVCPythonPlayer@@A ; CSingleton<CPythonPlayer>::ms_singleton
  000e9	8a 4d fa	 mov	 cl, BYTE PTR _TargetSlotIndex$[ebp+2]
  000ec	66 8b 55 f8	 mov	 dx, WORD PTR _TargetSlotIndex$[ebp]
  000f0	51		 push	 ecx
  000f1	8b 47 04	 mov	 eax, DWORD PTR [edi+4]
  000f4	8b 70 40	 mov	 esi, DWORD PTR [eax+64]
  000f7	8b c4		 mov	 eax, esp
  000f9	66 89 10	 mov	 WORD PTR [eax], dx
  000fc	88 48 02	 mov	 BYTE PTR [eax+2], cl
  000ff	8d 4f 04	 lea	 ecx, DWORD PTR [edi+4]
  00102	ff d6		 call	 esi

; 1639 : 	CItemManager::Instance().SelectItemData(iTargetItemIndex);

  00104	8b 0d 00 00 00
	00		 mov	 ecx, DWORD PTR ?ms_singleton@?$CSingleton@VCItemManager@@@@0PAVCItemManager@@A ; CSingleton<CItemManager>::ms_singleton
  0010a	50		 push	 eax
  0010b	e8 00 00 00 00	 call	 ?SelectItemData@CItemManager@@QAEHK@Z ; CItemManager::SelectItemData

; 1640 : 	CItemData * pTargetItemData = CItemManager::Instance().GetSelectedItemDataPointer();

  00110	8b 0d 00 00 00
	00		 mov	 ecx, DWORD PTR ?ms_singleton@?$CSingleton@VCItemManager@@@@0PAVCItemManager@@A ; CSingleton<CItemManager>::ms_singleton
  00116	e8 00 00 00 00	 call	 ?GetSelectedItemDataPointer@CItemManager@@QAEPAVCItemData@@XZ ; CItemManager::GetSelectedItemDataPointer

; 1641 : 	if (!pTargetItemData)

  0011b	85 c0		 test	 eax, eax
  0011d	74 96		 je	 SHORT $LN48@playerCanD

; 1642 : 		return Py_BuildException("Can't find item data");
; 1643 : 	//int iTargetType = pTargetItemData->GetType();
; 1644 : 	//int iTargetSubType = pTargetItemData->GetSubType();
; 1645 : 
; 1646 : 	if (pTargetItemData->IsFlag(CItemData::ITEM_FLAG_REFINEABLE))

  0011f	6a 01		 push	 1
  00121	8b c8		 mov	 ecx, eax
  00123	e8 00 00 00 00	 call	 ?IsFlag@CItemData@@QBEHK@Z ; CItemData::IsFlag
  00128	85 c0		 test	 eax, eax
  0012a	74 29		 je	 SHORT $LN5@playerCanD

; 1647 : 	{
; 1648 : 		for (int iSlotCount = 0; iSlotCount < METIN_SOCKET_COUNT; ++iSlotCount)

  0012c	66 8b 7d f8	 mov	 di, WORD PTR _TargetSlotIndex$[ebp]
  00130	33 f6		 xor	 esi, esi
$LL6@playerCanD:

; 1649 : 			if (CPythonPlayer::Instance().GetItemMetinSocket(TargetSlotIndex, iSlotCount) > 2)

  00132	56		 push	 esi
  00133	51		 push	 ecx
  00134	8a 4d fa	 mov	 cl, BYTE PTR _TargetSlotIndex$[ebp+2]
  00137	8b c4		 mov	 eax, esp
  00139	66 89 38	 mov	 WORD PTR [eax], di
  0013c	88 48 02	 mov	 BYTE PTR [eax+2], cl
  0013f	8b 0d 00 00 00
	00		 mov	 ecx, DWORD PTR ?ms_singleton@?$CSingleton@VCPythonPlayer@@@@0PAVCPythonPlayer@@A ; CSingleton<CPythonPlayer>::ms_singleton
  00145	e8 00 00 00 00	 call	 ?GetItemMetinSocket@CPythonPlayer@@QAEKUSItemPos@@K@Z ; CPythonPlayer::GetItemMetinSocket
  0014a	83 f8 02	 cmp	 eax, 2
  0014d	77 1c		 ja	 SHORT $LN29@playerCanD

; 1647 : 	{
; 1648 : 		for (int iSlotCount = 0; iSlotCount < METIN_SOCKET_COUNT; ++iSlotCount)

  0014f	46		 inc	 esi
  00150	83 fe 06	 cmp	 esi, 6
  00153	7c dd		 jl	 SHORT $LL6@playerCanD
$LN5@playerCanD:

; 1652 : 			}
; 1653 : 	}
; 1654 : 
; 1655 : 	return Py_BuildValue("i", DETACH_METIN_CANT);
; 1656 : }

  00155	6a 00		 push	 0
  00157	68 00 00 00 00	 push	 OFFSET ??_C@_01KBJDNOO@i@
  0015c	ff 15 00 00 00
	00		 call	 DWORD PTR __imp__Py_BuildValue
  00162	83 c4 08	 add	 esp, 8
  00165	5f		 pop	 edi
  00166	5e		 pop	 esi
  00167	8b e5		 mov	 esp, ebp
  00169	5d		 pop	 ebp
  0016a	c3		 ret	 0
$LN29@playerCanD:

; 1650 : 			{
; 1651 : 				return Py_BuildValue("i", DETACH_METIN_OK);

  0016b	6a 01		 push	 1

; 1652 : 			}
; 1653 : 	}
; 1654 : 
; 1655 : 	return Py_BuildValue("i", DETACH_METIN_CANT);
; 1656 : }

  0016d	68 00 00 00 00	 push	 OFFSET ??_C@_01KBJDNOO@i@
  00172	ff 15 00 00 00
	00		 call	 DWORD PTR __imp__Py_BuildValue
  00178	83 c4 08	 add	 esp, 8
  0017b	5f		 pop	 edi
  0017c	5e		 pop	 esi
  0017d	8b e5		 mov	 esp, ebp
  0017f	5d		 pop	 ebp
  00180	c3		 ret	 0
?playerCanDetach@@YAPAU_object@@PAU1@0@Z ENDP		; playerCanDetach
_TEXT	ENDS
; Function compile flags: /Ogtp
; File D:\_m2work\txoko-m2-work\txoko-client-src\source\UserInterface\PythonPlayerModule.cpp
; File D:\_m2work\txoko-m2-work\txoko-client-src\source\UserInterface\GameType.h
; File D:\_m2work\txoko-m2-work\txoko-client-src\source\UserInterface\PythonPlayerModule.cpp
; File D:\_m2work\txoko-m2-work\txoko-client-src\source\UserInterface\GameType.h
; File D:\_m2work\txoko-m2-work\txoko-client-src\source\UserInterface\PythonPlayerModule.cpp
;	COMDAT ?playerCanUnlock@@YAPAU_object@@PAU1@0@Z
_TEXT	SEGMENT
_iKeyItemIndex$ = -8					; size = 4
_TargetSlotIndex$ = -4					; size = 3
_poSelf$ = 8						; size = 4
_poArgs$ = 12						; size = 4
?playerCanUnlock@@YAPAU_object@@PAU1@0@Z PROC		; playerCanUnlock, COMDAT

; 1659 : {

  00000	55		 push	 ebp
  00001	8b ec		 mov	 ebp, esp
  00003	83 ec 08	 sub	 esp, 8
  00006	56		 push	 esi

; 1662 : 	switch (PyTuple_Size(poArgs))

  00007	8b 75 0c	 mov	 esi, DWORD PTR _poArgs$[ebp]
; File D:\_m2work\txoko-m2-work\txoko-client-src\source\UserInterface\GameType.h

; 187  : 		cell = WORD_MAX;

  0000a	b8 ff ff 00 00	 mov	 eax, 65535		; 0000ffffH
; File D:\_m2work\txoko-m2-work\txoko-client-src\source\UserInterface\PythonPlayerModule.cpp

; 1659 : {

  0000f	57		 push	 edi

; 1662 : 	switch (PyTuple_Size(poArgs))

  00010	56		 push	 esi
; File D:\_m2work\txoko-m2-work\txoko-client-src\source\UserInterface\GameType.h

; 186  : 		window_type =     INVENTORY;

  00011	c6 45 fc 01	 mov	 BYTE PTR _TargetSlotIndex$[ebp], 1

; 187  : 		cell = WORD_MAX;

  00015	66 89 45 fd	 mov	 WORD PTR _TargetSlotIndex$[ebp+1], ax
; File D:\_m2work\txoko-m2-work\txoko-client-src\source\UserInterface\PythonPlayerModule.cpp

; 1662 : 	switch (PyTuple_Size(poArgs))

  00019	ff 15 00 00 00
	00		 call	 DWORD PTR __imp__PyTuple_Size
  0001f	83 c4 04	 add	 esp, 4
  00022	83 e8 02	 sub	 eax, 2
  00025	74 49		 je	 SHORT $LN4@playerCanU
  00027	83 e8 01	 sub	 eax, 1
  0002a	75 39		 jne	 SHORT $LN36@playerCanU

; 1668 : 			return Py_BadArgument();
; 1669 : 		break;
; 1670 : 	case 3:
; 1671 : 		if (!PyTuple_GetInteger(poArgs, 0, &iKeyItemIndex))

  0002c	8d 45 f8	 lea	 eax, DWORD PTR _iKeyItemIndex$[ebp]
  0002f	50		 push	 eax
  00030	6a 00		 push	 0
  00032	56		 push	 esi
  00033	e8 00 00 00 00	 call	 ?PyTuple_GetInteger@@YA_NPAU_object@@HPAH@Z ; PyTuple_GetInteger
  00038	83 c4 0c	 add	 esp, 12			; 0000000cH
  0003b	84 c0		 test	 al, al
  0003d	74 26		 je	 SHORT $LN36@playerCanU

; 1672 : 			return Py_BadArgument();
; 1673 : 		if (!PyTuple_GetInteger(poArgs, 1, &TargetSlotIndex.window_type))

  0003f	8d 45 fc	 lea	 eax, DWORD PTR _TargetSlotIndex$[ebp]
  00042	50		 push	 eax
  00043	6a 01		 push	 1
  00045	56		 push	 esi
  00046	e8 00 00 00 00	 call	 ?PyTuple_GetInteger@@YA_NPAU_object@@HPAE@Z ; PyTuple_GetInteger
  0004b	83 c4 0c	 add	 esp, 12			; 0000000cH
  0004e	84 c0		 test	 al, al
  00050	74 13		 je	 SHORT $LN36@playerCanU

; 1674 : 			return Py_BadArgument();
; 1675 : 		if (!PyTuple_GetInteger(poArgs, 2, &TargetSlotIndex.cell))

  00052	8d 45 fd	 lea	 eax, DWORD PTR _TargetSlotIndex$[ebp+1]
  00055	50		 push	 eax
  00056	6a 02		 push	 2
  00058	56		 push	 esi
  00059	e8 00 00 00 00	 call	 ?PyTuple_GetInteger@@YA_NPAU_object@@HPAG@Z ; PyTuple_GetInteger
  0005e	83 c4 0c	 add	 esp, 12			; 0000000cH
  00061	84 c0		 test	 al, al
  00063	75 31		 jne	 SHORT $LN6@playerCanU
$LN36@playerCanU:

; 1702 : }

  00065	e8 00 00 00 00	 call	 ?Py_BadArgument@@YAPAU_object@@XZ ; Py_BadArgument
  0006a	5f		 pop	 edi
  0006b	5e		 pop	 esi
  0006c	8b e5		 mov	 esp, ebp
  0006e	5d		 pop	 ebp
  0006f	c3		 ret	 0
$LN4@playerCanU:

; 1663 : 	{
; 1664 : 	case 2:
; 1665 : 		if (!PyTuple_GetInteger(poArgs, 0, &iKeyItemIndex))

  00070	8d 45 f8	 lea	 eax, DWORD PTR _iKeyItemIndex$[ebp]
  00073	50		 push	 eax
  00074	6a 00		 push	 0
  00076	56		 push	 esi
  00077	e8 00 00 00 00	 call	 ?PyTuple_GetInteger@@YA_NPAU_object@@HPAH@Z ; PyTuple_GetInteger
  0007c	83 c4 0c	 add	 esp, 12			; 0000000cH
  0007f	84 c0		 test	 al, al
  00081	74 e2		 je	 SHORT $LN36@playerCanU

; 1666 : 			return Py_BadArgument();
; 1667 : 		if (!PyTuple_GetInteger(poArgs, 1, &TargetSlotIndex.cell))

  00083	8d 45 fd	 lea	 eax, DWORD PTR _TargetSlotIndex$[ebp+1]
  00086	50		 push	 eax
  00087	6a 01		 push	 1
  00089	56		 push	 esi
  0008a	e8 00 00 00 00	 call	 ?PyTuple_GetInteger@@YA_NPAU_object@@HPAG@Z ; PyTuple_GetInteger
  0008f	83 c4 0c	 add	 esp, 12			; 0000000cH
  00092	84 c0		 test	 al, al
  00094	74 cf		 je	 SHORT $LN36@playerCanU
$LN6@playerCanU:

; 1676 : 			return Py_BadArgument();
; 1677 : 		break;
; 1678 : 	default:
; 1679 : 		return Py_BadArgument();
; 1680 : 	}
; 1681 : 
; 1682 : 	// Key
; 1683 : 	CItemManager::Instance().SelectItemData(iKeyItemIndex);

  00096	ff 75 f8	 push	 DWORD PTR _iKeyItemIndex$[ebp]
  00099	8b 0d 00 00 00
	00		 mov	 ecx, DWORD PTR ?ms_singleton@?$CSingleton@VCItemManager@@@@0PAVCItemManager@@A ; CSingleton<CItemManager>::ms_singleton
  0009f	e8 00 00 00 00	 call	 ?SelectItemData@CItemManager@@QAEHK@Z ; CItemManager::SelectItemData

; 1684 : 	CItemData * pKeyItemData = CItemManager::Instance().GetSelectedItemDataPointer();

  000a4	8b 0d 00 00 00
	00		 mov	 ecx, DWORD PTR ?ms_singleton@?$CSingleton@VCItemManager@@@@0PAVCItemManager@@A ; CSingleton<CItemManager>::ms_singleton
  000aa	e8 00 00 00 00	 call	 ?GetSelectedItemDataPointer@CItemManager@@QAEPAVCItemData@@XZ ; CItemManager::GetSelectedItemDataPointer

; 1685 : 	if (!pKeyItemData)

  000af	85 c0		 test	 eax, eax
  000b1	75 13		 jne	 SHORT $LN12@playerCanU
$LN37@playerCanU:

; 1702 : }

  000b3	68 00 00 00 00	 push	 OFFSET ??_C@_0BF@BGKCJNBK@Can?8t?5find?5item?5data@
  000b8	e8 00 00 00 00	 call	 ?Py_BuildException@@YAPAU_object@@PBDZZ ; Py_BuildException
  000bd	83 c4 04	 add	 esp, 4
  000c0	5f		 pop	 edi
  000c1	5e		 pop	 esi
  000c2	8b e5		 mov	 esp, ebp
  000c4	5d		 pop	 ebp
  000c5	c3		 ret	 0
$LN12@playerCanU:

; 1686 : 		return Py_BuildException("Can't find item data");
; 1687 : 	int iKeyType = pKeyItemData->GetType();

  000c6	8b c8		 mov	 ecx, eax
  000c8	e8 00 00 00 00	 call	 ?GetType@CItemData@@QBEEXZ ; CItemData::GetType

; 1688 : 	if (iKeyType != CItemData::ITEM_TYPE_TREASURE_KEY)

  000cd	3c 15		 cmp	 al, 21			; 00000015H
  000cf	74 16		 je	 SHORT $LN13@playerCanU
$LN35@playerCanU:

; 1702 : }

  000d1	6a 00		 push	 0
  000d3	68 00 00 00 00	 push	 OFFSET ??_C@_01KBJDNOO@i@
  000d8	ff 15 00 00 00
	00		 call	 DWORD PTR __imp__Py_BuildValue
  000de	83 c4 08	 add	 esp, 8
  000e1	5f		 pop	 edi
  000e2	5e		 pop	 esi
  000e3	8b e5		 mov	 esp, ebp
  000e5	5d		 pop	 ebp
  000e6	c3		 ret	 0
$LN13@playerCanU:

; 1689 : 		return Py_BuildValue("i", FALSE);
; 1690 : 
; 1691 : 	// Target Item
; 1692 : 	int iTargetItemIndex = CPythonPlayer::Instance().GetItemIndex(TargetSlotIndex);

  000e7	8b 3d 00 00 00
	00		 mov	 edi, DWORD PTR ?ms_singleton@?$CSingleton@VCPythonPlayer@@@@0PAVCPythonPlayer@@A ; CSingleton<CPythonPlayer>::ms_singleton
  000ed	8a 4d fe	 mov	 cl, BYTE PTR _TargetSlotIndex$[ebp+2]
  000f0	66 8b 55 fc	 mov	 dx, WORD PTR _TargetSlotIndex$[ebp]
  000f4	51		 push	 ecx
  000f5	8b 47 04	 mov	 eax, DWORD PTR [edi+4]
  000f8	8b 70 40	 mov	 esi, DWORD PTR [eax+64]
  000fb	8b c4		 mov	 eax, esp
  000fd	66 89 10	 mov	 WORD PTR [eax], dx
  00100	88 48 02	 mov	 BYTE PTR [eax+2], cl
  00103	8d 4f 04	 lea	 ecx, DWORD PTR [edi+4]
  00106	ff d6		 call	 esi

; 1693 : 	CItemManager::Instance().SelectItemData(iTargetItemIndex);

  00108	8b 0d 00 00 00
	00		 mov	 ecx, DWORD PTR ?ms_singleton@?$CSingleton@VCItemManager@@@@0PAVCItemManager@@A ; CSingleton<CItemManager>::ms_singleton
  0010e	50		 push	 eax
  0010f	e8 00 00 00 00	 call	 ?SelectItemData@CItemManager@@QAEHK@Z ; CItemManager::SelectItemData

; 1694 : 	CItemData * pTargetItemData = CItemManager::Instance().GetSelectedItemDataPointer();

  00114	8b 0d 00 00 00
	00		 mov	 ecx, DWORD PTR ?ms_singleton@?$CSingleton@VCItemManager@@@@0PAVCItemManager@@A ; CSingleton<CItemManager>::ms_singleton
  0011a	e8 00 00 00 00	 call	 ?GetSelectedItemDataPointer@CItemManager@@QAEPAVCItemData@@XZ ; CItemManager::GetSelectedItemDataPointer

; 1695 : 	if (!pTargetItemData)

  0011f	85 c0		 test	 eax, eax
  00121	74 90		 je	 SHORT $LN37@playerCanU

; 1696 : 		return Py_BuildException("Can't find item data");
; 1697 : 	int iTargetType = pTargetItemData->GetType();

  00123	8b c8		 mov	 ecx, eax
  00125	e8 00 00 00 00	 call	 ?GetType@CItemData@@QBEEXZ ; CItemData::GetType

; 1698 : 	if (iTargetType != CItemData::ITEM_TYPE_TREASURE_BOX)

  0012a	3c 14		 cmp	 al, 20			; 00000014H
  0012c	75 a3		 jne	 SHORT $LN35@playerCanU

; 1699 : 		return Py_BuildValue("i", FALSE);
; 1700 : 
; 1701 : 	return Py_BuildValue("i", TRUE);

  0012e	6a 01		 push	 1

; 1702 : }

  00130	68 00 00 00 00	 push	 OFFSET ??_C@_01KBJDNOO@i@
  00135	ff 15 00 00 00
	00		 call	 DWORD PTR __imp__Py_BuildValue
  0013b	83 c4 08	 add	 esp, 8
  0013e	5f		 pop	 edi
  0013f	5e		 pop	 esi
  00140	8b e5		 mov	 esp, ebp
  00142	5d		 pop	 ebp
  00143	c3		 ret	 0
?playerCanUnlock@@YAPAU_object@@PAU1@0@Z ENDP		; playerCanUnlock
_TEXT	ENDS
; Function compile flags: /Ogtp
; File D:\_m2work\txoko-m2-work\txoko-client-src\source\UserInterface\PythonPlayerModule.cpp
; File D:\_m2work\txoko-m2-work\txoko-client-src\source\UserInterface\GameType.h
; File D:\_m2work\txoko-m2-work\txoko-client-src\source\UserInterface\PythonPlayerModule.cpp
; File D:\_m2work\txoko-m2-work\txoko-client-src\source\UserInterface\GameType.h
; File D:\_m2work\txoko-m2-work\txoko-client-src\source\UserInterface\PythonPlayerModule.cpp
;	COMDAT ?playerIsRefineGradeScroll@@YAPAU_object@@PAU1@0@Z
_TEXT	SEGMENT
_ScrollSlotIndex$ = -4					; size = 3
_poSelf$ = 8						; size = 4
_poArgs$ = 12						; size = 4
?playerIsRefineGradeScroll@@YAPAU_object@@PAU1@0@Z PROC	; playerIsRefineGradeScroll, COMDAT

; 1705 : {

  00000	55		 push	 ebp
  00001	8b ec		 mov	 ebp, esp
  00003	51		 push	 ecx
  00004	56		 push	 esi

; 1707 : 	switch (PyTuple_Size(poArgs))

  00005	8b 75 0c	 mov	 esi, DWORD PTR _poArgs$[ebp]
; File D:\_m2work\txoko-m2-work\txoko-client-src\source\UserInterface\GameType.h

; 187  : 		cell = WORD_MAX;

  00008	b8 ff ff 00 00	 mov	 eax, 65535		; 0000ffffH
; File D:\_m2work\txoko-m2-work\txoko-client-src\source\UserInterface\PythonPlayerModule.cpp

; 1707 : 	switch (PyTuple_Size(poArgs))

  0000d	56		 push	 esi
; File D:\_m2work\txoko-m2-work\txoko-client-src\source\UserInterface\GameType.h

; 186  : 		window_type =     INVENTORY;

  0000e	c6 45 fc 01	 mov	 BYTE PTR _ScrollSlotIndex$[ebp], 1

; 187  : 		cell = WORD_MAX;

  00012	66 89 45 fd	 mov	 WORD PTR _ScrollSlotIndex$[ebp+1], ax
; File D:\_m2work\txoko-m2-work\txoko-client-src\source\UserInterface\PythonPlayerModule.cpp

; 1707 : 	switch (PyTuple_Size(poArgs))

  00016	ff 15 00 00 00
	00		 call	 DWORD PTR __imp__PyTuple_Size
  0001c	83 c4 04	 add	 esp, 4
  0001f	83 e8 01	 sub	 eax, 1
  00022	74 14		 je	 SHORT $LN4@playerIsRe
  00024	83 e8 01	 sub	 eax, 1
  00027	74 22		 je	 SHORT $LN5@playerIsRe

; 1716 : 			return Py_BuildException();
; 1717 : 	default:
; 1718 : 		return Py_BuildException();
; 1719 : 	}
; 1720 : 
; 1721 : 	int iScrollItemIndex = CPythonPlayer::Instance().GetItemIndex(ScrollSlotIndex);
; 1722 : 	CItemManager::Instance().SelectItemData(iScrollItemIndex);
; 1723 : 	CItemData * pScrollItemData = CItemManager::Instance().GetSelectedItemDataPointer();
; 1724 : 	if (!pScrollItemData)
; 1725 : 		return Py_BuildException("Can't find item data");
; 1726 : 
; 1727 : 	return Py_BuildValue("i", REFINE_SCROLL_TYPE_UP_GRADE == pScrollItemData->GetValue(0));
; 1728 : }

  00029	6a 00		 push	 0
  0002b	e8 00 00 00 00	 call	 ?Py_BuildException@@YAPAU_object@@PBDZZ ; Py_BuildException
  00030	83 c4 04	 add	 esp, 4
  00033	5e		 pop	 esi
  00034	8b e5		 mov	 esp, ebp
  00036	5d		 pop	 ebp
  00037	c3		 ret	 0
$LN4@playerIsRe:

; 1708 : 	{
; 1709 : 	case 1:
; 1710 : 		if (!PyTuple_GetInteger(poArgs, 0, &ScrollSlotIndex.cell))

  00038	8d 45 fd	 lea	 eax, DWORD PTR _ScrollSlotIndex$[ebp+1]
  0003b	50		 push	 eax
  0003c	6a 00		 push	 0
  0003e	56		 push	 esi
  0003f	e8 00 00 00 00	 call	 ?PyTuple_GetInteger@@YA_NPAU_object@@HPAG@Z ; PyTuple_GetInteger
  00044	83 c4 0c	 add	 esp, 12			; 0000000cH
  00047	84 c0		 test	 al, al
  00049	74 22		 je	 SHORT $LN8@playerIsRe
$LN5@playerIsRe:

; 1711 : 			return Py_BuildException();
; 1712 : 	case 2:
; 1713 : 		if (!PyTuple_GetInteger(poArgs, 0, &ScrollSlotIndex.window_type))

  0004b	8d 45 fc	 lea	 eax, DWORD PTR _ScrollSlotIndex$[ebp]
  0004e	50		 push	 eax
  0004f	6a 00		 push	 0
  00051	56		 push	 esi
  00052	e8 00 00 00 00	 call	 ?PyTuple_GetInteger@@YA_NPAU_object@@HPAE@Z ; PyTuple_GetInteger
  00057	83 c4 0c	 add	 esp, 12			; 0000000cH
  0005a	84 c0		 test	 al, al
  0005c	74 0f		 je	 SHORT $LN8@playerIsRe

; 1714 : 			return Py_BuildException();
; 1715 : 		if (!PyTuple_GetInteger(poArgs, 1, &ScrollSlotIndex.cell))

  0005e	8d 45 fd	 lea	 eax, DWORD PTR _ScrollSlotIndex$[ebp+1]
  00061	50		 push	 eax
  00062	6a 01		 push	 1
  00064	56		 push	 esi
  00065	e8 00 00 00 00	 call	 ?PyTuple_GetInteger@@YA_NPAU_object@@HPAG@Z ; PyTuple_GetInteger
  0006a	83 c4 0c	 add	 esp, 12			; 0000000cH
$LN8@playerIsRe:

; 1716 : 			return Py_BuildException();
; 1717 : 	default:
; 1718 : 		return Py_BuildException();
; 1719 : 	}
; 1720 : 
; 1721 : 	int iScrollItemIndex = CPythonPlayer::Instance().GetItemIndex(ScrollSlotIndex);
; 1722 : 	CItemManager::Instance().SelectItemData(iScrollItemIndex);
; 1723 : 	CItemData * pScrollItemData = CItemManager::Instance().GetSelectedItemDataPointer();
; 1724 : 	if (!pScrollItemData)
; 1725 : 		return Py_BuildException("Can't find item data");
; 1726 : 
; 1727 : 	return Py_BuildValue("i", REFINE_SCROLL_TYPE_UP_GRADE == pScrollItemData->GetValue(0));
; 1728 : }

  0006d	6a 00		 push	 0
  0006f	e8 00 00 00 00	 call	 ?Py_BuildException@@YAPAU_object@@PBDZZ ; Py_BuildException
  00074	83 c4 04	 add	 esp, 4
  00077	5e		 pop	 esi
  00078	8b e5		 mov	 esp, ebp
  0007a	5d		 pop	 ebp
  0007b	c3		 ret	 0
?playerIsRefineGradeScroll@@YAPAU_object@@PAU1@0@Z ENDP	; playerIsRefineGradeScroll
_TEXT	ENDS
; Function compile flags: /Ogtp
; File D:\_m2work\txoko-m2-work\txoko-client-src\source\UserInterface\PythonPlayerModule.cpp
;	COMDAT ?playerUpdate@@YAPAU_object@@PAU1@0@Z
_TEXT	SEGMENT
_poSelf$ = 8						; size = 4
_poArgs$ = 12						; size = 4
?playerUpdate@@YAPAU_object@@PAU1@0@Z PROC		; playerUpdate, COMDAT

; 1732 : 	CPythonPlayer::Instance().Update();

  00000	8b 0d 00 00 00
	00		 mov	 ecx, DWORD PTR ?ms_singleton@?$CSingleton@VCPythonPlayer@@@@0PAVCPythonPlayer@@A ; CSingleton<CPythonPlayer>::ms_singleton
  00006	e8 00 00 00 00	 call	 ?Update@CPythonPlayer@@QAEXXZ ; CPythonPlayer::Update

; 1733 : 	return Py_BuildNone();

  0000b	e9 00 00 00 00	 jmp	 ?Py_BuildNone@@YAPAU_object@@XZ ; Py_BuildNone
?playerUpdate@@YAPAU_object@@PAU1@0@Z ENDP		; playerUpdate
_TEXT	ENDS
; Function compile flags: /Ogtp
; File D:\_m2work\txoko-m2-work\txoko-client-src\source\UserInterface\PythonPlayerModule.cpp
;	COMDAT ?playerRender@@YAPAU_object@@PAU1@0@Z
_TEXT	SEGMENT
_poSelf$ = 8						; size = 4
_poArgs$ = 12						; size = 4
?playerRender@@YAPAU_object@@PAU1@0@Z PROC		; playerRender, COMDAT

; 1738 : 	return Py_BuildNone();

  00000	e9 00 00 00 00	 jmp	 ?Py_BuildNone@@YAPAU_object@@XZ ; Py_BuildNone
?playerRender@@YAPAU_object@@PAU1@0@Z ENDP		; playerRender
_TEXT	ENDS
; Function compile flags: /Ogtp
; File D:\_m2work\txoko-m2-work\txoko-client-src\source\UserInterface\PythonPlayerModule.cpp
;	COMDAT ?playerClear@@YAPAU_object@@PAU1@0@Z
_TEXT	SEGMENT
_poSelf$ = 8						; size = 4
_poArgs$ = 12						; size = 4
?playerClear@@YAPAU_object@@PAU1@0@Z PROC		; playerClear, COMDAT

; 1743 : 	CPythonPlayer::Instance().Clear();

  00000	8b 0d 00 00 00
	00		 mov	 ecx, DWORD PTR ?ms_singleton@?$CSingleton@VCPythonPlayer@@@@0PAVCPythonPlayer@@A ; CSingleton<CPythonPlayer>::ms_singleton
  00006	e8 00 00 00 00	 call	 ?Clear@CPythonPlayer@@QAEXXZ ; CPythonPlayer::Clear

; 1744 : 	return Py_BuildNone();

  0000b	e9 00 00 00 00	 jmp	 ?Py_BuildNone@@YAPAU_object@@XZ ; Py_BuildNone
?playerClear@@YAPAU_object@@PAU1@0@Z ENDP		; playerClear
_TEXT	ENDS
; Function compile flags: /Ogtp
; File D:\_m2work\txoko-m2-work\txoko-client-src\source\UserInterface\PythonPlayerModule.cpp
;	COMDAT ?playerClearTarget@@YAPAU_object@@PAU1@0@Z
_TEXT	SEGMENT
_poSelf$ = 8						; size = 4
_poArgs$ = 12						; size = 4
?playerClearTarget@@YAPAU_object@@PAU1@0@Z PROC		; playerClearTarget, COMDAT

; 1749 : 	CPythonPlayer::Instance().SetTarget(0);

  00000	8b 0d 00 00 00
	00		 mov	 ecx, DWORD PTR ?ms_singleton@?$CSingleton@VCPythonPlayer@@@@0PAVCPythonPlayer@@A ; CSingleton<CPythonPlayer>::ms_singleton
  00006	83 c1 04	 add	 ecx, 4
  00009	6a 01		 push	 1
  0000b	6a 00		 push	 0
  0000d	8b 01		 mov	 eax, DWORD PTR [ecx]
  0000f	ff 50 60	 call	 DWORD PTR [eax+96]

; 1750 : 	return Py_BuildNone();

  00012	e9 00 00 00 00	 jmp	 ?Py_BuildNone@@YAPAU_object@@XZ ; Py_BuildNone
?playerClearTarget@@YAPAU_object@@PAU1@0@Z ENDP		; playerClearTarget
_TEXT	ENDS
; Function compile flags: /Ogtp
; File D:\_m2work\txoko-m2-work\txoko-client-src\source\UserInterface\PythonPlayerModule.cpp
;	COMDAT ?playerSetTarget@@YAPAU_object@@PAU1@0@Z
_TEXT	SEGMENT
_iVID$ = -4						; size = 4
_poSelf$ = 8						; size = 4
_poArgs$ = 12						; size = 4
?playerSetTarget@@YAPAU_object@@PAU1@0@Z PROC		; playerSetTarget, COMDAT

; 1754 : {

  00000	55		 push	 ebp
  00001	8b ec		 mov	 ebp, esp
  00003	51		 push	 ecx

; 1755 : 	int iVID;
; 1756 : 	if (!PyTuple_GetInteger(poArgs, 0, &iVID))

  00004	8d 45 fc	 lea	 eax, DWORD PTR _iVID$[ebp]
  00007	50		 push	 eax
  00008	6a 00		 push	 0
  0000a	ff 75 0c	 push	 DWORD PTR _poArgs$[ebp]
  0000d	e8 00 00 00 00	 call	 ?PyTuple_GetInteger@@YA_NPAU_object@@HPAH@Z ; PyTuple_GetInteger
  00012	83 c4 0c	 add	 esp, 12			; 0000000cH
  00015	84 c0		 test	 al, al
  00017	75 0e		 jne	 SHORT $LN2@playerSetT

; 1757 : 		return Py_BuildException();

  00019	6a 00		 push	 0
  0001b	e8 00 00 00 00	 call	 ?Py_BuildException@@YAPAU_object@@PBDZZ ; Py_BuildException
  00020	83 c4 04	 add	 esp, 4

; 1761 : }

  00023	8b e5		 mov	 esp, ebp
  00025	5d		 pop	 ebp
  00026	c3		 ret	 0
$LN2@playerSetT:

; 1758 : 
; 1759 : 	CPythonPlayer::Instance().SetTarget(iVID);

  00027	8b 0d 00 00 00
	00		 mov	 ecx, DWORD PTR ?ms_singleton@?$CSingleton@VCPythonPlayer@@@@0PAVCPythonPlayer@@A ; CSingleton<CPythonPlayer>::ms_singleton
  0002d	83 c1 04	 add	 ecx, 4
  00030	6a 01		 push	 1
  00032	ff 75 fc	 push	 DWORD PTR _iVID$[ebp]
  00035	8b 01		 mov	 eax, DWORD PTR [ecx]
  00037	ff 50 60	 call	 DWORD PTR [eax+96]

; 1760 : 	return Py_BuildNone();

  0003a	e8 00 00 00 00	 call	 ?Py_BuildNone@@YAPAU_object@@XZ ; Py_BuildNone

; 1761 : }

  0003f	8b e5		 mov	 esp, ebp
  00041	5d		 pop	 ebp
  00042	c3		 ret	 0
?playerSetTarget@@YAPAU_object@@PAU1@0@Z ENDP		; playerSetTarget
_TEXT	ENDS
; Function compile flags: /Ogtp
; File D:\_m2work\txoko-m2-work\txoko-client-src\source\UserInterface\PythonPlayerModule.cpp
;	COMDAT ?playerOpenCharacterMenu@@YAPAU_object@@PAU1@0@Z
_TEXT	SEGMENT
_iVID$ = -4						; size = 4
_poSelf$ = 8						; size = 4
_poArgs$ = 12						; size = 4
?playerOpenCharacterMenu@@YAPAU_object@@PAU1@0@Z PROC	; playerOpenCharacterMenu, COMDAT

; 1764 : {

  00000	55		 push	 ebp
  00001	8b ec		 mov	 ebp, esp
  00003	51		 push	 ecx

; 1765 : 	int iVID;
; 1766 : 	if (!PyTuple_GetInteger(poArgs, 0, &iVID))

  00004	8d 45 fc	 lea	 eax, DWORD PTR _iVID$[ebp]
  00007	50		 push	 eax
  00008	6a 00		 push	 0
  0000a	ff 75 0c	 push	 DWORD PTR _poArgs$[ebp]
  0000d	e8 00 00 00 00	 call	 ?PyTuple_GetInteger@@YA_NPAU_object@@HPAH@Z ; PyTuple_GetInteger
  00012	83 c4 0c	 add	 esp, 12			; 0000000cH
  00015	84 c0		 test	 al, al
  00017	75 0e		 jne	 SHORT $LN2@playerOpen

; 1767 : 		return Py_BuildException();

  00019	6a 00		 push	 0
  0001b	e8 00 00 00 00	 call	 ?Py_BuildException@@YAPAU_object@@PBDZZ ; Py_BuildException
  00020	83 c4 04	 add	 esp, 4

; 1771 : }

  00023	8b e5		 mov	 esp, ebp
  00025	5d		 pop	 ebp
  00026	c3		 ret	 0
$LN2@playerOpen:

; 1768 : 
; 1769 : 	CPythonPlayer::Instance().OpenCharacterMenu(iVID);

  00027	ff 75 fc	 push	 DWORD PTR _iVID$[ebp]
  0002a	8b 0d 00 00 00
	00		 mov	 ecx, DWORD PTR ?ms_singleton@?$CSingleton@VCPythonPlayer@@@@0PAVCPythonPlayer@@A ; CSingleton<CPythonPlayer>::ms_singleton
  00030	e8 00 00 00 00	 call	 ?OpenCharacterMenu@CPythonPlayer@@QAEXK@Z ; CPythonPlayer::OpenCharacterMenu

; 1770 : 	return Py_BuildNone();

  00035	e8 00 00 00 00	 call	 ?Py_BuildNone@@YAPAU_object@@XZ ; Py_BuildNone

; 1771 : }

  0003a	8b e5		 mov	 esp, ebp
  0003c	5d		 pop	 ebp
  0003d	c3		 ret	 0
?playerOpenCharacterMenu@@YAPAU_object@@PAU1@0@Z ENDP	; playerOpenCharacterMenu
_TEXT	ENDS
; Function compile flags: /Ogtp
; File D:\_m2work\txoko-m2-work\txoko-client-src\source\UserInterface\PythonPlayerModule.cpp
;	COMDAT ?playerIsPartyMember@@YAPAU_object@@PAU1@0@Z
_TEXT	SEGMENT
_iVID$ = -4						; size = 4
_poSelf$ = 8						; size = 4
_poArgs$ = 12						; size = 4
?playerIsPartyMember@@YAPAU_object@@PAU1@0@Z PROC	; playerIsPartyMember, COMDAT

; 1774 : {

  00000	55		 push	 ebp
  00001	8b ec		 mov	 ebp, esp
  00003	51		 push	 ecx

; 1775 : 	int iVID;
; 1776 : 	if (!PyTuple_GetInteger(poArgs, 0, &iVID))

  00004	8d 45 fc	 lea	 eax, DWORD PTR _iVID$[ebp]
  00007	50		 push	 eax
  00008	6a 00		 push	 0
  0000a	ff 75 0c	 push	 DWORD PTR _poArgs$[ebp]
  0000d	e8 00 00 00 00	 call	 ?PyTuple_GetInteger@@YA_NPAU_object@@HPAH@Z ; PyTuple_GetInteger
  00012	83 c4 0c	 add	 esp, 12			; 0000000cH
  00015	84 c0		 test	 al, al
  00017	75 0e		 jne	 SHORT $LN2@playerIsPa

; 1777 : 		return Py_BuildException();

  00019	6a 00		 push	 0
  0001b	e8 00 00 00 00	 call	 ?Py_BuildException@@YAPAU_object@@PBDZZ ; Py_BuildException
  00020	83 c4 04	 add	 esp, 4

; 1780 : }

  00023	8b e5		 mov	 esp, ebp
  00025	5d		 pop	 ebp
  00026	c3		 ret	 0
$LN2@playerIsPa:

; 1778 : 
; 1779 : 	return Py_BuildValue("i", CPythonPlayer::Instance().IsPartyMemberByVID(iVID));

  00027	8b 0d 00 00 00
	00		 mov	 ecx, DWORD PTR ?ms_singleton@?$CSingleton@VCPythonPlayer@@@@0PAVCPythonPlayer@@A ; CSingleton<CPythonPlayer>::ms_singleton
  0002d	ff 75 fc	 push	 DWORD PTR _iVID$[ebp]
  00030	83 c1 04	 add	 ecx, 4
  00033	8b 01		 mov	 eax, DWORD PTR [ecx]
  00035	8b 40 24	 mov	 eax, DWORD PTR [eax+36]
  00038	ff d0		 call	 eax
  0003a	0f b6 c0	 movzx	 eax, al
  0003d	50		 push	 eax
  0003e	68 00 00 00 00	 push	 OFFSET ??_C@_01KBJDNOO@i@
  00043	ff 15 00 00 00
	00		 call	 DWORD PTR __imp__Py_BuildValue
  00049	83 c4 08	 add	 esp, 8

; 1780 : }

  0004c	8b e5		 mov	 esp, ebp
  0004e	5d		 pop	 ebp
  0004f	c3		 ret	 0
?playerIsPartyMember@@YAPAU_object@@PAU1@0@Z ENDP	; playerIsPartyMember
_TEXT	ENDS
; Function compile flags: /Ogtp
; File D:\_m2work\txoko-m2-work\txoko-client-src\source\UserInterface\PythonPlayerModule.cpp
;	COMDAT ?playerIsPartyLeader@@YAPAU_object@@PAU1@0@Z
_TEXT	SEGMENT
_pPartyMemberInfo$ = -12				; size = 4
_dwPID$ = -8						; size = 4
_iVID$ = -4						; size = 4
_poSelf$ = 8						; size = 4
_poArgs$ = 12						; size = 4
?playerIsPartyLeader@@YAPAU_object@@PAU1@0@Z PROC	; playerIsPartyLeader, COMDAT

; 1783 : {

  00000	55		 push	 ebp
  00001	8b ec		 mov	 ebp, esp
  00003	83 ec 0c	 sub	 esp, 12			; 0000000cH

; 1784 : 	int iVID;
; 1785 : 	if (!PyTuple_GetInteger(poArgs, 0, &iVID))

  00006	8d 45 fc	 lea	 eax, DWORD PTR _iVID$[ebp]
  00009	50		 push	 eax
  0000a	6a 00		 push	 0
  0000c	ff 75 0c	 push	 DWORD PTR _poArgs$[ebp]
  0000f	e8 00 00 00 00	 call	 ?PyTuple_GetInteger@@YA_NPAU_object@@HPAH@Z ; PyTuple_GetInteger
  00014	83 c4 0c	 add	 esp, 12			; 0000000cH
  00017	84 c0		 test	 al, al
  00019	75 0e		 jne	 SHORT $LN2@playerIsPa

; 1786 : 		return Py_BuildException();

  0001b	6a 00		 push	 0
  0001d	e8 00 00 00 00	 call	 ?Py_BuildException@@YAPAU_object@@PBDZZ ; Py_BuildException
  00022	83 c4 04	 add	 esp, 4

; 1797 : }

  00025	8b e5		 mov	 esp, ebp
  00027	5d		 pop	 ebp
  00028	c3		 ret	 0
$LN2@playerIsPa:

; 1787 : 
; 1788 : 	DWORD dwPID;
; 1789 : 	if (!CPythonPlayer::Instance().PartyMemberVIDToPID(iVID, &dwPID))

  00029	8b 0d 00 00 00
	00		 mov	 ecx, DWORD PTR ?ms_singleton@?$CSingleton@VCPythonPlayer@@@@0PAVCPythonPlayer@@A ; CSingleton<CPythonPlayer>::ms_singleton
  0002f	8d 55 f8	 lea	 edx, DWORD PTR _dwPID$[ebp]
  00032	83 c1 04	 add	 ecx, 4
  00035	52		 push	 edx
  00036	ff 75 fc	 push	 DWORD PTR _iVID$[ebp]
  00039	8b 01		 mov	 eax, DWORD PTR [ecx]
  0003b	8b 40 28	 mov	 eax, DWORD PTR [eax+40]
  0003e	ff d0		 call	 eax
  00040	84 c0		 test	 al, al
  00042	75 14		 jne	 SHORT $LN3@playerIsPa
$LN7@playerIsPa:

; 1797 : }

  00044	6a 00		 push	 0
  00046	68 00 00 00 00	 push	 OFFSET ??_C@_01KBJDNOO@i@
  0004b	ff 15 00 00 00
	00		 call	 DWORD PTR __imp__Py_BuildValue
  00051	83 c4 08	 add	 esp, 8
  00054	8b e5		 mov	 esp, ebp
  00056	5d		 pop	 ebp
  00057	c3		 ret	 0
$LN3@playerIsPa:

; 1790 : 		return Py_BuildValue("i", FALSE);
; 1791 : 
; 1792 : 	CPythonPlayer::TPartyMemberInfo * pPartyMemberInfo;
; 1793 : 	if (!CPythonPlayer::Instance().GetPartyMemberPtr(dwPID, &pPartyMemberInfo))

  00058	8b 0d 00 00 00
	00		 mov	 ecx, DWORD PTR ?ms_singleton@?$CSingleton@VCPythonPlayer@@@@0PAVCPythonPlayer@@A ; CSingleton<CPythonPlayer>::ms_singleton
  0005e	8d 45 f4	 lea	 eax, DWORD PTR _pPartyMemberInfo$[ebp]
  00061	50		 push	 eax
  00062	ff 75 f8	 push	 DWORD PTR _dwPID$[ebp]
  00065	e8 00 00 00 00	 call	 ?GetPartyMemberPtr@CPythonPlayer@@QAE_NKPAPAUSPartyMemberInfo@1@@Z ; CPythonPlayer::GetPartyMemberPtr
  0006a	84 c0		 test	 al, al
  0006c	74 d6		 je	 SHORT $LN7@playerIsPa

; 1794 : 		return Py_BuildValue("i", FALSE);
; 1795 : 
; 1796 : 	return Py_BuildValue("i", CPythonPlayer::PARTY_ROLE_LEADER == pPartyMemberInfo->byState);

  0006e	8b 45 f4	 mov	 eax, DWORD PTR _pPartyMemberInfo$[ebp]
  00071	33 c9		 xor	 ecx, ecx
  00073	80 78 20 01	 cmp	 BYTE PTR [eax+32], 1
  00077	0f 94 c1	 sete	 cl
  0007a	51		 push	 ecx

; 1797 : }

  0007b	68 00 00 00 00	 push	 OFFSET ??_C@_01KBJDNOO@i@
  00080	ff 15 00 00 00
	00		 call	 DWORD PTR __imp__Py_BuildValue
  00086	83 c4 08	 add	 esp, 8
  00089	8b e5		 mov	 esp, ebp
  0008b	5d		 pop	 ebp
  0008c	c3		 ret	 0
?playerIsPartyLeader@@YAPAU_object@@PAU1@0@Z ENDP	; playerIsPartyLeader
_TEXT	ENDS
; Function compile flags: /Ogtp
; File D:\_m2work\txoko-m2-work\txoko-client-src\source\UserInterface\PythonPlayerModule.cpp
;	COMDAT ?playerIsPartyLeaderByPID@@YAPAU_object@@PAU1@0@Z
_TEXT	SEGMENT
_pPartyMemberInfo$ = -8					; size = 4
_iPID$ = -4						; size = 4
_poSelf$ = 8						; size = 4
_poArgs$ = 12						; size = 4
?playerIsPartyLeaderByPID@@YAPAU_object@@PAU1@0@Z PROC	; playerIsPartyLeaderByPID, COMDAT

; 1800 : {

  00000	55		 push	 ebp
  00001	8b ec		 mov	 ebp, esp
  00003	83 ec 08	 sub	 esp, 8

; 1801 : 	int iPID;
; 1802 : 	if (!PyTuple_GetInteger(poArgs, 0, &iPID))

  00006	8d 45 fc	 lea	 eax, DWORD PTR _iPID$[ebp]
  00009	50		 push	 eax
  0000a	6a 00		 push	 0
  0000c	ff 75 0c	 push	 DWORD PTR _poArgs$[ebp]
  0000f	e8 00 00 00 00	 call	 ?PyTuple_GetInteger@@YA_NPAU_object@@HPAH@Z ; PyTuple_GetInteger
  00014	83 c4 0c	 add	 esp, 12			; 0000000cH
  00017	84 c0		 test	 al, al
  00019	75 0e		 jne	 SHORT $LN2@playerIsPa

; 1803 : 		return Py_BuildException();

  0001b	6a 00		 push	 0
  0001d	e8 00 00 00 00	 call	 ?Py_BuildException@@YAPAU_object@@PBDZZ ; Py_BuildException
  00022	83 c4 04	 add	 esp, 4

; 1810 : }

  00025	8b e5		 mov	 esp, ebp
  00027	5d		 pop	 ebp
  00028	c3		 ret	 0
$LN2@playerIsPa:

; 1804 : 
; 1805 : 	CPythonPlayer::TPartyMemberInfo * pPartyMemberInfo;
; 1806 : 	if (!CPythonPlayer::Instance().GetPartyMemberPtr(iPID, &pPartyMemberInfo))

  00029	8b 0d 00 00 00
	00		 mov	 ecx, DWORD PTR ?ms_singleton@?$CSingleton@VCPythonPlayer@@@@0PAVCPythonPlayer@@A ; CSingleton<CPythonPlayer>::ms_singleton
  0002f	8d 45 f8	 lea	 eax, DWORD PTR _pPartyMemberInfo$[ebp]
  00032	50		 push	 eax
  00033	ff 75 fc	 push	 DWORD PTR _iPID$[ebp]
  00036	e8 00 00 00 00	 call	 ?GetPartyMemberPtr@CPythonPlayer@@QAE_NKPAPAUSPartyMemberInfo@1@@Z ; CPythonPlayer::GetPartyMemberPtr
  0003b	84 c0		 test	 al, al
  0003d	75 14		 jne	 SHORT $LN3@playerIsPa

; 1807 : 		return Py_BuildValue("i", FALSE);

  0003f	6a 00		 push	 0

; 1810 : }

  00041	68 00 00 00 00	 push	 OFFSET ??_C@_01KBJDNOO@i@
  00046	ff 15 00 00 00
	00		 call	 DWORD PTR __imp__Py_BuildValue
  0004c	83 c4 08	 add	 esp, 8
  0004f	8b e5		 mov	 esp, ebp
  00051	5d		 pop	 ebp
  00052	c3		 ret	 0
$LN3@playerIsPa:

; 1808 : 
; 1809 : 	return Py_BuildValue("i", CPythonPlayer::PARTY_ROLE_LEADER == pPartyMemberInfo->byState);

  00053	8b 45 f8	 mov	 eax, DWORD PTR _pPartyMemberInfo$[ebp]
  00056	33 c9		 xor	 ecx, ecx
  00058	80 78 20 01	 cmp	 BYTE PTR [eax+32], 1
  0005c	0f 94 c1	 sete	 cl
  0005f	51		 push	 ecx

; 1810 : }

  00060	68 00 00 00 00	 push	 OFFSET ??_C@_01KBJDNOO@i@
  00065	ff 15 00 00 00
	00		 call	 DWORD PTR __imp__Py_BuildValue
  0006b	83 c4 08	 add	 esp, 8
  0006e	8b e5		 mov	 esp, ebp
  00070	5d		 pop	 ebp
  00071	c3		 ret	 0
?playerIsPartyLeaderByPID@@YAPAU_object@@PAU1@0@Z ENDP	; playerIsPartyLeaderByPID
_TEXT	ENDS
; Function compile flags: /Ogtp
; File D:\_m2work\txoko-m2-work\txoko-client-src\source\UserInterface\PythonPlayerModule.cpp
;	COMDAT ?playerGetPartyMemberHPPercentage@@YAPAU_object@@PAU1@0@Z
_TEXT	SEGMENT
_pPartyMemberInfo$ = -8					; size = 4
_iPID$ = -4						; size = 4
_poSelf$ = 8						; size = 4
_poArgs$ = 12						; size = 4
?playerGetPartyMemberHPPercentage@@YAPAU_object@@PAU1@0@Z PROC ; playerGetPartyMemberHPPercentage, COMDAT

; 1813 : {

  00000	55		 push	 ebp
  00001	8b ec		 mov	 ebp, esp
  00003	83 ec 08	 sub	 esp, 8

; 1814 : 	int iPID;
; 1815 : 	if (!PyTuple_GetInteger(poArgs, 0, &iPID))

  00006	8d 45 fc	 lea	 eax, DWORD PTR _iPID$[ebp]
  00009	50		 push	 eax
  0000a	6a 00		 push	 0
  0000c	ff 75 0c	 push	 DWORD PTR _poArgs$[ebp]
  0000f	e8 00 00 00 00	 call	 ?PyTuple_GetInteger@@YA_NPAU_object@@HPAH@Z ; PyTuple_GetInteger
  00014	83 c4 0c	 add	 esp, 12			; 0000000cH
  00017	84 c0		 test	 al, al
  00019	75 0e		 jne	 SHORT $LN2@playerGetP

; 1816 : 		return Py_BuildException();

  0001b	6a 00		 push	 0
  0001d	e8 00 00 00 00	 call	 ?Py_BuildException@@YAPAU_object@@PBDZZ ; Py_BuildException
  00022	83 c4 04	 add	 esp, 4

; 1823 : }

  00025	8b e5		 mov	 esp, ebp
  00027	5d		 pop	 ebp
  00028	c3		 ret	 0
$LN2@playerGetP:

; 1817 : 
; 1818 : 	CPythonPlayer::TPartyMemberInfo * pPartyMemberInfo;
; 1819 : 	if (!CPythonPlayer::Instance().GetPartyMemberPtr(iPID, &pPartyMemberInfo))

  00029	8b 0d 00 00 00
	00		 mov	 ecx, DWORD PTR ?ms_singleton@?$CSingleton@VCPythonPlayer@@@@0PAVCPythonPlayer@@A ; CSingleton<CPythonPlayer>::ms_singleton
  0002f	8d 45 f8	 lea	 eax, DWORD PTR _pPartyMemberInfo$[ebp]
  00032	50		 push	 eax
  00033	ff 75 fc	 push	 DWORD PTR _iPID$[ebp]
  00036	e8 00 00 00 00	 call	 ?GetPartyMemberPtr@CPythonPlayer@@QAE_NKPAPAUSPartyMemberInfo@1@@Z ; CPythonPlayer::GetPartyMemberPtr
  0003b	84 c0		 test	 al, al
  0003d	75 14		 jne	 SHORT $LN3@playerGetP

; 1820 : 		return Py_BuildValue("i", FALSE);

  0003f	6a 00		 push	 0

; 1823 : }

  00041	68 00 00 00 00	 push	 OFFSET ??_C@_01KBJDNOO@i@
  00046	ff 15 00 00 00
	00		 call	 DWORD PTR __imp__Py_BuildValue
  0004c	83 c4 08	 add	 esp, 8
  0004f	8b e5		 mov	 esp, ebp
  00051	5d		 pop	 ebp
  00052	c3		 ret	 0
$LN3@playerGetP:

; 1821 : 
; 1822 : 	return Py_BuildValue("i", pPartyMemberInfo->byHPPercentage);

  00053	8b 45 f8	 mov	 eax, DWORD PTR _pPartyMemberInfo$[ebp]
  00056	0f b6 40 21	 movzx	 eax, BYTE PTR [eax+33]
  0005a	50		 push	 eax

; 1823 : }

  0005b	68 00 00 00 00	 push	 OFFSET ??_C@_01KBJDNOO@i@
  00060	ff 15 00 00 00
	00		 call	 DWORD PTR __imp__Py_BuildValue
  00066	83 c4 08	 add	 esp, 8
  00069	8b e5		 mov	 esp, ebp
  0006b	5d		 pop	 ebp
  0006c	c3		 ret	 0
?playerGetPartyMemberHPPercentage@@YAPAU_object@@PAU1@0@Z ENDP ; playerGetPartyMemberHPPercentage
_TEXT	ENDS
; Function compile flags: /Ogtp
; File D:\_m2work\txoko-m2-work\txoko-client-src\source\UserInterface\PythonPlayerModule.cpp
;	COMDAT ?playerGetPartyMemberState@@YAPAU_object@@PAU1@0@Z
_TEXT	SEGMENT
_pPartyMemberInfo$ = -8					; size = 4
_iPID$ = -4						; size = 4
_poSelf$ = 8						; size = 4
_poArgs$ = 12						; size = 4
?playerGetPartyMemberState@@YAPAU_object@@PAU1@0@Z PROC	; playerGetPartyMemberState, COMDAT

; 1826 : {

  00000	55		 push	 ebp
  00001	8b ec		 mov	 ebp, esp
  00003	83 ec 08	 sub	 esp, 8

; 1827 : 	int iPID;
; 1828 : 	if (!PyTuple_GetInteger(poArgs, 0, &iPID))

  00006	8d 45 fc	 lea	 eax, DWORD PTR _iPID$[ebp]
  00009	50		 push	 eax
  0000a	6a 00		 push	 0
  0000c	ff 75 0c	 push	 DWORD PTR _poArgs$[ebp]
  0000f	e8 00 00 00 00	 call	 ?PyTuple_GetInteger@@YA_NPAU_object@@HPAH@Z ; PyTuple_GetInteger
  00014	83 c4 0c	 add	 esp, 12			; 0000000cH
  00017	84 c0		 test	 al, al
  00019	75 0e		 jne	 SHORT $LN2@playerGetP

; 1829 : 		return Py_BuildException();

  0001b	6a 00		 push	 0
  0001d	e8 00 00 00 00	 call	 ?Py_BuildException@@YAPAU_object@@PBDZZ ; Py_BuildException
  00022	83 c4 04	 add	 esp, 4

; 1836 : }

  00025	8b e5		 mov	 esp, ebp
  00027	5d		 pop	 ebp
  00028	c3		 ret	 0
$LN2@playerGetP:

; 1830 : 
; 1831 : 	CPythonPlayer::TPartyMemberInfo * pPartyMemberInfo;
; 1832 : 	if (!CPythonPlayer::Instance().GetPartyMemberPtr(iPID, &pPartyMemberInfo))

  00029	8b 0d 00 00 00
	00		 mov	 ecx, DWORD PTR ?ms_singleton@?$CSingleton@VCPythonPlayer@@@@0PAVCPythonPlayer@@A ; CSingleton<CPythonPlayer>::ms_singleton
  0002f	8d 45 f8	 lea	 eax, DWORD PTR _pPartyMemberInfo$[ebp]
  00032	50		 push	 eax
  00033	ff 75 fc	 push	 DWORD PTR _iPID$[ebp]
  00036	e8 00 00 00 00	 call	 ?GetPartyMemberPtr@CPythonPlayer@@QAE_NKPAPAUSPartyMemberInfo@1@@Z ; CPythonPlayer::GetPartyMemberPtr
  0003b	84 c0		 test	 al, al
  0003d	75 14		 jne	 SHORT $LN3@playerGetP

; 1833 : 		return Py_BuildValue("i", FALSE);

  0003f	6a 00		 push	 0

; 1836 : }

  00041	68 00 00 00 00	 push	 OFFSET ??_C@_01KBJDNOO@i@
  00046	ff 15 00 00 00
	00		 call	 DWORD PTR __imp__Py_BuildValue
  0004c	83 c4 08	 add	 esp, 8
  0004f	8b e5		 mov	 esp, ebp
  00051	5d		 pop	 ebp
  00052	c3		 ret	 0
$LN3@playerGetP:

; 1834 : 
; 1835 : 	return Py_BuildValue("i", pPartyMemberInfo->byState);

  00053	8b 45 f8	 mov	 eax, DWORD PTR _pPartyMemberInfo$[ebp]
  00056	0f b6 40 20	 movzx	 eax, BYTE PTR [eax+32]
  0005a	50		 push	 eax

; 1836 : }

  0005b	68 00 00 00 00	 push	 OFFSET ??_C@_01KBJDNOO@i@
  00060	ff 15 00 00 00
	00		 call	 DWORD PTR __imp__Py_BuildValue
  00066	83 c4 08	 add	 esp, 8
  00069	8b e5		 mov	 esp, ebp
  0006b	5d		 pop	 ebp
  0006c	c3		 ret	 0
?playerGetPartyMemberState@@YAPAU_object@@PAU1@0@Z ENDP	; playerGetPartyMemberState
_TEXT	ENDS
; Function compile flags: /Ogtp
; File D:\_m2work\txoko-m2-work\txoko-client-src\source\UserInterface\PythonPlayerModule.cpp
;	COMDAT ?playerGetPartyMemberAffects@@YAPAU_object@@PAU1@0@Z
_TEXT	SEGMENT
_pPartyMemberInfo$ = -8					; size = 4
_iPID$ = -4						; size = 4
_poSelf$ = 8						; size = 4
_poArgs$ = 12						; size = 4
?playerGetPartyMemberAffects@@YAPAU_object@@PAU1@0@Z PROC ; playerGetPartyMemberAffects, COMDAT

; 1839 : {

  00000	55		 push	 ebp
  00001	8b ec		 mov	 ebp, esp
  00003	83 ec 08	 sub	 esp, 8

; 1840 : 	int iPID;
; 1841 : 	if (!PyTuple_GetInteger(poArgs, 0, &iPID))

  00006	8d 45 fc	 lea	 eax, DWORD PTR _iPID$[ebp]
  00009	50		 push	 eax
  0000a	6a 00		 push	 0
  0000c	ff 75 0c	 push	 DWORD PTR _poArgs$[ebp]
  0000f	e8 00 00 00 00	 call	 ?PyTuple_GetInteger@@YA_NPAU_object@@HPAH@Z ; PyTuple_GetInteger
  00014	83 c4 0c	 add	 esp, 12			; 0000000cH
  00017	84 c0		 test	 al, al
  00019	75 0e		 jne	 SHORT $LN2@playerGetP

; 1842 : 		return Py_BuildException();

  0001b	6a 00		 push	 0
  0001d	e8 00 00 00 00	 call	 ?Py_BuildException@@YAPAU_object@@PBDZZ ; Py_BuildException
  00022	83 c4 04	 add	 esp, 4

; 1849 : 									pPartyMemberInfo->sAffects[1],
; 1850 : 									pPartyMemberInfo->sAffects[2],
; 1851 : 									pPartyMemberInfo->sAffects[3],
; 1852 : 									pPartyMemberInfo->sAffects[4],
; 1853 : 									pPartyMemberInfo->sAffects[5],
; 1854 : 									pPartyMemberInfo->sAffects[6]);
; 1855 : }

  00025	8b e5		 mov	 esp, ebp
  00027	5d		 pop	 ebp
  00028	c3		 ret	 0
$LN2@playerGetP:

; 1843 : 
; 1844 : 	CPythonPlayer::TPartyMemberInfo * pPartyMemberInfo;
; 1845 : 	if (!CPythonPlayer::Instance().GetPartyMemberPtr(iPID, &pPartyMemberInfo))

  00029	8b 0d 00 00 00
	00		 mov	 ecx, DWORD PTR ?ms_singleton@?$CSingleton@VCPythonPlayer@@@@0PAVCPythonPlayer@@A ; CSingleton<CPythonPlayer>::ms_singleton
  0002f	8d 45 f8	 lea	 eax, DWORD PTR _pPartyMemberInfo$[ebp]
  00032	50		 push	 eax
  00033	ff 75 fc	 push	 DWORD PTR _iPID$[ebp]
  00036	e8 00 00 00 00	 call	 ?GetPartyMemberPtr@CPythonPlayer@@QAE_NKPAPAUSPartyMemberInfo@1@@Z ; CPythonPlayer::GetPartyMemberPtr
  0003b	84 c0		 test	 al, al
  0003d	75 14		 jne	 SHORT $LN3@playerGetP

; 1846 : 		return Py_BuildValue("i", FALSE);

  0003f	6a 00		 push	 0
  00041	68 00 00 00 00	 push	 OFFSET ??_C@_01KBJDNOO@i@
  00046	ff 15 00 00 00
	00		 call	 DWORD PTR __imp__Py_BuildValue
  0004c	83 c4 08	 add	 esp, 8

; 1849 : 									pPartyMemberInfo->sAffects[1],
; 1850 : 									pPartyMemberInfo->sAffects[2],
; 1851 : 									pPartyMemberInfo->sAffects[3],
; 1852 : 									pPartyMemberInfo->sAffects[4],
; 1853 : 									pPartyMemberInfo->sAffects[5],
; 1854 : 									pPartyMemberInfo->sAffects[6]);
; 1855 : }

  0004f	8b e5		 mov	 esp, ebp
  00051	5d		 pop	 ebp
  00052	c3		 ret	 0
$LN3@playerGetP:

; 1847 : 
; 1848 : 	return Py_BuildValue("iiiiiii",	pPartyMemberInfo->sAffects[0],

  00053	8b 4d f8	 mov	 ecx, DWORD PTR _pPartyMemberInfo$[ebp]
  00056	0f bf 41 2e	 movsx	 eax, WORD PTR [ecx+46]
  0005a	50		 push	 eax
  0005b	0f bf 41 2c	 movsx	 eax, WORD PTR [ecx+44]
  0005f	50		 push	 eax
  00060	0f bf 41 2a	 movsx	 eax, WORD PTR [ecx+42]
  00064	50		 push	 eax
  00065	0f bf 41 28	 movsx	 eax, WORD PTR [ecx+40]
  00069	50		 push	 eax
  0006a	0f bf 41 26	 movsx	 eax, WORD PTR [ecx+38]
  0006e	50		 push	 eax
  0006f	0f bf 41 24	 movsx	 eax, WORD PTR [ecx+36]
  00073	50		 push	 eax
  00074	0f bf 41 22	 movsx	 eax, WORD PTR [ecx+34]
  00078	50		 push	 eax
  00079	68 00 00 00 00	 push	 OFFSET ??_C@_07EFJJEBFG@iiiiiii@
  0007e	ff 15 00 00 00
	00		 call	 DWORD PTR __imp__Py_BuildValue
  00084	83 c4 20	 add	 esp, 32			; 00000020H

; 1849 : 									pPartyMemberInfo->sAffects[1],
; 1850 : 									pPartyMemberInfo->sAffects[2],
; 1851 : 									pPartyMemberInfo->sAffects[3],
; 1852 : 									pPartyMemberInfo->sAffects[4],
; 1853 : 									pPartyMemberInfo->sAffects[5],
; 1854 : 									pPartyMemberInfo->sAffects[6]);
; 1855 : }

  00087	8b e5		 mov	 esp, ebp
  00089	5d		 pop	 ebp
  0008a	c3		 ret	 0
?playerGetPartyMemberAffects@@YAPAU_object@@PAU1@0@Z ENDP ; playerGetPartyMemberAffects
_TEXT	ENDS
; Function compile flags: /Ogtp
; File D:\_m2work\txoko-m2-work\txoko-client-src\source\UserInterface\PythonPlayerModule.cpp
;	COMDAT ?playerRemovePartyMember@@YAPAU_object@@PAU1@0@Z
_TEXT	SEGMENT
_iPID$ = -4						; size = 4
_poSelf$ = 8						; size = 4
_poArgs$ = 12						; size = 4
?playerRemovePartyMember@@YAPAU_object@@PAU1@0@Z PROC	; playerRemovePartyMember, COMDAT

; 1858 : {

  00000	55		 push	 ebp
  00001	8b ec		 mov	 ebp, esp
  00003	51		 push	 ecx

; 1859 : 	int iPID;
; 1860 : 	if (!PyTuple_GetInteger(poArgs, 0, &iPID))

  00004	8d 45 fc	 lea	 eax, DWORD PTR _iPID$[ebp]
  00007	50		 push	 eax
  00008	6a 00		 push	 0
  0000a	ff 75 0c	 push	 DWORD PTR _poArgs$[ebp]
  0000d	e8 00 00 00 00	 call	 ?PyTuple_GetInteger@@YA_NPAU_object@@HPAH@Z ; PyTuple_GetInteger
  00012	83 c4 0c	 add	 esp, 12			; 0000000cH
  00015	84 c0		 test	 al, al
  00017	75 0e		 jne	 SHORT $LN2@playerRemo

; 1861 : 		return Py_BuildException();

  00019	6a 00		 push	 0
  0001b	e8 00 00 00 00	 call	 ?Py_BuildException@@YAPAU_object@@PBDZZ ; Py_BuildException
  00020	83 c4 04	 add	 esp, 4

; 1865 : }

  00023	8b e5		 mov	 esp, ebp
  00025	5d		 pop	 ebp
  00026	c3		 ret	 0
$LN2@playerRemo:

; 1862 : 
; 1863 : 	CPythonPlayer::Instance().RemovePartyMember(iPID);

  00027	ff 75 fc	 push	 DWORD PTR _iPID$[ebp]
  0002a	8b 0d 00 00 00
	00		 mov	 ecx, DWORD PTR ?ms_singleton@?$CSingleton@VCPythonPlayer@@@@0PAVCPythonPlayer@@A ; CSingleton<CPythonPlayer>::ms_singleton
  00030	e8 00 00 00 00	 call	 ?RemovePartyMember@CPythonPlayer@@QAEXK@Z ; CPythonPlayer::RemovePartyMember

; 1864 : 	return Py_BuildNone();

  00035	e8 00 00 00 00	 call	 ?Py_BuildNone@@YAPAU_object@@XZ ; Py_BuildNone

; 1865 : }

  0003a	8b e5		 mov	 esp, ebp
  0003c	5d		 pop	 ebp
  0003d	c3		 ret	 0
?playerRemovePartyMember@@YAPAU_object@@PAU1@0@Z ENDP	; playerRemovePartyMember
_TEXT	ENDS
; Function compile flags: /Ogtp
; File D:\_m2work\txoko-m2-work\txoko-client-src\source\UserInterface\PythonPlayerModule.cpp
;	COMDAT ?playerExitParty@@YAPAU_object@@PAU1@0@Z
_TEXT	SEGMENT
_poSelf$ = 8						; size = 4
_poArgs$ = 12						; size = 4
?playerExitParty@@YAPAU_object@@PAU1@0@Z PROC		; playerExitParty, COMDAT

; 1869 : 	CPythonPlayer::Instance().ExitParty();

  00000	8b 0d 00 00 00
	00		 mov	 ecx, DWORD PTR ?ms_singleton@?$CSingleton@VCPythonPlayer@@@@0PAVCPythonPlayer@@A ; CSingleton<CPythonPlayer>::ms_singleton
  00006	e8 00 00 00 00	 call	 ?ExitParty@CPythonPlayer@@QAEXXZ ; CPythonPlayer::ExitParty

; 1870 : 	return Py_BuildNone();

  0000b	e9 00 00 00 00	 jmp	 ?Py_BuildNone@@YAPAU_object@@XZ ; Py_BuildNone
?playerExitParty@@YAPAU_object@@PAU1@0@Z ENDP		; playerExitParty
_TEXT	ENDS
; Function compile flags: /Ogtp
; File D:\_m2work\txoko-m2-work\txoko-client-src\source\UserInterface\PythonPlayerModule.cpp
;	COMDAT ?playerGetPKMode@@YAPAU_object@@PAU1@0@Z
_TEXT	SEGMENT
_poSelf$ = 8						; size = 4
_poArgs$ = 12						; size = 4
?playerGetPKMode@@YAPAU_object@@PAU1@0@Z PROC		; playerGetPKMode, COMDAT

; 1875 : 	return Py_BuildValue("i", CPythonPlayer::Instance().GetPKMode());

  00000	8b 0d 00 00 00
	00		 mov	 ecx, DWORD PTR ?ms_singleton@?$CSingleton@VCPythonPlayer@@@@0PAVCPythonPlayer@@A ; CSingleton<CPythonPlayer>::ms_singleton
  00006	e8 00 00 00 00	 call	 ?GetPKMode@CPythonPlayer@@QAEKXZ ; CPythonPlayer::GetPKMode
  0000b	50		 push	 eax
  0000c	68 00 00 00 00	 push	 OFFSET ??_C@_01KBJDNOO@i@
  00011	ff 15 00 00 00
	00		 call	 DWORD PTR __imp__Py_BuildValue
  00017	83 c4 08	 add	 esp, 8

; 1876 : }

  0001a	c3		 ret	 0
?playerGetPKMode@@YAPAU_object@@PAU1@0@Z ENDP		; playerGetPKMode
_TEXT	ENDS
; Function compile flags: /Ogtp
; File D:\_m2work\txoko-m2-work\txoko-client-src\source\UserInterface\PythonPlayerModule.cpp
;	COMDAT ?playerHasMobilePhoneNumber@@YAPAU_object@@PAU1@0@Z
_TEXT	SEGMENT
_poSelf$ = 8						; size = 4
_poArgs$ = 12						; size = 4
?playerHasMobilePhoneNumber@@YAPAU_object@@PAU1@0@Z PROC ; playerHasMobilePhoneNumber, COMDAT

; 1880 : 	return Py_BuildValue("i", CPythonPlayer::Instance().HasMobilePhoneNumber());

  00000	8b 0d 00 00 00
	00		 mov	 ecx, DWORD PTR ?ms_singleton@?$CSingleton@VCPythonPlayer@@@@0PAVCPythonPlayer@@A ; CSingleton<CPythonPlayer>::ms_singleton
  00006	e8 00 00 00 00	 call	 ?HasMobilePhoneNumber@CPythonPlayer@@QAEHXZ ; CPythonPlayer::HasMobilePhoneNumber
  0000b	50		 push	 eax
  0000c	68 00 00 00 00	 push	 OFFSET ??_C@_01KBJDNOO@i@
  00011	ff 15 00 00 00
	00		 call	 DWORD PTR __imp__Py_BuildValue
  00017	83 c4 08	 add	 esp, 8

; 1881 : }

  0001a	c3		 ret	 0
?playerHasMobilePhoneNumber@@YAPAU_object@@PAU1@0@Z ENDP ; playerHasMobilePhoneNumber
_TEXT	ENDS
; Function compile flags: /Ogtp
; File D:\_m2work\txoko-m2-work\txoko-client-src\source\UserInterface\PythonPlayerModule.cpp
;	COMDAT ?playerSetWeaponAttackBonusFlag@@YAPAU_object@@PAU1@0@Z
_TEXT	SEGMENT
_iFlag$ = -4						; size = 4
_poSelf$ = 8						; size = 4
_poArgs$ = 12						; size = 4
?playerSetWeaponAttackBonusFlag@@YAPAU_object@@PAU1@0@Z PROC ; playerSetWeaponAttackBonusFlag, COMDAT

; 1884 : {

  00000	55		 push	 ebp
  00001	8b ec		 mov	 ebp, esp
  00003	51		 push	 ecx

; 1885 : 	int iFlag;
; 1886 : 	if (!PyTuple_GetInteger(poArgs, 0, &iFlag))

  00004	8d 45 fc	 lea	 eax, DWORD PTR _iFlag$[ebp]
  00007	50		 push	 eax
  00008	6a 00		 push	 0
  0000a	ff 75 0c	 push	 DWORD PTR _poArgs$[ebp]
  0000d	e8 00 00 00 00	 call	 ?PyTuple_GetInteger@@YA_NPAU_object@@HPAH@Z ; PyTuple_GetInteger
  00012	83 c4 0c	 add	 esp, 12			; 0000000cH
  00015	84 c0		 test	 al, al
  00017	75 0e		 jne	 SHORT $LN2@playerSetW

; 1887 : 		return Py_BuildException();

  00019	6a 00		 push	 0
  0001b	e8 00 00 00 00	 call	 ?Py_BuildException@@YAPAU_object@@PBDZZ ; Py_BuildException
  00020	83 c4 04	 add	 esp, 4

; 1890 : }

  00023	8b e5		 mov	 esp, ebp
  00025	5d		 pop	 ebp
  00026	c3		 ret	 0
$LN2@playerSetW:

; 1888 : 
; 1889 : 	return Py_BuildNone();

  00027	e8 00 00 00 00	 call	 ?Py_BuildNone@@YAPAU_object@@XZ ; Py_BuildNone

; 1890 : }

  0002c	8b e5		 mov	 esp, ebp
  0002e	5d		 pop	 ebp
  0002f	c3		 ret	 0
?playerSetWeaponAttackBonusFlag@@YAPAU_object@@PAU1@0@Z ENDP ; playerSetWeaponAttackBonusFlag
_TEXT	ENDS
; Function compile flags: /Ogtp
; File D:\_m2work\txoko-m2-work\txoko-client-src\source\UserInterface\PythonPlayerModule.cpp
;	COMDAT ?playerToggleCoolTime@@YAPAU_object@@PAU1@0@Z
_TEXT	SEGMENT
_poSelf$ = 8						; size = 4
_poArgs$ = 12						; size = 4
?playerToggleCoolTime@@YAPAU_object@@PAU1@0@Z PROC	; playerToggleCoolTime, COMDAT

; 1894 : 	return Py_BuildValue("i", CPythonPlayer::Instance().__ToggleCoolTime());

  00000	8b 0d 00 00 00
	00		 mov	 ecx, DWORD PTR ?ms_singleton@?$CSingleton@VCPythonPlayer@@@@0PAVCPythonPlayer@@A ; CSingleton<CPythonPlayer>::ms_singleton
  00006	e8 00 00 00 00	 call	 ?__ToggleCoolTime@CPythonPlayer@@QAEHXZ ; CPythonPlayer::__ToggleCoolTime
  0000b	50		 push	 eax
  0000c	68 00 00 00 00	 push	 OFFSET ??_C@_01KBJDNOO@i@
  00011	ff 15 00 00 00
	00		 call	 DWORD PTR __imp__Py_BuildValue
  00017	83 c4 08	 add	 esp, 8

; 1895 : }

  0001a	c3		 ret	 0
?playerToggleCoolTime@@YAPAU_object@@PAU1@0@Z ENDP	; playerToggleCoolTime
_TEXT	ENDS
; Function compile flags: /Ogtp
; File D:\_m2work\txoko-m2-work\txoko-client-src\source\UserInterface\PythonPlayerModule.cpp
;	COMDAT ?playerToggleLevelLimit@@YAPAU_object@@PAU1@0@Z
_TEXT	SEGMENT
_poSelf$ = 8						; size = 4
_poArgs$ = 12						; size = 4
?playerToggleLevelLimit@@YAPAU_object@@PAU1@0@Z PROC	; playerToggleLevelLimit, COMDAT

; 1899 : 	return Py_BuildValue("i", CPythonPlayer::Instance().__ToggleLevelLimit());

  00000	8b 0d 00 00 00
	00		 mov	 ecx, DWORD PTR ?ms_singleton@?$CSingleton@VCPythonPlayer@@@@0PAVCPythonPlayer@@A ; CSingleton<CPythonPlayer>::ms_singleton
  00006	e8 00 00 00 00	 call	 ?__ToggleLevelLimit@CPythonPlayer@@QAEHXZ ; CPythonPlayer::__ToggleLevelLimit
  0000b	50		 push	 eax
  0000c	68 00 00 00 00	 push	 OFFSET ??_C@_01KBJDNOO@i@
  00011	ff 15 00 00 00
	00		 call	 DWORD PTR __imp__Py_BuildValue
  00017	83 c4 08	 add	 esp, 8

; 1900 : }

  0001a	c3		 ret	 0
?playerToggleLevelLimit@@YAPAU_object@@PAU1@0@Z ENDP	; playerToggleLevelLimit
_TEXT	ENDS
; Function compile flags: /Ogtp
; File D:\_m2work\txoko-m2-work\txoko-client-src\source\UserInterface\PythonPlayerModule.cpp
;	COMDAT ?playerGetTargetVID@@YAPAU_object@@PAU1@0@Z
_TEXT	SEGMENT
_poSelf$ = 8						; size = 4
_poArgs$ = 12						; size = 4
?playerGetTargetVID@@YAPAU_object@@PAU1@0@Z PROC	; playerGetTargetVID, COMDAT

; 1904 : 	return Py_BuildValue("i", CPythonPlayer::Instance().GetTargetVID());

  00000	8b 0d 00 00 00
	00		 mov	 ecx, DWORD PTR ?ms_singleton@?$CSingleton@VCPythonPlayer@@@@0PAVCPythonPlayer@@A ; CSingleton<CPythonPlayer>::ms_singleton
  00006	e8 00 00 00 00	 call	 ?GetTargetVID@CPythonPlayer@@QAEKXZ ; CPythonPlayer::GetTargetVID
  0000b	50		 push	 eax
  0000c	68 00 00 00 00	 push	 OFFSET ??_C@_01KBJDNOO@i@
  00011	ff 15 00 00 00
	00		 call	 DWORD PTR __imp__Py_BuildValue
  00017	83 c4 08	 add	 esp, 8

; 1905 : }

  0001a	c3		 ret	 0
?playerGetTargetVID@@YAPAU_object@@PAU1@0@Z ENDP	; playerGetTargetVID
_TEXT	ENDS
; Function compile flags: /Ogtp
; File D:\_m2work\txoko-m2-work\txoko-client-src\source\UserInterface\PythonPlayerModule.cpp
; File C:\Program Files\Microsoft Visual Studio\2022\Community\VC\Tools\MSVC\14.44.35207\include\utility
; File D:\_m2work\txoko-m2-work\txoko-client-src\source\UserInterface\PythonPlayerModule.cpp
; File C:\Program Files\Microsoft Visual Studio\2022\Community\VC\Tools\MSVC\14.44.35207\include\xtree
; File C:\Program Files\Microsoft Visual Studio\2022\Community\VC\Tools\MSVC\14.44.35207\include\utility
; File C:\Program Files\Microsoft Visual Studio\2022\Community\VC\Tools\MSVC\14.44.35207\include\xtree
; File C:\Program Files\Microsoft Visual Studio\2022\Community\VC\Tools\MSVC\14.44.35207\include\utility
; File C:\Program Files\Microsoft Visual Studio\2022\Community\VC\Tools\MSVC\14.44.35207\include\xtree
; File C:\Program Files\Microsoft Visual Studio\2022\Community\VC\Tools\MSVC\14.44.35207\include\type_traits
; File C:\Program Files\Microsoft Visual Studio\2022\Community\VC\Tools\MSVC\14.44.35207\include\xtree
; File C:\Program Files\Microsoft Visual Studio\2022\Community\VC\Tools\MSVC\14.44.35207\include\xmemory
; File C:\Program Files\Microsoft Visual Studio\2022\Community\VC\Tools\MSVC\14.44.35207\include\xtree
; File C:\Program Files\Microsoft Visual Studio\2022\Community\VC\Tools\MSVC\14.44.35207\include\xmemory
; File C:\Program Files\Microsoft Visual Studio\2022\Community\VC\Tools\MSVC\14.44.35207\include\xtree
; File C:\Program Files\Microsoft Visual Studio\2022\Community\VC\Tools\MSVC\14.44.35207\include\utility
; File C:\Program Files\Microsoft Visual Studio\2022\Community\VC\Tools\MSVC\14.44.35207\include\xtree
; File C:\Program Files\Microsoft Visual Studio\2022\Community\VC\Tools\MSVC\14.44.35207\include\utility
; File C:\Program Files\Microsoft Visual Studio\2022\Community\VC\Tools\MSVC\14.44.35207\include\xtree
; File D:\_m2work\txoko-m2-work\txoko-client-src\source\UserInterface\PythonPlayerModule.cpp
; File C:\Program Files\Microsoft Visual Studio\2022\Community\VC\Tools\MSVC\14.44.35207\include\xtree
; File D:\_m2work\txoko-m2-work\txoko-client-src\source\UserInterface\PythonPlayerModule.cpp
;	COMDAT ?playerRegisterEmotionIcon@@YAPAU_object@@PAU1@0@Z
_TEXT	SEGMENT
$T2 = -52						; size = 12
__Loc$3 = -40						; size = 12
$T4 = -28						; size = 8
$T5 = -28						; size = 8
_iIndex$ = -20						; size = 4
_szFileName$ = -16					; size = 4
__$EHRec$ = -12						; size = 12
_poSelf$ = 8						; size = 4
_poArgs$ = 12						; size = 4
?playerRegisterEmotionIcon@@YAPAU_object@@PAU1@0@Z PROC	; playerRegisterEmotionIcon, COMDAT

; 1908 : {

  00000	55		 push	 ebp
  00001	8b ec		 mov	 ebp, esp
  00003	6a ff		 push	 -1
  00005	68 00 00 00 00	 push	 __ehhandler$?playerRegisterEmotionIcon@@YAPAU_object@@PAU1@0@Z
  0000a	64 a1 00 00 00
	00		 mov	 eax, DWORD PTR fs:0
  00010	50		 push	 eax
  00011	83 ec 28	 sub	 esp, 40			; 00000028H
  00014	53		 push	 ebx
  00015	56		 push	 esi
  00016	57		 push	 edi
  00017	a1 00 00 00 00	 mov	 eax, DWORD PTR ___security_cookie
  0001c	33 c5		 xor	 eax, ebp
  0001e	50		 push	 eax
  0001f	8d 45 f4	 lea	 eax, DWORD PTR __$EHRec$[ebp]
  00022	64 a3 00 00 00
	00		 mov	 DWORD PTR fs:0, eax

; 1909 : 	int iIndex;
; 1910 : 	if (!PyTuple_GetInteger(poArgs, 0, &iIndex))

  00028	8b 75 0c	 mov	 esi, DWORD PTR _poArgs$[ebp]
  0002b	8d 45 ec	 lea	 eax, DWORD PTR _iIndex$[ebp]
  0002e	50		 push	 eax
  0002f	6a 00		 push	 0
  00031	56		 push	 esi
  00032	e8 00 00 00 00	 call	 ?PyTuple_GetInteger@@YA_NPAU_object@@HPAH@Z ; PyTuple_GetInteger
  00037	83 c4 0c	 add	 esp, 12			; 0000000cH
  0003a	84 c0		 test	 al, al
  0003c	75 1c		 jne	 SHORT $LN2@playerRegi
$LN128@playerRegi:

; 1920 : }

  0003e	6a 00		 push	 0
  00040	e8 00 00 00 00	 call	 ?Py_BuildException@@YAPAU_object@@PBDZZ ; Py_BuildException
  00045	83 c4 04	 add	 esp, 4
  00048	8b 4d f4	 mov	 ecx, DWORD PTR __$EHRec$[ebp]
  0004b	64 89 0d 00 00
	00 00		 mov	 DWORD PTR fs:0, ecx
  00052	59		 pop	 ecx
  00053	5f		 pop	 edi
  00054	5e		 pop	 esi
  00055	5b		 pop	 ebx
  00056	8b e5		 mov	 esp, ebp
  00058	5d		 pop	 ebp
  00059	c3		 ret	 0
$LN2@playerRegi:

; 1911 : 		return Py_BuildException();
; 1912 : 	char * szFileName;
; 1913 : 	if (!PyTuple_GetString(poArgs, 1, &szFileName))

  0005a	8d 45 f0	 lea	 eax, DWORD PTR _szFileName$[ebp]
  0005d	50		 push	 eax
  0005e	6a 01		 push	 1
  00060	56		 push	 esi
  00061	e8 00 00 00 00	 call	 ?PyTuple_GetString@@YA_NPAU_object@@HPAPAD@Z ; PyTuple_GetString
  00066	83 c4 0c	 add	 esp, 12			; 0000000cH
  00069	84 c0		 test	 al, al
  0006b	74 d1		 je	 SHORT $LN128@playerRegi

; 1916 : 	CGraphicImage * pImage = (CGraphicImage *)CResourceManager::Instance().GetResourcePointer(szFileName);

  0006d	ff 75 f0	 push	 DWORD PTR _szFileName$[ebp]
  00070	8b 0d 00 00 00
	00		 mov	 ecx, DWORD PTR ?ms_singleton@?$CSingleton@VCResourceManager@@@@0PAVCResourceManager@@A ; CSingleton<CResourceManager>::ms_singleton
  00076	e8 00 00 00 00	 call	 ?GetResourcePointer@CResourceManager@@QAEPAVCResource@@PBD@Z ; CResourceManager::GetResourcePointer
; File C:\Program Files\Microsoft Visual Studio\2022\Community\VC\Tools\MSVC\14.44.35207\include\utility

; 274  :         : first(_STD forward<_Other1>(_Val1)), second(_STD forward<_Other2>(_Val2)) {

  0007b	8b 7d ec	 mov	 edi, DWORD PTR _iIndex$[ebp]
; File D:\_m2work\txoko-m2-work\txoko-client-src\source\UserInterface\PythonPlayerModule.cpp

; 1916 : 	CGraphicImage * pImage = (CGraphicImage *)CResourceManager::Instance().GetResourcePointer(szFileName);

  0007e	8b d8		 mov	 ebx, eax
; File C:\Program Files\Microsoft Visual Studio\2022\Community\VC\Tools\MSVC\14.44.35207\include\xtree

; 1017 :             _Loc                = _Find_lower_bound(_Keyval);

  00080	8d 45 e4	 lea	 eax, DWORD PTR $T4[ebp]
; File C:\Program Files\Microsoft Visual Studio\2022\Community\VC\Tools\MSVC\14.44.35207\include\utility

; 274  :         : first(_STD forward<_Other1>(_Val1)), second(_STD forward<_Other2>(_Val2)) {

  00083	89 7d e4	 mov	 DWORD PTR $T4[ebp], edi
; File C:\Program Files\Microsoft Visual Studio\2022\Community\VC\Tools\MSVC\14.44.35207\include\xtree

; 1017 :             _Loc                = _Find_lower_bound(_Keyval);

  00086	50		 push	 eax
  00087	8d 45 cc	 lea	 eax, DWORD PTR $T2[ebp]
; File C:\Program Files\Microsoft Visual Studio\2022\Community\VC\Tools\MSVC\14.44.35207\include\utility

; 274  :         : first(_STD forward<_Other1>(_Val1)), second(_STD forward<_Other2>(_Val2)) {

  0008a	89 5d e8	 mov	 DWORD PTR $T4[ebp+4], ebx
; File C:\Program Files\Microsoft Visual Studio\2022\Community\VC\Tools\MSVC\14.44.35207\include\xtree

; 1017 :             _Loc                = _Find_lower_bound(_Keyval);

  0008d	50		 push	 eax
  0008e	e8 00 00 00 00	 call	 ??$_Find_lower_bound@H@?$_Tree@V?$_Tmap_traits@HPAVCGraphicImage@@U?$less@H@std@@V?$allocator@U?$pair@$$CBHPAVCGraphicImage@@@std@@@3@$0A@@std@@@std@@IBE?AU?$_Tree_find_result@PAU?$_Tree_node@U?$pair@$$CBHPAVCGraphicImage@@@std@@PAX@std@@@1@ABH@Z ; std::_Tree<std::_Tmap_traits<int,CGraphicImage *,std::less<int>,std::allocator<std::pair<int const ,CGraphicImage *> >,0> >::_Find_lower_bound<int>
  00093	f3 0f 7e 00	 movq	 xmm0, QWORD PTR [eax]
  00097	8b 40 08	 mov	 eax, DWORD PTR [eax+8]
  0009a	66 0f d6 45 d8	 movq	 QWORD PTR __Loc$3[ebp], xmm0

; 1624 :         return !_Bound->_Isnil && !_DEBUG_LT_PRED(_Getcomp(), _Keyval, _Traits::_Kfn(_Bound->_Myval));

  0009f	80 78 0d 00	 cmp	 BYTE PTR [eax+13], 0
  000a3	75 05		 jne	 SHORT $LN21@playerRegi
; File C:\Program Files\Microsoft Visual Studio\2022\Community\VC\Tools\MSVC\14.44.35207\include\type_traits

; 2380 :         return _Left < _Right;

  000a5	3b 78 10	 cmp	 edi, DWORD PTR [eax+16]
; File C:\Program Files\Microsoft Visual Studio\2022\Community\VC\Tools\MSVC\14.44.35207\include\xtree

; 1624 :         return !_Bound->_Isnil && !_DEBUG_LT_PRED(_Getcomp(), _Keyval, _Traits::_Kfn(_Bound->_Myval));

  000a8	7d 5d		 jge	 SHORT $LN108@playerRegi
$LN21@playerRegi:

; 1648 :         if (max_size() == _Get_scary()->_Mysize) {

  000aa	81 3d 04 00 00
	00 aa aa aa 0a	 cmp	 DWORD PTR ?m_kMap_iEmotionIndex_pkIconImage@@3V?$map@HPAVCGraphicImage@@U?$less@H@std@@V?$allocator@U?$pair@$$CBHPAVCGraphicImage@@@std@@@3@@std@@A+4, 178956970 ; 0aaaaaaaH
  000b4	74 68		 je	 SHORT $LN130@playerRegi

; 1023 :             _Inserted = _Tree_temp_node<_Alnode>(_Getal(), _Scary->_Myhead, _STD forward<_Valtys>(_Vals)...)._Release();

  000b6	8b 35 00 00 00
	00		 mov	 esi, DWORD PTR ?m_kMap_iEmotionIndex_pkIconImage@@3V?$map@HPAVCGraphicImage@@U?$less@H@std@@V?$allocator@U?$pair@$$CBHPAVCGraphicImage@@@std@@@3@@std@@A
; File C:\Program Files\Microsoft Visual Studio\2022\Community\VC\Tools\MSVC\14.44.35207\include\xmemory

; 1160 :     _CONSTEXPR20 explicit _Alloc_construct_ptr(_Alloc& _Al_) : _Al(_Al_), _Ptr(nullptr) {}

  000bc	c7 45 e4 00 00
	00 00		 mov	 DWORD PTR $T5[ebp], OFFSET ?m_kMap_iEmotionIndex_pkIconImage@@3V?$map@HPAVCGraphicImage@@U?$less@H@std@@V?$allocator@U?$pair@$$CBHPAVCGraphicImage@@@std@@@3@@std@@A ; m_kMap_iEmotionIndex_pkIconImage
; File C:\Program Files\Microsoft Visual Studio\2022\Community\VC\Tools\MSVC\14.44.35207\include\xtree

; 808  :     explicit _Tree_temp_node_alloc(_Alnode& _Al_) : _Alloc_construct_ptr<_Alnode>(_Al_) {

  000c3	c7 45 fc 00 00
	00 00		 mov	 DWORD PTR __$EHRec$[ebp+8], 0
; File C:\Program Files\Microsoft Visual Studio\2022\Community\VC\Tools\MSVC\14.44.35207\include\xmemory

; 136  :         return ::operator new(_Bytes);

  000ca	6a 18		 push	 24			; 00000018H

; 1167 :         _Ptr = nullptr; // if allocate throws, prevents double-free

  000cc	c7 45 e8 00 00
	00 00		 mov	 DWORD PTR $T5[ebp+4], 0

; 136  :         return ::operator new(_Bytes);

  000d3	e8 00 00 00 00	 call	 ??2@YAPAXI@Z		; operator new
  000d8	83 c4 04	 add	 esp, 4
; File C:\Program Files\Microsoft Visual Studio\2022\Community\VC\Tools\MSVC\14.44.35207\include\xtree

; 810  :     }

  000db	c7 45 fc ff ff
	ff ff		 mov	 DWORD PTR __$EHRec$[ebp+8], -1

; 1042 :         return {_Scary->_Insert_node(_Loc._Location, _Inserted), true};

  000e2	b9 00 00 00 00	 mov	 ecx, OFFSET ?m_kMap_iEmotionIndex_pkIconImage@@3V?$map@HPAVCGraphicImage@@U?$less@H@std@@V?$allocator@U?$pair@$$CBHPAVCGraphicImage@@@std@@@3@@std@@A ; m_kMap_iEmotionIndex_pkIconImage
; File C:\Program Files\Microsoft Visual Studio\2022\Community\VC\Tools\MSVC\14.44.35207\include\utility

; 303  :         : first(_STD forward<_Other1>(_Right.first)), second(_STD forward<_Other2>(_Right.second)) {}

  000e7	89 78 10	 mov	 DWORD PTR [eax+16], edi
; File C:\Program Files\Microsoft Visual Studio\2022\Community\VC\Tools\MSVC\14.44.35207\include\xtree

; 1042 :         return {_Scary->_Insert_node(_Loc._Location, _Inserted), true};

  000ea	50		 push	 eax
  000eb	ff 75 dc	 push	 DWORD PTR __Loc$3[ebp+4]
; File C:\Program Files\Microsoft Visual Studio\2022\Community\VC\Tools\MSVC\14.44.35207\include\utility

; 303  :         : first(_STD forward<_Other1>(_Right.first)), second(_STD forward<_Other2>(_Right.second)) {}

  000ee	89 58 14	 mov	 DWORD PTR [eax+20], ebx
; File C:\Program Files\Microsoft Visual Studio\2022\Community\VC\Tools\MSVC\14.44.35207\include\xtree

; 1042 :         return {_Scary->_Insert_node(_Loc._Location, _Inserted), true};

  000f1	ff 75 d8	 push	 DWORD PTR __Loc$3[ebp]

; 831  :         _Construct_in_place(this->_Ptr->_Left, _Myhead);

  000f4	89 30		 mov	 DWORD PTR [eax], esi

; 832  :         _Construct_in_place(this->_Ptr->_Parent, _Myhead);

  000f6	89 70 04	 mov	 DWORD PTR [eax+4], esi

; 833  :         _Construct_in_place(this->_Ptr->_Right, _Myhead);

  000f9	89 70 08	 mov	 DWORD PTR [eax+8], esi

; 834  :         this->_Ptr->_Color = _Red;

  000fc	66 c7 40 0c 00
	00		 mov	 WORD PTR [eax+12], 0

; 1042 :         return {_Scary->_Insert_node(_Loc._Location, _Inserted), true};

  00102	e8 00 00 00 00	 call	 ?_Insert_node@?$_Tree_val@U?$_Tree_simple_types@U?$pair@$$CBHPAVCGraphicImage@@@std@@@std@@@std@@QAEPAU?$_Tree_node@U?$pair@$$CBHPAVCGraphicImage@@@std@@PAX@2@U?$_Tree_id@PAU?$_Tree_node@U?$pair@$$CBHPAVCGraphicImage@@@std@@PAX@std@@@2@QAU32@@Z ; std::_Tree_val<std::_Tree_simple_types<std::pair<int const ,CGraphicImage *> > >::_Insert_node
$LN108@playerRegi:
; File D:\_m2work\txoko-m2-work\txoko-client-src\source\UserInterface\PythonPlayerModule.cpp

; 1919 : 	return Py_BuildNone();

  00107	e8 00 00 00 00	 call	 ?Py_BuildNone@@YAPAU_object@@XZ ; Py_BuildNone

; 1920 : }

  0010c	8b 4d f4	 mov	 ecx, DWORD PTR __$EHRec$[ebp]
  0010f	64 89 0d 00 00
	00 00		 mov	 DWORD PTR fs:0, ecx
  00116	59		 pop	 ecx
  00117	5f		 pop	 edi
  00118	5e		 pop	 esi
  00119	5b		 pop	 ebx
  0011a	8b e5		 mov	 esp, ebp
  0011c	5d		 pop	 ebp
  0011d	c3		 ret	 0
$LN130@playerRegi:
; File C:\Program Files\Microsoft Visual Studio\2022\Community\VC\Tools\MSVC\14.44.35207\include\xtree

; 1649 :             _Throw_tree_length_error();

  0011e	e8 00 00 00 00	 call	 ?_Throw_tree_length_error@std@@YAXXZ ; std::_Throw_tree_length_error
$LN127@playerRegi:
  00123	cc		 int	 3
_TEXT	ENDS
;	COMDAT text$x
text$x	SEGMENT
__unwindfunclet$?playerRegisterEmotionIcon@@YAPAU_object@@PAU1@0@Z$2:
  00000	8d 4d e4	 lea	 ecx, DWORD PTR $T5[ebp]
  00003	e9 00 00 00 00	 jmp	 ??1?$_Alloc_construct_ptr@V?$allocator@U?$_Tree_node@U?$pair@$$CBHPAVCGraphicImage@@@std@@PAX@std@@@std@@@std@@QAE@XZ ; std::_Alloc_construct_ptr<std::allocator<std::_Tree_node<std::pair<int const ,CGraphicImage *>,void *> > >::~_Alloc_construct_ptr<std::allocator<std::_Tree_node<std::pair<int const ,CGraphicImage *>,void *> > >
  00008	cc		 int	 3
  00009	cc		 int	 3
  0000a	cc		 int	 3
  0000b	cc		 int	 3
  0000c	cc		 int	 3
__ehhandler$?playerRegisterEmotionIcon@@YAPAU_object@@PAU1@0@Z:
  0000d	90		 npad	 1
  0000e	90		 npad	 1
  0000f	8b 54 24 08	 mov	 edx, DWORD PTR [esp+8]
  00013	8d 42 0c	 lea	 eax, DWORD PTR [edx+12]
  00016	8b 4a c8	 mov	 ecx, DWORD PTR [edx-56]
  00019	33 c8		 xor	 ecx, eax
  0001b	e8 00 00 00 00	 call	 @__security_check_cookie@4
  00020	b8 00 00 00 00	 mov	 eax, OFFSET __ehfuncinfo$?playerRegisterEmotionIcon@@YAPAU_object@@PAU1@0@Z
  00025	e9 00 00 00 00	 jmp	 ___CxxFrameHandler3
text$x	ENDS
?playerRegisterEmotionIcon@@YAPAU_object@@PAU1@0@Z ENDP	; playerRegisterEmotionIcon
; Function compile flags: /Ogtp
; File D:\_m2work\txoko-m2-work\txoko-client-src\source\UserInterface\PythonPlayerModule.cpp
; File C:\Program Files\Microsoft Visual Studio\2022\Community\VC\Tools\MSVC\14.44.35207\include\xtree
; File C:\Program Files\Microsoft Visual Studio\2022\Community\VC\Tools\MSVC\14.44.35207\include\type_traits
; File C:\Program Files\Microsoft Visual Studio\2022\Community\VC\Tools\MSVC\14.44.35207\include\xtree
; File D:\_m2work\txoko-m2-work\txoko-client-src\source\UserInterface\PythonPlayerModule.cpp
;	COMDAT ?playerGetEmotionIconImage@@YAPAU_object@@PAU1@0@Z
_TEXT	SEGMENT
__Loc$1 = -16						; size = 12
_iIndex$ = -4						; size = 4
_poSelf$ = 8						; size = 4
_poArgs$ = 12						; size = 4
?playerGetEmotionIconImage@@YAPAU_object@@PAU1@0@Z PROC	; playerGetEmotionIconImage, COMDAT

; 1923 : {

  00000	55		 push	 ebp
  00001	8b ec		 mov	 ebp, esp
  00003	83 ec 10	 sub	 esp, 16			; 00000010H

; 1924 : 	int iIndex;
; 1925 : 	if (!PyTuple_GetInteger(poArgs, 0, &iIndex))

  00006	8d 45 fc	 lea	 eax, DWORD PTR _iIndex$[ebp]
  00009	50		 push	 eax
  0000a	6a 00		 push	 0
  0000c	ff 75 0c	 push	 DWORD PTR _poArgs$[ebp]
  0000f	e8 00 00 00 00	 call	 ?PyTuple_GetInteger@@YA_NPAU_object@@HPAH@Z ; PyTuple_GetInteger
  00014	83 c4 0c	 add	 esp, 12			; 0000000cH
  00017	84 c0		 test	 al, al
  00019	75 0e		 jne	 SHORT $LN2@playerGetE

; 1926 : 		return Py_BuildException();

  0001b	6a 00		 push	 0
  0001d	e8 00 00 00 00	 call	 ?Py_BuildException@@YAPAU_object@@PBDZZ ; Py_BuildException
  00022	83 c4 04	 add	 esp, 4

; 1932 : }

  00025	8b e5		 mov	 esp, ebp
  00027	5d		 pop	 ebp
  00028	c3		 ret	 0
$LN2@playerGetE:
; File C:\Program Files\Microsoft Visual Studio\2022\Community\VC\Tools\MSVC\14.44.35207\include\xtree

; 1384 :         const _Tree_find_result<_Nodeptr> _Loc = _Find_lower_bound(_Keyval);

  00029	8d 45 fc	 lea	 eax, DWORD PTR _iIndex$[ebp]
  0002c	50		 push	 eax
  0002d	8d 45 f0	 lea	 eax, DWORD PTR __Loc$1[ebp]
  00030	50		 push	 eax
  00031	e8 00 00 00 00	 call	 ??$_Find_lower_bound@H@?$_Tree@V?$_Tmap_traits@HPAVCGraphicImage@@U?$less@H@std@@V?$allocator@U?$pair@$$CBHPAVCGraphicImage@@@std@@@3@$0A@@std@@@std@@IBE?AU?$_Tree_find_result@PAU?$_Tree_node@U?$pair@$$CBHPAVCGraphicImage@@@std@@PAX@std@@@1@ABH@Z ; std::_Tree<std::_Tmap_traits<int,CGraphicImage *,std::less<int>,std::allocator<std::pair<int const ,CGraphicImage *> >,0> >::_Find_lower_bound<int>

; 1624 :         return !_Bound->_Isnil && !_DEBUG_LT_PRED(_Getcomp(), _Keyval, _Traits::_Kfn(_Bound->_Myval));

  00036	8b 4d f8	 mov	 ecx, DWORD PTR __Loc$1[ebp+8]
  00039	80 79 0d 00	 cmp	 BYTE PTR [ecx+13], 0
  0003d	75 2d		 jne	 SHORT $LN153@playerGetE
; File C:\Program Files\Microsoft Visual Studio\2022\Community\VC\Tools\MSVC\14.44.35207\include\type_traits

; 2380 :         return _Left < _Right;

  0003f	8b 45 fc	 mov	 eax, DWORD PTR _iIndex$[ebp]
  00042	3b 41 10	 cmp	 eax, DWORD PTR [ecx+16]
; File C:\Program Files\Microsoft Visual Studio\2022\Community\VC\Tools\MSVC\14.44.35207\include\xtree

; 1624 :         return !_Bound->_Isnil && !_DEBUG_LT_PRED(_Getcomp(), _Keyval, _Traits::_Kfn(_Bound->_Myval));

  00045	7c 25		 jl	 SHORT $LN153@playerGetE

; 232  :         return this->_Ptr == _Right._Ptr;

  00047	39 0d 00 00 00
	00		 cmp	 DWORD PTR ?m_kMap_iEmotionIndex_pkIconImage@@3V?$map@HPAVCGraphicImage@@U?$less@H@std@@V?$allocator@U?$pair@$$CBHPAVCGraphicImage@@@std@@@3@@std@@A, ecx
; File D:\_m2work\txoko-m2-work\txoko-client-src\source\UserInterface\PythonPlayerModule.cpp

; 1928 : 	if (m_kMap_iEmotionIndex_pkIconImage.end() == m_kMap_iEmotionIndex_pkIconImage.find(iIndex))

  0004d	74 1d		 je	 SHORT $LN153@playerGetE

; 1930 : 
; 1931 : 	return Py_BuildValue("i", m_kMap_iEmotionIndex_pkIconImage[iIndex]);

  0004f	8d 45 fc	 lea	 eax, DWORD PTR _iIndex$[ebp]
  00052	50		 push	 eax
  00053	e8 00 00 00 00	 call	 ??A?$map@HPAVCGraphicImage@@U?$less@H@std@@V?$allocator@U?$pair@$$CBHPAVCGraphicImage@@@std@@@3@@std@@QAEAAPAVCGraphicImage@@ABH@Z ; std::map<int,CGraphicImage *,std::less<int>,std::allocator<std::pair<int const ,CGraphicImage *> > >::operator[]
  00058	ff 30		 push	 DWORD PTR [eax]

; 1932 : }

  0005a	68 00 00 00 00	 push	 OFFSET ??_C@_01KBJDNOO@i@
  0005f	ff 15 00 00 00
	00		 call	 DWORD PTR __imp__Py_BuildValue
  00065	83 c4 08	 add	 esp, 8
  00068	8b e5		 mov	 esp, ebp
  0006a	5d		 pop	 ebp
  0006b	c3		 ret	 0
$LN153@playerGetE:

; 1929 : 		return Py_BuildValue("i", 0);

  0006c	6a 00		 push	 0

; 1932 : }

  0006e	68 00 00 00 00	 push	 OFFSET ??_C@_01KBJDNOO@i@
  00073	ff 15 00 00 00
	00		 call	 DWORD PTR __imp__Py_BuildValue
  00079	83 c4 08	 add	 esp, 8
  0007c	8b e5		 mov	 esp, ebp
  0007e	5d		 pop	 ebp
  0007f	c3		 ret	 0
?playerGetEmotionIconImage@@YAPAU_object@@PAU1@0@Z ENDP	; playerGetEmotionIconImage
_TEXT	ENDS
; Function compile flags: /Ogtp
; File D:\_m2work\txoko-m2-work\txoko-client-src\source\UserInterface\PythonPlayerModule.cpp
;	COMDAT ?playerSetItemData@@YAPAU_object@@PAU1@0@Z
_TEXT	SEGMENT
_iSlotIndex$ = -68					; size = 4
_iNum$ = -64						; size = 4
_iVirtualID$ = -60					; size = 4
$T1 = -56						; size = 3
_kItemInst$ = -52					; size = 46
__$ArrayPad$ = -4					; size = 4
_poSelf$ = 8						; size = 4
_poArgs$ = 12						; size = 4
?playerSetItemData@@YAPAU_object@@PAU1@0@Z PROC		; playerSetItemData, COMDAT

; 1935 : {

  00000	55		 push	 ebp
  00001	8b ec		 mov	 ebp, esp
  00003	83 ec 44	 sub	 esp, 68			; 00000044H
  00006	a1 00 00 00 00	 mov	 eax, DWORD PTR ___security_cookie
  0000b	33 c5		 xor	 eax, ebp
  0000d	89 45 fc	 mov	 DWORD PTR __$ArrayPad$[ebp], eax
  00010	56		 push	 esi
  00011	8b 75 0c	 mov	 esi, DWORD PTR _poArgs$[ebp]

; 1936 : 	int iSlotIndex;
; 1937 : 	if (!PyTuple_GetInteger(poArgs, 0, &iSlotIndex))

  00014	8d 45 bc	 lea	 eax, DWORD PTR _iSlotIndex$[ebp]
  00017	50		 push	 eax
  00018	6a 00		 push	 0
  0001a	56		 push	 esi
  0001b	e8 00 00 00 00	 call	 ?PyTuple_GetInteger@@YA_NPAU_object@@HPAH@Z ; PyTuple_GetInteger
  00020	83 c4 0c	 add	 esp, 12			; 0000000cH
  00023	84 c0		 test	 al, al
  00025	75 19		 jne	 SHORT $LN2@playerSetI
$LN11@playerSetI:

; 1954 : }

  00027	6a 00		 push	 0
  00029	e8 00 00 00 00	 call	 ?Py_BuildException@@YAPAU_object@@PBDZZ ; Py_BuildException
  0002e	83 c4 04	 add	 esp, 4
  00031	5e		 pop	 esi
  00032	8b 4d fc	 mov	 ecx, DWORD PTR __$ArrayPad$[ebp]
  00035	33 cd		 xor	 ecx, ebp
  00037	e8 00 00 00 00	 call	 @__security_check_cookie@4
  0003c	8b e5		 mov	 esp, ebp
  0003e	5d		 pop	 ebp
  0003f	c3		 ret	 0
$LN2@playerSetI:

; 1938 : 		return Py_BuildException();
; 1939 : 
; 1940 : 	int iVirtualID;
; 1941 : 	if (!PyTuple_GetInteger(poArgs, 1, &iVirtualID))

  00040	8d 45 c4	 lea	 eax, DWORD PTR _iVirtualID$[ebp]
  00043	50		 push	 eax
  00044	6a 01		 push	 1
  00046	56		 push	 esi
  00047	e8 00 00 00 00	 call	 ?PyTuple_GetInteger@@YA_NPAU_object@@HPAH@Z ; PyTuple_GetInteger
  0004c	83 c4 0c	 add	 esp, 12			; 0000000cH
  0004f	84 c0		 test	 al, al
  00051	74 d4		 je	 SHORT $LN11@playerSetI

; 1942 : 		return Py_BuildException();
; 1943 : 
; 1944 : 	int iNum;
; 1945 : 	if (!PyTuple_GetInteger(poArgs, 2, &iNum))

  00053	8d 45 c0	 lea	 eax, DWORD PTR _iNum$[ebp]
  00056	50		 push	 eax
  00057	6a 02		 push	 2
  00059	56		 push	 esi
  0005a	e8 00 00 00 00	 call	 ?PyTuple_GetInteger@@YA_NPAU_object@@HPAH@Z ; PyTuple_GetInteger
  0005f	83 c4 0c	 add	 esp, 12			; 0000000cH
  00062	84 c0		 test	 al, al
  00064	74 c1		 je	 SHORT $LN11@playerSetI

; 1946 : 		return Py_BuildException();
; 1947 : 
; 1948 : 	TItemData kItemInst;
; 1949 : 	ZeroMemory(&kItemInst, sizeof(kItemInst));
; 1950 : 	kItemInst.vnum=iVirtualID;

  00066	8b 45 c4	 mov	 eax, DWORD PTR _iVirtualID$[ebp]
  00069	0f 57 c0	 xorps	 xmm0, xmm0

; 1951 : 	kItemInst.count=iNum;
; 1952 : 	CPythonPlayer::Instance().SetItemData(TItemPos(INVENTORY, iSlotIndex), kItemInst);

  0006c	8b 0d 00 00 00
	00		 mov	 ecx, DWORD PTR ?ms_singleton@?$CSingleton@VCPythonPlayer@@@@0PAVCPythonPlayer@@A ; CSingleton<CPythonPlayer>::ms_singleton
  00072	89 45 cc	 mov	 DWORD PTR _kItemInst$[ebp], eax
  00075	83 c1 04	 add	 ecx, 4
  00078	8a 45 c0	 mov	 al, BYTE PTR _iNum$[ebp]
  0007b	88 45 d0	 mov	 BYTE PTR _kItemInst$[ebp+4], al
  0007e	0f b7 45 bc	 movzx	 eax, WORD PTR _iSlotIndex$[ebp]
  00082	66 89 45 c9	 mov	 WORD PTR $T1[ebp+1], ax
  00086	8d 45 cc	 lea	 eax, DWORD PTR _kItemInst$[ebp]
  00089	50		 push	 eax
  0008a	51		 push	 ecx
  0008b	8b d4		 mov	 edx, esp
  0008d	66 0f 13 45 d1	 movlpd	 QWORD PTR _kItemInst$[ebp+5], xmm0
  00092	66 0f 13 45 d9	 movlpd	 QWORD PTR _kItemInst$[ebp+13], xmm0
  00097	66 0f 13 45 e1	 movlpd	 QWORD PTR _kItemInst$[ebp+21], xmm0
  0009c	66 0f 13 45 e9	 movlpd	 QWORD PTR _kItemInst$[ebp+29], xmm0
  000a1	66 0f 13 45 f1	 movlpd	 QWORD PTR _kItemInst$[ebp+37], xmm0
  000a6	c6 45 f9 00	 mov	 BYTE PTR _kItemInst$[ebp+45], 0
  000aa	8b 31		 mov	 esi, DWORD PTR [ecx]
  000ac	c6 45 c8 01	 mov	 BYTE PTR $T1[ebp], 1
  000b0	0f b7 45 c8	 movzx	 eax, WORD PTR $T1[ebp]
  000b4	66 89 02	 mov	 WORD PTR [edx], ax
  000b7	8a 45 ca	 mov	 al, BYTE PTR $T1[ebp+2]
  000ba	88 42 02	 mov	 BYTE PTR [edx+2], al
  000bd	ff 56 30	 call	 DWORD PTR [esi+48]

; 1953 : 	return Py_BuildNone();

  000c0	e8 00 00 00 00	 call	 ?Py_BuildNone@@YAPAU_object@@XZ ; Py_BuildNone

; 1954 : }

  000c5	8b 4d fc	 mov	 ecx, DWORD PTR __$ArrayPad$[ebp]
  000c8	33 cd		 xor	 ecx, ebp
  000ca	5e		 pop	 esi
  000cb	e8 00 00 00 00	 call	 @__security_check_cookie@4
  000d0	8b e5		 mov	 esp, ebp
  000d2	5d		 pop	 ebp
  000d3	c3		 ret	 0
?playerSetItemData@@YAPAU_object@@PAU1@0@Z ENDP		; playerSetItemData
_TEXT	ENDS
; Function compile flags: /Ogtp
; File D:\_m2work\txoko-m2-work\txoko-client-src\source\UserInterface\PythonPlayerModule.cpp
; File D:\_m2work\txoko-m2-work\txoko-client-src\source\UserInterface\GameType.h
; File D:\_m2work\txoko-m2-work\txoko-client-src\source\UserInterface\PythonPlayerModule.cpp
; File D:\_m2work\txoko-m2-work\txoko-client-src\source\UserInterface\GameType.h
; File D:\_m2work\txoko-m2-work\txoko-client-src\source\UserInterface\PythonPlayerModule.cpp
;	COMDAT ?playerSetItemMetinSocket@@YAPAU_object@@PAU1@0@Z
_TEXT	SEGMENT
_iMetinSocketNumber$ = -12				; size = 4
_iNum$ = -8						; size = 4
_ItemPos$ = -4						; size = 3
_poSelf$ = 8						; size = 4
_poArgs$ = 12						; size = 4
?playerSetItemMetinSocket@@YAPAU_object@@PAU1@0@Z PROC	; playerSetItemMetinSocket, COMDAT

; 1957 : {

  00000	55		 push	 ebp
  00001	8b ec		 mov	 ebp, esp
  00003	83 ec 0c	 sub	 esp, 12			; 0000000cH
  00006	56		 push	 esi

; 1962 : 	switch (PyTuple_Size(poArgs))

  00007	8b 75 0c	 mov	 esi, DWORD PTR _poArgs$[ebp]
; File D:\_m2work\txoko-m2-work\txoko-client-src\source\UserInterface\GameType.h

; 187  : 		cell = WORD_MAX;

  0000a	b8 ff ff 00 00	 mov	 eax, 65535		; 0000ffffH
; File D:\_m2work\txoko-m2-work\txoko-client-src\source\UserInterface\PythonPlayerModule.cpp

; 1962 : 	switch (PyTuple_Size(poArgs))

  0000f	56		 push	 esi
; File D:\_m2work\txoko-m2-work\txoko-client-src\source\UserInterface\GameType.h

; 186  : 		window_type =     INVENTORY;

  00010	c6 45 fc 01	 mov	 BYTE PTR _ItemPos$[ebp], 1

; 187  : 		cell = WORD_MAX;

  00014	66 89 45 fd	 mov	 WORD PTR _ItemPos$[ebp+1], ax
; File D:\_m2work\txoko-m2-work\txoko-client-src\source\UserInterface\PythonPlayerModule.cpp

; 1962 : 	switch (PyTuple_Size(poArgs))

  00018	ff 15 00 00 00
	00		 call	 DWORD PTR __imp__PyTuple_Size
  0001e	83 c4 04	 add	 esp, 4
  00021	83 e8 03	 sub	 eax, 3
  00024	74 60		 je	 SHORT $LN4@playerSetI
  00026	83 e8 01	 sub	 eax, 1
  00029	75 4c		 jne	 SHORT $LN26@playerSetI

; 1972 : 			return Py_BuildException();
; 1973 : 
; 1974 : 		break;
; 1975 : 	case 4:
; 1976 : 		if (!PyTuple_GetInteger(poArgs, 0, &ItemPos.window_type))

  0002b	8d 45 fc	 lea	 eax, DWORD PTR _ItemPos$[ebp]
  0002e	50		 push	 eax
  0002f	6a 00		 push	 0
  00031	56		 push	 esi
  00032	e8 00 00 00 00	 call	 ?PyTuple_GetInteger@@YA_NPAU_object@@HPAE@Z ; PyTuple_GetInteger
  00037	83 c4 0c	 add	 esp, 12			; 0000000cH
  0003a	84 c0		 test	 al, al
  0003c	74 39		 je	 SHORT $LN26@playerSetI

; 1977 : 			return Py_BuildException();
; 1978 : 		if (!PyTuple_GetInteger(poArgs, 1, &ItemPos.cell))

  0003e	8d 45 fd	 lea	 eax, DWORD PTR _ItemPos$[ebp+1]
  00041	50		 push	 eax
  00042	6a 01		 push	 1
  00044	56		 push	 esi
  00045	e8 00 00 00 00	 call	 ?PyTuple_GetInteger@@YA_NPAU_object@@HPAG@Z ; PyTuple_GetInteger
  0004a	83 c4 0c	 add	 esp, 12			; 0000000cH
  0004d	84 c0		 test	 al, al
  0004f	74 26		 je	 SHORT $LN26@playerSetI

; 1979 : 			return Py_BuildException();
; 1980 : 		if (!PyTuple_GetInteger(poArgs, 2, &iMetinSocketNumber))

  00051	8d 45 f4	 lea	 eax, DWORD PTR _iMetinSocketNumber$[ebp]
  00054	50		 push	 eax
  00055	6a 02		 push	 2
  00057	56		 push	 esi
  00058	e8 00 00 00 00	 call	 ?PyTuple_GetInteger@@YA_NPAU_object@@HPAH@Z ; PyTuple_GetInteger
  0005d	83 c4 0c	 add	 esp, 12			; 0000000cH
  00060	84 c0		 test	 al, al
  00062	74 13		 je	 SHORT $LN26@playerSetI

; 1981 : 			return Py_BuildException();
; 1982 : 		if (!PyTuple_GetInteger(poArgs, 3, &iNum))

  00064	8d 45 f8	 lea	 eax, DWORD PTR _iNum$[ebp]
  00067	50		 push	 eax
  00068	6a 03		 push	 3
  0006a	56		 push	 esi
  0006b	e8 00 00 00 00	 call	 ?PyTuple_GetInteger@@YA_NPAU_object@@HPAH@Z ; PyTuple_GetInteger
  00070	83 c4 0c	 add	 esp, 12			; 0000000cH
  00073	84 c0		 test	 al, al
  00075	75 48		 jne	 SHORT $LN7@playerSetI
$LN26@playerSetI:

; 1992 : }

  00077	6a 00		 push	 0
  00079	e8 00 00 00 00	 call	 ?Py_BuildException@@YAPAU_object@@PBDZZ ; Py_BuildException
  0007e	83 c4 04	 add	 esp, 4
  00081	5e		 pop	 esi
  00082	8b e5		 mov	 esp, ebp
  00084	5d		 pop	 ebp
  00085	c3		 ret	 0
$LN4@playerSetI:

; 1963 : 	{
; 1964 : 	case 3:
; 1965 : 		if (!PyTuple_GetInteger(poArgs, 0, &ItemPos.cell))

  00086	8d 45 fd	 lea	 eax, DWORD PTR _ItemPos$[ebp+1]
  00089	50		 push	 eax
  0008a	6a 00		 push	 0
  0008c	56		 push	 esi
  0008d	e8 00 00 00 00	 call	 ?PyTuple_GetInteger@@YA_NPAU_object@@HPAG@Z ; PyTuple_GetInteger
  00092	83 c4 0c	 add	 esp, 12			; 0000000cH
  00095	84 c0		 test	 al, al
  00097	74 de		 je	 SHORT $LN26@playerSetI

; 1966 : 			return Py_BuildException();
; 1967 : 
; 1968 : 		if (!PyTuple_GetInteger(poArgs, 1, &iMetinSocketNumber))

  00099	8d 45 f4	 lea	 eax, DWORD PTR _iMetinSocketNumber$[ebp]
  0009c	50		 push	 eax
  0009d	6a 01		 push	 1
  0009f	56		 push	 esi
  000a0	e8 00 00 00 00	 call	 ?PyTuple_GetInteger@@YA_NPAU_object@@HPAH@Z ; PyTuple_GetInteger
  000a5	83 c4 0c	 add	 esp, 12			; 0000000cH
  000a8	84 c0		 test	 al, al
  000aa	74 cb		 je	 SHORT $LN26@playerSetI

; 1969 : 			return Py_BuildException();
; 1970 : 
; 1971 : 		if (!PyTuple_GetInteger(poArgs, 2, &iNum))

  000ac	8d 45 f8	 lea	 eax, DWORD PTR _iNum$[ebp]
  000af	50		 push	 eax
  000b0	6a 02		 push	 2
  000b2	56		 push	 esi
  000b3	e8 00 00 00 00	 call	 ?PyTuple_GetInteger@@YA_NPAU_object@@HPAH@Z ; PyTuple_GetInteger
  000b8	83 c4 0c	 add	 esp, 12			; 0000000cH
  000bb	84 c0		 test	 al, al
  000bd	74 b8		 je	 SHORT $LN26@playerSetI
$LN7@playerSetI:

; 1983 : 			return Py_BuildException();
; 1984 : 
; 1985 : 		break;
; 1986 : 	default:
; 1987 : 		return Py_BuildException();
; 1988 : 	}
; 1989 : 
; 1990 : 	CPythonPlayer::Instance().SetItemMetinSocket(ItemPos, iMetinSocketNumber, iNum);

  000bf	ff 75 f8	 push	 DWORD PTR _iNum$[ebp]
  000c2	8b 0d 00 00 00
	00		 mov	 ecx, DWORD PTR ?ms_singleton@?$CSingleton@VCPythonPlayer@@@@0PAVCPythonPlayer@@A ; CSingleton<CPythonPlayer>::ms_singleton
  000c8	ff 75 f4	 push	 DWORD PTR _iMetinSocketNumber$[ebp]
  000cb	66 8b 45 fc	 mov	 ax, WORD PTR _ItemPos$[ebp]
  000cf	83 c1 04	 add	 ecx, 4
  000d2	51		 push	 ecx
  000d3	8b d4		 mov	 edx, esp
  000d5	8b 31		 mov	 esi, DWORD PTR [ecx]
  000d7	66 89 02	 mov	 WORD PTR [edx], ax
  000da	8a 45 fe	 mov	 al, BYTE PTR _ItemPos$[ebp+2]
  000dd	88 42 02	 mov	 BYTE PTR [edx+2], al
  000e0	ff 56 38	 call	 DWORD PTR [esi+56]

; 1991 : 	return Py_BuildNone();

  000e3	e8 00 00 00 00	 call	 ?Py_BuildNone@@YAPAU_object@@XZ ; Py_BuildNone

; 1992 : }

  000e8	5e		 pop	 esi
  000e9	8b e5		 mov	 esp, ebp
  000eb	5d		 pop	 ebp
  000ec	c3		 ret	 0
?playerSetItemMetinSocket@@YAPAU_object@@PAU1@0@Z ENDP	; playerSetItemMetinSocket
_TEXT	ENDS
; Function compile flags: /Ogtp
; File D:\_m2work\txoko-m2-work\txoko-client-src\source\UserInterface\PythonPlayerModule.cpp
; File D:\_m2work\txoko-m2-work\txoko-client-src\source\UserInterface\GameType.h
; File D:\_m2work\txoko-m2-work\txoko-client-src\source\UserInterface\PythonPlayerModule.cpp
; File D:\_m2work\txoko-m2-work\txoko-client-src\source\UserInterface\GameType.h
; File D:\_m2work\txoko-m2-work\txoko-client-src\source\UserInterface\PythonPlayerModule.cpp
;	COMDAT ?playerSetItemAttribute@@YAPAU_object@@PAU1@0@Z
_TEXT	SEGMENT
_iAttributeSlotIndex$ = -16				; size = 4
_iAttributeType$ = -12					; size = 4
_iAttributeValue$ = -8					; size = 4
_ItemPos$ = -4						; size = 3
_poSelf$ = 8						; size = 4
_poArgs$ = 12						; size = 4
?playerSetItemAttribute@@YAPAU_object@@PAU1@0@Z PROC	; playerSetItemAttribute, COMDAT

; 1995 : {

  00000	55		 push	 ebp
  00001	8b ec		 mov	 ebp, esp
  00003	83 ec 10	 sub	 esp, 16			; 00000010H
  00006	56		 push	 esi

; 2001 : 	switch (PyTuple_Size(poArgs))

  00007	8b 75 0c	 mov	 esi, DWORD PTR _poArgs$[ebp]
; File D:\_m2work\txoko-m2-work\txoko-client-src\source\UserInterface\GameType.h

; 187  : 		cell = WORD_MAX;

  0000a	b8 ff ff 00 00	 mov	 eax, 65535		; 0000ffffH
; File D:\_m2work\txoko-m2-work\txoko-client-src\source\UserInterface\PythonPlayerModule.cpp

; 2001 : 	switch (PyTuple_Size(poArgs))

  0000f	56		 push	 esi
; File D:\_m2work\txoko-m2-work\txoko-client-src\source\UserInterface\GameType.h

; 186  : 		window_type =     INVENTORY;

  00010	c6 45 fc 01	 mov	 BYTE PTR _ItemPos$[ebp], 1

; 187  : 		cell = WORD_MAX;

  00014	66 89 45 fd	 mov	 WORD PTR _ItemPos$[ebp+1], ax
; File D:\_m2work\txoko-m2-work\txoko-client-src\source\UserInterface\PythonPlayerModule.cpp

; 2001 : 	switch (PyTuple_Size(poArgs))

  00018	ff 15 00 00 00
	00		 call	 DWORD PTR __imp__PyTuple_Size
  0001e	83 c4 04	 add	 esp, 4
  00021	83 e8 04	 sub	 eax, 4
  00024	74 77		 je	 SHORT $LN4@playerSetI
  00026	83 e8 01	 sub	 eax, 1
  00029	0f 85 ba 00 00
	00		 jne	 $LN8@playerSetI

; 2014 : 			return Py_BuildException();
; 2015 : 		break;
; 2016 : 	case 5:
; 2017 : 		if (!PyTuple_GetInteger(poArgs, 0, &ItemPos.window_type))

  0002f	8d 45 fc	 lea	 eax, DWORD PTR _ItemPos$[ebp]
  00032	50		 push	 eax
  00033	6a 00		 push	 0
  00035	56		 push	 esi
  00036	e8 00 00 00 00	 call	 ?PyTuple_GetInteger@@YA_NPAU_object@@HPAE@Z ; PyTuple_GetInteger
  0003b	83 c4 0c	 add	 esp, 12			; 0000000cH
  0003e	84 c0		 test	 al, al
  00040	74 4c		 je	 SHORT $LN29@playerSetI

; 2018 : 			return Py_BuildException();
; 2019 : 
; 2020 : 		if (!PyTuple_GetInteger(poArgs, 1, &ItemPos.cell))

  00042	8d 45 fd	 lea	 eax, DWORD PTR _ItemPos$[ebp+1]
  00045	50		 push	 eax
  00046	6a 01		 push	 1
  00048	56		 push	 esi
  00049	e8 00 00 00 00	 call	 ?PyTuple_GetInteger@@YA_NPAU_object@@HPAG@Z ; PyTuple_GetInteger
  0004e	83 c4 0c	 add	 esp, 12			; 0000000cH
  00051	84 c0		 test	 al, al
  00053	74 39		 je	 SHORT $LN29@playerSetI

; 2021 : 			return Py_BuildException();
; 2022 : 
; 2023 : 		if (!PyTuple_GetInteger(poArgs, 2, &iAttributeSlotIndex))

  00055	8d 45 f0	 lea	 eax, DWORD PTR _iAttributeSlotIndex$[ebp]
  00058	50		 push	 eax
  00059	6a 02		 push	 2
  0005b	56		 push	 esi
  0005c	e8 00 00 00 00	 call	 ?PyTuple_GetInteger@@YA_NPAU_object@@HPAH@Z ; PyTuple_GetInteger
  00061	83 c4 0c	 add	 esp, 12			; 0000000cH
  00064	84 c0		 test	 al, al
  00066	74 26		 je	 SHORT $LN29@playerSetI

; 2024 : 			return Py_BuildException();
; 2025 : 
; 2026 : 		if (!PyTuple_GetInteger(poArgs, 3, &iAttributeType))

  00068	8d 45 f4	 lea	 eax, DWORD PTR _iAttributeType$[ebp]
  0006b	50		 push	 eax
  0006c	6a 03		 push	 3
  0006e	56		 push	 esi
  0006f	e8 00 00 00 00	 call	 ?PyTuple_GetInteger@@YA_NPAU_object@@HPAH@Z ; PyTuple_GetInteger
  00074	83 c4 0c	 add	 esp, 12			; 0000000cH
  00077	84 c0		 test	 al, al
  00079	74 13		 je	 SHORT $LN29@playerSetI

; 2027 : 			return Py_BuildException();
; 2028 : 
; 2029 : 		if (!PyTuple_GetInteger(poArgs, 4, &iAttributeValue))

  0007b	8d 45 f8	 lea	 eax, DWORD PTR _iAttributeValue$[ebp]
  0007e	50		 push	 eax
  0007f	6a 04		 push	 4
  00081	56		 push	 esi
  00082	e8 00 00 00 00	 call	 ?PyTuple_GetInteger@@YA_NPAU_object@@HPAH@Z ; PyTuple_GetInteger
  00087	83 c4 0c	 add	 esp, 12			; 0000000cH
  0008a	84 c0		 test	 al, al
  0008c	75 5b		 jne	 SHORT $LN8@playerSetI
$LN29@playerSetI:

; 2035 : }

  0008e	6a 00		 push	 0
  00090	e8 00 00 00 00	 call	 ?Py_BuildException@@YAPAU_object@@PBDZZ ; Py_BuildException
  00095	83 c4 04	 add	 esp, 4
  00098	5e		 pop	 esi
  00099	8b e5		 mov	 esp, ebp
  0009b	5d		 pop	 ebp
  0009c	c3		 ret	 0
$LN4@playerSetI:

; 2002 : 	{
; 2003 : 	case 4:
; 2004 : 		if (!PyTuple_GetInteger(poArgs, 0, &ItemPos.cell))

  0009d	8d 45 fd	 lea	 eax, DWORD PTR _ItemPos$[ebp+1]
  000a0	50		 push	 eax
  000a1	6a 00		 push	 0
  000a3	56		 push	 esi
  000a4	e8 00 00 00 00	 call	 ?PyTuple_GetInteger@@YA_NPAU_object@@HPAG@Z ; PyTuple_GetInteger
  000a9	83 c4 0c	 add	 esp, 12			; 0000000cH
  000ac	84 c0		 test	 al, al
  000ae	74 de		 je	 SHORT $LN29@playerSetI

; 2005 : 			return Py_BuildException();
; 2006 : 
; 2007 : 		if (!PyTuple_GetInteger(poArgs, 1, &iAttributeSlotIndex))

  000b0	8d 45 f0	 lea	 eax, DWORD PTR _iAttributeSlotIndex$[ebp]
  000b3	50		 push	 eax
  000b4	6a 01		 push	 1
  000b6	56		 push	 esi
  000b7	e8 00 00 00 00	 call	 ?PyTuple_GetInteger@@YA_NPAU_object@@HPAH@Z ; PyTuple_GetInteger
  000bc	83 c4 0c	 add	 esp, 12			; 0000000cH
  000bf	84 c0		 test	 al, al
  000c1	74 cb		 je	 SHORT $LN29@playerSetI

; 2008 : 			return Py_BuildException();
; 2009 : 
; 2010 : 		if (!PyTuple_GetInteger(poArgs, 2, &iAttributeType))

  000c3	8d 45 f4	 lea	 eax, DWORD PTR _iAttributeType$[ebp]
  000c6	50		 push	 eax
  000c7	6a 02		 push	 2
  000c9	56		 push	 esi
  000ca	e8 00 00 00 00	 call	 ?PyTuple_GetInteger@@YA_NPAU_object@@HPAH@Z ; PyTuple_GetInteger
  000cf	83 c4 0c	 add	 esp, 12			; 0000000cH
  000d2	84 c0		 test	 al, al
  000d4	74 b8		 je	 SHORT $LN29@playerSetI

; 2011 : 			return Py_BuildException();
; 2012 : 
; 2013 : 		if (!PyTuple_GetInteger(poArgs, 3, &iAttributeValue))

  000d6	8d 45 f8	 lea	 eax, DWORD PTR _iAttributeValue$[ebp]
  000d9	50		 push	 eax
  000da	6a 03		 push	 3
  000dc	56		 push	 esi
  000dd	e8 00 00 00 00	 call	 ?PyTuple_GetInteger@@YA_NPAU_object@@HPAH@Z ; PyTuple_GetInteger
  000e2	83 c4 0c	 add	 esp, 12			; 0000000cH
  000e5	84 c0		 test	 al, al
  000e7	74 a5		 je	 SHORT $LN29@playerSetI
$LN8@playerSetI:

; 2030 : 			return Py_BuildException();
; 2031 : 		break;
; 2032 : 	}
; 2033 : 	CPythonPlayer::Instance().SetItemAttribute(ItemPos, iAttributeSlotIndex, iAttributeType, iAttributeValue);

  000e9	ff 75 f8	 push	 DWORD PTR _iAttributeValue$[ebp]
  000ec	8b 0d 00 00 00
	00		 mov	 ecx, DWORD PTR ?ms_singleton@?$CSingleton@VCPythonPlayer@@@@0PAVCPythonPlayer@@A ; CSingleton<CPythonPlayer>::ms_singleton
  000f2	ff 75 f4	 push	 DWORD PTR _iAttributeType$[ebp]
  000f5	66 8b 45 fc	 mov	 ax, WORD PTR _ItemPos$[ebp]
  000f9	83 c1 04	 add	 ecx, 4
  000fc	ff 75 f0	 push	 DWORD PTR _iAttributeSlotIndex$[ebp]
  000ff	51		 push	 ecx
  00100	8b 31		 mov	 esi, DWORD PTR [ecx]
  00102	8b d4		 mov	 edx, esp
  00104	66 89 02	 mov	 WORD PTR [edx], ax
  00107	8a 45 fe	 mov	 al, BYTE PTR _ItemPos$[ebp+2]
  0010a	88 42 02	 mov	 BYTE PTR [edx+2], al
  0010d	ff 56 3c	 call	 DWORD PTR [esi+60]

; 2034 : 	return Py_BuildNone();

  00110	e8 00 00 00 00	 call	 ?Py_BuildNone@@YAPAU_object@@XZ ; Py_BuildNone

; 2035 : }

  00115	5e		 pop	 esi
  00116	8b e5		 mov	 esp, ebp
  00118	5d		 pop	 ebp
  00119	c3		 ret	 0
?playerSetItemAttribute@@YAPAU_object@@PAU1@0@Z ENDP	; playerSetItemAttribute
_TEXT	ENDS
; Function compile flags: /Ogtp
; File D:\_m2work\txoko-m2-work\txoko-client-src\source\UserInterface\PythonPlayerModule.cpp
; File D:\_m2work\txoko-m2-work\txoko-client-src\source\UserInterface\PythonPlayer.h
; File D:\_m2work\txoko-m2-work\txoko-client-src\source\UserInterface\PythonPlayerModule.cpp
;	COMDAT ?playerSetAutoPotionInfo@@YAPAU_object@@PAU1@0@Z
_TEXT	SEGMENT
_potionType$ = -4					; size = 4
_poSelf$ = 8						; size = 4
_poArgs$ = 12						; size = 4
?playerSetAutoPotionInfo@@YAPAU_object@@PAU1@0@Z PROC	; playerSetAutoPotionInfo, COMDAT

; 2038 : {

  00000	55		 push	 ebp
  00001	8b ec		 mov	 ebp, esp
  00003	51		 push	 ecx
  00004	56		 push	 esi

; 2039 : 	int potionType = 0;
; 2040 : 	if (!PyTuple_GetInteger(poArgs, 0, &potionType))

  00005	8b 75 0c	 mov	 esi, DWORD PTR _poArgs$[ebp]
  00008	8d 45 fc	 lea	 eax, DWORD PTR _potionType$[ebp]
  0000b	50		 push	 eax
  0000c	6a 00		 push	 0
  0000e	56		 push	 esi
  0000f	c7 45 fc 00 00
	00 00		 mov	 DWORD PTR _potionType$[ebp], 0
  00016	e8 00 00 00 00	 call	 ?PyTuple_GetInteger@@YA_NPAU_object@@HPAH@Z ; PyTuple_GetInteger
  0001b	83 c4 0c	 add	 esp, 12			; 0000000cH
  0001e	84 c0		 test	 al, al
  00020	75 0a		 jne	 SHORT $LN2@playerSetA

; 2041 : 		return Py_BadArgument();

  00022	e8 00 00 00 00	 call	 ?Py_BadArgument@@YAPAU_object@@XZ ; Py_BadArgument
  00027	5e		 pop	 esi

; 2060 : }

  00028	8b e5		 mov	 esp, ebp
  0002a	5d		 pop	 ebp
  0002b	c3		 ret	 0
$LN2@playerSetA:
; File D:\_m2work\txoko-m2-work\txoko-client-src\source\UserInterface\PythonPlayer.h

; 427  : 		__inline		SAutoPotionInfo& GetAutoPotionInfo(int type)		{ return m_kAutoPotionInfo[type]; }

  0002c	8b 4d fc	 mov	 ecx, DWORD PTR _potionType$[ebp]
  0002f	57		 push	 edi
  00030	8b 3d 00 00 00
	00		 mov	 edi, DWORD PTR ?ms_singleton@?$CSingleton@VCPythonPlayer@@@@0PAVCPythonPlayer@@A ; CSingleton<CPythonPlayer>::ms_singleton
  00036	c1 e1 04	 shl	 ecx, 4
  00039	81 c7 24 08 01
	00		 add	 edi, 67620		; 00010824H
  0003f	03 f9		 add	 edi, ecx
; File D:\_m2work\txoko-m2-work\txoko-client-src\source\UserInterface\PythonPlayerModule.cpp

; 2047 : 	if (!PyTuple_GetBoolean(poArgs, 1, &potionInfo.bActivated))

  00041	57		 push	 edi
  00042	6a 01		 push	 1
  00044	56		 push	 esi
  00045	e8 00 00 00 00	 call	 ?PyTuple_GetBoolean@@YA_NPAU_object@@HPA_N@Z ; PyTuple_GetBoolean
  0004a	83 c4 0c	 add	 esp, 12			; 0000000cH
  0004d	84 c0		 test	 al, al
  0004f	74 39		 je	 SHORT $LN16@playerSetA

; 2048 : 		return Py_BadArgument();
; 2049 : 
; 2050 : 	if (!PyTuple_GetLong(poArgs, 2, &potionInfo.currentAmount))

  00051	8d 47 04	 lea	 eax, DWORD PTR [edi+4]
  00054	50		 push	 eax
  00055	6a 02		 push	 2
  00057	56		 push	 esi
  00058	e8 00 00 00 00	 call	 ?PyTuple_GetLong@@YA_NPAU_object@@HPAJ@Z ; PyTuple_GetLong
  0005d	83 c4 0c	 add	 esp, 12			; 0000000cH
  00060	84 c0		 test	 al, al
  00062	74 26		 je	 SHORT $LN16@playerSetA

; 2051 : 		return Py_BadArgument();
; 2052 : 
; 2053 : 	if (!PyTuple_GetLong(poArgs, 3, &potionInfo.totalAmount))

  00064	8d 47 08	 lea	 eax, DWORD PTR [edi+8]
  00067	50		 push	 eax
  00068	6a 03		 push	 3
  0006a	56		 push	 esi
  0006b	e8 00 00 00 00	 call	 ?PyTuple_GetLong@@YA_NPAU_object@@HPAJ@Z ; PyTuple_GetLong
  00070	83 c4 0c	 add	 esp, 12			; 0000000cH
  00073	84 c0		 test	 al, al
  00075	74 13		 je	 SHORT $LN16@playerSetA

; 2054 : 		return Py_BadArgument();
; 2055 : 
; 2056 : 	if (!PyTuple_GetLong(poArgs, 4, &potionInfo.inventorySlotIndex))

  00077	8d 47 0c	 lea	 eax, DWORD PTR [edi+12]
  0007a	50		 push	 eax
  0007b	6a 04		 push	 4
  0007d	56		 push	 esi
  0007e	e8 00 00 00 00	 call	 ?PyTuple_GetLong@@YA_NPAU_object@@HPAJ@Z ; PyTuple_GetLong
  00083	83 c4 0c	 add	 esp, 12			; 0000000cH
  00086	84 c0		 test	 al, al
  00088	75 0b		 jne	 SHORT $LN6@playerSetA
$LN16@playerSetA:

; 2057 : 		return Py_BadArgument();

  0008a	e8 00 00 00 00	 call	 ?Py_BadArgument@@YAPAU_object@@XZ ; Py_BadArgument
  0008f	5f		 pop	 edi
  00090	5e		 pop	 esi

; 2060 : }

  00091	8b e5		 mov	 esp, ebp
  00093	5d		 pop	 ebp
  00094	c3		 ret	 0
$LN6@playerSetA:

; 2058 : 
; 2059 : 	return Py_BuildNone();

  00095	e8 00 00 00 00	 call	 ?Py_BuildNone@@YAPAU_object@@XZ ; Py_BuildNone
  0009a	5f		 pop	 edi
  0009b	5e		 pop	 esi

; 2060 : }

  0009c	8b e5		 mov	 esp, ebp
  0009e	5d		 pop	 ebp
  0009f	c3		 ret	 0
?playerSetAutoPotionInfo@@YAPAU_object@@PAU1@0@Z ENDP	; playerSetAutoPotionInfo
_TEXT	ENDS
; Function compile flags: /Ogtp
; File D:\_m2work\txoko-m2-work\txoko-client-src\source\UserInterface\PythonPlayerModule.cpp
; File D:\_m2work\txoko-m2-work\txoko-client-src\source\UserInterface\PythonPlayer.h
; File D:\_m2work\txoko-m2-work\txoko-client-src\source\UserInterface\PythonPlayerModule.cpp
;	COMDAT ?playerGetAutoPotionInfo@@YAPAU_object@@PAU1@0@Z
_TEXT	SEGMENT
_potionType$ = -4					; size = 4
_poSelf$ = 8						; size = 4
_poArgs$ = 12						; size = 4
?playerGetAutoPotionInfo@@YAPAU_object@@PAU1@0@Z PROC	; playerGetAutoPotionInfo, COMDAT

; 2063 : {

  00000	55		 push	 ebp
  00001	8b ec		 mov	 ebp, esp
  00003	51		 push	 ecx
  00004	56		 push	 esi

; 2064 : 	CPythonPlayer* player = CPythonPlayer::InstancePtr();

  00005	8b 35 00 00 00
	00		 mov	 esi, DWORD PTR ?ms_singleton@?$CSingleton@VCPythonPlayer@@@@0PAVCPythonPlayer@@A ; CSingleton<CPythonPlayer>::ms_singleton

; 2065 : 
; 2066 : 	int potionType = 0;
; 2067 : 	if (!PyTuple_GetInteger(poArgs, 0, &potionType))

  0000b	8d 45 fc	 lea	 eax, DWORD PTR _potionType$[ebp]
  0000e	50		 push	 eax
  0000f	6a 00		 push	 0
  00011	ff 75 0c	 push	 DWORD PTR _poArgs$[ebp]
  00014	c7 45 fc 00 00
	00 00		 mov	 DWORD PTR _potionType$[ebp], 0
  0001b	e8 00 00 00 00	 call	 ?PyTuple_GetInteger@@YA_NPAU_object@@HPAH@Z ; PyTuple_GetInteger
  00020	83 c4 0c	 add	 esp, 12			; 0000000cH
  00023	84 c0		 test	 al, al
  00025	75 0a		 jne	 SHORT $LN2@playerGetA

; 2068 : 		return Py_BadArgument();

  00027	e8 00 00 00 00	 call	 ?Py_BadArgument@@YAPAU_object@@XZ ; Py_BadArgument
  0002c	5e		 pop	 esi

; 2073 : }

  0002d	8b e5		 mov	 esp, ebp
  0002f	5d		 pop	 ebp
  00030	c3		 ret	 0
$LN2@playerGetA:
; File D:\_m2work\txoko-m2-work\txoko-client-src\source\UserInterface\PythonPlayer.h

; 427  : 		__inline		SAutoPotionInfo& GetAutoPotionInfo(int type)		{ return m_kAutoPotionInfo[type]; }

  00031	8b 45 fc	 mov	 eax, DWORD PTR _potionType$[ebp]
  00034	03 c0		 add	 eax, eax
; File D:\_m2work\txoko-m2-work\txoko-client-src\source\UserInterface\PythonPlayerModule.cpp

; 2072 : 	return Py_BuildValue("biii", potionInfo.bActivated, int(potionInfo.currentAmount), int(potionInfo.totalAmount), int(potionInfo.inventorySlotIndex));

  00036	ff b4 c6 30 08
	01 00		 push	 DWORD PTR [esi+eax*8+67632]
  0003d	ff b4 c6 2c 08
	01 00		 push	 DWORD PTR [esi+eax*8+67628]
  00044	ff b4 c6 28 08
	01 00		 push	 DWORD PTR [esi+eax*8+67624]
  0004b	0f b6 84 c6 24
	08 01 00	 movzx	 eax, BYTE PTR [esi+eax*8+67620]
  00053	50		 push	 eax
  00054	68 00 00 00 00	 push	 OFFSET ??_C@_04GPDILEAH@biii@
  00059	ff 15 00 00 00
	00		 call	 DWORD PTR __imp__Py_BuildValue
  0005f	83 c4 14	 add	 esp, 20			; 00000014H
  00062	5e		 pop	 esi

; 2073 : }

  00063	8b e5		 mov	 esp, ebp
  00065	5d		 pop	 ebp
  00066	c3		 ret	 0
?playerGetAutoPotionInfo@@YAPAU_object@@PAU1@0@Z ENDP	; playerGetAutoPotionInfo
_TEXT	ENDS
; Function compile flags: /Ogtp
; File D:\_m2work\txoko-m2-work\txoko-client-src\source\UserInterface\PythonPlayerModule.cpp
;	COMDAT ?playerSlotTypeToInvenType@@YAPAU_object@@PAU1@0@Z
_TEXT	SEGMENT
_slotType$ = -4						; size = 4
_poSelf$ = 8						; size = 4
_poArgs$ = 12						; size = 4
?playerSlotTypeToInvenType@@YAPAU_object@@PAU1@0@Z PROC	; playerSlotTypeToInvenType, COMDAT

; 2076 : {

  00000	55		 push	 ebp
  00001	8b ec		 mov	 ebp, esp
  00003	51		 push	 ecx

; 2077 : 	int slotType = 0;
; 2078 : 	if (!PyTuple_GetInteger(poArgs, 0, &slotType))

  00004	8d 45 fc	 lea	 eax, DWORD PTR _slotType$[ebp]
  00007	c7 45 fc 00 00
	00 00		 mov	 DWORD PTR _slotType$[ebp], 0
  0000e	50		 push	 eax
  0000f	6a 00		 push	 0
  00011	ff 75 0c	 push	 DWORD PTR _poArgs$[ebp]
  00014	e8 00 00 00 00	 call	 ?PyTuple_GetInteger@@YA_NPAU_object@@HPAH@Z ; PyTuple_GetInteger
  00019	83 c4 0c	 add	 esp, 12			; 0000000cH
  0001c	84 c0		 test	 al, al
  0001e	75 09		 jne	 SHORT $LN2@playerSlot

; 2079 : 		return Py_BadArgument();

  00020	e8 00 00 00 00	 call	 ?Py_BadArgument@@YAPAU_object@@XZ ; Py_BadArgument

; 2082 : }

  00025	8b e5		 mov	 esp, ebp
  00027	5d		 pop	 ebp
  00028	c3		 ret	 0
$LN2@playerSlot:

; 2080 : 
; 2081 : 	return Py_BuildValue("i", SlotTypeToInvenType((BYTE)slotType));

  00029	8a 4d fc	 mov	 cl, BYTE PTR _slotType$[ebp]
  0002c	e8 00 00 00 00	 call	 ?SlotTypeToInvenType@@YAEE@Z ; SlotTypeToInvenType
  00031	0f b6 c0	 movzx	 eax, al
  00034	50		 push	 eax
  00035	68 00 00 00 00	 push	 OFFSET ??_C@_01KBJDNOO@i@
  0003a	ff 15 00 00 00
	00		 call	 DWORD PTR __imp__Py_BuildValue
  00040	83 c4 08	 add	 esp, 8

; 2082 : }

  00043	8b e5		 mov	 esp, ebp
  00045	5d		 pop	 ebp
  00046	c3		 ret	 0
?playerSlotTypeToInvenType@@YAPAU_object@@PAU1@0@Z ENDP	; playerSlotTypeToInvenType
_TEXT	ENDS
; Function compile flags: /Ogtp
; File D:\_m2work\txoko-m2-work\txoko-client-src\source\UserInterface\PythonPlayerModule.cpp
; File D:\_m2work\txoko-m2-work\txoko-client-src\source\UserInterface\GameType.h
; File D:\_m2work\txoko-m2-work\txoko-client-src\source\UserInterface\PythonPlayerModule.cpp
;	COMDAT ?playerIsEquippingBelt@@YAPAU_object@@PAU1@0@Z
_TEXT	SEGMENT
$T1 = -3						; size = 3
_poSelf$ = 8						; size = 4
_poArgs$ = 12						; size = 4
?playerIsEquippingBelt@@YAPAU_object@@PAU1@0@Z PROC	; playerIsEquippingBelt, COMDAT

; 2087 : {

  00000	55		 push	 ebp
  00001	8b ec		 mov	 ebp, esp
  00003	51		 push	 ecx

; 2091 : 	const TItemData* data = player->GetItemData(TItemPos(EQUIPMENT, c_Equipment_Belt));

  00004	51		 push	 ecx
  00005	8b cc		 mov	 ecx, esp
; File D:\_m2work\txoko-m2-work\txoko-client-src\source\UserInterface\GameType.h

; 191  :         window_type = _window_type;

  00007	c6 45 fd 02	 mov	 BYTE PTR $T1[ebp], 2

; 192  :         cell = _cell;

  0000b	b8 cb 00 00 00	 mov	 eax, 203		; 000000cbH
  00010	66 89 45 fe	 mov	 WORD PTR $T1[ebp+1], ax
; File D:\_m2work\txoko-m2-work\txoko-client-src\source\UserInterface\PythonPlayerModule.cpp

; 2091 : 	const TItemData* data = player->GetItemData(TItemPos(EQUIPMENT, c_Equipment_Belt));

  00014	66 8b 45 fd	 mov	 ax, WORD PTR $T1[ebp]
  00018	66 89 01	 mov	 WORD PTR [ecx], ax
  0001b	8a 45 ff	 mov	 al, BYTE PTR $T1[ebp+2]
  0001e	88 41 02	 mov	 BYTE PTR [ecx+2], al
  00021	8b 0d 00 00 00
	00		 mov	 ecx, DWORD PTR ?ms_singleton@?$CSingleton@VCPythonPlayer@@@@0PAVCPythonPlayer@@A ; CSingleton<CPythonPlayer>::ms_singleton
  00027	e8 00 00 00 00	 call	 ?GetItemData@CPythonPlayer@@QBEPBUpacket_item@@USItemPos@@@Z ; CPythonPlayer::GetItemData
  0002c	33 c9		 xor	 ecx, ecx

; 2092 : 
; 2093 : 	if (NULL != data)

  0002e	85 c0		 test	 eax, eax
  00030	74 09		 je	 SHORT $LN2@playerIsEq

; 2094 : 		bEquipping = 0 < data->count;

  00032	32 c9		 xor	 cl, cl
  00034	3a 48 04	 cmp	 cl, BYTE PTR [eax+4]
  00037	1b c9		 sbb	 ecx, ecx
  00039	f7 d9		 neg	 ecx
$LN2@playerIsEq:

; 2095 : 
; 2096 : 	return Py_BuildValue("b", bEquipping);

  0003b	51		 push	 ecx
  0003c	68 00 00 00 00	 push	 OFFSET ??_C@_01OJONOECF@b@
  00041	ff 15 00 00 00
	00		 call	 DWORD PTR __imp__Py_BuildValue
  00047	83 c4 08	 add	 esp, 8

; 2097 : 	
; 2098 : }

  0004a	8b e5		 mov	 esp, ebp
  0004c	5d		 pop	 ebp
  0004d	c3		 ret	 0
?playerIsEquippingBelt@@YAPAU_object@@PAU1@0@Z ENDP	; playerIsEquippingBelt
_TEXT	ENDS
; Function compile flags: /Ogtp
; File D:\_m2work\txoko-m2-work\txoko-client-src\source\UserInterface\PythonPlayerModule.cpp
; File D:\_m2work\txoko-m2-work\txoko-client-src\source\UserInterface\GameType.h
; File D:\_m2work\txoko-m2-work\txoko-client-src\source\UserInterface\PythonPlayerModule.cpp
;	COMDAT ?playerIsAvailableBeltInventoryCell@@YAPAU_object@@PAU1@0@Z
_TEXT	SEGMENT
_pos$ = -4						; size = 4
$T1 = -3						; size = 3
_poSelf$ = 8						; size = 4
_poArgs$ = 12						; size = 4
?playerIsAvailableBeltInventoryCell@@YAPAU_object@@PAU1@0@Z PROC ; playerIsAvailableBeltInventoryCell, COMDAT

; 2102 : {

  00000	55		 push	 ebp
  00001	8b ec		 mov	 ebp, esp
  00003	51		 push	 ecx
  00004	56		 push	 esi

; 2104 : 	const TItemData* pData = player->GetItemData(TItemPos(EQUIPMENT, c_Equipment_Belt));

  00005	51		 push	 ecx
  00006	8b cc		 mov	 ecx, esp
; File D:\_m2work\txoko-m2-work\txoko-client-src\source\UserInterface\GameType.h

; 191  :         window_type = _window_type;

  00008	c6 45 fd 02	 mov	 BYTE PTR $T1[ebp], 2

; 192  :         cell = _cell;

  0000c	b8 cb 00 00 00	 mov	 eax, 203		; 000000cbH
  00011	66 89 45 fe	 mov	 WORD PTR $T1[ebp+1], ax
; File D:\_m2work\txoko-m2-work\txoko-client-src\source\UserInterface\PythonPlayerModule.cpp

; 2104 : 	const TItemData* pData = player->GetItemData(TItemPos(EQUIPMENT, c_Equipment_Belt));

  00015	66 8b 45 fd	 mov	 ax, WORD PTR $T1[ebp]
  00019	66 89 01	 mov	 WORD PTR [ecx], ax
  0001c	8a 45 ff	 mov	 al, BYTE PTR $T1[ebp+2]
  0001f	88 41 02	 mov	 BYTE PTR [ecx+2], al
  00022	8b 0d 00 00 00
	00		 mov	 ecx, DWORD PTR ?ms_singleton@?$CSingleton@VCPythonPlayer@@@@0PAVCPythonPlayer@@A ; CSingleton<CPythonPlayer>::ms_singleton
  00028	e8 00 00 00 00	 call	 ?GetItemData@CPythonPlayer@@QBEPBUpacket_item@@USItemPos@@@Z ; CPythonPlayer::GetItemData

; 2105 : 
; 2106 : 	if (NULL == pData || 0 == pData->count)

  0002d	85 c0		 test	 eax, eax
  0002f	74 7c		 je	 SHORT $LN3@playerIsAv
  00031	80 78 04 00	 cmp	 BYTE PTR [eax+4], 0
  00035	74 76		 je	 SHORT $LN3@playerIsAv

; 2108 : 
; 2109 : 	CItemManager::Instance().SelectItemData(pData->vnum);

  00037	ff 30		 push	 DWORD PTR [eax]
  00039	8b 0d 00 00 00
	00		 mov	 ecx, DWORD PTR ?ms_singleton@?$CSingleton@VCItemManager@@@@0PAVCItemManager@@A ; CSingleton<CItemManager>::ms_singleton
  0003f	e8 00 00 00 00	 call	 ?SelectItemData@CItemManager@@QAEHK@Z ; CItemManager::SelectItemData

; 2110 : 	CItemData * pItem = CItemManager::Instance().GetSelectedItemDataPointer();

  00044	8b 0d 00 00 00
	00		 mov	 ecx, DWORD PTR ?ms_singleton@?$CSingleton@VCItemManager@@@@0PAVCItemManager@@A ; CSingleton<CItemManager>::ms_singleton
  0004a	e8 00 00 00 00	 call	 ?GetSelectedItemDataPointer@CItemManager@@QAEPAVCItemData@@XZ ; CItemManager::GetSelectedItemDataPointer

; 2111 : 
; 2112 : 	long beltGrade = pItem->GetValue(0);

  0004f	6a 00		 push	 0
  00051	8b c8		 mov	 ecx, eax
  00053	e8 00 00 00 00	 call	 ?GetValue@CItemData@@QBEJE@Z ; CItemData::GetValue
  00058	8b f0		 mov	 esi, eax

; 2113 : 
; 2114 : 	int pos = 0;

  0005a	c7 45 fc 00 00
	00 00		 mov	 DWORD PTR _pos$[ebp], 0

; 2115 : 	if (!PyTuple_GetInteger(poArgs, 0, &pos))

  00061	8d 45 fc	 lea	 eax, DWORD PTR _pos$[ebp]
  00064	50		 push	 eax
  00065	6a 00		 push	 0
  00067	ff 75 0c	 push	 DWORD PTR _poArgs$[ebp]
  0006a	e8 00 00 00 00	 call	 ?PyTuple_GetInteger@@YA_NPAU_object@@HPAH@Z ; PyTuple_GetInteger
  0006f	83 c4 0c	 add	 esp, 12			; 0000000cH
  00072	84 c0		 test	 al, al
  00074	75 0a		 jne	 SHORT $LN4@playerIsAv

; 2116 : 		return Py_BadArgument();

  00076	e8 00 00 00 00	 call	 ?Py_BadArgument@@YAPAU_object@@XZ ; Py_BadArgument

; 2120 : }

  0007b	5e		 pop	 esi
  0007c	8b e5		 mov	 esp, ebp
  0007e	5d		 pop	 ebp
  0007f	c3		 ret	 0
$LN4@playerIsAv:

; 2117 : 
; 2118 : 	//return Py_BuildValue("b", CBeltInventoryHelper::IsAvailableCell(pos - c_Belt_Inventory_Slot_Start, GetItemGrade(pItem->GetName())));
; 2119 : 	return Py_BuildValue("b", CBeltInventoryHelper::IsAvailableCell(pos - c_Belt_Inventory_Slot_Start, beltGrade));

  00080	8b 45 fc	 mov	 eax, DWORD PTR _pos$[ebp]

; 107  : 		return ruleTable[cell] <= beltGrade;

  00083	33 c9		 xor	 ecx, ecx

; 2117 : 
; 2118 : 	//return Py_BuildValue("b", CBeltInventoryHelper::IsAvailableCell(pos - c_Belt_Inventory_Slot_Start, GetItemGrade(pItem->GetName())));
; 2119 : 	return Py_BuildValue("b", CBeltInventoryHelper::IsAvailableCell(pos - c_Belt_Inventory_Slot_Start, beltGrade));

  00085	05 0e ff ff ff	 add	 eax, -242		; ffffff0eH

; 107  : 		return ruleTable[cell] <= beltGrade;

  0008a	0f b7 c0	 movzx	 eax, ax
  0008d	0f b6 80 00 00
	00 00		 movzx	 eax, BYTE PTR ?availableRuleByGrade@?1??GetAvailableRuleTableByGrade@CBeltInventoryHelper@@SAPBEXZ@4PAEA[eax]
  00094	3b c6		 cmp	 eax, esi
  00096	0f 9e c1	 setle	 cl

; 2117 : 
; 2118 : 	//return Py_BuildValue("b", CBeltInventoryHelper::IsAvailableCell(pos - c_Belt_Inventory_Slot_Start, GetItemGrade(pItem->GetName())));
; 2119 : 	return Py_BuildValue("b", CBeltInventoryHelper::IsAvailableCell(pos - c_Belt_Inventory_Slot_Start, beltGrade));

  00099	51		 push	 ecx

; 2120 : }

  0009a	68 00 00 00 00	 push	 OFFSET ??_C@_01OJONOECF@b@
  0009f	ff 15 00 00 00
	00		 call	 DWORD PTR __imp__Py_BuildValue
  000a5	83 c4 08	 add	 esp, 8
  000a8	5e		 pop	 esi
  000a9	8b e5		 mov	 esp, ebp
  000ab	5d		 pop	 ebp
  000ac	c3		 ret	 0
$LN3@playerIsAv:

; 2107 : 		return Py_BuildValue("b", false);

  000ad	6a 00		 push	 0

; 2120 : }

  000af	68 00 00 00 00	 push	 OFFSET ??_C@_01OJONOECF@b@
  000b4	ff 15 00 00 00
	00		 call	 DWORD PTR __imp__Py_BuildValue
  000ba	83 c4 08	 add	 esp, 8
  000bd	5e		 pop	 esi
  000be	8b e5		 mov	 esp, ebp
  000c0	5d		 pop	 ebp
  000c1	c3		 ret	 0
?playerIsAvailableBeltInventoryCell@@YAPAU_object@@PAU1@0@Z ENDP ; playerIsAvailableBeltInventoryCell
_TEXT	ENDS
; Function compile flags: /Ogtp
; File D:\_m2work\txoko-m2-work\txoko-client-src\source\UserInterface\PythonPlayerModule.cpp
; File D:\_m2work\txoko-m2-work\txoko-client-src\source\UserInterface\GameType.h
; File D:\_m2work\txoko-m2-work\txoko-client-src\source\UserInterface\PythonPlayerModule.cpp
;	COMDAT ?playerSendDragonSoulRefine@@YAPAU_object@@PAU1@0@Z
_TEXT	SEGMENT
_bSubHeader$ = -72					; size = 1
_pos$1 = -68						; size = 4
_key$2 = -64						; size = 4
_pDic$ = -60						; size = 4
_value$3 = -56						; size = 4
_RefineItemPoses$ = -52					; size = 45
__$ArrayPad$ = -4					; size = 4
_poSelf$ = 8						; size = 4
_poArgs$ = 12						; size = 4
?playerSendDragonSoulRefine@@YAPAU_object@@PAU1@0@Z PROC ; playerSendDragonSoulRefine, COMDAT

; 2126 : {

  00000	55		 push	 ebp
  00001	8b ec		 mov	 ebp, esp
  00003	83 ec 48	 sub	 esp, 72			; 00000048H
  00006	a1 00 00 00 00	 mov	 eax, DWORD PTR ___security_cookie
  0000b	33 c5		 xor	 eax, ebp
  0000d	89 45 fc	 mov	 DWORD PTR __$ArrayPad$[ebp], eax
  00010	56		 push	 esi
  00011	8b 75 0c	 mov	 esi, DWORD PTR _poArgs$[ebp]

; 2127 : 	BYTE bSubHeader;
; 2128 : 	PyObject* pDic;
; 2129 : 	TItemPos RefineItemPoses[DS_REFINE_WINDOW_MAX_NUM];

  00014	8d 45 cc	 lea	 eax, DWORD PTR _RefineItemPoses$[ebp]
  00017	b9 0f 00 00 00	 mov	 ecx, 15			; 0000000fH
  0001c	ba ff ff 00 00	 mov	 edx, 65535		; 0000ffffH
$LL30@playerSend:
; File D:\_m2work\txoko-m2-work\txoko-client-src\source\UserInterface\GameType.h

; 186  : 		window_type =     INVENTORY;

  00021	c6 00 01	 mov	 BYTE PTR [eax], 1
  00024	8d 40 03	 lea	 eax, DWORD PTR [eax+3]

; 187  : 		cell = WORD_MAX;

  00027	66 89 50 fe	 mov	 WORD PTR [eax-2], dx
  0002b	83 e9 01	 sub	 ecx, 1
  0002e	75 f1		 jne	 SHORT $LL30@playerSend
; File D:\_m2work\txoko-m2-work\txoko-client-src\source\UserInterface\PythonPlayerModule.cpp

; 2130 : 	if (!PyTuple_GetByte(poArgs, 0, &bSubHeader))

  00030	8d 45 b8	 lea	 eax, DWORD PTR _bSubHeader$[ebp]
  00033	50		 push	 eax
  00034	51		 push	 ecx
  00035	56		 push	 esi
  00036	e8 00 00 00 00	 call	 ?PyTuple_GetByte@@YA_NPAU_object@@HPAE@Z ; PyTuple_GetByte
  0003b	83 c4 0c	 add	 esp, 12			; 0000000cH
  0003e	84 c0		 test	 al, al
  00040	75 19		 jne	 SHORT $LN6@playerSend

; 2131 : 		return Py_BuildException();

  00042	6a 00		 push	 0
  00044	e8 00 00 00 00	 call	 ?Py_BuildException@@YAPAU_object@@PBDZZ ; Py_BuildException
  00049	83 c4 04	 add	 esp, 4
  0004c	5e		 pop	 esi

; 2166 : }

  0004d	8b 4d fc	 mov	 ecx, DWORD PTR __$ArrayPad$[ebp]
  00050	33 cd		 xor	 ecx, ebp
  00052	e8 00 00 00 00	 call	 @__security_check_cookie@4
  00057	8b e5		 mov	 esp, ebp
  00059	5d		 pop	 ebp
  0005a	c3		 ret	 0
$LN6@playerSend:

; 2132 : 	switch (bSubHeader)

  0005b	0f b6 45 b8	 movzx	 eax, BYTE PTR _bSubHeader$[ebp]
  0005f	53		 push	 ebx
  00060	57		 push	 edi
  00061	83 e8 02	 sub	 eax, 2
  00064	74 0e		 je	 SHORT $LN8@playerSend
  00066	83 e8 01	 sub	 eax, 1
  00069	74 09		 je	 SHORT $LN8@playerSend
  0006b	83 e8 01	 sub	 eax, 1
  0006e	0f 85 a2 00 00
	00		 jne	 $LN35@playerSend
$LN8@playerSend:

; 2133 : 	{
; 2134 : 	case DS_SUB_HEADER_CLOSE:
; 2135 : 		break;
; 2136 : 	case DS_SUB_HEADER_DO_UPGRADE:
; 2137 : 	case DS_SUB_HEADER_DO_IMPROVEMENT:
; 2138 : 	case DS_SUB_HEADER_DO_REFINE:
; 2139 : 		{
; 2140 : 			if (!PyTuple_GetObject(poArgs, 1, &pDic))

  00074	8d 45 c4	 lea	 eax, DWORD PTR _pDic$[ebp]
  00077	50		 push	 eax
  00078	6a 01		 push	 1
  0007a	56		 push	 esi
  0007b	e8 00 00 00 00	 call	 ?PyTuple_GetObject@@YA_NPAU_object@@HPAPAU1@@Z ; PyTuple_GetObject
  00080	83 c4 0c	 add	 esp, 12			; 0000000cH
  00083	84 c0		 test	 al, al
  00085	0f 84 b3 00 00
	00		 je	 $LN26@playerSend

; 2141 : 				return Py_BuildException();
; 2142 : 			int pos = 0;
; 2143 : 			PyObject* key, *value;
; 2144 : 			int size = PyDict_Size(pDic);

  0008b	ff 75 c4	 push	 DWORD PTR _pDic$[ebp]
  0008e	c7 45 bc 00 00
	00 00		 mov	 DWORD PTR _pos$1[ebp], 0
  00095	ff 15 00 00 00
	00		 call	 DWORD PTR __imp__PyDict_Size

; 2145 : 
; 2146 : 			while (PyDict_Next(pDic, &pos, &key, &value))

  0009b	8b 1d 00 00 00
	00		 mov	 ebx, DWORD PTR __imp__PyDict_Next
  000a1	8d 45 c8	 lea	 eax, DWORD PTR _value$3[ebp]
  000a4	50		 push	 eax
  000a5	8d 45 c0	 lea	 eax, DWORD PTR _key$2[ebp]
  000a8	50		 push	 eax
  000a9	8d 45 bc	 lea	 eax, DWORD PTR _pos$1[ebp]
  000ac	50		 push	 eax
  000ad	ff 75 c4	 push	 DWORD PTR _pDic$[ebp]
  000b0	ff d3		 call	 ebx
  000b2	83 c4 14	 add	 esp, 20			; 00000014H
  000b5	85 c0		 test	 eax, eax
  000b7	74 5d		 je	 SHORT $LN35@playerSend
  000b9	8b 3d 00 00 00
	00		 mov	 edi, DWORD PTR __imp__PyInt_AsLong
  000bf	90		 npad	 1
$LL4@playerSend:

; 2147 : 			{
; 2148 : 				int i = PyInt_AsLong(key);

  000c0	ff 75 c0	 push	 DWORD PTR _key$2[ebp]
  000c3	ff d7		 call	 edi
  000c5	83 c4 04	 add	 esp, 4

; 2149 : 				if (i > DS_REFINE_WINDOW_MAX_NUM)

  000c8	83 f8 0f	 cmp	 eax, 15			; 0000000fH
  000cb	7f 71		 jg	 SHORT $LN26@playerSend

; 2151 : 
; 2152 : 				if (!PyTuple_GetByte(value, 0, &RefineItemPoses[i].window_type) 
; 2153 : 					|| !PyTuple_GetInteger(value, 1, &RefineItemPoses[i].cell))

  000cd	8d 34 40	 lea	 esi, DWORD PTR [eax+eax*2]
  000d0	8d 45 cc	 lea	 eax, DWORD PTR _RefineItemPoses$[ebp]
  000d3	03 c6		 add	 eax, esi
  000d5	50		 push	 eax
  000d6	6a 00		 push	 0
  000d8	ff 75 c8	 push	 DWORD PTR _value$3[ebp]
  000db	e8 00 00 00 00	 call	 ?PyTuple_GetByte@@YA_NPAU_object@@HPAE@Z ; PyTuple_GetByte
  000e0	83 c4 0c	 add	 esp, 12			; 0000000cH
  000e3	84 c0		 test	 al, al
  000e5	74 57		 je	 SHORT $LN26@playerSend
  000e7	8d 45 cd	 lea	 eax, DWORD PTR _RefineItemPoses$[ebp+1]
  000ea	03 c6		 add	 eax, esi
  000ec	50		 push	 eax
  000ed	6a 01		 push	 1
  000ef	ff 75 c8	 push	 DWORD PTR _value$3[ebp]
  000f2	e8 00 00 00 00	 call	 ?PyTuple_GetInteger@@YA_NPAU_object@@HPAG@Z ; PyTuple_GetInteger
  000f7	83 c4 0c	 add	 esp, 12			; 0000000cH
  000fa	84 c0		 test	 al, al
  000fc	74 40		 je	 SHORT $LN26@playerSend

; 2145 : 
; 2146 : 			while (PyDict_Next(pDic, &pos, &key, &value))

  000fe	8d 45 c8	 lea	 eax, DWORD PTR _value$3[ebp]
  00101	50		 push	 eax
  00102	8d 45 c0	 lea	 eax, DWORD PTR _key$2[ebp]
  00105	50		 push	 eax
  00106	8d 45 bc	 lea	 eax, DWORD PTR _pos$1[ebp]
  00109	50		 push	 eax
  0010a	ff 75 c4	 push	 DWORD PTR _pDic$[ebp]
  0010d	ff d3		 call	 ebx
  0010f	83 c4 10	 add	 esp, 16			; 00000010H
  00112	85 c0		 test	 eax, eax
  00114	75 aa		 jne	 SHORT $LL4@playerSend
$LN35@playerSend:

; 2154 : 				{
; 2155 : 					return Py_BuildException();
; 2156 : 				}
; 2157 : 			}
; 2158 : 		}
; 2159 : 		break;
; 2160 : 	}
; 2161 : 
; 2162 : 	CPythonNetworkStream& rns=CPythonNetworkStream::Instance();
; 2163 : 	rns.SendDragonSoulRefinePacket(bSubHeader, RefineItemPoses);

  00116	8b 0d 00 00 00
	00		 mov	 ecx, DWORD PTR ?ms_singleton@?$CSingleton@VCPythonNetworkStream@@@@0PAVCPythonNetworkStream@@A ; CSingleton<CPythonNetworkStream>::ms_singleton
  0011c	8d 45 cc	 lea	 eax, DWORD PTR _RefineItemPoses$[ebp]
  0011f	50		 push	 eax
  00120	ff 75 b8	 push	 DWORD PTR _bSubHeader$[ebp]
  00123	e8 00 00 00 00	 call	 ?SendDragonSoulRefinePacket@CPythonNetworkStream@@QAE_NEPAUSItemPos@@@Z ; CPythonNetworkStream::SendDragonSoulRefinePacket

; 2164 : 	
; 2165 : 	return Py_BuildNone();

  00128	e8 00 00 00 00	 call	 ?Py_BuildNone@@YAPAU_object@@XZ ; Py_BuildNone
  0012d	5f		 pop	 edi
  0012e	5b		 pop	 ebx
  0012f	5e		 pop	 esi

; 2166 : }

  00130	8b 4d fc	 mov	 ecx, DWORD PTR __$ArrayPad$[ebp]
  00133	33 cd		 xor	 ecx, ebp
  00135	e8 00 00 00 00	 call	 @__security_check_cookie@4
  0013a	8b e5		 mov	 esp, ebp
  0013c	5d		 pop	 ebp
  0013d	c3		 ret	 0
$LN26@playerSend:

; 2150 : 					return Py_BuildException();

  0013e	6a 00		 push	 0
  00140	e8 00 00 00 00	 call	 ?Py_BuildException@@YAPAU_object@@PBDZZ ; Py_BuildException

; 2166 : }

  00145	8b 4d fc	 mov	 ecx, DWORD PTR __$ArrayPad$[ebp]
  00148	83 c4 04	 add	 esp, 4
  0014b	33 cd		 xor	 ecx, ebp
  0014d	5f		 pop	 edi
  0014e	5b		 pop	 ebx
  0014f	5e		 pop	 esi
  00150	e8 00 00 00 00	 call	 @__security_check_cookie@4
  00155	8b e5		 mov	 esp, ebp
  00157	5d		 pop	 ebp
  00158	c3		 ret	 0
?playerSendDragonSoulRefine@@YAPAU_object@@PAU1@0@Z ENDP ; playerSendDragonSoulRefine
_TEXT	ENDS
; Function compile flags: /Ogtp
; File D:\_m2work\txoko-m2-work\txoko-client-src\source\UserInterface\PythonPlayerModule.cpp
;	COMDAT ?initPlayer@@YAXXZ
_TEXT	SEGMENT
?initPlayer@@YAXXZ PROC					; initPlayer, COMDAT

; 2168 : {

  00000	56		 push	 esi
  00001	57		 push	 edi

; 2169 : 	static PyMethodDef s_methods[] =
; 2170 : 	{
; 2171 : 		{ "GetAutoPotionInfo",			playerGetAutoPotionInfo,			METH_VARARGS },
; 2172 : 		{ "SetAutoPotionInfo",			playerSetAutoPotionInfo,			METH_VARARGS },
; 2173 : 
; 2174 : 		{ "PickCloseItem",				playerPickCloseItem,				METH_VARARGS },
; 2175 : 		{ "SetGameWindow",				playerSetGameWindow,				METH_VARARGS },
; 2176 : 		{ "RegisterEffect",				playerRegisterEffect,				METH_VARARGS },
; 2177 : 		{ "RegisterCacheEffect",		playerRegisterCacheEffect,			METH_VARARGS },
; 2178 : 		{ "SetMouseState",				playerSetMouseState,				METH_VARARGS },
; 2179 : 		{ "SetMouseFunc",				playerSetMouseFunc,					METH_VARARGS },
; 2180 : 		{ "GetMouseFunc",				playerGetMouseFunc,					METH_VARARGS },
; 2181 : 		{ "SetMouseMiddleButtonState",	playerSetMouseMiddleButtonState,	METH_VARARGS },
; 2182 : 		{ "SetMainCharacterIndex",		playerSetMainCharacterIndex,		METH_VARARGS },
; 2183 : 		{ "GetMainCharacterIndex",		playerGetMainCharacterIndex,		METH_VARARGS },
; 2184 : 		{ "GetMainCharacterName",		playerGetMainCharacterName,			METH_VARARGS },
; 2185 : 		{ "GetMainCharacterPosition",	playerGetMainCharacterPosition,		METH_VARARGS },
; 2186 : 		{ "IsMainCharacterIndex",		playerIsMainCharacterIndex,			METH_VARARGS },
; 2187 : 		{ "CanAttackInstance",			playerCanAttackInstance,			METH_VARARGS },
; 2188 : 		{ "IsActingEmotion",			playerIsActingEmotion,				METH_VARARGS },
; 2189 : 		{ "IsPVPInstance",				playerIsPVPInstance,				METH_VARARGS },
; 2190 : 		{ "IsSameEmpire",				playerIsSameEmpire,					METH_VARARGS },
; 2191 : 		{ "IsChallengeInstance",		playerIsChallengeInstance,			METH_VARARGS },
; 2192 : 		{ "IsRevengeInstance",			playerIsRevengeInstance,			METH_VARARGS },
; 2193 : 		{ "IsCantFightInstance",		playerIsCantFightInstance,			METH_VARARGS },
; 2194 : 		{ "GetCharacterDistance",		playerGetCharacterDistance,			METH_VARARGS },
; 2195 : 		{ "IsInSafeArea",				playerIsInSafeArea,					METH_VARARGS },
; 2196 : 		{ "IsMountingHorse",			playerIsMountingHorse,				METH_VARARGS },
; 2197 : 		{ "IsObserverMode",				playerIsObserverMode,				METH_VARARGS },
; 2198 : 		{ "ActEmotion",					playerActEmotion,					METH_VARARGS },
; 2199 : 
; 2200 : 		{ "ShowPlayer",					playerShowPlayer,					METH_VARARGS },
; 2201 : 		{ "HidePlayer",					playerHidePlayer,					METH_VARARGS },
; 2202 : 
; 2203 : 		{ "ComboAttack",				playerComboAttack,					METH_VARARGS },
; 2204 : 
; 2205 : 		{ "SetAutoCameraRotationSpeed",	playerSetAutoCameraRotationSpeed,	METH_VARARGS },
; 2206 : 		{ "SetAttackKeyState",			playerSetAttackKeyState,			METH_VARARGS },
; 2207 : 		{ "SetSingleDIKKeyState",		playerSetSingleDIKKeyState,			METH_VARARGS },
; 2208 : 		{ "EndKeyWalkingImmediately",	playerEndKeyWalkingImmediately,		METH_VARARGS },
; 2209 : 		{ "StartMouseWalking",			playerStartMouseWalking,			METH_VARARGS },
; 2210 : 		{ "EndMouseWalking",			playerEndMouseWalking,				METH_VARARGS },
; 2211 : 		{ "ResetCameraRotation",		playerResetCameraRotation,			METH_VARARGS },
; 2212 : 		{ "SetQuickCameraMode",			playerSetQuickCameraMode,			METH_VARARGS },
; 2213 : 
; 2214 : 		///////////////////////////////////////////////////////////////////////////////////////////
; 2215 : 
; 2216 : 		{ "SetSkill",							playerSetSkill,								METH_VARARGS },
; 2217 : 		{ "GetSkillIndex",						playerGetSkillIndex,						METH_VARARGS },
; 2218 : 		{ "GetSkillSlotIndex",					playerGetSkillSlotIndex,					METH_VARARGS },
; 2219 : 		{ "GetSkillGrade",						playerGetSkillGrade,						METH_VARARGS },
; 2220 : 		{ "GetSkillLevel",						playerGetSkillLevel,						METH_VARARGS },
; 2221 : 		{ "GetSkillCurrentEfficientPercentage",	playerGetSkillCurrentEfficientPercentage,	METH_VARARGS },
; 2222 : 		{ "GetSkillNextEfficientPercentage",	playerGetSkillNextEfficientPercentage,		METH_VARARGS },
; 2223 : 		{ "ClickSkillSlot",						playerClickSkillSlot,						METH_VARARGS },
; 2224 : 		{ "ChangeCurrentSkillNumberOnly",		playerChangeCurrentSkillNumberOnly,			METH_VARARGS },
; 2225 : 		{ "ClearSkillDict",						playerClearSkillDict,						METH_VARARGS },
; 2226 : 
; 2227 : 		{ "GetItemIndex",						playerGetItemIndex,							METH_VARARGS },
; 2228 : 		{ "GetItemFlags",						playerGetItemFlags,							METH_VARARGS },
; 2229 : 		{ "GetItemCount",						playerGetItemCount,							METH_VARARGS },
; 2230 : 		{ "GetItemCountByVnum",					playerGetItemCountByVnum,					METH_VARARGS },
; 2231 : 		{ "GetItemMetinSocket",					playerGetItemMetinSocket,					METH_VARARGS },
; 2232 : 		{ "GetItemAttribute",					playerGetItemAttribute,						METH_VARARGS },
; 2233 : #if defined(GAIDEN)
; 2234 : 		{ "GetItemUnbindTime",					playerGetItemUnbindTime,					METH_VARARGS },
; 2235 : #endif
; 2236 : 		{ "GetISellItemPrice",					playerGetISellItemPrice,					METH_VARARGS },
; 2237 : 		{ "MoveItem",							playerMoveItem,								METH_VARARGS },
; 2238 : 		{ "SendClickItemPacket",				playerSendClickItemPacket,					METH_VARARGS },
; 2239 : 
; 2240 : 		///////////////////////////////////////////////////////////////////////////////////////////
; 2241 : 
; 2242 : 		{ "GetName",					playerGetName,						METH_VARARGS },
; 2243 : 		{ "GetJob",						playerGetJob,						METH_VARARGS },
; 2244 : 		{ "GetRace",					playerGetRace,						METH_VARARGS },
; 2245 : 		{ "GetPlayTime",				playerGetPlayTime,					METH_VARARGS },
; 2246 : 		{ "SetPlayTime",				playerSetPlayTime,					METH_VARARGS },
; 2247 : 
; 2248 : 		{ "IsSkillCoolTime",			playerIsSkillCoolTime,				METH_VARARGS },
; 2249 : 		{ "GetSkillCoolTime",			playerGetSkillCoolTime,				METH_VARARGS },
; 2250 : 		{ "IsSkillActive",				playerIsSkillActive,				METH_VARARGS },
; 2251 : 		{ "UseGuildSkill",				playerUseGuildSkill,				METH_VARARGS },
; 2252 : 		{ "AffectIndexToSkillIndex",	playerAffectIndexToSkillIndex,		METH_VARARGS },
; 2253 : 		{ "GetEXP",						playerGetEXP,						METH_VARARGS },
; 2254 : 		{ "GetStatus",					playerGetStatus,					METH_VARARGS },
; 2255 : 		{ "SetStatus",					playerSetStatus,					METH_VARARGS },
; 2256 : 		{ "GetElk",						playerGetElk,						METH_VARARGS },
; 2257 : 		{ "GetMoney",					playerGetElk,						METH_VARARGS },
; 2258 : 		{ "GetGuildID",					playerGetGuildID,					METH_VARARGS },
; 2259 : 		{ "GetGuildName",				playerGetGuildName,					METH_VARARGS },
; 2260 : 		{ "GetAlignmentData",			playerGetAlignmentData,				METH_VARARGS },
; 2261 : 		{ "RequestAddLocalQuickSlot",					playerRequestAddLocalQuickSlot,						METH_VARARGS },
; 2262 : 		{ "RequestAddToEmptyLocalQuickSlot",			playerRequestAddToEmptyLocalQuickSlot,				METH_VARARGS },
; 2263 : 		{ "RequestDeleteGlobalQuickSlot",				playerRequestDeleteGlobalQuickSlot,					METH_VARARGS },
; 2264 : 		{ "RequestMoveGlobalQuickSlotToLocalQuickSlot",	playerRequestMoveGlobalQuickSlotToLocalQuickSlot,	METH_VARARGS },
; 2265 : 		{ "RequestUseLocalQuickSlot",					playerRequestUseLocalQuickSlot,						METH_VARARGS },
; 2266 : 		{ "LocalQuickSlotIndexToGlobalQuickSlotIndex",	playerLocalQuickSlotIndexToGlobalQuickSlotIndex,	METH_VARARGS },
; 2267 : 
; 2268 : 		{ "GetQuickPage",				playerGetQuickPage,					METH_VARARGS },
; 2269 : 		{ "SetQuickPage",				playerSetQuickPage,					METH_VARARGS },
; 2270 : 		{ "GetLocalQuickSlot",			playerGetLocalQuickSlot,			METH_VARARGS },
; 2271 : 		{ "GetGlobalQuickSlot",			playerGetGlobalQuickSlot,			METH_VARARGS },
; 2272 : 		{ "RemoveQuickSlotByValue",		playerRemoveQuickSlotByValue,		METH_VARARGS },
; 2273 : 
; 2274 : 		{ "isItem",						playerisItem,						METH_VARARGS },
; 2275 : 		{ "IsEquipmentSlot",			playerIsEquipmentSlot,				METH_VARARGS },
; 2276 : 		{ "IsDSEquipmentSlot",			playerIsDSEquipmentSlot,			METH_VARARGS },
; 2277 : 		{ "IsCostumeSlot",				playerIsCostumeSlot,				METH_VARARGS },
; 2278 : 		{ "IsValuableItem",				playerIsValuableItem,				METH_VARARGS },
; 2279 : 		{ "IsOpenPrivateShop",			playerIsOpenPrivateShop,			METH_VARARGS },
; 2280 : 
; 2281 : #ifdef ENABLE_NEW_EQUIPMENT_SYSTEM
; 2282 : 		{ "IsBeltInventorySlot",			playerIsBeltInventorySlot,			METH_VARARGS },
; 2283 : 		{ "IsEquippingBelt",				playerIsEquippingBelt,				METH_VARARGS },		
; 2284 : 		{ "IsAvailableBeltInventoryCell",	playerIsAvailableBeltInventoryCell,	METH_VARARGS },		
; 2285 : #endif
; 2286 : 
; 2287 : 		// Refine
; 2288 : 		{ "GetItemGrade",				playerGetItemGrade,					METH_VARARGS },
; 2289 : 		{ "CanRefine",					playerCanRefine,					METH_VARARGS },
; 2290 : 		{ "CanDetach",					playerCanDetach,					METH_VARARGS },
; 2291 : 		{ "CanUnlock",					playerCanUnlock,					METH_VARARGS },
; 2292 : 		{ "CanAttachMetin",				playerCanAttachMetin,				METH_VARARGS },
; 2293 : 		{ "IsRefineGradeScroll",		playerIsRefineGradeScroll,			METH_VARARGS },
; 2294 : 
; 2295 : 		{ "ClearTarget",				playerClearTarget,					METH_VARARGS },
; 2296 : 		{ "SetTarget",					playerSetTarget,					METH_VARARGS },
; 2297 : 		{ "OpenCharacterMenu",			playerOpenCharacterMenu,			METH_VARARGS },
; 2298 : 
; 2299 : 		{ "Update",						playerUpdate,						METH_VARARGS },
; 2300 : 		{ "Render",						playerRender,						METH_VARARGS },
; 2301 : 		{ "Clear",						playerClear,						METH_VARARGS },
; 2302 : 
; 2303 : 		// Party
; 2304 : 		{ "IsPartyMember",				playerIsPartyMember,				METH_VARARGS },
; 2305 : 		{ "IsPartyLeader",				playerIsPartyLeader,				METH_VARARGS },
; 2306 : 		{ "IsPartyLeaderByPID",			playerIsPartyLeaderByPID,			METH_VARARGS },
; 2307 : 		{ "GetPartyMemberHPPercentage",	playerGetPartyMemberHPPercentage,	METH_VARARGS },
; 2308 : 		{ "GetPartyMemberState",		playerGetPartyMemberState,			METH_VARARGS },
; 2309 : 		{ "GetPartyMemberAffects",		playerGetPartyMemberAffects,		METH_VARARGS },
; 2310 : 		{ "RemovePartyMember",			playerRemovePartyMember,			METH_VARARGS },
; 2311 : 		{ "ExitParty",					playerExitParty,					METH_VARARGS },
; 2312 : 
; 2313 : 		// PK Mode
; 2314 : 		{ "GetPKMode",					playerGetPKMode,					METH_VARARGS },
; 2315 : 
; 2316 : 		// Mobile
; 2317 : 		{ "HasMobilePhoneNumber",		playerHasMobilePhoneNumber,			METH_VARARGS },
; 2318 : 
; 2319 : 		// Emotion
; 2320 : 		{ "RegisterEmotionIcon",		playerRegisterEmotionIcon,			METH_VARARGS },
; 2321 : 		{ "GetEmotionIconImage",		playerGetEmotionIconImage,			METH_VARARGS },
; 2322 : 
; 2323 : 		// For System
; 2324 : 		{ "SetWeaponAttackBonusFlag",	playerSetWeaponAttackBonusFlag,		METH_VARARGS },
; 2325 : 		{ "ToggleCoolTime",				playerToggleCoolTime,				METH_VARARGS },
; 2326 : 		{ "ToggleLevelLimit",			playerToggleLevelLimit,				METH_VARARGS },
; 2327 : 		{ "GetTargetVID",				playerGetTargetVID,					METH_VARARGS },
; 2328 : 
; 2329 : 		{ "SetItemData",				playerSetItemData,					METH_VARARGS },
; 2330 : 		{ "SetItemMetinSocket",			playerSetItemMetinSocket,			METH_VARARGS },
; 2331 : 		{ "SetItemAttribute",			playerSetItemAttribute,				METH_VARARGS },
; 2332 : 		{ "SetItemCount",				playerSetItemCount,					METH_VARARGS },
; 2333 : 
; 2334 : 		{ "GetItemLink",				playerGetItemLink,					METH_VARARGS },
; 2335 : 		{ "SlotTypeToInvenType",		playerSlotTypeToInvenType,			METH_VARARGS },
; 2336 : 		{ "SendDragonSoulRefine",		playerSendDragonSoulRefine,			METH_VARARGS },
; 2337 : 
; 2338 : 		{ NULL,							NULL,								NULL },
; 2339 : 	};
; 2340 : 
; 2341 : 	PyObject* poModule = Py_InitModule("player", s_methods);

  00002	68 f5 03 00 00	 push	 1013			; 000003f5H
  00007	6a 00		 push	 0
  00009	6a 00		 push	 0
  0000b	68 00 00 00 00	 push	 OFFSET ?s_methods@?1??initPlayer@@YAXXZ@4PAUPyMethodDef@@A
  00010	68 00 00 00 00	 push	 OFFSET ??_C@_06BALNJMNP@player@
  00015	ff 15 00 00 00
	00		 call	 DWORD PTR __imp__Py_InitModule4

; 2342 :     PyModule_AddIntConstant(poModule, "LEVEL",					POINT_LEVEL);

  0001b	8b 35 00 00 00
	00		 mov	 esi, DWORD PTR __imp__PyModule_AddIntConstant
  00021	8b f8		 mov	 edi, eax
  00023	6a 01		 push	 1
  00025	68 00 00 00 00	 push	 OFFSET ??_C@_05GCEPFMCO@LEVEL@
  0002a	57		 push	 edi
  0002b	ff d6		 call	 esi

; 2343 :     PyModule_AddIntConstant(poModule, "VOICE",					POINT_VOICE);

  0002d	6a 02		 push	 2
  0002f	68 00 00 00 00	 push	 OFFSET ??_C@_05FHIHOFEA@VOICE@
  00034	57		 push	 edi
  00035	ff d6		 call	 esi

; 2344 :     PyModule_AddIntConstant(poModule, "EXP",					POINT_EXP);

  00037	6a 03		 push	 3
  00039	68 00 00 00 00	 push	 OFFSET ??_C@_03KKGFKKLA@EXP@
  0003e	57		 push	 edi
  0003f	ff d6		 call	 esi

; 2345 :     PyModule_AddIntConstant(poModule, "NEXT_EXP",				POINT_NEXT_EXP);

  00041	6a 04		 push	 4
  00043	68 00 00 00 00	 push	 OFFSET ??_C@_08CHGDMADF@NEXT_EXP@
  00048	57		 push	 edi
  00049	ff d6		 call	 esi
  0004b	83 c4 44	 add	 esp, 68			; 00000044H

; 2346 :     PyModule_AddIntConstant(poModule, "HP",						POINT_HP);

  0004e	6a 05		 push	 5
  00050	68 00 00 00 00	 push	 OFFSET ??_C@_02MEIMKHMB@HP@
  00055	57		 push	 edi
  00056	ff d6		 call	 esi

; 2347 :     PyModule_AddIntConstant(poModule, "MAX_HP",					POINT_MAX_HP);

  00058	6a 06		 push	 6
  0005a	68 00 00 00 00	 push	 OFFSET ??_C@_06NMHEPHCD@MAX_HP@
  0005f	57		 push	 edi
  00060	ff d6		 call	 esi

; 2348 :     PyModule_AddIntConstant(poModule, "SP",						POINT_SP);

  00062	6a 07		 push	 7
  00064	68 00 00 00 00	 push	 OFFSET ??_C@_02NEPPOLFA@SP@
  00069	57		 push	 edi
  0006a	ff d6		 call	 esi

; 2349 :     PyModule_AddIntConstant(poModule, "MAX_SP",					POINT_MAX_SP);

  0006c	6a 08		 push	 8
  0006e	68 00 00 00 00	 push	 OFFSET ??_C@_06MMAHLLLC@MAX_SP@
  00073	57		 push	 edi
  00074	ff d6		 call	 esi

; 2350 :     PyModule_AddIntConstant(poModule, "STAMINA",				POINT_STAMINA);

  00076	6a 09		 push	 9
  00078	68 00 00 00 00	 push	 OFFSET ??_C@_07IHPDJFBP@STAMINA@
  0007d	57		 push	 edi
  0007e	ff d6		 call	 esi

; 2351 :     PyModule_AddIntConstant(poModule, "MAX_STAMINA",			POINT_MAX_STAMINA);

  00080	6a 0a		 push	 10			; 0000000aH
  00082	68 00 00 00 00	 push	 OFFSET ??_C@_0M@CHCGLEDD@MAX_STAMINA@
  00087	57		 push	 edi
  00088	ff d6		 call	 esi
  0008a	83 c4 48	 add	 esp, 72			; 00000048H

; 2352 :     PyModule_AddIntConstant(poModule, "ELK",					POINT_GOLD);

  0008d	6a 0b		 push	 11			; 0000000bH
  0008f	68 00 00 00 00	 push	 OFFSET ??_C@_03BIHMGKIG@ELK@
  00094	57		 push	 edi
  00095	ff d6		 call	 esi

; 2353 :     PyModule_AddIntConstant(poModule, "ST",						POINT_ST);

  00097	6a 0c		 push	 12			; 0000000cH
  00099	68 00 00 00 00	 push	 OFFSET ??_C@_02LAJDCOFE@ST@
  0009e	57		 push	 edi
  0009f	ff d6		 call	 esi

; 2354 :     PyModule_AddIntConstant(poModule, "HT",						POINT_HT);

  000a1	6a 0d		 push	 13			; 0000000dH
  000a3	68 00 00 00 00	 push	 OFFSET ??_C@_02KAOAGCMF@HT@
  000a8	57		 push	 edi
  000a9	ff d6		 call	 esi

; 2355 :     PyModule_AddIntConstant(poModule, "DX",						POINT_DX);

  000ab	6a 0e		 push	 14			; 0000000eH
  000ad	68 00 00 00 00	 push	 OFFSET ??_C@_02FEPNEKN@DX@
  000b2	57		 push	 edi
  000b3	ff d6		 call	 esi

; 2356 :     PyModule_AddIntConstant(poModule, "IQ",						POINT_IQ);

  000b5	6a 0f		 push	 15			; 0000000fH
  000b7	68 00 00 00 00	 push	 OFFSET ??_C@_02NMFFPMLH@IQ@
  000bc	57		 push	 edi
  000bd	ff d6		 call	 esi

; 2357 :     PyModule_AddIntConstant(poModule, "ATT_POWER",				POINT_ATT_POWER);

  000bf	6a 10		 push	 16			; 00000010H
  000c1	68 00 00 00 00	 push	 OFFSET ??_C@_09DIGJAPIG@ATT_POWER@
  000c6	57		 push	 edi
  000c7	ff d6		 call	 esi
  000c9	83 c4 48	 add	 esp, 72			; 00000048H

; 2358 : 	PyModule_AddIntConstant(poModule, "ATT_MIN",				POINT_MIN_ATK);

  000cc	6a 1d		 push	 29			; 0000001dH
  000ce	68 00 00 00 00	 push	 OFFSET ??_C@_07PNODGJJO@ATT_MIN@
  000d3	57		 push	 edi
  000d4	ff d6		 call	 esi

; 2359 : 	PyModule_AddIntConstant(poModule, "ATT_MAX",				POINT_MAX_ATK);

  000d6	6a 1e		 push	 30			; 0000001eH
  000d8	68 00 00 00 00	 push	 OFFSET ??_C@_07OPGIINPB@ATT_MAX@
  000dd	57		 push	 edi
  000de	ff d6		 call	 esi

; 2360 : 	PyModule_AddIntConstant(poModule, "MIN_MAGIC_WEP",			POINT_MIN_MAGIC_WEP);

  000e0	68 ca 00 00 00	 push	 202			; 000000caH
  000e5	68 00 00 00 00	 push	 OFFSET ??_C@_0O@CJNCLCGL@MIN_MAGIC_WEP@
  000ea	57		 push	 edi
  000eb	ff d6		 call	 esi

; 2361 : 	PyModule_AddIntConstant(poModule, "MAX_MAGIC_WEP",			POINT_MAX_MAGIC_WEP);

  000ed	68 cb 00 00 00	 push	 203			; 000000cbH
  000f2	68 00 00 00 00	 push	 OFFSET ??_C@_0O@JAPECJBK@MAX_MAGIC_WEP@
  000f7	57		 push	 edi
  000f8	ff d6		 call	 esi

; 2362 :     PyModule_AddIntConstant(poModule, "ATT_SPEED",				POINT_ATT_SPEED);

  000fa	6a 11		 push	 17			; 00000011H
  000fc	68 00 00 00 00	 push	 OFFSET ??_C@_09LKMFFHLI@ATT_SPEED@
  00101	57		 push	 edi
  00102	ff d6		 call	 esi

; 2363 : 	PyModule_AddIntConstant(poModule, "ATT_BONUS",				POINT_ATT_GRADE_BONUS);

  00104	6a 5f		 push	 95			; 0000005fH
  00106	68 00 00 00 00	 push	 OFFSET ??_C@_09FOFLCGDC@ATT_BONUS@
  0010b	57		 push	 edi
  0010c	ff d6		 call	 esi
  0010e	83 c4 48	 add	 esp, 72			; 00000048H

; 2364 :     PyModule_AddIntConstant(poModule, "EVADE_RATE",				POINT_EVADE_RATE);

  00111	6a 12		 push	 18			; 00000012H
  00113	68 00 00 00 00	 push	 OFFSET ??_C@_0L@IPHIKIMB@EVADE_RATE@
  00118	57		 push	 edi
  00119	ff d6		 call	 esi

; 2365 :     PyModule_AddIntConstant(poModule, "MOVING_SPEED",			POINT_MOV_SPEED);

  0011b	6a 13		 push	 19			; 00000013H
  0011d	68 00 00 00 00	 push	 OFFSET ??_C@_0N@KGGLAJKM@MOVING_SPEED@
  00122	57		 push	 edi
  00123	ff d6		 call	 esi

; 2366 :     PyModule_AddIntConstant(poModule, "DEF_GRADE",				POINT_DEF_GRADE);

  00125	6a 14		 push	 20			; 00000014H
  00127	68 00 00 00 00	 push	 OFFSET ??_C@_09KMPFCDFE@DEF_GRADE@
  0012c	57		 push	 edi
  0012d	ff d6		 call	 esi

; 2367 :     PyModule_AddIntConstant(poModule, "DEF_BONUS",				POINT_DEF_GRADE_BONUS);

  0012f	6a 60		 push	 96			; 00000060H
  00131	68 00 00 00 00	 push	 OFFSET ??_C@_09DNFHINBC@DEF_BONUS@
  00136	57		 push	 edi
  00137	ff d6		 call	 esi

; 2368 :     PyModule_AddIntConstant(poModule, "CASTING_SPEED",			POINT_CASTING_SPEED);

  00139	6a 15		 push	 21			; 00000015H
  0013b	68 00 00 00 00	 push	 OFFSET ??_C@_0O@IOLIEEIE@CASTING_SPEED@
  00140	57		 push	 edi
  00141	ff d6		 call	 esi

; 2369 :     PyModule_AddIntConstant(poModule, "MAG_ATT",				POINT_MAGIC_ATT_GRADE);

  00143	6a 16		 push	 22			; 00000016H
  00145	68 00 00 00 00	 push	 OFFSET ??_C@_07PEONMKMN@MAG_ATT@
  0014a	57		 push	 edi
  0014b	ff d6		 call	 esi
  0014d	83 c4 48	 add	 esp, 72			; 00000048H

; 2370 :     PyModule_AddIntConstant(poModule, "MAG_DEF",				POINT_MAGIC_DEF_GRADE);

  00150	6a 17		 push	 23			; 00000017H
  00152	68 00 00 00 00	 push	 OFFSET ??_C@_07KGCDIDGL@MAG_DEF@
  00157	57		 push	 edi
  00158	ff d6		 call	 esi

; 2371 :     PyModule_AddIntConstant(poModule, "EMPIRE_POINT",			POINT_EMPIRE_POINT);

  0015a	6a 18		 push	 24			; 00000018H
  0015c	68 00 00 00 00	 push	 OFFSET ??_C@_0N@JIFCAIPA@EMPIRE_POINT@
  00161	57		 push	 edi
  00162	ff d6		 call	 esi

; 2372 : 	PyModule_AddIntConstant(poModule, "STAT",					POINT_STAT);

  00164	6a 1a		 push	 26			; 0000001aH
  00166	68 00 00 00 00	 push	 OFFSET ??_C@_04KNIOFKKL@STAT@
  0016b	57		 push	 edi
  0016c	ff d6		 call	 esi

; 2373 : 	PyModule_AddIntConstant(poModule, "SKILL_PASSIVE",			POINT_SUB_SKILL);

  0016e	6a 1b		 push	 27			; 0000001bH
  00170	68 00 00 00 00	 push	 OFFSET ??_C@_0O@DGEPJFAK@SKILL_PASSIVE@
  00175	57		 push	 edi
  00176	ff d6		 call	 esi

; 2374 : 	PyModule_AddIntConstant(poModule, "SKILL_SUPPORT",			POINT_SUB_SKILL);

  00178	6a 1b		 push	 27			; 0000001bH
  0017a	68 00 00 00 00	 push	 OFFSET ??_C@_0O@JLNOPGFK@SKILL_SUPPORT@
  0017f	57		 push	 edi
  00180	ff d6		 call	 esi

; 2375 : 	PyModule_AddIntConstant(poModule, "SKILL_ACTIVE",			POINT_SKILL);

  00182	6a 1c		 push	 28			; 0000001cH
  00184	68 00 00 00 00	 push	 OFFSET ??_C@_0N@DNBJLBPA@SKILL_ACTIVE@
  00189	57		 push	 edi
  0018a	ff d6		 call	 esi
  0018c	83 c4 48	 add	 esp, 72			; 00000048H

; 2376 : 	PyModule_AddIntConstant(poModule, "SKILL_HORSE",			POINT_HORSE_SKILL);

  0018f	6a 71		 push	 113			; 00000071H
  00191	68 00 00 00 00	 push	 OFFSET ??_C@_0M@HAFIBGFL@SKILL_HORSE@
  00196	57		 push	 edi
  00197	ff d6		 call	 esi

; 2377 : 	PyModule_AddIntConstant(poModule, "PLAYTIME",				POINT_PLAYTIME);

  00199	6a 1f		 push	 31			; 0000001fH
  0019b	68 00 00 00 00	 push	 OFFSET ??_C@_08CKIIBBI@PLAYTIME@
  001a0	57		 push	 edi
  001a1	ff d6		 call	 esi

; 2378 : 	PyModule_AddIntConstant(poModule, "BOW_DISTANCE",			POINT_BOW_DISTANCE);

  001a3	6a 22		 push	 34			; 00000022H
  001a5	68 00 00 00 00	 push	 OFFSET ??_C@_0N@KHDDEEFG@BOW_DISTANCE@
  001aa	57		 push	 edi
  001ab	ff d6		 call	 esi

; 2379 : 	PyModule_AddIntConstant(poModule, "HP_RECOVERY",			POINT_HP_RECOVERY);

  001ad	6a 23		 push	 35			; 00000023H
  001af	68 00 00 00 00	 push	 OFFSET ??_C@_0M@CLAIAEPM@HP_RECOVERY@
  001b4	57		 push	 edi
  001b5	ff d6		 call	 esi

; 2380 : 	PyModule_AddIntConstant(poModule, "SP_RECOVERY",			POINT_SP_RECOVERY);

  001b7	6a 24		 push	 36			; 00000024H
  001b9	68 00 00 00 00	 push	 OFFSET ??_C@_0M@FGICENAO@SP_RECOVERY@
  001be	57		 push	 edi
  001bf	ff d6		 call	 esi

; 2381 : 	PyModule_AddIntConstant(poModule, "ATTACKER_BONUS",			POINT_PARTY_ATT_GRADE);

  001c1	6a 5b		 push	 91			; 0000005bH
  001c3	68 00 00 00 00	 push	 OFFSET ??_C@_0P@GAAMLPFK@ATTACKER_BONUS@
  001c8	57		 push	 edi
  001c9	ff d6		 call	 esi
  001cb	83 c4 48	 add	 esp, 72			; 00000048H

; 2382 :     PyModule_AddIntConstant(poModule, "MAX_NUM",				POINT_MAX_NUM);

  001ce	68 ff 00 00 00	 push	 255			; 000000ffH
  001d3	68 00 00 00 00	 push	 OFFSET ??_C@_07MEMMKJPK@MAX_NUM@
  001d8	57		 push	 edi
  001d9	ff d6		 call	 esi

; 2383 : 	////
; 2384 : 	PyModule_AddIntConstant(poModule, "POINT_CRITICAL_PCT",		POINT_CRITICAL_PCT);

  001db	6a 28		 push	 40			; 00000028H
  001dd	68 00 00 00 00	 push	 OFFSET ??_C@_0BD@CPEECKKP@POINT_CRITICAL_PCT@
  001e2	57		 push	 edi
  001e3	ff d6		 call	 esi

; 2385 : 	PyModule_AddIntConstant(poModule, "POINT_PENETRATE_PCT",	POINT_PENETRATE_PCT);

  001e5	6a 29		 push	 41			; 00000029H
  001e7	68 00 00 00 00	 push	 OFFSET ??_C@_0BE@BGNEFMNJ@POINT_PENETRATE_PCT@
  001ec	57		 push	 edi
  001ed	ff d6		 call	 esi

; 2386 : 	PyModule_AddIntConstant(poModule, "POINT_MALL_ATTBONUS",	POINT_MALL_ATTBONUS);

  001ef	6a 72		 push	 114			; 00000072H
  001f1	68 00 00 00 00	 push	 OFFSET ??_C@_0BE@FDGMKOPN@POINT_MALL_ATTBONUS@
  001f6	57		 push	 edi
  001f7	ff d6		 call	 esi

; 2387 : 	PyModule_AddIntConstant(poModule, "POINT_MALL_DEFBONUS",	POINT_MALL_DEFBONUS);

  001f9	6a 73		 push	 115			; 00000073H
  001fb	68 00 00 00 00	 push	 OFFSET ??_C@_0BE@FJKLFHOA@POINT_MALL_DEFBONUS@
  00200	57		 push	 edi
  00201	ff d6		 call	 esi

; 2388 : 	PyModule_AddIntConstant(poModule, "POINT_MALL_EXPBONUS",	POINT_MALL_EXPBONUS);

  00203	6a 74		 push	 116			; 00000074H
  00205	68 00 00 00 00	 push	 OFFSET ??_C@_0BE@KNGAMOKN@POINT_MALL_EXPBONUS@
  0020a	57		 push	 edi
  0020b	ff d6		 call	 esi
  0020d	83 c4 48	 add	 esp, 72			; 00000048H

; 2389 : 	PyModule_AddIntConstant(poModule, "POINT_MALL_ITEMBONUS",	POINT_MALL_ITEMBONUS);

  00210	6a 75		 push	 117			; 00000075H
  00212	68 00 00 00 00	 push	 OFFSET ??_C@_0BF@FCMHLHC@POINT_MALL_ITEMBONUS@
  00217	57		 push	 edi
  00218	ff d6		 call	 esi

; 2390 : 	PyModule_AddIntConstant(poModule, "POINT_MALL_GOLDBONUS",	POINT_MALL_GOLDBONUS);

  0021a	6a 76		 push	 118			; 00000076H
  0021c	68 00 00 00 00	 push	 OFFSET ??_C@_0BF@LPKHMJJF@POINT_MALL_GOLDBONUS@
  00221	57		 push	 edi
  00222	ff d6		 call	 esi

; 2391 : 	PyModule_AddIntConstant(poModule, "POINT_MAX_HP_PCT",		POINT_MAX_HP_PCT);

  00224	6a 77		 push	 119			; 00000077H
  00226	68 00 00 00 00	 push	 OFFSET ??_C@_0BB@OCODMABI@POINT_MAX_HP_PCT@
  0022b	57		 push	 edi
  0022c	ff d6		 call	 esi

; 2392 : 	PyModule_AddIntConstant(poModule, "POINT_MAX_SP_PCT",		POINT_MAX_SP_PCT);

  0022e	6a 78		 push	 120			; 00000078H
  00230	68 00 00 00 00	 push	 OFFSET ??_C@_0BB@IHDKAICM@POINT_MAX_SP_PCT@
  00235	57		 push	 edi
  00236	ff d6		 call	 esi

; 2393 : 
; 2394 : 	PyModule_AddIntConstant(poModule, "POINT_SKILL_DAMAGE_BONUS",		POINT_SKILL_DAMAGE_BONUS);

  00238	6a 79		 push	 121			; 00000079H
  0023a	68 00 00 00 00	 push	 OFFSET ??_C@_0BJ@PGEFOCDG@POINT_SKILL_DAMAGE_BONUS@
  0023f	57		 push	 edi
  00240	ff d6		 call	 esi

; 2395 : 	PyModule_AddIntConstant(poModule, "POINT_NORMAL_HIT_DAMAGE_BONUS",		POINT_NORMAL_HIT_DAMAGE_BONUS);

  00242	6a 7a		 push	 122			; 0000007aH
  00244	68 00 00 00 00	 push	 OFFSET ??_C@_0BO@GNDIKOOF@POINT_NORMAL_HIT_DAMAGE_BONUS@
  00249	57		 push	 edi
  0024a	ff d6		 call	 esi
  0024c	83 c4 48	 add	 esp, 72			; 00000048H

; 2396 : 	PyModule_AddIntConstant(poModule, "POINT_SKILL_DEFEND_BONUS",		POINT_SKILL_DEFEND_BONUS);

  0024f	6a 7b		 push	 123			; 0000007bH
  00251	68 00 00 00 00	 push	 OFFSET ??_C@_0BJ@LPIAEILC@POINT_SKILL_DEFEND_BONUS@
  00256	57		 push	 edi
  00257	ff d6		 call	 esi

; 2397 : 	PyModule_AddIntConstant(poModule, "POINT_NORMAL_HIT_DEFEND_BONUS",		POINT_NORMAL_HIT_DEFEND_BONUS);

  00259	6a 7c		 push	 124			; 0000007cH
  0025b	68 00 00 00 00	 push	 OFFSET ??_C@_0BO@CEPNAEGB@POINT_NORMAL_HIT_DEFEND_BONUS@
  00260	57		 push	 edi
  00261	ff d6		 call	 esi

; 2398 : 	PyModule_AddIntConstant(poModule, "POINT_PC_BANG_EXP_BONUS",		POINT_PC_BANG_EXP_BONUS);

  00263	6a 7d		 push	 125			; 0000007dH
  00265	68 00 00 00 00	 push	 OFFSET ??_C@_0BI@BAKJJELL@POINT_PC_BANG_EXP_BONUS@
  0026a	57		 push	 edi
  0026b	ff d6		 call	 esi

; 2399 : 	PyModule_AddIntConstant(poModule, "POINT_PC_BANG_DROP_BONUS",		POINT_PC_BANG_DROP_BONUS);

  0026d	6a 7e		 push	 126			; 0000007eH
  0026f	68 00 00 00 00	 push	 OFFSET ??_C@_0BJ@LFKCHGEO@POINT_PC_BANG_DROP_BONUS@
  00274	57		 push	 edi
  00275	ff d6		 call	 esi

; 2400 : 
; 2401 : 	PyModule_AddIntConstant(poModule, "ENERGY",		POINT_ENERGY);

  00277	68 80 00 00 00	 push	 128			; 00000080H
  0027c	68 00 00 00 00	 push	 OFFSET ??_C@_06KOEJHMAL@ENERGY@
  00281	57		 push	 edi
  00282	ff d6		 call	 esi

; 2402 : 	PyModule_AddIntConstant(poModule, "ENERGY_END_TIME",		POINT_ENERGY_END_TIME);

  00284	68 81 00 00 00	 push	 129			; 00000081H
  00289	68 00 00 00 00	 push	 OFFSET ??_C@_0BA@PIHNCBED@ENERGY_END_TIME@
  0028e	57		 push	 edi
  0028f	ff d6		 call	 esi
  00291	83 c4 48	 add	 esp, 72			; 00000048H

; 2403 : 
; 2404 :     PyModule_AddIntConstant(poModule, "SKILL_GRADE_NORMAL",			CPythonPlayer::SKILL_NORMAL);

  00294	6a 00		 push	 0
  00296	68 00 00 00 00	 push	 OFFSET ??_C@_0BD@LAKFNFGD@SKILL_GRADE_NORMAL@
  0029b	57		 push	 edi
  0029c	ff d6		 call	 esi

; 2405 :     PyModule_AddIntConstant(poModule, "SKILL_GRADE_MASTER",			CPythonPlayer::SKILL_MASTER);

  0029e	6a 01		 push	 1
  002a0	68 00 00 00 00	 push	 OFFSET ??_C@_0BD@HIHOAICI@SKILL_GRADE_MASTER@
  002a5	57		 push	 edi
  002a6	ff d6		 call	 esi

; 2406 :     PyModule_AddIntConstant(poModule, "SKILL_GRADE_GRAND_MASTER",	CPythonPlayer::SKILL_GRAND_MASTER);

  002a8	6a 02		 push	 2
  002aa	68 00 00 00 00	 push	 OFFSET ??_C@_0BJ@CFOEIGCN@SKILL_GRADE_GRAND_MASTER@
  002af	57		 push	 edi
  002b0	ff d6		 call	 esi

; 2407 :     PyModule_AddIntConstant(poModule, "SKILL_GRADE_PERFECT_MASTER",	CPythonPlayer::SKILL_PERFECT_MASTER);

  002b2	6a 03		 push	 3
  002b4	68 00 00 00 00	 push	 OFFSET ??_C@_0BL@DCIPLDCA@SKILL_GRADE_PERFECT_MASTER@
  002b9	57		 push	 edi
  002ba	ff d6		 call	 esi

; 2408 : 
; 2409 : 	PyModule_AddIntConstant(poModule, "CATEGORY_ACTIVE",		CPythonPlayer::CATEGORY_ACTIVE);

  002bc	6a 01		 push	 1
  002be	68 00 00 00 00	 push	 OFFSET ??_C@_0BA@LCKKFCJM@CATEGORY_ACTIVE@
  002c3	57		 push	 edi
  002c4	ff d6		 call	 esi

; 2410 : 	PyModule_AddIntConstant(poModule, "CATEGORY_PASSIVE",		CPythonPlayer::CATEGORY_PASSIVE);

  002c6	6a 02		 push	 2
  002c8	68 00 00 00 00	 push	 OFFSET ??_C@_0BB@HCMEALJK@CATEGORY_PASSIVE@
  002cd	57		 push	 edi
  002ce	ff d6		 call	 esi
  002d0	83 c4 48	 add	 esp, 72			; 00000048H

; 2411 : 
; 2412 : 	PyModule_AddIntConstant(poModule, "INVENTORY_PAGE_SIZE",	c_Inventory_Page_Size);

  002d3	6a 2d		 push	 45			; 0000002dH
  002d5	68 00 00 00 00	 push	 OFFSET ??_C@_0BE@CEBDMLGH@INVENTORY_PAGE_SIZE@
  002da	57		 push	 edi
  002db	ff d6		 call	 esi

; 2413 : 	PyModule_AddIntConstant(poModule, "INVENTORY_PAGE_COUNT",	c_Inventory_Page_Count);

  002dd	6a 04		 push	 4
  002df	68 00 00 00 00	 push	 OFFSET ??_C@_0BF@NFIFHHOM@INVENTORY_PAGE_COUNT@
  002e4	57		 push	 edi
  002e5	ff d6		 call	 esi

; 2414 : 	PyModule_AddIntConstant(poModule, "INVENTORY_SLOT_COUNT",	c_Inventory_Count);

  002e7	68 02 01 00 00	 push	 258			; 00000102H
  002ec	68 00 00 00 00	 push	 OFFSET ??_C@_0BF@LCFAAJPA@INVENTORY_SLOT_COUNT@
  002f1	57		 push	 edi
  002f2	ff d6		 call	 esi

; 2415 : 	PyModule_AddIntConstant(poModule, "EQUIPMENT_SLOT_START",	c_Equipment_Start);

  002f4	68 b4 00 00 00	 push	 180			; 000000b4H
  002f9	68 00 00 00 00	 push	 OFFSET ??_C@_0BF@HJEBPPMM@EQUIPMENT_SLOT_START@
  002fe	57		 push	 edi
  002ff	ff d6		 call	 esi

; 2416 : 	PyModule_AddIntConstant(poModule, "EQUIPMENT_PAGE_COUNT",	c_Equipment_Count);

  00301	6a 0c		 push	 12			; 0000000cH
  00303	68 00 00 00 00	 push	 OFFSET ??_C@_0BF@MADFLPAE@EQUIPMENT_PAGE_COUNT@
  00308	57		 push	 edi
  00309	ff d6		 call	 esi

; 2417 : 
; 2418 : #ifdef ENABLE_NEW_EQUIPMENT_SYSTEM
; 2419 : 	PyModule_AddIntConstant(poModule, "NEW_EQUIPMENT_SLOT_START",	c_New_Equipment_Start);

  0030b	68 c9 00 00 00	 push	 201			; 000000c9H
  00310	68 00 00 00 00	 push	 OFFSET ??_C@_0BJ@COKKCHPJ@NEW_EQUIPMENT_SLOT_START@
  00315	57		 push	 edi
  00316	ff d6		 call	 esi
  00318	83 c4 48	 add	 esp, 72			; 00000048H

; 2420 : 	PyModule_AddIntConstant(poModule, "NEW_EQUIPMENT_SLOT_COUNT",	c_New_Equipment_Count);

  0031b	6a 03		 push	 3
  0031d	68 00 00 00 00	 push	 OFFSET ??_C@_0BJ@PAALBJCN@NEW_EQUIPMENT_SLOT_COUNT@
  00322	57		 push	 edi
  00323	ff d6		 call	 esi

; 2421 : #endif
; 2422 : 
; 2423 : 	PyModule_AddIntConstant(poModule, "MBF_SKILL",	CPythonPlayer::MBF_SKILL);

  00325	6a 04		 push	 4
  00327	68 00 00 00 00	 push	 OFFSET ??_C@_09NLFDBCDH@MBF_SKILL@
  0032c	57		 push	 edi
  0032d	ff d6		 call	 esi

; 2424 : 	PyModule_AddIntConstant(poModule, "MBF_ATTACK",	CPythonPlayer::MBF_ATTACK);

  0032f	6a 03		 push	 3
  00331	68 00 00 00 00	 push	 OFFSET ??_C@_0L@MIGMJBKJ@MBF_ATTACK@
  00336	57		 push	 edi
  00337	ff d6		 call	 esi

; 2425 : 	PyModule_AddIntConstant(poModule, "MBF_CAMERA",	CPythonPlayer::MBF_CAMERA);

  00339	6a 02		 push	 2
  0033b	68 00 00 00 00	 push	 OFFSET ??_C@_0L@JHBFAMB@MBF_CAMERA@
  00340	57		 push	 edi
  00341	ff d6		 call	 esi

; 2426 : 	PyModule_AddIntConstant(poModule, "MBF_SMART",	CPythonPlayer::MBF_SMART);

  00343	6a 00		 push	 0
  00345	68 00 00 00 00	 push	 OFFSET ??_C@_09FAENJFL@MBF_SMART@
  0034a	57		 push	 edi
  0034b	ff d6		 call	 esi

; 2427 : 	PyModule_AddIntConstant(poModule, "MBF_MOVE",	CPythonPlayer::MBF_MOVE);

  0034d	6a 01		 push	 1
  0034f	68 00 00 00 00	 push	 OFFSET ??_C@_08BLLANCB@MBF_MOVE@
  00354	57		 push	 edi
  00355	ff d6		 call	 esi
  00357	83 c4 48	 add	 esp, 72			; 00000048H

; 2428 : 	PyModule_AddIntConstant(poModule, "MBF_AUTO",	CPythonPlayer::MBF_AUTO);

  0035a	6a 05		 push	 5
  0035c	68 00 00 00 00	 push	 OFFSET ??_C@_08CIEGLDP@MBF_AUTO@
  00361	57		 push	 edi
  00362	ff d6		 call	 esi

; 2429 : 	PyModule_AddIntConstant(poModule, "MBS_PRESS",	CPythonPlayer::MBS_PRESS);

  00364	6a 01		 push	 1
  00366	68 00 00 00 00	 push	 OFFSET ??_C@_09JEJKPPEO@MBS_PRESS@
  0036b	57		 push	 edi
  0036c	ff d6		 call	 esi

; 2430 : 	PyModule_AddIntConstant(poModule, "MBS_CLICK",	CPythonPlayer::MBS_CLICK);

  0036e	6a 00		 push	 0
  00370	68 00 00 00 00	 push	 OFFSET ??_C@_09BKODCCAJ@MBS_CLICK@
  00375	57		 push	 edi
  00376	ff d6		 call	 esi

; 2431 : 	PyModule_AddIntConstant(poModule, "MBT_RIGHT",	CPythonPlayer::MBT_RIGHT);

  00378	6a 01		 push	 1
  0037a	68 00 00 00 00	 push	 OFFSET ??_C@_09DBJMODBC@MBT_RIGHT@
  0037f	57		 push	 edi
  00380	ff d6		 call	 esi

; 2432 : 	PyModule_AddIntConstant(poModule, "MBT_LEFT",	CPythonPlayer::MBT_LEFT);

  00382	6a 00		 push	 0
  00384	68 00 00 00 00	 push	 OFFSET ??_C@_08OMNIMJHC@MBT_LEFT@
  00389	57		 push	 edi
  0038a	ff d6		 call	 esi

; 2433 : 
; 2434 : 	// Public code with server
; 2435 : 	PyModule_AddIntConstant(poModule, "SLOT_TYPE_NONE",						SLOT_TYPE_NONE);

  0038c	6a 00		 push	 0
  0038e	68 00 00 00 00	 push	 OFFSET ??_C@_0P@JBDPGPGM@SLOT_TYPE_NONE@
  00393	57		 push	 edi
  00394	ff d6		 call	 esi
  00396	83 c4 48	 add	 esp, 72			; 00000048H

; 2436 : 	PyModule_AddIntConstant(poModule, "SLOT_TYPE_INVENTORY",				SLOT_TYPE_INVENTORY);

  00399	6a 01		 push	 1
  0039b	68 00 00 00 00	 push	 OFFSET ??_C@_0BE@BNOEBHPE@SLOT_TYPE_INVENTORY@
  003a0	57		 push	 edi
  003a1	ff d6		 call	 esi

; 2437 : 	PyModule_AddIntConstant(poModule, "SLOT_TYPE_SKILL",					SLOT_TYPE_SKILL);

  003a3	6a 02		 push	 2
  003a5	68 00 00 00 00	 push	 OFFSET ??_C@_0BA@MAJHKGKG@SLOT_TYPE_SKILL@
  003aa	57		 push	 edi
  003ab	ff d6		 call	 esi

; 2438 : 	// Special indecies for client
; 2439 : 	PyModule_AddIntConstant(poModule, "SLOT_TYPE_SHOP",						SLOT_TYPE_SHOP);

  003ad	6a 04		 push	 4
  003af	68 00 00 00 00	 push	 OFFSET ??_C@_0P@KCOPIIMF@SLOT_TYPE_SHOP@
  003b4	57		 push	 edi
  003b5	ff d6		 call	 esi

; 2440 : 	PyModule_AddIntConstant(poModule, "SLOT_TYPE_EXCHANGE_OWNER",			SLOT_TYPE_EXCHANGE_OWNER);

  003b7	6a 05		 push	 5
  003b9	68 00 00 00 00	 push	 OFFSET ??_C@_0BJ@DBNHPJKE@SLOT_TYPE_EXCHANGE_OWNER@
  003be	57		 push	 edi
  003bf	ff d6		 call	 esi

; 2441 : 	PyModule_AddIntConstant(poModule, "SLOT_TYPE_EXCHANGE_TARGET",			SLOT_TYPE_EXCHANGE_TARGET);

  003c1	6a 06		 push	 6
  003c3	68 00 00 00 00	 push	 OFFSET ??_C@_0BK@KJHLAGBH@SLOT_TYPE_EXCHANGE_TARGET@
  003c8	57		 push	 edi
  003c9	ff d6		 call	 esi

; 2442 : 	PyModule_AddIntConstant(poModule, "SLOT_TYPE_QUICK_SLOT",				SLOT_TYPE_QUICK_SLOT);

  003cb	6a 07		 push	 7
  003cd	68 00 00 00 00	 push	 OFFSET ??_C@_0BF@CPPFMLHN@SLOT_TYPE_QUICK_SLOT@
  003d2	57		 push	 edi
  003d3	ff d6		 call	 esi
  003d5	83 c4 48	 add	 esp, 72			; 00000048H

; 2443 : 	PyModule_AddIntConstant(poModule, "SLOT_TYPE_SAFEBOX",					SLOT_TYPE_SAFEBOX);

  003d8	6a 08		 push	 8
  003da	68 00 00 00 00	 push	 OFFSET ??_C@_0BC@HGKFDIFN@SLOT_TYPE_SAFEBOX@
  003df	57		 push	 edi
  003e0	ff d6		 call	 esi

; 2444 : 	PyModule_AddIntConstant(poModule, "SLOT_TYPE_PRIVATE_SHOP",				SLOT_TYPE_PRIVATE_SHOP);

  003e2	6a 09		 push	 9
  003e4	68 00 00 00 00	 push	 OFFSET ??_C@_0BH@MJAEADNE@SLOT_TYPE_PRIVATE_SHOP@
  003e9	57		 push	 edi
  003ea	ff d6		 call	 esi

; 2445 : 	PyModule_AddIntConstant(poModule, "SLOT_TYPE_MALL",						SLOT_TYPE_MALL);

  003ec	6a 0a		 push	 10			; 0000000aH
  003ee	68 00 00 00 00	 push	 OFFSET ??_C@_0P@OEAGANKI@SLOT_TYPE_MALL@
  003f3	57		 push	 edi
  003f4	ff d6		 call	 esi

; 2446 : 	PyModule_AddIntConstant(poModule, "SLOT_TYPE_EMOTION",					SLOT_TYPE_EMOTION);

  003f6	6a 03		 push	 3
  003f8	68 00 00 00 00	 push	 OFFSET ??_C@_0BC@LKMHLHKJ@SLOT_TYPE_EMOTION@
  003fd	57		 push	 edi
  003fe	ff d6		 call	 esi

; 2447 : 	PyModule_AddIntConstant(poModule, "SLOT_TYPE_DRAGON_SOUL_INVENTORY",	SLOT_TYPE_DRAGON_SOUL_INVENTORY);

  00400	6a 0b		 push	 11			; 0000000bH
  00402	68 00 00 00 00	 push	 OFFSET ??_C@_0CA@FHKIPOOP@SLOT_TYPE_DRAGON_SOUL_INVENTORY@
  00407	57		 push	 edi
  00408	ff d6		 call	 esi

; 2448 : 
; 2449 : 	PyModule_AddIntConstant(poModule, "RESERVED_WINDOW",					RESERVED_WINDOW);

  0040a	6a 00		 push	 0
  0040c	68 00 00 00 00	 push	 OFFSET ??_C@_0BA@NKAFFIGF@RESERVED_WINDOW@
  00411	57		 push	 edi
  00412	ff d6		 call	 esi
  00414	83 c4 48	 add	 esp, 72			; 00000048H

; 2450 : 	PyModule_AddIntConstant(poModule, "INVENTORY",							INVENTORY);

  00417	6a 01		 push	 1
  00419	68 00 00 00 00	 push	 OFFSET ??_C@_09NCAHJFFG@INVENTORY@
  0041e	57		 push	 edi
  0041f	ff d6		 call	 esi

; 2451 : 	PyModule_AddIntConstant(poModule, "EQUIPMENT",							EQUIPMENT);

  00421	6a 02		 push	 2
  00423	68 00 00 00 00	 push	 OFFSET ??_C@_09GJGOMHMK@EQUIPMENT@
  00428	57		 push	 edi
  00429	ff d6		 call	 esi

; 2452 : 	PyModule_AddIntConstant(poModule, "SAFEBOX",							SAFEBOX);

  0042b	6a 03		 push	 3
  0042d	68 00 00 00 00	 push	 OFFSET ??_C@_07NCKDBJCB@SAFEBOX@
  00432	57		 push	 edi
  00433	ff d6		 call	 esi

; 2453 : 	PyModule_AddIntConstant(poModule, "MALL",								MALL);

  00435	6a 04		 push	 4
  00437	68 00 00 00 00	 push	 OFFSET ??_C@_04JPFKNPOP@MALL@
  0043c	57		 push	 edi
  0043d	ff d6		 call	 esi

; 2454 : 	PyModule_AddIntConstant(poModule, "DRAGON_SOUL_INVENTORY",				DRAGON_SOUL_INVENTORY);

  0043f	6a 05		 push	 5
  00441	68 00 00 00 00	 push	 OFFSET ??_C@_0BG@FHEDCCNN@DRAGON_SOUL_INVENTORY@
  00446	57		 push	 edi
  00447	ff d6		 call	 esi

; 2455 : 	PyModule_AddIntConstant(poModule, "GROUND",								GROUND);

  00449	6a 06		 push	 6
  0044b	68 00 00 00 00	 push	 OFFSET ??_C@_06GKBINIEJ@GROUND@
  00450	57		 push	 edi
  00451	ff d6		 call	 esi
  00453	83 c4 48	 add	 esp, 72			; 00000048H

; 2456 : 
; 2457 : 	PyModule_AddIntConstant(poModule, "ITEM_MONEY",					-1);

  00456	6a ff		 push	 -1
  00458	68 00 00 00 00	 push	 OFFSET ??_C@_0L@HFAEBHHD@ITEM_MONEY@
  0045d	57		 push	 edi
  0045e	ff d6		 call	 esi

; 2458 : 
; 2459 : 	PyModule_AddIntConstant(poModule, "SKILL_SLOT_COUNT",			SKILL_MAX_NUM);

  00460	68 ff 00 00 00	 push	 255			; 000000ffH
  00465	68 00 00 00 00	 push	 OFFSET ??_C@_0BB@IOEKBHAE@SKILL_SLOT_COUNT@
  0046a	57		 push	 edi
  0046b	ff d6		 call	 esi

; 2460 : 
; 2461 : 	PyModule_AddIntConstant(poModule, "EFFECT_PICK",				CPythonPlayer::EFFECT_PICK);

  0046d	6a 00		 push	 0
  0046f	68 00 00 00 00	 push	 OFFSET ??_C@_0M@CHLINENA@EFFECT_PICK@
  00474	57		 push	 edi
  00475	ff d6		 call	 esi

; 2462 : 
; 2463 : 	PyModule_AddIntConstant(poModule, "METIN_SOCKET_TYPE_NONE",					CPythonPlayer::METIN_SOCKET_TYPE_NONE);

  00477	6a 00		 push	 0
  00479	68 00 00 00 00	 push	 OFFSET ??_C@_0BH@FCKCIMBH@METIN_SOCKET_TYPE_NONE@
  0047e	57		 push	 edi
  0047f	ff d6		 call	 esi

; 2464 : 	PyModule_AddIntConstant(poModule, "METIN_SOCKET_TYPE_SILVER",				CPythonPlayer::METIN_SOCKET_TYPE_SILVER);

  00481	6a 01		 push	 1
  00483	68 00 00 00 00	 push	 OFFSET ??_C@_0BJ@PHGNNMMA@METIN_SOCKET_TYPE_SILVER@
  00488	57		 push	 edi
  00489	ff d6		 call	 esi

; 2465 : 	PyModule_AddIntConstant(poModule, "METIN_SOCKET_TYPE_GOLD",					CPythonPlayer::METIN_SOCKET_TYPE_GOLD);

  0048b	6a 02		 push	 2
  0048d	68 00 00 00 00	 push	 OFFSET ??_C@_0BH@EFCNALEJ@METIN_SOCKET_TYPE_GOLD@
  00492	57		 push	 edi
  00493	ff d6		 call	 esi
  00495	83 c4 48	 add	 esp, 72			; 00000048H

; 2466 : 	PyModule_AddIntConstant(poModule, "METIN_SOCKET_MAX_NUM",					ITEM_SOCKET_SLOT_MAX_NUM);

  00498	6a 03		 push	 3
  0049a	68 00 00 00 00	 push	 OFFSET ??_C@_0BF@HOKBLOCN@METIN_SOCKET_MAX_NUM@
  0049f	57		 push	 edi
  004a0	ff d6		 call	 esi

; 2467 : 	PyModule_AddIntConstant(poModule, "ATTRIBUTE_SLOT_MAX_NUM",					ITEM_ATTRIBUTE_SLOT_MAX_NUM);

  004a2	6a 07		 push	 7
  004a4	68 00 00 00 00	 push	 OFFSET ??_C@_0BH@BPEONNLD@ATTRIBUTE_SLOT_MAX_NUM@
  004a9	57		 push	 edi
  004aa	ff d6		 call	 esi

; 2468 : 
; 2469 : 	PyModule_AddIntConstant(poModule, "REFINE_CANT",							REFINE_CANT);

  004ac	6a 00		 push	 0
  004ae	68 00 00 00 00	 push	 OFFSET ??_C@_0M@FNDEJPGN@REFINE_CANT@
  004b3	57		 push	 edi
  004b4	ff d6		 call	 esi

; 2470 : 	PyModule_AddIntConstant(poModule, "REFINE_OK",								REFINE_OK);

  004b6	6a 01		 push	 1
  004b8	68 00 00 00 00	 push	 OFFSET ??_C@_09FFJEIDJG@REFINE_OK@
  004bd	57		 push	 edi
  004be	ff d6		 call	 esi

; 2471 : 	PyModule_AddIntConstant(poModule, "REFINE_ALREADY_MAX_SOCKET_COUNT",		REFINE_ALREADY_MAX_SOCKET_COUNT);

  004c0	6a 02		 push	 2
  004c2	68 00 00 00 00	 push	 OFFSET ??_C@_0CA@CPLGFHBD@REFINE_ALREADY_MAX_SOCKET_COUNT@
  004c7	57		 push	 edi
  004c8	ff d6		 call	 esi

; 2472 : 	PyModule_AddIntConstant(poModule, "REFINE_NEED_MORE_GOOD_SCROLL",			REFINE_NEED_MORE_GOOD_SCROLL);

  004ca	6a 03		 push	 3
  004cc	68 00 00 00 00	 push	 OFFSET ??_C@_0BN@FMBLMMOD@REFINE_NEED_MORE_GOOD_SCROLL@
  004d1	57		 push	 edi
  004d2	ff d6		 call	 esi
  004d4	83 c4 48	 add	 esp, 72			; 00000048H

; 2473 : 	PyModule_AddIntConstant(poModule, "REFINE_CANT_MAKE_SOCKET_ITEM",			REFINE_CANT_MAKE_SOCKET_ITEM);

  004d7	6a 04		 push	 4
  004d9	68 00 00 00 00	 push	 OFFSET ??_C@_0BN@JPDLJDPD@REFINE_CANT_MAKE_SOCKET_ITEM@
  004de	57		 push	 edi
  004df	ff d6		 call	 esi

; 2474 : 	PyModule_AddIntConstant(poModule, "REFINE_NOT_NEXT_GRADE_ITEM",				REFINE_NOT_NEXT_GRADE_ITEM);

  004e1	6a 05		 push	 5
  004e3	68 00 00 00 00	 push	 OFFSET ??_C@_0BL@EILCCEPE@REFINE_NOT_NEXT_GRADE_ITEM@
  004e8	57		 push	 edi
  004e9	ff d6		 call	 esi

; 2475 : 	PyModule_AddIntConstant(poModule, "REFINE_CANT_REFINE_METIN_TO_EQUIPMENT",	REFINE_CANT_REFINE_METIN_TO_EQUIPMENT);

  004eb	6a 06		 push	 6
  004ed	68 00 00 00 00	 push	 OFFSET ??_C@_0CG@LFLLDFCE@REFINE_CANT_REFINE_METIN_TO_EQU@
  004f2	57		 push	 edi
  004f3	ff d6		 call	 esi

; 2476 : 	PyModule_AddIntConstant(poModule, "REFINE_CANT_REFINE_ROD",					REFINE_CANT_REFINE_ROD);

  004f5	6a 07		 push	 7
  004f7	68 00 00 00 00	 push	 OFFSET ??_C@_0BH@OENPPLJB@REFINE_CANT_REFINE_ROD@
  004fc	57		 push	 edi
  004fd	ff d6		 call	 esi

; 2477 : 	PyModule_AddIntConstant(poModule, "ATTACH_METIN_CANT",						ATTACH_METIN_CANT);

  004ff	6a 00		 push	 0
  00501	68 00 00 00 00	 push	 OFFSET ??_C@_0BC@CBCJMHP@ATTACH_METIN_CANT@
  00506	57		 push	 edi
  00507	ff d6		 call	 esi

; 2478 : 	PyModule_AddIntConstant(poModule, "ATTACH_METIN_OK",						ATTACH_METIN_OK);

  00509	6a 01		 push	 1
  0050b	68 00 00 00 00	 push	 OFFSET ??_C@_0BA@HOJAFGB@ATTACH_METIN_OK@
  00510	57		 push	 edi
  00511	ff d6		 call	 esi
  00513	83 c4 48	 add	 esp, 72			; 00000048H

; 2479 : 	PyModule_AddIntConstant(poModule, "ATTACH_METIN_NOT_MATCHABLE_ITEM",		ATTACH_METIN_NOT_MATCHABLE_ITEM);

  00516	6a 02		 push	 2
  00518	68 00 00 00 00	 push	 OFFSET ??_C@_0CA@OFAKGLFM@ATTACH_METIN_NOT_MATCHABLE_ITEM@
  0051d	57		 push	 edi
  0051e	ff d6		 call	 esi

; 2480 : 	PyModule_AddIntConstant(poModule, "ATTACH_METIN_NO_MATCHABLE_SOCKET",		ATTACH_METIN_NO_MATCHABLE_SOCKET);

  00520	6a 03		 push	 3
  00522	68 00 00 00 00	 push	 OFFSET ??_C@_0CB@MAILDNNI@ATTACH_METIN_NO_MATCHABLE_SOCKE@
  00527	57		 push	 edi
  00528	ff d6		 call	 esi

; 2481 : 	PyModule_AddIntConstant(poModule, "ATTACH_METIN_NOT_EXIST_GOLD_SOCKET",		ATTACH_METIN_NOT_EXIST_GOLD_SOCKET);

  0052a	6a 04		 push	 4
  0052c	68 00 00 00 00	 push	 OFFSET ??_C@_0CD@JNOPKOFJ@ATTACH_METIN_NOT_EXIST_GOLD_SOC@
  00531	57		 push	 edi
  00532	ff d6		 call	 esi

; 2482 : 	PyModule_AddIntConstant(poModule, "ATTACH_METIN_CANT_ATTACH_TO_EQUIPMENT",	ATTACH_METIN_CANT_ATTACH_TO_EQUIPMENT);

  00534	6a 05		 push	 5
  00536	68 00 00 00 00	 push	 OFFSET ??_C@_0CG@BCIFDNEM@ATTACH_METIN_CANT_ATTACH_TO_EQU@
  0053b	57		 push	 edi
  0053c	ff d6		 call	 esi

; 2483 : 	PyModule_AddIntConstant(poModule, "DETACH_METIN_CANT",						DETACH_METIN_CANT);

  0053e	6a 00		 push	 0
  00540	68 00 00 00 00	 push	 OFFSET ??_C@_0BC@HGBPKPKG@DETACH_METIN_CANT@
  00545	57		 push	 edi
  00546	ff d6		 call	 esi

; 2484 : 	PyModule_AddIntConstant(poModule, "DETACH_METIN_OK",						DETACH_METIN_OK);

  00548	6a 01		 push	 1
  0054a	68 00 00 00 00	 push	 OFFSET ??_C@_0BA@IACJJMNA@DETACH_METIN_OK@
  0054f	57		 push	 edi
  00550	ff d6		 call	 esi
  00552	83 c4 48	 add	 esp, 72			; 00000048H

; 2485 : 
; 2486 : 	// Party
; 2487 : 	PyModule_AddIntConstant(poModule, "PARTY_STATE_NORMAL",						CPythonPlayer::PARTY_ROLE_NORMAL);

  00555	6a 00		 push	 0
  00557	68 00 00 00 00	 push	 OFFSET ??_C@_0BD@PNFBHDHD@PARTY_STATE_NORMAL@
  0055c	57		 push	 edi
  0055d	ff d6		 call	 esi

; 2488 : 	PyModule_AddIntConstant(poModule, "PARTY_STATE_LEADER",						CPythonPlayer::PARTY_ROLE_LEADER);

  0055f	6a 01		 push	 1
  00561	68 00 00 00 00	 push	 OFFSET ??_C@_0BD@ECFFHEOH@PARTY_STATE_LEADER@
  00566	57		 push	 edi
  00567	ff d6		 call	 esi

; 2489 : 	PyModule_AddIntConstant(poModule, "PARTY_STATE_ATTACKER",					CPythonPlayer::PARTY_ROLE_ATTACKER);

  00569	6a 02		 push	 2
  0056b	68 00 00 00 00	 push	 OFFSET ??_C@_0BF@DOKPPLCL@PARTY_STATE_ATTACKER@
  00570	57		 push	 edi
  00571	ff d6		 call	 esi

; 2490 : 	PyModule_AddIntConstant(poModule, "PARTY_STATE_TANKER",						CPythonPlayer::PARTY_ROLE_TANKER);

  00573	6a 03		 push	 3
  00575	68 00 00 00 00	 push	 OFFSET ??_C@_0BD@FHMGGDNP@PARTY_STATE_TANKER@
  0057a	57		 push	 edi
  0057b	ff d6		 call	 esi

; 2491 : 	PyModule_AddIntConstant(poModule, "PARTY_STATE_BUFFER",						CPythonPlayer::PARTY_ROLE_BUFFER);

  0057d	6a 04		 push	 4
  0057f	68 00 00 00 00	 push	 OFFSET ??_C@_0BD@JJFBJLK@PARTY_STATE_BUFFER@
  00584	57		 push	 edi
  00585	ff d6		 call	 esi

; 2492 : 	PyModule_AddIntConstant(poModule, "PARTY_STATE_SKILL_MASTER",				CPythonPlayer::PARTY_ROLE_SKILL_MASTER);

  00587	6a 05		 push	 5
  00589	68 00 00 00 00	 push	 OFFSET ??_C@_0BJ@EIPCPJKC@PARTY_STATE_SKILL_MASTER@
  0058e	57		 push	 edi
  0058f	ff d6		 call	 esi
  00591	83 c4 48	 add	 esp, 72			; 00000048H

; 2493 : 	PyModule_AddIntConstant(poModule, "PARTY_STATE_BERSERKER",					CPythonPlayer::PARTY_ROLE_BERSERKER);

  00594	6a 06		 push	 6
  00596	68 00 00 00 00	 push	 OFFSET ??_C@_0BG@LCNEBE@PARTY_STATE_BERSERKER@
  0059b	57		 push	 edi
  0059c	ff d6		 call	 esi

; 2494 : 	PyModule_AddIntConstant(poModule, "PARTY_STATE_DEFENDER",					CPythonPlayer::PARTY_ROLE_DEFENDER);

  0059e	6a 07		 push	 7
  005a0	68 00 00 00 00	 push	 OFFSET ??_C@_0BF@PAKJEMH@PARTY_STATE_DEFENDER@
  005a5	57		 push	 edi
  005a6	ff d6		 call	 esi

; 2495 : 	PyModule_AddIntConstant(poModule, "PARTY_STATE_MAX_NUM",					CPythonPlayer::PARTY_ROLE_MAX_NUM);

  005a8	6a 08		 push	 8
  005aa	68 00 00 00 00	 push	 OFFSET ??_C@_0BE@KCLJFDCO@PARTY_STATE_MAX_NUM@
  005af	57		 push	 edi
  005b0	ff d6		 call	 esi

; 2496 : 
; 2497 : 	// Skill Index
; 2498 : 	PyModule_AddIntConstant(poModule, "SKILL_INDEX_TONGSOL",		c_iSkillIndex_Tongsol);

  005b2	6a 79		 push	 121			; 00000079H
  005b4	68 00 00 00 00	 push	 OFFSET ??_C@_0BE@MNBFKLPI@SKILL_INDEX_TONGSOL@
  005b9	57		 push	 edi
  005ba	ff d6		 call	 esi

; 2499 : 	PyModule_AddIntConstant(poModule, "SKILL_INDEX_FISHING",		c_iSkillIndex_Fishing);

  005bc	6a 7b		 push	 123			; 0000007bH
  005be	68 00 00 00 00	 push	 OFFSET ??_C@_0BE@HANBCKAH@SKILL_INDEX_FISHING@
  005c3	57		 push	 edi
  005c4	ff d6		 call	 esi

; 2500 : 	PyModule_AddIntConstant(poModule, "SKILL_INDEX_MINING",			c_iSkillIndex_Mining);

  005c6	6a 7c		 push	 124			; 0000007cH
  005c8	68 00 00 00 00	 push	 OFFSET ??_C@_0BD@KFCAJBFG@SKILL_INDEX_MINING@
  005cd	57		 push	 edi
  005ce	ff d6		 call	 esi
  005d0	83 c4 48	 add	 esp, 72			; 00000048H

; 2501 : 	PyModule_AddIntConstant(poModule, "SKILL_INDEX_MAKING",			c_iSkillIndex_Making);

  005d3	6a 7d		 push	 125			; 0000007dH
  005d5	68 00 00 00 00	 push	 OFFSET ??_C@_0BD@IBJDJMEL@SKILL_INDEX_MAKING@
  005da	57		 push	 edi
  005db	ff d6		 call	 esi

; 2502 : 	PyModule_AddIntConstant(poModule, "SKILL_INDEX_COMBO",			c_iSkillIndex_Combo);

  005dd	6a 7a		 push	 122			; 0000007aH
  005df	68 00 00 00 00	 push	 OFFSET ??_C@_0BC@HACNAMIK@SKILL_INDEX_COMBO@
  005e4	57		 push	 edi
  005e5	ff d6		 call	 esi

; 2503 : 	PyModule_AddIntConstant(poModule, "SKILL_INDEX_LANGUAGE1",		c_iSkillIndex_Language1);

  005e7	6a 7e		 push	 126			; 0000007eH
  005e9	68 00 00 00 00	 push	 OFFSET ??_C@_0BG@GPLOFEKK@SKILL_INDEX_LANGUAGE1@
  005ee	57		 push	 edi
  005ef	ff d6		 call	 esi

; 2504 : 	PyModule_AddIntConstant(poModule, "SKILL_INDEX_LANGUAGE2",		c_iSkillIndex_Language2);

  005f1	6a 7f		 push	 127			; 0000007fH
  005f3	68 00 00 00 00	 push	 OFFSET ??_C@_0BG@EEJDAHGJ@SKILL_INDEX_LANGUAGE2@
  005f8	57		 push	 edi
  005f9	ff d6		 call	 esi

; 2505 : 	PyModule_AddIntConstant(poModule, "SKILL_INDEX_LANGUAGE3",		c_iSkillIndex_Language3);

  005fb	68 80 00 00 00	 push	 128			; 00000080H
  00600	68 00 00 00 00	 push	 OFFSET ??_C@_0BG@FNIIDGCI@SKILL_INDEX_LANGUAGE3@
  00605	57		 push	 edi
  00606	ff d6		 call	 esi

; 2506 : 	PyModule_AddIntConstant(poModule, "SKILL_INDEX_POLYMORPH",		c_iSkillIndex_Polymorph);

  00608	68 81 00 00 00	 push	 129			; 00000081H
  0060d	68 00 00 00 00	 push	 OFFSET ??_C@_0BG@DMEIDEKO@SKILL_INDEX_POLYMORPH@
  00612	57		 push	 edi
  00613	ff d6		 call	 esi
  00615	83 c4 48	 add	 esp, 72			; 00000048H

; 2507 : 	PyModule_AddIntConstant(poModule, "SKILL_INDEX_RIDING",			c_iSkillIndex_Riding);

  00618	68 82 00 00 00	 push	 130			; 00000082H
  0061d	68 00 00 00 00	 push	 OFFSET ??_C@_0BD@HOAGGFNA@SKILL_INDEX_RIDING@
  00622	57		 push	 edi
  00623	ff d6		 call	 esi

; 2508 : 	PyModule_AddIntConstant(poModule, "SKILL_INDEX_SUMMON",			c_iSkillIndex_Summon);

  00625	68 83 00 00 00	 push	 131			; 00000083H
  0062a	68 00 00 00 00	 push	 OFFSET ??_C@_0BD@POBHIINM@SKILL_INDEX_SUMMON@
  0062f	57		 push	 edi
  00630	ff d6		 call	 esi

; 2509 : 
; 2510 : 	// PK Mode
; 2511 : 	PyModule_AddIntConstant(poModule, "PK_MODE_PEACE",				PK_MODE_PEACE);

  00632	6a 00		 push	 0
  00634	68 00 00 00 00	 push	 OFFSET ??_C@_0O@BIPAMBIG@PK_MODE_PEACE@
  00639	57		 push	 edi
  0063a	ff d6		 call	 esi

; 2512 : 	PyModule_AddIntConstant(poModule, "PK_MODE_REVENGE",			PK_MODE_REVENGE);

  0063c	6a 01		 push	 1
  0063e	68 00 00 00 00	 push	 OFFSET ??_C@_0BA@HNNGLCOB@PK_MODE_REVENGE@
  00643	57		 push	 edi
  00644	ff d6		 call	 esi

; 2513 : 	PyModule_AddIntConstant(poModule, "PK_MODE_FREE",				PK_MODE_FREE);

  00646	6a 02		 push	 2
  00648	68 00 00 00 00	 push	 OFFSET ??_C@_0N@DCANEGJG@PK_MODE_FREE@
  0064d	57		 push	 edi
  0064e	ff d6		 call	 esi

; 2514 : 	PyModule_AddIntConstant(poModule, "PK_MODE_PROTECT",			PK_MODE_PROTECT);

  00650	6a 03		 push	 3
  00652	68 00 00 00 00	 push	 OFFSET ??_C@_0BA@GHACPGHA@PK_MODE_PROTECT@
  00657	57		 push	 edi
  00658	ff d6		 call	 esi
  0065a	83 c4 48	 add	 esp, 72			; 00000048H

; 2515 : 	PyModule_AddIntConstant(poModule, "PK_MODE_GUILD",				PK_MODE_GUILD);

  0065d	6a 04		 push	 4
  0065f	68 00 00 00 00	 push	 OFFSET ??_C@_0O@LBDADKLE@PK_MODE_GUILD@
  00664	57		 push	 edi
  00665	ff d6		 call	 esi

; 2516 : 	PyModule_AddIntConstant(poModule, "PK_MODE_MAX_NUM",			PK_MODE_MAX_NUM);

  00667	6a 05		 push	 5
  00669	68 00 00 00 00	 push	 OFFSET ??_C@_0BA@OLCDKGDA@PK_MODE_MAX_NUM@
  0066e	57		 push	 edi
  0066f	ff d6		 call	 esi

; 2517 : 
; 2518 : 	// Block Mode
; 2519 : 	PyModule_AddIntConstant(poModule, "BLOCK_EXCHANGE",				BLOCK_EXCHANGE);

  00671	6a 01		 push	 1
  00673	68 00 00 00 00	 push	 OFFSET ??_C@_0P@CDMGAFPE@BLOCK_EXCHANGE@
  00678	57		 push	 edi
  00679	ff d6		 call	 esi

; 2520 : 	PyModule_AddIntConstant(poModule, "BLOCK_PARTY",				BLOCK_PARTY_INVITE);

  0067b	6a 02		 push	 2
  0067d	68 00 00 00 00	 push	 OFFSET ??_C@_0M@KFDBGBIL@BLOCK_PARTY@
  00682	57		 push	 edi
  00683	ff d6		 call	 esi

; 2521 : 	PyModule_AddIntConstant(poModule, "BLOCK_GUILD",				BLOCK_GUILD_INVITE);

  00685	6a 04		 push	 4
  00687	68 00 00 00 00	 push	 OFFSET ??_C@_0M@EEMDCMKA@BLOCK_GUILD@
  0068c	57		 push	 edi
  0068d	ff d6		 call	 esi

; 2522 : 	PyModule_AddIntConstant(poModule, "BLOCK_WHISPER",				BLOCK_WHISPER);

  0068f	6a 08		 push	 8
  00691	68 00 00 00 00	 push	 OFFSET ??_C@_0O@CFHKOIIK@BLOCK_WHISPER@
  00696	57		 push	 edi
  00697	ff d6		 call	 esi
  00699	83 c4 48	 add	 esp, 72			; 00000048H

; 2523 : 	PyModule_AddIntConstant(poModule, "BLOCK_FRIEND",				BLOCK_MESSENGER_INVITE);

  0069c	6a 10		 push	 16			; 00000010H
  0069e	68 00 00 00 00	 push	 OFFSET ??_C@_0N@IJGKBLJF@BLOCK_FRIEND@
  006a3	57		 push	 edi
  006a4	ff d6		 call	 esi

; 2524 : 	PyModule_AddIntConstant(poModule, "BLOCK_PARTY_REQUEST",		BLOCK_PARTY_REQUEST);

  006a6	6a 20		 push	 32			; 00000020H
  006a8	68 00 00 00 00	 push	 OFFSET ??_C@_0BE@NDGMABKO@BLOCK_PARTY_REQUEST@
  006ad	57		 push	 edi
  006ae	ff d6		 call	 esi

; 2525 : 
; 2526 : 	// Party
; 2527 : 	PyModule_AddIntConstant(poModule, "PARTY_EXP_NON_DISTRIBUTION",		PARTY_EXP_DISTRIBUTION_NON_PARITY);

  006b0	6a 00		 push	 0
  006b2	68 00 00 00 00	 push	 OFFSET ??_C@_0BL@OELLICOI@PARTY_EXP_NON_DISTRIBUTION@
  006b7	57		 push	 edi
  006b8	ff d6		 call	 esi

; 2528 : 	PyModule_AddIntConstant(poModule, "PARTY_EXP_DISTRIBUTION_PARITY",	PARTY_EXP_DISTRIBUTION_PARITY);

  006ba	6a 01		 push	 1
  006bc	68 00 00 00 00	 push	 OFFSET ??_C@_0BO@CBJBDFJC@PARTY_EXP_DISTRIBUTION_PARITY@
  006c1	57		 push	 edi
  006c2	ff d6		 call	 esi

; 2529 : 
; 2530 : 	// Emotion
; 2531 : 	PyModule_AddIntConstant(poModule, "EMOTION_CLAP",			EMOTION_CLAP);

  006c4	6a 01		 push	 1
  006c6	68 00 00 00 00	 push	 OFFSET ??_C@_0N@GFLIEIGE@EMOTION_CLAP@
  006cb	57		 push	 edi
  006cc	ff d6		 call	 esi

; 2532 : 	PyModule_AddIntConstant(poModule, "EMOTION_CHEERS_1",		EMOTION_CHEERS_1);

  006ce	6a 02		 push	 2
  006d0	68 00 00 00 00	 push	 OFFSET ??_C@_0BB@MCMBOGFC@EMOTION_CHEERS_1@
  006d5	57		 push	 edi
  006d6	ff d6		 call	 esi
  006d8	83 c4 48	 add	 esp, 72			; 00000048H

; 2533 : 	PyModule_AddIntConstant(poModule, "EMOTION_CHEERS_2",		EMOTION_CHEERS_2);

  006db	6a 03		 push	 3
  006dd	68 00 00 00 00	 push	 OFFSET ??_C@_0BB@OJOMLFJB@EMOTION_CHEERS_2@
  006e2	57		 push	 edi
  006e3	ff d6		 call	 esi

; 2534 : 	PyModule_AddIntConstant(poModule, "EMOTION_DANCE_1",		EMOTION_DANCE_1);

  006e5	6a 04		 push	 4
  006e7	68 00 00 00 00	 push	 OFFSET ??_C@_0BA@CLHGMEE@EMOTION_DANCE_1@
  006ec	57		 push	 edi
  006ed	ff d6		 call	 esi

; 2535 : 	PyModule_AddIntConstant(poModule, "EMOTION_DANCE_2",		EMOTION_DANCE_2);

  006ef	6a 05		 push	 5
  006f1	68 00 00 00 00	 push	 OFFSET ??_C@_0BA@CJJKDPIH@EMOTION_DANCE_2@
  006f6	57		 push	 edi
  006f7	ff d6		 call	 esi

; 2536 : 	PyModule_AddIntConstant(poModule, "EMOTION_DANCE_3",		EMOTION_DANCE_3);

  006f9	6a 06		 push	 6
  006fb	68 00 00 00 00	 push	 OFFSET ??_C@_0BA@DAIBAOMG@EMOTION_DANCE_3@
  00700	57		 push	 edi
  00701	ff d6		 call	 esi

; 2537 : 	PyModule_AddIntConstant(poModule, "EMOTION_DANCE_4",		EMOTION_DANCE_4);

  00703	6a 07		 push	 7
  00705	68 00 00 00 00	 push	 OFFSET ??_C@_0BA@HPMAJIAB@EMOTION_DANCE_4@
  0070a	57		 push	 edi
  0070b	ff d6		 call	 esi

; 2538 : 	PyModule_AddIntConstant(poModule, "EMOTION_DANCE_5",		EMOTION_DANCE_5);

  0070d	6a 08		 push	 8
  0070f	68 00 00 00 00	 push	 OFFSET ??_C@_0BA@GGNLKJEA@EMOTION_DANCE_5@
  00714	57		 push	 edi
  00715	ff d6		 call	 esi
  00717	83 c4 48	 add	 esp, 72			; 00000048H

; 2539 : 	PyModule_AddIntConstant(poModule, "EMOTION_DANCE_6",		EMOTION_DANCE_6);				// PSY 

  0071a	6a 09		 push	 9
  0071c	68 00 00 00 00	 push	 OFFSET ??_C@_0BA@ENPGPKID@EMOTION_DANCE_6@
  00721	57		 push	 edi
  00722	ff d6		 call	 esi

; 2540 : 	PyModule_AddIntConstant(poModule, "EMOTION_CONGRATULATION",	EMOTION_CONGRATULATION);

  00724	6a 0a		 push	 10			; 0000000aH
  00726	68 00 00 00 00	 push	 OFFSET ??_C@_0BH@FIIEKKHF@EMOTION_CONGRATULATION@
  0072b	57		 push	 edi
  0072c	ff d6		 call	 esi

; 2541 : 	PyModule_AddIntConstant(poModule, "EMOTION_FORGIVE",		EMOTION_FORGIVE);

  0072e	6a 0b		 push	 11			; 0000000bH
  00730	68 00 00 00 00	 push	 OFFSET ??_C@_0BA@JPGNEMIB@EMOTION_FORGIVE@
  00735	57		 push	 edi
  00736	ff d6		 call	 esi

; 2542 : 	PyModule_AddIntConstant(poModule, "EMOTION_ANGRY",			EMOTION_ANGRY);

  00738	6a 0c		 push	 12			; 0000000cH
  0073a	68 00 00 00 00	 push	 OFFSET ??_C@_0O@DACEICMN@EMOTION_ANGRY@
  0073f	57		 push	 edi
  00740	ff d6		 call	 esi

; 2543 : 	PyModule_AddIntConstant(poModule, "EMOTION_ATTRACTIVE",		EMOTION_ATTRACTIVE);

  00742	6a 0d		 push	 13			; 0000000dH
  00744	68 00 00 00 00	 push	 OFFSET ??_C@_0BD@FLNIBF@EMOTION_ATTRACTIVE@
  00749	57		 push	 edi
  0074a	ff d6		 call	 esi

; 2544 : 	PyModule_AddIntConstant(poModule, "EMOTION_SAD",			EMOTION_SAD);

  0074c	6a 0e		 push	 14			; 0000000eH
  0074e	68 00 00 00 00	 push	 OFFSET ??_C@_0M@EGEMMDCF@EMOTION_SAD@
  00753	57		 push	 edi
  00754	ff d6		 call	 esi
  00756	83 c4 48	 add	 esp, 72			; 00000048H

; 2545 : 	PyModule_AddIntConstant(poModule, "EMOTION_SHY",			EMOTION_SHY);

  00759	6a 0f		 push	 15			; 0000000fH
  0075b	68 00 00 00 00	 push	 OFFSET ??_C@_0M@LGPBJELG@EMOTION_SHY@
  00760	57		 push	 edi
  00761	ff d6		 call	 esi

; 2546 : 	PyModule_AddIntConstant(poModule, "EMOTION_CHEERUP",		EMOTION_CHEERUP);

  00763	6a 10		 push	 16			; 00000010H
  00765	68 00 00 00 00	 push	 OFFSET ??_C@_0BA@MENCJFPL@EMOTION_CHEERUP@
  0076a	57		 push	 edi
  0076b	ff d6		 call	 esi

; 2547 : 	PyModule_AddIntConstant(poModule, "EMOTION_BANTER",			EMOTION_BANTER);

  0076d	6a 11		 push	 17			; 00000011H
  0076f	68 00 00 00 00	 push	 OFFSET ??_C@_0P@JAJBGKKI@EMOTION_BANTER@
  00774	57		 push	 edi
  00775	ff d6		 call	 esi

; 2548 : 	PyModule_AddIntConstant(poModule, "EMOTION_JOY",			EMOTION_JOY);

  00777	6a 12		 push	 18			; 00000012H
  00779	68 00 00 00 00	 push	 OFFSET ??_C@_0M@JOKPJKCG@EMOTION_JOY@
  0077e	57		 push	 edi
  0077f	ff d6		 call	 esi

; 2549 : 
; 2550 : 	PyModule_AddIntConstant(poModule, "EMOTION_KISS",			EMOTION_KISS);

  00781	6a 33		 push	 51			; 00000033H
  00783	68 00 00 00 00	 push	 OFFSET ??_C@_0N@FGJJNHEK@EMOTION_KISS@
  00788	57		 push	 edi
  00789	ff d6		 call	 esi

; 2551 : 	PyModule_AddIntConstant(poModule, "EMOTION_FRENCH_KISS",	EMOTION_FRENCH_KISS);

  0078b	6a 34		 push	 52			; 00000034H
  0078d	68 00 00 00 00	 push	 OFFSET ??_C@_0BE@KCAKKBPE@EMOTION_FRENCH_KISS@
  00792	57		 push	 edi
  00793	ff d6		 call	 esi
  00795	83 c4 48	 add	 esp, 72			; 00000048H

; 2552 : 	PyModule_AddIntConstant(poModule, "EMOTION_SLAP",			EMOTION_SLAP);

  00798	6a 35		 push	 53			; 00000035H
  0079a	68 00 00 00 00	 push	 OFFSET ??_C@_0N@FFINPOG@EMOTION_SLAP@
  0079f	57		 push	 edi
  007a0	ff d6		 call	 esi

; 2553 : 
; 2554 : 	////  
; 2555 : 	PyModule_AddIntConstant(poModule, "AUTO_POTION_TYPE_HP",	CPythonPlayer::AUTO_POTION_TYPE_HP);

  007a2	6a 00		 push	 0
  007a4	68 00 00 00 00	 push	 OFFSET ??_C@_0BE@LLABJENL@AUTO_POTION_TYPE_HP@
  007a9	57		 push	 edi
  007aa	ff d6		 call	 esi

; 2556 : 	PyModule_AddIntConstant(poModule, "AUTO_POTION_TYPE_SP",	CPythonPlayer::AUTO_POTION_TYPE_SP);

  007ac	6a 01		 push	 1
  007ae	68 00 00 00 00	 push	 OFFSET ??_C@_0BE@KLHCNIEK@AUTO_POTION_TYPE_SP@
  007b3	57		 push	 edi
  007b4	ff d6		 call	 esi

; 2557 : 
; 2558 : 	// 
; 2559 : 	PyModule_AddIntConstant(poModule, "DRAGON_SOUL_PAGE_SIZE",	c_DragonSoul_Inventory_Box_Size);

  007b6	6a 20		 push	 32			; 00000020H
  007b8	68 00 00 00 00	 push	 OFFSET ??_C@_0BG@FEPFCIIM@DRAGON_SOUL_PAGE_SIZE@
  007bd	57		 push	 edi
  007be	ff d6		 call	 esi

; 2560 : 	PyModule_AddIntConstant(poModule, "DRAGON_SOUL_PAGE_COUNT",	DRAGON_SOUL_GRADE_MAX);

  007c0	6a 05		 push	 5
  007c2	68 00 00 00 00	 push	 OFFSET ??_C@_0BH@OCCNKKPP@DRAGON_SOUL_PAGE_COUNT@
  007c7	57		 push	 edi
  007c8	ff d6		 call	 esi

; 2561 : 	PyModule_AddIntConstant(poModule, "DRAGON_SOUL_SLOT_COUNT",	c_DragonSoul_Inventory_Count);

  007ca	68 c0 03 00 00	 push	 960			; 000003c0H
  007cf	68 00 00 00 00	 push	 OFFSET ??_C@_0BH@IFPINEOD@DRAGON_SOUL_SLOT_COUNT@
  007d4	57		 push	 edi
  007d5	ff d6		 call	 esi
  007d7	83 c4 48	 add	 esp, 72			; 00000048H

; 2562 : 	PyModule_AddIntConstant(poModule, "DRAGON_SOUL_EQUIPMENT_SLOT_START",	c_DragonSoul_Equip_Start);

  007da	68 d4 00 00 00	 push	 212			; 000000d4H
  007df	68 00 00 00 00	 push	 OFFSET ??_C@_0CB@NJAOAEOC@DRAGON_SOUL_EQUIPMENT_SLOT_STAR@
  007e4	57		 push	 edi
  007e5	ff d6		 call	 esi

; 2563 : 	PyModule_AddIntConstant(poModule, "DRAGON_SOUL_EQUIPMENT_PAGE_COUNT",	DS_DECK_MAX_NUM);

  007e7	6a 02		 push	 2
  007e9	68 00 00 00 00	 push	 OFFSET ??_C@_0CB@GAHKEECK@DRAGON_SOUL_EQUIPMENT_PAGE_COUN@
  007ee	57		 push	 edi
  007ef	ff d6		 call	 esi

; 2564 : 	PyModule_AddIntConstant(poModule, "DRAGON_SOUL_EQUIPMENT_FIRST_SIZE",	c_DragonSoul_Equip_Slot_Max);

  007f1	6a 06		 push	 6
  007f3	68 00 00 00 00	 push	 OFFSET ??_C@_0CB@OIFHBJMG@DRAGON_SOUL_EQUIPMENT_FIRST_SIZ@
  007f8	57		 push	 edi
  007f9	ff d6		 call	 esi

; 2565 : 
; 2566 : 	//  
; 2567 : 	PyModule_AddIntConstant(poModule, "DRAGON_SOUL_REFINE_CLOSE",	DS_SUB_HEADER_CLOSE);

  007fb	6a 01		 push	 1
  007fd	68 00 00 00 00	 push	 OFFSET ??_C@_0BJ@MMGGGOHJ@DRAGON_SOUL_REFINE_CLOSE@
  00802	57		 push	 edi
  00803	ff d6		 call	 esi

; 2568 : 	PyModule_AddIntConstant(poModule, "DS_SUB_HEADER_DO_UPGRADE",	DS_SUB_HEADER_DO_UPGRADE);

  00805	6a 02		 push	 2
  00807	68 00 00 00 00	 push	 OFFSET ??_C@_0BJ@JKFAJIJN@DS_SUB_HEADER_DO_UPGRADE@
  0080c	57		 push	 edi
  0080d	ff d6		 call	 esi

; 2569 : 	PyModule_AddIntConstant(poModule, "DS_SUB_HEADER_DO_IMPROVEMENT",	DS_SUB_HEADER_DO_IMPROVEMENT);

  0080f	6a 03		 push	 3
  00811	68 00 00 00 00	 push	 OFFSET ??_C@_0BN@PCPINHKH@DS_SUB_HEADER_DO_IMPROVEMENT@
  00816	57		 push	 edi
  00817	ff d6		 call	 esi
  00819	83 c4 48	 add	 esp, 72			; 00000048H

; 2570 : 	PyModule_AddIntConstant(poModule, "DS_SUB_HEADER_DO_REFINE",	DS_SUB_HEADER_DO_REFINE);

  0081c	6a 04		 push	 4
  0081e	68 00 00 00 00	 push	 OFFSET ??_C@_0BI@NHBOLMGK@DS_SUB_HEADER_DO_REFINE@
  00823	57		 push	 edi
  00824	ff d6		 call	 esi
  00826	83 c4 0c	 add	 esp, 12			; 0000000cH
  00829	5f		 pop	 edi
  0082a	5e		 pop	 esi

; 2571 : 
; 2572 : }

  0082b	c3		 ret	 0
?initPlayer@@YAXXZ ENDP					; initPlayer
_TEXT	ENDS
; Function compile flags: /Ogtp
; File C:\Program Files\Microsoft Visual Studio\2022\Community\VC\Tools\MSVC\14.44.35207\include\utility
;	COMDAT ??$make_pair@AAHAAPAVCGraphicImage@@@std@@YA?AU?$pair@HPAVCGraphicImage@@@0@AAHAAPAVCGraphicImage@@@Z
_TEXT	SEGMENT
__Val2$ = 8						; size = 4
??$make_pair@AAHAAPAVCGraphicImage@@@std@@YA?AU?$pair@HPAVCGraphicImage@@@0@AAHAAPAVCGraphicImage@@@Z PROC ; std::make_pair<int &,CGraphicImage * &>, COMDAT
; ___$ReturnUdt$ = ecx
; __Val1$ = edx

; 578  :              && is_nothrow_constructible_v<_Unrefwrap_t<_Ty2>, _Ty2>) /* strengthened */ {

  00000	55		 push	 ebp
  00001	8b ec		 mov	 ebp, esp

; 274  :         : first(_STD forward<_Other1>(_Val1)), second(_STD forward<_Other2>(_Val2)) {

  00003	8b 02		 mov	 eax, DWORD PTR [edx]
  00005	89 01		 mov	 DWORD PTR [ecx], eax
  00007	8b 45 08	 mov	 eax, DWORD PTR __Val2$[ebp]
  0000a	8b 00		 mov	 eax, DWORD PTR [eax]
  0000c	89 41 04	 mov	 DWORD PTR [ecx+4], eax

; 579  :     // return pair composed from arguments
; 580  :     using _Mypair = pair<_Unrefwrap_t<_Ty1>, _Unrefwrap_t<_Ty2>>;
; 581  :     return _Mypair(_STD forward<_Ty1>(_Val1), _STD forward<_Ty2>(_Val2));

  0000f	8b c1		 mov	 eax, ecx

; 582  : }

  00011	5d		 pop	 ebp
  00012	c3		 ret	 0
??$make_pair@AAHAAPAVCGraphicImage@@@std@@YA?AU?$pair@HPAVCGraphicImage@@@0@AAHAAPAVCGraphicImage@@@Z ENDP ; std::make_pair<int &,CGraphicImage * &>
_TEXT	ENDS
; Function compile flags: /Ogtp
; File C:\Program Files\Microsoft Visual Studio\2022\Community\VC\Tools\MSVC\14.44.35207\include\map
; File C:\Program Files\Microsoft Visual Studio\2022\Community\VC\Tools\MSVC\14.44.35207\include\xtree
; File C:\Program Files\Microsoft Visual Studio\2022\Community\VC\Tools\MSVC\14.44.35207\include\type_traits
; File C:\Program Files\Microsoft Visual Studio\2022\Community\VC\Tools\MSVC\14.44.35207\include\xtree
; File C:\Program Files\Microsoft Visual Studio\2022\Community\VC\Tools\MSVC\14.44.35207\include\utility
; File C:\Program Files\Microsoft Visual Studio\2022\Community\VC\Tools\MSVC\14.44.35207\include\xtree
; File C:\Program Files\Microsoft Visual Studio\2022\Community\VC\Tools\MSVC\14.44.35207\include\xmemory
; File C:\Program Files\Microsoft Visual Studio\2022\Community\VC\Tools\MSVC\14.44.35207\include\xtree
; File C:\Program Files\Microsoft Visual Studio\2022\Community\VC\Tools\MSVC\14.44.35207\include\xmemory
; File C:\Program Files\Microsoft Visual Studio\2022\Community\VC\Tools\MSVC\14.44.35207\include\utility
; File C:\Program Files\Microsoft Visual Studio\2022\Community\VC\Tools\MSVC\14.44.35207\include\xmemory
; File C:\Program Files\Microsoft Visual Studio\2022\Community\VC\Tools\MSVC\14.44.35207\include\utility
; File C:\Program Files\Microsoft Visual Studio\2022\Community\VC\Tools\MSVC\14.44.35207\include\xtree
; File C:\Program Files\Microsoft Visual Studio\2022\Community\VC\Tools\MSVC\14.44.35207\include\utility
; File C:\Program Files\Microsoft Visual Studio\2022\Community\VC\Tools\MSVC\14.44.35207\include\map
; File C:\Program Files\Microsoft Visual Studio\2022\Community\VC\Tools\MSVC\14.44.35207\include\xtree
; File C:\Program Files\Microsoft Visual Studio\2022\Community\VC\Tools\MSVC\14.44.35207\include\map
;	COMDAT ??$insert@U?$pair@HPAVCGraphicImage@@@std@@$0A@@?$map@HPAVCGraphicImage@@U?$less@H@std@@V?$allocator@U?$pair@$$CBHPAVCGraphicImage@@@std@@@3@@std@@QAE?AU?$pair@V?$_Tree_iterator@V?$_Tree_val@U?$_Tree_simple_types@U?$pair@$$CBHPAVCGraphicImage@@@std@@@std@@@std@@@std@@_N@1@$$QAU?$pair@HPAVCGraphicImage@@@1@@Z
_TEXT	SEGMENT
__Loc$3 = -36						; size = 12
$T4 = -24						; size = 12
$T5 = -20						; size = 8
__$EHRec$ = -12						; size = 12
___$ReturnUdt$ = 8					; size = 4
__Val$ = 12						; size = 4
??$insert@U?$pair@HPAVCGraphicImage@@@std@@$0A@@?$map@HPAVCGraphicImage@@U?$less@H@std@@V?$allocator@U?$pair@$$CBHPAVCGraphicImage@@@std@@@3@@std@@QAE?AU?$pair@V?$_Tree_iterator@V?$_Tree_val@U?$_Tree_simple_types@U?$pair@$$CBHPAVCGraphicImage@@@std@@@std@@@std@@@std@@_N@1@$$QAU?$pair@HPAVCGraphicImage@@@1@@Z PROC ; std::map<int,CGraphicImage *,std::less<int>,std::allocator<std::pair<int const ,CGraphicImage *> > >::insert<std::pair<int,CGraphicImage *>,0>, COMDAT
; _this$dead$ = ecx

; 185  :     pair<iterator, bool> insert(_Valty&& _Val) {

  00000	55		 push	 ebp
  00001	8b ec		 mov	 ebp, esp
  00003	6a ff		 push	 -1
  00005	68 00 00 00 00	 push	 __ehhandler$??$insert@U?$pair@HPAVCGraphicImage@@@std@@$0A@@?$map@HPAVCGraphicImage@@U?$less@H@std@@V?$allocator@U?$pair@$$CBHPAVCGraphicImage@@@std@@@3@@std@@QAE?AU?$pair@V?$_Tree_iterator@V?$_Tree_val@U?$_Tree_simple_types@U?$pair@$$CBHPAVCGraphicImage@@@std@@@std@@@std@@@std@@_N@1@$$QAU?$pair@HPAVCGraphicImage@@@1@@Z
  0000a	64 a1 00 00 00
	00		 mov	 eax, DWORD PTR fs:0
  00010	50		 push	 eax
  00011	83 ec 18	 sub	 esp, 24			; 00000018H
  00014	56		 push	 esi
  00015	57		 push	 edi
  00016	a1 00 00 00 00	 mov	 eax, DWORD PTR ___security_cookie
  0001b	33 c5		 xor	 eax, ebp
  0001d	50		 push	 eax
  0001e	8d 45 f4	 lea	 eax, DWORD PTR __$EHRec$[ebp]
  00021	64 a3 00 00 00
	00		 mov	 DWORD PTR fs:0, eax
; File C:\Program Files\Microsoft Visual Studio\2022\Community\VC\Tools\MSVC\14.44.35207\include\xtree

; 1017 :             _Loc                = _Find_lower_bound(_Keyval);

  00027	8b 7d 0c	 mov	 edi, DWORD PTR __Val$[ebp]
  0002a	8d 45 e8	 lea	 eax, DWORD PTR $T4[ebp]
  0002d	57		 push	 edi
  0002e	50		 push	 eax
  0002f	e8 00 00 00 00	 call	 ??$_Find_lower_bound@H@?$_Tree@V?$_Tmap_traits@HPAVCGraphicImage@@U?$less@H@std@@V?$allocator@U?$pair@$$CBHPAVCGraphicImage@@@std@@@3@$0A@@std@@@std@@IBE?AU?$_Tree_find_result@PAU?$_Tree_node@U?$pair@$$CBHPAVCGraphicImage@@@std@@PAX@std@@@1@ABH@Z ; std::_Tree<std::_Tmap_traits<int,CGraphicImage *,std::less<int>,std::allocator<std::pair<int const ,CGraphicImage *> >,0> >::_Find_lower_bound<int>
  00034	8b 48 08	 mov	 ecx, DWORD PTR [eax+8]
  00037	f3 0f 7e 00	 movq	 xmm0, QWORD PTR [eax]
  0003b	66 0f d6 45 dc	 movq	 QWORD PTR __Loc$3[ebp], xmm0

; 1624 :         return !_Bound->_Isnil && !_DEBUG_LT_PRED(_Getcomp(), _Keyval, _Traits::_Kfn(_Bound->_Myval));

  00040	80 79 0d 00	 cmp	 BYTE PTR [ecx+13], 0
  00044	75 0b		 jne	 SHORT $LN6@insert
; File C:\Program Files\Microsoft Visual Studio\2022\Community\VC\Tools\MSVC\14.44.35207\include\type_traits

; 2380 :         return _Left < _Right;

  00046	8b 07		 mov	 eax, DWORD PTR [edi]
  00048	3b 41 10	 cmp	 eax, DWORD PTR [ecx+16]
; File C:\Program Files\Microsoft Visual Studio\2022\Community\VC\Tools\MSVC\14.44.35207\include\xtree

; 1624 :         return !_Bound->_Isnil && !_DEBUG_LT_PRED(_Getcomp(), _Keyval, _Traits::_Kfn(_Bound->_Myval));

  0004b	7c 04		 jl	 SHORT $LN6@insert
; File C:\Program Files\Microsoft Visual Studio\2022\Community\VC\Tools\MSVC\14.44.35207\include\utility

; 274  :         : first(_STD forward<_Other1>(_Val1)), second(_STD forward<_Other2>(_Val2)) {

  0004d	32 d2		 xor	 dl, dl
; File C:\Program Files\Microsoft Visual Studio\2022\Community\VC\Tools\MSVC\14.44.35207\include\xtree

; 1019 :                 return {_Loc._Bound, false};

  0004f	eb 5f		 jmp	 SHORT $LN98@insert
$LN6@insert:

; 1648 :         if (max_size() == _Get_scary()->_Mysize) {

  00051	81 3d 04 00 00
	00 aa aa aa 0a	 cmp	 DWORD PTR ?m_kMap_iEmotionIndex_pkIconImage@@3V?$map@HPAVCGraphicImage@@U?$less@H@std@@V?$allocator@U?$pair@$$CBHPAVCGraphicImage@@@std@@@3@@std@@A+4, 178956970 ; 0aaaaaaaH
  0005b	74 6e		 je	 SHORT $LN120@insert

; 1023 :             _Inserted = _Tree_temp_node<_Alnode>(_Getal(), _Scary->_Myhead, _STD forward<_Valtys>(_Vals)...)._Release();

  0005d	8b 35 00 00 00
	00		 mov	 esi, DWORD PTR ?m_kMap_iEmotionIndex_pkIconImage@@3V?$map@HPAVCGraphicImage@@U?$less@H@std@@V?$allocator@U?$pair@$$CBHPAVCGraphicImage@@@std@@@3@@std@@A
; File C:\Program Files\Microsoft Visual Studio\2022\Community\VC\Tools\MSVC\14.44.35207\include\xmemory

; 1160 :     _CONSTEXPR20 explicit _Alloc_construct_ptr(_Alloc& _Al_) : _Al(_Al_), _Ptr(nullptr) {}

  00063	c7 45 ec 00 00
	00 00		 mov	 DWORD PTR $T5[ebp], OFFSET ?m_kMap_iEmotionIndex_pkIconImage@@3V?$map@HPAVCGraphicImage@@U?$less@H@std@@V?$allocator@U?$pair@$$CBHPAVCGraphicImage@@@std@@@3@@std@@A ; m_kMap_iEmotionIndex_pkIconImage
; File C:\Program Files\Microsoft Visual Studio\2022\Community\VC\Tools\MSVC\14.44.35207\include\xtree

; 808  :     explicit _Tree_temp_node_alloc(_Alnode& _Al_) : _Alloc_construct_ptr<_Alnode>(_Al_) {

  0006a	c7 45 fc 00 00
	00 00		 mov	 DWORD PTR __$EHRec$[ebp+8], 0
; File C:\Program Files\Microsoft Visual Studio\2022\Community\VC\Tools\MSVC\14.44.35207\include\xmemory

; 136  :         return ::operator new(_Bytes);

  00071	6a 18		 push	 24			; 00000018H

; 1167 :         _Ptr = nullptr; // if allocate throws, prevents double-free

  00073	c7 45 f0 00 00
	00 00		 mov	 DWORD PTR $T5[ebp+4], 0

; 136  :         return ::operator new(_Bytes);

  0007a	e8 00 00 00 00	 call	 ??2@YAPAXI@Z		; operator new
; File C:\Program Files\Microsoft Visual Studio\2022\Community\VC\Tools\MSVC\14.44.35207\include\utility

; 303  :         : first(_STD forward<_Other1>(_Right.first)), second(_STD forward<_Other2>(_Right.second)) {}

  0007f	8b 0f		 mov	 ecx, DWORD PTR [edi]
; File C:\Program Files\Microsoft Visual Studio\2022\Community\VC\Tools\MSVC\14.44.35207\include\xmemory

; 136  :         return ::operator new(_Bytes);

  00081	83 c4 04	 add	 esp, 4
; File C:\Program Files\Microsoft Visual Studio\2022\Community\VC\Tools\MSVC\14.44.35207\include\utility

; 303  :         : first(_STD forward<_Other1>(_Right.first)), second(_STD forward<_Other2>(_Right.second)) {}

  00084	89 48 10	 mov	 DWORD PTR [eax+16], ecx
  00087	8b 4f 04	 mov	 ecx, DWORD PTR [edi+4]
  0008a	89 48 14	 mov	 DWORD PTR [eax+20], ecx
; File C:\Program Files\Microsoft Visual Studio\2022\Community\VC\Tools\MSVC\14.44.35207\include\xtree

; 1042 :         return {_Scary->_Insert_node(_Loc._Location, _Inserted), true};

  0008d	b9 00 00 00 00	 mov	 ecx, OFFSET ?m_kMap_iEmotionIndex_pkIconImage@@3V?$map@HPAVCGraphicImage@@U?$less@H@std@@V?$allocator@U?$pair@$$CBHPAVCGraphicImage@@@std@@@3@@std@@A ; m_kMap_iEmotionIndex_pkIconImage
  00092	50		 push	 eax
  00093	ff 75 e0	 push	 DWORD PTR __Loc$3[ebp+4]

; 831  :         _Construct_in_place(this->_Ptr->_Left, _Myhead);

  00096	89 30		 mov	 DWORD PTR [eax], esi

; 1042 :         return {_Scary->_Insert_node(_Loc._Location, _Inserted), true};

  00098	ff 75 dc	 push	 DWORD PTR __Loc$3[ebp]

; 832  :         _Construct_in_place(this->_Ptr->_Parent, _Myhead);

  0009b	89 70 04	 mov	 DWORD PTR [eax+4], esi

; 833  :         _Construct_in_place(this->_Ptr->_Right, _Myhead);

  0009e	89 70 08	 mov	 DWORD PTR [eax+8], esi

; 834  :         this->_Ptr->_Color = _Red;

  000a1	66 c7 40 0c 00
	00		 mov	 WORD PTR [eax+12], 0

; 1042 :         return {_Scary->_Insert_node(_Loc._Location, _Inserted), true};

  000a7	e8 00 00 00 00	 call	 ?_Insert_node@?$_Tree_val@U?$_Tree_simple_types@U?$pair@$$CBHPAVCGraphicImage@@@std@@@std@@@std@@QAEPAU?$_Tree_node@U?$pair@$$CBHPAVCGraphicImage@@@std@@PAX@2@U?$_Tree_id@PAU?$_Tree_node@U?$pair@$$CBHPAVCGraphicImage@@@std@@PAX@std@@@2@QAU32@@Z ; std::_Tree_val<std::_Tree_simple_types<std::pair<int const ,CGraphicImage *> > >::_Insert_node
; File C:\Program Files\Microsoft Visual Studio\2022\Community\VC\Tools\MSVC\14.44.35207\include\utility

; 274  :         : first(_STD forward<_Other1>(_Val1)), second(_STD forward<_Other2>(_Val2)) {

  000ac	8b c8		 mov	 ecx, eax
  000ae	b2 01		 mov	 dl, 1
$LN98@insert:
  000b0	8b 45 08	 mov	 eax, DWORD PTR ___$ReturnUdt$[ebp]
  000b3	89 08		 mov	 DWORD PTR [eax], ecx
  000b5	88 50 04	 mov	 BYTE PTR [eax+4], dl
; File C:\Program Files\Microsoft Visual Studio\2022\Community\VC\Tools\MSVC\14.44.35207\include\map

; 187  :     }

  000b8	8b 4d f4	 mov	 ecx, DWORD PTR __$EHRec$[ebp]
  000bb	64 89 0d 00 00
	00 00		 mov	 DWORD PTR fs:0, ecx
  000c2	59		 pop	 ecx
  000c3	5f		 pop	 edi
  000c4	5e		 pop	 esi
  000c5	8b e5		 mov	 esp, ebp
  000c7	5d		 pop	 ebp
  000c8	c2 08 00	 ret	 8
$LN120@insert:
; File C:\Program Files\Microsoft Visual Studio\2022\Community\VC\Tools\MSVC\14.44.35207\include\xtree

; 1649 :             _Throw_tree_length_error();

  000cb	e8 00 00 00 00	 call	 ?_Throw_tree_length_error@std@@YAXXZ ; std::_Throw_tree_length_error
$LN118@insert:
  000d0	cc		 int	 3
_TEXT	ENDS
;	COMDAT text$x
text$x	SEGMENT
__unwindfunclet$??$insert@U?$pair@HPAVCGraphicImage@@@std@@$0A@@?$map@HPAVCGraphicImage@@U?$less@H@std@@V?$allocator@U?$pair@$$CBHPAVCGraphicImage@@@std@@@3@@std@@QAE?AU?$pair@V?$_Tree_iterator@V?$_Tree_val@U?$_Tree_simple_types@U?$pair@$$CBHPAVCGraphicImage@@@std@@@std@@@std@@@std@@_N@1@$$QAU?$pair@HPAVCGraphicImage@@@1@@Z$2:
  00000	8d 4d ec	 lea	 ecx, DWORD PTR $T5[ebp]
  00003	e9 00 00 00 00	 jmp	 ??1?$_Alloc_construct_ptr@V?$allocator@U?$_Tree_node@U?$pair@$$CBHPAVCGraphicImage@@@std@@PAX@std@@@std@@@std@@QAE@XZ ; std::_Alloc_construct_ptr<std::allocator<std::_Tree_node<std::pair<int const ,CGraphicImage *>,void *> > >::~_Alloc_construct_ptr<std::allocator<std::_Tree_node<std::pair<int const ,CGraphicImage *>,void *> > >
  00008	cc		 int	 3
  00009	cc		 int	 3
  0000a	cc		 int	 3
  0000b	cc		 int	 3
  0000c	cc		 int	 3
__ehhandler$??$insert@U?$pair@HPAVCGraphicImage@@@std@@$0A@@?$map@HPAVCGraphicImage@@U?$less@H@std@@V?$allocator@U?$pair@$$CBHPAVCGraphicImage@@@std@@@3@@std@@QAE?AU?$pair@V?$_Tree_iterator@V?$_Tree_val@U?$_Tree_simple_types@U?$pair@$$CBHPAVCGraphicImage@@@std@@@std@@@std@@@std@@_N@1@$$QAU?$pair@HPAVCGraphicImage@@@1@@Z:
  0000d	90		 npad	 1
  0000e	90		 npad	 1
  0000f	8b 54 24 08	 mov	 edx, DWORD PTR [esp+8]
  00013	8d 42 0c	 lea	 eax, DWORD PTR [edx+12]
  00016	8b 4a dc	 mov	 ecx, DWORD PTR [edx-36]
  00019	33 c8		 xor	 ecx, eax
  0001b	e8 00 00 00 00	 call	 @__security_check_cookie@4
  00020	b8 00 00 00 00	 mov	 eax, OFFSET __ehfuncinfo$??$insert@U?$pair@HPAVCGraphicImage@@@std@@$0A@@?$map@HPAVCGraphicImage@@U?$less@H@std@@V?$allocator@U?$pair@$$CBHPAVCGraphicImage@@@std@@@3@@std@@QAE?AU?$pair@V?$_Tree_iterator@V?$_Tree_val@U?$_Tree_simple_types@U?$pair@$$CBHPAVCGraphicImage@@@std@@@std@@@std@@@std@@_N@1@$$QAU?$pair@HPAVCGraphicImage@@@1@@Z
  00025	e9 00 00 00 00	 jmp	 ___CxxFrameHandler3
text$x	ENDS
??$insert@U?$pair@HPAVCGraphicImage@@@std@@$0A@@?$map@HPAVCGraphicImage@@U?$less@H@std@@V?$allocator@U?$pair@$$CBHPAVCGraphicImage@@@std@@@3@@std@@QAE?AU?$pair@V?$_Tree_iterator@V?$_Tree_val@U?$_Tree_simple_types@U?$pair@$$CBHPAVCGraphicImage@@@std@@@std@@@std@@@std@@_N@1@$$QAU?$pair@HPAVCGraphicImage@@@1@@Z ENDP ; std::map<int,CGraphicImage *,std::less<int>,std::allocator<std::pair<int const ,CGraphicImage *> > >::insert<std::pair<int,CGraphicImage *>,0>
; Function compile flags: /Ogtp
; File C:\Program Files\Microsoft Visual Studio\2022\Community\VC\Tools\MSVC\14.44.35207\include\xtree
;	COMDAT ??8?$_Tree_const_iterator@V?$_Tree_val@U?$_Tree_simple_types@U?$pair@$$CBHPAVCGraphicImage@@@std@@@std@@@std@@@std@@QBE_NABV01@@Z
_TEXT	SEGMENT
__Right$ = 8						; size = 4
??8?$_Tree_const_iterator@V?$_Tree_val@U?$_Tree_simple_types@U?$pair@$$CBHPAVCGraphicImage@@@std@@@std@@@std@@@std@@QBE_NABV01@@Z PROC ; std::_Tree_const_iterator<std::_Tree_val<std::_Tree_simple_types<std::pair<int const ,CGraphicImage *> > > >::operator==, COMDAT
; _this$ = ecx

; 227  :     _NODISCARD bool operator==(const _Tree_const_iterator& _Right) const noexcept {

  00000	55		 push	 ebp
  00001	8b ec		 mov	 ebp, esp

; 228  : #if _ITERATOR_DEBUG_LEVEL == 2
; 229  :         _STL_VERIFY(this->_Getcont() == _Right._Getcont(), "map/set iterators incompatible");
; 230  : #endif // _ITERATOR_DEBUG_LEVEL == 2
; 231  : 
; 232  :         return this->_Ptr == _Right._Ptr;

  00003	8b 45 08	 mov	 eax, DWORD PTR __Right$[ebp]
  00006	8b 09		 mov	 ecx, DWORD PTR [ecx]
  00008	3b 08		 cmp	 ecx, DWORD PTR [eax]
  0000a	0f 94 c0	 sete	 al

; 233  :     }

  0000d	5d		 pop	 ebp
  0000e	c2 04 00	 ret	 4
??8?$_Tree_const_iterator@V?$_Tree_val@U?$_Tree_simple_types@U?$pair@$$CBHPAVCGraphicImage@@@std@@@std@@@std@@@std@@QBE_NABV01@@Z ENDP ; std::_Tree_const_iterator<std::_Tree_val<std::_Tree_simple_types<std::pair<int const ,CGraphicImage *> > > >::operator==
_TEXT	ENDS
; Function compile flags: /Ogtp
; File C:\Program Files\Microsoft Visual Studio\2022\Community\VC\Tools\MSVC\14.44.35207\include\xtree
; File C:\Program Files\Microsoft Visual Studio\2022\Community\VC\Tools\MSVC\14.44.35207\include\type_traits
; File C:\Program Files\Microsoft Visual Studio\2022\Community\VC\Tools\MSVC\14.44.35207\include\xtree
;	COMDAT ?find@?$_Tree@V?$_Tmap_traits@HPAVCGraphicImage@@U?$less@H@std@@V?$allocator@U?$pair@$$CBHPAVCGraphicImage@@@std@@@3@$0A@@std@@@std@@QAE?AV?$_Tree_iterator@V?$_Tree_val@U?$_Tree_simple_types@U?$pair@$$CBHPAVCGraphicImage@@@std@@@std@@@std@@@2@ABH@Z
_TEXT	SEGMENT
__Loc$1 = -12						; size = 12
___$ReturnUdt$ = 8					; size = 4
__Keyval$ = 12						; size = 4
?find@?$_Tree@V?$_Tmap_traits@HPAVCGraphicImage@@U?$less@H@std@@V?$allocator@U?$pair@$$CBHPAVCGraphicImage@@@std@@@3@$0A@@std@@@std@@QAE?AV?$_Tree_iterator@V?$_Tree_val@U?$_Tree_simple_types@U?$pair@$$CBHPAVCGraphicImage@@@std@@@std@@@std@@@2@ABH@Z PROC ; std::_Tree<std::_Tmap_traits<int,CGraphicImage *,std::less<int>,std::allocator<std::pair<int const ,CGraphicImage *> >,0> >::find, COMDAT
; _this$dead$ = ecx

; 1393 :     _NODISCARD iterator find(const key_type& _Keyval) {

  00000	55		 push	 ebp
  00001	8b ec		 mov	 ebp, esp
  00003	83 ec 0c	 sub	 esp, 12			; 0000000cH
  00006	56		 push	 esi

; 1384 :         const _Tree_find_result<_Nodeptr> _Loc = _Find_lower_bound(_Keyval);

  00007	8b 75 0c	 mov	 esi, DWORD PTR __Keyval$[ebp]
  0000a	8d 45 f4	 lea	 eax, DWORD PTR __Loc$1[ebp]
  0000d	56		 push	 esi
  0000e	50		 push	 eax
  0000f	e8 00 00 00 00	 call	 ??$_Find_lower_bound@H@?$_Tree@V?$_Tmap_traits@HPAVCGraphicImage@@U?$less@H@std@@V?$allocator@U?$pair@$$CBHPAVCGraphicImage@@@std@@@3@$0A@@std@@@std@@IBE?AU?$_Tree_find_result@PAU?$_Tree_node@U?$pair@$$CBHPAVCGraphicImage@@@std@@PAX@std@@@1@ABH@Z ; std::_Tree<std::_Tmap_traits<int,CGraphicImage *,std::less<int>,std::allocator<std::pair<int const ,CGraphicImage *> >,0> >::_Find_lower_bound<int>

; 1624 :         return !_Bound->_Isnil && !_DEBUG_LT_PRED(_Getcomp(), _Keyval, _Traits::_Kfn(_Bound->_Myval));

  00014	8b 4d fc	 mov	 ecx, DWORD PTR __Loc$1[ebp+8]
  00017	80 79 0d 00	 cmp	 BYTE PTR [ecx+13], 0
  0001b	75 07		 jne	 SHORT $LN4@find
; File C:\Program Files\Microsoft Visual Studio\2022\Community\VC\Tools\MSVC\14.44.35207\include\type_traits

; 2380 :         return _Left < _Right;

  0001d	8b 06		 mov	 eax, DWORD PTR [esi]
  0001f	3b 41 10	 cmp	 eax, DWORD PTR [ecx+16]
; File C:\Program Files\Microsoft Visual Studio\2022\Community\VC\Tools\MSVC\14.44.35207\include\xtree

; 1624 :         return !_Bound->_Isnil && !_DEBUG_LT_PRED(_Getcomp(), _Keyval, _Traits::_Kfn(_Bound->_Myval));

  00022	7d 06		 jge	 SHORT $LN25@find
$LN4@find:

; 1389 :         return _Get_scary()->_Myhead;

  00024	8b 0d 00 00 00
	00		 mov	 ecx, DWORD PTR ?m_kMap_iEmotionIndex_pkIconImage@@3V?$map@HPAVCGraphicImage@@U?$less@H@std@@V?$allocator@U?$pair@$$CBHPAVCGraphicImage@@@std@@@3@@std@@A
$LN25@find:

; 1394 :         return iterator(_Find(_Keyval), _Get_scary());
; 1395 :     }

  0002a	8b 45 08	 mov	 eax, DWORD PTR ___$ReturnUdt$[ebp]
  0002d	5e		 pop	 esi
  0002e	89 08		 mov	 DWORD PTR [eax], ecx
  00030	8b e5		 mov	 esp, ebp
  00032	5d		 pop	 ebp
  00033	c2 08 00	 ret	 8
?find@?$_Tree@V?$_Tmap_traits@HPAVCGraphicImage@@U?$less@H@std@@V?$allocator@U?$pair@$$CBHPAVCGraphicImage@@@std@@@3@$0A@@std@@@std@@QAE?AV?$_Tree_iterator@V?$_Tree_val@U?$_Tree_simple_types@U?$pair@$$CBHPAVCGraphicImage@@@std@@@std@@@std@@@2@ABH@Z ENDP ; std::_Tree<std::_Tmap_traits<int,CGraphicImage *,std::less<int>,std::allocator<std::pair<int const ,CGraphicImage *> >,0> >::find
_TEXT	ENDS
; Function compile flags: /Ogtp
; File C:\Program Files\Microsoft Visual Studio\2022\Community\VC\Tools\MSVC\14.44.35207\include\xtree
;	COMDAT ?end@?$_Tree@V?$_Tmap_traits@HPAVCGraphicImage@@U?$less@H@std@@V?$allocator@U?$pair@$$CBHPAVCGraphicImage@@@std@@@3@$0A@@std@@@std@@QAE?AV?$_Tree_iterator@V?$_Tree_val@U?$_Tree_simple_types@U?$pair@$$CBHPAVCGraphicImage@@@std@@@std@@@std@@@2@XZ
_TEXT	SEGMENT
___$ReturnUdt$ = 8					; size = 4
?end@?$_Tree@V?$_Tmap_traits@HPAVCGraphicImage@@U?$less@H@std@@V?$allocator@U?$pair@$$CBHPAVCGraphicImage@@@std@@@3@$0A@@std@@@std@@QAE?AV?$_Tree_iterator@V?$_Tree_val@U?$_Tree_simple_types@U?$pair@$$CBHPAVCGraphicImage@@@std@@@std@@@std@@@2@XZ PROC ; std::_Tree<std::_Tmap_traits<int,CGraphicImage *,std::less<int>,std::allocator<std::pair<int const ,CGraphicImage *> >,0> >::end, COMDAT
; _this$dead$ = ecx

; 1150 :     _NODISCARD iterator end() noexcept {

  00000	55		 push	 ebp
  00001	8b ec		 mov	 ebp, esp

; 37   :     _Tree_unchecked_const_iterator(_Nodeptr _Pnode, const _Mytree* _Plist) noexcept : _Ptr(_Pnode) {

  00003	8b 45 08	 mov	 eax, DWORD PTR ___$ReturnUdt$[ebp]
  00006	8b 0d 00 00 00
	00		 mov	 ecx, DWORD PTR ?m_kMap_iEmotionIndex_pkIconImage@@3V?$map@HPAVCGraphicImage@@U?$less@H@std@@V?$allocator@U?$pair@$$CBHPAVCGraphicImage@@@std@@@3@@std@@A
  0000c	89 08		 mov	 DWORD PTR [eax], ecx

; 1151 :         const auto _Scary = _Get_scary();
; 1152 :         return iterator(_Scary->_Myhead, _Scary);
; 1153 :     }

  0000e	5d		 pop	 ebp
  0000f	c2 04 00	 ret	 4
?end@?$_Tree@V?$_Tmap_traits@HPAVCGraphicImage@@U?$less@H@std@@V?$allocator@U?$pair@$$CBHPAVCGraphicImage@@@std@@@3@$0A@@std@@@std@@QAE?AV?$_Tree_iterator@V?$_Tree_val@U?$_Tree_simple_types@U?$pair@$$CBHPAVCGraphicImage@@@std@@@std@@@std@@@2@XZ ENDP ; std::_Tree<std::_Tmap_traits<int,CGraphicImage *,std::less<int>,std::allocator<std::pair<int const ,CGraphicImage *> >,0> >::end
_TEXT	ENDS
; Function compile flags: /Ogtp
; File C:\Program Files\Microsoft Visual Studio\2022\Community\VC\Tools\MSVC\14.44.35207\include\xtree
; File C:\Program Files\Microsoft Visual Studio\2022\Community\VC\Tools\MSVC\14.44.35207\include\xmemory
; File C:\Program Files\Microsoft Visual Studio\2022\Community\VC\Tools\MSVC\14.44.35207\include\xtree
;	COMDAT ??1?$_Tree@V?$_Tmap_traits@HPAVCGraphicImage@@U?$less@H@std@@V?$allocator@U?$pair@$$CBHPAVCGraphicImage@@@std@@@3@$0A@@std@@@std@@QAE@XZ
_TEXT	SEGMENT
??1?$_Tree@V?$_Tmap_traits@HPAVCGraphicImage@@U?$less@H@std@@V?$allocator@U?$pair@$$CBHPAVCGraphicImage@@@std@@@3@$0A@@std@@@std@@QAE@XZ PROC ; std::_Tree<std::_Tmap_traits<int,CGraphicImage *,std::less<int>,std::allocator<std::pair<int const ,CGraphicImage *> >,0> >::~_Tree<std::_Tmap_traits<int,CGraphicImage *,std::less<int>,std::allocator<std::pair<int const ,CGraphicImage *> >,0> >, COMDAT
; _this$ = ecx

; 1095 :     ~_Tree() noexcept {

  00000	56		 push	 esi
  00001	8b f1		 mov	 esi, ecx

; 777  :         _Erase_tree(_Al, _Myhead->_Parent);

  00003	8b 06		 mov	 eax, DWORD PTR [esi]
  00005	ff 70 04	 push	 DWORD PTR [eax+4]
  00008	56		 push	 esi
  00009	e8 00 00 00 00	 call	 ??$_Erase_tree@V?$allocator@U?$_Tree_node@U?$pair@$$CBHPAVCGraphicImage@@@std@@PAX@std@@@std@@@?$_Tree_val@U?$_Tree_simple_types@U?$pair@$$CBHPAVCGraphicImage@@@std@@@std@@@std@@QAEXAAV?$allocator@U?$_Tree_node@U?$pair@$$CBHPAVCGraphicImage@@@std@@PAX@std@@@1@PAU?$_Tree_node@U?$pair@$$CBHPAVCGraphicImage@@@std@@PAX@1@@Z ; std::_Tree_val<std::_Tree_simple_types<std::pair<int const ,CGraphicImage *> > >::_Erase_tree<std::allocator<std::_Tree_node<std::pair<int const ,CGraphicImage *>,void *> > >
; File C:\Program Files\Microsoft Visual Studio\2022\Community\VC\Tools\MSVC\14.44.35207\include\xmemory

; 289  :         ::operator delete(_Ptr, _Bytes);

  0000e	6a 18		 push	 24			; 00000018H
  00010	ff 36		 push	 DWORD PTR [esi]
  00012	e8 00 00 00 00	 call	 ??3@YAXPAXI@Z		; operator delete
  00017	83 c4 08	 add	 esp, 8
  0001a	5e		 pop	 esi
; File C:\Program Files\Microsoft Visual Studio\2022\Community\VC\Tools\MSVC\14.44.35207\include\xtree

; 1102 :     }

  0001b	c3		 ret	 0
??1?$_Tree@V?$_Tmap_traits@HPAVCGraphicImage@@U?$less@H@std@@V?$allocator@U?$pair@$$CBHPAVCGraphicImage@@@std@@@3@$0A@@std@@@std@@QAE@XZ ENDP ; std::_Tree<std::_Tmap_traits<int,CGraphicImage *,std::less<int>,std::allocator<std::pair<int const ,CGraphicImage *> >,0> >::~_Tree<std::_Tmap_traits<int,CGraphicImage *,std::less<int>,std::allocator<std::pair<int const ,CGraphicImage *> >,0> >
_TEXT	ENDS
; Function compile flags: /Ogtp
; File C:\Program Files\Microsoft Visual Studio\2022\Community\VC\Tools\MSVC\14.44.35207\include\map
; File C:\Program Files\Microsoft Visual Studio\2022\Community\VC\Tools\MSVC\14.44.35207\include\xtree
; File C:\Program Files\Microsoft Visual Studio\2022\Community\VC\Tools\MSVC\14.44.35207\include\type_traits
; File C:\Program Files\Microsoft Visual Studio\2022\Community\VC\Tools\MSVC\14.44.35207\include\xtree
; File C:\Program Files\Microsoft Visual Studio\2022\Community\VC\Tools\MSVC\14.44.35207\include\map
; File C:\Program Files\Microsoft Visual Studio\2022\Community\VC\Tools\MSVC\14.44.35207\include\xmemory
; File C:\Program Files\Microsoft Visual Studio\2022\Community\VC\Tools\MSVC\14.44.35207\include\xtree
; File C:\Program Files\Microsoft Visual Studio\2022\Community\VC\Tools\MSVC\14.44.35207\include\xmemory
; File C:\Program Files\Microsoft Visual Studio\2022\Community\VC\Tools\MSVC\14.44.35207\include\utility
; File C:\Program Files\Microsoft Visual Studio\2022\Community\VC\Tools\MSVC\14.44.35207\include\map
; File C:\Program Files\Microsoft Visual Studio\2022\Community\VC\Tools\MSVC\14.44.35207\include\xtree
; File C:\Program Files\Microsoft Visual Studio\2022\Community\VC\Tools\MSVC\14.44.35207\include\map
; File C:\Program Files\Microsoft Visual Studio\2022\Community\VC\Tools\MSVC\14.44.35207\include\xtree
; File C:\Program Files\Microsoft Visual Studio\2022\Community\VC\Tools\MSVC\14.44.35207\include\map
; File C:\Program Files\Microsoft Visual Studio\2022\Community\VC\Tools\MSVC\14.44.35207\include\xtree
; File C:\Program Files\Microsoft Visual Studio\2022\Community\VC\Tools\MSVC\14.44.35207\include\map
;	COMDAT ??A?$map@HPAVCGraphicImage@@U?$less@H@std@@V?$allocator@U?$pair@$$CBHPAVCGraphicImage@@@std@@@3@@std@@QAEAAPAVCGraphicImage@@ABH@Z
_TEXT	SEGMENT
__Loc$2 = -32						; size = 12
$T3 = -20						; size = 8
__$EHRec$ = -12						; size = 12
__Keyval$ = 8						; size = 4
??A?$map@HPAVCGraphicImage@@U?$less@H@std@@V?$allocator@U?$pair@$$CBHPAVCGraphicImage@@@std@@@3@@std@@QAEAAPAVCGraphicImage@@ABH@Z PROC ; std::map<int,CGraphicImage *,std::less<int>,std::allocator<std::pair<int const ,CGraphicImage *> > >::operator[], COMDAT
; _this$dead$ = ecx

; 345  :     mapped_type& operator[](const key_type& _Keyval) {

  00000	55		 push	 ebp
  00001	8b ec		 mov	 ebp, esp
  00003	6a ff		 push	 -1
  00005	68 00 00 00 00	 push	 __ehhandler$??A?$map@HPAVCGraphicImage@@U?$less@H@std@@V?$allocator@U?$pair@$$CBHPAVCGraphicImage@@@std@@@3@@std@@QAEAAPAVCGraphicImage@@ABH@Z
  0000a	64 a1 00 00 00
	00		 mov	 eax, DWORD PTR fs:0
  00010	50		 push	 eax
  00011	83 ec 14	 sub	 esp, 20			; 00000014H
  00014	56		 push	 esi
  00015	57		 push	 edi
  00016	a1 00 00 00 00	 mov	 eax, DWORD PTR ___security_cookie
  0001b	33 c5		 xor	 eax, ebp
  0001d	50		 push	 eax
  0001e	8d 45 f4	 lea	 eax, DWORD PTR __$EHRec$[ebp]
  00021	64 a3 00 00 00
	00		 mov	 DWORD PTR fs:0, eax

; 197  :         const auto _Loc = _Mybase::_Find_lower_bound(_Keyval);

  00027	8b 7d 08	 mov	 edi, DWORD PTR __Keyval$[ebp]
  0002a	8d 45 e0	 lea	 eax, DWORD PTR __Loc$2[ebp]
  0002d	57		 push	 edi
  0002e	50		 push	 eax
  0002f	e8 00 00 00 00	 call	 ??$_Find_lower_bound@H@?$_Tree@V?$_Tmap_traits@HPAVCGraphicImage@@U?$less@H@std@@V?$allocator@U?$pair@$$CBHPAVCGraphicImage@@@std@@@3@$0A@@std@@@std@@IBE?AU?$_Tree_find_result@PAU?$_Tree_node@U?$pair@$$CBHPAVCGraphicImage@@@std@@PAX@std@@@1@ABH@Z ; std::_Tree<std::_Tmap_traits<int,CGraphicImage *,std::less<int>,std::allocator<std::pair<int const ,CGraphicImage *> >,0> >::_Find_lower_bound<int>
; File C:\Program Files\Microsoft Visual Studio\2022\Community\VC\Tools\MSVC\14.44.35207\include\xtree

; 1624 :         return !_Bound->_Isnil && !_DEBUG_LT_PRED(_Getcomp(), _Keyval, _Traits::_Kfn(_Bound->_Myval));

  00034	8b 4d e8	 mov	 ecx, DWORD PTR __Loc$2[ebp+8]
  00037	80 79 0d 00	 cmp	 BYTE PTR [ecx+13], 0
  0003b	75 07		 jne	 SHORT $LN4@operator
; File C:\Program Files\Microsoft Visual Studio\2022\Community\VC\Tools\MSVC\14.44.35207\include\type_traits

; 2380 :         return _Left < _Right;

  0003d	8b 07		 mov	 eax, DWORD PTR [edi]
  0003f	3b 41 10	 cmp	 eax, DWORD PTR [ecx+16]
; File C:\Program Files\Microsoft Visual Studio\2022\Community\VC\Tools\MSVC\14.44.35207\include\xtree

; 1624 :         return !_Bound->_Isnil && !_DEBUG_LT_PRED(_Getcomp(), _Keyval, _Traits::_Kfn(_Bound->_Myval));

  00042	7d 60		 jge	 SHORT $LN3@operator
$LN4@operator:

; 1648 :         if (max_size() == _Get_scary()->_Mysize) {

  00044	81 3d 04 00 00
	00 aa aa aa 0a	 cmp	 DWORD PTR ?m_kMap_iEmotionIndex_pkIconImage@@3V?$map@HPAVCGraphicImage@@U?$less@H@std@@V?$allocator@U?$pair@$$CBHPAVCGraphicImage@@@std@@@3@@std@@A+4, 178956970 ; 0aaaaaaaH
  0004e	74 6a		 je	 SHORT $LN117@operator
; File C:\Program Files\Microsoft Visual Studio\2022\Community\VC\Tools\MSVC\14.44.35207\include\map

; 205  :         const auto _Inserted = _Tree_temp_node<_Alnode>(_Mybase::_Getal(), _Scary->_Myhead, piecewise_construct,

  00050	8b 35 00 00 00
	00		 mov	 esi, DWORD PTR ?m_kMap_iEmotionIndex_pkIconImage@@3V?$map@HPAVCGraphicImage@@U?$less@H@std@@V?$allocator@U?$pair@$$CBHPAVCGraphicImage@@@std@@@3@@std@@A
; File C:\Program Files\Microsoft Visual Studio\2022\Community\VC\Tools\MSVC\14.44.35207\include\xmemory

; 1160 :     _CONSTEXPR20 explicit _Alloc_construct_ptr(_Alloc& _Al_) : _Al(_Al_), _Ptr(nullptr) {}

  00056	c7 45 ec 00 00
	00 00		 mov	 DWORD PTR $T3[ebp], OFFSET ?m_kMap_iEmotionIndex_pkIconImage@@3V?$map@HPAVCGraphicImage@@U?$less@H@std@@V?$allocator@U?$pair@$$CBHPAVCGraphicImage@@@std@@@3@@std@@A ; m_kMap_iEmotionIndex_pkIconImage
; File C:\Program Files\Microsoft Visual Studio\2022\Community\VC\Tools\MSVC\14.44.35207\include\xtree

; 808  :     explicit _Tree_temp_node_alloc(_Alnode& _Al_) : _Alloc_construct_ptr<_Alnode>(_Al_) {

  0005d	c7 45 fc 00 00
	00 00		 mov	 DWORD PTR __$EHRec$[ebp+8], 0
; File C:\Program Files\Microsoft Visual Studio\2022\Community\VC\Tools\MSVC\14.44.35207\include\xmemory

; 136  :         return ::operator new(_Bytes);

  00064	6a 18		 push	 24			; 00000018H

; 1167 :         _Ptr = nullptr; // if allocate throws, prevents double-free

  00066	c7 45 f0 00 00
	00 00		 mov	 DWORD PTR $T3[ebp+4], 0

; 136  :         return ::operator new(_Bytes);

  0006d	e8 00 00 00 00	 call	 ??2@YAPAXI@Z		; operator new

; 256  :         return _Traits::_Allocate(_Bytes);

  00072	8b c8		 mov	 ecx, eax

; 136  :         return ::operator new(_Bytes);

  00074	83 c4 04	 add	 esp, 4
; File C:\Program Files\Microsoft Visual Studio\2022\Community\VC\Tools\MSVC\14.44.35207\include\utility

; 478  :         : first(_STD _Tuple_get<_Indices1>(_STD move(_Val1))...),

  00077	8b 07		 mov	 eax, DWORD PTR [edi]
  00079	89 41 10	 mov	 DWORD PTR [ecx+16], eax

; 479  :           second(_STD _Tuple_get<_Indices2>(_STD move(_Val2))...) {}

  0007c	c7 41 14 00 00
	00 00		 mov	 DWORD PTR [ecx+20], 0
; File C:\Program Files\Microsoft Visual Studio\2022\Community\VC\Tools\MSVC\14.44.35207\include\map

; 211  :         return {_Scary->_Insert_node(_Loc._Location, _Inserted), true};

  00083	51		 push	 ecx
  00084	ff 75 e4	 push	 DWORD PTR __Loc$2[ebp+4]
; File C:\Program Files\Microsoft Visual Studio\2022\Community\VC\Tools\MSVC\14.44.35207\include\xtree

; 831  :         _Construct_in_place(this->_Ptr->_Left, _Myhead);

  00087	89 31		 mov	 DWORD PTR [ecx], esi
; File C:\Program Files\Microsoft Visual Studio\2022\Community\VC\Tools\MSVC\14.44.35207\include\map

; 211  :         return {_Scary->_Insert_node(_Loc._Location, _Inserted), true};

  00089	ff 75 e0	 push	 DWORD PTR __Loc$2[ebp]
; File C:\Program Files\Microsoft Visual Studio\2022\Community\VC\Tools\MSVC\14.44.35207\include\xtree

; 832  :         _Construct_in_place(this->_Ptr->_Parent, _Myhead);

  0008c	89 71 04	 mov	 DWORD PTR [ecx+4], esi

; 833  :         _Construct_in_place(this->_Ptr->_Right, _Myhead);

  0008f	89 71 08	 mov	 DWORD PTR [ecx+8], esi

; 834  :         this->_Ptr->_Color = _Red;

  00092	66 c7 41 0c 00
	00		 mov	 WORD PTR [ecx+12], 0
; File C:\Program Files\Microsoft Visual Studio\2022\Community\VC\Tools\MSVC\14.44.35207\include\map

; 211  :         return {_Scary->_Insert_node(_Loc._Location, _Inserted), true};

  00098	b9 00 00 00 00	 mov	 ecx, OFFSET ?m_kMap_iEmotionIndex_pkIconImage@@3V?$map@HPAVCGraphicImage@@U?$less@H@std@@V?$allocator@U?$pair@$$CBHPAVCGraphicImage@@@std@@@3@@std@@A ; m_kMap_iEmotionIndex_pkIconImage
  0009d	e8 00 00 00 00	 call	 ?_Insert_node@?$_Tree_val@U?$_Tree_simple_types@U?$pair@$$CBHPAVCGraphicImage@@@std@@@std@@@std@@QAEPAU?$_Tree_node@U?$pair@$$CBHPAVCGraphicImage@@@std@@PAX@2@U?$_Tree_id@PAU?$_Tree_node@U?$pair@$$CBHPAVCGraphicImage@@@std@@PAX@std@@@2@QAU32@@Z ; std::_Tree_val<std::_Tree_simple_types<std::pair<int const ,CGraphicImage *> > >::_Insert_node
  000a2	8b c8		 mov	 ecx, eax
$LN3@operator:

; 346  :         return _Try_emplace(_Keyval).first->_Myval.second;

  000a4	8d 41 14	 lea	 eax, DWORD PTR [ecx+20]

; 347  :     }

  000a7	8b 4d f4	 mov	 ecx, DWORD PTR __$EHRec$[ebp]
  000aa	64 89 0d 00 00
	00 00		 mov	 DWORD PTR fs:0, ecx
  000b1	59		 pop	 ecx
  000b2	5f		 pop	 edi
  000b3	5e		 pop	 esi
  000b4	8b e5		 mov	 esp, ebp
  000b6	5d		 pop	 ebp
  000b7	c2 04 00	 ret	 4
$LN117@operator:
; File C:\Program Files\Microsoft Visual Studio\2022\Community\VC\Tools\MSVC\14.44.35207\include\xtree

; 1649 :             _Throw_tree_length_error();

  000ba	e8 00 00 00 00	 call	 ?_Throw_tree_length_error@std@@YAXXZ ; std::_Throw_tree_length_error
$LN115@operator:
  000bf	cc		 int	 3
_TEXT	ENDS
;	COMDAT text$x
text$x	SEGMENT
__unwindfunclet$??A?$map@HPAVCGraphicImage@@U?$less@H@std@@V?$allocator@U?$pair@$$CBHPAVCGraphicImage@@@std@@@3@@std@@QAEAAPAVCGraphicImage@@ABH@Z$2:
  00000	8d 4d ec	 lea	 ecx, DWORD PTR $T3[ebp]
  00003	e9 00 00 00 00	 jmp	 ??1?$_Alloc_construct_ptr@V?$allocator@U?$_Tree_node@U?$pair@$$CBHPAVCGraphicImage@@@std@@PAX@std@@@std@@@std@@QAE@XZ ; std::_Alloc_construct_ptr<std::allocator<std::_Tree_node<std::pair<int const ,CGraphicImage *>,void *> > >::~_Alloc_construct_ptr<std::allocator<std::_Tree_node<std::pair<int const ,CGraphicImage *>,void *> > >
  00008	cc		 int	 3
  00009	cc		 int	 3
  0000a	cc		 int	 3
  0000b	cc		 int	 3
  0000c	cc		 int	 3
__ehhandler$??A?$map@HPAVCGraphicImage@@U?$less@H@std@@V?$allocator@U?$pair@$$CBHPAVCGraphicImage@@@std@@@3@@std@@QAEAAPAVCGraphicImage@@ABH@Z:
  0000d	90		 npad	 1
  0000e	90		 npad	 1
  0000f	8b 54 24 08	 mov	 edx, DWORD PTR [esp+8]
  00013	8d 42 0c	 lea	 eax, DWORD PTR [edx+12]
  00016	8b 4a e0	 mov	 ecx, DWORD PTR [edx-32]
  00019	33 c8		 xor	 ecx, eax
  0001b	e8 00 00 00 00	 call	 @__security_check_cookie@4
  00020	b8 00 00 00 00	 mov	 eax, OFFSET __ehfuncinfo$??A?$map@HPAVCGraphicImage@@U?$less@H@std@@V?$allocator@U?$pair@$$CBHPAVCGraphicImage@@@std@@@3@@std@@QAEAAPAVCGraphicImage@@ABH@Z
  00025	e9 00 00 00 00	 jmp	 ___CxxFrameHandler3
text$x	ENDS
??A?$map@HPAVCGraphicImage@@U?$less@H@std@@V?$allocator@U?$pair@$$CBHPAVCGraphicImage@@@std@@@3@@std@@QAEAAPAVCGraphicImage@@ABH@Z ENDP ; std::map<int,CGraphicImage *,std::less<int>,std::allocator<std::pair<int const ,CGraphicImage *> > >::operator[]
; Function compile flags: /Ogtp
; File C:\Program Files\Microsoft Visual Studio\2022\Community\VC\Tools\MSVC\14.44.35207\include\map
; File C:\Program Files\Microsoft Visual Studio\2022\Community\VC\Tools\MSVC\14.44.35207\include\xmemory
; File C:\Program Files\Microsoft Visual Studio\2022\Community\VC\Tools\MSVC\14.44.35207\include\xtree
; File C:\Program Files\Microsoft Visual Studio\2022\Community\VC\Tools\MSVC\14.44.35207\include\xmemory
; File C:\Program Files\Microsoft Visual Studio\2022\Community\VC\Tools\MSVC\14.44.35207\include\xtree
; File C:\Program Files\Microsoft Visual Studio\2022\Community\VC\Tools\MSVC\14.44.35207\include\map
;	COMDAT ??0?$map@HPAVCGraphicImage@@U?$less@H@std@@V?$allocator@U?$pair@$$CBHPAVCGraphicImage@@@std@@@3@@std@@QAE@XZ
_TEXT	SEGMENT
??0?$map@HPAVCGraphicImage@@U?$less@H@std@@V?$allocator@U?$pair@$$CBHPAVCGraphicImage@@@std@@@3@@std@@QAE@XZ PROC ; std::map<int,CGraphicImage *,std::less<int>,std::allocator<std::pair<int const ,CGraphicImage *> > >::map<int,CGraphicImage *,std::less<int>,std::allocator<std::pair<int const ,CGraphicImage *> > >, COMDAT
; _this$dead$ = ecx

; 106  :     map() : _Mybase(key_compare()) {}

  00000	55		 push	 ebp
  00001	8b ec		 mov	 ebp, esp
  00003	51		 push	 ecx
; File C:\Program Files\Microsoft Visual Studio\2022\Community\VC\Tools\MSVC\14.44.35207\include\xmemory

; 136  :         return ::operator new(_Bytes);

  00004	6a 18		 push	 24			; 00000018H
; File C:\Program Files\Microsoft Visual Studio\2022\Community\VC\Tools\MSVC\14.44.35207\include\xtree

; 450  :     _Tree_val() noexcept : _Myhead(), _Mysize(0) {}

  00006	c7 05 00 00 00
	00 00 00 00 00	 mov	 DWORD PTR ?m_kMap_iEmotionIndex_pkIconImage@@3V?$map@HPAVCGraphicImage@@U?$less@H@std@@V?$allocator@U?$pair@$$CBHPAVCGraphicImage@@@std@@@3@@std@@A, 0
  00010	c7 05 04 00 00
	00 00 00 00 00	 mov	 DWORD PTR ?m_kMap_iEmotionIndex_pkIconImage@@3V?$map@HPAVCGraphicImage@@U?$less@H@std@@V?$allocator@U?$pair@$$CBHPAVCGraphicImage@@@std@@@3@@std@@A+4, 0
; File C:\Program Files\Microsoft Visual Studio\2022\Community\VC\Tools\MSVC\14.44.35207\include\xmemory

; 136  :         return ::operator new(_Bytes);

  0001a	e8 00 00 00 00	 call	 ??2@YAPAXI@Z		; operator new
  0001f	83 c4 04	 add	 esp, 4
; File C:\Program Files\Microsoft Visual Studio\2022\Community\VC\Tools\MSVC\14.44.35207\include\xtree

; 346  :         _Construct_in_place(_Pnode->_Left, _Pnode);

  00022	89 00		 mov	 DWORD PTR [eax], eax

; 347  :         _Construct_in_place(_Pnode->_Parent, _Pnode);

  00024	89 40 04	 mov	 DWORD PTR [eax+4], eax

; 348  :         _Construct_in_place(_Pnode->_Right, _Pnode);

  00027	89 40 08	 mov	 DWORD PTR [eax+8], eax

; 349  :         _Pnode->_Color = _Black;

  0002a	66 c7 40 0c 01
	01		 mov	 WORD PTR [eax+12], 257	; 00000101H

; 1957 :         _Scary->_Myhead = _Node::_Buyheadnode(_Getal());

  00030	a3 00 00 00 00	 mov	 DWORD PTR ?m_kMap_iEmotionIndex_pkIconImage@@3V?$map@HPAVCGraphicImage@@U?$less@H@std@@V?$allocator@U?$pair@$$CBHPAVCGraphicImage@@@std@@@3@@std@@A, eax
; File C:\Program Files\Microsoft Visual Studio\2022\Community\VC\Tools\MSVC\14.44.35207\include\map

; 106  :     map() : _Mybase(key_compare()) {}

  00035	b8 00 00 00 00	 mov	 eax, OFFSET ?m_kMap_iEmotionIndex_pkIconImage@@3V?$map@HPAVCGraphicImage@@U?$less@H@std@@V?$allocator@U?$pair@$$CBHPAVCGraphicImage@@@std@@@3@@std@@A ; m_kMap_iEmotionIndex_pkIconImage
  0003a	8b e5		 mov	 esp, ebp
  0003c	5d		 pop	 ebp
  0003d	c3		 ret	 0
??0?$map@HPAVCGraphicImage@@U?$less@H@std@@V?$allocator@U?$pair@$$CBHPAVCGraphicImage@@@std@@@3@@std@@QAE@XZ ENDP ; std::map<int,CGraphicImage *,std::less<int>,std::allocator<std::pair<int const ,CGraphicImage *> > >::map<int,CGraphicImage *,std::less<int>,std::allocator<std::pair<int const ,CGraphicImage *> > >
_TEXT	ENDS
; Function compile flags: /Ogtp
; File D:\_m2work\txoko-m2-work\txoko-client-src\source\eterBase\Singleton.h
;	COMDAT ?InstancePtr@?$CSingleton@VCPythonPlayer@@@@SAPAVCPythonPlayer@@XZ
_TEXT	SEGMENT
?InstancePtr@?$CSingleton@VCPythonPlayer@@@@SAPAVCPythonPlayer@@XZ PROC ; CSingleton<CPythonPlayer>::InstancePtr, COMDAT

; 32   : 		return (ms_singleton);

  00000	a1 00 00 00 00	 mov	 eax, DWORD PTR ?ms_singleton@?$CSingleton@VCPythonPlayer@@@@0PAVCPythonPlayer@@A ; CSingleton<CPythonPlayer>::ms_singleton

; 33   : 	}

  00005	c3		 ret	 0
?InstancePtr@?$CSingleton@VCPythonPlayer@@@@SAPAVCPythonPlayer@@XZ ENDP ; CSingleton<CPythonPlayer>::InstancePtr
_TEXT	ENDS
; Function compile flags: /Ogtp
; File C:\Program Files\Microsoft Visual Studio\2022\Community\VC\Tools\MSVC\14.44.35207\include\xtree
;	COMDAT ??0?$_Tree_iterator@V?$_Tree_val@U?$_Tree_simple_types@U?$pair@$$CBHPAVCGraphicImage@@@std@@@std@@@std@@@std@@QAE@PAU?$_Tree_node@U?$pair@$$CBHPAVCGraphicImage@@@std@@PAX@1@PBV?$_Tree_val@U?$_Tree_simple_types@U?$pair@$$CBHPAVCGraphicImage@@@std@@@std@@@1@@Z
_TEXT	SEGMENT
___param0$ = 8						; size = 4
___param1$dead$ = 12					; size = 4
??0?$_Tree_iterator@V?$_Tree_val@U?$_Tree_simple_types@U?$pair@$$CBHPAVCGraphicImage@@@std@@@std@@@std@@@std@@QAE@PAU?$_Tree_node@U?$pair@$$CBHPAVCGraphicImage@@@std@@PAX@1@PBV?$_Tree_val@U?$_Tree_simple_types@U?$pair@$$CBHPAVCGraphicImage@@@std@@@std@@@1@@Z PROC ; std::_Tree_iterator<std::_Tree_val<std::_Tree_simple_types<std::pair<int const ,CGraphicImage *> > > >::_Tree_iterator<std::_Tree_val<std::_Tree_simple_types<std::pair<int const ,CGraphicImage *> > > >, COMDAT
; _this$ = ecx
  00000	55		 push	 ebp
  00001	8b ec		 mov	 ebp, esp

; 37   :     _Tree_unchecked_const_iterator(_Nodeptr _Pnode, const _Mytree* _Plist) noexcept : _Ptr(_Pnode) {

  00003	8b 45 08	 mov	 eax, DWORD PTR ___param0$[ebp]
  00006	89 01		 mov	 DWORD PTR [ecx], eax
  00008	8b c1		 mov	 eax, ecx
  0000a	5d		 pop	 ebp
  0000b	c2 08 00	 ret	 8
??0?$_Tree_iterator@V?$_Tree_val@U?$_Tree_simple_types@U?$pair@$$CBHPAVCGraphicImage@@@std@@@std@@@std@@@std@@QAE@PAU?$_Tree_node@U?$pair@$$CBHPAVCGraphicImage@@@std@@PAX@1@PBV?$_Tree_val@U?$_Tree_simple_types@U?$pair@$$CBHPAVCGraphicImage@@@std@@@std@@@1@@Z ENDP ; std::_Tree_iterator<std::_Tree_val<std::_Tree_simple_types<std::pair<int const ,CGraphicImage *> > > >::_Tree_iterator<std::_Tree_val<std::_Tree_simple_types<std::pair<int const ,CGraphicImage *> > > >
_TEXT	ENDS
; Function compile flags: /Ogtp
; File C:\Program Files\Microsoft Visual Studio\2022\Community\VC\Tools\MSVC\14.44.35207\include\xtree
;	COMDAT ??0?$_Tree_const_iterator@V?$_Tree_val@U?$_Tree_simple_types@U?$pair@$$CBHPAVCGraphicImage@@@std@@@std@@@std@@@std@@QAE@PAU?$_Tree_node@U?$pair@$$CBHPAVCGraphicImage@@@std@@PAX@1@PBV?$_Tree_val@U?$_Tree_simple_types@U?$pair@$$CBHPAVCGraphicImage@@@std@@@std@@@1@@Z
_TEXT	SEGMENT
___param0$ = 8						; size = 4
___param1$dead$ = 12					; size = 4
??0?$_Tree_const_iterator@V?$_Tree_val@U?$_Tree_simple_types@U?$pair@$$CBHPAVCGraphicImage@@@std@@@std@@@std@@@std@@QAE@PAU?$_Tree_node@U?$pair@$$CBHPAVCGraphicImage@@@std@@PAX@1@PBV?$_Tree_val@U?$_Tree_simple_types@U?$pair@$$CBHPAVCGraphicImage@@@std@@@std@@@1@@Z PROC ; std::_Tree_const_iterator<std::_Tree_val<std::_Tree_simple_types<std::pair<int const ,CGraphicImage *> > > >::_Tree_const_iterator<std::_Tree_val<std::_Tree_simple_types<std::pair<int const ,CGraphicImage *> > > >, COMDAT
; _this$ = ecx
  00000	55		 push	 ebp
  00001	8b ec		 mov	 ebp, esp

; 37   :     _Tree_unchecked_const_iterator(_Nodeptr _Pnode, const _Mytree* _Plist) noexcept : _Ptr(_Pnode) {

  00003	8b 45 08	 mov	 eax, DWORD PTR ___param0$[ebp]
  00006	89 01		 mov	 DWORD PTR [ecx], eax
  00008	8b c1		 mov	 eax, ecx
  0000a	5d		 pop	 ebp
  0000b	c2 08 00	 ret	 8
??0?$_Tree_const_iterator@V?$_Tree_val@U?$_Tree_simple_types@U?$pair@$$CBHPAVCGraphicImage@@@std@@@std@@@std@@@std@@QAE@PAU?$_Tree_node@U?$pair@$$CBHPAVCGraphicImage@@@std@@PAX@1@PBV?$_Tree_val@U?$_Tree_simple_types@U?$pair@$$CBHPAVCGraphicImage@@@std@@@std@@@1@@Z ENDP ; std::_Tree_const_iterator<std::_Tree_val<std::_Tree_simple_types<std::pair<int const ,CGraphicImage *> > > >::_Tree_const_iterator<std::_Tree_val<std::_Tree_simple_types<std::pair<int const ,CGraphicImage *> > > >
_TEXT	ENDS
; Function compile flags: /Ogtp
; File C:\Program Files\Microsoft Visual Studio\2022\Community\VC\Tools\MSVC\14.44.35207\include\type_traits
;	COMDAT ??$forward@AAPAVCGraphicImage@@@std@@YAAAPAVCGraphicImage@@AAPAV1@@Z
_TEXT	SEGMENT
??$forward@AAPAVCGraphicImage@@@std@@YAAAPAVCGraphicImage@@AAPAV1@@Z PROC ; std::forward<CGraphicImage * &>, COMDAT
; __Arg$ = ecx

; 1502 :     return static_cast<_Ty&&>(_Arg);

  00000	8b c1		 mov	 eax, ecx

; 1503 : }

  00002	c3		 ret	 0
??$forward@AAPAVCGraphicImage@@@std@@YAAAPAVCGraphicImage@@AAPAV1@@Z ENDP ; std::forward<CGraphicImage * &>
_TEXT	ENDS
; Function compile flags: /Ogtp
; File C:\Program Files\Microsoft Visual Studio\2022\Community\VC\Tools\MSVC\14.44.35207\include\utility
;	COMDAT ??$?0AAHAAPAVCGraphicImage@@$0A@@?$pair@HPAVCGraphicImage@@@std@@QAE@AAHAAPAVCGraphicImage@@@Z
_TEXT	SEGMENT
__Val1$ = 8						; size = 4
__Val2$ = 12						; size = 4
??$?0AAHAAPAVCGraphicImage@@$0A@@?$pair@HPAVCGraphicImage@@@std@@QAE@AAHAAPAVCGraphicImage@@@Z PROC ; std::pair<int,CGraphicImage *>::pair<int,CGraphicImage *><int &,CGraphicImage * &,0>, COMDAT
; _this$ = ecx

; 274  :         : first(_STD forward<_Other1>(_Val1)), second(_STD forward<_Other2>(_Val2)) {

  00000	55		 push	 ebp
  00001	8b ec		 mov	 ebp, esp
  00003	8b 45 08	 mov	 eax, DWORD PTR __Val1$[ebp]
  00006	8b 00		 mov	 eax, DWORD PTR [eax]
  00008	89 01		 mov	 DWORD PTR [ecx], eax
  0000a	8b 45 0c	 mov	 eax, DWORD PTR __Val2$[ebp]
  0000d	8b 00		 mov	 eax, DWORD PTR [eax]
  0000f	89 41 04	 mov	 DWORD PTR [ecx+4], eax

; 275  :     }

  00012	8b c1		 mov	 eax, ecx
  00014	5d		 pop	 ebp
  00015	c2 08 00	 ret	 8
??$?0AAHAAPAVCGraphicImage@@$0A@@?$pair@HPAVCGraphicImage@@@std@@QAE@AAHAAPAVCGraphicImage@@@Z ENDP ; std::pair<int,CGraphicImage *>::pair<int,CGraphicImage *><int &,CGraphicImage * &,0>
_TEXT	ENDS
; Function compile flags: /Ogtp
; File C:\Program Files\Microsoft Visual Studio\2022\Community\VC\Tools\MSVC\14.44.35207\include\type_traits
;	COMDAT ??$forward@U?$pair@HPAVCGraphicImage@@@std@@@std@@YA$$QAU?$pair@HPAVCGraphicImage@@@0@AAU10@@Z
_TEXT	SEGMENT
??$forward@U?$pair@HPAVCGraphicImage@@@std@@@std@@YA$$QAU?$pair@HPAVCGraphicImage@@@0@AAU10@@Z PROC ; std::forward<std::pair<int,CGraphicImage *> >, COMDAT
; __Arg$ = ecx

; 1502 :     return static_cast<_Ty&&>(_Arg);

  00000	8b c1		 mov	 eax, ecx

; 1503 : }

  00002	c3		 ret	 0
??$forward@U?$pair@HPAVCGraphicImage@@@std@@@std@@YA$$QAU?$pair@HPAVCGraphicImage@@@0@AAU10@@Z ENDP ; std::forward<std::pair<int,CGraphicImage *> >
_TEXT	ENDS
; Function compile flags: /Ogtp
; File C:\Program Files\Microsoft Visual Studio\2022\Community\VC\Tools\MSVC\14.44.35207\include\xtree
; File C:\Program Files\Microsoft Visual Studio\2022\Community\VC\Tools\MSVC\14.44.35207\include\type_traits
; File C:\Program Files\Microsoft Visual Studio\2022\Community\VC\Tools\MSVC\14.44.35207\include\xtree
; File C:\Program Files\Microsoft Visual Studio\2022\Community\VC\Tools\MSVC\14.44.35207\include\utility
; File C:\Program Files\Microsoft Visual Studio\2022\Community\VC\Tools\MSVC\14.44.35207\include\xtree
; File C:\Program Files\Microsoft Visual Studio\2022\Community\VC\Tools\MSVC\14.44.35207\include\xmemory
; File C:\Program Files\Microsoft Visual Studio\2022\Community\VC\Tools\MSVC\14.44.35207\include\xtree
; File C:\Program Files\Microsoft Visual Studio\2022\Community\VC\Tools\MSVC\14.44.35207\include\xmemory
; File C:\Program Files\Microsoft Visual Studio\2022\Community\VC\Tools\MSVC\14.44.35207\include\utility
; File C:\Program Files\Microsoft Visual Studio\2022\Community\VC\Tools\MSVC\14.44.35207\include\xmemory
; File C:\Program Files\Microsoft Visual Studio\2022\Community\VC\Tools\MSVC\14.44.35207\include\utility
; File C:\Program Files\Microsoft Visual Studio\2022\Community\VC\Tools\MSVC\14.44.35207\include\xtree
; File C:\Program Files\Microsoft Visual Studio\2022\Community\VC\Tools\MSVC\14.44.35207\include\utility
; File C:\Program Files\Microsoft Visual Studio\2022\Community\VC\Tools\MSVC\14.44.35207\include\xtree
;	COMDAT ??$emplace@U?$pair@HPAVCGraphicImage@@@std@@@?$_Tree@V?$_Tmap_traits@HPAVCGraphicImage@@U?$less@H@std@@V?$allocator@U?$pair@$$CBHPAVCGraphicImage@@@std@@@3@$0A@@std@@@std@@QAE?AU?$pair@V?$_Tree_iterator@V?$_Tree_val@U?$_Tree_simple_types@U?$pair@$$CBHPAVCGraphicImage@@@std@@@std@@@std@@@std@@_N@1@$$QAU?$pair@HPAVCGraphicImage@@@1@@Z
_TEXT	SEGMENT
__Loc$2 = -36						; size = 12
$T3 = -24						; size = 12
$T4 = -20						; size = 8
__$EHRec$ = -12						; size = 12
___$ReturnUdt$ = 8					; size = 4
_<_Vals_0>$ = 12					; size = 4
??$emplace@U?$pair@HPAVCGraphicImage@@@std@@@?$_Tree@V?$_Tmap_traits@HPAVCGraphicImage@@U?$less@H@std@@V?$allocator@U?$pair@$$CBHPAVCGraphicImage@@@std@@@3@$0A@@std@@@std@@QAE?AU?$pair@V?$_Tree_iterator@V?$_Tree_val@U?$_Tree_simple_types@U?$pair@$$CBHPAVCGraphicImage@@@std@@@std@@@std@@@std@@_N@1@$$QAU?$pair@HPAVCGraphicImage@@@1@@Z PROC ; std::_Tree<std::_Tmap_traits<int,CGraphicImage *,std::less<int>,std::allocator<std::pair<int const ,CGraphicImage *> >,0> >::emplace<std::pair<int,CGraphicImage *> >, COMDAT
; _this$dead$ = ecx

; 1047 :     pair<iterator, bool> emplace(_Valtys&&... _Vals) {

  00000	55		 push	 ebp
  00001	8b ec		 mov	 ebp, esp
  00003	6a ff		 push	 -1
  00005	68 00 00 00 00	 push	 __ehhandler$??$emplace@U?$pair@HPAVCGraphicImage@@@std@@@?$_Tree@V?$_Tmap_traits@HPAVCGraphicImage@@U?$less@H@std@@V?$allocator@U?$pair@$$CBHPAVCGraphicImage@@@std@@@3@$0A@@std@@@std@@QAE?AU?$pair@V?$_Tree_iterator@V?$_Tree_val@U?$_Tree_simple_types@U?$pair@$$CBHPAVCGraphicImage@@@std@@@std@@@std@@@std@@_N@1@$$QAU?$pair@HPAVCGraphicImage@@@1@@Z
  0000a	64 a1 00 00 00
	00		 mov	 eax, DWORD PTR fs:0
  00010	50		 push	 eax
  00011	83 ec 18	 sub	 esp, 24			; 00000018H
  00014	56		 push	 esi
  00015	57		 push	 edi
  00016	a1 00 00 00 00	 mov	 eax, DWORD PTR ___security_cookie
  0001b	33 c5		 xor	 eax, ebp
  0001d	50		 push	 eax
  0001e	8d 45 f4	 lea	 eax, DWORD PTR __$EHRec$[ebp]
  00021	64 a3 00 00 00
	00		 mov	 DWORD PTR fs:0, eax

; 1017 :             _Loc                = _Find_lower_bound(_Keyval);

  00027	8b 7d 0c	 mov	 edi, DWORD PTR _<_Vals_0>$[ebp]
  0002a	8d 45 e8	 lea	 eax, DWORD PTR $T3[ebp]
  0002d	57		 push	 edi
  0002e	50		 push	 eax
  0002f	e8 00 00 00 00	 call	 ??$_Find_lower_bound@H@?$_Tree@V?$_Tmap_traits@HPAVCGraphicImage@@U?$less@H@std@@V?$allocator@U?$pair@$$CBHPAVCGraphicImage@@@std@@@3@$0A@@std@@@std@@IBE?AU?$_Tree_find_result@PAU?$_Tree_node@U?$pair@$$CBHPAVCGraphicImage@@@std@@PAX@std@@@1@ABH@Z ; std::_Tree<std::_Tmap_traits<int,CGraphicImage *,std::less<int>,std::allocator<std::pair<int const ,CGraphicImage *> >,0> >::_Find_lower_bound<int>
  00034	8b 48 08	 mov	 ecx, DWORD PTR [eax+8]
  00037	f3 0f 7e 00	 movq	 xmm0, QWORD PTR [eax]
  0003b	66 0f d6 45 dc	 movq	 QWORD PTR __Loc$2[ebp], xmm0

; 1624 :         return !_Bound->_Isnil && !_DEBUG_LT_PRED(_Getcomp(), _Keyval, _Traits::_Kfn(_Bound->_Myval));

  00040	80 79 0d 00	 cmp	 BYTE PTR [ecx+13], 0
  00044	75 0b		 jne	 SHORT $LN4@emplace
; File C:\Program Files\Microsoft Visual Studio\2022\Community\VC\Tools\MSVC\14.44.35207\include\type_traits

; 2380 :         return _Left < _Right;

  00046	8b 07		 mov	 eax, DWORD PTR [edi]
  00048	3b 41 10	 cmp	 eax, DWORD PTR [ecx+16]
; File C:\Program Files\Microsoft Visual Studio\2022\Community\VC\Tools\MSVC\14.44.35207\include\xtree

; 1624 :         return !_Bound->_Isnil && !_DEBUG_LT_PRED(_Getcomp(), _Keyval, _Traits::_Kfn(_Bound->_Myval));

  0004b	7c 04		 jl	 SHORT $LN4@emplace
; File C:\Program Files\Microsoft Visual Studio\2022\Community\VC\Tools\MSVC\14.44.35207\include\utility

; 274  :         : first(_STD forward<_Other1>(_Val1)), second(_STD forward<_Other2>(_Val2)) {

  0004d	32 d2		 xor	 dl, dl
; File C:\Program Files\Microsoft Visual Studio\2022\Community\VC\Tools\MSVC\14.44.35207\include\xtree

; 1019 :                 return {_Loc._Bound, false};

  0004f	eb 5f		 jmp	 SHORT $LN96@emplace
$LN4@emplace:

; 1648 :         if (max_size() == _Get_scary()->_Mysize) {

  00051	81 3d 04 00 00
	00 aa aa aa 0a	 cmp	 DWORD PTR ?m_kMap_iEmotionIndex_pkIconImage@@3V?$map@HPAVCGraphicImage@@U?$less@H@std@@V?$allocator@U?$pair@$$CBHPAVCGraphicImage@@@std@@@3@@std@@A+4, 178956970 ; 0aaaaaaaH
  0005b	74 6e		 je	 SHORT $LN117@emplace

; 1023 :             _Inserted = _Tree_temp_node<_Alnode>(_Getal(), _Scary->_Myhead, _STD forward<_Valtys>(_Vals)...)._Release();

  0005d	8b 35 00 00 00
	00		 mov	 esi, DWORD PTR ?m_kMap_iEmotionIndex_pkIconImage@@3V?$map@HPAVCGraphicImage@@U?$less@H@std@@V?$allocator@U?$pair@$$CBHPAVCGraphicImage@@@std@@@3@@std@@A
; File C:\Program Files\Microsoft Visual Studio\2022\Community\VC\Tools\MSVC\14.44.35207\include\xmemory

; 1160 :     _CONSTEXPR20 explicit _Alloc_construct_ptr(_Alloc& _Al_) : _Al(_Al_), _Ptr(nullptr) {}

  00063	c7 45 ec 00 00
	00 00		 mov	 DWORD PTR $T4[ebp], OFFSET ?m_kMap_iEmotionIndex_pkIconImage@@3V?$map@HPAVCGraphicImage@@U?$less@H@std@@V?$allocator@U?$pair@$$CBHPAVCGraphicImage@@@std@@@3@@std@@A ; m_kMap_iEmotionIndex_pkIconImage
; File C:\Program Files\Microsoft Visual Studio\2022\Community\VC\Tools\MSVC\14.44.35207\include\xtree

; 808  :     explicit _Tree_temp_node_alloc(_Alnode& _Al_) : _Alloc_construct_ptr<_Alnode>(_Al_) {

  0006a	c7 45 fc 00 00
	00 00		 mov	 DWORD PTR __$EHRec$[ebp+8], 0
; File C:\Program Files\Microsoft Visual Studio\2022\Community\VC\Tools\MSVC\14.44.35207\include\xmemory

; 136  :         return ::operator new(_Bytes);

  00071	6a 18		 push	 24			; 00000018H

; 1167 :         _Ptr = nullptr; // if allocate throws, prevents double-free

  00073	c7 45 f0 00 00
	00 00		 mov	 DWORD PTR $T4[ebp+4], 0

; 136  :         return ::operator new(_Bytes);

  0007a	e8 00 00 00 00	 call	 ??2@YAPAXI@Z		; operator new
; File C:\Program Files\Microsoft Visual Studio\2022\Community\VC\Tools\MSVC\14.44.35207\include\utility

; 303  :         : first(_STD forward<_Other1>(_Right.first)), second(_STD forward<_Other2>(_Right.second)) {}

  0007f	8b 0f		 mov	 ecx, DWORD PTR [edi]
; File C:\Program Files\Microsoft Visual Studio\2022\Community\VC\Tools\MSVC\14.44.35207\include\xmemory

; 136  :         return ::operator new(_Bytes);

  00081	83 c4 04	 add	 esp, 4
; File C:\Program Files\Microsoft Visual Studio\2022\Community\VC\Tools\MSVC\14.44.35207\include\utility

; 303  :         : first(_STD forward<_Other1>(_Right.first)), second(_STD forward<_Other2>(_Right.second)) {}

  00084	89 48 10	 mov	 DWORD PTR [eax+16], ecx
  00087	8b 4f 04	 mov	 ecx, DWORD PTR [edi+4]
  0008a	89 48 14	 mov	 DWORD PTR [eax+20], ecx
; File C:\Program Files\Microsoft Visual Studio\2022\Community\VC\Tools\MSVC\14.44.35207\include\xtree

; 1042 :         return {_Scary->_Insert_node(_Loc._Location, _Inserted), true};

  0008d	b9 00 00 00 00	 mov	 ecx, OFFSET ?m_kMap_iEmotionIndex_pkIconImage@@3V?$map@HPAVCGraphicImage@@U?$less@H@std@@V?$allocator@U?$pair@$$CBHPAVCGraphicImage@@@std@@@3@@std@@A ; m_kMap_iEmotionIndex_pkIconImage
  00092	50		 push	 eax
  00093	ff 75 e0	 push	 DWORD PTR __Loc$2[ebp+4]

; 831  :         _Construct_in_place(this->_Ptr->_Left, _Myhead);

  00096	89 30		 mov	 DWORD PTR [eax], esi

; 1042 :         return {_Scary->_Insert_node(_Loc._Location, _Inserted), true};

  00098	ff 75 dc	 push	 DWORD PTR __Loc$2[ebp]

; 832  :         _Construct_in_place(this->_Ptr->_Parent, _Myhead);

  0009b	89 70 04	 mov	 DWORD PTR [eax+4], esi

; 833  :         _Construct_in_place(this->_Ptr->_Right, _Myhead);

  0009e	89 70 08	 mov	 DWORD PTR [eax+8], esi

; 834  :         this->_Ptr->_Color = _Red;

  000a1	66 c7 40 0c 00
	00		 mov	 WORD PTR [eax+12], 0

; 1042 :         return {_Scary->_Insert_node(_Loc._Location, _Inserted), true};

  000a7	e8 00 00 00 00	 call	 ?_Insert_node@?$_Tree_val@U?$_Tree_simple_types@U?$pair@$$CBHPAVCGraphicImage@@@std@@@std@@@std@@QAEPAU?$_Tree_node@U?$pair@$$CBHPAVCGraphicImage@@@std@@PAX@2@U?$_Tree_id@PAU?$_Tree_node@U?$pair@$$CBHPAVCGraphicImage@@@std@@PAX@std@@@2@QAU32@@Z ; std::_Tree_val<std::_Tree_simple_types<std::pair<int const ,CGraphicImage *> > >::_Insert_node
; File C:\Program Files\Microsoft Visual Studio\2022\Community\VC\Tools\MSVC\14.44.35207\include\utility

; 274  :         : first(_STD forward<_Other1>(_Val1)), second(_STD forward<_Other2>(_Val2)) {

  000ac	8b c8		 mov	 ecx, eax
  000ae	b2 01		 mov	 dl, 1
$LN96@emplace:
  000b0	8b 45 08	 mov	 eax, DWORD PTR ___$ReturnUdt$[ebp]
  000b3	89 08		 mov	 DWORD PTR [eax], ecx
  000b5	88 50 04	 mov	 BYTE PTR [eax+4], dl
; File C:\Program Files\Microsoft Visual Studio\2022\Community\VC\Tools\MSVC\14.44.35207\include\xtree

; 1050 :     }

  000b8	8b 4d f4	 mov	 ecx, DWORD PTR __$EHRec$[ebp]
  000bb	64 89 0d 00 00
	00 00		 mov	 DWORD PTR fs:0, ecx
  000c2	59		 pop	 ecx
  000c3	5f		 pop	 edi
  000c4	5e		 pop	 esi
  000c5	8b e5		 mov	 esp, ebp
  000c7	5d		 pop	 ebp
  000c8	c2 08 00	 ret	 8
$LN117@emplace:

; 1649 :             _Throw_tree_length_error();

  000cb	e8 00 00 00 00	 call	 ?_Throw_tree_length_error@std@@YAXXZ ; std::_Throw_tree_length_error
$LN115@emplace:
  000d0	cc		 int	 3
_TEXT	ENDS
;	COMDAT text$x
text$x	SEGMENT
__unwindfunclet$??$emplace@U?$pair@HPAVCGraphicImage@@@std@@@?$_Tree@V?$_Tmap_traits@HPAVCGraphicImage@@U?$less@H@std@@V?$allocator@U?$pair@$$CBHPAVCGraphicImage@@@std@@@3@$0A@@std@@@std@@QAE?AU?$pair@V?$_Tree_iterator@V?$_Tree_val@U?$_Tree_simple_types@U?$pair@$$CBHPAVCGraphicImage@@@std@@@std@@@std@@@std@@_N@1@$$QAU?$pair@HPAVCGraphicImage@@@1@@Z$2:
  00000	8d 4d ec	 lea	 ecx, DWORD PTR $T4[ebp]
  00003	e9 00 00 00 00	 jmp	 ??1?$_Alloc_construct_ptr@V?$allocator@U?$_Tree_node@U?$pair@$$CBHPAVCGraphicImage@@@std@@PAX@std@@@std@@@std@@QAE@XZ ; std::_Alloc_construct_ptr<std::allocator<std::_Tree_node<std::pair<int const ,CGraphicImage *>,void *> > >::~_Alloc_construct_ptr<std::allocator<std::_Tree_node<std::pair<int const ,CGraphicImage *>,void *> > >
  00008	cc		 int	 3
  00009	cc		 int	 3
  0000a	cc		 int	 3
  0000b	cc		 int	 3
  0000c	cc		 int	 3
__ehhandler$??$emplace@U?$pair@HPAVCGraphicImage@@@std@@@?$_Tree@V?$_Tmap_traits@HPAVCGraphicImage@@U?$less@H@std@@V?$allocator@U?$pair@$$CBHPAVCGraphicImage@@@std@@@3@$0A@@std@@@std@@QAE?AU?$pair@V?$_Tree_iterator@V?$_Tree_val@U?$_Tree_simple_types@U?$pair@$$CBHPAVCGraphicImage@@@std@@@std@@@std@@@std@@_N@1@$$QAU?$pair@HPAVCGraphicImage@@@1@@Z:
  0000d	90		 npad	 1
  0000e	90		 npad	 1
  0000f	8b 54 24 08	 mov	 edx, DWORD PTR [esp+8]
  00013	8d 42 0c	 lea	 eax, DWORD PTR [edx+12]
  00016	8b 4a dc	 mov	 ecx, DWORD PTR [edx-36]
  00019	33 c8		 xor	 ecx, eax
  0001b	e8 00 00 00 00	 call	 @__security_check_cookie@4
  00020	b8 00 00 00 00	 mov	 eax, OFFSET __ehfuncinfo$??$emplace@U?$pair@HPAVCGraphicImage@@@std@@@?$_Tree@V?$_Tmap_traits@HPAVCGraphicImage@@U?$less@H@std@@V?$allocator@U?$pair@$$CBHPAVCGraphicImage@@@std@@@3@$0A@@std@@@std@@QAE?AU?$pair@V?$_Tree_iterator@V?$_Tree_val@U?$_Tree_simple_types@U?$pair@$$CBHPAVCGraphicImage@@@std@@@std@@@std@@@std@@_N@1@$$QAU?$pair@HPAVCGraphicImage@@@1@@Z
  00025	e9 00 00 00 00	 jmp	 ___CxxFrameHandler3
text$x	ENDS
??$emplace@U?$pair@HPAVCGraphicImage@@@std@@@?$_Tree@V?$_Tmap_traits@HPAVCGraphicImage@@U?$less@H@std@@V?$allocator@U?$pair@$$CBHPAVCGraphicImage@@@std@@@3@$0A@@std@@@std@@QAE?AU?$pair@V?$_Tree_iterator@V?$_Tree_val@U?$_Tree_simple_types@U?$pair@$$CBHPAVCGraphicImage@@@std@@@std@@@std@@@std@@_N@1@$$QAU?$pair@HPAVCGraphicImage@@@1@@Z ENDP ; std::_Tree<std::_Tmap_traits<int,CGraphicImage *,std::less<int>,std::allocator<std::pair<int const ,CGraphicImage *> >,0> >::emplace<std::pair<int,CGraphicImage *> >
; Function compile flags: /Ogtp
; File C:\Program Files\Microsoft Visual Studio\2022\Community\VC\Tools\MSVC\14.44.35207\include\xtree
; File C:\Program Files\Microsoft Visual Studio\2022\Community\VC\Tools\MSVC\14.44.35207\include\type_traits
; File C:\Program Files\Microsoft Visual Studio\2022\Community\VC\Tools\MSVC\14.44.35207\include\xtree
;	COMDAT ??$_Find@H@?$_Tree@V?$_Tmap_traits@HPAVCGraphicImage@@U?$less@H@std@@V?$allocator@U?$pair@$$CBHPAVCGraphicImage@@@std@@@3@$0A@@std@@@std@@ABEPAU?$_Tree_node@U?$pair@$$CBHPAVCGraphicImage@@@std@@PAX@1@ABH@Z
_TEXT	SEGMENT
__Loc$ = -12						; size = 12
__Keyval$ = 8						; size = 4
??$_Find@H@?$_Tree@V?$_Tmap_traits@HPAVCGraphicImage@@U?$less@H@std@@V?$allocator@U?$pair@$$CBHPAVCGraphicImage@@@std@@@3@$0A@@std@@@std@@ABEPAU?$_Tree_node@U?$pair@$$CBHPAVCGraphicImage@@@std@@PAX@1@ABH@Z PROC ; std::_Tree<std::_Tmap_traits<int,CGraphicImage *,std::less<int>,std::allocator<std::pair<int const ,CGraphicImage *> >,0> >::_Find<int>, COMDAT
; _this$dead$ = ecx

; 1383 :     _NODISCARD _Nodeptr _Find(const _Other& _Keyval) const {

  00000	55		 push	 ebp
  00001	8b ec		 mov	 ebp, esp
  00003	83 ec 0c	 sub	 esp, 12			; 0000000cH
  00006	56		 push	 esi

; 1384 :         const _Tree_find_result<_Nodeptr> _Loc = _Find_lower_bound(_Keyval);

  00007	8b 75 08	 mov	 esi, DWORD PTR __Keyval$[ebp]
  0000a	8d 45 f4	 lea	 eax, DWORD PTR __Loc$[ebp]
  0000d	56		 push	 esi
  0000e	50		 push	 eax
  0000f	e8 00 00 00 00	 call	 ??$_Find_lower_bound@H@?$_Tree@V?$_Tmap_traits@HPAVCGraphicImage@@U?$less@H@std@@V?$allocator@U?$pair@$$CBHPAVCGraphicImage@@@std@@@3@$0A@@std@@@std@@IBE?AU?$_Tree_find_result@PAU?$_Tree_node@U?$pair@$$CBHPAVCGraphicImage@@@std@@PAX@std@@@1@ABH@Z ; std::_Tree<std::_Tmap_traits<int,CGraphicImage *,std::less<int>,std::allocator<std::pair<int const ,CGraphicImage *> >,0> >::_Find_lower_bound<int>

; 1624 :         return !_Bound->_Isnil && !_DEBUG_LT_PRED(_Getcomp(), _Keyval, _Traits::_Kfn(_Bound->_Myval));

  00014	8b 45 fc	 mov	 eax, DWORD PTR __Loc$[ebp+8]
  00017	80 78 0d 00	 cmp	 BYTE PTR [eax+13], 0
  0001b	75 07		 jne	 SHORT $LN2@Find
; File C:\Program Files\Microsoft Visual Studio\2022\Community\VC\Tools\MSVC\14.44.35207\include\type_traits

; 2380 :         return _Left < _Right;

  0001d	8b 0e		 mov	 ecx, DWORD PTR [esi]
  0001f	3b 48 10	 cmp	 ecx, DWORD PTR [eax+16]
; File C:\Program Files\Microsoft Visual Studio\2022\Community\VC\Tools\MSVC\14.44.35207\include\xtree

; 1624 :         return !_Bound->_Isnil && !_DEBUG_LT_PRED(_Getcomp(), _Keyval, _Traits::_Kfn(_Bound->_Myval));

  00022	7d 05		 jge	 SHORT $LN1@Find
$LN2@Find:

; 1385 :         if (_Lower_bound_duplicate(_Loc._Bound, _Keyval)) {
; 1386 :             return _Loc._Bound;
; 1387 :         }
; 1388 : 
; 1389 :         return _Get_scary()->_Myhead;

  00024	a1 00 00 00 00	 mov	 eax, DWORD PTR ?m_kMap_iEmotionIndex_pkIconImage@@3V?$map@HPAVCGraphicImage@@U?$less@H@std@@V?$allocator@U?$pair@$$CBHPAVCGraphicImage@@@std@@@3@@std@@A
$LN1@Find:
  00029	5e		 pop	 esi

; 1390 :     }

  0002a	8b e5		 mov	 esp, ebp
  0002c	5d		 pop	 ebp
  0002d	c2 04 00	 ret	 4
??$_Find@H@?$_Tree@V?$_Tmap_traits@HPAVCGraphicImage@@U?$less@H@std@@V?$allocator@U?$pair@$$CBHPAVCGraphicImage@@@std@@@3@$0A@@std@@@std@@ABEPAU?$_Tree_node@U?$pair@$$CBHPAVCGraphicImage@@@std@@PAX@1@ABH@Z ENDP ; std::_Tree<std::_Tmap_traits<int,CGraphicImage *,std::less<int>,std::allocator<std::pair<int const ,CGraphicImage *> >,0> >::_Find<int>
_TEXT	ENDS
; Function compile flags: /Ogtp
; File C:\Program Files\Microsoft Visual Studio\2022\Community\VC\Tools\MSVC\14.44.35207\include\xtree
; File C:\Program Files\Microsoft Visual Studio\2022\Community\VC\Tools\MSVC\14.44.35207\include\xmemory
; File C:\Program Files\Microsoft Visual Studio\2022\Community\VC\Tools\MSVC\14.44.35207\include\xtree
;	COMDAT ??$_Erase_head@V?$allocator@U?$_Tree_node@U?$pair@$$CBHPAVCGraphicImage@@@std@@PAX@std@@@std@@@?$_Tree_val@U?$_Tree_simple_types@U?$pair@$$CBHPAVCGraphicImage@@@std@@@std@@@std@@QAEXAAV?$allocator@U?$_Tree_node@U?$pair@$$CBHPAVCGraphicImage@@@std@@PAX@std@@@1@@Z
_TEXT	SEGMENT
__Al$ = 8						; size = 4
??$_Erase_head@V?$allocator@U?$_Tree_node@U?$pair@$$CBHPAVCGraphicImage@@@std@@PAX@std@@@std@@@?$_Tree_val@U?$_Tree_simple_types@U?$pair@$$CBHPAVCGraphicImage@@@std@@@std@@@std@@QAEXAAV?$allocator@U?$_Tree_node@U?$pair@$$CBHPAVCGraphicImage@@@std@@PAX@std@@@1@@Z PROC ; std::_Tree_val<std::_Tree_simple_types<std::pair<int const ,CGraphicImage *> > >::_Erase_head<std::allocator<std::_Tree_node<std::pair<int const ,CGraphicImage *>,void *> > >, COMDAT
; _this$ = ecx

; 775  :     void _Erase_head(_Alnode& _Al) noexcept {

  00000	55		 push	 ebp
  00001	8b ec		 mov	 ebp, esp
  00003	56		 push	 esi
  00004	8b f1		 mov	 esi, ecx

; 776  :         this->_Orphan_all();
; 777  :         _Erase_tree(_Al, _Myhead->_Parent);

  00006	8b 06		 mov	 eax, DWORD PTR [esi]
  00008	ff 70 04	 push	 DWORD PTR [eax+4]
  0000b	ff 75 08	 push	 DWORD PTR __Al$[ebp]
  0000e	e8 00 00 00 00	 call	 ??$_Erase_tree@V?$allocator@U?$_Tree_node@U?$pair@$$CBHPAVCGraphicImage@@@std@@PAX@std@@@std@@@?$_Tree_val@U?$_Tree_simple_types@U?$pair@$$CBHPAVCGraphicImage@@@std@@@std@@@std@@QAEXAAV?$allocator@U?$_Tree_node@U?$pair@$$CBHPAVCGraphicImage@@@std@@PAX@std@@@1@PAU?$_Tree_node@U?$pair@$$CBHPAVCGraphicImage@@@std@@PAX@1@@Z ; std::_Tree_val<std::_Tree_simple_types<std::pair<int const ,CGraphicImage *> > >::_Erase_tree<std::allocator<std::_Tree_node<std::pair<int const ,CGraphicImage *>,void *> > >
; File C:\Program Files\Microsoft Visual Studio\2022\Community\VC\Tools\MSVC\14.44.35207\include\xmemory

; 289  :         ::operator delete(_Ptr, _Bytes);

  00013	6a 18		 push	 24			; 00000018H
  00015	ff 36		 push	 DWORD PTR [esi]
  00017	e8 00 00 00 00	 call	 ??3@YAXPAXI@Z		; operator delete
  0001c	83 c4 08	 add	 esp, 8
  0001f	5e		 pop	 esi
; File C:\Program Files\Microsoft Visual Studio\2022\Community\VC\Tools\MSVC\14.44.35207\include\xtree

; 779  :     }

  00020	5d		 pop	 ebp
  00021	c2 04 00	 ret	 4
??$_Erase_head@V?$allocator@U?$_Tree_node@U?$pair@$$CBHPAVCGraphicImage@@@std@@PAX@std@@@std@@@?$_Tree_val@U?$_Tree_simple_types@U?$pair@$$CBHPAVCGraphicImage@@@std@@@std@@@std@@QAEXAAV?$allocator@U?$_Tree_node@U?$pair@$$CBHPAVCGraphicImage@@@std@@PAX@std@@@1@@Z ENDP ; std::_Tree_val<std::_Tree_simple_types<std::pair<int const ,CGraphicImage *> > >::_Erase_head<std::allocator<std::_Tree_node<std::pair<int const ,CGraphicImage *>,void *> > >
_TEXT	ENDS
; Function compile flags: /Ogtp
; File C:\Program Files\Microsoft Visual Studio\2022\Community\VC\Tools\MSVC\14.44.35207\include\map
; File C:\Program Files\Microsoft Visual Studio\2022\Community\VC\Tools\MSVC\14.44.35207\include\xtree
; File C:\Program Files\Microsoft Visual Studio\2022\Community\VC\Tools\MSVC\14.44.35207\include\type_traits
; File C:\Program Files\Microsoft Visual Studio\2022\Community\VC\Tools\MSVC\14.44.35207\include\xtree
; File C:\Program Files\Microsoft Visual Studio\2022\Community\VC\Tools\MSVC\14.44.35207\include\utility
; File C:\Program Files\Microsoft Visual Studio\2022\Community\VC\Tools\MSVC\14.44.35207\include\map
; File C:\Program Files\Microsoft Visual Studio\2022\Community\VC\Tools\MSVC\14.44.35207\include\xtree
; File C:\Program Files\Microsoft Visual Studio\2022\Community\VC\Tools\MSVC\14.44.35207\include\map
; File C:\Program Files\Microsoft Visual Studio\2022\Community\VC\Tools\MSVC\14.44.35207\include\xmemory
; File C:\Program Files\Microsoft Visual Studio\2022\Community\VC\Tools\MSVC\14.44.35207\include\xtree
; File C:\Program Files\Microsoft Visual Studio\2022\Community\VC\Tools\MSVC\14.44.35207\include\xmemory
; File C:\Program Files\Microsoft Visual Studio\2022\Community\VC\Tools\MSVC\14.44.35207\include\utility
; File C:\Program Files\Microsoft Visual Studio\2022\Community\VC\Tools\MSVC\14.44.35207\include\xmemory
; File C:\Program Files\Microsoft Visual Studio\2022\Community\VC\Tools\MSVC\14.44.35207\include\utility
; File C:\Program Files\Microsoft Visual Studio\2022\Community\VC\Tools\MSVC\14.44.35207\include\map
; File C:\Program Files\Microsoft Visual Studio\2022\Community\VC\Tools\MSVC\14.44.35207\include\utility
; File C:\Program Files\Microsoft Visual Studio\2022\Community\VC\Tools\MSVC\14.44.35207\include\map
; File C:\Program Files\Microsoft Visual Studio\2022\Community\VC\Tools\MSVC\14.44.35207\include\xtree
; File C:\Program Files\Microsoft Visual Studio\2022\Community\VC\Tools\MSVC\14.44.35207\include\map
; File C:\Program Files\Microsoft Visual Studio\2022\Community\VC\Tools\MSVC\14.44.35207\include\utility
; File C:\Program Files\Microsoft Visual Studio\2022\Community\VC\Tools\MSVC\14.44.35207\include\map
; File C:\Program Files\Microsoft Visual Studio\2022\Community\VC\Tools\MSVC\14.44.35207\include\utility
; File C:\Program Files\Microsoft Visual Studio\2022\Community\VC\Tools\MSVC\14.44.35207\include\map
; File C:\Program Files\Microsoft Visual Studio\2022\Community\VC\Tools\MSVC\14.44.35207\include\xtree
; File C:\Program Files\Microsoft Visual Studio\2022\Community\VC\Tools\MSVC\14.44.35207\include\map
;	COMDAT ??$_Try_emplace@ABH$$V@?$map@HPAVCGraphicImage@@U?$less@H@std@@V?$allocator@U?$pair@$$CBHPAVCGraphicImage@@@std@@@3@@std@@AAE?AU?$pair@PAU?$_Tree_node@U?$pair@$$CBHPAVCGraphicImage@@@std@@PAX@std@@_N@1@ABH@Z
_TEXT	SEGMENT
__Loc$ = -32						; size = 12
$T2 = -20						; size = 8
__$EHRec$ = -12						; size = 12
___$ReturnUdt$ = 8					; size = 4
__Keyval$ = 12						; size = 4
??$_Try_emplace@ABH$$V@?$map@HPAVCGraphicImage@@U?$less@H@std@@V?$allocator@U?$pair@$$CBHPAVCGraphicImage@@@std@@@3@@std@@AAE?AU?$pair@PAU?$_Tree_node@U?$pair@$$CBHPAVCGraphicImage@@@std@@PAX@std@@_N@1@ABH@Z PROC ; std::map<int,CGraphicImage *,std::less<int>,std::allocator<std::pair<int const ,CGraphicImage *> > >::_Try_emplace<int const &>, COMDAT
; _this$dead$ = ecx

; 196  :     pair<_Nodeptr, bool> _Try_emplace(_Keyty&& _Keyval, _Mappedty&&... _Mapval) {

  00000	55		 push	 ebp
  00001	8b ec		 mov	 ebp, esp
  00003	6a ff		 push	 -1
  00005	68 00 00 00 00	 push	 __ehhandler$??$_Try_emplace@ABH$$V@?$map@HPAVCGraphicImage@@U?$less@H@std@@V?$allocator@U?$pair@$$CBHPAVCGraphicImage@@@std@@@3@@std@@AAE?AU?$pair@PAU?$_Tree_node@U?$pair@$$CBHPAVCGraphicImage@@@std@@PAX@std@@_N@1@ABH@Z
  0000a	64 a1 00 00 00
	00		 mov	 eax, DWORD PTR fs:0
  00010	50		 push	 eax
  00011	83 ec 14	 sub	 esp, 20			; 00000014H
  00014	56		 push	 esi
  00015	57		 push	 edi
  00016	a1 00 00 00 00	 mov	 eax, DWORD PTR ___security_cookie
  0001b	33 c5		 xor	 eax, ebp
  0001d	50		 push	 eax
  0001e	8d 45 f4	 lea	 eax, DWORD PTR __$EHRec$[ebp]
  00021	64 a3 00 00 00
	00		 mov	 DWORD PTR fs:0, eax

; 197  :         const auto _Loc = _Mybase::_Find_lower_bound(_Keyval);

  00027	8b 7d 0c	 mov	 edi, DWORD PTR __Keyval$[ebp]
  0002a	8d 45 e0	 lea	 eax, DWORD PTR __Loc$[ebp]
  0002d	57		 push	 edi
  0002e	50		 push	 eax
  0002f	e8 00 00 00 00	 call	 ??$_Find_lower_bound@H@?$_Tree@V?$_Tmap_traits@HPAVCGraphicImage@@U?$less@H@std@@V?$allocator@U?$pair@$$CBHPAVCGraphicImage@@@std@@@3@$0A@@std@@@std@@IBE?AU?$_Tree_find_result@PAU?$_Tree_node@U?$pair@$$CBHPAVCGraphicImage@@@std@@PAX@std@@@1@ABH@Z ; std::_Tree<std::_Tmap_traits<int,CGraphicImage *,std::less<int>,std::allocator<std::pair<int const ,CGraphicImage *> >,0> >::_Find_lower_bound<int>
; File C:\Program Files\Microsoft Visual Studio\2022\Community\VC\Tools\MSVC\14.44.35207\include\xtree

; 1624 :         return !_Bound->_Isnil && !_DEBUG_LT_PRED(_Getcomp(), _Keyval, _Traits::_Kfn(_Bound->_Myval));

  00034	8b 4d e8	 mov	 ecx, DWORD PTR __Loc$[ebp+8]
  00037	80 79 0d 00	 cmp	 BYTE PTR [ecx+13], 0
  0003b	75 23		 jne	 SHORT $LN2@Try_emplac
; File C:\Program Files\Microsoft Visual Studio\2022\Community\VC\Tools\MSVC\14.44.35207\include\type_traits

; 2380 :         return _Left < _Right;

  0003d	8b 07		 mov	 eax, DWORD PTR [edi]
  0003f	3b 41 10	 cmp	 eax, DWORD PTR [ecx+16]
; File C:\Program Files\Microsoft Visual Studio\2022\Community\VC\Tools\MSVC\14.44.35207\include\xtree

; 1624 :         return !_Bound->_Isnil && !_DEBUG_LT_PRED(_Getcomp(), _Keyval, _Traits::_Kfn(_Bound->_Myval));

  00042	7c 1c		 jl	 SHORT $LN2@Try_emplac
; File C:\Program Files\Microsoft Visual Studio\2022\Community\VC\Tools\MSVC\14.44.35207\include\utility

; 274  :         : first(_STD forward<_Other1>(_Val1)), second(_STD forward<_Other2>(_Val2)) {

  00044	8b 45 08	 mov	 eax, DWORD PTR ___$ReturnUdt$[ebp]
  00047	89 08		 mov	 DWORD PTR [eax], ecx
  00049	c6 40 04 00	 mov	 BYTE PTR [eax+4], 0
; File C:\Program Files\Microsoft Visual Studio\2022\Community\VC\Tools\MSVC\14.44.35207\include\map

; 212  :     }

  0004d	8b 4d f4	 mov	 ecx, DWORD PTR __$EHRec$[ebp]
  00050	64 89 0d 00 00
	00 00		 mov	 DWORD PTR fs:0, ecx
  00057	59		 pop	 ecx
  00058	5f		 pop	 edi
  00059	5e		 pop	 esi
  0005a	8b e5		 mov	 esp, ebp
  0005c	5d		 pop	 ebp
  0005d	c2 08 00	 ret	 8
$LN2@Try_emplac:
; File C:\Program Files\Microsoft Visual Studio\2022\Community\VC\Tools\MSVC\14.44.35207\include\xtree

; 1648 :         if (max_size() == _Get_scary()->_Mysize) {

  00060	81 3d 04 00 00
	00 aa aa aa 0a	 cmp	 DWORD PTR ?m_kMap_iEmotionIndex_pkIconImage@@3V?$map@HPAVCGraphicImage@@U?$less@H@std@@V?$allocator@U?$pair@$$CBHPAVCGraphicImage@@@std@@@3@@std@@A+4, 178956970 ; 0aaaaaaaH
  0006a	74 6e		 je	 SHORT $LN114@Try_emplac
; File C:\Program Files\Microsoft Visual Studio\2022\Community\VC\Tools\MSVC\14.44.35207\include\map

; 205  :         const auto _Inserted = _Tree_temp_node<_Alnode>(_Mybase::_Getal(), _Scary->_Myhead, piecewise_construct,

  0006c	8b 35 00 00 00
	00		 mov	 esi, DWORD PTR ?m_kMap_iEmotionIndex_pkIconImage@@3V?$map@HPAVCGraphicImage@@U?$less@H@std@@V?$allocator@U?$pair@$$CBHPAVCGraphicImage@@@std@@@3@@std@@A
; File C:\Program Files\Microsoft Visual Studio\2022\Community\VC\Tools\MSVC\14.44.35207\include\xmemory

; 1160 :     _CONSTEXPR20 explicit _Alloc_construct_ptr(_Alloc& _Al_) : _Al(_Al_), _Ptr(nullptr) {}

  00072	c7 45 ec 00 00
	00 00		 mov	 DWORD PTR $T2[ebp], OFFSET ?m_kMap_iEmotionIndex_pkIconImage@@3V?$map@HPAVCGraphicImage@@U?$less@H@std@@V?$allocator@U?$pair@$$CBHPAVCGraphicImage@@@std@@@3@@std@@A ; m_kMap_iEmotionIndex_pkIconImage
; File C:\Program Files\Microsoft Visual Studio\2022\Community\VC\Tools\MSVC\14.44.35207\include\xtree

; 808  :     explicit _Tree_temp_node_alloc(_Alnode& _Al_) : _Alloc_construct_ptr<_Alnode>(_Al_) {

  00079	c7 45 fc 00 00
	00 00		 mov	 DWORD PTR __$EHRec$[ebp+8], 0
; File C:\Program Files\Microsoft Visual Studio\2022\Community\VC\Tools\MSVC\14.44.35207\include\xmemory

; 136  :         return ::operator new(_Bytes);

  00080	6a 18		 push	 24			; 00000018H

; 1167 :         _Ptr = nullptr; // if allocate throws, prevents double-free

  00082	c7 45 f0 00 00
	00 00		 mov	 DWORD PTR $T2[ebp+4], 0

; 136  :         return ::operator new(_Bytes);

  00089	e8 00 00 00 00	 call	 ??2@YAPAXI@Z		; operator new
; File C:\Program Files\Microsoft Visual Studio\2022\Community\VC\Tools\MSVC\14.44.35207\include\utility

; 478  :         : first(_STD _Tuple_get<_Indices1>(_STD move(_Val1))...),

  0008e	8b 0f		 mov	 ecx, DWORD PTR [edi]
; File C:\Program Files\Microsoft Visual Studio\2022\Community\VC\Tools\MSVC\14.44.35207\include\xmemory

; 136  :         return ::operator new(_Bytes);

  00090	83 c4 04	 add	 esp, 4
; File C:\Program Files\Microsoft Visual Studio\2022\Community\VC\Tools\MSVC\14.44.35207\include\utility

; 478  :         : first(_STD _Tuple_get<_Indices1>(_STD move(_Val1))...),

  00093	89 48 10	 mov	 DWORD PTR [eax+16], ecx
; File C:\Program Files\Microsoft Visual Studio\2022\Community\VC\Tools\MSVC\14.44.35207\include\map

; 211  :         return {_Scary->_Insert_node(_Loc._Location, _Inserted), true};

  00096	b9 00 00 00 00	 mov	 ecx, OFFSET ?m_kMap_iEmotionIndex_pkIconImage@@3V?$map@HPAVCGraphicImage@@U?$less@H@std@@V?$allocator@U?$pair@$$CBHPAVCGraphicImage@@@std@@@3@@std@@A ; m_kMap_iEmotionIndex_pkIconImage
  0009b	50		 push	 eax
  0009c	ff 75 e4	 push	 DWORD PTR __Loc$[ebp+4]
; File C:\Program Files\Microsoft Visual Studio\2022\Community\VC\Tools\MSVC\14.44.35207\include\utility

; 479  :           second(_STD _Tuple_get<_Indices2>(_STD move(_Val2))...) {}

  0009f	c7 40 14 00 00
	00 00		 mov	 DWORD PTR [eax+20], 0
; File C:\Program Files\Microsoft Visual Studio\2022\Community\VC\Tools\MSVC\14.44.35207\include\map

; 211  :         return {_Scary->_Insert_node(_Loc._Location, _Inserted), true};

  000a6	ff 75 e0	 push	 DWORD PTR __Loc$[ebp]
; File C:\Program Files\Microsoft Visual Studio\2022\Community\VC\Tools\MSVC\14.44.35207\include\xtree

; 831  :         _Construct_in_place(this->_Ptr->_Left, _Myhead);

  000a9	89 30		 mov	 DWORD PTR [eax], esi

; 832  :         _Construct_in_place(this->_Ptr->_Parent, _Myhead);

  000ab	89 70 04	 mov	 DWORD PTR [eax+4], esi

; 833  :         _Construct_in_place(this->_Ptr->_Right, _Myhead);

  000ae	89 70 08	 mov	 DWORD PTR [eax+8], esi

; 834  :         this->_Ptr->_Color = _Red;

  000b1	66 c7 40 0c 00
	00		 mov	 WORD PTR [eax+12], 0
; File C:\Program Files\Microsoft Visual Studio\2022\Community\VC\Tools\MSVC\14.44.35207\include\map

; 211  :         return {_Scary->_Insert_node(_Loc._Location, _Inserted), true};

  000b7	e8 00 00 00 00	 call	 ?_Insert_node@?$_Tree_val@U?$_Tree_simple_types@U?$pair@$$CBHPAVCGraphicImage@@@std@@@std@@@std@@QAEPAU?$_Tree_node@U?$pair@$$CBHPAVCGraphicImage@@@std@@PAX@2@U?$_Tree_id@PAU?$_Tree_node@U?$pair@$$CBHPAVCGraphicImage@@@std@@PAX@std@@@2@QAU32@@Z ; std::_Tree_val<std::_Tree_simple_types<std::pair<int const ,CGraphicImage *> > >::_Insert_node
; File C:\Program Files\Microsoft Visual Studio\2022\Community\VC\Tools\MSVC\14.44.35207\include\utility

; 274  :         : first(_STD forward<_Other1>(_Val1)), second(_STD forward<_Other2>(_Val2)) {

  000bc	8b 4d 08	 mov	 ecx, DWORD PTR ___$ReturnUdt$[ebp]
  000bf	89 01		 mov	 DWORD PTR [ecx], eax
; File C:\Program Files\Microsoft Visual Studio\2022\Community\VC\Tools\MSVC\14.44.35207\include\map

; 211  :         return {_Scary->_Insert_node(_Loc._Location, _Inserted), true};

  000c1	8b c1		 mov	 eax, ecx
; File C:\Program Files\Microsoft Visual Studio\2022\Community\VC\Tools\MSVC\14.44.35207\include\utility

; 274  :         : first(_STD forward<_Other1>(_Val1)), second(_STD forward<_Other2>(_Val2)) {

  000c3	c6 41 04 01	 mov	 BYTE PTR [ecx+4], 1
; File C:\Program Files\Microsoft Visual Studio\2022\Community\VC\Tools\MSVC\14.44.35207\include\map

; 212  :     }

  000c7	8b 4d f4	 mov	 ecx, DWORD PTR __$EHRec$[ebp]
  000ca	64 89 0d 00 00
	00 00		 mov	 DWORD PTR fs:0, ecx
  000d1	59		 pop	 ecx
  000d2	5f		 pop	 edi
  000d3	5e		 pop	 esi
  000d4	8b e5		 mov	 esp, ebp
  000d6	5d		 pop	 ebp
  000d7	c2 08 00	 ret	 8
$LN114@Try_emplac:
; File C:\Program Files\Microsoft Visual Studio\2022\Community\VC\Tools\MSVC\14.44.35207\include\xtree

; 1649 :             _Throw_tree_length_error();

  000da	e8 00 00 00 00	 call	 ?_Throw_tree_length_error@std@@YAXXZ ; std::_Throw_tree_length_error
$LN112@Try_emplac:
  000df	cc		 int	 3
_TEXT	ENDS
;	COMDAT text$x
text$x	SEGMENT
__unwindfunclet$??$_Try_emplace@ABH$$V@?$map@HPAVCGraphicImage@@U?$less@H@std@@V?$allocator@U?$pair@$$CBHPAVCGraphicImage@@@std@@@3@@std@@AAE?AU?$pair@PAU?$_Tree_node@U?$pair@$$CBHPAVCGraphicImage@@@std@@PAX@std@@_N@1@ABH@Z$2:
  00000	8d 4d ec	 lea	 ecx, DWORD PTR $T2[ebp]
  00003	e9 00 00 00 00	 jmp	 ??1?$_Alloc_construct_ptr@V?$allocator@U?$_Tree_node@U?$pair@$$CBHPAVCGraphicImage@@@std@@PAX@std@@@std@@@std@@QAE@XZ ; std::_Alloc_construct_ptr<std::allocator<std::_Tree_node<std::pair<int const ,CGraphicImage *>,void *> > >::~_Alloc_construct_ptr<std::allocator<std::_Tree_node<std::pair<int const ,CGraphicImage *>,void *> > >
  00008	cc		 int	 3
  00009	cc		 int	 3
  0000a	cc		 int	 3
  0000b	cc		 int	 3
  0000c	cc		 int	 3
__ehhandler$??$_Try_emplace@ABH$$V@?$map@HPAVCGraphicImage@@U?$less@H@std@@V?$allocator@U?$pair@$$CBHPAVCGraphicImage@@@std@@@3@@std@@AAE?AU?$pair@PAU?$_Tree_node@U?$pair@$$CBHPAVCGraphicImage@@@std@@PAX@std@@_N@1@ABH@Z:
  0000d	90		 npad	 1
  0000e	90		 npad	 1
  0000f	8b 54 24 08	 mov	 edx, DWORD PTR [esp+8]
  00013	8d 42 0c	 lea	 eax, DWORD PTR [edx+12]
  00016	8b 4a e0	 mov	 ecx, DWORD PTR [edx-32]
  00019	33 c8		 xor	 ecx, eax
  0001b	e8 00 00 00 00	 call	 @__security_check_cookie@4
  00020	b8 00 00 00 00	 mov	 eax, OFFSET __ehfuncinfo$??$_Try_emplace@ABH$$V@?$map@HPAVCGraphicImage@@U?$less@H@std@@V?$allocator@U?$pair@$$CBHPAVCGraphicImage@@@std@@@3@@std@@AAE?AU?$pair@PAU?$_Tree_node@U?$pair@$$CBHPAVCGraphicImage@@@std@@PAX@std@@_N@1@ABH@Z
  00025	e9 00 00 00 00	 jmp	 ___CxxFrameHandler3
text$x	ENDS
??$_Try_emplace@ABH$$V@?$map@HPAVCGraphicImage@@U?$less@H@std@@V?$allocator@U?$pair@$$CBHPAVCGraphicImage@@@std@@@3@@std@@AAE?AU?$pair@PAU?$_Tree_node@U?$pair@$$CBHPAVCGraphicImage@@@std@@PAX@std@@_N@1@ABH@Z ENDP ; std::map<int,CGraphicImage *,std::less<int>,std::allocator<std::pair<int const ,CGraphicImage *> > >::_Try_emplace<int const &>
; Function compile flags: /Ogtp
; File C:\Program Files\Microsoft Visual Studio\2022\Community\VC\Tools\MSVC\14.44.35207\include\xtree
;	COMDAT ??0?$_Tree_unchecked_const_iterator@V?$_Tree_val@U?$_Tree_simple_types@U?$pair@$$CBHPAVCGraphicImage@@@std@@@std@@@std@@U_Iterator_base0@2@@std@@QAE@PAU?$_Tree_node@U?$pair@$$CBHPAVCGraphicImage@@@std@@PAX@1@PBV?$_Tree_val@U?$_Tree_simple_types@U?$pair@$$CBHPAVCGraphicImage@@@std@@@std@@@1@@Z
_TEXT	SEGMENT
__Pnode$ = 8						; size = 4
__Plist$dead$ = 12					; size = 4
??0?$_Tree_unchecked_const_iterator@V?$_Tree_val@U?$_Tree_simple_types@U?$pair@$$CBHPAVCGraphicImage@@@std@@@std@@@std@@U_Iterator_base0@2@@std@@QAE@PAU?$_Tree_node@U?$pair@$$CBHPAVCGraphicImage@@@std@@PAX@1@PBV?$_Tree_val@U?$_Tree_simple_types@U?$pair@$$CBHPAVCGraphicImage@@@std@@@std@@@1@@Z PROC ; std::_Tree_unchecked_const_iterator<std::_Tree_val<std::_Tree_simple_types<std::pair<int const ,CGraphicImage *> > >,std::_Iterator_base0>::_Tree_unchecked_const_iterator<std::_Tree_val<std::_Tree_simple_types<std::pair<int const ,CGraphicImage *> > >,std::_Iterator_base0>, COMDAT
; _this$ = ecx

; 37   :     _Tree_unchecked_const_iterator(_Nodeptr _Pnode, const _Mytree* _Plist) noexcept : _Ptr(_Pnode) {

  00000	55		 push	 ebp
  00001	8b ec		 mov	 ebp, esp
  00003	8b 45 08	 mov	 eax, DWORD PTR __Pnode$[ebp]
  00006	89 01		 mov	 DWORD PTR [ecx], eax

; 38   :         this->_Adopt(_Plist);
; 39   :     }

  00008	8b c1		 mov	 eax, ecx
  0000a	5d		 pop	 ebp
  0000b	c2 08 00	 ret	 8
??0?$_Tree_unchecked_const_iterator@V?$_Tree_val@U?$_Tree_simple_types@U?$pair@$$CBHPAVCGraphicImage@@@std@@@std@@@std@@U_Iterator_base0@2@@std@@QAE@PAU?$_Tree_node@U?$pair@$$CBHPAVCGraphicImage@@@std@@PAX@1@PBV?$_Tree_val@U?$_Tree_simple_types@U?$pair@$$CBHPAVCGraphicImage@@@std@@@std@@@1@@Z ENDP ; std::_Tree_unchecked_const_iterator<std::_Tree_val<std::_Tree_simple_types<std::pair<int const ,CGraphicImage *> > >,std::_Iterator_base0>::_Tree_unchecked_const_iterator<std::_Tree_val<std::_Tree_simple_types<std::pair<int const ,CGraphicImage *> > >,std::_Iterator_base0>
_TEXT	ENDS
; Function compile flags: /Ogtp
; File C:\Program Files\Microsoft Visual Studio\2022\Community\VC\Tools\MSVC\14.44.35207\include\xtree
;	COMDAT ?_Get_scary@?$_Tree@V?$_Tmap_traits@HPAVCGraphicImage@@U?$less@H@std@@V?$allocator@U?$pair@$$CBHPAVCGraphicImage@@@std@@@3@$0A@@std@@@std@@IAEPAV?$_Tree_val@U?$_Tree_simple_types@U?$pair@$$CBHPAVCGraphicImage@@@std@@@std@@@2@XZ
_TEXT	SEGMENT
?_Get_scary@?$_Tree@V?$_Tmap_traits@HPAVCGraphicImage@@U?$less@H@std@@V?$allocator@U?$pair@$$CBHPAVCGraphicImage@@@std@@@3@$0A@@std@@@std@@IAEPAV?$_Tree_val@U?$_Tree_simple_types@U?$pair@$$CBHPAVCGraphicImage@@@std@@@std@@@2@XZ PROC ; std::_Tree<std::_Tmap_traits<int,CGraphicImage *,std::less<int>,std::allocator<std::pair<int const ,CGraphicImage *> >,0> >::_Get_scary, COMDAT
; _this$ = ecx

; 1983 :         return _STD addressof(_Mypair._Myval2._Myval2);

  00000	8b c1		 mov	 eax, ecx

; 1984 :     }

  00002	c3		 ret	 0
?_Get_scary@?$_Tree@V?$_Tmap_traits@HPAVCGraphicImage@@U?$less@H@std@@V?$allocator@U?$pair@$$CBHPAVCGraphicImage@@@std@@@3@$0A@@std@@@std@@IAEPAV?$_Tree_val@U?$_Tree_simple_types@U?$pair@$$CBHPAVCGraphicImage@@@std@@@std@@@2@XZ ENDP ; std::_Tree<std::_Tmap_traits<int,CGraphicImage *,std::less<int>,std::allocator<std::pair<int const ,CGraphicImage *> >,0> >::_Get_scary
_TEXT	ENDS
; Function compile flags: /Ogtp
; File C:\Program Files\Microsoft Visual Studio\2022\Community\VC\Tools\MSVC\14.44.35207\include\xtree
;	COMDAT ?_Getal@?$_Tree@V?$_Tmap_traits@HPAVCGraphicImage@@U?$less@H@std@@V?$allocator@U?$pair@$$CBHPAVCGraphicImage@@@std@@@3@$0A@@std@@@std@@IAEAAV?$allocator@U?$_Tree_node@U?$pair@$$CBHPAVCGraphicImage@@@std@@PAX@std@@@2@XZ
_TEXT	SEGMENT
?_Getal@?$_Tree@V?$_Tmap_traits@HPAVCGraphicImage@@U?$less@H@std@@V?$allocator@U?$pair@$$CBHPAVCGraphicImage@@@std@@@3@$0A@@std@@@std@@IAEAAV?$allocator@U?$_Tree_node@U?$pair@$$CBHPAVCGraphicImage@@@std@@PAX@std@@@2@XZ PROC ; std::_Tree<std::_Tmap_traits<int,CGraphicImage *,std::less<int>,std::allocator<std::pair<int const ,CGraphicImage *> >,0> >::_Getal, COMDAT
; _this$ = ecx

; 1975 :         return _Mypair._Myval2._Get_first();

  00000	8b c1		 mov	 eax, ecx

; 1976 :     }

  00002	c3		 ret	 0
?_Getal@?$_Tree@V?$_Tmap_traits@HPAVCGraphicImage@@U?$less@H@std@@V?$allocator@U?$pair@$$CBHPAVCGraphicImage@@@std@@@3@$0A@@std@@@std@@IAEAAV?$allocator@U?$_Tree_node@U?$pair@$$CBHPAVCGraphicImage@@@std@@PAX@std@@@2@XZ ENDP ; std::_Tree<std::_Tmap_traits<int,CGraphicImage *,std::less<int>,std::allocator<std::pair<int const ,CGraphicImage *> >,0> >::_Getal
_TEXT	ENDS
; Function compile flags: /Ogtp
; File C:\Program Files\Microsoft Visual Studio\2022\Community\VC\Tools\MSVC\14.44.35207\include\xtree
; File C:\Program Files\Microsoft Visual Studio\2022\Community\VC\Tools\MSVC\14.44.35207\include\xmemory
; File C:\Program Files\Microsoft Visual Studio\2022\Community\VC\Tools\MSVC\14.44.35207\include\xtree
; File C:\Program Files\Microsoft Visual Studio\2022\Community\VC\Tools\MSVC\14.44.35207\include\xmemory
; File C:\Program Files\Microsoft Visual Studio\2022\Community\VC\Tools\MSVC\14.44.35207\include\xtree
;	COMDAT ??0?$_Tree@V?$_Tmap_traits@HPAVCGraphicImage@@U?$less@H@std@@V?$allocator@U?$pair@$$CBHPAVCGraphicImage@@@std@@@3@$0A@@std@@@std@@QAE@ABU?$less@H@1@@Z
_TEXT	SEGMENT
__Parg$dead$ = 8					; size = 4
??0?$_Tree@V?$_Tmap_traits@HPAVCGraphicImage@@U?$less@H@std@@V?$allocator@U?$pair@$$CBHPAVCGraphicImage@@@std@@@3@$0A@@std@@@std@@QAE@ABU?$less@H@1@@Z PROC ; std::_Tree<std::_Tmap_traits<int,CGraphicImage *,std::less<int>,std::allocator<std::pair<int const ,CGraphicImage *> >,0> >::_Tree<std::_Tmap_traits<int,CGraphicImage *,std::less<int>,std::allocator<std::pair<int const ,CGraphicImage *> >,0> >, COMDAT
; _this$dead$ = ecx
; File C:\Program Files\Microsoft Visual Studio\2022\Community\VC\Tools\MSVC\14.44.35207\include\xmemory

; 136  :         return ::operator new(_Bytes);

  00000	6a 18		 push	 24			; 00000018H
; File C:\Program Files\Microsoft Visual Studio\2022\Community\VC\Tools\MSVC\14.44.35207\include\xtree

; 450  :     _Tree_val() noexcept : _Myhead(), _Mysize(0) {}

  00002	c7 05 00 00 00
	00 00 00 00 00	 mov	 DWORD PTR ?m_kMap_iEmotionIndex_pkIconImage@@3V?$map@HPAVCGraphicImage@@U?$less@H@std@@V?$allocator@U?$pair@$$CBHPAVCGraphicImage@@@std@@@3@@std@@A, 0
  0000c	c7 05 04 00 00
	00 00 00 00 00	 mov	 DWORD PTR ?m_kMap_iEmotionIndex_pkIconImage@@3V?$map@HPAVCGraphicImage@@U?$less@H@std@@V?$allocator@U?$pair@$$CBHPAVCGraphicImage@@@std@@@3@@std@@A+4, 0
; File C:\Program Files\Microsoft Visual Studio\2022\Community\VC\Tools\MSVC\14.44.35207\include\xmemory

; 136  :         return ::operator new(_Bytes);

  00016	e8 00 00 00 00	 call	 ??2@YAPAXI@Z		; operator new
  0001b	83 c4 04	 add	 esp, 4
; File C:\Program Files\Microsoft Visual Studio\2022\Community\VC\Tools\MSVC\14.44.35207\include\xtree

; 346  :         _Construct_in_place(_Pnode->_Left, _Pnode);

  0001e	89 00		 mov	 DWORD PTR [eax], eax

; 347  :         _Construct_in_place(_Pnode->_Parent, _Pnode);

  00020	89 40 04	 mov	 DWORD PTR [eax+4], eax

; 348  :         _Construct_in_place(_Pnode->_Right, _Pnode);

  00023	89 40 08	 mov	 DWORD PTR [eax+8], eax

; 349  :         _Pnode->_Color = _Black;

  00026	66 c7 40 0c 01
	01		 mov	 WORD PTR [eax+12], 257	; 00000101H

; 1957 :         _Scary->_Myhead = _Node::_Buyheadnode(_Getal());

  0002c	a3 00 00 00 00	 mov	 DWORD PTR ?m_kMap_iEmotionIndex_pkIconImage@@3V?$map@HPAVCGraphicImage@@U?$less@H@std@@V?$allocator@U?$pair@$$CBHPAVCGraphicImage@@@std@@@3@@std@@A, eax

; 905  :         _Alloc_sentinel_and_proxy();
; 906  :     }

  00031	b8 00 00 00 00	 mov	 eax, OFFSET ?m_kMap_iEmotionIndex_pkIconImage@@3V?$map@HPAVCGraphicImage@@U?$less@H@std@@V?$allocator@U?$pair@$$CBHPAVCGraphicImage@@@std@@@3@@std@@A ; m_kMap_iEmotionIndex_pkIconImage
  00036	c2 04 00	 ret	 4
??0?$_Tree@V?$_Tmap_traits@HPAVCGraphicImage@@U?$less@H@std@@V?$allocator@U?$pair@$$CBHPAVCGraphicImage@@@std@@@3@$0A@@std@@@std@@QAE@ABU?$less@H@1@@Z ENDP ; std::_Tree<std::_Tmap_traits<int,CGraphicImage *,std::less<int>,std::allocator<std::pair<int const ,CGraphicImage *> >,0> >::_Tree<std::_Tmap_traits<int,CGraphicImage *,std::less<int>,std::allocator<std::pair<int const ,CGraphicImage *> >,0> >
_TEXT	ENDS
; Function compile flags: /Ogtp
; File C:\Program Files\Microsoft Visual Studio\2022\Community\VC\Tools\MSVC\14.44.35207\include\xtree
; File C:\Program Files\Microsoft Visual Studio\2022\Community\VC\Tools\MSVC\14.44.35207\include\type_traits
; File C:\Program Files\Microsoft Visual Studio\2022\Community\VC\Tools\MSVC\14.44.35207\include\xtree
; File C:\Program Files\Microsoft Visual Studio\2022\Community\VC\Tools\MSVC\14.44.35207\include\utility
; File C:\Program Files\Microsoft Visual Studio\2022\Community\VC\Tools\MSVC\14.44.35207\include\xtree
; File C:\Program Files\Microsoft Visual Studio\2022\Community\VC\Tools\MSVC\14.44.35207\include\xmemory
; File C:\Program Files\Microsoft Visual Studio\2022\Community\VC\Tools\MSVC\14.44.35207\include\xtree
; File C:\Program Files\Microsoft Visual Studio\2022\Community\VC\Tools\MSVC\14.44.35207\include\xmemory
; File C:\Program Files\Microsoft Visual Studio\2022\Community\VC\Tools\MSVC\14.44.35207\include\utility
; File C:\Program Files\Microsoft Visual Studio\2022\Community\VC\Tools\MSVC\14.44.35207\include\xmemory
; File C:\Program Files\Microsoft Visual Studio\2022\Community\VC\Tools\MSVC\14.44.35207\include\utility
; File C:\Program Files\Microsoft Visual Studio\2022\Community\VC\Tools\MSVC\14.44.35207\include\xtree
; File C:\Program Files\Microsoft Visual Studio\2022\Community\VC\Tools\MSVC\14.44.35207\include\utility
; File C:\Program Files\Microsoft Visual Studio\2022\Community\VC\Tools\MSVC\14.44.35207\include\xtree
; File C:\Program Files\Microsoft Visual Studio\2022\Community\VC\Tools\MSVC\14.44.35207\include\utility
; File C:\Program Files\Microsoft Visual Studio\2022\Community\VC\Tools\MSVC\14.44.35207\include\xtree
;	COMDAT ??$_Emplace@U?$pair@HPAVCGraphicImage@@@std@@@?$_Tree@V?$_Tmap_traits@HPAVCGraphicImage@@U?$less@H@std@@V?$allocator@U?$pair@$$CBHPAVCGraphicImage@@@std@@@3@$0A@@std@@@std@@IAE?AU?$pair@PAU?$_Tree_node@U?$pair@$$CBHPAVCGraphicImage@@@std@@PAX@std@@_N@1@$$QAU?$pair@HPAVCGraphicImage@@@1@@Z
_TEXT	SEGMENT
__Loc$ = -36						; size = 12
$T2 = -24						; size = 12
$T3 = -20						; size = 8
__$EHRec$ = -12						; size = 12
___$ReturnUdt$ = 8					; size = 4
_<_Vals_0>$ = 12					; size = 4
??$_Emplace@U?$pair@HPAVCGraphicImage@@@std@@@?$_Tree@V?$_Tmap_traits@HPAVCGraphicImage@@U?$less@H@std@@V?$allocator@U?$pair@$$CBHPAVCGraphicImage@@@std@@@3@$0A@@std@@@std@@IAE?AU?$pair@PAU?$_Tree_node@U?$pair@$$CBHPAVCGraphicImage@@@std@@PAX@std@@_N@1@$$QAU?$pair@HPAVCGraphicImage@@@1@@Z PROC ; std::_Tree<std::_Tmap_traits<int,CGraphicImage *,std::less<int>,std::allocator<std::pair<int const ,CGraphicImage *> >,0> >::_Emplace<std::pair<int,CGraphicImage *> >, COMDAT
; _this$dead$ = ecx

; 1010 :     pair<_Nodeptr, bool> _Emplace(_Valtys&&... _Vals) {

  00000	55		 push	 ebp
  00001	8b ec		 mov	 ebp, esp
  00003	6a ff		 push	 -1
  00005	68 00 00 00 00	 push	 __ehhandler$??$_Emplace@U?$pair@HPAVCGraphicImage@@@std@@@?$_Tree@V?$_Tmap_traits@HPAVCGraphicImage@@U?$less@H@std@@V?$allocator@U?$pair@$$CBHPAVCGraphicImage@@@std@@@3@$0A@@std@@@std@@IAE?AU?$pair@PAU?$_Tree_node@U?$pair@$$CBHPAVCGraphicImage@@@std@@PAX@std@@_N@1@$$QAU?$pair@HPAVCGraphicImage@@@1@@Z
  0000a	64 a1 00 00 00
	00		 mov	 eax, DWORD PTR fs:0
  00010	50		 push	 eax
  00011	83 ec 18	 sub	 esp, 24			; 00000018H
  00014	56		 push	 esi
  00015	57		 push	 edi
  00016	a1 00 00 00 00	 mov	 eax, DWORD PTR ___security_cookie
  0001b	33 c5		 xor	 eax, ebp
  0001d	50		 push	 eax
  0001e	8d 45 f4	 lea	 eax, DWORD PTR __$EHRec$[ebp]
  00021	64 a3 00 00 00
	00		 mov	 DWORD PTR fs:0, eax

; 1011 :         using _In_place_key_extractor = typename _Traits::template _In_place_key_extractor<_Valtys...>;
; 1012 :         const auto _Scary             = _Get_scary();
; 1013 :         _Tree_find_result<_Nodeptr> _Loc;
; 1014 :         _Nodeptr _Inserted;
; 1015 :         if constexpr (!_Multi && _In_place_key_extractor::_Extractable) {
; 1016 :             const auto& _Keyval = _In_place_key_extractor::_Extract(_Vals...);
; 1017 :             _Loc                = _Find_lower_bound(_Keyval);

  00027	8b 7d 0c	 mov	 edi, DWORD PTR _<_Vals_0>$[ebp]
  0002a	8d 45 e8	 lea	 eax, DWORD PTR $T2[ebp]
  0002d	57		 push	 edi
  0002e	50		 push	 eax
  0002f	e8 00 00 00 00	 call	 ??$_Find_lower_bound@H@?$_Tree@V?$_Tmap_traits@HPAVCGraphicImage@@U?$less@H@std@@V?$allocator@U?$pair@$$CBHPAVCGraphicImage@@@std@@@3@$0A@@std@@@std@@IBE?AU?$_Tree_find_result@PAU?$_Tree_node@U?$pair@$$CBHPAVCGraphicImage@@@std@@PAX@std@@@1@ABH@Z ; std::_Tree<std::_Tmap_traits<int,CGraphicImage *,std::less<int>,std::allocator<std::pair<int const ,CGraphicImage *> >,0> >::_Find_lower_bound<int>
  00034	8b 48 08	 mov	 ecx, DWORD PTR [eax+8]
  00037	f3 0f 7e 00	 movq	 xmm0, QWORD PTR [eax]
  0003b	66 0f d6 45 dc	 movq	 QWORD PTR __Loc$[ebp], xmm0

; 1624 :         return !_Bound->_Isnil && !_DEBUG_LT_PRED(_Getcomp(), _Keyval, _Traits::_Kfn(_Bound->_Myval));

  00040	80 79 0d 00	 cmp	 BYTE PTR [ecx+13], 0
  00044	75 23		 jne	 SHORT $LN2@Emplace
; File C:\Program Files\Microsoft Visual Studio\2022\Community\VC\Tools\MSVC\14.44.35207\include\type_traits

; 2380 :         return _Left < _Right;

  00046	8b 07		 mov	 eax, DWORD PTR [edi]
  00048	3b 41 10	 cmp	 eax, DWORD PTR [ecx+16]
; File C:\Program Files\Microsoft Visual Studio\2022\Community\VC\Tools\MSVC\14.44.35207\include\xtree

; 1624 :         return !_Bound->_Isnil && !_DEBUG_LT_PRED(_Getcomp(), _Keyval, _Traits::_Kfn(_Bound->_Myval));

  0004b	7c 1c		 jl	 SHORT $LN2@Emplace
; File C:\Program Files\Microsoft Visual Studio\2022\Community\VC\Tools\MSVC\14.44.35207\include\utility

; 274  :         : first(_STD forward<_Other1>(_Val1)), second(_STD forward<_Other2>(_Val2)) {

  0004d	8b 45 08	 mov	 eax, DWORD PTR ___$ReturnUdt$[ebp]
  00050	89 08		 mov	 DWORD PTR [eax], ecx
  00052	c6 40 04 00	 mov	 BYTE PTR [eax+4], 0
; File C:\Program Files\Microsoft Visual Studio\2022\Community\VC\Tools\MSVC\14.44.35207\include\xtree

; 1043 :     }

  00056	8b 4d f4	 mov	 ecx, DWORD PTR __$EHRec$[ebp]
  00059	64 89 0d 00 00
	00 00		 mov	 DWORD PTR fs:0, ecx
  00060	59		 pop	 ecx
  00061	5f		 pop	 edi
  00062	5e		 pop	 esi
  00063	8b e5		 mov	 esp, ebp
  00065	5d		 pop	 ebp
  00066	c2 08 00	 ret	 8
$LN2@Emplace:

; 1648 :         if (max_size() == _Get_scary()->_Mysize) {

  00069	81 3d 04 00 00
	00 aa aa aa 0a	 cmp	 DWORD PTR ?m_kMap_iEmotionIndex_pkIconImage@@3V?$map@HPAVCGraphicImage@@U?$less@H@std@@V?$allocator@U?$pair@$$CBHPAVCGraphicImage@@@std@@@3@@std@@A+4, 178956970 ; 0aaaaaaaH
  00073	74 6d		 je	 SHORT $LN102@Emplace

; 1018 :             if (_Lower_bound_duplicate(_Loc._Bound, _Keyval)) {
; 1019 :                 return {_Loc._Bound, false};
; 1020 :             }
; 1021 : 
; 1022 :             _Check_grow_by_1();
; 1023 :             _Inserted = _Tree_temp_node<_Alnode>(_Getal(), _Scary->_Myhead, _STD forward<_Valtys>(_Vals)...)._Release();

  00075	8b 35 00 00 00
	00		 mov	 esi, DWORD PTR ?m_kMap_iEmotionIndex_pkIconImage@@3V?$map@HPAVCGraphicImage@@U?$less@H@std@@V?$allocator@U?$pair@$$CBHPAVCGraphicImage@@@std@@@3@@std@@A
; File C:\Program Files\Microsoft Visual Studio\2022\Community\VC\Tools\MSVC\14.44.35207\include\xmemory

; 1160 :     _CONSTEXPR20 explicit _Alloc_construct_ptr(_Alloc& _Al_) : _Al(_Al_), _Ptr(nullptr) {}

  0007b	c7 45 ec 00 00
	00 00		 mov	 DWORD PTR $T3[ebp], OFFSET ?m_kMap_iEmotionIndex_pkIconImage@@3V?$map@HPAVCGraphicImage@@U?$less@H@std@@V?$allocator@U?$pair@$$CBHPAVCGraphicImage@@@std@@@3@@std@@A ; m_kMap_iEmotionIndex_pkIconImage
; File C:\Program Files\Microsoft Visual Studio\2022\Community\VC\Tools\MSVC\14.44.35207\include\xtree

; 808  :     explicit _Tree_temp_node_alloc(_Alnode& _Al_) : _Alloc_construct_ptr<_Alnode>(_Al_) {

  00082	c7 45 fc 00 00
	00 00		 mov	 DWORD PTR __$EHRec$[ebp+8], 0
; File C:\Program Files\Microsoft Visual Studio\2022\Community\VC\Tools\MSVC\14.44.35207\include\xmemory

; 136  :         return ::operator new(_Bytes);

  00089	6a 18		 push	 24			; 00000018H

; 1167 :         _Ptr = nullptr; // if allocate throws, prevents double-free

  0008b	c7 45 f0 00 00
	00 00		 mov	 DWORD PTR $T3[ebp+4], 0

; 136  :         return ::operator new(_Bytes);

  00092	e8 00 00 00 00	 call	 ??2@YAPAXI@Z		; operator new
; File C:\Program Files\Microsoft Visual Studio\2022\Community\VC\Tools\MSVC\14.44.35207\include\utility

; 303  :         : first(_STD forward<_Other1>(_Right.first)), second(_STD forward<_Other2>(_Right.second)) {}

  00097	8b 0f		 mov	 ecx, DWORD PTR [edi]
; File C:\Program Files\Microsoft Visual Studio\2022\Community\VC\Tools\MSVC\14.44.35207\include\xmemory

; 136  :         return ::operator new(_Bytes);

  00099	83 c4 04	 add	 esp, 4
; File C:\Program Files\Microsoft Visual Studio\2022\Community\VC\Tools\MSVC\14.44.35207\include\utility

; 303  :         : first(_STD forward<_Other1>(_Right.first)), second(_STD forward<_Other2>(_Right.second)) {}

  0009c	89 48 10	 mov	 DWORD PTR [eax+16], ecx
  0009f	8b 4f 04	 mov	 ecx, DWORD PTR [edi+4]
  000a2	89 48 14	 mov	 DWORD PTR [eax+20], ecx
; File C:\Program Files\Microsoft Visual Studio\2022\Community\VC\Tools\MSVC\14.44.35207\include\xtree

; 1042 :         return {_Scary->_Insert_node(_Loc._Location, _Inserted), true};

  000a5	b9 00 00 00 00	 mov	 ecx, OFFSET ?m_kMap_iEmotionIndex_pkIconImage@@3V?$map@HPAVCGraphicImage@@U?$less@H@std@@V?$allocator@U?$pair@$$CBHPAVCGraphicImage@@@std@@@3@@std@@A ; m_kMap_iEmotionIndex_pkIconImage
  000aa	50		 push	 eax
  000ab	ff 75 e0	 push	 DWORD PTR __Loc$[ebp+4]

; 831  :         _Construct_in_place(this->_Ptr->_Left, _Myhead);

  000ae	89 30		 mov	 DWORD PTR [eax], esi

; 1042 :         return {_Scary->_Insert_node(_Loc._Location, _Inserted), true};

  000b0	ff 75 dc	 push	 DWORD PTR __Loc$[ebp]

; 832  :         _Construct_in_place(this->_Ptr->_Parent, _Myhead);

  000b3	89 70 04	 mov	 DWORD PTR [eax+4], esi

; 833  :         _Construct_in_place(this->_Ptr->_Right, _Myhead);

  000b6	89 70 08	 mov	 DWORD PTR [eax+8], esi

; 834  :         this->_Ptr->_Color = _Red;

  000b9	66 c7 40 0c 00
	00		 mov	 WORD PTR [eax+12], 0

; 1042 :         return {_Scary->_Insert_node(_Loc._Location, _Inserted), true};

  000bf	e8 00 00 00 00	 call	 ?_Insert_node@?$_Tree_val@U?$_Tree_simple_types@U?$pair@$$CBHPAVCGraphicImage@@@std@@@std@@@std@@QAEPAU?$_Tree_node@U?$pair@$$CBHPAVCGraphicImage@@@std@@PAX@2@U?$_Tree_id@PAU?$_Tree_node@U?$pair@$$CBHPAVCGraphicImage@@@std@@PAX@std@@@2@QAU32@@Z ; std::_Tree_val<std::_Tree_simple_types<std::pair<int const ,CGraphicImage *> > >::_Insert_node
; File C:\Program Files\Microsoft Visual Studio\2022\Community\VC\Tools\MSVC\14.44.35207\include\utility

; 274  :         : first(_STD forward<_Other1>(_Val1)), second(_STD forward<_Other2>(_Val2)) {

  000c4	8b 4d 08	 mov	 ecx, DWORD PTR ___$ReturnUdt$[ebp]
  000c7	89 01		 mov	 DWORD PTR [ecx], eax
; File C:\Program Files\Microsoft Visual Studio\2022\Community\VC\Tools\MSVC\14.44.35207\include\xtree

; 1042 :         return {_Scary->_Insert_node(_Loc._Location, _Inserted), true};

  000c9	8b c1		 mov	 eax, ecx
; File C:\Program Files\Microsoft Visual Studio\2022\Community\VC\Tools\MSVC\14.44.35207\include\utility

; 274  :         : first(_STD forward<_Other1>(_Val1)), second(_STD forward<_Other2>(_Val2)) {

  000cb	c6 41 04 01	 mov	 BYTE PTR [ecx+4], 1
; File C:\Program Files\Microsoft Visual Studio\2022\Community\VC\Tools\MSVC\14.44.35207\include\xtree

; 1043 :     }

  000cf	8b 4d f4	 mov	 ecx, DWORD PTR __$EHRec$[ebp]
  000d2	64 89 0d 00 00
	00 00		 mov	 DWORD PTR fs:0, ecx
  000d9	59		 pop	 ecx
  000da	5f		 pop	 edi
  000db	5e		 pop	 esi
  000dc	8b e5		 mov	 esp, ebp
  000de	5d		 pop	 ebp
  000df	c2 08 00	 ret	 8
$LN102@Emplace:

; 1649 :             _Throw_tree_length_error();

  000e2	e8 00 00 00 00	 call	 ?_Throw_tree_length_error@std@@YAXXZ ; std::_Throw_tree_length_error
$LN100@Emplace:
  000e7	cc		 int	 3
_TEXT	ENDS
;	COMDAT text$x
text$x	SEGMENT
__unwindfunclet$??$_Emplace@U?$pair@HPAVCGraphicImage@@@std@@@?$_Tree@V?$_Tmap_traits@HPAVCGraphicImage@@U?$less@H@std@@V?$allocator@U?$pair@$$CBHPAVCGraphicImage@@@std@@@3@$0A@@std@@@std@@IAE?AU?$pair@PAU?$_Tree_node@U?$pair@$$CBHPAVCGraphicImage@@@std@@PAX@std@@_N@1@$$QAU?$pair@HPAVCGraphicImage@@@1@@Z$2:
  00000	8d 4d ec	 lea	 ecx, DWORD PTR $T3[ebp]
  00003	e9 00 00 00 00	 jmp	 ??1?$_Alloc_construct_ptr@V?$allocator@U?$_Tree_node@U?$pair@$$CBHPAVCGraphicImage@@@std@@PAX@std@@@std@@@std@@QAE@XZ ; std::_Alloc_construct_ptr<std::allocator<std::_Tree_node<std::pair<int const ,CGraphicImage *>,void *> > >::~_Alloc_construct_ptr<std::allocator<std::_Tree_node<std::pair<int const ,CGraphicImage *>,void *> > >
  00008	cc		 int	 3
  00009	cc		 int	 3
  0000a	cc		 int	 3
  0000b	cc		 int	 3
  0000c	cc		 int	 3
__ehhandler$??$_Emplace@U?$pair@HPAVCGraphicImage@@@std@@@?$_Tree@V?$_Tmap_traits@HPAVCGraphicImage@@U?$less@H@std@@V?$allocator@U?$pair@$$CBHPAVCGraphicImage@@@std@@@3@$0A@@std@@@std@@IAE?AU?$pair@PAU?$_Tree_node@U?$pair@$$CBHPAVCGraphicImage@@@std@@PAX@std@@_N@1@$$QAU?$pair@HPAVCGraphicImage@@@1@@Z:
  0000d	90		 npad	 1
  0000e	90		 npad	 1
  0000f	8b 54 24 08	 mov	 edx, DWORD PTR [esp+8]
  00013	8d 42 0c	 lea	 eax, DWORD PTR [edx+12]
  00016	8b 4a dc	 mov	 ecx, DWORD PTR [edx-36]
  00019	33 c8		 xor	 ecx, eax
  0001b	e8 00 00 00 00	 call	 @__security_check_cookie@4
  00020	b8 00 00 00 00	 mov	 eax, OFFSET __ehfuncinfo$??$_Emplace@U?$pair@HPAVCGraphicImage@@@std@@@?$_Tree@V?$_Tmap_traits@HPAVCGraphicImage@@U?$less@H@std@@V?$allocator@U?$pair@$$CBHPAVCGraphicImage@@@std@@@3@$0A@@std@@@std@@IAE?AU?$pair@PAU?$_Tree_node@U?$pair@$$CBHPAVCGraphicImage@@@std@@PAX@std@@_N@1@$$QAU?$pair@HPAVCGraphicImage@@@1@@Z
  00025	e9 00 00 00 00	 jmp	 ___CxxFrameHandler3
text$x	ENDS
??$_Emplace@U?$pair@HPAVCGraphicImage@@@std@@@?$_Tree@V?$_Tmap_traits@HPAVCGraphicImage@@U?$less@H@std@@V?$allocator@U?$pair@$$CBHPAVCGraphicImage@@@std@@@3@$0A@@std@@@std@@IAE?AU?$pair@PAU?$_Tree_node@U?$pair@$$CBHPAVCGraphicImage@@@std@@PAX@std@@_N@1@$$QAU?$pair@HPAVCGraphicImage@@@1@@Z ENDP ; std::_Tree<std::_Tmap_traits<int,CGraphicImage *,std::less<int>,std::allocator<std::pair<int const ,CGraphicImage *> >,0> >::_Emplace<std::pair<int,CGraphicImage *> >
; Function compile flags: /Ogtp
; File C:\Program Files\Microsoft Visual Studio\2022\Community\VC\Tools\MSVC\14.44.35207\include\utility
;	COMDAT ??$?0V?$_Tree_iterator@V?$_Tree_val@U?$_Tree_simple_types@U?$pair@$$CBHPAVCGraphicImage@@@std@@@std@@@std@@@std@@AB_N$0A@@?$pair@V?$_Tree_iterator@V?$_Tree_val@U?$_Tree_simple_types@U?$pair@$$CBHPAVCGraphicImage@@@std@@@std@@@std@@@std@@_N@std@@QAE@$$QAV?$_Tree_iterator@V?$_Tree_val@U?$_Tree_simple_types@U?$pair@$$CBHPAVCGraphicImage@@@std@@@std@@@std@@@1@AB_N@Z
_TEXT	SEGMENT
__Val1$ = 8						; size = 4
__Val2$ = 12						; size = 4
??$?0V?$_Tree_iterator@V?$_Tree_val@U?$_Tree_simple_types@U?$pair@$$CBHPAVCGraphicImage@@@std@@@std@@@std@@@std@@AB_N$0A@@?$pair@V?$_Tree_iterator@V?$_Tree_val@U?$_Tree_simple_types@U?$pair@$$CBHPAVCGraphicImage@@@std@@@std@@@std@@@std@@_N@std@@QAE@$$QAV?$_Tree_iterator@V?$_Tree_val@U?$_Tree_simple_types@U?$pair@$$CBHPAVCGraphicImage@@@std@@@std@@@std@@@1@AB_N@Z PROC ; std::pair<std::_Tree_iterator<std::_Tree_val<std::_Tree_simple_types<std::pair<int const ,CGraphicImage *> > > >,bool>::pair<std::_Tree_iterator<std::_Tree_val<std::_Tree_simple_types<std::pair<int const ,CGraphicImage *> > > >,bool><std::_Tree_iterator<std::_Tree_val<std::_Tree_simple_types<std::pair<int const ,CGraphicImage *> > > >,bool const &,0>, COMDAT
; _this$ = ecx

; 274  :         : first(_STD forward<_Other1>(_Val1)), second(_STD forward<_Other2>(_Val2)) {

  00000	55		 push	 ebp
  00001	8b ec		 mov	 ebp, esp
  00003	8b 45 08	 mov	 eax, DWORD PTR __Val1$[ebp]
  00006	8b 00		 mov	 eax, DWORD PTR [eax]
  00008	89 01		 mov	 DWORD PTR [ecx], eax
  0000a	8b 45 0c	 mov	 eax, DWORD PTR __Val2$[ebp]
  0000d	8a 00		 mov	 al, BYTE PTR [eax]
  0000f	88 41 04	 mov	 BYTE PTR [ecx+4], al

; 275  :     }

  00012	8b c1		 mov	 eax, ecx
  00014	5d		 pop	 ebp
  00015	c2 08 00	 ret	 8
??$?0V?$_Tree_iterator@V?$_Tree_val@U?$_Tree_simple_types@U?$pair@$$CBHPAVCGraphicImage@@@std@@@std@@@std@@@std@@AB_N$0A@@?$pair@V?$_Tree_iterator@V?$_Tree_val@U?$_Tree_simple_types@U?$pair@$$CBHPAVCGraphicImage@@@std@@@std@@@std@@@std@@_N@std@@QAE@$$QAV?$_Tree_iterator@V?$_Tree_val@U?$_Tree_simple_types@U?$pair@$$CBHPAVCGraphicImage@@@std@@@std@@@std@@@1@AB_N@Z ENDP ; std::pair<std::_Tree_iterator<std::_Tree_val<std::_Tree_simple_types<std::pair<int const ,CGraphicImage *> > > >,bool>::pair<std::_Tree_iterator<std::_Tree_val<std::_Tree_simple_types<std::pair<int const ,CGraphicImage *> > > >,bool><std::_Tree_iterator<std::_Tree_val<std::_Tree_simple_types<std::pair<int const ,CGraphicImage *> > > >,bool const &,0>
_TEXT	ENDS
; Function compile flags: /Ogtp
; File C:\Program Files\Microsoft Visual Studio\2022\Community\VC\Tools\MSVC\14.44.35207\include\xtree
; File C:\Program Files\Microsoft Visual Studio\2022\Community\VC\Tools\MSVC\14.44.35207\include\type_traits
; File C:\Program Files\Microsoft Visual Studio\2022\Community\VC\Tools\MSVC\14.44.35207\include\xtree
; File C:\Program Files\Microsoft Visual Studio\2022\Community\VC\Tools\MSVC\14.44.35207\include\type_traits
; File C:\Program Files\Microsoft Visual Studio\2022\Community\VC\Tools\MSVC\14.44.35207\include\xtree
;	COMDAT ??$_Find_lower_bound@H@?$_Tree@V?$_Tmap_traits@HPAVCGraphicImage@@U?$less@H@std@@V?$allocator@U?$pair@$$CBHPAVCGraphicImage@@@std@@@3@$0A@@std@@@std@@IBE?AU?$_Tree_find_result@PAU?$_Tree_node@U?$pair@$$CBHPAVCGraphicImage@@@std@@PAX@std@@@1@ABH@Z
_TEXT	SEGMENT
___$ReturnUdt$ = 8					; size = 4
__Keyval$ = 12						; size = 4
??$_Find_lower_bound@H@?$_Tree@V?$_Tmap_traits@HPAVCGraphicImage@@U?$less@H@std@@V?$allocator@U?$pair@$$CBHPAVCGraphicImage@@@std@@@3@$0A@@std@@@std@@IBE?AU?$_Tree_find_result@PAU?$_Tree_node@U?$pair@$$CBHPAVCGraphicImage@@@std@@PAX@std@@@1@ABH@Z PROC ; std::_Tree<std::_Tmap_traits<int,CGraphicImage *,std::less<int>,std::allocator<std::pair<int const ,CGraphicImage *> >,0> >::_Find_lower_bound<int>, COMDAT
; _this$dead$ = ecx

; 1628 :     _Tree_find_result<_Nodeptr> _Find_lower_bound(const _Keyty& _Keyval) const {

  00000	55		 push	 ebp
  00001	8b ec		 mov	 ebp, esp

; 1629 :         const auto _Scary = _Get_scary();
; 1630 :         _Tree_find_result<_Nodeptr> _Result{{_Scary->_Myhead->_Parent, _Tree_child::_Right}, _Scary->_Myhead};

  00003	8b 0d 00 00 00
	00		 mov	 ecx, DWORD PTR ?m_kMap_iEmotionIndex_pkIconImage@@3V?$map@HPAVCGraphicImage@@U?$less@H@std@@V?$allocator@U?$pair@$$CBHPAVCGraphicImage@@@std@@@3@@std@@A
  00009	8b 55 08	 mov	 edx, DWORD PTR ___$ReturnUdt$[ebp]
  0000c	8b 41 04	 mov	 eax, DWORD PTR [ecx+4]
  0000f	89 02		 mov	 DWORD PTR [edx], eax
  00011	c7 42 04 00 00
	00 00		 mov	 DWORD PTR [edx+4], 0
  00018	89 4a 08	 mov	 DWORD PTR [edx+8], ecx

; 1631 :         _Nodeptr _Trynode = _Result._Location._Parent;
; 1632 :         while (!_Trynode->_Isnil) {

  0001b	80 78 0d 00	 cmp	 BYTE PTR [eax+13], 0
  0001f	75 28		 jne	 SHORT $LN13@Find_lower
; File C:\Program Files\Microsoft Visual Studio\2022\Community\VC\Tools\MSVC\14.44.35207\include\type_traits

; 2380 :         return _Left < _Right;

  00021	8b 4d 0c	 mov	 ecx, DWORD PTR __Keyval$[ebp]
  00024	56		 push	 esi
  00025	8b 31		 mov	 esi, DWORD PTR [ecx]
$LL2@Find_lower:
; File C:\Program Files\Microsoft Visual Studio\2022\Community\VC\Tools\MSVC\14.44.35207\include\xtree

; 1633 :             _Result._Location._Parent = _Trynode;

  00027	89 02		 mov	 DWORD PTR [edx], eax
; File C:\Program Files\Microsoft Visual Studio\2022\Community\VC\Tools\MSVC\14.44.35207\include\type_traits

; 2380 :         return _Left < _Right;

  00029	39 70 10	 cmp	 DWORD PTR [eax+16], esi
; File C:\Program Files\Microsoft Visual Studio\2022\Community\VC\Tools\MSVC\14.44.35207\include\xtree

; 1634 :             if (_DEBUG_LT_PRED(_Getcomp(), _Traits::_Kfn(_Trynode->_Myval), _Keyval)) {

  0002c	7d 07		 jge	 SHORT $LN4@Find_lower

; 1635 :                 _Result._Location._Child = _Tree_child::_Right;
; 1636 :                 _Trynode                 = _Trynode->_Right;

  0002e	8b 40 08	 mov	 eax, DWORD PTR [eax+8]
  00031	33 c9		 xor	 ecx, ecx

; 1637 :             } else {

  00033	eb 0a		 jmp	 SHORT $LN5@Find_lower
$LN4@Find_lower:

; 1638 :                 _Result._Location._Child = _Tree_child::_Left;
; 1639 :                 _Result._Bound           = _Trynode;

  00035	89 42 08	 mov	 DWORD PTR [edx+8], eax

; 1640 :                 _Trynode                 = _Trynode->_Left;

  00038	b9 01 00 00 00	 mov	 ecx, 1
  0003d	8b 00		 mov	 eax, DWORD PTR [eax]
$LN5@Find_lower:

; 1631 :         _Nodeptr _Trynode = _Result._Location._Parent;
; 1632 :         while (!_Trynode->_Isnil) {

  0003f	89 4a 04	 mov	 DWORD PTR [edx+4], ecx
  00042	80 78 0d 00	 cmp	 BYTE PTR [eax+13], 0
  00046	74 df		 je	 SHORT $LL2@Find_lower
  00048	5e		 pop	 esi
$LN13@Find_lower:

; 1641 :             }
; 1642 :         }
; 1643 : 
; 1644 :         return _Result;
; 1645 :     }

  00049	8b c2		 mov	 eax, edx
  0004b	5d		 pop	 ebp
  0004c	c2 08 00	 ret	 8
??$_Find_lower_bound@H@?$_Tree@V?$_Tmap_traits@HPAVCGraphicImage@@U?$less@H@std@@V?$allocator@U?$pair@$$CBHPAVCGraphicImage@@@std@@@3@$0A@@std@@@std@@IBE?AU?$_Tree_find_result@PAU?$_Tree_node@U?$pair@$$CBHPAVCGraphicImage@@@std@@PAX@std@@@1@ABH@Z ENDP ; std::_Tree<std::_Tmap_traits<int,CGraphicImage *,std::less<int>,std::allocator<std::pair<int const ,CGraphicImage *> >,0> >::_Find_lower_bound<int>
_TEXT	ENDS
; Function compile flags: /Ogtp
; File C:\Program Files\Microsoft Visual Studio\2022\Community\VC\Tools\MSVC\14.44.35207\include\xtree
; File C:\Program Files\Microsoft Visual Studio\2022\Community\VC\Tools\MSVC\14.44.35207\include\type_traits
; File C:\Program Files\Microsoft Visual Studio\2022\Community\VC\Tools\MSVC\14.44.35207\include\xtree
;	COMDAT ??$_Lower_bound_duplicate@H@?$_Tree@V?$_Tmap_traits@HPAVCGraphicImage@@U?$less@H@std@@V?$allocator@U?$pair@$$CBHPAVCGraphicImage@@@std@@@3@$0A@@std@@@std@@IBE_NQAU?$_Tree_node@U?$pair@$$CBHPAVCGraphicImage@@@std@@PAX@1@ABH@Z
_TEXT	SEGMENT
__Bound$ = 8						; size = 4
__Keyval$ = 12						; size = 4
??$_Lower_bound_duplicate@H@?$_Tree@V?$_Tmap_traits@HPAVCGraphicImage@@U?$less@H@std@@V?$allocator@U?$pair@$$CBHPAVCGraphicImage@@@std@@@3@$0A@@std@@@std@@IBE_NQAU?$_Tree_node@U?$pair@$$CBHPAVCGraphicImage@@@std@@PAX@1@ABH@Z PROC ; std::_Tree<std::_Tmap_traits<int,CGraphicImage *,std::less<int>,std::allocator<std::pair<int const ,CGraphicImage *> >,0> >::_Lower_bound_duplicate<int>, COMDAT
; _this$dead$ = ecx

; 1623 :     bool _Lower_bound_duplicate(const _Nodeptr _Bound, const _Keyty& _Keyval) const {

  00000	55		 push	 ebp
  00001	8b ec		 mov	 ebp, esp

; 1624 :         return !_Bound->_Isnil && !_DEBUG_LT_PRED(_Getcomp(), _Keyval, _Traits::_Kfn(_Bound->_Myval));

  00003	8b 4d 08	 mov	 ecx, DWORD PTR __Bound$[ebp]
  00006	80 79 0d 00	 cmp	 BYTE PTR [ecx+13], 0
  0000a	75 10		 jne	 SHORT $LN3@Lower_boun
; File C:\Program Files\Microsoft Visual Studio\2022\Community\VC\Tools\MSVC\14.44.35207\include\type_traits

; 2380 :         return _Left < _Right;

  0000c	8b 45 0c	 mov	 eax, DWORD PTR __Keyval$[ebp]
  0000f	8b 00		 mov	 eax, DWORD PTR [eax]
  00011	3b 41 10	 cmp	 eax, DWORD PTR [ecx+16]
; File C:\Program Files\Microsoft Visual Studio\2022\Community\VC\Tools\MSVC\14.44.35207\include\xtree

; 1624 :         return !_Bound->_Isnil && !_DEBUG_LT_PRED(_Getcomp(), _Keyval, _Traits::_Kfn(_Bound->_Myval));

  00014	7c 06		 jl	 SHORT $LN3@Lower_boun
  00016	b0 01		 mov	 al, 1

; 1625 :     }

  00018	5d		 pop	 ebp
  00019	c2 08 00	 ret	 8
$LN3@Lower_boun:

; 1624 :         return !_Bound->_Isnil && !_DEBUG_LT_PRED(_Getcomp(), _Keyval, _Traits::_Kfn(_Bound->_Myval));

  0001c	32 c0		 xor	 al, al

; 1625 :     }

  0001e	5d		 pop	 ebp
  0001f	c2 08 00	 ret	 8
??$_Lower_bound_duplicate@H@?$_Tree@V?$_Tmap_traits@HPAVCGraphicImage@@U?$less@H@std@@V?$allocator@U?$pair@$$CBHPAVCGraphicImage@@@std@@@3@$0A@@std@@@std@@IBE_NQAU?$_Tree_node@U?$pair@$$CBHPAVCGraphicImage@@@std@@PAX@1@ABH@Z ENDP ; std::_Tree<std::_Tmap_traits<int,CGraphicImage *,std::less<int>,std::allocator<std::pair<int const ,CGraphicImage *> >,0> >::_Lower_bound_duplicate<int>
_TEXT	ENDS
; Function compile flags: /Ogtp
; File C:\Program Files\Microsoft Visual Studio\2022\Community\VC\Tools\MSVC\14.44.35207\include\xtree
; File C:\Program Files\Microsoft Visual Studio\2022\Community\VC\Tools\MSVC\14.44.35207\include\utility
; File C:\Program Files\Microsoft Visual Studio\2022\Community\VC\Tools\MSVC\14.44.35207\include\xmemory
; File C:\Program Files\Microsoft Visual Studio\2022\Community\VC\Tools\MSVC\14.44.35207\include\xtree
;	COMDAT ??$_Erase_tree@V?$allocator@U?$_Tree_node@U?$pair@$$CBHPAVCGraphicImage@@@std@@PAX@std@@@std@@@?$_Tree_val@U?$_Tree_simple_types@U?$pair@$$CBHPAVCGraphicImage@@@std@@@std@@@std@@QAEXAAV?$allocator@U?$_Tree_node@U?$pair@$$CBHPAVCGraphicImage@@@std@@PAX@std@@@1@PAU?$_Tree_node@U?$pair@$$CBHPAVCGraphicImage@@@std@@PAX@1@@Z
_TEXT	SEGMENT
__Al$ = 8						; size = 4
__Rootnode$ = 12					; size = 4
??$_Erase_tree@V?$allocator@U?$_Tree_node@U?$pair@$$CBHPAVCGraphicImage@@@std@@PAX@std@@@std@@@?$_Tree_val@U?$_Tree_simple_types@U?$pair@$$CBHPAVCGraphicImage@@@std@@@std@@@std@@QAEXAAV?$allocator@U?$_Tree_node@U?$pair@$$CBHPAVCGraphicImage@@@std@@PAX@std@@@1@PAU?$_Tree_node@U?$pair@$$CBHPAVCGraphicImage@@@std@@PAX@1@@Z PROC ; std::_Tree_val<std::_Tree_simple_types<std::pair<int const ,CGraphicImage *> > >::_Erase_tree<std::allocator<std::_Tree_node<std::pair<int const ,CGraphicImage *>,void *> > >, COMDAT
; _this$ = ecx

; 767  :     void _Erase_tree(_Alnode& _Al, _Nodeptr _Rootnode) noexcept {

  00000	55		 push	 ebp
  00001	8b ec		 mov	 ebp, esp
  00003	53		 push	 ebx
  00004	56		 push	 esi

; 768  :         while (!_Rootnode->_Isnil) { // free subtrees, then node

  00005	8b 75 0c	 mov	 esi, DWORD PTR __Rootnode$[ebp]
  00008	8b d9		 mov	 ebx, ecx
  0000a	80 7e 0d 00	 cmp	 BYTE PTR [esi+13], 0
  0000e	75 25		 jne	 SHORT $LN51@Erase_tree
  00010	57		 push	 edi
  00011	8b 7d 08	 mov	 edi, DWORD PTR __Al$[ebp]
$LL2@Erase_tree:

; 769  :             _Erase_tree(_Al, _Rootnode->_Right);

  00014	ff 76 08	 push	 DWORD PTR [esi+8]
  00017	8b cb		 mov	 ecx, ebx
  00019	57		 push	 edi
  0001a	e8 00 00 00 00	 call	 ??$_Erase_tree@V?$allocator@U?$_Tree_node@U?$pair@$$CBHPAVCGraphicImage@@@std@@PAX@std@@@std@@@?$_Tree_val@U?$_Tree_simple_types@U?$pair@$$CBHPAVCGraphicImage@@@std@@@std@@@std@@QAEXAAV?$allocator@U?$_Tree_node@U?$pair@$$CBHPAVCGraphicImage@@@std@@PAX@std@@@1@PAU?$_Tree_node@U?$pair@$$CBHPAVCGraphicImage@@@std@@PAX@1@@Z ; std::_Tree_val<std::_Tree_simple_types<std::pair<int const ,CGraphicImage *> > >::_Erase_tree<std::allocator<std::_Tree_node<std::pair<int const ,CGraphicImage *>,void *> > >
; File C:\Program Files\Microsoft Visual Studio\2022\Community\VC\Tools\MSVC\14.44.35207\include\utility

; 773  :     _Ty _Old_val = static_cast<_Ty&&>(_Val);

  0001f	8b c6		 mov	 eax, esi

; 774  :     _Val         = static_cast<_Other&&>(_New_val);

  00021	8b 36		 mov	 esi, DWORD PTR [esi]
; File C:\Program Files\Microsoft Visual Studio\2022\Community\VC\Tools\MSVC\14.44.35207\include\xmemory

; 289  :         ::operator delete(_Ptr, _Bytes);

  00023	6a 18		 push	 24			; 00000018H
  00025	50		 push	 eax
  00026	e8 00 00 00 00	 call	 ??3@YAXPAXI@Z		; operator delete
  0002b	83 c4 08	 add	 esp, 8
; File C:\Program Files\Microsoft Visual Studio\2022\Community\VC\Tools\MSVC\14.44.35207\include\xtree

; 768  :         while (!_Rootnode->_Isnil) { // free subtrees, then node

  0002e	80 7e 0d 00	 cmp	 BYTE PTR [esi+13], 0
  00032	74 e0		 je	 SHORT $LL2@Erase_tree
  00034	5f		 pop	 edi
$LN51@Erase_tree:
  00035	5e		 pop	 esi

; 770  :             _Alnode::value_type::_Freenode(_Al, _STD exchange(_Rootnode, _Rootnode->_Left));
; 771  :         }
; 772  :     }

  00036	5b		 pop	 ebx
  00037	5d		 pop	 ebp
  00038	c2 08 00	 ret	 8
??$_Erase_tree@V?$allocator@U?$_Tree_node@U?$pair@$$CBHPAVCGraphicImage@@@std@@PAX@std@@@std@@@?$_Tree_val@U?$_Tree_simple_types@U?$pair@$$CBHPAVCGraphicImage@@@std@@@std@@@std@@QAEXAAV?$allocator@U?$_Tree_node@U?$pair@$$CBHPAVCGraphicImage@@@std@@PAX@std@@@1@PAU?$_Tree_node@U?$pair@$$CBHPAVCGraphicImage@@@std@@PAX@1@@Z ENDP ; std::_Tree_val<std::_Tree_simple_types<std::pair<int const ,CGraphicImage *> > >::_Erase_tree<std::allocator<std::_Tree_node<std::pair<int const ,CGraphicImage *>,void *> > >
_TEXT	ENDS
; Function compile flags: /Ogtp
; File C:\Program Files\Microsoft Visual Studio\2022\Community\VC\Tools\MSVC\14.44.35207\include\xtree
; File C:\Program Files\Microsoft Visual Studio\2022\Community\VC\Tools\MSVC\14.44.35207\include\xmemory
; File C:\Program Files\Microsoft Visual Studio\2022\Community\VC\Tools\MSVC\14.44.35207\include\xtree
;	COMDAT ??$_Freenode0@V?$allocator@U?$_Tree_node@U?$pair@$$CBHPAVCGraphicImage@@@std@@PAX@std@@@std@@@?$_Tree_node@U?$pair@$$CBHPAVCGraphicImage@@@std@@PAX@std@@SAXAAV?$allocator@U?$_Tree_node@U?$pair@$$CBHPAVCGraphicImage@@@std@@PAX@std@@@1@PAU01@@Z
_TEXT	SEGMENT
??$_Freenode0@V?$allocator@U?$_Tree_node@U?$pair@$$CBHPAVCGraphicImage@@@std@@PAX@std@@@std@@@?$_Tree_node@U?$pair@$$CBHPAVCGraphicImage@@@std@@PAX@std@@SAXAAV?$allocator@U?$_Tree_node@U?$pair@$$CBHPAVCGraphicImage@@@std@@PAX@std@@@1@PAU01@@Z PROC ; std::_Tree_node<std::pair<int const ,CGraphicImage *>,void *>::_Freenode0<std::allocator<std::_Tree_node<std::pair<int const ,CGraphicImage *>,void *> > >, COMDAT
; __Al$dead$ = ecx
; __Ptr$ = edx
; File C:\Program Files\Microsoft Visual Studio\2022\Community\VC\Tools\MSVC\14.44.35207\include\xmemory

; 289  :         ::operator delete(_Ptr, _Bytes);

  00000	6a 18		 push	 24			; 00000018H
  00002	52		 push	 edx
  00003	e8 00 00 00 00	 call	 ??3@YAXPAXI@Z		; operator delete
  00008	83 c4 08	 add	 esp, 8
; File C:\Program Files\Microsoft Visual Studio\2022\Community\VC\Tools\MSVC\14.44.35207\include\xtree

; 376  :     }

  0000b	c3		 ret	 0
??$_Freenode0@V?$allocator@U?$_Tree_node@U?$pair@$$CBHPAVCGraphicImage@@@std@@PAX@std@@@std@@@?$_Tree_node@U?$pair@$$CBHPAVCGraphicImage@@@std@@PAX@std@@SAXAAV?$allocator@U?$_Tree_node@U?$pair@$$CBHPAVCGraphicImage@@@std@@PAX@std@@@1@PAU01@@Z ENDP ; std::_Tree_node<std::pair<int const ,CGraphicImage *>,void *>::_Freenode0<std::allocator<std::_Tree_node<std::pair<int const ,CGraphicImage *>,void *> > >
_TEXT	ENDS
; Function compile flags: /Ogtp
; File C:\Program Files\Microsoft Visual Studio\2022\Community\VC\Tools\MSVC\14.44.35207\include\tuple
;	COMDAT ??$forward_as_tuple@ABH@std@@YA?AV?$tuple@ABH@0@ABH@Z
_TEXT	SEGMENT
??$forward_as_tuple@ABH@std@@YA?AV?$tuple@ABH@0@ABH@Z PROC ; std::forward_as_tuple<int const &>, COMDAT
; ___$ReturnUdt$ = ecx
; _<_Args_0>$ = edx

; 132  :     constexpr _Tuple_val(_Other&& _Arg) : _Val(_STD forward<_Other>(_Arg)) {}

  00000	89 11		 mov	 DWORD PTR [ecx], edx

; 1005 :     return tuple<_Types&&...>(_STD forward<_Types>(_Args)...);

  00002	8b c1		 mov	 eax, ecx

; 1006 : }

  00004	c3		 ret	 0
??$forward_as_tuple@ABH@std@@YA?AV?$tuple@ABH@0@ABH@Z ENDP ; std::forward_as_tuple<int const &>
_TEXT	ENDS
; Function compile flags: /Ogtp
; File C:\Program Files\Microsoft Visual Studio\2022\Community\VC\Tools\MSVC\14.44.35207\include\xtree
; File C:\Program Files\Microsoft Visual Studio\2022\Community\VC\Tools\MSVC\14.44.35207\include\xmemory
; File C:\Program Files\Microsoft Visual Studio\2022\Community\VC\Tools\MSVC\14.44.35207\include\xtree
; File C:\Program Files\Microsoft Visual Studio\2022\Community\VC\Tools\MSVC\14.44.35207\include\xmemory
; File C:\Program Files\Microsoft Visual Studio\2022\Community\VC\Tools\MSVC\14.44.35207\include\tuple
; File C:\Program Files\Microsoft Visual Studio\2022\Community\VC\Tools\MSVC\14.44.35207\include\xmemory
; File C:\Program Files\Microsoft Visual Studio\2022\Community\VC\Tools\MSVC\14.44.35207\include\tuple
; File C:\Program Files\Microsoft Visual Studio\2022\Community\VC\Tools\MSVC\14.44.35207\include\utility
; File C:\Program Files\Microsoft Visual Studio\2022\Community\VC\Tools\MSVC\14.44.35207\include\xtree
; File C:\Program Files\Microsoft Visual Studio\2022\Community\VC\Tools\MSVC\14.44.35207\include\utility
; File C:\Program Files\Microsoft Visual Studio\2022\Community\VC\Tools\MSVC\14.44.35207\include\xtree
;	COMDAT ??$?0ABUpiecewise_construct_t@std@@V?$tuple@ABH@1@V?$tuple@$$V@1@@?$_Tree_temp_node@V?$allocator@U?$_Tree_node@U?$pair@$$CBHPAVCGraphicImage@@@std@@PAX@std@@@std@@@std@@QAE@AAV?$allocator@U?$_Tree_node@U?$pair@$$CBHPAVCGraphicImage@@@std@@PAX@std@@@1@PAU?$_Tree_node@U?$pair@$$CBHPAVCGraphicImage@@@std@@PAX@1@ABUpiecewise_construct_t@1@$$QAV?$tuple@ABH@1@$$QAV?$tuple@$$V@1@@Z
_TEXT	SEGMENT
_this$ = -16						; size = 4
__$EHRec$ = -12						; size = 12
__Al_$ = 8						; size = 4
__Myhead$ = 12						; size = 4
_<_Vals_0>$dead$ = 16					; size = 4
_<_Vals_1>$ = 20					; size = 4
_<_Vals_2>$dead$ = 24					; size = 4
??$?0ABUpiecewise_construct_t@std@@V?$tuple@ABH@1@V?$tuple@$$V@1@@?$_Tree_temp_node@V?$allocator@U?$_Tree_node@U?$pair@$$CBHPAVCGraphicImage@@@std@@PAX@std@@@std@@@std@@QAE@AAV?$allocator@U?$_Tree_node@U?$pair@$$CBHPAVCGraphicImage@@@std@@PAX@std@@@1@PAU?$_Tree_node@U?$pair@$$CBHPAVCGraphicImage@@@std@@PAX@1@ABUpiecewise_construct_t@1@$$QAV?$tuple@ABH@1@$$QAV?$tuple@$$V@1@@Z PROC ; std::_Tree_temp_node<std::allocator<std::_Tree_node<std::pair<int const ,CGraphicImage *>,void *> > >::_Tree_temp_node<std::allocator<std::_Tree_node<std::pair<int const ,CGraphicImage *>,void *> > ><std::piecewise_construct_t const &,std::tuple<int const &>,std::tuple<> >, COMDAT
; _this$ = ecx

; 829  :         : _Tree_temp_node_alloc<_Alnode>(_Al_) {

  00000	55		 push	 ebp
  00001	8b ec		 mov	 ebp, esp
  00003	6a ff		 push	 -1
  00005	68 00 00 00 00	 push	 __ehhandler$??$?0ABUpiecewise_construct_t@std@@V?$tuple@ABH@1@V?$tuple@$$V@1@@?$_Tree_temp_node@V?$allocator@U?$_Tree_node@U?$pair@$$CBHPAVCGraphicImage@@@std@@PAX@std@@@std@@@std@@QAE@AAV?$allocator@U?$_Tree_node@U?$pair@$$CBHPAVCGraphicImage@@@std@@PAX@std@@@1@PAU?$_Tree_node@U?$pair@$$CBHPAVCGraphicImage@@@std@@PAX@1@ABUpiecewise_construct_t@1@$$QAV?$tuple@ABH@1@$$QAV?$tuple@$$V@1@@Z
  0000a	64 a1 00 00 00
	00		 mov	 eax, DWORD PTR fs:0
  00010	50		 push	 eax
  00011	51		 push	 ecx
  00012	56		 push	 esi
  00013	a1 00 00 00 00	 mov	 eax, DWORD PTR ___security_cookie
  00018	33 c5		 xor	 eax, ebp
  0001a	50		 push	 eax
  0001b	8d 45 f4	 lea	 eax, DWORD PTR __$EHRec$[ebp]
  0001e	64 a3 00 00 00
	00		 mov	 DWORD PTR fs:0, eax
  00024	8b f1		 mov	 esi, ecx
  00026	89 75 f0	 mov	 DWORD PTR _this$[ebp], esi
; File C:\Program Files\Microsoft Visual Studio\2022\Community\VC\Tools\MSVC\14.44.35207\include\xmemory

; 1160 :     _CONSTEXPR20 explicit _Alloc_construct_ptr(_Alloc& _Al_) : _Al(_Al_), _Ptr(nullptr) {}

  00029	8b 45 08	 mov	 eax, DWORD PTR __Al_$[ebp]
  0002c	89 06		 mov	 DWORD PTR [esi], eax
; File C:\Program Files\Microsoft Visual Studio\2022\Community\VC\Tools\MSVC\14.44.35207\include\xtree

; 808  :     explicit _Tree_temp_node_alloc(_Alnode& _Al_) : _Alloc_construct_ptr<_Alnode>(_Al_) {

  0002e	c7 45 fc 00 00
	00 00		 mov	 DWORD PTR __$EHRec$[ebp+8], 0
; File C:\Program Files\Microsoft Visual Studio\2022\Community\VC\Tools\MSVC\14.44.35207\include\xmemory

; 136  :         return ::operator new(_Bytes);

  00035	6a 18		 push	 24			; 00000018H

; 1167 :         _Ptr = nullptr; // if allocate throws, prevents double-free

  00037	c7 46 04 00 00
	00 00		 mov	 DWORD PTR [esi+4], 0

; 136  :         return ::operator new(_Bytes);

  0003e	e8 00 00 00 00	 call	 ??2@YAPAXI@Z		; operator new
; File C:\Program Files\Microsoft Visual Studio\2022\Community\VC\Tools\MSVC\14.44.35207\include\tuple

; 352  :     tuple(tuple&&)      = default;

  00043	8b 4d 14	 mov	 ecx, DWORD PTR _<_Vals_1>$[ebp]
; File C:\Program Files\Microsoft Visual Studio\2022\Community\VC\Tools\MSVC\14.44.35207\include\xmemory

; 136  :         return ::operator new(_Bytes);

  00046	83 c4 04	 add	 esp, 4

; 1168 :         _Ptr = _Al.allocate(1);

  00049	89 46 04	 mov	 DWORD PTR [esi+4], eax
; File C:\Program Files\Microsoft Visual Studio\2022\Community\VC\Tools\MSVC\14.44.35207\include\tuple

; 352  :     tuple(tuple&&)      = default;

  0004c	8b 09		 mov	 ecx, DWORD PTR [ecx]
; File C:\Program Files\Microsoft Visual Studio\2022\Community\VC\Tools\MSVC\14.44.35207\include\utility

; 478  :         : first(_STD _Tuple_get<_Indices1>(_STD move(_Val1))...),

  0004e	8b 09		 mov	 ecx, DWORD PTR [ecx]
  00050	89 48 10	 mov	 DWORD PTR [eax+16], ecx
; File C:\Program Files\Microsoft Visual Studio\2022\Community\VC\Tools\MSVC\14.44.35207\include\xtree

; 831  :         _Construct_in_place(this->_Ptr->_Left, _Myhead);

  00053	8b 4d 0c	 mov	 ecx, DWORD PTR __Myhead$[ebp]
; File C:\Program Files\Microsoft Visual Studio\2022\Community\VC\Tools\MSVC\14.44.35207\include\utility

; 479  :           second(_STD _Tuple_get<_Indices2>(_STD move(_Val2))...) {}

  00056	c7 40 14 00 00
	00 00		 mov	 DWORD PTR [eax+20], 0
; File C:\Program Files\Microsoft Visual Studio\2022\Community\VC\Tools\MSVC\14.44.35207\include\xtree

; 831  :         _Construct_in_place(this->_Ptr->_Left, _Myhead);

  0005d	8b 46 04	 mov	 eax, DWORD PTR [esi+4]
  00060	89 08		 mov	 DWORD PTR [eax], ecx

; 832  :         _Construct_in_place(this->_Ptr->_Parent, _Myhead);

  00062	8b 46 04	 mov	 eax, DWORD PTR [esi+4]
  00065	89 48 04	 mov	 DWORD PTR [eax+4], ecx

; 833  :         _Construct_in_place(this->_Ptr->_Right, _Myhead);

  00068	8b 46 04	 mov	 eax, DWORD PTR [esi+4]
  0006b	89 48 08	 mov	 DWORD PTR [eax+8], ecx

; 834  :         this->_Ptr->_Color = _Red;

  0006e	8b 46 04	 mov	 eax, DWORD PTR [esi+4]
  00071	c6 40 0c 00	 mov	 BYTE PTR [eax+12], 0

; 835  :         this->_Ptr->_Isnil = false;

  00075	8b 46 04	 mov	 eax, DWORD PTR [esi+4]
  00078	c6 40 0d 00	 mov	 BYTE PTR [eax+13], 0

; 836  :     }

  0007c	8b c6		 mov	 eax, esi
  0007e	8b 4d f4	 mov	 ecx, DWORD PTR __$EHRec$[ebp]
  00081	64 89 0d 00 00
	00 00		 mov	 DWORD PTR fs:0, ecx
  00088	59		 pop	 ecx
  00089	5e		 pop	 esi
  0008a	8b e5		 mov	 esp, ebp
  0008c	5d		 pop	 ebp
  0008d	c2 14 00	 ret	 20			; 00000014H
_TEXT	ENDS
;	COMDAT text$x
text$x	SEGMENT
__unwindfunclet$??$?0ABUpiecewise_construct_t@std@@V?$tuple@ABH@1@V?$tuple@$$V@1@@?$_Tree_temp_node@V?$allocator@U?$_Tree_node@U?$pair@$$CBHPAVCGraphicImage@@@std@@PAX@std@@@std@@@std@@QAE@AAV?$allocator@U?$_Tree_node@U?$pair@$$CBHPAVCGraphicImage@@@std@@PAX@std@@@1@PAU?$_Tree_node@U?$pair@$$CBHPAVCGraphicImage@@@std@@PAX@1@ABUpiecewise_construct_t@1@$$QAV?$tuple@ABH@1@$$QAV?$tuple@$$V@1@@Z$1:
  00000	8b 4d f0	 mov	 ecx, DWORD PTR _this$[ebp]
  00003	e9 00 00 00 00	 jmp	 ??1?$_Alloc_construct_ptr@V?$allocator@U?$_Tree_node@U?$pair@$$CBHPAVCGraphicImage@@@std@@PAX@std@@@std@@@std@@QAE@XZ ; std::_Alloc_construct_ptr<std::allocator<std::_Tree_node<std::pair<int const ,CGraphicImage *>,void *> > >::~_Alloc_construct_ptr<std::allocator<std::_Tree_node<std::pair<int const ,CGraphicImage *>,void *> > >
  00008	cc		 int	 3
  00009	cc		 int	 3
  0000a	cc		 int	 3
  0000b	cc		 int	 3
  0000c	cc		 int	 3
__ehhandler$??$?0ABUpiecewise_construct_t@std@@V?$tuple@ABH@1@V?$tuple@$$V@1@@?$_Tree_temp_node@V?$allocator@U?$_Tree_node@U?$pair@$$CBHPAVCGraphicImage@@@std@@PAX@std@@@std@@@std@@QAE@AAV?$allocator@U?$_Tree_node@U?$pair@$$CBHPAVCGraphicImage@@@std@@PAX@std@@@1@PAU?$_Tree_node@U?$pair@$$CBHPAVCGraphicImage@@@std@@PAX@1@ABUpiecewise_construct_t@1@$$QAV?$tuple@ABH@1@$$QAV?$tuple@$$V@1@@Z:
  0000d	90		 npad	 1
  0000e	90		 npad	 1
  0000f	8b 54 24 08	 mov	 edx, DWORD PTR [esp+8]
  00013	8d 42 0c	 lea	 eax, DWORD PTR [edx+12]
  00016	8b 4a f4	 mov	 ecx, DWORD PTR [edx-12]
  00019	33 c8		 xor	 ecx, eax
  0001b	e8 00 00 00 00	 call	 @__security_check_cookie@4
  00020	b8 00 00 00 00	 mov	 eax, OFFSET __ehfuncinfo$??$?0ABUpiecewise_construct_t@std@@V?$tuple@ABH@1@V?$tuple@$$V@1@@?$_Tree_temp_node@V?$allocator@U?$_Tree_node@U?$pair@$$CBHPAVCGraphicImage@@@std@@PAX@std@@@std@@@std@@QAE@AAV?$allocator@U?$_Tree_node@U?$pair@$$CBHPAVCGraphicImage@@@std@@PAX@std@@@1@PAU?$_Tree_node@U?$pair@$$CBHPAVCGraphicImage@@@std@@PAX@1@ABUpiecewise_construct_t@1@$$QAV?$tuple@ABH@1@$$QAV?$tuple@$$V@1@@Z
  00025	e9 00 00 00 00	 jmp	 ___CxxFrameHandler3
text$x	ENDS
??$?0ABUpiecewise_construct_t@std@@V?$tuple@ABH@1@V?$tuple@$$V@1@@?$_Tree_temp_node@V?$allocator@U?$_Tree_node@U?$pair@$$CBHPAVCGraphicImage@@@std@@PAX@std@@@std@@@std@@QAE@AAV?$allocator@U?$_Tree_node@U?$pair@$$CBHPAVCGraphicImage@@@std@@PAX@std@@@1@PAU?$_Tree_node@U?$pair@$$CBHPAVCGraphicImage@@@std@@PAX@1@ABUpiecewise_construct_t@1@$$QAV?$tuple@ABH@1@$$QAV?$tuple@$$V@1@@Z ENDP ; std::_Tree_temp_node<std::allocator<std::_Tree_node<std::pair<int const ,CGraphicImage *>,void *> > >::_Tree_temp_node<std::allocator<std::_Tree_node<std::pair<int const ,CGraphicImage *>,void *> > ><std::piecewise_construct_t const &,std::tuple<int const &>,std::tuple<> >
; Function compile flags: /Ogtp
; File C:\Program Files\Microsoft Visual Studio\2022\Community\VC\Tools\MSVC\14.44.35207\include\utility
;	COMDAT ??$?0ABQAU?$_Tree_node@U?$pair@$$CBHPAVCGraphicImage@@@std@@PAX@std@@_N$0A@@?$pair@PAU?$_Tree_node@U?$pair@$$CBHPAVCGraphicImage@@@std@@PAX@std@@_N@std@@QAE@ABQAU?$_Tree_node@U?$pair@$$CBHPAVCGraphicImage@@@std@@PAX@1@$$QA_N@Z
_TEXT	SEGMENT
__Val1$ = 8						; size = 4
__Val2$ = 12						; size = 4
??$?0ABQAU?$_Tree_node@U?$pair@$$CBHPAVCGraphicImage@@@std@@PAX@std@@_N$0A@@?$pair@PAU?$_Tree_node@U?$pair@$$CBHPAVCGraphicImage@@@std@@PAX@std@@_N@std@@QAE@ABQAU?$_Tree_node@U?$pair@$$CBHPAVCGraphicImage@@@std@@PAX@1@$$QA_N@Z PROC ; std::pair<std::_Tree_node<std::pair<int const ,CGraphicImage *>,void *> *,bool>::pair<std::_Tree_node<std::pair<int const ,CGraphicImage *>,void *> *,bool><std::_Tree_node<std::pair<int const ,CGraphicImage *>,void *> * const &,bool,0>, COMDAT
; _this$ = ecx

; 274  :         : first(_STD forward<_Other1>(_Val1)), second(_STD forward<_Other2>(_Val2)) {

  00000	55		 push	 ebp
  00001	8b ec		 mov	 ebp, esp
  00003	8b 45 08	 mov	 eax, DWORD PTR __Val1$[ebp]
  00006	8b 00		 mov	 eax, DWORD PTR [eax]
  00008	89 01		 mov	 DWORD PTR [ecx], eax
  0000a	8b 45 0c	 mov	 eax, DWORD PTR __Val2$[ebp]
  0000d	8a 00		 mov	 al, BYTE PTR [eax]
  0000f	88 41 04	 mov	 BYTE PTR [ecx+4], al

; 275  :     }

  00012	8b c1		 mov	 eax, ecx
  00014	5d		 pop	 ebp
  00015	c2 08 00	 ret	 8
??$?0ABQAU?$_Tree_node@U?$pair@$$CBHPAVCGraphicImage@@@std@@PAX@std@@_N$0A@@?$pair@PAU?$_Tree_node@U?$pair@$$CBHPAVCGraphicImage@@@std@@PAX@std@@_N@std@@QAE@ABQAU?$_Tree_node@U?$pair@$$CBHPAVCGraphicImage@@@std@@PAX@1@$$QA_N@Z ENDP ; std::pair<std::_Tree_node<std::pair<int const ,CGraphicImage *>,void *> *,bool>::pair<std::_Tree_node<std::pair<int const ,CGraphicImage *>,void *> *,bool><std::_Tree_node<std::pair<int const ,CGraphicImage *>,void *> * const &,bool,0>
_TEXT	ENDS
; Function compile flags: /Ogtp
; File C:\Program Files\Microsoft Visual Studio\2022\Community\VC\Tools\MSVC\14.44.35207\include\utility
;	COMDAT ??$?0PAU?$_Tree_node@U?$pair@$$CBHPAVCGraphicImage@@@std@@PAX@std@@_N$0A@@?$pair@PAU?$_Tree_node@U?$pair@$$CBHPAVCGraphicImage@@@std@@PAX@std@@_N@std@@QAE@$$QAPAU?$_Tree_node@U?$pair@$$CBHPAVCGraphicImage@@@std@@PAX@1@$$QA_N@Z
_TEXT	SEGMENT
__Val1$ = 8						; size = 4
__Val2$ = 12						; size = 4
??$?0PAU?$_Tree_node@U?$pair@$$CBHPAVCGraphicImage@@@std@@PAX@std@@_N$0A@@?$pair@PAU?$_Tree_node@U?$pair@$$CBHPAVCGraphicImage@@@std@@PAX@std@@_N@std@@QAE@$$QAPAU?$_Tree_node@U?$pair@$$CBHPAVCGraphicImage@@@std@@PAX@1@$$QA_N@Z PROC ; std::pair<std::_Tree_node<std::pair<int const ,CGraphicImage *>,void *> *,bool>::pair<std::_Tree_node<std::pair<int const ,CGraphicImage *>,void *> *,bool><std::_Tree_node<std::pair<int const ,CGraphicImage *>,void *> *,bool,0>, COMDAT
; _this$ = ecx

; 274  :         : first(_STD forward<_Other1>(_Val1)), second(_STD forward<_Other2>(_Val2)) {

  00000	55		 push	 ebp
  00001	8b ec		 mov	 ebp, esp
  00003	8b 45 08	 mov	 eax, DWORD PTR __Val1$[ebp]
  00006	8b 00		 mov	 eax, DWORD PTR [eax]
  00008	89 01		 mov	 DWORD PTR [ecx], eax
  0000a	8b 45 0c	 mov	 eax, DWORD PTR __Val2$[ebp]
  0000d	8a 00		 mov	 al, BYTE PTR [eax]
  0000f	88 41 04	 mov	 BYTE PTR [ecx+4], al

; 275  :     }

  00012	8b c1		 mov	 eax, ecx
  00014	5d		 pop	 ebp
  00015	c2 08 00	 ret	 8
??$?0PAU?$_Tree_node@U?$pair@$$CBHPAVCGraphicImage@@@std@@PAX@std@@_N$0A@@?$pair@PAU?$_Tree_node@U?$pair@$$CBHPAVCGraphicImage@@@std@@PAX@std@@_N@std@@QAE@$$QAPAU?$_Tree_node@U?$pair@$$CBHPAVCGraphicImage@@@std@@PAX@1@$$QA_N@Z ENDP ; std::pair<std::_Tree_node<std::pair<int const ,CGraphicImage *>,void *> *,bool>::pair<std::_Tree_node<std::pair<int const ,CGraphicImage *>,void *> *,bool><std::_Tree_node<std::pair<int const ,CGraphicImage *>,void *> *,bool,0>
_TEXT	ENDS
; Function compile flags: /Ogtp
; File C:\Program Files\Microsoft Visual Studio\2022\Community\VC\Tools\MSVC\14.44.35207\include\type_traits
;	COMDAT ??$addressof@V?$_Tree_val@U?$_Tree_simple_types@U?$pair@$$CBHPAVCGraphicImage@@@std@@@std@@@std@@@std@@YAPAV?$_Tree_val@U?$_Tree_simple_types@U?$pair@$$CBHPAVCGraphicImage@@@std@@@std@@@0@AAV10@@Z
_TEXT	SEGMENT
??$addressof@V?$_Tree_val@U?$_Tree_simple_types@U?$pair@$$CBHPAVCGraphicImage@@@std@@@std@@@std@@@std@@YAPAV?$_Tree_val@U?$_Tree_simple_types@U?$pair@$$CBHPAVCGraphicImage@@@std@@@std@@@0@AAV10@@Z PROC ; std::addressof<std::_Tree_val<std::_Tree_simple_types<std::pair<int const ,CGraphicImage *> > > >, COMDAT
; __Val$ = ecx

; 1525 :     return __builtin_addressof(_Val);

  00000	8b c1		 mov	 eax, ecx

; 1526 : }

  00002	c3		 ret	 0
??$addressof@V?$_Tree_val@U?$_Tree_simple_types@U?$pair@$$CBHPAVCGraphicImage@@@std@@@std@@@std@@@std@@YAPAV?$_Tree_val@U?$_Tree_simple_types@U?$pair@$$CBHPAVCGraphicImage@@@std@@@std@@@0@AAV10@@Z ENDP ; std::addressof<std::_Tree_val<std::_Tree_simple_types<std::pair<int const ,CGraphicImage *> > > >
_TEXT	ENDS
; Function compile flags: /Ogtp
; File C:\Program Files\Microsoft Visual Studio\2022\Community\VC\Tools\MSVC\14.44.35207\include\xmemory
; File C:\Program Files\Microsoft Visual Studio\2022\Community\VC\Tools\MSVC\14.44.35207\include\xtree
; File C:\Program Files\Microsoft Visual Studio\2022\Community\VC\Tools\MSVC\14.44.35207\include\xmemory
; File C:\Program Files\Microsoft Visual Studio\2022\Community\VC\Tools\MSVC\14.44.35207\include\xtree
; File C:\Program Files\Microsoft Visual Studio\2022\Community\VC\Tools\MSVC\14.44.35207\include\xmemory
;	COMDAT ??$?0ABU?$less@H@std@@U_Zero_then_variadic_args_t@1@@?$_Compressed_pair@U?$less@H@std@@V?$_Compressed_pair@V?$allocator@U?$_Tree_node@U?$pair@$$CBHPAVCGraphicImage@@@std@@PAX@std@@@std@@V?$_Tree_val@U?$_Tree_simple_types@U?$pair@$$CBHPAVCGraphicImage@@@std@@@std@@@2@$00@2@$00@std@@QAE@U_One_then_variadic_args_t@1@ABU?$less@H@1@$$QAU_Zero_then_variadic_args_t@1@@Z
_TEXT	SEGMENT
___formal$ = 8						; size = 1
__Val1$dead$ = 12					; size = 4
_<_Val2_0>$dead$ = 16					; size = 4
??$?0ABU?$less@H@std@@U_Zero_then_variadic_args_t@1@@?$_Compressed_pair@U?$less@H@std@@V?$_Compressed_pair@V?$allocator@U?$_Tree_node@U?$pair@$$CBHPAVCGraphicImage@@@std@@PAX@std@@@std@@V?$_Tree_val@U?$_Tree_simple_types@U?$pair@$$CBHPAVCGraphicImage@@@std@@@std@@@2@$00@2@$00@std@@QAE@U_One_then_variadic_args_t@1@ABU?$less@H@1@$$QAU_Zero_then_variadic_args_t@1@@Z PROC ; std::_Compressed_pair<std::less<int>,std::_Compressed_pair<std::allocator<std::_Tree_node<std::pair<int const ,CGraphicImage *>,void *> >,std::_Tree_val<std::_Tree_simple_types<std::pair<int const ,CGraphicImage *> > >,1>,1>::_Compressed_pair<std::less<int>,std::_Compressed_pair<std::allocator<std::_Tree_node<std::pair<int const ,CGraphicImage *>,void *> >,std::_Tree_val<std::_Tree_simple_types<std::pair<int const ,CGraphicImage *> > >,1>,1><std::less<int> const &,std::_Zero_then_variadic_args_t>, COMDAT
; _this$dead$ = ecx
; File C:\Program Files\Microsoft Visual Studio\2022\Community\VC\Tools\MSVC\14.44.35207\include\xtree

; 450  :     _Tree_val() noexcept : _Myhead(), _Mysize(0) {}

  00000	c7 05 00 00 00
	00 00 00 00 00	 mov	 DWORD PTR ?m_kMap_iEmotionIndex_pkIconImage@@3V?$map@HPAVCGraphicImage@@U?$less@H@std@@V?$allocator@U?$pair@$$CBHPAVCGraphicImage@@@std@@@3@@std@@A, 0
; File C:\Program Files\Microsoft Visual Studio\2022\Community\VC\Tools\MSVC\14.44.35207\include\xmemory

; 1536 :         : _Ty1(_STD forward<_Other1>(_Val1)), _Myval2(_STD forward<_Other2>(_Val2)...) {}

  0000a	b8 00 00 00 00	 mov	 eax, OFFSET ?m_kMap_iEmotionIndex_pkIconImage@@3V?$map@HPAVCGraphicImage@@U?$less@H@std@@V?$allocator@U?$pair@$$CBHPAVCGraphicImage@@@std@@@3@@std@@A ; m_kMap_iEmotionIndex_pkIconImage
; File C:\Program Files\Microsoft Visual Studio\2022\Community\VC\Tools\MSVC\14.44.35207\include\xtree

; 450  :     _Tree_val() noexcept : _Myhead(), _Mysize(0) {}

  0000f	c7 05 04 00 00
	00 00 00 00 00	 mov	 DWORD PTR ?m_kMap_iEmotionIndex_pkIconImage@@3V?$map@HPAVCGraphicImage@@U?$less@H@std@@V?$allocator@U?$pair@$$CBHPAVCGraphicImage@@@std@@@3@@std@@A+4, 0
; File C:\Program Files\Microsoft Visual Studio\2022\Community\VC\Tools\MSVC\14.44.35207\include\xmemory

; 1536 :         : _Ty1(_STD forward<_Other1>(_Val1)), _Myval2(_STD forward<_Other2>(_Val2)...) {}

  00019	c2 0c 00	 ret	 12			; 0000000cH
??$?0ABU?$less@H@std@@U_Zero_then_variadic_args_t@1@@?$_Compressed_pair@U?$less@H@std@@V?$_Compressed_pair@V?$allocator@U?$_Tree_node@U?$pair@$$CBHPAVCGraphicImage@@@std@@PAX@std@@@std@@V?$_Tree_val@U?$_Tree_simple_types@U?$pair@$$CBHPAVCGraphicImage@@@std@@@std@@@2@$00@2@$00@std@@QAE@U_One_then_variadic_args_t@1@ABU?$less@H@1@$$QAU_Zero_then_variadic_args_t@1@@Z ENDP ; std::_Compressed_pair<std::less<int>,std::_Compressed_pair<std::allocator<std::_Tree_node<std::pair<int const ,CGraphicImage *>,void *> >,std::_Tree_val<std::_Tree_simple_types<std::pair<int const ,CGraphicImage *> > >,1>,1>::_Compressed_pair<std::less<int>,std::_Compressed_pair<std::allocator<std::_Tree_node<std::pair<int const ,CGraphicImage *>,void *> >,std::_Tree_val<std::_Tree_simple_types<std::pair<int const ,CGraphicImage *> > >,1>,1><std::less<int> const &,std::_Zero_then_variadic_args_t>
_TEXT	ENDS
; Function compile flags: /Ogtp
; File C:\Program Files\Microsoft Visual Studio\2022\Community\VC\Tools\MSVC\14.44.35207\include\xmemory
; File C:\Program Files\Microsoft Visual Studio\2022\Community\VC\Tools\MSVC\14.44.35207\include\utility
; File C:\Program Files\Microsoft Visual Studio\2022\Community\VC\Tools\MSVC\14.44.35207\include\xmemory
;	COMDAT ?_Release@?$_Alloc_construct_ptr@V?$allocator@U?$_Tree_node@U?$pair@$$CBHPAVCGraphicImage@@@std@@PAX@std@@@std@@@std@@QAEPAU?$_Tree_node@U?$pair@$$CBHPAVCGraphicImage@@@std@@PAX@2@XZ
_TEXT	SEGMENT
?_Release@?$_Alloc_construct_ptr@V?$allocator@U?$_Tree_node@U?$pair@$$CBHPAVCGraphicImage@@@std@@PAX@std@@@std@@@std@@QAEPAU?$_Tree_node@U?$pair@$$CBHPAVCGraphicImage@@@std@@PAX@2@XZ PROC ; std::_Alloc_construct_ptr<std::allocator<std::_Tree_node<std::pair<int const ,CGraphicImage *>,void *> > >::_Release, COMDAT
; _this$ = ecx
; File C:\Program Files\Microsoft Visual Studio\2022\Community\VC\Tools\MSVC\14.44.35207\include\utility

; 773  :     _Ty _Old_val = static_cast<_Ty&&>(_Val);

  00000	8b 41 04	 mov	 eax, DWORD PTR [ecx+4]

; 774  :     _Val         = static_cast<_Other&&>(_New_val);

  00003	c7 41 04 00 00
	00 00		 mov	 DWORD PTR [ecx+4], 0
; File C:\Program Files\Microsoft Visual Studio\2022\Community\VC\Tools\MSVC\14.44.35207\include\xmemory

; 1164 :     }

  0000a	c3		 ret	 0
?_Release@?$_Alloc_construct_ptr@V?$allocator@U?$_Tree_node@U?$pair@$$CBHPAVCGraphicImage@@@std@@PAX@std@@@std@@@std@@QAEPAU?$_Tree_node@U?$pair@$$CBHPAVCGraphicImage@@@std@@PAX@2@XZ ENDP ; std::_Alloc_construct_ptr<std::allocator<std::_Tree_node<std::pair<int const ,CGraphicImage *>,void *> > >::_Release
_TEXT	ENDS
; Function compile flags: /Ogtp
; File C:\Program Files\Microsoft Visual Studio\2022\Community\VC\Tools\MSVC\14.44.35207\include\xtree
; File C:\Program Files\Microsoft Visual Studio\2022\Community\VC\Tools\MSVC\14.44.35207\include\xmemory
; File C:\Program Files\Microsoft Visual Studio\2022\Community\VC\Tools\MSVC\14.44.35207\include\xtree
;	COMDAT ??1?$_Tree_temp_node@V?$allocator@U?$_Tree_node@U?$pair@$$CBHPAVCGraphicImage@@@std@@PAX@std@@@std@@@std@@QAE@XZ
_TEXT	SEGMENT
??1?$_Tree_temp_node@V?$allocator@U?$_Tree_node@U?$pair@$$CBHPAVCGraphicImage@@@std@@PAX@std@@@std@@@std@@QAE@XZ PROC ; std::_Tree_temp_node<std::allocator<std::_Tree_node<std::pair<int const ,CGraphicImage *>,void *> > >::~_Tree_temp_node<std::allocator<std::_Tree_node<std::pair<int const ,CGraphicImage *>,void *> > >, COMDAT
; _this$ = ecx
; File C:\Program Files\Microsoft Visual Studio\2022\Community\VC\Tools\MSVC\14.44.35207\include\xmemory

; 1172 :         if (_Ptr) {

  00000	8b 41 04	 mov	 eax, DWORD PTR [ecx+4]
  00003	85 c0		 test	 eax, eax
  00005	74 0b		 je	 SHORT $LN17@Tree_temp_

; 289  :         ::operator delete(_Ptr, _Bytes);

  00007	6a 18		 push	 24			; 00000018H
  00009	50		 push	 eax
  0000a	e8 00 00 00 00	 call	 ??3@YAXPAXI@Z		; operator delete
  0000f	83 c4 08	 add	 esp, 8
$LN17@Tree_temp_:
; File C:\Program Files\Microsoft Visual Studio\2022\Community\VC\Tools\MSVC\14.44.35207\include\xtree

; 848  :     }

  00012	c3		 ret	 0
??1?$_Tree_temp_node@V?$allocator@U?$_Tree_node@U?$pair@$$CBHPAVCGraphicImage@@@std@@PAX@std@@@std@@@std@@QAE@XZ ENDP ; std::_Tree_temp_node<std::allocator<std::_Tree_node<std::pair<int const ,CGraphicImage *>,void *> > >::~_Tree_temp_node<std::allocator<std::_Tree_node<std::pair<int const ,CGraphicImage *>,void *> > >
_TEXT	ENDS
; Function compile flags: /Ogtp
; File C:\Program Files\Microsoft Visual Studio\2022\Community\VC\Tools\MSVC\14.44.35207\include\xmemory
;	COMDAT ?_Get_first@?$_Compressed_pair@V?$allocator@U?$_Tree_node@U?$pair@$$CBHPAVCGraphicImage@@@std@@PAX@std@@@std@@V?$_Tree_val@U?$_Tree_simple_types@U?$pair@$$CBHPAVCGraphicImage@@@std@@@std@@@2@$00@std@@QAEAAV?$allocator@U?$_Tree_node@U?$pair@$$CBHPAVCGraphicImage@@@std@@PAX@std@@@2@XZ
_TEXT	SEGMENT
?_Get_first@?$_Compressed_pair@V?$allocator@U?$_Tree_node@U?$pair@$$CBHPAVCGraphicImage@@@std@@PAX@std@@@std@@V?$_Tree_val@U?$_Tree_simple_types@U?$pair@$$CBHPAVCGraphicImage@@@std@@@std@@@2@$00@std@@QAEAAV?$allocator@U?$_Tree_node@U?$pair@$$CBHPAVCGraphicImage@@@std@@PAX@std@@@2@XZ PROC ; std::_Compressed_pair<std::allocator<std::_Tree_node<std::pair<int const ,CGraphicImage *>,void *> >,std::_Tree_val<std::_Tree_simple_types<std::pair<int const ,CGraphicImage *> > >,1>::_Get_first, COMDAT
; _this$ = ecx

; 1539 :         return *this;

  00000	8b c1		 mov	 eax, ecx

; 1540 :     }

  00002	c3		 ret	 0
?_Get_first@?$_Compressed_pair@V?$allocator@U?$_Tree_node@U?$pair@$$CBHPAVCGraphicImage@@@std@@PAX@std@@@std@@V?$_Tree_val@U?$_Tree_simple_types@U?$pair@$$CBHPAVCGraphicImage@@@std@@@std@@@2@$00@std@@QAEAAV?$allocator@U?$_Tree_node@U?$pair@$$CBHPAVCGraphicImage@@@std@@PAX@std@@@2@XZ ENDP ; std::_Compressed_pair<std::allocator<std::_Tree_node<std::pair<int const ,CGraphicImage *>,void *> >,std::_Tree_val<std::_Tree_simple_types<std::pair<int const ,CGraphicImage *> > >,1>::_Get_first
_TEXT	ENDS
; Function compile flags: /Ogtp
; File C:\Program Files\Microsoft Visual Studio\2022\Community\VC\Tools\MSVC\14.44.35207\include\xtree
;	COMDAT ?_Insert_node@?$_Tree_val@U?$_Tree_simple_types@U?$pair@$$CBHPAVCGraphicImage@@@std@@@std@@@std@@QAEPAU?$_Tree_node@U?$pair@$$CBHPAVCGraphicImage@@@std@@PAX@2@U?$_Tree_id@PAU?$_Tree_node@U?$pair@$$CBHPAVCGraphicImage@@@std@@PAX@std@@@2@QAU32@@Z
_TEXT	SEGMENT
__Head$1$ = -4						; size = 4
__Loc$ = 8						; size = 8
__Newnode$ = 16						; size = 4
?_Insert_node@?$_Tree_val@U?$_Tree_simple_types@U?$pair@$$CBHPAVCGraphicImage@@@std@@@std@@@std@@QAEPAU?$_Tree_node@U?$pair@$$CBHPAVCGraphicImage@@@std@@PAX@2@U?$_Tree_id@PAU?$_Tree_node@U?$pair@$$CBHPAVCGraphicImage@@@std@@PAX@std@@@2@QAU32@@Z PROC ; std::_Tree_val<std::_Tree_simple_types<std::pair<int const ,CGraphicImage *> > >::_Insert_node, COMDAT
; _this$ = ecx

; 669  :     _Nodeptr _Insert_node(const _Tree_id<_Nodeptr> _Loc, const _Nodeptr _Newnode) noexcept {

  00000	55		 push	 ebp
  00001	8b ec		 mov	 ebp, esp
  00003	51		 push	 ecx

; 670  :         ++_Mysize;
; 671  :         const auto _Head  = _Myhead;
; 672  :         _Newnode->_Parent = _Loc._Parent;

  00004	8b 55 08	 mov	 edx, DWORD PTR __Loc$[ebp]
  00007	53		 push	 ebx
  00008	8b d9		 mov	 ebx, ecx
  0000a	57		 push	 edi
  0000b	8b 7d 10	 mov	 edi, DWORD PTR __Newnode$[ebp]
  0000e	8b 03		 mov	 eax, DWORD PTR [ebx]
  00010	ff 43 04	 inc	 DWORD PTR [ebx+4]
  00013	89 45 fc	 mov	 DWORD PTR __Head$1$[ebp], eax
  00016	89 57 04	 mov	 DWORD PTR [edi+4], edx

; 673  :         if (_Loc._Parent == _Head) { // first node in tree, just set head values

  00019	3b d0		 cmp	 edx, eax
  0001b	75 16		 jne	 SHORT $LN5@Insert_nod

; 674  :             _Head->_Left     = _Newnode;

  0001d	89 38		 mov	 DWORD PTR [eax], edi

; 675  :             _Head->_Parent   = _Newnode;

  0001f	89 78 04	 mov	 DWORD PTR [eax+4], edi

; 676  :             _Head->_Right    = _Newnode;

  00022	89 78 08	 mov	 DWORD PTR [eax+8], edi

; 735  :         return _Newnode;
; 736  :     }

  00025	8b c7		 mov	 eax, edi
  00027	c6 47 0c 01	 mov	 BYTE PTR [edi+12], 1
  0002b	5f		 pop	 edi
  0002c	5b		 pop	 ebx
  0002d	8b e5		 mov	 esp, ebp
  0002f	5d		 pop	 ebp
  00030	c2 0c 00	 ret	 12			; 0000000cH
$LN5@Insert_nod:

; 677  :             _Newnode->_Color = _Black; // the root is black
; 678  :             return _Newnode;
; 679  :         }
; 680  : 
; 681  :         _STL_INTERNAL_CHECK(_Loc._Child != _Tree_child::_Unused);
; 682  :         if (_Loc._Child == _Tree_child::_Right) { // add to right of _Loc._Parent

  00033	83 7d 0c 00	 cmp	 DWORD PTR __Loc$[ebp+4], 0
  00037	75 0d		 jne	 SHORT $LN6@Insert_nod

; 683  :             _STL_INTERNAL_CHECK(_Loc._Parent->_Right->_Isnil);
; 684  :             _Loc._Parent->_Right = _Newnode;

  00039	89 7a 08	 mov	 DWORD PTR [edx+8], edi

; 685  :             if (_Loc._Parent == _Head->_Right) { // remember rightmost node

  0003c	3b 50 08	 cmp	 edx, DWORD PTR [eax+8]
  0003f	75 0d		 jne	 SHORT $LN9@Insert_nod

; 686  :                 _Head->_Right = _Newnode;

  00041	89 78 08	 mov	 DWORD PTR [eax+8], edi

; 687  :             }
; 688  :         } else { // add to left of _Loc._Parent

  00044	eb 08		 jmp	 SHORT $LN9@Insert_nod
$LN6@Insert_nod:

; 689  :             _STL_INTERNAL_CHECK(_Loc._Parent->_Left->_Isnil);
; 690  :             _Loc._Parent->_Left = _Newnode;

  00046	89 3a		 mov	 DWORD PTR [edx], edi

; 691  :             if (_Loc._Parent == _Head->_Left) { // remember leftmost node

  00048	3b 10		 cmp	 edx, DWORD PTR [eax]
  0004a	75 02		 jne	 SHORT $LN9@Insert_nod

; 692  :                 _Head->_Left = _Newnode;

  0004c	89 38		 mov	 DWORD PTR [eax], edi
$LN9@Insert_nod:

; 693  :             }
; 694  :         }
; 695  : 
; 696  :         for (_Nodeptr _Pnode = _Newnode; _Pnode->_Parent->_Color == _Red;) {

  0004e	8b 4f 04	 mov	 ecx, DWORD PTR [edi+4]
  00051	8b c7		 mov	 eax, edi
  00053	80 79 0c 00	 cmp	 BYTE PTR [ecx+12], 0
  00057	0f 85 7d 01 00
	00		 jne	 $LN3@Insert_nod
  0005d	56		 push	 esi
  0005e	66 90		 npad	 2
$LL4@Insert_nod:

; 697  :             if (_Pnode->_Parent == _Pnode->_Parent->_Parent->_Left) { // fixup red-red in left subtree

  00060	8b 50 04	 mov	 edx, DWORD PTR [eax+4]
  00063	8b 72 04	 mov	 esi, DWORD PTR [edx+4]
  00066	8b 0e		 mov	 ecx, DWORD PTR [esi]
  00068	3b d1		 cmp	 edx, ecx
  0006a	0f 85 aa 00 00
	00		 jne	 $LN10@Insert_nod

; 698  :                 const auto _Parent_sibling = _Pnode->_Parent->_Parent->_Right;

  00070	8b 4e 08	 mov	 ecx, DWORD PTR [esi+8]

; 699  :                 if (_Parent_sibling->_Color == _Red) { // parent's sibling has two red children, blacken both

  00073	80 79 0c 00	 cmp	 BYTE PTR [ecx+12], 0
  00077	0f 84 a3 00 00
	00		 je	 $LN82@Insert_nod

; 700  :                     _Pnode->_Parent->_Color          = _Black;
; 701  :                     _Parent_sibling->_Color          = _Black;
; 702  :                     _Pnode->_Parent->_Parent->_Color = _Red;
; 703  :                     _Pnode                           = _Pnode->_Parent->_Parent;
; 704  :                 } else { // parent's sibling has red and black children
; 705  :                     if (_Pnode == _Pnode->_Parent->_Right) { // rotate right child to left

  0007d	8b 72 08	 mov	 esi, DWORD PTR [edx+8]
  00080	3b c6		 cmp	 eax, esi
  00082	75 37		 jne	 SHORT $LN57@Insert_nod

; 485  :         _Wherenode->_Right = _Pnode->_Left;

  00084	8b 0e		 mov	 ecx, DWORD PTR [esi]

; 706  :                         _Pnode = _Pnode->_Parent;

  00086	8b c2		 mov	 eax, edx

; 485  :         _Wherenode->_Right = _Pnode->_Left;

  00088	89 4a 08	 mov	 DWORD PTR [edx+8], ecx

; 486  : 
; 487  :         if (!_Pnode->_Left->_Isnil) {

  0008b	8b 0e		 mov	 ecx, DWORD PTR [esi]
  0008d	80 79 0d 00	 cmp	 BYTE PTR [ecx+13], 0
  00091	75 03		 jne	 SHORT $LN21@Insert_nod

; 488  :             _Pnode->_Left->_Parent = _Wherenode;

  00093	89 41 04	 mov	 DWORD PTR [ecx+4], eax
$LN21@Insert_nod:

; 489  :         }
; 490  : 
; 491  :         _Pnode->_Parent = _Wherenode->_Parent;

  00096	8b 4a 04	 mov	 ecx, DWORD PTR [edx+4]
  00099	89 4e 04	 mov	 DWORD PTR [esi+4], ecx

; 492  : 
; 493  :         if (_Wherenode == _Myhead->_Parent) {

  0009c	8b 0b		 mov	 ecx, DWORD PTR [ebx]
  0009e	3b 41 04	 cmp	 eax, DWORD PTR [ecx+4]
  000a1	75 05		 jne	 SHORT $LN22@Insert_nod

; 494  :             _Myhead->_Parent = _Pnode;

  000a3	89 71 04	 mov	 DWORD PTR [ecx+4], esi
  000a6	eb 0e		 jmp	 SHORT $LN25@Insert_nod
$LN22@Insert_nod:

; 495  :         } else if (_Wherenode == _Wherenode->_Parent->_Left) {

  000a8	8b 4a 04	 mov	 ecx, DWORD PTR [edx+4]
  000ab	3b 01		 cmp	 eax, DWORD PTR [ecx]
  000ad	75 04		 jne	 SHORT $LN24@Insert_nod

; 496  :             _Wherenode->_Parent->_Left = _Pnode;

  000af	89 31		 mov	 DWORD PTR [ecx], esi

; 497  :         } else {

  000b1	eb 03		 jmp	 SHORT $LN25@Insert_nod
$LN24@Insert_nod:

; 498  :             _Wherenode->_Parent->_Right = _Pnode;

  000b3	89 71 08	 mov	 DWORD PTR [ecx+8], esi
$LN25@Insert_nod:

; 499  :         }
; 500  : 
; 501  :         _Pnode->_Left       = _Wherenode;

  000b6	89 06		 mov	 DWORD PTR [esi], eax

; 502  :         _Wherenode->_Parent = _Pnode;

  000b8	89 70 04	 mov	 DWORD PTR [eax+4], esi
$LN57@Insert_nod:

; 707  :                         _Lrotate(_Pnode);
; 708  :                     }
; 709  : 
; 710  :                     _Pnode->_Parent->_Color          = _Black; // propagate red up

  000bb	8b 48 04	 mov	 ecx, DWORD PTR [eax+4]
  000be	c6 41 0c 01	 mov	 BYTE PTR [ecx+12], 1

; 711  :                     _Pnode->_Parent->_Parent->_Color = _Red;

  000c2	8b 48 04	 mov	 ecx, DWORD PTR [eax+4]
  000c5	8b 49 04	 mov	 ecx, DWORD PTR [ecx+4]
  000c8	c6 41 0c 00	 mov	 BYTE PTR [ecx+12], 0

; 712  :                     _Rrotate(_Pnode->_Parent->_Parent);

  000cc	8b 48 04	 mov	 ecx, DWORD PTR [eax+4]
  000cf	8b 51 04	 mov	 edx, DWORD PTR [ecx+4]

; 506  :         _Nodeptr _Pnode   = _Wherenode->_Left;

  000d2	8b 32		 mov	 esi, DWORD PTR [edx]

; 507  :         _Wherenode->_Left = _Pnode->_Right;

  000d4	8b 4e 08	 mov	 ecx, DWORD PTR [esi+8]
  000d7	89 0a		 mov	 DWORD PTR [edx], ecx

; 508  : 
; 509  :         if (!_Pnode->_Right->_Isnil) {

  000d9	8b 4e 08	 mov	 ecx, DWORD PTR [esi+8]
  000dc	80 79 0d 00	 cmp	 BYTE PTR [ecx+13], 0
  000e0	75 03		 jne	 SHORT $LN29@Insert_nod

; 510  :             _Pnode->_Right->_Parent = _Wherenode;

  000e2	89 51 04	 mov	 DWORD PTR [ecx+4], edx
$LN29@Insert_nod:

; 511  :         }
; 512  : 
; 513  :         _Pnode->_Parent = _Wherenode->_Parent;

  000e5	8b 4a 04	 mov	 ecx, DWORD PTR [edx+4]
  000e8	89 4e 04	 mov	 DWORD PTR [esi+4], ecx

; 514  : 
; 515  :         if (_Wherenode == _Myhead->_Parent) {

  000eb	8b 0b		 mov	 ecx, DWORD PTR [ebx]
  000ed	3b 51 04	 cmp	 edx, DWORD PTR [ecx+4]
  000f0	75 0b		 jne	 SHORT $LN30@Insert_nod

; 516  :             _Myhead->_Parent = _Pnode;

  000f2	89 71 04	 mov	 DWORD PTR [ecx+4], esi

; 521  :         }
; 522  : 
; 523  :         _Pnode->_Right      = _Wherenode;

  000f5	89 56 08	 mov	 DWORD PTR [esi+8], edx

; 713  :                 }
; 714  :             } else { // fixup red-red in right subtree

  000f8	e9 cc 00 00 00	 jmp	 $LN81@Insert_nod
$LN30@Insert_nod:

; 517  :         } else if (_Wherenode == _Wherenode->_Parent->_Right) {

  000fd	8b 4a 04	 mov	 ecx, DWORD PTR [edx+4]
  00100	3b 51 08	 cmp	 edx, DWORD PTR [ecx+8]
  00103	75 0b		 jne	 SHORT $LN32@Insert_nod

; 518  :             _Wherenode->_Parent->_Right = _Pnode;

  00105	89 71 08	 mov	 DWORD PTR [ecx+8], esi

; 521  :         }
; 522  : 
; 523  :         _Pnode->_Right      = _Wherenode;

  00108	89 56 08	 mov	 DWORD PTR [esi+8], edx

; 713  :                 }
; 714  :             } else { // fixup red-red in right subtree

  0010b	e9 b9 00 00 00	 jmp	 $LN81@Insert_nod
$LN32@Insert_nod:

; 520  :             _Wherenode->_Parent->_Left = _Pnode;

  00110	89 31		 mov	 DWORD PTR [ecx], esi

; 521  :         }
; 522  : 
; 523  :         _Pnode->_Right      = _Wherenode;

  00112	89 56 08	 mov	 DWORD PTR [esi+8], edx

; 713  :                 }
; 714  :             } else { // fixup red-red in right subtree

  00115	e9 af 00 00 00	 jmp	 $LN81@Insert_nod
$LN10@Insert_nod:

; 715  :                 const auto _Parent_sibling = _Pnode->_Parent->_Parent->_Left;
; 716  :                 if (_Parent_sibling->_Color == _Red) { // parent's sibling has two red children, blacken both

  0011a	80 79 0c 00	 cmp	 BYTE PTR [ecx+12], 0
  0011e	75 1d		 jne	 SHORT $LN15@Insert_nod
$LN82@Insert_nod:

; 693  :             }
; 694  :         }
; 695  : 
; 696  :         for (_Nodeptr _Pnode = _Newnode; _Pnode->_Parent->_Color == _Red;) {

  00120	c6 42 0c 01	 mov	 BYTE PTR [edx+12], 1
  00124	c6 41 0c 01	 mov	 BYTE PTR [ecx+12], 1
  00128	8b 48 04	 mov	 ecx, DWORD PTR [eax+4]
  0012b	8b 49 04	 mov	 ecx, DWORD PTR [ecx+4]
  0012e	c6 41 0c 00	 mov	 BYTE PTR [ecx+12], 0
  00132	8b 48 04	 mov	 ecx, DWORD PTR [eax+4]
  00135	8b 41 04	 mov	 eax, DWORD PTR [ecx+4]
  00138	e9 8f 00 00 00	 jmp	 $LN2@Insert_nod
$LN15@Insert_nod:

; 717  :                     _Pnode->_Parent->_Color          = _Black;
; 718  :                     _Parent_sibling->_Color          = _Black;
; 719  :                     _Pnode->_Parent->_Parent->_Color = _Red;
; 720  :                     _Pnode                           = _Pnode->_Parent->_Parent;
; 721  :                 } else { // parent's sibling has red and black children
; 722  :                     if (_Pnode == _Pnode->_Parent->_Left) { // rotate left child to right

  0013d	8b 32		 mov	 esi, DWORD PTR [edx]
  0013f	3b c6		 cmp	 eax, esi
  00141	75 3a		 jne	 SHORT $LN42@Insert_nod

; 507  :         _Wherenode->_Left = _Pnode->_Right;

  00143	8b 4e 08	 mov	 ecx, DWORD PTR [esi+8]

; 723  :                         _Pnode = _Pnode->_Parent;

  00146	8b c2		 mov	 eax, edx

; 507  :         _Wherenode->_Left = _Pnode->_Right;

  00148	89 08		 mov	 DWORD PTR [eax], ecx

; 508  : 
; 509  :         if (!_Pnode->_Right->_Isnil) {

  0014a	8b 4e 08	 mov	 ecx, DWORD PTR [esi+8]
  0014d	80 79 0d 00	 cmp	 BYTE PTR [ecx+13], 0
  00151	75 03		 jne	 SHORT $LN37@Insert_nod

; 510  :             _Pnode->_Right->_Parent = _Wherenode;

  00153	89 41 04	 mov	 DWORD PTR [ecx+4], eax
$LN37@Insert_nod:

; 511  :         }
; 512  : 
; 513  :         _Pnode->_Parent = _Wherenode->_Parent;

  00156	8b 4a 04	 mov	 ecx, DWORD PTR [edx+4]
  00159	89 4e 04	 mov	 DWORD PTR [esi+4], ecx

; 514  : 
; 515  :         if (_Wherenode == _Myhead->_Parent) {

  0015c	8b 0b		 mov	 ecx, DWORD PTR [ebx]
  0015e	3b 41 04	 cmp	 eax, DWORD PTR [ecx+4]
  00161	75 05		 jne	 SHORT $LN38@Insert_nod

; 516  :             _Myhead->_Parent = _Pnode;

  00163	89 71 04	 mov	 DWORD PTR [ecx+4], esi
  00166	eb 0f		 jmp	 SHORT $LN41@Insert_nod
$LN38@Insert_nod:

; 517  :         } else if (_Wherenode == _Wherenode->_Parent->_Right) {

  00168	8b 4a 04	 mov	 ecx, DWORD PTR [edx+4]
  0016b	3b 41 08	 cmp	 eax, DWORD PTR [ecx+8]
  0016e	75 05		 jne	 SHORT $LN40@Insert_nod

; 518  :             _Wherenode->_Parent->_Right = _Pnode;

  00170	89 71 08	 mov	 DWORD PTR [ecx+8], esi

; 519  :         } else {

  00173	eb 02		 jmp	 SHORT $LN41@Insert_nod
$LN40@Insert_nod:

; 520  :             _Wherenode->_Parent->_Left = _Pnode;

  00175	89 31		 mov	 DWORD PTR [ecx], esi
$LN41@Insert_nod:

; 521  :         }
; 522  : 
; 523  :         _Pnode->_Right      = _Wherenode;

  00177	89 46 08	 mov	 DWORD PTR [esi+8], eax

; 524  :         _Wherenode->_Parent = _Pnode;

  0017a	89 70 04	 mov	 DWORD PTR [eax+4], esi
$LN42@Insert_nod:

; 724  :                         _Rrotate(_Pnode);
; 725  :                     }
; 726  : 
; 727  :                     _Pnode->_Parent->_Color          = _Black; // propagate red up

  0017d	8b 48 04	 mov	 ecx, DWORD PTR [eax+4]
  00180	c6 41 0c 01	 mov	 BYTE PTR [ecx+12], 1

; 728  :                     _Pnode->_Parent->_Parent->_Color = _Red;

  00184	8b 48 04	 mov	 ecx, DWORD PTR [eax+4]
  00187	8b 49 04	 mov	 ecx, DWORD PTR [ecx+4]
  0018a	c6 41 0c 00	 mov	 BYTE PTR [ecx+12], 0

; 729  :                     _Lrotate(_Pnode->_Parent->_Parent);

  0018e	8b 48 04	 mov	 ecx, DWORD PTR [eax+4]
  00191	8b 51 04	 mov	 edx, DWORD PTR [ecx+4]

; 484  :         _Nodeptr _Pnode    = _Wherenode->_Right;

  00194	8b 72 08	 mov	 esi, DWORD PTR [edx+8]

; 485  :         _Wherenode->_Right = _Pnode->_Left;

  00197	8b 0e		 mov	 ecx, DWORD PTR [esi]
  00199	89 4a 08	 mov	 DWORD PTR [edx+8], ecx

; 486  : 
; 487  :         if (!_Pnode->_Left->_Isnil) {

  0019c	8b 0e		 mov	 ecx, DWORD PTR [esi]
  0019e	80 79 0d 00	 cmp	 BYTE PTR [ecx+13], 0
  001a2	75 03		 jne	 SHORT $LN45@Insert_nod

; 488  :             _Pnode->_Left->_Parent = _Wherenode;

  001a4	89 51 04	 mov	 DWORD PTR [ecx+4], edx
$LN45@Insert_nod:

; 489  :         }
; 490  : 
; 491  :         _Pnode->_Parent = _Wherenode->_Parent;

  001a7	8b 4a 04	 mov	 ecx, DWORD PTR [edx+4]
  001aa	89 4e 04	 mov	 DWORD PTR [esi+4], ecx

; 492  : 
; 493  :         if (_Wherenode == _Myhead->_Parent) {

  001ad	8b 0b		 mov	 ecx, DWORD PTR [ebx]
  001af	3b 51 04	 cmp	 edx, DWORD PTR [ecx+4]
  001b2	75 05		 jne	 SHORT $LN46@Insert_nod

; 494  :             _Myhead->_Parent = _Pnode;

  001b4	89 71 04	 mov	 DWORD PTR [ecx+4], esi
  001b7	eb 0e		 jmp	 SHORT $LN49@Insert_nod
$LN46@Insert_nod:

; 495  :         } else if (_Wherenode == _Wherenode->_Parent->_Left) {

  001b9	8b 4a 04	 mov	 ecx, DWORD PTR [edx+4]
  001bc	3b 11		 cmp	 edx, DWORD PTR [ecx]
  001be	75 04		 jne	 SHORT $LN48@Insert_nod

; 496  :             _Wherenode->_Parent->_Left = _Pnode;

  001c0	89 31		 mov	 DWORD PTR [ecx], esi

; 497  :         } else {

  001c2	eb 03		 jmp	 SHORT $LN49@Insert_nod
$LN48@Insert_nod:

; 498  :             _Wherenode->_Parent->_Right = _Pnode;

  001c4	89 71 08	 mov	 DWORD PTR [ecx+8], esi
$LN49@Insert_nod:

; 499  :         }
; 500  : 
; 501  :         _Pnode->_Left       = _Wherenode;

  001c7	89 16		 mov	 DWORD PTR [esi], edx
$LN81@Insert_nod:

; 693  :             }
; 694  :         }
; 695  : 
; 696  :         for (_Nodeptr _Pnode = _Newnode; _Pnode->_Parent->_Color == _Red;) {

  001c9	89 72 04	 mov	 DWORD PTR [edx+4], esi
$LN2@Insert_nod:
  001cc	8b 48 04	 mov	 ecx, DWORD PTR [eax+4]
  001cf	80 79 0c 00	 cmp	 BYTE PTR [ecx+12], 0
  001d3	0f 84 87 fe ff
	ff		 je	 $LL4@Insert_nod
  001d9	5e		 pop	 esi
$LN3@Insert_nod:

; 730  :                 }
; 731  :             }
; 732  :         }
; 733  : 
; 734  :         _Head->_Parent->_Color = _Black; // root is always black

  001da	8b 45 fc	 mov	 eax, DWORD PTR __Head$1$[ebp]
  001dd	8b 40 04	 mov	 eax, DWORD PTR [eax+4]
  001e0	c6 40 0c 01	 mov	 BYTE PTR [eax+12], 1

; 735  :         return _Newnode;
; 736  :     }

  001e4	8b c7		 mov	 eax, edi
  001e6	5f		 pop	 edi
  001e7	5b		 pop	 ebx
  001e8	8b e5		 mov	 esp, ebp
  001ea	5d		 pop	 ebp
  001eb	c2 0c 00	 ret	 12			; 0000000cH
?_Insert_node@?$_Tree_val@U?$_Tree_simple_types@U?$pair@$$CBHPAVCGraphicImage@@@std@@@std@@@std@@QAEPAU?$_Tree_node@U?$pair@$$CBHPAVCGraphicImage@@@std@@PAX@2@U?$_Tree_id@PAU?$_Tree_node@U?$pair@$$CBHPAVCGraphicImage@@@std@@PAX@std@@@2@QAU32@@Z ENDP ; std::_Tree_val<std::_Tree_simple_types<std::pair<int const ,CGraphicImage *> > >::_Insert_node
_TEXT	ENDS
; Function compile flags: /Ogtp
; File C:\Program Files\Microsoft Visual Studio\2022\Community\VC\Tools\MSVC\14.44.35207\include\xtree
;	COMDAT ?_Get_scary@?$_Tree@V?$_Tmap_traits@HPAVCGraphicImage@@U?$less@H@std@@V?$allocator@U?$pair@$$CBHPAVCGraphicImage@@@std@@@3@$0A@@std@@@std@@IBEPBV?$_Tree_val@U?$_Tree_simple_types@U?$pair@$$CBHPAVCGraphicImage@@@std@@@std@@@2@XZ
_TEXT	SEGMENT
?_Get_scary@?$_Tree@V?$_Tmap_traits@HPAVCGraphicImage@@U?$less@H@std@@V?$allocator@U?$pair@$$CBHPAVCGraphicImage@@@std@@@3@$0A@@std@@@std@@IBEPBV?$_Tree_val@U?$_Tree_simple_types@U?$pair@$$CBHPAVCGraphicImage@@@std@@@std@@@2@XZ PROC ; std::_Tree<std::_Tmap_traits<int,CGraphicImage *,std::less<int>,std::allocator<std::pair<int const ,CGraphicImage *> >,0> >::_Get_scary, COMDAT
; _this$dead$ = ecx

; 1987 :         return _STD addressof(_Mypair._Myval2._Myval2);

  00000	b8 00 00 00 00	 mov	 eax, OFFSET ?m_kMap_iEmotionIndex_pkIconImage@@3V?$map@HPAVCGraphicImage@@U?$less@H@std@@V?$allocator@U?$pair@$$CBHPAVCGraphicImage@@@std@@@3@@std@@A ; m_kMap_iEmotionIndex_pkIconImage

; 1988 :     }

  00005	c3		 ret	 0
?_Get_scary@?$_Tree@V?$_Tmap_traits@HPAVCGraphicImage@@U?$less@H@std@@V?$allocator@U?$pair@$$CBHPAVCGraphicImage@@@std@@@3@$0A@@std@@@std@@IBEPBV?$_Tree_val@U?$_Tree_simple_types@U?$pair@$$CBHPAVCGraphicImage@@@std@@@std@@@2@XZ ENDP ; std::_Tree<std::_Tmap_traits<int,CGraphicImage *,std::less<int>,std::allocator<std::pair<int const ,CGraphicImage *> >,0> >::_Get_scary
_TEXT	ENDS
; Function compile flags: /Ogtp
; File C:\Program Files\Microsoft Visual Studio\2022\Community\VC\Tools\MSVC\14.44.35207\include\xtree
; File C:\Program Files\Microsoft Visual Studio\2022\Community\VC\Tools\MSVC\14.44.35207\include\xmemory
; File C:\Program Files\Microsoft Visual Studio\2022\Community\VC\Tools\MSVC\14.44.35207\include\xtree
;	COMDAT ?_Alloc_sentinel_and_proxy@?$_Tree@V?$_Tmap_traits@HPAVCGraphicImage@@U?$less@H@std@@V?$allocator@U?$pair@$$CBHPAVCGraphicImage@@@std@@@3@$0A@@std@@@std@@IAEXXZ
_TEXT	SEGMENT
?_Alloc_sentinel_and_proxy@?$_Tree@V?$_Tmap_traits@HPAVCGraphicImage@@U?$less@H@std@@V?$allocator@U?$pair@$$CBHPAVCGraphicImage@@@std@@@3@$0A@@std@@@std@@IAEXXZ PROC ; std::_Tree<std::_Tmap_traits<int,CGraphicImage *,std::less<int>,std::allocator<std::pair<int const ,CGraphicImage *> >,0> >::_Alloc_sentinel_and_proxy, COMDAT
; _this$dead$ = ecx
; File C:\Program Files\Microsoft Visual Studio\2022\Community\VC\Tools\MSVC\14.44.35207\include\xmemory

; 136  :         return ::operator new(_Bytes);

  00000	6a 18		 push	 24			; 00000018H
  00002	e8 00 00 00 00	 call	 ??2@YAPAXI@Z		; operator new
  00007	83 c4 04	 add	 esp, 4
; File C:\Program Files\Microsoft Visual Studio\2022\Community\VC\Tools\MSVC\14.44.35207\include\xtree

; 346  :         _Construct_in_place(_Pnode->_Left, _Pnode);

  0000a	89 00		 mov	 DWORD PTR [eax], eax

; 347  :         _Construct_in_place(_Pnode->_Parent, _Pnode);

  0000c	89 40 04	 mov	 DWORD PTR [eax+4], eax

; 348  :         _Construct_in_place(_Pnode->_Right, _Pnode);

  0000f	89 40 08	 mov	 DWORD PTR [eax+8], eax

; 349  :         _Pnode->_Color = _Black;

  00012	66 c7 40 0c 01
	01		 mov	 WORD PTR [eax+12], 257	; 00000101H

; 1954 :         const auto _Scary = _Get_scary();
; 1955 :         auto&& _Alproxy   = _GET_PROXY_ALLOCATOR(_Alnode, _Getal());
; 1956 :         _Container_proxy_ptr<_Alnode> _Proxy(_Alproxy, *_Scary);
; 1957 :         _Scary->_Myhead = _Node::_Buyheadnode(_Getal());

  00018	a3 00 00 00 00	 mov	 DWORD PTR ?m_kMap_iEmotionIndex_pkIconImage@@3V?$map@HPAVCGraphicImage@@U?$less@H@std@@V?$allocator@U?$pair@$$CBHPAVCGraphicImage@@@std@@@3@@std@@A, eax

; 1958 :         _Proxy._Release();
; 1959 :     }

  0001d	c3		 ret	 0
?_Alloc_sentinel_and_proxy@?$_Tree@V?$_Tmap_traits@HPAVCGraphicImage@@U?$less@H@std@@V?$allocator@U?$pair@$$CBHPAVCGraphicImage@@@std@@@3@$0A@@std@@@std@@IAEXXZ ENDP ; std::_Tree<std::_Tmap_traits<int,CGraphicImage *,std::less<int>,std::allocator<std::pair<int const ,CGraphicImage *> >,0> >::_Alloc_sentinel_and_proxy
_TEXT	ENDS
; Function compile flags: /Ogtp
; File C:\Program Files\Microsoft Visual Studio\2022\Community\VC\Tools\MSVC\14.44.35207\include\xtree
;	COMDAT ?_Check_grow_by_1@?$_Tree@V?$_Tmap_traits@HPAVCGraphicImage@@U?$less@H@std@@V?$allocator@U?$pair@$$CBHPAVCGraphicImage@@@std@@@3@$0A@@std@@@std@@IAEXXZ
_TEXT	SEGMENT
?_Check_grow_by_1@?$_Tree@V?$_Tmap_traits@HPAVCGraphicImage@@U?$less@H@std@@V?$allocator@U?$pair@$$CBHPAVCGraphicImage@@@std@@@3@$0A@@std@@@std@@IAEXXZ PROC ; std::_Tree<std::_Tmap_traits<int,CGraphicImage *,std::less<int>,std::allocator<std::pair<int const ,CGraphicImage *> >,0> >::_Check_grow_by_1, COMDAT
; _this$dead$ = ecx

; 1648 :         if (max_size() == _Get_scary()->_Mysize) {

  00000	81 3d 04 00 00
	00 aa aa aa 0a	 cmp	 DWORD PTR ?m_kMap_iEmotionIndex_pkIconImage@@3V?$map@HPAVCGraphicImage@@U?$less@H@std@@V?$allocator@U?$pair@$$CBHPAVCGraphicImage@@@std@@@3@@std@@A+4, 178956970 ; 0aaaaaaaH
  0000a	0f 84 00 00 00
	00		 je	 ?_Throw_tree_length_error@std@@YAXXZ ; std::_Throw_tree_length_error

; 1649 :             _Throw_tree_length_error();
; 1650 :         }
; 1651 :     }

  00010	c3		 ret	 0
?_Check_grow_by_1@?$_Tree@V?$_Tmap_traits@HPAVCGraphicImage@@U?$less@H@std@@V?$allocator@U?$pair@$$CBHPAVCGraphicImage@@@std@@@3@$0A@@std@@@std@@IAEXXZ ENDP ; std::_Tree<std::_Tmap_traits<int,CGraphicImage *,std::less<int>,std::allocator<std::pair<int const ,CGraphicImage *> >,0> >::_Check_grow_by_1
_TEXT	ENDS
; Function compile flags: /Ogtp
; File C:\Program Files\Microsoft Visual Studio\2022\Community\VC\Tools\MSVC\14.44.35207\include\xmemory
;	COMDAT ??1?$_Tree_temp_node_alloc@V?$allocator@U?$_Tree_node@U?$pair@$$CBHPAVCGraphicImage@@@std@@PAX@std@@@std@@@std@@QAE@XZ
_TEXT	SEGMENT
??1?$_Tree_temp_node_alloc@V?$allocator@U?$_Tree_node@U?$pair@$$CBHPAVCGraphicImage@@@std@@PAX@std@@@std@@@std@@QAE@XZ PROC ; std::_Tree_temp_node_alloc<std::allocator<std::_Tree_node<std::pair<int const ,CGraphicImage *>,void *> > >::~_Tree_temp_node_alloc<std::allocator<std::_Tree_node<std::pair<int const ,CGraphicImage *>,void *> > >, COMDAT
; _this$ = ecx

; 1172 :         if (_Ptr) {

  00000	8b 41 04	 mov	 eax, DWORD PTR [ecx+4]
  00003	85 c0		 test	 eax, eax
  00005	74 0b		 je	 SHORT $LN11@Tree_temp_

; 289  :         ::operator delete(_Ptr, _Bytes);

  00007	6a 18		 push	 24			; 00000018H
  00009	50		 push	 eax
  0000a	e8 00 00 00 00	 call	 ??3@YAXPAXI@Z		; operator delete
  0000f	83 c4 08	 add	 esp, 8
$LN11@Tree_temp_:
  00012	c3		 ret	 0
??1?$_Tree_temp_node_alloc@V?$allocator@U?$_Tree_node@U?$pair@$$CBHPAVCGraphicImage@@@std@@PAX@std@@@std@@@std@@QAE@XZ ENDP ; std::_Tree_temp_node_alloc<std::allocator<std::_Tree_node<std::pair<int const ,CGraphicImage *>,void *> > >::~_Tree_temp_node_alloc<std::allocator<std::_Tree_node<std::pair<int const ,CGraphicImage *>,void *> > >
_TEXT	ENDS
; Function compile flags: /Ogtp
; File C:\Program Files\Microsoft Visual Studio\2022\Community\VC\Tools\MSVC\14.44.35207\include\xmemory
; File C:\Program Files\Microsoft Visual Studio\2022\Community\VC\Tools\MSVC\14.44.35207\include\xtree
; File C:\Program Files\Microsoft Visual Studio\2022\Community\VC\Tools\MSVC\14.44.35207\include\xmemory
; File C:\Program Files\Microsoft Visual Studio\2022\Community\VC\Tools\MSVC\14.44.35207\include\xtree
; File C:\Program Files\Microsoft Visual Studio\2022\Community\VC\Tools\MSVC\14.44.35207\include\xmemory
;	COMDAT ??$?0$$V@?$_Compressed_pair@V?$allocator@U?$_Tree_node@U?$pair@$$CBHPAVCGraphicImage@@@std@@PAX@std@@@std@@V?$_Tree_val@U?$_Tree_simple_types@U?$pair@$$CBHPAVCGraphicImage@@@std@@@std@@@2@$00@std@@QAE@U_Zero_then_variadic_args_t@1@@Z
_TEXT	SEGMENT
___formal$ = 8						; size = 1
??$?0$$V@?$_Compressed_pair@V?$allocator@U?$_Tree_node@U?$pair@$$CBHPAVCGraphicImage@@@std@@PAX@std@@@std@@V?$_Tree_val@U?$_Tree_simple_types@U?$pair@$$CBHPAVCGraphicImage@@@std@@@std@@@2@$00@std@@QAE@U_Zero_then_variadic_args_t@1@@Z PROC ; std::_Compressed_pair<std::allocator<std::_Tree_node<std::pair<int const ,CGraphicImage *>,void *> >,std::_Tree_val<std::_Tree_simple_types<std::pair<int const ,CGraphicImage *> > >,1>::_Compressed_pair<std::allocator<std::_Tree_node<std::pair<int const ,CGraphicImage *>,void *> >,std::_Tree_val<std::_Tree_simple_types<std::pair<int const ,CGraphicImage *> > >,1><>, COMDAT
; _this$dead$ = ecx
; File C:\Program Files\Microsoft Visual Studio\2022\Community\VC\Tools\MSVC\14.44.35207\include\xtree

; 450  :     _Tree_val() noexcept : _Myhead(), _Mysize(0) {}

  00000	c7 05 00 00 00
	00 00 00 00 00	 mov	 DWORD PTR ?m_kMap_iEmotionIndex_pkIconImage@@3V?$map@HPAVCGraphicImage@@U?$less@H@std@@V?$allocator@U?$pair@$$CBHPAVCGraphicImage@@@std@@@3@@std@@A, 0
; File C:\Program Files\Microsoft Visual Studio\2022\Community\VC\Tools\MSVC\14.44.35207\include\xmemory

; 1531 :         : _Ty1(), _Myval2(_STD forward<_Other2>(_Val2)...) {}

  0000a	b8 00 00 00 00	 mov	 eax, OFFSET ?m_kMap_iEmotionIndex_pkIconImage@@3V?$map@HPAVCGraphicImage@@U?$less@H@std@@V?$allocator@U?$pair@$$CBHPAVCGraphicImage@@@std@@@3@@std@@A ; m_kMap_iEmotionIndex_pkIconImage
; File C:\Program Files\Microsoft Visual Studio\2022\Community\VC\Tools\MSVC\14.44.35207\include\xtree

; 450  :     _Tree_val() noexcept : _Myhead(), _Mysize(0) {}

  0000f	c7 05 04 00 00
	00 00 00 00 00	 mov	 DWORD PTR ?m_kMap_iEmotionIndex_pkIconImage@@3V?$map@HPAVCGraphicImage@@U?$less@H@std@@V?$allocator@U?$pair@$$CBHPAVCGraphicImage@@@std@@@3@@std@@A+4, 0
; File C:\Program Files\Microsoft Visual Studio\2022\Community\VC\Tools\MSVC\14.44.35207\include\xmemory

; 1531 :         : _Ty1(), _Myval2(_STD forward<_Other2>(_Val2)...) {}

  00019	c2 04 00	 ret	 4
??$?0$$V@?$_Compressed_pair@V?$allocator@U?$_Tree_node@U?$pair@$$CBHPAVCGraphicImage@@@std@@PAX@std@@@std@@V?$_Tree_val@U?$_Tree_simple_types@U?$pair@$$CBHPAVCGraphicImage@@@std@@@std@@@2@$00@std@@QAE@U_Zero_then_variadic_args_t@1@@Z ENDP ; std::_Compressed_pair<std::allocator<std::_Tree_node<std::pair<int const ,CGraphicImage *>,void *> >,std::_Tree_val<std::_Tree_simple_types<std::pair<int const ,CGraphicImage *> > >,1>::_Compressed_pair<std::allocator<std::_Tree_node<std::pair<int const ,CGraphicImage *>,void *> >,std::_Tree_val<std::_Tree_simple_types<std::pair<int const ,CGraphicImage *> > >,1><>
_TEXT	ENDS
; Function compile flags: /Ogtp
; File C:\Program Files\Microsoft Visual Studio\2022\Community\VC\Tools\MSVC\14.44.35207\include\xtree
; File C:\Program Files\Microsoft Visual Studio\2022\Community\VC\Tools\MSVC\14.44.35207\include\xmemory
; File C:\Program Files\Microsoft Visual Studio\2022\Community\VC\Tools\MSVC\14.44.35207\include\xtree
; File C:\Program Files\Microsoft Visual Studio\2022\Community\VC\Tools\MSVC\14.44.35207\include\xmemory
; File C:\Program Files\Microsoft Visual Studio\2022\Community\VC\Tools\MSVC\14.44.35207\include\utility
; File C:\Program Files\Microsoft Visual Studio\2022\Community\VC\Tools\MSVC\14.44.35207\include\xmemory
; File C:\Program Files\Microsoft Visual Studio\2022\Community\VC\Tools\MSVC\14.44.35207\include\utility
; File C:\Program Files\Microsoft Visual Studio\2022\Community\VC\Tools\MSVC\14.44.35207\include\xtree
;	COMDAT ??$?0U?$pair@HPAVCGraphicImage@@@std@@@?$_Tree_temp_node@V?$allocator@U?$_Tree_node@U?$pair@$$CBHPAVCGraphicImage@@@std@@PAX@std@@@std@@@std@@QAE@AAV?$allocator@U?$_Tree_node@U?$pair@$$CBHPAVCGraphicImage@@@std@@PAX@std@@@1@PAU?$_Tree_node@U?$pair@$$CBHPAVCGraphicImage@@@std@@PAX@1@$$QAU?$pair@HPAVCGraphicImage@@@1@@Z
_TEXT	SEGMENT
_this$ = -16						; size = 4
__$EHRec$ = -12						; size = 12
__Al_$ = 8						; size = 4
__Myhead$ = 12						; size = 4
_<_Vals_0>$ = 16					; size = 4
??$?0U?$pair@HPAVCGraphicImage@@@std@@@?$_Tree_temp_node@V?$allocator@U?$_Tree_node@U?$pair@$$CBHPAVCGraphicImage@@@std@@PAX@std@@@std@@@std@@QAE@AAV?$allocator@U?$_Tree_node@U?$pair@$$CBHPAVCGraphicImage@@@std@@PAX@std@@@1@PAU?$_Tree_node@U?$pair@$$CBHPAVCGraphicImage@@@std@@PAX@1@$$QAU?$pair@HPAVCGraphicImage@@@1@@Z PROC ; std::_Tree_temp_node<std::allocator<std::_Tree_node<std::pair<int const ,CGraphicImage *>,void *> > >::_Tree_temp_node<std::allocator<std::_Tree_node<std::pair<int const ,CGraphicImage *>,void *> > ><std::pair<int,CGraphicImage *> >, COMDAT
; _this$ = ecx

; 829  :         : _Tree_temp_node_alloc<_Alnode>(_Al_) {

  00000	55		 push	 ebp
  00001	8b ec		 mov	 ebp, esp
  00003	6a ff		 push	 -1
  00005	68 00 00 00 00	 push	 __ehhandler$??$?0U?$pair@HPAVCGraphicImage@@@std@@@?$_Tree_temp_node@V?$allocator@U?$_Tree_node@U?$pair@$$CBHPAVCGraphicImage@@@std@@PAX@std@@@std@@@std@@QAE@AAV?$allocator@U?$_Tree_node@U?$pair@$$CBHPAVCGraphicImage@@@std@@PAX@std@@@1@PAU?$_Tree_node@U?$pair@$$CBHPAVCGraphicImage@@@std@@PAX@1@$$QAU?$pair@HPAVCGraphicImage@@@1@@Z
  0000a	64 a1 00 00 00
	00		 mov	 eax, DWORD PTR fs:0
  00010	50		 push	 eax
  00011	51		 push	 ecx
  00012	56		 push	 esi
  00013	a1 00 00 00 00	 mov	 eax, DWORD PTR ___security_cookie
  00018	33 c5		 xor	 eax, ebp
  0001a	50		 push	 eax
  0001b	8d 45 f4	 lea	 eax, DWORD PTR __$EHRec$[ebp]
  0001e	64 a3 00 00 00
	00		 mov	 DWORD PTR fs:0, eax
  00024	8b f1		 mov	 esi, ecx
  00026	89 75 f0	 mov	 DWORD PTR _this$[ebp], esi
; File C:\Program Files\Microsoft Visual Studio\2022\Community\VC\Tools\MSVC\14.44.35207\include\xmemory

; 1160 :     _CONSTEXPR20 explicit _Alloc_construct_ptr(_Alloc& _Al_) : _Al(_Al_), _Ptr(nullptr) {}

  00029	8b 45 08	 mov	 eax, DWORD PTR __Al_$[ebp]
  0002c	89 06		 mov	 DWORD PTR [esi], eax
; File C:\Program Files\Microsoft Visual Studio\2022\Community\VC\Tools\MSVC\14.44.35207\include\xtree

; 808  :     explicit _Tree_temp_node_alloc(_Alnode& _Al_) : _Alloc_construct_ptr<_Alnode>(_Al_) {

  0002e	c7 45 fc 00 00
	00 00		 mov	 DWORD PTR __$EHRec$[ebp+8], 0
; File C:\Program Files\Microsoft Visual Studio\2022\Community\VC\Tools\MSVC\14.44.35207\include\xmemory

; 136  :         return ::operator new(_Bytes);

  00035	6a 18		 push	 24			; 00000018H

; 1167 :         _Ptr = nullptr; // if allocate throws, prevents double-free

  00037	c7 46 04 00 00
	00 00		 mov	 DWORD PTR [esi+4], 0

; 136  :         return ::operator new(_Bytes);

  0003e	e8 00 00 00 00	 call	 ??2@YAPAXI@Z		; operator new
; File C:\Program Files\Microsoft Visual Studio\2022\Community\VC\Tools\MSVC\14.44.35207\include\utility

; 303  :         : first(_STD forward<_Other1>(_Right.first)), second(_STD forward<_Other2>(_Right.second)) {}

  00043	8b 55 10	 mov	 edx, DWORD PTR _<_Vals_0>$[ebp]
; File C:\Program Files\Microsoft Visual Studio\2022\Community\VC\Tools\MSVC\14.44.35207\include\xmemory

; 136  :         return ::operator new(_Bytes);

  00046	83 c4 04	 add	 esp, 4

; 1168 :         _Ptr = _Al.allocate(1);

  00049	89 46 04	 mov	 DWORD PTR [esi+4], eax
; File C:\Program Files\Microsoft Visual Studio\2022\Community\VC\Tools\MSVC\14.44.35207\include\utility

; 303  :         : first(_STD forward<_Other1>(_Right.first)), second(_STD forward<_Other2>(_Right.second)) {}

  0004c	8b 0a		 mov	 ecx, DWORD PTR [edx]
  0004e	89 48 10	 mov	 DWORD PTR [eax+16], ecx
  00051	8b 4a 04	 mov	 ecx, DWORD PTR [edx+4]
  00054	89 48 14	 mov	 DWORD PTR [eax+20], ecx
; File C:\Program Files\Microsoft Visual Studio\2022\Community\VC\Tools\MSVC\14.44.35207\include\xtree

; 831  :         _Construct_in_place(this->_Ptr->_Left, _Myhead);

  00057	8b 46 04	 mov	 eax, DWORD PTR [esi+4]
  0005a	8b 4d 0c	 mov	 ecx, DWORD PTR __Myhead$[ebp]
  0005d	89 08		 mov	 DWORD PTR [eax], ecx

; 832  :         _Construct_in_place(this->_Ptr->_Parent, _Myhead);

  0005f	8b 46 04	 mov	 eax, DWORD PTR [esi+4]
  00062	89 48 04	 mov	 DWORD PTR [eax+4], ecx

; 833  :         _Construct_in_place(this->_Ptr->_Right, _Myhead);

  00065	8b 46 04	 mov	 eax, DWORD PTR [esi+4]
  00068	89 48 08	 mov	 DWORD PTR [eax+8], ecx

; 834  :         this->_Ptr->_Color = _Red;

  0006b	8b 46 04	 mov	 eax, DWORD PTR [esi+4]
  0006e	c6 40 0c 00	 mov	 BYTE PTR [eax+12], 0

; 835  :         this->_Ptr->_Isnil = false;

  00072	8b 46 04	 mov	 eax, DWORD PTR [esi+4]
  00075	c6 40 0d 00	 mov	 BYTE PTR [eax+13], 0

; 836  :     }

  00079	8b c6		 mov	 eax, esi
  0007b	8b 4d f4	 mov	 ecx, DWORD PTR __$EHRec$[ebp]
  0007e	64 89 0d 00 00
	00 00		 mov	 DWORD PTR fs:0, ecx
  00085	59		 pop	 ecx
  00086	5e		 pop	 esi
  00087	8b e5		 mov	 esp, ebp
  00089	5d		 pop	 ebp
  0008a	c2 0c 00	 ret	 12			; 0000000cH
_TEXT	ENDS
;	COMDAT text$x
text$x	SEGMENT
__unwindfunclet$??$?0U?$pair@HPAVCGraphicImage@@@std@@@?$_Tree_temp_node@V?$allocator@U?$_Tree_node@U?$pair@$$CBHPAVCGraphicImage@@@std@@PAX@std@@@std@@@std@@QAE@AAV?$allocator@U?$_Tree_node@U?$pair@$$CBHPAVCGraphicImage@@@std@@PAX@std@@@1@PAU?$_Tree_node@U?$pair@$$CBHPAVCGraphicImage@@@std@@PAX@1@$$QAU?$pair@HPAVCGraphicImage@@@1@@Z$1:
  00000	8b 4d f0	 mov	 ecx, DWORD PTR _this$[ebp]
  00003	e9 00 00 00 00	 jmp	 ??1?$_Alloc_construct_ptr@V?$allocator@U?$_Tree_node@U?$pair@$$CBHPAVCGraphicImage@@@std@@PAX@std@@@std@@@std@@QAE@XZ ; std::_Alloc_construct_ptr<std::allocator<std::_Tree_node<std::pair<int const ,CGraphicImage *>,void *> > >::~_Alloc_construct_ptr<std::allocator<std::_Tree_node<std::pair<int const ,CGraphicImage *>,void *> > >
  00008	cc		 int	 3
  00009	cc		 int	 3
  0000a	cc		 int	 3
  0000b	cc		 int	 3
  0000c	cc		 int	 3
__ehhandler$??$?0U?$pair@HPAVCGraphicImage@@@std@@@?$_Tree_temp_node@V?$allocator@U?$_Tree_node@U?$pair@$$CBHPAVCGraphicImage@@@std@@PAX@std@@@std@@@std@@QAE@AAV?$allocator@U?$_Tree_node@U?$pair@$$CBHPAVCGraphicImage@@@std@@PAX@std@@@1@PAU?$_Tree_node@U?$pair@$$CBHPAVCGraphicImage@@@std@@PAX@1@$$QAU?$pair@HPAVCGraphicImage@@@1@@Z:
  0000d	90		 npad	 1
  0000e	90		 npad	 1
  0000f	8b 54 24 08	 mov	 edx, DWORD PTR [esp+8]
  00013	8d 42 0c	 lea	 eax, DWORD PTR [edx+12]
  00016	8b 4a f4	 mov	 ecx, DWORD PTR [edx-12]
  00019	33 c8		 xor	 ecx, eax
  0001b	e8 00 00 00 00	 call	 @__security_check_cookie@4
  00020	b8 00 00 00 00	 mov	 eax, OFFSET __ehfuncinfo$??$?0U?$pair@HPAVCGraphicImage@@@std@@@?$_Tree_temp_node@V?$allocator@U?$_Tree_node@U?$pair@$$CBHPAVCGraphicImage@@@std@@PAX@std@@@std@@@std@@QAE@AAV?$allocator@U?$_Tree_node@U?$pair@$$CBHPAVCGraphicImage@@@std@@PAX@std@@@1@PAU?$_Tree_node@U?$pair@$$CBHPAVCGraphicImage@@@std@@PAX@1@$$QAU?$pair@HPAVCGraphicImage@@@1@@Z
  00025	e9 00 00 00 00	 jmp	 ___CxxFrameHandler3
text$x	ENDS
??$?0U?$pair@HPAVCGraphicImage@@@std@@@?$_Tree_temp_node@V?$allocator@U?$_Tree_node@U?$pair@$$CBHPAVCGraphicImage@@@std@@PAX@std@@@std@@@std@@QAE@AAV?$allocator@U?$_Tree_node@U?$pair@$$CBHPAVCGraphicImage@@@std@@PAX@std@@@1@PAU?$_Tree_node@U?$pair@$$CBHPAVCGraphicImage@@@std@@PAX@1@$$QAU?$pair@HPAVCGraphicImage@@@1@@Z ENDP ; std::_Tree_temp_node<std::allocator<std::_Tree_node<std::pair<int const ,CGraphicImage *>,void *> > >::_Tree_temp_node<std::allocator<std::_Tree_node<std::pair<int const ,CGraphicImage *>,void *> > ><std::pair<int,CGraphicImage *> >
; Function compile flags: /Ogtp
; File C:\Program Files\Microsoft Visual Studio\2022\Community\VC\Tools\MSVC\14.44.35207\include\utility
;	COMDAT ??$?0AAPAU?$_Tree_node@U?$pair@$$CBHPAVCGraphicImage@@@std@@PAX@std@@_N$0A@@?$pair@PAU?$_Tree_node@U?$pair@$$CBHPAVCGraphicImage@@@std@@PAX@std@@_N@std@@QAE@AAPAU?$_Tree_node@U?$pair@$$CBHPAVCGraphicImage@@@std@@PAX@1@$$QA_N@Z
_TEXT	SEGMENT
__Val1$ = 8						; size = 4
__Val2$ = 12						; size = 4
??$?0AAPAU?$_Tree_node@U?$pair@$$CBHPAVCGraphicImage@@@std@@PAX@std@@_N$0A@@?$pair@PAU?$_Tree_node@U?$pair@$$CBHPAVCGraphicImage@@@std@@PAX@std@@_N@std@@QAE@AAPAU?$_Tree_node@U?$pair@$$CBHPAVCGraphicImage@@@std@@PAX@1@$$QA_N@Z PROC ; std::pair<std::_Tree_node<std::pair<int const ,CGraphicImage *>,void *> *,bool>::pair<std::_Tree_node<std::pair<int const ,CGraphicImage *>,void *> *,bool><std::_Tree_node<std::pair<int const ,CGraphicImage *>,void *> * &,bool,0>, COMDAT
; _this$ = ecx

; 274  :         : first(_STD forward<_Other1>(_Val1)), second(_STD forward<_Other2>(_Val2)) {

  00000	55		 push	 ebp
  00001	8b ec		 mov	 ebp, esp
  00003	8b 45 08	 mov	 eax, DWORD PTR __Val1$[ebp]
  00006	8b 00		 mov	 eax, DWORD PTR [eax]
  00008	89 01		 mov	 DWORD PTR [ecx], eax
  0000a	8b 45 0c	 mov	 eax, DWORD PTR __Val2$[ebp]
  0000d	8a 00		 mov	 al, BYTE PTR [eax]
  0000f	88 41 04	 mov	 BYTE PTR [ecx+4], al

; 275  :     }

  00012	8b c1		 mov	 eax, ecx
  00014	5d		 pop	 ebp
  00015	c2 08 00	 ret	 8
??$?0AAPAU?$_Tree_node@U?$pair@$$CBHPAVCGraphicImage@@@std@@PAX@std@@_N$0A@@?$pair@PAU?$_Tree_node@U?$pair@$$CBHPAVCGraphicImage@@@std@@PAX@std@@_N@std@@QAE@AAPAU?$_Tree_node@U?$pair@$$CBHPAVCGraphicImage@@@std@@PAX@1@$$QA_N@Z ENDP ; std::pair<std::_Tree_node<std::pair<int const ,CGraphicImage *>,void *> *,bool>::pair<std::_Tree_node<std::pair<int const ,CGraphicImage *>,void *> *,bool><std::_Tree_node<std::pair<int const ,CGraphicImage *>,void *> * &,bool,0>
_TEXT	ENDS
; Function compile flags: /Ogtp
; File C:\Program Files\Microsoft Visual Studio\2022\Community\VC\Tools\MSVC\14.44.35207\include\type_traits
;	COMDAT ??$forward@V?$_Tree_iterator@V?$_Tree_val@U?$_Tree_simple_types@U?$pair@$$CBHPAVCGraphicImage@@@std@@@std@@@std@@@std@@@std@@YA$$QAV?$_Tree_iterator@V?$_Tree_val@U?$_Tree_simple_types@U?$pair@$$CBHPAVCGraphicImage@@@std@@@std@@@std@@@0@AAV10@@Z
_TEXT	SEGMENT
??$forward@V?$_Tree_iterator@V?$_Tree_val@U?$_Tree_simple_types@U?$pair@$$CBHPAVCGraphicImage@@@std@@@std@@@std@@@std@@@std@@YA$$QAV?$_Tree_iterator@V?$_Tree_val@U?$_Tree_simple_types@U?$pair@$$CBHPAVCGraphicImage@@@std@@@std@@@std@@@0@AAV10@@Z PROC ; std::forward<std::_Tree_iterator<std::_Tree_val<std::_Tree_simple_types<std::pair<int const ,CGraphicImage *> > > > >, COMDAT
; __Arg$ = ecx

; 1502 :     return static_cast<_Ty&&>(_Arg);

  00000	8b c1		 mov	 eax, ecx

; 1503 : }

  00002	c3		 ret	 0
??$forward@V?$_Tree_iterator@V?$_Tree_val@U?$_Tree_simple_types@U?$pair@$$CBHPAVCGraphicImage@@@std@@@std@@@std@@@std@@@std@@YA$$QAV?$_Tree_iterator@V?$_Tree_val@U?$_Tree_simple_types@U?$pair@$$CBHPAVCGraphicImage@@@std@@@std@@@std@@@0@AAV10@@Z ENDP ; std::forward<std::_Tree_iterator<std::_Tree_val<std::_Tree_simple_types<std::pair<int const ,CGraphicImage *> > > > >
_TEXT	ENDS
; Function compile flags: /Ogtp
; File C:\Program Files\Microsoft Visual Studio\2022\Community\VC\Tools\MSVC\14.44.35207\include\map
;	COMDAT ??$_Kfn@$$CBHPAVCGraphicImage@@@?$_Tmap_traits@HPAVCGraphicImage@@U?$less@H@std@@V?$allocator@U?$pair@$$CBHPAVCGraphicImage@@@std@@@3@$0A@@std@@SAABHABU?$pair@$$CBHPAVCGraphicImage@@@1@@Z
_TEXT	SEGMENT
??$_Kfn@$$CBHPAVCGraphicImage@@@?$_Tmap_traits@HPAVCGraphicImage@@U?$less@H@std@@V?$allocator@U?$pair@$$CBHPAVCGraphicImage@@@std@@@3@$0A@@std@@SAABHABU?$pair@$$CBHPAVCGraphicImage@@@1@@Z PROC ; std::_Tmap_traits<int,CGraphicImage *,std::less<int>,std::allocator<std::pair<int const ,CGraphicImage *> >,0>::_Kfn<int const ,CGraphicImage *>, COMDAT
; __Val$ = ecx

; 67   :         return _Val.first;

  00000	8b c1		 mov	 eax, ecx

; 68   :     }

  00002	c3		 ret	 0
??$_Kfn@$$CBHPAVCGraphicImage@@@?$_Tmap_traits@HPAVCGraphicImage@@U?$less@H@std@@V?$allocator@U?$pair@$$CBHPAVCGraphicImage@@@std@@@3@$0A@@std@@SAABHABU?$pair@$$CBHPAVCGraphicImage@@@1@@Z ENDP ; std::_Tmap_traits<int,CGraphicImage *,std::less<int>,std::allocator<std::pair<int const ,CGraphicImage *> >,0>::_Kfn<int const ,CGraphicImage *>
_TEXT	ENDS
; Function compile flags: /Ogtp
; File C:\Program Files\Microsoft Visual Studio\2022\Community\VC\Tools\MSVC\14.44.35207\include\utility
;	COMDAT ??$exchange@PAU?$_Tree_node@U?$pair@$$CBHPAVCGraphicImage@@@std@@PAX@std@@AAPAU12@@std@@YAPAU?$_Tree_node@U?$pair@$$CBHPAVCGraphicImage@@@std@@PAX@0@AAPAU10@0@Z
_TEXT	SEGMENT
??$exchange@PAU?$_Tree_node@U?$pair@$$CBHPAVCGraphicImage@@@std@@PAX@std@@AAPAU12@@std@@YAPAU?$_Tree_node@U?$pair@$$CBHPAVCGraphicImage@@@std@@PAX@0@AAPAU10@0@Z PROC ; std::exchange<std::_Tree_node<std::pair<int const ,CGraphicImage *>,void *> *,std::_Tree_node<std::pair<int const ,CGraphicImage *>,void *> * &>, COMDAT
; __Val$ = ecx
; __New_val$ = edx

; 772  :     // assign _New_val to _Val, return previous _Val
; 773  :     _Ty _Old_val = static_cast<_Ty&&>(_Val);

  00000	8b 01		 mov	 eax, DWORD PTR [ecx]

; 774  :     _Val         = static_cast<_Other&&>(_New_val);

  00002	8b 12		 mov	 edx, DWORD PTR [edx]
  00004	89 11		 mov	 DWORD PTR [ecx], edx

; 775  :     return _Old_val;
; 776  : }

  00006	c3		 ret	 0
??$exchange@PAU?$_Tree_node@U?$pair@$$CBHPAVCGraphicImage@@@std@@PAX@std@@AAPAU12@@std@@YAPAU?$_Tree_node@U?$pair@$$CBHPAVCGraphicImage@@@std@@PAX@0@AAPAU10@0@Z ENDP ; std::exchange<std::_Tree_node<std::pair<int const ,CGraphicImage *>,void *> *,std::_Tree_node<std::pair<int const ,CGraphicImage *>,void *> * &>
_TEXT	ENDS
; Function compile flags: /Ogtp
; File C:\Program Files\Microsoft Visual Studio\2022\Community\VC\Tools\MSVC\14.44.35207\include\xtree
; File C:\Program Files\Microsoft Visual Studio\2022\Community\VC\Tools\MSVC\14.44.35207\include\xmemory
; File C:\Program Files\Microsoft Visual Studio\2022\Community\VC\Tools\MSVC\14.44.35207\include\xtree
;	COMDAT ??$_Freenode@V?$allocator@U?$_Tree_node@U?$pair@$$CBHPAVCGraphicImage@@@std@@PAX@std@@@std@@@?$_Tree_node@U?$pair@$$CBHPAVCGraphicImage@@@std@@PAX@std@@SAXAAV?$allocator@U?$_Tree_node@U?$pair@$$CBHPAVCGraphicImage@@@std@@PAX@std@@@1@PAU01@@Z
_TEXT	SEGMENT
??$_Freenode@V?$allocator@U?$_Tree_node@U?$pair@$$CBHPAVCGraphicImage@@@std@@PAX@std@@@std@@@?$_Tree_node@U?$pair@$$CBHPAVCGraphicImage@@@std@@PAX@std@@SAXAAV?$allocator@U?$_Tree_node@U?$pair@$$CBHPAVCGraphicImage@@@std@@PAX@std@@@1@PAU01@@Z PROC ; std::_Tree_node<std::pair<int const ,CGraphicImage *>,void *>::_Freenode<std::allocator<std::_Tree_node<std::pair<int const ,CGraphicImage *>,void *> > >, COMDAT
; __Al$dead$ = ecx
; __Ptr$ = edx
; File C:\Program Files\Microsoft Visual Studio\2022\Community\VC\Tools\MSVC\14.44.35207\include\xmemory

; 289  :         ::operator delete(_Ptr, _Bytes);

  00000	6a 18		 push	 24			; 00000018H
  00002	52		 push	 edx
  00003	e8 00 00 00 00	 call	 ??3@YAXPAXI@Z		; operator delete
  00008	83 c4 08	 add	 esp, 8
; File C:\Program Files\Microsoft Visual Studio\2022\Community\VC\Tools\MSVC\14.44.35207\include\xtree

; 383  :     }

  0000b	c3		 ret	 0
??$_Freenode@V?$allocator@U?$_Tree_node@U?$pair@$$CBHPAVCGraphicImage@@@std@@PAX@std@@@std@@@?$_Tree_node@U?$pair@$$CBHPAVCGraphicImage@@@std@@PAX@std@@SAXAAV?$allocator@U?$_Tree_node@U?$pair@$$CBHPAVCGraphicImage@@@std@@PAX@std@@@1@PAU01@@Z ENDP ; std::_Tree_node<std::pair<int const ,CGraphicImage *>,void *>::_Freenode<std::allocator<std::_Tree_node<std::pair<int const ,CGraphicImage *>,void *> > >
_TEXT	ENDS
; Function compile flags: /Ogtp
; File C:\Program Files\Microsoft Visual Studio\2022\Community\VC\Tools\MSVC\14.44.35207\include\xmemory
;	COMDAT ??$_Destroy_in_place@PAU?$_Tree_node@U?$pair@$$CBHPAVCGraphicImage@@@std@@PAX@std@@@std@@YAXAAPAU?$_Tree_node@U?$pair@$$CBHPAVCGraphicImage@@@std@@PAX@0@@Z
_TEXT	SEGMENT
??$_Destroy_in_place@PAU?$_Tree_node@U?$pair@$$CBHPAVCGraphicImage@@@std@@PAX@std@@@std@@YAXAAPAU?$_Tree_node@U?$pair@$$CBHPAVCGraphicImage@@@std@@PAX@0@@Z PROC ; std::_Destroy_in_place<std::_Tree_node<std::pair<int const ,CGraphicImage *>,void *> *>, COMDAT
; __Obj$dead$ = ecx

; 321  :     if constexpr (is_array_v<_Ty>) {
; 322  :         _STD _Destroy_range(_Obj, _Obj + extent_v<_Ty>);
; 323  :     } else {
; 324  :         _Obj.~_Ty();
; 325  :     }
; 326  : }

  00000	c2 00 00	 ret	 0
??$_Destroy_in_place@PAU?$_Tree_node@U?$pair@$$CBHPAVCGraphicImage@@@std@@PAX@std@@@std@@YAXAAPAU?$_Tree_node@U?$pair@$$CBHPAVCGraphicImage@@@std@@PAX@0@@Z ENDP ; std::_Destroy_in_place<std::_Tree_node<std::pair<int const ,CGraphicImage *>,void *> *>
_TEXT	ENDS
; Function compile flags: /Ogtp
; File C:\Program Files\Microsoft Visual Studio\2022\Community\VC\Tools\MSVC\14.44.35207\include\tuple
;	COMDAT ??$?0ABH$0A@@?$tuple@ABH@std@@QAE@ABH@Z
_TEXT	SEGMENT
__This_arg$ = 8						; size = 4
??$?0ABH$0A@@?$tuple@ABH@std@@QAE@ABH@Z PROC		; std::tuple<int const &>::tuple<int const &><int const &,0>, COMDAT
; _this$ = ecx

; 340  :         : tuple(_Exact_args_t{}, _This_arg, _Rest_arg...) {}

  00000	55		 push	 ebp
  00001	8b ec		 mov	 ebp, esp

; 132  :     constexpr _Tuple_val(_Other&& _Arg) : _Val(_STD forward<_Other>(_Arg)) {}

  00003	8b 45 08	 mov	 eax, DWORD PTR __This_arg$[ebp]
  00006	89 01		 mov	 DWORD PTR [ecx], eax

; 340  :         : tuple(_Exact_args_t{}, _This_arg, _Rest_arg...) {}

  00008	8b c1		 mov	 eax, ecx
  0000a	5d		 pop	 ebp
  0000b	c2 04 00	 ret	 4
??$?0ABH$0A@@?$tuple@ABH@std@@QAE@ABH@Z ENDP		; std::tuple<int const &>::tuple<int const &><int const &,0>
_TEXT	ENDS
; Function compile flags: /Ogtp
; File C:\Program Files\Microsoft Visual Studio\2022\Community\VC\Tools\MSVC\14.44.35207\include\type_traits
;	COMDAT ??$addressof@U?$pair@$$CBHPAVCGraphicImage@@@std@@@std@@YAPAU?$pair@$$CBHPAVCGraphicImage@@@0@AAU10@@Z
_TEXT	SEGMENT
??$addressof@U?$pair@$$CBHPAVCGraphicImage@@@std@@@std@@YAPAU?$pair@$$CBHPAVCGraphicImage@@@0@AAU10@@Z PROC ; std::addressof<std::pair<int const ,CGraphicImage *> >, COMDAT
; __Val$ = ecx

; 1525 :     return __builtin_addressof(_Val);

  00000	8b c1		 mov	 eax, ecx

; 1526 : }

  00002	c3		 ret	 0
??$addressof@U?$pair@$$CBHPAVCGraphicImage@@@std@@@std@@YAPAU?$pair@$$CBHPAVCGraphicImage@@@0@AAU10@@Z ENDP ; std::addressof<std::pair<int const ,CGraphicImage *> >
_TEXT	ENDS
; Function compile flags: /Ogtp
; File C:\Program Files\Microsoft Visual Studio\2022\Community\VC\Tools\MSVC\14.44.35207\include\type_traits
;	COMDAT ??$forward@V?$tuple@ABH@std@@@std@@YA$$QAV?$tuple@ABH@0@AAV10@@Z
_TEXT	SEGMENT
??$forward@V?$tuple@ABH@std@@@std@@YA$$QAV?$tuple@ABH@0@AAV10@@Z PROC ; std::forward<std::tuple<int const &> >, COMDAT
; __Arg$ = ecx

; 1502 :     return static_cast<_Ty&&>(_Arg);

  00000	8b c1		 mov	 eax, ecx

; 1503 : }

  00002	c3		 ret	 0
??$forward@V?$tuple@ABH@std@@@std@@YA$$QAV?$tuple@ABH@0@AAV10@@Z ENDP ; std::forward<std::tuple<int const &> >
_TEXT	ENDS
; Function compile flags: /Ogtp
; File C:\Program Files\Microsoft Visual Studio\2022\Community\VC\Tools\MSVC\14.44.35207\include\xmemory
; File C:\Program Files\Microsoft Visual Studio\2022\Community\VC\Tools\MSVC\14.44.35207\include\tuple
; File C:\Program Files\Microsoft Visual Studio\2022\Community\VC\Tools\MSVC\14.44.35207\include\utility
; File C:\Program Files\Microsoft Visual Studio\2022\Community\VC\Tools\MSVC\14.44.35207\include\xmemory
;	COMDAT ??$construct@U?$pair@$$CBHPAVCGraphicImage@@@std@@ABUpiecewise_construct_t@2@V?$tuple@ABH@2@V?$tuple@$$V@2@@?$_Default_allocator_traits@V?$allocator@U?$_Tree_node@U?$pair@$$CBHPAVCGraphicImage@@@std@@PAX@std@@@std@@@std@@SAXAAV?$allocator@U?$_Tree_node@U?$pair@$$CBHPAVCGraphicImage@@@std@@PAX@std@@@1@QAU?$pair@$$CBHPAVCGraphicImage@@@1@ABUpiecewise_construct_t@1@$$QAV?$tuple@ABH@1@$$QAV?$tuple@$$V@1@@Z
_TEXT	SEGMENT
_<_Args_0>$dead$ = 8					; size = 4
_<_Args_1>$ = 12					; size = 4
_<_Args_2>$dead$ = 16					; size = 4
??$construct@U?$pair@$$CBHPAVCGraphicImage@@@std@@ABUpiecewise_construct_t@2@V?$tuple@ABH@2@V?$tuple@$$V@2@@?$_Default_allocator_traits@V?$allocator@U?$_Tree_node@U?$pair@$$CBHPAVCGraphicImage@@@std@@PAX@std@@@std@@@std@@SAXAAV?$allocator@U?$_Tree_node@U?$pair@$$CBHPAVCGraphicImage@@@std@@PAX@std@@@1@QAU?$pair@$$CBHPAVCGraphicImage@@@1@ABUpiecewise_construct_t@1@$$QAV?$tuple@ABH@1@$$QAV?$tuple@$$V@1@@Z PROC ; std::_Default_allocator_traits<std::allocator<std::_Tree_node<std::pair<int const ,CGraphicImage *>,void *> > >::construct<std::pair<int const ,CGraphicImage *>,std::piecewise_construct_t const &,std::tuple<int const &>,std::tuple<> >, COMDAT
; ___formal$dead$ = ecx
; __Ptr$ = edx

; 728  :     static _CONSTEXPR20 void construct(_Alloc&, _Objty* const _Ptr, _Types&&... _Args) {

  00000	55		 push	 ebp
  00001	8b ec		 mov	 ebp, esp
; File C:\Program Files\Microsoft Visual Studio\2022\Community\VC\Tools\MSVC\14.44.35207\include\tuple

; 352  :     tuple(tuple&&)      = default;

  00003	8b 45 0c	 mov	 eax, DWORD PTR _<_Args_1>$[ebp]
  00006	8b 00		 mov	 eax, DWORD PTR [eax]
; File C:\Program Files\Microsoft Visual Studio\2022\Community\VC\Tools\MSVC\14.44.35207\include\utility

; 478  :         : first(_STD _Tuple_get<_Indices1>(_STD move(_Val1))...),

  00008	8b 00		 mov	 eax, DWORD PTR [eax]
  0000a	89 02		 mov	 DWORD PTR [edx], eax

; 479  :           second(_STD _Tuple_get<_Indices2>(_STD move(_Val2))...) {}

  0000c	c7 42 04 00 00
	00 00		 mov	 DWORD PTR [edx+4], 0
; File C:\Program Files\Microsoft Visual Studio\2022\Community\VC\Tools\MSVC\14.44.35207\include\xmemory

; 734  :     }

  00013	5d		 pop	 ebp
  00014	c3		 ret	 0
??$construct@U?$pair@$$CBHPAVCGraphicImage@@@std@@ABUpiecewise_construct_t@2@V?$tuple@ABH@2@V?$tuple@$$V@2@@?$_Default_allocator_traits@V?$allocator@U?$_Tree_node@U?$pair@$$CBHPAVCGraphicImage@@@std@@PAX@std@@@std@@@std@@SAXAAV?$allocator@U?$_Tree_node@U?$pair@$$CBHPAVCGraphicImage@@@std@@PAX@std@@@1@QAU?$pair@$$CBHPAVCGraphicImage@@@1@ABUpiecewise_construct_t@1@$$QAV?$tuple@ABH@1@$$QAV?$tuple@$$V@1@@Z ENDP ; std::_Default_allocator_traits<std::allocator<std::_Tree_node<std::pair<int const ,CGraphicImage *>,void *> > >::construct<std::pair<int const ,CGraphicImage *>,std::piecewise_construct_t const &,std::tuple<int const &>,std::tuple<> >
_TEXT	ENDS
; Function compile flags: /Ogtp
; File C:\Program Files\Microsoft Visual Studio\2022\Community\VC\Tools\MSVC\14.44.35207\include\xutility
;	COMDAT ??$_Construct_in_place@PAU?$_Tree_node@U?$pair@$$CBHPAVCGraphicImage@@@std@@PAX@std@@AAPAU12@@std@@YAXAAPAU?$_Tree_node@U?$pair@$$CBHPAVCGraphicImage@@@std@@PAX@0@0@Z
_TEXT	SEGMENT
??$_Construct_in_place@PAU?$_Tree_node@U?$pair@$$CBHPAVCGraphicImage@@@std@@PAX@std@@AAPAU12@@std@@YAXAAPAU?$_Tree_node@U?$pair@$$CBHPAVCGraphicImage@@@std@@PAX@0@0@Z PROC ; std::_Construct_in_place<std::_Tree_node<std::pair<int const ,CGraphicImage *>,void *> *,std::_Tree_node<std::pair<int const ,CGraphicImage *>,void *> * &>, COMDAT
; __Obj$ = ecx
; _<_Args_0>$ = edx

; 470  : #if _HAS_CXX20
; 471  :     if (_STD is_constant_evaluated()) {
; 472  :         _STD construct_at(_STD addressof(_Obj), _STD forward<_Types>(_Args)...);
; 473  :     } else
; 474  : #endif // _HAS_CXX20
; 475  :     {
; 476  :         ::new (static_cast<void*>(_STD addressof(_Obj))) _Ty(_STD forward<_Types>(_Args)...);
; 477  :     }
; 478  : }

  00000	8b 02		 mov	 eax, DWORD PTR [edx]
  00002	89 01		 mov	 DWORD PTR [ecx], eax
  00004	c3		 ret	 0
??$_Construct_in_place@PAU?$_Tree_node@U?$pair@$$CBHPAVCGraphicImage@@@std@@PAX@std@@AAPAU12@@std@@YAXAAPAU?$_Tree_node@U?$pair@$$CBHPAVCGraphicImage@@@std@@PAX@0@0@Z ENDP ; std::_Construct_in_place<std::_Tree_node<std::pair<int const ,CGraphicImage *>,void *> *,std::_Tree_node<std::pair<int const ,CGraphicImage *>,void *> * &>
_TEXT	ENDS
; Function compile flags: /Ogtp
; File C:\Program Files\Microsoft Visual Studio\2022\Community\VC\Tools\MSVC\14.44.35207\include\type_traits
;	COMDAT ??$forward@ABQAU?$_Tree_node@U?$pair@$$CBHPAVCGraphicImage@@@std@@PAX@std@@@std@@YAABQAU?$_Tree_node@U?$pair@$$CBHPAVCGraphicImage@@@std@@PAX@0@ABQAU10@@Z
_TEXT	SEGMENT
??$forward@ABQAU?$_Tree_node@U?$pair@$$CBHPAVCGraphicImage@@@std@@PAX@std@@@std@@YAABQAU?$_Tree_node@U?$pair@$$CBHPAVCGraphicImage@@@std@@PAX@0@ABQAU10@@Z PROC ; std::forward<std::_Tree_node<std::pair<int const ,CGraphicImage *>,void *> * const &>, COMDAT
; __Arg$ = ecx

; 1502 :     return static_cast<_Ty&&>(_Arg);

  00000	8b c1		 mov	 eax, ecx

; 1503 : }

  00002	c3		 ret	 0
??$forward@ABQAU?$_Tree_node@U?$pair@$$CBHPAVCGraphicImage@@@std@@PAX@std@@@std@@YAABQAU?$_Tree_node@U?$pair@$$CBHPAVCGraphicImage@@@std@@PAX@0@ABQAU10@@Z ENDP ; std::forward<std::_Tree_node<std::pair<int const ,CGraphicImage *>,void *> * const &>
_TEXT	ENDS
; Function compile flags: /Ogtp
; File C:\Program Files\Microsoft Visual Studio\2022\Community\VC\Tools\MSVC\14.44.35207\include\type_traits
;	COMDAT ??$forward@PAU?$_Tree_node@U?$pair@$$CBHPAVCGraphicImage@@@std@@PAX@std@@@std@@YA$$QAPAU?$_Tree_node@U?$pair@$$CBHPAVCGraphicImage@@@std@@PAX@0@AAPAU10@@Z
_TEXT	SEGMENT
??$forward@PAU?$_Tree_node@U?$pair@$$CBHPAVCGraphicImage@@@std@@PAX@std@@@std@@YA$$QAPAU?$_Tree_node@U?$pair@$$CBHPAVCGraphicImage@@@std@@PAX@0@AAPAU10@@Z PROC ; std::forward<std::_Tree_node<std::pair<int const ,CGraphicImage *>,void *> *>, COMDAT
; __Arg$ = ecx

; 1502 :     return static_cast<_Ty&&>(_Arg);

  00000	8b c1		 mov	 eax, ecx

; 1503 : }

  00002	c3		 ret	 0
??$forward@PAU?$_Tree_node@U?$pair@$$CBHPAVCGraphicImage@@@std@@PAX@std@@@std@@YA$$QAPAU?$_Tree_node@U?$pair@$$CBHPAVCGraphicImage@@@std@@PAX@0@AAPAU10@@Z ENDP ; std::forward<std::_Tree_node<std::pair<int const ,CGraphicImage *>,void *> *>
_TEXT	ENDS
; Function compile flags: /Ogtp
; File C:\Program Files\Microsoft Visual Studio\2022\Community\VC\Tools\MSVC\14.44.35207\include\utility
;	COMDAT ??$exchange@PAU?$_Tree_node@U?$pair@$$CBHPAVCGraphicImage@@@std@@PAX@std@@$$T@std@@YAPAU?$_Tree_node@U?$pair@$$CBHPAVCGraphicImage@@@std@@PAX@0@AAPAU10@$$QA$$T@Z
_TEXT	SEGMENT
??$exchange@PAU?$_Tree_node@U?$pair@$$CBHPAVCGraphicImage@@@std@@PAX@std@@$$T@std@@YAPAU?$_Tree_node@U?$pair@$$CBHPAVCGraphicImage@@@std@@PAX@0@AAPAU10@$$QA$$T@Z PROC ; std::exchange<std::_Tree_node<std::pair<int const ,CGraphicImage *>,void *> *,std::nullptr_t>, COMDAT
; __Val$ = ecx
; __New_val$ = edx

; 772  :     // assign _New_val to _Val, return previous _Val
; 773  :     _Ty _Old_val = static_cast<_Ty&&>(_Val);

  00000	8b 01		 mov	 eax, DWORD PTR [ecx]

; 774  :     _Val         = static_cast<_Other&&>(_New_val);

  00002	8b 12		 mov	 edx, DWORD PTR [edx]
  00004	89 11		 mov	 DWORD PTR [ecx], edx

; 775  :     return _Old_val;
; 776  : }

  00006	c3		 ret	 0
??$exchange@PAU?$_Tree_node@U?$pair@$$CBHPAVCGraphicImage@@@std@@PAX@std@@$$T@std@@YAPAU?$_Tree_node@U?$pair@$$CBHPAVCGraphicImage@@@std@@PAX@0@AAPAU10@$$QA$$T@Z ENDP ; std::exchange<std::_Tree_node<std::pair<int const ,CGraphicImage *>,void *> *,std::nullptr_t>
_TEXT	ENDS
; Function compile flags: /Ogtp
; File C:\Program Files\Microsoft Visual Studio\2022\Community\VC\Tools\MSVC\14.44.35207\include\xmemory
;	COMDAT ??$destroy@U?$pair@$$CBHPAVCGraphicImage@@@std@@@?$_Default_allocator_traits@V?$allocator@U?$_Tree_node@U?$pair@$$CBHPAVCGraphicImage@@@std@@PAX@std@@@std@@@std@@SAXAAV?$allocator@U?$_Tree_node@U?$pair@$$CBHPAVCGraphicImage@@@std@@PAX@std@@@1@QAU?$pair@$$CBHPAVCGraphicImage@@@1@@Z
_TEXT	SEGMENT
??$destroy@U?$pair@$$CBHPAVCGraphicImage@@@std@@@?$_Default_allocator_traits@V?$allocator@U?$_Tree_node@U?$pair@$$CBHPAVCGraphicImage@@@std@@PAX@std@@@std@@@std@@SAXAAV?$allocator@U?$_Tree_node@U?$pair@$$CBHPAVCGraphicImage@@@std@@PAX@std@@@1@QAU?$pair@$$CBHPAVCGraphicImage@@@1@@Z PROC ; std::_Default_allocator_traits<std::allocator<std::_Tree_node<std::pair<int const ,CGraphicImage *>,void *> > >::destroy<std::pair<int const ,CGraphicImage *> >, COMDAT
; ___formal$dead$ = ecx
; __Ptr$dead$ = edx

; 738  : #if _HAS_CXX20
; 739  :         _STD destroy_at(_Ptr);
; 740  : #else // ^^^ _HAS_CXX20 / !_HAS_CXX20 vvv
; 741  :         _Ptr->~_Uty();
; 742  : #endif // ^^^ !_HAS_CXX20 ^^^
; 743  :     }

  00000	c2 00 00	 ret	 0
??$destroy@U?$pair@$$CBHPAVCGraphicImage@@@std@@@?$_Default_allocator_traits@V?$allocator@U?$_Tree_node@U?$pair@$$CBHPAVCGraphicImage@@@std@@PAX@std@@@std@@@std@@SAXAAV?$allocator@U?$_Tree_node@U?$pair@$$CBHPAVCGraphicImage@@@std@@PAX@std@@@1@QAU?$pair@$$CBHPAVCGraphicImage@@@1@@Z ENDP ; std::_Default_allocator_traits<std::allocator<std::_Tree_node<std::pair<int const ,CGraphicImage *>,void *> > >::destroy<std::pair<int const ,CGraphicImage *> >
_TEXT	ENDS
; Function compile flags: /Ogtp
; File C:\Program Files\Microsoft Visual Studio\2022\Community\VC\Tools\MSVC\14.44.35207\include\type_traits
;	COMDAT ??$addressof@$$CBV?$_Tree_val@U?$_Tree_simple_types@U?$pair@$$CBHPAVCGraphicImage@@@std@@@std@@@std@@@std@@YAPBV?$_Tree_val@U?$_Tree_simple_types@U?$pair@$$CBHPAVCGraphicImage@@@std@@@std@@@0@ABV10@@Z
_TEXT	SEGMENT
??$addressof@$$CBV?$_Tree_val@U?$_Tree_simple_types@U?$pair@$$CBHPAVCGraphicImage@@@std@@@std@@@std@@@std@@YAPBV?$_Tree_val@U?$_Tree_simple_types@U?$pair@$$CBHPAVCGraphicImage@@@std@@@std@@@0@ABV10@@Z PROC ; std::addressof<std::_Tree_val<std::_Tree_simple_types<std::pair<int const ,CGraphicImage *> > > const >, COMDAT
; __Val$dead$ = ecx

; 1525 :     return __builtin_addressof(_Val);

  00000	b8 00 00 00 00	 mov	 eax, OFFSET ?m_kMap_iEmotionIndex_pkIconImage@@3V?$map@HPAVCGraphicImage@@U?$less@H@std@@V?$allocator@U?$pair@$$CBHPAVCGraphicImage@@@std@@@3@@std@@A ; m_kMap_iEmotionIndex_pkIconImage

; 1526 : }

  00005	c3		 ret	 0
??$addressof@$$CBV?$_Tree_val@U?$_Tree_simple_types@U?$pair@$$CBHPAVCGraphicImage@@@std@@@std@@@std@@@std@@YAPBV?$_Tree_val@U?$_Tree_simple_types@U?$pair@$$CBHPAVCGraphicImage@@@std@@@std@@@0@ABV10@@Z ENDP ; std::addressof<std::_Tree_val<std::_Tree_simple_types<std::pair<int const ,CGraphicImage *> > > const >
_TEXT	ENDS
; Function compile flags: /Ogtp
; File C:\Program Files\Microsoft Visual Studio\2022\Community\VC\Tools\MSVC\14.44.35207\include\xtree
; File C:\Program Files\Microsoft Visual Studio\2022\Community\VC\Tools\MSVC\14.44.35207\include\xmemory
; File C:\Program Files\Microsoft Visual Studio\2022\Community\VC\Tools\MSVC\14.44.35207\include\xtree
;	COMDAT ??$_Buyheadnode@V?$allocator@U?$_Tree_node@U?$pair@$$CBHPAVCGraphicImage@@@std@@PAX@std@@@std@@@?$_Tree_node@U?$pair@$$CBHPAVCGraphicImage@@@std@@PAX@std@@SAPAU01@AAV?$allocator@U?$_Tree_node@U?$pair@$$CBHPAVCGraphicImage@@@std@@PAX@std@@@1@@Z
_TEXT	SEGMENT
??$_Buyheadnode@V?$allocator@U?$_Tree_node@U?$pair@$$CBHPAVCGraphicImage@@@std@@PAX@std@@@std@@@?$_Tree_node@U?$pair@$$CBHPAVCGraphicImage@@@std@@PAX@std@@SAPAU01@AAV?$allocator@U?$_Tree_node@U?$pair@$$CBHPAVCGraphicImage@@@std@@PAX@std@@@1@@Z PROC ; std::_Tree_node<std::pair<int const ,CGraphicImage *>,void *>::_Buyheadnode<std::allocator<std::_Tree_node<std::pair<int const ,CGraphicImage *>,void *> > >, COMDAT
; __Al$dead$ = ecx
; File C:\Program Files\Microsoft Visual Studio\2022\Community\VC\Tools\MSVC\14.44.35207\include\xmemory

; 136  :         return ::operator new(_Bytes);

  00000	6a 18		 push	 24			; 00000018H
  00002	e8 00 00 00 00	 call	 ??2@YAPAXI@Z		; operator new
  00007	83 c4 04	 add	 esp, 4
; File C:\Program Files\Microsoft Visual Studio\2022\Community\VC\Tools\MSVC\14.44.35207\include\xtree

; 346  :         _Construct_in_place(_Pnode->_Left, _Pnode);

  0000a	89 00		 mov	 DWORD PTR [eax], eax

; 347  :         _Construct_in_place(_Pnode->_Parent, _Pnode);

  0000c	89 40 04	 mov	 DWORD PTR [eax+4], eax

; 348  :         _Construct_in_place(_Pnode->_Right, _Pnode);

  0000f	89 40 08	 mov	 DWORD PTR [eax+8], eax

; 349  :         _Pnode->_Color = _Black;

  00012	66 c7 40 0c 01
	01		 mov	 WORD PTR [eax+12], 257	; 00000101H

; 350  :         _Pnode->_Isnil = true;
; 351  :         return _Pnode;
; 352  :     }

  00018	c3		 ret	 0
??$_Buyheadnode@V?$allocator@U?$_Tree_node@U?$pair@$$CBHPAVCGraphicImage@@@std@@PAX@std@@@std@@@?$_Tree_node@U?$pair@$$CBHPAVCGraphicImage@@@std@@PAX@std@@SAPAU01@AAV?$allocator@U?$_Tree_node@U?$pair@$$CBHPAVCGraphicImage@@@std@@PAX@std@@@1@@Z ENDP ; std::_Tree_node<std::pair<int const ,CGraphicImage *>,void *>::_Buyheadnode<std::allocator<std::_Tree_node<std::pair<int const ,CGraphicImage *>,void *> > >
_TEXT	ENDS
; Function compile flags: /Ogtp
; File C:\Program Files\Microsoft Visual Studio\2022\Community\VC\Tools\MSVC\14.44.35207\include\xmemory
;	COMDAT ?_Extract@?$_In_place_key_extract_map_impl@HU?$pair@HPAVCGraphicImage@@@std@@@std@@SAABHABU?$pair@HPAVCGraphicImage@@@2@@Z
_TEXT	SEGMENT
?_Extract@?$_In_place_key_extract_map_impl@HU?$pair@HPAVCGraphicImage@@@std@@@std@@SAABHABU?$pair@HPAVCGraphicImage@@@2@@Z PROC ; std::_In_place_key_extract_map_impl<int,std::pair<int,CGraphicImage *> >::_Extract, COMDAT
; __Val$ = ecx

; 2175 :         return _Val.first;

  00000	8b c1		 mov	 eax, ecx

; 2176 :     }

  00002	c3		 ret	 0
?_Extract@?$_In_place_key_extract_map_impl@HU?$pair@HPAVCGraphicImage@@@std@@@std@@SAABHABU?$pair@HPAVCGraphicImage@@@2@@Z ENDP ; std::_In_place_key_extract_map_impl<int,std::pair<int,CGraphicImage *> >::_Extract
_TEXT	ENDS
; Function compile flags: /Ogtp
; File C:\Program Files\Microsoft Visual Studio\2022\Community\VC\Tools\MSVC\14.44.35207\include\xmemory
;	COMDAT ??1?$_Alloc_construct_ptr@V?$allocator@U?$_Tree_node@U?$pair@$$CBHPAVCGraphicImage@@@std@@PAX@std@@@std@@@std@@QAE@XZ
_TEXT	SEGMENT
??1?$_Alloc_construct_ptr@V?$allocator@U?$_Tree_node@U?$pair@$$CBHPAVCGraphicImage@@@std@@PAX@std@@@std@@@std@@QAE@XZ PROC ; std::_Alloc_construct_ptr<std::allocator<std::_Tree_node<std::pair<int const ,CGraphicImage *>,void *> > >::~_Alloc_construct_ptr<std::allocator<std::_Tree_node<std::pair<int const ,CGraphicImage *>,void *> > >, COMDAT
; _this$ = ecx

; 1172 :         if (_Ptr) {

  00000	8b 41 04	 mov	 eax, DWORD PTR [ecx+4]
  00003	85 c0		 test	 eax, eax
  00005	74 0b		 je	 SHORT $LN8@Alloc_cons

; 289  :         ::operator delete(_Ptr, _Bytes);

  00007	6a 18		 push	 24			; 00000018H
  00009	50		 push	 eax
  0000a	e8 00 00 00 00	 call	 ??3@YAXPAXI@Z		; operator delete
  0000f	83 c4 08	 add	 esp, 8
$LN8@Alloc_cons:

; 1173 :             _Al.deallocate(_Ptr, 1);
; 1174 :         }
; 1175 :     }

  00012	c3		 ret	 0
??1?$_Alloc_construct_ptr@V?$allocator@U?$_Tree_node@U?$pair@$$CBHPAVCGraphicImage@@@std@@PAX@std@@@std@@@std@@QAE@XZ ENDP ; std::_Alloc_construct_ptr<std::allocator<std::_Tree_node<std::pair<int const ,CGraphicImage *>,void *> > >::~_Alloc_construct_ptr<std::allocator<std::_Tree_node<std::pair<int const ,CGraphicImage *>,void *> > >
_TEXT	ENDS
; Function compile flags: /Ogtp
; File C:\Program Files\Microsoft Visual Studio\2022\Community\VC\Tools\MSVC\14.44.35207\include\xtree
; File C:\Program Files\Microsoft Visual Studio\2022\Community\VC\Tools\MSVC\14.44.35207\include\xmemory
; File C:\Program Files\Microsoft Visual Studio\2022\Community\VC\Tools\MSVC\14.44.35207\include\xtree
; File C:\Program Files\Microsoft Visual Studio\2022\Community\VC\Tools\MSVC\14.44.35207\include\xmemory
; File C:\Program Files\Microsoft Visual Studio\2022\Community\VC\Tools\MSVC\14.44.35207\include\xtree
;	COMDAT ??0?$_Tree_temp_node_alloc@V?$allocator@U?$_Tree_node@U?$pair@$$CBHPAVCGraphicImage@@@std@@PAX@std@@@std@@@std@@QAE@AAV?$allocator@U?$_Tree_node@U?$pair@$$CBHPAVCGraphicImage@@@std@@PAX@std@@@1@@Z
_TEXT	SEGMENT
_this$ = -16						; size = 4
__$EHRec$ = -12						; size = 12
__Al_$ = 8						; size = 4
??0?$_Tree_temp_node_alloc@V?$allocator@U?$_Tree_node@U?$pair@$$CBHPAVCGraphicImage@@@std@@PAX@std@@@std@@@std@@QAE@AAV?$allocator@U?$_Tree_node@U?$pair@$$CBHPAVCGraphicImage@@@std@@PAX@std@@@1@@Z PROC ; std::_Tree_temp_node_alloc<std::allocator<std::_Tree_node<std::pair<int const ,CGraphicImage *>,void *> > >::_Tree_temp_node_alloc<std::allocator<std::_Tree_node<std::pair<int const ,CGraphicImage *>,void *> > >, COMDAT
; _this$ = ecx

; 808  :     explicit _Tree_temp_node_alloc(_Alnode& _Al_) : _Alloc_construct_ptr<_Alnode>(_Al_) {

  00000	55		 push	 ebp
  00001	8b ec		 mov	 ebp, esp
  00003	6a ff		 push	 -1
  00005	68 00 00 00 00	 push	 __ehhandler$??0?$_Tree_temp_node_alloc@V?$allocator@U?$_Tree_node@U?$pair@$$CBHPAVCGraphicImage@@@std@@PAX@std@@@std@@@std@@QAE@AAV?$allocator@U?$_Tree_node@U?$pair@$$CBHPAVCGraphicImage@@@std@@PAX@std@@@1@@Z
  0000a	64 a1 00 00 00
	00		 mov	 eax, DWORD PTR fs:0
  00010	50		 push	 eax
  00011	51		 push	 ecx
  00012	56		 push	 esi
  00013	a1 00 00 00 00	 mov	 eax, DWORD PTR ___security_cookie
  00018	33 c5		 xor	 eax, ebp
  0001a	50		 push	 eax
  0001b	8d 45 f4	 lea	 eax, DWORD PTR __$EHRec$[ebp]
  0001e	64 a3 00 00 00
	00		 mov	 DWORD PTR fs:0, eax
  00024	8b f1		 mov	 esi, ecx
  00026	89 75 f0	 mov	 DWORD PTR _this$[ebp], esi
; File C:\Program Files\Microsoft Visual Studio\2022\Community\VC\Tools\MSVC\14.44.35207\include\xmemory

; 1160 :     _CONSTEXPR20 explicit _Alloc_construct_ptr(_Alloc& _Al_) : _Al(_Al_), _Ptr(nullptr) {}

  00029	8b 45 08	 mov	 eax, DWORD PTR __Al_$[ebp]
  0002c	89 06		 mov	 DWORD PTR [esi], eax
; File C:\Program Files\Microsoft Visual Studio\2022\Community\VC\Tools\MSVC\14.44.35207\include\xtree

; 808  :     explicit _Tree_temp_node_alloc(_Alnode& _Al_) : _Alloc_construct_ptr<_Alnode>(_Al_) {

  0002e	c7 45 fc 00 00
	00 00		 mov	 DWORD PTR __$EHRec$[ebp+8], 0
; File C:\Program Files\Microsoft Visual Studio\2022\Community\VC\Tools\MSVC\14.44.35207\include\xmemory

; 136  :         return ::operator new(_Bytes);

  00035	6a 18		 push	 24			; 00000018H

; 1167 :         _Ptr = nullptr; // if allocate throws, prevents double-free

  00037	c7 46 04 00 00
	00 00		 mov	 DWORD PTR [esi+4], 0

; 136  :         return ::operator new(_Bytes);

  0003e	e8 00 00 00 00	 call	 ??2@YAPAXI@Z		; operator new

; 1168 :         _Ptr = _Al.allocate(1);

  00043	89 46 04	 mov	 DWORD PTR [esi+4], eax

; 136  :         return ::operator new(_Bytes);

  00046	83 c4 04	 add	 esp, 4
; File C:\Program Files\Microsoft Visual Studio\2022\Community\VC\Tools\MSVC\14.44.35207\include\xtree

; 810  :     }

  00049	8b c6		 mov	 eax, esi
  0004b	8b 4d f4	 mov	 ecx, DWORD PTR __$EHRec$[ebp]
  0004e	64 89 0d 00 00
	00 00		 mov	 DWORD PTR fs:0, ecx
  00055	59		 pop	 ecx
  00056	5e		 pop	 esi
  00057	8b e5		 mov	 esp, ebp
  00059	5d		 pop	 ebp
  0005a	c2 04 00	 ret	 4
_TEXT	ENDS
;	COMDAT text$x
text$x	SEGMENT
__unwindfunclet$??0?$_Tree_temp_node_alloc@V?$allocator@U?$_Tree_node@U?$pair@$$CBHPAVCGraphicImage@@@std@@PAX@std@@@std@@@std@@QAE@AAV?$allocator@U?$_Tree_node@U?$pair@$$CBHPAVCGraphicImage@@@std@@PAX@std@@@1@@Z$0:
  00000	8b 4d f0	 mov	 ecx, DWORD PTR _this$[ebp]
  00003	e9 00 00 00 00	 jmp	 ??1?$_Alloc_construct_ptr@V?$allocator@U?$_Tree_node@U?$pair@$$CBHPAVCGraphicImage@@@std@@PAX@std@@@std@@@std@@QAE@XZ ; std::_Alloc_construct_ptr<std::allocator<std::_Tree_node<std::pair<int const ,CGraphicImage *>,void *> > >::~_Alloc_construct_ptr<std::allocator<std::_Tree_node<std::pair<int const ,CGraphicImage *>,void *> > >
  00008	cc		 int	 3
  00009	cc		 int	 3
  0000a	cc		 int	 3
  0000b	cc		 int	 3
  0000c	cc		 int	 3
__ehhandler$??0?$_Tree_temp_node_alloc@V?$allocator@U?$_Tree_node@U?$pair@$$CBHPAVCGraphicImage@@@std@@PAX@std@@@std@@@std@@QAE@AAV?$allocator@U?$_Tree_node@U?$pair@$$CBHPAVCGraphicImage@@@std@@PAX@std@@@1@@Z:
  0000d	90		 npad	 1
  0000e	90		 npad	 1
  0000f	8b 54 24 08	 mov	 edx, DWORD PTR [esp+8]
  00013	8d 42 0c	 lea	 eax, DWORD PTR [edx+12]
  00016	8b 4a f4	 mov	 ecx, DWORD PTR [edx-12]
  00019	33 c8		 xor	 ecx, eax
  0001b	e8 00 00 00 00	 call	 @__security_check_cookie@4
  00020	b8 00 00 00 00	 mov	 eax, OFFSET __ehfuncinfo$??0?$_Tree_temp_node_alloc@V?$allocator@U?$_Tree_node@U?$pair@$$CBHPAVCGraphicImage@@@std@@PAX@std@@@std@@@std@@QAE@AAV?$allocator@U?$_Tree_node@U?$pair@$$CBHPAVCGraphicImage@@@std@@PAX@std@@@1@@Z
  00025	e9 00 00 00 00	 jmp	 ___CxxFrameHandler3
text$x	ENDS
??0?$_Tree_temp_node_alloc@V?$allocator@U?$_Tree_node@U?$pair@$$CBHPAVCGraphicImage@@@std@@PAX@std@@@std@@@std@@QAE@AAV?$allocator@U?$_Tree_node@U?$pair@$$CBHPAVCGraphicImage@@@std@@PAX@std@@@1@@Z ENDP ; std::_Tree_temp_node_alloc<std::allocator<std::_Tree_node<std::pair<int const ,CGraphicImage *>,void *> > >::_Tree_temp_node_alloc<std::allocator<std::_Tree_node<std::pair<int const ,CGraphicImage *>,void *> > >
; Function compile flags: /Ogtp
; File C:\Program Files\Microsoft Visual Studio\2022\Community\VC\Tools\MSVC\14.44.35207\include\xtree
;	COMDAT ?_Rrotate@?$_Tree_val@U?$_Tree_simple_types@U?$pair@$$CBHPAVCGraphicImage@@@std@@@std@@@std@@QAEXPAU?$_Tree_node@U?$pair@$$CBHPAVCGraphicImage@@@std@@PAX@2@@Z
_TEXT	SEGMENT
__Wherenode$ = 8					; size = 4
?_Rrotate@?$_Tree_val@U?$_Tree_simple_types@U?$pair@$$CBHPAVCGraphicImage@@@std@@@std@@@std@@QAEXPAU?$_Tree_node@U?$pair@$$CBHPAVCGraphicImage@@@std@@PAX@2@@Z PROC ; std::_Tree_val<std::_Tree_simple_types<std::pair<int const ,CGraphicImage *> > >::_Rrotate, COMDAT
; _this$ = ecx

; 505  :     void _Rrotate(_Nodeptr _Wherenode) noexcept { // promote left node to root of subtree

  00000	55		 push	 ebp
  00001	8b ec		 mov	 ebp, esp

; 506  :         _Nodeptr _Pnode   = _Wherenode->_Left;

  00003	8b 55 08	 mov	 edx, DWORD PTR __Wherenode$[ebp]
  00006	56		 push	 esi
  00007	8b 32		 mov	 esi, DWORD PTR [edx]

; 507  :         _Wherenode->_Left = _Pnode->_Right;

  00009	8b 46 08	 mov	 eax, DWORD PTR [esi+8]
  0000c	89 02		 mov	 DWORD PTR [edx], eax

; 508  : 
; 509  :         if (!_Pnode->_Right->_Isnil) {

  0000e	8b 46 08	 mov	 eax, DWORD PTR [esi+8]
  00011	80 78 0d 00	 cmp	 BYTE PTR [eax+13], 0
  00015	75 03		 jne	 SHORT $LN2@Rrotate

; 510  :             _Pnode->_Right->_Parent = _Wherenode;

  00017	89 50 04	 mov	 DWORD PTR [eax+4], edx
$LN2@Rrotate:

; 511  :         }
; 512  : 
; 513  :         _Pnode->_Parent = _Wherenode->_Parent;

  0001a	8b 42 04	 mov	 eax, DWORD PTR [edx+4]
  0001d	89 46 04	 mov	 DWORD PTR [esi+4], eax

; 514  : 
; 515  :         if (_Wherenode == _Myhead->_Parent) {

  00020	8b 01		 mov	 eax, DWORD PTR [ecx]
  00022	3b 50 04	 cmp	 edx, DWORD PTR [eax+4]
  00025	75 0e		 jne	 SHORT $LN3@Rrotate

; 516  :             _Myhead->_Parent = _Pnode;

  00027	89 70 04	 mov	 DWORD PTR [eax+4], esi

; 521  :         }
; 522  : 
; 523  :         _Pnode->_Right      = _Wherenode;
; 524  :         _Wherenode->_Parent = _Pnode;
; 525  :     }

  0002a	89 56 08	 mov	 DWORD PTR [esi+8], edx
  0002d	89 72 04	 mov	 DWORD PTR [edx+4], esi
  00030	5e		 pop	 esi
  00031	5d		 pop	 ebp
  00032	c2 04 00	 ret	 4
$LN3@Rrotate:

; 517  :         } else if (_Wherenode == _Wherenode->_Parent->_Right) {

  00035	8b 42 04	 mov	 eax, DWORD PTR [edx+4]
  00038	3b 50 08	 cmp	 edx, DWORD PTR [eax+8]
  0003b	75 0e		 jne	 SHORT $LN5@Rrotate

; 518  :             _Wherenode->_Parent->_Right = _Pnode;

  0003d	89 70 08	 mov	 DWORD PTR [eax+8], esi

; 521  :         }
; 522  : 
; 523  :         _Pnode->_Right      = _Wherenode;
; 524  :         _Wherenode->_Parent = _Pnode;
; 525  :     }

  00040	89 56 08	 mov	 DWORD PTR [esi+8], edx
  00043	89 72 04	 mov	 DWORD PTR [edx+4], esi
  00046	5e		 pop	 esi
  00047	5d		 pop	 ebp
  00048	c2 04 00	 ret	 4
$LN5@Rrotate:

; 519  :         } else {
; 520  :             _Wherenode->_Parent->_Left = _Pnode;

  0004b	89 30		 mov	 DWORD PTR [eax], esi

; 521  :         }
; 522  : 
; 523  :         _Pnode->_Right      = _Wherenode;
; 524  :         _Wherenode->_Parent = _Pnode;
; 525  :     }

  0004d	89 56 08	 mov	 DWORD PTR [esi+8], edx
  00050	89 72 04	 mov	 DWORD PTR [edx+4], esi
  00053	5e		 pop	 esi
  00054	5d		 pop	 ebp
  00055	c2 04 00	 ret	 4
?_Rrotate@?$_Tree_val@U?$_Tree_simple_types@U?$pair@$$CBHPAVCGraphicImage@@@std@@@std@@@std@@QAEXPAU?$_Tree_node@U?$pair@$$CBHPAVCGraphicImage@@@std@@PAX@2@@Z ENDP ; std::_Tree_val<std::_Tree_simple_types<std::pair<int const ,CGraphicImage *> > >::_Rrotate
_TEXT	ENDS
; Function compile flags: /Ogtp
; File C:\Program Files\Microsoft Visual Studio\2022\Community\VC\Tools\MSVC\14.44.35207\include\xtree
;	COMDAT ?_Lrotate@?$_Tree_val@U?$_Tree_simple_types@U?$pair@$$CBHPAVCGraphicImage@@@std@@@std@@@std@@QAEXPAU?$_Tree_node@U?$pair@$$CBHPAVCGraphicImage@@@std@@PAX@2@@Z
_TEXT	SEGMENT
__Wherenode$ = 8					; size = 4
?_Lrotate@?$_Tree_val@U?$_Tree_simple_types@U?$pair@$$CBHPAVCGraphicImage@@@std@@@std@@@std@@QAEXPAU?$_Tree_node@U?$pair@$$CBHPAVCGraphicImage@@@std@@PAX@2@@Z PROC ; std::_Tree_val<std::_Tree_simple_types<std::pair<int const ,CGraphicImage *> > >::_Lrotate, COMDAT
; _this$ = ecx

; 483  :     void _Lrotate(_Nodeptr _Wherenode) noexcept { // promote right node to root of subtree

  00000	55		 push	 ebp
  00001	8b ec		 mov	 ebp, esp

; 484  :         _Nodeptr _Pnode    = _Wherenode->_Right;

  00003	8b 55 08	 mov	 edx, DWORD PTR __Wherenode$[ebp]
  00006	56		 push	 esi
  00007	8b 72 08	 mov	 esi, DWORD PTR [edx+8]

; 485  :         _Wherenode->_Right = _Pnode->_Left;

  0000a	8b 06		 mov	 eax, DWORD PTR [esi]
  0000c	89 42 08	 mov	 DWORD PTR [edx+8], eax

; 486  : 
; 487  :         if (!_Pnode->_Left->_Isnil) {

  0000f	8b 06		 mov	 eax, DWORD PTR [esi]
  00011	80 78 0d 00	 cmp	 BYTE PTR [eax+13], 0
  00015	75 03		 jne	 SHORT $LN2@Lrotate

; 488  :             _Pnode->_Left->_Parent = _Wherenode;

  00017	89 50 04	 mov	 DWORD PTR [eax+4], edx
$LN2@Lrotate:

; 489  :         }
; 490  : 
; 491  :         _Pnode->_Parent = _Wherenode->_Parent;

  0001a	8b 42 04	 mov	 eax, DWORD PTR [edx+4]
  0001d	89 46 04	 mov	 DWORD PTR [esi+4], eax

; 492  : 
; 493  :         if (_Wherenode == _Myhead->_Parent) {

  00020	8b 01		 mov	 eax, DWORD PTR [ecx]
  00022	3b 50 04	 cmp	 edx, DWORD PTR [eax+4]
  00025	75 0d		 jne	 SHORT $LN3@Lrotate

; 494  :             _Myhead->_Parent = _Pnode;

  00027	89 70 04	 mov	 DWORD PTR [eax+4], esi

; 499  :         }
; 500  : 
; 501  :         _Pnode->_Left       = _Wherenode;
; 502  :         _Wherenode->_Parent = _Pnode;
; 503  :     }

  0002a	89 16		 mov	 DWORD PTR [esi], edx
  0002c	89 72 04	 mov	 DWORD PTR [edx+4], esi
  0002f	5e		 pop	 esi
  00030	5d		 pop	 ebp
  00031	c2 04 00	 ret	 4
$LN3@Lrotate:

; 495  :         } else if (_Wherenode == _Wherenode->_Parent->_Left) {

  00034	8b 42 04	 mov	 eax, DWORD PTR [edx+4]
  00037	3b 10		 cmp	 edx, DWORD PTR [eax]
  00039	75 0c		 jne	 SHORT $LN5@Lrotate

; 496  :             _Wherenode->_Parent->_Left = _Pnode;

  0003b	89 30		 mov	 DWORD PTR [eax], esi

; 499  :         }
; 500  : 
; 501  :         _Pnode->_Left       = _Wherenode;
; 502  :         _Wherenode->_Parent = _Pnode;
; 503  :     }

  0003d	89 16		 mov	 DWORD PTR [esi], edx
  0003f	89 72 04	 mov	 DWORD PTR [edx+4], esi
  00042	5e		 pop	 esi
  00043	5d		 pop	 ebp
  00044	c2 04 00	 ret	 4
$LN5@Lrotate:

; 497  :         } else {
; 498  :             _Wherenode->_Parent->_Right = _Pnode;

  00047	89 70 08	 mov	 DWORD PTR [eax+8], esi

; 499  :         }
; 500  : 
; 501  :         _Pnode->_Left       = _Wherenode;
; 502  :         _Wherenode->_Parent = _Pnode;
; 503  :     }

  0004a	89 16		 mov	 DWORD PTR [esi], edx
  0004c	89 72 04	 mov	 DWORD PTR [edx+4], esi
  0004f	5e		 pop	 esi
  00050	5d		 pop	 ebp
  00051	c2 04 00	 ret	 4
?_Lrotate@?$_Tree_val@U?$_Tree_simple_types@U?$pair@$$CBHPAVCGraphicImage@@@std@@@std@@@std@@QAEXPAU?$_Tree_node@U?$pair@$$CBHPAVCGraphicImage@@@std@@PAX@2@@Z ENDP ; std::_Tree_val<std::_Tree_simple_types<std::pair<int const ,CGraphicImage *> > >::_Lrotate
_TEXT	ENDS
; Function compile flags: /Ogtp
; File C:\Program Files\Microsoft Visual Studio\2022\Community\VC\Tools\MSVC\14.44.35207\include\xmemory
;	COMDAT ?deallocate@?$_Default_allocator_traits@V?$allocator@U?$_Tree_node@U?$pair@$$CBHPAVCGraphicImage@@@std@@PAX@std@@@std@@@std@@SAXAAV?$allocator@U?$_Tree_node@U?$pair@$$CBHPAVCGraphicImage@@@std@@PAX@std@@@2@QAU?$_Tree_node@U?$pair@$$CBHPAVCGraphicImage@@@std@@PAX@2@I@Z
_TEXT	SEGMENT
__Count$dead$ = 8					; size = 4
?deallocate@?$_Default_allocator_traits@V?$allocator@U?$_Tree_node@U?$pair@$$CBHPAVCGraphicImage@@@std@@PAX@std@@@std@@@std@@SAXAAV?$allocator@U?$_Tree_node@U?$pair@$$CBHPAVCGraphicImage@@@std@@PAX@std@@@2@QAU?$_Tree_node@U?$pair@$$CBHPAVCGraphicImage@@@std@@PAX@2@I@Z PROC ; std::_Default_allocator_traits<std::allocator<std::_Tree_node<std::pair<int const ,CGraphicImage *>,void *> > >::deallocate, COMDAT
; __Al$dead$ = ecx
; __Ptr$ = edx

; 289  :         ::operator delete(_Ptr, _Bytes);

  00000	6a 18		 push	 24			; 00000018H
  00002	52		 push	 edx
  00003	e8 00 00 00 00	 call	 ??3@YAXPAXI@Z		; operator delete
  00008	83 c4 08	 add	 esp, 8

; 715  :         // no overflow check on the following multiply; we assume _Allocate did that check
; 716  : #if _HAS_CXX20 // TRANSITION, GH-1532
; 717  :         if (_STD is_constant_evaluated()) {
; 718  :             _Al.deallocate(_Ptr, _Count);
; 719  :         } else
; 720  : #endif // _HAS_CXX20
; 721  :         {
; 722  :             (void) _Al;
; 723  :             _STD _Deallocate<_New_alignof<value_type>>(_Ptr, sizeof(value_type) * _Count);
; 724  :         }
; 725  :     }

  0000b	c3		 ret	 0
?deallocate@?$_Default_allocator_traits@V?$allocator@U?$_Tree_node@U?$pair@$$CBHPAVCGraphicImage@@@std@@PAX@std@@@std@@@std@@SAXAAV?$allocator@U?$_Tree_node@U?$pair@$$CBHPAVCGraphicImage@@@std@@PAX@std@@@2@QAU?$_Tree_node@U?$pair@$$CBHPAVCGraphicImage@@@std@@PAX@2@I@Z ENDP ; std::_Default_allocator_traits<std::allocator<std::_Tree_node<std::pair<int const ,CGraphicImage *>,void *> > >::deallocate
_TEXT	ENDS
; Function compile flags: /Ogtp
; File C:\Program Files\Microsoft Visual Studio\2022\Community\VC\Tools\MSVC\14.44.35207\include\xtree
;	COMDAT ?_Getcomp@?$_Tree@V?$_Tmap_traits@HPAVCGraphicImage@@U?$less@H@std@@V?$allocator@U?$pair@$$CBHPAVCGraphicImage@@@std@@@3@$0A@@std@@@std@@IBEABU?$less@H@2@XZ
_TEXT	SEGMENT
?_Getcomp@?$_Tree@V?$_Tmap_traits@HPAVCGraphicImage@@U?$less@H@std@@V?$allocator@U?$pair@$$CBHPAVCGraphicImage@@@std@@@3@$0A@@std@@@std@@IBEABU?$less@H@2@XZ PROC ; std::_Tree<std::_Tmap_traits<int,CGraphicImage *,std::less<int>,std::allocator<std::pair<int const ,CGraphicImage *> >,0> >::_Getcomp, COMDAT
; _this$dead$ = ecx

; 1971 :         return _Mypair._Get_first();

  00000	b8 00 00 00 00	 mov	 eax, OFFSET ?m_kMap_iEmotionIndex_pkIconImage@@3V?$map@HPAVCGraphicImage@@U?$less@H@std@@V?$allocator@U?$pair@$$CBHPAVCGraphicImage@@@std@@@3@@std@@A ; m_kMap_iEmotionIndex_pkIconImage

; 1972 :     }

  00005	c3		 ret	 0
?_Getcomp@?$_Tree@V?$_Tmap_traits@HPAVCGraphicImage@@U?$less@H@std@@V?$allocator@U?$pair@$$CBHPAVCGraphicImage@@@std@@@3@$0A@@std@@@std@@IBEABU?$less@H@2@XZ ENDP ; std::_Tree<std::_Tmap_traits<int,CGraphicImage *,std::less<int>,std::allocator<std::pair<int const ,CGraphicImage *> >,0> >::_Getcomp
_TEXT	ENDS
; Function compile flags: /Ogtp
; File C:\Program Files\Microsoft Visual Studio\2022\Community\VC\Tools\MSVC\14.44.35207\include\xtree
;	COMDAT ?max_size@?$_Tree@V?$_Tmap_traits@HPAVCGraphicImage@@U?$less@H@std@@V?$allocator@U?$pair@$$CBHPAVCGraphicImage@@@std@@@3@$0A@@std@@@std@@QBEIXZ
_TEXT	SEGMENT
?max_size@?$_Tree@V?$_Tmap_traits@HPAVCGraphicImage@@U?$less@H@std@@V?$allocator@U?$pair@$$CBHPAVCGraphicImage@@@std@@@3@$0A@@std@@@std@@QBEIXZ PROC ; std::_Tree<std::_Tmap_traits<int,CGraphicImage *,std::less<int>,std::allocator<std::pair<int const ,CGraphicImage *> >,0> >::max_size, COMDAT
; _this$dead$ = ecx

; 1213 :         return (_STD min)(

  00000	b8 aa aa aa 0a	 mov	 eax, 178956970		; 0aaaaaaaH

; 1214 :             static_cast<size_type>(_STD _Max_limit<difference_type>()), _Alnode_traits::max_size(_Getal()));
; 1215 :     }

  00005	c3		 ret	 0
?max_size@?$_Tree@V?$_Tmap_traits@HPAVCGraphicImage@@U?$less@H@std@@V?$allocator@U?$pair@$$CBHPAVCGraphicImage@@@std@@@3@$0A@@std@@@std@@QBEIXZ ENDP ; std::_Tree<std::_Tmap_traits<int,CGraphicImage *,std::less<int>,std::allocator<std::pair<int const ,CGraphicImage *> >,0> >::max_size
_TEXT	ENDS
; Function compile flags: /Ogtp
; File C:\Program Files\Microsoft Visual Studio\2022\Community\VC\Tools\MSVC\14.44.35207\include\xmemory
; File C:\Program Files\Microsoft Visual Studio\2022\Community\VC\Tools\MSVC\14.44.35207\include\utility
; File C:\Program Files\Microsoft Visual Studio\2022\Community\VC\Tools\MSVC\14.44.35207\include\xmemory
;	COMDAT ??$construct@U?$pair@$$CBHPAVCGraphicImage@@@std@@U?$pair@HPAVCGraphicImage@@@2@@?$_Default_allocator_traits@V?$allocator@U?$_Tree_node@U?$pair@$$CBHPAVCGraphicImage@@@std@@PAX@std@@@std@@@std@@SAXAAV?$allocator@U?$_Tree_node@U?$pair@$$CBHPAVCGraphicImage@@@std@@PAX@std@@@1@QAU?$pair@$$CBHPAVCGraphicImage@@@1@$$QAU?$pair@HPAVCGraphicImage@@@1@@Z
_TEXT	SEGMENT
_<_Args_0>$ = 8						; size = 4
??$construct@U?$pair@$$CBHPAVCGraphicImage@@@std@@U?$pair@HPAVCGraphicImage@@@2@@?$_Default_allocator_traits@V?$allocator@U?$_Tree_node@U?$pair@$$CBHPAVCGraphicImage@@@std@@PAX@std@@@std@@@std@@SAXAAV?$allocator@U?$_Tree_node@U?$pair@$$CBHPAVCGraphicImage@@@std@@PAX@std@@@1@QAU?$pair@$$CBHPAVCGraphicImage@@@1@$$QAU?$pair@HPAVCGraphicImage@@@1@@Z PROC ; std::_Default_allocator_traits<std::allocator<std::_Tree_node<std::pair<int const ,CGraphicImage *>,void *> > >::construct<std::pair<int const ,CGraphicImage *>,std::pair<int,CGraphicImage *> >, COMDAT
; ___formal$dead$ = ecx
; __Ptr$ = edx

; 728  :     static _CONSTEXPR20 void construct(_Alloc&, _Objty* const _Ptr, _Types&&... _Args) {

  00000	55		 push	 ebp
  00001	8b ec		 mov	 ebp, esp
; File C:\Program Files\Microsoft Visual Studio\2022\Community\VC\Tools\MSVC\14.44.35207\include\utility

; 303  :         : first(_STD forward<_Other1>(_Right.first)), second(_STD forward<_Other2>(_Right.second)) {}

  00003	8b 4d 08	 mov	 ecx, DWORD PTR _<_Args_0>$[ebp]
  00006	8b 01		 mov	 eax, DWORD PTR [ecx]
  00008	89 02		 mov	 DWORD PTR [edx], eax
  0000a	8b 41 04	 mov	 eax, DWORD PTR [ecx+4]
  0000d	89 42 04	 mov	 DWORD PTR [edx+4], eax
; File C:\Program Files\Microsoft Visual Studio\2022\Community\VC\Tools\MSVC\14.44.35207\include\xmemory

; 734  :     }

  00010	5d		 pop	 ebp
  00011	c3		 ret	 0
??$construct@U?$pair@$$CBHPAVCGraphicImage@@@std@@U?$pair@HPAVCGraphicImage@@@2@@?$_Default_allocator_traits@V?$allocator@U?$_Tree_node@U?$pair@$$CBHPAVCGraphicImage@@@std@@PAX@std@@@std@@@std@@SAXAAV?$allocator@U?$_Tree_node@U?$pair@$$CBHPAVCGraphicImage@@@std@@PAX@std@@@1@QAU?$pair@$$CBHPAVCGraphicImage@@@1@$$QAU?$pair@HPAVCGraphicImage@@@1@@Z ENDP ; std::_Default_allocator_traits<std::allocator<std::_Tree_node<std::pair<int const ,CGraphicImage *>,void *> > >::construct<std::pair<int const ,CGraphicImage *>,std::pair<int,CGraphicImage *> >
_TEXT	ENDS
; Function compile flags: /Ogtp
; File C:\Program Files\Microsoft Visual Studio\2022\Community\VC\Tools\MSVC\14.44.35207\include\type_traits
;	COMDAT ??$forward@AAPAU?$_Tree_node@U?$pair@$$CBHPAVCGraphicImage@@@std@@PAX@std@@@std@@YAAAPAU?$_Tree_node@U?$pair@$$CBHPAVCGraphicImage@@@std@@PAX@0@AAPAU10@@Z
_TEXT	SEGMENT
??$forward@AAPAU?$_Tree_node@U?$pair@$$CBHPAVCGraphicImage@@@std@@PAX@std@@@std@@YAAAPAU?$_Tree_node@U?$pair@$$CBHPAVCGraphicImage@@@std@@PAX@0@AAPAU10@@Z PROC ; std::forward<std::_Tree_node<std::pair<int const ,CGraphicImage *>,void *> * &>, COMDAT
; __Arg$ = ecx

; 1502 :     return static_cast<_Ty&&>(_Arg);

  00000	8b c1		 mov	 eax, ecx

; 1503 : }

  00002	c3		 ret	 0
??$forward@AAPAU?$_Tree_node@U?$pair@$$CBHPAVCGraphicImage@@@std@@PAX@std@@@std@@YAAAPAU?$_Tree_node@U?$pair@$$CBHPAVCGraphicImage@@@std@@PAX@0@AAPAU10@@Z ENDP ; std::forward<std::_Tree_node<std::pair<int const ,CGraphicImage *>,void *> * &>
_TEXT	ENDS
; Function compile flags: /Ogtp
; File C:\Program Files\Microsoft Visual Studio\2022\Community\VC\Tools\MSVC\14.44.35207\include\tuple
;	COMDAT ??$?0U_Exact_args_t@std@@ABH$$V$0A@@?$tuple@ABH@std@@QAE@U_Exact_args_t@1@ABH@Z
_TEXT	SEGMENT
___formal$ = 8						; size = 1
__This_arg$ = 12					; size = 4
??$?0U_Exact_args_t@std@@ABH$$V$0A@@?$tuple@ABH@std@@QAE@U_Exact_args_t@1@ABH@Z PROC ; std::tuple<int const &>::tuple<int const &><std::_Exact_args_t,int const &,0>, COMDAT
; _this$ = ecx

; 301  :         : _Mybase(_Exact_args_t{}, _STD forward<_Rest2>(_Rest_arg)...), _Myfirst(_STD forward<_This2>(_This_arg)) {}

  00000	55		 push	 ebp
  00001	8b ec		 mov	 ebp, esp

; 132  :     constexpr _Tuple_val(_Other&& _Arg) : _Val(_STD forward<_Other>(_Arg)) {}

  00003	8b 45 0c	 mov	 eax, DWORD PTR __This_arg$[ebp]
  00006	89 01		 mov	 DWORD PTR [ecx], eax

; 301  :         : _Mybase(_Exact_args_t{}, _STD forward<_Rest2>(_Rest_arg)...), _Myfirst(_STD forward<_This2>(_This_arg)) {}

  00008	8b c1		 mov	 eax, ecx
  0000a	5d		 pop	 ebp
  0000b	c2 08 00	 ret	 8
??$?0U_Exact_args_t@std@@ABH$$V$0A@@?$tuple@ABH@std@@QAE@U_Exact_args_t@1@ABH@Z ENDP ; std::tuple<int const &>::tuple<int const &><std::_Exact_args_t,int const &,0>
_TEXT	ENDS
; Function compile flags: /Ogtp
; File C:\Program Files\Microsoft Visual Studio\2022\Community\VC\Tools\MSVC\14.44.35207\include\xutility
; File C:\Program Files\Microsoft Visual Studio\2022\Community\VC\Tools\MSVC\14.44.35207\include\tuple
; File C:\Program Files\Microsoft Visual Studio\2022\Community\VC\Tools\MSVC\14.44.35207\include\utility
; File C:\Program Files\Microsoft Visual Studio\2022\Community\VC\Tools\MSVC\14.44.35207\include\xutility
; File C:\Program Files\Microsoft Visual Studio\2022\Community\VC\Tools\MSVC\14.44.35207\include\utility
; File C:\Program Files\Microsoft Visual Studio\2022\Community\VC\Tools\MSVC\14.44.35207\include\xutility
;	COMDAT ??$construct_at@U?$pair@$$CBHPAVCGraphicImage@@@std@@ABUpiecewise_construct_t@2@V?$tuple@ABH@2@V?$tuple@$$V@2@@std@@YAPAU?$pair@$$CBHPAVCGraphicImage@@@0@QAU10@ABUpiecewise_construct_t@0@$$QAV?$tuple@ABH@0@$$QAV?$tuple@$$V@0@@Z
_TEXT	SEGMENT
_<_Args_1>$ = 8						; size = 4
_<_Args_2>$dead$ = 12					; size = 4
??$construct_at@U?$pair@$$CBHPAVCGraphicImage@@@std@@ABUpiecewise_construct_t@2@V?$tuple@ABH@2@V?$tuple@$$V@2@@std@@YAPAU?$pair@$$CBHPAVCGraphicImage@@@0@QAU10@ABUpiecewise_construct_t@0@$$QAV?$tuple@ABH@0@$$QAV?$tuple@$$V@0@@Z PROC ; std::construct_at<std::pair<int const ,CGraphicImage *>,std::piecewise_construct_t const &,std::tuple<int const &>,std::tuple<> >, COMDAT
; __Location$ = ecx
; _<_Args_0>$dead$ = edx

; 462  :     noexcept(noexcept(::new (static_cast<void*>(_Location)) _Ty(_STD forward<_Types>(_Args)...))) /* strengthened */ {

  00000	55		 push	 ebp
  00001	8b ec		 mov	 ebp, esp
; File C:\Program Files\Microsoft Visual Studio\2022\Community\VC\Tools\MSVC\14.44.35207\include\tuple

; 352  :     tuple(tuple&&)      = default;

  00003	8b 45 08	 mov	 eax, DWORD PTR _<_Args_1>$[ebp]
  00006	8b 00		 mov	 eax, DWORD PTR [eax]
; File C:\Program Files\Microsoft Visual Studio\2022\Community\VC\Tools\MSVC\14.44.35207\include\utility

; 478  :         : first(_STD _Tuple_get<_Indices1>(_STD move(_Val1))...),

  00008	8b 00		 mov	 eax, DWORD PTR [eax]
  0000a	89 01		 mov	 DWORD PTR [ecx], eax
; File C:\Program Files\Microsoft Visual Studio\2022\Community\VC\Tools\MSVC\14.44.35207\include\xutility

; 463  :     _MSVC_CONSTEXPR return ::new (static_cast<void*>(_Location)) _Ty(_STD forward<_Types>(_Args)...);

  0000c	8b c1		 mov	 eax, ecx
; File C:\Program Files\Microsoft Visual Studio\2022\Community\VC\Tools\MSVC\14.44.35207\include\utility

; 479  :           second(_STD _Tuple_get<_Indices2>(_STD move(_Val2))...) {}

  0000e	c7 41 04 00 00
	00 00		 mov	 DWORD PTR [ecx+4], 0
; File C:\Program Files\Microsoft Visual Studio\2022\Community\VC\Tools\MSVC\14.44.35207\include\xutility

; 464  : }

  00015	5d		 pop	 ebp
  00016	c3		 ret	 0
??$construct_at@U?$pair@$$CBHPAVCGraphicImage@@@std@@ABUpiecewise_construct_t@2@V?$tuple@ABH@2@V?$tuple@$$V@2@@std@@YAPAU?$pair@$$CBHPAVCGraphicImage@@@0@QAU10@ABUpiecewise_construct_t@0@$$QAV?$tuple@ABH@0@$$QAV?$tuple@$$V@0@@Z ENDP ; std::construct_at<std::pair<int const ,CGraphicImage *>,std::piecewise_construct_t const &,std::tuple<int const &>,std::tuple<> >
_TEXT	ENDS
; Function compile flags: /Ogtp
; File C:\Program Files\Microsoft Visual Studio\2022\Community\VC\Tools\MSVC\14.44.35207\include\type_traits
;	COMDAT ??$addressof@PAU?$_Tree_node@U?$pair@$$CBHPAVCGraphicImage@@@std@@PAX@std@@@std@@YAPAPAU?$_Tree_node@U?$pair@$$CBHPAVCGraphicImage@@@std@@PAX@0@AAPAU10@@Z
_TEXT	SEGMENT
??$addressof@PAU?$_Tree_node@U?$pair@$$CBHPAVCGraphicImage@@@std@@PAX@std@@@std@@YAPAPAU?$_Tree_node@U?$pair@$$CBHPAVCGraphicImage@@@std@@PAX@0@AAPAU10@@Z PROC ; std::addressof<std::_Tree_node<std::pair<int const ,CGraphicImage *>,void *> *>, COMDAT
; __Val$ = ecx

; 1525 :     return __builtin_addressof(_Val);

  00000	8b c1		 mov	 eax, ecx

; 1526 : }

  00002	c3		 ret	 0
??$addressof@PAU?$_Tree_node@U?$pair@$$CBHPAVCGraphicImage@@@std@@PAX@std@@@std@@YAPAPAU?$_Tree_node@U?$pair@$$CBHPAVCGraphicImage@@@std@@PAX@0@AAPAU10@@Z ENDP ; std::addressof<std::_Tree_node<std::pair<int const ,CGraphicImage *>,void *> *>
_TEXT	ENDS
; Function compile flags: /Ogtp
; File C:\Program Files\Microsoft Visual Studio\2022\Community\VC\Tools\MSVC\14.44.35207\include\xutility
;	COMDAT ??$construct_at@PAU?$_Tree_node@U?$pair@$$CBHPAVCGraphicImage@@@std@@PAX@std@@AAPAU12@@std@@YAPAPAU?$_Tree_node@U?$pair@$$CBHPAVCGraphicImage@@@std@@PAX@0@QAPAU10@AAPAU10@@Z
_TEXT	SEGMENT
??$construct_at@PAU?$_Tree_node@U?$pair@$$CBHPAVCGraphicImage@@@std@@PAX@std@@AAPAU12@@std@@YAPAPAU?$_Tree_node@U?$pair@$$CBHPAVCGraphicImage@@@std@@PAX@0@QAPAU10@AAPAU10@@Z PROC ; std::construct_at<std::_Tree_node<std::pair<int const ,CGraphicImage *>,void *> *,std::_Tree_node<std::pair<int const ,CGraphicImage *>,void *> * &>, COMDAT
; __Location$ = ecx
; _<_Args_0>$ = edx

; 463  :     _MSVC_CONSTEXPR return ::new (static_cast<void*>(_Location)) _Ty(_STD forward<_Types>(_Args)...);

  00000	8b 02		 mov	 eax, DWORD PTR [edx]
  00002	89 01		 mov	 DWORD PTR [ecx], eax
  00004	8b c1		 mov	 eax, ecx

; 464  : }

  00006	c3		 ret	 0
??$construct_at@PAU?$_Tree_node@U?$pair@$$CBHPAVCGraphicImage@@@std@@PAX@std@@AAPAU12@@std@@YAPAPAU?$_Tree_node@U?$pair@$$CBHPAVCGraphicImage@@@std@@PAX@0@QAPAU10@AAPAU10@@Z ENDP ; std::construct_at<std::_Tree_node<std::pair<int const ,CGraphicImage *>,void *> *,std::_Tree_node<std::pair<int const ,CGraphicImage *>,void *> * &>
_TEXT	ENDS
; Function compile flags: /Ogtp
; File C:\Program Files\Microsoft Visual Studio\2022\Community\VC\Tools\MSVC\14.44.35207\include\xmemory
;	COMDAT ??$destroy_at@U?$pair@$$CBHPAVCGraphicImage@@@std@@@std@@YAXQAU?$pair@$$CBHPAVCGraphicImage@@@0@@Z
_TEXT	SEGMENT
??$destroy_at@U?$pair@$$CBHPAVCGraphicImage@@@std@@@std@@YAXQAU?$pair@$$CBHPAVCGraphicImage@@@0@@Z PROC ; std::destroy_at<std::pair<int const ,CGraphicImage *> >, COMDAT
; __Location$dead$ = ecx

; 331  : #if _HAS_CXX20
; 332  :     if constexpr (is_array_v<_Ty>) {
; 333  :         _STD _Destroy_range(_STD begin(*_Location), _STD end(*_Location));
; 334  :     } else
; 335  : #endif // _HAS_CXX20
; 336  :     {
; 337  :         _Location->~_Ty();
; 338  :     }
; 339  : }

  00000	c2 00 00	 ret	 0
??$destroy_at@U?$pair@$$CBHPAVCGraphicImage@@@std@@@std@@YAXQAU?$pair@$$CBHPAVCGraphicImage@@@0@@Z ENDP ; std::destroy_at<std::pair<int const ,CGraphicImage *> >
_TEXT	ENDS
; Function compile flags: /Ogtp
; File C:\Program Files\Microsoft Visual Studio\2022\Community\VC\Tools\MSVC\14.44.35207\include\xutility
;	COMDAT ??$_Construct_in_place@PAU?$_Tree_node@U?$pair@$$CBHPAVCGraphicImage@@@std@@PAX@std@@ABQAU12@@std@@YAXAAPAU?$_Tree_node@U?$pair@$$CBHPAVCGraphicImage@@@std@@PAX@0@ABQAU10@@Z
_TEXT	SEGMENT
??$_Construct_in_place@PAU?$_Tree_node@U?$pair@$$CBHPAVCGraphicImage@@@std@@PAX@std@@ABQAU12@@std@@YAXAAPAU?$_Tree_node@U?$pair@$$CBHPAVCGraphicImage@@@std@@PAX@0@ABQAU10@@Z PROC ; std::_Construct_in_place<std::_Tree_node<std::pair<int const ,CGraphicImage *>,void *> *,std::_Tree_node<std::pair<int const ,CGraphicImage *>,void *> * const &>, COMDAT
; __Obj$ = ecx
; _<_Args_0>$ = edx

; 470  : #if _HAS_CXX20
; 471  :     if (_STD is_constant_evaluated()) {
; 472  :         _STD construct_at(_STD addressof(_Obj), _STD forward<_Types>(_Args)...);
; 473  :     } else
; 474  : #endif // _HAS_CXX20
; 475  :     {
; 476  :         ::new (static_cast<void*>(_STD addressof(_Obj))) _Ty(_STD forward<_Types>(_Args)...);
; 477  :     }
; 478  : }

  00000	8b 02		 mov	 eax, DWORD PTR [edx]
  00002	89 01		 mov	 DWORD PTR [ecx], eax
  00004	c3		 ret	 0
??$_Construct_in_place@PAU?$_Tree_node@U?$pair@$$CBHPAVCGraphicImage@@@std@@PAX@std@@ABQAU12@@std@@YAXAAPAU?$_Tree_node@U?$pair@$$CBHPAVCGraphicImage@@@std@@PAX@0@ABQAU10@@Z ENDP ; std::_Construct_in_place<std::_Tree_node<std::pair<int const ,CGraphicImage *>,void *> *,std::_Tree_node<std::pair<int const ,CGraphicImage *>,void *> * const &>
_TEXT	ENDS
; Function compile flags: /Ogtp
; File C:\Program Files\Microsoft Visual Studio\2022\Community\VC\Tools\MSVC\14.44.35207\include\xmemory
;	COMDAT ?_Allocate@?$_Alloc_construct_ptr@V?$allocator@U?$_Tree_node@U?$pair@$$CBHPAVCGraphicImage@@@std@@PAX@std@@@std@@@std@@QAEXXZ
_TEXT	SEGMENT
?_Allocate@?$_Alloc_construct_ptr@V?$allocator@U?$_Tree_node@U?$pair@$$CBHPAVCGraphicImage@@@std@@PAX@std@@@std@@@std@@QAEXXZ PROC ; std::_Alloc_construct_ptr<std::allocator<std::_Tree_node<std::pair<int const ,CGraphicImage *>,void *> > >::_Allocate, COMDAT
; _this$ = ecx

; 1166 :     _CONSTEXPR20 void _Allocate() { // disengage *this, then allocate a new memory block

  00000	56		 push	 esi
  00001	8b f1		 mov	 esi, ecx

; 136  :         return ::operator new(_Bytes);

  00003	6a 18		 push	 24			; 00000018H

; 1167 :         _Ptr = nullptr; // if allocate throws, prevents double-free

  00005	c7 46 04 00 00
	00 00		 mov	 DWORD PTR [esi+4], 0

; 136  :         return ::operator new(_Bytes);

  0000c	e8 00 00 00 00	 call	 ??2@YAPAXI@Z		; operator new
  00011	83 c4 04	 add	 esp, 4

; 1168 :         _Ptr = _Al.allocate(1);

  00014	89 46 04	 mov	 DWORD PTR [esi+4], eax
  00017	5e		 pop	 esi

; 1169 :     }

  00018	c3		 ret	 0
?_Allocate@?$_Alloc_construct_ptr@V?$allocator@U?$_Tree_node@U?$pair@$$CBHPAVCGraphicImage@@@std@@PAX@std@@@std@@@std@@QAEXXZ ENDP ; std::_Alloc_construct_ptr<std::allocator<std::_Tree_node<std::pair<int const ,CGraphicImage *>,void *> > >::_Allocate
_TEXT	ENDS
; Function compile flags: /Ogtp
; File C:\Program Files\Microsoft Visual Studio\2022\Community\VC\Tools\MSVC\14.44.35207\include\xmemory
;	COMDAT ??0?$_Alloc_construct_ptr@V?$allocator@U?$_Tree_node@U?$pair@$$CBHPAVCGraphicImage@@@std@@PAX@std@@@std@@@std@@QAE@AAV?$allocator@U?$_Tree_node@U?$pair@$$CBHPAVCGraphicImage@@@std@@PAX@std@@@1@@Z
_TEXT	SEGMENT
__Al_$ = 8						; size = 4
??0?$_Alloc_construct_ptr@V?$allocator@U?$_Tree_node@U?$pair@$$CBHPAVCGraphicImage@@@std@@PAX@std@@@std@@@std@@QAE@AAV?$allocator@U?$_Tree_node@U?$pair@$$CBHPAVCGraphicImage@@@std@@PAX@std@@@1@@Z PROC ; std::_Alloc_construct_ptr<std::allocator<std::_Tree_node<std::pair<int const ,CGraphicImage *>,void *> > >::_Alloc_construct_ptr<std::allocator<std::_Tree_node<std::pair<int const ,CGraphicImage *>,void *> > >, COMDAT
; _this$ = ecx

; 1160 :     _CONSTEXPR20 explicit _Alloc_construct_ptr(_Alloc& _Al_) : _Al(_Al_), _Ptr(nullptr) {}

  00000	55		 push	 ebp
  00001	8b ec		 mov	 ebp, esp
  00003	8b 45 08	 mov	 eax, DWORD PTR __Al_$[ebp]
  00006	89 01		 mov	 DWORD PTR [ecx], eax
  00008	8b c1		 mov	 eax, ecx
  0000a	c7 41 04 00 00
	00 00		 mov	 DWORD PTR [ecx+4], 0
  00011	5d		 pop	 ebp
  00012	c2 04 00	 ret	 4
??0?$_Alloc_construct_ptr@V?$allocator@U?$_Tree_node@U?$pair@$$CBHPAVCGraphicImage@@@std@@PAX@std@@@std@@@std@@QAE@AAV?$allocator@U?$_Tree_node@U?$pair@$$CBHPAVCGraphicImage@@@std@@PAX@std@@@1@@Z ENDP ; std::_Alloc_construct_ptr<std::allocator<std::_Tree_node<std::pair<int const ,CGraphicImage *>,void *> > >::_Alloc_construct_ptr<std::allocator<std::_Tree_node<std::pair<int const ,CGraphicImage *>,void *> > >
_TEXT	ENDS
; Function compile flags: /Ogtp
; File C:\Program Files\Microsoft Visual Studio\2022\Community\VC\Tools\MSVC\14.44.35207\include\xmemory
;	COMDAT ?_Get_first@?$_Compressed_pair@U?$less@H@std@@V?$_Compressed_pair@V?$allocator@U?$_Tree_node@U?$pair@$$CBHPAVCGraphicImage@@@std@@PAX@std@@@std@@V?$_Tree_val@U?$_Tree_simple_types@U?$pair@$$CBHPAVCGraphicImage@@@std@@@std@@@2@$00@2@$00@std@@QBEABU?$less@H@2@XZ
_TEXT	SEGMENT
?_Get_first@?$_Compressed_pair@U?$less@H@std@@V?$_Compressed_pair@V?$allocator@U?$_Tree_node@U?$pair@$$CBHPAVCGraphicImage@@@std@@PAX@std@@@std@@V?$_Tree_val@U?$_Tree_simple_types@U?$pair@$$CBHPAVCGraphicImage@@@std@@@std@@@2@$00@2@$00@std@@QBEABU?$less@H@2@XZ PROC ; std::_Compressed_pair<std::less<int>,std::_Compressed_pair<std::allocator<std::_Tree_node<std::pair<int const ,CGraphicImage *>,void *> >,std::_Tree_val<std::_Tree_simple_types<std::pair<int const ,CGraphicImage *> > >,1>,1>::_Get_first, COMDAT
; _this$dead$ = ecx

; 1543 :         return *this;

  00000	b8 00 00 00 00	 mov	 eax, OFFSET ?m_kMap_iEmotionIndex_pkIconImage@@3V?$map@HPAVCGraphicImage@@U?$less@H@std@@V?$allocator@U?$pair@$$CBHPAVCGraphicImage@@@std@@@3@@std@@A ; m_kMap_iEmotionIndex_pkIconImage

; 1544 :     }

  00005	c3		 ret	 0
?_Get_first@?$_Compressed_pair@U?$less@H@std@@V?$_Compressed_pair@V?$allocator@U?$_Tree_node@U?$pair@$$CBHPAVCGraphicImage@@@std@@PAX@std@@@std@@V?$_Tree_val@U?$_Tree_simple_types@U?$pair@$$CBHPAVCGraphicImage@@@std@@@std@@@2@$00@2@$00@std@@QBEABU?$less@H@2@XZ ENDP ; std::_Compressed_pair<std::less<int>,std::_Compressed_pair<std::allocator<std::_Tree_node<std::pair<int const ,CGraphicImage *>,void *> >,std::_Tree_val<std::_Tree_simple_types<std::pair<int const ,CGraphicImage *> > >,1>,1>::_Get_first
_TEXT	ENDS
; Function compile flags: /Ogtp
; File C:\Program Files\Microsoft Visual Studio\2022\Community\VC\Tools\MSVC\14.44.35207\include\xtree
;	COMDAT ??0?$_Tree_val@U?$_Tree_simple_types@U?$pair@$$CBHPAVCGraphicImage@@@std@@@std@@@std@@QAE@XZ
_TEXT	SEGMENT
??0?$_Tree_val@U?$_Tree_simple_types@U?$pair@$$CBHPAVCGraphicImage@@@std@@@std@@@std@@QAE@XZ PROC ; std::_Tree_val<std::_Tree_simple_types<std::pair<int const ,CGraphicImage *> > >::_Tree_val<std::_Tree_simple_types<std::pair<int const ,CGraphicImage *> > >, COMDAT
; _this$dead$ = ecx

; 450  :     _Tree_val() noexcept : _Myhead(), _Mysize(0) {}

  00000	c7 05 00 00 00
	00 00 00 00 00	 mov	 DWORD PTR ?m_kMap_iEmotionIndex_pkIconImage@@3V?$map@HPAVCGraphicImage@@U?$less@H@std@@V?$allocator@U?$pair@$$CBHPAVCGraphicImage@@@std@@@3@@std@@A, 0
  0000a	b8 00 00 00 00	 mov	 eax, OFFSET ?m_kMap_iEmotionIndex_pkIconImage@@3V?$map@HPAVCGraphicImage@@U?$less@H@std@@V?$allocator@U?$pair@$$CBHPAVCGraphicImage@@@std@@@3@@std@@A ; m_kMap_iEmotionIndex_pkIconImage
  0000f	c7 05 04 00 00
	00 00 00 00 00	 mov	 DWORD PTR ?m_kMap_iEmotionIndex_pkIconImage@@3V?$map@HPAVCGraphicImage@@U?$less@H@std@@V?$allocator@U?$pair@$$CBHPAVCGraphicImage@@@std@@@3@@std@@A+4, 0
  00019	c3		 ret	 0
??0?$_Tree_val@U?$_Tree_simple_types@U?$pair@$$CBHPAVCGraphicImage@@@std@@@std@@@std@@QAE@XZ ENDP ; std::_Tree_val<std::_Tree_simple_types<std::pair<int const ,CGraphicImage *> > >::_Tree_val<std::_Tree_simple_types<std::pair<int const ,CGraphicImage *> > >
_TEXT	ENDS
; Function compile flags: /Ogtp
; File C:\Program Files\Microsoft Visual Studio\2022\Community\VC\Tools\MSVC\14.44.35207\include\xmemory
;	COMDAT ?max_size@?$_Default_allocator_traits@V?$allocator@U?$_Tree_node@U?$pair@$$CBHPAVCGraphicImage@@@std@@PAX@std@@@std@@@std@@SAIABV?$allocator@U?$_Tree_node@U?$pair@$$CBHPAVCGraphicImage@@@std@@PAX@std@@@2@@Z
_TEXT	SEGMENT
?max_size@?$_Default_allocator_traits@V?$allocator@U?$_Tree_node@U?$pair@$$CBHPAVCGraphicImage@@@std@@PAX@std@@@std@@@std@@SAIABV?$allocator@U?$_Tree_node@U?$pair@$$CBHPAVCGraphicImage@@@std@@PAX@std@@@2@@Z PROC ; std::_Default_allocator_traits<std::allocator<std::_Tree_node<std::pair<int const ,CGraphicImage *>,void *> > >::max_size, COMDAT
; ___formal$dead$ = ecx

; 746  :         return static_cast<size_t>(-1) / sizeof(value_type);

  00000	b8 aa aa aa 0a	 mov	 eax, 178956970		; 0aaaaaaaH

; 747  :     }

  00005	c3		 ret	 0
?max_size@?$_Default_allocator_traits@V?$allocator@U?$_Tree_node@U?$pair@$$CBHPAVCGraphicImage@@@std@@PAX@std@@@std@@@std@@SAIABV?$allocator@U?$_Tree_node@U?$pair@$$CBHPAVCGraphicImage@@@std@@PAX@std@@@2@@Z ENDP ; std::_Default_allocator_traits<std::allocator<std::_Tree_node<std::pair<int const ,CGraphicImage *>,void *> > >::max_size
_TEXT	ENDS
; Function compile flags: /Ogtp
; File C:\Program Files\Microsoft Visual Studio\2022\Community\VC\Tools\MSVC\14.44.35207\include\xmemory
;	COMDAT ?allocate@?$allocator@U?$_Tree_node@U?$pair@$$CBHPAVCGraphicImage@@@std@@PAX@std@@@std@@QAEPAU?$_Tree_node@U?$pair@$$CBHPAVCGraphicImage@@@std@@PAX@2@I@Z
_TEXT	SEGMENT
__Count$dead$ = 8					; size = 4
?allocate@?$allocator@U?$_Tree_node@U?$pair@$$CBHPAVCGraphicImage@@@std@@PAX@std@@@std@@QAEPAU?$_Tree_node@U?$pair@$$CBHPAVCGraphicImage@@@std@@PAX@2@I@Z PROC ; std::allocator<std::_Tree_node<std::pair<int const ,CGraphicImage *>,void *> >::allocate, COMDAT
; _this$dead$ = ecx

; 136  :         return ::operator new(_Bytes);

  00000	6a 18		 push	 24			; 00000018H
  00002	e8 00 00 00 00	 call	 ??2@YAPAXI@Z		; operator new
  00007	83 c4 04	 add	 esp, 4

; 989  :         static_assert(sizeof(value_type) > 0, "value_type must be complete before calling allocate.");
; 990  :         return static_cast<_Ty*>(_STD _Allocate<_New_alignof<_Ty>>(_Get_size_of_n<sizeof(_Ty)>(_Count)));
; 991  :     }

  0000a	c2 04 00	 ret	 4
?allocate@?$allocator@U?$_Tree_node@U?$pair@$$CBHPAVCGraphicImage@@@std@@PAX@std@@@std@@QAEPAU?$_Tree_node@U?$pair@$$CBHPAVCGraphicImage@@@std@@PAX@2@I@Z ENDP ; std::allocator<std::_Tree_node<std::pair<int const ,CGraphicImage *>,void *> >::allocate
_TEXT	ENDS
; Function compile flags: /Ogtp
; File C:\Program Files\Microsoft Visual Studio\2022\Community\VC\Tools\MSVC\14.44.35207\include\xmemory
;	COMDAT ?deallocate@?$allocator@U?$_Tree_node@U?$pair@$$CBHPAVCGraphicImage@@@std@@PAX@std@@@std@@QAEXQAU?$_Tree_node@U?$pair@$$CBHPAVCGraphicImage@@@std@@PAX@2@I@Z
_TEXT	SEGMENT
__Ptr$ = 8						; size = 4
__Count$dead$ = 12					; size = 4
?deallocate@?$allocator@U?$_Tree_node@U?$pair@$$CBHPAVCGraphicImage@@@std@@PAX@std@@@std@@QAEXQAU?$_Tree_node@U?$pair@$$CBHPAVCGraphicImage@@@std@@PAX@2@I@Z PROC ; std::allocator<std::_Tree_node<std::pair<int const ,CGraphicImage *>,void *> >::deallocate, COMDAT
; _this$dead$ = ecx

; 982  :     _CONSTEXPR20 void deallocate(_Ty* const _Ptr, const size_t _Count) noexcept /* strengthened */ {

  00000	55		 push	 ebp
  00001	8b ec		 mov	 ebp, esp

; 289  :         ::operator delete(_Ptr, _Bytes);

  00003	6a 18		 push	 24			; 00000018H
  00005	ff 75 08	 push	 DWORD PTR __Ptr$[ebp]
  00008	e8 00 00 00 00	 call	 ??3@YAXPAXI@Z		; operator delete
  0000d	83 c4 08	 add	 esp, 8

; 983  :         _STL_ASSERT(_Ptr != nullptr || _Count == 0, "null pointer cannot point to a block of non-zero size");
; 984  :         // no overflow check on the following multiply; we assume _Allocate did that check
; 985  :         _STD _Deallocate<_New_alignof<_Ty>>(_Ptr, sizeof(_Ty) * _Count);
; 986  :     }

  00010	5d		 pop	 ebp
  00011	c2 08 00	 ret	 8
?deallocate@?$allocator@U?$_Tree_node@U?$pair@$$CBHPAVCGraphicImage@@@std@@PAX@std@@@std@@QAEXQAU?$_Tree_node@U?$pair@$$CBHPAVCGraphicImage@@@std@@PAX@2@I@Z ENDP ; std::allocator<std::_Tree_node<std::pair<int const ,CGraphicImage *>,void *> >::deallocate
_TEXT	ENDS
; Function compile flags: /Ogtp
; File C:\Program Files\Microsoft Visual Studio\2022\Community\VC\Tools\MSVC\14.44.35207\include\xmemory
;	COMDAT ??0?$allocator@U?$_Tree_node@U?$pair@$$CBHPAVCGraphicImage@@@std@@PAX@std@@@std@@QAE@XZ
_TEXT	SEGMENT
??0?$allocator@U?$_Tree_node@U?$pair@$$CBHPAVCGraphicImage@@@std@@PAX@std@@@std@@QAE@XZ PROC ; std::allocator<std::_Tree_node<std::pair<int const ,CGraphicImage *>,void *> >::allocator<std::_Tree_node<std::pair<int const ,CGraphicImage *>,void *> >, COMDAT
; _this$dead$ = ecx

; 974  :     constexpr allocator() noexcept {}

  00000	b8 00 00 00 00	 mov	 eax, OFFSET ?m_kMap_iEmotionIndex_pkIconImage@@3V?$map@HPAVCGraphicImage@@U?$less@H@std@@V?$allocator@U?$pair@$$CBHPAVCGraphicImage@@@std@@@3@@std@@A ; m_kMap_iEmotionIndex_pkIconImage
  00005	c3		 ret	 0
??0?$allocator@U?$_Tree_node@U?$pair@$$CBHPAVCGraphicImage@@@std@@PAX@std@@@std@@QAE@XZ ENDP ; std::allocator<std::_Tree_node<std::pair<int const ,CGraphicImage *>,void *> >::allocator<std::_Tree_node<std::pair<int const ,CGraphicImage *>,void *> >
_TEXT	ENDS
; Function compile flags: /Ogtp
; File C:\Program Files\Microsoft Visual Studio\2022\Community\VC\Tools\MSVC\14.44.35207\include\xtree
;	COMDAT ?_Getal@?$_Tree@V?$_Tmap_traits@HPAVCGraphicImage@@U?$less@H@std@@V?$allocator@U?$pair@$$CBHPAVCGraphicImage@@@std@@@3@$0A@@std@@@std@@IBEABV?$allocator@U?$_Tree_node@U?$pair@$$CBHPAVCGraphicImage@@@std@@PAX@std@@@2@XZ
_TEXT	SEGMENT
?_Getal@?$_Tree@V?$_Tmap_traits@HPAVCGraphicImage@@U?$less@H@std@@V?$allocator@U?$pair@$$CBHPAVCGraphicImage@@@std@@@3@$0A@@std@@@std@@IBEABV?$allocator@U?$_Tree_node@U?$pair@$$CBHPAVCGraphicImage@@@std@@PAX@std@@@2@XZ PROC ; std::_Tree<std::_Tmap_traits<int,CGraphicImage *,std::less<int>,std::allocator<std::pair<int const ,CGraphicImage *> >,0> >::_Getal, COMDAT
; _this$dead$ = ecx

; 1979 :         return _Mypair._Myval2._Get_first();

  00000	b8 00 00 00 00	 mov	 eax, OFFSET ?m_kMap_iEmotionIndex_pkIconImage@@3V?$map@HPAVCGraphicImage@@U?$less@H@std@@V?$allocator@U?$pair@$$CBHPAVCGraphicImage@@@std@@@3@@std@@A ; m_kMap_iEmotionIndex_pkIconImage

; 1980 :     }

  00005	c3		 ret	 0
?_Getal@?$_Tree@V?$_Tmap_traits@HPAVCGraphicImage@@U?$less@H@std@@V?$allocator@U?$pair@$$CBHPAVCGraphicImage@@@std@@@3@$0A@@std@@@std@@IBEABV?$allocator@U?$_Tree_node@U?$pair@$$CBHPAVCGraphicImage@@@std@@PAX@std@@@2@XZ ENDP ; std::_Tree<std::_Tmap_traits<int,CGraphicImage *,std::less<int>,std::allocator<std::pair<int const ,CGraphicImage *> >,0> >::_Getal
_TEXT	ENDS
; Function compile flags: /Ogtp
; File C:\Program Files\Microsoft Visual Studio\2022\Community\VC\Tools\MSVC\14.44.35207\include\tuple
;	COMDAT ??0?$tuple@ABH@std@@QAE@$$QAV01@@Z
_TEXT	SEGMENT
___that$ = 8						; size = 4
??0?$tuple@ABH@std@@QAE@$$QAV01@@Z PROC			; std::tuple<int const &>::tuple<int const &>, COMDAT
; _this$ = ecx

; 352  :     tuple(tuple&&)      = default;

  00000	55		 push	 ebp
  00001	8b ec		 mov	 ebp, esp
  00003	8b 45 08	 mov	 eax, DWORD PTR ___that$[ebp]
  00006	8b 00		 mov	 eax, DWORD PTR [eax]
  00008	89 01		 mov	 DWORD PTR [ecx], eax
  0000a	8b c1		 mov	 eax, ecx
  0000c	5d		 pop	 ebp
  0000d	c2 04 00	 ret	 4
??0?$tuple@ABH@std@@QAE@$$QAV01@@Z ENDP			; std::tuple<int const &>::tuple<int const &>
_TEXT	ENDS
; Function compile flags: /Ogtp
; File C:\Program Files\Microsoft Visual Studio\2022\Community\VC\Tools\MSVC\14.44.35207\include\utility
;	COMDAT ??$?0ABH$$Z$$V@?$pair@$$CBHPAVCGraphicImage@@@std@@QAE@Upiecewise_construct_t@1@V?$tuple@ABH@1@V?$tuple@$$V@1@@Z
_TEXT	SEGMENT
___formal$ = 8						; size = 1
__Val1$ = 12						; size = 4
__Val2$ = 16						; size = 1
??$?0ABH$$Z$$V@?$pair@$$CBHPAVCGraphicImage@@@std@@QAE@Upiecewise_construct_t@1@V?$tuple@ABH@1@V?$tuple@$$V@1@@Z PROC ; std::pair<int const ,CGraphicImage *>::pair<int const ,CGraphicImage *><int const &>, COMDAT
; _this$ = ecx

; 331  :         : pair(_Val1, _Val2, index_sequence_for<_Types1...>{}, index_sequence_for<_Types2...>{}) {}

  00000	55		 push	 ebp
  00001	8b ec		 mov	 ebp, esp

; 478  :         : first(_STD _Tuple_get<_Indices1>(_STD move(_Val1))...),

  00003	8b 45 0c	 mov	 eax, DWORD PTR __Val1$[ebp]
  00006	8b 00		 mov	 eax, DWORD PTR [eax]
  00008	89 01		 mov	 DWORD PTR [ecx], eax

; 331  :         : pair(_Val1, _Val2, index_sequence_for<_Types1...>{}, index_sequence_for<_Types2...>{}) {}

  0000a	8b c1		 mov	 eax, ecx

; 479  :           second(_STD _Tuple_get<_Indices2>(_STD move(_Val2))...) {}

  0000c	c7 41 04 00 00
	00 00		 mov	 DWORD PTR [ecx+4], 0

; 331  :         : pair(_Val1, _Val2, index_sequence_for<_Types1...>{}, index_sequence_for<_Types2...>{}) {}

  00013	5d		 pop	 ebp
  00014	c2 0c 00	 ret	 12			; 0000000cH
??$?0ABH$$Z$$V@?$pair@$$CBHPAVCGraphicImage@@@std@@QAE@Upiecewise_construct_t@1@V?$tuple@ABH@1@V?$tuple@$$V@1@@Z ENDP ; std::pair<int const ,CGraphicImage *>::pair<int const ,CGraphicImage *><int const &>
_TEXT	ENDS
; Function compile flags: /Ogtp
; File C:\Program Files\Microsoft Visual Studio\2022\Community\VC\Tools\MSVC\14.44.35207\include\xutility
; File C:\Program Files\Microsoft Visual Studio\2022\Community\VC\Tools\MSVC\14.44.35207\include\utility
; File C:\Program Files\Microsoft Visual Studio\2022\Community\VC\Tools\MSVC\14.44.35207\include\xutility
;	COMDAT ??$construct_at@U?$pair@$$CBHPAVCGraphicImage@@@std@@U?$pair@HPAVCGraphicImage@@@2@@std@@YAPAU?$pair@$$CBHPAVCGraphicImage@@@0@QAU10@$$QAU?$pair@HPAVCGraphicImage@@@0@@Z
_TEXT	SEGMENT
??$construct_at@U?$pair@$$CBHPAVCGraphicImage@@@std@@U?$pair@HPAVCGraphicImage@@@2@@std@@YAPAU?$pair@$$CBHPAVCGraphicImage@@@0@QAU10@$$QAU?$pair@HPAVCGraphicImage@@@0@@Z PROC ; std::construct_at<std::pair<int const ,CGraphicImage *>,std::pair<int,CGraphicImage *> >, COMDAT
; __Location$ = ecx
; _<_Args_0>$ = edx
; File C:\Program Files\Microsoft Visual Studio\2022\Community\VC\Tools\MSVC\14.44.35207\include\utility

; 303  :         : first(_STD forward<_Other1>(_Right.first)), second(_STD forward<_Other2>(_Right.second)) {}

  00000	8b 02		 mov	 eax, DWORD PTR [edx]
  00002	89 01		 mov	 DWORD PTR [ecx], eax
  00004	8b 42 04	 mov	 eax, DWORD PTR [edx+4]
  00007	89 41 04	 mov	 DWORD PTR [ecx+4], eax
; File C:\Program Files\Microsoft Visual Studio\2022\Community\VC\Tools\MSVC\14.44.35207\include\xutility

; 463  :     _MSVC_CONSTEXPR return ::new (static_cast<void*>(_Location)) _Ty(_STD forward<_Types>(_Args)...);

  0000a	8b c1		 mov	 eax, ecx

; 464  : }

  0000c	c3		 ret	 0
??$construct_at@U?$pair@$$CBHPAVCGraphicImage@@@std@@U?$pair@HPAVCGraphicImage@@@2@@std@@YAPAU?$pair@$$CBHPAVCGraphicImage@@@0@QAU10@$$QAU?$pair@HPAVCGraphicImage@@@0@@Z ENDP ; std::construct_at<std::pair<int const ,CGraphicImage *>,std::pair<int,CGraphicImage *> >
_TEXT	ENDS
; Function compile flags: /Ogtp
; File C:\Program Files\Microsoft Visual Studio\2022\Community\VC\Tools\MSVC\14.44.35207\include\tuple
;	COMDAT ??$?0ABH@?$_Tuple_val@ABH@std@@QAE@ABH@Z
_TEXT	SEGMENT
__Arg$ = 8						; size = 4
??$?0ABH@?$_Tuple_val@ABH@std@@QAE@ABH@Z PROC		; std::_Tuple_val<int const &>::_Tuple_val<int const &><int const &>, COMDAT
; _this$ = ecx

; 132  :     constexpr _Tuple_val(_Other&& _Arg) : _Val(_STD forward<_Other>(_Arg)) {}

  00000	55		 push	 ebp
  00001	8b ec		 mov	 ebp, esp
  00003	8b 45 08	 mov	 eax, DWORD PTR __Arg$[ebp]
  00006	89 01		 mov	 DWORD PTR [ecx], eax
  00008	8b c1		 mov	 eax, ecx
  0000a	5d		 pop	 ebp
  0000b	c2 04 00	 ret	 4
??$?0ABH@?$_Tuple_val@ABH@std@@QAE@ABH@Z ENDP		; std::_Tuple_val<int const &>::_Tuple_val<int const &><int const &>
_TEXT	ENDS
; Function compile flags: /Ogtp
; File C:\Program Files\Microsoft Visual Studio\2022\Community\VC\Tools\MSVC\14.44.35207\include\xutility
;	COMDAT ??$construct_at@PAU?$_Tree_node@U?$pair@$$CBHPAVCGraphicImage@@@std@@PAX@std@@ABQAU12@@std@@YAPAPAU?$_Tree_node@U?$pair@$$CBHPAVCGraphicImage@@@std@@PAX@0@QAPAU10@ABQAU10@@Z
_TEXT	SEGMENT
??$construct_at@PAU?$_Tree_node@U?$pair@$$CBHPAVCGraphicImage@@@std@@PAX@std@@ABQAU12@@std@@YAPAPAU?$_Tree_node@U?$pair@$$CBHPAVCGraphicImage@@@std@@PAX@0@QAPAU10@ABQAU10@@Z PROC ; std::construct_at<std::_Tree_node<std::pair<int const ,CGraphicImage *>,void *> *,std::_Tree_node<std::pair<int const ,CGraphicImage *>,void *> * const &>, COMDAT
; __Location$ = ecx
; _<_Args_0>$ = edx

; 463  :     _MSVC_CONSTEXPR return ::new (static_cast<void*>(_Location)) _Ty(_STD forward<_Types>(_Args)...);

  00000	8b 02		 mov	 eax, DWORD PTR [edx]
  00002	89 01		 mov	 DWORD PTR [ecx], eax
  00004	8b c1		 mov	 eax, ecx

; 464  : }

  00006	c3		 ret	 0
??$construct_at@PAU?$_Tree_node@U?$pair@$$CBHPAVCGraphicImage@@@std@@PAX@std@@ABQAU12@@std@@YAPAPAU?$_Tree_node@U?$pair@$$CBHPAVCGraphicImage@@@std@@PAX@0@QAPAU10@ABQAU10@@Z ENDP ; std::construct_at<std::_Tree_node<std::pair<int const ,CGraphicImage *>,void *> *,std::_Tree_node<std::pair<int const ,CGraphicImage *>,void *> * const &>
_TEXT	ENDS
; Function compile flags: /Ogtp
; File C:\Program Files\Microsoft Visual Studio\2022\Community\VC\Tools\MSVC\14.44.35207\include\xmemory
;	COMDAT ?_Get_first@?$_Compressed_pair@V?$allocator@U?$_Tree_node@U?$pair@$$CBHPAVCGraphicImage@@@std@@PAX@std@@@std@@V?$_Tree_val@U?$_Tree_simple_types@U?$pair@$$CBHPAVCGraphicImage@@@std@@@std@@@2@$00@std@@QBEABV?$allocator@U?$_Tree_node@U?$pair@$$CBHPAVCGraphicImage@@@std@@PAX@std@@@2@XZ
_TEXT	SEGMENT
?_Get_first@?$_Compressed_pair@V?$allocator@U?$_Tree_node@U?$pair@$$CBHPAVCGraphicImage@@@std@@PAX@std@@@std@@V?$_Tree_val@U?$_Tree_simple_types@U?$pair@$$CBHPAVCGraphicImage@@@std@@@std@@@2@$00@std@@QBEABV?$allocator@U?$_Tree_node@U?$pair@$$CBHPAVCGraphicImage@@@std@@PAX@std@@@2@XZ PROC ; std::_Compressed_pair<std::allocator<std::_Tree_node<std::pair<int const ,CGraphicImage *>,void *> >,std::_Tree_val<std::_Tree_simple_types<std::pair<int const ,CGraphicImage *> > >,1>::_Get_first, COMDAT
; _this$dead$ = ecx

; 1543 :         return *this;

  00000	b8 00 00 00 00	 mov	 eax, OFFSET ?m_kMap_iEmotionIndex_pkIconImage@@3V?$map@HPAVCGraphicImage@@U?$less@H@std@@V?$allocator@U?$pair@$$CBHPAVCGraphicImage@@@std@@@3@@std@@A ; m_kMap_iEmotionIndex_pkIconImage

; 1544 :     }

  00005	c3		 ret	 0
?_Get_first@?$_Compressed_pair@V?$allocator@U?$_Tree_node@U?$pair@$$CBHPAVCGraphicImage@@@std@@PAX@std@@@std@@V?$_Tree_val@U?$_Tree_simple_types@U?$pair@$$CBHPAVCGraphicImage@@@std@@@std@@@2@$00@std@@QBEABV?$allocator@U?$_Tree_node@U?$pair@$$CBHPAVCGraphicImage@@@std@@PAX@std@@@2@XZ ENDP ; std::_Compressed_pair<std::allocator<std::_Tree_node<std::pair<int const ,CGraphicImage *>,void *> >,std::_Tree_val<std::_Tree_simple_types<std::pair<int const ,CGraphicImage *> > >,1>::_Get_first
_TEXT	ENDS
; Function compile flags: /Ogtp
; File C:\Program Files\Microsoft Visual Studio\2022\Community\VC\Tools\MSVC\14.44.35207\include\utility
;	COMDAT ??$?0HPAVCGraphicImage@@$0A@@?$pair@$$CBHPAVCGraphicImage@@@std@@QAE@$$QAU?$pair@HPAVCGraphicImage@@@1@@Z
_TEXT	SEGMENT
__Right$ = 8						; size = 4
??$?0HPAVCGraphicImage@@$0A@@?$pair@$$CBHPAVCGraphicImage@@@std@@QAE@$$QAU?$pair@HPAVCGraphicImage@@@1@@Z PROC ; std::pair<int const ,CGraphicImage *>::pair<int const ,CGraphicImage *><int,CGraphicImage *,0>, COMDAT
; _this$ = ecx

; 303  :         : first(_STD forward<_Other1>(_Right.first)), second(_STD forward<_Other2>(_Right.second)) {}

  00000	55		 push	 ebp
  00001	8b ec		 mov	 ebp, esp
  00003	8b 55 08	 mov	 edx, DWORD PTR __Right$[ebp]
  00006	8b 02		 mov	 eax, DWORD PTR [edx]
  00008	89 01		 mov	 DWORD PTR [ecx], eax
  0000a	8b 42 04	 mov	 eax, DWORD PTR [edx+4]
  0000d	89 41 04	 mov	 DWORD PTR [ecx+4], eax
  00010	8b c1		 mov	 eax, ecx
  00012	5d		 pop	 ebp
  00013	c2 04 00	 ret	 4
??$?0HPAVCGraphicImage@@$0A@@?$pair@$$CBHPAVCGraphicImage@@@std@@QAE@$$QAU?$pair@HPAVCGraphicImage@@@1@@Z ENDP ; std::pair<int const ,CGraphicImage *>::pair<int const ,CGraphicImage *><int,CGraphicImage *,0>
_TEXT	ENDS
; Function compile flags: /Ogtp
; File C:\Program Files\Microsoft Visual Studio\2022\Community\VC\Tools\MSVC\14.44.35207\include\utility
;	COMDAT ??$?0V?$tuple@ABH@std@@V?$tuple@$$V@1@$0A@$$Z$S@?$pair@$$CBHPAVCGraphicImage@@@std@@AAE@AAV?$tuple@ABH@1@AAV?$tuple@$$V@1@U?$integer_sequence@I$0A@@1@U?$integer_sequence@I$S@1@@Z
_TEXT	SEGMENT
__Val1$ = 8						; size = 4
__Val2$dead$ = 12					; size = 4
___formal$ = 16						; size = 1
___formal$ = 20						; size = 1
??$?0V?$tuple@ABH@std@@V?$tuple@$$V@1@$0A@$$Z$S@?$pair@$$CBHPAVCGraphicImage@@@std@@AAE@AAV?$tuple@ABH@1@AAV?$tuple@$$V@1@U?$integer_sequence@I$0A@@1@U?$integer_sequence@I$S@1@@Z PROC ; std::pair<int const ,CGraphicImage *>::pair<int const ,CGraphicImage *><std::tuple<int const &>,std::tuple<>,0>, COMDAT
; _this$ = ecx

; 478  :         : first(_STD _Tuple_get<_Indices1>(_STD move(_Val1))...),

  00000	55		 push	 ebp
  00001	8b ec		 mov	 ebp, esp
  00003	8b 45 08	 mov	 eax, DWORD PTR __Val1$[ebp]
  00006	8b 00		 mov	 eax, DWORD PTR [eax]
  00008	8b 00		 mov	 eax, DWORD PTR [eax]
  0000a	89 01		 mov	 DWORD PTR [ecx], eax

; 479  :           second(_STD _Tuple_get<_Indices2>(_STD move(_Val2))...) {}

  0000c	8b c1		 mov	 eax, ecx
  0000e	c7 41 04 00 00
	00 00		 mov	 DWORD PTR [ecx+4], 0
  00015	5d		 pop	 ebp
  00016	c2 10 00	 ret	 16			; 00000010H
??$?0V?$tuple@ABH@std@@V?$tuple@$$V@1@$0A@$$Z$S@?$pair@$$CBHPAVCGraphicImage@@@std@@AAE@AAV?$tuple@ABH@1@AAV?$tuple@$$V@1@U?$integer_sequence@I$0A@@1@U?$integer_sequence@I$S@1@@Z ENDP ; std::pair<int const ,CGraphicImage *>::pair<int const ,CGraphicImage *><std::tuple<int const &>,std::tuple<>,0>
_TEXT	ENDS
; Function compile flags: /Ogtp
; File C:\Program Files\Microsoft Visual Studio\2022\Community\VC\Tools\MSVC\14.44.35207\include\tuple
;	COMDAT ??$_Tuple_get@$0A@ABH@std@@YA$$QA_P$$QAV?$tuple@ABH@0@@Z
_TEXT	SEGMENT
??$_Tuple_get@$0A@ABH@std@@YA$$QA_P$$QAV?$tuple@ABH@0@@Z PROC ; std::_Tuple_get<0,int const &>, COMDAT
; __Tuple$ = ecx

; 926  :     // used by pair's piecewise constructor
; 927  :     using _Ty    = tuple_element_t<_Index, tuple<_Types...>>;
; 928  :     using _Ttype = typename tuple_element<_Index, tuple<_Types...>>::_Ttype;
; 929  :     return static_cast<_Ty&&>(static_cast<_Ttype&>(_Tuple)._Myfirst._Val);

  00000	8b 01		 mov	 eax, DWORD PTR [ecx]

; 930  : }

  00002	c3		 ret	 0
??$_Tuple_get@$0A@ABH@std@@YA$$QA_P$$QAV?$tuple@ABH@0@@Z ENDP ; std::_Tuple_get<0,int const &>
_TEXT	ENDS
; Function compile flags: /Ogtp
; File C:\Program Files\Microsoft Visual Studio\2022\Community\VC\Tools\MSVC\14.44.35207\include\type_traits
;	COMDAT ??$forward@PAVCGraphicImage@@@std@@YA$$QAPAVCGraphicImage@@AAPAV1@@Z
_TEXT	SEGMENT
??$forward@PAVCGraphicImage@@@std@@YA$$QAPAVCGraphicImage@@AAPAV1@@Z PROC ; std::forward<CGraphicImage *>, COMDAT
; __Arg$ = ecx

; 1502 :     return static_cast<_Ty&&>(_Arg);

  00000	8b c1		 mov	 eax, ecx

; 1503 : }

  00002	c3		 ret	 0
??$forward@PAVCGraphicImage@@@std@@YA$$QAPAVCGraphicImage@@AAPAV1@@Z ENDP ; std::forward<CGraphicImage *>
_TEXT	ENDS
; Function compile flags: /Ogtp
; File C:\Program Files\Microsoft Visual Studio\2022\Community\VC\Tools\MSVC\14.44.35207\include\type_traits
;	COMDAT ??$move@AAV?$tuple@ABH@std@@@std@@YA$$QAV?$tuple@ABH@0@AAV10@@Z
_TEXT	SEGMENT
??$move@AAV?$tuple@ABH@std@@@std@@YA$$QAV?$tuple@ABH@0@AAV10@@Z PROC ; std::move<std::tuple<int const &> &>, COMDAT
; __Arg$ = ecx

; 1513 :     return static_cast<remove_reference_t<_Ty>&&>(_Arg);

  00000	8b c1		 mov	 eax, ecx

; 1514 : }

  00002	c3		 ret	 0
??$move@AAV?$tuple@ABH@std@@@std@@YA$$QAV?$tuple@ABH@0@AAV10@@Z ENDP ; std::move<std::tuple<int const &> &>
_TEXT	ENDS
END
