; Listing generated by Microsoft (R) Optimizing Compiler Version 19.44.35217.0 

	TITLE	d:\_m2work\txoko-m2-work\txoko-client-src\vs_files\userinterface\distribute\pythonnonplayermodule.obj
	.686P
	.XMM
	include listing.inc
	.model	flat

INCLUDELIB OLDNAMES

PUBLIC	??_C@_0BC@BCIFCAAC@GetEventTypeByVID@		; `string'
PUBLIC	??_C@_0N@HBLLMFED@GetEventType@			; `string'
PUBLIC	??_C@_0O@EGDCEMAL@GetGradeByVID@		; `string'
PUBLIC	??_C@_0O@DBPCDLCL@GetLevelByVID@		; `string'
PUBLIC	??_C@_0BC@GDKPGOBC@LoadNonPlayerData@		; `string'
PUBLIC	??_C@_0P@OLKHIBCH@GetMonsterName@		; `string'
PUBLIC	??_C@_0BE@FCOIJPJO@ON_CLICK_EVENT_NONE@		; `string'
PUBLIC	??_C@_09OHMOODOI@nonplayer@			; `string'
PUBLIC	??_C@_0BE@GBDIHIDH@ON_CLICK_EVENT_SHOP@		; `string'
PUBLIC	??_C@_0BG@EEKDAAJA@ON_CLICK_EVENT_BATTLE@	; `string'
PUBLIC	??_C@_0BH@MKCNCKMM@ON_CLICK_EVENT_VEHICLE@	; `string'
PUBLIC	??_C@_0BE@FGAJOGO@ON_CLICK_EVENT_TALK@		; `string'
PUBLIC	??_C@_06JBMEMDKE@S_PAWN@			; `string'
PUBLIC	??_C@_04CFGPKCMP@PAWN@				; `string'
PUBLIC	??_C@_08FOAPCDID@S_KNIGHT@			; `string'
PUBLIC	??_C@_06OCLDHEIK@KNIGHT@			; `string'
PUBLIC	??_C@_04DFNOAPAF@KING@				; `string'
PUBLIC	??_C@_04CHPFNFNO@BOSS@				; `string'
;	COMDAT ?s_methods@?1??initNonPlayer@@YAXXZ@4PAUPyMethodDef@@A
_DATA	SEGMENT
?s_methods@?1??initNonPlayer@@YAXXZ@4PAUPyMethodDef@@A DD FLAT:??_C@_0N@HBLLMFED@GetEventType@ ; `initNonPlayer'::`2'::s_methods
	DD	FLAT:?nonplayerGetEventType@@YAPAU_object@@PAU1@0@Z
	DD	01H
	ORG $+4
	DD	FLAT:??_C@_0BC@BCIFCAAC@GetEventTypeByVID@
	DD	FLAT:?nonplayerGetEventTypeByVID@@YAPAU_object@@PAU1@0@Z
	DD	01H
	ORG $+4
	DD	FLAT:??_C@_0O@DBPCDLCL@GetLevelByVID@
	DD	FLAT:?nonplayerGetLevelByVID@@YAPAU_object@@PAU1@0@Z
	DD	01H
	ORG $+4
	DD	FLAT:??_C@_0O@EGDCEMAL@GetGradeByVID@
	DD	FLAT:?nonplayerGetGradeByVID@@YAPAU_object@@PAU1@0@Z
	DD	01H
	ORG $+4
	DD	FLAT:??_C@_0P@OLKHIBCH@GetMonsterName@
	DD	FLAT:?nonplayerGetMonsterName@@YAPAU_object@@PAU1@0@Z
	DD	01H
	ORG $+4
	DD	FLAT:??_C@_0BC@GDKPGOBC@LoadNonPlayerData@
	DD	FLAT:?nonplayerLoadNonPlayerData@@YAPAU_object@@PAU1@0@Z
	DD	01H
	ORG $+4
	DD	00H
	DD	00H
	DD	00H
	ORG $+4
_DATA	ENDS
;	COMDAT ??_C@_04CHPFNFNO@BOSS@
CONST	SEGMENT
??_C@_04CHPFNFNO@BOSS@ DB 'BOSS', 00H			; `string'
CONST	ENDS
;	COMDAT ??_C@_04DFNOAPAF@KING@
CONST	SEGMENT
??_C@_04DFNOAPAF@KING@ DB 'KING', 00H			; `string'
CONST	ENDS
;	COMDAT ??_C@_06OCLDHEIK@KNIGHT@
CONST	SEGMENT
??_C@_06OCLDHEIK@KNIGHT@ DB 'KNIGHT', 00H		; `string'
CONST	ENDS
;	COMDAT ??_C@_08FOAPCDID@S_KNIGHT@
CONST	SEGMENT
??_C@_08FOAPCDID@S_KNIGHT@ DB 'S_KNIGHT', 00H		; `string'
CONST	ENDS
;	COMDAT ??_C@_04CFGPKCMP@PAWN@
CONST	SEGMENT
??_C@_04CFGPKCMP@PAWN@ DB 'PAWN', 00H			; `string'
CONST	ENDS
;	COMDAT ??_C@_06JBMEMDKE@S_PAWN@
CONST	SEGMENT
??_C@_06JBMEMDKE@S_PAWN@ DB 'S_PAWN', 00H		; `string'
CONST	ENDS
;	COMDAT ??_C@_0BE@FGAJOGO@ON_CLICK_EVENT_TALK@
CONST	SEGMENT
??_C@_0BE@FGAJOGO@ON_CLICK_EVENT_TALK@ DB 'ON_CLICK_EVENT_TALK', 00H ; `string'
CONST	ENDS
;	COMDAT ??_C@_0BH@MKCNCKMM@ON_CLICK_EVENT_VEHICLE@
CONST	SEGMENT
??_C@_0BH@MKCNCKMM@ON_CLICK_EVENT_VEHICLE@ DB 'ON_CLICK_EVENT_VEHICLE', 00H ; `string'
CONST	ENDS
;	COMDAT ??_C@_0BG@EEKDAAJA@ON_CLICK_EVENT_BATTLE@
CONST	SEGMENT
??_C@_0BG@EEKDAAJA@ON_CLICK_EVENT_BATTLE@ DB 'ON_CLICK_EVENT_BATTLE', 00H ; `string'
CONST	ENDS
;	COMDAT ??_C@_0BE@GBDIHIDH@ON_CLICK_EVENT_SHOP@
CONST	SEGMENT
??_C@_0BE@GBDIHIDH@ON_CLICK_EVENT_SHOP@ DB 'ON_CLICK_EVENT_SHOP', 00H ; `string'
CONST	ENDS
;	COMDAT ??_C@_09OHMOODOI@nonplayer@
CONST	SEGMENT
??_C@_09OHMOODOI@nonplayer@ DB 'nonplayer', 00H		; `string'
CONST	ENDS
;	COMDAT ??_C@_0BE@FCOIJPJO@ON_CLICK_EVENT_NONE@
CONST	SEGMENT
??_C@_0BE@FCOIJPJO@ON_CLICK_EVENT_NONE@ DB 'ON_CLICK_EVENT_NONE', 00H ; `string'
CONST	ENDS
;	COMDAT ??_C@_0P@OLKHIBCH@GetMonsterName@
CONST	SEGMENT
??_C@_0P@OLKHIBCH@GetMonsterName@ DB 'GetMonsterName', 00H ; `string'
CONST	ENDS
;	COMDAT ??_C@_0BC@GDKPGOBC@LoadNonPlayerData@
CONST	SEGMENT
??_C@_0BC@GDKPGOBC@LoadNonPlayerData@ DB 'LoadNonPlayerData', 00H ; `string'
CONST	ENDS
;	COMDAT ??_C@_0O@DBPCDLCL@GetLevelByVID@
CONST	SEGMENT
??_C@_0O@DBPCDLCL@GetLevelByVID@ DB 'GetLevelByVID', 00H ; `string'
CONST	ENDS
;	COMDAT ??_C@_0O@EGDCEMAL@GetGradeByVID@
CONST	SEGMENT
??_C@_0O@EGDCEMAL@GetGradeByVID@ DB 'GetGradeByVID', 00H ; `string'
CONST	ENDS
;	COMDAT ??_C@_0N@HBLLMFED@GetEventType@
CONST	SEGMENT
??_C@_0N@HBLLMFED@GetEventType@ DB 'GetEventType', 00H	; `string'
CONST	ENDS
;	COMDAT ??_C@_0BC@BCIFCAAC@GetEventTypeByVID@
CONST	SEGMENT
??_C@_0BC@BCIFCAAC@GetEventTypeByVID@ DB 'GetEventTypeByVID', 00H ; `string'
PUBLIC	?initNonPlayer@@YAXXZ				; initNonPlayer
PUBLIC	?nonplayerLoadNonPlayerData@@YAPAU_object@@PAU1@0@Z ; nonplayerLoadNonPlayerData
PUBLIC	?nonplayerGetMonsterName@@YAPAU_object@@PAU1@0@Z ; nonplayerGetMonsterName
PUBLIC	?nonplayerGetGradeByVID@@YAPAU_object@@PAU1@0@Z	; nonplayerGetGradeByVID
PUBLIC	?nonplayerGetLevelByVID@@YAPAU_object@@PAU1@0@Z	; nonplayerGetLevelByVID
PUBLIC	?nonplayerGetEventTypeByVID@@YAPAU_object@@PAU1@0@Z ; nonplayerGetEventTypeByVID
PUBLIC	?nonplayerGetEventType@@YAPAU_object@@PAU1@0@Z	; nonplayerGetEventType
; Function compile flags: /Ogtp
; File D:\_m2work\txoko-m2-work\txoko-client-src\source\UserInterface\PythonNonPlayerModule.cpp
;	COMDAT ?nonplayerGetEventType@@YAPAU_object@@PAU1@0@Z
_TEXT	SEGMENT
_iVirtualNumber$ = -4					; size = 4
_poSelf$ = 8						; size = 4
_poArgs$ = 12						; size = 4
?nonplayerGetEventType@@YAPAU_object@@PAU1@0@Z PROC	; nonplayerGetEventType, COMDAT

; 8    : {

  00000	55		 push	 ebp
  00001	8b ec		 mov	 ebp, esp
  00003	51		 push	 ecx

; 9    : 	int iVirtualNumber;
; 10   : 	if (!PyTuple_GetInteger(poArgs, 0, &iVirtualNumber))

  00004	8d 45 fc	 lea	 eax, DWORD PTR _iVirtualNumber$[ebp]
  00007	50		 push	 eax
  00008	6a 00		 push	 0
  0000a	ff 75 0c	 push	 DWORD PTR _poArgs$[ebp]
  0000d	e8 00 00 00 00	 call	 ?PyTuple_GetInteger@@YA_NPAU_object@@HPAH@Z ; PyTuple_GetInteger
  00012	83 c4 0c	 add	 esp, 12			; 0000000cH
  00015	84 c0		 test	 al, al
  00017	75 0e		 jne	 SHORT $LN2@nonplayerG

; 11   : 		return Py_BuildException();

  00019	6a 00		 push	 0
  0001b	e8 00 00 00 00	 call	 ?Py_BuildException@@YAPAU_object@@PBDZZ ; Py_BuildException
  00020	83 c4 04	 add	 esp, 4

; 16   : }

  00023	8b e5		 mov	 esp, ebp
  00025	5d		 pop	 ebp
  00026	c3		 ret	 0
$LN2@nonplayerG:

; 12   : 
; 13   : 	BYTE iType = CPythonNonPlayer::Instance().GetEventType(iVirtualNumber);

  00027	ff 75 fc	 push	 DWORD PTR _iVirtualNumber$[ebp]
  0002a	8b 0d 00 00 00
	00		 mov	 ecx, DWORD PTR ?ms_singleton@?$CSingleton@VCPythonNonPlayer@@@@0PAVCPythonNonPlayer@@A ; CSingleton<CPythonNonPlayer>::ms_singleton
  00030	e8 00 00 00 00	 call	 ?GetEventType@CPythonNonPlayer@@QAEEK@Z ; CPythonNonPlayer::GetEventType

; 14   : 
; 15   : 	return Py_BuildValue("i", iType);

  00035	0f b6 c0	 movzx	 eax, al
  00038	50		 push	 eax
  00039	68 00 00 00 00	 push	 OFFSET ??_C@_01KBJDNOO@i@
  0003e	ff 15 00 00 00
	00		 call	 DWORD PTR __imp__Py_BuildValue
  00044	83 c4 08	 add	 esp, 8

; 16   : }

  00047	8b e5		 mov	 esp, ebp
  00049	5d		 pop	 ebp
  0004a	c3		 ret	 0
?nonplayerGetEventType@@YAPAU_object@@PAU1@0@Z ENDP	; nonplayerGetEventType
_TEXT	ENDS
; Function compile flags: /Ogtp
; File D:\_m2work\txoko-m2-work\txoko-client-src\source\UserInterface\PythonNonPlayerModule.cpp
;	COMDAT ?nonplayerGetEventTypeByVID@@YAPAU_object@@PAU1@0@Z
_TEXT	SEGMENT
_iVirtualID$ = -4					; size = 4
_poSelf$ = 8						; size = 4
_poArgs$ = 12						; size = 4
?nonplayerGetEventTypeByVID@@YAPAU_object@@PAU1@0@Z PROC ; nonplayerGetEventTypeByVID, COMDAT

; 19   : {

  00000	55		 push	 ebp
  00001	8b ec		 mov	 ebp, esp
  00003	51		 push	 ecx

; 20   : 	int iVirtualID;
; 21   : 	if (!PyTuple_GetInteger(poArgs, 0, &iVirtualID))

  00004	8d 45 fc	 lea	 eax, DWORD PTR _iVirtualID$[ebp]
  00007	50		 push	 eax
  00008	6a 00		 push	 0
  0000a	ff 75 0c	 push	 DWORD PTR _poArgs$[ebp]
  0000d	e8 00 00 00 00	 call	 ?PyTuple_GetInteger@@YA_NPAU_object@@HPAH@Z ; PyTuple_GetInteger
  00012	83 c4 0c	 add	 esp, 12			; 0000000cH
  00015	84 c0		 test	 al, al
  00017	75 0e		 jne	 SHORT $LN2@nonplayerG

; 22   : 		return Py_BuildException();

  00019	6a 00		 push	 0
  0001b	e8 00 00 00 00	 call	 ?Py_BuildException@@YAPAU_object@@PBDZZ ; Py_BuildException
  00020	83 c4 04	 add	 esp, 4

; 27   : }

  00023	8b e5		 mov	 esp, ebp
  00025	5d		 pop	 ebp
  00026	c3		 ret	 0
$LN2@nonplayerG:

; 23   : 
; 24   : 	BYTE iType = CPythonNonPlayer::Instance().GetEventTypeByVID(iVirtualID);

  00027	ff 75 fc	 push	 DWORD PTR _iVirtualID$[ebp]
  0002a	8b 0d 00 00 00
	00		 mov	 ecx, DWORD PTR ?ms_singleton@?$CSingleton@VCPythonNonPlayer@@@@0PAVCPythonNonPlayer@@A ; CSingleton<CPythonNonPlayer>::ms_singleton
  00030	e8 00 00 00 00	 call	 ?GetEventTypeByVID@CPythonNonPlayer@@QAEEK@Z ; CPythonNonPlayer::GetEventTypeByVID

; 25   : 
; 26   : 	return Py_BuildValue("i", iType);

  00035	0f b6 c0	 movzx	 eax, al
  00038	50		 push	 eax
  00039	68 00 00 00 00	 push	 OFFSET ??_C@_01KBJDNOO@i@
  0003e	ff 15 00 00 00
	00		 call	 DWORD PTR __imp__Py_BuildValue
  00044	83 c4 08	 add	 esp, 8

; 27   : }

  00047	8b e5		 mov	 esp, ebp
  00049	5d		 pop	 ebp
  0004a	c3		 ret	 0
?nonplayerGetEventTypeByVID@@YAPAU_object@@PAU1@0@Z ENDP ; nonplayerGetEventTypeByVID
_TEXT	ENDS
; Function compile flags: /Ogtp
; File D:\_m2work\txoko-m2-work\txoko-client-src\source\UserInterface\PythonNonPlayerModule.cpp
; File C:\Program Files\Microsoft Visual Studio\2022\Community\VC\Tools\MSVC\14.44.35207\include\cmath
; File D:\_m2work\txoko-m2-work\txoko-client-src\source\UserInterface\PythonNonPlayerModule.cpp
; File C:\Program Files\Microsoft Visual Studio\2022\Community\VC\Tools\MSVC\14.44.35207\include\cmath
; File D:\_m2work\txoko-m2-work\txoko-client-src\source\UserInterface\PythonNonPlayerModule.cpp
;	COMDAT ?nonplayerGetLevelByVID@@YAPAU_object@@PAU1@0@Z
_TEXT	SEGMENT
_fAverageLevel$ = -8					; size = 4
tv180 = -8						; size = 4
_iVirtualID$ = -4					; size = 4
_poSelf$ = 8						; size = 4
_poArgs$ = 12						; size = 4
?nonplayerGetLevelByVID@@YAPAU_object@@PAU1@0@Z PROC	; nonplayerGetLevelByVID, COMDAT

; 30   : {

  00000	55		 push	 ebp
  00001	8b ec		 mov	 ebp, esp
  00003	83 ec 08	 sub	 esp, 8

; 31   : 	int iVirtualID;
; 32   : 	if (!PyTuple_GetInteger(poArgs, 0, &iVirtualID))

  00006	8d 45 fc	 lea	 eax, DWORD PTR _iVirtualID$[ebp]
  00009	50		 push	 eax
  0000a	6a 00		 push	 0
  0000c	ff 75 0c	 push	 DWORD PTR _poArgs$[ebp]
  0000f	e8 00 00 00 00	 call	 ?PyTuple_GetInteger@@YA_NPAU_object@@HPAH@Z ; PyTuple_GetInteger
  00014	83 c4 0c	 add	 esp, 12			; 0000000cH
  00017	84 c0		 test	 al, al
  00019	75 0e		 jne	 SHORT $LN2@nonplayerG

; 33   : 		return Py_BuildException();

  0001b	6a 00		 push	 0
  0001d	e8 00 00 00 00	 call	 ?Py_BuildException@@YAPAU_object@@PBDZZ ; Py_BuildException
  00022	83 c4 04	 add	 esp, 4

; 48   : }

  00025	8b e5		 mov	 esp, ebp
  00027	5d		 pop	 ebp
  00028	c3		 ret	 0
$LN2@nonplayerG:

; 34   : 
; 35   : 	CInstanceBase * pInstance = CPythonCharacterManager::Instance().GetInstancePtr(iVirtualID);

  00029	8b 0d 00 00 00
	00		 mov	 ecx, DWORD PTR ?ms_singleton@?$CSingleton@VCPythonCharacterManager@@@@0PAVCPythonCharacterManager@@A ; CSingleton<CPythonCharacterManager>::ms_singleton
  0002f	ff 75 fc	 push	 DWORD PTR _iVirtualID$[ebp]
  00032	83 c1 04	 add	 ecx, 4
  00035	8b 01		 mov	 eax, DWORD PTR [ecx]
  00037	ff 50 08	 call	 DWORD PTR [eax+8]

; 36   : 
; 37   : 	if (!pInstance)

  0003a	85 c0		 test	 eax, eax
  0003c	75 14		 jne	 SHORT $LN3@nonplayerG
$LN9@nonplayerG:

; 48   : }

  0003e	6a ff		 push	 -1
  00040	68 00 00 00 00	 push	 OFFSET ??_C@_01KBJDNOO@i@
  00045	ff 15 00 00 00
	00		 call	 DWORD PTR __imp__Py_BuildValue
  0004b	83 c4 08	 add	 esp, 8
  0004e	8b e5		 mov	 esp, ebp
  00050	5d		 pop	 ebp
  00051	c3		 ret	 0
$LN3@nonplayerG:

; 38   : 		return Py_BuildValue("i", -1);
; 39   : 
; 40   : 	const CPythonNonPlayer::TMobTable * pMobTable = CPythonNonPlayer::Instance().GetTable(pInstance->GetVirtualNumber());

  00052	8b c8		 mov	 ecx, eax
  00054	e8 00 00 00 00	 call	 ?GetVirtualNumber@CInstanceBase@@QAEKXZ ; CInstanceBase::GetVirtualNumber
  00059	8b 0d 00 00 00
	00		 mov	 ecx, DWORD PTR ?ms_singleton@?$CSingleton@VCPythonNonPlayer@@@@0PAVCPythonNonPlayer@@A ; CSingleton<CPythonNonPlayer>::ms_singleton
  0005f	50		 push	 eax
  00060	e8 00 00 00 00	 call	 ?GetTable@CPythonNonPlayer@@QAEPBUSMobTable@1@K@Z ; CPythonNonPlayer::GetTable

; 41   : 
; 42   : 	if (!pMobTable)

  00065	85 c0		 test	 eax, eax
  00067	74 d5		 je	 SHORT $LN9@nonplayerG

; 46   : 	fAverageLevel = floor(fAverageLevel + 0.5f);

  00069	0f b6 40 39	 movzx	 eax, BYTE PTR [eax+57]
; File C:\Program Files\Microsoft Visual Studio\2022\Community\VC\Tools\MSVC\14.44.35207\include\cmath

; 126  :     return __floorf(_Xx);

  0006d	83 ec 08	 sub	 esp, 8
  00070	66 0f 6e c0	 movd	 xmm0, eax
; File D:\_m2work\txoko-m2-work\txoko-client-src\source\UserInterface\PythonNonPlayerModule.cpp

; 45   : 	float fAverageLevel = pMobTable->bLevel;//(float(pMobTable->abLevelRange[0]) + float(pMobTable->abLevelRange[1])) / 2.0f;

  00074	0f 5b c0	 cvtdq2ps xmm0, xmm0

; 46   : 	fAverageLevel = floor(fAverageLevel + 0.5f);

  00077	f3 0f 58 05 00
	00 00 00	 addss	 xmm0, DWORD PTR __real@3f000000
; File C:\Program Files\Microsoft Visual Studio\2022\Community\VC\Tools\MSVC\14.44.35207\include\cmath

; 126  :     return __floorf(_Xx);

  0007f	f3 0f 11 45 f8	 movss	 DWORD PTR tv180[ebp], xmm0
  00084	d9 45 f8	 fld	 DWORD PTR tv180[ebp]
  00087	dd 1c 24	 fstp	 QWORD PTR [esp]
  0008a	e8 00 00 00 00	 call	 _floor
; File D:\_m2work\txoko-m2-work\txoko-client-src\source\UserInterface\PythonNonPlayerModule.cpp

; 46   : 	fAverageLevel = floor(fAverageLevel + 0.5f);

  0008f	d9 5d f8	 fstp	 DWORD PTR _fAverageLevel$[ebp]

; 47   : 	return Py_BuildValue("i", int(fAverageLevel));

  00092	f3 0f 2c 45 f8	 cvttss2si eax, DWORD PTR _fAverageLevel$[ebp]
  00097	50		 push	 eax
  00098	68 00 00 00 00	 push	 OFFSET ??_C@_01KBJDNOO@i@
  0009d	ff 15 00 00 00
	00		 call	 DWORD PTR __imp__Py_BuildValue
  000a3	83 c4 10	 add	 esp, 16			; 00000010H

; 48   : }

  000a6	8b e5		 mov	 esp, ebp
  000a8	5d		 pop	 ebp
  000a9	c3		 ret	 0
?nonplayerGetLevelByVID@@YAPAU_object@@PAU1@0@Z ENDP	; nonplayerGetLevelByVID
_TEXT	ENDS
; Function compile flags: /Ogtp
; File D:\_m2work\txoko-m2-work\txoko-client-src\source\UserInterface\PythonNonPlayerModule.cpp
;	COMDAT ?nonplayerGetGradeByVID@@YAPAU_object@@PAU1@0@Z
_TEXT	SEGMENT
_iVirtualID$ = -4					; size = 4
_poSelf$ = 8						; size = 4
_poArgs$ = 12						; size = 4
?nonplayerGetGradeByVID@@YAPAU_object@@PAU1@0@Z PROC	; nonplayerGetGradeByVID, COMDAT

; 51   : {

  00000	55		 push	 ebp
  00001	8b ec		 mov	 ebp, esp
  00003	51		 push	 ecx

; 52   : 	int iVirtualID;
; 53   : 	if (!PyTuple_GetInteger(poArgs, 0, &iVirtualID))

  00004	8d 45 fc	 lea	 eax, DWORD PTR _iVirtualID$[ebp]
  00007	50		 push	 eax
  00008	6a 00		 push	 0
  0000a	ff 75 0c	 push	 DWORD PTR _poArgs$[ebp]
  0000d	e8 00 00 00 00	 call	 ?PyTuple_GetInteger@@YA_NPAU_object@@HPAH@Z ; PyTuple_GetInteger
  00012	83 c4 0c	 add	 esp, 12			; 0000000cH
  00015	84 c0		 test	 al, al
  00017	75 0e		 jne	 SHORT $LN2@nonplayerG

; 54   : 		return Py_BuildException();

  00019	6a 00		 push	 0
  0001b	e8 00 00 00 00	 call	 ?Py_BuildException@@YAPAU_object@@PBDZZ ; Py_BuildException
  00020	83 c4 04	 add	 esp, 4

; 67   : }

  00023	8b e5		 mov	 esp, ebp
  00025	5d		 pop	 ebp
  00026	c3		 ret	 0
$LN2@nonplayerG:

; 55   : 
; 56   : 	CInstanceBase * pInstance = CPythonCharacterManager::Instance().GetInstancePtr(iVirtualID);

  00027	8b 0d 00 00 00
	00		 mov	 ecx, DWORD PTR ?ms_singleton@?$CSingleton@VCPythonCharacterManager@@@@0PAVCPythonCharacterManager@@A ; CSingleton<CPythonCharacterManager>::ms_singleton
  0002d	ff 75 fc	 push	 DWORD PTR _iVirtualID$[ebp]
  00030	83 c1 04	 add	 ecx, 4
  00033	8b 01		 mov	 eax, DWORD PTR [ecx]
  00035	ff 50 08	 call	 DWORD PTR [eax+8]

; 57   : 
; 58   : 	if (!pInstance)

  00038	85 c0		 test	 eax, eax
  0003a	75 14		 jne	 SHORT $LN3@nonplayerG
$LN7@nonplayerG:

; 67   : }

  0003c	6a ff		 push	 -1
  0003e	68 00 00 00 00	 push	 OFFSET ??_C@_01KBJDNOO@i@
  00043	ff 15 00 00 00
	00		 call	 DWORD PTR __imp__Py_BuildValue
  00049	83 c4 08	 add	 esp, 8
  0004c	8b e5		 mov	 esp, ebp
  0004e	5d		 pop	 ebp
  0004f	c3		 ret	 0
$LN3@nonplayerG:

; 59   : 		return Py_BuildValue("i", -1);
; 60   : 
; 61   : 	const CPythonNonPlayer::TMobTable * pMobTable = CPythonNonPlayer::Instance().GetTable(pInstance->GetVirtualNumber());

  00050	8b c8		 mov	 ecx, eax
  00052	e8 00 00 00 00	 call	 ?GetVirtualNumber@CInstanceBase@@QAEKXZ ; CInstanceBase::GetVirtualNumber
  00057	8b 0d 00 00 00
	00		 mov	 ecx, DWORD PTR ?ms_singleton@?$CSingleton@VCPythonNonPlayer@@@@0PAVCPythonNonPlayer@@A ; CSingleton<CPythonNonPlayer>::ms_singleton
  0005d	50		 push	 eax
  0005e	e8 00 00 00 00	 call	 ?GetTable@CPythonNonPlayer@@QAEPBUSMobTable@1@K@Z ; CPythonNonPlayer::GetTable

; 62   : 
; 63   : 	if (!pMobTable)

  00063	85 c0		 test	 eax, eax
  00065	74 d5		 je	 SHORT $LN7@nonplayerG

; 64   : 		return Py_BuildValue("i", -1);
; 65   : 
; 66   : 	return Py_BuildValue("i", pMobTable->bRank);

  00067	0f b6 40 37	 movzx	 eax, BYTE PTR [eax+55]
  0006b	50		 push	 eax

; 67   : }

  0006c	68 00 00 00 00	 push	 OFFSET ??_C@_01KBJDNOO@i@
  00071	ff 15 00 00 00
	00		 call	 DWORD PTR __imp__Py_BuildValue
  00077	83 c4 08	 add	 esp, 8
  0007a	8b e5		 mov	 esp, ebp
  0007c	5d		 pop	 ebp
  0007d	c3		 ret	 0
?nonplayerGetGradeByVID@@YAPAU_object@@PAU1@0@Z ENDP	; nonplayerGetGradeByVID
_TEXT	ENDS
; Function compile flags: /Ogtp
; File D:\_m2work\txoko-m2-work\txoko-client-src\source\UserInterface\PythonNonPlayerModule.cpp
;	COMDAT ?nonplayerGetMonsterName@@YAPAU_object@@PAU1@0@Z
_TEXT	SEGMENT
_iVNum$ = -4						; size = 4
_poSelf$ = 8						; size = 4
_poArgs$ = 12						; size = 4
?nonplayerGetMonsterName@@YAPAU_object@@PAU1@0@Z PROC	; nonplayerGetMonsterName, COMDAT

; 71   : {

  00000	55		 push	 ebp
  00001	8b ec		 mov	 ebp, esp
  00003	51		 push	 ecx

; 72   : 	int iVNum;
; 73   : 	if (!PyTuple_GetInteger(poArgs, 0, &iVNum))

  00004	8d 45 fc	 lea	 eax, DWORD PTR _iVNum$[ebp]
  00007	50		 push	 eax
  00008	6a 00		 push	 0
  0000a	ff 75 0c	 push	 DWORD PTR _poArgs$[ebp]
  0000d	e8 00 00 00 00	 call	 ?PyTuple_GetInteger@@YA_NPAU_object@@HPAH@Z ; PyTuple_GetInteger
  00012	83 c4 0c	 add	 esp, 12			; 0000000cH
  00015	84 c0		 test	 al, al
  00017	75 0e		 jne	 SHORT $LN2@nonplayerG

; 74   : 		return Py_BuildException();

  00019	6a 00		 push	 0
  0001b	e8 00 00 00 00	 call	 ?Py_BuildException@@YAPAU_object@@PBDZZ ; Py_BuildException
  00020	83 c4 04	 add	 esp, 4

; 78   : }

  00023	8b e5		 mov	 esp, ebp
  00025	5d		 pop	 ebp
  00026	c3		 ret	 0
$LN2@nonplayerG:

; 75   : 
; 76   : 	CPythonNonPlayer& rkNonPlayer=CPythonNonPlayer::Instance();
; 77   : 	return Py_BuildValue("s", rkNonPlayer.GetMonsterName(iVNum));

  00027	ff 75 fc	 push	 DWORD PTR _iVNum$[ebp]
  0002a	8b 0d 00 00 00
	00		 mov	 ecx, DWORD PTR ?ms_singleton@?$CSingleton@VCPythonNonPlayer@@@@0PAVCPythonNonPlayer@@A ; CSingleton<CPythonNonPlayer>::ms_singleton
  00030	e8 00 00 00 00	 call	 ?GetMonsterName@CPythonNonPlayer@@QAEPBDK@Z ; CPythonNonPlayer::GetMonsterName
  00035	50		 push	 eax
  00036	68 00 00 00 00	 push	 OFFSET ??_C@_01LKDEMHDF@s@
  0003b	ff 15 00 00 00
	00		 call	 DWORD PTR __imp__Py_BuildValue
  00041	83 c4 08	 add	 esp, 8

; 78   : }

  00044	8b e5		 mov	 esp, ebp
  00046	5d		 pop	 ebp
  00047	c3		 ret	 0
?nonplayerGetMonsterName@@YAPAU_object@@PAU1@0@Z ENDP	; nonplayerGetMonsterName
_TEXT	ENDS
; Function compile flags: /Ogtp
; File D:\_m2work\txoko-m2-work\txoko-client-src\source\UserInterface\PythonNonPlayerModule.cpp
;	COMDAT ?nonplayerLoadNonPlayerData@@YAPAU_object@@PAU1@0@Z
_TEXT	SEGMENT
_szFileName$ = -4					; size = 4
_poSelf$ = 8						; size = 4
_poArgs$ = 12						; size = 4
?nonplayerLoadNonPlayerData@@YAPAU_object@@PAU1@0@Z PROC ; nonplayerLoadNonPlayerData, COMDAT

; 81   : {

  00000	55		 push	 ebp
  00001	8b ec		 mov	 ebp, esp
  00003	51		 push	 ecx

; 82   : 	char * szFileName;
; 83   : 	if(!PyTuple_GetString(poArgs, 0, &szFileName))

  00004	8d 45 fc	 lea	 eax, DWORD PTR _szFileName$[ebp]
  00007	50		 push	 eax
  00008	6a 00		 push	 0
  0000a	ff 75 0c	 push	 DWORD PTR _poArgs$[ebp]
  0000d	e8 00 00 00 00	 call	 ?PyTuple_GetString@@YA_NPAU_object@@HPAPAD@Z ; PyTuple_GetString
  00012	83 c4 0c	 add	 esp, 12			; 0000000cH
  00015	84 c0		 test	 al, al
  00017	75 0e		 jne	 SHORT $LN2@nonplayerL

; 84   : 		return Py_BuildException();

  00019	6a 00		 push	 0
  0001b	e8 00 00 00 00	 call	 ?Py_BuildException@@YAPAU_object@@PBDZZ ; Py_BuildException
  00020	83 c4 04	 add	 esp, 4

; 88   : }

  00023	8b e5		 mov	 esp, ebp
  00025	5d		 pop	 ebp
  00026	c3		 ret	 0
$LN2@nonplayerL:

; 85   : 
; 86   : 	CPythonNonPlayer::Instance().LoadNonPlayerData(szFileName);

  00027	ff 75 fc	 push	 DWORD PTR _szFileName$[ebp]
  0002a	8b 0d 00 00 00
	00		 mov	 ecx, DWORD PTR ?ms_singleton@?$CSingleton@VCPythonNonPlayer@@@@0PAVCPythonNonPlayer@@A ; CSingleton<CPythonNonPlayer>::ms_singleton
  00030	e8 00 00 00 00	 call	 ?LoadNonPlayerData@CPythonNonPlayer@@QAE_NPBD@Z ; CPythonNonPlayer::LoadNonPlayerData

; 87   : 	return Py_BuildNone();

  00035	e8 00 00 00 00	 call	 ?Py_BuildNone@@YAPAU_object@@XZ ; Py_BuildNone

; 88   : }

  0003a	8b e5		 mov	 esp, ebp
  0003c	5d		 pop	 ebp
  0003d	c3		 ret	 0
?nonplayerLoadNonPlayerData@@YAPAU_object@@PAU1@0@Z ENDP ; nonplayerLoadNonPlayerData
_TEXT	ENDS
; Function compile flags: /Ogtp
; File D:\_m2work\txoko-m2-work\txoko-client-src\source\UserInterface\PythonNonPlayerModule.cpp
;	COMDAT ?initNonPlayer@@YAXXZ
_TEXT	SEGMENT
?initNonPlayer@@YAXXZ PROC				; initNonPlayer, COMDAT

; 91   : {

  00000	56		 push	 esi
  00001	57		 push	 edi

; 92   : 	static PyMethodDef s_methods[] =
; 93   : 	{
; 94   : 		{ "GetEventType",				nonplayerGetEventType,				METH_VARARGS },
; 95   : 		{ "GetEventTypeByVID",			nonplayerGetEventTypeByVID,			METH_VARARGS },
; 96   : 		{ "GetLevelByVID",				nonplayerGetLevelByVID,				METH_VARARGS },
; 97   : 		{ "GetGradeByVID",				nonplayerGetGradeByVID,				METH_VARARGS },
; 98   : 		{ "GetMonsterName",				nonplayerGetMonsterName,			METH_VARARGS },
; 99   : 
; 100  : 		{ "LoadNonPlayerData",			nonplayerLoadNonPlayerData,			METH_VARARGS },
; 101  : 
; 102  : 		{ NULL,							NULL,								NULL		 },
; 103  : 	};
; 104  : 
; 105  : 	PyObject * poModule = Py_InitModule("nonplayer", s_methods);

  00002	68 f5 03 00 00	 push	 1013			; 000003f5H
  00007	6a 00		 push	 0
  00009	6a 00		 push	 0
  0000b	68 00 00 00 00	 push	 OFFSET ?s_methods@?1??initNonPlayer@@YAXXZ@4PAUPyMethodDef@@A
  00010	68 00 00 00 00	 push	 OFFSET ??_C@_09OHMOODOI@nonplayer@
  00015	ff 15 00 00 00
	00		 call	 DWORD PTR __imp__Py_InitModule4

; 106  : 
; 107  : 	PyModule_AddIntConstant(poModule, "ON_CLICK_EVENT_NONE",		CPythonNonPlayer::ON_CLICK_EVENT_NONE);

  0001b	8b 35 00 00 00
	00		 mov	 esi, DWORD PTR __imp__PyModule_AddIntConstant
  00021	8b f8		 mov	 edi, eax
  00023	6a 00		 push	 0
  00025	68 00 00 00 00	 push	 OFFSET ??_C@_0BE@FCOIJPJO@ON_CLICK_EVENT_NONE@
  0002a	57		 push	 edi
  0002b	ff d6		 call	 esi

; 108  : 	PyModule_AddIntConstant(poModule, "ON_CLICK_EVENT_BATTLE",		CPythonNonPlayer::ON_CLICK_EVENT_BATTLE);

  0002d	6a 01		 push	 1
  0002f	68 00 00 00 00	 push	 OFFSET ??_C@_0BG@EEKDAAJA@ON_CLICK_EVENT_BATTLE@
  00034	57		 push	 edi
  00035	ff d6		 call	 esi

; 109  : 	PyModule_AddIntConstant(poModule, "ON_CLICK_EVENT_SHOP",		CPythonNonPlayer::ON_CLICK_EVENT_SHOP);

  00037	6a 02		 push	 2
  00039	68 00 00 00 00	 push	 OFFSET ??_C@_0BE@GBDIHIDH@ON_CLICK_EVENT_SHOP@
  0003e	57		 push	 edi
  0003f	ff d6		 call	 esi

; 110  : 	PyModule_AddIntConstant(poModule, "ON_CLICK_EVENT_TALK",		CPythonNonPlayer::ON_CLICK_EVENT_TALK);

  00041	6a 03		 push	 3
  00043	68 00 00 00 00	 push	 OFFSET ??_C@_0BE@FGAJOGO@ON_CLICK_EVENT_TALK@
  00048	57		 push	 edi
  00049	ff d6		 call	 esi
  0004b	83 c4 44	 add	 esp, 68			; 00000044H

; 111  : 	PyModule_AddIntConstant(poModule, "ON_CLICK_EVENT_VEHICLE",		CPythonNonPlayer::ON_CLICK_EVENT_VEHICLE);

  0004e	6a 04		 push	 4
  00050	68 00 00 00 00	 push	 OFFSET ??_C@_0BH@MKCNCKMM@ON_CLICK_EVENT_VEHICLE@
  00055	57		 push	 edi
  00056	ff d6		 call	 esi

; 112  : 
; 113  : 	PyModule_AddIntConstant(poModule, "PAWN", 0);

  00058	6a 00		 push	 0
  0005a	68 00 00 00 00	 push	 OFFSET ??_C@_04CFGPKCMP@PAWN@
  0005f	57		 push	 edi
  00060	ff d6		 call	 esi

; 114  : 	PyModule_AddIntConstant(poModule, "S_PAWN", 1);

  00062	6a 01		 push	 1
  00064	68 00 00 00 00	 push	 OFFSET ??_C@_06JBMEMDKE@S_PAWN@
  00069	57		 push	 edi
  0006a	ff d6		 call	 esi

; 115  : 	PyModule_AddIntConstant(poModule, "KNIGHT", 2);

  0006c	6a 02		 push	 2
  0006e	68 00 00 00 00	 push	 OFFSET ??_C@_06OCLDHEIK@KNIGHT@
  00073	57		 push	 edi
  00074	ff d6		 call	 esi

; 116  : 	PyModule_AddIntConstant(poModule, "S_KNIGHT", 3);

  00076	6a 03		 push	 3
  00078	68 00 00 00 00	 push	 OFFSET ??_C@_08FOAPCDID@S_KNIGHT@
  0007d	57		 push	 edi
  0007e	ff d6		 call	 esi

; 117  : 	PyModule_AddIntConstant(poModule, "BOSS", 4);

  00080	6a 04		 push	 4
  00082	68 00 00 00 00	 push	 OFFSET ??_C@_04CHPFNFNO@BOSS@
  00087	57		 push	 edi
  00088	ff d6		 call	 esi
  0008a	83 c4 48	 add	 esp, 72			; 00000048H

; 118  : 	PyModule_AddIntConstant(poModule, "KING", 5);

  0008d	6a 05		 push	 5
  0008f	68 00 00 00 00	 push	 OFFSET ??_C@_04DFNOAPAF@KING@
  00094	57		 push	 edi
  00095	ff d6		 call	 esi
  00097	83 c4 0c	 add	 esp, 12			; 0000000cH
  0009a	5f		 pop	 edi
  0009b	5e		 pop	 esi

; 119  : }

  0009c	c3		 ret	 0
?initNonPlayer@@YAXXZ ENDP				; initNonPlayer
_TEXT	ENDS
END
