; Listing generated by Microsoft (R) Optimizing Compiler Version 19.44.35217.0 

	TITLE	d:\_m2work\txoko-m2-work\txoko-client-src\vs_files\userinterface\distribute\pythonnonplayer.obj
	.686P
	.XMM
	include listing.inc
	.model	flat

INCLUDELIB OLDNAMES

PUBLIC	??_C@_0DP@FMDCKFI@CPythonNonPlayer?3?3LoadNonPlayer@ ; `string'
PUBLIC	??_C@_0EI@EHJJMNEK@CPythonNonPlayer?3?3LoadNonPlayer@ ; `string'
PUBLIC	??_C@_0DP@FIGKBDCC@CPythonNonPlayer?3?3LoadNonPlayer@ ; `string'
PUBLIC	??_R2?$CSingleton@VCPythonNonPlayer@@@@8	; CSingleton<CPythonNonPlayer>::`RTTI Base Class Array'
PUBLIC	??_R2CPythonNonPlayer@@8			; CPythonNonPlayer::`RTTI Base Class Array'
PUBLIC	??_R1A@?0A@EA@CPythonNonPlayer@@8		; CPythonNonPlayer::`RTTI Base Class Descriptor at (0,-1,0,64)'
PUBLIC	??_R1A@?0A@EA@?$CSingleton@VCPythonNonPlayer@@@@8 ; CSingleton<CPythonNonPlayer>::`RTTI Base Class Descriptor at (0,-1,0,64)'
PUBLIC	??_R0?AV?$CSingleton@VCPythonNonPlayer@@@@@8	; CSingleton<CPythonNonPlayer> `RTTI Type Descriptor'
PUBLIC	??_R3?$CSingleton@VCPythonNonPlayer@@@@8	; CSingleton<CPythonNonPlayer>::`RTTI Class Hierarchy Descriptor'
PUBLIC	??_R0?AVCPythonNonPlayer@@@8			; CPythonNonPlayer `RTTI Type Descriptor'
PUBLIC	??_R3CPythonNonPlayer@@8			; CPythonNonPlayer::`RTTI Class Hierarchy Descriptor'
PUBLIC	??_R4CPythonNonPlayer@@6B@			; CPythonNonPlayer::`RTTI Complete Object Locator'
PUBLIC	??_R4?$CSingleton@VCPythonNonPlayer@@@@6B@	; CSingleton<CPythonNonPlayer>::`RTTI Complete Object Locator'
PUBLIC	??_7?$CSingleton@VCPythonNonPlayer@@@@6B@	; CSingleton<CPythonNonPlayer>::`vftable'
PUBLIC	??_7CPythonNonPlayer@@6B@			; CPythonNonPlayer::`vftable'
EXTRN	?GetSize@CLZObject@@QAEKXZ:PROC			; CLZObject::GetSize
EXTRN	??1CLZObject@@QAE@XZ:PROC			; CLZObject::~CLZObject
EXTRN	??0CLZObject@@QAE@XZ:PROC			; CLZObject::CLZObject
EXTRN	?Decompress@CLZO@@QAE_NAAVCLZObject@@PBEPAK@Z:PROC ; CLZO::Decompress
;	COMDAT ?s_adwMobProtoKey@?1??LoadNonPlayerData@CPythonNonPlayer@@QAE_NPBD@Z@4PAKA
_DATA	SEGMENT
?s_adwMobProtoKey@?1??LoadNonPlayerData@CPythonNonPlayer@@QAE_NPBD@Z@4PAKA DD 0497446H ; `CPythonNonPlayer::LoadNonPlayerData'::`2'::s_adwMobProtoKey
	DD	04a0bH
	DD	086eb7H
	DD	068189dH
_DATA	ENDS
;	COMDAT ?sc_szEmpty@?4??GetMonsterName@CPythonNonPlayer@@QAEPBDK@Z@4PBDB
CONST	SEGMENT
?sc_szEmpty@?4??GetMonsterName@CPythonNonPlayer@@QAEPBDK@Z@4PBDB DD FLAT:??_C@_00CNPNBAHC@@ ; `CPythonNonPlayer::GetMonsterName'::`5'::sc_szEmpty
CONST	ENDS
;	COMDAT ??_7CPythonNonPlayer@@6B@
CONST	SEGMENT
??_7CPythonNonPlayer@@6B@ DD FLAT:??_R4CPythonNonPlayer@@6B@ ; CPythonNonPlayer::`vftable'
	DD	FLAT:??_ECPythonNonPlayer@@UAEPAXI@Z
CONST	ENDS
;	COMDAT ??_7?$CSingleton@VCPythonNonPlayer@@@@6B@
CONST	SEGMENT
??_7?$CSingleton@VCPythonNonPlayer@@@@6B@ DD FLAT:??_R4?$CSingleton@VCPythonNonPlayer@@@@6B@ ; CSingleton<CPythonNonPlayer>::`vftable'
	DD	FLAT:??_E?$CSingleton@VCPythonNonPlayer@@@@UAEPAXI@Z
CONST	ENDS
;	COMDAT ??_R4?$CSingleton@VCPythonNonPlayer@@@@6B@
rdata$r	SEGMENT
??_R4?$CSingleton@VCPythonNonPlayer@@@@6B@ DD 00H	; CSingleton<CPythonNonPlayer>::`RTTI Complete Object Locator'
	DD	00H
	DD	00H
	DD	FLAT:??_R0?AV?$CSingleton@VCPythonNonPlayer@@@@@8
	DD	FLAT:??_R3?$CSingleton@VCPythonNonPlayer@@@@8
rdata$r	ENDS
;	COMDAT ??_R4CPythonNonPlayer@@6B@
rdata$r	SEGMENT
??_R4CPythonNonPlayer@@6B@ DD 00H			; CPythonNonPlayer::`RTTI Complete Object Locator'
	DD	00H
	DD	00H
	DD	FLAT:??_R0?AVCPythonNonPlayer@@@8
	DD	FLAT:??_R3CPythonNonPlayer@@8
rdata$r	ENDS
;	COMDAT ??_R3CPythonNonPlayer@@8
rdata$r	SEGMENT
??_R3CPythonNonPlayer@@8 DD 00H				; CPythonNonPlayer::`RTTI Class Hierarchy Descriptor'
	DD	00H
	DD	02H
	DD	FLAT:??_R2CPythonNonPlayer@@8
rdata$r	ENDS
;	COMDAT ??_R0?AVCPythonNonPlayer@@@8
data$rs	SEGMENT
??_R0?AVCPythonNonPlayer@@@8 DD FLAT:??_7type_info@@6B@	; CPythonNonPlayer `RTTI Type Descriptor'
	DD	00H
	DB	'.?AVCPythonNonPlayer@@', 00H
data$rs	ENDS
;	COMDAT ??_R3?$CSingleton@VCPythonNonPlayer@@@@8
rdata$r	SEGMENT
??_R3?$CSingleton@VCPythonNonPlayer@@@@8 DD 00H		; CSingleton<CPythonNonPlayer>::`RTTI Class Hierarchy Descriptor'
	DD	00H
	DD	01H
	DD	FLAT:??_R2?$CSingleton@VCPythonNonPlayer@@@@8
rdata$r	ENDS
;	COMDAT ??_R0?AV?$CSingleton@VCPythonNonPlayer@@@@@8
data$rs	SEGMENT
??_R0?AV?$CSingleton@VCPythonNonPlayer@@@@@8 DD FLAT:??_7type_info@@6B@ ; CSingleton<CPythonNonPlayer> `RTTI Type Descriptor'
	DD	00H
	DB	'.?AV?$CSingleton@VCPythonNonPlayer@@@@', 00H
data$rs	ENDS
;	COMDAT ??_R1A@?0A@EA@?$CSingleton@VCPythonNonPlayer@@@@8
rdata$r	SEGMENT
??_R1A@?0A@EA@?$CSingleton@VCPythonNonPlayer@@@@8 DD FLAT:??_R0?AV?$CSingleton@VCPythonNonPlayer@@@@@8 ; CSingleton<CPythonNonPlayer>::`RTTI Base Class Descriptor at (0,-1,0,64)'
	DD	00H
	DD	00H
	DD	0ffffffffH
	DD	00H
	DD	040H
	DD	FLAT:??_R3?$CSingleton@VCPythonNonPlayer@@@@8
rdata$r	ENDS
;	COMDAT ??_R1A@?0A@EA@CPythonNonPlayer@@8
rdata$r	SEGMENT
??_R1A@?0A@EA@CPythonNonPlayer@@8 DD FLAT:??_R0?AVCPythonNonPlayer@@@8 ; CPythonNonPlayer::`RTTI Base Class Descriptor at (0,-1,0,64)'
	DD	01H
	DD	00H
	DD	0ffffffffH
	DD	00H
	DD	040H
	DD	FLAT:??_R3CPythonNonPlayer@@8
rdata$r	ENDS
;	COMDAT ??_R2CPythonNonPlayer@@8
rdata$r	SEGMENT
??_R2CPythonNonPlayer@@8 DD FLAT:??_R1A@?0A@EA@CPythonNonPlayer@@8 ; CPythonNonPlayer::`RTTI Base Class Array'
	DD	FLAT:??_R1A@?0A@EA@?$CSingleton@VCPythonNonPlayer@@@@8
rdata$r	ENDS
;	COMDAT ??_R2?$CSingleton@VCPythonNonPlayer@@@@8
rdata$r	SEGMENT
??_R2?$CSingleton@VCPythonNonPlayer@@@@8 DD FLAT:??_R1A@?0A@EA@?$CSingleton@VCPythonNonPlayer@@@@8 ; CSingleton<CPythonNonPlayer>::`RTTI Base Class Array'
rdata$r	ENDS
;	COMDAT ??_C@_0DP@FIGKBDCC@CPythonNonPlayer?3?3LoadNonPlayer@
CONST	SEGMENT
??_C@_0DP@FIGKBDCC@CPythonNonPlayer?3?3LoadNonPlayer@ DB 'CPythonNonPlaye'
	DB	'r::LoadNonPlayerData: invalid Mob proto type %s', 00H ; `string'
CONST	ENDS
;	COMDAT ??_C@_0EI@EHJJMNEK@CPythonNonPlayer?3?3LoadNonPlayer@
CONST	SEGMENT
??_C@_0EI@EHJJMNEK@CPythonNonPlayer?3?3LoadNonPlayer@ DB 'CPythonNonPlaye'
	DB	'r::LoadNonPlayerData: invalid size %u check data format.', 00H ; `string'
CONST	ENDS
;	COMDAT ??_C@_0DP@FMDCKFI@CPythonNonPlayer?3?3LoadNonPlayer@
CONST	SEGMENT
??_C@_0DP@FMDCKFI@CPythonNonPlayer?3?3LoadNonPlayer@ DB 'CPythonNonPlayer'
	DB	'::LoadNonPlayerData: %s, sizeof(TMobTable)=%u', 0aH, 00H ; `string'
PUBLIC	?GetBuffer@CLZObject@@QAEPAEXZ			; CLZObject::GetBuffer
PUBLIC	?_Get_first@?$_Compressed_pair@V?$allocator@U?$_Tree_node@U?$pair@$$CBKPAUSMobTable@CPythonNonPlayer@@@std@@PAX@std@@@std@@V?$_Tree_val@U?$_Tree_simple_types@U?$pair@$$CBKPAUSMobTable@CPythonNonPlayer@@@std@@@std@@@2@$00@std@@QBEABV?$allocator@U?$_Tree_node@U?$pair@$$CBKPAUSMobTable@CPythonNonPlayer@@@std@@PAX@std@@@2@XZ ; std::_Compressed_pair<std::allocator<std::_Tree_node<std::pair<unsigned long const ,CPythonNonPlayer::SMobTable *>,void *> >,std::_Tree_val<std::_Tree_simple_types<std::pair<unsigned long const ,CPythonNonPlayer::SMobTable *> > >,1>::_Get_first
PUBLIC	??$construct_at@PAU?$_Tree_node@U?$pair@$$CBKPAUSMobTable@CPythonNonPlayer@@@std@@PAX@std@@ABQAU12@@std@@YAPAPAU?$_Tree_node@U?$pair@$$CBKPAUSMobTable@CPythonNonPlayer@@@std@@PAX@0@QAPAU10@ABQAU10@@Z ; std::construct_at<std::_Tree_node<std::pair<unsigned long const ,CPythonNonPlayer::SMobTable *>,void *> *,std::_Tree_node<std::pair<unsigned long const ,CPythonNonPlayer::SMobTable *>,void *> * const &>
PUBLIC	??$forward@ABQAU?$_Tree_node@U?$pair@$$CBKPAUSMobTable@CPythonNonPlayer@@@std@@PAX@std@@@std@@YAABQAU?$_Tree_node@U?$pair@$$CBKPAUSMobTable@CPythonNonPlayer@@@std@@PAX@0@ABQAU10@@Z ; std::forward<std::_Tree_node<std::pair<unsigned long const ,CPythonNonPlayer::SMobTable *>,void *> * const &>
PUBLIC	?_Getal@?$_Tree@V?$_Tmap_traits@KPAUSMobTable@CPythonNonPlayer@@U?$less@K@std@@V?$allocator@U?$pair@$$CBKPAUSMobTable@CPythonNonPlayer@@@std@@@4@$0A@@std@@@std@@IBEABV?$allocator@U?$_Tree_node@U?$pair@$$CBKPAUSMobTable@CPythonNonPlayer@@@std@@PAX@std@@@2@XZ ; std::_Tree<std::_Tmap_traits<unsigned long,CPythonNonPlayer::SMobTable *,std::less<unsigned long>,std::allocator<std::pair<unsigned long const ,CPythonNonPlayer::SMobTable *> >,0> >::_Getal
PUBLIC	??0?$allocator@U?$_Tree_node@U?$pair@$$CBKPAUSMobTable@CPythonNonPlayer@@@std@@PAX@std@@@std@@QAE@XZ ; std::allocator<std::_Tree_node<std::pair<unsigned long const ,CPythonNonPlayer::SMobTable *>,void *> >::allocator<std::_Tree_node<std::pair<unsigned long const ,CPythonNonPlayer::SMobTable *>,void *> >
PUBLIC	?deallocate@?$allocator@U?$_Tree_node@U?$pair@$$CBKPAUSMobTable@CPythonNonPlayer@@@std@@PAX@std@@@std@@QAEXQAU?$_Tree_node@U?$pair@$$CBKPAUSMobTable@CPythonNonPlayer@@@std@@PAX@2@I@Z ; std::allocator<std::_Tree_node<std::pair<unsigned long const ,CPythonNonPlayer::SMobTable *>,void *> >::deallocate
PUBLIC	?allocate@?$allocator@U?$_Tree_node@U?$pair@$$CBKPAUSMobTable@CPythonNonPlayer@@@std@@PAX@std@@@std@@QAEPAU?$_Tree_node@U?$pair@$$CBKPAUSMobTable@CPythonNonPlayer@@@std@@PAX@2@I@Z ; std::allocator<std::_Tree_node<std::pair<unsigned long const ,CPythonNonPlayer::SMobTable *>,void *> >::allocate
PUBLIC	?max_size@?$_Default_allocator_traits@V?$allocator@U?$_Tree_node@U?$pair@$$CBKPAUSMobTable@CPythonNonPlayer@@@std@@PAX@std@@@std@@@std@@SAIABV?$allocator@U?$_Tree_node@U?$pair@$$CBKPAUSMobTable@CPythonNonPlayer@@@std@@PAX@std@@@2@@Z ; std::_Default_allocator_traits<std::allocator<std::_Tree_node<std::pair<unsigned long const ,CPythonNonPlayer::SMobTable *>,void *> > >::max_size
PUBLIC	??0?$_Tree_val@U?$_Tree_simple_types@U?$pair@$$CBKPAUSMobTable@CPythonNonPlayer@@@std@@@std@@@std@@QAE@XZ ; std::_Tree_val<std::_Tree_simple_types<std::pair<unsigned long const ,CPythonNonPlayer::SMobTable *> > >::_Tree_val<std::_Tree_simple_types<std::pair<unsigned long const ,CPythonNonPlayer::SMobTable *> > >
PUBLIC	?_Get_first@?$_Compressed_pair@U?$less@K@std@@V?$_Compressed_pair@V?$allocator@U?$_Tree_node@U?$pair@$$CBKPAUSMobTable@CPythonNonPlayer@@@std@@PAX@std@@@std@@V?$_Tree_val@U?$_Tree_simple_types@U?$pair@$$CBKPAUSMobTable@CPythonNonPlayer@@@std@@@std@@@2@$00@2@$00@std@@QBEABU?$less@K@2@XZ ; std::_Compressed_pair<std::less<unsigned long>,std::_Compressed_pair<std::allocator<std::_Tree_node<std::pair<unsigned long const ,CPythonNonPlayer::SMobTable *>,void *> >,std::_Tree_val<std::_Tree_simple_types<std::pair<unsigned long const ,CPythonNonPlayer::SMobTable *> > >,1>,1>::_Get_first
PUBLIC	??0?$_Alloc_construct_ptr@V?$allocator@U?$_Tree_node@U?$pair@$$CBKPAUSMobTable@CPythonNonPlayer@@@std@@PAX@std@@@std@@@std@@QAE@AAV?$allocator@U?$_Tree_node@U?$pair@$$CBKPAUSMobTable@CPythonNonPlayer@@@std@@PAX@std@@@1@@Z ; std::_Alloc_construct_ptr<std::allocator<std::_Tree_node<std::pair<unsigned long const ,CPythonNonPlayer::SMobTable *>,void *> > >::_Alloc_construct_ptr<std::allocator<std::_Tree_node<std::pair<unsigned long const ,CPythonNonPlayer::SMobTable *>,void *> > >
PUBLIC	?_Allocate@?$_Alloc_construct_ptr@V?$allocator@U?$_Tree_node@U?$pair@$$CBKPAUSMobTable@CPythonNonPlayer@@@std@@PAX@std@@@std@@@std@@QAEXXZ ; std::_Alloc_construct_ptr<std::allocator<std::_Tree_node<std::pair<unsigned long const ,CPythonNonPlayer::SMobTable *>,void *> > >::_Allocate
PUBLIC	??$_Construct_in_place@PAU?$_Tree_node@U?$pair@$$CBKPAUSMobTable@CPythonNonPlayer@@@std@@PAX@std@@ABQAU12@@std@@YAXAAPAU?$_Tree_node@U?$pair@$$CBKPAUSMobTable@CPythonNonPlayer@@@std@@PAX@0@ABQAU10@@Z ; std::_Construct_in_place<std::_Tree_node<std::pair<unsigned long const ,CPythonNonPlayer::SMobTable *>,void *> *,std::_Tree_node<std::pair<unsigned long const ,CPythonNonPlayer::SMobTable *>,void *> * const &>
PUBLIC	??$destroy_at@U?$pair@$$CBKPAUSMobTable@CPythonNonPlayer@@@std@@@std@@YAXQAU?$pair@$$CBKPAUSMobTable@CPythonNonPlayer@@@0@@Z ; std::destroy_at<std::pair<unsigned long const ,CPythonNonPlayer::SMobTable *> >
PUBLIC	??$construct_at@PAU?$_Tree_node@U?$pair@$$CBKPAUSMobTable@CPythonNonPlayer@@@std@@PAX@std@@AAPAU12@@std@@YAPAPAU?$_Tree_node@U?$pair@$$CBKPAUSMobTable@CPythonNonPlayer@@@std@@PAX@0@QAPAU10@AAPAU10@@Z ; std::construct_at<std::_Tree_node<std::pair<unsigned long const ,CPythonNonPlayer::SMobTable *>,void *> *,std::_Tree_node<std::pair<unsigned long const ,CPythonNonPlayer::SMobTable *>,void *> * &>
PUBLIC	??$addressof@PAU?$_Tree_node@U?$pair@$$CBKPAUSMobTable@CPythonNonPlayer@@@std@@PAX@std@@@std@@YAPAPAU?$_Tree_node@U?$pair@$$CBKPAUSMobTable@CPythonNonPlayer@@@std@@PAX@0@AAPAU10@@Z ; std::addressof<std::_Tree_node<std::pair<unsigned long const ,CPythonNonPlayer::SMobTable *>,void *> *>
PUBLIC	??$construct_at@U?$pair@$$CBKPAUSMobTable@CPythonNonPlayer@@@std@@U12@@std@@YAPAU?$pair@$$CBKPAUSMobTable@CPythonNonPlayer@@@0@QAU10@$$QAU10@@Z ; std::construct_at<std::pair<unsigned long const ,CPythonNonPlayer::SMobTable *>,std::pair<unsigned long const ,CPythonNonPlayer::SMobTable *> >
PUBLIC	?max_size@?$_Tree@V?$_Tmap_traits@KPAUSMobTable@CPythonNonPlayer@@U?$less@K@std@@V?$allocator@U?$pair@$$CBKPAUSMobTable@CPythonNonPlayer@@@std@@@4@$0A@@std@@@std@@QBEIXZ ; std::_Tree<std::_Tmap_traits<unsigned long,CPythonNonPlayer::SMobTable *,std::less<unsigned long>,std::allocator<std::pair<unsigned long const ,CPythonNonPlayer::SMobTable *> >,0> >::max_size
PUBLIC	?_Getcomp@?$_Tree@V?$_Tmap_traits@KPAUSMobTable@CPythonNonPlayer@@U?$less@K@std@@V?$allocator@U?$pair@$$CBKPAUSMobTable@CPythonNonPlayer@@@std@@@4@$0A@@std@@@std@@IBEABU?$less@K@2@XZ ; std::_Tree<std::_Tmap_traits<unsigned long,CPythonNonPlayer::SMobTable *,std::less<unsigned long>,std::allocator<std::pair<unsigned long const ,CPythonNonPlayer::SMobTable *> >,0> >::_Getcomp
PUBLIC	?deallocate@?$_Default_allocator_traits@V?$allocator@U?$_Tree_node@U?$pair@$$CBKPAUSMobTable@CPythonNonPlayer@@@std@@PAX@std@@@std@@@std@@SAXAAV?$allocator@U?$_Tree_node@U?$pair@$$CBKPAUSMobTable@CPythonNonPlayer@@@std@@PAX@std@@@2@QAU?$_Tree_node@U?$pair@$$CBKPAUSMobTable@CPythonNonPlayer@@@std@@PAX@2@I@Z ; std::_Default_allocator_traits<std::allocator<std::_Tree_node<std::pair<unsigned long const ,CPythonNonPlayer::SMobTable *>,void *> > >::deallocate
PUBLIC	?_Min@?$_Tree_val@U?$_Tree_simple_types@U?$pair@$$CBKPAUSMobTable@CPythonNonPlayer@@@std@@@std@@@std@@SAPAU?$_Tree_node@U?$pair@$$CBKPAUSMobTable@CPythonNonPlayer@@@std@@PAX@2@PAU32@@Z ; std::_Tree_val<std::_Tree_simple_types<std::pair<unsigned long const ,CPythonNonPlayer::SMobTable *> > >::_Min
PUBLIC	?_Lrotate@?$_Tree_val@U?$_Tree_simple_types@U?$pair@$$CBKPAUSMobTable@CPythonNonPlayer@@@std@@@std@@@std@@QAEXPAU?$_Tree_node@U?$pair@$$CBKPAUSMobTable@CPythonNonPlayer@@@std@@PAX@2@@Z ; std::_Tree_val<std::_Tree_simple_types<std::pair<unsigned long const ,CPythonNonPlayer::SMobTable *> > >::_Lrotate
PUBLIC	?_Rrotate@?$_Tree_val@U?$_Tree_simple_types@U?$pair@$$CBKPAUSMobTable@CPythonNonPlayer@@@std@@@std@@@std@@QAEXPAU?$_Tree_node@U?$pair@$$CBKPAUSMobTable@CPythonNonPlayer@@@std@@PAX@2@@Z ; std::_Tree_val<std::_Tree_simple_types<std::pair<unsigned long const ,CPythonNonPlayer::SMobTable *> > >::_Rrotate
PUBLIC	??0?$_Tree_temp_node_alloc@V?$allocator@U?$_Tree_node@U?$pair@$$CBKPAUSMobTable@CPythonNonPlayer@@@std@@PAX@std@@@std@@@std@@QAE@AAV?$allocator@U?$_Tree_node@U?$pair@$$CBKPAUSMobTable@CPythonNonPlayer@@@std@@PAX@std@@@1@@Z ; std::_Tree_temp_node_alloc<std::allocator<std::_Tree_node<std::pair<unsigned long const ,CPythonNonPlayer::SMobTable *>,void *> > >::_Tree_temp_node_alloc<std::allocator<std::_Tree_node<std::pair<unsigned long const ,CPythonNonPlayer::SMobTable *>,void *> > >
PUBLIC	??1?$_Alloc_construct_ptr@V?$allocator@U?$_Tree_node@U?$pair@$$CBKPAUSMobTable@CPythonNonPlayer@@@std@@PAX@std@@@std@@@std@@QAE@XZ ; std::_Alloc_construct_ptr<std::allocator<std::_Tree_node<std::pair<unsigned long const ,CPythonNonPlayer::SMobTable *>,void *> > >::~_Alloc_construct_ptr<std::allocator<std::_Tree_node<std::pair<unsigned long const ,CPythonNonPlayer::SMobTable *>,void *> > >
PUBLIC	??$_Buyheadnode@V?$allocator@U?$_Tree_node@U?$pair@$$CBKPAUSMobTable@CPythonNonPlayer@@@std@@PAX@std@@@std@@@?$_Tree_node@U?$pair@$$CBKPAUSMobTable@CPythonNonPlayer@@@std@@PAX@std@@SAPAU01@AAV?$allocator@U?$_Tree_node@U?$pair@$$CBKPAUSMobTable@CPythonNonPlayer@@@std@@PAX@std@@@1@@Z ; std::_Tree_node<std::pair<unsigned long const ,CPythonNonPlayer::SMobTable *>,void *>::_Buyheadnode<std::allocator<std::_Tree_node<std::pair<unsigned long const ,CPythonNonPlayer::SMobTable *>,void *> > >
PUBLIC	??$addressof@$$CBV?$_Tree_val@U?$_Tree_simple_types@U?$pair@$$CBKPAUSMobTable@CPythonNonPlayer@@@std@@@std@@@std@@@std@@YAPBV?$_Tree_val@U?$_Tree_simple_types@U?$pair@$$CBKPAUSMobTable@CPythonNonPlayer@@@std@@@std@@@0@ABV10@@Z ; std::addressof<std::_Tree_val<std::_Tree_simple_types<std::pair<unsigned long const ,CPythonNonPlayer::SMobTable *> > > const >
PUBLIC	??$exchange@PAU?$_Tree_node@U?$pair@$$CBKPAUSMobTable@CPythonNonPlayer@@@std@@PAX@std@@$$T@std@@YAPAU?$_Tree_node@U?$pair@$$CBKPAUSMobTable@CPythonNonPlayer@@@std@@PAX@0@AAPAU10@$$QA$$T@Z ; std::exchange<std::_Tree_node<std::pair<unsigned long const ,CPythonNonPlayer::SMobTable *>,void *> *,std::nullptr_t>
PUBLIC	??$_Destroy_in_place@PAU?$_Tree_node@U?$pair@$$CBKPAUSMobTable@CPythonNonPlayer@@@std@@PAX@std@@@std@@YAXAAPAU?$_Tree_node@U?$pair@$$CBKPAUSMobTable@CPythonNonPlayer@@@std@@PAX@0@@Z ; std::_Destroy_in_place<std::_Tree_node<std::pair<unsigned long const ,CPythonNonPlayer::SMobTable *>,void *> *>
PUBLIC	??$destroy@U?$pair@$$CBKPAUSMobTable@CPythonNonPlayer@@@std@@@?$_Default_allocator_traits@V?$allocator@U?$_Tree_node@U?$pair@$$CBKPAUSMobTable@CPythonNonPlayer@@@std@@PAX@std@@@std@@@std@@SAXAAV?$allocator@U?$_Tree_node@U?$pair@$$CBKPAUSMobTable@CPythonNonPlayer@@@std@@PAX@std@@@1@QAU?$pair@$$CBKPAUSMobTable@CPythonNonPlayer@@@1@@Z ; std::_Default_allocator_traits<std::allocator<std::_Tree_node<std::pair<unsigned long const ,CPythonNonPlayer::SMobTable *>,void *> > >::destroy<std::pair<unsigned long const ,CPythonNonPlayer::SMobTable *> >
PUBLIC	??$forward@PAU?$_Tree_node@U?$pair@$$CBKPAUSMobTable@CPythonNonPlayer@@@std@@PAX@std@@@std@@YA$$QAPAU?$_Tree_node@U?$pair@$$CBKPAUSMobTable@CPythonNonPlayer@@@std@@PAX@0@AAPAU10@@Z ; std::forward<std::_Tree_node<std::pair<unsigned long const ,CPythonNonPlayer::SMobTable *>,void *> *>
PUBLIC	??$forward@AAPAU?$_Tree_node@U?$pair@$$CBKPAUSMobTable@CPythonNonPlayer@@@std@@PAX@std@@@std@@YAAAPAU?$_Tree_node@U?$pair@$$CBKPAUSMobTable@CPythonNonPlayer@@@std@@PAX@0@AAPAU10@@Z ; std::forward<std::_Tree_node<std::pair<unsigned long const ,CPythonNonPlayer::SMobTable *>,void *> * &>
PUBLIC	??$_Construct_in_place@PAU?$_Tree_node@U?$pair@$$CBKPAUSMobTable@CPythonNonPlayer@@@std@@PAX@std@@AAPAU12@@std@@YAXAAPAU?$_Tree_node@U?$pair@$$CBKPAUSMobTable@CPythonNonPlayer@@@std@@PAX@0@0@Z ; std::_Construct_in_place<std::_Tree_node<std::pair<unsigned long const ,CPythonNonPlayer::SMobTable *>,void *> *,std::_Tree_node<std::pair<unsigned long const ,CPythonNonPlayer::SMobTable *>,void *> * &>
PUBLIC	??$construct@U?$pair@$$CBKPAUSMobTable@CPythonNonPlayer@@@std@@U12@@?$_Default_allocator_traits@V?$allocator@U?$_Tree_node@U?$pair@$$CBKPAUSMobTable@CPythonNonPlayer@@@std@@PAX@std@@@std@@@std@@SAXAAV?$allocator@U?$_Tree_node@U?$pair@$$CBKPAUSMobTable@CPythonNonPlayer@@@std@@PAX@std@@@1@QAU?$pair@$$CBKPAUSMobTable@CPythonNonPlayer@@@1@$$QAU31@@Z ; std::_Default_allocator_traits<std::allocator<std::_Tree_node<std::pair<unsigned long const ,CPythonNonPlayer::SMobTable *>,void *> > >::construct<std::pair<unsigned long const ,CPythonNonPlayer::SMobTable *>,std::pair<unsigned long const ,CPythonNonPlayer::SMobTable *> >
PUBLIC	??$_Kfn@$$CBKPAUSMobTable@CPythonNonPlayer@@@?$_Tmap_traits@KPAUSMobTable@CPythonNonPlayer@@U?$less@K@std@@V?$allocator@U?$pair@$$CBKPAUSMobTable@CPythonNonPlayer@@@std@@@4@$0A@@std@@SAABKABU?$pair@$$CBKPAUSMobTable@CPythonNonPlayer@@@1@@Z ; std::_Tmap_traits<unsigned long,CPythonNonPlayer::SMobTable *,std::less<unsigned long>,std::allocator<std::pair<unsigned long const ,CPythonNonPlayer::SMobTable *> >,0>::_Kfn<unsigned long const ,CPythonNonPlayer::SMobTable *>
PUBLIC	??$?0$$V@?$_Compressed_pair@V?$allocator@U?$_Tree_node@U?$pair@$$CBKPAUSMobTable@CPythonNonPlayer@@@std@@PAX@std@@@std@@V?$_Tree_val@U?$_Tree_simple_types@U?$pair@$$CBKPAUSMobTable@CPythonNonPlayer@@@std@@@std@@@2@$00@std@@QAE@U_Zero_then_variadic_args_t@1@@Z ; std::_Compressed_pair<std::allocator<std::_Tree_node<std::pair<unsigned long const ,CPythonNonPlayer::SMobTable *>,void *> >,std::_Tree_val<std::_Tree_simple_types<std::pair<unsigned long const ,CPythonNonPlayer::SMobTable *> > >,1>::_Compressed_pair<std::allocator<std::_Tree_node<std::pair<unsigned long const ,CPythonNonPlayer::SMobTable *>,void *> >,std::_Tree_val<std::_Tree_simple_types<std::pair<unsigned long const ,CPythonNonPlayer::SMobTable *> > >,1><>
PUBLIC	??1?$_Tree_temp_node_alloc@V?$allocator@U?$_Tree_node@U?$pair@$$CBKPAUSMobTable@CPythonNonPlayer@@@std@@PAX@std@@@std@@@std@@QAE@XZ ; std::_Tree_temp_node_alloc<std::allocator<std::_Tree_node<std::pair<unsigned long const ,CPythonNonPlayer::SMobTable *>,void *> > >::~_Tree_temp_node_alloc<std::allocator<std::_Tree_node<std::pair<unsigned long const ,CPythonNonPlayer::SMobTable *>,void *> > >
PUBLIC	?_Check_grow_by_1@?$_Tree@V?$_Tmap_traits@KPAUSMobTable@CPythonNonPlayer@@U?$less@K@std@@V?$allocator@U?$pair@$$CBKPAUSMobTable@CPythonNonPlayer@@@std@@@4@$0A@@std@@@std@@IAEXXZ ; std::_Tree<std::_Tmap_traits<unsigned long,CPythonNonPlayer::SMobTable *,std::less<unsigned long>,std::allocator<std::pair<unsigned long const ,CPythonNonPlayer::SMobTable *> >,0> >::_Check_grow_by_1
PUBLIC	?_Alloc_sentinel_and_proxy@?$_Tree@V?$_Tmap_traits@KPAUSMobTable@CPythonNonPlayer@@U?$less@K@std@@V?$allocator@U?$pair@$$CBKPAUSMobTable@CPythonNonPlayer@@@std@@@4@$0A@@std@@@std@@IAEXXZ ; std::_Tree<std::_Tmap_traits<unsigned long,CPythonNonPlayer::SMobTable *,std::less<unsigned long>,std::allocator<std::pair<unsigned long const ,CPythonNonPlayer::SMobTable *> >,0> >::_Alloc_sentinel_and_proxy
PUBLIC	?_Get_scary@?$_Tree@V?$_Tmap_traits@KPAUSMobTable@CPythonNonPlayer@@U?$less@K@std@@V?$allocator@U?$pair@$$CBKPAUSMobTable@CPythonNonPlayer@@@std@@@4@$0A@@std@@@std@@IBEPBV?$_Tree_val@U?$_Tree_simple_types@U?$pair@$$CBKPAUSMobTable@CPythonNonPlayer@@@std@@@std@@@2@XZ ; std::_Tree<std::_Tmap_traits<unsigned long,CPythonNonPlayer::SMobTable *,std::less<unsigned long>,std::allocator<std::pair<unsigned long const ,CPythonNonPlayer::SMobTable *> >,0> >::_Get_scary
PUBLIC	?_Insert_node@?$_Tree_val@U?$_Tree_simple_types@U?$pair@$$CBKPAUSMobTable@CPythonNonPlayer@@@std@@@std@@@std@@QAEPAU?$_Tree_node@U?$pair@$$CBKPAUSMobTable@CPythonNonPlayer@@@std@@PAX@2@U?$_Tree_id@PAU?$_Tree_node@U?$pair@$$CBKPAUSMobTable@CPythonNonPlayer@@@std@@PAX@std@@@2@QAU32@@Z ; std::_Tree_val<std::_Tree_simple_types<std::pair<unsigned long const ,CPythonNonPlayer::SMobTable *> > >::_Insert_node
PUBLIC	??D?$_Tree_const_iterator@V?$_Tree_val@U?$_Tree_simple_types@U?$pair@$$CBKPAUSMobTable@CPythonNonPlayer@@@std@@@std@@@std@@@std@@QBEABU?$pair@$$CBKPAUSMobTable@CPythonNonPlayer@@@1@XZ ; std::_Tree_const_iterator<std::_Tree_val<std::_Tree_simple_types<std::pair<unsigned long const ,CPythonNonPlayer::SMobTable *> > > >::operator*
PUBLIC	??E?$_Tree_unchecked_const_iterator@V?$_Tree_val@U?$_Tree_simple_types@U?$pair@$$CBKPAUSMobTable@CPythonNonPlayer@@@std@@@std@@@std@@U_Iterator_base0@2@@std@@QAEAAV01@XZ ; std::_Tree_unchecked_const_iterator<std::_Tree_val<std::_Tree_simple_types<std::pair<unsigned long const ,CPythonNonPlayer::SMobTable *> > >,std::_Iterator_base0>::operator++
PUBLIC	?_Get_first@?$_Compressed_pair@V?$allocator@U?$_Tree_node@U?$pair@$$CBKPAUSMobTable@CPythonNonPlayer@@@std@@PAX@std@@@std@@V?$_Tree_val@U?$_Tree_simple_types@U?$pair@$$CBKPAUSMobTable@CPythonNonPlayer@@@std@@@std@@@2@$00@std@@QAEAAV?$allocator@U?$_Tree_node@U?$pair@$$CBKPAUSMobTable@CPythonNonPlayer@@@std@@PAX@std@@@2@XZ ; std::_Compressed_pair<std::allocator<std::_Tree_node<std::pair<unsigned long const ,CPythonNonPlayer::SMobTable *>,void *> >,std::_Tree_val<std::_Tree_simple_types<std::pair<unsigned long const ,CPythonNonPlayer::SMobTable *> > >,1>::_Get_first
PUBLIC	?_Extract@?$_In_place_key_extract_map_impl@KU?$pair@$$CBKPAUSMobTable@CPythonNonPlayer@@@std@@@std@@SAABKABU?$pair@$$CBKPAUSMobTable@CPythonNonPlayer@@@2@@Z ; std::_In_place_key_extract_map_impl<unsigned long,std::pair<unsigned long const ,CPythonNonPlayer::SMobTable *> >::_Extract
PUBLIC	??1?$_Tree_temp_node@V?$allocator@U?$_Tree_node@U?$pair@$$CBKPAUSMobTable@CPythonNonPlayer@@@std@@PAX@std@@@std@@@std@@QAE@XZ ; std::_Tree_temp_node<std::allocator<std::_Tree_node<std::pair<unsigned long const ,CPythonNonPlayer::SMobTable *>,void *> > >::~_Tree_temp_node<std::allocator<std::_Tree_node<std::pair<unsigned long const ,CPythonNonPlayer::SMobTable *>,void *> > >
PUBLIC	?_Release@?$_Alloc_construct_ptr@V?$allocator@U?$_Tree_node@U?$pair@$$CBKPAUSMobTable@CPythonNonPlayer@@@std@@PAX@std@@@std@@@std@@QAEPAU?$_Tree_node@U?$pair@$$CBKPAUSMobTable@CPythonNonPlayer@@@std@@PAX@2@XZ ; std::_Alloc_construct_ptr<std::allocator<std::_Tree_node<std::pair<unsigned long const ,CPythonNonPlayer::SMobTable *>,void *> > >::_Release
PUBLIC	??$?0ABU?$less@K@std@@U_Zero_then_variadic_args_t@1@@?$_Compressed_pair@U?$less@K@std@@V?$_Compressed_pair@V?$allocator@U?$_Tree_node@U?$pair@$$CBKPAUSMobTable@CPythonNonPlayer@@@std@@PAX@std@@@std@@V?$_Tree_val@U?$_Tree_simple_types@U?$pair@$$CBKPAUSMobTable@CPythonNonPlayer@@@std@@@std@@@2@$00@2@$00@std@@QAE@U_One_then_variadic_args_t@1@ABU?$less@K@1@$$QAU_Zero_then_variadic_args_t@1@@Z ; std::_Compressed_pair<std::less<unsigned long>,std::_Compressed_pair<std::allocator<std::_Tree_node<std::pair<unsigned long const ,CPythonNonPlayer::SMobTable *>,void *> >,std::_Tree_val<std::_Tree_simple_types<std::pair<unsigned long const ,CPythonNonPlayer::SMobTable *> > >,1>,1>::_Compressed_pair<std::less<unsigned long>,std::_Compressed_pair<std::allocator<std::_Tree_node<std::pair<unsigned long const ,CPythonNonPlayer::SMobTable *>,void *> >,std::_Tree_val<std::_Tree_simple_types<std::pair<unsigned long const ,CPythonNonPlayer::SMobTable *> > >,1>,1><std::less<unsigned long> const &,std::_Zero_then_variadic_args_t>
PUBLIC	??$addressof@V?$_Tree_val@U?$_Tree_simple_types@U?$pair@$$CBKPAUSMobTable@CPythonNonPlayer@@@std@@@std@@@std@@@std@@YAPAV?$_Tree_val@U?$_Tree_simple_types@U?$pair@$$CBKPAUSMobTable@CPythonNonPlayer@@@std@@@std@@@0@AAV10@@Z ; std::addressof<std::_Tree_val<std::_Tree_simple_types<std::pair<unsigned long const ,CPythonNonPlayer::SMobTable *> > > >
PUBLIC	??$addressof@U?$pair@$$CBKPAUSMobTable@CPythonNonPlayer@@@std@@@std@@YAPAU?$pair@$$CBKPAUSMobTable@CPythonNonPlayer@@@0@AAU10@@Z ; std::addressof<std::pair<unsigned long const ,CPythonNonPlayer::SMobTable *> >
PUBLIC	??$_Freenode0@V?$allocator@U?$_Tree_node@U?$pair@$$CBKPAUSMobTable@CPythonNonPlayer@@@std@@PAX@std@@@std@@@?$_Tree_node@U?$pair@$$CBKPAUSMobTable@CPythonNonPlayer@@@std@@PAX@std@@SAXAAV?$allocator@U?$_Tree_node@U?$pair@$$CBKPAUSMobTable@CPythonNonPlayer@@@std@@PAX@std@@@1@PAU01@@Z ; std::_Tree_node<std::pair<unsigned long const ,CPythonNonPlayer::SMobTable *>,void *>::_Freenode0<std::allocator<std::_Tree_node<std::pair<unsigned long const ,CPythonNonPlayer::SMobTable *>,void *> > >
PUBLIC	??$_Freenode@V?$allocator@U?$_Tree_node@U?$pair@$$CBKPAUSMobTable@CPythonNonPlayer@@@std@@PAX@std@@@std@@@?$_Tree_node@U?$pair@$$CBKPAUSMobTable@CPythonNonPlayer@@@std@@PAX@std@@SAXAAV?$allocator@U?$_Tree_node@U?$pair@$$CBKPAUSMobTable@CPythonNonPlayer@@@std@@PAX@std@@@1@PAU01@@Z ; std::_Tree_node<std::pair<unsigned long const ,CPythonNonPlayer::SMobTable *>,void *>::_Freenode<std::allocator<std::_Tree_node<std::pair<unsigned long const ,CPythonNonPlayer::SMobTable *>,void *> > >
PUBLIC	??$exchange@PAU?$_Tree_node@U?$pair@$$CBKPAUSMobTable@CPythonNonPlayer@@@std@@PAX@std@@AAPAU12@@std@@YAPAU?$_Tree_node@U?$pair@$$CBKPAUSMobTable@CPythonNonPlayer@@@std@@PAX@0@AAPAU10@0@Z ; std::exchange<std::_Tree_node<std::pair<unsigned long const ,CPythonNonPlayer::SMobTable *>,void *> *,std::_Tree_node<std::pair<unsigned long const ,CPythonNonPlayer::SMobTable *>,void *> * &>
PUBLIC	??$forward@V?$_Tree_iterator@V?$_Tree_val@U?$_Tree_simple_types@U?$pair@$$CBKPAUSMobTable@CPythonNonPlayer@@@std@@@std@@@std@@@std@@@std@@YA$$QAV?$_Tree_iterator@V?$_Tree_val@U?$_Tree_simple_types@U?$pair@$$CBKPAUSMobTable@CPythonNonPlayer@@@std@@@std@@@std@@@0@AAV10@@Z ; std::forward<std::_Tree_iterator<std::_Tree_val<std::_Tree_simple_types<std::pair<unsigned long const ,CPythonNonPlayer::SMobTable *> > > > >
PUBLIC	??$?0PAU?$_Tree_node@U?$pair@$$CBKPAUSMobTable@CPythonNonPlayer@@@std@@PAX@std@@_N$0A@@?$pair@PAU?$_Tree_node@U?$pair@$$CBKPAUSMobTable@CPythonNonPlayer@@@std@@PAX@std@@_N@std@@QAE@$$QAPAU?$_Tree_node@U?$pair@$$CBKPAUSMobTable@CPythonNonPlayer@@@std@@PAX@1@$$QA_N@Z ; std::pair<std::_Tree_node<std::pair<unsigned long const ,CPythonNonPlayer::SMobTable *>,void *> *,bool>::pair<std::_Tree_node<std::pair<unsigned long const ,CPythonNonPlayer::SMobTable *>,void *> *,bool><std::_Tree_node<std::pair<unsigned long const ,CPythonNonPlayer::SMobTable *>,void *> *,bool,0>
PUBLIC	??$?0AAPAU?$_Tree_node@U?$pair@$$CBKPAUSMobTable@CPythonNonPlayer@@@std@@PAX@std@@_N$0A@@?$pair@PAU?$_Tree_node@U?$pair@$$CBKPAUSMobTable@CPythonNonPlayer@@@std@@PAX@std@@_N@std@@QAE@AAPAU?$_Tree_node@U?$pair@$$CBKPAUSMobTable@CPythonNonPlayer@@@std@@PAX@1@$$QA_N@Z ; std::pair<std::_Tree_node<std::pair<unsigned long const ,CPythonNonPlayer::SMobTable *>,void *> *,bool>::pair<std::_Tree_node<std::pair<unsigned long const ,CPythonNonPlayer::SMobTable *>,void *> *,bool><std::_Tree_node<std::pair<unsigned long const ,CPythonNonPlayer::SMobTable *>,void *> * &,bool,0>
PUBLIC	??$?0U?$pair@$$CBKPAUSMobTable@CPythonNonPlayer@@@std@@@?$_Tree_temp_node@V?$allocator@U?$_Tree_node@U?$pair@$$CBKPAUSMobTable@CPythonNonPlayer@@@std@@PAX@std@@@std@@@std@@QAE@AAV?$allocator@U?$_Tree_node@U?$pair@$$CBKPAUSMobTable@CPythonNonPlayer@@@std@@PAX@std@@@1@PAU?$_Tree_node@U?$pair@$$CBKPAUSMobTable@CPythonNonPlayer@@@std@@PAX@1@$$QAU?$pair@$$CBKPAUSMobTable@CPythonNonPlayer@@@1@@Z ; std::_Tree_temp_node<std::allocator<std::_Tree_node<std::pair<unsigned long const ,CPythonNonPlayer::SMobTable *>,void *> > >::_Tree_temp_node<std::allocator<std::_Tree_node<std::pair<unsigned long const ,CPythonNonPlayer::SMobTable *>,void *> > ><std::pair<unsigned long const ,CPythonNonPlayer::SMobTable *> >
PUBLIC	??$forward@U?$pair@$$CBKPAUSMobTable@CPythonNonPlayer@@@std@@@std@@YA$$QAU?$pair@$$CBKPAUSMobTable@CPythonNonPlayer@@@0@AAU10@@Z ; std::forward<std::pair<unsigned long const ,CPythonNonPlayer::SMobTable *> >
PUBLIC	??$_Lower_bound_duplicate@K@?$_Tree@V?$_Tmap_traits@KPAUSMobTable@CPythonNonPlayer@@U?$less@K@std@@V?$allocator@U?$pair@$$CBKPAUSMobTable@CPythonNonPlayer@@@std@@@4@$0A@@std@@@std@@IBE_NQAU?$_Tree_node@U?$pair@$$CBKPAUSMobTable@CPythonNonPlayer@@@std@@PAX@1@ABK@Z ; std::_Tree<std::_Tmap_traits<unsigned long,CPythonNonPlayer::SMobTable *,std::less<unsigned long>,std::allocator<std::pair<unsigned long const ,CPythonNonPlayer::SMobTable *> >,0> >::_Lower_bound_duplicate<unsigned long>
PUBLIC	??$_Find_lower_bound@K@?$_Tree@V?$_Tmap_traits@KPAUSMobTable@CPythonNonPlayer@@U?$less@K@std@@V?$allocator@U?$pair@$$CBKPAUSMobTable@CPythonNonPlayer@@@std@@@4@$0A@@std@@@std@@IBE?AU?$_Tree_find_result@PAU?$_Tree_node@U?$pair@$$CBKPAUSMobTable@CPythonNonPlayer@@@std@@PAX@std@@@1@ABK@Z ; std::_Tree<std::_Tmap_traits<unsigned long,CPythonNonPlayer::SMobTable *,std::less<unsigned long>,std::allocator<std::pair<unsigned long const ,CPythonNonPlayer::SMobTable *> >,0> >::_Find_lower_bound<unsigned long>
PUBLIC	??0?$_Tree@V?$_Tmap_traits@KPAUSMobTable@CPythonNonPlayer@@U?$less@K@std@@V?$allocator@U?$pair@$$CBKPAUSMobTable@CPythonNonPlayer@@@std@@@4@$0A@@std@@@std@@QAE@ABU?$less@K@1@@Z ; std::_Tree<std::_Tmap_traits<unsigned long,CPythonNonPlayer::SMobTable *,std::less<unsigned long>,std::allocator<std::pair<unsigned long const ,CPythonNonPlayer::SMobTable *> >,0> >::_Tree<std::_Tmap_traits<unsigned long,CPythonNonPlayer::SMobTable *,std::less<unsigned long>,std::allocator<std::pair<unsigned long const ,CPythonNonPlayer::SMobTable *> >,0> >
PUBLIC	?_Getal@?$_Tree@V?$_Tmap_traits@KPAUSMobTable@CPythonNonPlayer@@U?$less@K@std@@V?$allocator@U?$pair@$$CBKPAUSMobTable@CPythonNonPlayer@@@std@@@4@$0A@@std@@@std@@IAEAAV?$allocator@U?$_Tree_node@U?$pair@$$CBKPAUSMobTable@CPythonNonPlayer@@@std@@PAX@std@@@2@XZ ; std::_Tree<std::_Tmap_traits<unsigned long,CPythonNonPlayer::SMobTable *,std::less<unsigned long>,std::allocator<std::pair<unsigned long const ,CPythonNonPlayer::SMobTable *> >,0> >::_Getal
PUBLIC	?_Get_scary@?$_Tree@V?$_Tmap_traits@KPAUSMobTable@CPythonNonPlayer@@U?$less@K@std@@V?$allocator@U?$pair@$$CBKPAUSMobTable@CPythonNonPlayer@@@std@@@4@$0A@@std@@@std@@IAEPAV?$_Tree_val@U?$_Tree_simple_types@U?$pair@$$CBKPAUSMobTable@CPythonNonPlayer@@@std@@@std@@@2@XZ ; std::_Tree<std::_Tmap_traits<unsigned long,CPythonNonPlayer::SMobTable *,std::less<unsigned long>,std::allocator<std::pair<unsigned long const ,CPythonNonPlayer::SMobTable *> >,0> >::_Get_scary
PUBLIC	?_Orphan_ptr@?$_Tree_val@U?$_Tree_simple_types@U?$pair@$$CBKPAUSMobTable@CPythonNonPlayer@@@std@@@std@@@std@@QAEXQAU?$_Tree_node@U?$pair@$$CBKPAUSMobTable@CPythonNonPlayer@@@std@@PAX@2@@Z ; std::_Tree_val<std::_Tree_simple_types<std::pair<unsigned long const ,CPythonNonPlayer::SMobTable *> > >::_Orphan_ptr
PUBLIC	??E?$_Tree_const_iterator@V?$_Tree_val@U?$_Tree_simple_types@U?$pair@$$CBKPAUSMobTable@CPythonNonPlayer@@@std@@@std@@@std@@@std@@QAEAAV01@XZ ; std::_Tree_const_iterator<std::_Tree_val<std::_Tree_simple_types<std::pair<unsigned long const ,CPythonNonPlayer::SMobTable *> > > >::operator++
PUBLIC	??D?$_Tree_iterator@V?$_Tree_val@U?$_Tree_simple_types@U?$pair@$$CBKPAUSMobTable@CPythonNonPlayer@@@std@@@std@@@std@@@std@@QBEAAU?$pair@$$CBKPAUSMobTable@CPythonNonPlayer@@@1@XZ ; std::_Tree_iterator<std::_Tree_val<std::_Tree_simple_types<std::pair<unsigned long const ,CPythonNonPlayer::SMobTable *> > > >::operator*
PUBLIC	??0?$_Tree_unchecked_const_iterator@V?$_Tree_val@U?$_Tree_simple_types@U?$pair@$$CBKPAUSMobTable@CPythonNonPlayer@@@std@@@std@@@std@@U_Iterator_base0@2@@std@@QAE@PAU?$_Tree_node@U?$pair@$$CBKPAUSMobTable@CPythonNonPlayer@@@std@@PAX@1@PBV?$_Tree_val@U?$_Tree_simple_types@U?$pair@$$CBKPAUSMobTable@CPythonNonPlayer@@@std@@@std@@@1@@Z ; std::_Tree_unchecked_const_iterator<std::_Tree_val<std::_Tree_simple_types<std::pair<unsigned long const ,CPythonNonPlayer::SMobTable *> > >,std::_Iterator_base0>::_Tree_unchecked_const_iterator<std::_Tree_val<std::_Tree_simple_types<std::pair<unsigned long const ,CPythonNonPlayer::SMobTable *> > >,std::_Iterator_base0>
PUBLIC	?pointer_to@?$pointer_traits@PAU?$pair@$$CBKPAUSMobTable@CPythonNonPlayer@@@std@@@std@@SAPAU?$pair@$$CBKPAUSMobTable@CPythonNonPlayer@@@2@AAU32@@Z ; std::pointer_traits<std::pair<unsigned long const ,CPythonNonPlayer::SMobTable *> *>::pointer_to
PUBLIC	??$_Erase_head@V?$allocator@U?$_Tree_node@U?$pair@$$CBKPAUSMobTable@CPythonNonPlayer@@@std@@PAX@std@@@std@@@?$_Tree_val@U?$_Tree_simple_types@U?$pair@$$CBKPAUSMobTable@CPythonNonPlayer@@@std@@@std@@@std@@QAEXAAV?$allocator@U?$_Tree_node@U?$pair@$$CBKPAUSMobTable@CPythonNonPlayer@@@std@@PAX@std@@@1@@Z ; std::_Tree_val<std::_Tree_simple_types<std::pair<unsigned long const ,CPythonNonPlayer::SMobTable *> > >::_Erase_head<std::allocator<std::_Tree_node<std::pair<unsigned long const ,CPythonNonPlayer::SMobTable *>,void *> > >
PUBLIC	??$_Erase_tree@V?$allocator@U?$_Tree_node@U?$pair@$$CBKPAUSMobTable@CPythonNonPlayer@@@std@@PAX@std@@@std@@@?$_Tree_val@U?$_Tree_simple_types@U?$pair@$$CBKPAUSMobTable@CPythonNonPlayer@@@std@@@std@@@std@@QAEXAAV?$allocator@U?$_Tree_node@U?$pair@$$CBKPAUSMobTable@CPythonNonPlayer@@@std@@PAX@std@@@1@PAU?$_Tree_node@U?$pair@$$CBKPAUSMobTable@CPythonNonPlayer@@@std@@PAX@1@@Z ; std::_Tree_val<std::_Tree_simple_types<std::pair<unsigned long const ,CPythonNonPlayer::SMobTable *> > >::_Erase_tree<std::allocator<std::_Tree_node<std::pair<unsigned long const ,CPythonNonPlayer::SMobTable *>,void *> > >
PUBLIC	??$_Find@K@?$_Tree@V?$_Tmap_traits@KPAUSMobTable@CPythonNonPlayer@@U?$less@K@std@@V?$allocator@U?$pair@$$CBKPAUSMobTable@CPythonNonPlayer@@@std@@@4@$0A@@std@@@std@@ABEPAU?$_Tree_node@U?$pair@$$CBKPAUSMobTable@CPythonNonPlayer@@@std@@PAX@1@ABK@Z ; std::_Tree<std::_Tmap_traits<unsigned long,CPythonNonPlayer::SMobTable *,std::less<unsigned long>,std::allocator<std::pair<unsigned long const ,CPythonNonPlayer::SMobTable *> >,0> >::_Find<unsigned long>
PUBLIC	??$?0V?$_Tree_iterator@V?$_Tree_val@U?$_Tree_simple_types@U?$pair@$$CBKPAUSMobTable@CPythonNonPlayer@@@std@@@std@@@std@@@std@@AB_N$0A@@?$pair@V?$_Tree_iterator@V?$_Tree_val@U?$_Tree_simple_types@U?$pair@$$CBKPAUSMobTable@CPythonNonPlayer@@@std@@@std@@@std@@@std@@_N@std@@QAE@$$QAV?$_Tree_iterator@V?$_Tree_val@U?$_Tree_simple_types@U?$pair@$$CBKPAUSMobTable@CPythonNonPlayer@@@std@@@std@@@std@@@1@AB_N@Z ; std::pair<std::_Tree_iterator<std::_Tree_val<std::_Tree_simple_types<std::pair<unsigned long const ,CPythonNonPlayer::SMobTable *> > > >,bool>::pair<std::_Tree_iterator<std::_Tree_val<std::_Tree_simple_types<std::pair<unsigned long const ,CPythonNonPlayer::SMobTable *> > > >,bool><std::_Tree_iterator<std::_Tree_val<std::_Tree_simple_types<std::pair<unsigned long const ,CPythonNonPlayer::SMobTable *> > > >,bool const &,0>
PUBLIC	??$_Emplace@U?$pair@$$CBKPAUSMobTable@CPythonNonPlayer@@@std@@@?$_Tree@V?$_Tmap_traits@KPAUSMobTable@CPythonNonPlayer@@U?$less@K@std@@V?$allocator@U?$pair@$$CBKPAUSMobTable@CPythonNonPlayer@@@std@@@4@$0A@@std@@@std@@IAE?AU?$pair@PAU?$_Tree_node@U?$pair@$$CBKPAUSMobTable@CPythonNonPlayer@@@std@@PAX@std@@_N@1@$$QAU?$pair@$$CBKPAUSMobTable@CPythonNonPlayer@@@1@@Z ; std::_Tree<std::_Tmap_traits<unsigned long,CPythonNonPlayer::SMobTable *,std::less<unsigned long>,std::allocator<std::pair<unsigned long const ,CPythonNonPlayer::SMobTable *> >,0> >::_Emplace<std::pair<unsigned long const ,CPythonNonPlayer::SMobTable *> >
PUBLIC	??$move@AAU?$pair@$$CBKPAUSMobTable@CPythonNonPlayer@@@std@@@std@@YA$$QAU?$pair@$$CBKPAUSMobTable@CPythonNonPlayer@@@0@AAU10@@Z ; std::move<std::pair<unsigned long const ,CPythonNonPlayer::SMobTable *> &>
PUBLIC	??$forward@AAPAUSMobTable@CPythonNonPlayer@@@std@@YAAAPAUSMobTable@CPythonNonPlayer@@AAPAU12@@Z ; std::forward<CPythonNonPlayer::SMobTable * &>
PUBLIC	??0?$_Tree_const_iterator@V?$_Tree_val@U?$_Tree_simple_types@U?$pair@$$CBKPAUSMobTable@CPythonNonPlayer@@@std@@@std@@@std@@@std@@QAE@PAU?$_Tree_node@U?$pair@$$CBKPAUSMobTable@CPythonNonPlayer@@@std@@PAX@1@PBV?$_Tree_val@U?$_Tree_simple_types@U?$pair@$$CBKPAUSMobTable@CPythonNonPlayer@@@std@@@std@@@1@@Z ; std::_Tree_const_iterator<std::_Tree_val<std::_Tree_simple_types<std::pair<unsigned long const ,CPythonNonPlayer::SMobTable *> > > >::_Tree_const_iterator<std::_Tree_val<std::_Tree_simple_types<std::pair<unsigned long const ,CPythonNonPlayer::SMobTable *> > > >
PUBLIC	??_G?$CSingleton@VCPythonNonPlayer@@@@UAEPAXI@Z	; CSingleton<CPythonNonPlayer>::`scalar deleting destructor'
PUBLIC	??0?$_Tree_iterator@V?$_Tree_val@U?$_Tree_simple_types@U?$pair@$$CBKPAUSMobTable@CPythonNonPlayer@@@std@@@std@@@std@@@std@@QAE@PAU?$_Tree_node@U?$pair@$$CBKPAUSMobTable@CPythonNonPlayer@@@std@@PAX@1@PBV?$_Tree_val@U?$_Tree_simple_types@U?$pair@$$CBKPAUSMobTable@CPythonNonPlayer@@@std@@@std@@@1@@Z ; std::_Tree_iterator<std::_Tree_val<std::_Tree_simple_types<std::pair<unsigned long const ,CPythonNonPlayer::SMobTable *> > > >::_Tree_iterator<std::_Tree_val<std::_Tree_simple_types<std::pair<unsigned long const ,CPythonNonPlayer::SMobTable *> > > >
PUBLIC	??0?$CSingleton@VCPythonNonPlayer@@@@QAE@XZ	; CSingleton<CPythonNonPlayer>::CSingleton<CPythonNonPlayer>
PUBLIC	??1?$CSingleton@VCPythonNonPlayer@@@@UAE@XZ	; CSingleton<CPythonNonPlayer>::~CSingleton<CPythonNonPlayer>
PUBLIC	??0?$map@KPAUSMobTable@CPythonNonPlayer@@U?$less@K@std@@V?$allocator@U?$pair@$$CBKPAUSMobTable@CPythonNonPlayer@@@std@@@4@@std@@QAE@XZ ; std::map<unsigned long,CPythonNonPlayer::SMobTable *,std::less<unsigned long>,std::allocator<std::pair<unsigned long const ,CPythonNonPlayer::SMobTable *> > >::map<unsigned long,CPythonNonPlayer::SMobTable *,std::less<unsigned long>,std::allocator<std::pair<unsigned long const ,CPythonNonPlayer::SMobTable *> > >
PUBLIC	??1?$_Tree@V?$_Tmap_traits@KPAUSMobTable@CPythonNonPlayer@@U?$less@K@std@@V?$allocator@U?$pair@$$CBKPAUSMobTable@CPythonNonPlayer@@@std@@@4@$0A@@std@@@std@@QAE@XZ ; std::_Tree<std::_Tmap_traits<unsigned long,CPythonNonPlayer::SMobTable *,std::less<unsigned long>,std::allocator<std::pair<unsigned long const ,CPythonNonPlayer::SMobTable *> >,0> >::~_Tree<std::_Tmap_traits<unsigned long,CPythonNonPlayer::SMobTable *,std::less<unsigned long>,std::allocator<std::pair<unsigned long const ,CPythonNonPlayer::SMobTable *> >,0> >
PUBLIC	?begin@?$_Tree@V?$_Tmap_traits@KPAUSMobTable@CPythonNonPlayer@@U?$less@K@std@@V?$allocator@U?$pair@$$CBKPAUSMobTable@CPythonNonPlayer@@@std@@@4@$0A@@std@@@std@@QAE?AV?$_Tree_iterator@V?$_Tree_val@U?$_Tree_simple_types@U?$pair@$$CBKPAUSMobTable@CPythonNonPlayer@@@std@@@std@@@std@@@2@XZ ; std::_Tree<std::_Tmap_traits<unsigned long,CPythonNonPlayer::SMobTable *,std::less<unsigned long>,std::allocator<std::pair<unsigned long const ,CPythonNonPlayer::SMobTable *> >,0> >::begin
PUBLIC	?end@?$_Tree@V?$_Tmap_traits@KPAUSMobTable@CPythonNonPlayer@@U?$less@K@std@@V?$allocator@U?$pair@$$CBKPAUSMobTable@CPythonNonPlayer@@@std@@@4@$0A@@std@@@std@@QAE?AV?$_Tree_iterator@V?$_Tree_val@U?$_Tree_simple_types@U?$pair@$$CBKPAUSMobTable@CPythonNonPlayer@@@std@@@std@@@std@@@2@XZ ; std::_Tree<std::_Tmap_traits<unsigned long,CPythonNonPlayer::SMobTable *,std::less<unsigned long>,std::allocator<std::pair<unsigned long const ,CPythonNonPlayer::SMobTable *> >,0> >::end
PUBLIC	?clear@?$_Tree@V?$_Tmap_traits@KPAUSMobTable@CPythonNonPlayer@@U?$less@K@std@@V?$allocator@U?$pair@$$CBKPAUSMobTable@CPythonNonPlayer@@@std@@@4@$0A@@std@@@std@@QAEXXZ ; std::_Tree<std::_Tmap_traits<unsigned long,CPythonNonPlayer::SMobTable *,std::less<unsigned long>,std::allocator<std::pair<unsigned long const ,CPythonNonPlayer::SMobTable *> >,0> >::clear
PUBLIC	?find@?$_Tree@V?$_Tmap_traits@KPAUSMobTable@CPythonNonPlayer@@U?$less@K@std@@V?$allocator@U?$pair@$$CBKPAUSMobTable@CPythonNonPlayer@@@std@@@4@$0A@@std@@@std@@QAE?AV?$_Tree_iterator@V?$_Tree_val@U?$_Tree_simple_types@U?$pair@$$CBKPAUSMobTable@CPythonNonPlayer@@@std@@@std@@@std@@@2@ABK@Z ; std::_Tree<std::_Tmap_traits<unsigned long,CPythonNonPlayer::SMobTable *,std::less<unsigned long>,std::allocator<std::pair<unsigned long const ,CPythonNonPlayer::SMobTable *> >,0> >::find
PUBLIC	??8?$_Tree_const_iterator@V?$_Tree_val@U?$_Tree_simple_types@U?$pair@$$CBKPAUSMobTable@CPythonNonPlayer@@@std@@@std@@@std@@@std@@QBE_NABV01@@Z ; std::_Tree_const_iterator<std::_Tree_val<std::_Tree_simple_types<std::pair<unsigned long const ,CPythonNonPlayer::SMobTable *> > > >::operator==
PUBLIC	??C?$_Tree_iterator@V?$_Tree_val@U?$_Tree_simple_types@U?$pair@$$CBKPAUSMobTable@CPythonNonPlayer@@@std@@@std@@@std@@@std@@QBEPAU?$pair@$$CBKPAUSMobTable@CPythonNonPlayer@@@1@XZ ; std::_Tree_iterator<std::_Tree_val<std::_Tree_simple_types<std::pair<unsigned long const ,CPythonNonPlayer::SMobTable *> > > >::operator->
PUBLIC	??E?$_Tree_iterator@V?$_Tree_val@U?$_Tree_simple_types@U?$pair@$$CBKPAUSMobTable@CPythonNonPlayer@@@std@@@std@@@std@@@std@@QAEAAV01@XZ ; std::_Tree_iterator<std::_Tree_val<std::_Tree_simple_types<std::pair<unsigned long const ,CPythonNonPlayer::SMobTable *> > > >::operator++
PUBLIC	??$insert@$0A@$0A@@?$_Tree@V?$_Tmap_traits@KPAUSMobTable@CPythonNonPlayer@@U?$less@K@std@@V?$allocator@U?$pair@$$CBKPAUSMobTable@CPythonNonPlayer@@@std@@@4@$0A@@std@@@std@@QAE?AU?$pair@V?$_Tree_iterator@V?$_Tree_val@U?$_Tree_simple_types@U?$pair@$$CBKPAUSMobTable@CPythonNonPlayer@@@std@@@std@@@std@@@std@@_N@1@$$QAU?$pair@$$CBKPAUSMobTable@CPythonNonPlayer@@@1@@Z ; std::_Tree<std::_Tmap_traits<unsigned long,CPythonNonPlayer::SMobTable *,std::less<unsigned long>,std::allocator<std::pair<unsigned long const ,CPythonNonPlayer::SMobTable *> >,0> >::insert<0,0>
PUBLIC	??$?0AAKAAPAUSMobTable@CPythonNonPlayer@@$0A@@?$pair@$$CBKPAUSMobTable@CPythonNonPlayer@@@std@@QAE@AAKAAPAUSMobTable@CPythonNonPlayer@@@Z ; std::pair<unsigned long const ,CPythonNonPlayer::SMobTable *>::pair<unsigned long const ,CPythonNonPlayer::SMobTable *><unsigned long &,CPythonNonPlayer::SMobTable * &,0>
PUBLIC	??1?$map@KPAUSMobTable@CPythonNonPlayer@@U?$less@K@std@@V?$allocator@U?$pair@$$CBKPAUSMobTable@CPythonNonPlayer@@@std@@@4@@std@@QAE@XZ ; std::map<unsigned long,CPythonNonPlayer::SMobTable *,std::less<unsigned long>,std::allocator<std::pair<unsigned long const ,CPythonNonPlayer::SMobTable *> > >::~map<unsigned long,CPythonNonPlayer::SMobTable *,std::less<unsigned long>,std::allocator<std::pair<unsigned long const ,CPythonNonPlayer::SMobTable *> > >
PUBLIC	??_GCPythonNonPlayer@@UAEPAXI@Z			; CPythonNonPlayer::`scalar deleting destructor'
PUBLIC	?Clear@CPythonNonPlayer@@QAEXXZ			; CPythonNonPlayer::Clear
PUBLIC	?GetMonsterName@CPythonNonPlayer@@QAEPBDK@Z	; CPythonNonPlayer::GetMonsterName
PUBLIC	?GetEventTypeByVID@CPythonNonPlayer@@QAEEK@Z	; CPythonNonPlayer::GetEventTypeByVID
PUBLIC	?GetTable@CPythonNonPlayer@@QAEPBUSMobTable@1@K@Z ; CPythonNonPlayer::GetTable
PUBLIC	?GetEventType@CPythonNonPlayer@@QAEEK@Z		; CPythonNonPlayer::GetEventType
PUBLIC	??0CPythonNonPlayer@@QAE@XZ			; CPythonNonPlayer::CPythonNonPlayer
PUBLIC	??1CPythonNonPlayer@@UAE@XZ			; CPythonNonPlayer::~CPythonNonPlayer
PUBLIC	?Destroy@CPythonNonPlayer@@QAEXXZ		; CPythonNonPlayer::Destroy
PUBLIC	?LoadNonPlayerData@CPythonNonPlayer@@QAE_NPBD@Z	; CPythonNonPlayer::LoadNonPlayerData
PUBLIC	?GetInstanceType@CPythonNonPlayer@@QAE_NKPAE@Z	; CPythonNonPlayer::GetInstanceType
PUBLIC	?GetMonsterColor@CPythonNonPlayer@@QAEKK@Z	; CPythonNonPlayer::GetMonsterColor
PUBLIC	?GetName@CPythonNonPlayer@@QAE_NKPAPBD@Z	; CPythonNonPlayer::GetName
EXTRN	??_ECPythonNonPlayer@@UAEPAXI@Z:PROC		; CPythonNonPlayer::`vector deleting destructor'
EXTRN	??_E?$CSingleton@VCPythonNonPlayer@@@@UAEPAXI@Z:PROC ; CSingleton<CPythonNonPlayer>::`vector deleting destructor'
;	COMDAT xdata$x
xdata$x	SEGMENT
__ehfuncinfo$?LoadNonPlayerData@CPythonNonPlayer@@QAE_NPBD@Z DD 019930522H
	DD	02H
	DD	FLAT:__unwindtable$?LoadNonPlayerData@CPythonNonPlayer@@QAE_NPBD@Z
	DD	2 DUP(00H)
	DD	2 DUP(00H)
	DD	00H
	DD	01H
__unwindtable$?LoadNonPlayerData@CPythonNonPlayer@@QAE_NPBD@Z DD 0ffffffffH
	DD	FLAT:__unwindfunclet$?LoadNonPlayerData@CPythonNonPlayer@@QAE_NPBD@Z$0
	DD	00H
	DD	FLAT:__unwindfunclet$?LoadNonPlayerData@CPythonNonPlayer@@QAE_NPBD@Z$1
xdata$x	ENDS
;	COMDAT xdata$x
xdata$x	SEGMENT
__ehfuncinfo$??0CPythonNonPlayer@@QAE@XZ DD 019930522H
	DD	01H
	DD	FLAT:__unwindtable$??0CPythonNonPlayer@@QAE@XZ
	DD	2 DUP(00H)
	DD	2 DUP(00H)
	DD	00H
	DD	01H
__unwindtable$??0CPythonNonPlayer@@QAE@XZ DD 0ffffffffH
	DD	FLAT:__unwindfunclet$??0CPythonNonPlayer@@QAE@XZ$0
xdata$x	ENDS
;	COMDAT xdata$x
xdata$x	SEGMENT
__ehfuncinfo$??$insert@$0A@$0A@@?$_Tree@V?$_Tmap_traits@KPAUSMobTable@CPythonNonPlayer@@U?$less@K@std@@V?$allocator@U?$pair@$$CBKPAUSMobTable@CPythonNonPlayer@@@std@@@4@$0A@@std@@@std@@QAE?AU?$pair@V?$_Tree_iterator@V?$_Tree_val@U?$_Tree_simple_types@U?$pair@$$CBKPAUSMobTable@CPythonNonPlayer@@@std@@@std@@@std@@@std@@_N@1@$$QAU?$pair@$$CBKPAUSMobTable@CPythonNonPlayer@@@1@@Z DD 019930522H
	DD	01H
	DD	FLAT:__unwindtable$??$insert@$0A@$0A@@?$_Tree@V?$_Tmap_traits@KPAUSMobTable@CPythonNonPlayer@@U?$less@K@std@@V?$allocator@U?$pair@$$CBKPAUSMobTable@CPythonNonPlayer@@@std@@@4@$0A@@std@@@std@@QAE?AU?$pair@V?$_Tree_iterator@V?$_Tree_val@U?$_Tree_simple_types@U?$pair@$$CBKPAUSMobTable@CPythonNonPlayer@@@std@@@std@@@std@@@std@@_N@1@$$QAU?$pair@$$CBKPAUSMobTable@CPythonNonPlayer@@@1@@Z
	DD	2 DUP(00H)
	DD	2 DUP(00H)
	DD	00H
	DD	01H
__unwindtable$??$insert@$0A@$0A@@?$_Tree@V?$_Tmap_traits@KPAUSMobTable@CPythonNonPlayer@@U?$less@K@std@@V?$allocator@U?$pair@$$CBKPAUSMobTable@CPythonNonPlayer@@@std@@@4@$0A@@std@@@std@@QAE?AU?$pair@V?$_Tree_iterator@V?$_Tree_val@U?$_Tree_simple_types@U?$pair@$$CBKPAUSMobTable@CPythonNonPlayer@@@std@@@std@@@std@@@std@@_N@1@$$QAU?$pair@$$CBKPAUSMobTable@CPythonNonPlayer@@@1@@Z DD 0ffffffffH
	DD	FLAT:__unwindfunclet$??$insert@$0A@$0A@@?$_Tree@V?$_Tmap_traits@KPAUSMobTable@CPythonNonPlayer@@U?$less@K@std@@V?$allocator@U?$pair@$$CBKPAUSMobTable@CPythonNonPlayer@@@std@@@4@$0A@@std@@@std@@QAE?AU?$pair@V?$_Tree_iterator@V?$_Tree_val@U?$_Tree_simple_types@U?$pair@$$CBKPAUSMobTable@CPythonNonPlayer@@@std@@@std@@@std@@@std@@_N@1@$$QAU?$pair@$$CBKPAUSMobTable@CPythonNonPlayer@@@1@@Z$2
xdata$x	ENDS
;	COMDAT xdata$x
xdata$x	SEGMENT
__ehfuncinfo$??$_Emplace@U?$pair@$$CBKPAUSMobTable@CPythonNonPlayer@@@std@@@?$_Tree@V?$_Tmap_traits@KPAUSMobTable@CPythonNonPlayer@@U?$less@K@std@@V?$allocator@U?$pair@$$CBKPAUSMobTable@CPythonNonPlayer@@@std@@@4@$0A@@std@@@std@@IAE?AU?$pair@PAU?$_Tree_node@U?$pair@$$CBKPAUSMobTable@CPythonNonPlayer@@@std@@PAX@std@@_N@1@$$QAU?$pair@$$CBKPAUSMobTable@CPythonNonPlayer@@@1@@Z DD 019930522H
	DD	01H
	DD	FLAT:__unwindtable$??$_Emplace@U?$pair@$$CBKPAUSMobTable@CPythonNonPlayer@@@std@@@?$_Tree@V?$_Tmap_traits@KPAUSMobTable@CPythonNonPlayer@@U?$less@K@std@@V?$allocator@U?$pair@$$CBKPAUSMobTable@CPythonNonPlayer@@@std@@@4@$0A@@std@@@std@@IAE?AU?$pair@PAU?$_Tree_node@U?$pair@$$CBKPAUSMobTable@CPythonNonPlayer@@@std@@PAX@std@@_N@1@$$QAU?$pair@$$CBKPAUSMobTable@CPythonNonPlayer@@@1@@Z
	DD	2 DUP(00H)
	DD	2 DUP(00H)
	DD	00H
	DD	01H
__unwindtable$??$_Emplace@U?$pair@$$CBKPAUSMobTable@CPythonNonPlayer@@@std@@@?$_Tree@V?$_Tmap_traits@KPAUSMobTable@CPythonNonPlayer@@U?$less@K@std@@V?$allocator@U?$pair@$$CBKPAUSMobTable@CPythonNonPlayer@@@std@@@4@$0A@@std@@@std@@IAE?AU?$pair@PAU?$_Tree_node@U?$pair@$$CBKPAUSMobTable@CPythonNonPlayer@@@std@@PAX@std@@_N@1@$$QAU?$pair@$$CBKPAUSMobTable@CPythonNonPlayer@@@1@@Z DD 0ffffffffH
	DD	FLAT:__unwindfunclet$??$_Emplace@U?$pair@$$CBKPAUSMobTable@CPythonNonPlayer@@@std@@@?$_Tree@V?$_Tmap_traits@KPAUSMobTable@CPythonNonPlayer@@U?$less@K@std@@V?$allocator@U?$pair@$$CBKPAUSMobTable@CPythonNonPlayer@@@std@@@4@$0A@@std@@@std@@IAE?AU?$pair@PAU?$_Tree_node@U?$pair@$$CBKPAUSMobTable@CPythonNonPlayer@@@std@@PAX@std@@_N@1@$$QAU?$pair@$$CBKPAUSMobTable@CPythonNonPlayer@@@1@@Z$2
xdata$x	ENDS
;	COMDAT xdata$x
xdata$x	SEGMENT
__ehfuncinfo$??$?0U?$pair@$$CBKPAUSMobTable@CPythonNonPlayer@@@std@@@?$_Tree_temp_node@V?$allocator@U?$_Tree_node@U?$pair@$$CBKPAUSMobTable@CPythonNonPlayer@@@std@@PAX@std@@@std@@@std@@QAE@AAV?$allocator@U?$_Tree_node@U?$pair@$$CBKPAUSMobTable@CPythonNonPlayer@@@std@@PAX@std@@@1@PAU?$_Tree_node@U?$pair@$$CBKPAUSMobTable@CPythonNonPlayer@@@std@@PAX@1@$$QAU?$pair@$$CBKPAUSMobTable@CPythonNonPlayer@@@1@@Z DD 019930522H
	DD	01H
	DD	FLAT:__unwindtable$??$?0U?$pair@$$CBKPAUSMobTable@CPythonNonPlayer@@@std@@@?$_Tree_temp_node@V?$allocator@U?$_Tree_node@U?$pair@$$CBKPAUSMobTable@CPythonNonPlayer@@@std@@PAX@std@@@std@@@std@@QAE@AAV?$allocator@U?$_Tree_node@U?$pair@$$CBKPAUSMobTable@CPythonNonPlayer@@@std@@PAX@std@@@1@PAU?$_Tree_node@U?$pair@$$CBKPAUSMobTable@CPythonNonPlayer@@@std@@PAX@1@$$QAU?$pair@$$CBKPAUSMobTable@CPythonNonPlayer@@@1@@Z
	DD	2 DUP(00H)
	DD	2 DUP(00H)
	DD	00H
	DD	01H
__unwindtable$??$?0U?$pair@$$CBKPAUSMobTable@CPythonNonPlayer@@@std@@@?$_Tree_temp_node@V?$allocator@U?$_Tree_node@U?$pair@$$CBKPAUSMobTable@CPythonNonPlayer@@@std@@PAX@std@@@std@@@std@@QAE@AAV?$allocator@U?$_Tree_node@U?$pair@$$CBKPAUSMobTable@CPythonNonPlayer@@@std@@PAX@std@@@1@PAU?$_Tree_node@U?$pair@$$CBKPAUSMobTable@CPythonNonPlayer@@@std@@PAX@1@$$QAU?$pair@$$CBKPAUSMobTable@CPythonNonPlayer@@@1@@Z DD 0ffffffffH
	DD	FLAT:__unwindfunclet$??$?0U?$pair@$$CBKPAUSMobTable@CPythonNonPlayer@@@std@@@?$_Tree_temp_node@V?$allocator@U?$_Tree_node@U?$pair@$$CBKPAUSMobTable@CPythonNonPlayer@@@std@@PAX@std@@@std@@@std@@QAE@AAV?$allocator@U?$_Tree_node@U?$pair@$$CBKPAUSMobTable@CPythonNonPlayer@@@std@@PAX@std@@@1@PAU?$_Tree_node@U?$pair@$$CBKPAUSMobTable@CPythonNonPlayer@@@std@@PAX@1@$$QAU?$pair@$$CBKPAUSMobTable@CPythonNonPlayer@@@1@@Z$1
xdata$x	ENDS
;	COMDAT xdata$x
xdata$x	SEGMENT
__ehfuncinfo$??0?$_Tree_temp_node_alloc@V?$allocator@U?$_Tree_node@U?$pair@$$CBKPAUSMobTable@CPythonNonPlayer@@@std@@PAX@std@@@std@@@std@@QAE@AAV?$allocator@U?$_Tree_node@U?$pair@$$CBKPAUSMobTable@CPythonNonPlayer@@@std@@PAX@std@@@1@@Z DD 019930522H
	DD	01H
	DD	FLAT:__unwindtable$??0?$_Tree_temp_node_alloc@V?$allocator@U?$_Tree_node@U?$pair@$$CBKPAUSMobTable@CPythonNonPlayer@@@std@@PAX@std@@@std@@@std@@QAE@AAV?$allocator@U?$_Tree_node@U?$pair@$$CBKPAUSMobTable@CPythonNonPlayer@@@std@@PAX@std@@@1@@Z
	DD	2 DUP(00H)
	DD	2 DUP(00H)
	DD	00H
	DD	01H
__unwindtable$??0?$_Tree_temp_node_alloc@V?$allocator@U?$_Tree_node@U?$pair@$$CBKPAUSMobTable@CPythonNonPlayer@@@std@@PAX@std@@@std@@@std@@QAE@AAV?$allocator@U?$_Tree_node@U?$pair@$$CBKPAUSMobTable@CPythonNonPlayer@@@std@@PAX@std@@@1@@Z DD 0ffffffffH
	DD	FLAT:__unwindfunclet$??0?$_Tree_temp_node_alloc@V?$allocator@U?$_Tree_node@U?$pair@$$CBKPAUSMobTable@CPythonNonPlayer@@@std@@PAX@std@@@std@@@std@@QAE@AAV?$allocator@U?$_Tree_node@U?$pair@$$CBKPAUSMobTable@CPythonNonPlayer@@@std@@PAX@std@@@1@@Z$0
; Function compile flags: /Ogtp
; File D:\_m2work\txoko-m2-work\txoko-client-src\source\UserInterface\PythonNonPlayer.cpp
;	COMDAT ?GetName@CPythonNonPlayer@@QAE_NKPAPBD@Z
_TEXT	SEGMENT
_dwVnum$ = 8						; size = 4
_c_pszName$ = 12					; size = 4
?GetName@CPythonNonPlayer@@QAE_NKPAPBD@Z PROC		; CPythonNonPlayer::GetName, COMDAT
; _this$ = ecx

; 72   : {

  00000	55		 push	 ebp
  00001	8b ec		 mov	 ebp, esp

; 73   : 	const TMobTable * p = GetTable(dwVnum);

  00003	ff 75 08	 push	 DWORD PTR _dwVnum$[ebp]
  00006	e8 00 00 00 00	 call	 ?GetTable@CPythonNonPlayer@@QAEPBUSMobTable@1@K@Z ; CPythonNonPlayer::GetTable

; 74   : 
; 75   : 	if (!p)

  0000b	85 c0		 test	 eax, eax
  0000d	75 06		 jne	 SHORT $LN2@GetName

; 76   : 		return false;

  0000f	32 c0		 xor	 al, al

; 81   : }

  00011	5d		 pop	 ebp
  00012	c2 08 00	 ret	 8
$LN2@GetName:

; 77   : 
; 78   : 	*c_pszName = p->szLocaleName;

  00015	8d 48 1d	 lea	 ecx, DWORD PTR [eax+29]
  00018	8b 45 0c	 mov	 eax, DWORD PTR _c_pszName$[ebp]
  0001b	89 08		 mov	 DWORD PTR [eax], ecx

; 79   : 
; 80   : 	return true;

  0001d	b0 01		 mov	 al, 1

; 81   : }

  0001f	5d		 pop	 ebp
  00020	c2 08 00	 ret	 8
?GetName@CPythonNonPlayer@@QAE_NKPAPBD@Z ENDP		; CPythonNonPlayer::GetName
_TEXT	ENDS
; Function compile flags: /Ogtp
; File D:\_m2work\txoko-m2-work\txoko-client-src\source\UserInterface\PythonNonPlayer.cpp
;	COMDAT ?GetMonsterColor@CPythonNonPlayer@@QAEKK@Z
_TEXT	SEGMENT
_dwVnum$ = 8						; size = 4
?GetMonsterColor@CPythonNonPlayer@@QAEKK@Z PROC		; CPythonNonPlayer::GetMonsterColor, COMDAT
; _this$ = ecx

; 146  : {

  00000	55		 push	 ebp
  00001	8b ec		 mov	 ebp, esp

; 147  : 	const CPythonNonPlayer::TMobTable * c_pTable = GetTable(dwVnum);

  00003	ff 75 08	 push	 DWORD PTR _dwVnum$[ebp]
  00006	e8 00 00 00 00	 call	 ?GetTable@CPythonNonPlayer@@QAEPBUSMobTable@1@K@Z ; CPythonNonPlayer::GetTable

; 148  : 	if (!c_pTable)

  0000b	85 c0		 test	 eax, eax
  0000d	75 04		 jne	 SHORT $LN2@GetMonster

; 152  : }

  0000f	5d		 pop	 ebp
  00010	c2 04 00	 ret	 4
$LN2@GetMonster:

; 149  : 		return 0;
; 150  : 
; 151  : 	return c_pTable->dwMonsterColor;

  00013	8b 80 d9 00 00
	00		 mov	 eax, DWORD PTR [eax+217]

; 152  : }

  00019	5d		 pop	 ebp
  0001a	c2 04 00	 ret	 4
?GetMonsterColor@CPythonNonPlayer@@QAEKK@Z ENDP		; CPythonNonPlayer::GetMonsterColor
_TEXT	ENDS
; Function compile flags: /Ogtp
; File D:\_m2work\txoko-m2-work\txoko-client-src\source\UserInterface\PythonNonPlayer.cpp
;	COMDAT ?GetInstanceType@CPythonNonPlayer@@QAE_NKPAE@Z
_TEXT	SEGMENT
_dwVnum$ = 8						; size = 4
_pbType$ = 12						; size = 4
?GetInstanceType@CPythonNonPlayer@@QAE_NKPAE@Z PROC	; CPythonNonPlayer::GetInstanceType, COMDAT
; _this$ = ecx

; 84   : {

  00000	55		 push	 ebp
  00001	8b ec		 mov	 ebp, esp

; 85   : 	const TMobTable * p = GetTable(dwVnum);

  00003	ff 75 08	 push	 DWORD PTR _dwVnum$[ebp]
  00006	e8 00 00 00 00	 call	 ?GetTable@CPythonNonPlayer@@QAEPBUSMobTable@1@K@Z ; CPythonNonPlayer::GetTable

; 86   : 
; 87   : 	// dwVnum       .   -_- [cronan]
; 88   : 	if (!p)

  0000b	85 c0		 test	 eax, eax
  0000d	75 06		 jne	 SHORT $LN2@GetInstanc

; 89   : 		return false;

  0000f	32 c0		 xor	 al, al

; 94   : }

  00011	5d		 pop	 ebp
  00012	c2 08 00	 ret	 8
$LN2@GetInstanc:

; 90   : 
; 91   : 	*pbType=p->bType;

  00015	8a 48 36	 mov	 cl, BYTE PTR [eax+54]
  00018	8b 45 0c	 mov	 eax, DWORD PTR _pbType$[ebp]
  0001b	88 08		 mov	 BYTE PTR [eax], cl

; 92   : 	
; 93   : 	return true;

  0001d	b0 01		 mov	 al, 1

; 94   : }

  0001f	5d		 pop	 ebp
  00020	c2 08 00	 ret	 8
?GetInstanceType@CPythonNonPlayer@@QAE_NKPAE@Z ENDP	; CPythonNonPlayer::GetInstanceType
_TEXT	ENDS
; Function compile flags: /Ogtp
; File D:\_m2work\txoko-m2-work\txoko-client-src\source\UserInterface\PythonNonPlayer.cpp
; File C:\Program Files\Microsoft Visual Studio\2022\Community\VC\Tools\MSVC\14.44.35207\include\utility
; File D:\_m2work\txoko-m2-work\txoko-client-src\source\UserInterface\PythonNonPlayer.cpp
; File C:\Program Files\Microsoft Visual Studio\2022\Community\VC\Tools\MSVC\14.44.35207\include\utility
; File D:\_m2work\txoko-m2-work\txoko-client-src\source\UserInterface\PythonNonPlayer.cpp
; File C:\Program Files\Microsoft Visual Studio\2022\Community\VC\Tools\MSVC\14.44.35207\include\utility
; File D:\_m2work\txoko-m2-work\txoko-client-src\source\UserInterface\PythonNonPlayer.cpp
;	COMDAT ?LoadNonPlayerData@CPythonNonPlayer@@QAE_NPBD@Z
_TEXT	SEGMENT
$T2 = -404						; size = 8
_pvData$ = -396						; size = 4
_zObj$ = -392						; size = 20
$T3 = -372						; size = 8
$T4 = -364						; size = 4
_this$GSCopy$1$ = -360					; size = 4
_dwFourCC$ = -356					; size = 4
_dwElements$ = -352					; size = 4
_i$1$ = -348						; size = 4
_dwDataSize$ = -344					; size = 4
_file$ = -340						; size = 324
__$ArrayPad$ = -16					; size = 4
__$EHRec$ = -12						; size = 12
_c_szFileName$ = 8					; size = 4
?LoadNonPlayerData@CPythonNonPlayer@@QAE_NPBD@Z PROC	; CPythonNonPlayer::LoadNonPlayerData, COMDAT
; _this$ = ecx

; 8    : {

  00000	55		 push	 ebp
  00001	8b ec		 mov	 ebp, esp
  00003	6a ff		 push	 -1
  00005	68 00 00 00 00	 push	 __ehhandler$?LoadNonPlayerData@CPythonNonPlayer@@QAE_NPBD@Z
  0000a	64 a1 00 00 00
	00		 mov	 eax, DWORD PTR fs:0
  00010	50		 push	 eax
  00011	81 ec 88 01 00
	00		 sub	 esp, 392		; 00000188H
  00017	a1 00 00 00 00	 mov	 eax, DWORD PTR ___security_cookie
  0001c	33 c5		 xor	 eax, ebp
  0001e	89 45 f0	 mov	 DWORD PTR __$ArrayPad$[ebp], eax
  00021	53		 push	 ebx
  00022	56		 push	 esi
  00023	57		 push	 edi
  00024	50		 push	 eax
  00025	8d 45 f4	 lea	 eax, DWORD PTR __$EHRec$[ebp]
  00028	64 a3 00 00 00
	00		 mov	 DWORD PTR fs:0, eax
  0002e	89 8d 98 fe ff
	ff		 mov	 DWORD PTR _this$GSCopy$1$[ebp], ecx
  00034	8b 75 08	 mov	 esi, DWORD PTR _c_szFileName$[ebp]

; 9    : 	static DWORD s_adwMobProtoKey[4] =
; 10   : 	{   
; 11   : 		4813894,
; 12   : 		18955,
; 13   : 		552631,
; 14   : 		6822045
; 15   : 	};
; 16   : 
; 17   : 	CMappedFile file;

  00037	8d 8d ac fe ff
	ff		 lea	 ecx, DWORD PTR _file$[ebp]
  0003d	e8 00 00 00 00	 call	 ??0CMappedFile@@QAE@XZ	; CMappedFile::CMappedFile

; 18   : 	LPCVOID pvData;
; 19   : 
; 20   : 	Tracef("CPythonNonPlayer::LoadNonPlayerData: %s, sizeof(TMobTable)=%u\n", c_szFileName, sizeof(TMobTable));

  00042	68 ff 00 00 00	 push	 255			; 000000ffH
  00047	56		 push	 esi
  00048	68 00 00 00 00	 push	 OFFSET ??_C@_0DP@FMDCKFI@CPythonNonPlayer?3?3LoadNonPlayer@
  0004d	c7 45 fc 00 00
	00 00		 mov	 DWORD PTR __$EHRec$[ebp+8], 0
  00054	e8 00 00 00 00	 call	 ?Tracef@@YAXPBDZZ	; Tracef

; 21   : 
; 22   : 	if (!CEterPackManager::Instance().Get(file, c_szFileName, &pvData))

  00059	8b 0d 00 00 00
	00		 mov	 ecx, DWORD PTR ?ms_singleton@?$CSingleton@VCEterPackManager@@@@0PAVCEterPackManager@@A ; CSingleton<CEterPackManager>::ms_singleton
  0005f	8d 85 74 fe ff
	ff		 lea	 eax, DWORD PTR _pvData$[ebp]
  00065	83 c4 0c	 add	 esp, 12			; 0000000cH
  00068	50		 push	 eax
  00069	56		 push	 esi
  0006a	8d 85 ac fe ff
	ff		 lea	 eax, DWORD PTR _file$[ebp]
  00070	50		 push	 eax
  00071	e8 00 00 00 00	 call	 ?Get@CEterPackManager@@QAE_NAAVCMappedFile@@PBDPAPBX@Z ; CEterPackManager::Get
  00076	84 c0		 test	 al, al
  00078	74 2e		 je	 SHORT $LN12@LoadNonPla

; 23   : 		return false;
; 24   : 
; 25   : 	DWORD dwFourCC, dwElements, dwDataSize;
; 26   : 
; 27   : 	file.Read(&dwFourCC, sizeof(DWORD));

  0007a	6a 04		 push	 4
  0007c	8d 85 9c fe ff
	ff		 lea	 eax, DWORD PTR _dwFourCC$[ebp]
  00082	50		 push	 eax
  00083	8d 8d ac fe ff
	ff		 lea	 ecx, DWORD PTR _file$[ebp]
  00089	e8 00 00 00 00	 call	 ?Read@CMappedFile@@QAEHPAXH@Z ; CMappedFile::Read

; 28   : 
; 29   : 	if (dwFourCC != MAKEFOURCC('M', 'M', 'P', 'T'))

  0008e	81 bd 9c fe ff
	ff 4d 4d 50 54	 cmp	 DWORD PTR _dwFourCC$[ebp], 1414548813 ; 54504d4dH
  00098	74 3b		 je	 SHORT $LN6@LoadNonPla

; 30   : 	{
; 31   : 		TraceError("CPythonNonPlayer::LoadNonPlayerData: invalid Mob proto type %s", c_szFileName);

  0009a	56		 push	 esi
  0009b	68 00 00 00 00	 push	 OFFSET ??_C@_0DP@FIGKBDCC@CPythonNonPlayer?3?3LoadNonPlayer@
  000a0	e8 00 00 00 00	 call	 ?TraceError@@YAXPBDZZ	; TraceError
  000a5	83 c4 08	 add	 esp, 8
$LN12@LoadNonPla:
  000a8	32 db		 xor	 bl, bl
$LN13@LoadNonPla:

; 68   : 	return true;

  000aa	8d 8d ac fe ff
	ff		 lea	 ecx, DWORD PTR _file$[ebp]
  000b0	e8 00 00 00 00	 call	 ??1CMappedFile@@UAE@XZ	; CMappedFile::~CMappedFile
  000b5	8a c3		 mov	 al, bl

; 69   : }

  000b7	8b 4d f4	 mov	 ecx, DWORD PTR __$EHRec$[ebp]
  000ba	64 89 0d 00 00
	00 00		 mov	 DWORD PTR fs:0, ecx
  000c1	59		 pop	 ecx
  000c2	5f		 pop	 edi
  000c3	5e		 pop	 esi
  000c4	5b		 pop	 ebx
  000c5	8b 4d f0	 mov	 ecx, DWORD PTR __$ArrayPad$[ebp]
  000c8	33 cd		 xor	 ecx, ebp
  000ca	e8 00 00 00 00	 call	 @__security_check_cookie@4
  000cf	8b e5		 mov	 esp, ebp
  000d1	5d		 pop	 ebp
  000d2	c2 04 00	 ret	 4
$LN6@LoadNonPla:

; 32   : 		return false;
; 33   : 	}
; 34   : 
; 35   : 	file.Read(&dwElements, sizeof(DWORD));

  000d5	6a 04		 push	 4
  000d7	8d 85 a0 fe ff
	ff		 lea	 eax, DWORD PTR _dwElements$[ebp]
  000dd	50		 push	 eax
  000de	8d 8d ac fe ff
	ff		 lea	 ecx, DWORD PTR _file$[ebp]
  000e4	e8 00 00 00 00	 call	 ?Read@CMappedFile@@QAEHPAXH@Z ; CMappedFile::Read

; 36   : 	file.Read(&dwDataSize, sizeof(DWORD));

  000e9	6a 04		 push	 4
  000eb	8d 85 a8 fe ff
	ff		 lea	 eax, DWORD PTR _dwDataSize$[ebp]
  000f1	50		 push	 eax
  000f2	8d 8d ac fe ff
	ff		 lea	 ecx, DWORD PTR _file$[ebp]
  000f8	e8 00 00 00 00	 call	 ?Read@CMappedFile@@QAEHPAXH@Z ; CMappedFile::Read

; 37   : 
; 38   : 	BYTE * pbData = new BYTE[dwDataSize];

  000fd	ff b5 a8 fe ff
	ff		 push	 DWORD PTR _dwDataSize$[ebp]
  00103	e8 00 00 00 00	 call	 ??_U@YAPAXI@Z		; operator new[]
  00108	83 c4 04	 add	 esp, 4

; 39   : 	file.Read(pbData, dwDataSize);

  0010b	8d 8d ac fe ff
	ff		 lea	 ecx, DWORD PTR _file$[ebp]
  00111	8b d8		 mov	 ebx, eax
  00113	89 9d 94 fe ff
	ff		 mov	 DWORD PTR $T4[ebp], ebx
  00119	ff b5 a8 fe ff
	ff		 push	 DWORD PTR _dwDataSize$[ebp]
  0011f	53		 push	 ebx
  00120	e8 00 00 00 00	 call	 ?Read@CMappedFile@@QAEHPAXH@Z ; CMappedFile::Read

; 40   : 	/////
; 41   : 
; 42   : 	CLZObject zObj;

  00125	8d 8d 78 fe ff
	ff		 lea	 ecx, DWORD PTR _zObj$[ebp]
  0012b	e8 00 00 00 00	 call	 ??0CLZObject@@QAE@XZ	; CLZObject::CLZObject

; 43   : 
; 44   : 	if (!CLZO::Instance().Decompress(zObj, pbData, s_adwMobProtoKey))

  00130	68 00 00 00 00	 push	 OFFSET ?s_adwMobProtoKey@?1??LoadNonPlayerData@CPythonNonPlayer@@QAE_NPBD@Z@4PAKA
  00135	53		 push	 ebx
  00136	8d 85 78 fe ff
	ff		 lea	 eax, DWORD PTR _zObj$[ebp]
  0013c	c6 45 fc 01	 mov	 BYTE PTR __$EHRec$[ebp+8], 1
  00140	8b 0d 00 00 00
	00		 mov	 ecx, DWORD PTR ?ms_singleton@?$CSingleton@VCLZO@@@@0PAVCLZO@@A ; CSingleton<CLZO>::ms_singleton
  00146	50		 push	 eax
  00147	e8 00 00 00 00	 call	 ?Decompress@CLZO@@QAE_NAAVCLZObject@@PBEPAK@Z ; CLZO::Decompress
  0014c	84 c0		 test	 al, al
  0014e	75 1b		 jne	 SHORT $LN7@LoadNonPla

; 45   : 	{
; 46   : 		delete [] pbData;

  00150	53		 push	 ebx
  00151	e8 00 00 00 00	 call	 ??_V@YAXPAX@Z		; operator delete[]
  00156	83 c4 04	 add	 esp, 4

; 68   : 	return true;

  00159	8d 8d 78 fe ff
	ff		 lea	 ecx, DWORD PTR _zObj$[ebp]
  0015f	32 db		 xor	 bl, bl
  00161	e8 00 00 00 00	 call	 ??1CLZObject@@QAE@XZ	; CLZObject::~CLZObject
  00166	e9 3f ff ff ff	 jmp	 $LN13@LoadNonPla
$LN7@LoadNonPla:

; 47   : 		return false;
; 48   : 	}
; 49   : 
; 50   : 	if ((zObj.GetSize() % sizeof(TMobTable)) != 0)

  0016b	8d 8d 78 fe ff
	ff		 lea	 ecx, DWORD PTR _zObj$[ebp]
  00171	e8 00 00 00 00	 call	 ?GetSize@CLZObject@@QAEKXZ ; CLZObject::GetSize
  00176	33 d2		 xor	 edx, edx
  00178	b9 ff 00 00 00	 mov	 ecx, 255		; 000000ffH
  0017d	f7 f1		 div	 ecx
  0017f	85 d2		 test	 edx, edx
  00181	74 2b		 je	 SHORT $LN8@LoadNonPla

; 51   : 	{
; 52   : 		TraceError("CPythonNonPlayer::LoadNonPlayerData: invalid size %u check data format.", zObj.GetSize());

  00183	8d 8d 78 fe ff
	ff		 lea	 ecx, DWORD PTR _zObj$[ebp]
  00189	e8 00 00 00 00	 call	 ?GetSize@CLZObject@@QAEKXZ ; CLZObject::GetSize
  0018e	50		 push	 eax
  0018f	68 00 00 00 00	 push	 OFFSET ??_C@_0EI@EHJJMNEK@CPythonNonPlayer?3?3LoadNonPlayer@
  00194	e8 00 00 00 00	 call	 ?TraceError@@YAXPBDZZ	; TraceError
  00199	83 c4 08	 add	 esp, 8

; 68   : 	return true;

  0019c	8d 8d 78 fe ff
	ff		 lea	 ecx, DWORD PTR _zObj$[ebp]
  001a2	32 db		 xor	 bl, bl
  001a4	e8 00 00 00 00	 call	 ??1CLZObject@@QAE@XZ	; CLZObject::~CLZObject
  001a9	e9 fc fe ff ff	 jmp	 $LN13@LoadNonPla
$LN8@LoadNonPla:

; 53   : 		return false;
; 54   : 	}
; 55   : 
; 56   : 	TMobTable * pTable = (TMobTable *) zObj.GetBuffer();
; 57   :     for (DWORD i = 0; i < dwElements; ++i, ++pTable)

  001ae	83 bd a0 fe ff
	ff 00		 cmp	 DWORD PTR _dwElements$[ebp], 0
  001b5	8b 9d 78 fe ff
	ff		 mov	 ebx, DWORD PTR _zObj$[ebp]
  001bb	c7 85 a4 fe ff
	ff 00 00 00 00	 mov	 DWORD PTR _i$1$[ebp], 0
  001c5	76 69		 jbe	 SHORT $LN3@LoadNonPla
  001c7	66 0f 1f 84 00
	00 00 00 00	 npad	 9
$LL4@LoadNonPla:

; 58   : 	{
; 59   : 		TMobTable * pNonPlayerData = new TMobTable;

  001d0	68 ff 00 00 00	 push	 255			; 000000ffH
  001d5	e8 00 00 00 00	 call	 ??2@YAPAXI@Z		; operator new

; 61   : 		memcpy(pNonPlayerData, pTable, sizeof(TMobTable));

  001da	8b f8		 mov	 edi, eax
; File C:\Program Files\Microsoft Visual Studio\2022\Community\VC\Tools\MSVC\14.44.35207\include\utility

; 274  :         : first(_STD forward<_Other1>(_Val1)), second(_STD forward<_Other2>(_Val2)) {

  001dc	89 85 90 fe ff
	ff		 mov	 DWORD PTR $T3[ebp+4], eax
; File D:\_m2work\txoko-m2-work\txoko-client-src\source\UserInterface\PythonNonPlayer.cpp

; 61   : 		memcpy(pNonPlayerData, pTable, sizeof(TMobTable));

  001e2	b9 3f 00 00 00	 mov	 ecx, 63			; 0000003fH
  001e7	8b f3		 mov	 esi, ebx
  001e9	f3 a5		 rep movsd
  001eb	83 c4 04	 add	 esp, 4
  001ee	66 a5		 movsw
  001f0	a4		 movsb
; File C:\Program Files\Microsoft Visual Studio\2022\Community\VC\Tools\MSVC\14.44.35207\include\utility

; 274  :         : first(_STD forward<_Other1>(_Val1)), second(_STD forward<_Other2>(_Val2)) {

  001f1	8b 08		 mov	 ecx, DWORD PTR [eax]
; File D:\_m2work\txoko-m2-work\txoko-client-src\source\UserInterface\PythonNonPlayer.cpp

; 64   : 		m_NonPlayerDataMap.insert(TNonPlayerDataMap::value_type(pNonPlayerData->dwVnum, pNonPlayerData));

  001f3	8d 85 8c fe ff
	ff		 lea	 eax, DWORD PTR $T3[ebp]
; File C:\Program Files\Microsoft Visual Studio\2022\Community\VC\Tools\MSVC\14.44.35207\include\utility

; 274  :         : first(_STD forward<_Other1>(_Val1)), second(_STD forward<_Other2>(_Val2)) {

  001f9	89 8d 8c fe ff
	ff		 mov	 DWORD PTR $T3[ebp], ecx
; File D:\_m2work\txoko-m2-work\txoko-client-src\source\UserInterface\PythonNonPlayer.cpp

; 64   : 		m_NonPlayerDataMap.insert(TNonPlayerDataMap::value_type(pNonPlayerData->dwVnum, pNonPlayerData));

  001ff	8b 8d 98 fe ff
	ff		 mov	 ecx, DWORD PTR _this$GSCopy$1$[ebp]
  00205	50		 push	 eax
  00206	8d 85 6c fe ff
	ff		 lea	 eax, DWORD PTR $T2[ebp]
  0020c	50		 push	 eax
  0020d	8d 49 04	 lea	 ecx, DWORD PTR [ecx+4]
  00210	e8 00 00 00 00	 call	 ??$insert@$0A@$0A@@?$_Tree@V?$_Tmap_traits@KPAUSMobTable@CPythonNonPlayer@@U?$less@K@std@@V?$allocator@U?$pair@$$CBKPAUSMobTable@CPythonNonPlayer@@@std@@@4@$0A@@std@@@std@@QAE?AU?$pair@V?$_Tree_iterator@V?$_Tree_val@U?$_Tree_simple_types@U?$pair@$$CBKPAUSMobTable@CPythonNonPlayer@@@std@@@std@@@std@@@std@@_N@1@$$QAU?$pair@$$CBKPAUSMobTable@CPythonNonPlayer@@@1@@Z ; std::_Tree<std::_Tmap_traits<unsigned long,CPythonNonPlayer::SMobTable *,std::less<unsigned long>,std::allocator<std::pair<unsigned long const ,CPythonNonPlayer::SMobTable *> >,0> >::insert<0,0>
  00215	8b 85 a4 fe ff
	ff		 mov	 eax, DWORD PTR _i$1$[ebp]
  0021b	81 c3 ff 00 00
	00		 add	 ebx, 255		; 000000ffH
  00221	40		 inc	 eax
  00222	89 85 a4 fe ff
	ff		 mov	 DWORD PTR _i$1$[ebp], eax
  00228	3b 85 a0 fe ff
	ff		 cmp	 eax, DWORD PTR _dwElements$[ebp]
  0022e	72 a0		 jb	 SHORT $LL4@LoadNonPla
$LN3@LoadNonPla:

; 65   : 	}
; 66   : 
; 67   : 	delete [] pbData;

  00230	ff b5 94 fe ff
	ff		 push	 DWORD PTR $T4[ebp]
  00236	e8 00 00 00 00	 call	 ??_V@YAXPAX@Z		; operator delete[]
  0023b	83 c4 04	 add	 esp, 4

; 68   : 	return true;

  0023e	8d 8d 78 fe ff
	ff		 lea	 ecx, DWORD PTR _zObj$[ebp]
  00244	b3 01		 mov	 bl, 1
  00246	e8 00 00 00 00	 call	 ??1CLZObject@@QAE@XZ	; CLZObject::~CLZObject
  0024b	e9 5a fe ff ff	 jmp	 $LN13@LoadNonPla
_TEXT	ENDS
;	COMDAT text$x
text$x	SEGMENT
__unwindfunclet$?LoadNonPlayerData@CPythonNonPlayer@@QAE_NPBD@Z$0:
  00000	8d 8d ac fe ff
	ff		 lea	 ecx, DWORD PTR _file$[ebp]
  00006	e9 00 00 00 00	 jmp	 ??1CMappedFile@@UAE@XZ	; CMappedFile::~CMappedFile
__unwindfunclet$?LoadNonPlayerData@CPythonNonPlayer@@QAE_NPBD@Z$1:
  0000b	8d 8d 78 fe ff
	ff		 lea	 ecx, DWORD PTR _zObj$[ebp]
  00011	e9 00 00 00 00	 jmp	 ??1CLZObject@@QAE@XZ	; CLZObject::~CLZObject
  00016	cc		 int	 3
  00017	cc		 int	 3
  00018	cc		 int	 3
  00019	cc		 int	 3
  0001a	cc		 int	 3
__ehhandler$?LoadNonPlayerData@CPythonNonPlayer@@QAE_NPBD@Z:
  0001b	90		 npad	 1
  0001c	90		 npad	 1
  0001d	8b 54 24 08	 mov	 edx, DWORD PTR [esp+8]
  00021	8d 42 0c	 lea	 eax, DWORD PTR [edx+12]
  00024	8b 8a 68 fe ff
	ff		 mov	 ecx, DWORD PTR [edx-408]
  0002a	33 c8		 xor	 ecx, eax
  0002c	e8 00 00 00 00	 call	 @__security_check_cookie@4
  00031	8b 4a fc	 mov	 ecx, DWORD PTR [edx-4]
  00034	33 c8		 xor	 ecx, eax
  00036	e8 00 00 00 00	 call	 @__security_check_cookie@4
  0003b	b8 00 00 00 00	 mov	 eax, OFFSET __ehfuncinfo$?LoadNonPlayerData@CPythonNonPlayer@@QAE_NPBD@Z
  00040	e9 00 00 00 00	 jmp	 ___CxxFrameHandler3
text$x	ENDS
?LoadNonPlayerData@CPythonNonPlayer@@QAE_NPBD@Z ENDP	; CPythonNonPlayer::LoadNonPlayerData
; Function compile flags: /Ogtp
; File D:\_m2work\txoko-m2-work\txoko-client-src\source\UserInterface\PythonNonPlayer.cpp
; File C:\Program Files\Microsoft Visual Studio\2022\Community\VC\Tools\MSVC\14.44.35207\include\xtree
; File D:\_m2work\txoko-m2-work\txoko-client-src\source\UserInterface\PythonNonPlayer.cpp
; File C:\Program Files\Microsoft Visual Studio\2022\Community\VC\Tools\MSVC\14.44.35207\include\xtree
; File D:\_m2work\txoko-m2-work\txoko-client-src\source\UserInterface\PythonNonPlayer.cpp
; File C:\Program Files\Microsoft Visual Studio\2022\Community\VC\Tools\MSVC\14.44.35207\include\xtree
; File D:\_m2work\txoko-m2-work\txoko-client-src\source\UserInterface\PythonNonPlayer.cpp
; File C:\Program Files\Microsoft Visual Studio\2022\Community\VC\Tools\MSVC\14.44.35207\include\xtree
; File D:\_m2work\txoko-m2-work\txoko-client-src\source\UserInterface\PythonNonPlayer.cpp
; File C:\Program Files\Microsoft Visual Studio\2022\Community\VC\Tools\MSVC\14.44.35207\include\xtree
; File D:\_m2work\txoko-m2-work\txoko-client-src\source\UserInterface\PythonNonPlayer.cpp
;	COMDAT ?Destroy@CPythonNonPlayer@@QAEXXZ
_TEXT	SEGMENT
?Destroy@CPythonNonPlayer@@QAEXXZ PROC			; CPythonNonPlayer::Destroy, COMDAT
; _this$ = ecx

; 181  : {

  00000	53		 push	 ebx
  00001	56		 push	 esi
; File C:\Program Files\Microsoft Visual Studio\2022\Community\VC\Tools\MSVC\14.44.35207\include\xtree

; 1142 :         return iterator(_Scary->_Myhead->_Left, _Scary);

  00002	8d 59 04	 lea	 ebx, DWORD PTR [ecx+4]
; File D:\_m2work\txoko-m2-work\txoko-client-src\source\UserInterface\PythonNonPlayer.cpp

; 181  : {

  00005	57		 push	 edi
; File C:\Program Files\Microsoft Visual Studio\2022\Community\VC\Tools\MSVC\14.44.35207\include\xtree

; 1142 :         return iterator(_Scary->_Myhead->_Left, _Scary);

  00006	8b 3b		 mov	 edi, DWORD PTR [ebx]

; 37   :     _Tree_unchecked_const_iterator(_Nodeptr _Pnode, const _Mytree* _Plist) noexcept : _Ptr(_Pnode) {

  00008	8b 37		 mov	 esi, DWORD PTR [edi]
  0000a	3b f7		 cmp	 esi, edi
; File D:\_m2work\txoko-m2-work\txoko-client-src\source\UserInterface\PythonNonPlayer.cpp

; 182  : 	for (TNonPlayerDataMap::iterator itor=m_NonPlayerDataMap.begin(); itor!=m_NonPlayerDataMap.end(); ++itor)

  0000c	74 54		 je	 SHORT $LN3@Destroy
  0000e	66 90		 npad	 2
$LL4@Destroy:

; 184  : 		delete itor->second;

  00010	68 ff 00 00 00	 push	 255			; 000000ffH
  00015	ff 76 14	 push	 DWORD PTR [esi+20]
  00018	e8 00 00 00 00	 call	 ??3@YAXPAXI@Z		; operator delete
; File C:\Program Files\Microsoft Visual Studio\2022\Community\VC\Tools\MSVC\14.44.35207\include\xtree

; 50   :         if (_Ptr->_Right->_Isnil) { // climb looking for right subtree

  0001d	8b 46 08	 mov	 eax, DWORD PTR [esi+8]
; File D:\_m2work\txoko-m2-work\txoko-client-src\source\UserInterface\PythonNonPlayer.cpp

; 184  : 		delete itor->second;

  00020	83 c4 08	 add	 esp, 8
; File C:\Program Files\Microsoft Visual Studio\2022\Community\VC\Tools\MSVC\14.44.35207\include\xtree

; 50   :         if (_Ptr->_Right->_Isnil) { // climb looking for right subtree

  00023	80 78 0d 00	 cmp	 BYTE PTR [eax+13], 0
  00027	74 1d		 je	 SHORT $LN27@Destroy

; 51   :             _Nodeptr _Pnode;
; 52   :             while (!(_Pnode = _Ptr->_Parent)->_Isnil && _Ptr == _Pnode->_Right) {

  00029	8b 46 04	 mov	 eax, DWORD PTR [esi+4]
  0002c	80 78 0d 00	 cmp	 BYTE PTR [eax+13], 0
  00030	75 10		 jne	 SHORT $LN75@Destroy
$LL25@Destroy:
  00032	3b 70 08	 cmp	 esi, DWORD PTR [eax+8]
  00035	75 0b		 jne	 SHORT $LN75@Destroy

; 53   :                 _Ptr = _Pnode; // ==> parent while right subtree

  00037	8b f0		 mov	 esi, eax
  00039	8b 40 04	 mov	 eax, DWORD PTR [eax+4]
  0003c	80 78 0d 00	 cmp	 BYTE PTR [eax+13], 0
  00040	74 f0		 je	 SHORT $LL25@Destroy
$LN75@Destroy:

; 54   :             }
; 55   : 
; 56   :             _Ptr = _Pnode; // ==> parent (head if end())

  00042	8b f0		 mov	 esi, eax

; 57   :         } else {

  00044	eb 16		 jmp	 SHORT $LN33@Destroy
$LN27@Destroy:

; 58   :             _Ptr = _Mytree::_Min(_Ptr->_Right); // ==> smallest of right subtree

  00046	8b f0		 mov	 esi, eax

; 476  :         while (!_Pnode->_Left->_Isnil) {

  00048	8b 0e		 mov	 ecx, DWORD PTR [esi]
  0004a	80 79 0d 00	 cmp	 BYTE PTR [ecx+13], 0
  0004e	75 0c		 jne	 SHORT $LN33@Destroy
$LL32@Destroy:
  00050	8b 01		 mov	 eax, DWORD PTR [ecx]

; 477  :             _Pnode = _Pnode->_Left;

  00052	8b f1		 mov	 esi, ecx
  00054	8b c8		 mov	 ecx, eax
  00056	80 78 0d 00	 cmp	 BYTE PTR [eax+13], 0
  0005a	74 f4		 je	 SHORT $LL32@Destroy
$LN33@Destroy:

; 37   :     _Tree_unchecked_const_iterator(_Nodeptr _Pnode, const _Mytree* _Plist) noexcept : _Ptr(_Pnode) {

  0005c	8b 3b		 mov	 edi, DWORD PTR [ebx]

; 232  :         return this->_Ptr == _Right._Ptr;

  0005e	3b f7		 cmp	 esi, edi
; File D:\_m2work\txoko-m2-work\txoko-client-src\source\UserInterface\PythonNonPlayer.cpp

; 182  : 	for (TNonPlayerDataMap::iterator itor=m_NonPlayerDataMap.begin(); itor!=m_NonPlayerDataMap.end(); ++itor)

  00060	75 ae		 jne	 SHORT $LL4@Destroy
$LN3@Destroy:
; File C:\Program Files\Microsoft Visual Studio\2022\Community\VC\Tools\MSVC\14.44.35207\include\xtree

; 1374 :         _Scary->_Erase_tree(_Getal(), _Head->_Parent);

  00062	ff 77 04	 push	 DWORD PTR [edi+4]
  00065	8b cb		 mov	 ecx, ebx
  00067	53		 push	 ebx
  00068	e8 00 00 00 00	 call	 ??$_Erase_tree@V?$allocator@U?$_Tree_node@U?$pair@$$CBKPAUSMobTable@CPythonNonPlayer@@@std@@PAX@std@@@std@@@?$_Tree_val@U?$_Tree_simple_types@U?$pair@$$CBKPAUSMobTable@CPythonNonPlayer@@@std@@@std@@@std@@QAEXAAV?$allocator@U?$_Tree_node@U?$pair@$$CBKPAUSMobTable@CPythonNonPlayer@@@std@@PAX@std@@@1@PAU?$_Tree_node@U?$pair@$$CBKPAUSMobTable@CPythonNonPlayer@@@std@@PAX@1@@Z ; std::_Tree_val<std::_Tree_simple_types<std::pair<unsigned long const ,CPythonNonPlayer::SMobTable *> > >::_Erase_tree<std::allocator<std::_Tree_node<std::pair<unsigned long const ,CPythonNonPlayer::SMobTable *>,void *> > >

; 1375 :         _Head->_Parent  = _Head;

  0006d	89 7f 04	 mov	 DWORD PTR [edi+4], edi

; 1376 :         _Head->_Left    = _Head;

  00070	89 3f		 mov	 DWORD PTR [edi], edi

; 1377 :         _Head->_Right   = _Head;

  00072	89 7f 08	 mov	 DWORD PTR [edi+8], edi

; 1378 :         _Scary->_Mysize = 0;

  00075	5f		 pop	 edi
  00076	5e		 pop	 esi
  00077	c7 43 04 00 00
	00 00		 mov	 DWORD PTR [ebx+4], 0
  0007e	5b		 pop	 ebx
; File D:\_m2work\txoko-m2-work\txoko-client-src\source\UserInterface\PythonNonPlayer.cpp

; 187  : }

  0007f	c3		 ret	 0
?Destroy@CPythonNonPlayer@@QAEXXZ ENDP			; CPythonNonPlayer::Destroy
_TEXT	ENDS
; Function compile flags: /Ogtp
; File D:\_m2work\txoko-m2-work\txoko-client-src\source\UserInterface\PythonNonPlayer.cpp
; File C:\Program Files\Microsoft Visual Studio\2022\Community\VC\Tools\MSVC\14.44.35207\include\xtree
; File D:\_m2work\txoko-m2-work\txoko-client-src\source\UserInterface\PythonNonPlayer.cpp
; File C:\Program Files\Microsoft Visual Studio\2022\Community\VC\Tools\MSVC\14.44.35207\include\xtree
; File C:\Program Files\Microsoft Visual Studio\2022\Community\VC\Tools\MSVC\14.44.35207\include\xmemory
; File D:\_m2work\txoko-m2-work\txoko-client-src\source\eterBase\Singleton.h
; File D:\_m2work\txoko-m2-work\txoko-client-src\source\UserInterface\PythonNonPlayer.cpp
;	COMDAT ??1CPythonNonPlayer@@UAE@XZ
_TEXT	SEGMENT
??1CPythonNonPlayer@@UAE@XZ PROC			; CPythonNonPlayer::~CPythonNonPlayer, COMDAT
; _this$ = ecx

; 195  : {

  00000	56		 push	 esi
  00001	57		 push	 edi
  00002	8b f9		 mov	 edi, ecx
  00004	c7 07 00 00 00
	00		 mov	 DWORD PTR [edi], OFFSET ??_7CPythonNonPlayer@@6B@

; 196  : 	Destroy();

  0000a	e8 00 00 00 00	 call	 ?Destroy@CPythonNonPlayer@@QAEXXZ ; CPythonNonPlayer::Destroy
; File C:\Program Files\Microsoft Visual Studio\2022\Community\VC\Tools\MSVC\14.44.35207\include\xtree

; 777  :         _Erase_tree(_Al, _Myhead->_Parent);

  0000f	8b 47 04	 mov	 eax, DWORD PTR [edi+4]
; File D:\_m2work\txoko-m2-work\txoko-client-src\source\UserInterface\PythonNonPlayer.cpp

; 197  : }

  00012	8d 77 04	 lea	 esi, DWORD PTR [edi+4]
; File C:\Program Files\Microsoft Visual Studio\2022\Community\VC\Tools\MSVC\14.44.35207\include\xtree

; 777  :         _Erase_tree(_Al, _Myhead->_Parent);

  00015	8b ce		 mov	 ecx, esi
  00017	ff 70 04	 push	 DWORD PTR [eax+4]
  0001a	56		 push	 esi
  0001b	e8 00 00 00 00	 call	 ??$_Erase_tree@V?$allocator@U?$_Tree_node@U?$pair@$$CBKPAUSMobTable@CPythonNonPlayer@@@std@@PAX@std@@@std@@@?$_Tree_val@U?$_Tree_simple_types@U?$pair@$$CBKPAUSMobTable@CPythonNonPlayer@@@std@@@std@@@std@@QAEXAAV?$allocator@U?$_Tree_node@U?$pair@$$CBKPAUSMobTable@CPythonNonPlayer@@@std@@PAX@std@@@1@PAU?$_Tree_node@U?$pair@$$CBKPAUSMobTable@CPythonNonPlayer@@@std@@PAX@1@@Z ; std::_Tree_val<std::_Tree_simple_types<std::pair<unsigned long const ,CPythonNonPlayer::SMobTable *> > >::_Erase_tree<std::allocator<std::_Tree_node<std::pair<unsigned long const ,CPythonNonPlayer::SMobTable *>,void *> > >
; File C:\Program Files\Microsoft Visual Studio\2022\Community\VC\Tools\MSVC\14.44.35207\include\xmemory

; 289  :         ::operator delete(_Ptr, _Bytes);

  00020	6a 18		 push	 24			; 00000018H
  00022	ff 36		 push	 DWORD PTR [esi]
  00024	e8 00 00 00 00	 call	 ??3@YAXPAXI@Z		; operator delete
  00029	83 c4 08	 add	 esp, 8
; File D:\_m2work\txoko-m2-work\txoko-client-src\source\eterBase\Singleton.h

; 19   : 	{ 

  0002c	c7 07 00 00 00
	00		 mov	 DWORD PTR [edi], OFFSET ??_7?$CSingleton@VCPythonNonPlayer@@@@6B@

; 20   : 		assert(ms_singleton);
; 21   : 		ms_singleton = 0; 

  00032	c7 05 00 00 00
	00 00 00 00 00	 mov	 DWORD PTR ?ms_singleton@?$CSingleton@VCPythonNonPlayer@@@@0PAVCPythonNonPlayer@@A, 0 ; CSingleton<CPythonNonPlayer>::ms_singleton
  0003c	5f		 pop	 edi
  0003d	5e		 pop	 esi
; File D:\_m2work\txoko-m2-work\txoko-client-src\source\UserInterface\PythonNonPlayer.cpp

; 197  : }

  0003e	c3		 ret	 0
??1CPythonNonPlayer@@UAE@XZ ENDP			; CPythonNonPlayer::~CPythonNonPlayer
_TEXT	ENDS
; Function compile flags: /Ogtp
; File D:\_m2work\txoko-m2-work\txoko-client-src\source\UserInterface\PythonNonPlayer.cpp
; File D:\_m2work\txoko-m2-work\txoko-client-src\source\eterBase\Singleton.h
; File D:\_m2work\txoko-m2-work\txoko-client-src\source\UserInterface\PythonNonPlayer.cpp
; File C:\Program Files\Microsoft Visual Studio\2022\Community\VC\Tools\MSVC\14.44.35207\include\xmemory
; File D:\_m2work\txoko-m2-work\txoko-client-src\source\UserInterface\PythonNonPlayer.cpp
; File C:\Program Files\Microsoft Visual Studio\2022\Community\VC\Tools\MSVC\14.44.35207\include\xtree
; File C:\Program Files\Microsoft Visual Studio\2022\Community\VC\Tools\MSVC\14.44.35207\include\xmemory
; File C:\Program Files\Microsoft Visual Studio\2022\Community\VC\Tools\MSVC\14.44.35207\include\xtree
; File D:\_m2work\txoko-m2-work\txoko-client-src\source\UserInterface\PythonNonPlayer.cpp
;	COMDAT ??0CPythonNonPlayer@@QAE@XZ
_TEXT	SEGMENT
_this$ = -20						; size = 4
_this$ = -16						; size = 4
__$EHRec$ = -12						; size = 12
??0CPythonNonPlayer@@QAE@XZ PROC			; CPythonNonPlayer::CPythonNonPlayer, COMDAT
; _this$ = ecx

; 190  : {

  00000	55		 push	 ebp
  00001	8b ec		 mov	 ebp, esp
  00003	6a ff		 push	 -1
  00005	68 00 00 00 00	 push	 __ehhandler$??0CPythonNonPlayer@@QAE@XZ
  0000a	64 a1 00 00 00
	00		 mov	 eax, DWORD PTR fs:0
  00010	50		 push	 eax
  00011	83 ec 08	 sub	 esp, 8
  00014	56		 push	 esi
  00015	57		 push	 edi
  00016	a1 00 00 00 00	 mov	 eax, DWORD PTR ___security_cookie
  0001b	33 c5		 xor	 eax, ebp
  0001d	50		 push	 eax
  0001e	8d 45 f4	 lea	 eax, DWORD PTR __$EHRec$[ebp]
  00021	64 a3 00 00 00
	00		 mov	 DWORD PTR fs:0, eax
  00027	8b f9		 mov	 edi, ecx
  00029	89 7d f0	 mov	 DWORD PTR _this$[ebp], edi
; File D:\_m2work\txoko-m2-work\txoko-client-src\source\eterBase\Singleton.h

; 15   : 		ms_singleton = (T*) ((int) this + offset);

  0002c	89 3d 00 00 00
	00		 mov	 DWORD PTR ?ms_singleton@?$CSingleton@VCPythonNonPlayer@@@@0PAVCPythonNonPlayer@@A, edi ; CSingleton<CPythonNonPlayer>::ms_singleton
; File D:\_m2work\txoko-m2-work\txoko-client-src\source\UserInterface\PythonNonPlayer.cpp

; 190  : {

  00032	c7 45 fc 00 00
	00 00		 mov	 DWORD PTR __$EHRec$[ebp+8], 0
  00039	8d 77 04	 lea	 esi, DWORD PTR [edi+4]
  0003c	c7 07 00 00 00
	00		 mov	 DWORD PTR [edi], OFFSET ??_7CPythonNonPlayer@@6B@
; File C:\Program Files\Microsoft Visual Studio\2022\Community\VC\Tools\MSVC\14.44.35207\include\xmemory

; 136  :         return ::operator new(_Bytes);

  00042	6a 18		 push	 24			; 00000018H
; File D:\_m2work\txoko-m2-work\txoko-client-src\source\UserInterface\PythonNonPlayer.cpp

; 190  : {

  00044	89 75 ec	 mov	 DWORD PTR _this$[ebp], esi
; File C:\Program Files\Microsoft Visual Studio\2022\Community\VC\Tools\MSVC\14.44.35207\include\xtree

; 450  :     _Tree_val() noexcept : _Myhead(), _Mysize(0) {}

  00047	c7 06 00 00 00
	00		 mov	 DWORD PTR [esi], 0
  0004d	c7 46 04 00 00
	00 00		 mov	 DWORD PTR [esi+4], 0
; File C:\Program Files\Microsoft Visual Studio\2022\Community\VC\Tools\MSVC\14.44.35207\include\xmemory

; 136  :         return ::operator new(_Bytes);

  00054	e8 00 00 00 00	 call	 ??2@YAPAXI@Z		; operator new
  00059	83 c4 04	 add	 esp, 4
; File C:\Program Files\Microsoft Visual Studio\2022\Community\VC\Tools\MSVC\14.44.35207\include\xtree

; 346  :         _Construct_in_place(_Pnode->_Left, _Pnode);

  0005c	89 00		 mov	 DWORD PTR [eax], eax

; 347  :         _Construct_in_place(_Pnode->_Parent, _Pnode);

  0005e	89 40 04	 mov	 DWORD PTR [eax+4], eax

; 348  :         _Construct_in_place(_Pnode->_Right, _Pnode);

  00061	89 40 08	 mov	 DWORD PTR [eax+8], eax

; 349  :         _Pnode->_Color = _Black;

  00064	66 c7 40 0c 01
	01		 mov	 WORD PTR [eax+12], 257	; 00000101H

; 1957 :         _Scary->_Myhead = _Node::_Buyheadnode(_Getal());

  0006a	89 06		 mov	 DWORD PTR [esi], eax
; File D:\_m2work\txoko-m2-work\txoko-client-src\source\UserInterface\PythonNonPlayer.cpp

; 192  : }

  0006c	8b c7		 mov	 eax, edi
  0006e	8b 4d f4	 mov	 ecx, DWORD PTR __$EHRec$[ebp]
  00071	64 89 0d 00 00
	00 00		 mov	 DWORD PTR fs:0, ecx
  00078	59		 pop	 ecx
  00079	5f		 pop	 edi
  0007a	5e		 pop	 esi
  0007b	8b e5		 mov	 esp, ebp
  0007d	5d		 pop	 ebp
  0007e	c3		 ret	 0
_TEXT	ENDS
;	COMDAT text$x
text$x	SEGMENT
__unwindfunclet$??0CPythonNonPlayer@@QAE@XZ$0:
  00000	8b 4d f0	 mov	 ecx, DWORD PTR _this$[ebp]
  00003	e9 00 00 00 00	 jmp	 ??1?$CSingleton@VCPythonNonPlayer@@@@UAE@XZ ; CSingleton<CPythonNonPlayer>::~CSingleton<CPythonNonPlayer>
  00008	cc		 int	 3
  00009	cc		 int	 3
  0000a	cc		 int	 3
  0000b	cc		 int	 3
  0000c	cc		 int	 3
__ehhandler$??0CPythonNonPlayer@@QAE@XZ:
  0000d	90		 npad	 1
  0000e	90		 npad	 1
  0000f	8b 54 24 08	 mov	 edx, DWORD PTR [esp+8]
  00013	8d 42 0c	 lea	 eax, DWORD PTR [edx+12]
  00016	8b 4a ec	 mov	 ecx, DWORD PTR [edx-20]
  00019	33 c8		 xor	 ecx, eax
  0001b	e8 00 00 00 00	 call	 @__security_check_cookie@4
  00020	b8 00 00 00 00	 mov	 eax, OFFSET __ehfuncinfo$??0CPythonNonPlayer@@QAE@XZ
  00025	e9 00 00 00 00	 jmp	 ___CxxFrameHandler3
text$x	ENDS
??0CPythonNonPlayer@@QAE@XZ ENDP			; CPythonNonPlayer::CPythonNonPlayer
; Function compile flags: /Ogtp
; File D:\_m2work\txoko-m2-work\txoko-client-src\source\UserInterface\PythonNonPlayer.cpp
;	COMDAT ?GetEventType@CPythonNonPlayer@@QAEEK@Z
_TEXT	SEGMENT
_dwVnum$ = 8						; size = 4
?GetEventType@CPythonNonPlayer@@QAEEK@Z PROC		; CPythonNonPlayer::GetEventType, COMDAT
; _this$ = ecx

; 107  : {

  00000	55		 push	 ebp
  00001	8b ec		 mov	 ebp, esp

; 108  : 	const TMobTable * p = GetTable(dwVnum);

  00003	ff 75 08	 push	 DWORD PTR _dwVnum$[ebp]
  00006	e8 00 00 00 00	 call	 ?GetTable@CPythonNonPlayer@@QAEPBUSMobTable@1@K@Z ; CPythonNonPlayer::GetTable

; 109  : 
; 110  : 	if (!p)

  0000b	85 c0		 test	 eax, eax
  0000d	75 06		 jne	 SHORT $LN2@GetEventTy

; 111  : 	{
; 112  : 		//Tracef("CPythonNonPlayer::GetEventType - Failed to find virtual number\n");
; 113  : 		return ON_CLICK_EVENT_NONE;

  0000f	32 c0		 xor	 al, al

; 117  : }

  00011	5d		 pop	 ebp
  00012	c2 04 00	 ret	 4
$LN2@GetEventTy:

; 114  : 	}
; 115  : 
; 116  : 	return p->bOnClickType;

  00015	8a 80 8a 00 00
	00		 mov	 al, BYTE PTR [eax+138]

; 117  : }

  0001b	5d		 pop	 ebp
  0001c	c2 04 00	 ret	 4
?GetEventType@CPythonNonPlayer@@QAEEK@Z ENDP		; CPythonNonPlayer::GetEventType
_TEXT	ENDS
; Function compile flags: /Ogtp
; File D:\_m2work\txoko-m2-work\txoko-client-src\source\UserInterface\PythonNonPlayer.cpp
; File C:\Program Files\Microsoft Visual Studio\2022\Community\VC\Tools\MSVC\14.44.35207\include\xtree
; File D:\_m2work\txoko-m2-work\txoko-client-src\source\UserInterface\PythonNonPlayer.cpp
; File C:\Program Files\Microsoft Visual Studio\2022\Community\VC\Tools\MSVC\14.44.35207\include\xtree
; File C:\Program Files\Microsoft Visual Studio\2022\Community\VC\Tools\MSVC\14.44.35207\include\type_traits
; File C:\Program Files\Microsoft Visual Studio\2022\Community\VC\Tools\MSVC\14.44.35207\include\xtree
; File D:\_m2work\txoko-m2-work\txoko-client-src\source\UserInterface\PythonNonPlayer.cpp
;	COMDAT ?GetTable@CPythonNonPlayer@@QAEPBUSMobTable@1@K@Z
_TEXT	SEGMENT
__Loc$1 = -12						; size = 12
_dwVnum$ = 8						; size = 4
?GetTable@CPythonNonPlayer@@QAEPBUSMobTable@1@K@Z PROC	; CPythonNonPlayer::GetTable, COMDAT
; _this$ = ecx

; 97   : {

  00000	55		 push	 ebp
  00001	8b ec		 mov	 ebp, esp
  00003	83 ec 0c	 sub	 esp, 12			; 0000000cH
  00006	56		 push	 esi
; File C:\Program Files\Microsoft Visual Studio\2022\Community\VC\Tools\MSVC\14.44.35207\include\xtree

; 1384 :         const _Tree_find_result<_Nodeptr> _Loc = _Find_lower_bound(_Keyval);

  00007	8d 45 08	 lea	 eax, DWORD PTR _dwVnum$[ebp]
  0000a	50		 push	 eax
; File D:\_m2work\txoko-m2-work\txoko-client-src\source\UserInterface\PythonNonPlayer.cpp

; 98   : 	TNonPlayerDataMap::iterator itor = m_NonPlayerDataMap.find(dwVnum);

  0000b	8d 71 04	 lea	 esi, DWORD PTR [ecx+4]
; File C:\Program Files\Microsoft Visual Studio\2022\Community\VC\Tools\MSVC\14.44.35207\include\xtree

; 1384 :         const _Tree_find_result<_Nodeptr> _Loc = _Find_lower_bound(_Keyval);

  0000e	8d 45 f4	 lea	 eax, DWORD PTR __Loc$1[ebp]
  00011	8b ce		 mov	 ecx, esi
  00013	50		 push	 eax
  00014	e8 00 00 00 00	 call	 ??$_Find_lower_bound@K@?$_Tree@V?$_Tmap_traits@KPAUSMobTable@CPythonNonPlayer@@U?$less@K@std@@V?$allocator@U?$pair@$$CBKPAUSMobTable@CPythonNonPlayer@@@std@@@4@$0A@@std@@@std@@IBE?AU?$_Tree_find_result@PAU?$_Tree_node@U?$pair@$$CBKPAUSMobTable@CPythonNonPlayer@@@std@@PAX@std@@@1@ABK@Z ; std::_Tree<std::_Tmap_traits<unsigned long,CPythonNonPlayer::SMobTable *,std::less<unsigned long>,std::allocator<std::pair<unsigned long const ,CPythonNonPlayer::SMobTable *> >,0> >::_Find_lower_bound<unsigned long>

; 1624 :         return !_Bound->_Isnil && !_DEBUG_LT_PRED(_Getcomp(), _Keyval, _Traits::_Kfn(_Bound->_Myval));

  00019	8b 45 fc	 mov	 eax, DWORD PTR __Loc$1[ebp+8]
  0001c	80 78 0d 00	 cmp	 BYTE PTR [eax+13], 0
  00020	75 16		 jne	 SHORT $LN50@GetTable
; File C:\Program Files\Microsoft Visual Studio\2022\Community\VC\Tools\MSVC\14.44.35207\include\type_traits

; 2380 :         return _Left < _Right;

  00022	8b 4d 08	 mov	 ecx, DWORD PTR _dwVnum$[ebp]
  00025	3b 48 10	 cmp	 ecx, DWORD PTR [eax+16]
; File C:\Program Files\Microsoft Visual Studio\2022\Community\VC\Tools\MSVC\14.44.35207\include\xtree

; 1624 :         return !_Bound->_Isnil && !_DEBUG_LT_PRED(_Getcomp(), _Keyval, _Traits::_Kfn(_Bound->_Myval));

  00028	72 0e		 jb	 SHORT $LN50@GetTable

; 37   :     _Tree_unchecked_const_iterator(_Nodeptr _Pnode, const _Mytree* _Plist) noexcept : _Ptr(_Pnode) {

  0002a	3b 06		 cmp	 eax, DWORD PTR [esi]
; File D:\_m2work\txoko-m2-work\txoko-client-src\source\UserInterface\PythonNonPlayer.cpp

; 100  : 	if (itor == m_NonPlayerDataMap.end())

  0002c	74 0a		 je	 SHORT $LN50@GetTable

; 102  : 
; 103  : 	return itor->second;

  0002e	8b 40 14	 mov	 eax, DWORD PTR [eax+20]
  00031	5e		 pop	 esi

; 104  : }

  00032	8b e5		 mov	 esp, ebp
  00034	5d		 pop	 ebp
  00035	c2 04 00	 ret	 4
$LN50@GetTable:

; 101  : 		return NULL;

  00038	33 c0		 xor	 eax, eax
  0003a	5e		 pop	 esi

; 104  : }

  0003b	8b e5		 mov	 esp, ebp
  0003d	5d		 pop	 ebp
  0003e	c2 04 00	 ret	 4
?GetTable@CPythonNonPlayer@@QAEPBUSMobTable@1@K@Z ENDP	; CPythonNonPlayer::GetTable
_TEXT	ENDS
; Function compile flags: /Ogtp
; File D:\_m2work\txoko-m2-work\txoko-client-src\source\UserInterface\PythonNonPlayer.cpp
;	COMDAT ?GetEventTypeByVID@CPythonNonPlayer@@QAEEK@Z
_TEXT	SEGMENT
_dwVID$ = 8						; size = 4
?GetEventTypeByVID@CPythonNonPlayer@@QAEEK@Z PROC	; CPythonNonPlayer::GetEventTypeByVID, COMDAT
; _this$ = ecx

; 120  : {

  00000	55		 push	 ebp
  00001	8b ec		 mov	 ebp, esp
  00003	56		 push	 esi

; 121  : 	CInstanceBase * pInstance = CPythonCharacterManager::Instance().GetInstancePtr(dwVID);

  00004	ff 75 08	 push	 DWORD PTR _dwVID$[ebp]
  00007	8b f1		 mov	 esi, ecx
  00009	8b 0d 00 00 00
	00		 mov	 ecx, DWORD PTR ?ms_singleton@?$CSingleton@VCPythonCharacterManager@@@@0PAVCPythonCharacterManager@@A ; CSingleton<CPythonCharacterManager>::ms_singleton
  0000f	83 c1 04	 add	 ecx, 4
  00012	8b 01		 mov	 eax, DWORD PTR [ecx]
  00014	ff 50 08	 call	 DWORD PTR [eax+8]

; 122  : 
; 123  : 	if (NULL == pInstance)

  00017	85 c0		 test	 eax, eax
  00019	75 07		 jne	 SHORT $LN2@GetEventTy

; 124  : 	{
; 125  : 		//Tracef("CPythonNonPlayer::GetEventTypeByVID - There is no Virtual Number\n");
; 126  : 		return ON_CLICK_EVENT_NONE;

  0001b	32 c0		 xor	 al, al
  0001d	5e		 pop	 esi

; 131  : }

  0001e	5d		 pop	 ebp
  0001f	c2 04 00	 ret	 4
$LN2@GetEventTy:

; 127  : 	}
; 128  : 
; 129  : 	WORD dwVnum = pInstance->GetVirtualNumber();

  00022	8b c8		 mov	 ecx, eax
  00024	e8 00 00 00 00	 call	 ?GetVirtualNumber@CInstanceBase@@QAEKXZ ; CInstanceBase::GetVirtualNumber
  00029	0f b7 c0	 movzx	 eax, ax

; 130  : 	return GetEventType(dwVnum);

  0002c	8b ce		 mov	 ecx, esi
  0002e	50		 push	 eax
  0002f	e8 00 00 00 00	 call	 ?GetEventType@CPythonNonPlayer@@QAEEK@Z ; CPythonNonPlayer::GetEventType
  00034	5e		 pop	 esi

; 131  : }

  00035	5d		 pop	 ebp
  00036	c2 04 00	 ret	 4
?GetEventTypeByVID@CPythonNonPlayer@@QAEEK@Z ENDP	; CPythonNonPlayer::GetEventTypeByVID
_TEXT	ENDS
; Function compile flags: /Ogtp
; File D:\_m2work\txoko-m2-work\txoko-client-src\source\UserInterface\PythonNonPlayer.cpp
;	COMDAT ?GetMonsterName@CPythonNonPlayer@@QAEPBDK@Z
_TEXT	SEGMENT
_dwVnum$ = 8						; size = 4
?GetMonsterName@CPythonNonPlayer@@QAEPBDK@Z PROC	; CPythonNonPlayer::GetMonsterName, COMDAT
; _this$ = ecx

; 134  : {	

  00000	55		 push	 ebp
  00001	8b ec		 mov	 ebp, esp

; 135  : 	const CPythonNonPlayer::TMobTable * c_pTable = GetTable(dwVnum);

  00003	ff 75 08	 push	 DWORD PTR _dwVnum$[ebp]
  00006	e8 00 00 00 00	 call	 ?GetTable@CPythonNonPlayer@@QAEPBUSMobTable@1@K@Z ; CPythonNonPlayer::GetTable

; 136  : 	if (!c_pTable)

  0000b	85 c0		 test	 eax, eax
  0000d	ba 00 00 00 00	 mov	 edx, OFFSET ??_C@_00CNPNBAHC@@
  00012	8d 48 1d	 lea	 ecx, DWORD PTR [eax+29]
  00015	0f 45 d1	 cmovne	 edx, ecx

; 137  : 	{
; 138  : 		static const char* sc_szEmpty="";
; 139  : 		return sc_szEmpty;

  00018	8b c2		 mov	 eax, edx

; 140  : 	}
; 141  : 
; 142  : 	return c_pTable->szLocaleName;
; 143  : }

  0001a	5d		 pop	 ebp
  0001b	c2 04 00	 ret	 4
?GetMonsterName@CPythonNonPlayer@@QAEPBDK@Z ENDP	; CPythonNonPlayer::GetMonsterName
_TEXT	ENDS
; Function compile flags: /Ogtp
; File D:\_m2work\txoko-m2-work\txoko-client-src\source\UserInterface\PythonNonPlayer.cpp
;	COMDAT ?Clear@CPythonNonPlayer@@QAEXXZ
_TEXT	SEGMENT
?Clear@CPythonNonPlayer@@QAEXXZ PROC			; CPythonNonPlayer::Clear, COMDAT
; _this$dead$ = ecx

; 178  : }

  00000	c2 00 00	 ret	 0
?Clear@CPythonNonPlayer@@QAEXXZ ENDP			; CPythonNonPlayer::Clear
_TEXT	ENDS
; Function compile flags: /Ogtp
;	COMDAT ??_GCPythonNonPlayer@@UAEPAXI@Z
_TEXT	SEGMENT
___flags$ = 8						; size = 4
??_GCPythonNonPlayer@@UAEPAXI@Z PROC			; CPythonNonPlayer::`scalar deleting destructor', COMDAT
; _this$ = ecx
  00000	55		 push	 ebp
  00001	8b ec		 mov	 ebp, esp
  00003	56		 push	 esi
  00004	8b f1		 mov	 esi, ecx
  00006	e8 00 00 00 00	 call	 ??1CPythonNonPlayer@@UAE@XZ ; CPythonNonPlayer::~CPythonNonPlayer
  0000b	f6 45 08 01	 test	 BYTE PTR ___flags$[ebp], 1
  0000f	74 0b		 je	 SHORT $LN5@scalar
  00011	6a 0c		 push	 12			; 0000000cH
  00013	56		 push	 esi
  00014	e8 00 00 00 00	 call	 ??3@YAXPAXI@Z		; operator delete
  00019	83 c4 08	 add	 esp, 8
$LN5@scalar:
  0001c	8b c6		 mov	 eax, esi
  0001e	5e		 pop	 esi
  0001f	5d		 pop	 ebp
  00020	c2 04 00	 ret	 4
??_GCPythonNonPlayer@@UAEPAXI@Z ENDP			; CPythonNonPlayer::`scalar deleting destructor'
_TEXT	ENDS
; Function compile flags: /Ogtp
; File C:\Program Files\Microsoft Visual Studio\2022\Community\VC\Tools\MSVC\14.44.35207\include\xtree
; File C:\Program Files\Microsoft Visual Studio\2022\Community\VC\Tools\MSVC\14.44.35207\include\xmemory
;	COMDAT ??1?$map@KPAUSMobTable@CPythonNonPlayer@@U?$less@K@std@@V?$allocator@U?$pair@$$CBKPAUSMobTable@CPythonNonPlayer@@@std@@@4@@std@@QAE@XZ
_TEXT	SEGMENT
??1?$map@KPAUSMobTable@CPythonNonPlayer@@U?$less@K@std@@V?$allocator@U?$pair@$$CBKPAUSMobTable@CPythonNonPlayer@@@std@@@4@@std@@QAE@XZ PROC ; std::map<unsigned long,CPythonNonPlayer::SMobTable *,std::less<unsigned long>,std::allocator<std::pair<unsigned long const ,CPythonNonPlayer::SMobTable *> > >::~map<unsigned long,CPythonNonPlayer::SMobTable *,std::less<unsigned long>,std::allocator<std::pair<unsigned long const ,CPythonNonPlayer::SMobTable *> > >, COMDAT
; _this$ = ecx
; File C:\Program Files\Microsoft Visual Studio\2022\Community\VC\Tools\MSVC\14.44.35207\include\xtree

; 777  :         _Erase_tree(_Al, _Myhead->_Parent);

  00000	56		 push	 esi
  00001	8b f1		 mov	 esi, ecx
  00003	8b 06		 mov	 eax, DWORD PTR [esi]
  00005	ff 70 04	 push	 DWORD PTR [eax+4]
  00008	56		 push	 esi
  00009	e8 00 00 00 00	 call	 ??$_Erase_tree@V?$allocator@U?$_Tree_node@U?$pair@$$CBKPAUSMobTable@CPythonNonPlayer@@@std@@PAX@std@@@std@@@?$_Tree_val@U?$_Tree_simple_types@U?$pair@$$CBKPAUSMobTable@CPythonNonPlayer@@@std@@@std@@@std@@QAEXAAV?$allocator@U?$_Tree_node@U?$pair@$$CBKPAUSMobTable@CPythonNonPlayer@@@std@@PAX@std@@@1@PAU?$_Tree_node@U?$pair@$$CBKPAUSMobTable@CPythonNonPlayer@@@std@@PAX@1@@Z ; std::_Tree_val<std::_Tree_simple_types<std::pair<unsigned long const ,CPythonNonPlayer::SMobTable *> > >::_Erase_tree<std::allocator<std::_Tree_node<std::pair<unsigned long const ,CPythonNonPlayer::SMobTable *>,void *> > >
; File C:\Program Files\Microsoft Visual Studio\2022\Community\VC\Tools\MSVC\14.44.35207\include\xmemory

; 289  :         ::operator delete(_Ptr, _Bytes);

  0000e	6a 18		 push	 24			; 00000018H
  00010	ff 36		 push	 DWORD PTR [esi]
  00012	e8 00 00 00 00	 call	 ??3@YAXPAXI@Z		; operator delete
  00017	83 c4 08	 add	 esp, 8
  0001a	5e		 pop	 esi
  0001b	c3		 ret	 0
??1?$map@KPAUSMobTable@CPythonNonPlayer@@U?$less@K@std@@V?$allocator@U?$pair@$$CBKPAUSMobTable@CPythonNonPlayer@@@std@@@4@@std@@QAE@XZ ENDP ; std::map<unsigned long,CPythonNonPlayer::SMobTable *,std::less<unsigned long>,std::allocator<std::pair<unsigned long const ,CPythonNonPlayer::SMobTable *> > >::~map<unsigned long,CPythonNonPlayer::SMobTable *,std::less<unsigned long>,std::allocator<std::pair<unsigned long const ,CPythonNonPlayer::SMobTable *> > >
_TEXT	ENDS
; Function compile flags: /Ogtp
; File C:\Program Files\Microsoft Visual Studio\2022\Community\VC\Tools\MSVC\14.44.35207\include\utility
;	COMDAT ??$?0AAKAAPAUSMobTable@CPythonNonPlayer@@$0A@@?$pair@$$CBKPAUSMobTable@CPythonNonPlayer@@@std@@QAE@AAKAAPAUSMobTable@CPythonNonPlayer@@@Z
_TEXT	SEGMENT
__Val1$ = 8						; size = 4
__Val2$ = 12						; size = 4
??$?0AAKAAPAUSMobTable@CPythonNonPlayer@@$0A@@?$pair@$$CBKPAUSMobTable@CPythonNonPlayer@@@std@@QAE@AAKAAPAUSMobTable@CPythonNonPlayer@@@Z PROC ; std::pair<unsigned long const ,CPythonNonPlayer::SMobTable *>::pair<unsigned long const ,CPythonNonPlayer::SMobTable *><unsigned long &,CPythonNonPlayer::SMobTable * &,0>, COMDAT
; _this$ = ecx

; 274  :         : first(_STD forward<_Other1>(_Val1)), second(_STD forward<_Other2>(_Val2)) {

  00000	55		 push	 ebp
  00001	8b ec		 mov	 ebp, esp
  00003	8b 45 08	 mov	 eax, DWORD PTR __Val1$[ebp]
  00006	8b 00		 mov	 eax, DWORD PTR [eax]
  00008	89 01		 mov	 DWORD PTR [ecx], eax
  0000a	8b 45 0c	 mov	 eax, DWORD PTR __Val2$[ebp]
  0000d	8b 00		 mov	 eax, DWORD PTR [eax]
  0000f	89 41 04	 mov	 DWORD PTR [ecx+4], eax

; 275  :     }

  00012	8b c1		 mov	 eax, ecx
  00014	5d		 pop	 ebp
  00015	c2 08 00	 ret	 8
??$?0AAKAAPAUSMobTable@CPythonNonPlayer@@$0A@@?$pair@$$CBKPAUSMobTable@CPythonNonPlayer@@@std@@QAE@AAKAAPAUSMobTable@CPythonNonPlayer@@@Z ENDP ; std::pair<unsigned long const ,CPythonNonPlayer::SMobTable *>::pair<unsigned long const ,CPythonNonPlayer::SMobTable *><unsigned long &,CPythonNonPlayer::SMobTable * &,0>
_TEXT	ENDS
; Function compile flags: /Ogtp
; File C:\Program Files\Microsoft Visual Studio\2022\Community\VC\Tools\MSVC\14.44.35207\include\xtree
; File C:\Program Files\Microsoft Visual Studio\2022\Community\VC\Tools\MSVC\14.44.35207\include\type_traits
; File C:\Program Files\Microsoft Visual Studio\2022\Community\VC\Tools\MSVC\14.44.35207\include\xtree
; File C:\Program Files\Microsoft Visual Studio\2022\Community\VC\Tools\MSVC\14.44.35207\include\utility
; File C:\Program Files\Microsoft Visual Studio\2022\Community\VC\Tools\MSVC\14.44.35207\include\xtree
; File C:\Program Files\Microsoft Visual Studio\2022\Community\VC\Tools\MSVC\14.44.35207\include\xmemory
; File C:\Program Files\Microsoft Visual Studio\2022\Community\VC\Tools\MSVC\14.44.35207\include\xtree
; File C:\Program Files\Microsoft Visual Studio\2022\Community\VC\Tools\MSVC\14.44.35207\include\xmemory
; File C:\Program Files\Microsoft Visual Studio\2022\Community\VC\Tools\MSVC\14.44.35207\include\xtree
; File C:\Program Files\Microsoft Visual Studio\2022\Community\VC\Tools\MSVC\14.44.35207\include\xmemory
; File C:\Program Files\Microsoft Visual Studio\2022\Community\VC\Tools\MSVC\14.44.35207\include\xtree
; File C:\Program Files\Microsoft Visual Studio\2022\Community\VC\Tools\MSVC\14.44.35207\include\utility
; File C:\Program Files\Microsoft Visual Studio\2022\Community\VC\Tools\MSVC\14.44.35207\include\xtree
;	COMDAT ??$insert@$0A@$0A@@?$_Tree@V?$_Tmap_traits@KPAUSMobTable@CPythonNonPlayer@@U?$less@K@std@@V?$allocator@U?$pair@$$CBKPAUSMobTable@CPythonNonPlayer@@@std@@@4@$0A@@std@@@std@@QAE?AU?$pair@V?$_Tree_iterator@V?$_Tree_val@U?$_Tree_simple_types@U?$pair@$$CBKPAUSMobTable@CPythonNonPlayer@@@std@@@std@@@std@@@std@@_N@1@$$QAU?$pair@$$CBKPAUSMobTable@CPythonNonPlayer@@@1@@Z
_TEXT	SEGMENT
__Loc$2 = -36						; size = 12
$T3 = -24						; size = 12
$T4 = -20						; size = 8
__$EHRec$ = -12						; size = 12
___$ReturnUdt$ = 8					; size = 4
__Val$ = 12						; size = 4
??$insert@$0A@$0A@@?$_Tree@V?$_Tmap_traits@KPAUSMobTable@CPythonNonPlayer@@U?$less@K@std@@V?$allocator@U?$pair@$$CBKPAUSMobTable@CPythonNonPlayer@@@std@@@4@$0A@@std@@@std@@QAE?AU?$pair@V?$_Tree_iterator@V?$_Tree_val@U?$_Tree_simple_types@U?$pair@$$CBKPAUSMobTable@CPythonNonPlayer@@@std@@@std@@@std@@@std@@_N@1@$$QAU?$pair@$$CBKPAUSMobTable@CPythonNonPlayer@@@1@@Z PROC ; std::_Tree<std::_Tmap_traits<unsigned long,CPythonNonPlayer::SMobTable *,std::less<unsigned long>,std::allocator<std::pair<unsigned long const ,CPythonNonPlayer::SMobTable *> >,0> >::insert<0,0>, COMDAT
; _this$ = ecx

; 1245 :     pair<iterator, bool> insert(value_type&& _Val) {

  00000	55		 push	 ebp
  00001	8b ec		 mov	 ebp, esp
  00003	6a ff		 push	 -1
  00005	68 00 00 00 00	 push	 __ehhandler$??$insert@$0A@$0A@@?$_Tree@V?$_Tmap_traits@KPAUSMobTable@CPythonNonPlayer@@U?$less@K@std@@V?$allocator@U?$pair@$$CBKPAUSMobTable@CPythonNonPlayer@@@std@@@4@$0A@@std@@@std@@QAE?AU?$pair@V?$_Tree_iterator@V?$_Tree_val@U?$_Tree_simple_types@U?$pair@$$CBKPAUSMobTable@CPythonNonPlayer@@@std@@@std@@@std@@@std@@_N@1@$$QAU?$pair@$$CBKPAUSMobTable@CPythonNonPlayer@@@1@@Z
  0000a	64 a1 00 00 00
	00		 mov	 eax, DWORD PTR fs:0
  00010	50		 push	 eax
  00011	83 ec 18	 sub	 esp, 24			; 00000018H
  00014	53		 push	 ebx
  00015	56		 push	 esi
  00016	57		 push	 edi
  00017	a1 00 00 00 00	 mov	 eax, DWORD PTR ___security_cookie
  0001c	33 c5		 xor	 eax, ebp
  0001e	50		 push	 eax
  0001f	8d 45 f4	 lea	 eax, DWORD PTR __$EHRec$[ebp]
  00022	64 a3 00 00 00
	00		 mov	 DWORD PTR fs:0, eax
  00028	8b f9		 mov	 edi, ecx

; 1017 :             _Loc                = _Find_lower_bound(_Keyval);

  0002a	8b 5d 0c	 mov	 ebx, DWORD PTR __Val$[ebp]
  0002d	8d 45 e8	 lea	 eax, DWORD PTR $T3[ebp]
  00030	53		 push	 ebx
  00031	50		 push	 eax
  00032	e8 00 00 00 00	 call	 ??$_Find_lower_bound@K@?$_Tree@V?$_Tmap_traits@KPAUSMobTable@CPythonNonPlayer@@U?$less@K@std@@V?$allocator@U?$pair@$$CBKPAUSMobTable@CPythonNonPlayer@@@std@@@4@$0A@@std@@@std@@IBE?AU?$_Tree_find_result@PAU?$_Tree_node@U?$pair@$$CBKPAUSMobTable@CPythonNonPlayer@@@std@@PAX@std@@@1@ABK@Z ; std::_Tree<std::_Tmap_traits<unsigned long,CPythonNonPlayer::SMobTable *,std::less<unsigned long>,std::allocator<std::pair<unsigned long const ,CPythonNonPlayer::SMobTable *> >,0> >::_Find_lower_bound<unsigned long>
  00037	8b 48 08	 mov	 ecx, DWORD PTR [eax+8]
  0003a	f3 0f 7e 00	 movq	 xmm0, QWORD PTR [eax]
  0003e	66 0f d6 45 dc	 movq	 QWORD PTR __Loc$2[ebp], xmm0

; 1624 :         return !_Bound->_Isnil && !_DEBUG_LT_PRED(_Getcomp(), _Keyval, _Traits::_Kfn(_Bound->_Myval));

  00043	80 79 0d 00	 cmp	 BYTE PTR [ecx+13], 0
  00047	75 0b		 jne	 SHORT $LN4@insert
; File C:\Program Files\Microsoft Visual Studio\2022\Community\VC\Tools\MSVC\14.44.35207\include\type_traits

; 2380 :         return _Left < _Right;

  00049	8b 03		 mov	 eax, DWORD PTR [ebx]
  0004b	3b 41 10	 cmp	 eax, DWORD PTR [ecx+16]
; File C:\Program Files\Microsoft Visual Studio\2022\Community\VC\Tools\MSVC\14.44.35207\include\xtree

; 1624 :         return !_Bound->_Isnil && !_DEBUG_LT_PRED(_Getcomp(), _Keyval, _Traits::_Kfn(_Bound->_Myval));

  0004e	72 04		 jb	 SHORT $LN4@insert
; File C:\Program Files\Microsoft Visual Studio\2022\Community\VC\Tools\MSVC\14.44.35207\include\utility

; 274  :         : first(_STD forward<_Other1>(_Val1)), second(_STD forward<_Other2>(_Val2)) {

  00050	32 d2		 xor	 dl, dl
; File C:\Program Files\Microsoft Visual Studio\2022\Community\VC\Tools\MSVC\14.44.35207\include\xtree

; 1019 :                 return {_Loc._Bound, false};

  00052	eb 51		 jmp	 SHORT $LN88@insert
$LN4@insert:

; 1648 :         if (max_size() == _Get_scary()->_Mysize) {

  00054	81 7f 04 aa aa
	aa 0a		 cmp	 DWORD PTR [edi+4], 178956970 ; 0aaaaaaaH
  0005b	74 64		 je	 SHORT $LN107@insert

; 1023 :             _Inserted = _Tree_temp_node<_Alnode>(_Getal(), _Scary->_Myhead, _STD forward<_Valtys>(_Vals)...)._Release();

  0005d	8b 37		 mov	 esi, DWORD PTR [edi]
; File C:\Program Files\Microsoft Visual Studio\2022\Community\VC\Tools\MSVC\14.44.35207\include\xmemory

; 1160 :     _CONSTEXPR20 explicit _Alloc_construct_ptr(_Alloc& _Al_) : _Al(_Al_), _Ptr(nullptr) {}

  0005f	89 7d ec	 mov	 DWORD PTR $T4[ebp], edi
; File C:\Program Files\Microsoft Visual Studio\2022\Community\VC\Tools\MSVC\14.44.35207\include\xtree

; 808  :     explicit _Tree_temp_node_alloc(_Alnode& _Al_) : _Alloc_construct_ptr<_Alnode>(_Al_) {

  00062	c7 45 fc 00 00
	00 00		 mov	 DWORD PTR __$EHRec$[ebp+8], 0
; File C:\Program Files\Microsoft Visual Studio\2022\Community\VC\Tools\MSVC\14.44.35207\include\xmemory

; 136  :         return ::operator new(_Bytes);

  00069	6a 18		 push	 24			; 00000018H

; 1167 :         _Ptr = nullptr; // if allocate throws, prevents double-free

  0006b	c7 45 f0 00 00
	00 00		 mov	 DWORD PTR $T4[ebp+4], 0

; 136  :         return ::operator new(_Bytes);

  00072	e8 00 00 00 00	 call	 ??2@YAPAXI@Z		; operator new
; File C:\Program Files\Microsoft Visual Studio\2022\Community\VC\Tools\MSVC\14.44.35207\include\xtree

; 830  :         _Alnode_traits::construct(this->_Al, _STD addressof(this->_Ptr->_Myval), _STD forward<_Valtys>(_Vals)...);

  00077	8b 0b		 mov	 ecx, DWORD PTR [ebx]
; File C:\Program Files\Microsoft Visual Studio\2022\Community\VC\Tools\MSVC\14.44.35207\include\xmemory

; 136  :         return ::operator new(_Bytes);

  00079	83 c4 04	 add	 esp, 4
; File C:\Program Files\Microsoft Visual Studio\2022\Community\VC\Tools\MSVC\14.44.35207\include\xtree

; 830  :         _Alnode_traits::construct(this->_Al, _STD addressof(this->_Ptr->_Myval), _STD forward<_Valtys>(_Vals)...);

  0007c	8b 53 04	 mov	 edx, DWORD PTR [ebx+4]
  0007f	89 48 10	 mov	 DWORD PTR [eax+16], ecx

; 1042 :         return {_Scary->_Insert_node(_Loc._Location, _Inserted), true};

  00082	8b cf		 mov	 ecx, edi
  00084	50		 push	 eax
  00085	ff 75 e0	 push	 DWORD PTR __Loc$2[ebp+4]

; 830  :         _Alnode_traits::construct(this->_Al, _STD addressof(this->_Ptr->_Myval), _STD forward<_Valtys>(_Vals)...);

  00088	89 50 14	 mov	 DWORD PTR [eax+20], edx

; 1042 :         return {_Scary->_Insert_node(_Loc._Location, _Inserted), true};

  0008b	ff 75 dc	 push	 DWORD PTR __Loc$2[ebp]

; 831  :         _Construct_in_place(this->_Ptr->_Left, _Myhead);

  0008e	89 30		 mov	 DWORD PTR [eax], esi

; 832  :         _Construct_in_place(this->_Ptr->_Parent, _Myhead);

  00090	89 70 04	 mov	 DWORD PTR [eax+4], esi

; 833  :         _Construct_in_place(this->_Ptr->_Right, _Myhead);

  00093	89 70 08	 mov	 DWORD PTR [eax+8], esi

; 834  :         this->_Ptr->_Color = _Red;

  00096	66 c7 40 0c 00
	00		 mov	 WORD PTR [eax+12], 0

; 1042 :         return {_Scary->_Insert_node(_Loc._Location, _Inserted), true};

  0009c	e8 00 00 00 00	 call	 ?_Insert_node@?$_Tree_val@U?$_Tree_simple_types@U?$pair@$$CBKPAUSMobTable@CPythonNonPlayer@@@std@@@std@@@std@@QAEPAU?$_Tree_node@U?$pair@$$CBKPAUSMobTable@CPythonNonPlayer@@@std@@PAX@2@U?$_Tree_id@PAU?$_Tree_node@U?$pair@$$CBKPAUSMobTable@CPythonNonPlayer@@@std@@PAX@std@@@2@QAU32@@Z ; std::_Tree_val<std::_Tree_simple_types<std::pair<unsigned long const ,CPythonNonPlayer::SMobTable *> > >::_Insert_node
; File C:\Program Files\Microsoft Visual Studio\2022\Community\VC\Tools\MSVC\14.44.35207\include\utility

; 274  :         : first(_STD forward<_Other1>(_Val1)), second(_STD forward<_Other2>(_Val2)) {

  000a1	8b c8		 mov	 ecx, eax
  000a3	b2 01		 mov	 dl, 1
$LN88@insert:
  000a5	8b 45 08	 mov	 eax, DWORD PTR ___$ReturnUdt$[ebp]
  000a8	89 08		 mov	 DWORD PTR [eax], ecx
  000aa	88 50 04	 mov	 BYTE PTR [eax+4], dl
; File C:\Program Files\Microsoft Visual Studio\2022\Community\VC\Tools\MSVC\14.44.35207\include\xtree

; 1248 :     }

  000ad	8b 4d f4	 mov	 ecx, DWORD PTR __$EHRec$[ebp]
  000b0	64 89 0d 00 00
	00 00		 mov	 DWORD PTR fs:0, ecx
  000b7	59		 pop	 ecx
  000b8	5f		 pop	 edi
  000b9	5e		 pop	 esi
  000ba	5b		 pop	 ebx
  000bb	8b e5		 mov	 esp, ebp
  000bd	5d		 pop	 ebp
  000be	c2 08 00	 ret	 8
$LN107@insert:

; 1649 :             _Throw_tree_length_error();

  000c1	e8 00 00 00 00	 call	 ?_Throw_tree_length_error@std@@YAXXZ ; std::_Throw_tree_length_error
$LN105@insert:
  000c6	cc		 int	 3
_TEXT	ENDS
;	COMDAT text$x
text$x	SEGMENT
__unwindfunclet$??$insert@$0A@$0A@@?$_Tree@V?$_Tmap_traits@KPAUSMobTable@CPythonNonPlayer@@U?$less@K@std@@V?$allocator@U?$pair@$$CBKPAUSMobTable@CPythonNonPlayer@@@std@@@4@$0A@@std@@@std@@QAE?AU?$pair@V?$_Tree_iterator@V?$_Tree_val@U?$_Tree_simple_types@U?$pair@$$CBKPAUSMobTable@CPythonNonPlayer@@@std@@@std@@@std@@@std@@_N@1@$$QAU?$pair@$$CBKPAUSMobTable@CPythonNonPlayer@@@1@@Z$2:
  00000	8d 4d ec	 lea	 ecx, DWORD PTR $T4[ebp]
  00003	e9 00 00 00 00	 jmp	 ??1?$_Alloc_construct_ptr@V?$allocator@U?$_Tree_node@U?$pair@$$CBKPAUSMobTable@CPythonNonPlayer@@@std@@PAX@std@@@std@@@std@@QAE@XZ ; std::_Alloc_construct_ptr<std::allocator<std::_Tree_node<std::pair<unsigned long const ,CPythonNonPlayer::SMobTable *>,void *> > >::~_Alloc_construct_ptr<std::allocator<std::_Tree_node<std::pair<unsigned long const ,CPythonNonPlayer::SMobTable *>,void *> > >
  00008	cc		 int	 3
  00009	cc		 int	 3
  0000a	cc		 int	 3
  0000b	cc		 int	 3
  0000c	cc		 int	 3
__ehhandler$??$insert@$0A@$0A@@?$_Tree@V?$_Tmap_traits@KPAUSMobTable@CPythonNonPlayer@@U?$less@K@std@@V?$allocator@U?$pair@$$CBKPAUSMobTable@CPythonNonPlayer@@@std@@@4@$0A@@std@@@std@@QAE?AU?$pair@V?$_Tree_iterator@V?$_Tree_val@U?$_Tree_simple_types@U?$pair@$$CBKPAUSMobTable@CPythonNonPlayer@@@std@@@std@@@std@@@std@@_N@1@$$QAU?$pair@$$CBKPAUSMobTable@CPythonNonPlayer@@@1@@Z:
  0000d	90		 npad	 1
  0000e	90		 npad	 1
  0000f	8b 54 24 08	 mov	 edx, DWORD PTR [esp+8]
  00013	8d 42 0c	 lea	 eax, DWORD PTR [edx+12]
  00016	8b 4a d8	 mov	 ecx, DWORD PTR [edx-40]
  00019	33 c8		 xor	 ecx, eax
  0001b	e8 00 00 00 00	 call	 @__security_check_cookie@4
  00020	b8 00 00 00 00	 mov	 eax, OFFSET __ehfuncinfo$??$insert@$0A@$0A@@?$_Tree@V?$_Tmap_traits@KPAUSMobTable@CPythonNonPlayer@@U?$less@K@std@@V?$allocator@U?$pair@$$CBKPAUSMobTable@CPythonNonPlayer@@@std@@@4@$0A@@std@@@std@@QAE?AU?$pair@V?$_Tree_iterator@V?$_Tree_val@U?$_Tree_simple_types@U?$pair@$$CBKPAUSMobTable@CPythonNonPlayer@@@std@@@std@@@std@@@std@@_N@1@$$QAU?$pair@$$CBKPAUSMobTable@CPythonNonPlayer@@@1@@Z
  00025	e9 00 00 00 00	 jmp	 ___CxxFrameHandler3
text$x	ENDS
??$insert@$0A@$0A@@?$_Tree@V?$_Tmap_traits@KPAUSMobTable@CPythonNonPlayer@@U?$less@K@std@@V?$allocator@U?$pair@$$CBKPAUSMobTable@CPythonNonPlayer@@@std@@@4@$0A@@std@@@std@@QAE?AU?$pair@V?$_Tree_iterator@V?$_Tree_val@U?$_Tree_simple_types@U?$pair@$$CBKPAUSMobTable@CPythonNonPlayer@@@std@@@std@@@std@@@std@@_N@1@$$QAU?$pair@$$CBKPAUSMobTable@CPythonNonPlayer@@@1@@Z ENDP ; std::_Tree<std::_Tmap_traits<unsigned long,CPythonNonPlayer::SMobTable *,std::less<unsigned long>,std::allocator<std::pair<unsigned long const ,CPythonNonPlayer::SMobTable *> >,0> >::insert<0,0>
; Function compile flags: /Ogtp
; File C:\Program Files\Microsoft Visual Studio\2022\Community\VC\Tools\MSVC\14.44.35207\include\xtree
;	COMDAT ??E?$_Tree_iterator@V?$_Tree_val@U?$_Tree_simple_types@U?$pair@$$CBKPAUSMobTable@CPythonNonPlayer@@@std@@@std@@@std@@@std@@QAEAAV01@XZ
_TEXT	SEGMENT
??E?$_Tree_iterator@V?$_Tree_val@U?$_Tree_simple_types@U?$pair@$$CBKPAUSMobTable@CPythonNonPlayer@@@std@@@std@@@std@@@std@@QAEAAV01@XZ PROC ; std::_Tree_iterator<std::_Tree_val<std::_Tree_simple_types<std::pair<unsigned long const ,CPythonNonPlayer::SMobTable *> > > >::operator++, COMDAT
; _this$ = ecx

; 281  :     _Tree_iterator& operator++() noexcept {

  00000	56		 push	 esi
  00001	8b f1		 mov	 esi, ecx
  00003	57		 push	 edi

; 50   :         if (_Ptr->_Right->_Isnil) { // climb looking for right subtree

  00004	8b 16		 mov	 edx, DWORD PTR [esi]
  00006	8b 7a 08	 mov	 edi, DWORD PTR [edx+8]
  00009	80 7f 0d 00	 cmp	 BYTE PTR [edi+13], 0
  0000d	74 22		 je	 SHORT $LN10@operator

; 51   :             _Nodeptr _Pnode;
; 52   :             while (!(_Pnode = _Ptr->_Parent)->_Isnil && _Ptr == _Pnode->_Right) {

  0000f	8b 42 04	 mov	 eax, DWORD PTR [edx+4]
  00012	80 78 0d 00	 cmp	 BYTE PTR [eax+13], 0
  00016	75 12		 jne	 SHORT $LN27@operator
$LL8@operator:
  00018	3b 50 08	 cmp	 edx, DWORD PTR [eax+8]
  0001b	75 0d		 jne	 SHORT $LN27@operator

; 53   :                 _Ptr = _Pnode; // ==> parent while right subtree

  0001d	89 06		 mov	 DWORD PTR [esi], eax
  0001f	8b d0		 mov	 edx, eax
  00021	8b 40 04	 mov	 eax, DWORD PTR [eax+4]
  00024	80 78 0d 00	 cmp	 BYTE PTR [eax+13], 0
  00028	74 ee		 je	 SHORT $LL8@operator
$LN27@operator:

; 282  :         _Mybase::operator++();
; 283  :         return *this;

  0002a	89 06		 mov	 DWORD PTR [esi], eax

; 284  :     }

  0002c	8b c6		 mov	 eax, esi
  0002e	5f		 pop	 edi
  0002f	5e		 pop	 esi
  00030	c3		 ret	 0
$LN10@operator:

; 476  :         while (!_Pnode->_Left->_Isnil) {

  00031	8b 0f		 mov	 ecx, DWORD PTR [edi]
  00033	80 79 0d 00	 cmp	 BYTE PTR [ecx+13], 0
  00037	75 13		 jne	 SHORT $LN16@operator
  00039	0f 1f 80 00 00
	00 00		 npad	 7
$LL15@operator:
  00040	8b 01		 mov	 eax, DWORD PTR [ecx]

; 477  :             _Pnode = _Pnode->_Left;

  00042	8b f9		 mov	 edi, ecx
  00044	8b c8		 mov	 ecx, eax
  00046	80 78 0d 00	 cmp	 BYTE PTR [eax+13], 0
  0004a	74 f4		 je	 SHORT $LL15@operator
$LN16@operator:

; 282  :         _Mybase::operator++();
; 283  :         return *this;

  0004c	89 3e		 mov	 DWORD PTR [esi], edi

; 284  :     }

  0004e	8b c6		 mov	 eax, esi
  00050	5f		 pop	 edi
  00051	5e		 pop	 esi
  00052	c3		 ret	 0
??E?$_Tree_iterator@V?$_Tree_val@U?$_Tree_simple_types@U?$pair@$$CBKPAUSMobTable@CPythonNonPlayer@@@std@@@std@@@std@@@std@@QAEAAV01@XZ ENDP ; std::_Tree_iterator<std::_Tree_val<std::_Tree_simple_types<std::pair<unsigned long const ,CPythonNonPlayer::SMobTable *> > > >::operator++
_TEXT	ENDS
; Function compile flags: /Ogtp
; File C:\Program Files\Microsoft Visual Studio\2022\Community\VC\Tools\MSVC\14.44.35207\include\xtree
;	COMDAT ??C?$_Tree_iterator@V?$_Tree_val@U?$_Tree_simple_types@U?$pair@$$CBKPAUSMobTable@CPythonNonPlayer@@@std@@@std@@@std@@@std@@QBEPAU?$pair@$$CBKPAUSMobTable@CPythonNonPlayer@@@1@XZ
_TEXT	SEGMENT
??C?$_Tree_iterator@V?$_Tree_val@U?$_Tree_simple_types@U?$pair@$$CBKPAUSMobTable@CPythonNonPlayer@@@std@@@std@@@std@@@std@@QBEPAU?$pair@$$CBKPAUSMobTable@CPythonNonPlayer@@@1@XZ PROC ; std::_Tree_iterator<std::_Tree_val<std::_Tree_simple_types<std::pair<unsigned long const ,CPythonNonPlayer::SMobTable *> > > >::operator->, COMDAT
; _this$ = ecx

; 185  :         return this->_Ptr->_Myval;

  00000	8b 01		 mov	 eax, DWORD PTR [ecx]
  00002	83 c0 10	 add	 eax, 16			; 00000010H

; 278  :         return pointer_traits<pointer>::pointer_to(**this);
; 279  :     }

  00005	c3		 ret	 0
??C?$_Tree_iterator@V?$_Tree_val@U?$_Tree_simple_types@U?$pair@$$CBKPAUSMobTable@CPythonNonPlayer@@@std@@@std@@@std@@@std@@QBEPAU?$pair@$$CBKPAUSMobTable@CPythonNonPlayer@@@1@XZ ENDP ; std::_Tree_iterator<std::_Tree_val<std::_Tree_simple_types<std::pair<unsigned long const ,CPythonNonPlayer::SMobTable *> > > >::operator->
_TEXT	ENDS
; Function compile flags: /Ogtp
; File C:\Program Files\Microsoft Visual Studio\2022\Community\VC\Tools\MSVC\14.44.35207\include\xtree
;	COMDAT ??8?$_Tree_const_iterator@V?$_Tree_val@U?$_Tree_simple_types@U?$pair@$$CBKPAUSMobTable@CPythonNonPlayer@@@std@@@std@@@std@@@std@@QBE_NABV01@@Z
_TEXT	SEGMENT
__Right$ = 8						; size = 4
??8?$_Tree_const_iterator@V?$_Tree_val@U?$_Tree_simple_types@U?$pair@$$CBKPAUSMobTable@CPythonNonPlayer@@@std@@@std@@@std@@@std@@QBE_NABV01@@Z PROC ; std::_Tree_const_iterator<std::_Tree_val<std::_Tree_simple_types<std::pair<unsigned long const ,CPythonNonPlayer::SMobTable *> > > >::operator==, COMDAT
; _this$ = ecx

; 227  :     _NODISCARD bool operator==(const _Tree_const_iterator& _Right) const noexcept {

  00000	55		 push	 ebp
  00001	8b ec		 mov	 ebp, esp

; 228  : #if _ITERATOR_DEBUG_LEVEL == 2
; 229  :         _STL_VERIFY(this->_Getcont() == _Right._Getcont(), "map/set iterators incompatible");
; 230  : #endif // _ITERATOR_DEBUG_LEVEL == 2
; 231  : 
; 232  :         return this->_Ptr == _Right._Ptr;

  00003	8b 45 08	 mov	 eax, DWORD PTR __Right$[ebp]
  00006	8b 09		 mov	 ecx, DWORD PTR [ecx]
  00008	3b 08		 cmp	 ecx, DWORD PTR [eax]
  0000a	0f 94 c0	 sete	 al

; 233  :     }

  0000d	5d		 pop	 ebp
  0000e	c2 04 00	 ret	 4
??8?$_Tree_const_iterator@V?$_Tree_val@U?$_Tree_simple_types@U?$pair@$$CBKPAUSMobTable@CPythonNonPlayer@@@std@@@std@@@std@@@std@@QBE_NABV01@@Z ENDP ; std::_Tree_const_iterator<std::_Tree_val<std::_Tree_simple_types<std::pair<unsigned long const ,CPythonNonPlayer::SMobTable *> > > >::operator==
_TEXT	ENDS
; Function compile flags: /Ogtp
; File C:\Program Files\Microsoft Visual Studio\2022\Community\VC\Tools\MSVC\14.44.35207\include\xtree
; File C:\Program Files\Microsoft Visual Studio\2022\Community\VC\Tools\MSVC\14.44.35207\include\type_traits
; File C:\Program Files\Microsoft Visual Studio\2022\Community\VC\Tools\MSVC\14.44.35207\include\xtree
;	COMDAT ?find@?$_Tree@V?$_Tmap_traits@KPAUSMobTable@CPythonNonPlayer@@U?$less@K@std@@V?$allocator@U?$pair@$$CBKPAUSMobTable@CPythonNonPlayer@@@std@@@4@$0A@@std@@@std@@QAE?AV?$_Tree_iterator@V?$_Tree_val@U?$_Tree_simple_types@U?$pair@$$CBKPAUSMobTable@CPythonNonPlayer@@@std@@@std@@@std@@@2@ABK@Z
_TEXT	SEGMENT
__Loc$1 = -12						; size = 12
___$ReturnUdt$ = 8					; size = 4
__Keyval$ = 12						; size = 4
?find@?$_Tree@V?$_Tmap_traits@KPAUSMobTable@CPythonNonPlayer@@U?$less@K@std@@V?$allocator@U?$pair@$$CBKPAUSMobTable@CPythonNonPlayer@@@std@@@4@$0A@@std@@@std@@QAE?AV?$_Tree_iterator@V?$_Tree_val@U?$_Tree_simple_types@U?$pair@$$CBKPAUSMobTable@CPythonNonPlayer@@@std@@@std@@@std@@@2@ABK@Z PROC ; std::_Tree<std::_Tmap_traits<unsigned long,CPythonNonPlayer::SMobTable *,std::less<unsigned long>,std::allocator<std::pair<unsigned long const ,CPythonNonPlayer::SMobTable *> >,0> >::find, COMDAT
; _this$ = ecx

; 1393 :     _NODISCARD iterator find(const key_type& _Keyval) {

  00000	55		 push	 ebp
  00001	8b ec		 mov	 ebp, esp
  00003	83 ec 0c	 sub	 esp, 12			; 0000000cH
  00006	56		 push	 esi

; 1384 :         const _Tree_find_result<_Nodeptr> _Loc = _Find_lower_bound(_Keyval);

  00007	8b 75 0c	 mov	 esi, DWORD PTR __Keyval$[ebp]
  0000a	8d 45 f4	 lea	 eax, DWORD PTR __Loc$1[ebp]

; 1393 :     _NODISCARD iterator find(const key_type& _Keyval) {

  0000d	57		 push	 edi

; 1384 :         const _Tree_find_result<_Nodeptr> _Loc = _Find_lower_bound(_Keyval);

  0000e	56		 push	 esi
  0000f	50		 push	 eax

; 1393 :     _NODISCARD iterator find(const key_type& _Keyval) {

  00010	8b f9		 mov	 edi, ecx

; 1384 :         const _Tree_find_result<_Nodeptr> _Loc = _Find_lower_bound(_Keyval);

  00012	e8 00 00 00 00	 call	 ??$_Find_lower_bound@K@?$_Tree@V?$_Tmap_traits@KPAUSMobTable@CPythonNonPlayer@@U?$less@K@std@@V?$allocator@U?$pair@$$CBKPAUSMobTable@CPythonNonPlayer@@@std@@@4@$0A@@std@@@std@@IBE?AU?$_Tree_find_result@PAU?$_Tree_node@U?$pair@$$CBKPAUSMobTable@CPythonNonPlayer@@@std@@PAX@std@@@1@ABK@Z ; std::_Tree<std::_Tmap_traits<unsigned long,CPythonNonPlayer::SMobTable *,std::less<unsigned long>,std::allocator<std::pair<unsigned long const ,CPythonNonPlayer::SMobTable *> >,0> >::_Find_lower_bound<unsigned long>

; 1624 :         return !_Bound->_Isnil && !_DEBUG_LT_PRED(_Getcomp(), _Keyval, _Traits::_Kfn(_Bound->_Myval));

  00017	8b 55 fc	 mov	 edx, DWORD PTR __Loc$1[ebp+8]
  0001a	80 7a 0d 00	 cmp	 BYTE PTR [edx+13], 0
  0001e	75 14		 jne	 SHORT $LN4@find
; File C:\Program Files\Microsoft Visual Studio\2022\Community\VC\Tools\MSVC\14.44.35207\include\type_traits

; 2380 :         return _Left < _Right;

  00020	8b 06		 mov	 eax, DWORD PTR [esi]
  00022	3b 42 10	 cmp	 eax, DWORD PTR [edx+16]
; File C:\Program Files\Microsoft Visual Studio\2022\Community\VC\Tools\MSVC\14.44.35207\include\xtree

; 1624 :         return !_Bound->_Isnil && !_DEBUG_LT_PRED(_Getcomp(), _Keyval, _Traits::_Kfn(_Bound->_Myval));

  00025	72 0d		 jb	 SHORT $LN4@find

; 37   :     _Tree_unchecked_const_iterator(_Nodeptr _Pnode, const _Mytree* _Plist) noexcept : _Ptr(_Pnode) {

  00027	8b 45 08	 mov	 eax, DWORD PTR ___$ReturnUdt$[ebp]
  0002a	5f		 pop	 edi

; 1394 :         return iterator(_Find(_Keyval), _Get_scary());
; 1395 :     }

  0002b	5e		 pop	 esi

; 37   :     _Tree_unchecked_const_iterator(_Nodeptr _Pnode, const _Mytree* _Plist) noexcept : _Ptr(_Pnode) {

  0002c	89 10		 mov	 DWORD PTR [eax], edx

; 1394 :         return iterator(_Find(_Keyval), _Get_scary());
; 1395 :     }

  0002e	8b e5		 mov	 esp, ebp
  00030	5d		 pop	 ebp
  00031	c2 08 00	 ret	 8
$LN4@find:

; 37   :     _Tree_unchecked_const_iterator(_Nodeptr _Pnode, const _Mytree* _Plist) noexcept : _Ptr(_Pnode) {

  00034	8b 45 08	 mov	 eax, DWORD PTR ___$ReturnUdt$[ebp]

; 1389 :         return _Get_scary()->_Myhead;

  00037	8b 0f		 mov	 ecx, DWORD PTR [edi]
  00039	5f		 pop	 edi

; 1394 :         return iterator(_Find(_Keyval), _Get_scary());
; 1395 :     }

  0003a	5e		 pop	 esi

; 37   :     _Tree_unchecked_const_iterator(_Nodeptr _Pnode, const _Mytree* _Plist) noexcept : _Ptr(_Pnode) {

  0003b	89 08		 mov	 DWORD PTR [eax], ecx

; 1394 :         return iterator(_Find(_Keyval), _Get_scary());
; 1395 :     }

  0003d	8b e5		 mov	 esp, ebp
  0003f	5d		 pop	 ebp
  00040	c2 08 00	 ret	 8
?find@?$_Tree@V?$_Tmap_traits@KPAUSMobTable@CPythonNonPlayer@@U?$less@K@std@@V?$allocator@U?$pair@$$CBKPAUSMobTable@CPythonNonPlayer@@@std@@@4@$0A@@std@@@std@@QAE?AV?$_Tree_iterator@V?$_Tree_val@U?$_Tree_simple_types@U?$pair@$$CBKPAUSMobTable@CPythonNonPlayer@@@std@@@std@@@std@@@2@ABK@Z ENDP ; std::_Tree<std::_Tmap_traits<unsigned long,CPythonNonPlayer::SMobTable *,std::less<unsigned long>,std::allocator<std::pair<unsigned long const ,CPythonNonPlayer::SMobTable *> >,0> >::find
_TEXT	ENDS
; Function compile flags: /Ogtp
; File C:\Program Files\Microsoft Visual Studio\2022\Community\VC\Tools\MSVC\14.44.35207\include\xtree
;	COMDAT ?clear@?$_Tree@V?$_Tmap_traits@KPAUSMobTable@CPythonNonPlayer@@U?$less@K@std@@V?$allocator@U?$pair@$$CBKPAUSMobTable@CPythonNonPlayer@@@std@@@4@$0A@@std@@@std@@QAEXXZ
_TEXT	SEGMENT
?clear@?$_Tree@V?$_Tmap_traits@KPAUSMobTable@CPythonNonPlayer@@U?$less@K@std@@V?$allocator@U?$pair@$$CBKPAUSMobTable@CPythonNonPlayer@@@std@@@4@$0A@@std@@@std@@QAEXXZ PROC ; std::_Tree<std::_Tmap_traits<unsigned long,CPythonNonPlayer::SMobTable *,std::less<unsigned long>,std::allocator<std::pair<unsigned long const ,CPythonNonPlayer::SMobTable *> >,0> >::clear, COMDAT
; _this$ = ecx

; 1370 :     void clear() noexcept {

  00000	56		 push	 esi
  00001	57		 push	 edi
  00002	8b f9		 mov	 edi, ecx

; 1371 :         const auto _Scary = _Get_scary();
; 1372 :         _Scary->_Orphan_ptr(nullptr);
; 1373 :         auto _Head = _Scary->_Myhead;

  00004	8b 37		 mov	 esi, DWORD PTR [edi]

; 1374 :         _Scary->_Erase_tree(_Getal(), _Head->_Parent);

  00006	ff 76 04	 push	 DWORD PTR [esi+4]
  00009	57		 push	 edi
  0000a	e8 00 00 00 00	 call	 ??$_Erase_tree@V?$allocator@U?$_Tree_node@U?$pair@$$CBKPAUSMobTable@CPythonNonPlayer@@@std@@PAX@std@@@std@@@?$_Tree_val@U?$_Tree_simple_types@U?$pair@$$CBKPAUSMobTable@CPythonNonPlayer@@@std@@@std@@@std@@QAEXAAV?$allocator@U?$_Tree_node@U?$pair@$$CBKPAUSMobTable@CPythonNonPlayer@@@std@@PAX@std@@@1@PAU?$_Tree_node@U?$pair@$$CBKPAUSMobTable@CPythonNonPlayer@@@std@@PAX@1@@Z ; std::_Tree_val<std::_Tree_simple_types<std::pair<unsigned long const ,CPythonNonPlayer::SMobTable *> > >::_Erase_tree<std::allocator<std::_Tree_node<std::pair<unsigned long const ,CPythonNonPlayer::SMobTable *>,void *> > >

; 1375 :         _Head->_Parent  = _Head;

  0000f	89 76 04	 mov	 DWORD PTR [esi+4], esi

; 1376 :         _Head->_Left    = _Head;

  00012	89 36		 mov	 DWORD PTR [esi], esi

; 1377 :         _Head->_Right   = _Head;

  00014	89 76 08	 mov	 DWORD PTR [esi+8], esi

; 1378 :         _Scary->_Mysize = 0;

  00017	c7 47 04 00 00
	00 00		 mov	 DWORD PTR [edi+4], 0
  0001e	5f		 pop	 edi
  0001f	5e		 pop	 esi

; 1379 :     }

  00020	c3		 ret	 0
?clear@?$_Tree@V?$_Tmap_traits@KPAUSMobTable@CPythonNonPlayer@@U?$less@K@std@@V?$allocator@U?$pair@$$CBKPAUSMobTable@CPythonNonPlayer@@@std@@@4@$0A@@std@@@std@@QAEXXZ ENDP ; std::_Tree<std::_Tmap_traits<unsigned long,CPythonNonPlayer::SMobTable *,std::less<unsigned long>,std::allocator<std::pair<unsigned long const ,CPythonNonPlayer::SMobTable *> >,0> >::clear
_TEXT	ENDS
; Function compile flags: /Ogtp
; File C:\Program Files\Microsoft Visual Studio\2022\Community\VC\Tools\MSVC\14.44.35207\include\xtree
;	COMDAT ?end@?$_Tree@V?$_Tmap_traits@KPAUSMobTable@CPythonNonPlayer@@U?$less@K@std@@V?$allocator@U?$pair@$$CBKPAUSMobTable@CPythonNonPlayer@@@std@@@4@$0A@@std@@@std@@QAE?AV?$_Tree_iterator@V?$_Tree_val@U?$_Tree_simple_types@U?$pair@$$CBKPAUSMobTable@CPythonNonPlayer@@@std@@@std@@@std@@@2@XZ
_TEXT	SEGMENT
___$ReturnUdt$ = 8					; size = 4
?end@?$_Tree@V?$_Tmap_traits@KPAUSMobTable@CPythonNonPlayer@@U?$less@K@std@@V?$allocator@U?$pair@$$CBKPAUSMobTable@CPythonNonPlayer@@@std@@@4@$0A@@std@@@std@@QAE?AV?$_Tree_iterator@V?$_Tree_val@U?$_Tree_simple_types@U?$pair@$$CBKPAUSMobTable@CPythonNonPlayer@@@std@@@std@@@std@@@2@XZ PROC ; std::_Tree<std::_Tmap_traits<unsigned long,CPythonNonPlayer::SMobTable *,std::less<unsigned long>,std::allocator<std::pair<unsigned long const ,CPythonNonPlayer::SMobTable *> >,0> >::end, COMDAT
; _this$ = ecx

; 1150 :     _NODISCARD iterator end() noexcept {

  00000	55		 push	 ebp
  00001	8b ec		 mov	 ebp, esp

; 37   :     _Tree_unchecked_const_iterator(_Nodeptr _Pnode, const _Mytree* _Plist) noexcept : _Ptr(_Pnode) {

  00003	8b 45 08	 mov	 eax, DWORD PTR ___$ReturnUdt$[ebp]
  00006	8b 09		 mov	 ecx, DWORD PTR [ecx]
  00008	89 08		 mov	 DWORD PTR [eax], ecx

; 1151 :         const auto _Scary = _Get_scary();
; 1152 :         return iterator(_Scary->_Myhead, _Scary);
; 1153 :     }

  0000a	5d		 pop	 ebp
  0000b	c2 04 00	 ret	 4
?end@?$_Tree@V?$_Tmap_traits@KPAUSMobTable@CPythonNonPlayer@@U?$less@K@std@@V?$allocator@U?$pair@$$CBKPAUSMobTable@CPythonNonPlayer@@@std@@@4@$0A@@std@@@std@@QAE?AV?$_Tree_iterator@V?$_Tree_val@U?$_Tree_simple_types@U?$pair@$$CBKPAUSMobTable@CPythonNonPlayer@@@std@@@std@@@std@@@2@XZ ENDP ; std::_Tree<std::_Tmap_traits<unsigned long,CPythonNonPlayer::SMobTable *,std::less<unsigned long>,std::allocator<std::pair<unsigned long const ,CPythonNonPlayer::SMobTable *> >,0> >::end
_TEXT	ENDS
; Function compile flags: /Ogtp
; File C:\Program Files\Microsoft Visual Studio\2022\Community\VC\Tools\MSVC\14.44.35207\include\xtree
;	COMDAT ?begin@?$_Tree@V?$_Tmap_traits@KPAUSMobTable@CPythonNonPlayer@@U?$less@K@std@@V?$allocator@U?$pair@$$CBKPAUSMobTable@CPythonNonPlayer@@@std@@@4@$0A@@std@@@std@@QAE?AV?$_Tree_iterator@V?$_Tree_val@U?$_Tree_simple_types@U?$pair@$$CBKPAUSMobTable@CPythonNonPlayer@@@std@@@std@@@std@@@2@XZ
_TEXT	SEGMENT
___$ReturnUdt$ = 8					; size = 4
?begin@?$_Tree@V?$_Tmap_traits@KPAUSMobTable@CPythonNonPlayer@@U?$less@K@std@@V?$allocator@U?$pair@$$CBKPAUSMobTable@CPythonNonPlayer@@@std@@@4@$0A@@std@@@std@@QAE?AV?$_Tree_iterator@V?$_Tree_val@U?$_Tree_simple_types@U?$pair@$$CBKPAUSMobTable@CPythonNonPlayer@@@std@@@std@@@std@@@2@XZ PROC ; std::_Tree<std::_Tmap_traits<unsigned long,CPythonNonPlayer::SMobTable *,std::less<unsigned long>,std::allocator<std::pair<unsigned long const ,CPythonNonPlayer::SMobTable *> >,0> >::begin, COMDAT
; _this$ = ecx

; 1140 :     _NODISCARD iterator begin() noexcept {

  00000	55		 push	 ebp
  00001	8b ec		 mov	 ebp, esp

; 1141 :         const auto _Scary = _Get_scary();
; 1142 :         return iterator(_Scary->_Myhead->_Left, _Scary);

  00003	8b 01		 mov	 eax, DWORD PTR [ecx]

; 37   :     _Tree_unchecked_const_iterator(_Nodeptr _Pnode, const _Mytree* _Plist) noexcept : _Ptr(_Pnode) {

  00005	8b 08		 mov	 ecx, DWORD PTR [eax]
  00007	8b 45 08	 mov	 eax, DWORD PTR ___$ReturnUdt$[ebp]
  0000a	89 08		 mov	 DWORD PTR [eax], ecx

; 1143 :     }

  0000c	5d		 pop	 ebp
  0000d	c2 04 00	 ret	 4
?begin@?$_Tree@V?$_Tmap_traits@KPAUSMobTable@CPythonNonPlayer@@U?$less@K@std@@V?$allocator@U?$pair@$$CBKPAUSMobTable@CPythonNonPlayer@@@std@@@4@$0A@@std@@@std@@QAE?AV?$_Tree_iterator@V?$_Tree_val@U?$_Tree_simple_types@U?$pair@$$CBKPAUSMobTable@CPythonNonPlayer@@@std@@@std@@@std@@@2@XZ ENDP ; std::_Tree<std::_Tmap_traits<unsigned long,CPythonNonPlayer::SMobTable *,std::less<unsigned long>,std::allocator<std::pair<unsigned long const ,CPythonNonPlayer::SMobTable *> >,0> >::begin
_TEXT	ENDS
; Function compile flags: /Ogtp
; File C:\Program Files\Microsoft Visual Studio\2022\Community\VC\Tools\MSVC\14.44.35207\include\xtree
; File C:\Program Files\Microsoft Visual Studio\2022\Community\VC\Tools\MSVC\14.44.35207\include\xmemory
; File C:\Program Files\Microsoft Visual Studio\2022\Community\VC\Tools\MSVC\14.44.35207\include\xtree
;	COMDAT ??1?$_Tree@V?$_Tmap_traits@KPAUSMobTable@CPythonNonPlayer@@U?$less@K@std@@V?$allocator@U?$pair@$$CBKPAUSMobTable@CPythonNonPlayer@@@std@@@4@$0A@@std@@@std@@QAE@XZ
_TEXT	SEGMENT
??1?$_Tree@V?$_Tmap_traits@KPAUSMobTable@CPythonNonPlayer@@U?$less@K@std@@V?$allocator@U?$pair@$$CBKPAUSMobTable@CPythonNonPlayer@@@std@@@4@$0A@@std@@@std@@QAE@XZ PROC ; std::_Tree<std::_Tmap_traits<unsigned long,CPythonNonPlayer::SMobTable *,std::less<unsigned long>,std::allocator<std::pair<unsigned long const ,CPythonNonPlayer::SMobTable *> >,0> >::~_Tree<std::_Tmap_traits<unsigned long,CPythonNonPlayer::SMobTable *,std::less<unsigned long>,std::allocator<std::pair<unsigned long const ,CPythonNonPlayer::SMobTable *> >,0> >, COMDAT
; _this$ = ecx

; 1095 :     ~_Tree() noexcept {

  00000	56		 push	 esi
  00001	8b f1		 mov	 esi, ecx

; 777  :         _Erase_tree(_Al, _Myhead->_Parent);

  00003	8b 06		 mov	 eax, DWORD PTR [esi]
  00005	ff 70 04	 push	 DWORD PTR [eax+4]
  00008	56		 push	 esi
  00009	e8 00 00 00 00	 call	 ??$_Erase_tree@V?$allocator@U?$_Tree_node@U?$pair@$$CBKPAUSMobTable@CPythonNonPlayer@@@std@@PAX@std@@@std@@@?$_Tree_val@U?$_Tree_simple_types@U?$pair@$$CBKPAUSMobTable@CPythonNonPlayer@@@std@@@std@@@std@@QAEXAAV?$allocator@U?$_Tree_node@U?$pair@$$CBKPAUSMobTable@CPythonNonPlayer@@@std@@PAX@std@@@1@PAU?$_Tree_node@U?$pair@$$CBKPAUSMobTable@CPythonNonPlayer@@@std@@PAX@1@@Z ; std::_Tree_val<std::_Tree_simple_types<std::pair<unsigned long const ,CPythonNonPlayer::SMobTable *> > >::_Erase_tree<std::allocator<std::_Tree_node<std::pair<unsigned long const ,CPythonNonPlayer::SMobTable *>,void *> > >
; File C:\Program Files\Microsoft Visual Studio\2022\Community\VC\Tools\MSVC\14.44.35207\include\xmemory

; 289  :         ::operator delete(_Ptr, _Bytes);

  0000e	6a 18		 push	 24			; 00000018H
  00010	ff 36		 push	 DWORD PTR [esi]
  00012	e8 00 00 00 00	 call	 ??3@YAXPAXI@Z		; operator delete
  00017	83 c4 08	 add	 esp, 8
  0001a	5e		 pop	 esi
; File C:\Program Files\Microsoft Visual Studio\2022\Community\VC\Tools\MSVC\14.44.35207\include\xtree

; 1102 :     }

  0001b	c3		 ret	 0
??1?$_Tree@V?$_Tmap_traits@KPAUSMobTable@CPythonNonPlayer@@U?$less@K@std@@V?$allocator@U?$pair@$$CBKPAUSMobTable@CPythonNonPlayer@@@std@@@4@$0A@@std@@@std@@QAE@XZ ENDP ; std::_Tree<std::_Tmap_traits<unsigned long,CPythonNonPlayer::SMobTable *,std::less<unsigned long>,std::allocator<std::pair<unsigned long const ,CPythonNonPlayer::SMobTable *> >,0> >::~_Tree<std::_Tmap_traits<unsigned long,CPythonNonPlayer::SMobTable *,std::less<unsigned long>,std::allocator<std::pair<unsigned long const ,CPythonNonPlayer::SMobTable *> >,0> >
_TEXT	ENDS
; Function compile flags: /Ogtp
; File C:\Program Files\Microsoft Visual Studio\2022\Community\VC\Tools\MSVC\14.44.35207\include\map
; File C:\Program Files\Microsoft Visual Studio\2022\Community\VC\Tools\MSVC\14.44.35207\include\xmemory
; File C:\Program Files\Microsoft Visual Studio\2022\Community\VC\Tools\MSVC\14.44.35207\include\map
; File C:\Program Files\Microsoft Visual Studio\2022\Community\VC\Tools\MSVC\14.44.35207\include\xtree
; File C:\Program Files\Microsoft Visual Studio\2022\Community\VC\Tools\MSVC\14.44.35207\include\xmemory
; File C:\Program Files\Microsoft Visual Studio\2022\Community\VC\Tools\MSVC\14.44.35207\include\xtree
; File C:\Program Files\Microsoft Visual Studio\2022\Community\VC\Tools\MSVC\14.44.35207\include\map
;	COMDAT ??0?$map@KPAUSMobTable@CPythonNonPlayer@@U?$less@K@std@@V?$allocator@U?$pair@$$CBKPAUSMobTable@CPythonNonPlayer@@@std@@@4@@std@@QAE@XZ
_TEXT	SEGMENT
_this$ = -4						; size = 4
??0?$map@KPAUSMobTable@CPythonNonPlayer@@U?$less@K@std@@V?$allocator@U?$pair@$$CBKPAUSMobTable@CPythonNonPlayer@@@std@@@4@@std@@QAE@XZ PROC ; std::map<unsigned long,CPythonNonPlayer::SMobTable *,std::less<unsigned long>,std::allocator<std::pair<unsigned long const ,CPythonNonPlayer::SMobTable *> > >::map<unsigned long,CPythonNonPlayer::SMobTable *,std::less<unsigned long>,std::allocator<std::pair<unsigned long const ,CPythonNonPlayer::SMobTable *> > >, COMDAT
; _this$ = ecx

; 106  :     map() : _Mybase(key_compare()) {}

  00000	55		 push	 ebp
  00001	8b ec		 mov	 ebp, esp
  00003	51		 push	 ecx
  00004	56		 push	 esi
  00005	8b f1		 mov	 esi, ecx
; File C:\Program Files\Microsoft Visual Studio\2022\Community\VC\Tools\MSVC\14.44.35207\include\xmemory

; 136  :         return ::operator new(_Bytes);

  00007	6a 18		 push	 24			; 00000018H
; File C:\Program Files\Microsoft Visual Studio\2022\Community\VC\Tools\MSVC\14.44.35207\include\map

; 106  :     map() : _Mybase(key_compare()) {}

  00009	89 75 fc	 mov	 DWORD PTR _this$[ebp], esi
; File C:\Program Files\Microsoft Visual Studio\2022\Community\VC\Tools\MSVC\14.44.35207\include\xtree

; 450  :     _Tree_val() noexcept : _Myhead(), _Mysize(0) {}

  0000c	c7 06 00 00 00
	00		 mov	 DWORD PTR [esi], 0
  00012	c7 46 04 00 00
	00 00		 mov	 DWORD PTR [esi+4], 0
; File C:\Program Files\Microsoft Visual Studio\2022\Community\VC\Tools\MSVC\14.44.35207\include\xmemory

; 136  :         return ::operator new(_Bytes);

  00019	e8 00 00 00 00	 call	 ??2@YAPAXI@Z		; operator new
  0001e	83 c4 04	 add	 esp, 4
; File C:\Program Files\Microsoft Visual Studio\2022\Community\VC\Tools\MSVC\14.44.35207\include\xtree

; 346  :         _Construct_in_place(_Pnode->_Left, _Pnode);

  00021	89 00		 mov	 DWORD PTR [eax], eax

; 347  :         _Construct_in_place(_Pnode->_Parent, _Pnode);

  00023	89 40 04	 mov	 DWORD PTR [eax+4], eax

; 348  :         _Construct_in_place(_Pnode->_Right, _Pnode);

  00026	89 40 08	 mov	 DWORD PTR [eax+8], eax

; 349  :         _Pnode->_Color = _Black;

  00029	66 c7 40 0c 01
	01		 mov	 WORD PTR [eax+12], 257	; 00000101H

; 1957 :         _Scary->_Myhead = _Node::_Buyheadnode(_Getal());

  0002f	89 06		 mov	 DWORD PTR [esi], eax
; File C:\Program Files\Microsoft Visual Studio\2022\Community\VC\Tools\MSVC\14.44.35207\include\map

; 106  :     map() : _Mybase(key_compare()) {}

  00031	8b c6		 mov	 eax, esi
  00033	5e		 pop	 esi
  00034	8b e5		 mov	 esp, ebp
  00036	5d		 pop	 ebp
  00037	c3		 ret	 0
??0?$map@KPAUSMobTable@CPythonNonPlayer@@U?$less@K@std@@V?$allocator@U?$pair@$$CBKPAUSMobTable@CPythonNonPlayer@@@std@@@4@@std@@QAE@XZ ENDP ; std::map<unsigned long,CPythonNonPlayer::SMobTable *,std::less<unsigned long>,std::allocator<std::pair<unsigned long const ,CPythonNonPlayer::SMobTable *> > >::map<unsigned long,CPythonNonPlayer::SMobTable *,std::less<unsigned long>,std::allocator<std::pair<unsigned long const ,CPythonNonPlayer::SMobTable *> > >
_TEXT	ENDS
; Function compile flags: /Ogtp
; File D:\_m2work\txoko-m2-work\txoko-client-src\source\eterBase\Singleton.h
;	COMDAT ??1?$CSingleton@VCPythonNonPlayer@@@@UAE@XZ
_TEXT	SEGMENT
??1?$CSingleton@VCPythonNonPlayer@@@@UAE@XZ PROC	; CSingleton<CPythonNonPlayer>::~CSingleton<CPythonNonPlayer>, COMDAT
; _this$ = ecx

; 19   : 	{ 

  00000	c7 01 00 00 00
	00		 mov	 DWORD PTR [ecx], OFFSET ??_7?$CSingleton@VCPythonNonPlayer@@@@6B@

; 20   : 		assert(ms_singleton);
; 21   : 		ms_singleton = 0; 

  00006	c7 05 00 00 00
	00 00 00 00 00	 mov	 DWORD PTR ?ms_singleton@?$CSingleton@VCPythonNonPlayer@@@@0PAVCPythonNonPlayer@@A, 0 ; CSingleton<CPythonNonPlayer>::ms_singleton

; 22   : 	}

  00010	c3		 ret	 0
??1?$CSingleton@VCPythonNonPlayer@@@@UAE@XZ ENDP	; CSingleton<CPythonNonPlayer>::~CSingleton<CPythonNonPlayer>
_TEXT	ENDS
; Function compile flags: /Ogtp
; File D:\_m2work\txoko-m2-work\txoko-client-src\source\eterBase\Singleton.h
;	COMDAT ??0?$CSingleton@VCPythonNonPlayer@@@@QAE@XZ
_TEXT	SEGMENT
??0?$CSingleton@VCPythonNonPlayer@@@@QAE@XZ PROC	; CSingleton<CPythonNonPlayer>::CSingleton<CPythonNonPlayer>, COMDAT
; _this$ = ecx

; 12   : 	{ 

  00000	c7 01 00 00 00
	00		 mov	 DWORD PTR [ecx], OFFSET ??_7?$CSingleton@VCPythonNonPlayer@@@@6B@

; 13   : 		assert(!ms_singleton);
; 14   : 		int offset = (int) (T*) 1 - (int) (CSingleton <T>*) (T*) 1; 
; 15   : 		ms_singleton = (T*) ((int) this + offset);
; 16   : 	} 

  00006	8b c1		 mov	 eax, ecx
  00008	89 0d 00 00 00
	00		 mov	 DWORD PTR ?ms_singleton@?$CSingleton@VCPythonNonPlayer@@@@0PAVCPythonNonPlayer@@A, ecx ; CSingleton<CPythonNonPlayer>::ms_singleton
  0000e	c3		 ret	 0
??0?$CSingleton@VCPythonNonPlayer@@@@QAE@XZ ENDP	; CSingleton<CPythonNonPlayer>::CSingleton<CPythonNonPlayer>
_TEXT	ENDS
; Function compile flags: /Ogtp
; File C:\Program Files\Microsoft Visual Studio\2022\Community\VC\Tools\MSVC\14.44.35207\include\xtree
;	COMDAT ??0?$_Tree_iterator@V?$_Tree_val@U?$_Tree_simple_types@U?$pair@$$CBKPAUSMobTable@CPythonNonPlayer@@@std@@@std@@@std@@@std@@QAE@PAU?$_Tree_node@U?$pair@$$CBKPAUSMobTable@CPythonNonPlayer@@@std@@PAX@1@PBV?$_Tree_val@U?$_Tree_simple_types@U?$pair@$$CBKPAUSMobTable@CPythonNonPlayer@@@std@@@std@@@1@@Z
_TEXT	SEGMENT
___param0$ = 8						; size = 4
___param1$dead$ = 12					; size = 4
??0?$_Tree_iterator@V?$_Tree_val@U?$_Tree_simple_types@U?$pair@$$CBKPAUSMobTable@CPythonNonPlayer@@@std@@@std@@@std@@@std@@QAE@PAU?$_Tree_node@U?$pair@$$CBKPAUSMobTable@CPythonNonPlayer@@@std@@PAX@1@PBV?$_Tree_val@U?$_Tree_simple_types@U?$pair@$$CBKPAUSMobTable@CPythonNonPlayer@@@std@@@std@@@1@@Z PROC ; std::_Tree_iterator<std::_Tree_val<std::_Tree_simple_types<std::pair<unsigned long const ,CPythonNonPlayer::SMobTable *> > > >::_Tree_iterator<std::_Tree_val<std::_Tree_simple_types<std::pair<unsigned long const ,CPythonNonPlayer::SMobTable *> > > >, COMDAT
; _this$ = ecx
  00000	55		 push	 ebp
  00001	8b ec		 mov	 ebp, esp

; 37   :     _Tree_unchecked_const_iterator(_Nodeptr _Pnode, const _Mytree* _Plist) noexcept : _Ptr(_Pnode) {

  00003	8b 45 08	 mov	 eax, DWORD PTR ___param0$[ebp]
  00006	89 01		 mov	 DWORD PTR [ecx], eax
  00008	8b c1		 mov	 eax, ecx
  0000a	5d		 pop	 ebp
  0000b	c2 08 00	 ret	 8
??0?$_Tree_iterator@V?$_Tree_val@U?$_Tree_simple_types@U?$pair@$$CBKPAUSMobTable@CPythonNonPlayer@@@std@@@std@@@std@@@std@@QAE@PAU?$_Tree_node@U?$pair@$$CBKPAUSMobTable@CPythonNonPlayer@@@std@@PAX@1@PBV?$_Tree_val@U?$_Tree_simple_types@U?$pair@$$CBKPAUSMobTable@CPythonNonPlayer@@@std@@@std@@@1@@Z ENDP ; std::_Tree_iterator<std::_Tree_val<std::_Tree_simple_types<std::pair<unsigned long const ,CPythonNonPlayer::SMobTable *> > > >::_Tree_iterator<std::_Tree_val<std::_Tree_simple_types<std::pair<unsigned long const ,CPythonNonPlayer::SMobTable *> > > >
_TEXT	ENDS
; Function compile flags: /Ogtp
; File D:\_m2work\txoko-m2-work\txoko-client-src\source\eterBase\Singleton.h
;	COMDAT ??_G?$CSingleton@VCPythonNonPlayer@@@@UAEPAXI@Z
_TEXT	SEGMENT
___flags$ = 8						; size = 4
??_G?$CSingleton@VCPythonNonPlayer@@@@UAEPAXI@Z PROC	; CSingleton<CPythonNonPlayer>::`scalar deleting destructor', COMDAT
; _this$ = ecx
  00000	55		 push	 ebp
  00001	8b ec		 mov	 ebp, esp
  00003	f6 45 08 01	 test	 BYTE PTR ___flags$[ebp], 1

; 19   : 	{ 

  00007	56		 push	 esi
  00008	8b f1		 mov	 esi, ecx

; 20   : 		assert(ms_singleton);
; 21   : 		ms_singleton = 0; 

  0000a	c7 05 00 00 00
	00 00 00 00 00	 mov	 DWORD PTR ?ms_singleton@?$CSingleton@VCPythonNonPlayer@@@@0PAVCPythonNonPlayer@@A, 0 ; CSingleton<CPythonNonPlayer>::ms_singleton
  00014	c7 06 00 00 00
	00		 mov	 DWORD PTR [esi], OFFSET ??_7?$CSingleton@VCPythonNonPlayer@@@@6B@
  0001a	74 0b		 je	 SHORT $LN8@scalar
  0001c	6a 04		 push	 4
  0001e	56		 push	 esi
  0001f	e8 00 00 00 00	 call	 ??3@YAXPAXI@Z		; operator delete
  00024	83 c4 08	 add	 esp, 8
$LN8@scalar:
  00027	8b c6		 mov	 eax, esi
  00029	5e		 pop	 esi
  0002a	5d		 pop	 ebp
  0002b	c2 04 00	 ret	 4
??_G?$CSingleton@VCPythonNonPlayer@@@@UAEPAXI@Z ENDP	; CSingleton<CPythonNonPlayer>::`scalar deleting destructor'
_TEXT	ENDS
; Function compile flags: /Ogtp
; File C:\Program Files\Microsoft Visual Studio\2022\Community\VC\Tools\MSVC\14.44.35207\include\xtree
;	COMDAT ??0?$_Tree_const_iterator@V?$_Tree_val@U?$_Tree_simple_types@U?$pair@$$CBKPAUSMobTable@CPythonNonPlayer@@@std@@@std@@@std@@@std@@QAE@PAU?$_Tree_node@U?$pair@$$CBKPAUSMobTable@CPythonNonPlayer@@@std@@PAX@1@PBV?$_Tree_val@U?$_Tree_simple_types@U?$pair@$$CBKPAUSMobTable@CPythonNonPlayer@@@std@@@std@@@1@@Z
_TEXT	SEGMENT
___param0$ = 8						; size = 4
___param1$dead$ = 12					; size = 4
??0?$_Tree_const_iterator@V?$_Tree_val@U?$_Tree_simple_types@U?$pair@$$CBKPAUSMobTable@CPythonNonPlayer@@@std@@@std@@@std@@@std@@QAE@PAU?$_Tree_node@U?$pair@$$CBKPAUSMobTable@CPythonNonPlayer@@@std@@PAX@1@PBV?$_Tree_val@U?$_Tree_simple_types@U?$pair@$$CBKPAUSMobTable@CPythonNonPlayer@@@std@@@std@@@1@@Z PROC ; std::_Tree_const_iterator<std::_Tree_val<std::_Tree_simple_types<std::pair<unsigned long const ,CPythonNonPlayer::SMobTable *> > > >::_Tree_const_iterator<std::_Tree_val<std::_Tree_simple_types<std::pair<unsigned long const ,CPythonNonPlayer::SMobTable *> > > >, COMDAT
; _this$ = ecx
  00000	55		 push	 ebp
  00001	8b ec		 mov	 ebp, esp

; 37   :     _Tree_unchecked_const_iterator(_Nodeptr _Pnode, const _Mytree* _Plist) noexcept : _Ptr(_Pnode) {

  00003	8b 45 08	 mov	 eax, DWORD PTR ___param0$[ebp]
  00006	89 01		 mov	 DWORD PTR [ecx], eax
  00008	8b c1		 mov	 eax, ecx
  0000a	5d		 pop	 ebp
  0000b	c2 08 00	 ret	 8
??0?$_Tree_const_iterator@V?$_Tree_val@U?$_Tree_simple_types@U?$pair@$$CBKPAUSMobTable@CPythonNonPlayer@@@std@@@std@@@std@@@std@@QAE@PAU?$_Tree_node@U?$pair@$$CBKPAUSMobTable@CPythonNonPlayer@@@std@@PAX@1@PBV?$_Tree_val@U?$_Tree_simple_types@U?$pair@$$CBKPAUSMobTable@CPythonNonPlayer@@@std@@@std@@@1@@Z ENDP ; std::_Tree_const_iterator<std::_Tree_val<std::_Tree_simple_types<std::pair<unsigned long const ,CPythonNonPlayer::SMobTable *> > > >::_Tree_const_iterator<std::_Tree_val<std::_Tree_simple_types<std::pair<unsigned long const ,CPythonNonPlayer::SMobTable *> > > >
_TEXT	ENDS
; Function compile flags: /Ogtp
; File C:\Program Files\Microsoft Visual Studio\2022\Community\VC\Tools\MSVC\14.44.35207\include\type_traits
;	COMDAT ??$forward@AAPAUSMobTable@CPythonNonPlayer@@@std@@YAAAPAUSMobTable@CPythonNonPlayer@@AAPAU12@@Z
_TEXT	SEGMENT
??$forward@AAPAUSMobTable@CPythonNonPlayer@@@std@@YAAAPAUSMobTable@CPythonNonPlayer@@AAPAU12@@Z PROC ; std::forward<CPythonNonPlayer::SMobTable * &>, COMDAT
; __Arg$ = ecx

; 1502 :     return static_cast<_Ty&&>(_Arg);

  00000	8b c1		 mov	 eax, ecx

; 1503 : }

  00002	c3		 ret	 0
??$forward@AAPAUSMobTable@CPythonNonPlayer@@@std@@YAAAPAUSMobTable@CPythonNonPlayer@@AAPAU12@@Z ENDP ; std::forward<CPythonNonPlayer::SMobTable * &>
_TEXT	ENDS
; Function compile flags: /Ogtp
; File C:\Program Files\Microsoft Visual Studio\2022\Community\VC\Tools\MSVC\14.44.35207\include\type_traits
;	COMDAT ??$move@AAU?$pair@$$CBKPAUSMobTable@CPythonNonPlayer@@@std@@@std@@YA$$QAU?$pair@$$CBKPAUSMobTable@CPythonNonPlayer@@@0@AAU10@@Z
_TEXT	SEGMENT
??$move@AAU?$pair@$$CBKPAUSMobTable@CPythonNonPlayer@@@std@@@std@@YA$$QAU?$pair@$$CBKPAUSMobTable@CPythonNonPlayer@@@0@AAU10@@Z PROC ; std::move<std::pair<unsigned long const ,CPythonNonPlayer::SMobTable *> &>, COMDAT
; __Arg$ = ecx

; 1513 :     return static_cast<remove_reference_t<_Ty>&&>(_Arg);

  00000	8b c1		 mov	 eax, ecx

; 1514 : }

  00002	c3		 ret	 0
??$move@AAU?$pair@$$CBKPAUSMobTable@CPythonNonPlayer@@@std@@@std@@YA$$QAU?$pair@$$CBKPAUSMobTable@CPythonNonPlayer@@@0@AAU10@@Z ENDP ; std::move<std::pair<unsigned long const ,CPythonNonPlayer::SMobTable *> &>
_TEXT	ENDS
; Function compile flags: /Ogtp
; File C:\Program Files\Microsoft Visual Studio\2022\Community\VC\Tools\MSVC\14.44.35207\include\xtree
; File C:\Program Files\Microsoft Visual Studio\2022\Community\VC\Tools\MSVC\14.44.35207\include\type_traits
; File C:\Program Files\Microsoft Visual Studio\2022\Community\VC\Tools\MSVC\14.44.35207\include\xtree
; File C:\Program Files\Microsoft Visual Studio\2022\Community\VC\Tools\MSVC\14.44.35207\include\utility
; File C:\Program Files\Microsoft Visual Studio\2022\Community\VC\Tools\MSVC\14.44.35207\include\xtree
; File C:\Program Files\Microsoft Visual Studio\2022\Community\VC\Tools\MSVC\14.44.35207\include\xmemory
; File C:\Program Files\Microsoft Visual Studio\2022\Community\VC\Tools\MSVC\14.44.35207\include\xtree
; File C:\Program Files\Microsoft Visual Studio\2022\Community\VC\Tools\MSVC\14.44.35207\include\xmemory
; File C:\Program Files\Microsoft Visual Studio\2022\Community\VC\Tools\MSVC\14.44.35207\include\xtree
; File C:\Program Files\Microsoft Visual Studio\2022\Community\VC\Tools\MSVC\14.44.35207\include\xmemory
; File C:\Program Files\Microsoft Visual Studio\2022\Community\VC\Tools\MSVC\14.44.35207\include\xtree
; File C:\Program Files\Microsoft Visual Studio\2022\Community\VC\Tools\MSVC\14.44.35207\include\utility
; File C:\Program Files\Microsoft Visual Studio\2022\Community\VC\Tools\MSVC\14.44.35207\include\xtree
; File C:\Program Files\Microsoft Visual Studio\2022\Community\VC\Tools\MSVC\14.44.35207\include\utility
; File C:\Program Files\Microsoft Visual Studio\2022\Community\VC\Tools\MSVC\14.44.35207\include\xtree
;	COMDAT ??$_Emplace@U?$pair@$$CBKPAUSMobTable@CPythonNonPlayer@@@std@@@?$_Tree@V?$_Tmap_traits@KPAUSMobTable@CPythonNonPlayer@@U?$less@K@std@@V?$allocator@U?$pair@$$CBKPAUSMobTable@CPythonNonPlayer@@@std@@@4@$0A@@std@@@std@@IAE?AU?$pair@PAU?$_Tree_node@U?$pair@$$CBKPAUSMobTable@CPythonNonPlayer@@@std@@PAX@std@@_N@1@$$QAU?$pair@$$CBKPAUSMobTable@CPythonNonPlayer@@@1@@Z
_TEXT	SEGMENT
__Loc$ = -36						; size = 12
$T2 = -24						; size = 12
$T3 = -20						; size = 8
__$EHRec$ = -12						; size = 12
___$ReturnUdt$ = 8					; size = 4
_<_Vals_0>$ = 12					; size = 4
??$_Emplace@U?$pair@$$CBKPAUSMobTable@CPythonNonPlayer@@@std@@@?$_Tree@V?$_Tmap_traits@KPAUSMobTable@CPythonNonPlayer@@U?$less@K@std@@V?$allocator@U?$pair@$$CBKPAUSMobTable@CPythonNonPlayer@@@std@@@4@$0A@@std@@@std@@IAE?AU?$pair@PAU?$_Tree_node@U?$pair@$$CBKPAUSMobTable@CPythonNonPlayer@@@std@@PAX@std@@_N@1@$$QAU?$pair@$$CBKPAUSMobTable@CPythonNonPlayer@@@1@@Z PROC ; std::_Tree<std::_Tmap_traits<unsigned long,CPythonNonPlayer::SMobTable *,std::less<unsigned long>,std::allocator<std::pair<unsigned long const ,CPythonNonPlayer::SMobTable *> >,0> >::_Emplace<std::pair<unsigned long const ,CPythonNonPlayer::SMobTable *> >, COMDAT
; _this$ = ecx

; 1010 :     pair<_Nodeptr, bool> _Emplace(_Valtys&&... _Vals) {

  00000	55		 push	 ebp
  00001	8b ec		 mov	 ebp, esp
  00003	6a ff		 push	 -1
  00005	68 00 00 00 00	 push	 __ehhandler$??$_Emplace@U?$pair@$$CBKPAUSMobTable@CPythonNonPlayer@@@std@@@?$_Tree@V?$_Tmap_traits@KPAUSMobTable@CPythonNonPlayer@@U?$less@K@std@@V?$allocator@U?$pair@$$CBKPAUSMobTable@CPythonNonPlayer@@@std@@@4@$0A@@std@@@std@@IAE?AU?$pair@PAU?$_Tree_node@U?$pair@$$CBKPAUSMobTable@CPythonNonPlayer@@@std@@PAX@std@@_N@1@$$QAU?$pair@$$CBKPAUSMobTable@CPythonNonPlayer@@@1@@Z
  0000a	64 a1 00 00 00
	00		 mov	 eax, DWORD PTR fs:0
  00010	50		 push	 eax
  00011	83 ec 1c	 sub	 esp, 28			; 0000001cH
  00014	53		 push	 ebx
  00015	56		 push	 esi
  00016	57		 push	 edi
  00017	a1 00 00 00 00	 mov	 eax, DWORD PTR ___security_cookie
  0001c	33 c5		 xor	 eax, ebp
  0001e	50		 push	 eax
  0001f	8d 45 f4	 lea	 eax, DWORD PTR __$EHRec$[ebp]
  00022	64 a3 00 00 00
	00		 mov	 DWORD PTR fs:0, eax
  00028	8b f9		 mov	 edi, ecx

; 1011 :         using _In_place_key_extractor = typename _Traits::template _In_place_key_extractor<_Valtys...>;
; 1012 :         const auto _Scary             = _Get_scary();
; 1013 :         _Tree_find_result<_Nodeptr> _Loc;
; 1014 :         _Nodeptr _Inserted;
; 1015 :         if constexpr (!_Multi && _In_place_key_extractor::_Extractable) {
; 1016 :             const auto& _Keyval = _In_place_key_extractor::_Extract(_Vals...);
; 1017 :             _Loc                = _Find_lower_bound(_Keyval);

  0002a	8b 5d 0c	 mov	 ebx, DWORD PTR _<_Vals_0>$[ebp]
  0002d	8d 45 e8	 lea	 eax, DWORD PTR $T2[ebp]
  00030	53		 push	 ebx
  00031	50		 push	 eax
  00032	e8 00 00 00 00	 call	 ??$_Find_lower_bound@K@?$_Tree@V?$_Tmap_traits@KPAUSMobTable@CPythonNonPlayer@@U?$less@K@std@@V?$allocator@U?$pair@$$CBKPAUSMobTable@CPythonNonPlayer@@@std@@@4@$0A@@std@@@std@@IBE?AU?$_Tree_find_result@PAU?$_Tree_node@U?$pair@$$CBKPAUSMobTable@CPythonNonPlayer@@@std@@PAX@std@@@1@ABK@Z ; std::_Tree<std::_Tmap_traits<unsigned long,CPythonNonPlayer::SMobTable *,std::less<unsigned long>,std::allocator<std::pair<unsigned long const ,CPythonNonPlayer::SMobTable *> >,0> >::_Find_lower_bound<unsigned long>
  00037	8b 48 08	 mov	 ecx, DWORD PTR [eax+8]
  0003a	f3 0f 7e 00	 movq	 xmm0, QWORD PTR [eax]
  0003e	66 0f d6 45 dc	 movq	 QWORD PTR __Loc$[ebp], xmm0

; 1624 :         return !_Bound->_Isnil && !_DEBUG_LT_PRED(_Getcomp(), _Keyval, _Traits::_Kfn(_Bound->_Myval));

  00043	80 79 0d 00	 cmp	 BYTE PTR [ecx+13], 0
  00047	75 24		 jne	 SHORT $LN2@Emplace
; File C:\Program Files\Microsoft Visual Studio\2022\Community\VC\Tools\MSVC\14.44.35207\include\type_traits

; 2380 :         return _Left < _Right;

  00049	8b 03		 mov	 eax, DWORD PTR [ebx]
  0004b	3b 41 10	 cmp	 eax, DWORD PTR [ecx+16]
; File C:\Program Files\Microsoft Visual Studio\2022\Community\VC\Tools\MSVC\14.44.35207\include\xtree

; 1624 :         return !_Bound->_Isnil && !_DEBUG_LT_PRED(_Getcomp(), _Keyval, _Traits::_Kfn(_Bound->_Myval));

  0004e	72 1d		 jb	 SHORT $LN2@Emplace
; File C:\Program Files\Microsoft Visual Studio\2022\Community\VC\Tools\MSVC\14.44.35207\include\utility

; 274  :         : first(_STD forward<_Other1>(_Val1)), second(_STD forward<_Other2>(_Val2)) {

  00050	8b 45 08	 mov	 eax, DWORD PTR ___$ReturnUdt$[ebp]
  00053	89 08		 mov	 DWORD PTR [eax], ecx
  00055	c6 40 04 00	 mov	 BYTE PTR [eax+4], 0
; File C:\Program Files\Microsoft Visual Studio\2022\Community\VC\Tools\MSVC\14.44.35207\include\xtree

; 1043 :     }

  00059	8b 4d f4	 mov	 ecx, DWORD PTR __$EHRec$[ebp]
  0005c	64 89 0d 00 00
	00 00		 mov	 DWORD PTR fs:0, ecx
  00063	59		 pop	 ecx
  00064	5f		 pop	 edi
  00065	5e		 pop	 esi
  00066	5b		 pop	 ebx
  00067	8b e5		 mov	 esp, ebp
  00069	5d		 pop	 ebp
  0006a	c2 08 00	 ret	 8
$LN2@Emplace:

; 1648 :         if (max_size() == _Get_scary()->_Mysize) {

  0006d	81 7f 04 aa aa
	aa 0a		 cmp	 DWORD PTR [edi+4], 178956970 ; 0aaaaaaaH
  00074	74 63		 je	 SHORT $LN92@Emplace

; 1018 :             if (_Lower_bound_duplicate(_Loc._Bound, _Keyval)) {
; 1019 :                 return {_Loc._Bound, false};
; 1020 :             }
; 1021 : 
; 1022 :             _Check_grow_by_1();
; 1023 :             _Inserted = _Tree_temp_node<_Alnode>(_Getal(), _Scary->_Myhead, _STD forward<_Valtys>(_Vals)...)._Release();

  00076	8b 37		 mov	 esi, DWORD PTR [edi]
; File C:\Program Files\Microsoft Visual Studio\2022\Community\VC\Tools\MSVC\14.44.35207\include\xmemory

; 1160 :     _CONSTEXPR20 explicit _Alloc_construct_ptr(_Alloc& _Al_) : _Al(_Al_), _Ptr(nullptr) {}

  00078	89 7d ec	 mov	 DWORD PTR $T3[ebp], edi
; File C:\Program Files\Microsoft Visual Studio\2022\Community\VC\Tools\MSVC\14.44.35207\include\xtree

; 808  :     explicit _Tree_temp_node_alloc(_Alnode& _Al_) : _Alloc_construct_ptr<_Alnode>(_Al_) {

  0007b	c7 45 fc 00 00
	00 00		 mov	 DWORD PTR __$EHRec$[ebp+8], 0
; File C:\Program Files\Microsoft Visual Studio\2022\Community\VC\Tools\MSVC\14.44.35207\include\xmemory

; 136  :         return ::operator new(_Bytes);

  00082	6a 18		 push	 24			; 00000018H

; 1167 :         _Ptr = nullptr; // if allocate throws, prevents double-free

  00084	c7 45 f0 00 00
	00 00		 mov	 DWORD PTR $T3[ebp+4], 0

; 136  :         return ::operator new(_Bytes);

  0008b	e8 00 00 00 00	 call	 ??2@YAPAXI@Z		; operator new
; File C:\Program Files\Microsoft Visual Studio\2022\Community\VC\Tools\MSVC\14.44.35207\include\xtree

; 830  :         _Alnode_traits::construct(this->_Al, _STD addressof(this->_Ptr->_Myval), _STD forward<_Valtys>(_Vals)...);

  00090	8b 0b		 mov	 ecx, DWORD PTR [ebx]
; File C:\Program Files\Microsoft Visual Studio\2022\Community\VC\Tools\MSVC\14.44.35207\include\xmemory

; 136  :         return ::operator new(_Bytes);

  00092	83 c4 04	 add	 esp, 4
; File C:\Program Files\Microsoft Visual Studio\2022\Community\VC\Tools\MSVC\14.44.35207\include\xtree

; 830  :         _Alnode_traits::construct(this->_Al, _STD addressof(this->_Ptr->_Myval), _STD forward<_Valtys>(_Vals)...);

  00095	8b 53 04	 mov	 edx, DWORD PTR [ebx+4]
  00098	89 48 10	 mov	 DWORD PTR [eax+16], ecx

; 1042 :         return {_Scary->_Insert_node(_Loc._Location, _Inserted), true};

  0009b	8b cf		 mov	 ecx, edi
  0009d	50		 push	 eax
  0009e	ff 75 e0	 push	 DWORD PTR __Loc$[ebp+4]

; 830  :         _Alnode_traits::construct(this->_Al, _STD addressof(this->_Ptr->_Myval), _STD forward<_Valtys>(_Vals)...);

  000a1	89 50 14	 mov	 DWORD PTR [eax+20], edx

; 1042 :         return {_Scary->_Insert_node(_Loc._Location, _Inserted), true};

  000a4	ff 75 dc	 push	 DWORD PTR __Loc$[ebp]

; 831  :         _Construct_in_place(this->_Ptr->_Left, _Myhead);

  000a7	89 30		 mov	 DWORD PTR [eax], esi

; 832  :         _Construct_in_place(this->_Ptr->_Parent, _Myhead);

  000a9	89 70 04	 mov	 DWORD PTR [eax+4], esi

; 833  :         _Construct_in_place(this->_Ptr->_Right, _Myhead);

  000ac	89 70 08	 mov	 DWORD PTR [eax+8], esi

; 834  :         this->_Ptr->_Color = _Red;

  000af	66 c7 40 0c 00
	00		 mov	 WORD PTR [eax+12], 0

; 1042 :         return {_Scary->_Insert_node(_Loc._Location, _Inserted), true};

  000b5	e8 00 00 00 00	 call	 ?_Insert_node@?$_Tree_val@U?$_Tree_simple_types@U?$pair@$$CBKPAUSMobTable@CPythonNonPlayer@@@std@@@std@@@std@@QAEPAU?$_Tree_node@U?$pair@$$CBKPAUSMobTable@CPythonNonPlayer@@@std@@PAX@2@U?$_Tree_id@PAU?$_Tree_node@U?$pair@$$CBKPAUSMobTable@CPythonNonPlayer@@@std@@PAX@std@@@2@QAU32@@Z ; std::_Tree_val<std::_Tree_simple_types<std::pair<unsigned long const ,CPythonNonPlayer::SMobTable *> > >::_Insert_node
; File C:\Program Files\Microsoft Visual Studio\2022\Community\VC\Tools\MSVC\14.44.35207\include\utility

; 274  :         : first(_STD forward<_Other1>(_Val1)), second(_STD forward<_Other2>(_Val2)) {

  000ba	8b 4d 08	 mov	 ecx, DWORD PTR ___$ReturnUdt$[ebp]
  000bd	89 01		 mov	 DWORD PTR [ecx], eax
; File C:\Program Files\Microsoft Visual Studio\2022\Community\VC\Tools\MSVC\14.44.35207\include\xtree

; 1042 :         return {_Scary->_Insert_node(_Loc._Location, _Inserted), true};

  000bf	8b c1		 mov	 eax, ecx
; File C:\Program Files\Microsoft Visual Studio\2022\Community\VC\Tools\MSVC\14.44.35207\include\utility

; 274  :         : first(_STD forward<_Other1>(_Val1)), second(_STD forward<_Other2>(_Val2)) {

  000c1	c6 41 04 01	 mov	 BYTE PTR [ecx+4], 1
; File C:\Program Files\Microsoft Visual Studio\2022\Community\VC\Tools\MSVC\14.44.35207\include\xtree

; 1043 :     }

  000c5	8b 4d f4	 mov	 ecx, DWORD PTR __$EHRec$[ebp]
  000c8	64 89 0d 00 00
	00 00		 mov	 DWORD PTR fs:0, ecx
  000cf	59		 pop	 ecx
  000d0	5f		 pop	 edi
  000d1	5e		 pop	 esi
  000d2	5b		 pop	 ebx
  000d3	8b e5		 mov	 esp, ebp
  000d5	5d		 pop	 ebp
  000d6	c2 08 00	 ret	 8
$LN92@Emplace:

; 1649 :             _Throw_tree_length_error();

  000d9	e8 00 00 00 00	 call	 ?_Throw_tree_length_error@std@@YAXXZ ; std::_Throw_tree_length_error
$LN90@Emplace:
  000de	cc		 int	 3
_TEXT	ENDS
;	COMDAT text$x
text$x	SEGMENT
__unwindfunclet$??$_Emplace@U?$pair@$$CBKPAUSMobTable@CPythonNonPlayer@@@std@@@?$_Tree@V?$_Tmap_traits@KPAUSMobTable@CPythonNonPlayer@@U?$less@K@std@@V?$allocator@U?$pair@$$CBKPAUSMobTable@CPythonNonPlayer@@@std@@@4@$0A@@std@@@std@@IAE?AU?$pair@PAU?$_Tree_node@U?$pair@$$CBKPAUSMobTable@CPythonNonPlayer@@@std@@PAX@std@@_N@1@$$QAU?$pair@$$CBKPAUSMobTable@CPythonNonPlayer@@@1@@Z$2:
  00000	8d 4d ec	 lea	 ecx, DWORD PTR $T3[ebp]
  00003	e9 00 00 00 00	 jmp	 ??1?$_Alloc_construct_ptr@V?$allocator@U?$_Tree_node@U?$pair@$$CBKPAUSMobTable@CPythonNonPlayer@@@std@@PAX@std@@@std@@@std@@QAE@XZ ; std::_Alloc_construct_ptr<std::allocator<std::_Tree_node<std::pair<unsigned long const ,CPythonNonPlayer::SMobTable *>,void *> > >::~_Alloc_construct_ptr<std::allocator<std::_Tree_node<std::pair<unsigned long const ,CPythonNonPlayer::SMobTable *>,void *> > >
  00008	cc		 int	 3
  00009	cc		 int	 3
  0000a	cc		 int	 3
  0000b	cc		 int	 3
  0000c	cc		 int	 3
__ehhandler$??$_Emplace@U?$pair@$$CBKPAUSMobTable@CPythonNonPlayer@@@std@@@?$_Tree@V?$_Tmap_traits@KPAUSMobTable@CPythonNonPlayer@@U?$less@K@std@@V?$allocator@U?$pair@$$CBKPAUSMobTable@CPythonNonPlayer@@@std@@@4@$0A@@std@@@std@@IAE?AU?$pair@PAU?$_Tree_node@U?$pair@$$CBKPAUSMobTable@CPythonNonPlayer@@@std@@PAX@std@@_N@1@$$QAU?$pair@$$CBKPAUSMobTable@CPythonNonPlayer@@@1@@Z:
  0000d	90		 npad	 1
  0000e	90		 npad	 1
  0000f	8b 54 24 08	 mov	 edx, DWORD PTR [esp+8]
  00013	8d 42 0c	 lea	 eax, DWORD PTR [edx+12]
  00016	8b 4a d4	 mov	 ecx, DWORD PTR [edx-44]
  00019	33 c8		 xor	 ecx, eax
  0001b	e8 00 00 00 00	 call	 @__security_check_cookie@4
  00020	b8 00 00 00 00	 mov	 eax, OFFSET __ehfuncinfo$??$_Emplace@U?$pair@$$CBKPAUSMobTable@CPythonNonPlayer@@@std@@@?$_Tree@V?$_Tmap_traits@KPAUSMobTable@CPythonNonPlayer@@U?$less@K@std@@V?$allocator@U?$pair@$$CBKPAUSMobTable@CPythonNonPlayer@@@std@@@4@$0A@@std@@@std@@IAE?AU?$pair@PAU?$_Tree_node@U?$pair@$$CBKPAUSMobTable@CPythonNonPlayer@@@std@@PAX@std@@_N@1@$$QAU?$pair@$$CBKPAUSMobTable@CPythonNonPlayer@@@1@@Z
  00025	e9 00 00 00 00	 jmp	 ___CxxFrameHandler3
text$x	ENDS
??$_Emplace@U?$pair@$$CBKPAUSMobTable@CPythonNonPlayer@@@std@@@?$_Tree@V?$_Tmap_traits@KPAUSMobTable@CPythonNonPlayer@@U?$less@K@std@@V?$allocator@U?$pair@$$CBKPAUSMobTable@CPythonNonPlayer@@@std@@@4@$0A@@std@@@std@@IAE?AU?$pair@PAU?$_Tree_node@U?$pair@$$CBKPAUSMobTable@CPythonNonPlayer@@@std@@PAX@std@@_N@1@$$QAU?$pair@$$CBKPAUSMobTable@CPythonNonPlayer@@@1@@Z ENDP ; std::_Tree<std::_Tmap_traits<unsigned long,CPythonNonPlayer::SMobTable *,std::less<unsigned long>,std::allocator<std::pair<unsigned long const ,CPythonNonPlayer::SMobTable *> >,0> >::_Emplace<std::pair<unsigned long const ,CPythonNonPlayer::SMobTable *> >
; Function compile flags: /Ogtp
; File C:\Program Files\Microsoft Visual Studio\2022\Community\VC\Tools\MSVC\14.44.35207\include\utility
;	COMDAT ??$?0V?$_Tree_iterator@V?$_Tree_val@U?$_Tree_simple_types@U?$pair@$$CBKPAUSMobTable@CPythonNonPlayer@@@std@@@std@@@std@@@std@@AB_N$0A@@?$pair@V?$_Tree_iterator@V?$_Tree_val@U?$_Tree_simple_types@U?$pair@$$CBKPAUSMobTable@CPythonNonPlayer@@@std@@@std@@@std@@@std@@_N@std@@QAE@$$QAV?$_Tree_iterator@V?$_Tree_val@U?$_Tree_simple_types@U?$pair@$$CBKPAUSMobTable@CPythonNonPlayer@@@std@@@std@@@std@@@1@AB_N@Z
_TEXT	SEGMENT
__Val1$ = 8						; size = 4
__Val2$ = 12						; size = 4
??$?0V?$_Tree_iterator@V?$_Tree_val@U?$_Tree_simple_types@U?$pair@$$CBKPAUSMobTable@CPythonNonPlayer@@@std@@@std@@@std@@@std@@AB_N$0A@@?$pair@V?$_Tree_iterator@V?$_Tree_val@U?$_Tree_simple_types@U?$pair@$$CBKPAUSMobTable@CPythonNonPlayer@@@std@@@std@@@std@@@std@@_N@std@@QAE@$$QAV?$_Tree_iterator@V?$_Tree_val@U?$_Tree_simple_types@U?$pair@$$CBKPAUSMobTable@CPythonNonPlayer@@@std@@@std@@@std@@@1@AB_N@Z PROC ; std::pair<std::_Tree_iterator<std::_Tree_val<std::_Tree_simple_types<std::pair<unsigned long const ,CPythonNonPlayer::SMobTable *> > > >,bool>::pair<std::_Tree_iterator<std::_Tree_val<std::_Tree_simple_types<std::pair<unsigned long const ,CPythonNonPlayer::SMobTable *> > > >,bool><std::_Tree_iterator<std::_Tree_val<std::_Tree_simple_types<std::pair<unsigned long const ,CPythonNonPlayer::SMobTable *> > > >,bool const &,0>, COMDAT
; _this$ = ecx

; 274  :         : first(_STD forward<_Other1>(_Val1)), second(_STD forward<_Other2>(_Val2)) {

  00000	55		 push	 ebp
  00001	8b ec		 mov	 ebp, esp
  00003	8b 45 08	 mov	 eax, DWORD PTR __Val1$[ebp]
  00006	8b 00		 mov	 eax, DWORD PTR [eax]
  00008	89 01		 mov	 DWORD PTR [ecx], eax
  0000a	8b 45 0c	 mov	 eax, DWORD PTR __Val2$[ebp]
  0000d	8a 00		 mov	 al, BYTE PTR [eax]
  0000f	88 41 04	 mov	 BYTE PTR [ecx+4], al

; 275  :     }

  00012	8b c1		 mov	 eax, ecx
  00014	5d		 pop	 ebp
  00015	c2 08 00	 ret	 8
??$?0V?$_Tree_iterator@V?$_Tree_val@U?$_Tree_simple_types@U?$pair@$$CBKPAUSMobTable@CPythonNonPlayer@@@std@@@std@@@std@@@std@@AB_N$0A@@?$pair@V?$_Tree_iterator@V?$_Tree_val@U?$_Tree_simple_types@U?$pair@$$CBKPAUSMobTable@CPythonNonPlayer@@@std@@@std@@@std@@@std@@_N@std@@QAE@$$QAV?$_Tree_iterator@V?$_Tree_val@U?$_Tree_simple_types@U?$pair@$$CBKPAUSMobTable@CPythonNonPlayer@@@std@@@std@@@std@@@1@AB_N@Z ENDP ; std::pair<std::_Tree_iterator<std::_Tree_val<std::_Tree_simple_types<std::pair<unsigned long const ,CPythonNonPlayer::SMobTable *> > > >,bool>::pair<std::_Tree_iterator<std::_Tree_val<std::_Tree_simple_types<std::pair<unsigned long const ,CPythonNonPlayer::SMobTable *> > > >,bool><std::_Tree_iterator<std::_Tree_val<std::_Tree_simple_types<std::pair<unsigned long const ,CPythonNonPlayer::SMobTable *> > > >,bool const &,0>
_TEXT	ENDS
; Function compile flags: /Ogtp
; File C:\Program Files\Microsoft Visual Studio\2022\Community\VC\Tools\MSVC\14.44.35207\include\xtree
; File C:\Program Files\Microsoft Visual Studio\2022\Community\VC\Tools\MSVC\14.44.35207\include\type_traits
; File C:\Program Files\Microsoft Visual Studio\2022\Community\VC\Tools\MSVC\14.44.35207\include\xtree
;	COMDAT ??$_Find@K@?$_Tree@V?$_Tmap_traits@KPAUSMobTable@CPythonNonPlayer@@U?$less@K@std@@V?$allocator@U?$pair@$$CBKPAUSMobTable@CPythonNonPlayer@@@std@@@4@$0A@@std@@@std@@ABEPAU?$_Tree_node@U?$pair@$$CBKPAUSMobTable@CPythonNonPlayer@@@std@@PAX@1@ABK@Z
_TEXT	SEGMENT
__Loc$ = -12						; size = 12
__Keyval$ = 8						; size = 4
??$_Find@K@?$_Tree@V?$_Tmap_traits@KPAUSMobTable@CPythonNonPlayer@@U?$less@K@std@@V?$allocator@U?$pair@$$CBKPAUSMobTable@CPythonNonPlayer@@@std@@@4@$0A@@std@@@std@@ABEPAU?$_Tree_node@U?$pair@$$CBKPAUSMobTable@CPythonNonPlayer@@@std@@PAX@1@ABK@Z PROC ; std::_Tree<std::_Tmap_traits<unsigned long,CPythonNonPlayer::SMobTable *,std::less<unsigned long>,std::allocator<std::pair<unsigned long const ,CPythonNonPlayer::SMobTable *> >,0> >::_Find<unsigned long>, COMDAT
; _this$ = ecx

; 1383 :     _NODISCARD _Nodeptr _Find(const _Other& _Keyval) const {

  00000	55		 push	 ebp
  00001	8b ec		 mov	 ebp, esp
  00003	83 ec 0c	 sub	 esp, 12			; 0000000cH
  00006	56		 push	 esi
  00007	57		 push	 edi

; 1384 :         const _Tree_find_result<_Nodeptr> _Loc = _Find_lower_bound(_Keyval);

  00008	8b 7d 08	 mov	 edi, DWORD PTR __Keyval$[ebp]
  0000b	8d 45 f4	 lea	 eax, DWORD PTR __Loc$[ebp]
  0000e	57		 push	 edi
  0000f	50		 push	 eax
  00010	8b f1		 mov	 esi, ecx
  00012	e8 00 00 00 00	 call	 ??$_Find_lower_bound@K@?$_Tree@V?$_Tmap_traits@KPAUSMobTable@CPythonNonPlayer@@U?$less@K@std@@V?$allocator@U?$pair@$$CBKPAUSMobTable@CPythonNonPlayer@@@std@@@4@$0A@@std@@@std@@IBE?AU?$_Tree_find_result@PAU?$_Tree_node@U?$pair@$$CBKPAUSMobTable@CPythonNonPlayer@@@std@@PAX@std@@@1@ABK@Z ; std::_Tree<std::_Tmap_traits<unsigned long,CPythonNonPlayer::SMobTable *,std::less<unsigned long>,std::allocator<std::pair<unsigned long const ,CPythonNonPlayer::SMobTable *> >,0> >::_Find_lower_bound<unsigned long>

; 1624 :         return !_Bound->_Isnil && !_DEBUG_LT_PRED(_Getcomp(), _Keyval, _Traits::_Kfn(_Bound->_Myval));

  00017	8b 45 fc	 mov	 eax, DWORD PTR __Loc$[ebp+8]
  0001a	80 78 0d 00	 cmp	 BYTE PTR [eax+13], 0
  0001e	75 07		 jne	 SHORT $LN2@Find
; File C:\Program Files\Microsoft Visual Studio\2022\Community\VC\Tools\MSVC\14.44.35207\include\type_traits

; 2380 :         return _Left < _Right;

  00020	8b 0f		 mov	 ecx, DWORD PTR [edi]
  00022	3b 48 10	 cmp	 ecx, DWORD PTR [eax+16]
; File C:\Program Files\Microsoft Visual Studio\2022\Community\VC\Tools\MSVC\14.44.35207\include\xtree

; 1624 :         return !_Bound->_Isnil && !_DEBUG_LT_PRED(_Getcomp(), _Keyval, _Traits::_Kfn(_Bound->_Myval));

  00025	73 02		 jae	 SHORT $LN1@Find
$LN2@Find:

; 1385 :         if (_Lower_bound_duplicate(_Loc._Bound, _Keyval)) {
; 1386 :             return _Loc._Bound;
; 1387 :         }
; 1388 : 
; 1389 :         return _Get_scary()->_Myhead;

  00027	8b 06		 mov	 eax, DWORD PTR [esi]
$LN1@Find:
  00029	5f		 pop	 edi

; 1390 :     }

  0002a	5e		 pop	 esi
  0002b	8b e5		 mov	 esp, ebp
  0002d	5d		 pop	 ebp
  0002e	c2 04 00	 ret	 4
??$_Find@K@?$_Tree@V?$_Tmap_traits@KPAUSMobTable@CPythonNonPlayer@@U?$less@K@std@@V?$allocator@U?$pair@$$CBKPAUSMobTable@CPythonNonPlayer@@@std@@@4@$0A@@std@@@std@@ABEPAU?$_Tree_node@U?$pair@$$CBKPAUSMobTable@CPythonNonPlayer@@@std@@PAX@1@ABK@Z ENDP ; std::_Tree<std::_Tmap_traits<unsigned long,CPythonNonPlayer::SMobTable *,std::less<unsigned long>,std::allocator<std::pair<unsigned long const ,CPythonNonPlayer::SMobTable *> >,0> >::_Find<unsigned long>
_TEXT	ENDS
; Function compile flags: /Ogtp
; File C:\Program Files\Microsoft Visual Studio\2022\Community\VC\Tools\MSVC\14.44.35207\include\xtree
; File C:\Program Files\Microsoft Visual Studio\2022\Community\VC\Tools\MSVC\14.44.35207\include\utility
; File C:\Program Files\Microsoft Visual Studio\2022\Community\VC\Tools\MSVC\14.44.35207\include\xmemory
; File C:\Program Files\Microsoft Visual Studio\2022\Community\VC\Tools\MSVC\14.44.35207\include\xtree
;	COMDAT ??$_Erase_tree@V?$allocator@U?$_Tree_node@U?$pair@$$CBKPAUSMobTable@CPythonNonPlayer@@@std@@PAX@std@@@std@@@?$_Tree_val@U?$_Tree_simple_types@U?$pair@$$CBKPAUSMobTable@CPythonNonPlayer@@@std@@@std@@@std@@QAEXAAV?$allocator@U?$_Tree_node@U?$pair@$$CBKPAUSMobTable@CPythonNonPlayer@@@std@@PAX@std@@@1@PAU?$_Tree_node@U?$pair@$$CBKPAUSMobTable@CPythonNonPlayer@@@std@@PAX@1@@Z
_TEXT	SEGMENT
__Al$ = 8						; size = 4
__Rootnode$ = 12					; size = 4
??$_Erase_tree@V?$allocator@U?$_Tree_node@U?$pair@$$CBKPAUSMobTable@CPythonNonPlayer@@@std@@PAX@std@@@std@@@?$_Tree_val@U?$_Tree_simple_types@U?$pair@$$CBKPAUSMobTable@CPythonNonPlayer@@@std@@@std@@@std@@QAEXAAV?$allocator@U?$_Tree_node@U?$pair@$$CBKPAUSMobTable@CPythonNonPlayer@@@std@@PAX@std@@@1@PAU?$_Tree_node@U?$pair@$$CBKPAUSMobTable@CPythonNonPlayer@@@std@@PAX@1@@Z PROC ; std::_Tree_val<std::_Tree_simple_types<std::pair<unsigned long const ,CPythonNonPlayer::SMobTable *> > >::_Erase_tree<std::allocator<std::_Tree_node<std::pair<unsigned long const ,CPythonNonPlayer::SMobTable *>,void *> > >, COMDAT
; _this$ = ecx

; 767  :     void _Erase_tree(_Alnode& _Al, _Nodeptr _Rootnode) noexcept {

  00000	55		 push	 ebp
  00001	8b ec		 mov	 ebp, esp
  00003	53		 push	 ebx
  00004	56		 push	 esi

; 768  :         while (!_Rootnode->_Isnil) { // free subtrees, then node

  00005	8b 75 0c	 mov	 esi, DWORD PTR __Rootnode$[ebp]
  00008	8b d9		 mov	 ebx, ecx
  0000a	80 7e 0d 00	 cmp	 BYTE PTR [esi+13], 0
  0000e	75 25		 jne	 SHORT $LN51@Erase_tree
  00010	57		 push	 edi
  00011	8b 7d 08	 mov	 edi, DWORD PTR __Al$[ebp]
$LL2@Erase_tree:

; 769  :             _Erase_tree(_Al, _Rootnode->_Right);

  00014	ff 76 08	 push	 DWORD PTR [esi+8]
  00017	8b cb		 mov	 ecx, ebx
  00019	57		 push	 edi
  0001a	e8 00 00 00 00	 call	 ??$_Erase_tree@V?$allocator@U?$_Tree_node@U?$pair@$$CBKPAUSMobTable@CPythonNonPlayer@@@std@@PAX@std@@@std@@@?$_Tree_val@U?$_Tree_simple_types@U?$pair@$$CBKPAUSMobTable@CPythonNonPlayer@@@std@@@std@@@std@@QAEXAAV?$allocator@U?$_Tree_node@U?$pair@$$CBKPAUSMobTable@CPythonNonPlayer@@@std@@PAX@std@@@1@PAU?$_Tree_node@U?$pair@$$CBKPAUSMobTable@CPythonNonPlayer@@@std@@PAX@1@@Z ; std::_Tree_val<std::_Tree_simple_types<std::pair<unsigned long const ,CPythonNonPlayer::SMobTable *> > >::_Erase_tree<std::allocator<std::_Tree_node<std::pair<unsigned long const ,CPythonNonPlayer::SMobTable *>,void *> > >
; File C:\Program Files\Microsoft Visual Studio\2022\Community\VC\Tools\MSVC\14.44.35207\include\utility

; 773  :     _Ty _Old_val = static_cast<_Ty&&>(_Val);

  0001f	8b c6		 mov	 eax, esi

; 774  :     _Val         = static_cast<_Other&&>(_New_val);

  00021	8b 36		 mov	 esi, DWORD PTR [esi]
; File C:\Program Files\Microsoft Visual Studio\2022\Community\VC\Tools\MSVC\14.44.35207\include\xmemory

; 289  :         ::operator delete(_Ptr, _Bytes);

  00023	6a 18		 push	 24			; 00000018H
  00025	50		 push	 eax
  00026	e8 00 00 00 00	 call	 ??3@YAXPAXI@Z		; operator delete
  0002b	83 c4 08	 add	 esp, 8
; File C:\Program Files\Microsoft Visual Studio\2022\Community\VC\Tools\MSVC\14.44.35207\include\xtree

; 768  :         while (!_Rootnode->_Isnil) { // free subtrees, then node

  0002e	80 7e 0d 00	 cmp	 BYTE PTR [esi+13], 0
  00032	74 e0		 je	 SHORT $LL2@Erase_tree
  00034	5f		 pop	 edi
$LN51@Erase_tree:
  00035	5e		 pop	 esi

; 770  :             _Alnode::value_type::_Freenode(_Al, _STD exchange(_Rootnode, _Rootnode->_Left));
; 771  :         }
; 772  :     }

  00036	5b		 pop	 ebx
  00037	5d		 pop	 ebp
  00038	c2 08 00	 ret	 8
??$_Erase_tree@V?$allocator@U?$_Tree_node@U?$pair@$$CBKPAUSMobTable@CPythonNonPlayer@@@std@@PAX@std@@@std@@@?$_Tree_val@U?$_Tree_simple_types@U?$pair@$$CBKPAUSMobTable@CPythonNonPlayer@@@std@@@std@@@std@@QAEXAAV?$allocator@U?$_Tree_node@U?$pair@$$CBKPAUSMobTable@CPythonNonPlayer@@@std@@PAX@std@@@1@PAU?$_Tree_node@U?$pair@$$CBKPAUSMobTable@CPythonNonPlayer@@@std@@PAX@1@@Z ENDP ; std::_Tree_val<std::_Tree_simple_types<std::pair<unsigned long const ,CPythonNonPlayer::SMobTable *> > >::_Erase_tree<std::allocator<std::_Tree_node<std::pair<unsigned long const ,CPythonNonPlayer::SMobTable *>,void *> > >
_TEXT	ENDS
; Function compile flags: /Ogtp
; File C:\Program Files\Microsoft Visual Studio\2022\Community\VC\Tools\MSVC\14.44.35207\include\xtree
; File C:\Program Files\Microsoft Visual Studio\2022\Community\VC\Tools\MSVC\14.44.35207\include\xmemory
; File C:\Program Files\Microsoft Visual Studio\2022\Community\VC\Tools\MSVC\14.44.35207\include\xtree
;	COMDAT ??$_Erase_head@V?$allocator@U?$_Tree_node@U?$pair@$$CBKPAUSMobTable@CPythonNonPlayer@@@std@@PAX@std@@@std@@@?$_Tree_val@U?$_Tree_simple_types@U?$pair@$$CBKPAUSMobTable@CPythonNonPlayer@@@std@@@std@@@std@@QAEXAAV?$allocator@U?$_Tree_node@U?$pair@$$CBKPAUSMobTable@CPythonNonPlayer@@@std@@PAX@std@@@1@@Z
_TEXT	SEGMENT
__Al$ = 8						; size = 4
??$_Erase_head@V?$allocator@U?$_Tree_node@U?$pair@$$CBKPAUSMobTable@CPythonNonPlayer@@@std@@PAX@std@@@std@@@?$_Tree_val@U?$_Tree_simple_types@U?$pair@$$CBKPAUSMobTable@CPythonNonPlayer@@@std@@@std@@@std@@QAEXAAV?$allocator@U?$_Tree_node@U?$pair@$$CBKPAUSMobTable@CPythonNonPlayer@@@std@@PAX@std@@@1@@Z PROC ; std::_Tree_val<std::_Tree_simple_types<std::pair<unsigned long const ,CPythonNonPlayer::SMobTable *> > >::_Erase_head<std::allocator<std::_Tree_node<std::pair<unsigned long const ,CPythonNonPlayer::SMobTable *>,void *> > >, COMDAT
; _this$ = ecx

; 775  :     void _Erase_head(_Alnode& _Al) noexcept {

  00000	55		 push	 ebp
  00001	8b ec		 mov	 ebp, esp
  00003	56		 push	 esi
  00004	8b f1		 mov	 esi, ecx

; 776  :         this->_Orphan_all();
; 777  :         _Erase_tree(_Al, _Myhead->_Parent);

  00006	8b 06		 mov	 eax, DWORD PTR [esi]
  00008	ff 70 04	 push	 DWORD PTR [eax+4]
  0000b	ff 75 08	 push	 DWORD PTR __Al$[ebp]
  0000e	e8 00 00 00 00	 call	 ??$_Erase_tree@V?$allocator@U?$_Tree_node@U?$pair@$$CBKPAUSMobTable@CPythonNonPlayer@@@std@@PAX@std@@@std@@@?$_Tree_val@U?$_Tree_simple_types@U?$pair@$$CBKPAUSMobTable@CPythonNonPlayer@@@std@@@std@@@std@@QAEXAAV?$allocator@U?$_Tree_node@U?$pair@$$CBKPAUSMobTable@CPythonNonPlayer@@@std@@PAX@std@@@1@PAU?$_Tree_node@U?$pair@$$CBKPAUSMobTable@CPythonNonPlayer@@@std@@PAX@1@@Z ; std::_Tree_val<std::_Tree_simple_types<std::pair<unsigned long const ,CPythonNonPlayer::SMobTable *> > >::_Erase_tree<std::allocator<std::_Tree_node<std::pair<unsigned long const ,CPythonNonPlayer::SMobTable *>,void *> > >
; File C:\Program Files\Microsoft Visual Studio\2022\Community\VC\Tools\MSVC\14.44.35207\include\xmemory

; 289  :         ::operator delete(_Ptr, _Bytes);

  00013	6a 18		 push	 24			; 00000018H
  00015	ff 36		 push	 DWORD PTR [esi]
  00017	e8 00 00 00 00	 call	 ??3@YAXPAXI@Z		; operator delete
  0001c	83 c4 08	 add	 esp, 8
  0001f	5e		 pop	 esi
; File C:\Program Files\Microsoft Visual Studio\2022\Community\VC\Tools\MSVC\14.44.35207\include\xtree

; 779  :     }

  00020	5d		 pop	 ebp
  00021	c2 04 00	 ret	 4
??$_Erase_head@V?$allocator@U?$_Tree_node@U?$pair@$$CBKPAUSMobTable@CPythonNonPlayer@@@std@@PAX@std@@@std@@@?$_Tree_val@U?$_Tree_simple_types@U?$pair@$$CBKPAUSMobTable@CPythonNonPlayer@@@std@@@std@@@std@@QAEXAAV?$allocator@U?$_Tree_node@U?$pair@$$CBKPAUSMobTable@CPythonNonPlayer@@@std@@PAX@std@@@1@@Z ENDP ; std::_Tree_val<std::_Tree_simple_types<std::pair<unsigned long const ,CPythonNonPlayer::SMobTable *> > >::_Erase_head<std::allocator<std::_Tree_node<std::pair<unsigned long const ,CPythonNonPlayer::SMobTable *>,void *> > >
_TEXT	ENDS
; Function compile flags: /Ogtp
; File C:\Program Files\Microsoft Visual Studio\2022\Community\VC\Tools\MSVC\14.44.35207\include\xutility
;	COMDAT ?pointer_to@?$pointer_traits@PAU?$pair@$$CBKPAUSMobTable@CPythonNonPlayer@@@std@@@std@@SAPAU?$pair@$$CBKPAUSMobTable@CPythonNonPlayer@@@2@AAU32@@Z
_TEXT	SEGMENT
?pointer_to@?$pointer_traits@PAU?$pair@$$CBKPAUSMobTable@CPythonNonPlayer@@@std@@@std@@SAPAU?$pair@$$CBKPAUSMobTable@CPythonNonPlayer@@@2@AAU32@@Z PROC ; std::pointer_traits<std::pair<unsigned long const ,CPythonNonPlayer::SMobTable *> *>::pointer_to, COMDAT
; __Val$ = ecx

; 528  :         return _STD addressof(_Val);

  00000	8b c1		 mov	 eax, ecx

; 529  :     }

  00002	c3		 ret	 0
?pointer_to@?$pointer_traits@PAU?$pair@$$CBKPAUSMobTable@CPythonNonPlayer@@@std@@@std@@SAPAU?$pair@$$CBKPAUSMobTable@CPythonNonPlayer@@@2@AAU32@@Z ENDP ; std::pointer_traits<std::pair<unsigned long const ,CPythonNonPlayer::SMobTable *> *>::pointer_to
_TEXT	ENDS
; Function compile flags: /Ogtp
; File C:\Program Files\Microsoft Visual Studio\2022\Community\VC\Tools\MSVC\14.44.35207\include\xtree
;	COMDAT ??0?$_Tree_unchecked_const_iterator@V?$_Tree_val@U?$_Tree_simple_types@U?$pair@$$CBKPAUSMobTable@CPythonNonPlayer@@@std@@@std@@@std@@U_Iterator_base0@2@@std@@QAE@PAU?$_Tree_node@U?$pair@$$CBKPAUSMobTable@CPythonNonPlayer@@@std@@PAX@1@PBV?$_Tree_val@U?$_Tree_simple_types@U?$pair@$$CBKPAUSMobTable@CPythonNonPlayer@@@std@@@std@@@1@@Z
_TEXT	SEGMENT
__Pnode$ = 8						; size = 4
__Plist$dead$ = 12					; size = 4
??0?$_Tree_unchecked_const_iterator@V?$_Tree_val@U?$_Tree_simple_types@U?$pair@$$CBKPAUSMobTable@CPythonNonPlayer@@@std@@@std@@@std@@U_Iterator_base0@2@@std@@QAE@PAU?$_Tree_node@U?$pair@$$CBKPAUSMobTable@CPythonNonPlayer@@@std@@PAX@1@PBV?$_Tree_val@U?$_Tree_simple_types@U?$pair@$$CBKPAUSMobTable@CPythonNonPlayer@@@std@@@std@@@1@@Z PROC ; std::_Tree_unchecked_const_iterator<std::_Tree_val<std::_Tree_simple_types<std::pair<unsigned long const ,CPythonNonPlayer::SMobTable *> > >,std::_Iterator_base0>::_Tree_unchecked_const_iterator<std::_Tree_val<std::_Tree_simple_types<std::pair<unsigned long const ,CPythonNonPlayer::SMobTable *> > >,std::_Iterator_base0>, COMDAT
; _this$ = ecx

; 37   :     _Tree_unchecked_const_iterator(_Nodeptr _Pnode, const _Mytree* _Plist) noexcept : _Ptr(_Pnode) {

  00000	55		 push	 ebp
  00001	8b ec		 mov	 ebp, esp
  00003	8b 45 08	 mov	 eax, DWORD PTR __Pnode$[ebp]
  00006	89 01		 mov	 DWORD PTR [ecx], eax

; 38   :         this->_Adopt(_Plist);
; 39   :     }

  00008	8b c1		 mov	 eax, ecx
  0000a	5d		 pop	 ebp
  0000b	c2 08 00	 ret	 8
??0?$_Tree_unchecked_const_iterator@V?$_Tree_val@U?$_Tree_simple_types@U?$pair@$$CBKPAUSMobTable@CPythonNonPlayer@@@std@@@std@@@std@@U_Iterator_base0@2@@std@@QAE@PAU?$_Tree_node@U?$pair@$$CBKPAUSMobTable@CPythonNonPlayer@@@std@@PAX@1@PBV?$_Tree_val@U?$_Tree_simple_types@U?$pair@$$CBKPAUSMobTable@CPythonNonPlayer@@@std@@@std@@@1@@Z ENDP ; std::_Tree_unchecked_const_iterator<std::_Tree_val<std::_Tree_simple_types<std::pair<unsigned long const ,CPythonNonPlayer::SMobTable *> > >,std::_Iterator_base0>::_Tree_unchecked_const_iterator<std::_Tree_val<std::_Tree_simple_types<std::pair<unsigned long const ,CPythonNonPlayer::SMobTable *> > >,std::_Iterator_base0>
_TEXT	ENDS
; Function compile flags: /Ogtp
; File C:\Program Files\Microsoft Visual Studio\2022\Community\VC\Tools\MSVC\14.44.35207\include\xtree
;	COMDAT ??D?$_Tree_iterator@V?$_Tree_val@U?$_Tree_simple_types@U?$pair@$$CBKPAUSMobTable@CPythonNonPlayer@@@std@@@std@@@std@@@std@@QBEAAU?$pair@$$CBKPAUSMobTable@CPythonNonPlayer@@@1@XZ
_TEXT	SEGMENT
??D?$_Tree_iterator@V?$_Tree_val@U?$_Tree_simple_types@U?$pair@$$CBKPAUSMobTable@CPythonNonPlayer@@@std@@@std@@@std@@@std@@QBEAAU?$pair@$$CBKPAUSMobTable@CPythonNonPlayer@@@1@XZ PROC ; std::_Tree_iterator<std::_Tree_val<std::_Tree_simple_types<std::pair<unsigned long const ,CPythonNonPlayer::SMobTable *> > > >::operator*, COMDAT
; _this$ = ecx

; 185  :         return this->_Ptr->_Myval;

  00000	8b 01		 mov	 eax, DWORD PTR [ecx]
  00002	83 c0 10	 add	 eax, 16			; 00000010H

; 274  :         return const_cast<reference>(_Mybase::operator*());
; 275  :     }

  00005	c3		 ret	 0
??D?$_Tree_iterator@V?$_Tree_val@U?$_Tree_simple_types@U?$pair@$$CBKPAUSMobTable@CPythonNonPlayer@@@std@@@std@@@std@@@std@@QBEAAU?$pair@$$CBKPAUSMobTable@CPythonNonPlayer@@@1@XZ ENDP ; std::_Tree_iterator<std::_Tree_val<std::_Tree_simple_types<std::pair<unsigned long const ,CPythonNonPlayer::SMobTable *> > > >::operator*
_TEXT	ENDS
; Function compile flags: /Ogtp
; File C:\Program Files\Microsoft Visual Studio\2022\Community\VC\Tools\MSVC\14.44.35207\include\xtree
;	COMDAT ??E?$_Tree_const_iterator@V?$_Tree_val@U?$_Tree_simple_types@U?$pair@$$CBKPAUSMobTable@CPythonNonPlayer@@@std@@@std@@@std@@@std@@QAEAAV01@XZ
_TEXT	SEGMENT
??E?$_Tree_const_iterator@V?$_Tree_val@U?$_Tree_simple_types@U?$pair@$$CBKPAUSMobTable@CPythonNonPlayer@@@std@@@std@@@std@@@std@@QAEAAV01@XZ PROC ; std::_Tree_const_iterator<std::_Tree_val<std::_Tree_simple_types<std::pair<unsigned long const ,CPythonNonPlayer::SMobTable *> > > >::operator++, COMDAT
; _this$ = ecx

; 192  :     _Tree_const_iterator& operator++() noexcept {

  00000	56		 push	 esi
  00001	8b f1		 mov	 esi, ecx
  00003	57		 push	 edi

; 50   :         if (_Ptr->_Right->_Isnil) { // climb looking for right subtree

  00004	8b 16		 mov	 edx, DWORD PTR [esi]
  00006	8b 7a 08	 mov	 edi, DWORD PTR [edx+8]
  00009	80 7f 0d 00	 cmp	 BYTE PTR [edi+13], 0
  0000d	74 22		 je	 SHORT $LN7@operator

; 51   :             _Nodeptr _Pnode;
; 52   :             while (!(_Pnode = _Ptr->_Parent)->_Isnil && _Ptr == _Pnode->_Right) {

  0000f	8b 42 04	 mov	 eax, DWORD PTR [edx+4]
  00012	80 78 0d 00	 cmp	 BYTE PTR [eax+13], 0
  00016	75 12		 jne	 SHORT $LN24@operator
$LL5@operator:
  00018	3b 50 08	 cmp	 edx, DWORD PTR [eax+8]
  0001b	75 0d		 jne	 SHORT $LN24@operator

; 53   :                 _Ptr = _Pnode; // ==> parent while right subtree

  0001d	89 06		 mov	 DWORD PTR [esi], eax
  0001f	8b d0		 mov	 edx, eax
  00021	8b 40 04	 mov	 eax, DWORD PTR [eax+4]
  00024	80 78 0d 00	 cmp	 BYTE PTR [eax+13], 0
  00028	74 ee		 je	 SHORT $LL5@operator
$LN24@operator:

; 193  : #if _ITERATOR_DEBUG_LEVEL == 2
; 194  :         _STL_VERIFY(this->_Getcont(), "cannot increment value-initialized map/set iterator");
; 195  :         _STL_VERIFY(!this->_Ptr->_Isnil, "cannot increment end map/set iterator");
; 196  : #endif // _ITERATOR_DEBUG_LEVEL == 2
; 197  : 
; 198  :         _Mybase::operator++();
; 199  :         return *this;

  0002a	89 06		 mov	 DWORD PTR [esi], eax

; 200  :     }

  0002c	8b c6		 mov	 eax, esi
  0002e	5f		 pop	 edi
  0002f	5e		 pop	 esi
  00030	c3		 ret	 0
$LN7@operator:

; 476  :         while (!_Pnode->_Left->_Isnil) {

  00031	8b 0f		 mov	 ecx, DWORD PTR [edi]
  00033	80 79 0d 00	 cmp	 BYTE PTR [ecx+13], 0
  00037	75 13		 jne	 SHORT $LN13@operator
  00039	0f 1f 80 00 00
	00 00		 npad	 7
$LL12@operator:
  00040	8b 01		 mov	 eax, DWORD PTR [ecx]

; 477  :             _Pnode = _Pnode->_Left;

  00042	8b f9		 mov	 edi, ecx
  00044	8b c8		 mov	 ecx, eax
  00046	80 78 0d 00	 cmp	 BYTE PTR [eax+13], 0
  0004a	74 f4		 je	 SHORT $LL12@operator
$LN13@operator:

; 193  : #if _ITERATOR_DEBUG_LEVEL == 2
; 194  :         _STL_VERIFY(this->_Getcont(), "cannot increment value-initialized map/set iterator");
; 195  :         _STL_VERIFY(!this->_Ptr->_Isnil, "cannot increment end map/set iterator");
; 196  : #endif // _ITERATOR_DEBUG_LEVEL == 2
; 197  : 
; 198  :         _Mybase::operator++();
; 199  :         return *this;

  0004c	89 3e		 mov	 DWORD PTR [esi], edi

; 200  :     }

  0004e	8b c6		 mov	 eax, esi
  00050	5f		 pop	 edi
  00051	5e		 pop	 esi
  00052	c3		 ret	 0
??E?$_Tree_const_iterator@V?$_Tree_val@U?$_Tree_simple_types@U?$pair@$$CBKPAUSMobTable@CPythonNonPlayer@@@std@@@std@@@std@@@std@@QAEAAV01@XZ ENDP ; std::_Tree_const_iterator<std::_Tree_val<std::_Tree_simple_types<std::pair<unsigned long const ,CPythonNonPlayer::SMobTable *> > > >::operator++
_TEXT	ENDS
; Function compile flags: /Ogtp
; File C:\Program Files\Microsoft Visual Studio\2022\Community\VC\Tools\MSVC\14.44.35207\include\xtree
;	COMDAT ?_Orphan_ptr@?$_Tree_val@U?$_Tree_simple_types@U?$pair@$$CBKPAUSMobTable@CPythonNonPlayer@@@std@@@std@@@std@@QAEXQAU?$_Tree_node@U?$pair@$$CBKPAUSMobTable@CPythonNonPlayer@@@std@@PAX@2@@Z
_TEXT	SEGMENT
__Ptr$dead$ = 8						; size = 4
?_Orphan_ptr@?$_Tree_val@U?$_Tree_simple_types@U?$pair@$$CBKPAUSMobTable@CPythonNonPlayer@@@std@@@std@@@std@@QAEXQAU?$_Tree_node@U?$pair@$$CBKPAUSMobTable@CPythonNonPlayer@@@std@@PAX@2@@Z PROC ; std::_Tree_val<std::_Tree_simple_types<std::pair<unsigned long const ,CPythonNonPlayer::SMobTable *> > >::_Orphan_ptr, COMDAT
; _this$dead$ = ecx

; 739  : #if _ITERATOR_DEBUG_LEVEL == 2
; 740  :         _Lockit _Lock(_LOCK_DEBUG);
; 741  :         _Iterator_base12** _Pnext = &this->_Myproxy->_Myfirstiter;
; 742  :         while (*_Pnext) {
; 743  :             const auto _Pnextptr = static_cast<const_iterator&>(**_Pnext)._Ptr;
; 744  :             if (_Pnextptr == _Myhead || (_Ptr != nullptr && _Pnextptr != _Ptr)) {
; 745  :                 _Pnext = &(*_Pnext)->_Mynextiter;
; 746  :             } else { // orphan the iterator
; 747  :                 (*_Pnext)->_Myproxy = nullptr;
; 748  :                 *_Pnext             = (*_Pnext)->_Mynextiter;
; 749  :             }
; 750  :         }
; 751  : #else // ^^^ _ITERATOR_DEBUG_LEVEL == 2 / _ITERATOR_DEBUG_LEVEL != 2 vvv
; 752  :         (void) _Ptr;
; 753  : #endif // ^^^ _ITERATOR_DEBUG_LEVEL != 2 ^^^
; 754  :     }

  00000	c2 04 00	 ret	 4
?_Orphan_ptr@?$_Tree_val@U?$_Tree_simple_types@U?$pair@$$CBKPAUSMobTable@CPythonNonPlayer@@@std@@@std@@@std@@QAEXQAU?$_Tree_node@U?$pair@$$CBKPAUSMobTable@CPythonNonPlayer@@@std@@PAX@2@@Z ENDP ; std::_Tree_val<std::_Tree_simple_types<std::pair<unsigned long const ,CPythonNonPlayer::SMobTable *> > >::_Orphan_ptr
_TEXT	ENDS
; Function compile flags: /Ogtp
; File C:\Program Files\Microsoft Visual Studio\2022\Community\VC\Tools\MSVC\14.44.35207\include\xtree
;	COMDAT ?_Get_scary@?$_Tree@V?$_Tmap_traits@KPAUSMobTable@CPythonNonPlayer@@U?$less@K@std@@V?$allocator@U?$pair@$$CBKPAUSMobTable@CPythonNonPlayer@@@std@@@4@$0A@@std@@@std@@IAEPAV?$_Tree_val@U?$_Tree_simple_types@U?$pair@$$CBKPAUSMobTable@CPythonNonPlayer@@@std@@@std@@@2@XZ
_TEXT	SEGMENT
?_Get_scary@?$_Tree@V?$_Tmap_traits@KPAUSMobTable@CPythonNonPlayer@@U?$less@K@std@@V?$allocator@U?$pair@$$CBKPAUSMobTable@CPythonNonPlayer@@@std@@@4@$0A@@std@@@std@@IAEPAV?$_Tree_val@U?$_Tree_simple_types@U?$pair@$$CBKPAUSMobTable@CPythonNonPlayer@@@std@@@std@@@2@XZ PROC ; std::_Tree<std::_Tmap_traits<unsigned long,CPythonNonPlayer::SMobTable *,std::less<unsigned long>,std::allocator<std::pair<unsigned long const ,CPythonNonPlayer::SMobTable *> >,0> >::_Get_scary, COMDAT
; _this$ = ecx

; 1983 :         return _STD addressof(_Mypair._Myval2._Myval2);

  00000	8b c1		 mov	 eax, ecx

; 1984 :     }

  00002	c3		 ret	 0
?_Get_scary@?$_Tree@V?$_Tmap_traits@KPAUSMobTable@CPythonNonPlayer@@U?$less@K@std@@V?$allocator@U?$pair@$$CBKPAUSMobTable@CPythonNonPlayer@@@std@@@4@$0A@@std@@@std@@IAEPAV?$_Tree_val@U?$_Tree_simple_types@U?$pair@$$CBKPAUSMobTable@CPythonNonPlayer@@@std@@@std@@@2@XZ ENDP ; std::_Tree<std::_Tmap_traits<unsigned long,CPythonNonPlayer::SMobTable *,std::less<unsigned long>,std::allocator<std::pair<unsigned long const ,CPythonNonPlayer::SMobTable *> >,0> >::_Get_scary
_TEXT	ENDS
; Function compile flags: /Ogtp
; File C:\Program Files\Microsoft Visual Studio\2022\Community\VC\Tools\MSVC\14.44.35207\include\xtree
;	COMDAT ?_Getal@?$_Tree@V?$_Tmap_traits@KPAUSMobTable@CPythonNonPlayer@@U?$less@K@std@@V?$allocator@U?$pair@$$CBKPAUSMobTable@CPythonNonPlayer@@@std@@@4@$0A@@std@@@std@@IAEAAV?$allocator@U?$_Tree_node@U?$pair@$$CBKPAUSMobTable@CPythonNonPlayer@@@std@@PAX@std@@@2@XZ
_TEXT	SEGMENT
?_Getal@?$_Tree@V?$_Tmap_traits@KPAUSMobTable@CPythonNonPlayer@@U?$less@K@std@@V?$allocator@U?$pair@$$CBKPAUSMobTable@CPythonNonPlayer@@@std@@@4@$0A@@std@@@std@@IAEAAV?$allocator@U?$_Tree_node@U?$pair@$$CBKPAUSMobTable@CPythonNonPlayer@@@std@@PAX@std@@@2@XZ PROC ; std::_Tree<std::_Tmap_traits<unsigned long,CPythonNonPlayer::SMobTable *,std::less<unsigned long>,std::allocator<std::pair<unsigned long const ,CPythonNonPlayer::SMobTable *> >,0> >::_Getal, COMDAT
; _this$ = ecx

; 1975 :         return _Mypair._Myval2._Get_first();

  00000	8b c1		 mov	 eax, ecx

; 1976 :     }

  00002	c3		 ret	 0
?_Getal@?$_Tree@V?$_Tmap_traits@KPAUSMobTable@CPythonNonPlayer@@U?$less@K@std@@V?$allocator@U?$pair@$$CBKPAUSMobTable@CPythonNonPlayer@@@std@@@4@$0A@@std@@@std@@IAEAAV?$allocator@U?$_Tree_node@U?$pair@$$CBKPAUSMobTable@CPythonNonPlayer@@@std@@PAX@std@@@2@XZ ENDP ; std::_Tree<std::_Tmap_traits<unsigned long,CPythonNonPlayer::SMobTable *,std::less<unsigned long>,std::allocator<std::pair<unsigned long const ,CPythonNonPlayer::SMobTable *> >,0> >::_Getal
_TEXT	ENDS
; Function compile flags: /Ogtp
; File C:\Program Files\Microsoft Visual Studio\2022\Community\VC\Tools\MSVC\14.44.35207\include\xtree
; File C:\Program Files\Microsoft Visual Studio\2022\Community\VC\Tools\MSVC\14.44.35207\include\xmemory
; File C:\Program Files\Microsoft Visual Studio\2022\Community\VC\Tools\MSVC\14.44.35207\include\xtree
; File C:\Program Files\Microsoft Visual Studio\2022\Community\VC\Tools\MSVC\14.44.35207\include\xmemory
; File C:\Program Files\Microsoft Visual Studio\2022\Community\VC\Tools\MSVC\14.44.35207\include\xtree
;	COMDAT ??0?$_Tree@V?$_Tmap_traits@KPAUSMobTable@CPythonNonPlayer@@U?$less@K@std@@V?$allocator@U?$pair@$$CBKPAUSMobTable@CPythonNonPlayer@@@std@@@4@$0A@@std@@@std@@QAE@ABU?$less@K@1@@Z
_TEXT	SEGMENT
__Parg$dead$ = 8					; size = 4
??0?$_Tree@V?$_Tmap_traits@KPAUSMobTable@CPythonNonPlayer@@U?$less@K@std@@V?$allocator@U?$pair@$$CBKPAUSMobTable@CPythonNonPlayer@@@std@@@4@$0A@@std@@@std@@QAE@ABU?$less@K@1@@Z PROC ; std::_Tree<std::_Tmap_traits<unsigned long,CPythonNonPlayer::SMobTable *,std::less<unsigned long>,std::allocator<std::pair<unsigned long const ,CPythonNonPlayer::SMobTable *> >,0> >::_Tree<std::_Tmap_traits<unsigned long,CPythonNonPlayer::SMobTable *,std::less<unsigned long>,std::allocator<std::pair<unsigned long const ,CPythonNonPlayer::SMobTable *> >,0> >, COMDAT
; _this$ = ecx

; 904  :     _Tree(const key_compare& _Parg) : _Mypair(_One_then_variadic_args_t{}, _Parg, _Zero_then_variadic_args_t{}) {

  00000	56		 push	 esi
  00001	8b f1		 mov	 esi, ecx
; File C:\Program Files\Microsoft Visual Studio\2022\Community\VC\Tools\MSVC\14.44.35207\include\xmemory

; 136  :         return ::operator new(_Bytes);

  00003	6a 18		 push	 24			; 00000018H
; File C:\Program Files\Microsoft Visual Studio\2022\Community\VC\Tools\MSVC\14.44.35207\include\xtree

; 450  :     _Tree_val() noexcept : _Myhead(), _Mysize(0) {}

  00005	c7 06 00 00 00
	00		 mov	 DWORD PTR [esi], 0
  0000b	c7 46 04 00 00
	00 00		 mov	 DWORD PTR [esi+4], 0
; File C:\Program Files\Microsoft Visual Studio\2022\Community\VC\Tools\MSVC\14.44.35207\include\xmemory

; 136  :         return ::operator new(_Bytes);

  00012	e8 00 00 00 00	 call	 ??2@YAPAXI@Z		; operator new
  00017	83 c4 04	 add	 esp, 4
; File C:\Program Files\Microsoft Visual Studio\2022\Community\VC\Tools\MSVC\14.44.35207\include\xtree

; 346  :         _Construct_in_place(_Pnode->_Left, _Pnode);

  0001a	89 00		 mov	 DWORD PTR [eax], eax

; 347  :         _Construct_in_place(_Pnode->_Parent, _Pnode);

  0001c	89 40 04	 mov	 DWORD PTR [eax+4], eax

; 348  :         _Construct_in_place(_Pnode->_Right, _Pnode);

  0001f	89 40 08	 mov	 DWORD PTR [eax+8], eax

; 349  :         _Pnode->_Color = _Black;

  00022	66 c7 40 0c 01
	01		 mov	 WORD PTR [eax+12], 257	; 00000101H

; 1957 :         _Scary->_Myhead = _Node::_Buyheadnode(_Getal());

  00028	89 06		 mov	 DWORD PTR [esi], eax

; 905  :         _Alloc_sentinel_and_proxy();
; 906  :     }

  0002a	8b c6		 mov	 eax, esi
  0002c	5e		 pop	 esi
  0002d	c2 04 00	 ret	 4
??0?$_Tree@V?$_Tmap_traits@KPAUSMobTable@CPythonNonPlayer@@U?$less@K@std@@V?$allocator@U?$pair@$$CBKPAUSMobTable@CPythonNonPlayer@@@std@@@4@$0A@@std@@@std@@QAE@ABU?$less@K@1@@Z ENDP ; std::_Tree<std::_Tmap_traits<unsigned long,CPythonNonPlayer::SMobTable *,std::less<unsigned long>,std::allocator<std::pair<unsigned long const ,CPythonNonPlayer::SMobTable *> >,0> >::_Tree<std::_Tmap_traits<unsigned long,CPythonNonPlayer::SMobTable *,std::less<unsigned long>,std::allocator<std::pair<unsigned long const ,CPythonNonPlayer::SMobTable *> >,0> >
_TEXT	ENDS
; Function compile flags: /Ogtp
; File C:\Program Files\Microsoft Visual Studio\2022\Community\VC\Tools\MSVC\14.44.35207\include\xtree
; File C:\Program Files\Microsoft Visual Studio\2022\Community\VC\Tools\MSVC\14.44.35207\include\type_traits
; File C:\Program Files\Microsoft Visual Studio\2022\Community\VC\Tools\MSVC\14.44.35207\include\xtree
; File C:\Program Files\Microsoft Visual Studio\2022\Community\VC\Tools\MSVC\14.44.35207\include\type_traits
; File C:\Program Files\Microsoft Visual Studio\2022\Community\VC\Tools\MSVC\14.44.35207\include\xtree
;	COMDAT ??$_Find_lower_bound@K@?$_Tree@V?$_Tmap_traits@KPAUSMobTable@CPythonNonPlayer@@U?$less@K@std@@V?$allocator@U?$pair@$$CBKPAUSMobTable@CPythonNonPlayer@@@std@@@4@$0A@@std@@@std@@IBE?AU?$_Tree_find_result@PAU?$_Tree_node@U?$pair@$$CBKPAUSMobTable@CPythonNonPlayer@@@std@@PAX@std@@@1@ABK@Z
_TEXT	SEGMENT
___$ReturnUdt$ = 8					; size = 4
__Keyval$ = 12						; size = 4
??$_Find_lower_bound@K@?$_Tree@V?$_Tmap_traits@KPAUSMobTable@CPythonNonPlayer@@U?$less@K@std@@V?$allocator@U?$pair@$$CBKPAUSMobTable@CPythonNonPlayer@@@std@@@4@$0A@@std@@@std@@IBE?AU?$_Tree_find_result@PAU?$_Tree_node@U?$pair@$$CBKPAUSMobTable@CPythonNonPlayer@@@std@@PAX@std@@@1@ABK@Z PROC ; std::_Tree<std::_Tmap_traits<unsigned long,CPythonNonPlayer::SMobTable *,std::less<unsigned long>,std::allocator<std::pair<unsigned long const ,CPythonNonPlayer::SMobTable *> >,0> >::_Find_lower_bound<unsigned long>, COMDAT
; _this$ = ecx

; 1628 :     _Tree_find_result<_Nodeptr> _Find_lower_bound(const _Keyty& _Keyval) const {

  00000	55		 push	 ebp
  00001	8b ec		 mov	 ebp, esp

; 1629 :         const auto _Scary = _Get_scary();
; 1630 :         _Tree_find_result<_Nodeptr> _Result{{_Scary->_Myhead->_Parent, _Tree_child::_Right}, _Scary->_Myhead};

  00003	8b 09		 mov	 ecx, DWORD PTR [ecx]
  00005	8b 55 08	 mov	 edx, DWORD PTR ___$ReturnUdt$[ebp]
  00008	8b 41 04	 mov	 eax, DWORD PTR [ecx+4]
  0000b	89 02		 mov	 DWORD PTR [edx], eax
  0000d	c7 42 04 00 00
	00 00		 mov	 DWORD PTR [edx+4], 0
  00014	89 4a 08	 mov	 DWORD PTR [edx+8], ecx

; 1631 :         _Nodeptr _Trynode = _Result._Location._Parent;
; 1632 :         while (!_Trynode->_Isnil) {

  00017	80 78 0d 00	 cmp	 BYTE PTR [eax+13], 0
  0001b	75 28		 jne	 SHORT $LN13@Find_lower
; File C:\Program Files\Microsoft Visual Studio\2022\Community\VC\Tools\MSVC\14.44.35207\include\type_traits

; 2380 :         return _Left < _Right;

  0001d	8b 4d 0c	 mov	 ecx, DWORD PTR __Keyval$[ebp]
  00020	56		 push	 esi
  00021	8b 31		 mov	 esi, DWORD PTR [ecx]
$LL2@Find_lower:
; File C:\Program Files\Microsoft Visual Studio\2022\Community\VC\Tools\MSVC\14.44.35207\include\xtree

; 1633 :             _Result._Location._Parent = _Trynode;

  00023	89 02		 mov	 DWORD PTR [edx], eax
; File C:\Program Files\Microsoft Visual Studio\2022\Community\VC\Tools\MSVC\14.44.35207\include\type_traits

; 2380 :         return _Left < _Right;

  00025	39 70 10	 cmp	 DWORD PTR [eax+16], esi
; File C:\Program Files\Microsoft Visual Studio\2022\Community\VC\Tools\MSVC\14.44.35207\include\xtree

; 1634 :             if (_DEBUG_LT_PRED(_Getcomp(), _Traits::_Kfn(_Trynode->_Myval), _Keyval)) {

  00028	73 07		 jae	 SHORT $LN4@Find_lower

; 1635 :                 _Result._Location._Child = _Tree_child::_Right;
; 1636 :                 _Trynode                 = _Trynode->_Right;

  0002a	8b 40 08	 mov	 eax, DWORD PTR [eax+8]
  0002d	33 c9		 xor	 ecx, ecx

; 1637 :             } else {

  0002f	eb 0a		 jmp	 SHORT $LN5@Find_lower
$LN4@Find_lower:

; 1638 :                 _Result._Location._Child = _Tree_child::_Left;
; 1639 :                 _Result._Bound           = _Trynode;

  00031	89 42 08	 mov	 DWORD PTR [edx+8], eax

; 1640 :                 _Trynode                 = _Trynode->_Left;

  00034	b9 01 00 00 00	 mov	 ecx, 1
  00039	8b 00		 mov	 eax, DWORD PTR [eax]
$LN5@Find_lower:

; 1631 :         _Nodeptr _Trynode = _Result._Location._Parent;
; 1632 :         while (!_Trynode->_Isnil) {

  0003b	89 4a 04	 mov	 DWORD PTR [edx+4], ecx
  0003e	80 78 0d 00	 cmp	 BYTE PTR [eax+13], 0
  00042	74 df		 je	 SHORT $LL2@Find_lower
  00044	5e		 pop	 esi
$LN13@Find_lower:

; 1641 :             }
; 1642 :         }
; 1643 : 
; 1644 :         return _Result;
; 1645 :     }

  00045	8b c2		 mov	 eax, edx
  00047	5d		 pop	 ebp
  00048	c2 08 00	 ret	 8
??$_Find_lower_bound@K@?$_Tree@V?$_Tmap_traits@KPAUSMobTable@CPythonNonPlayer@@U?$less@K@std@@V?$allocator@U?$pair@$$CBKPAUSMobTable@CPythonNonPlayer@@@std@@@4@$0A@@std@@@std@@IBE?AU?$_Tree_find_result@PAU?$_Tree_node@U?$pair@$$CBKPAUSMobTable@CPythonNonPlayer@@@std@@PAX@std@@@1@ABK@Z ENDP ; std::_Tree<std::_Tmap_traits<unsigned long,CPythonNonPlayer::SMobTable *,std::less<unsigned long>,std::allocator<std::pair<unsigned long const ,CPythonNonPlayer::SMobTable *> >,0> >::_Find_lower_bound<unsigned long>
_TEXT	ENDS
; Function compile flags: /Ogtp
; File C:\Program Files\Microsoft Visual Studio\2022\Community\VC\Tools\MSVC\14.44.35207\include\xtree
; File C:\Program Files\Microsoft Visual Studio\2022\Community\VC\Tools\MSVC\14.44.35207\include\type_traits
; File C:\Program Files\Microsoft Visual Studio\2022\Community\VC\Tools\MSVC\14.44.35207\include\xtree
;	COMDAT ??$_Lower_bound_duplicate@K@?$_Tree@V?$_Tmap_traits@KPAUSMobTable@CPythonNonPlayer@@U?$less@K@std@@V?$allocator@U?$pair@$$CBKPAUSMobTable@CPythonNonPlayer@@@std@@@4@$0A@@std@@@std@@IBE_NQAU?$_Tree_node@U?$pair@$$CBKPAUSMobTable@CPythonNonPlayer@@@std@@PAX@1@ABK@Z
_TEXT	SEGMENT
__Bound$ = 8						; size = 4
__Keyval$ = 12						; size = 4
??$_Lower_bound_duplicate@K@?$_Tree@V?$_Tmap_traits@KPAUSMobTable@CPythonNonPlayer@@U?$less@K@std@@V?$allocator@U?$pair@$$CBKPAUSMobTable@CPythonNonPlayer@@@std@@@4@$0A@@std@@@std@@IBE_NQAU?$_Tree_node@U?$pair@$$CBKPAUSMobTable@CPythonNonPlayer@@@std@@PAX@1@ABK@Z PROC ; std::_Tree<std::_Tmap_traits<unsigned long,CPythonNonPlayer::SMobTable *,std::less<unsigned long>,std::allocator<std::pair<unsigned long const ,CPythonNonPlayer::SMobTable *> >,0> >::_Lower_bound_duplicate<unsigned long>, COMDAT
; _this$dead$ = ecx

; 1623 :     bool _Lower_bound_duplicate(const _Nodeptr _Bound, const _Keyty& _Keyval) const {

  00000	55		 push	 ebp
  00001	8b ec		 mov	 ebp, esp

; 1624 :         return !_Bound->_Isnil && !_DEBUG_LT_PRED(_Getcomp(), _Keyval, _Traits::_Kfn(_Bound->_Myval));

  00003	8b 4d 08	 mov	 ecx, DWORD PTR __Bound$[ebp]
  00006	80 79 0d 00	 cmp	 BYTE PTR [ecx+13], 0
  0000a	75 10		 jne	 SHORT $LN3@Lower_boun
; File C:\Program Files\Microsoft Visual Studio\2022\Community\VC\Tools\MSVC\14.44.35207\include\type_traits

; 2380 :         return _Left < _Right;

  0000c	8b 45 0c	 mov	 eax, DWORD PTR __Keyval$[ebp]
  0000f	8b 00		 mov	 eax, DWORD PTR [eax]
  00011	3b 41 10	 cmp	 eax, DWORD PTR [ecx+16]
; File C:\Program Files\Microsoft Visual Studio\2022\Community\VC\Tools\MSVC\14.44.35207\include\xtree

; 1624 :         return !_Bound->_Isnil && !_DEBUG_LT_PRED(_Getcomp(), _Keyval, _Traits::_Kfn(_Bound->_Myval));

  00014	72 06		 jb	 SHORT $LN3@Lower_boun
  00016	b0 01		 mov	 al, 1

; 1625 :     }

  00018	5d		 pop	 ebp
  00019	c2 08 00	 ret	 8
$LN3@Lower_boun:

; 1624 :         return !_Bound->_Isnil && !_DEBUG_LT_PRED(_Getcomp(), _Keyval, _Traits::_Kfn(_Bound->_Myval));

  0001c	32 c0		 xor	 al, al

; 1625 :     }

  0001e	5d		 pop	 ebp
  0001f	c2 08 00	 ret	 8
??$_Lower_bound_duplicate@K@?$_Tree@V?$_Tmap_traits@KPAUSMobTable@CPythonNonPlayer@@U?$less@K@std@@V?$allocator@U?$pair@$$CBKPAUSMobTable@CPythonNonPlayer@@@std@@@4@$0A@@std@@@std@@IBE_NQAU?$_Tree_node@U?$pair@$$CBKPAUSMobTable@CPythonNonPlayer@@@std@@PAX@1@ABK@Z ENDP ; std::_Tree<std::_Tmap_traits<unsigned long,CPythonNonPlayer::SMobTable *,std::less<unsigned long>,std::allocator<std::pair<unsigned long const ,CPythonNonPlayer::SMobTable *> >,0> >::_Lower_bound_duplicate<unsigned long>
_TEXT	ENDS
; Function compile flags: /Ogtp
; File C:\Program Files\Microsoft Visual Studio\2022\Community\VC\Tools\MSVC\14.44.35207\include\type_traits
;	COMDAT ??$forward@U?$pair@$$CBKPAUSMobTable@CPythonNonPlayer@@@std@@@std@@YA$$QAU?$pair@$$CBKPAUSMobTable@CPythonNonPlayer@@@0@AAU10@@Z
_TEXT	SEGMENT
??$forward@U?$pair@$$CBKPAUSMobTable@CPythonNonPlayer@@@std@@@std@@YA$$QAU?$pair@$$CBKPAUSMobTable@CPythonNonPlayer@@@0@AAU10@@Z PROC ; std::forward<std::pair<unsigned long const ,CPythonNonPlayer::SMobTable *> >, COMDAT
; __Arg$ = ecx

; 1502 :     return static_cast<_Ty&&>(_Arg);

  00000	8b c1		 mov	 eax, ecx

; 1503 : }

  00002	c3		 ret	 0
??$forward@U?$pair@$$CBKPAUSMobTable@CPythonNonPlayer@@@std@@@std@@YA$$QAU?$pair@$$CBKPAUSMobTable@CPythonNonPlayer@@@0@AAU10@@Z ENDP ; std::forward<std::pair<unsigned long const ,CPythonNonPlayer::SMobTable *> >
_TEXT	ENDS
; Function compile flags: /Ogtp
; File C:\Program Files\Microsoft Visual Studio\2022\Community\VC\Tools\MSVC\14.44.35207\include\xtree
; File C:\Program Files\Microsoft Visual Studio\2022\Community\VC\Tools\MSVC\14.44.35207\include\xmemory
; File C:\Program Files\Microsoft Visual Studio\2022\Community\VC\Tools\MSVC\14.44.35207\include\xtree
; File C:\Program Files\Microsoft Visual Studio\2022\Community\VC\Tools\MSVC\14.44.35207\include\xmemory
; File C:\Program Files\Microsoft Visual Studio\2022\Community\VC\Tools\MSVC\14.44.35207\include\xtree
; File C:\Program Files\Microsoft Visual Studio\2022\Community\VC\Tools\MSVC\14.44.35207\include\xmemory
; File C:\Program Files\Microsoft Visual Studio\2022\Community\VC\Tools\MSVC\14.44.35207\include\xtree
;	COMDAT ??$?0U?$pair@$$CBKPAUSMobTable@CPythonNonPlayer@@@std@@@?$_Tree_temp_node@V?$allocator@U?$_Tree_node@U?$pair@$$CBKPAUSMobTable@CPythonNonPlayer@@@std@@PAX@std@@@std@@@std@@QAE@AAV?$allocator@U?$_Tree_node@U?$pair@$$CBKPAUSMobTable@CPythonNonPlayer@@@std@@PAX@std@@@1@PAU?$_Tree_node@U?$pair@$$CBKPAUSMobTable@CPythonNonPlayer@@@std@@PAX@1@$$QAU?$pair@$$CBKPAUSMobTable@CPythonNonPlayer@@@1@@Z
_TEXT	SEGMENT
_this$ = -16						; size = 4
__$EHRec$ = -12						; size = 12
__Al_$ = 8						; size = 4
__Myhead$ = 12						; size = 4
_<_Vals_0>$ = 16					; size = 4
??$?0U?$pair@$$CBKPAUSMobTable@CPythonNonPlayer@@@std@@@?$_Tree_temp_node@V?$allocator@U?$_Tree_node@U?$pair@$$CBKPAUSMobTable@CPythonNonPlayer@@@std@@PAX@std@@@std@@@std@@QAE@AAV?$allocator@U?$_Tree_node@U?$pair@$$CBKPAUSMobTable@CPythonNonPlayer@@@std@@PAX@std@@@1@PAU?$_Tree_node@U?$pair@$$CBKPAUSMobTable@CPythonNonPlayer@@@std@@PAX@1@$$QAU?$pair@$$CBKPAUSMobTable@CPythonNonPlayer@@@1@@Z PROC ; std::_Tree_temp_node<std::allocator<std::_Tree_node<std::pair<unsigned long const ,CPythonNonPlayer::SMobTable *>,void *> > >::_Tree_temp_node<std::allocator<std::_Tree_node<std::pair<unsigned long const ,CPythonNonPlayer::SMobTable *>,void *> > ><std::pair<unsigned long const ,CPythonNonPlayer::SMobTable *> >, COMDAT
; _this$ = ecx

; 829  :         : _Tree_temp_node_alloc<_Alnode>(_Al_) {

  00000	55		 push	 ebp
  00001	8b ec		 mov	 ebp, esp
  00003	6a ff		 push	 -1
  00005	68 00 00 00 00	 push	 __ehhandler$??$?0U?$pair@$$CBKPAUSMobTable@CPythonNonPlayer@@@std@@@?$_Tree_temp_node@V?$allocator@U?$_Tree_node@U?$pair@$$CBKPAUSMobTable@CPythonNonPlayer@@@std@@PAX@std@@@std@@@std@@QAE@AAV?$allocator@U?$_Tree_node@U?$pair@$$CBKPAUSMobTable@CPythonNonPlayer@@@std@@PAX@std@@@1@PAU?$_Tree_node@U?$pair@$$CBKPAUSMobTable@CPythonNonPlayer@@@std@@PAX@1@$$QAU?$pair@$$CBKPAUSMobTable@CPythonNonPlayer@@@1@@Z
  0000a	64 a1 00 00 00
	00		 mov	 eax, DWORD PTR fs:0
  00010	50		 push	 eax
  00011	51		 push	 ecx
  00012	56		 push	 esi
  00013	a1 00 00 00 00	 mov	 eax, DWORD PTR ___security_cookie
  00018	33 c5		 xor	 eax, ebp
  0001a	50		 push	 eax
  0001b	8d 45 f4	 lea	 eax, DWORD PTR __$EHRec$[ebp]
  0001e	64 a3 00 00 00
	00		 mov	 DWORD PTR fs:0, eax
  00024	8b f1		 mov	 esi, ecx
  00026	89 75 f0	 mov	 DWORD PTR _this$[ebp], esi
; File C:\Program Files\Microsoft Visual Studio\2022\Community\VC\Tools\MSVC\14.44.35207\include\xmemory

; 1160 :     _CONSTEXPR20 explicit _Alloc_construct_ptr(_Alloc& _Al_) : _Al(_Al_), _Ptr(nullptr) {}

  00029	8b 45 08	 mov	 eax, DWORD PTR __Al_$[ebp]
  0002c	89 06		 mov	 DWORD PTR [esi], eax
; File C:\Program Files\Microsoft Visual Studio\2022\Community\VC\Tools\MSVC\14.44.35207\include\xtree

; 808  :     explicit _Tree_temp_node_alloc(_Alnode& _Al_) : _Alloc_construct_ptr<_Alnode>(_Al_) {

  0002e	c7 45 fc 00 00
	00 00		 mov	 DWORD PTR __$EHRec$[ebp+8], 0
; File C:\Program Files\Microsoft Visual Studio\2022\Community\VC\Tools\MSVC\14.44.35207\include\xmemory

; 136  :         return ::operator new(_Bytes);

  00035	6a 18		 push	 24			; 00000018H

; 1167 :         _Ptr = nullptr; // if allocate throws, prevents double-free

  00037	c7 46 04 00 00
	00 00		 mov	 DWORD PTR [esi+4], 0

; 136  :         return ::operator new(_Bytes);

  0003e	e8 00 00 00 00	 call	 ??2@YAPAXI@Z		; operator new
; File C:\Program Files\Microsoft Visual Studio\2022\Community\VC\Tools\MSVC\14.44.35207\include\xtree

; 830  :         _Alnode_traits::construct(this->_Al, _STD addressof(this->_Ptr->_Myval), _STD forward<_Valtys>(_Vals)...);

  00043	8b 4d 10	 mov	 ecx, DWORD PTR _<_Vals_0>$[ebp]
; File C:\Program Files\Microsoft Visual Studio\2022\Community\VC\Tools\MSVC\14.44.35207\include\xmemory

; 136  :         return ::operator new(_Bytes);

  00046	83 c4 04	 add	 esp, 4

; 1168 :         _Ptr = _Al.allocate(1);

  00049	89 46 04	 mov	 DWORD PTR [esi+4], eax
; File C:\Program Files\Microsoft Visual Studio\2022\Community\VC\Tools\MSVC\14.44.35207\include\xtree

; 830  :         _Alnode_traits::construct(this->_Al, _STD addressof(this->_Ptr->_Myval), _STD forward<_Valtys>(_Vals)...);

  0004c	8b 11		 mov	 edx, DWORD PTR [ecx]
  0004e	8b 49 04	 mov	 ecx, DWORD PTR [ecx+4]
  00051	89 48 14	 mov	 DWORD PTR [eax+20], ecx

; 831  :         _Construct_in_place(this->_Ptr->_Left, _Myhead);

  00054	8b 4d 0c	 mov	 ecx, DWORD PTR __Myhead$[ebp]
  00057	89 50 10	 mov	 DWORD PTR [eax+16], edx
  0005a	8b 46 04	 mov	 eax, DWORD PTR [esi+4]
  0005d	89 08		 mov	 DWORD PTR [eax], ecx

; 832  :         _Construct_in_place(this->_Ptr->_Parent, _Myhead);

  0005f	8b 46 04	 mov	 eax, DWORD PTR [esi+4]
  00062	89 48 04	 mov	 DWORD PTR [eax+4], ecx

; 833  :         _Construct_in_place(this->_Ptr->_Right, _Myhead);

  00065	8b 46 04	 mov	 eax, DWORD PTR [esi+4]
  00068	89 48 08	 mov	 DWORD PTR [eax+8], ecx

; 834  :         this->_Ptr->_Color = _Red;

  0006b	8b 46 04	 mov	 eax, DWORD PTR [esi+4]
  0006e	c6 40 0c 00	 mov	 BYTE PTR [eax+12], 0

; 835  :         this->_Ptr->_Isnil = false;

  00072	8b 46 04	 mov	 eax, DWORD PTR [esi+4]
  00075	c6 40 0d 00	 mov	 BYTE PTR [eax+13], 0

; 836  :     }

  00079	8b c6		 mov	 eax, esi
  0007b	8b 4d f4	 mov	 ecx, DWORD PTR __$EHRec$[ebp]
  0007e	64 89 0d 00 00
	00 00		 mov	 DWORD PTR fs:0, ecx
  00085	59		 pop	 ecx
  00086	5e		 pop	 esi
  00087	8b e5		 mov	 esp, ebp
  00089	5d		 pop	 ebp
  0008a	c2 0c 00	 ret	 12			; 0000000cH
_TEXT	ENDS
;	COMDAT text$x
text$x	SEGMENT
__unwindfunclet$??$?0U?$pair@$$CBKPAUSMobTable@CPythonNonPlayer@@@std@@@?$_Tree_temp_node@V?$allocator@U?$_Tree_node@U?$pair@$$CBKPAUSMobTable@CPythonNonPlayer@@@std@@PAX@std@@@std@@@std@@QAE@AAV?$allocator@U?$_Tree_node@U?$pair@$$CBKPAUSMobTable@CPythonNonPlayer@@@std@@PAX@std@@@1@PAU?$_Tree_node@U?$pair@$$CBKPAUSMobTable@CPythonNonPlayer@@@std@@PAX@1@$$QAU?$pair@$$CBKPAUSMobTable@CPythonNonPlayer@@@1@@Z$1:
  00000	8b 4d f0	 mov	 ecx, DWORD PTR _this$[ebp]
  00003	e9 00 00 00 00	 jmp	 ??1?$_Alloc_construct_ptr@V?$allocator@U?$_Tree_node@U?$pair@$$CBKPAUSMobTable@CPythonNonPlayer@@@std@@PAX@std@@@std@@@std@@QAE@XZ ; std::_Alloc_construct_ptr<std::allocator<std::_Tree_node<std::pair<unsigned long const ,CPythonNonPlayer::SMobTable *>,void *> > >::~_Alloc_construct_ptr<std::allocator<std::_Tree_node<std::pair<unsigned long const ,CPythonNonPlayer::SMobTable *>,void *> > >
  00008	cc		 int	 3
  00009	cc		 int	 3
  0000a	cc		 int	 3
  0000b	cc		 int	 3
  0000c	cc		 int	 3
__ehhandler$??$?0U?$pair@$$CBKPAUSMobTable@CPythonNonPlayer@@@std@@@?$_Tree_temp_node@V?$allocator@U?$_Tree_node@U?$pair@$$CBKPAUSMobTable@CPythonNonPlayer@@@std@@PAX@std@@@std@@@std@@QAE@AAV?$allocator@U?$_Tree_node@U?$pair@$$CBKPAUSMobTable@CPythonNonPlayer@@@std@@PAX@std@@@1@PAU?$_Tree_node@U?$pair@$$CBKPAUSMobTable@CPythonNonPlayer@@@std@@PAX@1@$$QAU?$pair@$$CBKPAUSMobTable@CPythonNonPlayer@@@1@@Z:
  0000d	90		 npad	 1
  0000e	90		 npad	 1
  0000f	8b 54 24 08	 mov	 edx, DWORD PTR [esp+8]
  00013	8d 42 0c	 lea	 eax, DWORD PTR [edx+12]
  00016	8b 4a f4	 mov	 ecx, DWORD PTR [edx-12]
  00019	33 c8		 xor	 ecx, eax
  0001b	e8 00 00 00 00	 call	 @__security_check_cookie@4
  00020	b8 00 00 00 00	 mov	 eax, OFFSET __ehfuncinfo$??$?0U?$pair@$$CBKPAUSMobTable@CPythonNonPlayer@@@std@@@?$_Tree_temp_node@V?$allocator@U?$_Tree_node@U?$pair@$$CBKPAUSMobTable@CPythonNonPlayer@@@std@@PAX@std@@@std@@@std@@QAE@AAV?$allocator@U?$_Tree_node@U?$pair@$$CBKPAUSMobTable@CPythonNonPlayer@@@std@@PAX@std@@@1@PAU?$_Tree_node@U?$pair@$$CBKPAUSMobTable@CPythonNonPlayer@@@std@@PAX@1@$$QAU?$pair@$$CBKPAUSMobTable@CPythonNonPlayer@@@1@@Z
  00025	e9 00 00 00 00	 jmp	 ___CxxFrameHandler3
text$x	ENDS
??$?0U?$pair@$$CBKPAUSMobTable@CPythonNonPlayer@@@std@@@?$_Tree_temp_node@V?$allocator@U?$_Tree_node@U?$pair@$$CBKPAUSMobTable@CPythonNonPlayer@@@std@@PAX@std@@@std@@@std@@QAE@AAV?$allocator@U?$_Tree_node@U?$pair@$$CBKPAUSMobTable@CPythonNonPlayer@@@std@@PAX@std@@@1@PAU?$_Tree_node@U?$pair@$$CBKPAUSMobTable@CPythonNonPlayer@@@std@@PAX@1@$$QAU?$pair@$$CBKPAUSMobTable@CPythonNonPlayer@@@1@@Z ENDP ; std::_Tree_temp_node<std::allocator<std::_Tree_node<std::pair<unsigned long const ,CPythonNonPlayer::SMobTable *>,void *> > >::_Tree_temp_node<std::allocator<std::_Tree_node<std::pair<unsigned long const ,CPythonNonPlayer::SMobTable *>,void *> > ><std::pair<unsigned long const ,CPythonNonPlayer::SMobTable *> >
; Function compile flags: /Ogtp
; File C:\Program Files\Microsoft Visual Studio\2022\Community\VC\Tools\MSVC\14.44.35207\include\utility
;	COMDAT ??$?0AAPAU?$_Tree_node@U?$pair@$$CBKPAUSMobTable@CPythonNonPlayer@@@std@@PAX@std@@_N$0A@@?$pair@PAU?$_Tree_node@U?$pair@$$CBKPAUSMobTable@CPythonNonPlayer@@@std@@PAX@std@@_N@std@@QAE@AAPAU?$_Tree_node@U?$pair@$$CBKPAUSMobTable@CPythonNonPlayer@@@std@@PAX@1@$$QA_N@Z
_TEXT	SEGMENT
__Val1$ = 8						; size = 4
__Val2$ = 12						; size = 4
??$?0AAPAU?$_Tree_node@U?$pair@$$CBKPAUSMobTable@CPythonNonPlayer@@@std@@PAX@std@@_N$0A@@?$pair@PAU?$_Tree_node@U?$pair@$$CBKPAUSMobTable@CPythonNonPlayer@@@std@@PAX@std@@_N@std@@QAE@AAPAU?$_Tree_node@U?$pair@$$CBKPAUSMobTable@CPythonNonPlayer@@@std@@PAX@1@$$QA_N@Z PROC ; std::pair<std::_Tree_node<std::pair<unsigned long const ,CPythonNonPlayer::SMobTable *>,void *> *,bool>::pair<std::_Tree_node<std::pair<unsigned long const ,CPythonNonPlayer::SMobTable *>,void *> *,bool><std::_Tree_node<std::pair<unsigned long const ,CPythonNonPlayer::SMobTable *>,void *> * &,bool,0>, COMDAT
; _this$ = ecx

; 274  :         : first(_STD forward<_Other1>(_Val1)), second(_STD forward<_Other2>(_Val2)) {

  00000	55		 push	 ebp
  00001	8b ec		 mov	 ebp, esp
  00003	8b 45 08	 mov	 eax, DWORD PTR __Val1$[ebp]
  00006	8b 00		 mov	 eax, DWORD PTR [eax]
  00008	89 01		 mov	 DWORD PTR [ecx], eax
  0000a	8b 45 0c	 mov	 eax, DWORD PTR __Val2$[ebp]
  0000d	8a 00		 mov	 al, BYTE PTR [eax]
  0000f	88 41 04	 mov	 BYTE PTR [ecx+4], al

; 275  :     }

  00012	8b c1		 mov	 eax, ecx
  00014	5d		 pop	 ebp
  00015	c2 08 00	 ret	 8
??$?0AAPAU?$_Tree_node@U?$pair@$$CBKPAUSMobTable@CPythonNonPlayer@@@std@@PAX@std@@_N$0A@@?$pair@PAU?$_Tree_node@U?$pair@$$CBKPAUSMobTable@CPythonNonPlayer@@@std@@PAX@std@@_N@std@@QAE@AAPAU?$_Tree_node@U?$pair@$$CBKPAUSMobTable@CPythonNonPlayer@@@std@@PAX@1@$$QA_N@Z ENDP ; std::pair<std::_Tree_node<std::pair<unsigned long const ,CPythonNonPlayer::SMobTable *>,void *> *,bool>::pair<std::_Tree_node<std::pair<unsigned long const ,CPythonNonPlayer::SMobTable *>,void *> *,bool><std::_Tree_node<std::pair<unsigned long const ,CPythonNonPlayer::SMobTable *>,void *> * &,bool,0>
_TEXT	ENDS
; Function compile flags: /Ogtp
; File C:\Program Files\Microsoft Visual Studio\2022\Community\VC\Tools\MSVC\14.44.35207\include\utility
;	COMDAT ??$?0PAU?$_Tree_node@U?$pair@$$CBKPAUSMobTable@CPythonNonPlayer@@@std@@PAX@std@@_N$0A@@?$pair@PAU?$_Tree_node@U?$pair@$$CBKPAUSMobTable@CPythonNonPlayer@@@std@@PAX@std@@_N@std@@QAE@$$QAPAU?$_Tree_node@U?$pair@$$CBKPAUSMobTable@CPythonNonPlayer@@@std@@PAX@1@$$QA_N@Z
_TEXT	SEGMENT
__Val1$ = 8						; size = 4
__Val2$ = 12						; size = 4
??$?0PAU?$_Tree_node@U?$pair@$$CBKPAUSMobTable@CPythonNonPlayer@@@std@@PAX@std@@_N$0A@@?$pair@PAU?$_Tree_node@U?$pair@$$CBKPAUSMobTable@CPythonNonPlayer@@@std@@PAX@std@@_N@std@@QAE@$$QAPAU?$_Tree_node@U?$pair@$$CBKPAUSMobTable@CPythonNonPlayer@@@std@@PAX@1@$$QA_N@Z PROC ; std::pair<std::_Tree_node<std::pair<unsigned long const ,CPythonNonPlayer::SMobTable *>,void *> *,bool>::pair<std::_Tree_node<std::pair<unsigned long const ,CPythonNonPlayer::SMobTable *>,void *> *,bool><std::_Tree_node<std::pair<unsigned long const ,CPythonNonPlayer::SMobTable *>,void *> *,bool,0>, COMDAT
; _this$ = ecx

; 274  :         : first(_STD forward<_Other1>(_Val1)), second(_STD forward<_Other2>(_Val2)) {

  00000	55		 push	 ebp
  00001	8b ec		 mov	 ebp, esp
  00003	8b 45 08	 mov	 eax, DWORD PTR __Val1$[ebp]
  00006	8b 00		 mov	 eax, DWORD PTR [eax]
  00008	89 01		 mov	 DWORD PTR [ecx], eax
  0000a	8b 45 0c	 mov	 eax, DWORD PTR __Val2$[ebp]
  0000d	8a 00		 mov	 al, BYTE PTR [eax]
  0000f	88 41 04	 mov	 BYTE PTR [ecx+4], al

; 275  :     }

  00012	8b c1		 mov	 eax, ecx
  00014	5d		 pop	 ebp
  00015	c2 08 00	 ret	 8
??$?0PAU?$_Tree_node@U?$pair@$$CBKPAUSMobTable@CPythonNonPlayer@@@std@@PAX@std@@_N$0A@@?$pair@PAU?$_Tree_node@U?$pair@$$CBKPAUSMobTable@CPythonNonPlayer@@@std@@PAX@std@@_N@std@@QAE@$$QAPAU?$_Tree_node@U?$pair@$$CBKPAUSMobTable@CPythonNonPlayer@@@std@@PAX@1@$$QA_N@Z ENDP ; std::pair<std::_Tree_node<std::pair<unsigned long const ,CPythonNonPlayer::SMobTable *>,void *> *,bool>::pair<std::_Tree_node<std::pair<unsigned long const ,CPythonNonPlayer::SMobTable *>,void *> *,bool><std::_Tree_node<std::pair<unsigned long const ,CPythonNonPlayer::SMobTable *>,void *> *,bool,0>
_TEXT	ENDS
; Function compile flags: /Ogtp
; File C:\Program Files\Microsoft Visual Studio\2022\Community\VC\Tools\MSVC\14.44.35207\include\type_traits
;	COMDAT ??$forward@V?$_Tree_iterator@V?$_Tree_val@U?$_Tree_simple_types@U?$pair@$$CBKPAUSMobTable@CPythonNonPlayer@@@std@@@std@@@std@@@std@@@std@@YA$$QAV?$_Tree_iterator@V?$_Tree_val@U?$_Tree_simple_types@U?$pair@$$CBKPAUSMobTable@CPythonNonPlayer@@@std@@@std@@@std@@@0@AAV10@@Z
_TEXT	SEGMENT
??$forward@V?$_Tree_iterator@V?$_Tree_val@U?$_Tree_simple_types@U?$pair@$$CBKPAUSMobTable@CPythonNonPlayer@@@std@@@std@@@std@@@std@@@std@@YA$$QAV?$_Tree_iterator@V?$_Tree_val@U?$_Tree_simple_types@U?$pair@$$CBKPAUSMobTable@CPythonNonPlayer@@@std@@@std@@@std@@@0@AAV10@@Z PROC ; std::forward<std::_Tree_iterator<std::_Tree_val<std::_Tree_simple_types<std::pair<unsigned long const ,CPythonNonPlayer::SMobTable *> > > > >, COMDAT
; __Arg$ = ecx

; 1502 :     return static_cast<_Ty&&>(_Arg);

  00000	8b c1		 mov	 eax, ecx

; 1503 : }

  00002	c3		 ret	 0
??$forward@V?$_Tree_iterator@V?$_Tree_val@U?$_Tree_simple_types@U?$pair@$$CBKPAUSMobTable@CPythonNonPlayer@@@std@@@std@@@std@@@std@@@std@@YA$$QAV?$_Tree_iterator@V?$_Tree_val@U?$_Tree_simple_types@U?$pair@$$CBKPAUSMobTable@CPythonNonPlayer@@@std@@@std@@@std@@@0@AAV10@@Z ENDP ; std::forward<std::_Tree_iterator<std::_Tree_val<std::_Tree_simple_types<std::pair<unsigned long const ,CPythonNonPlayer::SMobTable *> > > > >
_TEXT	ENDS
; Function compile flags: /Ogtp
; File C:\Program Files\Microsoft Visual Studio\2022\Community\VC\Tools\MSVC\14.44.35207\include\utility
;	COMDAT ??$exchange@PAU?$_Tree_node@U?$pair@$$CBKPAUSMobTable@CPythonNonPlayer@@@std@@PAX@std@@AAPAU12@@std@@YAPAU?$_Tree_node@U?$pair@$$CBKPAUSMobTable@CPythonNonPlayer@@@std@@PAX@0@AAPAU10@0@Z
_TEXT	SEGMENT
??$exchange@PAU?$_Tree_node@U?$pair@$$CBKPAUSMobTable@CPythonNonPlayer@@@std@@PAX@std@@AAPAU12@@std@@YAPAU?$_Tree_node@U?$pair@$$CBKPAUSMobTable@CPythonNonPlayer@@@std@@PAX@0@AAPAU10@0@Z PROC ; std::exchange<std::_Tree_node<std::pair<unsigned long const ,CPythonNonPlayer::SMobTable *>,void *> *,std::_Tree_node<std::pair<unsigned long const ,CPythonNonPlayer::SMobTable *>,void *> * &>, COMDAT
; __Val$ = ecx
; __New_val$ = edx

; 772  :     // assign _New_val to _Val, return previous _Val
; 773  :     _Ty _Old_val = static_cast<_Ty&&>(_Val);

  00000	8b 01		 mov	 eax, DWORD PTR [ecx]

; 774  :     _Val         = static_cast<_Other&&>(_New_val);

  00002	8b 12		 mov	 edx, DWORD PTR [edx]
  00004	89 11		 mov	 DWORD PTR [ecx], edx

; 775  :     return _Old_val;
; 776  : }

  00006	c3		 ret	 0
??$exchange@PAU?$_Tree_node@U?$pair@$$CBKPAUSMobTable@CPythonNonPlayer@@@std@@PAX@std@@AAPAU12@@std@@YAPAU?$_Tree_node@U?$pair@$$CBKPAUSMobTable@CPythonNonPlayer@@@std@@PAX@0@AAPAU10@0@Z ENDP ; std::exchange<std::_Tree_node<std::pair<unsigned long const ,CPythonNonPlayer::SMobTable *>,void *> *,std::_Tree_node<std::pair<unsigned long const ,CPythonNonPlayer::SMobTable *>,void *> * &>
_TEXT	ENDS
; Function compile flags: /Ogtp
; File C:\Program Files\Microsoft Visual Studio\2022\Community\VC\Tools\MSVC\14.44.35207\include\xtree
; File C:\Program Files\Microsoft Visual Studio\2022\Community\VC\Tools\MSVC\14.44.35207\include\xmemory
; File C:\Program Files\Microsoft Visual Studio\2022\Community\VC\Tools\MSVC\14.44.35207\include\xtree
;	COMDAT ??$_Freenode@V?$allocator@U?$_Tree_node@U?$pair@$$CBKPAUSMobTable@CPythonNonPlayer@@@std@@PAX@std@@@std@@@?$_Tree_node@U?$pair@$$CBKPAUSMobTable@CPythonNonPlayer@@@std@@PAX@std@@SAXAAV?$allocator@U?$_Tree_node@U?$pair@$$CBKPAUSMobTable@CPythonNonPlayer@@@std@@PAX@std@@@1@PAU01@@Z
_TEXT	SEGMENT
??$_Freenode@V?$allocator@U?$_Tree_node@U?$pair@$$CBKPAUSMobTable@CPythonNonPlayer@@@std@@PAX@std@@@std@@@?$_Tree_node@U?$pair@$$CBKPAUSMobTable@CPythonNonPlayer@@@std@@PAX@std@@SAXAAV?$allocator@U?$_Tree_node@U?$pair@$$CBKPAUSMobTable@CPythonNonPlayer@@@std@@PAX@std@@@1@PAU01@@Z PROC ; std::_Tree_node<std::pair<unsigned long const ,CPythonNonPlayer::SMobTable *>,void *>::_Freenode<std::allocator<std::_Tree_node<std::pair<unsigned long const ,CPythonNonPlayer::SMobTable *>,void *> > >, COMDAT
; __Al$dead$ = ecx
; __Ptr$ = edx
; File C:\Program Files\Microsoft Visual Studio\2022\Community\VC\Tools\MSVC\14.44.35207\include\xmemory

; 289  :         ::operator delete(_Ptr, _Bytes);

  00000	6a 18		 push	 24			; 00000018H
  00002	52		 push	 edx
  00003	e8 00 00 00 00	 call	 ??3@YAXPAXI@Z		; operator delete
  00008	83 c4 08	 add	 esp, 8
; File C:\Program Files\Microsoft Visual Studio\2022\Community\VC\Tools\MSVC\14.44.35207\include\xtree

; 383  :     }

  0000b	c3		 ret	 0
??$_Freenode@V?$allocator@U?$_Tree_node@U?$pair@$$CBKPAUSMobTable@CPythonNonPlayer@@@std@@PAX@std@@@std@@@?$_Tree_node@U?$pair@$$CBKPAUSMobTable@CPythonNonPlayer@@@std@@PAX@std@@SAXAAV?$allocator@U?$_Tree_node@U?$pair@$$CBKPAUSMobTable@CPythonNonPlayer@@@std@@PAX@std@@@1@PAU01@@Z ENDP ; std::_Tree_node<std::pair<unsigned long const ,CPythonNonPlayer::SMobTable *>,void *>::_Freenode<std::allocator<std::_Tree_node<std::pair<unsigned long const ,CPythonNonPlayer::SMobTable *>,void *> > >
_TEXT	ENDS
; Function compile flags: /Ogtp
; File C:\Program Files\Microsoft Visual Studio\2022\Community\VC\Tools\MSVC\14.44.35207\include\xtree
; File C:\Program Files\Microsoft Visual Studio\2022\Community\VC\Tools\MSVC\14.44.35207\include\xmemory
; File C:\Program Files\Microsoft Visual Studio\2022\Community\VC\Tools\MSVC\14.44.35207\include\xtree
;	COMDAT ??$_Freenode0@V?$allocator@U?$_Tree_node@U?$pair@$$CBKPAUSMobTable@CPythonNonPlayer@@@std@@PAX@std@@@std@@@?$_Tree_node@U?$pair@$$CBKPAUSMobTable@CPythonNonPlayer@@@std@@PAX@std@@SAXAAV?$allocator@U?$_Tree_node@U?$pair@$$CBKPAUSMobTable@CPythonNonPlayer@@@std@@PAX@std@@@1@PAU01@@Z
_TEXT	SEGMENT
??$_Freenode0@V?$allocator@U?$_Tree_node@U?$pair@$$CBKPAUSMobTable@CPythonNonPlayer@@@std@@PAX@std@@@std@@@?$_Tree_node@U?$pair@$$CBKPAUSMobTable@CPythonNonPlayer@@@std@@PAX@std@@SAXAAV?$allocator@U?$_Tree_node@U?$pair@$$CBKPAUSMobTable@CPythonNonPlayer@@@std@@PAX@std@@@1@PAU01@@Z PROC ; std::_Tree_node<std::pair<unsigned long const ,CPythonNonPlayer::SMobTable *>,void *>::_Freenode0<std::allocator<std::_Tree_node<std::pair<unsigned long const ,CPythonNonPlayer::SMobTable *>,void *> > >, COMDAT
; __Al$dead$ = ecx
; __Ptr$ = edx
; File C:\Program Files\Microsoft Visual Studio\2022\Community\VC\Tools\MSVC\14.44.35207\include\xmemory

; 289  :         ::operator delete(_Ptr, _Bytes);

  00000	6a 18		 push	 24			; 00000018H
  00002	52		 push	 edx
  00003	e8 00 00 00 00	 call	 ??3@YAXPAXI@Z		; operator delete
  00008	83 c4 08	 add	 esp, 8
; File C:\Program Files\Microsoft Visual Studio\2022\Community\VC\Tools\MSVC\14.44.35207\include\xtree

; 376  :     }

  0000b	c3		 ret	 0
??$_Freenode0@V?$allocator@U?$_Tree_node@U?$pair@$$CBKPAUSMobTable@CPythonNonPlayer@@@std@@PAX@std@@@std@@@?$_Tree_node@U?$pair@$$CBKPAUSMobTable@CPythonNonPlayer@@@std@@PAX@std@@SAXAAV?$allocator@U?$_Tree_node@U?$pair@$$CBKPAUSMobTable@CPythonNonPlayer@@@std@@PAX@std@@@1@PAU01@@Z ENDP ; std::_Tree_node<std::pair<unsigned long const ,CPythonNonPlayer::SMobTable *>,void *>::_Freenode0<std::allocator<std::_Tree_node<std::pair<unsigned long const ,CPythonNonPlayer::SMobTable *>,void *> > >
_TEXT	ENDS
; Function compile flags: /Ogtp
; File C:\Program Files\Microsoft Visual Studio\2022\Community\VC\Tools\MSVC\14.44.35207\include\type_traits
;	COMDAT ??$addressof@U?$pair@$$CBKPAUSMobTable@CPythonNonPlayer@@@std@@@std@@YAPAU?$pair@$$CBKPAUSMobTable@CPythonNonPlayer@@@0@AAU10@@Z
_TEXT	SEGMENT
??$addressof@U?$pair@$$CBKPAUSMobTable@CPythonNonPlayer@@@std@@@std@@YAPAU?$pair@$$CBKPAUSMobTable@CPythonNonPlayer@@@0@AAU10@@Z PROC ; std::addressof<std::pair<unsigned long const ,CPythonNonPlayer::SMobTable *> >, COMDAT
; __Val$ = ecx

; 1525 :     return __builtin_addressof(_Val);

  00000	8b c1		 mov	 eax, ecx

; 1526 : }

  00002	c3		 ret	 0
??$addressof@U?$pair@$$CBKPAUSMobTable@CPythonNonPlayer@@@std@@@std@@YAPAU?$pair@$$CBKPAUSMobTable@CPythonNonPlayer@@@0@AAU10@@Z ENDP ; std::addressof<std::pair<unsigned long const ,CPythonNonPlayer::SMobTable *> >
_TEXT	ENDS
; Function compile flags: /Ogtp
; File C:\Program Files\Microsoft Visual Studio\2022\Community\VC\Tools\MSVC\14.44.35207\include\type_traits
;	COMDAT ??$addressof@V?$_Tree_val@U?$_Tree_simple_types@U?$pair@$$CBKPAUSMobTable@CPythonNonPlayer@@@std@@@std@@@std@@@std@@YAPAV?$_Tree_val@U?$_Tree_simple_types@U?$pair@$$CBKPAUSMobTable@CPythonNonPlayer@@@std@@@std@@@0@AAV10@@Z
_TEXT	SEGMENT
??$addressof@V?$_Tree_val@U?$_Tree_simple_types@U?$pair@$$CBKPAUSMobTable@CPythonNonPlayer@@@std@@@std@@@std@@@std@@YAPAV?$_Tree_val@U?$_Tree_simple_types@U?$pair@$$CBKPAUSMobTable@CPythonNonPlayer@@@std@@@std@@@0@AAV10@@Z PROC ; std::addressof<std::_Tree_val<std::_Tree_simple_types<std::pair<unsigned long const ,CPythonNonPlayer::SMobTable *> > > >, COMDAT
; __Val$ = ecx

; 1525 :     return __builtin_addressof(_Val);

  00000	8b c1		 mov	 eax, ecx

; 1526 : }

  00002	c3		 ret	 0
??$addressof@V?$_Tree_val@U?$_Tree_simple_types@U?$pair@$$CBKPAUSMobTable@CPythonNonPlayer@@@std@@@std@@@std@@@std@@YAPAV?$_Tree_val@U?$_Tree_simple_types@U?$pair@$$CBKPAUSMobTable@CPythonNonPlayer@@@std@@@std@@@0@AAV10@@Z ENDP ; std::addressof<std::_Tree_val<std::_Tree_simple_types<std::pair<unsigned long const ,CPythonNonPlayer::SMobTable *> > > >
_TEXT	ENDS
; Function compile flags: /Ogtp
; File C:\Program Files\Microsoft Visual Studio\2022\Community\VC\Tools\MSVC\14.44.35207\include\xmemory
; File C:\Program Files\Microsoft Visual Studio\2022\Community\VC\Tools\MSVC\14.44.35207\include\xtree
; File C:\Program Files\Microsoft Visual Studio\2022\Community\VC\Tools\MSVC\14.44.35207\include\xmemory
; File C:\Program Files\Microsoft Visual Studio\2022\Community\VC\Tools\MSVC\14.44.35207\include\xtree
; File C:\Program Files\Microsoft Visual Studio\2022\Community\VC\Tools\MSVC\14.44.35207\include\xmemory
;	COMDAT ??$?0ABU?$less@K@std@@U_Zero_then_variadic_args_t@1@@?$_Compressed_pair@U?$less@K@std@@V?$_Compressed_pair@V?$allocator@U?$_Tree_node@U?$pair@$$CBKPAUSMobTable@CPythonNonPlayer@@@std@@PAX@std@@@std@@V?$_Tree_val@U?$_Tree_simple_types@U?$pair@$$CBKPAUSMobTable@CPythonNonPlayer@@@std@@@std@@@2@$00@2@$00@std@@QAE@U_One_then_variadic_args_t@1@ABU?$less@K@1@$$QAU_Zero_then_variadic_args_t@1@@Z
_TEXT	SEGMENT
___formal$ = 8						; size = 1
__Val1$dead$ = 12					; size = 4
_<_Val2_0>$dead$ = 16					; size = 4
??$?0ABU?$less@K@std@@U_Zero_then_variadic_args_t@1@@?$_Compressed_pair@U?$less@K@std@@V?$_Compressed_pair@V?$allocator@U?$_Tree_node@U?$pair@$$CBKPAUSMobTable@CPythonNonPlayer@@@std@@PAX@std@@@std@@V?$_Tree_val@U?$_Tree_simple_types@U?$pair@$$CBKPAUSMobTable@CPythonNonPlayer@@@std@@@std@@@2@$00@2@$00@std@@QAE@U_One_then_variadic_args_t@1@ABU?$less@K@1@$$QAU_Zero_then_variadic_args_t@1@@Z PROC ; std::_Compressed_pair<std::less<unsigned long>,std::_Compressed_pair<std::allocator<std::_Tree_node<std::pair<unsigned long const ,CPythonNonPlayer::SMobTable *>,void *> >,std::_Tree_val<std::_Tree_simple_types<std::pair<unsigned long const ,CPythonNonPlayer::SMobTable *> > >,1>,1>::_Compressed_pair<std::less<unsigned long>,std::_Compressed_pair<std::allocator<std::_Tree_node<std::pair<unsigned long const ,CPythonNonPlayer::SMobTable *>,void *> >,std::_Tree_val<std::_Tree_simple_types<std::pair<unsigned long const ,CPythonNonPlayer::SMobTable *> > >,1>,1><std::less<unsigned long> const &,std::_Zero_then_variadic_args_t>, COMDAT
; _this$ = ecx
; File C:\Program Files\Microsoft Visual Studio\2022\Community\VC\Tools\MSVC\14.44.35207\include\xtree

; 450  :     _Tree_val() noexcept : _Myhead(), _Mysize(0) {}

  00000	c7 01 00 00 00
	00		 mov	 DWORD PTR [ecx], 0
; File C:\Program Files\Microsoft Visual Studio\2022\Community\VC\Tools\MSVC\14.44.35207\include\xmemory

; 1536 :         : _Ty1(_STD forward<_Other1>(_Val1)), _Myval2(_STD forward<_Other2>(_Val2)...) {}

  00006	8b c1		 mov	 eax, ecx
; File C:\Program Files\Microsoft Visual Studio\2022\Community\VC\Tools\MSVC\14.44.35207\include\xtree

; 450  :     _Tree_val() noexcept : _Myhead(), _Mysize(0) {}

  00008	c7 41 04 00 00
	00 00		 mov	 DWORD PTR [ecx+4], 0
; File C:\Program Files\Microsoft Visual Studio\2022\Community\VC\Tools\MSVC\14.44.35207\include\xmemory

; 1536 :         : _Ty1(_STD forward<_Other1>(_Val1)), _Myval2(_STD forward<_Other2>(_Val2)...) {}

  0000f	c2 0c 00	 ret	 12			; 0000000cH
??$?0ABU?$less@K@std@@U_Zero_then_variadic_args_t@1@@?$_Compressed_pair@U?$less@K@std@@V?$_Compressed_pair@V?$allocator@U?$_Tree_node@U?$pair@$$CBKPAUSMobTable@CPythonNonPlayer@@@std@@PAX@std@@@std@@V?$_Tree_val@U?$_Tree_simple_types@U?$pair@$$CBKPAUSMobTable@CPythonNonPlayer@@@std@@@std@@@2@$00@2@$00@std@@QAE@U_One_then_variadic_args_t@1@ABU?$less@K@1@$$QAU_Zero_then_variadic_args_t@1@@Z ENDP ; std::_Compressed_pair<std::less<unsigned long>,std::_Compressed_pair<std::allocator<std::_Tree_node<std::pair<unsigned long const ,CPythonNonPlayer::SMobTable *>,void *> >,std::_Tree_val<std::_Tree_simple_types<std::pair<unsigned long const ,CPythonNonPlayer::SMobTable *> > >,1>,1>::_Compressed_pair<std::less<unsigned long>,std::_Compressed_pair<std::allocator<std::_Tree_node<std::pair<unsigned long const ,CPythonNonPlayer::SMobTable *>,void *> >,std::_Tree_val<std::_Tree_simple_types<std::pair<unsigned long const ,CPythonNonPlayer::SMobTable *> > >,1>,1><std::less<unsigned long> const &,std::_Zero_then_variadic_args_t>
_TEXT	ENDS
; Function compile flags: /Ogtp
; File C:\Program Files\Microsoft Visual Studio\2022\Community\VC\Tools\MSVC\14.44.35207\include\xmemory
; File C:\Program Files\Microsoft Visual Studio\2022\Community\VC\Tools\MSVC\14.44.35207\include\utility
; File C:\Program Files\Microsoft Visual Studio\2022\Community\VC\Tools\MSVC\14.44.35207\include\xmemory
;	COMDAT ?_Release@?$_Alloc_construct_ptr@V?$allocator@U?$_Tree_node@U?$pair@$$CBKPAUSMobTable@CPythonNonPlayer@@@std@@PAX@std@@@std@@@std@@QAEPAU?$_Tree_node@U?$pair@$$CBKPAUSMobTable@CPythonNonPlayer@@@std@@PAX@2@XZ
_TEXT	SEGMENT
?_Release@?$_Alloc_construct_ptr@V?$allocator@U?$_Tree_node@U?$pair@$$CBKPAUSMobTable@CPythonNonPlayer@@@std@@PAX@std@@@std@@@std@@QAEPAU?$_Tree_node@U?$pair@$$CBKPAUSMobTable@CPythonNonPlayer@@@std@@PAX@2@XZ PROC ; std::_Alloc_construct_ptr<std::allocator<std::_Tree_node<std::pair<unsigned long const ,CPythonNonPlayer::SMobTable *>,void *> > >::_Release, COMDAT
; _this$ = ecx
; File C:\Program Files\Microsoft Visual Studio\2022\Community\VC\Tools\MSVC\14.44.35207\include\utility

; 773  :     _Ty _Old_val = static_cast<_Ty&&>(_Val);

  00000	8b 41 04	 mov	 eax, DWORD PTR [ecx+4]

; 774  :     _Val         = static_cast<_Other&&>(_New_val);

  00003	c7 41 04 00 00
	00 00		 mov	 DWORD PTR [ecx+4], 0
; File C:\Program Files\Microsoft Visual Studio\2022\Community\VC\Tools\MSVC\14.44.35207\include\xmemory

; 1164 :     }

  0000a	c3		 ret	 0
?_Release@?$_Alloc_construct_ptr@V?$allocator@U?$_Tree_node@U?$pair@$$CBKPAUSMobTable@CPythonNonPlayer@@@std@@PAX@std@@@std@@@std@@QAEPAU?$_Tree_node@U?$pair@$$CBKPAUSMobTable@CPythonNonPlayer@@@std@@PAX@2@XZ ENDP ; std::_Alloc_construct_ptr<std::allocator<std::_Tree_node<std::pair<unsigned long const ,CPythonNonPlayer::SMobTable *>,void *> > >::_Release
_TEXT	ENDS
; Function compile flags: /Ogtp
; File C:\Program Files\Microsoft Visual Studio\2022\Community\VC\Tools\MSVC\14.44.35207\include\xtree
; File C:\Program Files\Microsoft Visual Studio\2022\Community\VC\Tools\MSVC\14.44.35207\include\xmemory
; File C:\Program Files\Microsoft Visual Studio\2022\Community\VC\Tools\MSVC\14.44.35207\include\xtree
;	COMDAT ??1?$_Tree_temp_node@V?$allocator@U?$_Tree_node@U?$pair@$$CBKPAUSMobTable@CPythonNonPlayer@@@std@@PAX@std@@@std@@@std@@QAE@XZ
_TEXT	SEGMENT
??1?$_Tree_temp_node@V?$allocator@U?$_Tree_node@U?$pair@$$CBKPAUSMobTable@CPythonNonPlayer@@@std@@PAX@std@@@std@@@std@@QAE@XZ PROC ; std::_Tree_temp_node<std::allocator<std::_Tree_node<std::pair<unsigned long const ,CPythonNonPlayer::SMobTable *>,void *> > >::~_Tree_temp_node<std::allocator<std::_Tree_node<std::pair<unsigned long const ,CPythonNonPlayer::SMobTable *>,void *> > >, COMDAT
; _this$ = ecx
; File C:\Program Files\Microsoft Visual Studio\2022\Community\VC\Tools\MSVC\14.44.35207\include\xmemory

; 1172 :         if (_Ptr) {

  00000	8b 41 04	 mov	 eax, DWORD PTR [ecx+4]
  00003	85 c0		 test	 eax, eax
  00005	74 0b		 je	 SHORT $LN17@Tree_temp_

; 289  :         ::operator delete(_Ptr, _Bytes);

  00007	6a 18		 push	 24			; 00000018H
  00009	50		 push	 eax
  0000a	e8 00 00 00 00	 call	 ??3@YAXPAXI@Z		; operator delete
  0000f	83 c4 08	 add	 esp, 8
$LN17@Tree_temp_:
; File C:\Program Files\Microsoft Visual Studio\2022\Community\VC\Tools\MSVC\14.44.35207\include\xtree

; 848  :     }

  00012	c3		 ret	 0
??1?$_Tree_temp_node@V?$allocator@U?$_Tree_node@U?$pair@$$CBKPAUSMobTable@CPythonNonPlayer@@@std@@PAX@std@@@std@@@std@@QAE@XZ ENDP ; std::_Tree_temp_node<std::allocator<std::_Tree_node<std::pair<unsigned long const ,CPythonNonPlayer::SMobTable *>,void *> > >::~_Tree_temp_node<std::allocator<std::_Tree_node<std::pair<unsigned long const ,CPythonNonPlayer::SMobTable *>,void *> > >
_TEXT	ENDS
; Function compile flags: /Ogtp
; File C:\Program Files\Microsoft Visual Studio\2022\Community\VC\Tools\MSVC\14.44.35207\include\xmemory
;	COMDAT ?_Extract@?$_In_place_key_extract_map_impl@KU?$pair@$$CBKPAUSMobTable@CPythonNonPlayer@@@std@@@std@@SAABKABU?$pair@$$CBKPAUSMobTable@CPythonNonPlayer@@@2@@Z
_TEXT	SEGMENT
?_Extract@?$_In_place_key_extract_map_impl@KU?$pair@$$CBKPAUSMobTable@CPythonNonPlayer@@@std@@@std@@SAABKABU?$pair@$$CBKPAUSMobTable@CPythonNonPlayer@@@2@@Z PROC ; std::_In_place_key_extract_map_impl<unsigned long,std::pair<unsigned long const ,CPythonNonPlayer::SMobTable *> >::_Extract, COMDAT
; __Val$ = ecx

; 2175 :         return _Val.first;

  00000	8b c1		 mov	 eax, ecx

; 2176 :     }

  00002	c3		 ret	 0
?_Extract@?$_In_place_key_extract_map_impl@KU?$pair@$$CBKPAUSMobTable@CPythonNonPlayer@@@std@@@std@@SAABKABU?$pair@$$CBKPAUSMobTable@CPythonNonPlayer@@@2@@Z ENDP ; std::_In_place_key_extract_map_impl<unsigned long,std::pair<unsigned long const ,CPythonNonPlayer::SMobTable *> >::_Extract
_TEXT	ENDS
; Function compile flags: /Ogtp
; File C:\Program Files\Microsoft Visual Studio\2022\Community\VC\Tools\MSVC\14.44.35207\include\xmemory
;	COMDAT ?_Get_first@?$_Compressed_pair@V?$allocator@U?$_Tree_node@U?$pair@$$CBKPAUSMobTable@CPythonNonPlayer@@@std@@PAX@std@@@std@@V?$_Tree_val@U?$_Tree_simple_types@U?$pair@$$CBKPAUSMobTable@CPythonNonPlayer@@@std@@@std@@@2@$00@std@@QAEAAV?$allocator@U?$_Tree_node@U?$pair@$$CBKPAUSMobTable@CPythonNonPlayer@@@std@@PAX@std@@@2@XZ
_TEXT	SEGMENT
?_Get_first@?$_Compressed_pair@V?$allocator@U?$_Tree_node@U?$pair@$$CBKPAUSMobTable@CPythonNonPlayer@@@std@@PAX@std@@@std@@V?$_Tree_val@U?$_Tree_simple_types@U?$pair@$$CBKPAUSMobTable@CPythonNonPlayer@@@std@@@std@@@2@$00@std@@QAEAAV?$allocator@U?$_Tree_node@U?$pair@$$CBKPAUSMobTable@CPythonNonPlayer@@@std@@PAX@std@@@2@XZ PROC ; std::_Compressed_pair<std::allocator<std::_Tree_node<std::pair<unsigned long const ,CPythonNonPlayer::SMobTable *>,void *> >,std::_Tree_val<std::_Tree_simple_types<std::pair<unsigned long const ,CPythonNonPlayer::SMobTable *> > >,1>::_Get_first, COMDAT
; _this$ = ecx

; 1539 :         return *this;

  00000	8b c1		 mov	 eax, ecx

; 1540 :     }

  00002	c3		 ret	 0
?_Get_first@?$_Compressed_pair@V?$allocator@U?$_Tree_node@U?$pair@$$CBKPAUSMobTable@CPythonNonPlayer@@@std@@PAX@std@@@std@@V?$_Tree_val@U?$_Tree_simple_types@U?$pair@$$CBKPAUSMobTable@CPythonNonPlayer@@@std@@@std@@@2@$00@std@@QAEAAV?$allocator@U?$_Tree_node@U?$pair@$$CBKPAUSMobTable@CPythonNonPlayer@@@std@@PAX@std@@@2@XZ ENDP ; std::_Compressed_pair<std::allocator<std::_Tree_node<std::pair<unsigned long const ,CPythonNonPlayer::SMobTable *>,void *> >,std::_Tree_val<std::_Tree_simple_types<std::pair<unsigned long const ,CPythonNonPlayer::SMobTable *> > >,1>::_Get_first
_TEXT	ENDS
; Function compile flags: /Ogtp
; File C:\Program Files\Microsoft Visual Studio\2022\Community\VC\Tools\MSVC\14.44.35207\include\xtree
;	COMDAT ??E?$_Tree_unchecked_const_iterator@V?$_Tree_val@U?$_Tree_simple_types@U?$pair@$$CBKPAUSMobTable@CPythonNonPlayer@@@std@@@std@@@std@@U_Iterator_base0@2@@std@@QAEAAV01@XZ
_TEXT	SEGMENT
??E?$_Tree_unchecked_const_iterator@V?$_Tree_val@U?$_Tree_simple_types@U?$pair@$$CBKPAUSMobTable@CPythonNonPlayer@@@std@@@std@@@std@@U_Iterator_base0@2@@std@@QAEAAV01@XZ PROC ; std::_Tree_unchecked_const_iterator<std::_Tree_val<std::_Tree_simple_types<std::pair<unsigned long const ,CPythonNonPlayer::SMobTable *> > >,std::_Iterator_base0>::operator++, COMDAT
; _this$ = ecx

; 49   :     _Tree_unchecked_const_iterator& operator++() noexcept {

  00000	56		 push	 esi
  00001	8b f1		 mov	 esi, ecx
  00003	57		 push	 edi

; 50   :         if (_Ptr->_Right->_Isnil) { // climb looking for right subtree

  00004	8b 16		 mov	 edx, DWORD PTR [esi]
  00006	8b 7a 08	 mov	 edi, DWORD PTR [edx+8]
  00009	80 7f 0d 00	 cmp	 BYTE PTR [edi+13], 0
  0000d	74 22		 je	 SHORT $LN4@operator

; 51   :             _Nodeptr _Pnode;
; 52   :             while (!(_Pnode = _Ptr->_Parent)->_Isnil && _Ptr == _Pnode->_Right) {

  0000f	8b 42 04	 mov	 eax, DWORD PTR [edx+4]
  00012	80 78 0d 00	 cmp	 BYTE PTR [eax+13], 0
  00016	75 12		 jne	 SHORT $LN21@operator
$LL2@operator:
  00018	3b 50 08	 cmp	 edx, DWORD PTR [eax+8]
  0001b	75 0d		 jne	 SHORT $LN21@operator

; 53   :                 _Ptr = _Pnode; // ==> parent while right subtree

  0001d	89 06		 mov	 DWORD PTR [esi], eax
  0001f	8b d0		 mov	 edx, eax
  00021	8b 40 04	 mov	 eax, DWORD PTR [eax+4]
  00024	80 78 0d 00	 cmp	 BYTE PTR [eax+13], 0
  00028	74 ee		 je	 SHORT $LL2@operator
$LN21@operator:

; 54   :             }
; 55   : 
; 56   :             _Ptr = _Pnode; // ==> parent (head if end())
; 57   :         } else {
; 58   :             _Ptr = _Mytree::_Min(_Ptr->_Right); // ==> smallest of right subtree
; 59   :         }
; 60   : 
; 61   :         return *this;

  0002a	89 06		 mov	 DWORD PTR [esi], eax

; 62   :     }

  0002c	8b c6		 mov	 eax, esi
  0002e	5f		 pop	 edi
  0002f	5e		 pop	 esi
  00030	c3		 ret	 0
$LN4@operator:

; 476  :         while (!_Pnode->_Left->_Isnil) {

  00031	8b 0f		 mov	 ecx, DWORD PTR [edi]
  00033	80 79 0d 00	 cmp	 BYTE PTR [ecx+13], 0
  00037	75 13		 jne	 SHORT $LN10@operator
  00039	0f 1f 80 00 00
	00 00		 npad	 7
$LL9@operator:
  00040	8b 01		 mov	 eax, DWORD PTR [ecx]

; 477  :             _Pnode = _Pnode->_Left;

  00042	8b f9		 mov	 edi, ecx
  00044	8b c8		 mov	 ecx, eax
  00046	80 78 0d 00	 cmp	 BYTE PTR [eax+13], 0
  0004a	74 f4		 je	 SHORT $LL9@operator
$LN10@operator:

; 54   :             }
; 55   : 
; 56   :             _Ptr = _Pnode; // ==> parent (head if end())
; 57   :         } else {
; 58   :             _Ptr = _Mytree::_Min(_Ptr->_Right); // ==> smallest of right subtree
; 59   :         }
; 60   : 
; 61   :         return *this;

  0004c	89 3e		 mov	 DWORD PTR [esi], edi

; 62   :     }

  0004e	8b c6		 mov	 eax, esi
  00050	5f		 pop	 edi
  00051	5e		 pop	 esi
  00052	c3		 ret	 0
??E?$_Tree_unchecked_const_iterator@V?$_Tree_val@U?$_Tree_simple_types@U?$pair@$$CBKPAUSMobTable@CPythonNonPlayer@@@std@@@std@@@std@@U_Iterator_base0@2@@std@@QAEAAV01@XZ ENDP ; std::_Tree_unchecked_const_iterator<std::_Tree_val<std::_Tree_simple_types<std::pair<unsigned long const ,CPythonNonPlayer::SMobTable *> > >,std::_Iterator_base0>::operator++
_TEXT	ENDS
; Function compile flags: /Ogtp
; File C:\Program Files\Microsoft Visual Studio\2022\Community\VC\Tools\MSVC\14.44.35207\include\xtree
;	COMDAT ??D?$_Tree_const_iterator@V?$_Tree_val@U?$_Tree_simple_types@U?$pair@$$CBKPAUSMobTable@CPythonNonPlayer@@@std@@@std@@@std@@@std@@QBEABU?$pair@$$CBKPAUSMobTable@CPythonNonPlayer@@@1@XZ
_TEXT	SEGMENT
??D?$_Tree_const_iterator@V?$_Tree_val@U?$_Tree_simple_types@U?$pair@$$CBKPAUSMobTable@CPythonNonPlayer@@@std@@@std@@@std@@@std@@QBEABU?$pair@$$CBKPAUSMobTable@CPythonNonPlayer@@@1@XZ PROC ; std::_Tree_const_iterator<std::_Tree_val<std::_Tree_simple_types<std::pair<unsigned long const ,CPythonNonPlayer::SMobTable *> > > >::operator*, COMDAT
; _this$ = ecx

; 179  : #if _ITERATOR_DEBUG_LEVEL == 2
; 180  :         const auto _Mycont = static_cast<const _Mytree*>(this->_Getcont());
; 181  :         _STL_VERIFY(_Mycont, "cannot dereference value-initialized map/set iterator");
; 182  :         _STL_VERIFY(this->_Ptr != _Mycont->_Myhead, "cannot dereference end map/set iterator");
; 183  : #endif // _ITERATOR_DEBUG_LEVEL == 2
; 184  : 
; 185  :         return this->_Ptr->_Myval;

  00000	8b 01		 mov	 eax, DWORD PTR [ecx]
  00002	83 c0 10	 add	 eax, 16			; 00000010H

; 186  :     }

  00005	c3		 ret	 0
??D?$_Tree_const_iterator@V?$_Tree_val@U?$_Tree_simple_types@U?$pair@$$CBKPAUSMobTable@CPythonNonPlayer@@@std@@@std@@@std@@@std@@QBEABU?$pair@$$CBKPAUSMobTable@CPythonNonPlayer@@@1@XZ ENDP ; std::_Tree_const_iterator<std::_Tree_val<std::_Tree_simple_types<std::pair<unsigned long const ,CPythonNonPlayer::SMobTable *> > > >::operator*
_TEXT	ENDS
; Function compile flags: /Ogtp
; File C:\Program Files\Microsoft Visual Studio\2022\Community\VC\Tools\MSVC\14.44.35207\include\xtree
;	COMDAT ?_Insert_node@?$_Tree_val@U?$_Tree_simple_types@U?$pair@$$CBKPAUSMobTable@CPythonNonPlayer@@@std@@@std@@@std@@QAEPAU?$_Tree_node@U?$pair@$$CBKPAUSMobTable@CPythonNonPlayer@@@std@@PAX@2@U?$_Tree_id@PAU?$_Tree_node@U?$pair@$$CBKPAUSMobTable@CPythonNonPlayer@@@std@@PAX@std@@@2@QAU32@@Z
_TEXT	SEGMENT
__Head$1$ = -4						; size = 4
__Loc$ = 8						; size = 8
__Newnode$ = 16						; size = 4
?_Insert_node@?$_Tree_val@U?$_Tree_simple_types@U?$pair@$$CBKPAUSMobTable@CPythonNonPlayer@@@std@@@std@@@std@@QAEPAU?$_Tree_node@U?$pair@$$CBKPAUSMobTable@CPythonNonPlayer@@@std@@PAX@2@U?$_Tree_id@PAU?$_Tree_node@U?$pair@$$CBKPAUSMobTable@CPythonNonPlayer@@@std@@PAX@std@@@2@QAU32@@Z PROC ; std::_Tree_val<std::_Tree_simple_types<std::pair<unsigned long const ,CPythonNonPlayer::SMobTable *> > >::_Insert_node, COMDAT
; _this$ = ecx

; 669  :     _Nodeptr _Insert_node(const _Tree_id<_Nodeptr> _Loc, const _Nodeptr _Newnode) noexcept {

  00000	55		 push	 ebp
  00001	8b ec		 mov	 ebp, esp
  00003	51		 push	 ecx

; 670  :         ++_Mysize;
; 671  :         const auto _Head  = _Myhead;
; 672  :         _Newnode->_Parent = _Loc._Parent;

  00004	8b 55 08	 mov	 edx, DWORD PTR __Loc$[ebp]
  00007	53		 push	 ebx
  00008	8b d9		 mov	 ebx, ecx
  0000a	57		 push	 edi
  0000b	8b 7d 10	 mov	 edi, DWORD PTR __Newnode$[ebp]
  0000e	8b 03		 mov	 eax, DWORD PTR [ebx]
  00010	ff 43 04	 inc	 DWORD PTR [ebx+4]
  00013	89 45 fc	 mov	 DWORD PTR __Head$1$[ebp], eax
  00016	89 57 04	 mov	 DWORD PTR [edi+4], edx

; 673  :         if (_Loc._Parent == _Head) { // first node in tree, just set head values

  00019	3b d0		 cmp	 edx, eax
  0001b	75 16		 jne	 SHORT $LN5@Insert_nod

; 674  :             _Head->_Left     = _Newnode;

  0001d	89 38		 mov	 DWORD PTR [eax], edi

; 675  :             _Head->_Parent   = _Newnode;

  0001f	89 78 04	 mov	 DWORD PTR [eax+4], edi

; 676  :             _Head->_Right    = _Newnode;

  00022	89 78 08	 mov	 DWORD PTR [eax+8], edi

; 735  :         return _Newnode;
; 736  :     }

  00025	8b c7		 mov	 eax, edi
  00027	c6 47 0c 01	 mov	 BYTE PTR [edi+12], 1
  0002b	5f		 pop	 edi
  0002c	5b		 pop	 ebx
  0002d	8b e5		 mov	 esp, ebp
  0002f	5d		 pop	 ebp
  00030	c2 0c 00	 ret	 12			; 0000000cH
$LN5@Insert_nod:

; 677  :             _Newnode->_Color = _Black; // the root is black
; 678  :             return _Newnode;
; 679  :         }
; 680  : 
; 681  :         _STL_INTERNAL_CHECK(_Loc._Child != _Tree_child::_Unused);
; 682  :         if (_Loc._Child == _Tree_child::_Right) { // add to right of _Loc._Parent

  00033	83 7d 0c 00	 cmp	 DWORD PTR __Loc$[ebp+4], 0
  00037	75 0d		 jne	 SHORT $LN6@Insert_nod

; 683  :             _STL_INTERNAL_CHECK(_Loc._Parent->_Right->_Isnil);
; 684  :             _Loc._Parent->_Right = _Newnode;

  00039	89 7a 08	 mov	 DWORD PTR [edx+8], edi

; 685  :             if (_Loc._Parent == _Head->_Right) { // remember rightmost node

  0003c	3b 50 08	 cmp	 edx, DWORD PTR [eax+8]
  0003f	75 0d		 jne	 SHORT $LN9@Insert_nod

; 686  :                 _Head->_Right = _Newnode;

  00041	89 78 08	 mov	 DWORD PTR [eax+8], edi

; 687  :             }
; 688  :         } else { // add to left of _Loc._Parent

  00044	eb 08		 jmp	 SHORT $LN9@Insert_nod
$LN6@Insert_nod:

; 689  :             _STL_INTERNAL_CHECK(_Loc._Parent->_Left->_Isnil);
; 690  :             _Loc._Parent->_Left = _Newnode;

  00046	89 3a		 mov	 DWORD PTR [edx], edi

; 691  :             if (_Loc._Parent == _Head->_Left) { // remember leftmost node

  00048	3b 10		 cmp	 edx, DWORD PTR [eax]
  0004a	75 02		 jne	 SHORT $LN9@Insert_nod

; 692  :                 _Head->_Left = _Newnode;

  0004c	89 38		 mov	 DWORD PTR [eax], edi
$LN9@Insert_nod:

; 693  :             }
; 694  :         }
; 695  : 
; 696  :         for (_Nodeptr _Pnode = _Newnode; _Pnode->_Parent->_Color == _Red;) {

  0004e	8b 4f 04	 mov	 ecx, DWORD PTR [edi+4]
  00051	8b c7		 mov	 eax, edi
  00053	80 79 0c 00	 cmp	 BYTE PTR [ecx+12], 0
  00057	0f 85 7d 01 00
	00		 jne	 $LN3@Insert_nod
  0005d	56		 push	 esi
  0005e	66 90		 npad	 2
$LL4@Insert_nod:

; 697  :             if (_Pnode->_Parent == _Pnode->_Parent->_Parent->_Left) { // fixup red-red in left subtree

  00060	8b 50 04	 mov	 edx, DWORD PTR [eax+4]
  00063	8b 72 04	 mov	 esi, DWORD PTR [edx+4]
  00066	8b 0e		 mov	 ecx, DWORD PTR [esi]
  00068	3b d1		 cmp	 edx, ecx
  0006a	0f 85 aa 00 00
	00		 jne	 $LN10@Insert_nod

; 698  :                 const auto _Parent_sibling = _Pnode->_Parent->_Parent->_Right;

  00070	8b 4e 08	 mov	 ecx, DWORD PTR [esi+8]

; 699  :                 if (_Parent_sibling->_Color == _Red) { // parent's sibling has two red children, blacken both

  00073	80 79 0c 00	 cmp	 BYTE PTR [ecx+12], 0
  00077	0f 84 a3 00 00
	00		 je	 $LN82@Insert_nod

; 700  :                     _Pnode->_Parent->_Color          = _Black;
; 701  :                     _Parent_sibling->_Color          = _Black;
; 702  :                     _Pnode->_Parent->_Parent->_Color = _Red;
; 703  :                     _Pnode                           = _Pnode->_Parent->_Parent;
; 704  :                 } else { // parent's sibling has red and black children
; 705  :                     if (_Pnode == _Pnode->_Parent->_Right) { // rotate right child to left

  0007d	8b 72 08	 mov	 esi, DWORD PTR [edx+8]
  00080	3b c6		 cmp	 eax, esi
  00082	75 37		 jne	 SHORT $LN57@Insert_nod

; 485  :         _Wherenode->_Right = _Pnode->_Left;

  00084	8b 0e		 mov	 ecx, DWORD PTR [esi]

; 706  :                         _Pnode = _Pnode->_Parent;

  00086	8b c2		 mov	 eax, edx

; 485  :         _Wherenode->_Right = _Pnode->_Left;

  00088	89 4a 08	 mov	 DWORD PTR [edx+8], ecx

; 486  : 
; 487  :         if (!_Pnode->_Left->_Isnil) {

  0008b	8b 0e		 mov	 ecx, DWORD PTR [esi]
  0008d	80 79 0d 00	 cmp	 BYTE PTR [ecx+13], 0
  00091	75 03		 jne	 SHORT $LN21@Insert_nod

; 488  :             _Pnode->_Left->_Parent = _Wherenode;

  00093	89 41 04	 mov	 DWORD PTR [ecx+4], eax
$LN21@Insert_nod:

; 489  :         }
; 490  : 
; 491  :         _Pnode->_Parent = _Wherenode->_Parent;

  00096	8b 4a 04	 mov	 ecx, DWORD PTR [edx+4]
  00099	89 4e 04	 mov	 DWORD PTR [esi+4], ecx

; 492  : 
; 493  :         if (_Wherenode == _Myhead->_Parent) {

  0009c	8b 0b		 mov	 ecx, DWORD PTR [ebx]
  0009e	3b 41 04	 cmp	 eax, DWORD PTR [ecx+4]
  000a1	75 05		 jne	 SHORT $LN22@Insert_nod

; 494  :             _Myhead->_Parent = _Pnode;

  000a3	89 71 04	 mov	 DWORD PTR [ecx+4], esi
  000a6	eb 0e		 jmp	 SHORT $LN25@Insert_nod
$LN22@Insert_nod:

; 495  :         } else if (_Wherenode == _Wherenode->_Parent->_Left) {

  000a8	8b 4a 04	 mov	 ecx, DWORD PTR [edx+4]
  000ab	3b 01		 cmp	 eax, DWORD PTR [ecx]
  000ad	75 04		 jne	 SHORT $LN24@Insert_nod

; 496  :             _Wherenode->_Parent->_Left = _Pnode;

  000af	89 31		 mov	 DWORD PTR [ecx], esi

; 497  :         } else {

  000b1	eb 03		 jmp	 SHORT $LN25@Insert_nod
$LN24@Insert_nod:

; 498  :             _Wherenode->_Parent->_Right = _Pnode;

  000b3	89 71 08	 mov	 DWORD PTR [ecx+8], esi
$LN25@Insert_nod:

; 499  :         }
; 500  : 
; 501  :         _Pnode->_Left       = _Wherenode;

  000b6	89 06		 mov	 DWORD PTR [esi], eax

; 502  :         _Wherenode->_Parent = _Pnode;

  000b8	89 70 04	 mov	 DWORD PTR [eax+4], esi
$LN57@Insert_nod:

; 707  :                         _Lrotate(_Pnode);
; 708  :                     }
; 709  : 
; 710  :                     _Pnode->_Parent->_Color          = _Black; // propagate red up

  000bb	8b 48 04	 mov	 ecx, DWORD PTR [eax+4]
  000be	c6 41 0c 01	 mov	 BYTE PTR [ecx+12], 1

; 711  :                     _Pnode->_Parent->_Parent->_Color = _Red;

  000c2	8b 48 04	 mov	 ecx, DWORD PTR [eax+4]
  000c5	8b 49 04	 mov	 ecx, DWORD PTR [ecx+4]
  000c8	c6 41 0c 00	 mov	 BYTE PTR [ecx+12], 0

; 712  :                     _Rrotate(_Pnode->_Parent->_Parent);

  000cc	8b 48 04	 mov	 ecx, DWORD PTR [eax+4]
  000cf	8b 51 04	 mov	 edx, DWORD PTR [ecx+4]

; 506  :         _Nodeptr _Pnode   = _Wherenode->_Left;

  000d2	8b 32		 mov	 esi, DWORD PTR [edx]

; 507  :         _Wherenode->_Left = _Pnode->_Right;

  000d4	8b 4e 08	 mov	 ecx, DWORD PTR [esi+8]
  000d7	89 0a		 mov	 DWORD PTR [edx], ecx

; 508  : 
; 509  :         if (!_Pnode->_Right->_Isnil) {

  000d9	8b 4e 08	 mov	 ecx, DWORD PTR [esi+8]
  000dc	80 79 0d 00	 cmp	 BYTE PTR [ecx+13], 0
  000e0	75 03		 jne	 SHORT $LN29@Insert_nod

; 510  :             _Pnode->_Right->_Parent = _Wherenode;

  000e2	89 51 04	 mov	 DWORD PTR [ecx+4], edx
$LN29@Insert_nod:

; 511  :         }
; 512  : 
; 513  :         _Pnode->_Parent = _Wherenode->_Parent;

  000e5	8b 4a 04	 mov	 ecx, DWORD PTR [edx+4]
  000e8	89 4e 04	 mov	 DWORD PTR [esi+4], ecx

; 514  : 
; 515  :         if (_Wherenode == _Myhead->_Parent) {

  000eb	8b 0b		 mov	 ecx, DWORD PTR [ebx]
  000ed	3b 51 04	 cmp	 edx, DWORD PTR [ecx+4]
  000f0	75 0b		 jne	 SHORT $LN30@Insert_nod

; 516  :             _Myhead->_Parent = _Pnode;

  000f2	89 71 04	 mov	 DWORD PTR [ecx+4], esi

; 521  :         }
; 522  : 
; 523  :         _Pnode->_Right      = _Wherenode;

  000f5	89 56 08	 mov	 DWORD PTR [esi+8], edx

; 713  :                 }
; 714  :             } else { // fixup red-red in right subtree

  000f8	e9 cc 00 00 00	 jmp	 $LN81@Insert_nod
$LN30@Insert_nod:

; 517  :         } else if (_Wherenode == _Wherenode->_Parent->_Right) {

  000fd	8b 4a 04	 mov	 ecx, DWORD PTR [edx+4]
  00100	3b 51 08	 cmp	 edx, DWORD PTR [ecx+8]
  00103	75 0b		 jne	 SHORT $LN32@Insert_nod

; 518  :             _Wherenode->_Parent->_Right = _Pnode;

  00105	89 71 08	 mov	 DWORD PTR [ecx+8], esi

; 521  :         }
; 522  : 
; 523  :         _Pnode->_Right      = _Wherenode;

  00108	89 56 08	 mov	 DWORD PTR [esi+8], edx

; 713  :                 }
; 714  :             } else { // fixup red-red in right subtree

  0010b	e9 b9 00 00 00	 jmp	 $LN81@Insert_nod
$LN32@Insert_nod:

; 520  :             _Wherenode->_Parent->_Left = _Pnode;

  00110	89 31		 mov	 DWORD PTR [ecx], esi

; 521  :         }
; 522  : 
; 523  :         _Pnode->_Right      = _Wherenode;

  00112	89 56 08	 mov	 DWORD PTR [esi+8], edx

; 713  :                 }
; 714  :             } else { // fixup red-red in right subtree

  00115	e9 af 00 00 00	 jmp	 $LN81@Insert_nod
$LN10@Insert_nod:

; 715  :                 const auto _Parent_sibling = _Pnode->_Parent->_Parent->_Left;
; 716  :                 if (_Parent_sibling->_Color == _Red) { // parent's sibling has two red children, blacken both

  0011a	80 79 0c 00	 cmp	 BYTE PTR [ecx+12], 0
  0011e	75 1d		 jne	 SHORT $LN15@Insert_nod
$LN82@Insert_nod:

; 693  :             }
; 694  :         }
; 695  : 
; 696  :         for (_Nodeptr _Pnode = _Newnode; _Pnode->_Parent->_Color == _Red;) {

  00120	c6 42 0c 01	 mov	 BYTE PTR [edx+12], 1
  00124	c6 41 0c 01	 mov	 BYTE PTR [ecx+12], 1
  00128	8b 48 04	 mov	 ecx, DWORD PTR [eax+4]
  0012b	8b 49 04	 mov	 ecx, DWORD PTR [ecx+4]
  0012e	c6 41 0c 00	 mov	 BYTE PTR [ecx+12], 0
  00132	8b 48 04	 mov	 ecx, DWORD PTR [eax+4]
  00135	8b 41 04	 mov	 eax, DWORD PTR [ecx+4]
  00138	e9 8f 00 00 00	 jmp	 $LN2@Insert_nod
$LN15@Insert_nod:

; 717  :                     _Pnode->_Parent->_Color          = _Black;
; 718  :                     _Parent_sibling->_Color          = _Black;
; 719  :                     _Pnode->_Parent->_Parent->_Color = _Red;
; 720  :                     _Pnode                           = _Pnode->_Parent->_Parent;
; 721  :                 } else { // parent's sibling has red and black children
; 722  :                     if (_Pnode == _Pnode->_Parent->_Left) { // rotate left child to right

  0013d	8b 32		 mov	 esi, DWORD PTR [edx]
  0013f	3b c6		 cmp	 eax, esi
  00141	75 3a		 jne	 SHORT $LN42@Insert_nod

; 507  :         _Wherenode->_Left = _Pnode->_Right;

  00143	8b 4e 08	 mov	 ecx, DWORD PTR [esi+8]

