; Listing generated by Microsoft (R) Optimizing Compiler Version 19.44.35217.0 

	TITLE	d:\_m2work\server client tmp4\clientvs22\vs_files\userinterface\distribute\pythontexttail.obj
	.686P
	.XMM
	include listing.inc
	.model	flat

INCLUDELIB OLDNAMES

PUBLIC	??_C@_02DJKOFMLN@?8s@				; `string'
PUBLIC	??_C@_0FG@PPLFOIJH@TextTail?3?5ChatTail?5?$CFd?0?5ChrTail?5@ ; `string'
PUBLIC	??_C@_0DM@EALAGA@?5CPythonTextTail?3?3DeleteItemTex@ ; `string'
PUBLIC	??_C@_0DO@PHLLOPOI@CPythonTextTail?3?3DeleteCharacte@ ; `string'
PUBLIC	??_C@_0DH@ONGBNPOP@CPythonTextTail?3?3Initialize?5?9?5C@ ; `string'
PUBLIC	??_R2?$CDynamicPool@USTextTail@CPythonTextTail@@@@8 ; CDynamicPool<CPythonTextTail::STextTail>::`RTTI Base Class Array'
PUBLIC	??_R2CPythonTextTail@@8				; CPythonTextTail::`RTTI Base Class Array'
PUBLIC	??_R2STextTail@CPythonTextTail@@8		; CPythonTextTail::STextTail::`RTTI Base Class Array'
PUBLIC	??_R2?$CSingleton@VCPythonTextTail@@@@8		; CSingleton<CPythonTextTail>::`RTTI Base Class Array'
PUBLIC	??_R1A@?0A@EA@STextTail@CPythonTextTail@@8	; CPythonTextTail::STextTail::`RTTI Base Class Descriptor at (0,-1,0,64)'
PUBLIC	??_R1A@?0A@EA@?$CDynamicPool@USTextTail@CPythonTextTail@@@@8 ; CDynamicPool<CPythonTextTail::STextTail>::`RTTI Base Class Descriptor at (0,-1,0,64)'
PUBLIC	??_R1A@?0A@EA@?$CSingleton@VCPythonTextTail@@@@8 ; CSingleton<CPythonTextTail>::`RTTI Base Class Descriptor at (0,-1,0,64)'
PUBLIC	??_R1A@?0A@EA@CPythonTextTail@@8		; CPythonTextTail::`RTTI Base Class Descriptor at (0,-1,0,64)'
PUBLIC	??_R0?AV?$CDynamicPool@USTextTail@CPythonTextTail@@@@@8 ; CDynamicPool<CPythonTextTail::STextTail> `RTTI Type Descriptor'
PUBLIC	??_R3?$CDynamicPool@USTextTail@CPythonTextTail@@@@8 ; CDynamicPool<CPythonTextTail::STextTail>::`RTTI Class Hierarchy Descriptor'
PUBLIC	??_R0?AUSTextTail@CPythonTextTail@@@8		; CPythonTextTail::STextTail `RTTI Type Descriptor'
PUBLIC	??_R3STextTail@CPythonTextTail@@8		; CPythonTextTail::STextTail::`RTTI Class Hierarchy Descriptor'
PUBLIC	??_R0?AV?$CSingleton@VCPythonTextTail@@@@@8	; CSingleton<CPythonTextTail> `RTTI Type Descriptor'
PUBLIC	??_R3?$CSingleton@VCPythonTextTail@@@@8		; CSingleton<CPythonTextTail>::`RTTI Class Hierarchy Descriptor'
PUBLIC	??_R0?AVCPythonTextTail@@@8			; CPythonTextTail `RTTI Type Descriptor'
PUBLIC	??_R3CPythonTextTail@@8				; CPythonTextTail::`RTTI Class Hierarchy Descriptor'
PUBLIC	??_R4STextTail@CPythonTextTail@@6B@		; CPythonTextTail::STextTail::`RTTI Complete Object Locator'
PUBLIC	??_R4?$CDynamicPool@USTextTail@CPythonTextTail@@@@6B@ ; CDynamicPool<CPythonTextTail::STextTail>::`RTTI Complete Object Locator'
PUBLIC	??_R4?$CSingleton@VCPythonTextTail@@@@6B@	; CSingleton<CPythonTextTail>::`RTTI Complete Object Locator'
PUBLIC	??_R4CPythonTextTail@@6B@			; CPythonTextTail::`RTTI Complete Object Locator'
PUBLIC	??_7?$CDynamicPool@USTextTail@CPythonTextTail@@@@6B@ ; CDynamicPool<CPythonTextTail::STextTail>::`vftable'
PUBLIC	??_7?$CSingleton@VCPythonTextTail@@@@6B@	; CSingleton<CPythonTextTail>::`vftable'
PUBLIC	??_7CPythonTextTail@@6B@			; CPythonTextTail::`vftable'
PUBLIC	?ms_pFont@@3PAVCGraphicText@@A			; ms_pFont
PUBLIC	?bPKTitleEnable@@3HA				; bPKTitleEnable
PUBLIC	?gs_TextTail_LivingTime@@3JA			; gs_TextTail_LivingTime
PUBLIC	??_7STextTail@CPythonTextTail@@6B@		; CPythonTextTail::STextTail::`vftable'
EXTRN	?Delete@CGraphicTextInstance@@SAXPAV1@@Z:PROC	; CGraphicTextInstance::Delete
EXTRN	?Delete@CGraphicMarkInstance@@SAXPAV1@@Z:PROC	; CGraphicMarkInstance::Delete
EXTRN	?SetIndex@CGraphicMarkInstance@@QAEXI@Z:PROC	; CGraphicMarkInstance::SetIndex
EXTRN	?New@CGraphicTextInstance@@SAPAV1@XZ:PROC	; CGraphicTextInstance::New
EXTRN	?SetVerticalAlign@CGraphicTextInstance@@QAEXH@Z:PROC ; CGraphicTextInstance::SetVerticalAlign
EXTRN	?New@CGraphicMarkInstance@@SAPAV1@XZ:PROC	; CGraphicMarkInstance::New
EXTRN	?SetImageFileName@CGraphicMarkInstance@@QAEXPBD@Z:PROC ; CGraphicMarkInstance::SetImageFileName
EXTRN	?Load@CGraphicMarkInstance@@QAEXXZ:PROC		; CGraphicMarkInstance::Load
EXTRN	?SetOutline@CGraphicTextInstance@@QAEX_N@Z:PROC	; CGraphicTextInstance::SetOutline
EXTRN	?SetPosition@CGraphicMarkInstance@@QAEXMM@Z:PROC ; CGraphicMarkInstance::SetPosition
EXTRN	?Render@CGraphicMarkInstance@@QAEXXZ:PROC	; CGraphicMarkInstance::Render
EXTRN	?RenderBox2d@CScreen@@QAEXMMMMM@Z:PROC		; CScreen::RenderBox2d
EXTRN	?RenderBar2d@CScreen@@QAEXMMMMM@Z:PROC		; CScreen::RenderBar2d
EXTRN	?Identity@CScreen@@SAXXZ:PROC			; CScreen::Identity
EXTRN	?GetOrthoDepth@CPythonGraphic@@QAEMXZ:PROC	; CPythonGraphic::GetOrthoDepth
EXTRN	?GetWidth@CGraphicMarkInstance@@QAEHXZ:PROC	; CGraphicMarkInstance::GetWidth
?ms_pFont@@3PAVCGraphicText@@A DD 01H DUP (?)		; ms_pFont
_BSS	ENDS
;	COMDAT ??_7STextTail@CPythonTextTail@@6B@
CONST	SEGMENT
??_7STextTail@CPythonTextTail@@6B@ DD FLAT:??_R4STextTail@CPythonTextTail@@6B@ ; CPythonTextTail::STextTail::`vftable'
	DD	FLAT:??_ESTextTail@CPythonTextTail@@UAEPAXI@Z
CONST	ENDS
;	COMDAT ??_7CPythonTextTail@@6B@
CONST	SEGMENT
??_7CPythonTextTail@@6B@ DD FLAT:??_R4CPythonTextTail@@6B@ ; CPythonTextTail::`vftable'
	DD	FLAT:??_ECPythonTextTail@@UAEPAXI@Z
CONST	ENDS
;	COMDAT ??_7?$CSingleton@VCPythonTextTail@@@@6B@
CONST	SEGMENT
??_7?$CSingleton@VCPythonTextTail@@@@6B@ DD FLAT:??_R4?$CSingleton@VCPythonTextTail@@@@6B@ ; CSingleton<CPythonTextTail>::`vftable'
	DD	FLAT:??_E?$CSingleton@VCPythonTextTail@@@@UAEPAXI@Z
CONST	ENDS
;	COMDAT ??_7?$CDynamicPool@USTextTail@CPythonTextTail@@@@6B@
CONST	SEGMENT
??_7?$CDynamicPool@USTextTail@CPythonTextTail@@@@6B@ DD FLAT:??_R4?$CDynamicPool@USTextTail@CPythonTextTail@@@@6B@ ; CDynamicPool<CPythonTextTail::STextTail>::`vftable'
	DD	FLAT:??_E?$CDynamicPool@USTextTail@CPythonTextTail@@@@UAEPAXI@Z
CONST	ENDS
;	COMDAT ??_R4CPythonTextTail@@6B@
rdata$r	SEGMENT
??_R4CPythonTextTail@@6B@ DD 00H			; CPythonTextTail::`RTTI Complete Object Locator'
	DD	00H
	DD	00H
	DD	FLAT:??_R0?AVCPythonTextTail@@@8
	DD	FLAT:??_R3CPythonTextTail@@8
rdata$r	ENDS
;	COMDAT ??_R4?$CSingleton@VCPythonTextTail@@@@6B@
rdata$r	SEGMENT
??_R4?$CSingleton@VCPythonTextTail@@@@6B@ DD 00H	; CSingleton<CPythonTextTail>::`RTTI Complete Object Locator'
	DD	00H
	DD	00H
	DD	FLAT:??_R0?AV?$CSingleton@VCPythonTextTail@@@@@8
	DD	FLAT:??_R3?$CSingleton@VCPythonTextTail@@@@8
rdata$r	ENDS
;	COMDAT ??_R4?$CDynamicPool@USTextTail@CPythonTextTail@@@@6B@
rdata$r	SEGMENT
??_R4?$CDynamicPool@USTextTail@CPythonTextTail@@@@6B@ DD 00H ; CDynamicPool<CPythonTextTail::STextTail>::`RTTI Complete Object Locator'
	DD	00H
	DD	00H
	DD	FLAT:??_R0?AV?$CDynamicPool@USTextTail@CPythonTextTail@@@@@8
	DD	FLAT:??_R3?$CDynamicPool@USTextTail@CPythonTextTail@@@@8
rdata$r	ENDS
;	COMDAT ??_R4STextTail@CPythonTextTail@@6B@
rdata$r	SEGMENT
??_R4STextTail@CPythonTextTail@@6B@ DD 00H		; CPythonTextTail::STextTail::`RTTI Complete Object Locator'
	DD	00H
	DD	00H
	DD	FLAT:??_R0?AUSTextTail@CPythonTextTail@@@8
	DD	FLAT:??_R3STextTail@CPythonTextTail@@8
rdata$r	ENDS
;	COMDAT ??_R3CPythonTextTail@@8
rdata$r	SEGMENT
??_R3CPythonTextTail@@8 DD 00H				; CPythonTextTail::`RTTI Class Hierarchy Descriptor'
	DD	00H
	DD	02H
	DD	FLAT:??_R2CPythonTextTail@@8
rdata$r	ENDS
;	COMDAT ??_R0?AVCPythonTextTail@@@8
data$rs	SEGMENT
??_R0?AVCPythonTextTail@@@8 DD FLAT:??_7type_info@@6B@	; CPythonTextTail `RTTI Type Descriptor'
	DD	00H
	DB	'.?AVCPythonTextTail@@', 00H
data$rs	ENDS
;	COMDAT ??_R3?$CSingleton@VCPythonTextTail@@@@8
rdata$r	SEGMENT
??_R3?$CSingleton@VCPythonTextTail@@@@8 DD 00H		; CSingleton<CPythonTextTail>::`RTTI Class Hierarchy Descriptor'
	DD	00H
	DD	01H
	DD	FLAT:??_R2?$CSingleton@VCPythonTextTail@@@@8
rdata$r	ENDS
;	COMDAT ??_R0?AV?$CSingleton@VCPythonTextTail@@@@@8
data$rs	SEGMENT
??_R0?AV?$CSingleton@VCPythonTextTail@@@@@8 DD FLAT:??_7type_info@@6B@ ; CSingleton<CPythonTextTail> `RTTI Type Descriptor'
	DD	00H
	DB	'.?AV?$CSingleton@VCPythonTextTail@@@@', 00H
data$rs	ENDS
;	COMDAT ??_R3STextTail@CPythonTextTail@@8
rdata$r	SEGMENT
??_R3STextTail@CPythonTextTail@@8 DD 00H		; CPythonTextTail::STextTail::`RTTI Class Hierarchy Descriptor'
	DD	00H
	DD	01H
	DD	FLAT:??_R2STextTail@CPythonTextTail@@8
rdata$r	ENDS
;	COMDAT ??_R0?AUSTextTail@CPythonTextTail@@@8
data$rs	SEGMENT
??_R0?AUSTextTail@CPythonTextTail@@@8 DD FLAT:??_7type_info@@6B@ ; CPythonTextTail::STextTail `RTTI Type Descriptor'
	DD	00H
	DB	'.?AUSTextTail@CPythonTextTail@@', 00H
data$rs	ENDS
;	COMDAT ??_R3?$CDynamicPool@USTextTail@CPythonTextTail@@@@8
rdata$r	SEGMENT
??_R3?$CDynamicPool@USTextTail@CPythonTextTail@@@@8 DD 00H ; CDynamicPool<CPythonTextTail::STextTail>::`RTTI Class Hierarchy Descriptor'
	DD	00H
	DD	01H
	DD	FLAT:??_R2?$CDynamicPool@USTextTail@CPythonTextTail@@@@8
rdata$r	ENDS
;	COMDAT ??_R0?AV?$CDynamicPool@USTextTail@CPythonTextTail@@@@@8
data$rs	SEGMENT
??_R0?AV?$CDynamicPool@USTextTail@CPythonTextTail@@@@@8 DD FLAT:??_7type_info@@6B@ ; CDynamicPool<CPythonTextTail::STextTail> `RTTI Type Descriptor'
	DD	00H
	DB	'.?AV?$CDynamicPool@USTextTail@CPythonTextTail@@@@', 00H
data$rs	ENDS
;	COMDAT ??_R1A@?0A@EA@CPythonTextTail@@8
rdata$r	SEGMENT
??_R1A@?0A@EA@CPythonTextTail@@8 DD FLAT:??_R0?AVCPythonTextTail@@@8 ; CPythonTextTail::`RTTI Base Class Descriptor at (0,-1,0,64)'
	DD	01H
	DD	00H
	DD	0ffffffffH
	DD	00H
	DD	040H
	DD	FLAT:??_R3CPythonTextTail@@8
rdata$r	ENDS
;	COMDAT ??_R1A@?0A@EA@?$CSingleton@VCPythonTextTail@@@@8
rdata$r	SEGMENT
??_R1A@?0A@EA@?$CSingleton@VCPythonTextTail@@@@8 DD FLAT:??_R0?AV?$CSingleton@VCPythonTextTail@@@@@8 ; CSingleton<CPythonTextTail>::`RTTI Base Class Descriptor at (0,-1,0,64)'
	DD	00H
	DD	00H
	DD	0ffffffffH
	DD	00H
	DD	040H
	DD	FLAT:??_R3?$CSingleton@VCPythonTextTail@@@@8
rdata$r	ENDS
;	COMDAT ??_R1A@?0A@EA@?$CDynamicPool@USTextTail@CPythonTextTail@@@@8
rdata$r	SEGMENT
??_R1A@?0A@EA@?$CDynamicPool@USTextTail@CPythonTextTail@@@@8 DD FLAT:??_R0?AV?$CDynamicPool@USTextTail@CPythonTextTail@@@@@8 ; CDynamicPool<CPythonTextTail::STextTail>::`RTTI Base Class Descriptor at (0,-1,0,64)'
	DD	00H
	DD	00H
	DD	0ffffffffH
	DD	00H
	DD	040H
	DD	FLAT:??_R3?$CDynamicPool@USTextTail@CPythonTextTail@@@@8
rdata$r	ENDS
;	COMDAT ??_R1A@?0A@EA@STextTail@CPythonTextTail@@8
rdata$r	SEGMENT
??_R1A@?0A@EA@STextTail@CPythonTextTail@@8 DD FLAT:??_R0?AUSTextTail@CPythonTextTail@@@8 ; CPythonTextTail::STextTail::`RTTI Base Class Descriptor at (0,-1,0,64)'
	DD	00H
	DD	00H
	DD	0ffffffffH
	DD	00H
	DD	040H
	DD	FLAT:??_R3STextTail@CPythonTextTail@@8
rdata$r	ENDS
;	COMDAT ??_R2?$CSingleton@VCPythonTextTail@@@@8
rdata$r	SEGMENT
??_R2?$CSingleton@VCPythonTextTail@@@@8 DD FLAT:??_R1A@?0A@EA@?$CSingleton@VCPythonTextTail@@@@8 ; CSingleton<CPythonTextTail>::`RTTI Base Class Array'
rdata$r	ENDS
;	COMDAT ??_R2STextTail@CPythonTextTail@@8
rdata$r	SEGMENT
??_R2STextTail@CPythonTextTail@@8 DD FLAT:??_R1A@?0A@EA@STextTail@CPythonTextTail@@8 ; CPythonTextTail::STextTail::`RTTI Base Class Array'
rdata$r	ENDS
;	COMDAT ??_R2CPythonTextTail@@8
rdata$r	SEGMENT
??_R2CPythonTextTail@@8 DD FLAT:??_R1A@?0A@EA@CPythonTextTail@@8 ; CPythonTextTail::`RTTI Base Class Array'
	DD	FLAT:??_R1A@?0A@EA@?$CSingleton@VCPythonTextTail@@@@8
rdata$r	ENDS
;	COMDAT ??_R2?$CDynamicPool@USTextTail@CPythonTextTail@@@@8
rdata$r	SEGMENT
??_R2?$CDynamicPool@USTextTail@CPythonTextTail@@@@8 DD FLAT:??_R1A@?0A@EA@?$CDynamicPool@USTextTail@CPythonTextTail@@@@8 ; CDynamicPool<CPythonTextTail::STextTail>::`RTTI Base Class Array'
rdata$r	ENDS
;	COMDAT ??_C@_0DH@ONGBNPOP@CPythonTextTail?3?3Initialize?5?9?5C@
CONST	SEGMENT
??_C@_0DH@ONGBNPOP@CPythonTextTail?3?3Initialize?5?9?5C@ DB 'CPythonTextT'
	DB	'ail::Initialize - CANNOT_FIND_DEFAULT_FONT', 00H ; `string'
CONST	ENDS
;	COMDAT ??_C@_0DO@PHLLOPOI@CPythonTextTail?3?3DeleteCharacte@
CONST	SEGMENT
??_C@_0DO@PHLLOPOI@CPythonTextTail?3?3DeleteCharacte@ DB 'CPythonTextTail'
	DB	'::DeleteCharacterTextTail - Find VID[%d] Error', 00H ; `string'
CONST	ENDS
;	COMDAT ??_C@_0DM@EALAGA@?5CPythonTextTail?3?3DeleteItemTex@
CONST	SEGMENT
??_C@_0DM@EALAGA@?5CPythonTextTail?3?3DeleteItemTex@ DB ' CPythonTextTail'
	DB	'::DeleteItemTextTail - None Item Text Tail', 0aH, 00H ; `string'
CONST	ENDS
;	COMDAT ??_C@_0FG@PPLFOIJH@TextTail?3?5ChatTail?5?$CFd?0?5ChrTail?5@
CONST	SEGMENT
??_C@_0FG@PPLFOIJH@TextTail?3?5ChatTail?5?$CFd?0?5ChrTail?5@ DB 'TextTail'
	DB	': ChatTail %d, ChrTail (Map %d, List %d), ItemTail (Map %d, L'
	DB	'ist %d), Pool %d', 00H			; `string'
CONST	ENDS
;	COMDAT ??_C@_02DJKOFMLN@?8s@
CONST	SEGMENT
??_C@_02DJKOFMLN@?8s@ DB '''s', 00H			; `string'
?bPKTitleEnable@@3HA DD 01H				; bPKTitleEnable
?gs_TextTail_LivingTime@@3JA DD 01388H			; gs_TextTail_LivingTime
PUBLIC	?D3DXVec2Length@@YAMPBUD3DXVECTOR2@@@Z		; D3DXVec2Length
PUBLIC	??$construct_at@PAUSTextTail@CPythonTextTail@@PAU12@@std@@YAPAPAUSTextTail@CPythonTextTail@@QAPAU12@$$QAPAU12@@Z ; std::construct_at<CPythonTextTail::STextTail *,CPythonTextTail::STextTail *>
PUBLIC	?_Get_first@?$_Compressed_pair@V?$allocator@PAUSTextTail@CPythonTextTail@@@std@@V?$_Vector_val@U?$_Simple_types@PAUSTextTail@CPythonTextTail@@@std@@@2@$00@std@@QBEABV?$allocator@PAUSTextTail@CPythonTextTail@@@2@XZ ; std::_Compressed_pair<std::allocator<CPythonTextTail::STextTail *>,std::_Vector_val<std::_Simple_types<CPythonTextTail::STextTail *> >,1>::_Get_first
PUBLIC	??$construct@PAUSTextTail@CPythonTextTail@@PAU12@@?$_Default_allocator_traits@V?$allocator@PAUSTextTail@CPythonTextTail@@@std@@@std@@SAXAAV?$allocator@PAUSTextTail@CPythonTextTail@@@1@QAPAUSTextTail@CPythonTextTail@@$$QAPAU34@@Z ; std::_Default_allocator_traits<std::allocator<CPythonTextTail::STextTail *> >::construct<CPythonTextTail::STextTail *,CPythonTextTail::STextTail *>
PUBLIC	??$forward@PAUSTextTail@CPythonTextTail@@@std@@YA$$QAPAUSTextTail@CPythonTextTail@@AAPAU12@@Z ; std::forward<CPythonTextTail::STextTail *>
PUBLIC	??$_Copy_memmove_tail@PAPAUSTextTail@CPythonTextTail@@@std@@YAPAPAUSTextTail@CPythonTextTail@@QBDQAPAU12@II@Z ; std::_Copy_memmove_tail<CPythonTextTail::STextTail * *>
PUBLIC	??$move@AAPAPAUSTextTail@CPythonTextTail@@@std@@YA$$QAPAPAUSTextTail@CPythonTextTail@@AAPAPAU12@@Z ; std::move<CPythonTextTail::STextTail * * &>
PUBLIC	??$to_address@PAUSTextTail@CPythonTextTail@@@std@@YAPAPAUSTextTail@CPythonTextTail@@QAPAU12@@Z ; std::to_address<CPythonTextTail::STextTail *>
PUBLIC	?allocate@?$allocator@PAUSTextTail@CPythonTextTail@@@std@@QAEPAPAUSTextTail@CPythonTextTail@@I@Z ; std::allocator<CPythonTextTail::STextTail *>::allocate
PUBLIC	?_Get_first@?$_Compressed_pair@V?$allocator@U?$_Tree_node@U?$pair@$$CBKPAUSTextTail@CPythonTextTail@@@std@@PAX@std@@@std@@V?$_Tree_val@U?$_Tree_simple_types@U?$pair@$$CBKPAUSTextTail@CPythonTextTail@@@std@@@std@@@2@$00@std@@QBEABV?$allocator@U?$_Tree_node@U?$pair@$$CBKPAUSTextTail@CPythonTextTail@@@std@@PAX@std@@@2@XZ ; std::_Compressed_pair<std::allocator<std::_Tree_node<std::pair<unsigned long const ,CPythonTextTail::STextTail *>,void *> >,std::_Tree_val<std::_Tree_simple_types<std::pair<unsigned long const ,CPythonTextTail::STextTail *> > >,1>::_Get_first
PUBLIC	?max_size@?$_Default_allocator_traits@V?$allocator@PAUSTextTail@CPythonTextTail@@@std@@@std@@SAIABV?$allocator@PAUSTextTail@CPythonTextTail@@@2@@Z ; std::_Default_allocator_traits<std::allocator<CPythonTextTail::STextTail *> >::max_size
PUBLIC	?capacity@?$vector@PAUSTextTail@CPythonTextTail@@V?$allocator@PAUSTextTail@CPythonTextTail@@@std@@@std@@QBEIXZ ; std::vector<CPythonTextTail::STextTail *,std::allocator<CPythonTextTail::STextTail *> >::capacity
PUBLIC	?_Getal@?$vector@PAUSTextTail@CPythonTextTail@@V?$allocator@PAUSTextTail@CPythonTextTail@@@std@@@std@@ABEABV?$allocator@PAUSTextTail@CPythonTextTail@@@2@XZ ; std::vector<CPythonTextTail::STextTail *,std::allocator<CPythonTextTail::STextTail *> >::_Getal
PUBLIC	??0?$_Uninitialized_backout_al@V?$allocator@PAUSTextTail@CPythonTextTail@@@std@@@std@@QAE@PAPAUSTextTail@CPythonTextTail@@AAV?$allocator@PAUSTextTail@CPythonTextTail@@@1@@Z ; std::_Uninitialized_backout_al<std::allocator<CPythonTextTail::STextTail *> >::_Uninitialized_backout_al<std::allocator<CPythonTextTail::STextTail *> >
PUBLIC	??1?$_Uninitialized_backout_al@V?$allocator@PAUSTextTail@CPythonTextTail@@@std@@@std@@QAE@XZ ; std::_Uninitialized_backout_al<std::allocator<CPythonTextTail::STextTail *> >::~_Uninitialized_backout_al<std::allocator<CPythonTextTail::STextTail *> >
PUBLIC	?_Release@?$_Uninitialized_backout_al@V?$allocator@PAUSTextTail@CPythonTextTail@@@std@@@std@@QAEPAPAUSTextTail@CPythonTextTail@@XZ ; std::_Uninitialized_backout_al<std::allocator<CPythonTextTail::STextTail *> >::_Release
PUBLIC	??$construct_at@PAU?$_Tree_node@U?$pair@$$CBKPAUSTextTail@CPythonTextTail@@@std@@PAX@std@@ABQAU12@@std@@YAPAPAU?$_Tree_node@U?$pair@$$CBKPAUSTextTail@CPythonTextTail@@@std@@PAX@0@QAPAU10@ABQAU10@@Z ; std::construct_at<std::_Tree_node<std::pair<unsigned long const ,CPythonTextTail::STextTail *>,void *> *,std::_Tree_node<std::pair<unsigned long const ,CPythonTextTail::STextTail *>,void *> * const &>
PUBLIC	??$forward@ABQAU?$_Tree_node@U?$pair@$$CBKPAUSTextTail@CPythonTextTail@@@std@@PAX@std@@@std@@YAABQAU?$_Tree_node@U?$pair@$$CBKPAUSTextTail@CPythonTextTail@@@std@@PAX@0@ABQAU10@@Z ; std::forward<std::_Tree_node<std::pair<unsigned long const ,CPythonTextTail::STextTail *>,void *> * const &>
PUBLIC	??$_Emplace_back@PAUSTextTail@CPythonTextTail@@@?$_Uninitialized_backout_al@V?$allocator@PAUSTextTail@CPythonTextTail@@@std@@@std@@QAEX$$QAPAUSTextTail@CPythonTextTail@@@Z ; std::_Uninitialized_backout_al<std::allocator<CPythonTextTail::STextTail *> >::_Emplace_back<CPythonTextTail::STextTail *>
PUBLIC	??$_To_address@PAPAUSTextTail@CPythonTextTail@@@std@@YA?A_PABQAPAUSTextTail@CPythonTextTail@@@Z ; std::_To_address<CPythonTextTail::STextTail * *>
PUBLIC	??$_Copy_memmove@PAPAUSTextTail@CPythonTextTail@@PAPAU12@@std@@YAPAPAUSTextTail@CPythonTextTail@@PAPAU12@00@Z ; std::_Copy_memmove<CPythonTextTail::STextTail * *,CPythonTextTail::STextTail * *>
PUBLIC	?_Getal@?$_Tree@V?$_Tmap_traits@KPAUSTextTail@CPythonTextTail@@U?$less@K@std@@V?$allocator@U?$pair@$$CBKPAUSTextTail@CPythonTextTail@@@std@@@4@$0A@@std@@@std@@IBEABV?$allocator@U?$_Tree_node@U?$pair@$$CBKPAUSTextTail@CPythonTextTail@@@std@@PAX@std@@@2@XZ ; std::_Tree<std::_Tmap_traits<unsigned long,CPythonTextTail::STextTail *,std::less<unsigned long>,std::allocator<std::pair<unsigned long const ,CPythonTextTail::STextTail *> >,0> >::_Getal
PUBLIC	??0?$allocator@U?$_Tree_node@U?$pair@$$CBKPAUSTextTail@CPythonTextTail@@@std@@PAX@std@@@std@@QAE@XZ ; std::allocator<std::_Tree_node<std::pair<unsigned long const ,CPythonTextTail::STextTail *>,void *> >::allocator<std::_Tree_node<std::pair<unsigned long const ,CPythonTextTail::STextTail *>,void *> >
PUBLIC	?deallocate@?$allocator@U?$_Tree_node@U?$pair@$$CBKPAUSTextTail@CPythonTextTail@@@std@@PAX@std@@@std@@QAEXQAU?$_Tree_node@U?$pair@$$CBKPAUSTextTail@CPythonTextTail@@@std@@PAX@2@I@Z ; std::allocator<std::_Tree_node<std::pair<unsigned long const ,CPythonTextTail::STextTail *>,void *> >::deallocate
PUBLIC	?allocate@?$allocator@U?$_Tree_node@U?$pair@$$CBKPAUSTextTail@CPythonTextTail@@@std@@PAX@std@@@std@@QAEPAU?$_Tree_node@U?$pair@$$CBKPAUSTextTail@CPythonTextTail@@@std@@PAX@2@I@Z ; std::allocator<std::_Tree_node<std::pair<unsigned long const ,CPythonTextTail::STextTail *>,void *> >::allocate
PUBLIC	?max_size@?$_Default_allocator_traits@V?$allocator@U?$_Tree_node@U?$pair@$$CBKPAUSTextTail@CPythonTextTail@@@std@@PAX@std@@@std@@@std@@SAIABV?$allocator@U?$_Tree_node@U?$pair@$$CBKPAUSTextTail@CPythonTextTail@@@std@@PAX@std@@@2@@Z ; std::_Default_allocator_traits<std::allocator<std::_Tree_node<std::pair<unsigned long const ,CPythonTextTail::STextTail *>,void *> > >::max_size
PUBLIC	??0?$_Tree_val@U?$_Tree_simple_types@U?$pair@$$CBKPAUSTextTail@CPythonTextTail@@@std@@@std@@@std@@QAE@XZ ; std::_Tree_val<std::_Tree_simple_types<std::pair<unsigned long const ,CPythonTextTail::STextTail *> > >::_Tree_val<std::_Tree_simple_types<std::pair<unsigned long const ,CPythonTextTail::STextTail *> > >
PUBLIC	?_Get_first@?$_Compressed_pair@U?$less@K@std@@V?$_Compressed_pair@V?$allocator@U?$_Tree_node@U?$pair@$$CBKPAUSTextTail@CPythonTextTail@@@std@@PAX@std@@@std@@V?$_Tree_val@U?$_Tree_simple_types@U?$pair@$$CBKPAUSTextTail@CPythonTextTail@@@std@@@std@@@2@$00@2@$00@std@@QBEABU?$less@K@2@XZ ; std::_Compressed_pair<std::less<unsigned long>,std::_Compressed_pair<std::allocator<std::_Tree_node<std::pair<unsigned long const ,CPythonTextTail::STextTail *>,void *> >,std::_Tree_val<std::_Tree_simple_types<std::pair<unsigned long const ,CPythonTextTail::STextTail *> > >,1>,1>::_Get_first
PUBLIC	?deallocate@?$allocator@U?$_List_node@PAUSTextTail@CPythonTextTail@@PAX@std@@@std@@QAEXQAU?$_List_node@PAUSTextTail@CPythonTextTail@@PAX@2@I@Z ; std::allocator<std::_List_node<CPythonTextTail::STextTail *,void *> >::deallocate
PUBLIC	?_Get_first@?$_Compressed_pair@V?$allocator@U?$_List_node@PAUSTextTail@CPythonTextTail@@PAX@std@@@std@@V?$_List_val@U?$_List_simple_types@PAUSTextTail@CPythonTextTail@@@std@@@2@$00@std@@QBEABV?$allocator@U?$_List_node@PAUSTextTail@CPythonTextTail@@PAX@std@@@2@XZ ; std::_Compressed_pair<std::allocator<std::_List_node<CPythonTextTail::STextTail *,void *> >,std::_List_val<std::_List_simple_types<CPythonTextTail::STextTail *> >,1>::_Get_first
PUBLIC	?max_size@?$vector@PAUSTextTail@CPythonTextTail@@V?$allocator@PAUSTextTail@CPythonTextTail@@@std@@@std@@QBEIXZ ; std::vector<CPythonTextTail::STextTail *,std::allocator<CPythonTextTail::STextTail *> >::max_size
PUBLIC	?_Calculate_growth@?$vector@PAUSTextTail@CPythonTextTail@@V?$allocator@PAUSTextTail@CPythonTextTail@@@std@@@std@@ABEII@Z ; std::vector<CPythonTextTail::STextTail *,std::allocator<CPythonTextTail::STextTail *> >::_Calculate_growth
PUBLIC	?_Change_array@?$vector@PAUSTextTail@CPythonTextTail@@V?$allocator@PAUSTextTail@CPythonTextTail@@@std@@@std@@AAEXQAPAUSTextTail@CPythonTextTail@@II@Z ; std::vector<CPythonTextTail::STextTail *,std::allocator<CPythonTextTail::STextTail *> >::_Change_array
PUBLIC	?_Xlength@?$vector@PAUSTextTail@CPythonTextTail@@V?$allocator@PAUSTextTail@CPythonTextTail@@@std@@@std@@CAXXZ ; std::vector<CPythonTextTail::STextTail *,std::allocator<CPythonTextTail::STextTail *> >::_Xlength
PUBLIC	??1_Reallocation_guard@?$vector@PAUSTextTail@CPythonTextTail@@V?$allocator@PAUSTextTail@CPythonTextTail@@@std@@@std@@QAE@XZ ; std::vector<CPythonTextTail::STextTail *,std::allocator<CPythonTextTail::STextTail *> >::_Reallocation_guard::~_Reallocation_guard
PUBLIC	??0?$_Alloc_construct_ptr@V?$allocator@U?$_Tree_node@U?$pair@$$CBKPAUSTextTail@CPythonTextTail@@@std@@PAX@std@@@std@@@std@@QAE@AAV?$allocator@U?$_Tree_node@U?$pair@$$CBKPAUSTextTail@CPythonTextTail@@@std@@PAX@std@@@1@@Z ; std::_Alloc_construct_ptr<std::allocator<std::_Tree_node<std::pair<unsigned long const ,CPythonTextTail::STextTail *>,void *> > >::_Alloc_construct_ptr<std::allocator<std::_Tree_node<std::pair<unsigned long const ,CPythonTextTail::STextTail *>,void *> > >
PUBLIC	?_Allocate@?$_Alloc_construct_ptr@V?$allocator@U?$_Tree_node@U?$pair@$$CBKPAUSTextTail@CPythonTextTail@@@std@@PAX@std@@@std@@@std@@QAEXXZ ; std::_Alloc_construct_ptr<std::allocator<std::_Tree_node<std::pair<unsigned long const ,CPythonTextTail::STextTail *>,void *> > >::_Allocate
PUBLIC	??$_Construct_in_place@PAU?$_Tree_node@U?$pair@$$CBKPAUSTextTail@CPythonTextTail@@@std@@PAX@std@@ABQAU12@@std@@YAXAAPAU?$_Tree_node@U?$pair@$$CBKPAUSTextTail@CPythonTextTail@@@std@@PAX@0@ABQAU10@@Z ; std::_Construct_in_place<std::_Tree_node<std::pair<unsigned long const ,CPythonTextTail::STextTail *>,void *> *,std::_Tree_node<std::pair<unsigned long const ,CPythonTextTail::STextTail *>,void *> * const &>
PUBLIC	??$construct_at@PAU?$_List_node@PAUSTextTail@CPythonTextTail@@PAX@std@@ABQAU12@@std@@YAPAPAU?$_List_node@PAUSTextTail@CPythonTextTail@@PAX@0@QAPAU10@ABQAU10@@Z ; std::construct_at<std::_List_node<CPythonTextTail::STextTail *,void *> *,std::_List_node<CPythonTextTail::STextTail *,void *> * const &>
PUBLIC	??$forward@ABQAU?$_List_node@PAUSTextTail@CPythonTextTail@@PAX@std@@@std@@YAABQAU?$_List_node@PAUSTextTail@CPythonTextTail@@PAX@0@ABQAU10@@Z ; std::forward<std::_List_node<CPythonTextTail::STextTail *,void *> * const &>
PUBLIC	??$_Uninitialized_move@PAPAUSTextTail@CPythonTextTail@@V?$allocator@PAUSTextTail@CPythonTextTail@@@std@@@std@@YAPAPAUSTextTail@CPythonTextTail@@QAPAU12@0PAPAU12@AAV?$allocator@PAUSTextTail@CPythonTextTail@@@0@@Z ; std::_Uninitialized_move<CPythonTextTail::STextTail * *,std::allocator<CPythonTextTail::STextTail *> >
PUBLIC	??$_Get_unwrapped@ABQAPAUSTextTail@CPythonTextTail@@@std@@YA?A_TABQAPAUSTextTail@CPythonTextTail@@@Z ; std::_Get_unwrapped<CPythonTextTail::STextTail * * const &>
PUBLIC	??$construct@PAUSTextTail@CPythonTextTail@@ABQAU12@@?$_Default_allocator_traits@V?$allocator@PAUSTextTail@CPythonTextTail@@@std@@@std@@SAXAAV?$allocator@PAUSTextTail@CPythonTextTail@@@1@QAPAUSTextTail@CPythonTextTail@@ABQAU34@@Z ; std::_Default_allocator_traits<std::allocator<CPythonTextTail::STextTail *> >::construct<CPythonTextTail::STextTail *,CPythonTextTail::STextTail * const &>
PUBLIC	??$_Allocate_at_least_helper@V?$allocator@PAUSTextTail@CPythonTextTail@@@std@@@std@@YAPAPAUSTextTail@CPythonTextTail@@AAV?$allocator@PAUSTextTail@CPythonTextTail@@@0@AAI@Z ; std::_Allocate_at_least_helper<std::allocator<CPythonTextTail::STextTail *> >
PUBLIC	??$_Construct_in_place@PAUSTextTail@CPythonTextTail@@ABQAU12@@std@@YAXAAPAUSTextTail@CPythonTextTail@@ABQAU12@@Z ; std::_Construct_in_place<CPythonTextTail::STextTail *,CPythonTextTail::STextTail * const &>
PUBLIC	??$construct_at@PAUSTextTail@CPythonTextTail@@ABQAU12@@std@@YAPAPAUSTextTail@CPythonTextTail@@QAPAU12@ABQAU12@@Z ; std::construct_at<CPythonTextTail::STextTail *,CPythonTextTail::STextTail * const &>
PUBLIC	??$destroy_at@U?$pair@$$CBKPAUSTextTail@CPythonTextTail@@@std@@@std@@YAXQAU?$pair@$$CBKPAUSTextTail@CPythonTextTail@@@0@@Z ; std::destroy_at<std::pair<unsigned long const ,CPythonTextTail::STextTail *> >
PUBLIC	??$construct_at@PAU?$_Tree_node@U?$pair@$$CBKPAUSTextTail@CPythonTextTail@@@std@@PAX@std@@AAPAU12@@std@@YAPAPAU?$_Tree_node@U?$pair@$$CBKPAUSTextTail@CPythonTextTail@@@std@@PAX@0@QAPAU10@AAPAU10@@Z ; std::construct_at<std::_Tree_node<std::pair<unsigned long const ,CPythonTextTail::STextTail *>,void *> *,std::_Tree_node<std::pair<unsigned long const ,CPythonTextTail::STextTail *>,void *> * &>
PUBLIC	??$addressof@PAU?$_Tree_node@U?$pair@$$CBKPAUSTextTail@CPythonTextTail@@@std@@PAX@std@@@std@@YAPAPAU?$_Tree_node@U?$pair@$$CBKPAUSTextTail@CPythonTextTail@@@std@@PAX@0@AAPAU10@@Z ; std::addressof<std::_Tree_node<std::pair<unsigned long const ,CPythonTextTail::STextTail *>,void *> *>
PUBLIC	??$construct_at@U?$pair@$$CBKPAUSTextTail@CPythonTextTail@@@std@@U12@@std@@YAPAU?$pair@$$CBKPAUSTextTail@CPythonTextTail@@@0@QAU10@$$QAU10@@Z ; std::construct_at<std::pair<unsigned long const ,CPythonTextTail::STextTail *>,std::pair<unsigned long const ,CPythonTextTail::STextTail *> >
PUBLIC	??0?$allocator@PAUSTextTail@CPythonTextTail@@@std@@QAE@XZ ; std::allocator<CPythonTextTail::STextTail *>::allocator<CPythonTextTail::STextTail *>
PUBLIC	?deallocate@?$allocator@PAUSTextTail@CPythonTextTail@@@std@@QAEXQAPAUSTextTail@CPythonTextTail@@I@Z ; std::allocator<CPythonTextTail::STextTail *>::deallocate
PUBLIC	?_Getal@?$list@PAUSTextTail@CPythonTextTail@@V?$allocator@PAUSTextTail@CPythonTextTail@@@std@@@std@@ABEABV?$allocator@U?$_List_node@PAUSTextTail@CPythonTextTail@@PAX@std@@@2@XZ ; std::list<CPythonTextTail::STextTail *,std::allocator<CPythonTextTail::STextTail *> >::_Getal
PUBLIC	?max_size@?$_Tree@V?$_Tmap_traits@KPAUSTextTail@CPythonTextTail@@U?$less@K@std@@V?$allocator@U?$pair@$$CBKPAUSTextTail@CPythonTextTail@@@std@@@4@$0A@@std@@@std@@QBEIXZ ; std::_Tree<std::_Tmap_traits<unsigned long,CPythonTextTail::STextTail *,std::less<unsigned long>,std::allocator<std::pair<unsigned long const ,CPythonTextTail::STextTail *> >,0> >::max_size
PUBLIC	?_Getcomp@?$_Tree@V?$_Tmap_traits@KPAUSTextTail@CPythonTextTail@@U?$less@K@std@@V?$allocator@U?$pair@$$CBKPAUSTextTail@CPythonTextTail@@@std@@@4@$0A@@std@@@std@@IBEABU?$less@K@2@XZ ; std::_Tree<std::_Tmap_traits<unsigned long,CPythonTextTail::STextTail *,std::less<unsigned long>,std::allocator<std::pair<unsigned long const ,CPythonTextTail::STextTail *> >,0> >::_Getcomp
PUBLIC	?deallocate@?$_Default_allocator_traits@V?$allocator@U?$_Tree_node@U?$pair@$$CBKPAUSTextTail@CPythonTextTail@@@std@@PAX@std@@@std@@@std@@SAXAAV?$allocator@U?$_Tree_node@U?$pair@$$CBKPAUSTextTail@CPythonTextTail@@@std@@PAX@std@@@2@QAU?$_Tree_node@U?$pair@$$CBKPAUSTextTail@CPythonTextTail@@@std@@PAX@2@I@Z ; std::_Default_allocator_traits<std::allocator<std::_Tree_node<std::pair<unsigned long const ,CPythonTextTail::STextTail *>,void *> > >::deallocate
PUBLIC	?_Max@?$_Tree_val@U?$_Tree_simple_types@U?$pair@$$CBKPAUSTextTail@CPythonTextTail@@@std@@@std@@@std@@SAPAU?$_Tree_node@U?$pair@$$CBKPAUSTextTail@CPythonTextTail@@@std@@PAX@2@PAU32@@Z ; std::_Tree_val<std::_Tree_simple_types<std::pair<unsigned long const ,CPythonTextTail::STextTail *> > >::_Max
PUBLIC	?_Min@?$_Tree_val@U?$_Tree_simple_types@U?$pair@$$CBKPAUSTextTail@CPythonTextTail@@@std@@@std@@@std@@SAPAU?$_Tree_node@U?$pair@$$CBKPAUSTextTail@CPythonTextTail@@@std@@PAX@2@PAU32@@Z ; std::_Tree_val<std::_Tree_simple_types<std::pair<unsigned long const ,CPythonTextTail::STextTail *> > >::_Min
PUBLIC	?_Lrotate@?$_Tree_val@U?$_Tree_simple_types@U?$pair@$$CBKPAUSTextTail@CPythonTextTail@@@std@@@std@@@std@@QAEXPAU?$_Tree_node@U?$pair@$$CBKPAUSTextTail@CPythonTextTail@@@std@@PAX@2@@Z ; std::_Tree_val<std::_Tree_simple_types<std::pair<unsigned long const ,CPythonTextTail::STextTail *> > >::_Lrotate
PUBLIC	?_Rrotate@?$_Tree_val@U?$_Tree_simple_types@U?$pair@$$CBKPAUSTextTail@CPythonTextTail@@@std@@@std@@@std@@QAEXPAU?$_Tree_node@U?$pair@$$CBKPAUSTextTail@CPythonTextTail@@@std@@PAX@2@@Z ; std::_Tree_val<std::_Tree_simple_types<std::pair<unsigned long const ,CPythonTextTail::STextTail *> > >::_Rrotate
PUBLIC	?deallocate@?$_Default_allocator_traits@V?$allocator@U?$_List_node@PAUSTextTail@CPythonTextTail@@PAX@std@@@std@@@std@@SAXAAV?$allocator@U?$_List_node@PAUSTextTail@CPythonTextTail@@PAX@std@@@2@QAU?$_List_node@PAUSTextTail@CPythonTextTail@@PAX@2@I@Z ; std::_Default_allocator_traits<std::allocator<std::_List_node<CPythonTextTail::STextTail *,void *> > >::deallocate
PUBLIC	?max_size@?$_Default_allocator_traits@V?$allocator@U?$_List_node@PAUSTextTail@CPythonTextTail@@PAX@std@@@std@@@std@@SAIABV?$allocator@U?$_List_node@PAUSTextTail@CPythonTextTail@@PAX@std@@@2@@Z ; std::_Default_allocator_traits<std::allocator<std::_List_node<CPythonTextTail::STextTail *,void *> > >::max_size
PUBLIC	??D?$_List_unchecked_const_iterator@V?$_List_val@U?$_List_simple_types@PAUSTextTail@CPythonTextTail@@@std@@@std@@U_Iterator_base0@2@@std@@QBEABQAUSTextTail@CPythonTextTail@@XZ ; std::_List_unchecked_const_iterator<std::_List_val<std::_List_simple_types<CPythonTextTail::STextTail *> >,std::_Iterator_base0>::operator*
PUBLIC	??E?$_List_unchecked_const_iterator@V?$_List_val@U?$_List_simple_types@PAUSTextTail@CPythonTextTail@@@std@@@std@@U_Iterator_base0@2@@std@@QAEAAV01@XZ ; std::_List_unchecked_const_iterator<std::_List_val<std::_List_simple_types<CPythonTextTail::STextTail *> >,std::_Iterator_base0>::operator++
PUBLIC	??0?$_Vector_val@U?$_Simple_types@PAUSTextTail@CPythonTextTail@@@std@@@std@@QAE@XZ ; std::_Vector_val<std::_Simple_types<CPythonTextTail::STextTail *> >::_Vector_val<std::_Simple_types<CPythonTextTail::STextTail *> >
PUBLIC	?_Get_first@?$_Compressed_pair@V?$allocator@PAUSTextTail@CPythonTextTail@@@std@@V?$_Vector_val@U?$_Simple_types@PAUSTextTail@CPythonTextTail@@@std@@@2@$00@std@@QAEAAV?$allocator@PAUSTextTail@CPythonTextTail@@@2@XZ ; std::_Compressed_pair<std::allocator<CPythonTextTail::STextTail *>,std::_Vector_val<std::_Simple_types<CPythonTextTail::STextTail *> >,1>::_Get_first
PUBLIC	??0?$_Tree_temp_node_alloc@V?$allocator@U?$_Tree_node@U?$pair@$$CBKPAUSTextTail@CPythonTextTail@@@std@@PAX@std@@@std@@@std@@QAE@AAV?$allocator@U?$_Tree_node@U?$pair@$$CBKPAUSTextTail@CPythonTextTail@@@std@@PAX@std@@@1@@Z ; std::_Tree_temp_node_alloc<std::allocator<std::_Tree_node<std::pair<unsigned long const ,CPythonTextTail::STextTail *>,void *> > >::_Tree_temp_node_alloc<std::allocator<std::_Tree_node<std::pair<unsigned long const ,CPythonTextTail::STextTail *>,void *> > >
PUBLIC	??1?$_Alloc_construct_ptr@V?$allocator@U?$_Tree_node@U?$pair@$$CBKPAUSTextTail@CPythonTextTail@@@std@@PAX@std@@@std@@@std@@QAE@XZ ; std::_Alloc_construct_ptr<std::allocator<std::_Tree_node<std::pair<unsigned long const ,CPythonTextTail::STextTail *>,void *> > >::~_Alloc_construct_ptr<std::allocator<std::_Tree_node<std::pair<unsigned long const ,CPythonTextTail::STextTail *>,void *> > >
PUBLIC	??0?$_Alloc_construct_ptr@V?$allocator@U?$_List_node@PAUSTextTail@CPythonTextTail@@PAX@std@@@std@@@std@@QAE@AAV?$allocator@U?$_List_node@PAUSTextTail@CPythonTextTail@@PAX@std@@@1@@Z ; std::_Alloc_construct_ptr<std::allocator<std::_List_node<CPythonTextTail::STextTail *,void *> > >::_Alloc_construct_ptr<std::allocator<std::_List_node<CPythonTextTail::STextTail *,void *> > >
PUBLIC	?_Allocate@?$_Alloc_construct_ptr@V?$allocator@U?$_List_node@PAUSTextTail@CPythonTextTail@@PAX@std@@@std@@@std@@QAEXXZ ; std::_Alloc_construct_ptr<std::allocator<std::_List_node<CPythonTextTail::STextTail *,void *> > >::_Allocate
PUBLIC	??1?$_Alloc_construct_ptr@V?$allocator@U?$_List_node@PAUSTextTail@CPythonTextTail@@PAX@std@@@std@@@std@@QAE@XZ ; std::_Alloc_construct_ptr<std::allocator<std::_List_node<CPythonTextTail::STextTail *,void *> > >::~_Alloc_construct_ptr<std::allocator<std::_List_node<CPythonTextTail::STextTail *,void *> > >
PUBLIC	??$_Buyheadnode@V?$allocator@U?$_Tree_node@U?$pair@$$CBKPAUSTextTail@CPythonTextTail@@@std@@PAX@std@@@std@@@?$_Tree_node@U?$pair@$$CBKPAUSTextTail@CPythonTextTail@@@std@@PAX@std@@SAPAU01@AAV?$allocator@U?$_Tree_node@U?$pair@$$CBKPAUSTextTail@CPythonTextTail@@@std@@PAX@std@@@1@@Z ; std::_Tree_node<std::pair<unsigned long const ,CPythonTextTail::STextTail *>,void *>::_Buyheadnode<std::allocator<std::_Tree_node<std::pair<unsigned long const ,CPythonTextTail::STextTail *>,void *> > >
PUBLIC	??$_Unfancy_maybe_null@PAUSTextTail@CPythonTextTail@@@std@@YAPAPAUSTextTail@CPythonTextTail@@PAPAU12@@Z ; std::_Unfancy_maybe_null<CPythonTextTail::STextTail *>
PUBLIC	??$_Destroy_range@V?$allocator@PAUSTextTail@CPythonTextTail@@@std@@@std@@YAXPAPAUSTextTail@CPythonTextTail@@QAPAU12@AAV?$allocator@PAUSTextTail@CPythonTextTail@@@0@@Z ; std::_Destroy_range<std::allocator<CPythonTextTail::STextTail *> >
PUBLIC	??$exchange@PAU?$_Tree_node@U?$pair@$$CBKPAUSTextTail@CPythonTextTail@@@std@@PAX@std@@$$T@std@@YAPAU?$_Tree_node@U?$pair@$$CBKPAUSTextTail@CPythonTextTail@@@std@@PAX@0@AAPAU10@$$QA$$T@Z ; std::exchange<std::_Tree_node<std::pair<unsigned long const ,CPythonTextTail::STextTail *>,void *> *,std::nullptr_t>
PUBLIC	??$_Construct_in_place@PAU?$_List_node@PAUSTextTail@CPythonTextTail@@PAX@std@@ABQAU12@@std@@YAXAAPAU?$_List_node@PAUSTextTail@CPythonTextTail@@PAX@0@ABQAU10@@Z ; std::_Construct_in_place<std::_List_node<CPythonTextTail::STextTail *,void *> *,std::_List_node<CPythonTextTail::STextTail *,void *> * const &>
PUBLIC	??$_Destroy_in_place@PAU?$_List_node@PAUSTextTail@CPythonTextTail@@PAX@std@@@std@@YAXAAPAU?$_List_node@PAUSTextTail@CPythonTextTail@@PAX@0@@Z ; std::_Destroy_in_place<std::_List_node<CPythonTextTail::STextTail *,void *> *>
PUBLIC	??$construct_at@PAU?$_List_node@PAUSTextTail@CPythonTextTail@@PAX@std@@AAPAU12@@std@@YAPAPAU?$_List_node@PAUSTextTail@CPythonTextTail@@PAX@0@QAPAU10@AAPAU10@@Z ; std::construct_at<std::_List_node<CPythonTextTail::STextTail *,void *> *,std::_List_node<CPythonTextTail::STextTail *,void *> * &>
PUBLIC	??$forward@AAPAU?$_List_node@PAUSTextTail@CPythonTextTail@@PAX@std@@@std@@YAAAPAU?$_List_node@PAUSTextTail@CPythonTextTail@@PAX@0@AAPAU10@@Z ; std::forward<std::_List_node<CPythonTextTail::STextTail *,void *> * &>
PUBLIC	??$addressof@PAU?$_List_node@PAUSTextTail@CPythonTextTail@@PAX@std@@@std@@YAPAPAU?$_List_node@PAUSTextTail@CPythonTextTail@@PAX@0@AAPAU10@@Z ; std::addressof<std::_List_node<CPythonTextTail::STextTail *,void *> *>
PUBLIC	??$_Emplace_reallocate@ABQAUSTextTail@CPythonTextTail@@@?$vector@PAUSTextTail@CPythonTextTail@@V?$allocator@PAUSTextTail@CPythonTextTail@@@std@@@std@@AAEPAPAUSTextTail@CPythonTextTail@@QAPAU23@ABQAU23@@Z ; std::vector<CPythonTextTail::STextTail *,std::allocator<CPythonTextTail::STextTail *> >::_Emplace_reallocate<CPythonTextTail::STextTail * const &>
PUBLIC	??$_Emplace_back_with_unused_capacity@ABQAUSTextTail@CPythonTextTail@@@?$vector@PAUSTextTail@CPythonTextTail@@V?$allocator@PAUSTextTail@CPythonTextTail@@@std@@@std@@AAEAAPAUSTextTail@CPythonTextTail@@ABQAU23@@Z ; std::vector<CPythonTextTail::STextTail *,std::allocator<CPythonTextTail::STextTail *> >::_Emplace_back_with_unused_capacity<CPythonTextTail::STextTail * const &>
PUBLIC	??$destroy_at@PAUSTextTail@CPythonTextTail@@@std@@YAXQAPAUSTextTail@CPythonTextTail@@@Z ; std::destroy_at<CPythonTextTail::STextTail *>
PUBLIC	??$construct@PAUSTextTail@CPythonTextTail@@ABQAU12@@?$_Default_allocator_traits@V?$allocator@U?$_List_node@PAUSTextTail@CPythonTextTail@@PAX@std@@@std@@@std@@SAXAAV?$allocator@U?$_List_node@PAUSTextTail@CPythonTextTail@@PAX@std@@@1@QAPAUSTextTail@CPythonTextTail@@ABQAU34@@Z ; std::_Default_allocator_traits<std::allocator<std::_List_node<CPythonTextTail::STextTail *,void *> > >::construct<CPythonTextTail::STextTail *,CPythonTextTail::STextTail * const &>
PUBLIC	??$destroy@PAUSTextTail@CPythonTextTail@@@?$_Default_allocator_traits@V?$allocator@U?$_List_node@PAUSTextTail@CPythonTextTail@@PAX@std@@@std@@@std@@SAXAAV?$allocator@U?$_List_node@PAUSTextTail@CPythonTextTail@@PAX@std@@@1@QAPAUSTextTail@CPythonTextTail@@@Z ; std::_Default_allocator_traits<std::allocator<std::_List_node<CPythonTextTail::STextTail *,void *> > >::destroy<CPythonTextTail::STextTail *>
PUBLIC	??$addressof@PAUSTextTail@CPythonTextTail@@@std@@YAPAPAUSTextTail@CPythonTextTail@@AAPAU12@@Z ; std::addressof<CPythonTextTail::STextTail *>
PUBLIC	??$_Destroy_in_place@PAU?$_Tree_node@U?$pair@$$CBKPAUSTextTail@CPythonTextTail@@@std@@PAX@std@@@std@@YAXAAPAU?$_Tree_node@U?$pair@$$CBKPAUSTextTail@CPythonTextTail@@@std@@PAX@0@@Z ; std::_Destroy_in_place<std::_Tree_node<std::pair<unsigned long const ,CPythonTextTail::STextTail *>,void *> *>
PUBLIC	??$destroy@U?$pair@$$CBKPAUSTextTail@CPythonTextTail@@@std@@@?$_Default_allocator_traits@V?$allocator@U?$_Tree_node@U?$pair@$$CBKPAUSTextTail@CPythonTextTail@@@std@@PAX@std@@@std@@@std@@SAXAAV?$allocator@U?$_Tree_node@U?$pair@$$CBKPAUSTextTail@CPythonTextTail@@@std@@PAX@std@@@1@QAU?$pair@$$CBKPAUSTextTail@CPythonTextTail@@@1@@Z ; std::_Default_allocator_traits<std::allocator<std::_Tree_node<std::pair<unsigned long const ,CPythonTextTail::STextTail *>,void *> > >::destroy<std::pair<unsigned long const ,CPythonTextTail::STextTail *> >
PUBLIC	??$forward@PAU?$_Tree_node@U?$pair@$$CBKPAUSTextTail@CPythonTextTail@@@std@@PAX@std@@@std@@YA$$QAPAU?$_Tree_node@U?$pair@$$CBKPAUSTextTail@CPythonTextTail@@@std@@PAX@0@AAPAU10@@Z ; std::forward<std::_Tree_node<std::pair<unsigned long const ,CPythonTextTail::STextTail *>,void *> *>
PUBLIC	??$forward@AAPAU?$_Tree_node@U?$pair@$$CBKPAUSTextTail@CPythonTextTail@@@std@@PAX@std@@@std@@YAAAPAU?$_Tree_node@U?$pair@$$CBKPAUSTextTail@CPythonTextTail@@@std@@PAX@0@AAPAU10@@Z ; std::forward<std::_Tree_node<std::pair<unsigned long const ,CPythonTextTail::STextTail *>,void *> * &>
PUBLIC	??$_Construct_in_place@PAU?$_Tree_node@U?$pair@$$CBKPAUSTextTail@CPythonTextTail@@@std@@PAX@std@@AAPAU12@@std@@YAXAAPAU?$_Tree_node@U?$pair@$$CBKPAUSTextTail@CPythonTextTail@@@std@@PAX@0@0@Z ; std::_Construct_in_place<std::_Tree_node<std::pair<unsigned long const ,CPythonTextTail::STextTail *>,void *> *,std::_Tree_node<std::pair<unsigned long const ,CPythonTextTail::STextTail *>,void *> * &>
PUBLIC	??$construct@U?$pair@$$CBKPAUSTextTail@CPythonTextTail@@@std@@U12@@?$_Default_allocator_traits@V?$allocator@U?$_Tree_node@U?$pair@$$CBKPAUSTextTail@CPythonTextTail@@@std@@PAX@std@@@std@@@std@@SAXAAV?$allocator@U?$_Tree_node@U?$pair@$$CBKPAUSTextTail@CPythonTextTail@@@std@@PAX@std@@@1@QAU?$pair@$$CBKPAUSTextTail@CPythonTextTail@@@1@$$QAU31@@Z ; std::_Default_allocator_traits<std::allocator<std::_Tree_node<std::pair<unsigned long const ,CPythonTextTail::STextTail *>,void *> > >::construct<std::pair<unsigned long const ,CPythonTextTail::STextTail *>,std::pair<unsigned long const ,CPythonTextTail::STextTail *> >
PUBLIC	??$_Kfn@$$CBKPAUSTextTail@CPythonTextTail@@@?$_Tmap_traits@KPAUSTextTail@CPythonTextTail@@U?$less@K@std@@V?$allocator@U?$pair@$$CBKPAUSTextTail@CPythonTextTail@@@std@@@4@$0A@@std@@SAABKABU?$pair@$$CBKPAUSTextTail@CPythonTextTail@@@1@@Z ; std::_Tmap_traits<unsigned long,CPythonTextTail::STextTail *,std::less<unsigned long>,std::allocator<std::pair<unsigned long const ,CPythonTextTail::STextTail *> >,0>::_Kfn<unsigned long const ,CPythonTextTail::STextTail *>
PUBLIC	??$?0$$V@?$_Compressed_pair@V?$allocator@U?$_Tree_node@U?$pair@$$CBKPAUSTextTail@CPythonTextTail@@@std@@PAX@std@@@std@@V?$_Tree_val@U?$_Tree_simple_types@U?$pair@$$CBKPAUSTextTail@CPythonTextTail@@@std@@@std@@@2@$00@std@@QAE@U_Zero_then_variadic_args_t@1@@Z ; std::_Compressed_pair<std::allocator<std::_Tree_node<std::pair<unsigned long const ,CPythonTextTail::STextTail *>,void *> >,std::_Tree_val<std::_Tree_simple_types<std::pair<unsigned long const ,CPythonTextTail::STextTail *> > >,1>::_Compressed_pair<std::allocator<std::_Tree_node<std::pair<unsigned long const ,CPythonTextTail::STextTail *>,void *> >,std::_Tree_val<std::_Tree_simple_types<std::pair<unsigned long const ,CPythonTextTail::STextTail *> > >,1><>
PUBLIC	??1?$_Tree_temp_node_alloc@V?$allocator@U?$_Tree_node@U?$pair@$$CBKPAUSTextTail@CPythonTextTail@@@std@@PAX@std@@@std@@@std@@QAE@XZ ; std::_Tree_temp_node_alloc<std::allocator<std::_Tree_node<std::pair<unsigned long const ,CPythonTextTail::STextTail *>,void *> > >::~_Tree_temp_node_alloc<std::allocator<std::_Tree_node<std::pair<unsigned long const ,CPythonTextTail::STextTail *>,void *> > >
PUBLIC	?max_size@?$list@PAUSTextTail@CPythonTextTail@@V?$allocator@PAUSTextTail@CPythonTextTail@@@std@@@std@@QBEIXZ ; std::list<CPythonTextTail::STextTail *,std::allocator<CPythonTextTail::STextTail *> >::max_size
PUBLIC	?_Check_grow_by_1@?$_Tree@V?$_Tmap_traits@KPAUSTextTail@CPythonTextTail@@U?$less@K@std@@V?$allocator@U?$pair@$$CBKPAUSTextTail@CPythonTextTail@@@std@@@4@$0A@@std@@@std@@IAEXXZ ; std::_Tree<std::_Tmap_traits<unsigned long,CPythonTextTail::STextTail *,std::less<unsigned long>,std::allocator<std::pair<unsigned long const ,CPythonTextTail::STextTail *> >,0> >::_Check_grow_by_1
PUBLIC	?_Alloc_sentinel_and_proxy@?$_Tree@V?$_Tmap_traits@KPAUSTextTail@CPythonTextTail@@U?$less@K@std@@V?$allocator@U?$pair@$$CBKPAUSTextTail@CPythonTextTail@@@std@@@4@$0A@@std@@@std@@IAEXXZ ; std::_Tree<std::_Tmap_traits<unsigned long,CPythonTextTail::STextTail *,std::less<unsigned long>,std::allocator<std::pair<unsigned long const ,CPythonTextTail::STextTail *> >,0> >::_Alloc_sentinel_and_proxy
PUBLIC	?_Extract@?$_Tree_val@U?$_Tree_simple_types@U?$pair@$$CBKPAUSTextTail@CPythonTextTail@@@std@@@std@@@std@@QAEPAU?$_Tree_node@U?$pair@$$CBKPAUSTextTail@CPythonTextTail@@@std@@PAX@2@V?$_Tree_unchecked_const_iterator@V?$_Tree_val@U?$_Tree_simple_types@U?$pair@$$CBKPAUSTextTail@CPythonTextTail@@@std@@@std@@@std@@U_Iterator_base0@2@@2@@Z ; std::_Tree_val<std::_Tree_simple_types<std::pair<unsigned long const ,CPythonTextTail::STextTail *> > >::_Extract
PUBLIC	?_Insert_node@?$_Tree_val@U?$_Tree_simple_types@U?$pair@$$CBKPAUSTextTail@CPythonTextTail@@@std@@@std@@@std@@QAEPAU?$_Tree_node@U?$pair@$$CBKPAUSTextTail@CPythonTextTail@@@std@@PAX@2@U?$_Tree_id@PAU?$_Tree_node@U?$pair@$$CBKPAUSTextTail@CPythonTextTail@@@std@@PAX@std@@@2@QAU32@@Z ; std::_Tree_val<std::_Tree_simple_types<std::pair<unsigned long const ,CPythonTextTail::STextTail *> > >::_Insert_node
PUBLIC	??D?$_Tree_const_iterator@V?$_Tree_val@U?$_Tree_simple_types@U?$pair@$$CBKPAUSTextTail@CPythonTextTail@@@std@@@std@@@std@@@std@@QBEABU?$pair@$$CBKPAUSTextTail@CPythonTextTail@@@1@XZ ; std::_Tree_const_iterator<std::_Tree_val<std::_Tree_simple_types<std::pair<unsigned long const ,CPythonTextTail::STextTail *> > > >::operator*
PUBLIC	??E?$_Tree_unchecked_const_iterator@V?$_Tree_val@U?$_Tree_simple_types@U?$pair@$$CBKPAUSTextTail@CPythonTextTail@@@std@@@std@@@std@@U_Iterator_base0@2@@std@@QAEAAV01@XZ ; std::_Tree_unchecked_const_iterator<std::_Tree_val<std::_Tree_simple_types<std::pair<unsigned long const ,CPythonTextTail::STextTail *> > >,std::_Iterator_base0>::operator++
PUBLIC	?_Get_first@?$_Compressed_pair@V?$allocator@U?$_Tree_node@U?$pair@$$CBKPAUSTextTail@CPythonTextTail@@@std@@PAX@std@@@std@@V?$_Tree_val@U?$_Tree_simple_types@U?$pair@$$CBKPAUSTextTail@CPythonTextTail@@@std@@@std@@@2@$00@std@@QAEAAV?$allocator@U?$_Tree_node@U?$pair@$$CBKPAUSTextTail@CPythonTextTail@@@std@@PAX@std@@@2@XZ ; std::_Compressed_pair<std::allocator<std::_Tree_node<std::pair<unsigned long const ,CPythonTextTail::STextTail *>,void *> >,std::_Tree_val<std::_Tree_simple_types<std::pair<unsigned long const ,CPythonTextTail::STextTail *> > >,1>::_Get_first
PUBLIC	??0?$allocator@U?$_List_node@PAUSTextTail@CPythonTextTail@@PAX@std@@@std@@QAE@XZ ; std::allocator<std::_List_node<CPythonTextTail::STextTail *,void *> >::allocator<std::_List_node<CPythonTextTail::STextTail *,void *> >
PUBLIC	?allocate@?$allocator@U?$_List_node@PAUSTextTail@CPythonTextTail@@PAX@std@@@std@@QAEPAU?$_List_node@PAUSTextTail@CPythonTextTail@@PAX@2@I@Z ; std::allocator<std::_List_node<CPythonTextTail::STextTail *,void *> >::allocate
PUBLIC	??0?$_List_val@U?$_List_simple_types@PAUSTextTail@CPythonTextTail@@@std@@@std@@QAE@XZ ; std::_List_val<std::_List_simple_types<CPythonTextTail::STextTail *> >::_List_val<std::_List_simple_types<CPythonTextTail::STextTail *> >
PUBLIC	?_Seek_to@?$_List_const_iterator@V?$_List_val@U?$_List_simple_types@PAUSTextTail@CPythonTextTail@@@std@@@std@@@std@@QAEXV?$_List_unchecked_const_iterator@V?$_List_val@U?$_List_simple_types@PAUSTextTail@CPythonTextTail@@@std@@@std@@U_Iterator_base0@2@@2@@Z ; std::_List_const_iterator<std::_List_val<std::_List_simple_types<CPythonTextTail::STextTail *> > >::_Seek_to
PUBLIC	??D?$_List_unchecked_iterator@V?$_List_val@U?$_List_simple_types@PAUSTextTail@CPythonTextTail@@@std@@@std@@@std@@QBEAAPAUSTextTail@CPythonTextTail@@XZ ; std::_List_unchecked_iterator<std::_List_val<std::_List_simple_types<CPythonTextTail::STextTail *> > >::operator*
PUBLIC	??E?$_List_unchecked_iterator@V?$_List_val@U?$_List_simple_types@PAUSTextTail@CPythonTextTail@@@std@@@std@@@std@@QAEAAV01@XZ ; std::_List_unchecked_iterator<std::_List_val<std::_List_simple_types<CPythonTextTail::STextTail *> > >::operator++
PUBLIC	??8?$_List_unchecked_const_iterator@V?$_List_val@U?$_List_simple_types@PAUSTextTail@CPythonTextTail@@@std@@@std@@U_Iterator_base0@2@@std@@QBE_NABV01@@Z ; std::_List_unchecked_const_iterator<std::_List_val<std::_List_simple_types<CPythonTextTail::STextTail *> >,std::_Iterator_base0>::operator==
PUBLIC	?_Get_first@?$_Compressed_pair@V?$allocator@U?$_List_node@PAUSTextTail@CPythonTextTail@@PAX@std@@@std@@V?$_List_val@U?$_List_simple_types@PAUSTextTail@CPythonTextTail@@@std@@@2@$00@std@@QAEAAV?$allocator@U?$_List_node@PAUSTextTail@CPythonTextTail@@PAX@std@@@2@XZ ; std::_Compressed_pair<std::allocator<std::_List_node<CPythonTextTail::STextTail *,void *> >,std::_List_val<std::_List_simple_types<CPythonTextTail::STextTail *> >,1>::_Get_first
PUBLIC	?Delete@?$CDynamicPool@USTextTail@CPythonTextTail@@@@KAXPAUSTextTail@CPythonTextTail@@@Z ; CDynamicPool<CPythonTextTail::STextTail>::Delete
PUBLIC	?clear@?$vector@PAUSTextTail@CPythonTextTail@@V?$allocator@PAUSTextTail@CPythonTextTail@@@std@@@std@@QAEXXZ ; std::vector<CPythonTextTail::STextTail *,std::allocator<CPythonTextTail::STextTail *> >::clear
PUBLIC	?_Unchecked_begin@?$vector@PAUSTextTail@CPythonTextTail@@V?$allocator@PAUSTextTail@CPythonTextTail@@@std@@@std@@QAEPAPAUSTextTail@CPythonTextTail@@XZ ; std::vector<CPythonTextTail::STextTail *,std::allocator<CPythonTextTail::STextTail *> >::_Unchecked_begin
PUBLIC	?_Unchecked_end@?$vector@PAUSTextTail@CPythonTextTail@@V?$allocator@PAUSTextTail@CPythonTextTail@@@std@@@std@@QAEPAPAUSTextTail@CPythonTextTail@@XZ ; std::vector<CPythonTextTail::STextTail *,std::allocator<CPythonTextTail::STextTail *> >::_Unchecked_end
PUBLIC	?_Tidy@?$vector@PAUSTextTail@CPythonTextTail@@V?$allocator@PAUSTextTail@CPythonTextTail@@@std@@@std@@AAEXXZ ; std::vector<CPythonTextTail::STextTail *,std::allocator<CPythonTextTail::STextTail *> >::_Tidy
PUBLIC	?_Orphan_range@?$vector@PAUSTextTail@CPythonTextTail@@V?$allocator@PAUSTextTail@CPythonTextTail@@@std@@@std@@ABEXPAPAUSTextTail@CPythonTextTail@@0@Z ; std::vector<CPythonTextTail::STextTail *,std::allocator<CPythonTextTail::STextTail *> >::_Orphan_range
PUBLIC	?_Getal@?$vector@PAUSTextTail@CPythonTextTail@@V?$allocator@PAUSTextTail@CPythonTextTail@@@std@@@std@@AAEAAV?$allocator@PAUSTextTail@CPythonTextTail@@@2@XZ ; std::vector<CPythonTextTail::STextTail *,std::allocator<CPythonTextTail::STextTail *> >::_Getal
PUBLIC	?_Extract@?$_In_place_key_extract_map_impl@KU?$pair@$$CBKPAUSTextTail@CPythonTextTail@@@std@@@std@@SAABKABU?$pair@$$CBKPAUSTextTail@CPythonTextTail@@@2@@Z ; std::_In_place_key_extract_map_impl<unsigned long,std::pair<unsigned long const ,CPythonTextTail::STextTail *> >::_Extract
PUBLIC	??1?$_Tree_temp_node@V?$allocator@U?$_Tree_node@U?$pair@$$CBKPAUSTextTail@CPythonTextTail@@@std@@PAX@std@@@std@@@std@@QAE@XZ ; std::_Tree_temp_node<std::allocator<std::_Tree_node<std::pair<unsigned long const ,CPythonTextTail::STextTail *>,void *> > >::~_Tree_temp_node<std::allocator<std::_Tree_node<std::pair<unsigned long const ,CPythonTextTail::STextTail *>,void *> > >
PUBLIC	?_Release@?$_Alloc_construct_ptr@V?$allocator@U?$_Tree_node@U?$pair@$$CBKPAUSTextTail@CPythonTextTail@@@std@@PAX@std@@@std@@@std@@QAEPAU?$_Tree_node@U?$pair@$$CBKPAUSTextTail@CPythonTextTail@@@std@@PAX@2@XZ ; std::_Alloc_construct_ptr<std::allocator<std::_Tree_node<std::pair<unsigned long const ,CPythonTextTail::STextTail *>,void *> > >::_Release
PUBLIC	??1?$_List_node_emplace_op2@V?$allocator@U?$_List_node@PAUSTextTail@CPythonTextTail@@PAX@std@@@std@@@std@@QAE@XZ ; std::_List_node_emplace_op2<std::allocator<std::_List_node<CPythonTextTail::STextTail *,void *> > >::~_List_node_emplace_op2<std::allocator<std::_List_node<CPythonTextTail::STextTail *,void *> > >
PUBLIC	?_Transfer_before@?$_List_node_emplace_op2@V?$allocator@U?$_List_node@PAUSTextTail@CPythonTextTail@@PAX@std@@@std@@@std@@QAEPAU?$_List_node@PAUSTextTail@CPythonTextTail@@PAX@2@QAU32@@Z ; std::_List_node_emplace_op2<std::allocator<std::_List_node<CPythonTextTail::STextTail *,void *> > >::_Transfer_before
PUBLIC	??$_Freenode0@V?$allocator@U?$_List_node@PAUSTextTail@CPythonTextTail@@PAX@std@@@std@@@?$_List_node@PAUSTextTail@CPythonTextTail@@PAX@std@@SAXAAV?$allocator@U?$_List_node@PAUSTextTail@CPythonTextTail@@PAX@std@@@1@PAU01@@Z ; std::_List_node<CPythonTextTail::STextTail *,void *>::_Freenode0<std::allocator<std::_List_node<CPythonTextTail::STextTail *,void *> > >
PUBLIC	??$_Construct_in_place@PAU?$_List_node@PAUSTextTail@CPythonTextTail@@PAX@std@@AAPAU12@@std@@YAXAAPAU?$_List_node@PAUSTextTail@CPythonTextTail@@PAX@0@0@Z ; std::_Construct_in_place<std::_List_node<CPythonTextTail::STextTail *,void *> *,std::_List_node<CPythonTextTail::STextTail *,void *> * &>
PUBLIC	??$?0ABU?$less@K@std@@U_Zero_then_variadic_args_t@1@@?$_Compressed_pair@U?$less@K@std@@V?$_Compressed_pair@V?$allocator@U?$_Tree_node@U?$pair@$$CBKPAUSTextTail@CPythonTextTail@@@std@@PAX@std@@@std@@V?$_Tree_val@U?$_Tree_simple_types@U?$pair@$$CBKPAUSTextTail@CPythonTextTail@@@std@@@std@@@2@$00@2@$00@std@@QAE@U_One_then_variadic_args_t@1@ABU?$less@K@1@$$QAU_Zero_then_variadic_args_t@1@@Z ; std::_Compressed_pair<std::less<unsigned long>,std::_Compressed_pair<std::allocator<std::_Tree_node<std::pair<unsigned long const ,CPythonTextTail::STextTail *>,void *> >,std::_Tree_val<std::_Tree_simple_types<std::pair<unsigned long const ,CPythonTextTail::STextTail *> > >,1>,1>::_Compressed_pair<std::less<unsigned long>,std::_Compressed_pair<std::allocator<std::_Tree_node<std::pair<unsigned long const ,CPythonTextTail::STextTail *>,void *> >,std::_Tree_val<std::_Tree_simple_types<std::pair<unsigned long const ,CPythonTextTail::STextTail *> > >,1>,1><std::less<unsigned long> const &,std::_Zero_then_variadic_args_t>
PUBLIC	??$addressof@V?$_Tree_val@U?$_Tree_simple_types@U?$pair@$$CBKPAUSTextTail@CPythonTextTail@@@std@@@std@@@std@@@std@@YAPAV?$_Tree_val@U?$_Tree_simple_types@U?$pair@$$CBKPAUSTextTail@CPythonTextTail@@@std@@@std@@@0@AAV10@@Z ; std::addressof<std::_Tree_val<std::_Tree_simple_types<std::pair<unsigned long const ,CPythonTextTail::STextTail *> > > >
PUBLIC	??$addressof@$$CBV?$_Tree_val@U?$_Tree_simple_types@U?$pair@$$CBKPAUSTextTail@CPythonTextTail@@@std@@@std@@@std@@@std@@YAPBV?$_Tree_val@U?$_Tree_simple_types@U?$pair@$$CBKPAUSTextTail@CPythonTextTail@@@std@@@std@@@0@ABV10@@Z ; std::addressof<std::_Tree_val<std::_Tree_simple_types<std::pair<unsigned long const ,CPythonTextTail::STextTail *> > > const >
PUBLIC	??$?0$$V@?$_Compressed_pair@V?$allocator@PAUSTextTail@CPythonTextTail@@@std@@V?$_Vector_val@U?$_Simple_types@PAUSTextTail@CPythonTextTail@@@std@@@2@$00@std@@QAE@U_Zero_then_variadic_args_t@1@@Z ; std::_Compressed_pair<std::allocator<CPythonTextTail::STextTail *>,std::_Vector_val<std::_Simple_types<CPythonTextTail::STextTail *> >,1>::_Compressed_pair<std::allocator<CPythonTextTail::STextTail *>,std::_Vector_val<std::_Simple_types<CPythonTextTail::STextTail *> >,1><>
PUBLIC	??$_Emplace_one_at_back@ABQAUSTextTail@CPythonTextTail@@@?$vector@PAUSTextTail@CPythonTextTail@@V?$allocator@PAUSTextTail@CPythonTextTail@@@std@@@std@@AAEAAPAUSTextTail@CPythonTextTail@@ABQAU23@@Z ; std::vector<CPythonTextTail::STextTail *,std::allocator<CPythonTextTail::STextTail *> >::_Emplace_one_at_back<CPythonTextTail::STextTail * const &>
PUBLIC	??$destroy@PAUSTextTail@CPythonTextTail@@@?$_Default_allocator_traits@V?$allocator@PAUSTextTail@CPythonTextTail@@@std@@@std@@SAXAAV?$allocator@PAUSTextTail@CPythonTextTail@@@1@QAPAUSTextTail@CPythonTextTail@@@Z ; std::_Default_allocator_traits<std::allocator<CPythonTextTail::STextTail *> >::destroy<CPythonTextTail::STextTail *>
PUBLIC	??$_Unfancy@PAUSTextTail@CPythonTextTail@@@std@@YAPAPAUSTextTail@CPythonTextTail@@PAPAU12@@Z ; std::_Unfancy<CPythonTextTail::STextTail *>
PUBLIC	??$addressof@U?$pair@$$CBKPAUSTextTail@CPythonTextTail@@@std@@@std@@YAPAU?$pair@$$CBKPAUSTextTail@CPythonTextTail@@@0@AAU10@@Z ; std::addressof<std::pair<unsigned long const ,CPythonTextTail::STextTail *> >
PUBLIC	??$?0ABQAUSTextTail@CPythonTextTail@@@?$_List_node_emplace_op2@V?$allocator@U?$_List_node@PAUSTextTail@CPythonTextTail@@PAX@std@@@std@@@std@@QAE@AAV?$allocator@U?$_List_node@PAUSTextTail@CPythonTextTail@@PAX@std@@@1@ABQAUSTextTail@CPythonTextTail@@@Z ; std::_List_node_emplace_op2<std::allocator<std::_List_node<CPythonTextTail::STextTail *,void *> > >::_List_node_emplace_op2<std::allocator<std::_List_node<CPythonTextTail::STextTail *,void *> > ><CPythonTextTail::STextTail * const &>
PUBLIC	??$forward@ABQAUSTextTail@CPythonTextTail@@@std@@YAABQAUSTextTail@CPythonTextTail@@ABQAU12@@Z ; std::forward<CPythonTextTail::STextTail * const &>
PUBLIC	??$_Freenode@V?$allocator@U?$_List_node@PAUSTextTail@CPythonTextTail@@PAX@std@@@std@@@?$_List_node@PAUSTextTail@CPythonTextTail@@PAX@std@@SAXAAV?$allocator@U?$_List_node@PAUSTextTail@CPythonTextTail@@PAX@std@@@1@PAU01@@Z ; std::_List_node<CPythonTextTail::STextTail *,void *>::_Freenode<std::allocator<std::_List_node<CPythonTextTail::STextTail *,void *> > >
PUBLIC	??$_Freenode0@V?$allocator@U?$_Tree_node@U?$pair@$$CBKPAUSTextTail@CPythonTextTail@@@std@@PAX@std@@@std@@@?$_Tree_node@U?$pair@$$CBKPAUSTextTail@CPythonTextTail@@@std@@PAX@std@@SAXAAV?$allocator@U?$_Tree_node@U?$pair@$$CBKPAUSTextTail@CPythonTextTail@@@std@@PAX@std@@@1@PAU01@@Z ; std::_Tree_node<std::pair<unsigned long const ,CPythonTextTail::STextTail *>,void *>::_Freenode0<std::allocator<std::_Tree_node<std::pair<unsigned long const ,CPythonTextTail::STextTail *>,void *> > >
PUBLIC	??$_Freenode@V?$allocator@U?$_Tree_node@U?$pair@$$CBKPAUSTextTail@CPythonTextTail@@@std@@PAX@std@@@std@@@?$_Tree_node@U?$pair@$$CBKPAUSTextTail@CPythonTextTail@@@std@@PAX@std@@SAXAAV?$allocator@U?$_Tree_node@U?$pair@$$CBKPAUSTextTail@CPythonTextTail@@@std@@PAX@std@@@1@PAU01@@Z ; std::_Tree_node<std::pair<unsigned long const ,CPythonTextTail::STextTail *>,void *>::_Freenode<std::allocator<std::_Tree_node<std::pair<unsigned long const ,CPythonTextTail::STextTail *>,void *> > >
PUBLIC	??$exchange@PAU?$_Tree_node@U?$pair@$$CBKPAUSTextTail@CPythonTextTail@@@std@@PAX@std@@AAPAU12@@std@@YAPAU?$_Tree_node@U?$pair@$$CBKPAUSTextTail@CPythonTextTail@@@std@@PAX@0@AAPAU10@0@Z ; std::exchange<std::_Tree_node<std::pair<unsigned long const ,CPythonTextTail::STextTail *>,void *> *,std::_Tree_node<std::pair<unsigned long const ,CPythonTextTail::STextTail *>,void *> * &>
PUBLIC	??$forward@V?$_Tree_iterator@V?$_Tree_val@U?$_Tree_simple_types@U?$pair@$$CBKPAUSTextTail@CPythonTextTail@@@std@@@std@@@std@@@std@@@std@@YA$$QAV?$_Tree_iterator@V?$_Tree_val@U?$_Tree_simple_types@U?$pair@$$CBKPAUSTextTail@CPythonTextTail@@@std@@@std@@@std@@@0@AAV10@@Z ; std::forward<std::_Tree_iterator<std::_Tree_val<std::_Tree_simple_types<std::pair<unsigned long const ,CPythonTextTail::STextTail *> > > > >
PUBLIC	??$?0PAU?$_Tree_node@U?$pair@$$CBKPAUSTextTail@CPythonTextTail@@@std@@PAX@std@@_N$0A@@?$pair@PAU?$_Tree_node@U?$pair@$$CBKPAUSTextTail@CPythonTextTail@@@std@@PAX@std@@_N@std@@QAE@$$QAPAU?$_Tree_node@U?$pair@$$CBKPAUSTextTail@CPythonTextTail@@@std@@PAX@1@$$QA_N@Z ; std::pair<std::_Tree_node<std::pair<unsigned long const ,CPythonTextTail::STextTail *>,void *> *,bool>::pair<std::_Tree_node<std::pair<unsigned long const ,CPythonTextTail::STextTail *>,void *> *,bool><std::_Tree_node<std::pair<unsigned long const ,CPythonTextTail::STextTail *>,void *> *,bool,0>
PUBLIC	??$?0AAPAU?$_Tree_node@U?$pair@$$CBKPAUSTextTail@CPythonTextTail@@@std@@PAX@std@@_N$0A@@?$pair@PAU?$_Tree_node@U?$pair@$$CBKPAUSTextTail@CPythonTextTail@@@std@@PAX@std@@_N@std@@QAE@AAPAU?$_Tree_node@U?$pair@$$CBKPAUSTextTail@CPythonTextTail@@@std@@PAX@1@$$QA_N@Z ; std::pair<std::_Tree_node<std::pair<unsigned long const ,CPythonTextTail::STextTail *>,void *> *,bool>::pair<std::_Tree_node<std::pair<unsigned long const ,CPythonTextTail::STextTail *>,void *> *,bool><std::_Tree_node<std::pair<unsigned long const ,CPythonTextTail::STextTail *>,void *> * &,bool,0>
PUBLIC	??$?0U?$pair@$$CBKPAUSTextTail@CPythonTextTail@@@std@@@?$_Tree_temp_node@V?$allocator@U?$_Tree_node@U?$pair@$$CBKPAUSTextTail@CPythonTextTail@@@std@@PAX@std@@@std@@@std@@QAE@AAV?$allocator@U?$_Tree_node@U?$pair@$$CBKPAUSTextTail@CPythonTextTail@@@std@@PAX@std@@@1@PAU?$_Tree_node@U?$pair@$$CBKPAUSTextTail@CPythonTextTail@@@std@@PAX@1@$$QAU?$pair@$$CBKPAUSTextTail@CPythonTextTail@@@1@@Z ; std::_Tree_temp_node<std::allocator<std::_Tree_node<std::pair<unsigned long const ,CPythonTextTail::STextTail *>,void *> > >::_Tree_temp_node<std::allocator<std::_Tree_node<std::pair<unsigned long const ,CPythonTextTail::STextTail *>,void *> > ><std::pair<unsigned long const ,CPythonTextTail::STextTail *> >
PUBLIC	??$forward@U?$pair@$$CBKPAUSTextTail@CPythonTextTail@@@std@@@std@@YA$$QAU?$pair@$$CBKPAUSTextTail@CPythonTextTail@@@0@AAU10@@Z ; std::forward<std::pair<unsigned long const ,CPythonTextTail::STextTail *> >
PUBLIC	??$_Lower_bound_duplicate@K@?$_Tree@V?$_Tmap_traits@KPAUSTextTail@CPythonTextTail@@U?$less@K@std@@V?$allocator@U?$pair@$$CBKPAUSTextTail@CPythonTextTail@@@std@@@4@$0A@@std@@@std@@IBE_NQAU?$_Tree_node@U?$pair@$$CBKPAUSTextTail@CPythonTextTail@@@std@@PAX@1@ABK@Z ; std::_Tree<std::_Tmap_traits<unsigned long,CPythonTextTail::STextTail *,std::less<unsigned long>,std::allocator<std::pair<unsigned long const ,CPythonTextTail::STextTail *> >,0> >::_Lower_bound_duplicate<unsigned long>
PUBLIC	??$_Find_lower_bound@K@?$_Tree@V?$_Tmap_traits@KPAUSTextTail@CPythonTextTail@@U?$less@K@std@@V?$allocator@U?$pair@$$CBKPAUSTextTail@CPythonTextTail@@@std@@@4@$0A@@std@@@std@@IBE?AU?$_Tree_find_result@PAU?$_Tree_node@U?$pair@$$CBKPAUSTextTail@CPythonTextTail@@@std@@PAX@std@@@1@ABK@Z ; std::_Tree<std::_Tmap_traits<unsigned long,CPythonTextTail::STextTail *,std::less<unsigned long>,std::allocator<std::pair<unsigned long const ,CPythonTextTail::STextTail *> >,0> >::_Find_lower_bound<unsigned long>
PUBLIC	??$forward@V?$_List_unchecked_iterator@V?$_List_val@U?$_List_simple_types@PAUSTextTail@CPythonTextTail@@@std@@@std@@@std@@@std@@YA$$QAV?$_List_unchecked_iterator@V?$_List_val@U?$_List_simple_types@PAUSTextTail@CPythonTextTail@@@std@@@std@@@0@AAV10@@Z ; std::forward<std::_List_unchecked_iterator<std::_List_val<std::_List_simple_types<CPythonTextTail::STextTail *> > > >
PUBLIC	??$move@AAPAUSTextTail@CPythonTextTail@@@std@@YA$$QAPAUSTextTail@CPythonTextTail@@AAPAU12@@Z ; std::move<CPythonTextTail::STextTail * &>
PUBLIC	??0?$_Tree_unchecked_iterator@V?$_Tree_val@U?$_Tree_simple_types@U?$pair@$$CBKPAUSTextTail@CPythonTextTail@@@std@@@std@@@std@@@std@@QAE@PAU?$_Tree_node@U?$pair@$$CBKPAUSTextTail@CPythonTextTail@@@std@@PAX@1@PBV?$_Tree_val@U?$_Tree_simple_types@U?$pair@$$CBKPAUSTextTail@CPythonTextTail@@@std@@@std@@@1@@Z ; std::_Tree_unchecked_iterator<std::_Tree_val<std::_Tree_simple_types<std::pair<unsigned long const ,CPythonTextTail::STextTail *> > > >::_Tree_unchecked_iterator<std::_Tree_val<std::_Tree_simple_types<std::pair<unsigned long const ,CPythonTextTail::STextTail *> > > >
PUBLIC	??0?$_List_unchecked_iterator@V?$_List_val@U?$_List_simple_types@PAUSTextTail@CPythonTextTail@@@std@@@std@@@std@@QAE@PAU?$_List_node@PAUSTextTail@CPythonTextTail@@PAX@1@PBV?$_List_val@U?$_List_simple_types@PAUSTextTail@CPythonTextTail@@@std@@@1@@Z ; std::_List_unchecked_iterator<std::_List_val<std::_List_simple_types<CPythonTextTail::STextTail *> > >::_List_unchecked_iterator<std::_List_val<std::_List_simple_types<CPythonTextTail::STextTail *> > >
PUBLIC	?_Tidy@?$list@PAUSTextTail@CPythonTextTail@@V?$allocator@PAUSTextTail@CPythonTextTail@@@std@@@std@@AAEXXZ ; std::list<CPythonTextTail::STextTail *,std::allocator<CPythonTextTail::STextTail *> >::_Tidy
PUBLIC	?_Alloc_sentinel_and_proxy@?$list@PAUSTextTail@CPythonTextTail@@V?$allocator@PAUSTextTail@CPythonTextTail@@@std@@@std@@AAEXXZ ; std::list<CPythonTextTail::STextTail *,std::allocator<CPythonTextTail::STextTail *> >::_Alloc_sentinel_and_proxy
PUBLIC	?_Getal@?$list@PAUSTextTail@CPythonTextTail@@V?$allocator@PAUSTextTail@CPythonTextTail@@@std@@@std@@AAEAAV?$allocator@U?$_List_node@PAUSTextTail@CPythonTextTail@@PAX@std@@@2@XZ ; std::list<CPythonTextTail::STextTail *,std::allocator<CPythonTextTail::STextTail *> >::_Getal
PUBLIC	??0?$_Tree@V?$_Tmap_traits@KPAUSTextTail@CPythonTextTail@@U?$less@K@std@@V?$allocator@U?$pair@$$CBKPAUSTextTail@CPythonTextTail@@@std@@@4@$0A@@std@@@std@@QAE@ABU?$less@K@1@@Z ; std::_Tree<std::_Tmap_traits<unsigned long,CPythonTextTail::STextTail *,std::less<unsigned long>,std::allocator<std::pair<unsigned long const ,CPythonTextTail::STextTail *> >,0> >::_Tree<std::_Tmap_traits<unsigned long,CPythonTextTail::STextTail *,std::less<unsigned long>,std::allocator<std::pair<unsigned long const ,CPythonTextTail::STextTail *> >,0> >
PUBLIC	?_Erase_unchecked@?$_Tree@V?$_Tmap_traits@KPAUSTextTail@CPythonTextTail@@U?$less@K@std@@V?$allocator@U?$pair@$$CBKPAUSTextTail@CPythonTextTail@@@std@@@4@$0A@@std@@@std@@AAEPAU?$_Tree_node@U?$pair@$$CBKPAUSTextTail@CPythonTextTail@@@std@@PAX@2@V?$_Tree_unchecked_const_iterator@V?$_Tree_val@U?$_Tree_simple_types@U?$pair@$$CBKPAUSTextTail@CPythonTextTail@@@std@@@std@@@std@@U_Iterator_base0@2@@2@@Z ; std::_Tree<std::_Tmap_traits<unsigned long,CPythonTextTail::STextTail *,std::less<unsigned long>,std::allocator<std::pair<unsigned long const ,CPythonTextTail::STextTail *> >,0> >::_Erase_unchecked
PUBLIC	?_Getal@?$_Tree@V?$_Tmap_traits@KPAUSTextTail@CPythonTextTail@@U?$less@K@std@@V?$allocator@U?$pair@$$CBKPAUSTextTail@CPythonTextTail@@@std@@@4@$0A@@std@@@std@@IAEAAV?$allocator@U?$_Tree_node@U?$pair@$$CBKPAUSTextTail@CPythonTextTail@@@std@@PAX@std@@@2@XZ ; std::_Tree<std::_Tmap_traits<unsigned long,CPythonTextTail::STextTail *,std::less<unsigned long>,std::allocator<std::pair<unsigned long const ,CPythonTextTail::STextTail *> >,0> >::_Getal
PUBLIC	?_Get_scary@?$_Tree@V?$_Tmap_traits@KPAUSTextTail@CPythonTextTail@@U?$less@K@std@@V?$allocator@U?$pair@$$CBKPAUSTextTail@CPythonTextTail@@@std@@@4@$0A@@std@@@std@@IAEPAV?$_Tree_val@U?$_Tree_simple_types@U?$pair@$$CBKPAUSTextTail@CPythonTextTail@@@std@@@std@@@2@XZ ; std::_Tree<std::_Tmap_traits<unsigned long,CPythonTextTail::STextTail *,std::less<unsigned long>,std::allocator<std::pair<unsigned long const ,CPythonTextTail::STextTail *> >,0> >::_Get_scary
PUBLIC	?_Get_scary@?$_Tree@V?$_Tmap_traits@KPAUSTextTail@CPythonTextTail@@U?$less@K@std@@V?$allocator@U?$pair@$$CBKPAUSTextTail@CPythonTextTail@@@std@@@4@$0A@@std@@@std@@IBEPBV?$_Tree_val@U?$_Tree_simple_types@U?$pair@$$CBKPAUSTextTail@CPythonTextTail@@@std@@@std@@@2@XZ ; std::_Tree<std::_Tmap_traits<unsigned long,CPythonTextTail::STextTail *,std::less<unsigned long>,std::allocator<std::pair<unsigned long const ,CPythonTextTail::STextTail *> >,0> >::_Get_scary
PUBLIC	?_Orphan_ptr@?$_Tree_val@U?$_Tree_simple_types@U?$pair@$$CBKPAUSTextTail@CPythonTextTail@@@std@@@std@@@std@@QAEXQAU?$_Tree_node@U?$pair@$$CBKPAUSTextTail@CPythonTextTail@@@std@@PAX@2@@Z ; std::_Tree_val<std::_Tree_simple_types<std::pair<unsigned long const ,CPythonTextTail::STextTail *> > >::_Orphan_ptr
PUBLIC	??E?$_Tree_const_iterator@V?$_Tree_val@U?$_Tree_simple_types@U?$pair@$$CBKPAUSTextTail@CPythonTextTail@@@std@@@std@@@std@@@std@@QAEAAV01@XZ ; std::_Tree_const_iterator<std::_Tree_val<std::_Tree_simple_types<std::pair<unsigned long const ,CPythonTextTail::STextTail *> > > >::operator++
PUBLIC	??D?$_Tree_iterator@V?$_Tree_val@U?$_Tree_simple_types@U?$pair@$$CBKPAUSTextTail@CPythonTextTail@@@std@@@std@@@std@@@std@@QBEAAU?$pair@$$CBKPAUSTextTail@CPythonTextTail@@@1@XZ ; std::_Tree_iterator<std::_Tree_val<std::_Tree_simple_types<std::pair<unsigned long const ,CPythonTextTail::STextTail *> > > >::operator*
PUBLIC	?_Unwrapped@?$_Tree_iterator@V?$_Tree_val@U?$_Tree_simple_types@U?$pair@$$CBKPAUSTextTail@CPythonTextTail@@@std@@@std@@@std@@@std@@QBE?AV?$_Tree_unchecked_iterator@V?$_Tree_val@U?$_Tree_simple_types@U?$pair@$$CBKPAUSTextTail@CPythonTextTail@@@std@@@std@@@std@@@2@XZ ; std::_Tree_iterator<std::_Tree_val<std::_Tree_simple_types<std::pair<unsigned long const ,CPythonTextTail::STextTail *> > > >::_Unwrapped
PUBLIC	??0?$_Tree_unchecked_const_iterator@V?$_Tree_val@U?$_Tree_simple_types@U?$pair@$$CBKPAUSTextTail@CPythonTextTail@@@std@@@std@@@std@@U_Iterator_base0@2@@std@@QAE@PAU?$_Tree_node@U?$pair@$$CBKPAUSTextTail@CPythonTextTail@@@std@@PAX@1@PBV?$_Tree_val@U?$_Tree_simple_types@U?$pair@$$CBKPAUSTextTail@CPythonTextTail@@@std@@@std@@@1@@Z ; std::_Tree_unchecked_const_iterator<std::_Tree_val<std::_Tree_simple_types<std::pair<unsigned long const ,CPythonTextTail::STextTail *> > >,std::_Iterator_base0>::_Tree_unchecked_const_iterator<std::_Tree_val<std::_Tree_simple_types<std::pair<unsigned long const ,CPythonTextTail::STextTail *> > >,std::_Iterator_base0>
PUBLIC	?_Orphan_non_end@?$_List_val@U?$_List_simple_types@PAUSTextTail@CPythonTextTail@@@std@@@std@@QAEXXZ ; std::_List_val<std::_List_simple_types<CPythonTextTail::STextTail *> >::_Orphan_non_end
PUBLIC	?_Unwrapped@?$_List_iterator@V?$_List_val@U?$_List_simple_types@PAUSTextTail@CPythonTextTail@@@std@@@std@@@std@@QBE?AV?$_List_unchecked_iterator@V?$_List_val@U?$_List_simple_types@PAUSTextTail@CPythonTextTail@@@std@@@std@@@2@XZ ; std::_List_iterator<std::_List_val<std::_List_simple_types<CPythonTextTail::STextTail *> > >::_Unwrapped
PUBLIC	??D?$_List_const_iterator@V?$_List_val@U?$_List_simple_types@PAUSTextTail@CPythonTextTail@@@std@@@std@@@std@@QBEABQAUSTextTail@CPythonTextTail@@XZ ; std::_List_const_iterator<std::_List_val<std::_List_simple_types<CPythonTextTail::STextTail *> > >::operator*
PUBLIC	??E?$_List_const_iterator@V?$_List_val@U?$_List_simple_types@PAUSTextTail@CPythonTextTail@@@std@@@std@@@std@@QAEAAV01@XZ ; std::_List_const_iterator<std::_List_val<std::_List_simple_types<CPythonTextTail::STextTail *> > >::operator++
PUBLIC	??0?$_List_unchecked_const_iterator@V?$_List_val@U?$_List_simple_types@PAUSTextTail@CPythonTextTail@@@std@@@std@@U_Iterator_base0@2@@std@@QAE@PAU?$_List_node@PAUSTextTail@CPythonTextTail@@PAX@1@PBV?$_List_val@U?$_List_simple_types@PAUSTextTail@CPythonTextTail@@@std@@@1@@Z ; std::_List_unchecked_const_iterator<std::_List_val<std::_List_simple_types<CPythonTextTail::STextTail *> >,std::_Iterator_base0>::_List_unchecked_const_iterator<std::_List_val<std::_List_simple_types<CPythonTextTail::STextTail *> >,std::_Iterator_base0>
PUBLIC	?Destroy@?$CDynamicPool@USTextTail@CPythonTextTail@@@@QAEXXZ ; CDynamicPool<CPythonTextTail::STextTail>::Destroy
PUBLIC	??0?$vector@PAUSTextTail@CPythonTextTail@@V?$allocator@PAUSTextTail@CPythonTextTail@@@std@@@std@@QAE@XZ ; std::vector<CPythonTextTail::STextTail *,std::allocator<CPythonTextTail::STextTail *> >::vector<CPythonTextTail::STextTail *,std::allocator<CPythonTextTail::STextTail *> >
PUBLIC	??1?$vector@PAUSTextTail@CPythonTextTail@@V?$allocator@PAUSTextTail@CPythonTextTail@@@std@@@std@@QAE@XZ ; std::vector<CPythonTextTail::STextTail *,std::allocator<CPythonTextTail::STextTail *> >::~vector<CPythonTextTail::STextTail *,std::allocator<CPythonTextTail::STextTail *> >
PUBLIC	?push_back@?$vector@PAUSTextTail@CPythonTextTail@@V?$allocator@PAUSTextTail@CPythonTextTail@@@std@@@std@@QAEXABQAUSTextTail@CPythonTextTail@@@Z ; std::vector<CPythonTextTail::STextTail *,std::allocator<CPythonTextTail::STextTail *> >::push_back
PUBLIC	?pop_back@?$vector@PAUSTextTail@CPythonTextTail@@V?$allocator@PAUSTextTail@CPythonTextTail@@@std@@@std@@QAEXXZ ; std::vector<CPythonTextTail::STextTail *,std::allocator<CPythonTextTail::STextTail *> >::pop_back
PUBLIC	?empty@?$vector@PAUSTextTail@CPythonTextTail@@V?$allocator@PAUSTextTail@CPythonTextTail@@@std@@@std@@QBE_NXZ ; std::vector<CPythonTextTail::STextTail *,std::allocator<CPythonTextTail::STextTail *> >::empty
PUBLIC	?size@?$vector@PAUSTextTail@CPythonTextTail@@V?$allocator@PAUSTextTail@CPythonTextTail@@@std@@@std@@QBEIXZ ; std::vector<CPythonTextTail::STextTail *,std::allocator<CPythonTextTail::STextTail *> >::size
PUBLIC	?back@?$vector@PAUSTextTail@CPythonTextTail@@V?$allocator@PAUSTextTail@CPythonTextTail@@@std@@@std@@QAEAAPAUSTextTail@CPythonTextTail@@XZ ; std::vector<CPythonTextTail::STextTail *,std::allocator<CPythonTextTail::STextTail *> >::back
PUBLIC	?pointer_to@?$pointer_traits@PAU?$pair@$$CBKPAUSTextTail@CPythonTextTail@@@std@@@std@@SAPAU?$pair@$$CBKPAUSTextTail@CPythonTextTail@@@2@AAU32@@Z ; std::pointer_traits<std::pair<unsigned long const ,CPythonTextTail::STextTail *> *>::pointer_to
PUBLIC	??$?0$$V@?$_Compressed_pair@V?$allocator@U?$_List_node@PAUSTextTail@CPythonTextTail@@PAX@std@@@std@@V?$_List_val@U?$_List_simple_types@PAUSTextTail@CPythonTextTail@@@std@@@2@$00@std@@QAE@U_Zero_then_variadic_args_t@1@@Z ; std::_Compressed_pair<std::allocator<std::_List_node<CPythonTextTail::STextTail *,void *> >,std::_List_val<std::_List_simple_types<CPythonTextTail::STextTail *> >,1>::_Compressed_pair<std::allocator<std::_List_node<CPythonTextTail::STextTail *,void *> >,std::_List_val<std::_List_simple_types<CPythonTextTail::STextTail *> >,1><>
PUBLIC	??$addressof@V?$_List_val@U?$_List_simple_types@PAUSTextTail@CPythonTextTail@@@std@@@std@@@std@@YAPAV?$_List_val@U?$_List_simple_types@PAUSTextTail@CPythonTextTail@@@std@@@0@AAV10@@Z ; std::addressof<std::_List_val<std::_List_simple_types<CPythonTextTail::STextTail *> > >
PUBLIC	??$_Emplace@ABQAUSTextTail@CPythonTextTail@@@?$list@PAUSTextTail@CPythonTextTail@@V?$allocator@PAUSTextTail@CPythonTextTail@@@std@@@std@@QAEPAU?$_List_node@PAUSTextTail@CPythonTextTail@@PAX@1@QAU21@ABQAUSTextTail@CPythonTextTail@@@Z ; std::list<CPythonTextTail::STextTail *,std::allocator<CPythonTextTail::STextTail *> >::_Emplace<CPythonTextTail::STextTail * const &>
PUBLIC	??$_Free_non_head@V?$allocator@U?$_List_node@PAUSTextTail@CPythonTextTail@@PAX@std@@@std@@@?$_List_node@PAUSTextTail@CPythonTextTail@@PAX@std@@SAXAAV?$allocator@U?$_List_node@PAUSTextTail@CPythonTextTail@@PAX@std@@@1@PAU01@@Z ; std::_List_node<CPythonTextTail::STextTail *,void *>::_Free_non_head<std::allocator<std::_List_node<CPythonTextTail::STextTail *,void *> > >
PUBLIC	??$_Erase_head@V?$allocator@U?$_Tree_node@U?$pair@$$CBKPAUSTextTail@CPythonTextTail@@@std@@PAX@std@@@std@@@?$_Tree_val@U?$_Tree_simple_types@U?$pair@$$CBKPAUSTextTail@CPythonTextTail@@@std@@@std@@@std@@QAEXAAV?$allocator@U?$_Tree_node@U?$pair@$$CBKPAUSTextTail@CPythonTextTail@@@std@@PAX@std@@@1@@Z ; std::_Tree_val<std::_Tree_simple_types<std::pair<unsigned long const ,CPythonTextTail::STextTail *> > >::_Erase_head<std::allocator<std::_Tree_node<std::pair<unsigned long const ,CPythonTextTail::STextTail *>,void *> > >
PUBLIC	??$_Erase_tree@V?$allocator@U?$_Tree_node@U?$pair@$$CBKPAUSTextTail@CPythonTextTail@@@std@@PAX@std@@@std@@@?$_Tree_val@U?$_Tree_simple_types@U?$pair@$$CBKPAUSTextTail@CPythonTextTail@@@std@@@std@@@std@@QAEXAAV?$allocator@U?$_Tree_node@U?$pair@$$CBKPAUSTextTail@CPythonTextTail@@@std@@PAX@std@@@1@PAU?$_Tree_node@U?$pair@$$CBKPAUSTextTail@CPythonTextTail@@@std@@PAX@1@@Z ; std::_Tree_val<std::_Tree_simple_types<std::pair<unsigned long const ,CPythonTextTail::STextTail *> > >::_Erase_tree<std::allocator<std::_Tree_node<std::pair<unsigned long const ,CPythonTextTail::STextTail *>,void *> > >
PUBLIC	??$_Find@K@?$_Tree@V?$_Tmap_traits@KPAUSTextTail@CPythonTextTail@@U?$less@K@std@@V?$allocator@U?$pair@$$CBKPAUSTextTail@CPythonTextTail@@@std@@@4@$0A@@std@@@std@@ABEPAU?$_Tree_node@U?$pair@$$CBKPAUSTextTail@CPythonTextTail@@@std@@PAX@1@ABK@Z ; std::_Tree<std::_Tmap_traits<unsigned long,CPythonTextTail::STextTail *,std::less<unsigned long>,std::allocator<std::pair<unsigned long const ,CPythonTextTail::STextTail *> >,0> >::_Find<unsigned long>
PUBLIC	??$?0V?$_Tree_iterator@V?$_Tree_val@U?$_Tree_simple_types@U?$pair@$$CBKPAUSTextTail@CPythonTextTail@@@std@@@std@@@std@@@std@@AB_N$0A@@?$pair@V?$_Tree_iterator@V?$_Tree_val@U?$_Tree_simple_types@U?$pair@$$CBKPAUSTextTail@CPythonTextTail@@@std@@@std@@@std@@@std@@_N@std@@QAE@$$QAV?$_Tree_iterator@V?$_Tree_val@U?$_Tree_simple_types@U?$pair@$$CBKPAUSTextTail@CPythonTextTail@@@std@@@std@@@std@@@1@AB_N@Z ; std::pair<std::_Tree_iterator<std::_Tree_val<std::_Tree_simple_types<std::pair<unsigned long const ,CPythonTextTail::STextTail *> > > >,bool>::pair<std::_Tree_iterator<std::_Tree_val<std::_Tree_simple_types<std::pair<unsigned long const ,CPythonTextTail::STextTail *> > > >,bool><std::_Tree_iterator<std::_Tree_val<std::_Tree_simple_types<std::pair<unsigned long const ,CPythonTextTail::STextTail *> > > >,bool const &,0>
PUBLIC	??$_Emplace@U?$pair@$$CBKPAUSTextTail@CPythonTextTail@@@std@@@?$_Tree@V?$_Tmap_traits@KPAUSTextTail@CPythonTextTail@@U?$less@K@std@@V?$allocator@U?$pair@$$CBKPAUSTextTail@CPythonTextTail@@@std@@@4@$0A@@std@@@std@@IAE?AU?$pair@PAU?$_Tree_node@U?$pair@$$CBKPAUSTextTail@CPythonTextTail@@@std@@PAX@std@@_N@1@$$QAU?$pair@$$CBKPAUSTextTail@CPythonTextTail@@@1@@Z ; std::_Tree<std::_Tmap_traits<unsigned long,CPythonTextTail::STextTail *,std::less<unsigned long>,std::allocator<std::pair<unsigned long const ,CPythonTextTail::STextTail *> >,0> >::_Emplace<std::pair<unsigned long const ,CPythonTextTail::STextTail *> >
PUBLIC	??$move@AAU?$pair@$$CBKPAUSTextTail@CPythonTextTail@@@std@@@std@@YA$$QAU?$pair@$$CBKPAUSTextTail@CPythonTextTail@@@0@AAU10@@Z ; std::move<std::pair<unsigned long const ,CPythonTextTail::STextTail *> &>
PUBLIC	??$forward@AAPAUSTextTail@CPythonTextTail@@@std@@YAAAPAUSTextTail@CPythonTextTail@@AAPAU12@@Z ; std::forward<CPythonTextTail::STextTail * &>
PUBLIC	??$_Seek_wrapped@V?$_List_iterator@V?$_List_val@U?$_List_simple_types@PAUSTextTail@CPythonTextTail@@@std@@@std@@@std@@V?$_List_unchecked_iterator@V?$_List_val@U?$_List_simple_types@PAUSTextTail@CPythonTextTail@@@std@@@std@@@2@@std@@YAXAAV?$_List_iterator@V?$_List_val@U?$_List_simple_types@PAUSTextTail@CPythonTextTail@@@std@@@std@@@0@$$QAV?$_List_unchecked_iterator@V?$_List_val@U?$_List_simple_types@PAUSTextTail@CPythonTextTail@@@std@@@std@@@0@@Z ; std::_Seek_wrapped<std::_List_iterator<std::_List_val<std::_List_simple_types<CPythonTextTail::STextTail *> > >,std::_List_unchecked_iterator<std::_List_val<std::_List_simple_types<CPythonTextTail::STextTail *> > > >
PUBLIC	??$_Find_unchecked@V?$_List_unchecked_iterator@V?$_List_val@U?$_List_simple_types@PAUSTextTail@CPythonTextTail@@@std@@@std@@@std@@PAUSTextTail@CPythonTextTail@@@std@@YA?AV?$_List_unchecked_iterator@V?$_List_val@U?$_List_simple_types@PAUSTextTail@CPythonTextTail@@@std@@@std@@@0@V10@V10@ABQAUSTextTail@CPythonTextTail@@@Z ; std::_Find_unchecked<std::_List_unchecked_iterator<std::_List_val<std::_List_simple_types<CPythonTextTail::STextTail *> > >,CPythonTextTail::STextTail *>
PUBLIC	??$_Adl_verify_range@V?$_List_iterator@V?$_List_val@U?$_List_simple_types@PAUSTextTail@CPythonTextTail@@@std@@@std@@@std@@V12@@std@@YAXABV?$_List_iterator@V?$_List_val@U?$_List_simple_types@PAUSTextTail@CPythonTextTail@@@std@@@std@@@0@0@Z ; std::_Adl_verify_range<std::_List_iterator<std::_List_val<std::_List_simple_types<CPythonTextTail::STextTail *> > >,std::_List_iterator<std::_List_val<std::_List_simple_types<CPythonTextTail::STextTail *> > > >
PUBLIC	??0?$_List_const_iterator@V?$_List_val@U?$_List_simple_types@PAUSTextTail@CPythonTextTail@@@std@@@std@@@std@@QAE@PAU?$_List_node@PAUSTextTail@CPythonTextTail@@PAX@1@PBV?$_List_val@U?$_List_simple_types@PAUSTextTail@CPythonTextTail@@@std@@@1@@Z ; std::_List_const_iterator<std::_List_val<std::_List_simple_types<CPythonTextTail::STextTail *> > >::_List_const_iterator<std::_List_val<std::_List_simple_types<CPythonTextTail::STextTail *> > >
PUBLIC	??0?$_Tree_const_iterator@V?$_Tree_val@U?$_Tree_simple_types@U?$pair@$$CBKPAUSTextTail@CPythonTextTail@@@std@@@std@@@std@@@std@@QAE@PAU?$_Tree_node@U?$pair@$$CBKPAUSTextTail@CPythonTextTail@@@std@@PAX@1@PBV?$_Tree_val@U?$_Tree_simple_types@U?$pair@$$CBKPAUSTextTail@CPythonTextTail@@@std@@@std@@@1@@Z ; std::_Tree_const_iterator<std::_Tree_val<std::_Tree_simple_types<std::pair<unsigned long const ,CPythonTextTail::STextTail *> > > >::_Tree_const_iterator<std::_Tree_val<std::_Tree_simple_types<std::pair<unsigned long const ,CPythonTextTail::STextTail *> > > >
PUBLIC	??_G?$CSingleton@VCPythonTextTail@@@@UAEPAXI@Z	; CSingleton<CPythonTextTail>::`scalar deleting destructor'
PUBLIC	??0?$_List_iterator@V?$_List_val@U?$_List_simple_types@PAUSTextTail@CPythonTextTail@@@std@@@std@@@std@@QAE@PAU?$_List_node@PAUSTextTail@CPythonTextTail@@PAX@1@PBV?$_List_val@U?$_List_simple_types@PAUSTextTail@CPythonTextTail@@@std@@@1@@Z ; std::_List_iterator<std::_List_val<std::_List_simple_types<CPythonTextTail::STextTail *> > >::_List_iterator<std::_List_val<std::_List_simple_types<CPythonTextTail::STextTail *> > >
PUBLIC	??_G?$CDynamicPool@USTextTail@CPythonTextTail@@@@UAEPAXI@Z ; CDynamicPool<CPythonTextTail::STextTail>::`scalar deleting destructor'
PUBLIC	??0?$_Tree_iterator@V?$_Tree_val@U?$_Tree_simple_types@U?$pair@$$CBKPAUSTextTail@CPythonTextTail@@@std@@@std@@@std@@@std@@QAE@PAU?$_Tree_node@U?$pair@$$CBKPAUSTextTail@CPythonTextTail@@@std@@PAX@1@PBV?$_Tree_val@U?$_Tree_simple_types@U?$pair@$$CBKPAUSTextTail@CPythonTextTail@@@std@@@std@@@1@@Z ; std::_Tree_iterator<std::_Tree_val<std::_Tree_simple_types<std::pair<unsigned long const ,CPythonTextTail::STextTail *> > > >::_Tree_iterator<std::_Tree_val<std::_Tree_simple_types<std::pair<unsigned long const ,CPythonTextTail::STextTail *> > > >
PUBLIC	??0?$CSingleton@VCPythonTextTail@@@@QAE@XZ	; CSingleton<CPythonTextTail>::CSingleton<CPythonTextTail>
PUBLIC	??1?$CSingleton@VCPythonTextTail@@@@UAE@XZ	; CSingleton<CPythonTextTail>::~CSingleton<CPythonTextTail>
PUBLIC	??0?$map@KPAUSTextTail@CPythonTextTail@@U?$less@K@std@@V?$allocator@U?$pair@$$CBKPAUSTextTail@CPythonTextTail@@@std@@@4@@std@@QAE@XZ ; std::map<unsigned long,CPythonTextTail::STextTail *,std::less<unsigned long>,std::allocator<std::pair<unsigned long const ,CPythonTextTail::STextTail *> > >::map<unsigned long,CPythonTextTail::STextTail *,std::less<unsigned long>,std::allocator<std::pair<unsigned long const ,CPythonTextTail::STextTail *> > >
PUBLIC	??0?$list@PAUSTextTail@CPythonTextTail@@V?$allocator@PAUSTextTail@CPythonTextTail@@@std@@@std@@QAE@XZ ; std::list<CPythonTextTail::STextTail *,std::allocator<CPythonTextTail::STextTail *> >::list<CPythonTextTail::STextTail *,std::allocator<CPythonTextTail::STextTail *> >
PUBLIC	??1?$list@PAUSTextTail@CPythonTextTail@@V?$allocator@PAUSTextTail@CPythonTextTail@@@std@@@std@@QAE@XZ ; std::list<CPythonTextTail::STextTail *,std::allocator<CPythonTextTail::STextTail *> >::~list<CPythonTextTail::STextTail *,std::allocator<CPythonTextTail::STextTail *> >
PUBLIC	?begin@?$list@PAUSTextTail@CPythonTextTail@@V?$allocator@PAUSTextTail@CPythonTextTail@@@std@@@std@@QAE?AV?$_List_iterator@V?$_List_val@U?$_List_simple_types@PAUSTextTail@CPythonTextTail@@@std@@@std@@@2@XZ ; std::list<CPythonTextTail::STextTail *,std::allocator<CPythonTextTail::STextTail *> >::begin
PUBLIC	?end@?$list@PAUSTextTail@CPythonTextTail@@V?$allocator@PAUSTextTail@CPythonTextTail@@@std@@@std@@QAE?AV?$_List_iterator@V?$_List_val@U?$_List_simple_types@PAUSTextTail@CPythonTextTail@@@std@@@std@@@2@XZ ; std::list<CPythonTextTail::STextTail *,std::allocator<CPythonTextTail::STextTail *> >::end
PUBLIC	?size@?$list@PAUSTextTail@CPythonTextTail@@V?$allocator@PAUSTextTail@CPythonTextTail@@@std@@@std@@QBEIXZ ; std::list<CPythonTextTail::STextTail *,std::allocator<CPythonTextTail::STextTail *> >::size
PUBLIC	?push_back@?$list@PAUSTextTail@CPythonTextTail@@V?$allocator@PAUSTextTail@CPythonTextTail@@@std@@@std@@QAEXABQAUSTextTail@CPythonTextTail@@@Z ; std::list<CPythonTextTail::STextTail *,std::allocator<CPythonTextTail::STextTail *> >::push_back
PUBLIC	?clear@?$list@PAUSTextTail@CPythonTextTail@@V?$allocator@PAUSTextTail@CPythonTextTail@@@std@@@std@@QAEXXZ ; std::list<CPythonTextTail::STextTail *,std::allocator<CPythonTextTail::STextTail *> >::clear
PUBLIC	??1?$_Tree@V?$_Tmap_traits@KPAUSTextTail@CPythonTextTail@@U?$less@K@std@@V?$allocator@U?$pair@$$CBKPAUSTextTail@CPythonTextTail@@@std@@@4@$0A@@std@@@std@@QAE@XZ ; std::_Tree<std::_Tmap_traits<unsigned long,CPythonTextTail::STextTail *,std::less<unsigned long>,std::allocator<std::pair<unsigned long const ,CPythonTextTail::STextTail *> >,0> >::~_Tree<std::_Tmap_traits<unsigned long,CPythonTextTail::STextTail *,std::less<unsigned long>,std::allocator<std::pair<unsigned long const ,CPythonTextTail::STextTail *> >,0> >
PUBLIC	?begin@?$_Tree@V?$_Tmap_traits@KPAUSTextTail@CPythonTextTail@@U?$less@K@std@@V?$allocator@U?$pair@$$CBKPAUSTextTail@CPythonTextTail@@@std@@@4@$0A@@std@@@std@@QAE?AV?$_Tree_iterator@V?$_Tree_val@U?$_Tree_simple_types@U?$pair@$$CBKPAUSTextTail@CPythonTextTail@@@std@@@std@@@std@@@2@XZ ; std::_Tree<std::_Tmap_traits<unsigned long,CPythonTextTail::STextTail *,std::less<unsigned long>,std::allocator<std::pair<unsigned long const ,CPythonTextTail::STextTail *> >,0> >::begin
PUBLIC	?end@?$_Tree@V?$_Tmap_traits@KPAUSTextTail@CPythonTextTail@@U?$less@K@std@@V?$allocator@U?$pair@$$CBKPAUSTextTail@CPythonTextTail@@@std@@@4@$0A@@std@@@std@@QAE?AV?$_Tree_iterator@V?$_Tree_val@U?$_Tree_simple_types@U?$pair@$$CBKPAUSTextTail@CPythonTextTail@@@std@@@std@@@std@@@2@XZ ; std::_Tree<std::_Tmap_traits<unsigned long,CPythonTextTail::STextTail *,std::less<unsigned long>,std::allocator<std::pair<unsigned long const ,CPythonTextTail::STextTail *> >,0> >::end
PUBLIC	?size@?$_Tree@V?$_Tmap_traits@KPAUSTextTail@CPythonTextTail@@U?$less@K@std@@V?$allocator@U?$pair@$$CBKPAUSTextTail@CPythonTextTail@@@std@@@4@$0A@@std@@@std@@QBEIXZ ; std::_Tree<std::_Tmap_traits<unsigned long,CPythonTextTail::STextTail *,std::less<unsigned long>,std::allocator<std::pair<unsigned long const ,CPythonTextTail::STextTail *> >,0> >::size
PUBLIC	?clear@?$_Tree@V?$_Tmap_traits@KPAUSTextTail@CPythonTextTail@@U?$less@K@std@@V?$allocator@U?$pair@$$CBKPAUSTextTail@CPythonTextTail@@@std@@@4@$0A@@std@@@std@@QAEXXZ ; std::_Tree<std::_Tmap_traits<unsigned long,CPythonTextTail::STextTail *,std::less<unsigned long>,std::allocator<std::pair<unsigned long const ,CPythonTextTail::STextTail *> >,0> >::clear
PUBLIC	?find@?$_Tree@V?$_Tmap_traits@KPAUSTextTail@CPythonTextTail@@U?$less@K@std@@V?$allocator@U?$pair@$$CBKPAUSTextTail@CPythonTextTail@@@std@@@4@$0A@@std@@@std@@QAE?AV?$_Tree_iterator@V?$_Tree_val@U?$_Tree_simple_types@U?$pair@$$CBKPAUSTextTail@CPythonTextTail@@@std@@@std@@@std@@@2@ABK@Z ; std::_Tree<std::_Tmap_traits<unsigned long,CPythonTextTail::STextTail *,std::less<unsigned long>,std::allocator<std::pair<unsigned long const ,CPythonTextTail::STextTail *> >,0> >::find
PUBLIC	??8?$_Tree_const_iterator@V?$_Tree_val@U?$_Tree_simple_types@U?$pair@$$CBKPAUSTextTail@CPythonTextTail@@@std@@@std@@@std@@@std@@QBE_NABV01@@Z ; std::_Tree_const_iterator<std::_Tree_val<std::_Tree_simple_types<std::pair<unsigned long const ,CPythonTextTail::STextTail *> > > >::operator==
PUBLIC	??C?$_Tree_iterator@V?$_Tree_val@U?$_Tree_simple_types@U?$pair@$$CBKPAUSTextTail@CPythonTextTail@@@std@@@std@@@std@@@std@@QBEPAU?$pair@$$CBKPAUSTextTail@CPythonTextTail@@@1@XZ ; std::_Tree_iterator<std::_Tree_val<std::_Tree_simple_types<std::pair<unsigned long const ,CPythonTextTail::STextTail *> > > >::operator->
PUBLIC	??E?$_Tree_iterator@V?$_Tree_val@U?$_Tree_simple_types@U?$pair@$$CBKPAUSTextTail@CPythonTextTail@@@std@@@std@@@std@@@std@@QAEAAV01@XZ ; std::_Tree_iterator<std::_Tree_val<std::_Tree_simple_types<std::pair<unsigned long const ,CPythonTextTail::STextTail *> > > >::operator++
PUBLIC	??0?$_Tree_unchecked_const_iterator@V?$_Tree_val@U?$_Tree_simple_types@U?$pair@$$CBKPAUSTextTail@CPythonTextTail@@@std@@@std@@@std@@U_Iterator_base0@2@@std@@QAE@XZ ; std::_Tree_unchecked_const_iterator<std::_Tree_val<std::_Tree_simple_types<std::pair<unsigned long const ,CPythonTextTail::STextTail *> > >,std::_Iterator_base0>::_Tree_unchecked_const_iterator<std::_Tree_val<std::_Tree_simple_types<std::pair<unsigned long const ,CPythonTextTail::STextTail *> > >,std::_Iterator_base0>
PUBLIC	??D?$_List_iterator@V?$_List_val@U?$_List_simple_types@PAUSTextTail@CPythonTextTail@@@std@@@std@@@std@@QBEAAPAUSTextTail@CPythonTextTail@@XZ ; std::_List_iterator<std::_List_val<std::_List_simple_types<CPythonTextTail::STextTail *> > >::operator*
PUBLIC	??E?$_List_iterator@V?$_List_val@U?$_List_simple_types@PAUSTextTail@CPythonTextTail@@@std@@@std@@@std@@QAEAAV01@XZ ; std::_List_iterator<std::_List_val<std::_List_simple_types<CPythonTextTail::STextTail *> > >::operator++
PUBLIC	??8?$_List_const_iterator@V?$_List_val@U?$_List_simple_types@PAUSTextTail@CPythonTextTail@@@std@@@std@@@std@@QBE_NABV01@@Z ; std::_List_const_iterator<std::_List_val<std::_List_simple_types<CPythonTextTail::STextTail *> > >::operator==
PUBLIC	??0?$_List_unchecked_const_iterator@V?$_List_val@U?$_List_simple_types@PAUSTextTail@CPythonTextTail@@@std@@@std@@U_Iterator_base0@2@@std@@QAE@XZ ; std::_List_unchecked_const_iterator<std::_List_val<std::_List_simple_types<CPythonTextTail::STextTail *> >,std::_Iterator_base0>::_List_unchecked_const_iterator<std::_List_val<std::_List_simple_types<CPythonTextTail::STextTail *> >,std::_Iterator_base0>
PUBLIC	??0?$CDynamicPool@USTextTail@CPythonTextTail@@@@QAE@XZ ; CDynamicPool<CPythonTextTail::STextTail>::CDynamicPool<CPythonTextTail::STextTail>
PUBLIC	??1?$CDynamicPool@USTextTail@CPythonTextTail@@@@UAE@XZ ; CDynamicPool<CPythonTextTail::STextTail>::~CDynamicPool<CPythonTextTail::STextTail>
PUBLIC	?Clear@?$CDynamicPool@USTextTail@CPythonTextTail@@@@QAEXXZ ; CDynamicPool<CPythonTextTail::STextTail>::Clear
PUBLIC	?Alloc@?$CDynamicPool@USTextTail@CPythonTextTail@@@@QAEPAUSTextTail@CPythonTextTail@@XZ ; CDynamicPool<CPythonTextTail::STextTail>::Alloc
PUBLIC	?Free@?$CDynamicPool@USTextTail@CPythonTextTail@@@@QAEXPAUSTextTail@CPythonTextTail@@@Z ; CDynamicPool<CPythonTextTail::STextTail>::Free
PUBLIC	?GetCapacity@?$CDynamicPool@USTextTail@CPythonTextTail@@@@QAEKXZ ; CDynamicPool<CPythonTextTail::STextTail>::GetCapacity
PUBLIC	??$insert@$0A@$0A@@?$_Tree@V?$_Tmap_traits@KPAUSTextTail@CPythonTextTail@@U?$less@K@std@@V?$allocator@U?$pair@$$CBKPAUSTextTail@CPythonTextTail@@@std@@@4@$0A@@std@@@std@@QAE?AU?$pair@V?$_Tree_iterator@V?$_Tree_val@U?$_Tree_simple_types@U?$pair@$$CBKPAUSTextTail@CPythonTextTail@@@std@@@std@@@std@@@std@@_N@1@$$QAU?$pair@$$CBKPAUSTextTail@CPythonTextTail@@@1@@Z ; std::_Tree<std::_Tmap_traits<unsigned long,CPythonTextTail::STextTail *,std::less<unsigned long>,std::allocator<std::pair<unsigned long const ,CPythonTextTail::STextTail *> >,0> >::insert<0,0>
PUBLIC	??$?0AAKAAPAUSTextTail@CPythonTextTail@@$0A@@?$pair@$$CBKPAUSTextTail@CPythonTextTail@@@std@@QAE@AAKAAPAUSTextTail@CPythonTextTail@@@Z ; std::pair<unsigned long const ,CPythonTextTail::STextTail *>::pair<unsigned long const ,CPythonTextTail::STextTail *><unsigned long &,CPythonTextTail::STextTail * &,0>
PUBLIC	??$_Get_unwrapped@ABV?$_List_iterator@V?$_List_val@U?$_List_simple_types@PAUSTextTail@CPythonTextTail@@@std@@@std@@@std@@@std@@YA?A_TABV?$_List_iterator@V?$_List_val@U?$_List_simple_types@PAUSTextTail@CPythonTextTail@@@std@@@std@@@0@@Z ; std::_Get_unwrapped<std::_List_iterator<std::_List_val<std::_List_simple_types<CPythonTextTail::STextTail *> > > const &>
PUBLIC	??$_Get_unwrapped@AAV?$_List_iterator@V?$_List_val@U?$_List_simple_types@PAUSTextTail@CPythonTextTail@@@std@@@std@@@std@@@std@@YA?A_TAAV?$_List_iterator@V?$_List_val@U?$_List_simple_types@PAUSTextTail@CPythonTextTail@@@std@@@std@@@0@@Z ; std::_Get_unwrapped<std::_List_iterator<std::_List_val<std::_List_simple_types<CPythonTextTail::STextTail *> > > &>
PUBLIC	??$find@V?$_List_iterator@V?$_List_val@U?$_List_simple_types@PAUSTextTail@CPythonTextTail@@@std@@@std@@@std@@PAUSTextTail@CPythonTextTail@@@std@@YA?AV?$_List_iterator@V?$_List_val@U?$_List_simple_types@PAUSTextTail@CPythonTextTail@@@std@@@std@@@0@V10@V10@ABQAUSTextTail@CPythonTextTail@@@Z ; std::find<std::_List_iterator<std::_List_val<std::_List_simple_types<CPythonTextTail::STextTail *> > >,CPythonTextTail::STextTail *>
PUBLIC	??$erase@V?$_Tree_iterator@V?$_Tree_val@U?$_Tree_simple_types@U?$pair@$$CBKPAUSTextTail@CPythonTextTail@@@std@@@std@@@std@@@std@@$0A@@?$_Tree@V?$_Tmap_traits@KPAUSTextTail@CPythonTextTail@@U?$less@K@std@@V?$allocator@U?$pair@$$CBKPAUSTextTail@CPythonTextTail@@@std@@@4@$0A@@std@@@std@@QAE?AV?$_Tree_iterator@V?$_Tree_val@U?$_Tree_simple_types@U?$pair@$$CBKPAUSTextTail@CPythonTextTail@@@std@@@std@@@std@@@1@V21@@Z ; std::_Tree<std::_Tmap_traits<unsigned long,CPythonTextTail::STextTail *,std::less<unsigned long>,std::allocator<std::pair<unsigned long const ,CPythonTextTail::STextTail *> >,0> >::erase<std::_Tree_iterator<std::_Tree_val<std::_Tree_simple_types<std::pair<unsigned long const ,CPythonTextTail::STextTail *> > > >,0>
PUBLIC	??1?$map@KPAUSTextTail@CPythonTextTail@@U?$less@K@std@@V?$allocator@U?$pair@$$CBKPAUSTextTail@CPythonTextTail@@@std@@@4@@std@@QAE@XZ ; std::map<unsigned long,CPythonTextTail::STextTail *,std::less<unsigned long>,std::allocator<std::pair<unsigned long const ,CPythonTextTail::STextTail *> > >::~map<unsigned long,CPythonTextTail::STextTail *,std::less<unsigned long>,std::allocator<std::pair<unsigned long const ,CPythonTextTail::STextTail *> > >
PUBLIC	??_GCPythonTextTail@@UAEPAXI@Z			; CPythonTextTail::`scalar deleting destructor'
PUBLIC	?Clear@CPythonTextTail@@QAEXXZ			; CPythonTextTail::Clear
PUBLIC	?EnablePKTitle@CPythonTextTail@@QAEXH@Z		; CPythonTextTail::EnablePKTitle
PUBLIC	?SelectItemName@CPythonTextTail@@QAEXK@Z	; CPythonTextTail::SelectItemName
PUBLIC	?DeleteTextTail@CPythonTextTail@@IAEXPAUSTextTail@1@@Z ; CPythonTextTail::DeleteTextTail
PUBLIC	?RegisterTextTail@CPythonTextTail@@IAEPAUSTextTail@1@KPBDPAVCGraphicObjectInstance@@MABUD3DXCOLOR@@@Z ; CPythonTextTail::RegisterTextTail
PUBLIC	?IsChatTextTail@CPythonTextTail@@QAE_NK@Z	; CPythonTextTail::IsChatTextTail
PUBLIC	?GetTextTailPosition@CPythonTextTail@@QAE_NKPAM00@Z ; CPythonTextTail::GetTextTailPosition
PUBLIC	?RegisterInfoTail@CPythonTextTail@@QAEXKPBD@Z	; CPythonTextTail::RegisterInfoTail
PUBLIC	?isIn@CPythonTextTail@@IAE_NPAUSTextTail@1@0@Z	; CPythonTextTail::isIn
PUBLIC	?ShowItemTextTail@CPythonTextTail@@QAEXK@Z	; CPythonTextTail::ShowItemTextTail
PUBLIC	?ShowCharacterTextTail@CPythonTextTail@@QAEXK@Z	; CPythonTextTail::ShowCharacterTextTail
PUBLIC	?ShowAllTextTail@CPythonTextTail@@QAEXXZ	; CPythonTextTail::ShowAllTextTail
PUBLIC	?UpdateDistance@CPythonTextTail@@IAEXABUD3DXVECTOR3@@PAUSTextTail@1@@Z ; CPythonTextTail::UpdateDistance
PUBLIC	?HideAllTextTail@CPythonTextTail@@QAEXXZ	; CPythonTextTail::HideAllTextTail
PUBLIC	?RenderTextTailName@CPythonTextTail@@IAEXPAUSTextTail@1@@Z ; CPythonTextTail::RenderTextTailName
PUBLIC	?RenderTextTailBox@CPythonTextTail@@IAEXPAUSTextTail@1@@Z ; CPythonTextTail::RenderTextTailBox
PUBLIC	?Render@CPythonTextTail@@QAEXXZ			; CPythonTextTail::Render
PUBLIC	?ArrangeTextTail@CPythonTextTail@@QAEXXZ	; CPythonTextTail::ArrangeTextTail
PUBLIC	?UpdateTextTail@CPythonTextTail@@IAEXPAUSTextTail@1@@Z ; CPythonTextTail::UpdateTextTail
PUBLIC	??0?$_List_const_iterator@V?$_List_val@U?$_List_simple_types@PAUSTextTail@CPythonTextTail@@@std@@@std@@@std@@QAE@XZ ; std::_List_const_iterator<std::_List_val<std::_List_simple_types<CPythonTextTail::STextTail *> > >::_List_const_iterator<std::_List_val<std::_List_simple_types<CPythonTextTail::STextTail *> > >
PUBLIC	??0?$_List_iterator@V?$_List_val@U?$_List_simple_types@PAUSTextTail@CPythonTextTail@@@std@@@std@@@std@@QAE@XZ ; std::_List_iterator<std::_List_val<std::_List_simple_types<CPythonTextTail::STextTail *> > >::_List_iterator<std::_List_val<std::_List_simple_types<CPythonTextTail::STextTail *> > >
PUBLIC	?UpdateShowingTextTail@CPythonTextTail@@QAEXXZ	; CPythonTextTail::UpdateShowingTextTail
PUBLIC	??0?$_Tree_const_iterator@V?$_Tree_val@U?$_Tree_simple_types@U?$pair@$$CBKPAUSTextTail@CPythonTextTail@@@std@@@std@@@std@@@std@@QAE@XZ ; std::_Tree_const_iterator<std::_Tree_val<std::_Tree_simple_types<std::pair<unsigned long const ,CPythonTextTail::STextTail *> > > >::_Tree_const_iterator<std::_Tree_val<std::_Tree_simple_types<std::pair<unsigned long const ,CPythonTextTail::STextTail *> > > >
PUBLIC	??0?$_Tree_iterator@V?$_Tree_val@U?$_Tree_simple_types@U?$pair@$$CBKPAUSTextTail@CPythonTextTail@@@std@@@std@@@std@@@std@@QAE@XZ ; std::_Tree_iterator<std::_Tree_val<std::_Tree_simple_types<std::pair<unsigned long const ,CPythonTextTail::STextTail *> > > >::_Tree_iterator<std::_Tree_val<std::_Tree_simple_types<std::pair<unsigned long const ,CPythonTextTail::STextTail *> > > >
PUBLIC	?UpdateAllTextTail@CPythonTextTail@@QAEXXZ	; CPythonTextTail::UpdateAllTextTail
PUBLIC	?TextTail_GetLivingTime@@YAJXZ			; TextTail_GetLivingTime
PUBLIC	??_GSTextTail@CPythonTextTail@@UAEPAXI@Z	; CPythonTextTail::STextTail::`scalar deleting destructor'
PUBLIC	??1STextTail@CPythonTextTail@@UAE@XZ		; CPythonTextTail::STextTail::~STextTail
PUBLIC	??0STextTail@CPythonTextTail@@QAE@XZ		; CPythonTextTail::STextTail::STextTail
PUBLIC	?RegisterChatTail@CPythonTextTail@@QAEXKPBD@Z	; CPythonTextTail::RegisterChatTail
PUBLIC	?RegisterItemTextTail@CPythonTextTail@@QAEXKPBDPAVCGraphicObjectInstance@@@Z ; CPythonTextTail::RegisterItemTextTail
PUBLIC	?SetItemTextTailOwner@CPythonTextTail@@QAEXKPBD@Z ; CPythonTextTail::SetItemTextTailOwner
PUBLIC	?DeleteItemTextTail@CPythonTextTail@@QAEXK@Z	; CPythonTextTail::DeleteItemTextTail
PUBLIC	?Pick@CPythonTextTail@@QAEHHH@Z			; CPythonTextTail::Pick
PUBLIC	?TextTail_SetLivingTime@@YAXJ@Z			; TextTail_SetLivingTime
PUBLIC	??0CPythonTextTail@@QAE@XZ			; CPythonTextTail::CPythonTextTail
PUBLIC	??1CPythonTextTail@@UAE@XZ			; CPythonTextTail::~CPythonTextTail
PUBLIC	?GetInfo@CPythonTextTail@@QAEXPAV?$basic_string@DU?$char_traits@D@std@@V?$allocator@D@2@@std@@@Z ; CPythonTextTail::GetInfo
PUBLIC	?Initialize@CPythonTextTail@@QAEXXZ		; CPythonTextTail::Initialize
PUBLIC	?Destroy@CPythonTextTail@@QAEXXZ		; CPythonTextTail::Destroy
PUBLIC	?RegisterCharacterTextTail@CPythonTextTail@@QAEXKKABUD3DXCOLOR@@M@Z ; CPythonTextTail::RegisterCharacterTextTail
PUBLIC	?DeleteCharacterTextTail@CPythonTextTail@@QAEXK@Z ; CPythonTextTail::DeleteCharacterTextTail
PUBLIC	?AttachLevel@CPythonTextTail@@QAEXKPBDABUD3DXCOLOR@@@Z ; CPythonTextTail::AttachLevel
PUBLIC	?SetCharacterTextTailColor@CPythonTextTail@@QAEXKABUD3DXCOLOR@@@Z ; CPythonTextTail::SetCharacterTextTailColor
PUBLIC	?DetachTitle@CPythonTextTail@@QAEXK@Z		; CPythonTextTail::DetachTitle
PUBLIC	?AttachTitle@CPythonTextTail@@QAEXKPBDABUD3DXCOLOR@@@Z ; CPythonTextTail::AttachTitle
EXTRN	??_ECPythonTextTail@@UAEPAXI@Z:PROC		; CPythonTextTail::`vector deleting destructor'
EXTRN	??_E?$CSingleton@VCPythonTextTail@@@@UAEPAXI@Z:PROC ; CSingleton<CPythonTextTail>::`vector deleting destructor'
EXTRN	??_ESTextTail@CPythonTextTail@@UAEPAXI@Z:PROC	; CPythonTextTail::STextTail::`vector deleting destructor'
EXTRN	??_E?$CDynamicPool@USTextTail@CPythonTextTail@@@@UAEPAXI@Z:PROC ; CDynamicPool<CPythonTextTail::STextTail>::`vector deleting destructor'
;	COMDAT ?$TSS0@?6??SetItemTextTailOwner@CPythonTextTail@@QAEXKPBD@Z@4HA
_BSS	SEGMENT
?$TSS0@?6??SetItemTextTailOwner@CPythonTextTail@@QAEXKPBD@Z@4HA DD 01H DUP (?) ; `CPythonTextTail::SetItemTextTailOwner'::`7'::$TSS0
_BSS	ENDS
;	COMDAT ?strOwnership@?6??SetItemTextTailOwner@CPythonTextTail@@QAEXKPBD@Z@4ABV?$basic_string@DU?$char_traits@D@std@@V?$allocator@D@2@@std@@B
_BSS	SEGMENT
?strOwnership@?6??SetItemTextTailOwner@CPythonTextTail@@QAEXKPBD@Z@4ABV?$basic_string@DU?$char_traits@D@std@@V?$allocator@D@2@@std@@B DD 01H DUP (?) ; `CPythonTextTail::SetItemTextTailOwner'::`7'::strOwnership
_BSS	ENDS
;	COMDAT ?$S11@?6??SetItemTextTailOwner@CPythonTextTail@@QAEXKPBD@Z@4V?$basic_string@DU?$char_traits@D@std@@V?$allocator@D@2@@std@@B
_BSS	SEGMENT
?$S11@?6??SetItemTextTailOwner@CPythonTextTail@@QAEXKPBD@Z@4V?$basic_string@DU?$char_traits@D@std@@V?$allocator@D@2@@std@@B DB 018H DUP (?) ; `CPythonTextTail::SetItemTextTailOwner'::`7'::$S11
_BSS	ENDS
;	COMDAT xdata$x
xdata$x	SEGMENT
__ehfuncinfo$?RegisterCharacterTextTail@CPythonTextTail@@QAEXKKABUD3DXCOLOR@@M@Z DD 019930522H
	DD	02H
	DD	FLAT:__unwindtable$?RegisterCharacterTextTail@CPythonTextTail@@QAEXKKABUD3DXCOLOR@@M@Z
	DD	2 DUP(00H)
	DD	2 DUP(00H)
	DD	00H
	DD	01H
__unwindtable$?RegisterCharacterTextTail@CPythonTextTail@@QAEXKKABUD3DXCOLOR@@M@Z DD 0ffffffffH
	DD	FLAT:__unwindfunclet$?RegisterCharacterTextTail@CPythonTextTail@@QAEXKKABUD3DXCOLOR@@M@Z$0
	DD	0ffffffffH
	DD	FLAT:__unwindfunclet$?RegisterCharacterTextTail@CPythonTextTail@@QAEXKKABUD3DXCOLOR@@M@Z$1
xdata$x	ENDS
;	COMDAT xdata$x
xdata$x	SEGMENT
__ehfuncinfo$??0CPythonTextTail@@QAE@XZ DD 019930522H
	DD	05H
	DD	FLAT:__unwindtable$??0CPythonTextTail@@QAE@XZ
	DD	2 DUP(00H)
	DD	2 DUP(00H)
	DD	00H
	DD	01H
__unwindtable$??0CPythonTextTail@@QAE@XZ DD 0ffffffffH
	DD	FLAT:__unwindfunclet$??0CPythonTextTail@@QAE@XZ$0
	DD	00H
	DD	FLAT:__unwindfunclet$??0CPythonTextTail@@QAE@XZ$1
	DD	01H
	DD	FLAT:__unwindfunclet$??0CPythonTextTail@@QAE@XZ$2
	DD	02H
	DD	FLAT:__unwindfunclet$??0CPythonTextTail@@QAE@XZ$3
	DD	03H
	DD	FLAT:__unwindfunclet$??0CPythonTextTail@@QAE@XZ$4
xdata$x	ENDS
;	COMDAT xdata$x
xdata$x	SEGMENT
__ehfuncinfo$?SetItemTextTailOwner@CPythonTextTail@@QAEXKPBD@Z DD 019930522H
	DD	04H
	DD	FLAT:__unwindtable$?SetItemTextTailOwner@CPythonTextTail@@QAEXKPBD@Z
	DD	2 DUP(00H)
	DD	2 DUP(00H)
	DD	00H
	DD	01H
__unwindtable$?SetItemTextTailOwner@CPythonTextTail@@QAEXKPBD@Z DD 0ffffffffH
	DD	FLAT:__unwindfunclet$?SetItemTextTailOwner@CPythonTextTail@@QAEXKPBD@Z$0
	DD	00H
	DD	FLAT:__unwindfunclet$?SetItemTextTailOwner@CPythonTextTail@@QAEXKPBD@Z$1
	DD	01H
	DD	FLAT:__unwindfunclet$?SetItemTextTailOwner@CPythonTextTail@@QAEXKPBD@Z$2
	DD	02H
	DD	FLAT:__unwindfunclet$?SetItemTextTailOwner@CPythonTextTail@@QAEXKPBD@Z$3
xdata$x	ENDS
;	COMDAT xdata$x
xdata$x	SEGMENT
__ehfuncinfo$??$insert@$0A@$0A@@?$_Tree@V?$_Tmap_traits@KPAUSTextTail@CPythonTextTail@@U?$less@K@std@@V?$allocator@U?$pair@$$CBKPAUSTextTail@CPythonTextTail@@@std@@@4@$0A@@std@@@std@@QAE?AU?$pair@V?$_Tree_iterator@V?$_Tree_val@U?$_Tree_simple_types@U?$pair@$$CBKPAUSTextTail@CPythonTextTail@@@std@@@std@@@std@@@std@@_N@1@$$QAU?$pair@$$CBKPAUSTextTail@CPythonTextTail@@@1@@Z DD 019930522H
	DD	01H
	DD	FLAT:__unwindtable$??$insert@$0A@$0A@@?$_Tree@V?$_Tmap_traits@KPAUSTextTail@CPythonTextTail@@U?$less@K@std@@V?$allocator@U?$pair@$$CBKPAUSTextTail@CPythonTextTail@@@std@@@4@$0A@@std@@@std@@QAE?AU?$pair@V?$_Tree_iterator@V?$_Tree_val@U?$_Tree_simple_types@U?$pair@$$CBKPAUSTextTail@CPythonTextTail@@@std@@@std@@@std@@@std@@_N@1@$$QAU?$pair@$$CBKPAUSTextTail@CPythonTextTail@@@1@@Z
	DD	2 DUP(00H)
	DD	2 DUP(00H)
	DD	00H
	DD	01H
__unwindtable$??$insert@$0A@$0A@@?$_Tree@V?$_Tmap_traits@KPAUSTextTail@CPythonTextTail@@U?$less@K@std@@V?$allocator@U?$pair@$$CBKPAUSTextTail@CPythonTextTail@@@std@@@4@$0A@@std@@@std@@QAE?AU?$pair@V?$_Tree_iterator@V?$_Tree_val@U?$_Tree_simple_types@U?$pair@$$CBKPAUSTextTail@CPythonTextTail@@@std@@@std@@@std@@@std@@_N@1@$$QAU?$pair@$$CBKPAUSTextTail@CPythonTextTail@@@1@@Z DD 0ffffffffH
	DD	FLAT:__unwindfunclet$??$insert@$0A@$0A@@?$_Tree@V?$_Tmap_traits@KPAUSTextTail@CPythonTextTail@@U?$less@K@std@@V?$allocator@U?$pair@$$CBKPAUSTextTail@CPythonTextTail@@@std@@@4@$0A@@std@@@std@@QAE?AU?$pair@V?$_Tree_iterator@V?$_Tree_val@U?$_Tree_simple_types@U?$pair@$$CBKPAUSTextTail@CPythonTextTail@@@std@@@std@@@std@@@std@@_N@1@$$QAU?$pair@$$CBKPAUSTextTail@CPythonTextTail@@@1@@Z$2
xdata$x	ENDS
;	COMDAT xdata$x
xdata$x	SEGMENT
__ehfuncinfo$?push_back@?$list@PAUSTextTail@CPythonTextTail@@V?$allocator@PAUSTextTail@CPythonTextTail@@@std@@@std@@QAEXABQAUSTextTail@CPythonTextTail@@@Z DD 019930522H
	DD	01H
	DD	FLAT:__unwindtable$?push_back@?$list@PAUSTextTail@CPythonTextTail@@V?$allocator@PAUSTextTail@CPythonTextTail@@@std@@@std@@QAEXABQAUSTextTail@CPythonTextTail@@@Z
	DD	2 DUP(00H)
	DD	2 DUP(00H)
	DD	00H
	DD	01H
__unwindtable$?push_back@?$list@PAUSTextTail@CPythonTextTail@@V?$allocator@PAUSTextTail@CPythonTextTail@@@std@@@std@@QAEXABQAUSTextTail@CPythonTextTail@@@Z DD 0ffffffffH
	DD	FLAT:__unwindfunclet$?push_back@?$list@PAUSTextTail@CPythonTextTail@@V?$allocator@PAUSTextTail@CPythonTextTail@@@std@@@std@@QAEXABQAUSTextTail@CPythonTextTail@@@Z$1
xdata$x	ENDS
;	COMDAT xdata$x
xdata$x	SEGMENT
__ehfuncinfo$??$_Emplace@U?$pair@$$CBKPAUSTextTail@CPythonTextTail@@@std@@@?$_Tree@V?$_Tmap_traits@KPAUSTextTail@CPythonTextTail@@U?$less@K@std@@V?$allocator@U?$pair@$$CBKPAUSTextTail@CPythonTextTail@@@std@@@4@$0A@@std@@@std@@IAE?AU?$pair@PAU?$_Tree_node@U?$pair@$$CBKPAUSTextTail@CPythonTextTail@@@std@@PAX@std@@_N@1@$$QAU?$pair@$$CBKPAUSTextTail@CPythonTextTail@@@1@@Z DD 019930522H
	DD	01H
	DD	FLAT:__unwindtable$??$_Emplace@U?$pair@$$CBKPAUSTextTail@CPythonTextTail@@@std@@@?$_Tree@V?$_Tmap_traits@KPAUSTextTail@CPythonTextTail@@U?$less@K@std@@V?$allocator@U?$pair@$$CBKPAUSTextTail@CPythonTextTail@@@std@@@4@$0A@@std@@@std@@IAE?AU?$pair@PAU?$_Tree_node@U?$pair@$$CBKPAUSTextTail@CPythonTextTail@@@std@@PAX@std@@_N@1@$$QAU?$pair@$$CBKPAUSTextTail@CPythonTextTail@@@1@@Z
	DD	2 DUP(00H)
	DD	2 DUP(00H)
	DD	00H
	DD	01H
__unwindtable$??$_Emplace@U?$pair@$$CBKPAUSTextTail@CPythonTextTail@@@std@@@?$_Tree@V?$_Tmap_traits@KPAUSTextTail@CPythonTextTail@@U?$less@K@std@@V?$allocator@U?$pair@$$CBKPAUSTextTail@CPythonTextTail@@@std@@@4@$0A@@std@@@std@@IAE?AU?$pair@PAU?$_Tree_node@U?$pair@$$CBKPAUSTextTail@CPythonTextTail@@@std@@PAX@std@@_N@1@$$QAU?$pair@$$CBKPAUSTextTail@CPythonTextTail@@@1@@Z DD 0ffffffffH
	DD	FLAT:__unwindfunclet$??$_Emplace@U?$pair@$$CBKPAUSTextTail@CPythonTextTail@@@std@@@?$_Tree@V?$_Tmap_traits@KPAUSTextTail@CPythonTextTail@@U?$less@K@std@@V?$allocator@U?$pair@$$CBKPAUSTextTail@CPythonTextTail@@@std@@@4@$0A@@std@@@std@@IAE?AU?$pair@PAU?$_Tree_node@U?$pair@$$CBKPAUSTextTail@CPythonTextTail@@@std@@PAX@std@@_N@1@$$QAU?$pair@$$CBKPAUSTextTail@CPythonTextTail@@@1@@Z$2
xdata$x	ENDS
;	COMDAT xdata$x
xdata$x	SEGMENT
__ehfuncinfo$??$_Emplace@ABQAUSTextTail@CPythonTextTail@@@?$list@PAUSTextTail@CPythonTextTail@@V?$allocator@PAUSTextTail@CPythonTextTail@@@std@@@std@@QAEPAU?$_List_node@PAUSTextTail@CPythonTextTail@@PAX@1@QAU21@ABQAUSTextTail@CPythonTextTail@@@Z DD 019930522H
	DD	01H
	DD	FLAT:__unwindtable$??$_Emplace@ABQAUSTextTail@CPythonTextTail@@@?$list@PAUSTextTail@CPythonTextTail@@V?$allocator@PAUSTextTail@CPythonTextTail@@@std@@@std@@QAEPAU?$_List_node@PAUSTextTail@CPythonTextTail@@PAX@1@QAU21@ABQAUSTextTail@CPythonTextTail@@@Z
	DD	2 DUP(00H)
	DD	2 DUP(00H)
	DD	00H
	DD	01H
__unwindtable$??$_Emplace@ABQAUSTextTail@CPythonTextTail@@@?$list@PAUSTextTail@CPythonTextTail@@V?$allocator@PAUSTextTail@CPythonTextTail@@@std@@@std@@QAEPAU?$_List_node@PAUSTextTail@CPythonTextTail@@PAX@1@QAU21@ABQAUSTextTail@CPythonTextTail@@@Z DD 0ffffffffH
	DD	FLAT:__unwindfunclet$??$_Emplace@ABQAUSTextTail@CPythonTextTail@@@?$list@PAUSTextTail@CPythonTextTail@@V?$allocator@PAUSTextTail@CPythonTextTail@@@std@@@std@@QAEPAU?$_List_node@PAUSTextTail@CPythonTextTail@@PAX@1@QAU21@ABQAUSTextTail@CPythonTextTail@@@Z$1
xdata$x	ENDS
;	COMDAT xdata$x
xdata$x	SEGMENT
__ehfuncinfo$??$?0U?$pair@$$CBKPAUSTextTail@CPythonTextTail@@@std@@@?$_Tree_temp_node@V?$allocator@U?$_Tree_node@U?$pair@$$CBKPAUSTextTail@CPythonTextTail@@@std@@PAX@std@@@std@@@std@@QAE@AAV?$allocator@U?$_Tree_node@U?$pair@$$CBKPAUSTextTail@CPythonTextTail@@@std@@PAX@std@@@1@PAU?$_Tree_node@U?$pair@$$CBKPAUSTextTail@CPythonTextTail@@@std@@PAX@1@$$QAU?$pair@$$CBKPAUSTextTail@CPythonTextTail@@@1@@Z DD 019930522H
	DD	01H
	DD	FLAT:__unwindtable$??$?0U?$pair@$$CBKPAUSTextTail@CPythonTextTail@@@std@@@?$_Tree_temp_node@V?$allocator@U?$_Tree_node@U?$pair@$$CBKPAUSTextTail@CPythonTextTail@@@std@@PAX@std@@@std@@@std@@QAE@AAV?$allocator@U?$_Tree_node@U?$pair@$$CBKPAUSTextTail@CPythonTextTail@@@std@@PAX@std@@@1@PAU?$_Tree_node@U?$pair@$$CBKPAUSTextTail@CPythonTextTail@@@std@@PAX@1@$$QAU?$pair@$$CBKPAUSTextTail@CPythonTextTail@@@1@@Z
	DD	2 DUP(00H)
	DD	2 DUP(00H)
	DD	00H
	DD	01H
__unwindtable$??$?0U?$pair@$$CBKPAUSTextTail@CPythonTextTail@@@std@@@?$_Tree_temp_node@V?$allocator@U?$_Tree_node@U?$pair@$$CBKPAUSTextTail@CPythonTextTail@@@std@@PAX@std@@@std@@@std@@QAE@AAV?$allocator@U?$_Tree_node@U?$pair@$$CBKPAUSTextTail@CPythonTextTail@@@std@@PAX@std@@@1@PAU?$_Tree_node@U?$pair@$$CBKPAUSTextTail@CPythonTextTail@@@std@@PAX@1@$$QAU?$pair@$$CBKPAUSTextTail@CPythonTextTail@@@1@@Z DD 0ffffffffH
	DD	FLAT:__unwindfunclet$??$?0U?$pair@$$CBKPAUSTextTail@CPythonTextTail@@@std@@@?$_Tree_temp_node@V?$allocator@U?$_Tree_node@U?$pair@$$CBKPAUSTextTail@CPythonTextTail@@@std@@PAX@std@@@std@@@std@@QAE@AAV?$allocator@U?$_Tree_node@U?$pair@$$CBKPAUSTextTail@CPythonTextTail@@@std@@PAX@std@@@1@PAU?$_Tree_node@U?$pair@$$CBKPAUSTextTail@CPythonTextTail@@@std@@PAX@1@$$QAU?$pair@$$CBKPAUSTextTail@CPythonTextTail@@@1@@Z$1
xdata$x	ENDS
;	COMDAT xdata$x
xdata$x	SEGMENT
__ehfuncinfo$??$?0ABQAUSTextTail@CPythonTextTail@@@?$_List_node_emplace_op2@V?$allocator@U?$_List_node@PAUSTextTail@CPythonTextTail@@PAX@std@@@std@@@std@@QAE@AAV?$allocator@U?$_List_node@PAUSTextTail@CPythonTextTail@@PAX@std@@@1@ABQAUSTextTail@CPythonTextTail@@@Z DD 019930522H
	DD	01H
	DD	FLAT:__unwindtable$??$?0ABQAUSTextTail@CPythonTextTail@@@?$_List_node_emplace_op2@V?$allocator@U?$_List_node@PAUSTextTail@CPythonTextTail@@PAX@std@@@std@@@std@@QAE@AAV?$allocator@U?$_List_node@PAUSTextTail@CPythonTextTail@@PAX@std@@@1@ABQAUSTextTail@CPythonTextTail@@@Z
	DD	2 DUP(00H)
	DD	2 DUP(00H)
	DD	00H
	DD	01H
__unwindtable$??$?0ABQAUSTextTail@CPythonTextTail@@@?$_List_node_emplace_op2@V?$allocator@U?$_List_node@PAUSTextTail@CPythonTextTail@@PAX@std@@@std@@@std@@QAE@AAV?$allocator@U?$_List_node@PAUSTextTail@CPythonTextTail@@PAX@std@@@1@ABQAUSTextTail@CPythonTextTail@@@Z DD 0ffffffffH
	DD	FLAT:__unwindfunclet$??$?0ABQAUSTextTail@CPythonTextTail@@@?$_List_node_emplace_op2@V?$allocator@U?$_List_node@PAUSTextTail@CPythonTextTail@@PAX@std@@@std@@@std@@QAE@AAV?$allocator@U?$_List_node@PAUSTextTail@CPythonTextTail@@PAX@std@@@1@ABQAUSTextTail@CPythonTextTail@@@Z$0
xdata$x	ENDS
;	COMDAT xdata$x
xdata$x	SEGMENT
__ehfuncinfo$??0?$_Tree_temp_node_alloc@V?$allocator@U?$_Tree_node@U?$pair@$$CBKPAUSTextTail@CPythonTextTail@@@std@@PAX@std@@@std@@@std@@QAE@AAV?$allocator@U?$_Tree_node@U?$pair@$$CBKPAUSTextTail@CPythonTextTail@@@std@@PAX@std@@@1@@Z DD 019930522H
	DD	01H
	DD	FLAT:__unwindtable$??0?$_Tree_temp_node_alloc@V?$allocator@U?$_Tree_node@U?$pair@$$CBKPAUSTextTail@CPythonTextTail@@@std@@PAX@std@@@std@@@std@@QAE@AAV?$allocator@U?$_Tree_node@U?$pair@$$CBKPAUSTextTail@CPythonTextTail@@@std@@PAX@std@@@1@@Z
	DD	2 DUP(00H)
	DD	2 DUP(00H)
	DD	00H
	DD	01H
__unwindtable$??0?$_Tree_temp_node_alloc@V?$allocator@U?$_Tree_node@U?$pair@$$CBKPAUSTextTail@CPythonTextTail@@@std@@PAX@std@@@std@@@std@@QAE@AAV?$allocator@U?$_Tree_node@U?$pair@$$CBKPAUSTextTail@CPythonTextTail@@@std@@PAX@std@@@1@@Z DD 0ffffffffH
	DD	FLAT:__unwindfunclet$??0?$_Tree_temp_node_alloc@V?$allocator@U?$_Tree_node@U?$pair@$$CBKPAUSTextTail@CPythonTextTail@@@std@@PAX@std@@@std@@@std@@QAE@AAV?$allocator@U?$_Tree_node@U?$pair@$$CBKPAUSTextTail@CPythonTextTail@@@std@@PAX@std@@@1@@Z$0
?c_TextTail_Player_Color@@3UD3DXCOLOR@@B DD 03f800000r ; 1 ; c_TextTail_Player_Color
	DD	03f800000r			; 1
	DD	03f800000r			; 1
	DD	03f800000r			; 1
?c_TextTail_Monster_Color@@3UD3DXCOLOR@@B DD 03f800000r ; 1 ; c_TextTail_Monster_Color
	DD	000000000r			; 0
	DD	000000000r			; 0
	DD	03f800000r			; 1
?c_TextTail_Guild_Name_Color@@3UD3DXCOLOR@@B DD 03f6feff1r ; 0.937255 ; c_TextTail_Guild_Name_Color
	DD	03f53d3d5r			; 0.827451
	DD	03f800000r			; 1
	DD	03f800000r			; 1
?c_TextTail_Item_Color@@3UD3DXCOLOR@@B DD 03f800000r ; 1 ; c_TextTail_Item_Color
	DD	03f800000r			; 1
	DD	03f800000r			; 1
	DD	03f800000r			; 1
?c_TextTail_Chat_Color@@3UD3DXCOLOR@@B DD 03f800000r ; 1 ; c_TextTail_Chat_Color
	DD	03f800000r			; 1
	DD	03f800000r			; 1
	DD	03f800000r			; 1
?c_TextTail_Info_Color@@3UD3DXCOLOR@@B DD 03f800000r ; 1 ; c_TextTail_Info_Color
	DD	03f48f5c3r			; 0.785
	DD	03f48f5c3r			; 0.785
	DD	03f800000r			; 1
; Function compile flags: /Ogtp
; File D:\_m2work\Server Client TMP4\ClientVS22\source\UserInterface\PythonTextTail.cpp
; File C:\Program Files\Microsoft Visual Studio\2022\Community\VC\Tools\MSVC\14.44.35207\include\xtree
; File D:\_m2work\Server Client TMP4\ClientVS22\source\UserInterface\PythonTextTail.cpp
; File C:\Program Files\Microsoft Visual Studio\2022\Community\VC\Tools\MSVC\14.44.35207\include\xtree
; File C:\Program Files\Microsoft Visual Studio\2022\Community\VC\Tools\MSVC\14.44.35207\include\type_traits
; File C:\Program Files\Microsoft Visual Studio\2022\Community\VC\Tools\MSVC\14.44.35207\include\xtree
; File D:\_m2work\Server Client TMP4\ClientVS22\source\UserInterface\PythonTextTail.cpp
;	COMDAT ?AttachTitle@CPythonTextTail@@QAEXKPBDABUD3DXCOLOR@@@Z
_TEXT	SEGMENT
__Loc$1 = -12						; size = 12
_dwVID$ = 8						; size = 4
_c_szName$ = 12						; size = 4
_c_rColor$ = 16						; size = 4
?AttachTitle@CPythonTextTail@@QAEXKPBDABUD3DXCOLOR@@@Z PROC ; CPythonTextTail::AttachTitle, COMDAT
; _this$ = ecx

; 891  : {

  00000	55		 push	 ebp
  00001	8b ec		 mov	 ebp, esp
  00003	83 ec 0c	 sub	 esp, 12			; 0000000cH

; 892  : 	if (!bPKTitleEnable)

  00006	83 3d 00 00 00
	00 00		 cmp	 DWORD PTR ?bPKTitleEnable@@3HA, 0 ; bPKTitleEnable
  0000d	0f 84 c7 00 00
	00		 je	 $LN1@AttachTitl
  00013	56		 push	 esi
  00014	57		 push	 edi
; File C:\Program Files\Microsoft Visual Studio\2022\Community\VC\Tools\MSVC\14.44.35207\include\xtree

; 1384 :         const _Tree_find_result<_Nodeptr> _Loc = _Find_lower_bound(_Keyval);

  00015	8d 45 08	 lea	 eax, DWORD PTR _dwVID$[ebp]
  00018	50		 push	 eax
; File D:\_m2work\Server Client TMP4\ClientVS22\source\UserInterface\PythonTextTail.cpp

; 895  : 	TTextTailMap::iterator itor = m_CharacterTextTailMap.find(dwVID);

  00019	8d 79 04	 lea	 edi, DWORD PTR [ecx+4]
; File C:\Program Files\Microsoft Visual Studio\2022\Community\VC\Tools\MSVC\14.44.35207\include\xtree

; 1384 :         const _Tree_find_result<_Nodeptr> _Loc = _Find_lower_bound(_Keyval);

  0001c	8d 45 f4	 lea	 eax, DWORD PTR __Loc$1[ebp]
  0001f	8b cf		 mov	 ecx, edi
  00021	50		 push	 eax
  00022	e8 00 00 00 00	 call	 ??$_Find_lower_bound@K@?$_Tree@V?$_Tmap_traits@KPAUSTextTail@CPythonTextTail@@U?$less@K@std@@V?$allocator@U?$pair@$$CBKPAUSTextTail@CPythonTextTail@@@std@@@4@$0A@@std@@@std@@IBE?AU?$_Tree_find_result@PAU?$_Tree_node@U?$pair@$$CBKPAUSTextTail@CPythonTextTail@@@std@@PAX@std@@@1@ABK@Z ; std::_Tree<std::_Tmap_traits<unsigned long,CPythonTextTail::STextTail *,std::less<unsigned long>,std::allocator<std::pair<unsigned long const ,CPythonTextTail::STextTail *> >,0> >::_Find_lower_bound<unsigned long>

; 1624 :         return !_Bound->_Isnil && !_DEBUG_LT_PRED(_Getcomp(), _Keyval, _Traits::_Kfn(_Bound->_Myval));

  00027	8b 75 fc	 mov	 esi, DWORD PTR __Loc$1[ebp+8]
  0002a	80 7e 0d 00	 cmp	 BYTE PTR [esi+13], 0
  0002e	0f 85 a4 00 00
	00		 jne	 $LN59@AttachTitl
; File C:\Program Files\Microsoft Visual Studio\2022\Community\VC\Tools\MSVC\14.44.35207\include\type_traits

; 2380 :         return _Left < _Right;

  00034	8b 45 08	 mov	 eax, DWORD PTR _dwVID$[ebp]
  00037	3b 46 10	 cmp	 eax, DWORD PTR [esi+16]
; File C:\Program Files\Microsoft Visual Studio\2022\Community\VC\Tools\MSVC\14.44.35207\include\xtree

; 1624 :         return !_Bound->_Isnil && !_DEBUG_LT_PRED(_Getcomp(), _Keyval, _Traits::_Kfn(_Bound->_Myval));

  0003a	0f 82 98 00 00
	00		 jb	 $LN59@AttachTitl

; 37   :     _Tree_unchecked_const_iterator(_Nodeptr _Pnode, const _Mytree* _Plist) noexcept : _Ptr(_Pnode) {

  00040	39 37		 cmp	 DWORD PTR [edi], esi
; File D:\_m2work\Server Client TMP4\ClientVS22\source\UserInterface\PythonTextTail.cpp

; 896  : 	if (m_CharacterTextTailMap.end() == itor)

  00042	0f 84 90 00 00
	00		 je	 $LN59@AttachTitl

; 897  : 		return;
; 898  : 
; 899  : 	TTextTail * pTextTail = itor->second;
; 900  : 
; 901  : 	CGraphicTextInstance *& prTitle = pTextTail->pTitleTextInstance;

  00048	8b 76 14	 mov	 esi, DWORD PTR [esi+20]

; 902  : 	if (!prTitle)

  0004b	83 7e 14 00	 cmp	 DWORD PTR [esi+20], 0
  0004f	75 3d		 jne	 SHORT $LN4@AttachTitl

; 903  : 	{
; 904  : 		prTitle = CGraphicTextInstance::New();

  00051	e8 00 00 00 00	 call	 ?New@CGraphicTextInstance@@SAPAV1@XZ ; CGraphicTextInstance::New

; 905  : 		prTitle->SetTextPointer(ms_pFont);

  00056	ff 35 00 00 00
	00		 push	 DWORD PTR ?ms_pFont@@3PAVCGraphicText@@A ; ms_pFont
  0005c	8b c8		 mov	 ecx, eax
  0005e	89 46 14	 mov	 DWORD PTR [esi+20], eax
  00061	e8 00 00 00 00	 call	 ?SetTextPointer@CGraphicTextInstance@@QAEXPAVCGraphicText@@@Z ; CGraphicTextInstance::SetTextPointer

; 906  : 		prTitle->SetOutline(true);

  00066	8b 4e 14	 mov	 ecx, DWORD PTR [esi+20]
  00069	6a 01		 push	 1
  0006b	e8 00 00 00 00	 call	 ?SetOutline@CGraphicTextInstance@@QAEX_N@Z ; CGraphicTextInstance::SetOutline

; 907  : 
; 908  : 		if (LocaleService_IsEUROPE())

  00070	e8 00 00 00 00	 call	 ?LocaleService_IsEUROPE@@YA_NXZ ; LocaleService_IsEUROPE

; 909  : 			prTitle->SetHorizonalAlign(CGraphicTextInstance::HORIZONTAL_ALIGN_RIGHT);
; 910  : 		else
; 911  : 			prTitle->SetHorizonalAlign(CGraphicTextInstance::HORIZONTAL_ALIGN_CENTER);
; 912  : 		prTitle->SetVerticalAlign(CGraphicTextInstance::VERTICAL_ALIGN_BOTTOM);

  00075	8b 4e 14	 mov	 ecx, DWORD PTR [esi+20]
  00078	0f b6 c0	 movzx	 eax, al
  0007b	83 c0 02	 add	 eax, 2
  0007e	50		 push	 eax
  0007f	e8 00 00 00 00	 call	 ?SetHorizonalAlign@CGraphicTextInstance@@QAEXH@Z ; CGraphicTextInstance::SetHorizonalAlign
  00084	8b 4e 14	 mov	 ecx, DWORD PTR [esi+20]
  00087	6a 30		 push	 48			; 00000030H
  00089	e8 00 00 00 00	 call	 ?SetVerticalAlign@CGraphicTextInstance@@QAEXH@Z ; CGraphicTextInstance::SetVerticalAlign
$LN4@AttachTitl:

; 913  : 	}
; 914  : 
; 915  : 	prTitle->SetValue(c_szName);

  0008e	8b 4e 14	 mov	 ecx, DWORD PTR [esi+20]
  00091	6a ff		 push	 -1
  00093	ff 75 0c	 push	 DWORD PTR _c_szName$[ebp]
  00096	e8 00 00 00 00	 call	 ?SetValue@CGraphicTextInstance@@QAEXPBDI@Z ; CGraphicTextInstance::SetValue

; 916  : 	prTitle->SetColor(c_rColor.r, c_rColor.g, c_rColor.b);

  0009b	8b 45 10	 mov	 eax, DWORD PTR _c_rColor$[ebp]
  0009e	83 ec 10	 sub	 esp, 16			; 00000010H
  000a1	8b 4e 14	 mov	 ecx, DWORD PTR [esi+20]
  000a4	f3 0f 10 40 08	 movss	 xmm0, DWORD PTR [eax+8]
  000a9	c7 44 24 0c 00
	00 80 3f	 mov	 DWORD PTR [esp+12], 1065353216 ; 3f800000H
  000b1	f3 0f 11 44 24
	08		 movss	 DWORD PTR [esp+8], xmm0
  000b7	f3 0f 10 40 04	 movss	 xmm0, DWORD PTR [eax+4]
  000bc	f3 0f 11 44 24
	04		 movss	 DWORD PTR [esp+4], xmm0
  000c2	f3 0f 10 00	 movss	 xmm0, DWORD PTR [eax]
  000c6	f3 0f 11 04 24	 movss	 DWORD PTR [esp], xmm0
  000cb	e8 00 00 00 00	 call	 ?SetColor@CGraphicTextInstance@@QAEXMMMM@Z ; CGraphicTextInstance::SetColor

; 917  : 	prTitle->Update();

  000d0	8b 4e 14	 mov	 ecx, DWORD PTR [esi+20]
  000d3	e8 00 00 00 00	 call	 ?Update@CGraphicTextInstance@@QAEXXZ ; CGraphicTextInstance::Update
$LN59@AttachTitl:
  000d8	5f		 pop	 edi
  000d9	5e		 pop	 esi
$LN1@AttachTitl:

; 918  : }

  000da	8b e5		 mov	 esp, ebp
  000dc	5d		 pop	 ebp
  000dd	c2 0c 00	 ret	 12			; 0000000cH
?AttachTitle@CPythonTextTail@@QAEXKPBDABUD3DXCOLOR@@@Z ENDP ; CPythonTextTail::AttachTitle
_TEXT	ENDS
; Function compile flags: /Ogtp
; File D:\_m2work\Server Client TMP4\ClientVS22\source\UserInterface\PythonTextTail.cpp
; File C:\Program Files\Microsoft Visual Studio\2022\Community\VC\Tools\MSVC\14.44.35207\include\xtree
; File D:\_m2work\Server Client TMP4\ClientVS22\source\UserInterface\PythonTextTail.cpp
; File C:\Program Files\Microsoft Visual Studio\2022\Community\VC\Tools\MSVC\14.44.35207\include\xtree
; File C:\Program Files\Microsoft Visual Studio\2022\Community\VC\Tools\MSVC\14.44.35207\include\type_traits
; File C:\Program Files\Microsoft Visual Studio\2022\Community\VC\Tools\MSVC\14.44.35207\include\xtree
; File D:\_m2work\Server Client TMP4\ClientVS22\source\UserInterface\PythonTextTail.cpp
;	COMDAT ?DetachTitle@CPythonTextTail@@QAEXK@Z
_TEXT	SEGMENT
__Loc$1 = -12						; size = 12
_dwVID$ = 8						; size = 4
?DetachTitle@CPythonTextTail@@QAEXK@Z PROC		; CPythonTextTail::DetachTitle, COMDAT
; _this$ = ecx

; 921  : {

  00000	55		 push	 ebp
  00001	8b ec		 mov	 ebp, esp
  00003	83 ec 0c	 sub	 esp, 12			; 0000000cH

; 922  : 	if (!bPKTitleEnable)

  00006	83 3d 00 00 00
	00 00		 cmp	 DWORD PTR ?bPKTitleEnable@@3HA, 0 ; bPKTitleEnable
  0000d	74 43		 je	 SHORT $LN4@DetachTitl
  0000f	56		 push	 esi
; File C:\Program Files\Microsoft Visual Studio\2022\Community\VC\Tools\MSVC\14.44.35207\include\xtree

; 1384 :         const _Tree_find_result<_Nodeptr> _Loc = _Find_lower_bound(_Keyval);

  00010	8d 45 08	 lea	 eax, DWORD PTR _dwVID$[ebp]
  00013	50		 push	 eax
; File D:\_m2work\Server Client TMP4\ClientVS22\source\UserInterface\PythonTextTail.cpp

; 925  : 	TTextTailMap::iterator itor = m_CharacterTextTailMap.find(dwVID);

  00014	8d 71 04	 lea	 esi, DWORD PTR [ecx+4]
; File C:\Program Files\Microsoft Visual Studio\2022\Community\VC\Tools\MSVC\14.44.35207\include\xtree

; 1384 :         const _Tree_find_result<_Nodeptr> _Loc = _Find_lower_bound(_Keyval);

  00017	8d 45 f4	 lea	 eax, DWORD PTR __Loc$1[ebp]
  0001a	8b ce		 mov	 ecx, esi
  0001c	50		 push	 eax
  0001d	e8 00 00 00 00	 call	 ??$_Find_lower_bound@K@?$_Tree@V?$_Tmap_traits@KPAUSTextTail@CPythonTextTail@@U?$less@K@std@@V?$allocator@U?$pair@$$CBKPAUSTextTail@CPythonTextTail@@@std@@@4@$0A@@std@@@std@@IBE?AU?$_Tree_find_result@PAU?$_Tree_node@U?$pair@$$CBKPAUSTextTail@CPythonTextTail@@@std@@PAX@std@@@1@ABK@Z ; std::_Tree<std::_Tmap_traits<unsigned long,CPythonTextTail::STextTail *,std::less<unsigned long>,std::allocator<std::pair<unsigned long const ,CPythonTextTail::STextTail *> >,0> >::_Find_lower_bound<unsigned long>

; 1624 :         return !_Bound->_Isnil && !_DEBUG_LT_PRED(_Getcomp(), _Keyval, _Traits::_Kfn(_Bound->_Myval));

  00022	8b 4d fc	 mov	 ecx, DWORD PTR __Loc$1[ebp+8]
  00025	80 79 0d 00	 cmp	 BYTE PTR [ecx+13], 0
  00029	75 26		 jne	 SHORT $LN57@DetachTitl
; File C:\Program Files\Microsoft Visual Studio\2022\Community\VC\Tools\MSVC\14.44.35207\include\type_traits

; 2380 :         return _Left < _Right;

  0002b	8b 45 08	 mov	 eax, DWORD PTR _dwVID$[ebp]
  0002e	3b 41 10	 cmp	 eax, DWORD PTR [ecx+16]
; File C:\Program Files\Microsoft Visual Studio\2022\Community\VC\Tools\MSVC\14.44.35207\include\xtree

; 1624 :         return !_Bound->_Isnil && !_DEBUG_LT_PRED(_Getcomp(), _Keyval, _Traits::_Kfn(_Bound->_Myval));

  00031	72 1e		 jb	 SHORT $LN57@DetachTitl

; 37   :     _Tree_unchecked_const_iterator(_Nodeptr _Pnode, const _Mytree* _Plist) noexcept : _Ptr(_Pnode) {

  00033	39 0e		 cmp	 DWORD PTR [esi], ecx
; File D:\_m2work\Server Client TMP4\ClientVS22\source\UserInterface\PythonTextTail.cpp

; 926  : 	if (m_CharacterTextTailMap.end() == itor)

  00035	74 1a		 je	 SHORT $LN57@DetachTitl

; 927  : 		return;
; 928  : 
; 929  : 	TTextTail * pTextTail = itor->second;

  00037	8b 71 14	 mov	 esi, DWORD PTR [ecx+20]

; 930  : 
; 931  : 	if (pTextTail->pTitleTextInstance)

  0003a	8b 46 14	 mov	 eax, DWORD PTR [esi+20]
  0003d	85 c0		 test	 eax, eax
  0003f	74 10		 je	 SHORT $LN57@DetachTitl

; 932  : 	{
; 933  : 		CGraphicTextInstance::Delete(pTextTail->pTitleTextInstance);

  00041	50		 push	 eax
  00042	e8 00 00 00 00	 call	 ?Delete@CGraphicTextInstance@@SAXPAV1@@Z ; CGraphicTextInstance::Delete
  00047	83 c4 04	 add	 esp, 4

; 934  : 		pTextTail->pTitleTextInstance = NULL;

  0004a	c7 46 14 00 00
	00 00		 mov	 DWORD PTR [esi+20], 0
$LN57@DetachTitl:
  00051	5e		 pop	 esi
$LN4@DetachTitl:

; 935  : 	}
; 936  : }

  00052	8b e5		 mov	 esp, ebp
  00054	5d		 pop	 ebp
  00055	c2 04 00	 ret	 4
?DetachTitle@CPythonTextTail@@QAEXK@Z ENDP		; CPythonTextTail::DetachTitle
_TEXT	ENDS
; Function compile flags: /Ogtp
; File D:\_m2work\Server Client TMP4\ClientVS22\source\UserInterface\PythonTextTail.cpp
; File C:\Program Files\Microsoft Visual Studio\2022\Community\VC\Tools\MSVC\14.44.35207\include\xtree
; File D:\_m2work\Server Client TMP4\ClientVS22\source\UserInterface\PythonTextTail.cpp
; File C:\Program Files\Microsoft Visual Studio\2022\Community\VC\Tools\MSVC\14.44.35207\include\xtree
; File C:\Program Files\Microsoft Visual Studio\2022\Community\VC\Tools\MSVC\14.44.35207\include\type_traits
; File C:\Program Files\Microsoft Visual Studio\2022\Community\VC\Tools\MSVC\14.44.35207\include\xtree
; File D:\_m2work\Server Client TMP4\ClientVS22\source\UserInterface\PythonTextTail.cpp
; File D:\_m2work\Server Client TMP4\ClientVS22\extern\include\d3dx8math.inl
; File D:\_m2work\Server Client TMP4\ClientVS22\source\UserInterface\PythonTextTail.cpp
; File D:\_m2work\Server Client TMP4\ClientVS22\extern\include\d3dx8math.inl
; File D:\_m2work\Server Client TMP4\ClientVS22\source\UserInterface\PythonTextTail.cpp
; File D:\_m2work\Server Client TMP4\ClientVS22\extern\include\d3dx8math.inl
; File D:\_m2work\Server Client TMP4\ClientVS22\source\UserInterface\PythonTextTail.cpp
;	COMDAT ?SetCharacterTextTailColor@CPythonTextTail@@QAEXKABUD3DXCOLOR@@@Z
_TEXT	SEGMENT
__Loc$1 = -20						; size = 12
_pTextTail$1$ = -8					; size = 4
tv488 = -4						; size = 4
_VirtualID$ = 8						; size = 4
_dwR$1$ = 8						; size = 4
_c_rColor$ = 12						; size = 4
?SetCharacterTextTailColor@CPythonTextTail@@QAEXKABUD3DXCOLOR@@@Z PROC ; CPythonTextTail::SetCharacterTextTailColor, COMDAT
; _this$ = ecx

; 695  : {

  00000	55		 push	 ebp
  00001	8b ec		 mov	 ebp, esp
  00003	83 ec 14	 sub	 esp, 20			; 00000014H
  00006	56		 push	 esi
; File C:\Program Files\Microsoft Visual Studio\2022\Community\VC\Tools\MSVC\14.44.35207\include\xtree

; 1384 :         const _Tree_find_result<_Nodeptr> _Loc = _Find_lower_bound(_Keyval);

  00007	8d 45 08	 lea	 eax, DWORD PTR _VirtualID$[ebp]
  0000a	50		 push	 eax
; File D:\_m2work\Server Client TMP4\ClientVS22\source\UserInterface\PythonTextTail.cpp

; 696  : 	TTextTailMap::iterator itorCharacter = m_CharacterTextTailMap.find(VirtualID);

  0000b	8d 71 04	 lea	 esi, DWORD PTR [ecx+4]
; File C:\Program Files\Microsoft Visual Studio\2022\Community\VC\Tools\MSVC\14.44.35207\include\xtree

; 1384 :         const _Tree_find_result<_Nodeptr> _Loc = _Find_lower_bound(_Keyval);

  0000e	8d 45 ec	 lea	 eax, DWORD PTR __Loc$1[ebp]
  00011	8b ce		 mov	 ecx, esi
  00013	50		 push	 eax
  00014	e8 00 00 00 00	 call	 ??$_Find_lower_bound@K@?$_Tree@V?$_Tmap_traits@KPAUSTextTail@CPythonTextTail@@U?$less@K@std@@V?$allocator@U?$pair@$$CBKPAUSTextTail@CPythonTextTail@@@std@@@4@$0A@@std@@@std@@IBE?AU?$_Tree_find_result@PAU?$_Tree_node@U?$pair@$$CBKPAUSTextTail@CPythonTextTail@@@std@@PAX@std@@@1@ABK@Z ; std::_Tree<std::_Tmap_traits<unsigned long,CPythonTextTail::STextTail *,std::less<unsigned long>,std::allocator<std::pair<unsigned long const ,CPythonTextTail::STextTail *> >,0> >::_Find_lower_bound<unsigned long>

; 1624 :         return !_Bound->_Isnil && !_DEBUG_LT_PRED(_Getcomp(), _Keyval, _Traits::_Kfn(_Bound->_Myval));

  00019	8b 4d f4	 mov	 ecx, DWORD PTR __Loc$1[ebp+8]
  0001c	80 79 0d 00	 cmp	 BYTE PTR [ecx+13], 0
  00020	0f 85 3f 01 00
	00		 jne	 $LN1@SetCharact
; File C:\Program Files\Microsoft Visual Studio\2022\Community\VC\Tools\MSVC\14.44.35207\include\type_traits

; 2380 :         return _Left < _Right;

  00026	8b 45 08	 mov	 eax, DWORD PTR _VirtualID$[ebp]
  00029	3b 41 10	 cmp	 eax, DWORD PTR [ecx+16]
; File C:\Program Files\Microsoft Visual Studio\2022\Community\VC\Tools\MSVC\14.44.35207\include\xtree

; 1624 :         return !_Bound->_Isnil && !_DEBUG_LT_PRED(_Getcomp(), _Keyval, _Traits::_Kfn(_Bound->_Myval));

  0002c	0f 82 33 01 00
	00		 jb	 $LN1@SetCharact

; 37   :     _Tree_unchecked_const_iterator(_Nodeptr _Pnode, const _Mytree* _Plist) noexcept : _Ptr(_Pnode) {

  00032	39 0e		 cmp	 DWORD PTR [esi], ecx
; File D:\_m2work\Server Client TMP4\ClientVS22\source\UserInterface\PythonTextTail.cpp

; 698  : 	if (m_CharacterTextTailMap.end() == itorCharacter)

  00034	0f 84 2b 01 00
	00		 je	 $LN1@SetCharact

; 701  : 	TTextTail * pTextTail = itorCharacter->second;

  0003a	8b 41 14	 mov	 eax, DWORD PTR [ecx+20]
; File D:\_m2work\Server Client TMP4\ClientVS22\extern\include\d3dx8math.inl

; 931  :     DWORD dwR = r >= 1.0f ? 0xff : r <= 0.0f ? 0x00 : (DWORD) (r * 255.0f + 0.5f);

  0003d	0f 57 c9	 xorps	 xmm1, xmm1
  00040	f3 0f 10 1d 00
	00 00 00	 movss	 xmm3, DWORD PTR __real@437f0000
  00048	f3 0f 10 25 00
	00 00 00	 movss	 xmm4, DWORD PTR __real@3f000000
  00050	53		 push	 ebx
  00051	57		 push	 edi
  00052	8b 7d 0c	 mov	 edi, DWORD PTR _c_rColor$[ebp]
; File D:\_m2work\Server Client TMP4\ClientVS22\source\UserInterface\PythonTextTail.cpp

; 701  : 	TTextTail * pTextTail = itorCharacter->second;

  00055	89 45 f8	 mov	 DWORD PTR _pTextTail$1$[ebp], eax

; 702  : 	pTextTail->pTextInstance->SetColor(c_rColor);

  00058	8b 40 04	 mov	 eax, DWORD PTR [eax+4]
  0005b	89 45 fc	 mov	 DWORD PTR tv488[ebp], eax
; File D:\_m2work\Server Client TMP4\ClientVS22\extern\include\d3dx8math.inl

; 931  :     DWORD dwR = r >= 1.0f ? 0xff : r <= 0.0f ? 0x00 : (DWORD) (r * 255.0f + 0.5f);

  0005e	f3 0f 10 07	 movss	 xmm0, DWORD PTR [edi]
  00062	0f 2f 05 00 00
	00 00		 comiss	 xmm0, DWORD PTR __real@3f800000
  00069	72 09		 jb	 SHORT $LN53@SetCharact
  0006b	c7 45 08 ff 00
	00 00		 mov	 DWORD PTR _dwR$1$[ebp], 255 ; 000000ffH
  00072	eb 31		 jmp	 SHORT $LN52@SetCharact
$LN53@SetCharact:
  00074	0f 2f c8	 comiss	 xmm1, xmm0
  00077	72 09		 jb	 SHORT $LN51@SetCharact
  00079	c7 45 08 00 00
	00 00		 mov	 DWORD PTR _dwR$1$[ebp], 0
  00080	eb 23		 jmp	 SHORT $LN52@SetCharact
$LN51@SetCharact:
  00082	f3 0f 59 c3	 mulss	 xmm0, xmm3
  00086	f3 0f 58 c4	 addss	 xmm0, xmm4
  0008a	e8 00 00 00 00	 call	 __ftol3
  0008f	f3 0f 10 1d 00
	00 00 00	 movss	 xmm3, DWORD PTR __real@437f0000
  00097	0f 57 c9	 xorps	 xmm1, xmm1
  0009a	f3 0f 10 25 00
	00 00 00	 movss	 xmm4, DWORD PTR __real@3f000000
  000a2	89 45 08	 mov	 DWORD PTR _dwR$1$[ebp], eax
$LN52@SetCharact:

; 932  :     DWORD dwG = g >= 1.0f ? 0xff : g <= 0.0f ? 0x00 : (DWORD) (g * 255.0f + 0.5f);

  000a5	f3 0f 10 47 04	 movss	 xmm0, DWORD PTR [edi+4]
  000aa	0f 2f 05 00 00
	00 00		 comiss	 xmm0, DWORD PTR __real@3f800000
  000b1	72 07		 jb	 SHORT $LN57@SetCharact
  000b3	bb ff 00 00 00	 mov	 ebx, 255		; 000000ffH
  000b8	eb 18		 jmp	 SHORT $LN56@SetCharact
$LN57@SetCharact:
  000ba	0f 2f c8	 comiss	 xmm1, xmm0
  000bd	72 04		 jb	 SHORT $LN55@SetCharact
  000bf	33 db		 xor	 ebx, ebx
  000c1	eb 0f		 jmp	 SHORT $LN56@SetCharact
$LN55@SetCharact:
  000c3	f3 0f 59 c3	 mulss	 xmm0, xmm3
  000c7	f3 0f 58 c4	 addss	 xmm0, xmm4
  000cb	e8 00 00 00 00	 call	 __ftol3
  000d0	8b d8		 mov	 ebx, eax
$LN56@SetCharact:

; 933  :     DWORD dwB = b >= 1.0f ? 0xff : b <= 0.0f ? 0x00 : (DWORD) (b * 255.0f + 0.5f);

  000d2	f3 0f 10 47 08	 movss	 xmm0, DWORD PTR [edi+8]
  000d7	0f 57 c9	 xorps	 xmm1, xmm1
  000da	0f 2f 05 00 00
	00 00		 comiss	 xmm0, DWORD PTR __real@3f800000
  000e1	72 07		 jb	 SHORT $LN61@SetCharact
  000e3	be ff 00 00 00	 mov	 esi, 255		; 000000ffH
  000e8	eb 23		 jmp	 SHORT $LN60@SetCharact
$LN61@SetCharact:
  000ea	0f 2f c8	 comiss	 xmm1, xmm0
  000ed	72 04		 jb	 SHORT $LN59@SetCharact
  000ef	33 f6		 xor	 esi, esi
  000f1	eb 1a		 jmp	 SHORT $LN60@SetCharact
$LN59@SetCharact:
  000f3	f3 0f 59 05 00
	00 00 00	 mulss	 xmm0, DWORD PTR __real@437f0000
  000fb	f3 0f 58 05 00
	00 00 00	 addss	 xmm0, DWORD PTR __real@3f000000
  00103	e8 00 00 00 00	 call	 __ftol3
  00108	8b f0		 mov	 esi, eax
  0010a	0f 57 c9	 xorps	 xmm1, xmm1
$LN60@SetCharact:

; 934  :     DWORD dwA = a >= 1.0f ? 0xff : a <= 0.0f ? 0x00 : (DWORD) (a * 255.0f + 0.5f);

  0010d	f3 0f 10 47 0c	 movss	 xmm0, DWORD PTR [edi+12]
  00112	0f 2f 05 00 00
	00 00		 comiss	 xmm0, DWORD PTR __real@3f800000
  00119	72 07		 jb	 SHORT $LN65@SetCharact
  0011b	b8 ff 00 00 00	 mov	 eax, 255		; 000000ffH
  00120	eb 1e		 jmp	 SHORT $LN64@SetCharact
$LN65@SetCharact:
  00122	0f 2f c8	 comiss	 xmm1, xmm0
  00125	72 04		 jb	 SHORT $LN63@SetCharact
  00127	33 c0		 xor	 eax, eax
  00129	eb 15		 jmp	 SHORT $LN64@SetCharact
$LN63@SetCharact:
  0012b	f3 0f 59 05 00
	00 00 00	 mulss	 xmm0, DWORD PTR __real@437f0000
  00133	f3 0f 58 05 00
	00 00 00	 addss	 xmm0, DWORD PTR __real@3f000000
  0013b	e8 00 00 00 00	 call	 __ftol3
$LN64@SetCharact:
; File D:\_m2work\Server Client TMP4\ClientVS22\source\UserInterface\PythonTextTail.cpp

; 702  : 	pTextTail->pTextInstance->SetColor(c_rColor);

  00140	8b 4d fc	 mov	 ecx, DWORD PTR tv488[ebp]
; File D:\_m2work\Server Client TMP4\ClientVS22\extern\include\d3dx8math.inl

; 936  :     return (dwA << 24) | (dwR << 16) | (dwG << 8) | dwB;

  00143	c1 e0 08	 shl	 eax, 8
  00146	0b 45 08	 or	 eax, DWORD PTR _dwR$1$[ebp]
  00149	c1 e0 08	 shl	 eax, 8
  0014c	0b c3		 or	 eax, ebx
  0014e	c1 e0 08	 shl	 eax, 8
  00151	0b c6		 or	 eax, esi
; File D:\_m2work\Server Client TMP4\ClientVS22\source\UserInterface\PythonTextTail.cpp

; 702  : 	pTextTail->pTextInstance->SetColor(c_rColor);

  00153	50		 push	 eax
  00154	e8 00 00 00 00	 call	 ?SetColor@CGraphicTextInstance@@QAEXK@Z ; CGraphicTextInstance::SetColor

; 703  : 	pTextTail->Color = c_rColor;

  00159	0f 10 07	 movups	 xmm0, XMMWORD PTR [edi]
  0015c	8b 45 f8	 mov	 eax, DWORD PTR _pTextTail$1$[ebp]
  0015f	5f		 pop	 edi
  00160	5b		 pop	 ebx
  00161	0f 11 40 34	 movups	 XMMWORD PTR [eax+52], xmm0
$LN1@SetCharact:
  00165	5e		 pop	 esi

; 704  : }

  00166	8b e5		 mov	 esp, ebp
  00168	5d		 pop	 ebp
  00169	c2 08 00	 ret	 8
?SetCharacterTextTailColor@CPythonTextTail@@QAEXKABUD3DXCOLOR@@@Z ENDP ; CPythonTextTail::SetCharacterTextTailColor
_TEXT	ENDS
; Function compile flags: /Ogtp
; File D:\_m2work\Server Client TMP4\ClientVS22\source\UserInterface\PythonTextTail.cpp
; File C:\Program Files\Microsoft Visual Studio\2022\Community\VC\Tools\MSVC\14.44.35207\include\xtree
; File D:\_m2work\Server Client TMP4\ClientVS22\source\UserInterface\PythonTextTail.cpp
; File C:\Program Files\Microsoft Visual Studio\2022\Community\VC\Tools\MSVC\14.44.35207\include\xtree
; File C:\Program Files\Microsoft Visual Studio\2022\Community\VC\Tools\MSVC\14.44.35207\include\type_traits
; File C:\Program Files\Microsoft Visual Studio\2022\Community\VC\Tools\MSVC\14.44.35207\include\xtree
; File D:\_m2work\Server Client TMP4\ClientVS22\source\UserInterface\PythonTextTail.cpp
;	COMDAT ?AttachLevel@CPythonTextTail@@QAEXKPBDABUD3DXCOLOR@@@Z
_TEXT	SEGMENT
__Loc$1 = -12						; size = 12
_dwVID$ = 8						; size = 4
_c_szText$ = 12						; size = 4
_c_rColor$dead$ = 16					; size = 4
?AttachLevel@CPythonTextTail@@QAEXKPBDABUD3DXCOLOR@@@Z PROC ; CPythonTextTail::AttachLevel, COMDAT
; _this$ = ecx

; 944  : {

  00000	55		 push	 ebp
  00001	8b ec		 mov	 ebp, esp
  00003	83 ec 0c	 sub	 esp, 12			; 0000000cH

; 945  : 	if (!bPKTitleEnable)

  00006	83 3d 00 00 00
	00 00		 cmp	 DWORD PTR ?bPKTitleEnable@@3HA, 0 ; bPKTitleEnable
  0000d	0f 84 c4 00 00
	00		 je	 $LN1@AttachLeve
  00013	56		 push	 esi
  00014	57		 push	 edi
; File C:\Program Files\Microsoft Visual Studio\2022\Community\VC\Tools\MSVC\14.44.35207\include\xtree

; 1384 :         const _Tree_find_result<_Nodeptr> _Loc = _Find_lower_bound(_Keyval);

  00015	8d 45 08	 lea	 eax, DWORD PTR _dwVID$[ebp]
  00018	50		 push	 eax
; File D:\_m2work\Server Client TMP4\ClientVS22\source\UserInterface\PythonTextTail.cpp

; 948  : 	TTextTailMap::iterator itor = m_CharacterTextTailMap.find(dwVID);

  00019	8d 79 04	 lea	 edi, DWORD PTR [ecx+4]
; File C:\Program Files\Microsoft Visual Studio\2022\Community\VC\Tools\MSVC\14.44.35207\include\xtree

; 1384 :         const _Tree_find_result<_Nodeptr> _Loc = _Find_lower_bound(_Keyval);

  0001c	8d 45 f4	 lea	 eax, DWORD PTR __Loc$1[ebp]
  0001f	8b cf		 mov	 ecx, edi
  00021	50		 push	 eax
  00022	e8 00 00 00 00	 call	 ??$_Find_lower_bound@K@?$_Tree@V?$_Tmap_traits@KPAUSTextTail@CPythonTextTail@@U?$less@K@std@@V?$allocator@U?$pair@$$CBKPAUSTextTail@CPythonTextTail@@@std@@@4@$0A@@std@@@std@@IBE?AU?$_Tree_find_result@PAU?$_Tree_node@U?$pair@$$CBKPAUSTextTail@CPythonTextTail@@@std@@PAX@std@@@1@ABK@Z ; std::_Tree<std::_Tmap_traits<unsigned long,CPythonTextTail::STextTail *,std::less<unsigned long>,std::allocator<std::pair<unsigned long const ,CPythonTextTail::STextTail *> >,0> >::_Find_lower_bound<unsigned long>

; 1624 :         return !_Bound->_Isnil && !_DEBUG_LT_PRED(_Getcomp(), _Keyval, _Traits::_Kfn(_Bound->_Myval));

  00027	8b 75 fc	 mov	 esi, DWORD PTR __Loc$1[ebp+8]
  0002a	80 7e 0d 00	 cmp	 BYTE PTR [esi+13], 0
  0002e	0f 85 a1 00 00
	00		 jne	 $LN57@AttachLeve
; File C:\Program Files\Microsoft Visual Studio\2022\Community\VC\Tools\MSVC\14.44.35207\include\type_traits

; 2380 :         return _Left < _Right;

  00034	8b 45 08	 mov	 eax, DWORD PTR _dwVID$[ebp]
  00037	3b 46 10	 cmp	 eax, DWORD PTR [esi+16]
; File C:\Program Files\Microsoft Visual Studio\2022\Community\VC\Tools\MSVC\14.44.35207\include\xtree

; 1624 :         return !_Bound->_Isnil && !_DEBUG_LT_PRED(_Getcomp(), _Keyval, _Traits::_Kfn(_Bound->_Myval));

  0003a	0f 82 95 00 00
	00		 jb	 $LN57@AttachLeve

; 37   :     _Tree_unchecked_const_iterator(_Nodeptr _Pnode, const _Mytree* _Plist) noexcept : _Ptr(_Pnode) {

  00040	39 37		 cmp	 DWORD PTR [edi], esi
; File D:\_m2work\Server Client TMP4\ClientVS22\source\UserInterface\PythonTextTail.cpp

; 949  : 	if (m_CharacterTextTailMap.end() == itor)

  00042	0f 84 8d 00 00
	00		 je	 $LN57@AttachLeve

; 950  : 		return;
; 951  : 
; 952  : 	TTextTail * pTextTail = itor->second;
; 953  : 
; 954  : 	CGraphicTextInstance *& prLevel = pTextTail->pLevelTextInstance;

  00048	8b 76 14	 mov	 esi, DWORD PTR [esi+20]

; 955  : 	if (!prLevel)

  0004b	83 7e 18 00	 cmp	 DWORD PTR [esi+24], 0
  0004f	75 33		 jne	 SHORT $LN4@AttachLeve

; 956  : 	{
; 957  : 		prLevel = CGraphicTextInstance::New();

  00051	e8 00 00 00 00	 call	 ?New@CGraphicTextInstance@@SAPAV1@XZ ; CGraphicTextInstance::New

; 958  : 		prLevel->SetTextPointer(ms_pFont);

  00056	ff 35 00 00 00
	00		 push	 DWORD PTR ?ms_pFont@@3PAVCGraphicText@@A ; ms_pFont
  0005c	8b c8		 mov	 ecx, eax
  0005e	89 46 18	 mov	 DWORD PTR [esi+24], eax
  00061	e8 00 00 00 00	 call	 ?SetTextPointer@CGraphicTextInstance@@QAEXPAVCGraphicText@@@Z ; CGraphicTextInstance::SetTextPointer

; 959  : 		prLevel->SetOutline(true);

  00066	8b 4e 18	 mov	 ecx, DWORD PTR [esi+24]
  00069	6a 01		 push	 1
  0006b	e8 00 00 00 00	 call	 ?SetOutline@CGraphicTextInstance@@QAEX_N@Z ; CGraphicTextInstance::SetOutline

; 960  : 
; 961  : 		prLevel->SetHorizonalAlign(CGraphicTextInstance::HORIZONTAL_ALIGN_RIGHT);

  00070	8b 4e 18	 mov	 ecx, DWORD PTR [esi+24]
  00073	6a 03		 push	 3
  00075	e8 00 00 00 00	 call	 ?SetHorizonalAlign@CGraphicTextInstance@@QAEXH@Z ; CGraphicTextInstance::SetHorizonalAlign

; 962  : 		prLevel->SetVerticalAlign(CGraphicTextInstance::VERTICAL_ALIGN_BOTTOM);

  0007a	8b 4e 18	 mov	 ecx, DWORD PTR [esi+24]
  0007d	6a 30		 push	 48			; 00000030H
  0007f	e8 00 00 00 00	 call	 ?SetVerticalAlign@CGraphicTextInstance@@QAEXH@Z ; CGraphicTextInstance::SetVerticalAlign
$LN4@AttachLeve:

; 963  : 	}
; 964  : 
; 965  : 	prLevel->SetValue(c_szText);

  00084	8b 4e 18	 mov	 ecx, DWORD PTR [esi+24]
  00087	6a ff		 push	 -1
  00089	ff 75 0c	 push	 DWORD PTR _c_szText$[ebp]
  0008c	e8 00 00 00 00	 call	 ?SetValue@CGraphicTextInstance@@QAEXPBDI@Z ; CGraphicTextInstance::SetValue

; 966  : 	prLevel->SetColor(c_rColor.r, c_rColor.g, c_rColor.b);

  00091	f3 0f 10 05 08
	00 00 00	 movss	 xmm0, DWORD PTR ?s_kLevelColor@?1??UpdateTextTailLevel@CInstanceBase@@QAEXK@Z@4UD3DXCOLOR@@A+8
  00099	83 ec 10	 sub	 esp, 16			; 00000010H
  0009c	8b 4e 18	 mov	 ecx, DWORD PTR [esi+24]
  0009f	c7 44 24 0c 00
	00 80 3f	 mov	 DWORD PTR [esp+12], 1065353216 ; 3f800000H
  000a7	f3 0f 11 44 24
	08		 movss	 DWORD PTR [esp+8], xmm0
  000ad	f3 0f 10 05 04
	00 00 00	 movss	 xmm0, DWORD PTR ?s_kLevelColor@?1??UpdateTextTailLevel@CInstanceBase@@QAEXK@Z@4UD3DXCOLOR@@A+4
  000b5	f3 0f 11 44 24
	04		 movss	 DWORD PTR [esp+4], xmm0
  000bb	f3 0f 10 05 00
	00 00 00	 movss	 xmm0, DWORD PTR ?s_kLevelColor@?1??UpdateTextTailLevel@CInstanceBase@@QAEXK@Z@4UD3DXCOLOR@@A
  000c3	f3 0f 11 04 24	 movss	 DWORD PTR [esp], xmm0
  000c8	e8 00 00 00 00	 call	 ?SetColor@CGraphicTextInstance@@QAEXMMMM@Z ; CGraphicTextInstance::SetColor

; 967  : 	prLevel->Update();

  000cd	8b 4e 18	 mov	 ecx, DWORD PTR [esi+24]
  000d0	e8 00 00 00 00	 call	 ?Update@CGraphicTextInstance@@QAEXXZ ; CGraphicTextInstance::Update
$LN57@AttachLeve:
  000d5	5f		 pop	 edi
  000d6	5e		 pop	 esi
$LN1@AttachLeve:

; 968  : }

  000d7	8b e5		 mov	 esp, ebp
  000d9	5d		 pop	 ebp
  000da	c2 0c 00	 ret	 12			; 0000000cH
?AttachLevel@CPythonTextTail@@QAEXKPBDABUD3DXCOLOR@@@Z ENDP ; CPythonTextTail::AttachLevel
_TEXT	ENDS
; Function compile flags: /Ogtp
; File D:\_m2work\Server Client TMP4\ClientVS22\source\UserInterface\PythonTextTail.cpp
; File C:\Program Files\Microsoft Visual Studio\2022\Community\VC\Tools\MSVC\14.44.35207\include\xtree
; File D:\_m2work\Server Client TMP4\ClientVS22\source\UserInterface\PythonTextTail.cpp
; File C:\Program Files\Microsoft Visual Studio\2022\Community\VC\Tools\MSVC\14.44.35207\include\xtree
; File C:\Program Files\Microsoft Visual Studio\2022\Community\VC\Tools\MSVC\14.44.35207\include\type_traits
; File C:\Program Files\Microsoft Visual Studio\2022\Community\VC\Tools\MSVC\14.44.35207\include\xtree
; File D:\_m2work\Server Client TMP4\ClientVS22\source\UserInterface\PythonTextTail.cpp
; File C:\Program Files\Microsoft Visual Studio\2022\Community\VC\Tools\MSVC\14.44.35207\include\xtree
; File C:\Program Files\Microsoft Visual Studio\2022\Community\VC\Tools\MSVC\14.44.35207\include\type_traits
; File C:\Program Files\Microsoft Visual Studio\2022\Community\VC\Tools\MSVC\14.44.35207\include\xtree
; File D:\_m2work\Server Client TMP4\ClientVS22\source\UserInterface\PythonTextTail.cpp
; File C:\Program Files\Microsoft Visual Studio\2022\Community\VC\Tools\MSVC\14.44.35207\include\xtree
; File C:\Program Files\Microsoft Visual Studio\2022\Community\VC\Tools\MSVC\14.44.35207\include\xmemory
; File D:\_m2work\Server Client TMP4\ClientVS22\source\UserInterface\PythonTextTail.cpp
; File C:\Program Files\Microsoft Visual Studio\2022\Community\VC\Tools\MSVC\14.44.35207\include\xtree
; File D:\_m2work\Server Client TMP4\ClientVS22\source\UserInterface\PythonTextTail.cpp
; File C:\Program Files\Microsoft Visual Studio\2022\Community\VC\Tools\MSVC\14.44.35207\include\xtree
; File C:\Program Files\Microsoft Visual Studio\2022\Community\VC\Tools\MSVC\14.44.35207\include\xmemory
; File D:\_m2work\Server Client TMP4\ClientVS22\source\UserInterface\PythonTextTail.cpp
;	COMDAT ?DeleteCharacterTextTail@CPythonTextTail@@QAEXK@Z
_TEXT	SEGMENT
__Loc$1 = -20						; size = 12
__Loc$2 = -20						; size = 12
$T3 = -8						; size = 4
_this$1$ = -4						; size = 4
_VirtualID$ = 8						; size = 4
?DeleteCharacterTextTail@CPythonTextTail@@QAEXK@Z PROC	; CPythonTextTail::DeleteCharacterTextTail, COMDAT
; _this$ = ecx

; 757  : {

  00000	55		 push	 ebp
  00001	8b ec		 mov	 ebp, esp
  00003	83 ec 14	 sub	 esp, 20			; 00000014H
  00006	53		 push	 ebx
  00007	56		 push	 esi
  00008	57		 push	 edi
  00009	8b f9		 mov	 edi, ecx
; File C:\Program Files\Microsoft Visual Studio\2022\Community\VC\Tools\MSVC\14.44.35207\include\xtree

; 1384 :         const _Tree_find_result<_Nodeptr> _Loc = _Find_lower_bound(_Keyval);

  0000b	8d 45 08	 lea	 eax, DWORD PTR _VirtualID$[ebp]
  0000e	50		 push	 eax
  0000f	8d 45 ec	 lea	 eax, DWORD PTR __Loc$2[ebp]
; File D:\_m2work\Server Client TMP4\ClientVS22\source\UserInterface\PythonTextTail.cpp

; 757  : {

  00012	89 7d fc	 mov	 DWORD PTR _this$1$[ebp], edi
; File C:\Program Files\Microsoft Visual Studio\2022\Community\VC\Tools\MSVC\14.44.35207\include\xtree

; 1384 :         const _Tree_find_result<_Nodeptr> _Loc = _Find_lower_bound(_Keyval);

  00015	50		 push	 eax
  00016	8d 4f 04	 lea	 ecx, DWORD PTR [edi+4]
  00019	e8 00 00 00 00	 call	 ??$_Find_lower_bound@K@?$_Tree@V?$_Tmap_traits@KPAUSTextTail@CPythonTextTail@@U?$less@K@std@@V?$allocator@U?$pair@$$CBKPAUSTextTail@CPythonTextTail@@@std@@@4@$0A@@std@@@std@@IBE?AU?$_Tree_find_result@PAU?$_Tree_node@U?$pair@$$CBKPAUSTextTail@CPythonTextTail@@@std@@PAX@std@@@1@ABK@Z ; std::_Tree<std::_Tmap_traits<unsigned long,CPythonTextTail::STextTail *,std::less<unsigned long>,std::allocator<std::pair<unsigned long const ,CPythonTextTail::STextTail *> >,0> >::_Find_lower_bound<unsigned long>

; 1624 :         return !_Bound->_Isnil && !_DEBUG_LT_PRED(_Getcomp(), _Keyval, _Traits::_Kfn(_Bound->_Myval));

  0001e	8b 75 f4	 mov	 esi, DWORD PTR __Loc$2[ebp+8]
  00021	80 7e 0d 00	 cmp	 BYTE PTR [esi+13], 0
  00025	75 10		 jne	 SHORT $LN9@DeleteChar
; File C:\Program Files\Microsoft Visual Studio\2022\Community\VC\Tools\MSVC\14.44.35207\include\type_traits

; 2380 :         return _Left < _Right;

  00027	8b 45 08	 mov	 eax, DWORD PTR _VirtualID$[ebp]
  0002a	3b 46 10	 cmp	 eax, DWORD PTR [esi+16]
; File C:\Program Files\Microsoft Visual Studio\2022\Community\VC\Tools\MSVC\14.44.35207\include\xtree

; 1624 :         return !_Bound->_Isnil && !_DEBUG_LT_PRED(_Getcomp(), _Keyval, _Traits::_Kfn(_Bound->_Myval));

  0002d	72 08		 jb	 SHORT $LN9@DeleteChar

; 1386 :             return _Loc._Bound;

  0002f	8b 47 04	 mov	 eax, DWORD PTR [edi+4]
  00032	89 45 f8	 mov	 DWORD PTR $T3[ebp], eax
  00035	eb 06		 jmp	 SHORT $LN8@DeleteChar
$LN9@DeleteChar:

; 1387 :         }
; 1388 : 
; 1389 :         return _Get_scary()->_Myhead;

  00037	8b 77 04	 mov	 esi, DWORD PTR [edi+4]
  0003a	89 75 f8	 mov	 DWORD PTR $T3[ebp], esi
$LN8@DeleteChar:

; 1384 :         const _Tree_find_result<_Nodeptr> _Loc = _Find_lower_bound(_Keyval);

  0003d	8d 45 08	 lea	 eax, DWORD PTR _VirtualID$[ebp]
  00040	50		 push	 eax
  00041	8d 45 ec	 lea	 eax, DWORD PTR __Loc$1[ebp]
; File D:\_m2work\Server Client TMP4\ClientVS22\source\UserInterface\PythonTextTail.cpp

; 759  : 	TTextTailMap::iterator itorChat = m_ChatTailMap.find(VirtualID);

  00044	8d 5f 14	 lea	 ebx, DWORD PTR [edi+20]
; File C:\Program Files\Microsoft Visual Studio\2022\Community\VC\Tools\MSVC\14.44.35207\include\xtree

; 1384 :         const _Tree_find_result<_Nodeptr> _Loc = _Find_lower_bound(_Keyval);

  00047	50		 push	 eax
  00048	8b cb		 mov	 ecx, ebx
  0004a	e8 00 00 00 00	 call	 ??$_Find_lower_bound@K@?$_Tree@V?$_Tmap_traits@KPAUSTextTail@CPythonTextTail@@U?$less@K@std@@V?$allocator@U?$pair@$$CBKPAUSTextTail@CPythonTextTail@@@std@@@4@$0A@@std@@@std@@IBE?AU?$_Tree_find_result@PAU?$_Tree_node@U?$pair@$$CBKPAUSTextTail@CPythonTextTail@@@std@@PAX@std@@@1@ABK@Z ; std::_Tree<std::_Tmap_traits<unsigned long,CPythonTextTail::STextTail *,std::less<unsigned long>,std::allocator<std::pair<unsigned long const ,CPythonTextTail::STextTail *> >,0> >::_Find_lower_bound<unsigned long>

; 1624 :         return !_Bound->_Isnil && !_DEBUG_LT_PRED(_Getcomp(), _Keyval, _Traits::_Kfn(_Bound->_Myval));

  0004f	8b 7d f4	 mov	 edi, DWORD PTR __Loc$1[ebp+8]
  00052	8b 45 08	 mov	 eax, DWORD PTR _VirtualID$[ebp]
  00055	80 7f 0d 00	 cmp	 BYTE PTR [edi+13], 0
  00059	75 05		 jne	 SHORT $LN30@DeleteChar
; File C:\Program Files\Microsoft Visual Studio\2022\Community\VC\Tools\MSVC\14.44.35207\include\type_traits

; 2380 :         return _Left < _Right;

  0005b	3b 47 10	 cmp	 eax, DWORD PTR [edi+16]
; File C:\Program Files\Microsoft Visual Studio\2022\Community\VC\Tools\MSVC\14.44.35207\include\xtree

; 1624 :         return !_Bound->_Isnil && !_DEBUG_LT_PRED(_Getcomp(), _Keyval, _Traits::_Kfn(_Bound->_Myval));

  0005e	73 02		 jae	 SHORT $LN29@DeleteChar
$LN30@DeleteChar:

; 1389 :         return _Get_scary()->_Myhead;

  00060	8b 3b		 mov	 edi, DWORD PTR [ebx]
$LN29@DeleteChar:

; 37   :     _Tree_unchecked_const_iterator(_Nodeptr _Pnode, const _Mytree* _Plist) noexcept : _Ptr(_Pnode) {

  00062	39 75 f8	 cmp	 DWORD PTR $T3[ebp], esi
; File D:\_m2work\Server Client TMP4\ClientVS22\source\UserInterface\PythonTextTail.cpp

; 761  : 	if (m_CharacterTextTailMap.end() != itorCharacter)

  00065	74 21		 je	 SHORT $LN2@DeleteChar

; 762  : 	{
; 763  : 		DeleteTextTail(itorCharacter->second);

  00067	ff 76 14	 push	 DWORD PTR [esi+20]
  0006a	8b 4d fc	 mov	 ecx, DWORD PTR _this$1$[ebp]
  0006d	e8 00 00 00 00	 call	 ?DeleteTextTail@CPythonTextTail@@IAEXPAUSTextTail@1@@Z ; CPythonTextTail::DeleteTextTail
; File C:\Program Files\Microsoft Visual Studio\2022\Community\VC\Tools\MSVC\14.44.35207\include\xtree

; 1303 :         _Nodeptr _Erasednode = _Scary->_Extract(_Where); // node to erase

  00072	56		 push	 esi
  00073	8b 75 fc	 mov	 esi, DWORD PTR _this$1$[ebp]
  00076	8d 4e 04	 lea	 ecx, DWORD PTR [esi+4]
  00079	e8 00 00 00 00	 call	 ?_Extract@?$_Tree_val@U?$_Tree_simple_types@U?$pair@$$CBKPAUSTextTail@CPythonTextTail@@@std@@@std@@@std@@QAEPAU?$_Tree_node@U?$pair@$$CBKPAUSTextTail@CPythonTextTail@@@std@@PAX@2@V?$_Tree_unchecked_const_iterator@V?$_Tree_val@U?$_Tree_simple_types@U?$pair@$$CBKPAUSTextTail@CPythonTextTail@@@std@@@std@@@std@@U_Iterator_base0@2@@2@@Z ; std::_Tree_val<std::_Tree_simple_types<std::pair<unsigned long const ,CPythonTextTail::STextTail *> > >::_Extract
; File C:\Program Files\Microsoft Visual Studio\2022\Community\VC\Tools\MSVC\14.44.35207\include\xmemory

; 289  :         ::operator delete(_Ptr, _Bytes);

  0007e	6a 18		 push	 24			; 00000018H
  00080	50		 push	 eax
  00081	e8 00 00 00 00	 call	 ??3@YAXPAXI@Z		; operator delete
; File D:\_m2work\Server Client TMP4\ClientVS22\source\UserInterface\PythonTextTail.cpp

; 765  : 	}

  00086	eb 0e		 jmp	 SHORT $LN233@DeleteChar
$LN2@DeleteChar:

; 766  : 	else
; 767  : 	{
; 768  : 		Tracenf("CPythonTextTail::DeleteCharacterTextTail - Find VID[%d] Error", VirtualID);

  00088	50		 push	 eax
  00089	68 00 00 00 00	 push	 OFFSET ??_C@_0DO@PHLLOPOI@CPythonTextTail?3?3DeleteCharacte@
  0008e	e8 00 00 00 00	 call	 ?Tracenf@@YAXPBDZZ	; Tracenf
  00093	8b 75 fc	 mov	 esi, DWORD PTR _this$1$[ebp]
$LN233@DeleteChar:
; File C:\Program Files\Microsoft Visual Studio\2022\Community\VC\Tools\MSVC\14.44.35207\include\xtree

; 37   :     _Tree_unchecked_const_iterator(_Nodeptr _Pnode, const _Mytree* _Plist) noexcept : _Ptr(_Pnode) {

  00096	83 c4 08	 add	 esp, 8
  00099	39 3b		 cmp	 DWORD PTR [ebx], edi
; File D:\_m2work\Server Client TMP4\ClientVS22\source\UserInterface\PythonTextTail.cpp

; 771  : 	if (m_ChatTailMap.end() != itorChat)

  0009b	74 1d		 je	 SHORT $LN202@DeleteChar

; 772  : 	{
; 773  : 		DeleteTextTail(itorChat->second);

  0009d	ff 77 14	 push	 DWORD PTR [edi+20]
  000a0	8b ce		 mov	 ecx, esi
  000a2	e8 00 00 00 00	 call	 ?DeleteTextTail@CPythonTextTail@@IAEXPAUSTextTail@1@@Z ; CPythonTextTail::DeleteTextTail
; File C:\Program Files\Microsoft Visual Studio\2022\Community\VC\Tools\MSVC\14.44.35207\include\xtree

; 1303 :         _Nodeptr _Erasednode = _Scary->_Extract(_Where); // node to erase

  000a7	57		 push	 edi
  000a8	8b cb		 mov	 ecx, ebx
  000aa	e8 00 00 00 00	 call	 ?_Extract@?$_Tree_val@U?$_Tree_simple_types@U?$pair@$$CBKPAUSTextTail@CPythonTextTail@@@std@@@std@@@std@@QAEPAU?$_Tree_node@U?$pair@$$CBKPAUSTextTail@CPythonTextTail@@@std@@PAX@2@V?$_Tree_unchecked_const_iterator@V?$_Tree_val@U?$_Tree_simple_types@U?$pair@$$CBKPAUSTextTail@CPythonTextTail@@@std@@@std@@@std@@U_Iterator_base0@2@@2@@Z ; std::_Tree_val<std::_Tree_simple_types<std::pair<unsigned long const ,CPythonTextTail::STextTail *> > >::_Extract
; File C:\Program Files\Microsoft Visual Studio\2022\Community\VC\Tools\MSVC\14.44.35207\include\xmemory

; 289  :         ::operator delete(_Ptr, _Bytes);

  000af	6a 18		 push	 24			; 00000018H
  000b1	50		 push	 eax
  000b2	e8 00 00 00 00	 call	 ??3@YAXPAXI@Z		; operator delete
  000b7	83 c4 08	 add	 esp, 8
$LN202@DeleteChar:
  000ba	5f		 pop	 edi
; File D:\_m2work\Server Client TMP4\ClientVS22\source\UserInterface\PythonTextTail.cpp

; 776  : }

  000bb	5e		 pop	 esi
  000bc	5b		 pop	 ebx
  000bd	8b e5		 mov	 esp, ebp
  000bf	5d		 pop	 ebp
  000c0	c2 04 00	 ret	 4
?DeleteCharacterTextTail@CPythonTextTail@@QAEXK@Z ENDP	; CPythonTextTail::DeleteCharacterTextTail
_TEXT	ENDS
; Function compile flags: /Ogtp
; File D:\_m2work\Server Client TMP4\ClientVS22\source\UserInterface\PythonTextTail.cpp
; File C:\Program Files\Microsoft Visual Studio\2022\Community\VC\Tools\MSVC\14.44.35207\include\xstring
; File D:\_m2work\Server Client TMP4\ClientVS22\source\UserInterface\PythonTextTail.cpp
; File C:\Program Files\Microsoft Visual Studio\2022\Community\VC\Tools\MSVC\14.44.35207\include\xstring
; File D:\_m2work\Server Client TMP4\ClientVS22\source\UserInterface\PythonTextTail.cpp
; File C:\Program Files\Microsoft Visual Studio\2022\Community\VC\Tools\MSVC\14.44.35207\include\xstring
; File D:\_m2work\Server Client TMP4\ClientVS22\source\UserInterface\PythonTextTail.cpp
; File C:\Program Files\Microsoft Visual Studio\2022\Community\VC\Tools\MSVC\14.44.35207\include\xstring
; File C:\Program Files\Microsoft Visual Studio\2022\Community\VC\Tools\MSVC\14.44.35207\include\xmemory
; File C:\Program Files\Microsoft Visual Studio\2022\Community\VC\Tools\MSVC\14.44.35207\include\xstring
; File C:\Program Files\Microsoft Visual Studio\2022\Community\VC\Tools\MSVC\14.44.35207\include\xmemory
; File C:\Program Files\Microsoft Visual Studio\2022\Community\VC\Tools\MSVC\14.44.35207\include\xstring
; File D:\_m2work\Server Client TMP4\ClientVS22\source\UserInterface\PythonTextTail.cpp
; File C:\Program Files\Microsoft Visual Studio\2022\Community\VC\Tools\MSVC\14.44.35207\include\xstring
; File C:\Program Files\Microsoft Visual Studio\2022\Community\VC\Tools\MSVC\14.44.35207\include\__msvc_string_view.hpp
; File C:\Program Files\Microsoft Visual Studio\2022\Community\VC\Tools\MSVC\14.44.35207\include\xstring
; File C:\Program Files\Microsoft Visual Studio\2022\Community\VC\Tools\MSVC\14.44.35207\include\__msvc_string_view.hpp
; File C:\Program Files\Microsoft Visual Studio\2022\Community\VC\Tools\MSVC\14.44.35207\include\xstring
; File C:\Program Files\Microsoft Visual Studio\2022\Community\VC\Tools\MSVC\14.44.35207\include\xmemory
; File C:\Program Files\Microsoft Visual Studio\2022\Community\VC\Tools\MSVC\14.44.35207\include\xstring
; File C:\Program Files\Microsoft Visual Studio\2022\Community\VC\Tools\MSVC\14.44.35207\include\xmemory
; File C:\Program Files\Microsoft Visual Studio\2022\Community\VC\Tools\MSVC\14.44.35207\include\xstring
; File C:\Program Files\Microsoft Visual Studio\2022\Community\VC\Tools\MSVC\14.44.35207\include\__msvc_string_view.hpp
; File C:\Program Files\Microsoft Visual Studio\2022\Community\VC\Tools\MSVC\14.44.35207\include\xstring
; File C:\Program Files\Microsoft Visual Studio\2022\Community\VC\Tools\MSVC\14.44.35207\include\__msvc_string_view.hpp
; File C:\Program Files\Microsoft Visual Studio\2022\Community\VC\Tools\MSVC\14.44.35207\include\xstring
; File C:\Program Files\Microsoft Visual Studio\2022\Community\VC\Tools\MSVC\14.44.35207\include\xmemory
; File C:\Program Files\Microsoft Visual Studio\2022\Community\VC\Tools\MSVC\14.44.35207\include\xstring
; File C:\Program Files\Microsoft Visual Studio\2022\Community\VC\Tools\MSVC\14.44.35207\include\xmemory
; File D:\_m2work\Server Client TMP4\ClientVS22\source\UserInterface\PythonTextTail.cpp
; File C:\Program Files\Microsoft Visual Studio\2022\Community\VC\Tools\MSVC\14.44.35207\include\xstring
; File D:\_m2work\Server Client TMP4\ClientVS22\source\UserInterface\PythonTextTail.cpp
; File C:\Program Files\Microsoft Visual Studio\2022\Community\VC\Tools\MSVC\14.44.35207\include\xstring
; File D:\_m2work\Server Client TMP4\ClientVS22\source\UserInterface\PythonTextTail.cpp
; File C:\Program Files\Microsoft Visual Studio\2022\Community\VC\Tools\MSVC\14.44.35207\include\xstring
; File C:\Program Files\Microsoft Visual Studio\2022\Community\VC\Tools\MSVC\14.44.35207\include\xmemory
; File C:\Program Files\Microsoft Visual Studio\2022\Community\VC\Tools\MSVC\14.44.35207\include\xstring
; File C:\Program Files\Microsoft Visual Studio\2022\Community\VC\Tools\MSVC\14.44.35207\include\xmemory
; File C:\Program Files\Microsoft Visual Studio\2022\Community\VC\Tools\MSVC\14.44.35207\include\utility
; File D:\_m2work\Server Client TMP4\ClientVS22\source\UserInterface\PythonTextTail.cpp
; File C:\Program Files\Microsoft Visual Studio\2022\Community\VC\Tools\MSVC\14.44.35207\include\utility
; File D:\_m2work\Server Client TMP4\ClientVS22\source\UserInterface\PythonTextTail.cpp
; File C:\Program Files\Microsoft Visual Studio\2022\Community\VC\Tools\MSVC\14.44.35207\include\utility
; File D:\_m2work\Server Client TMP4\ClientVS22\source\UserInterface\PythonTextTail.cpp
; File C:\Program Files\Microsoft Visual Studio\2022\Community\VC\Tools\MSVC\14.44.35207\include\xmemory
; File D:\_m2work\Server Client TMP4\ClientVS22\source\UserInterface\PythonTextTail.cpp
;	COMDAT ?RegisterCharacterTextTail@CPythonTextTail@@QAEXKKABUD3DXCOLOR@@M@Z
_TEXT	SEGMENT
_this$GSCopy$1$ = -88					; size = 4
$T2 = -84						; size = 8
_pTextTail$1$ = -80					; size = 4
_c_rColor$GSCopy$1$ = -80				; size = 4
$T3 = -76						; size = 8
tv139 = -72						; size = 4
$T4 = -72						; size = 4
tv1145 = -72						; size = 4
_markImagePath$5 = -68					; size = 24
_strGuildName$6 = -44					; size = 24
__$ArrayPad$ = -20					; size = 4
__$EHRec$ = -12						; size = 12
_dwGuildID$ = 8						; size = 4
_dwVirtualID$ = 12					; size = 4
_c_rColor$ = 16						; size = 4
_fAddHeight$ = 20					; size = 4
?RegisterCharacterTextTail@CPythonTextTail@@QAEXKKABUD3DXCOLOR@@M@Z PROC ; CPythonTextTail::RegisterCharacterTextTail, COMDAT
; _this$ = ecx

; 510  : {

  00000	53		 push	 ebx
  00001	8b dc		 mov	 ebx, esp
  00003	83 ec 08	 sub	 esp, 8
  00006	83 e4 f8	 and	 esp, -8			; fffffff8H
  00009	83 c4 04	 add	 esp, 4
  0000c	55		 push	 ebp
  0000d	8b 6b 04	 mov	 ebp, DWORD PTR [ebx+4]
  00010	89 6c 24 04	 mov	 DWORD PTR [esp+4], ebp
  00014	8b ec		 mov	 ebp, esp
  00016	6a ff		 push	 -1
  00018	68 00 00 00 00	 push	 __ehhandler$?RegisterCharacterTextTail@CPythonTextTail@@QAEXKKABUD3DXCOLOR@@M@Z
  0001d	64 a1 00 00 00
	00		 mov	 eax, DWORD PTR fs:0
  00023	50		 push	 eax
  00024	53		 push	 ebx
  00025	83 ec 48	 sub	 esp, 72			; 00000048H
  00028	a1 00 00 00 00	 mov	 eax, DWORD PTR ___security_cookie
  0002d	33 c5		 xor	 eax, ebp
  0002f	89 45 ec	 mov	 DWORD PTR __$ArrayPad$[ebp], eax
  00032	56		 push	 esi
  00033	57		 push	 edi
  00034	50		 push	 eax
  00035	8d 45 f4	 lea	 eax, DWORD PTR __$EHRec$[ebp]
  00038	64 a3 00 00 00
	00		 mov	 DWORD PTR fs:0, eax
  0003e	89 4d a8	 mov	 DWORD PTR _this$GSCopy$1$[ebp], ecx

; 511  : 	CInstanceBase * pCharacterInstance = CPythonCharacterManager::Instance().GetInstancePtr(dwVirtualID);

  00041	8b 0d 00 00 00
	00		 mov	 ecx, DWORD PTR ?ms_singleton@?$CSingleton@VCPythonCharacterManager@@@@0PAVCPythonCharacterManager@@A ; CSingleton<CPythonCharacterManager>::ms_singleton
  00047	8b 43 10	 mov	 eax, DWORD PTR _c_rColor$[ebx]
  0004a	83 c1 04	 add	 ecx, 4
  0004d	8b 7b 0c	 mov	 edi, DWORD PTR _dwVirtualID$[ebx]
  00050	89 45 b0	 mov	 DWORD PTR _c_rColor$GSCopy$1$[ebp], eax
  00053	57		 push	 edi
  00054	8b 01		 mov	 eax, DWORD PTR [ecx]
  00056	8b 40 08	 mov	 eax, DWORD PTR [eax+8]
  00059	ff d0		 call	 eax
  0005b	8b f0		 mov	 esi, eax

; 512  : 
; 513  : 	if (!pCharacterInstance)

  0005d	85 f6		 test	 esi, esi
  0005f	0f 84 58 03 00
	00		 je	 $LN1@RegisterCh

; 514  : 		return;
; 515  : 
; 516  : 	TTextTail * pTextTail = RegisterTextTail(dwVirtualID,

  00065	8b ce		 mov	 ecx, esi
  00067	e8 00 00 00 00	 call	 ?GetGraphicThingInstanceRef@CInstanceBase@@QAEAAVCActorInstance@@XZ ; CInstanceBase::GetGraphicThingInstanceRef
  0006c	8b c8		 mov	 ecx, eax
  0006e	e8 00 00 00 00	 call	 ?GetHeight@CActorInstance@@QAEMXZ ; CActorInstance::GetHeight
  00073	d8 43 14	 fadd	 DWORD PTR _fAddHeight$[ebx]
  00076	8b ce		 mov	 ecx, esi
  00078	d9 5d b8	 fstp	 DWORD PTR tv139[ebp]
  0007b	e8 00 00 00 00	 call	 ?GetGraphicThingInstancePtr@CInstanceBase@@QAEPAVCActorInstance@@XZ ; CInstanceBase::GetGraphicThingInstancePtr
  00080	8b d0		 mov	 edx, eax
  00082	e8 00 00 00 00	 call	 ?GetNameString@CInstanceBase@@QAEPBDXZ ; CInstanceBase::GetNameString
  00087	ff 75 b0	 push	 DWORD PTR _c_rColor$GSCopy$1$[ebp]
  0008a	f3 0f 10 45 b8	 movss	 xmm0, DWORD PTR tv139[ebp]
  0008f	51		 push	 ecx
  00090	8b 4d a8	 mov	 ecx, DWORD PTR _this$GSCopy$1$[ebp]
  00093	f3 0f 11 04 24	 movss	 DWORD PTR [esp], xmm0
  00098	52		 push	 edx
  00099	50		 push	 eax
  0009a	57		 push	 edi
  0009b	e8 00 00 00 00	 call	 ?RegisterTextTail@CPythonTextTail@@IAEPAUSTextTail@1@KPBDPAVCGraphicObjectInstance@@MABUD3DXCOLOR@@@Z ; CPythonTextTail::RegisterTextTail
  000a0	8b f8		 mov	 edi, eax

; 517  : 											 pCharacterInstance->GetNameString(),
; 518  : 											 pCharacterInstance->GetGraphicThingInstancePtr(),
; 519  : 											 pCharacterInstance->GetGraphicThingInstanceRef().GetHeight() + fAddHeight,
; 520  : 											 c_rColor);
; 521  : 
; 522  : 	CGraphicTextInstance * pTextInstance = pTextTail->pTextInstance;
; 523  : 	pTextInstance->SetOutline(true);

  000a2	6a 01		 push	 1
  000a4	89 7d b0	 mov	 DWORD PTR _pTextTail$1$[ebp], edi
  000a7	8b 77 04	 mov	 esi, DWORD PTR [edi+4]
  000aa	8b ce		 mov	 ecx, esi
  000ac	e8 00 00 00 00	 call	 ?SetOutline@CGraphicTextInstance@@QAEX_N@Z ; CGraphicTextInstance::SetOutline

; 524  : 	pTextInstance->SetVerticalAlign(CGraphicTextInstance::VERTICAL_ALIGN_BOTTOM);

  000b1	6a 30		 push	 48			; 00000030H
  000b3	8b ce		 mov	 ecx, esi
  000b5	e8 00 00 00 00	 call	 ?SetVerticalAlign@CGraphicTextInstance@@QAEXH@Z ; CGraphicTextInstance::SetVerticalAlign

; 525  : 
; 526  : 	pTextTail->pMarkInstance=NULL;	
; 527  : 	pTextTail->pGuildNameTextInstance=NULL;
; 528  : 	pTextTail->pTitleTextInstance=NULL;
; 529  : 	pTextTail->pLevelTextInstance=NULL;
; 530  : 
; 531  : 	if (0 != dwGuildID)

  000ba	8b 73 08	 mov	 esi, DWORD PTR _dwGuildID$[ebx]
  000bd	c7 47 0c 00 00
	00 00		 mov	 DWORD PTR [edi+12], 0
  000c4	c7 47 10 00 00
	00 00		 mov	 DWORD PTR [edi+16], 0
  000cb	c7 47 14 00 00
	00 00		 mov	 DWORD PTR [edi+20], 0
  000d2	c7 47 18 00 00
	00 00		 mov	 DWORD PTR [edi+24], 0
  000d9	85 f6		 test	 esi, esi
  000db	0f 84 c0 02 00
	00		 je	 $LN223@RegisterCh

; 532  : 	{
; 533  : 		pTextTail->pMarkInstance = CGraphicMarkInstance::New();

  000e1	e8 00 00 00 00	 call	 ?New@CGraphicMarkInstance@@SAPAV1@XZ ; CGraphicMarkInstance::New

; 534  : 
; 535  : 		DWORD dwMarkID = CGuildMarkManager::Instance().GetMarkID(dwGuildID);

  000e6	8b 0d 00 00 00
	00		 mov	 ecx, DWORD PTR ?ms_singleton@?$singleton@VCGuildMarkManager@@@@0PAVCGuildMarkManager@@A ; singleton<CGuildMarkManager>::ms_singleton
  000ec	56		 push	 esi
  000ed	89 47 0c	 mov	 DWORD PTR [edi+12], eax
  000f0	e8 00 00 00 00	 call	 ?GetMarkID@CGuildMarkManager@@QAEKK@Z ; CGuildMarkManager::GetMarkID
  000f5	8b f0		 mov	 esi, eax

; 536  : 
; 537  : 		if (dwMarkID != CGuildMarkManager::INVALID_MARK_ID)

  000f7	83 fe ff	 cmp	 esi, -1
  000fa	0f 84 c0 00 00
	00		 je	 $LN47@RegisterCh
  00100	0f 57 c0	 xorps	 xmm0, xmm0
; File C:\Program Files\Microsoft Visual Studio\2022\Community\VC\Tools\MSVC\14.44.35207\include\xstring

; 860  :         _My_data._Mysize = 0;

  00103	c7 45 cc 00 00
	00 00		 mov	 DWORD PTR _markImagePath$5[ebp+16], 0

; 493  :         _CONSTEXPR20 _Bxty() noexcept : _Buf() {} // user-provided, for fancy pointers

  0010a	0f 11 45 bc	 movups	 XMMWORD PTR _markImagePath$5[ebp], xmm0

; 861  :         _My_data._Myres  = _Small_string_capacity;

  0010e	c7 45 d0 0f 00
	00 00		 mov	 DWORD PTR _markImagePath$5[ebp+20], 15 ; 0000000fH

; 862  :         _My_data._Activate_SSO_buffer();
; 863  : 
; 864  :         // the _Traits::assign is last so the codegen doesn't think the char write can alias this
; 865  :         _Traits::assign(_My_data._Bx._Buf[0], _Elem());

  00115	c6 45 bc 00	 mov	 BYTE PTR _markImagePath$5[ebp], 0
; File D:\_m2work\Server Client TMP4\ClientVS22\source\UserInterface\PythonTextTail.cpp

; 541  : 			if (CGuildMarkManager::Instance().GetMarkImageFilename(dwMarkID / CGuildMarkImage::MARK_TOTAL_COUNT, markImagePath))

  00119	b8 cd cc cc cc	 mov	 eax, -858993459		; cccccccdH
  0011e	c7 45 fc 00 00
	00 00		 mov	 DWORD PTR __$EHRec$[ebp+8], 0
  00125	f7 e6		 mul	 esi
  00127	8d 4d bc	 lea	 ecx, DWORD PTR _markImagePath$5[ebp]
  0012a	8b c2		 mov	 eax, edx
  0012c	c1 e8 0a	 shr	 eax, 10			; 0000000aH
  0012f	51		 push	 ecx
  00130	8b 0d 00 00 00
	00		 mov	 ecx, DWORD PTR ?ms_singleton@?$singleton@VCGuildMarkManager@@@@0PAVCGuildMarkManager@@A ; singleton<CGuildMarkManager>::ms_singleton
  00136	50		 push	 eax
  00137	89 45 b8	 mov	 DWORD PTR tv1145[ebp], eax
  0013a	e8 00 00 00 00	 call	 ?GetMarkImageFilename@CGuildMarkManager@@QBE_NKAAV?$basic_string@DU?$char_traits@D@std@@V?$allocator@D@2@@std@@@Z ; CGuildMarkManager::GetMarkImageFilename
  0013f	84 c0		 test	 al, al
  00141	74 30		 je	 SHORT $LN5@RegisterCh
; File C:\Program Files\Microsoft Visual Studio\2022\Community\VC\Tools\MSVC\14.44.35207\include\xstring

; 453  :         return _Myres > _Small_string_capacity;

  00143	83 7d d0 0f	 cmp	 DWORD PTR _markImagePath$5[ebp+20], 15 ; 0000000fH

; 444  :         const value_type* _Result = _Bx._Buf;

  00147	8d 45 bc	 lea	 eax, DWORD PTR _markImagePath$5[ebp]
; File D:\_m2work\Server Client TMP4\ClientVS22\source\UserInterface\PythonTextTail.cpp

; 543  : 				pTextTail->pMarkInstance->SetImageFileName(markImagePath.c_str());

  0014a	8b 4f 0c	 mov	 ecx, DWORD PTR [edi+12]
; File C:\Program Files\Microsoft Visual Studio\2022\Community\VC\Tools\MSVC\14.44.35207\include\xstring

; 445  :         if (_Large_mode_engaged()) {

  0014d	0f 47 45 bc	 cmova	 eax, DWORD PTR _markImagePath$5[ebp]
; File D:\_m2work\Server Client TMP4\ClientVS22\source\UserInterface\PythonTextTail.cpp

; 543  : 				pTextTail->pMarkInstance->SetImageFileName(markImagePath.c_str());

  00151	50		 push	 eax
  00152	e8 00 00 00 00	 call	 ?SetImageFileName@CGraphicMarkInstance@@QAEXPBD@Z ; CGraphicMarkInstance::SetImageFileName

; 544  : 				pTextTail->pMarkInstance->Load();

  00157	8b 4f 0c	 mov	 ecx, DWORD PTR [edi+12]
  0015a	e8 00 00 00 00	 call	 ?Load@CGraphicMarkInstance@@QAEXXZ ; CGraphicMarkInstance::Load

; 545  : 				pTextTail->pMarkInstance->SetIndex(dwMarkID % CGuildMarkImage::MARK_TOTAL_COUNT);

  0015f	8b 45 b8	 mov	 eax, DWORD PTR tv1145[ebp]
  00162	8b 4f 0c	 mov	 ecx, DWORD PTR [edi+12]
  00165	8d 04 80	 lea	 eax, DWORD PTR [eax+eax*4]
  00168	c1 e0 08	 shl	 eax, 8
  0016b	2b f0		 sub	 esi, eax
  0016d	56		 push	 esi
  0016e	e8 00 00 00 00	 call	 ?SetIndex@CGraphicMarkInstance@@QAEXI@Z ; CGraphicMarkInstance::SetIndex
$LN5@RegisterCh:

; 546  : 			}
; 547  : 		}

  00173	c7 45 fc ff ff
	ff ff		 mov	 DWORD PTR __$EHRec$[ebp+8], -1
; File C:\Program Files\Microsoft Visual Studio\2022\Community\VC\Tools\MSVC\14.44.35207\include\xstring

; 453  :         return _Myres > _Small_string_capacity;

  0017a	8b 4d d0	 mov	 ecx, DWORD PTR _markImagePath$5[ebp+20]
  0017d	83 f9 0f	 cmp	 ecx, 15			; 0000000fH

; 3083 :         if (_My_data._Large_mode_engaged()) {

  00180	76 2c		 jbe	 SHORT $LN58@RegisterCh
; File C:\Program Files\Microsoft Visual Studio\2022\Community\VC\Tools\MSVC\14.44.35207\include\xmemory

; 985  :         _STD _Deallocate<_New_alignof<_Ty>>(_Ptr, sizeof(_Ty) * _Count);

  00182	8b 55 bc	 mov	 edx, DWORD PTR _markImagePath$5[ebp]
; File C:\Program Files\Microsoft Visual Studio\2022\Community\VC\Tools\MSVC\14.44.35207\include\xstring

; 852  :         _Al.deallocate(_Old_ptr, _Capacity + 1); // +1 for null terminator

  00185	41		 inc	 ecx
; File C:\Program Files\Microsoft Visual Studio\2022\Community\VC\Tools\MSVC\14.44.35207\include\xmemory

; 985  :         _STD _Deallocate<_New_alignof<_Ty>>(_Ptr, sizeof(_Ty) * _Count);

  00186	8b c2		 mov	 eax, edx

; 284  :         if (_Bytes >= _Big_allocation_threshold) {

  00188	81 f9 00 10 00
	00		 cmp	 ecx, 4096		; 00001000H
  0018e	72 14		 jb	 SHORT $LN66@RegisterCh

; 205  :     const uintptr_t _Ptr_container   = _Ptr_user[-1];

  00190	8b 50 fc	 mov	 edx, DWORD PTR [eax-4]
  00193	83 c1 23	 add	 ecx, 35			; 00000023H
  00196	2b c2		 sub	 eax, edx

; 219  :     _STL_VERIFY(_Back_shift >= _Min_back_shift && _Back_shift <= _Non_user_size, "invalid argument");

  00198	83 c0 fc	 add	 eax, -4			; fffffffcH
  0019b	83 f8 1f	 cmp	 eax, 31			; 0000001fH
  0019e	0f 87 39 02 00
	00		 ja	 $LN267@RegisterCh
$LN66@RegisterCh:

; 289  :         ::operator delete(_Ptr, _Bytes);

  001a4	51		 push	 ecx
  001a5	52		 push	 edx
  001a6	e8 00 00 00 00	 call	 ??3@YAXPAXI@Z		; operator delete
  001ab	83 c4 08	 add	 esp, 8
$LN58@RegisterCh:
; File C:\Program Files\Microsoft Visual Studio\2022\Community\VC\Tools\MSVC\14.44.35207\include\xstring

; 3090 :         _My_data._Mysize = 0;

  001ae	c7 45 cc 00 00
	00 00		 mov	 DWORD PTR _markImagePath$5[ebp+16], 0

; 3091 :         _My_data._Myres  = _Small_string_capacity;

  001b5	c7 45 d0 0f 00
	00 00		 mov	 DWORD PTR _markImagePath$5[ebp+20], 15 ; 0000000fH

; 3092 :         // the _Traits::assign is last so the codegen doesn't think the char write can alias this
; 3093 :         _Traits::assign(_My_data._Bx._Buf[0], _Elem());

  001bc	c6 45 bc 00	 mov	 BYTE PTR _markImagePath$5[ebp], 0
$LN47@RegisterCh:
  001c0	0f 57 c0	 xorps	 xmm0, xmm0

; 860  :         _My_data._Mysize = 0;

  001c3	c7 45 e4 00 00
	00 00		 mov	 DWORD PTR _strGuildName$6[ebp+16], 0

; 493  :         _CONSTEXPR20 _Bxty() noexcept : _Buf() {} // user-provided, for fancy pointers

  001ca	0f 11 45 d4	 movups	 XMMWORD PTR _strGuildName$6[ebp], xmm0

; 861  :         _My_data._Myres  = _Small_string_capacity;

  001ce	c7 45 e8 0f 00
	00 00		 mov	 DWORD PTR _strGuildName$6[ebp+20], 15 ; 0000000fH

; 862  :         _My_data._Activate_SSO_buffer();
; 863  : 
; 864  :         // the _Traits::assign is last so the codegen doesn't think the char write can alias this
; 865  :         _Traits::assign(_My_data._Bx._Buf[0], _Elem());

  001d5	c6 45 d4 00	 mov	 BYTE PTR _strGuildName$6[ebp], 0
; File D:\_m2work\Server Client TMP4\ClientVS22\source\UserInterface\PythonTextTail.cpp

; 550  : 		if (!CPythonGuild::Instance().GetGuildName(dwGuildID, &strGuildName))

  001d9	8d 45 d4	 lea	 eax, DWORD PTR _strGuildName$6[ebp]
  001dc	c7 45 fc 01 00
	00 00		 mov	 DWORD PTR __$EHRec$[ebp+8], 1
  001e3	8b 0d 00 00 00
	00		 mov	 ecx, DWORD PTR ?ms_singleton@?$CSingleton@VCPythonGuild@@@@0PAVCPythonGuild@@A ; CSingleton<CPythonGuild>::ms_singleton
  001e9	50		 push	 eax
  001ea	ff 73 08	 push	 DWORD PTR _dwGuildID$[ebx]
  001ed	e8 00 00 00 00	 call	 ?GetGuildName@CPythonGuild@@QAE_NKPAV?$basic_string@DU?$char_traits@D@std@@V?$allocator@D@2@@std@@@Z ; CPythonGuild::GetGuildName
  001f2	84 c0		 test	 al, al
  001f4	0f 85 e3 00 00
	00		 jne	 $LN129@RegisterCh
; File C:\Program Files\Microsoft Visual Studio\2022\Community\VC\Tools\MSVC\14.44.35207\include\xstring

; 1618 :         if (_Count <= _Mypair._Myval2._Myres) {

  001fa	8b 7d e8	 mov	 edi, DWORD PTR _strGuildName$6[ebp+20]
  001fd	83 ff 06	 cmp	 edi, 6
  00200	72 2a		 jb	 SHORT $LN127@RegisterCh

; 453  :         return _Myres > _Small_string_capacity;

  00202	83 ff 0f	 cmp	 edi, 15			; 0000000fH

; 1621 :             _Mypair._Myval2._Mysize = _Count;

  00205	c7 45 e4 06 00
	00 00		 mov	 DWORD PTR _strGuildName$6[ebp+16], 6
; File C:\Program Files\Microsoft Visual Studio\2022\Community\VC\Tools\MSVC\14.44.35207\include\__msvc_string_view.hpp

; 174  :         _CSTD memmove(_First1, _First2, _Count * sizeof(_Elem));

  0020c	6a 06		 push	 6
; File C:\Program Files\Microsoft Visual Studio\2022\Community\VC\Tools\MSVC\14.44.35207\include\xstring

; 435  :         value_type* _Result = _Bx._Buf;

  0020e	8d 75 d4	 lea	 esi, DWORD PTR _strGuildName$6[ebp]

; 436  :         if (_Large_mode_engaged()) {

  00211	0f 47 75 d4	 cmova	 esi, DWORD PTR _strGuildName$6[ebp]
; File C:\Program Files\Microsoft Visual Studio\2022\Community\VC\Tools\MSVC\14.44.35207\include\__msvc_string_view.hpp

; 174  :         _CSTD memmove(_First1, _First2, _Count * sizeof(_Elem));

  00215	68 00 00 00 00	 push	 OFFSET ??_C@_06HCBIANPB@Noname@
  0021a	56		 push	 esi
  0021b	e8 00 00 00 00	 call	 _memmove
  00220	83 c4 0c	 add	 esp, 12			; 0000000cH
; File C:\Program Files\Microsoft Visual Studio\2022\Community\VC\Tools\MSVC\14.44.35207\include\xstring

; 1623 :             _Traits::assign(_Old_ptr[_Count], _Elem());

  00223	c6 46 06 00	 mov	 BYTE PTR [esi+6], 0

; 1624 :             _ASAN_STRING_CREATE(*this);
; 1625 :             return *this;

  00227	e9 ae 00 00 00	 jmp	 $LN264@RegisterCh
$LN127@RegisterCh:

; 3002 :         const size_type _Old_capacity = _Mypair._Myval2._Myres;

  0022c	8b cf		 mov	 ecx, edi

; 2983 :         if (_Old > _Max - _Old / 2) { // similarly, geometric overflows

  0022e	b8 ff ff ff 7f	 mov	 eax, 2147483647		; 7fffffffH

; 3002 :         const size_type _Old_capacity = _Mypair._Myval2._Myres;

  00233	d1 e9		 shr	 ecx, 1

; 2983 :         if (_Old > _Max - _Old / 2) { // similarly, geometric overflows

  00235	2b c1		 sub	 eax, ecx
  00237	3b f8		 cmp	 edi, eax
  00239	76 14		 jbe	 SHORT $LN136@RegisterCh

; 2984 :             return _Max;

  0023b	b8 00 00 00 80	 mov	 eax, -2147483648	; 80000000H
  00240	c7 45 b8 ff ff
	ff 7f		 mov	 DWORD PTR $T4[ebp], 2147483647 ; 7fffffffH
; File C:\Program Files\Microsoft Visual Studio\2022\Community\VC\Tools\MSVC\14.44.35207\include\xmemory

; 253  :             return _Allocate_manually_vector_aligned<_Traits>(_Bytes);

  00247	50		 push	 eax
  00248	e8 00 00 00 00	 call	 ??$_Allocate_manually_vector_aligned@U_Default_allocate_traits@std@@@std@@YAPAXI@Z ; std::_Allocate_manually_vector_aligned<std::_Default_allocate_traits>
  0024d	eb 30		 jmp	 SHORT $LN265@RegisterCh
$LN136@RegisterCh:
; File C:\Program Files\Microsoft Visual Studio\2022\Community\VC\Tools\MSVC\14.44.35207\include\xstring

; 2987 :         return (_STD max)(_Masked, _Old + _Old / 2);

  0024f	8d 04 39	 lea	 eax, DWORD PTR [ecx+edi]
  00252	b9 0f 00 00 00	 mov	 ecx, 15			; 0000000fH
  00257	3b c1		 cmp	 eax, ecx
  00259	0f 47 c8	 cmova	 ecx, eax
  0025c	89 4d b8	 mov	 DWORD PTR $T4[ebp], ecx

; 825  :         ++_Capacity; // Take null terminator into consideration

  0025f	8d 41 01	 lea	 eax, DWORD PTR [ecx+1]
; File C:\Program Files\Microsoft Visual Studio\2022\Community\VC\Tools\MSVC\14.44.35207\include\xmemory

; 227  :     if (_Bytes == 0) {

  00262	85 c0		 test	 eax, eax
  00264	75 04		 jne	 SHORT $LN153@RegisterCh

; 228  :         return nullptr;

  00266	33 f6		 xor	 esi, esi
  00268	eb 1d		 jmp	 SHORT $LN152@RegisterCh
$LN153@RegisterCh:

; 229  :     }
; 230  : 
; 231  : #if _HAS_CXX20 // TRANSITION, GH-1532
; 232  :     if (_STD is_constant_evaluated()) {
; 233  :         return _Traits::_Allocate(_Bytes);
; 234  :     }
; 235  : #endif // _HAS_CXX20
; 236  : 
; 237  : #ifdef __cpp_aligned_new
; 238  :     if constexpr (_Align > __STDCPP_DEFAULT_NEW_ALIGNMENT__) {
; 239  :         size_t _Passed_align = _Align;
; 240  : #if defined(_M_IX86) || defined(_M_X64)
; 241  :         if (_Bytes >= _Big_allocation_threshold) {
; 242  :             // boost the alignment of big allocations to help autovectorization
; 243  :             _Passed_align = (_STD max)(_Align, _Big_allocation_alignment);
; 244  :         }
; 245  : #endif // defined(_M_IX86) || defined(_M_X64)
; 246  :         return _Traits::_Allocate_aligned(_Bytes, _Passed_align);
; 247  :     } else
; 248  : #endif // defined(__cpp_aligned_new)
; 249  :     {
; 250  : #if defined(_M_IX86) || defined(_M_X64)
; 251  :         if (_Bytes >= _Big_allocation_threshold) {

  0026a	3d 00 10 00 00	 cmp	 eax, 4096		; 00001000H
  0026f	72 08		 jb	 SHORT $LN155@RegisterCh

; 253  :             return _Allocate_manually_vector_aligned<_Traits>(_Bytes);

  00271	50		 push	 eax
  00272	e8 00 00 00 00	 call	 ??$_Allocate_manually_vector_aligned@U_Default_allocate_traits@std@@@std@@YAPAXI@Z ; std::_Allocate_manually_vector_aligned<std::_Default_allocate_traits>
  00277	eb 06		 jmp	 SHORT $LN265@RegisterCh
$LN155@RegisterCh:

; 136  :         return ::operator new(_Bytes);

  00279	50		 push	 eax
  0027a	e8 00 00 00 00	 call	 ??2@YAPAXI@Z		; operator new
$LN265@RegisterCh:
; File C:\Program Files\Microsoft Visual Studio\2022\Community\VC\Tools\MSVC\14.44.35207\include\xstring

; 3009 :         _Mypair._Myval2._Mysize = _New_size;

  0027f	8b 4d b8	 mov	 ecx, DWORD PTR $T4[ebp]
  00282	8b f0		 mov	 esi, eax
  00284	83 c4 04	 add	 esp, 4
$LN152@RegisterCh:
; File C:\Program Files\Microsoft Visual Studio\2022\Community\VC\Tools\MSVC\14.44.35207\include\__msvc_string_view.hpp

; 121  :         _CSTD memcpy(_First1, _First2, _Count * sizeof(_Elem));

  00287	a1 00 00 00 00	 mov	 eax, DWORD PTR ??_C@_06HCBIANPB@Noname@
; File C:\Program Files\Microsoft Visual Studio\2022\Community\VC\Tools\MSVC\14.44.35207\include\xstring

; 3009 :         _Mypair._Myval2._Mysize = _New_size;

  0028c	c7 45 e4 06 00
	00 00		 mov	 DWORD PTR _strGuildName$6[ebp+16], 6

; 3010 :         _Mypair._Myval2._Myres  = _New_capacity;

  00293	89 4d e8	 mov	 DWORD PTR _strGuildName$6[ebp+20], ecx
; File C:\Program Files\Microsoft Visual Studio\2022\Community\VC\Tools\MSVC\14.44.35207\include\__msvc_string_view.hpp

; 121  :         _CSTD memcpy(_First1, _First2, _Count * sizeof(_Elem));

  00296	89 06		 mov	 DWORD PTR [esi], eax
  00298	66 a1 04 00 00
	00		 mov	 ax, WORD PTR ??_C@_06HCBIANPB@Noname@+4
  0029e	66 89 46 04	 mov	 WORD PTR [esi+4], ax
; File C:\Program Files\Microsoft Visual Studio\2022\Community\VC\Tools\MSVC\14.44.35207\include\xstring

; 1632 :                 _Traits::assign(_New_ptr[_Count], _Elem());

  002a2	c6 46 06 00	 mov	 BYTE PTR [esi+6], 0

; 3012 :         if (_Old_capacity > _Small_string_capacity) {

  002a6	83 ff 0f	 cmp	 edi, 15			; 0000000fH
  002a9	76 2c		 jbe	 SHORT $LN128@RegisterCh
; File C:\Program Files\Microsoft Visual Studio\2022\Community\VC\Tools\MSVC\14.44.35207\include\xmemory

; 985  :         _STD _Deallocate<_New_alignof<_Ty>>(_Ptr, sizeof(_Ty) * _Count);

  002ab	8b 4d d4	 mov	 ecx, DWORD PTR _strGuildName$6[ebp]
; File C:\Program Files\Microsoft Visual Studio\2022\Community\VC\Tools\MSVC\14.44.35207\include\xstring

; 852  :         _Al.deallocate(_Old_ptr, _Capacity + 1); // +1 for null terminator

  002ae	47		 inc	 edi
; File C:\Program Files\Microsoft Visual Studio\2022\Community\VC\Tools\MSVC\14.44.35207\include\xmemory

; 985  :         _STD _Deallocate<_New_alignof<_Ty>>(_Ptr, sizeof(_Ty) * _Count);

  002af	8b c1		 mov	 eax, ecx

; 284  :         if (_Bytes >= _Big_allocation_threshold) {

  002b1	81 ff 00 10 00
	00		 cmp	 edi, 4096		; 00001000H
  002b7	72 14		 jb	 SHORT $LN187@RegisterCh

; 205  :     const uintptr_t _Ptr_container   = _Ptr_user[-1];

  002b9	8b 48 fc	 mov	 ecx, DWORD PTR [eax-4]
  002bc	83 c7 23	 add	 edi, 35			; 00000023H
  002bf	2b c1		 sub	 eax, ecx

; 219  :     _STL_VERIFY(_Back_shift >= _Min_back_shift && _Back_shift <= _Non_user_size, "invalid argument");

  002c1	83 c0 fc	 add	 eax, -4			; fffffffcH
  002c4	83 f8 1f	 cmp	 eax, 31			; 0000001fH
  002c7	0f 87 1f 01 00
	00		 ja	 $LN230@RegisterCh
$LN187@RegisterCh:

; 289  :         ::operator delete(_Ptr, _Bytes);

  002cd	57		 push	 edi
  002ce	51		 push	 ecx
  002cf	e8 00 00 00 00	 call	 ??3@YAXPAXI@Z		; operator delete
  002d4	83 c4 08	 add	 esp, 8
$LN128@RegisterCh:
; File D:\_m2work\Server Client TMP4\ClientVS22\source\UserInterface\PythonTextTail.cpp

; 554  : 		prGuildNameInstance = CGraphicTextInstance::New();

  002d7	89 75 d4	 mov	 DWORD PTR _strGuildName$6[ebp], esi
$LN264@RegisterCh:
  002da	8b 7d b0	 mov	 edi, DWORD PTR _pTextTail$1$[ebp]
$LN129@RegisterCh:
  002dd	e8 00 00 00 00	 call	 ?New@CGraphicTextInstance@@SAPAV1@XZ ; CGraphicTextInstance::New

; 555  : 		prGuildNameInstance->SetTextPointer(ms_pFont);

  002e2	ff 35 00 00 00
	00		 push	 DWORD PTR ?ms_pFont@@3PAVCGraphicText@@A ; ms_pFont
  002e8	8b c8		 mov	 ecx, eax
  002ea	89 47 10	 mov	 DWORD PTR [edi+16], eax
  002ed	e8 00 00 00 00	 call	 ?SetTextPointer@CGraphicTextInstance@@QAEXPAVCGraphicText@@@Z ; CGraphicTextInstance::SetTextPointer

; 556  : 		prGuildNameInstance->SetOutline(true);

  002f2	8b 4f 10	 mov	 ecx, DWORD PTR [edi+16]
  002f5	6a 01		 push	 1
  002f7	e8 00 00 00 00	 call	 ?SetOutline@CGraphicTextInstance@@QAEX_N@Z ; CGraphicTextInstance::SetOutline

; 557  : 		prGuildNameInstance->SetHorizonalAlign(CGraphicTextInstance::HORIZONTAL_ALIGN_CENTER);

  002fc	8b 4f 10	 mov	 ecx, DWORD PTR [edi+16]
  002ff	6a 02		 push	 2
  00301	e8 00 00 00 00	 call	 ?SetHorizonalAlign@CGraphicTextInstance@@QAEXH@Z ; CGraphicTextInstance::SetHorizonalAlign

; 558  : 		prGuildNameInstance->SetVerticalAlign(CGraphicTextInstance::VERTICAL_ALIGN_BOTTOM);

  00306	8b 4f 10	 mov	 ecx, DWORD PTR [edi+16]
  00309	6a 30		 push	 48			; 00000030H
  0030b	e8 00 00 00 00	 call	 ?SetVerticalAlign@CGraphicTextInstance@@QAEXH@Z ; CGraphicTextInstance::SetVerticalAlign
; File C:\Program Files\Microsoft Visual Studio\2022\Community\VC\Tools\MSVC\14.44.35207\include\xstring

; 453  :         return _Myres > _Small_string_capacity;

  00310	83 7d e8 0f	 cmp	 DWORD PTR _strGuildName$6[ebp+20], 15 ; 0000000fH

; 444  :         const value_type* _Result = _Bx._Buf;

  00314	8d 45 d4	 lea	 eax, DWORD PTR _strGuildName$6[ebp]
; File D:\_m2work\Server Client TMP4\ClientVS22\source\UserInterface\PythonTextTail.cpp

; 559  : 		prGuildNameInstance->SetValue(strGuildName.c_str());

  00317	8b 4f 10	 mov	 ecx, DWORD PTR [edi+16]
; File C:\Program Files\Microsoft Visual Studio\2022\Community\VC\Tools\MSVC\14.44.35207\include\xstring

; 445  :         if (_Large_mode_engaged()) {

  0031a	0f 47 45 d4	 cmova	 eax, DWORD PTR _strGuildName$6[ebp]
; File D:\_m2work\Server Client TMP4\ClientVS22\source\UserInterface\PythonTextTail.cpp

; 559  : 		prGuildNameInstance->SetValue(strGuildName.c_str());

  0031e	6a ff		 push	 -1
  00320	50		 push	 eax
  00321	e8 00 00 00 00	 call	 ?SetValue@CGraphicTextInstance@@QAEXPBDI@Z ; CGraphicTextInstance::SetValue

; 560  : 		prGuildNameInstance->SetColor(c_TextTail_Guild_Name_Color.r, c_TextTail_Guild_Name_Color.g, c_TextTail_Guild_Name_Color.b);

  00326	f3 0f 10 05 08
	00 00 00	 movss	 xmm0, DWORD PTR ?c_TextTail_Guild_Name_Color@@3UD3DXCOLOR@@B+8
  0032e	83 ec 10	 sub	 esp, 16			; 00000010H
  00331	8b 4f 10	 mov	 ecx, DWORD PTR [edi+16]
  00334	c7 44 24 0c 00
	00 80 3f	 mov	 DWORD PTR [esp+12], 1065353216 ; 3f800000H
  0033c	f3 0f 11 44 24
	08		 movss	 DWORD PTR [esp+8], xmm0
  00342	f3 0f 10 05 04
	00 00 00	 movss	 xmm0, DWORD PTR ?c_TextTail_Guild_Name_Color@@3UD3DXCOLOR@@B+4
  0034a	f3 0f 11 44 24
	04		 movss	 DWORD PTR [esp+4], xmm0
  00350	f3 0f 10 05 00
	00 00 00	 movss	 xmm0, DWORD PTR ?c_TextTail_Guild_Name_Color@@3UD3DXCOLOR@@B
  00358	f3 0f 11 04 24	 movss	 DWORD PTR [esp], xmm0
  0035d	e8 00 00 00 00	 call	 ?SetColor@CGraphicTextInstance@@QAEXMMMM@Z ; CGraphicTextInstance::SetColor

; 561  : 		prGuildNameInstance->Update();

  00362	8b 4f 10	 mov	 ecx, DWORD PTR [edi+16]
  00365	e8 00 00 00 00	 call	 ?Update@CGraphicTextInstance@@QAEXXZ ; CGraphicTextInstance::Update

; 562  : 	}

  0036a	c7 45 fc ff ff
	ff ff		 mov	 DWORD PTR __$EHRec$[ebp+8], -1
; File C:\Program Files\Microsoft Visual Studio\2022\Community\VC\Tools\MSVC\14.44.35207\include\xstring

; 453  :         return _Myres > _Small_string_capacity;

  00371	8b 4d e8	 mov	 ecx, DWORD PTR _strGuildName$6[ebp+20]
  00374	83 f9 0f	 cmp	 ecx, 15			; 0000000fH

; 3083 :         if (_My_data._Large_mode_engaged()) {

  00377	76 28		 jbe	 SHORT $LN223@RegisterCh
; File C:\Program Files\Microsoft Visual Studio\2022\Community\VC\Tools\MSVC\14.44.35207\include\xmemory

; 985  :         _STD _Deallocate<_New_alignof<_Ty>>(_Ptr, sizeof(_Ty) * _Count);

  00379	8b 55 d4	 mov	 edx, DWORD PTR _strGuildName$6[ebp]
; File C:\Program Files\Microsoft Visual Studio\2022\Community\VC\Tools\MSVC\14.44.35207\include\xstring

; 852  :         _Al.deallocate(_Old_ptr, _Capacity + 1); // +1 for null terminator

  0037c	41		 inc	 ecx
; File C:\Program Files\Microsoft Visual Studio\2022\Community\VC\Tools\MSVC\14.44.35207\include\xmemory

; 985  :         _STD _Deallocate<_New_alignof<_Ty>>(_Ptr, sizeof(_Ty) * _Count);

  0037d	8b c2		 mov	 eax, edx

; 284  :         if (_Bytes >= _Big_allocation_threshold) {

  0037f	81 f9 00 10 00
	00		 cmp	 ecx, 4096		; 00001000H
  00385	72 10		 jb	 SHORT $LN231@RegisterCh

; 205  :     const uintptr_t _Ptr_container   = _Ptr_user[-1];

  00387	8b 50 fc	 mov	 edx, DWORD PTR [eax-4]
  0038a	83 c1 23	 add	 ecx, 35			; 00000023H
  0038d	2b c2		 sub	 eax, edx

; 219  :     _STL_VERIFY(_Back_shift >= _Min_back_shift && _Back_shift <= _Non_user_size, "invalid argument");

  0038f	83 c0 fc	 add	 eax, -4			; fffffffcH
  00392	83 f8 1f	 cmp	 eax, 31			; 0000001fH
  00395	77 55		 ja	 SHORT $LN230@RegisterCh
$LN231@RegisterCh:

; 289  :         ::operator delete(_Ptr, _Bytes);

  00397	51		 push	 ecx
  00398	52		 push	 edx
  00399	e8 00 00 00 00	 call	 ??3@YAXPAXI@Z		; operator delete
  0039e	83 c4 08	 add	 esp, 8
$LN223@RegisterCh:
; File C:\Program Files\Microsoft Visual Studio\2022\Community\VC\Tools\MSVC\14.44.35207\include\utility

; 274  :         : first(_STD forward<_Other1>(_Val1)), second(_STD forward<_Other2>(_Val2)) {

  003a1	8b 43 0c	 mov	 eax, DWORD PTR _dwVirtualID$[ebx]
; File D:\_m2work\Server Client TMP4\ClientVS22\source\UserInterface\PythonTextTail.cpp

; 564  : 	m_CharacterTextTailMap.insert(TTextTailMap::value_type(dwVirtualID, pTextTail));

  003a4	8b 4d a8	 mov	 ecx, DWORD PTR _this$GSCopy$1$[ebp]
; File C:\Program Files\Microsoft Visual Studio\2022\Community\VC\Tools\MSVC\14.44.35207\include\utility

; 274  :         : first(_STD forward<_Other1>(_Val1)), second(_STD forward<_Other2>(_Val2)) {

  003a7	89 45 ac	 mov	 DWORD PTR $T2[ebp], eax
; File D:\_m2work\Server Client TMP4\ClientVS22\source\UserInterface\PythonTextTail.cpp

; 564  : 	m_CharacterTextTailMap.insert(TTextTailMap::value_type(dwVirtualID, pTextTail));

  003aa	8d 45 ac	 lea	 eax, DWORD PTR $T2[ebp]
  003ad	50		 push	 eax
  003ae	8d 45 b4	 lea	 eax, DWORD PTR $T3[ebp]
; File C:\Program Files\Microsoft Visual Studio\2022\Community\VC\Tools\MSVC\14.44.35207\include\utility

; 274  :         : first(_STD forward<_Other1>(_Val1)), second(_STD forward<_Other2>(_Val2)) {

  003b1	89 7d b0	 mov	 DWORD PTR $T2[ebp+4], edi
; File D:\_m2work\Server Client TMP4\ClientVS22\source\UserInterface\PythonTextTail.cpp

; 564  : 	m_CharacterTextTailMap.insert(TTextTailMap::value_type(dwVirtualID, pTextTail));

  003b4	50		 push	 eax
  003b5	8d 49 04	 lea	 ecx, DWORD PTR [ecx+4]
  003b8	e8 00 00 00 00	 call	 ??$insert@$0A@$0A@@?$_Tree@V?$_Tmap_traits@KPAUSTextTail@CPythonTextTail@@U?$less@K@std@@V?$allocator@U?$pair@$$CBKPAUSTextTail@CPythonTextTail@@@std@@@4@$0A@@std@@@std@@QAE?AU?$pair@V?$_Tree_iterator@V?$_Tree_val@U?$_Tree_simple_types@U?$pair@$$CBKPAUSTextTail@CPythonTextTail@@@std@@@std@@@std@@@std@@_N@1@$$QAU?$pair@$$CBKPAUSTextTail@CPythonTextTail@@@1@@Z ; std::_Tree<std::_Tmap_traits<unsigned long,CPythonTextTail::STextTail *,std::less<unsigned long>,std::allocator<std::pair<unsigned long const ,CPythonTextTail::STextTail *> >,0> >::insert<0,0>
$LN1@RegisterCh:

; 565  : }

  003bd	8b 4d f4	 mov	 ecx, DWORD PTR __$EHRec$[ebp]
  003c0	64 89 0d 00 00
	00 00		 mov	 DWORD PTR fs:0, ecx
  003c7	59		 pop	 ecx
  003c8	5f		 pop	 edi
  003c9	5e		 pop	 esi
  003ca	8b 4d ec	 mov	 ecx, DWORD PTR __$ArrayPad$[ebp]
  003cd	33 cd		 xor	 ecx, ebp
  003cf	e8 00 00 00 00	 call	 @__security_check_cookie@4
  003d4	8b e5		 mov	 esp, ebp
  003d6	5d		 pop	 ebp
  003d7	8b e3		 mov	 esp, ebx
  003d9	5b		 pop	 ebx
  003da	c2 10 00	 ret	 16			; 00000010H
$LN267@RegisterCh:
; File C:\Program Files\Microsoft Visual Studio\2022\Community\VC\Tools\MSVC\14.44.35207\include\xmemory

; 219  :     _STL_VERIFY(_Back_shift >= _Min_back_shift && _Back_shift <= _Non_user_size, "invalid argument");

  003dd	6a 00		 push	 0
  003df	6a 00		 push	 0
  003e1	6a 00		 push	 0
  003e3	6a 00		 push	 0
  003e5	6a 00		 push	 0
  003e7	e8 00 00 00 00	 call	 __invoke_watson
$LN230@RegisterCh:
  003ec	6a 00		 push	 0
  003ee	6a 00		 push	 0
  003f0	6a 00		 push	 0
  003f2	6a 00		 push	 0
  003f4	6a 00		 push	 0
  003f6	e8 00 00 00 00	 call	 __invoke_watson
$LN263@RegisterCh:
  003fb	cc		 int	 3
_TEXT	ENDS
;	COMDAT text$x
text$x	SEGMENT
__unwindfunclet$?RegisterCharacterTextTail@CPythonTextTail@@QAEXKKABUD3DXCOLOR@@M@Z$0:
  00000	8d 4d bc	 lea	 ecx, DWORD PTR _markImagePath$5[ebp]
  00003	e9 00 00 00 00	 jmp	 ??1?$basic_string@DU?$char_traits@D@std@@V?$allocator@D@2@@std@@QAE@XZ ; std::basic_string<char,std::char_traits<char>,std::allocator<char> >::~basic_string<char,std::char_traits<char>,std::allocator<char> >
__unwindfunclet$?RegisterCharacterTextTail@CPythonTextTail@@QAEXKKABUD3DXCOLOR@@M@Z$1:
  00008	8d 4d d4	 lea	 ecx, DWORD PTR _strGuildName$6[ebp]
  0000b	e9 00 00 00 00	 jmp	 ??1?$basic_string@DU?$char_traits@D@std@@V?$allocator@D@2@@std@@QAE@XZ ; std::basic_string<char,std::char_traits<char>,std::allocator<char> >::~basic_string<char,std::char_traits<char>,std::allocator<char> >
  00010	cc		 int	 3
  00011	cc		 int	 3
  00012	cc		 int	 3
  00013	cc		 int	 3
  00014	cc		 int	 3
__ehhandler$?RegisterCharacterTextTail@CPythonTextTail@@QAEXKKABUD3DXCOLOR@@M@Z:
  00015	90		 npad	 1
  00016	90		 npad	 1
  00017	8b 54 24 08	 mov	 edx, DWORD PTR [esp+8]
  0001b	8d 42 0c	 lea	 eax, DWORD PTR [edx+12]
  0001e	8b 4a a8	 mov	 ecx, DWORD PTR [edx-88]
  00021	33 c8		 xor	 ecx, eax
  00023	e8 00 00 00 00	 call	 @__security_check_cookie@4
  00028	8b 4a f8	 mov	 ecx, DWORD PTR [edx-8]
  0002b	33 c8		 xor	 ecx, eax
  0002d	e8 00 00 00 00	 call	 @__security_check_cookie@4
  00032	b8 00 00 00 00	 mov	 eax, OFFSET __ehfuncinfo$?RegisterCharacterTextTail@CPythonTextTail@@QAEXKKABUD3DXCOLOR@@M@Z
  00037	e9 00 00 00 00	 jmp	 ___CxxFrameHandler3
text$x	ENDS
?RegisterCharacterTextTail@CPythonTextTail@@QAEXKKABUD3DXCOLOR@@M@Z ENDP ; CPythonTextTail::RegisterCharacterTextTail
; Function compile flags: /Ogtp
; File D:\_m2work\Server Client TMP4\ClientVS22\source\UserInterface\PythonTextTail.cpp
; File D:\_m2work\Server Client TMP4\ClientVS22\source\eterLib\Pool.h
; File C:\Program Files\Microsoft Visual Studio\2022\Community\VC\Tools\MSVC\14.44.35207\include\vector
; File D:\_m2work\Server Client TMP4\ClientVS22\source\UserInterface\PythonTextTail.cpp
;	COMDAT ?Destroy@CPythonTextTail@@QAEXXZ
_TEXT	SEGMENT
?Destroy@CPythonTextTail@@QAEXXZ PROC			; CPythonTextTail::Destroy, COMDAT
; _this$ = ecx

; 1006 : {

  00000	53		 push	 ebx
  00001	56		 push	 esi
  00002	57		 push	 edi
  00003	8b f9		 mov	 edi, ecx
; File D:\_m2work\Server Client TMP4\ClientVS22\source\eterLib\Pool.h

; 50   : 			for (auto v : m_kVct_pkData)

  00005	8b 5f 34	 mov	 ebx, DWORD PTR [edi+52]
  00008	8b 77 30	 mov	 esi, DWORD PTR [edi+48]
  0000b	3b f3		 cmp	 esi, ebx
  0000d	74 14		 je	 SHORT $LN7@Destroy
  0000f	90		 npad	 1
$LL8@Destroy:

; 111  : 			delete pkData;

  00010	8b 0e		 mov	 ecx, DWORD PTR [esi]
  00012	85 c9		 test	 ecx, ecx
  00014	74 06		 je	 SHORT $LN6@Destroy
  00016	8b 01		 mov	 eax, DWORD PTR [ecx]
  00018	6a 01		 push	 1
  0001a	ff 10		 call	 DWORD PTR [eax]
$LN6@Destroy:

; 50   : 			for (auto v : m_kVct_pkData)

  0001c	83 c6 04	 add	 esi, 4
  0001f	3b f3		 cmp	 esi, ebx
  00021	75 ed		 jne	 SHORT $LL8@Destroy
$LN7@Destroy:
; File C:\Program Files\Microsoft Visual Studio\2022\Community\VC\Tools\MSVC\14.44.35207\include\vector

; 1812 :         if (_Myfirst == _Mylast) { // already empty, nothing to do

  00023	8b 47 30	 mov	 eax, DWORD PTR [edi+48]
  00026	3b 47 34	 cmp	 eax, DWORD PTR [edi+52]
  00029	74 03		 je	 SHORT $LN14@Destroy

; 1813 :             // This is an optimization for debug mode: we can avoid taking the debug lock to invalidate iterators.
; 1814 :             // Note that when clearing an empty vector, this will preserve past-the-end iterators, which is allowed by
; 1815 :             // N4950 [sequence.reqmts]/54 "a.clear() [...] may invalidate the past-the-end iterator".
; 1816 :             return;
; 1817 :         }
; 1818 : 
; 1819 :         _My_data._Orphan_all();
; 1820 :         _Destroy_range(_Myfirst, _Mylast, _Getal());
; 1821 :         _ASAN_VECTOR_MODIFY(static_cast<difference_type>(_Myfirst - _Mylast)); // negative when destroying elements
; 1822 :         _Mylast = _Myfirst;

  0002b	89 47 34	 mov	 DWORD PTR [edi+52], eax
$LN14@Destroy:

; 1812 :         if (_Myfirst == _Mylast) { // already empty, nothing to do

  0002e	8b 47 3c	 mov	 eax, DWORD PTR [edi+60]
  00031	3b 47 40	 cmp	 eax, DWORD PTR [edi+64]
  00034	74 03		 je	 SHORT $LN18@Destroy

; 1813 :             // This is an optimization for debug mode: we can avoid taking the debug lock to invalidate iterators.
; 1814 :             // Note that when clearing an empty vector, this will preserve past-the-end iterators, which is allowed by
; 1815 :             // N4950 [sequence.reqmts]/54 "a.clear() [...] may invalidate the past-the-end iterator".
; 1816 :             return;
; 1817 :         }
; 1818 : 
; 1819 :         _My_data._Orphan_all();
; 1820 :         _Destroy_range(_Myfirst, _Mylast, _Getal());
; 1821 :         _ASAN_VECTOR_MODIFY(static_cast<difference_type>(_Myfirst - _Mylast)); // negative when destroying elements
; 1822 :         _Mylast = _Myfirst;

  00036	89 47 40	 mov	 DWORD PTR [edi+64], eax
$LN18@Destroy:
  00039	5f		 pop	 edi
; File D:\_m2work\Server Client TMP4\ClientVS22\source\UserInterface\PythonTextTail.cpp

; 1008 : }

  0003a	5e		 pop	 esi
  0003b	5b		 pop	 ebx
  0003c	c3		 ret	 0
?Destroy@CPythonTextTail@@QAEXXZ ENDP			; CPythonTextTail::Destroy
_TEXT	ENDS
; Function compile flags: /Ogtp
; File D:\_m2work\Server Client TMP4\ClientVS22\source\UserInterface\PythonTextTail.cpp
;	COMDAT ?Initialize@CPythonTextTail@@QAEXXZ
_TEXT	SEGMENT
?Initialize@CPythonTextTail@@QAEXXZ PROC		; CPythonTextTail::Initialize, COMDAT
; _this$dead$ = ecx

; 991  : 	// DEFAULT_FONT
; 992  : 	//ms_pFont = (CGraphicText *)CResourceManager::Instance().GetTypeResourcePointer(g_strDefaultFontName.c_str());
; 993  : 
; 994  : 	CGraphicText* pkDefaultFont = static_cast<CGraphicText*>(DefaultFont_GetResource());

  00000	e8 00 00 00 00	 call	 ?DefaultFont_GetResource@@YAPAVCResource@@XZ ; DefaultFont_GetResource

; 995  : 	if (!pkDefaultFont)

  00005	85 c0		 test	 eax, eax
  00007	75 0e		 jne	 SHORT $LN2@Initialize

; 996  : 	{
; 997  : 		TraceError("CPythonTextTail::Initialize - CANNOT_FIND_DEFAULT_FONT");

  00009	68 00 00 00 00	 push	 OFFSET ??_C@_0DH@ONGBNPOP@CPythonTextTail?3?3Initialize?5?9?5C@
  0000e	e8 00 00 00 00	 call	 ?TraceError@@YAXPBDZZ	; TraceError
  00013	83 c4 04	 add	 esp, 4

; 1002 : 	// END_OF_DEFAULT_FONT
; 1003 : }

  00016	c3		 ret	 0
$LN2@Initialize:

; 998  : 		return;
; 999  : 	}	
; 1000 : 
; 1001 : 	ms_pFont = pkDefaultFont;

  00017	a3 00 00 00 00	 mov	 DWORD PTR ?ms_pFont@@3PAVCGraphicText@@A, eax ; ms_pFont

; 1002 : 	// END_OF_DEFAULT_FONT
; 1003 : }

  0001c	c3		 ret	 0
?Initialize@CPythonTextTail@@QAEXXZ ENDP		; CPythonTextTail::Initialize
_TEXT	ENDS
; Function compile flags: /Ogtp
; File D:\_m2work\Server Client TMP4\ClientVS22\source\UserInterface\PythonTextTail.cpp
; File C:\Program Files\Microsoft Visual Studio\2022\Community\VC\Tools\MSVC\14.44.35207\include\vector
; File D:\_m2work\Server Client TMP4\ClientVS22\source\UserInterface\PythonTextTail.cpp
; File C:\Program Files\Microsoft Visual Studio\2022\Community\VC\Tools\MSVC\14.44.35207\include\vector
; File D:\_m2work\Server Client TMP4\ClientVS22\source\UserInterface\PythonTextTail.cpp
; File C:\Program Files\Microsoft Visual Studio\2022\Community\VC\Tools\MSVC\14.44.35207\include\__msvc_string_view.hpp
; File D:\_m2work\Server Client TMP4\ClientVS22\source\UserInterface\PythonTextTail.cpp
; File C:\Program Files\Microsoft Visual Studio\2022\Community\VC\Tools\MSVC\14.44.35207\include\__msvc_string_view.hpp
; File C:\Program Files\Microsoft Visual Studio\2022\Community\VC\Tools\MSVC\14.44.35207\include\xstring
; File D:\_m2work\Server Client TMP4\ClientVS22\source\UserInterface\PythonTextTail.cpp
; File C:\Program Files\Microsoft Visual Studio\2022\Community\VC\Tools\MSVC\14.44.35207\include\xstring
; File D:\_m2work\Server Client TMP4\ClientVS22\source\UserInterface\PythonTextTail.cpp
;	COMDAT ?GetInfo@CPythonTextTail@@QAEXPAV?$basic_string@DU?$char_traits@D@std@@V?$allocator@D@2@@std@@@Z
_TEXT	SEGMENT
_szInfo$ = -260						; size = 256
__$ArrayPad$ = -4					; size = 4
_pstInfo$ = 8						; size = 4
?GetInfo@CPythonTextTail@@QAEXPAV?$basic_string@DU?$char_traits@D@std@@V?$allocator@D@2@@std@@@Z PROC ; CPythonTextTail::GetInfo, COMDAT
; _this$ = ecx

; 43   : {

  00000	55		 push	 ebp
  00001	8b ec		 mov	 ebp, esp
  00003	81 ec 04 01 00
	00		 sub	 esp, 260		; 00000104H
  00009	a1 00 00 00 00	 mov	 eax, DWORD PTR ___security_cookie
  0000e	33 c5		 xor	 eax, ebp
  00010	89 45 fc	 mov	 DWORD PTR __$ArrayPad$[ebp], eax
; File C:\Program Files\Microsoft Visual Studio\2022\Community\VC\Tools\MSVC\14.44.35207\include\vector

; 1915 :         return static_cast<size_type>(_My_data._Mylast - _My_data._Myfirst);

  00013	8b 41 34	 mov	 eax, DWORD PTR [ecx+52]
  00016	2b 41 30	 sub	 eax, DWORD PTR [ecx+48]
; File D:\_m2work\Server Client TMP4\ClientVS22\source\UserInterface\PythonTextTail.cpp

; 43   : {

  00019	56		 push	 esi
  0001a	8b 75 08	 mov	 esi, DWORD PTR _pstInfo$[ebp]
; File C:\Program Files\Microsoft Visual Studio\2022\Community\VC\Tools\MSVC\14.44.35207\include\vector

; 1915 :         return static_cast<size_type>(_My_data._Mylast - _My_data._Myfirst);

  0001d	c1 f8 02	 sar	 eax, 2
; File D:\_m2work\Server Client TMP4\ClientVS22\source\UserInterface\PythonTextTail.cpp

; 45   : 	sprintf(szInfo, "TextTail: ChatTail %d, ChrTail (Map %d, List %d), ItemTail (Map %d, List %d), Pool %d", 

  00020	50		 push	 eax
  00021	ff 71 28	 push	 DWORD PTR [ecx+40]
  00024	8d 85 fc fe ff
	ff		 lea	 eax, DWORD PTR _szInfo$[ebp]
  0002a	ff 71 10	 push	 DWORD PTR [ecx+16]
  0002d	ff 71 20	 push	 DWORD PTR [ecx+32]
  00030	ff 71 08	 push	 DWORD PTR [ecx+8]
  00033	ff 71 18	 push	 DWORD PTR [ecx+24]
  00036	68 00 00 00 00	 push	 OFFSET ??_C@_0FG@PPLFOIJH@TextTail?3?5ChatTail?5?$CFd?0?5ChrTail?5@
  0003b	50		 push	 eax
  0003c	e8 00 00 00 00	 call	 _sprintf
; File C:\Program Files\Microsoft Visual Studio\2022\Community\VC\Tools\MSVC\14.44.35207\include\__msvc_string_view.hpp

; 456  :             return __builtin_strlen(_First);

  00041	8d 85 fc fe ff
	ff		 lea	 eax, DWORD PTR _szInfo$[ebp]
; File D:\_m2work\Server Client TMP4\ClientVS22\source\UserInterface\PythonTextTail.cpp

; 45   : 	sprintf(szInfo, "TextTail: ChatTail %d, ChrTail (Map %d, List %d), ItemTail (Map %d, List %d), Pool %d", 

  00047	83 c4 20	 add	 esp, 32			; 00000020H
; File C:\Program Files\Microsoft Visual Studio\2022\Community\VC\Tools\MSVC\14.44.35207\include\__msvc_string_view.hpp

; 456  :             return __builtin_strlen(_First);

  0004a	8d 50 01	 lea	 edx, DWORD PTR [eax+1]
  0004d	0f 1f 00	 npad	 3
$LL13@GetInfo:
  00050	8a 08		 mov	 cl, BYTE PTR [eax]
  00052	40		 inc	 eax
  00053	84 c9		 test	 cl, cl
  00055	75 f9		 jne	 SHORT $LL13@GetInfo
  00057	2b c2		 sub	 eax, edx
; File C:\Program Files\Microsoft Visual Studio\2022\Community\VC\Tools\MSVC\14.44.35207\include\xstring

; 1534 :         return append(_Ptr, _Convert_size<size_type>(_Traits::length(_Ptr)));

  00059	8b ce		 mov	 ecx, esi
  0005b	50		 push	 eax
  0005c	8d 85 fc fe ff
	ff		 lea	 eax, DWORD PTR _szInfo$[ebp]
  00062	50		 push	 eax
  00063	e8 00 00 00 00	 call	 ?append@?$basic_string@DU?$char_traits@D@std@@V?$allocator@D@2@@std@@QAEAAV12@QBDI@Z ; std::basic_string<char,std::char_traits<char>,std::allocator<char> >::append
; File D:\_m2work\Server Client TMP4\ClientVS22\source\UserInterface\PythonTextTail.cpp

; 52   : }

  00068	8b 4d fc	 mov	 ecx, DWORD PTR __$ArrayPad$[ebp]
  0006b	33 cd		 xor	 ecx, ebp
; File C:\Program Files\Microsoft Visual Studio\2022\Community\VC\Tools\MSVC\14.44.35207\include\xstring

; 1534 :         return append(_Ptr, _Convert_size<size_type>(_Traits::length(_Ptr)));

  0006d	5e		 pop	 esi
; File D:\_m2work\Server Client TMP4\ClientVS22\source\UserInterface\PythonTextTail.cpp

; 52   : }

  0006e	e8 00 00 00 00	 call	 @__security_check_cookie@4
  00073	8b e5		 mov	 esp, ebp
  00075	5d		 pop	 ebp
  00076	c2 04 00	 ret	 4
?GetInfo@CPythonTextTail@@QAEXPAV?$basic_string@DU?$char_traits@D@std@@V?$allocator@D@2@@std@@@Z ENDP ; CPythonTextTail::GetInfo
_TEXT	ENDS
; Function compile flags: /Ogtp
; File D:\_m2work\Server Client TMP4\ClientVS22\source\UserInterface\PythonTextTail.cpp
; File D:\_m2work\Server Client TMP4\ClientVS22\source\eterLib\Pool.h
; File C:\Program Files\Microsoft Visual Studio\2022\Community\VC\Tools\MSVC\14.44.35207\include\list
; File C:\Program Files\Microsoft Visual Studio\2022\Community\VC\Tools\MSVC\14.44.35207\include\xmemory
; File C:\Program Files\Microsoft Visual Studio\2022\Community\VC\Tools\MSVC\14.44.35207\include\list
; File C:\Program Files\Microsoft Visual Studio\2022\Community\VC\Tools\MSVC\14.44.35207\include\xmemory
; File C:\Program Files\Microsoft Visual Studio\2022\Community\VC\Tools\MSVC\14.44.35207\include\list
; File C:\Program Files\Microsoft Visual Studio\2022\Community\VC\Tools\MSVC\14.44.35207\include\xmemory
; File C:\Program Files\Microsoft Visual Studio\2022\Community\VC\Tools\MSVC\14.44.35207\include\list
; File C:\Program Files\Microsoft Visual Studio\2022\Community\VC\Tools\MSVC\14.44.35207\include\xmemory
; File C:\Program Files\Microsoft Visual Studio\2022\Community\VC\Tools\MSVC\14.44.35207\include\list
; File C:\Program Files\Microsoft Visual Studio\2022\Community\VC\Tools\MSVC\14.44.35207\include\xmemory
; File C:\Program Files\Microsoft Visual Studio\2022\Community\VC\Tools\MSVC\14.44.35207\include\xtree
; File D:\_m2work\Server Client TMP4\ClientVS22\source\UserInterface\PythonTextTail.cpp
; File C:\Program Files\Microsoft Visual Studio\2022\Community\VC\Tools\MSVC\14.44.35207\include\xmemory
; File C:\Program Files\Microsoft Visual Studio\2022\Community\VC\Tools\MSVC\14.44.35207\include\xtree
; File C:\Program Files\Microsoft Visual Studio\2022\Community\VC\Tools\MSVC\14.44.35207\include\xmemory
; File C:\Program Files\Microsoft Visual Studio\2022\Community\VC\Tools\MSVC\14.44.35207\include\xtree
; File D:\_m2work\Server Client TMP4\ClientVS22\source\UserInterface\PythonTextTail.cpp
; File C:\Program Files\Microsoft Visual Studio\2022\Community\VC\Tools\MSVC\14.44.35207\include\xmemory
; File C:\Program Files\Microsoft Visual Studio\2022\Community\VC\Tools\MSVC\14.44.35207\include\xtree
; File C:\Program Files\Microsoft Visual Studio\2022\Community\VC\Tools\MSVC\14.44.35207\include\xmemory
; File C:\Program Files\Microsoft Visual Studio\2022\Community\VC\Tools\MSVC\14.44.35207\include\xtree
; File D:\_m2work\Server Client TMP4\ClientVS22\source\UserInterface\PythonTextTail.cpp
; File C:\Program Files\Microsoft Visual Studio\2022\Community\VC\Tools\MSVC\14.44.35207\include\xmemory
; File C:\Program Files\Microsoft Visual Studio\2022\Community\VC\Tools\MSVC\14.44.35207\include\xtree
; File C:\Program Files\Microsoft Visual Studio\2022\Community\VC\Tools\MSVC\14.44.35207\include\xmemory
; File D:\_m2work\Server Client TMP4\ClientVS22\source\eterBase\Singleton.h
; File D:\_m2work\Server Client TMP4\ClientVS22\source\UserInterface\PythonTextTail.cpp
;	COMDAT ??1CPythonTextTail@@UAE@XZ
_TEXT	SEGMENT
??1CPythonTextTail@@UAE@XZ PROC				; CPythonTextTail::~CPythonTextTail, COMDAT
; _this$ = ecx

; 1027 : {

  00000	56		 push	 esi
  00001	57		 push	 edi
  00002	8b f9		 mov	 edi, ecx
  00004	c7 07 00 00 00
	00		 mov	 DWORD PTR [edi], OFFSET ??_7CPythonTextTail@@6B@

; 1028 : 	Destroy();

  0000a	e8 00 00 00 00	 call	 ?Destroy@CPythonTextTail@@QAEXXZ ; CPythonTextTail::Destroy
; File D:\_m2work\Server Client TMP4\ClientVS22\source\eterLib\Pool.h

; 26   : 		}

  0000f	8d 4f 3c	 lea	 ecx, DWORD PTR [edi+60]
  00012	c7 47 2c 00 00
	00 00		 mov	 DWORD PTR [edi+44], OFFSET ??_7?$CDynamicPool@USTextTail@CPythonTextTail@@@@6B@
  00019	e8 00 00 00 00	 call	 ??1?$vector@PAUSTextTail@CPythonTextTail@@V?$allocator@PAUSTextTail@CPythonTextTail@@@std@@@std@@QAE@XZ ; std::vector<CPythonTextTail::STextTail *,std::allocator<CPythonTextTail::STextTail *> >::~vector<CPythonTextTail::STextTail *,std::allocator<CPythonTextTail::STextTail *> >
  0001e	8d 4f 30	 lea	 ecx, DWORD PTR [edi+48]
  00021	e8 00 00 00 00	 call	 ??1?$vector@PAUSTextTail@CPythonTextTail@@V?$allocator@PAUSTextTail@CPythonTextTail@@@std@@@std@@QAE@XZ ; std::vector<CPythonTextTail::STextTail *,std::allocator<CPythonTextTail::STextTail *> >::~vector<CPythonTextTail::STextTail *,std::allocator<CPythonTextTail::STextTail *> >
; File C:\Program Files\Microsoft Visual Studio\2022\Community\VC\Tools\MSVC\14.44.35207\include\list

; 1518 :         _Node::_Free_non_head(_Al, _My_data._Myhead);

  00026	8b 4f 24	 mov	 ecx, DWORD PTR [edi+36]

; 324  :         _Head->_Prev->_Next = nullptr;

  00029	8b 41 04	 mov	 eax, DWORD PTR [ecx+4]
  0002c	c7 00 00 00 00
	00		 mov	 DWORD PTR [eax], 0

; 325  : 
; 326  :         auto _Pnode = _Head->_Next;

  00032	8b 01		 mov	 eax, DWORD PTR [ecx]

; 327  :         for (_Nodeptr _Pnext; _Pnode; _Pnode = _Pnext) {

  00034	85 c0		 test	 eax, eax
  00036	74 13		 je	 SHORT $LN339@CPythonTex
$LL18@CPythonTex:

; 328  :             _Pnext = _Pnode->_Next;

  00038	8b 30		 mov	 esi, DWORD PTR [eax]
; File C:\Program Files\Microsoft Visual Studio\2022\Community\VC\Tools\MSVC\14.44.35207\include\xmemory

; 289  :         ::operator delete(_Ptr, _Bytes);

  0003a	6a 0c		 push	 12			; 0000000cH
  0003c	50		 push	 eax
  0003d	e8 00 00 00 00	 call	 ??3@YAXPAXI@Z		; operator delete
  00042	83 c4 08	 add	 esp, 8
; File C:\Program Files\Microsoft Visual Studio\2022\Community\VC\Tools\MSVC\14.44.35207\include\list

; 327  :         for (_Nodeptr _Pnext; _Pnode; _Pnode = _Pnext) {

  00045	8b c6		 mov	 eax, esi
  00047	85 f6		 test	 esi, esi
  00049	75 ed		 jne	 SHORT $LL18@CPythonTex
$LN339@CPythonTex:
; File C:\Program Files\Microsoft Visual Studio\2022\Community\VC\Tools\MSVC\14.44.35207\include\xmemory

; 289  :         ::operator delete(_Ptr, _Bytes);

  0004b	6a 0c		 push	 12			; 0000000cH
  0004d	ff 77 24	 push	 DWORD PTR [edi+36]
  00050	e8 00 00 00 00	 call	 ??3@YAXPAXI@Z		; operator delete
; File C:\Program Files\Microsoft Visual Studio\2022\Community\VC\Tools\MSVC\14.44.35207\include\list

; 1518 :         _Node::_Free_non_head(_Al, _My_data._Myhead);

  00055	8b 4f 1c	 mov	 ecx, DWORD PTR [edi+28]
; File C:\Program Files\Microsoft Visual Studio\2022\Community\VC\Tools\MSVC\14.44.35207\include\xmemory

; 289  :         ::operator delete(_Ptr, _Bytes);

  00058	83 c4 08	 add	 esp, 8
; File C:\Program Files\Microsoft Visual Studio\2022\Community\VC\Tools\MSVC\14.44.35207\include\list

; 324  :         _Head->_Prev->_Next = nullptr;

  0005b	8b 41 04	 mov	 eax, DWORD PTR [ecx+4]
  0005e	c7 00 00 00 00
	00		 mov	 DWORD PTR [eax], 0

; 325  : 
; 326  :         auto _Pnode = _Head->_Next;

  00064	8b 01		 mov	 eax, DWORD PTR [ecx]

; 327  :         for (_Nodeptr _Pnext; _Pnode; _Pnode = _Pnext) {

  00066	85 c0		 test	 eax, eax
  00068	74 19		 je	 SHORT $LN340@CPythonTex
  0006a	66 0f 1f 44 00
	00		 npad	 6
$LL106@CPythonTex:

; 328  :             _Pnext = _Pnode->_Next;

  00070	8b 30		 mov	 esi, DWORD PTR [eax]
; File C:\Program Files\Microsoft Visual Studio\2022\Community\VC\Tools\MSVC\14.44.35207\include\xmemory

; 289  :         ::operator delete(_Ptr, _Bytes);

  00072	6a 0c		 push	 12			; 0000000cH
  00074	50		 push	 eax
  00075	e8 00 00 00 00	 call	 ??3@YAXPAXI@Z		; operator delete
  0007a	83 c4 08	 add	 esp, 8
; File C:\Program Files\Microsoft Visual Studio\2022\Community\VC\Tools\MSVC\14.44.35207\include\list

; 327  :         for (_Nodeptr _Pnext; _Pnode; _Pnode = _Pnext) {

  0007d	8b c6		 mov	 eax, esi
  0007f	85 f6		 test	 esi, esi
  00081	75 ed		 jne	 SHORT $LL106@CPythonTex
$LN340@CPythonTex:
; File C:\Program Files\Microsoft Visual Studio\2022\Community\VC\Tools\MSVC\14.44.35207\include\xmemory

; 289  :         ::operator delete(_Ptr, _Bytes);

  00083	6a 0c		 push	 12			; 0000000cH
  00085	ff 77 1c	 push	 DWORD PTR [edi+28]
  00088	e8 00 00 00 00	 call	 ??3@YAXPAXI@Z		; operator delete
; File C:\Program Files\Microsoft Visual Studio\2022\Community\VC\Tools\MSVC\14.44.35207\include\xtree

; 777  :         _Erase_tree(_Al, _Myhead->_Parent);

  0008d	8b 47 14	 mov	 eax, DWORD PTR [edi+20]
; File D:\_m2work\Server Client TMP4\ClientVS22\source\UserInterface\PythonTextTail.cpp

; 1029 : }

  00090	8d 77 14	 lea	 esi, DWORD PTR [edi+20]
; File C:\Program Files\Microsoft Visual Studio\2022\Community\VC\Tools\MSVC\14.44.35207\include\xmemory

; 289  :         ::operator delete(_Ptr, _Bytes);

  00093	83 c4 08	 add	 esp, 8
; File C:\Program Files\Microsoft Visual Studio\2022\Community\VC\Tools\MSVC\14.44.35207\include\xtree

; 777  :         _Erase_tree(_Al, _Myhead->_Parent);

  00096	8b ce		 mov	 ecx, esi
  00098	ff 70 04	 push	 DWORD PTR [eax+4]
  0009b	56		 push	 esi
  0009c	e8 00 00 00 00	 call	 ??$_Erase_tree@V?$allocator@U?$_Tree_node@U?$pair@$$CBKPAUSTextTail@CPythonTextTail@@@std@@PAX@std@@@std@@@?$_Tree_val@U?$_Tree_simple_types@U?$pair@$$CBKPAUSTextTail@CPythonTextTail@@@std@@@std@@@std@@QAEXAAV?$allocator@U?$_Tree_node@U?$pair@$$CBKPAUSTextTail@CPythonTextTail@@@std@@PAX@std@@@1@PAU?$_Tree_node@U?$pair@$$CBKPAUSTextTail@CPythonTextTail@@@std@@PAX@1@@Z ; std::_Tree_val<std::_Tree_simple_types<std::pair<unsigned long const ,CPythonTextTail::STextTail *> > >::_Erase_tree<std::allocator<std::_Tree_node<std::pair<unsigned long const ,CPythonTextTail::STextTail *>,void *> > >
; File C:\Program Files\Microsoft Visual Studio\2022\Community\VC\Tools\MSVC\14.44.35207\include\xmemory

; 289  :         ::operator delete(_Ptr, _Bytes);

  000a1	6a 18		 push	 24			; 00000018H
  000a3	ff 36		 push	 DWORD PTR [esi]
  000a5	e8 00 00 00 00	 call	 ??3@YAXPAXI@Z		; operator delete
; File C:\Program Files\Microsoft Visual Studio\2022\Community\VC\Tools\MSVC\14.44.35207\include\xtree

; 777  :         _Erase_tree(_Al, _Myhead->_Parent);

  000aa	8b 47 0c	 mov	 eax, DWORD PTR [edi+12]
; File D:\_m2work\Server Client TMP4\ClientVS22\source\UserInterface\PythonTextTail.cpp

; 1029 : }

  000ad	8d 77 0c	 lea	 esi, DWORD PTR [edi+12]
; File C:\Program Files\Microsoft Visual Studio\2022\Community\VC\Tools\MSVC\14.44.35207\include\xmemory

; 289  :         ::operator delete(_Ptr, _Bytes);

  000b0	83 c4 08	 add	 esp, 8
; File C:\Program Files\Microsoft Visual Studio\2022\Community\VC\Tools\MSVC\14.44.35207\include\xtree

; 777  :         _Erase_tree(_Al, _Myhead->_Parent);

  000b3	8b ce		 mov	 ecx, esi
  000b5	ff 70 04	 push	 DWORD PTR [eax+4]
  000b8	56		 push	 esi
  000b9	e8 00 00 00 00	 call	 ??$_Erase_tree@V?$allocator@U?$_Tree_node@U?$pair@$$CBKPAUSTextTail@CPythonTextTail@@@std@@PAX@std@@@std@@@?$_Tree_val@U?$_Tree_simple_types@U?$pair@$$CBKPAUSTextTail@CPythonTextTail@@@std@@@std@@@std@@QAEXAAV?$allocator@U?$_Tree_node@U?$pair@$$CBKPAUSTextTail@CPythonTextTail@@@std@@PAX@std@@@1@PAU?$_Tree_node@U?$pair@$$CBKPAUSTextTail@CPythonTextTail@@@std@@PAX@1@@Z ; std::_Tree_val<std::_Tree_simple_types<std::pair<unsigned long const ,CPythonTextTail::STextTail *> > >::_Erase_tree<std::allocator<std::_Tree_node<std::pair<unsigned long const ,CPythonTextTail::STextTail *>,void *> > >
; File C:\Program Files\Microsoft Visual Studio\2022\Community\VC\Tools\MSVC\14.44.35207\include\xmemory

; 289  :         ::operator delete(_Ptr, _Bytes);

  000be	6a 18		 push	 24			; 00000018H
  000c0	ff 36		 push	 DWORD PTR [esi]
  000c2	e8 00 00 00 00	 call	 ??3@YAXPAXI@Z		; operator delete
; File C:\Program Files\Microsoft Visual Studio\2022\Community\VC\Tools\MSVC\14.44.35207\include\xtree

; 777  :         _Erase_tree(_Al, _Myhead->_Parent);

  000c7	8b 47 04	 mov	 eax, DWORD PTR [edi+4]
; File D:\_m2work\Server Client TMP4\ClientVS22\source\UserInterface\PythonTextTail.cpp

; 1029 : }

  000ca	8d 77 04	 lea	 esi, DWORD PTR [edi+4]
; File C:\Program Files\Microsoft Visual Studio\2022\Community\VC\Tools\MSVC\14.44.35207\include\xmemory

; 289  :         ::operator delete(_Ptr, _Bytes);

  000cd	83 c4 08	 add	 esp, 8
; File C:\Program Files\Microsoft Visual Studio\2022\Community\VC\Tools\MSVC\14.44.35207\include\xtree

; 777  :         _Erase_tree(_Al, _Myhead->_Parent);

  000d0	8b ce		 mov	 ecx, esi
  000d2	ff 70 04	 push	 DWORD PTR [eax+4]
  000d5	56		 push	 esi
  000d6	e8 00 00 00 00	 call	 ??$_Erase_tree@V?$allocator@U?$_Tree_node@U?$pair@$$CBKPAUSTextTail@CPythonTextTail@@@std@@PAX@std@@@std@@@?$_Tree_val@U?$_Tree_simple_types@U?$pair@$$CBKPAUSTextTail@CPythonTextTail@@@std@@@std@@@std@@QAEXAAV?$allocator@U?$_Tree_node@U?$pair@$$CBKPAUSTextTail@CPythonTextTail@@@std@@PAX@std@@@1@PAU?$_Tree_node@U?$pair@$$CBKPAUSTextTail@CPythonTextTail@@@std@@PAX@1@@Z ; std::_Tree_val<std::_Tree_simple_types<std::pair<unsigned long const ,CPythonTextTail::STextTail *> > >::_Erase_tree<std::allocator<std::_Tree_node<std::pair<unsigned long const ,CPythonTextTail::STextTail *>,void *> > >
; File C:\Program Files\Microsoft Visual Studio\2022\Community\VC\Tools\MSVC\14.44.35207\include\xmemory

; 289  :         ::operator delete(_Ptr, _Bytes);

  000db	6a 18		 push	 24			; 00000018H
  000dd	ff 36		 push	 DWORD PTR [esi]
  000df	e8 00 00 00 00	 call	 ??3@YAXPAXI@Z		; operator delete
  000e4	83 c4 08	 add	 esp, 8
; File D:\_m2work\Server Client TMP4\ClientVS22\source\eterBase\Singleton.h

; 19   : 	{ 

  000e7	c7 07 00 00 00
	00		 mov	 DWORD PTR [edi], OFFSET ??_7?$CSingleton@VCPythonTextTail@@@@6B@

; 20   : 		assert(ms_singleton);
; 21   : 		ms_singleton = 0; 

  000ed	c7 05 00 00 00
	00 00 00 00 00	 mov	 DWORD PTR ?ms_singleton@?$CSingleton@VCPythonTextTail@@@@0PAVCPythonTextTail@@A, 0 ; CSingleton<CPythonTextTail>::ms_singleton
  000f7	5f		 pop	 edi
  000f8	5e		 pop	 esi
; File D:\_m2work\Server Client TMP4\ClientVS22\source\UserInterface\PythonTextTail.cpp

; 1029 : }

  000f9	c3		 ret	 0
??1CPythonTextTail@@UAE@XZ ENDP				; CPythonTextTail::~CPythonTextTail
_TEXT	ENDS
; Function compile flags: /Ogtp
; File D:\_m2work\Server Client TMP4\ClientVS22\source\UserInterface\PythonTextTail.cpp
; File D:\_m2work\Server Client TMP4\ClientVS22\source\eterBase\Singleton.h
; File D:\_m2work\Server Client TMP4\ClientVS22\source\UserInterface\PythonTextTail.cpp
; File C:\Program Files\Microsoft Visual Studio\2022\Community\VC\Tools\MSVC\14.44.35207\include\xmemory
; File D:\_m2work\Server Client TMP4\ClientVS22\source\UserInterface\PythonTextTail.cpp
; File C:\Program Files\Microsoft Visual Studio\2022\Community\VC\Tools\MSVC\14.44.35207\include\xtree
; File C:\Program Files\Microsoft Visual Studio\2022\Community\VC\Tools\MSVC\14.44.35207\include\xmemory
; File C:\Program Files\Microsoft Visual Studio\2022\Community\VC\Tools\MSVC\14.44.35207\include\xtree
; File D:\_m2work\Server Client TMP4\ClientVS22\source\UserInterface\PythonTextTail.cpp
; File C:\Program Files\Microsoft Visual Studio\2022\Community\VC\Tools\MSVC\14.44.35207\include\xmemory
; File D:\_m2work\Server Client TMP4\ClientVS22\source\UserInterface\PythonTextTail.cpp
; File C:\Program Files\Microsoft Visual Studio\2022\Community\VC\Tools\MSVC\14.44.35207\include\xtree
; File C:\Program Files\Microsoft Visual Studio\2022\Community\VC\Tools\MSVC\14.44.35207\include\xmemory
; File C:\Program Files\Microsoft Visual Studio\2022\Community\VC\Tools\MSVC\14.44.35207\include\xtree
; File D:\_m2work\Server Client TMP4\ClientVS22\source\UserInterface\PythonTextTail.cpp
; File C:\Program Files\Microsoft Visual Studio\2022\Community\VC\Tools\MSVC\14.44.35207\include\xmemory
; File D:\_m2work\Server Client TMP4\ClientVS22\source\UserInterface\PythonTextTail.cpp
; File C:\Program Files\Microsoft Visual Studio\2022\Community\VC\Tools\MSVC\14.44.35207\include\xtree
; File C:\Program Files\Microsoft Visual Studio\2022\Community\VC\Tools\MSVC\14.44.35207\include\xmemory
; File C:\Program Files\Microsoft Visual Studio\2022\Community\VC\Tools\MSVC\14.44.35207\include\xtree
; File D:\_m2work\Server Client TMP4\ClientVS22\source\UserInterface\PythonTextTail.cpp
; File C:\Program Files\Microsoft Visual Studio\2022\Community\VC\Tools\MSVC\14.44.35207\include\xmemory
; File C:\Program Files\Microsoft Visual Studio\2022\Community\VC\Tools\MSVC\14.44.35207\include\list
; File C:\Program Files\Microsoft Visual Studio\2022\Community\VC\Tools\MSVC\14.44.35207\include\xmemory
; File C:\Program Files\Microsoft Visual Studio\2022\Community\VC\Tools\MSVC\14.44.35207\include\list
; File D:\_m2work\Server Client TMP4\ClientVS22\source\UserInterface\PythonTextTail.cpp
; File C:\Program Files\Microsoft Visual Studio\2022\Community\VC\Tools\MSVC\14.44.35207\include\xmemory
; File C:\Program Files\Microsoft Visual Studio\2022\Community\VC\Tools\MSVC\14.44.35207\include\list
; File C:\Program Files\Microsoft Visual Studio\2022\Community\VC\Tools\MSVC\14.44.35207\include\xmemory
; File D:\_m2work\Server Client TMP4\ClientVS22\source\UserInterface\PythonTextTail.cpp
; File C:\Program Files\Microsoft Visual Studio\2022\Community\VC\Tools\MSVC\14.44.35207\include\list
; File D:\_m2work\Server Client TMP4\ClientVS22\source\eterLib\Pool.h
; File C:\Program Files\Microsoft Visual Studio\2022\Community\VC\Tools\MSVC\14.44.35207\include\vector
; File D:\_m2work\Server Client TMP4\ClientVS22\source\eterLib\Pool.h
; File D:\_m2work\Server Client TMP4\ClientVS22\source\UserInterface\PythonTextTail.cpp
;	COMDAT ??0CPythonTextTail@@QAE@XZ
_TEXT	SEGMENT
_this$ = -20						; size = 4
_this$ = -20						; size = 4
_this$ = -20						; size = 4
_this$ = -16						; size = 4
__$EHRec$ = -12						; size = 12
??0CPythonTextTail@@QAE@XZ PROC				; CPythonTextTail::CPythonTextTail, COMDAT
; _this$ = ecx

; 1022 : {

  00000	55		 push	 ebp
  00001	8b ec		 mov	 ebp, esp
  00003	6a ff		 push	 -1
  00005	68 00 00 00 00	 push	 __ehhandler$??0CPythonTextTail@@QAE@XZ
  0000a	64 a1 00 00 00
	00		 mov	 eax, DWORD PTR fs:0
  00010	50		 push	 eax
  00011	83 ec 08	 sub	 esp, 8
  00014	56		 push	 esi
  00015	57		 push	 edi
  00016	a1 00 00 00 00	 mov	 eax, DWORD PTR ___security_cookie
  0001b	33 c5		 xor	 eax, ebp
  0001d	50		 push	 eax
  0001e	8d 45 f4	 lea	 eax, DWORD PTR __$EHRec$[ebp]
  00021	64 a3 00 00 00
	00		 mov	 DWORD PTR fs:0, eax
  00027	8b f9		 mov	 edi, ecx
  00029	89 7d f0	 mov	 DWORD PTR _this$[ebp], edi
; File D:\_m2work\Server Client TMP4\ClientVS22\source\eterBase\Singleton.h

; 15   : 		ms_singleton = (T*) ((int) this + offset);

  0002c	89 3d 00 00 00
	00		 mov	 DWORD PTR ?ms_singleton@?$CSingleton@VCPythonTextTail@@@@0PAVCPythonTextTail@@A, edi ; CSingleton<CPythonTextTail>::ms_singleton
; File D:\_m2work\Server Client TMP4\ClientVS22\source\UserInterface\PythonTextTail.cpp

; 1022 : {

  00032	c7 45 fc 00 00
	00 00		 mov	 DWORD PTR __$EHRec$[ebp+8], 0
  00039	8d 77 04	 lea	 esi, DWORD PTR [edi+4]
  0003c	c7 07 00 00 00
	00		 mov	 DWORD PTR [edi], OFFSET ??_7CPythonTextTail@@6B@
; File C:\Program Files\Microsoft Visual Studio\2022\Community\VC\Tools\MSVC\14.44.35207\include\xmemory

; 136  :         return ::operator new(_Bytes);

  00042	6a 18		 push	 24			; 00000018H
; File D:\_m2work\Server Client TMP4\ClientVS22\source\UserInterface\PythonTextTail.cpp

; 1022 : {

  00044	89 75 ec	 mov	 DWORD PTR _this$[ebp], esi
; File C:\Program Files\Microsoft Visual Studio\2022\Community\VC\Tools\MSVC\14.44.35207\include\xtree

; 450  :     _Tree_val() noexcept : _Myhead(), _Mysize(0) {}

  00047	c7 06 00 00 00
	00		 mov	 DWORD PTR [esi], 0
  0004d	c7 46 04 00 00
	00 00		 mov	 DWORD PTR [esi+4], 0
; File C:\Program Files\Microsoft Visual Studio\2022\Community\VC\Tools\MSVC\14.44.35207\include\xmemory

; 136  :         return ::operator new(_Bytes);

  00054	e8 00 00 00 00	 call	 ??2@YAPAXI@Z		; operator new
; File C:\Program Files\Microsoft Visual Studio\2022\Community\VC\Tools\MSVC\14.44.35207\include\xtree

; 346  :         _Construct_in_place(_Pnode->_Left, _Pnode);

  00059	89 00		 mov	 DWORD PTR [eax], eax

; 347  :         _Construct_in_place(_Pnode->_Parent, _Pnode);

  0005b	89 40 04	 mov	 DWORD PTR [eax+4], eax

; 348  :         _Construct_in_place(_Pnode->_Right, _Pnode);

  0005e	89 40 08	 mov	 DWORD PTR [eax+8], eax

; 349  :         _Pnode->_Color = _Black;

  00061	66 c7 40 0c 01
	01		 mov	 WORD PTR [eax+12], 257	; 00000101H

; 1957 :         _Scary->_Myhead = _Node::_Buyheadnode(_Getal());

  00067	89 06		 mov	 DWORD PTR [esi], eax
; File D:\_m2work\Server Client TMP4\ClientVS22\source\UserInterface\PythonTextTail.cpp

; 1022 : {

  00069	8d 77 0c	 lea	 esi, DWORD PTR [edi+12]
  0006c	c6 45 fc 01	 mov	 BYTE PTR __$EHRec$[ebp+8], 1
; File C:\Program Files\Microsoft Visual Studio\2022\Community\VC\Tools\MSVC\14.44.35207\include\xmemory

; 136  :         return ::operator new(_Bytes);

  00070	6a 18		 push	 24			; 00000018H
; File D:\_m2work\Server Client TMP4\ClientVS22\source\UserInterface\PythonTextTail.cpp

; 1022 : {

  00072	89 75 ec	 mov	 DWORD PTR _this$[ebp], esi
; File C:\Program Files\Microsoft Visual Studio\2022\Community\VC\Tools\MSVC\14.44.35207\include\xtree

; 450  :     _Tree_val() noexcept : _Myhead(), _Mysize(0) {}

  00075	c7 06 00 00 00
	00		 mov	 DWORD PTR [esi], 0
  0007b	c7 46 04 00 00
	00 00		 mov	 DWORD PTR [esi+4], 0
; File C:\Program Files\Microsoft Visual Studio\2022\Community\VC\Tools\MSVC\14.44.35207\include\xmemory

; 136  :         return ::operator new(_Bytes);

  00082	e8 00 00 00 00	 call	 ??2@YAPAXI@Z		; operator new
; File C:\Program Files\Microsoft Visual Studio\2022\Community\VC\Tools\MSVC\14.44.35207\include\xtree

; 346  :         _Construct_in_place(_Pnode->_Left, _Pnode);

  00087	89 00		 mov	 DWORD PTR [eax], eax

; 347  :         _Construct_in_place(_Pnode->_Parent, _Pnode);

  00089	89 40 04	 mov	 DWORD PTR [eax+4], eax

; 348  :         _Construct_in_place(_Pnode->_Right, _Pnode);

  0008c	89 40 08	 mov	 DWORD PTR [eax+8], eax

; 349  :         _Pnode->_Color = _Black;

  0008f	66 c7 40 0c 01
	01		 mov	 WORD PTR [eax+12], 257	; 00000101H

; 1957 :         _Scary->_Myhead = _Node::_Buyheadnode(_Getal());

  00095	89 06		 mov	 DWORD PTR [esi], eax
; File D:\_m2work\Server Client TMP4\ClientVS22\source\UserInterface\PythonTextTail.cpp

; 1022 : {

  00097	8d 77 14	 lea	 esi, DWORD PTR [edi+20]
  0009a	c6 45 fc 02	 mov	 BYTE PTR __$EHRec$[ebp+8], 2
; File C:\Program Files\Microsoft Visual Studio\2022\Community\VC\Tools\MSVC\14.44.35207\include\xmemory

; 136  :         return ::operator new(_Bytes);

  0009e	6a 18		 push	 24			; 00000018H
; File D:\_m2work\Server Client TMP4\ClientVS22\source\UserInterface\PythonTextTail.cpp

; 1022 : {

  000a0	89 75 ec	 mov	 DWORD PTR _this$[ebp], esi
; File C:\Program Files\Microsoft Visual Studio\2022\Community\VC\Tools\MSVC\14.44.35207\include\xtree

; 450  :     _Tree_val() noexcept : _Myhead(), _Mysize(0) {}

  000a3	c7 06 00 00 00
	00		 mov	 DWORD PTR [esi], 0
  000a9	c7 46 04 00 00
	00 00		 mov	 DWORD PTR [esi+4], 0
; File C:\Program Files\Microsoft Visual Studio\2022\Community\VC\Tools\MSVC\14.44.35207\include\xmemory

; 136  :         return ::operator new(_Bytes);

  000b0	e8 00 00 00 00	 call	 ??2@YAPAXI@Z		; operator new
; File C:\Program Files\Microsoft Visual Studio\2022\Community\VC\Tools\MSVC\14.44.35207\include\xtree

; 346  :         _Construct_in_place(_Pnode->_Left, _Pnode);

  000b5	89 00		 mov	 DWORD PTR [eax], eax

; 347  :         _Construct_in_place(_Pnode->_Parent, _Pnode);

  000b7	89 40 04	 mov	 DWORD PTR [eax+4], eax

; 348  :         _Construct_in_place(_Pnode->_Right, _Pnode);

  000ba	89 40 08	 mov	 DWORD PTR [eax+8], eax

; 349  :         _Pnode->_Color = _Black;

  000bd	66 c7 40 0c 01
	01		 mov	 WORD PTR [eax+12], 257	; 00000101H

; 1957 :         _Scary->_Myhead = _Node::_Buyheadnode(_Getal());

  000c3	89 06		 mov	 DWORD PTR [esi], eax
; File D:\_m2work\Server Client TMP4\ClientVS22\source\UserInterface\PythonTextTail.cpp

; 1022 : {

  000c5	c6 45 fc 03	 mov	 BYTE PTR __$EHRec$[ebp+8], 3
; File C:\Program Files\Microsoft Visual Studio\2022\Community\VC\Tools\MSVC\14.44.35207\include\xmemory

; 136  :         return ::operator new(_Bytes);

  000c9	6a 0c		 push	 12			; 0000000cH
; File C:\Program Files\Microsoft Visual Studio\2022\Community\VC\Tools\MSVC\14.44.35207\include\list

; 353  :     _List_val() noexcept : _Myhead(), _Mysize(0) {} // initialize data

  000cb	c7 47 1c 00 00
	00 00		 mov	 DWORD PTR [edi+28], 0
  000d2	c7 47 20 00 00
	00 00		 mov	 DWORD PTR [edi+32], 0
; File C:\Program Files\Microsoft Visual Studio\2022\Community\VC\Tools\MSVC\14.44.35207\include\xmemory

; 136  :         return ::operator new(_Bytes);

  000d9	e8 00 00 00 00	 call	 ??2@YAPAXI@Z		; operator new
; File C:\Program Files\Microsoft Visual Studio\2022\Community\VC\Tools\MSVC\14.44.35207\include\list

; 1852 :         _Construct_in_place(_Newhead->_Next, _Newhead);

  000de	89 00		 mov	 DWORD PTR [eax], eax

; 1853 :         _Construct_in_place(_Newhead->_Prev, _Newhead);

  000e0	89 40 04	 mov	 DWORD PTR [eax+4], eax

; 1854 :         _Mypair._Myval2._Myhead = _Newhead;

  000e3	89 47 1c	 mov	 DWORD PTR [edi+28], eax
; File D:\_m2work\Server Client TMP4\ClientVS22\source\UserInterface\PythonTextTail.cpp

; 1022 : {

  000e6	c6 45 fc 04	 mov	 BYTE PTR __$EHRec$[ebp+8], 4
; File C:\Program Files\Microsoft Visual Studio\2022\Community\VC\Tools\MSVC\14.44.35207\include\xmemory

; 136  :         return ::operator new(_Bytes);

  000ea	6a 0c		 push	 12			; 0000000cH
; File C:\Program Files\Microsoft Visual Studio\2022\Community\VC\Tools\MSVC\14.44.35207\include\list

; 353  :     _List_val() noexcept : _Myhead(), _Mysize(0) {} // initialize data

  000ec	c7 47 24 00 00
	00 00		 mov	 DWORD PTR [edi+36], 0
  000f3	c7 47 28 00 00
	00 00		 mov	 DWORD PTR [edi+40], 0
; File C:\Program Files\Microsoft Visual Studio\2022\Community\VC\Tools\MSVC\14.44.35207\include\xmemory

; 136  :         return ::operator new(_Bytes);

  000fa	e8 00 00 00 00	 call	 ??2@YAPAXI@Z		; operator new
  000ff	83 c4 14	 add	 esp, 20			; 00000014H
; File D:\_m2work\Server Client TMP4\ClientVS22\source\UserInterface\PythonTextTail.cpp

; 1023 : 	Clear();

  00102	8b cf		 mov	 ecx, edi
; File C:\Program Files\Microsoft Visual Studio\2022\Community\VC\Tools\MSVC\14.44.35207\include\list

; 1852 :         _Construct_in_place(_Newhead->_Next, _Newhead);

  00104	89 00		 mov	 DWORD PTR [eax], eax

; 1853 :         _Construct_in_place(_Newhead->_Prev, _Newhead);

  00106	89 40 04	 mov	 DWORD PTR [eax+4], eax

; 1854 :         _Mypair._Myval2._Myhead = _Newhead;

  00109	89 47 24	 mov	 DWORD PTR [edi+36], eax
; File D:\_m2work\Server Client TMP4\ClientVS22\source\eterLib\Pool.h

; 12   : 		{

  0010c	c7 47 2c 00 00
	00 00		 mov	 DWORD PTR [edi+44], OFFSET ??_7?$CDynamicPool@USTextTail@CPythonTextTail@@@@6B@
; File C:\Program Files\Microsoft Visual Studio\2022\Community\VC\Tools\MSVC\14.44.35207\include\vector

; 400  :     _CONSTEXPR20 _Vector_val() noexcept : _Myfirst(), _Mylast(), _Myend() {}

  00113	c7 47 30 00 00
	00 00		 mov	 DWORD PTR [edi+48], 0
  0011a	c7 47 34 00 00
	00 00		 mov	 DWORD PTR [edi+52], 0
  00121	c7 47 38 00 00
	00 00		 mov	 DWORD PTR [edi+56], 0
  00128	c7 47 3c 00 00
	00 00		 mov	 DWORD PTR [edi+60], 0
  0012f	c7 47 40 00 00
	00 00		 mov	 DWORD PTR [edi+64], 0
  00136	c7 47 44 00 00
	00 00		 mov	 DWORD PTR [edi+68], 0
; File D:\_m2work\Server Client TMP4\ClientVS22\source\eterLib\Pool.h

; 14   : 			m_uInitCapacity=0;

  0013d	c7 47 48 00 00
	00 00		 mov	 DWORD PTR [edi+72], 0

; 15   : 			m_uUsedCapacity=0;

  00144	c7 47 4c 00 00
	00 00		 mov	 DWORD PTR [edi+76], 0
; File D:\_m2work\Server Client TMP4\ClientVS22\source\UserInterface\PythonTextTail.cpp

; 1023 : 	Clear();

  0014b	e8 00 00 00 00	 call	 ?Clear@CPythonTextTail@@QAEXXZ ; CPythonTextTail::Clear

; 1024 : }

  00150	8b c7		 mov	 eax, edi
  00152	8b 4d f4	 mov	 ecx, DWORD PTR __$EHRec$[ebp]
  00155	64 89 0d 00 00
	00 00		 mov	 DWORD PTR fs:0, ecx
  0015c	59		 pop	 ecx
  0015d	5f		 pop	 edi
  0015e	5e		 pop	 esi
  0015f	8b e5		 mov	 esp, ebp
  00161	5d		 pop	 ebp
  00162	c3		 ret	 0
_TEXT	ENDS
;	COMDAT text$x
text$x	SEGMENT
__unwindfunclet$??0CPythonTextTail@@QAE@XZ$0:
  00000	8b 4d f0	 mov	 ecx, DWORD PTR _this$[ebp]
  00003	e9 00 00 00 00	 jmp	 ??1?$CSingleton@VCPythonTextTail@@@@UAE@XZ ; CSingleton<CPythonTextTail>::~CSingleton<CPythonTextTail>
__unwindfunclet$??0CPythonTextTail@@QAE@XZ$1:
  00008	8b 4d f0	 mov	 ecx, DWORD PTR _this$[ebp]
  0000b	83 c1 04	 add	 ecx, 4
  0000e	e9 00 00 00 00	 jmp	 ??1?$map@KPAUSTextTail@CPythonTextTail@@U?$less@K@std@@V?$allocator@U?$pair@$$CBKPAUSTextTail@CPythonTextTail@@@std@@@4@@std@@QAE@XZ
__unwindfunclet$??0CPythonTextTail@@QAE@XZ$2:
  00013	8b 4d f0	 mov	 ecx, DWORD PTR _this$[ebp]
  00016	83 c1 0c	 add	 ecx, 12			; 0000000cH
  00019	e9 00 00 00 00	 jmp	 ??1?$map@KPAUSTextTail@CPythonTextTail@@U?$less@K@std@@V?$allocator@U?$pair@$$CBKPAUSTextTail@CPythonTextTail@@@std@@@4@@std@@QAE@XZ
__unwindfunclet$??0CPythonTextTail@@QAE@XZ$3:
  0001e	8b 4d f0	 mov	 ecx, DWORD PTR _this$[ebp]
  00021	83 c1 14	 add	 ecx, 20			; 00000014H
  00024	e9 00 00 00 00	 jmp	 ??1?$map@KPAUSTextTail@CPythonTextTail@@U?$less@K@std@@V?$allocator@U?$pair@$$CBKPAUSTextTail@CPythonTextTail@@@std@@@4@@std@@QAE@XZ
__unwindfunclet$??0CPythonTextTail@@QAE@XZ$4:
  00029	8b 4d f0	 mov	 ecx, DWORD PTR _this$[ebp]
  0002c	83 c1 1c	 add	 ecx, 28			; 0000001cH
  0002f	e9 00 00 00 00	 jmp	 ??1?$list@PAUSTextTail@CPythonTextTail@@V?$allocator@PAUSTextTail@CPythonTextTail@@@std@@@std@@QAE@XZ ; std::list<CPythonTextTail::STextTail *,std::allocator<CPythonTextTail::STextTail *> >::~list<CPythonTextTail::STextTail *,std::allocator<CPythonTextTail::STextTail *> >
  00034	cc		 int	 3
  00035	cc		 int	 3
  00036	cc		 int	 3
  00037	cc		 int	 3
  00038	cc		 int	 3
__ehhandler$??0CPythonTextTail@@QAE@XZ:
  00039	90		 npad	 1
  0003a	90		 npad	 1
  0003b	8b 54 24 08	 mov	 edx, DWORD PTR [esp+8]
  0003f	8d 42 0c	 lea	 eax, DWORD PTR [edx+12]
  00042	8b 4a ec	 mov	 ecx, DWORD PTR [edx-20]
  00045	33 c8		 xor	 ecx, eax
  00047	e8 00 00 00 00	 call	 @__security_check_cookie@4
  0004c	b8 00 00 00 00	 mov	 eax, OFFSET __ehfuncinfo$??0CPythonTextTail@@QAE@XZ
  00051	e9 00 00 00 00	 jmp	 ___CxxFrameHandler3
text$x	ENDS
??0CPythonTextTail@@QAE@XZ ENDP				; CPythonTextTail::CPythonTextTail
; Function compile flags: /Ogtp
; File D:\_m2work\Server Client TMP4\ClientVS22\source\UserInterface\PythonTextTail.cpp
;	COMDAT ?TextTail_SetLivingTime@@YAXJ@Z
_TEXT	SEGMENT
?TextTail_SetLivingTime@@YAXJ@Z PROC			; TextTail_SetLivingTime, COMDAT
; _livingTime$ = ecx

; 36   : 	gs_TextTail_LivingTime = livingTime;

  00000	89 0d 00 00 00
	00		 mov	 DWORD PTR ?gs_TextTail_LivingTime@@3JA, ecx ; gs_TextTail_LivingTime

; 37   : }

  00006	c3		 ret	 0
?TextTail_SetLivingTime@@YAXJ@Z ENDP			; TextTail_SetLivingTime
_TEXT	ENDS
; Function compile flags: /Ogtp
; File D:\_m2work\Server Client TMP4\ClientVS22\source\UserInterface\PythonTextTail.cpp
; File C:\Program Files\Microsoft Visual Studio\2022\Community\VC\Tools\MSVC\14.44.35207\include\xtree
; File D:\_m2work\Server Client TMP4\ClientVS22\source\UserInterface\PythonTextTail.cpp
; File C:\Program Files\Microsoft Visual Studio\2022\Community\VC\Tools\MSVC\14.44.35207\include\xtree
; File D:\_m2work\Server Client TMP4\ClientVS22\source\UserInterface\PythonTextTail.cpp
; File C:\Program Files\Microsoft Visual Studio\2022\Community\VC\Tools\MSVC\14.44.35207\include\xtree
; File D:\_m2work\Server Client TMP4\ClientVS22\source\UserInterface\PythonTextTail.cpp
;	COMDAT ?Pick@CPythonTextTail@@QAEHHH@Z
_TEXT	SEGMENT
_this$1$ = -8						; size = 4
_itor$1 = -4						; size = 4
_ixMouse$ = 8						; size = 4
_iyMouse$ = 12						; size = 4
?Pick@CPythonTextTail@@QAEHHH@Z PROC			; CPythonTextTail::Pick, COMDAT
; _this$ = ecx

; 863  : {

  00000	55		 push	 ebp
  00001	8b ec		 mov	 ebp, esp
  00003	83 ec 08	 sub	 esp, 8
  00006	53		 push	 ebx
  00007	56		 push	 esi
  00008	57		 push	 edi
; File C:\Program Files\Microsoft Visual Studio\2022\Community\VC\Tools\MSVC\14.44.35207\include\xtree

; 1142 :         return iterator(_Scary->_Myhead->_Left, _Scary);

  00009	8b 79 0c	 mov	 edi, DWORD PTR [ecx+12]
; File D:\_m2work\Server Client TMP4\ClientVS22\source\UserInterface\PythonTextTail.cpp

; 863  : {

  0000c	89 4d f8	 mov	 DWORD PTR _this$1$[ebp], ecx
; File C:\Program Files\Microsoft Visual Studio\2022\Community\VC\Tools\MSVC\14.44.35207\include\xtree

; 37   :     _Tree_unchecked_const_iterator(_Nodeptr _Pnode, const _Mytree* _Plist) noexcept : _Ptr(_Pnode) {

  0000f	8b 37		 mov	 esi, DWORD PTR [edi]
  00011	89 75 fc	 mov	 DWORD PTR _itor$1[ebp], esi
  00014	3b f7		 cmp	 esi, edi
; File D:\_m2work\Server Client TMP4\ClientVS22\source\UserInterface\PythonTextTail.cpp

; 864  : 	for (TTextTailMap::iterator itor = m_ItemTextTailMap.begin(); itor != m_ItemTextTailMap.end(); ++itor)

  00016	74 5c		 je	 SHORT $LN70@Pick
  00018	66 0f 6e 5d 08	 movd	 xmm3, DWORD PTR _ixMouse$[ebp]
  0001d	8b 5d 0c	 mov	 ebx, DWORD PTR _iyMouse$[ebp]
  00020	0f 5b db	 cvtdq2ps xmm3, xmm3
$LL4@Pick:

; 865  : 	{
; 866  : 		TTextTail * pTextTail = itor->second;

  00023	8b 46 14	 mov	 eax, DWORD PTR [esi+20]

; 867  : 
; 868  : 		if (ixMouse >= pTextTail->x + pTextTail->xStart && ixMouse <= pTextTail->x + pTextTail->xEnd &&
; 869  : 			iyMouse >= pTextTail->y + pTextTail->yStart && iyMouse <= pTextTail->y + pTextTail->yEnd)

  00026	f3 0f 10 48 24	 movss	 xmm1, DWORD PTR [eax+36]
  0002b	0f 28 c1	 movaps	 xmm0, xmm1
  0002e	f3 0f 58 40 48	 addss	 xmm0, DWORD PTR [eax+72]
  00033	0f 2f d8	 comiss	 xmm3, xmm0
  00036	72 2d		 jb	 SHORT $LN2@Pick
  00038	f3 0f 58 48 50	 addss	 xmm1, DWORD PTR [eax+80]
  0003d	0f 2f cb	 comiss	 xmm1, xmm3
  00040	72 23		 jb	 SHORT $LN2@Pick
  00042	f3 0f 10 48 28	 movss	 xmm1, DWORD PTR [eax+40]
  00047	66 0f 6e d3	 movd	 xmm2, ebx
  0004b	0f 28 c1	 movaps	 xmm0, xmm1
  0004e	f3 0f 58 40 4c	 addss	 xmm0, DWORD PTR [eax+76]
  00053	0f 5b d2	 cvtdq2ps xmm2, xmm2
  00056	0f 2f d0	 comiss	 xmm2, xmm0
  00059	72 0a		 jb	 SHORT $LN2@Pick
  0005b	f3 0f 58 48 54	 addss	 xmm1, DWORD PTR [eax+84]
  00060	0f 2f ca	 comiss	 xmm1, xmm2
  00063	73 1b		 jae	 SHORT $LN68@Pick
$LN2@Pick:
; File C:\Program Files\Microsoft Visual Studio\2022\Community\VC\Tools\MSVC\14.44.35207\include\xtree

; 198  :         _Mybase::operator++();

  00065	8d 4d fc	 lea	 ecx, DWORD PTR _itor$1[ebp]
  00068	e8 00 00 00 00	 call	 ??E?$_Tree_unchecked_const_iterator@V?$_Tree_val@U?$_Tree_simple_types@U?$pair@$$CBKPAUSTextTail@CPythonTextTail@@@std@@@std@@@std@@U_Iterator_base0@2@@std@@QAEAAV01@XZ ; std::_Tree_unchecked_const_iterator<std::_Tree_val<std::_Tree_simple_types<std::pair<unsigned long const ,CPythonTextTail::STextTail *> > >,std::_Iterator_base0>::operator++

; 37   :     _Tree_unchecked_const_iterator(_Nodeptr _Pnode, const _Mytree* _Plist) noexcept : _Ptr(_Pnode) {

  0006d	8b 75 fc	 mov	 esi, DWORD PTR _itor$1[ebp]
  00070	3b f7		 cmp	 esi, edi
; File D:\_m2work\Server Client TMP4\ClientVS22\source\UserInterface\PythonTextTail.cpp

; 864  : 	for (TTextTailMap::iterator itor = m_ItemTextTailMap.begin(); itor != m_ItemTextTailMap.end(); ++itor)

  00072	75 af		 jne	 SHORT $LL4@Pick
$LN70@Pick:
  00074	5f		 pop	 edi

; 873  : 		}
; 874  : 	}
; 875  : 
; 876  : 	return -1;
; 877  : }

  00075	5e		 pop	 esi
  00076	83 c8 ff	 or	 eax, -1
  00079	5b		 pop	 ebx
  0007a	8b e5		 mov	 esp, ebp
  0007c	5d		 pop	 ebp
  0007d	c2 08 00	 ret	 8
$LN68@Pick:

; 870  : 		{
; 871  : 			SelectItemName(itor->first);

  00080	ff 76 10	 push	 DWORD PTR [esi+16]
  00083	8b 4d f8	 mov	 ecx, DWORD PTR _this$1$[ebp]
  00086	e8 00 00 00 00	 call	 ?SelectItemName@CPythonTextTail@@QAEXK@Z ; CPythonTextTail::SelectItemName

; 872  : 			return (itor->first);

  0008b	8b 46 10	 mov	 eax, DWORD PTR [esi+16]
  0008e	5f		 pop	 edi

; 873  : 		}
; 874  : 	}
; 875  : 
; 876  : 	return -1;
; 877  : }

  0008f	5e		 pop	 esi
  00090	5b		 pop	 ebx
  00091	8b e5		 mov	 esp, ebp
  00093	5d		 pop	 ebp
  00094	c2 08 00	 ret	 8
?Pick@CPythonTextTail@@QAEHHH@Z ENDP			; CPythonTextTail::Pick
_TEXT	ENDS
; Function compile flags: /Ogtp
; File D:\_m2work\Server Client TMP4\ClientVS22\source\UserInterface\PythonTextTail.cpp
; File C:\Program Files\Microsoft Visual Studio\2022\Community\VC\Tools\MSVC\14.44.35207\include\xtree
; File C:\Program Files\Microsoft Visual Studio\2022\Community\VC\Tools\MSVC\14.44.35207\include\type_traits
; File C:\Program Files\Microsoft Visual Studio\2022\Community\VC\Tools\MSVC\14.44.35207\include\xtree
; File D:\_m2work\Server Client TMP4\ClientVS22\source\UserInterface\PythonTextTail.cpp
; File C:\Program Files\Microsoft Visual Studio\2022\Community\VC\Tools\MSVC\14.44.35207\include\xtree
; File C:\Program Files\Microsoft Visual Studio\2022\Community\VC\Tools\MSVC\14.44.35207\include\xmemory
; File D:\_m2work\Server Client TMP4\ClientVS22\source\UserInterface\PythonTextTail.cpp
;	COMDAT ?DeleteItemTextTail@CPythonTextTail@@QAEXK@Z
_TEXT	SEGMENT
__Loc$1 = -12						; size = 12
_VirtualID$ = 8						; size = 4
?DeleteItemTextTail@CPythonTextTail@@QAEXK@Z PROC	; CPythonTextTail::DeleteItemTextTail, COMDAT
; _this$ = ecx

; 779  : {

  00000	55		 push	 ebp
  00001	8b ec		 mov	 ebp, esp
  00003	83 ec 0c	 sub	 esp, 12			; 0000000cH
  00006	53		 push	 ebx
  00007	56		 push	 esi
  00008	57		 push	 edi
  00009	8b d9		 mov	 ebx, ecx
; File C:\Program Files\Microsoft Visual Studio\2022\Community\VC\Tools\MSVC\14.44.35207\include\xtree

; 1384 :         const _Tree_find_result<_Nodeptr> _Loc = _Find_lower_bound(_Keyval);

  0000b	8d 45 08	 lea	 eax, DWORD PTR _VirtualID$[ebp]
  0000e	50		 push	 eax
  0000f	8d 45 f4	 lea	 eax, DWORD PTR __Loc$1[ebp]
  00012	50		 push	 eax
  00013	8d 4b 0c	 lea	 ecx, DWORD PTR [ebx+12]
  00016	e8 00 00 00 00	 call	 ??$_Find_lower_bound@K@?$_Tree@V?$_Tmap_traits@KPAUSTextTail@CPythonTextTail@@U?$less@K@std@@V?$allocator@U?$pair@$$CBKPAUSTextTail@CPythonTextTail@@@std@@@4@$0A@@std@@@std@@IBE?AU?$_Tree_find_result@PAU?$_Tree_node@U?$pair@$$CBKPAUSTextTail@CPythonTextTail@@@std@@PAX@std@@@1@ABK@Z ; std::_Tree<std::_Tmap_traits<unsigned long,CPythonTextTail::STextTail *,std::less<unsigned long>,std::allocator<std::pair<unsigned long const ,CPythonTextTail::STextTail *> >,0> >::_Find_lower_bound<unsigned long>

; 1624 :         return !_Bound->_Isnil && !_DEBUG_LT_PRED(_Getcomp(), _Keyval, _Traits::_Kfn(_Bound->_Myval));

  0001b	8b 75 fc	 mov	 esi, DWORD PTR __Loc$1[ebp+8]
  0001e	80 7e 0d 00	 cmp	 BYTE PTR [esi+13], 0
  00022	75 34		 jne	 SHORT $LN115@DeleteItem
; File C:\Program Files\Microsoft Visual Studio\2022\Community\VC\Tools\MSVC\14.44.35207\include\type_traits

; 2380 :         return _Left < _Right;

  00024	8b 45 08	 mov	 eax, DWORD PTR _VirtualID$[ebp]
  00027	3b 46 10	 cmp	 eax, DWORD PTR [esi+16]
; File C:\Program Files\Microsoft Visual Studio\2022\Community\VC\Tools\MSVC\14.44.35207\include\xtree

; 1624 :         return !_Bound->_Isnil && !_DEBUG_LT_PRED(_Getcomp(), _Keyval, _Traits::_Kfn(_Bound->_Myval));

  0002a	72 2c		 jb	 SHORT $LN115@DeleteItem

; 37   :     _Tree_unchecked_const_iterator(_Nodeptr _Pnode, const _Mytree* _Plist) noexcept : _Ptr(_Pnode) {

  0002c	39 73 0c	 cmp	 DWORD PTR [ebx+12], esi
; File D:\_m2work\Server Client TMP4\ClientVS22\source\UserInterface\PythonTextTail.cpp

; 782  : 	if (m_ItemTextTailMap.end() == itor)

  0002f	74 27		 je	 SHORT $LN115@DeleteItem

; 785  : 		return;
; 786  : 	}
; 787  : 
; 788  : 	DeleteTextTail(itor->second);

  00031	ff 76 14	 push	 DWORD PTR [esi+20]
  00034	8b cb		 mov	 ecx, ebx
  00036	e8 00 00 00 00	 call	 ?DeleteTextTail@CPythonTextTail@@IAEXPAUSTextTail@1@@Z ; CPythonTextTail::DeleteTextTail
; File C:\Program Files\Microsoft Visual Studio\2022\Community\VC\Tools\MSVC\14.44.35207\include\xtree

; 1303 :         _Nodeptr _Erasednode = _Scary->_Extract(_Where); // node to erase

  0003b	56		 push	 esi
  0003c	8d 4b 0c	 lea	 ecx, DWORD PTR [ebx+12]
  0003f	e8 00 00 00 00	 call	 ?_Extract@?$_Tree_val@U?$_Tree_simple_types@U?$pair@$$CBKPAUSTextTail@CPythonTextTail@@@std@@@std@@@std@@QAEPAU?$_Tree_node@U?$pair@$$CBKPAUSTextTail@CPythonTextTail@@@std@@PAX@2@V?$_Tree_unchecked_const_iterator@V?$_Tree_val@U?$_Tree_simple_types@U?$pair@$$CBKPAUSTextTail@CPythonTextTail@@@std@@@std@@@std@@U_Iterator_base0@2@@2@@Z ; std::_Tree_val<std::_Tree_simple_types<std::pair<unsigned long const ,CPythonTextTail::STextTail *> > >::_Extract
; File C:\Program Files\Microsoft Visual Studio\2022\Community\VC\Tools\MSVC\14.44.35207\include\xmemory

; 289  :         ::operator delete(_Ptr, _Bytes);

  00044	6a 18		 push	 24			; 00000018H
  00046	50		 push	 eax
  00047	e8 00 00 00 00	 call	 ??3@YAXPAXI@Z		; operator delete
  0004c	83 c4 08	 add	 esp, 8
  0004f	5f		 pop	 edi
; File D:\_m2work\Server Client TMP4\ClientVS22\source\UserInterface\PythonTextTail.cpp

; 790  : }

  00050	5e		 pop	 esi
  00051	5b		 pop	 ebx
  00052	8b e5		 mov	 esp, ebp
  00054	5d		 pop	 ebp
  00055	c2 04 00	 ret	 4
$LN115@DeleteItem:

; 783  : 	{
; 784  : 		Tracef(" CPythonTextTail::DeleteItemTextTail - None Item Text Tail\n");

  00058	68 00 00 00 00	 push	 OFFSET ??_C@_0DM@EALAGA@?5CPythonTextTail?3?3DeleteItemTex@
  0005d	e8 00 00 00 00	 call	 ?Tracef@@YAXPBDZZ	; Tracef
  00062	83 c4 04	 add	 esp, 4
  00065	5f		 pop	 edi

; 790  : }

  00066	5e		 pop	 esi
  00067	5b		 pop	 ebx
  00068	8b e5		 mov	 esp, ebp
  0006a	5d		 pop	 ebp
  0006b	c2 04 00	 ret	 4
?DeleteItemTextTail@CPythonTextTail@@QAEXK@Z ENDP	; CPythonTextTail::DeleteItemTextTail
_TEXT	ENDS
; Function compile flags: /Ogtp
; File D:\_m2work\Server Client TMP4\ClientVS22\source\UserInterface\PythonTextTail.cpp
; File C:\Program Files\Microsoft Visual Studio\2022\Community\VC\Tools\MSVC\14.44.35207\include\xtree
; File D:\_m2work\Server Client TMP4\ClientVS22\source\UserInterface\PythonTextTail.cpp
; File C:\Program Files\Microsoft Visual Studio\2022\Community\VC\Tools\MSVC\14.44.35207\include\xtree
; File D:\_m2work\Server Client TMP4\ClientVS22\source\UserInterface\PythonTextTail.cpp
; File C:\Program Files\Microsoft Visual Studio\2022\Community\VC\Tools\MSVC\14.44.35207\include\xtree
; File C:\Program Files\Microsoft Visual Studio\2022\Community\VC\Tools\MSVC\14.44.35207\include\type_traits
; File C:\Program Files\Microsoft Visual Studio\2022\Community\VC\Tools\MSVC\14.44.35207\include\xtree
; File D:\_m2work\Server Client TMP4\ClientVS22\source\UserInterface\PythonTextTail.cpp
; File C:\Program Files\Microsoft Visual Studio\2022\Community\VC\Tools\MSVC\14.44.35207\include\__msvc_string_view.hpp
; File C:\Program Files\Microsoft Visual Studio\2022\Community\VC\Tools\MSVC\14.44.35207\include\xstring
; File C:\Program Files\Microsoft Visual Studio\2022\Community\VC\Tools\MSVC\14.44.35207\include\__msvc_string_view.hpp
; File C:\Program Files\Microsoft Visual Studio\2022\Community\VC\Tools\MSVC\14.44.35207\include\xstring
; File D:\_m2work\Server Client TMP4\ClientVS22\source\UserInterface\PythonTextTail.cpp
; File C:\Program Files\Microsoft Visual Studio\2022\Community\VC\Tools\MSVC\14.44.35207\include\xstring
; File D:\_m2work\Server Client TMP4\ClientVS22\source\UserInterface\PythonTextTail.cpp
; File C:\Program Files\Microsoft Visual Studio\2022\Community\VC\Tools\MSVC\14.44.35207\include\xstring
; File D:\_m2work\Server Client TMP4\ClientVS22\source\UserInterface\PythonTextTail.cpp
; File C:\Program Files\Microsoft Visual Studio\2022\Community\VC\Tools\MSVC\14.44.35207\include\xstring
; File D:\_m2work\Server Client TMP4\ClientVS22\source\UserInterface\PythonTextTail.cpp
; File C:\Program Files\Microsoft Visual Studio\2022\Community\VC\Tools\MSVC\14.44.35207\include\xstring
; File D:\_m2work\Server Client TMP4\ClientVS22\source\UserInterface\PythonTextTail.cpp
; File C:\Program Files\Microsoft Visual Studio\2022\Community\VC\Tools\MSVC\14.44.35207\include\xstring
; File C:\Program Files\Microsoft Visual Studio\2022\Community\VC\Tools\MSVC\14.44.35207\include\xmemory
; File C:\Program Files\Microsoft Visual Studio\2022\Community\VC\Tools\MSVC\14.44.35207\include\xstring
; File C:\Program Files\Microsoft Visual Studio\2022\Community\VC\Tools\MSVC\14.44.35207\include\xmemory
; File D:\_m2work\Server Client TMP4\ClientVS22\source\UserInterface\PythonTextTail.cpp
; File C:\Program Files\Microsoft Visual Studio\2022\Community\VC\Tools\MSVC\14.44.35207\include\xstring
; File C:\Program Files\Microsoft Visual Studio\2022\Community\VC\Tools\MSVC\14.44.35207\include\__msvc_string_view.hpp
; File C:\Program Files\Microsoft Visual Studio\2022\Community\VC\Tools\MSVC\14.44.35207\include\xstring
; File C:\Program Files\Microsoft Visual Studio\2022\Community\VC\Tools\MSVC\14.44.35207\include\__msvc_string_view.hpp
; File D:\_m2work\Server Client TMP4\ClientVS22\source\UserInterface\PythonTextTail.cpp
; File C:\Program Files\Microsoft Visual Studio\2022\Community\VC\Tools\MSVC\14.44.35207\include\xstring
; File D:\_m2work\Server Client TMP4\ClientVS22\source\UserInterface\PythonTextTail.cpp
; File C:\Program Files\Microsoft Visual Studio\2022\Community\VC\Tools\MSVC\14.44.35207\include\xstring
; File D:\_m2work\Server Client TMP4\ClientVS22\source\UserInterface\PythonTextTail.cpp
; File C:\Program Files\Microsoft Visual Studio\2022\Community\VC\Tools\MSVC\14.44.35207\include\xstring
; File D:\_m2work\Server Client TMP4\ClientVS22\source\UserInterface\PythonTextTail.cpp
; File C:\Program Files\Microsoft Visual Studio\2022\Community\VC\Tools\MSVC\14.44.35207\include\xstring
; File C:\Program Files\Microsoft Visual Studio\2022\Community\VC\Tools\MSVC\14.44.35207\include\xmemory
; File C:\Program Files\Microsoft Visual Studio\2022\Community\VC\Tools\MSVC\14.44.35207\include\xstring
; File C:\Program Files\Microsoft Visual Studio\2022\Community\VC\Tools\MSVC\14.44.35207\include\xmemory
; File D:\_m2work\Server Client TMP4\ClientVS22\source\UserInterface\PythonTextTail.cpp
; File C:\Program Files\Microsoft Visual Studio\2022\Community\VC\Tools\MSVC\14.44.35207\include\xmemory
; File D:\_m2work\Server Client TMP4\ClientVS22\source\UserInterface\PythonTextTail.cpp
;	COMDAT ?SetItemTextTailOwner@CPythonTextTail@@QAEXKPBD@Z
_TEXT	SEGMENT
_yOwnerSize$2 = -108					; size = 4
tv136 = -108						; size = 4
_xOwnerSize$3 = -104					; size = 4
__Scary$1$ = -104					; size = 4
_xSize$4 = -100						; size = 4
$T5 = -100						; size = 4
_ySize$6 = -96						; size = 4
$T7 = -96						; size = 4
$T8 = -92						; size = 24
$T9 = -68						; size = 24
_strName$10 = -44					; size = 24
__Loc$11 = -32						; size = 12
__$ArrayPad$ = -20					; size = 4
__$EHRec$ = -12						; size = 12
_dwVID$ = 8						; size = 4
_c_szName$ = 12						; size = 4
?SetItemTextTailOwner@CPythonTextTail@@QAEXKPBD@Z PROC	; CPythonTextTail::SetItemTextTailOwner, COMDAT
; _this$ = ecx

; 707  : {

  00000	53		 push	 ebx
  00001	8b dc		 mov	 ebx, esp
  00003	83 ec 08	 sub	 esp, 8
  00006	83 e4 f8	 and	 esp, -8			; fffffff8H
  00009	83 c4 04	 add	 esp, 4
  0000c	55		 push	 ebp
  0000d	8b 6b 04	 mov	 ebp, DWORD PTR [ebx+4]
  00010	89 6c 24 04	 mov	 DWORD PTR [esp+4], ebp
  00014	8b ec		 mov	 ebp, esp
  00016	6a ff		 push	 -1
  00018	68 00 00 00 00	 push	 __ehhandler$?SetItemTextTailOwner@CPythonTextTail@@QAEXKPBD@Z
  0001d	64 a1 00 00 00
	00		 mov	 eax, DWORD PTR fs:0
  00023	50		 push	 eax
  00024	53		 push	 ebx
  00025	83 ec 60	 sub	 esp, 96			; 00000060H
  00028	a1 00 00 00 00	 mov	 eax, DWORD PTR ___security_cookie
  0002d	33 c5		 xor	 eax, ebp
  0002f	89 45 ec	 mov	 DWORD PTR __$ArrayPad$[ebp], eax
  00032	56		 push	 esi
  00033	57		 push	 edi
  00034	50		 push	 eax
  00035	8d 45 f4	 lea	 eax, DWORD PTR __$EHRec$[ebp]
  00038	64 a3 00 00 00
	00		 mov	 DWORD PTR fs:0, eax
  0003e	8b 7b 0c	 mov	 edi, DWORD PTR _c_szName$[ebx]

; 708  : 	TTextTailMap::iterator itor = m_ItemTextTailMap.find(dwVID);

  00041	8d 41 0c	 lea	 eax, DWORD PTR [ecx+12]
; File C:\Program Files\Microsoft Visual Studio\2022\Community\VC\Tools\MSVC\14.44.35207\include\xtree

; 1384 :         const _Tree_find_result<_Nodeptr> _Loc = _Find_lower_bound(_Keyval);

  00044	8d 4b 08	 lea	 ecx, DWORD PTR _dwVID$[ebx]
; File D:\_m2work\Server Client TMP4\ClientVS22\source\UserInterface\PythonTextTail.cpp

; 707  : {

  00047	c7 45 9c 00 00
	00 00		 mov	 DWORD PTR $T5[ebp], 0
; File C:\Program Files\Microsoft Visual Studio\2022\Community\VC\Tools\MSVC\14.44.35207\include\xtree

; 1384 :         const _Tree_find_result<_Nodeptr> _Loc = _Find_lower_bound(_Keyval);

  0004e	51		 push	 ecx
  0004f	8d 4d e0	 lea	 ecx, DWORD PTR __Loc$11[ebp]
; File D:\_m2work\Server Client TMP4\ClientVS22\source\UserInterface\PythonTextTail.cpp

; 708  : 	TTextTailMap::iterator itor = m_ItemTextTailMap.find(dwVID);

  00052	89 45 98	 mov	 DWORD PTR __Scary$1$[ebp], eax
; File C:\Program Files\Microsoft Visual Studio\2022\Community\VC\Tools\MSVC\14.44.35207\include\xtree

; 1384 :         const _Tree_find_result<_Nodeptr> _Loc = _Find_lower_bound(_Keyval);

  00055	51		 push	 ecx
  00056	8b c8		 mov	 ecx, eax
  00058	e8 00 00 00 00	 call	 ??$_Find_lower_bound@K@?$_Tree@V?$_Tmap_traits@KPAUSTextTail@CPythonTextTail@@U?$less@K@std@@V?$allocator@U?$pair@$$CBKPAUSTextTail@CPythonTextTail@@@std@@@4@$0A@@std@@@std@@IBE?AU?$_Tree_find_result@PAU?$_Tree_node@U?$pair@$$CBKPAUSTextTail@CPythonTextTail@@@std@@PAX@std@@@1@ABK@Z ; std::_Tree<std::_Tmap_traits<unsigned long,CPythonTextTail::STextTail *,std::less<unsigned long>,std::allocator<std::pair<unsigned long const ,CPythonTextTail::STextTail *> >,0> >::_Find_lower_bound<unsigned long>

; 1624 :         return !_Bound->_Isnil && !_DEBUG_LT_PRED(_Getcomp(), _Keyval, _Traits::_Kfn(_Bound->_Myval));

  0005d	8b 75 e8	 mov	 esi, DWORD PTR __Loc$11[ebp+8]
  00060	80 7e 0d 00	 cmp	 BYTE PTR [esi+13], 0
  00064	0f 85 2c 02 00
	00		 jne	 $LN5@SetItemTex
; File C:\Program Files\Microsoft Visual Studio\2022\Community\VC\Tools\MSVC\14.44.35207\include\type_traits

; 2380 :         return _Left < _Right;

  0006a	8b 43 08	 mov	 eax, DWORD PTR _dwVID$[ebx]
  0006d	3b 46 10	 cmp	 eax, DWORD PTR [esi+16]
; File C:\Program Files\Microsoft Visual Studio\2022\Community\VC\Tools\MSVC\14.44.35207\include\xtree

; 1624 :         return !_Bound->_Isnil && !_DEBUG_LT_PRED(_Getcomp(), _Keyval, _Traits::_Kfn(_Bound->_Myval));

  00070	0f 82 20 02 00
	00		 jb	 $LN5@SetItemTex

; 37   :     _Tree_unchecked_const_iterator(_Nodeptr _Pnode, const _Mytree* _Plist) noexcept : _Ptr(_Pnode) {

  00076	8b 45 98	 mov	 eax, DWORD PTR __Scary$1$[ebp]
  00079	39 30		 cmp	 DWORD PTR [eax], esi
; File D:\_m2work\Server Client TMP4\ClientVS22\source\UserInterface\PythonTextTail.cpp

; 709  : 	if (m_ItemTextTailMap.end() == itor)

  0007b	0f 84 15 02 00
	00		 je	 $LN5@SetItemTex

; 710  : 		return;
; 711  : 
; 712  : 	TTextTail * pTextTail = itor->second;

  00081	8b 76 14	 mov	 esi, DWORD PTR [esi+20]

; 713  : 
; 714  : 	if (strlen(c_szName) > 0)

  00084	8b cf		 mov	 ecx, edi
  00086	8d 51 01	 lea	 edx, DWORD PTR [ecx+1]
  00089	0f 1f 80 00 00
	00 00		 npad	 7
$LL254@SetItemTex:
  00090	8a 01		 mov	 al, BYTE PTR [ecx]
  00092	41		 inc	 ecx
  00093	84 c0		 test	 al, al
  00095	75 f9		 jne	 SHORT $LL254@SetItemTex

; 715  : 	{

  00097	8b 46 08	 mov	 eax, DWORD PTR [esi+8]
  0009a	2b ca		 sub	 ecx, edx
  0009c	0f 84 92 01 00
	00		 je	 $LN4@SetItemTex

; 716  : 		if (!pTextTail->pOwnerTextInstance)

  000a2	85 c0		 test	 eax, eax
  000a4	75 08		 jne	 SHORT $LN6@SetItemTex

; 717  : 		{
; 718  : 			pTextTail->pOwnerTextInstance = CGraphicTextInstance::New();

  000a6	e8 00 00 00 00	 call	 ?New@CGraphicTextInstance@@SAPAV1@XZ ; CGraphicTextInstance::New
  000ab	89 46 08	 mov	 DWORD PTR [esi+8], eax
$LN6@SetItemTex:
; File C:\Program Files\Microsoft Visual Studio\2022\Community\VC\Tools\MSVC\14.44.35207\include\__msvc_string_view.hpp

; 456  :             return __builtin_strlen(_First);

