; Listing generated by Microsoft (R) Optimizing Compiler Version 19.44.35217.0 

	TITLE	d:\_m2work\txoko-m2-work\txoko-client-src\vs_files\userinterface\distribute\pythonimemodule.obj
	.686P
	.XMM
	include listing.inc
	.model	flat

INCLUDELIB OLDNAMES

PUBLIC	??_C@_06CKGENIKG@Enable@			; `string'
PUBLIC	??_C@_07MIKIFGAL@Disable@			; `string'
PUBLIC	??_C@_0BD@KOHIEJEK@EnableCaptureInput@		; `string'
PUBLIC	??_C@_0BE@BLPFKFGH@DisableCaptureInput@		; `string'
PUBLIC	??_C@_06ODEINJEE@SetMax@			; `string'
PUBLIC	??_C@_0L@DDEFGAIA@SetUserMax@			; `string'
PUBLIC	??_C@_07NIJDBDAG@SetText@			; `string'
PUBLIC	??_C@_07CAGCCMNH@GetText@			; `string'
PUBLIC	??_C@_0M@DJHPBOFH@GetCodePage@			; `string'
PUBLIC	??_C@_0BC@NEACAHDI@GetCandidateCount@		; `string'
PUBLIC	??_C@_0N@MBNDKHML@GetCandidate@			; `string'
PUBLIC	??_C@_0BG@LMHBMBJJ@GetCandidateSelection@	; `string'
PUBLIC	??_C@_0L@LOMGCGNK@GetReading@			; `string'
PUBLIC	??_C@_0BA@OKELCJNA@GetReadingError@		; `string'
PUBLIC	??_C@_09MNJLHJMK@EnableIME@			; `string'
PUBLIC	??_C@_0L@CLOJIMEF@DisableIME@			; `string'
PUBLIC	??_C@_0N@COLAMEMD@GetInputMode@			; `string'
PUBLIC	??_C@_0N@FKAOAIIP@SetInputMode@			; `string'
PUBLIC	??_C@_0O@OBBEEOID@SetNumberMode@		; `string'
PUBLIC	??_C@_0O@BELLPKFF@SetStringMode@		; `string'
PUBLIC	??_C@_0N@BEEPHFCL@AddExceptKey@			; `string'
PUBLIC	??_C@_0P@BMGBGHLF@ClearExceptKey@		; `string'
PUBLIC	??_C@_08HOJDHPPH@MoveLeft@			; `string'
PUBLIC	??_C@_09DJFIPLKJ@MoveRight@			; `string'
PUBLIC	??_C@_08LLCCPFKC@MoveHome@			; `string'
PUBLIC	??_C@_07DGAADNMB@MoveEnd@			; `string'
PUBLIC	??_C@_0BC@BMJNLHPP@SetCursorPosition@		; `string'
PUBLIC	??_C@_06JBKGCNBB@Delete@			; `string'
PUBLIC	??_C@_0M@COHGIEGI@PasteString@			; `string'
PUBLIC	??_C@_0P@BFPBPOKO@PasteBackspace@		; `string'
PUBLIC	??_C@_0M@BBPKKCDI@PasteReturn@			; `string'
PUBLIC	??_C@_0BH@KBLDCMMB@PasteTextFromClipBoard@	; `string'
PUBLIC	??_C@_0M@KGBGFCIC@EnablePaste@			; `string'
PUBLIC	??_C@_03MABAFPPL@ime@				; `string'
EXTRN	?EnablePaste@CIME@@QAEX_N@Z:PROC		; CIME::EnablePaste
EXTRN	?PasteString@CIME@@QAEXPBD@Z:PROC		; CIME::PasteString
EXTRN	?GetInputMode@CIME@@QAEKXZ:PROC			; CIME::GetInputMode
EXTRN	?PasteTextFromClipBoard@CIME@@QAEXXZ:PROC	; CIME::PasteTextFromClipBoard
EXTRN	?ClearExceptKey@CIME@@QAEXXZ:PROC		; CIME::ClearExceptKey
EXTRN	?SetStringMode@CIME@@QAEXXZ:PROC		; CIME::SetStringMode
EXTRN	?SetNumberMode@CIME@@QAEXXZ:PROC		; CIME::SetNumberMode
EXTRN	?AddExceptKey@CIME@@QAEX_W@Z:PROC		; CIME::AddExceptKey
EXTRN	?DisableIME@CIME@@QAEXXZ:PROC			; CIME::DisableIME
EXTRN	?SetInputMode@CIME@@QAEXK@Z:PROC		; CIME::SetInputMode
EXTRN	?GetReadingError@CIME@@QAEHXZ:PROC		; CIME::GetReadingError
EXTRN	?EnableIME@CIME@@QAEX_N@Z:PROC			; CIME::EnableIME
EXTRN	?GetCandidateSelection@CIME@@QAEHXZ:PROC	; CIME::GetCandidateSelection
EXTRN	?GetReading@CIME@@QAEHAAV?$basic_string@DU?$char_traits@D@std@@V?$allocator@D@2@@std@@@Z:PROC ; CIME::GetReading
EXTRN	?GetCandidatePageCount@CIME@@QAEHXZ:PROC	; CIME::GetCandidatePageCount
EXTRN	?GetCandidate@CIME@@QAEHKAAV?$basic_string@DU?$char_traits@D@std@@V?$allocator@D@2@@std@@@Z:PROC ; CIME::GetCandidate
EXTRN	?GetText@CIME@@QAEHAAV?$basic_string@DU?$char_traits@D@std@@V?$allocator@D@2@@std@@_N@Z:PROC ; CIME::GetText
EXTRN	?GetCodePage@CIME@@QAEHXZ:PROC			; CIME::GetCodePage
EXTRN	?SetMax@CIME@@QAEXH@Z:PROC			; CIME::SetMax
EXTRN	?SetUserMax@CIME@@QAEXH@Z:PROC			; CIME::SetUserMax
EXTRN	?EnableCaptureInput@CIME@@QAEXXZ:PROC		; CIME::EnableCaptureInput
EXTRN	?DisableCaptureInput@CIME@@QAEXXZ:PROC		; CIME::DisableCaptureInput
EXTRN	?Uninitialize@CIME@@QAEXXZ:PROC			; CIME::Uninitialize
;	COMDAT ?s_methods@?1??initime@@YAXXZ@4PAUPyMethodDef@@A
_DATA	SEGMENT
?s_methods@?1??initime@@YAXXZ@4PAUPyMethodDef@@A DD FLAT:??_C@_06CKGENIKG@Enable@ ; `initime'::`2'::s_methods
	DD	FLAT:?imeEnable@@YAPAU_object@@PAU1@0@Z
	DD	01H
	ORG $+4
	DD	FLAT:??_C@_07MIKIFGAL@Disable@
	DD	FLAT:?imeDisable@@YAPAU_object@@PAU1@0@Z
	DD	01H
	ORG $+4
	DD	FLAT:??_C@_0BD@KOHIEJEK@EnableCaptureInput@
	DD	FLAT:?imeEnableCaptureInput@@YAPAU_object@@PAU1@0@Z
	DD	01H
	ORG $+4
	DD	FLAT:??_C@_0BE@BLPFKFGH@DisableCaptureInput@
	DD	FLAT:?imeDisableCaptureInput@@YAPAU_object@@PAU1@0@Z
	DD	01H
	ORG $+4
	DD	FLAT:??_C@_06ODEINJEE@SetMax@
	DD	FLAT:?imeSetMax@@YAPAU_object@@PAU1@0@Z
	DD	01H
	ORG $+4
	DD	FLAT:??_C@_0L@DDEFGAIA@SetUserMax@
	DD	FLAT:?imeSetUserMax@@YAPAU_object@@PAU1@0@Z
	DD	01H
	ORG $+4
	DD	FLAT:??_C@_07NIJDBDAG@SetText@
	DD	FLAT:?imeSetText@@YAPAU_object@@PAU1@0@Z
	DD	01H
	ORG $+4
	DD	FLAT:??_C@_07CAGCCMNH@GetText@
	DD	FLAT:?imeGetText@@YAPAU_object@@PAU1@0@Z
	DD	01H
	ORG $+4
	DD	FLAT:??_C@_0M@DJHPBOFH@GetCodePage@
	DD	FLAT:?imeGetCodePage@@YAPAU_object@@PAU1@0@Z
	DD	01H
	ORG $+4
	DD	FLAT:??_C@_0BC@NEACAHDI@GetCandidateCount@
	DD	FLAT:?imeGetCandidateCount@@YAPAU_object@@PAU1@0@Z
	DD	01H
	ORG $+4
	DD	FLAT:??_C@_0N@MBNDKHML@GetCandidate@
	DD	FLAT:?imeGetCandidate@@YAPAU_object@@PAU1@0@Z
	DD	01H
	ORG $+4
	DD	FLAT:??_C@_0BG@LMHBMBJJ@GetCandidateSelection@
	DD	FLAT:?imeGetCandidateSelection@@YAPAU_object@@PAU1@0@Z
	DD	01H
	ORG $+4
	DD	FLAT:??_C@_0L@LOMGCGNK@GetReading@
	DD	FLAT:?imeGetReading@@YAPAU_object@@PAU1@0@Z
	DD	01H
	ORG $+4
	DD	FLAT:??_C@_0BA@OKELCJNA@GetReadingError@
	DD	FLAT:?imeGetReadingError@@YAPAU_object@@PAU1@0@Z
	DD	01H
	ORG $+4
	DD	FLAT:??_C@_09MNJLHJMK@EnableIME@
	DD	FLAT:?imeEnableIME@@YAPAU_object@@PAU1@0@Z
	DD	01H
	ORG $+4
	DD	FLAT:??_C@_0L@CLOJIMEF@DisableIME@
	DD	FLAT:?imeDisableIME@@YAPAU_object@@PAU1@0@Z
	DD	01H
	ORG $+4
	DD	FLAT:??_C@_0N@COLAMEMD@GetInputMode@
	DD	FLAT:?imeGetInputMode@@YAPAU_object@@PAU1@0@Z
	DD	01H
	ORG $+4
	DD	FLAT:??_C@_0N@FKAOAIIP@SetInputMode@
	DD	FLAT:?imeSetInputMode@@YAPAU_object@@PAU1@0@Z
	DD	01H
	ORG $+4
	DD	FLAT:??_C@_0O@OBBEEOID@SetNumberMode@
	DD	FLAT:?imeSetNumberMode@@YAPAU_object@@PAU1@0@Z
	DD	01H
	ORG $+4
	DD	FLAT:??_C@_0O@BELLPKFF@SetStringMode@
	DD	FLAT:?imeSetStringMode@@YAPAU_object@@PAU1@0@Z
	DD	01H
	ORG $+4
	DD	FLAT:??_C@_0N@BEEPHFCL@AddExceptKey@
	DD	FLAT:?imeAddExceptKey@@YAPAU_object@@PAU1@0@Z
	DD	01H
	ORG $+4
	DD	FLAT:??_C@_0P@BMGBGHLF@ClearExceptKey@
	DD	FLAT:?imeClearExceptKey@@YAPAU_object@@PAU1@0@Z
	DD	01H
	ORG $+4
	DD	FLAT:??_C@_08HOJDHPPH@MoveLeft@
	DD	FLAT:?imeMoveLeft@@YAPAU_object@@PAU1@0@Z
	DD	01H
	ORG $+4
	DD	FLAT:??_C@_09DJFIPLKJ@MoveRight@
	DD	FLAT:?imeMoveRight@@YAPAU_object@@PAU1@0@Z
	DD	01H
	ORG $+4
	DD	FLAT:??_C@_08LLCCPFKC@MoveHome@
	DD	FLAT:?imeMoveHome@@YAPAU_object@@PAU1@0@Z
	DD	01H
	ORG $+4
	DD	FLAT:??_C@_07DGAADNMB@MoveEnd@
	DD	FLAT:?imeMoveEnd@@YAPAU_object@@PAU1@0@Z
	DD	01H
	ORG $+4
	DD	FLAT:??_C@_0BC@BMJNLHPP@SetCursorPosition@
	DD	FLAT:?imeSetCursorPosition@@YAPAU_object@@PAU1@0@Z
	DD	01H
	ORG $+4
	DD	FLAT:??_C@_06JBKGCNBB@Delete@
	DD	FLAT:?imeDelete@@YAPAU_object@@PAU1@0@Z
	DD	01H
	ORG $+4
	DD	FLAT:??_C@_0M@COHGIEGI@PasteString@
	DD	FLAT:?imePasteString@@YAPAU_object@@PAU1@0@Z
	DD	01H
	ORG $+4
	DD	FLAT:??_C@_0P@BFPBPOKO@PasteBackspace@
	DD	FLAT:?imePasteBackspace@@YAPAU_object@@PAU1@0@Z
	DD	01H
	ORG $+4
	DD	FLAT:??_C@_0M@BBPKKCDI@PasteReturn@
	DD	FLAT:?imePasteReturn@@YAPAU_object@@PAU1@0@Z
	DD	01H
	ORG $+4
	DD	FLAT:??_C@_0BH@KBLDCMMB@PasteTextFromClipBoard@
	DD	FLAT:?imePasteTextFromClipBoard@@YAPAU_object@@PAU1@0@Z
	DD	01H
	ORG $+4
	DD	FLAT:??_C@_0M@KGBGFCIC@EnablePaste@
	DD	FLAT:?imeEnablePaste@@YAPAU_object@@PAU1@0@Z
	DD	01H
	ORG $+4
	DD	00H
	DD	00H
	DD	00H
	ORG $+4
_DATA	ENDS
;	COMDAT ??_C@_03MABAFPPL@ime@
CONST	SEGMENT
??_C@_03MABAFPPL@ime@ DB 'ime', 00H			; `string'
CONST	ENDS
;	COMDAT ??_C@_0M@KGBGFCIC@EnablePaste@
CONST	SEGMENT
??_C@_0M@KGBGFCIC@EnablePaste@ DB 'EnablePaste', 00H	; `string'
CONST	ENDS
;	COMDAT ??_C@_0BH@KBLDCMMB@PasteTextFromClipBoard@
CONST	SEGMENT
??_C@_0BH@KBLDCMMB@PasteTextFromClipBoard@ DB 'PasteTextFromClipBoard', 00H ; `string'
CONST	ENDS
;	COMDAT ??_C@_0M@BBPKKCDI@PasteReturn@
CONST	SEGMENT
??_C@_0M@BBPKKCDI@PasteReturn@ DB 'PasteReturn', 00H	; `string'
CONST	ENDS
;	COMDAT ??_C@_0P@BFPBPOKO@PasteBackspace@
CONST	SEGMENT
??_C@_0P@BFPBPOKO@PasteBackspace@ DB 'PasteBackspace', 00H ; `string'
CONST	ENDS
;	COMDAT ??_C@_0M@COHGIEGI@PasteString@
CONST	SEGMENT
??_C@_0M@COHGIEGI@PasteString@ DB 'PasteString', 00H	; `string'
CONST	ENDS
;	COMDAT ??_C@_06JBKGCNBB@Delete@
CONST	SEGMENT
??_C@_06JBKGCNBB@Delete@ DB 'Delete', 00H		; `string'
CONST	ENDS
;	COMDAT ??_C@_0BC@BMJNLHPP@SetCursorPosition@
CONST	SEGMENT
??_C@_0BC@BMJNLHPP@SetCursorPosition@ DB 'SetCursorPosition', 00H ; `string'
CONST	ENDS
;	COMDAT ??_C@_07DGAADNMB@MoveEnd@
CONST	SEGMENT
??_C@_07DGAADNMB@MoveEnd@ DB 'MoveEnd', 00H		; `string'
CONST	ENDS
;	COMDAT ??_C@_08LLCCPFKC@MoveHome@
CONST	SEGMENT
??_C@_08LLCCPFKC@MoveHome@ DB 'MoveHome', 00H		; `string'
CONST	ENDS
;	COMDAT ??_C@_09DJFIPLKJ@MoveRight@
CONST	SEGMENT
??_C@_09DJFIPLKJ@MoveRight@ DB 'MoveRight', 00H		; `string'
CONST	ENDS
;	COMDAT ??_C@_08HOJDHPPH@MoveLeft@
CONST	SEGMENT
??_C@_08HOJDHPPH@MoveLeft@ DB 'MoveLeft', 00H		; `string'
CONST	ENDS
;	COMDAT ??_C@_0P@BMGBGHLF@ClearExceptKey@
CONST	SEGMENT
??_C@_0P@BMGBGHLF@ClearExceptKey@ DB 'ClearExceptKey', 00H ; `string'
CONST	ENDS
;	COMDAT ??_C@_0N@BEEPHFCL@AddExceptKey@
CONST	SEGMENT
??_C@_0N@BEEPHFCL@AddExceptKey@ DB 'AddExceptKey', 00H	; `string'
CONST	ENDS
;	COMDAT ??_C@_0O@BELLPKFF@SetStringMode@
CONST	SEGMENT
??_C@_0O@BELLPKFF@SetStringMode@ DB 'SetStringMode', 00H ; `string'
CONST	ENDS
;	COMDAT ??_C@_0O@OBBEEOID@SetNumberMode@
CONST	SEGMENT
??_C@_0O@OBBEEOID@SetNumberMode@ DB 'SetNumberMode', 00H ; `string'
CONST	ENDS
;	COMDAT ??_C@_0N@FKAOAIIP@SetInputMode@
CONST	SEGMENT
??_C@_0N@FKAOAIIP@SetInputMode@ DB 'SetInputMode', 00H	; `string'
CONST	ENDS
;	COMDAT ??_C@_0N@COLAMEMD@GetInputMode@
CONST	SEGMENT
??_C@_0N@COLAMEMD@GetInputMode@ DB 'GetInputMode', 00H	; `string'
CONST	ENDS
;	COMDAT ??_C@_0L@CLOJIMEF@DisableIME@
CONST	SEGMENT
??_C@_0L@CLOJIMEF@DisableIME@ DB 'DisableIME', 00H	; `string'
CONST	ENDS
;	COMDAT ??_C@_09MNJLHJMK@EnableIME@
CONST	SEGMENT
??_C@_09MNJLHJMK@EnableIME@ DB 'EnableIME', 00H		; `string'
CONST	ENDS
;	COMDAT ??_C@_0BA@OKELCJNA@GetReadingError@
CONST	SEGMENT
??_C@_0BA@OKELCJNA@GetReadingError@ DB 'GetReadingError', 00H ; `string'
CONST	ENDS
;	COMDAT ??_C@_0L@LOMGCGNK@GetReading@
CONST	SEGMENT
??_C@_0L@LOMGCGNK@GetReading@ DB 'GetReading', 00H	; `string'
CONST	ENDS
;	COMDAT ??_C@_0BG@LMHBMBJJ@GetCandidateSelection@
CONST	SEGMENT
??_C@_0BG@LMHBMBJJ@GetCandidateSelection@ DB 'GetCandidateSelection', 00H ; `string'
CONST	ENDS
;	COMDAT ??_C@_0N@MBNDKHML@GetCandidate@
CONST	SEGMENT
??_C@_0N@MBNDKHML@GetCandidate@ DB 'GetCandidate', 00H	; `string'
CONST	ENDS
;	COMDAT ??_C@_0BC@NEACAHDI@GetCandidateCount@
CONST	SEGMENT
??_C@_0BC@NEACAHDI@GetCandidateCount@ DB 'GetCandidateCount', 00H ; `string'
CONST	ENDS
;	COMDAT ??_C@_0M@DJHPBOFH@GetCodePage@
CONST	SEGMENT
??_C@_0M@DJHPBOFH@GetCodePage@ DB 'GetCodePage', 00H	; `string'
CONST	ENDS
;	COMDAT ??_C@_07CAGCCMNH@GetText@
CONST	SEGMENT
??_C@_07CAGCCMNH@GetText@ DB 'GetText', 00H		; `string'
CONST	ENDS
;	COMDAT ??_C@_07NIJDBDAG@SetText@
CONST	SEGMENT
??_C@_07NIJDBDAG@SetText@ DB 'SetText', 00H		; `string'
CONST	ENDS
;	COMDAT ??_C@_0L@DDEFGAIA@SetUserMax@
CONST	SEGMENT
??_C@_0L@DDEFGAIA@SetUserMax@ DB 'SetUserMax', 00H	; `string'
CONST	ENDS
;	COMDAT ??_C@_06ODEINJEE@SetMax@
CONST	SEGMENT
??_C@_06ODEINJEE@SetMax@ DB 'SetMax', 00H		; `string'
CONST	ENDS
;	COMDAT ??_C@_0BE@BLPFKFGH@DisableCaptureInput@
CONST	SEGMENT
??_C@_0BE@BLPFKFGH@DisableCaptureInput@ DB 'DisableCaptureInput', 00H ; `string'
CONST	ENDS
;	COMDAT ??_C@_0BD@KOHIEJEK@EnableCaptureInput@
CONST	SEGMENT
??_C@_0BD@KOHIEJEK@EnableCaptureInput@ DB 'EnableCaptureInput', 00H ; `string'
CONST	ENDS
;	COMDAT ??_C@_07MIKIFGAL@Disable@
CONST	SEGMENT
??_C@_07MIKIFGAL@Disable@ DB 'Disable', 00H		; `string'
CONST	ENDS
;	COMDAT ??_C@_06CKGENIKG@Enable@
CONST	SEGMENT
??_C@_06CKGENIKG@Enable@ DB 'Enable', 00H		; `string'
PUBLIC	?initime@@YAXXZ					; initime
PUBLIC	?imePasteReturn@@YAPAU_object@@PAU1@0@Z		; imePasteReturn
PUBLIC	?imePasteBackspace@@YAPAU_object@@PAU1@0@Z	; imePasteBackspace
PUBLIC	?imePasteString@@YAPAU_object@@PAU1@0@Z		; imePasteString
PUBLIC	?imeEnablePaste@@YAPAU_object@@PAU1@0@Z		; imeEnablePaste
PUBLIC	?imePasteTextFromClipBoard@@YAPAU_object@@PAU1@0@Z ; imePasteTextFromClipBoard
PUBLIC	?imeDelete@@YAPAU_object@@PAU1@0@Z		; imeDelete
PUBLIC	?imeSetCursorPosition@@YAPAU_object@@PAU1@0@Z	; imeSetCursorPosition
PUBLIC	?imeMoveEnd@@YAPAU_object@@PAU1@0@Z		; imeMoveEnd
PUBLIC	?imeMoveHome@@YAPAU_object@@PAU1@0@Z		; imeMoveHome
PUBLIC	?imeMoveRight@@YAPAU_object@@PAU1@0@Z		; imeMoveRight
PUBLIC	?imeMoveLeft@@YAPAU_object@@PAU1@0@Z		; imeMoveLeft
PUBLIC	?imeGetInputMode@@YAPAU_object@@PAU1@0@Z	; imeGetInputMode
PUBLIC	?imeSetStringMode@@YAPAU_object@@PAU1@0@Z	; imeSetStringMode
PUBLIC	?imeClearExceptKey@@YAPAU_object@@PAU1@0@Z	; imeClearExceptKey
PUBLIC	?imeAddExceptKey@@YAPAU_object@@PAU1@0@Z	; imeAddExceptKey
PUBLIC	?imeSetNumberMode@@YAPAU_object@@PAU1@0@Z	; imeSetNumberMode
PUBLIC	?imeSetInputMode@@YAPAU_object@@PAU1@0@Z	; imeSetInputMode
PUBLIC	?imeDisableIME@@YAPAU_object@@PAU1@0@Z		; imeDisableIME
PUBLIC	?imeEnableIME@@YAPAU_object@@PAU1@0@Z		; imeEnableIME
PUBLIC	?imeGetReadingError@@YAPAU_object@@PAU1@0@Z	; imeGetReadingError
PUBLIC	?imeGetReading@@YAPAU_object@@PAU1@0@Z		; imeGetReading
PUBLIC	?imeGetCandidateSelection@@YAPAU_object@@PAU1@0@Z ; imeGetCandidateSelection
PUBLIC	?imeGetCandidate@@YAPAU_object@@PAU1@0@Z	; imeGetCandidate
PUBLIC	?imeGetCandidateCount@@YAPAU_object@@PAU1@0@Z	; imeGetCandidateCount
PUBLIC	?imeGetCodePage@@YAPAU_object@@PAU1@0@Z		; imeGetCodePage
PUBLIC	?imeGetText@@YAPAU_object@@PAU1@0@Z		; imeGetText
PUBLIC	?imeSetText@@YAPAU_object@@PAU1@0@Z		; imeSetText
PUBLIC	?imeSetUserMax@@YAPAU_object@@PAU1@0@Z		; imeSetUserMax
PUBLIC	?imeSetMax@@YAPAU_object@@PAU1@0@Z		; imeSetMax
PUBLIC	?imeDisableCaptureInput@@YAPAU_object@@PAU1@0@Z	; imeDisableCaptureInput
PUBLIC	?imeEnableCaptureInput@@YAPAU_object@@PAU1@0@Z	; imeEnableCaptureInput
PUBLIC	?imeDisable@@YAPAU_object@@PAU1@0@Z		; imeDisable
PUBLIC	?imeEnable@@YAPAU_object@@PAU1@0@Z		; imeEnable
;	COMDAT xdata$x
xdata$x	SEGMENT
__ehfuncinfo$?imeGetText@@YAPAU_object@@PAU1@0@Z DD 019930522H
	DD	01H
	DD	FLAT:__unwindtable$?imeGetText@@YAPAU_object@@PAU1@0@Z
	DD	2 DUP(00H)
	DD	2 DUP(00H)
	DD	00H
	DD	01H
__unwindtable$?imeGetText@@YAPAU_object@@PAU1@0@Z DD 0ffffffffH
	DD	FLAT:__unwindfunclet$?imeGetText@@YAPAU_object@@PAU1@0@Z$0
xdata$x	ENDS
;	COMDAT xdata$x
xdata$x	SEGMENT
__ehfuncinfo$?imeGetCandidate@@YAPAU_object@@PAU1@0@Z DD 019930522H
	DD	01H
	DD	FLAT:__unwindtable$?imeGetCandidate@@YAPAU_object@@PAU1@0@Z
	DD	2 DUP(00H)
	DD	2 DUP(00H)
	DD	00H
	DD	01H
__unwindtable$?imeGetCandidate@@YAPAU_object@@PAU1@0@Z DD 0ffffffffH
	DD	FLAT:__unwindfunclet$?imeGetCandidate@@YAPAU_object@@PAU1@0@Z$0
xdata$x	ENDS
;	COMDAT xdata$x
xdata$x	SEGMENT
__ehfuncinfo$?imeGetReading@@YAPAU_object@@PAU1@0@Z DD 019930522H
	DD	01H
	DD	FLAT:__unwindtable$?imeGetReading@@YAPAU_object@@PAU1@0@Z
	DD	2 DUP(00H)
	DD	2 DUP(00H)
	DD	00H
	DD	01H
__unwindtable$?imeGetReading@@YAPAU_object@@PAU1@0@Z DD 0ffffffffH
	DD	FLAT:__unwindfunclet$?imeGetReading@@YAPAU_object@@PAU1@0@Z$0
; Function compile flags: /Ogtp
; File D:\_m2work\txoko-m2-work\txoko-client-src\source\UserInterface\PythonIMEModule.cpp
;	COMDAT ?imeEnable@@YAPAU_object@@PAU1@0@Z
_TEXT	SEGMENT
_poSelf$ = 8						; size = 4
_poArgs$ = 12						; size = 4
?imeEnable@@YAPAU_object@@PAU1@0@Z PROC			; imeEnable, COMDAT

; 7    : 	CPythonIME::Instance().Initialize(CPythonApplication::Instance().GetWindowHandle());

  00000	8b 0d 00 00 00
	00		 mov	 ecx, DWORD PTR ?ms_pInstance@CPythonApplication@@1PAV1@A ; CPythonApplication::ms_pInstance
  00006	56		 push	 esi
  00007	8b 35 00 00 00
	00		 mov	 esi, DWORD PTR ?ms_singleton@?$CSingleton@VCPythonIME@@@@0PAVCPythonIME@@A ; CSingleton<CPythonIME>::ms_singleton
  0000d	e8 00 00 00 00	 call	 ?GetWindowHandle@CMSWindow@@QAEPAUHWND__@@XZ ; CMSWindow::GetWindowHandle
  00012	50		 push	 eax
  00013	8d 4e 04	 lea	 ecx, DWORD PTR [esi+4]
  00016	e8 00 00 00 00	 call	 ?Initialize@CIME@@QAE_NPAUHWND__@@@Z ; CIME::Initialize

; 8    : 	return Py_BuildNone();

  0001b	5e		 pop	 esi
  0001c	e9 00 00 00 00	 jmp	 ?Py_BuildNone@@YAPAU_object@@XZ ; Py_BuildNone
?imeEnable@@YAPAU_object@@PAU1@0@Z ENDP			; imeEnable
_TEXT	ENDS
; Function compile flags: /Ogtp
; File D:\_m2work\txoko-m2-work\txoko-client-src\source\UserInterface\PythonIMEModule.cpp
;	COMDAT ?imeDisable@@YAPAU_object@@PAU1@0@Z
_TEXT	SEGMENT
_poSelf$ = 8						; size = 4
_poArgs$ = 12						; size = 4
?imeDisable@@YAPAU_object@@PAU1@0@Z PROC		; imeDisable, COMDAT

; 13   : 	CPythonIME::Instance().Uninitialize();

  00000	a1 00 00 00 00	 mov	 eax, DWORD PTR ?ms_singleton@?$CSingleton@VCPythonIME@@@@0PAVCPythonIME@@A ; CSingleton<CPythonIME>::ms_singleton
  00005	8d 48 04	 lea	 ecx, DWORD PTR [eax+4]
  00008	e8 00 00 00 00	 call	 ?Uninitialize@CIME@@QAEXXZ ; CIME::Uninitialize

; 14   : 	return Py_BuildNone();

  0000d	e9 00 00 00 00	 jmp	 ?Py_BuildNone@@YAPAU_object@@XZ ; Py_BuildNone
?imeDisable@@YAPAU_object@@PAU1@0@Z ENDP		; imeDisable
_TEXT	ENDS
; Function compile flags: /Ogtp
; File D:\_m2work\txoko-m2-work\txoko-client-src\source\UserInterface\PythonIMEModule.cpp
;	COMDAT ?imeEnableCaptureInput@@YAPAU_object@@PAU1@0@Z
_TEXT	SEGMENT
_poSelf$ = 8						; size = 4
_poArgs$ = 12						; size = 4
?imeEnableCaptureInput@@YAPAU_object@@PAU1@0@Z PROC	; imeEnableCaptureInput, COMDAT

; 19   : 	CPythonIME::Instance().EnableCaptureInput();

  00000	a1 00 00 00 00	 mov	 eax, DWORD PTR ?ms_singleton@?$CSingleton@VCPythonIME@@@@0PAVCPythonIME@@A ; CSingleton<CPythonIME>::ms_singleton
  00005	8d 48 04	 lea	 ecx, DWORD PTR [eax+4]
  00008	e8 00 00 00 00	 call	 ?EnableCaptureInput@CIME@@QAEXXZ ; CIME::EnableCaptureInput

; 20   : 	return Py_BuildNone();

  0000d	e9 00 00 00 00	 jmp	 ?Py_BuildNone@@YAPAU_object@@XZ ; Py_BuildNone
?imeEnableCaptureInput@@YAPAU_object@@PAU1@0@Z ENDP	; imeEnableCaptureInput
_TEXT	ENDS
; Function compile flags: /Ogtp
; File D:\_m2work\txoko-m2-work\txoko-client-src\source\UserInterface\PythonIMEModule.cpp
;	COMDAT ?imeDisableCaptureInput@@YAPAU_object@@PAU1@0@Z
_TEXT	SEGMENT
_poSelf$ = 8						; size = 4
_poArgs$ = 12						; size = 4
?imeDisableCaptureInput@@YAPAU_object@@PAU1@0@Z PROC	; imeDisableCaptureInput, COMDAT

; 25   : 	CPythonIME::Instance().DisableCaptureInput();

  00000	a1 00 00 00 00	 mov	 eax, DWORD PTR ?ms_singleton@?$CSingleton@VCPythonIME@@@@0PAVCPythonIME@@A ; CSingleton<CPythonIME>::ms_singleton
  00005	8d 48 04	 lea	 ecx, DWORD PTR [eax+4]
  00008	e8 00 00 00 00	 call	 ?DisableCaptureInput@CIME@@QAEXXZ ; CIME::DisableCaptureInput

; 26   : 	return Py_BuildNone();

  0000d	e9 00 00 00 00	 jmp	 ?Py_BuildNone@@YAPAU_object@@XZ ; Py_BuildNone
?imeDisableCaptureInput@@YAPAU_object@@PAU1@0@Z ENDP	; imeDisableCaptureInput
_TEXT	ENDS
; Function compile flags: /Ogtp
; File D:\_m2work\txoko-m2-work\txoko-client-src\source\UserInterface\PythonIMEModule.cpp
;	COMDAT ?imeSetMax@@YAPAU_object@@PAU1@0@Z
_TEXT	SEGMENT
_iMax$ = -4						; size = 4
_poSelf$ = 8						; size = 4
_poArgs$ = 12						; size = 4
?imeSetMax@@YAPAU_object@@PAU1@0@Z PROC			; imeSetMax, COMDAT

; 30   : {

  00000	55		 push	 ebp
  00001	8b ec		 mov	 ebp, esp
  00003	51		 push	 ecx

; 31   : 	int iMax;
; 32   : 	if (!PyTuple_GetInteger(poArgs, 0, &iMax))

  00004	8d 45 fc	 lea	 eax, DWORD PTR _iMax$[ebp]
  00007	50		 push	 eax
  00008	6a 00		 push	 0
  0000a	ff 75 0c	 push	 DWORD PTR _poArgs$[ebp]
  0000d	e8 00 00 00 00	 call	 ?PyTuple_GetInteger@@YA_NPAU_object@@HPAH@Z ; PyTuple_GetInteger
  00012	83 c4 0c	 add	 esp, 12			; 0000000cH
  00015	84 c0		 test	 al, al
  00017	75 0e		 jne	 SHORT $LN2@imeSetMax

; 33   : 		return Py_BuildException();

  00019	6a 00		 push	 0
  0001b	e8 00 00 00 00	 call	 ?Py_BuildException@@YAPAU_object@@PBDZZ ; Py_BuildException
  00020	83 c4 04	 add	 esp, 4

; 37   : }

  00023	8b e5		 mov	 esp, ebp
  00025	5d		 pop	 ebp
  00026	c3		 ret	 0
$LN2@imeSetMax:

; 34   : 
; 35   : 	CPythonIME::Instance().SetMax(iMax);

  00027	8b 0d 00 00 00
	00		 mov	 ecx, DWORD PTR ?ms_singleton@?$CSingleton@VCPythonIME@@@@0PAVCPythonIME@@A ; CSingleton<CPythonIME>::ms_singleton
  0002d	ff 75 fc	 push	 DWORD PTR _iMax$[ebp]
  00030	8d 49 04	 lea	 ecx, DWORD PTR [ecx+4]
  00033	e8 00 00 00 00	 call	 ?SetMax@CIME@@QAEXH@Z	; CIME::SetMax

; 36   : 	return Py_BuildNone();

  00038	e8 00 00 00 00	 call	 ?Py_BuildNone@@YAPAU_object@@XZ ; Py_BuildNone

; 37   : }

  0003d	8b e5		 mov	 esp, ebp
  0003f	5d		 pop	 ebp
  00040	c3		 ret	 0
?imeSetMax@@YAPAU_object@@PAU1@0@Z ENDP			; imeSetMax
_TEXT	ENDS
; Function compile flags: /Ogtp
; File D:\_m2work\txoko-m2-work\txoko-client-src\source\UserInterface\PythonIMEModule.cpp
;	COMDAT ?imeSetUserMax@@YAPAU_object@@PAU1@0@Z
_TEXT	SEGMENT
_iMax$ = -4						; size = 4
_poSelf$ = 8						; size = 4
_poArgs$ = 12						; size = 4
?imeSetUserMax@@YAPAU_object@@PAU1@0@Z PROC		; imeSetUserMax, COMDAT

; 40   : {

  00000	55		 push	 ebp
  00001	8b ec		 mov	 ebp, esp
  00003	51		 push	 ecx

; 41   : 	int iMax;
; 42   : 	if (!PyTuple_GetInteger(poArgs, 0, &iMax))

  00004	8d 45 fc	 lea	 eax, DWORD PTR _iMax$[ebp]
  00007	50		 push	 eax
  00008	6a 00		 push	 0
  0000a	ff 75 0c	 push	 DWORD PTR _poArgs$[ebp]
  0000d	e8 00 00 00 00	 call	 ?PyTuple_GetInteger@@YA_NPAU_object@@HPAH@Z ; PyTuple_GetInteger
  00012	83 c4 0c	 add	 esp, 12			; 0000000cH
  00015	84 c0		 test	 al, al
  00017	75 0e		 jne	 SHORT $LN2@imeSetUser

; 43   : 		return Py_BuildException();

  00019	6a 00		 push	 0
  0001b	e8 00 00 00 00	 call	 ?Py_BuildException@@YAPAU_object@@PBDZZ ; Py_BuildException
  00020	83 c4 04	 add	 esp, 4

; 47   : }

  00023	8b e5		 mov	 esp, ebp
  00025	5d		 pop	 ebp
  00026	c3		 ret	 0
$LN2@imeSetUser:

; 44   : 
; 45   : 	CPythonIME::Instance().SetUserMax(iMax);

  00027	8b 0d 00 00 00
	00		 mov	 ecx, DWORD PTR ?ms_singleton@?$CSingleton@VCPythonIME@@@@0PAVCPythonIME@@A ; CSingleton<CPythonIME>::ms_singleton
  0002d	ff 75 fc	 push	 DWORD PTR _iMax$[ebp]
  00030	8d 49 04	 lea	 ecx, DWORD PTR [ecx+4]
  00033	e8 00 00 00 00	 call	 ?SetUserMax@CIME@@QAEXH@Z ; CIME::SetUserMax

; 46   : 	return Py_BuildNone();

  00038	e8 00 00 00 00	 call	 ?Py_BuildNone@@YAPAU_object@@XZ ; Py_BuildNone

; 47   : }

  0003d	8b e5		 mov	 esp, ebp
  0003f	5d		 pop	 ebp
  00040	c3		 ret	 0
?imeSetUserMax@@YAPAU_object@@PAU1@0@Z ENDP		; imeSetUserMax
_TEXT	ENDS
; Function compile flags: /Ogtp
; File D:\_m2work\txoko-m2-work\txoko-client-src\source\UserInterface\PythonIMEModule.cpp
;	COMDAT ?imeSetText@@YAPAU_object@@PAU1@0@Z
_TEXT	SEGMENT
_szText$ = -4						; size = 4
_poSelf$ = 8						; size = 4
_poArgs$ = 12						; size = 4
?imeSetText@@YAPAU_object@@PAU1@0@Z PROC		; imeSetText, COMDAT

; 50   : {

  00000	55		 push	 ebp
  00001	8b ec		 mov	 ebp, esp
  00003	51		 push	 ecx

; 51   : 	char* szText;
; 52   : 	if (!PyTuple_GetString(poArgs, 0, &szText))

  00004	8d 45 fc	 lea	 eax, DWORD PTR _szText$[ebp]
  00007	50		 push	 eax
  00008	6a 00		 push	 0
  0000a	ff 75 0c	 push	 DWORD PTR _poArgs$[ebp]
  0000d	e8 00 00 00 00	 call	 ?PyTuple_GetString@@YA_NPAU_object@@HPAPAD@Z ; PyTuple_GetString
  00012	83 c4 0c	 add	 esp, 12			; 0000000cH
  00015	84 c0		 test	 al, al
  00017	75 0e		 jne	 SHORT $LN2@imeSetText

; 53   : 		return Py_BuildException();

  00019	6a 00		 push	 0
  0001b	e8 00 00 00 00	 call	 ?Py_BuildException@@YAPAU_object@@PBDZZ ; Py_BuildException
  00020	83 c4 04	 add	 esp, 4

; 57   : }

  00023	8b e5		 mov	 esp, ebp
  00025	5d		 pop	 ebp
  00026	c3		 ret	 0
$LN2@imeSetText:

; 54   : 
; 55   : 	CPythonIME::Instance().SetText(szText, strlen(szText));

  00027	8b 55 fc	 mov	 edx, DWORD PTR _szText$[ebp]
  0002a	8b c2		 mov	 eax, edx
  0002c	56		 push	 esi
  0002d	8d 70 01	 lea	 esi, DWORD PTR [eax+1]
$LL4@imeSetText:
  00030	8a 08		 mov	 cl, BYTE PTR [eax]
  00032	40		 inc	 eax
  00033	84 c9		 test	 cl, cl
  00035	75 f9		 jne	 SHORT $LL4@imeSetText
  00037	8b 0d 00 00 00
	00		 mov	 ecx, DWORD PTR ?ms_singleton@?$CSingleton@VCPythonIME@@@@0PAVCPythonIME@@A ; CSingleton<CPythonIME>::ms_singleton
  0003d	2b c6		 sub	 eax, esi
  0003f	50		 push	 eax
  00040	52		 push	 edx
  00041	8d 49 04	 lea	 ecx, DWORD PTR [ecx+4]
  00044	e8 00 00 00 00	 call	 ?SetText@CIME@@QAEXPBDH@Z ; CIME::SetText

; 56   : 	return Py_BuildNone();

  00049	e8 00 00 00 00	 call	 ?Py_BuildNone@@YAPAU_object@@XZ ; Py_BuildNone
  0004e	5e		 pop	 esi

; 57   : }

  0004f	8b e5		 mov	 esp, ebp
  00051	5d		 pop	 ebp
  00052	c3		 ret	 0
?imeSetText@@YAPAU_object@@PAU1@0@Z ENDP		; imeSetText
_TEXT	ENDS
; Function compile flags: /Ogtp
; File D:\_m2work\txoko-m2-work\txoko-client-src\source\UserInterface\PythonIMEModule.cpp
; File C:\Program Files\Microsoft Visual Studio\2022\Community\VC\Tools\MSVC\14.44.35207\include\xstring
; File D:\_m2work\txoko-m2-work\txoko-client-src\source\UserInterface\PythonIMEModule.cpp
; File C:\Program Files\Microsoft Visual Studio\2022\Community\VC\Tools\MSVC\14.44.35207\include\xstring
; File D:\_m2work\txoko-m2-work\txoko-client-src\source\UserInterface\PythonIMEModule.cpp
; File C:\Program Files\Microsoft Visual Studio\2022\Community\VC\Tools\MSVC\14.44.35207\include\xstring
; File D:\_m2work\txoko-m2-work\txoko-client-src\source\UserInterface\PythonIMEModule.cpp
; File C:\Program Files\Microsoft Visual Studio\2022\Community\VC\Tools\MSVC\14.44.35207\include\xstring
; File C:\Program Files\Microsoft Visual Studio\2022\Community\VC\Tools\MSVC\14.44.35207\include\xmemory
; File C:\Program Files\Microsoft Visual Studio\2022\Community\VC\Tools\MSVC\14.44.35207\include\xstring
; File C:\Program Files\Microsoft Visual Studio\2022\Community\VC\Tools\MSVC\14.44.35207\include\xmemory
; File D:\_m2work\txoko-m2-work\txoko-client-src\source\UserInterface\PythonIMEModule.cpp
; File C:\Program Files\Microsoft Visual Studio\2022\Community\VC\Tools\MSVC\14.44.35207\include\xmemory
; File D:\_m2work\txoko-m2-work\txoko-client-src\source\UserInterface\PythonIMEModule.cpp
;	COMDAT ?imeGetText@@YAPAU_object@@PAU1@0@Z
_TEXT	SEGMENT
_bCodePage$ = -44					; size = 4
_strText$ = -40						; size = 24
__$ArrayPad$ = -16					; size = 4
__$EHRec$ = -12						; size = 12
_poSelf$ = 8						; size = 4
_poArgs$ = 12						; size = 4
?imeGetText@@YAPAU_object@@PAU1@0@Z PROC		; imeGetText, COMDAT

; 60   : {	

  00000	55		 push	 ebp
  00001	8b ec		 mov	 ebp, esp
  00003	6a ff		 push	 -1
  00005	68 00 00 00 00	 push	 __ehhandler$?imeGetText@@YAPAU_object@@PAU1@0@Z
  0000a	64 a1 00 00 00
	00		 mov	 eax, DWORD PTR fs:0
  00010	50		 push	 eax
  00011	83 ec 20	 sub	 esp, 32			; 00000020H
  00014	a1 00 00 00 00	 mov	 eax, DWORD PTR ___security_cookie
  00019	33 c5		 xor	 eax, ebp
  0001b	89 45 f0	 mov	 DWORD PTR __$ArrayPad$[ebp], eax
  0001e	56		 push	 esi
  0001f	50		 push	 eax
  00020	8d 45 f4	 lea	 eax, DWORD PTR __$EHRec$[ebp]
  00023	64 a3 00 00 00
	00		 mov	 DWORD PTR fs:0, eax
  00029	8b 45 0c	 mov	 eax, DWORD PTR _poArgs$[ebp]

; 61   : 	int bCodePage;
; 62   : 	if (!PyTuple_GetInteger(poArgs, 0, &bCodePage))

  0002c	8d 4d d4	 lea	 ecx, DWORD PTR _bCodePage$[ebp]
  0002f	51		 push	 ecx
  00030	6a 00		 push	 0
  00032	50		 push	 eax
  00033	e8 00 00 00 00	 call	 ?PyTuple_GetInteger@@YA_NPAU_object@@HPAH@Z ; PyTuple_GetInteger
  00038	83 c4 0c	 add	 esp, 12			; 0000000cH
  0003b	84 c0		 test	 al, al
  0003d	75 07		 jne	 SHORT $LN68@imeGetText

; 63   : 		bCodePage = 0;

  0003f	33 c0		 xor	 eax, eax
  00041	89 45 d4	 mov	 DWORD PTR _bCodePage$[ebp], eax
  00044	eb 03		 jmp	 SHORT $LN2@imeGetText
$LN68@imeGetText:

; 61   : 	int bCodePage;
; 62   : 	if (!PyTuple_GetInteger(poArgs, 0, &bCodePage))

  00046	8b 45 d4	 mov	 eax, DWORD PTR _bCodePage$[ebp]
$LN2@imeGetText:
  00049	0f 57 c0	 xorps	 xmm0, xmm0
; File C:\Program Files\Microsoft Visual Studio\2022\Community\VC\Tools\MSVC\14.44.35207\include\xstring

; 860  :         _My_data._Mysize = 0;

  0004c	c7 45 e8 00 00
	00 00		 mov	 DWORD PTR _strText$[ebp+16], 0

; 493  :         _CONSTEXPR20 _Bxty() noexcept : _Buf() {} // user-provided, for fancy pointers

  00053	0f 11 45 d8	 movups	 XMMWORD PTR _strText$[ebp], xmm0

; 861  :         _My_data._Myres  = _Small_string_capacity;

  00057	c7 45 ec 0f 00
	00 00		 mov	 DWORD PTR _strText$[ebp+20], 15 ; 0000000fH

; 862  :         _My_data._Activate_SSO_buffer();
; 863  : 
; 864  :         // the _Traits::assign is last so the codegen doesn't think the char write can alias this
; 865  :         _Traits::assign(_My_data._Bx._Buf[0], _Elem());

  0005e	c6 45 d8 00	 mov	 BYTE PTR _strText$[ebp], 0
; File D:\_m2work\txoko-m2-work\txoko-client-src\source\UserInterface\PythonIMEModule.cpp

; 66   : 	CPythonIME::Instance().GetText(strText, bCodePage ? true : false);

  00062	85 c0		 test	 eax, eax
  00064	c7 45 fc 00 00
	00 00		 mov	 DWORD PTR __$EHRec$[ebp+8], 0
  0006b	8b 0d 00 00 00
	00		 mov	 ecx, DWORD PTR ?ms_singleton@?$CSingleton@VCPythonIME@@@@0PAVCPythonIME@@A ; CSingleton<CPythonIME>::ms_singleton
  00071	0f 95 c0	 setne	 al
  00074	0f b6 c0	 movzx	 eax, al
  00077	50		 push	 eax
  00078	8d 45 d8	 lea	 eax, DWORD PTR _strText$[ebp]
  0007b	50		 push	 eax
  0007c	8d 49 04	 lea	 ecx, DWORD PTR [ecx+4]
  0007f	e8 00 00 00 00	 call	 ?GetText@CIME@@QAEHAAV?$basic_string@DU?$char_traits@D@std@@V?$allocator@D@2@@std@@_N@Z ; CIME::GetText
; File C:\Program Files\Microsoft Visual Studio\2022\Community\VC\Tools\MSVC\14.44.35207\include\xstring

; 453  :         return _Myres > _Small_string_capacity;

  00084	83 7d ec 0f	 cmp	 DWORD PTR _strText$[ebp+20], 15 ; 0000000fH

; 444  :         const value_type* _Result = _Bx._Buf;

  00088	8d 45 d8	 lea	 eax, DWORD PTR _strText$[ebp]

; 445  :         if (_Large_mode_engaged()) {

  0008b	0f 47 45 d8	 cmova	 eax, DWORD PTR _strText$[ebp]
; File D:\_m2work\txoko-m2-work\txoko-client-src\source\UserInterface\PythonIMEModule.cpp

; 67   : 	return Py_BuildValue("s", strText.c_str());

  0008f	50		 push	 eax
  00090	68 00 00 00 00	 push	 OFFSET ??_C@_01LKDEMHDF@s@
  00095	ff 15 00 00 00
	00		 call	 DWORD PTR __imp__Py_BuildValue
; File C:\Program Files\Microsoft Visual Studio\2022\Community\VC\Tools\MSVC\14.44.35207\include\xstring

; 453  :         return _Myres > _Small_string_capacity;

  0009b	8b 4d ec	 mov	 ecx, DWORD PTR _strText$[ebp+20]
; File D:\_m2work\txoko-m2-work\txoko-client-src\source\UserInterface\PythonIMEModule.cpp

; 67   : 	return Py_BuildValue("s", strText.c_str());

  0009e	83 c4 08	 add	 esp, 8
  000a1	8b f0		 mov	 esi, eax
; File C:\Program Files\Microsoft Visual Studio\2022\Community\VC\Tools\MSVC\14.44.35207\include\xstring

; 453  :         return _Myres > _Small_string_capacity;

  000a3	83 f9 0f	 cmp	 ecx, 15			; 0000000fH

; 3083 :         if (_My_data._Large_mode_engaged()) {

  000a6	76 28		 jbe	 SHORT $LN53@imeGetText
; File C:\Program Files\Microsoft Visual Studio\2022\Community\VC\Tools\MSVC\14.44.35207\include\xmemory

; 985  :         _STD _Deallocate<_New_alignof<_Ty>>(_Ptr, sizeof(_Ty) * _Count);

  000a8	8b 55 d8	 mov	 edx, DWORD PTR _strText$[ebp]
; File C:\Program Files\Microsoft Visual Studio\2022\Community\VC\Tools\MSVC\14.44.35207\include\xstring

; 852  :         _Al.deallocate(_Old_ptr, _Capacity + 1); // +1 for null terminator

  000ab	41		 inc	 ecx
; File C:\Program Files\Microsoft Visual Studio\2022\Community\VC\Tools\MSVC\14.44.35207\include\xmemory

; 985  :         _STD _Deallocate<_New_alignof<_Ty>>(_Ptr, sizeof(_Ty) * _Count);

  000ac	8b c2		 mov	 eax, edx

; 284  :         if (_Bytes >= _Big_allocation_threshold) {

  000ae	81 f9 00 10 00
	00		 cmp	 ecx, 4096		; 00001000H
  000b4	72 10		 jb	 SHORT $LN61@imeGetText

; 205  :     const uintptr_t _Ptr_container   = _Ptr_user[-1];

  000b6	8b 50 fc	 mov	 edx, DWORD PTR [eax-4]
  000b9	83 c1 23	 add	 ecx, 35			; 00000023H
  000bc	2b c2		 sub	 eax, edx

; 219  :     _STL_VERIFY(_Back_shift >= _Min_back_shift && _Back_shift <= _Non_user_size, "invalid argument");

  000be	83 c0 fc	 add	 eax, -4			; fffffffcH
  000c1	83 f8 1f	 cmp	 eax, 31			; 0000001fH
  000c4	77 26		 ja	 SHORT $LN72@imeGetText
$LN61@imeGetText:

; 289  :         ::operator delete(_Ptr, _Bytes);

  000c6	51		 push	 ecx
  000c7	52		 push	 edx
  000c8	e8 00 00 00 00	 call	 ??3@YAXPAXI@Z		; operator delete
  000cd	83 c4 08	 add	 esp, 8
$LN53@imeGetText:
; File D:\_m2work\txoko-m2-work\txoko-client-src\source\UserInterface\PythonIMEModule.cpp

; 67   : 	return Py_BuildValue("s", strText.c_str());

  000d0	8b c6		 mov	 eax, esi

; 68   : }

  000d2	8b 4d f4	 mov	 ecx, DWORD PTR __$EHRec$[ebp]
  000d5	64 89 0d 00 00
	00 00		 mov	 DWORD PTR fs:0, ecx
  000dc	59		 pop	 ecx
  000dd	5e		 pop	 esi
  000de	8b 4d f0	 mov	 ecx, DWORD PTR __$ArrayPad$[ebp]
  000e1	33 cd		 xor	 ecx, ebp
  000e3	e8 00 00 00 00	 call	 @__security_check_cookie@4
  000e8	8b e5		 mov	 esp, ebp
  000ea	5d		 pop	 ebp
  000eb	c3		 ret	 0
$LN72@imeGetText:
; File C:\Program Files\Microsoft Visual Studio\2022\Community\VC\Tools\MSVC\14.44.35207\include\xmemory

; 219  :     _STL_VERIFY(_Back_shift >= _Min_back_shift && _Back_shift <= _Non_user_size, "invalid argument");

  000ec	6a 00		 push	 0
  000ee	6a 00		 push	 0
  000f0	6a 00		 push	 0
  000f2	6a 00		 push	 0
  000f4	6a 00		 push	 0
  000f6	e8 00 00 00 00	 call	 __invoke_watson
$LN70@imeGetText:
  000fb	cc		 int	 3
_TEXT	ENDS
;	COMDAT text$x
text$x	SEGMENT
__unwindfunclet$?imeGetText@@YAPAU_object@@PAU1@0@Z$0:
  00000	8d 4d d8	 lea	 ecx, DWORD PTR _strText$[ebp]
  00003	e9 00 00 00 00	 jmp	 ??1?$basic_string@DU?$char_traits@D@std@@V?$allocator@D@2@@std@@QAE@XZ ; std::basic_string<char,std::char_traits<char>,std::allocator<char> >::~basic_string<char,std::char_traits<char>,std::allocator<char> >
  00008	cc		 int	 3
  00009	cc		 int	 3
  0000a	cc		 int	 3
  0000b	cc		 int	 3
  0000c	cc		 int	 3
__ehhandler$?imeGetText@@YAPAU_object@@PAU1@0@Z:
  0000d	90		 npad	 1
  0000e	90		 npad	 1
  0000f	8b 54 24 08	 mov	 edx, DWORD PTR [esp+8]
  00013	8d 42 0c	 lea	 eax, DWORD PTR [edx+12]
  00016	8b 4a d8	 mov	 ecx, DWORD PTR [edx-40]
  00019	33 c8		 xor	 ecx, eax
  0001b	e8 00 00 00 00	 call	 @__security_check_cookie@4
  00020	8b 4a fc	 mov	 ecx, DWORD PTR [edx-4]
  00023	33 c8		 xor	 ecx, eax
  00025	e8 00 00 00 00	 call	 @__security_check_cookie@4
  0002a	b8 00 00 00 00	 mov	 eax, OFFSET __ehfuncinfo$?imeGetText@@YAPAU_object@@PAU1@0@Z
  0002f	e9 00 00 00 00	 jmp	 ___CxxFrameHandler3
text$x	ENDS
?imeGetText@@YAPAU_object@@PAU1@0@Z ENDP		; imeGetText
; Function compile flags: /Ogtp
; File D:\_m2work\txoko-m2-work\txoko-client-src\source\UserInterface\PythonIMEModule.cpp
;	COMDAT ?imeGetCodePage@@YAPAU_object@@PAU1@0@Z
_TEXT	SEGMENT
_poSelf$ = 8						; size = 4
_poArgs$ = 12						; size = 4
?imeGetCodePage@@YAPAU_object@@PAU1@0@Z PROC		; imeGetCodePage, COMDAT

; 72   : 	return Py_BuildValue("i", CPythonIME::Instance().GetCodePage());

  00000	8b 0d 00 00 00
	00		 mov	 ecx, DWORD PTR ?ms_singleton@?$CSingleton@VCPythonIME@@@@0PAVCPythonIME@@A ; CSingleton<CPythonIME>::ms_singleton
  00006	8d 49 04	 lea	 ecx, DWORD PTR [ecx+4]
  00009	e8 00 00 00 00	 call	 ?GetCodePage@CIME@@QAEHXZ ; CIME::GetCodePage
  0000e	50		 push	 eax
  0000f	68 00 00 00 00	 push	 OFFSET ??_C@_01KBJDNOO@i@
  00014	ff 15 00 00 00
	00		 call	 DWORD PTR __imp__Py_BuildValue
  0001a	83 c4 08	 add	 esp, 8

; 73   : }

  0001d	c3		 ret	 0
?imeGetCodePage@@YAPAU_object@@PAU1@0@Z ENDP		; imeGetCodePage
_TEXT	ENDS
; Function compile flags: /Ogtp
; File D:\_m2work\txoko-m2-work\txoko-client-src\source\UserInterface\PythonIMEModule.cpp
;	COMDAT ?imeGetCandidateCount@@YAPAU_object@@PAU1@0@Z
_TEXT	SEGMENT
_poSelf$ = 8						; size = 4
_poArgs$ = 12						; size = 4
?imeGetCandidateCount@@YAPAU_object@@PAU1@0@Z PROC	; imeGetCandidateCount, COMDAT

; 77   : 	return Py_BuildValue("i", CPythonIME::Instance().GetCandidatePageCount());

  00000	8b 0d 00 00 00
	00		 mov	 ecx, DWORD PTR ?ms_singleton@?$CSingleton@VCPythonIME@@@@0PAVCPythonIME@@A ; CSingleton<CPythonIME>::ms_singleton
  00006	8d 49 04	 lea	 ecx, DWORD PTR [ecx+4]
  00009	e8 00 00 00 00	 call	 ?GetCandidatePageCount@CIME@@QAEHXZ ; CIME::GetCandidatePageCount
  0000e	50		 push	 eax
  0000f	68 00 00 00 00	 push	 OFFSET ??_C@_01KBJDNOO@i@
  00014	ff 15 00 00 00
	00		 call	 DWORD PTR __imp__Py_BuildValue
  0001a	83 c4 08	 add	 esp, 8

; 78   : }

  0001d	c3		 ret	 0
?imeGetCandidateCount@@YAPAU_object@@PAU1@0@Z ENDP	; imeGetCandidateCount
_TEXT	ENDS
; Function compile flags: /Ogtp
; File D:\_m2work\txoko-m2-work\txoko-client-src\source\UserInterface\PythonIMEModule.cpp
; File C:\Program Files\Microsoft Visual Studio\2022\Community\VC\Tools\MSVC\14.44.35207\include\xstring
; File D:\_m2work\txoko-m2-work\txoko-client-src\source\UserInterface\PythonIMEModule.cpp
; File C:\Program Files\Microsoft Visual Studio\2022\Community\VC\Tools\MSVC\14.44.35207\include\xstring
; File D:\_m2work\txoko-m2-work\txoko-client-src\source\UserInterface\PythonIMEModule.cpp
; File C:\Program Files\Microsoft Visual Studio\2022\Community\VC\Tools\MSVC\14.44.35207\include\xstring
; File D:\_m2work\txoko-m2-work\txoko-client-src\source\UserInterface\PythonIMEModule.cpp
; File C:\Program Files\Microsoft Visual Studio\2022\Community\VC\Tools\MSVC\14.44.35207\include\xstring
; File D:\_m2work\txoko-m2-work\txoko-client-src\source\UserInterface\PythonIMEModule.cpp
; File C:\Program Files\Microsoft Visual Studio\2022\Community\VC\Tools\MSVC\14.44.35207\include\xstring
; File C:\Program Files\Microsoft Visual Studio\2022\Community\VC\Tools\MSVC\14.44.35207\include\xmemory
; File C:\Program Files\Microsoft Visual Studio\2022\Community\VC\Tools\MSVC\14.44.35207\include\xstring
; File C:\Program Files\Microsoft Visual Studio\2022\Community\VC\Tools\MSVC\14.44.35207\include\xmemory
; File D:\_m2work\txoko-m2-work\txoko-client-src\source\UserInterface\PythonIMEModule.cpp
; File C:\Program Files\Microsoft Visual Studio\2022\Community\VC\Tools\MSVC\14.44.35207\include\xmemory
; File D:\_m2work\txoko-m2-work\txoko-client-src\source\UserInterface\PythonIMEModule.cpp
;	COMDAT ?imeGetCandidate@@YAPAU_object@@PAU1@0@Z
_TEXT	SEGMENT
_index$ = -44						; size = 4
_strText$ = -40						; size = 24
__$ArrayPad$ = -16					; size = 4
__$EHRec$ = -12						; size = 12
_poSelf$ = 8						; size = 4
_poArgs$ = 12						; size = 4
?imeGetCandidate@@YAPAU_object@@PAU1@0@Z PROC		; imeGetCandidate, COMDAT

; 81   : {

  00000	55		 push	 ebp
  00001	8b ec		 mov	 ebp, esp
  00003	6a ff		 push	 -1
  00005	68 00 00 00 00	 push	 __ehhandler$?imeGetCandidate@@YAPAU_object@@PAU1@0@Z
  0000a	64 a1 00 00 00
	00		 mov	 eax, DWORD PTR fs:0
  00010	50		 push	 eax
  00011	83 ec 20	 sub	 esp, 32			; 00000020H
  00014	a1 00 00 00 00	 mov	 eax, DWORD PTR ___security_cookie
  00019	33 c5		 xor	 eax, ebp
  0001b	89 45 f0	 mov	 DWORD PTR __$ArrayPad$[ebp], eax
  0001e	56		 push	 esi
  0001f	50		 push	 eax
  00020	8d 45 f4	 lea	 eax, DWORD PTR __$EHRec$[ebp]
  00023	64 a3 00 00 00
	00		 mov	 DWORD PTR fs:0, eax
  00029	8b 45 0c	 mov	 eax, DWORD PTR _poArgs$[ebp]

; 82   : 	int index;
; 83   : 	if (!PyTuple_GetInteger(poArgs, 0, &index))

  0002c	8d 4d d4	 lea	 ecx, DWORD PTR _index$[ebp]
  0002f	51		 push	 ecx
  00030	6a 00		 push	 0
  00032	50		 push	 eax
  00033	e8 00 00 00 00	 call	 ?PyTuple_GetInteger@@YA_NPAU_object@@HPAH@Z ; PyTuple_GetInteger
  00038	83 c4 0c	 add	 esp, 12			; 0000000cH
  0003b	84 c0		 test	 al, al
  0003d	75 0f		 jne	 SHORT $LN2@imeGetCand

; 84   : 		return Py_BuildException();

  0003f	6a 00		 push	 0
  00041	e8 00 00 00 00	 call	 ?Py_BuildException@@YAPAU_object@@PBDZZ ; Py_BuildException
  00046	83 c4 04	 add	 esp, 4
  00049	e9 84 00 00 00	 jmp	 $LN1@imeGetCand
$LN2@imeGetCand:
  0004e	0f 57 c0	 xorps	 xmm0, xmm0
; File C:\Program Files\Microsoft Visual Studio\2022\Community\VC\Tools\MSVC\14.44.35207\include\xstring

; 860  :         _My_data._Mysize = 0;

  00051	c7 45 e8 00 00
	00 00		 mov	 DWORD PTR _strText$[ebp+16], 0

; 493  :         _CONSTEXPR20 _Bxty() noexcept : _Buf() {} // user-provided, for fancy pointers

  00058	0f 11 45 d8	 movups	 XMMWORD PTR _strText$[ebp], xmm0

; 861  :         _My_data._Myres  = _Small_string_capacity;

  0005c	c7 45 ec 0f 00
	00 00		 mov	 DWORD PTR _strText$[ebp+20], 15 ; 0000000fH

; 862  :         _My_data._Activate_SSO_buffer();
; 863  : 
; 864  :         // the _Traits::assign is last so the codegen doesn't think the char write can alias this
; 865  :         _Traits::assign(_My_data._Bx._Buf[0], _Elem());

  00063	c6 45 d8 00	 mov	 BYTE PTR _strText$[ebp], 0
; File D:\_m2work\txoko-m2-work\txoko-client-src\source\UserInterface\PythonIMEModule.cpp

; 86   : 	std::string strText;

  00067	c7 45 fc 00 00
	00 00		 mov	 DWORD PTR __$EHRec$[ebp+8], 0

; 87   : 	int iLength = CPythonIME::Instance().GetCandidate(index, strText);

  0006e	8d 45 d8	 lea	 eax, DWORD PTR _strText$[ebp]
  00071	8b 0d 00 00 00
	00		 mov	 ecx, DWORD PTR ?ms_singleton@?$CSingleton@VCPythonIME@@@@0PAVCPythonIME@@A ; CSingleton<CPythonIME>::ms_singleton
  00077	50		 push	 eax
  00078	ff 75 d4	 push	 DWORD PTR _index$[ebp]
  0007b	8d 49 04	 lea	 ecx, DWORD PTR [ecx+4]
  0007e	e8 00 00 00 00	 call	 ?GetCandidate@CIME@@QAEHKAAV?$basic_string@DU?$char_traits@D@std@@V?$allocator@D@2@@std@@@Z ; CIME::GetCandidate
; File C:\Program Files\Microsoft Visual Studio\2022\Community\VC\Tools\MSVC\14.44.35207\include\xstring

; 453  :         return _Myres > _Small_string_capacity;

  00083	83 7d ec 0f	 cmp	 DWORD PTR _strText$[ebp+20], 15 ; 0000000fH

; 444  :         const value_type* _Result = _Bx._Buf;

  00087	8d 4d d8	 lea	 ecx, DWORD PTR _strText$[ebp]
; File D:\_m2work\txoko-m2-work\txoko-client-src\source\UserInterface\PythonIMEModule.cpp

; 88   : 	return Py_BuildValue("si", strText.c_str(), iLength);

  0008a	50		 push	 eax
; File C:\Program Files\Microsoft Visual Studio\2022\Community\VC\Tools\MSVC\14.44.35207\include\xstring

; 445  :         if (_Large_mode_engaged()) {

  0008b	0f 47 4d d8	 cmova	 ecx, DWORD PTR _strText$[ebp]
; File D:\_m2work\txoko-m2-work\txoko-client-src\source\UserInterface\PythonIMEModule.cpp

; 88   : 	return Py_BuildValue("si", strText.c_str(), iLength);

  0008f	51		 push	 ecx
  00090	68 00 00 00 00	 push	 OFFSET ??_C@_02OCDGCAAK@si@
  00095	ff 15 00 00 00
	00		 call	 DWORD PTR __imp__Py_BuildValue
; File C:\Program Files\Microsoft Visual Studio\2022\Community\VC\Tools\MSVC\14.44.35207\include\xstring

; 453  :         return _Myres > _Small_string_capacity;

  0009b	8b 4d ec	 mov	 ecx, DWORD PTR _strText$[ebp+20]
; File D:\_m2work\txoko-m2-work\txoko-client-src\source\UserInterface\PythonIMEModule.cpp

; 88   : 	return Py_BuildValue("si", strText.c_str(), iLength);

  0009e	83 c4 0c	 add	 esp, 12			; 0000000cH
  000a1	8b f0		 mov	 esi, eax
; File C:\Program Files\Microsoft Visual Studio\2022\Community\VC\Tools\MSVC\14.44.35207\include\xstring

; 453  :         return _Myres > _Small_string_capacity;

  000a3	83 f9 0f	 cmp	 ecx, 15			; 0000000fH

; 3083 :         if (_My_data._Large_mode_engaged()) {

  000a6	76 28		 jbe	 SHORT $LN53@imeGetCand
; File C:\Program Files\Microsoft Visual Studio\2022\Community\VC\Tools\MSVC\14.44.35207\include\xmemory

; 985  :         _STD _Deallocate<_New_alignof<_Ty>>(_Ptr, sizeof(_Ty) * _Count);

  000a8	8b 55 d8	 mov	 edx, DWORD PTR _strText$[ebp]
; File C:\Program Files\Microsoft Visual Studio\2022\Community\VC\Tools\MSVC\14.44.35207\include\xstring

; 852  :         _Al.deallocate(_Old_ptr, _Capacity + 1); // +1 for null terminator

  000ab	41		 inc	 ecx
; File C:\Program Files\Microsoft Visual Studio\2022\Community\VC\Tools\MSVC\14.44.35207\include\xmemory

; 985  :         _STD _Deallocate<_New_alignof<_Ty>>(_Ptr, sizeof(_Ty) * _Count);

  000ac	8b c2		 mov	 eax, edx

; 284  :         if (_Bytes >= _Big_allocation_threshold) {

  000ae	81 f9 00 10 00
	00		 cmp	 ecx, 4096		; 00001000H
  000b4	72 10		 jb	 SHORT $LN61@imeGetCand

; 205  :     const uintptr_t _Ptr_container   = _Ptr_user[-1];

  000b6	8b 50 fc	 mov	 edx, DWORD PTR [eax-4]
  000b9	83 c1 23	 add	 ecx, 35			; 00000023H
  000bc	2b c2		 sub	 eax, edx

; 219  :     _STL_VERIFY(_Back_shift >= _Min_back_shift && _Back_shift <= _Non_user_size, "invalid argument");

  000be	83 c0 fc	 add	 eax, -4			; fffffffcH
  000c1	83 f8 1f	 cmp	 eax, 31			; 0000001fH
  000c4	77 26		 ja	 SHORT $LN71@imeGetCand
$LN61@imeGetCand:

; 289  :         ::operator delete(_Ptr, _Bytes);

  000c6	51		 push	 ecx
  000c7	52		 push	 edx
  000c8	e8 00 00 00 00	 call	 ??3@YAXPAXI@Z		; operator delete
  000cd	83 c4 08	 add	 esp, 8
$LN53@imeGetCand:
; File D:\_m2work\txoko-m2-work\txoko-client-src\source\UserInterface\PythonIMEModule.cpp

; 88   : 	return Py_BuildValue("si", strText.c_str(), iLength);

  000d0	8b c6		 mov	 eax, esi
$LN1@imeGetCand:

; 89   : }

  000d2	8b 4d f4	 mov	 ecx, DWORD PTR __$EHRec$[ebp]
  000d5	64 89 0d 00 00
	00 00		 mov	 DWORD PTR fs:0, ecx
  000dc	59		 pop	 ecx
  000dd	5e		 pop	 esi
  000de	8b 4d f0	 mov	 ecx, DWORD PTR __$ArrayPad$[ebp]
  000e1	33 cd		 xor	 ecx, ebp
  000e3	e8 00 00 00 00	 call	 @__security_check_cookie@4
  000e8	8b e5		 mov	 esp, ebp
  000ea	5d		 pop	 ebp
  000eb	c3		 ret	 0
$LN71@imeGetCand:
; File C:\Program Files\Microsoft Visual Studio\2022\Community\VC\Tools\MSVC\14.44.35207\include\xmemory

; 219  :     _STL_VERIFY(_Back_shift >= _Min_back_shift && _Back_shift <= _Non_user_size, "invalid argument");

  000ec	6a 00		 push	 0
  000ee	6a 00		 push	 0
  000f0	6a 00		 push	 0
  000f2	6a 00		 push	 0
  000f4	6a 00		 push	 0
  000f6	e8 00 00 00 00	 call	 __invoke_watson
$LN69@imeGetCand:
  000fb	cc		 int	 3
_TEXT	ENDS
;	COMDAT text$x
text$x	SEGMENT
__unwindfunclet$?imeGetCandidate@@YAPAU_object@@PAU1@0@Z$0:
  00000	8d 4d d8	 lea	 ecx, DWORD PTR _strText$[ebp]
  00003	e9 00 00 00 00	 jmp	 ??1?$basic_string@DU?$char_traits@D@std@@V?$allocator@D@2@@std@@QAE@XZ ; std::basic_string<char,std::char_traits<char>,std::allocator<char> >::~basic_string<char,std::char_traits<char>,std::allocator<char> >
  00008	cc		 int	 3
  00009	cc		 int	 3
  0000a	cc		 int	 3
  0000b	cc		 int	 3
  0000c	cc		 int	 3
__ehhandler$?imeGetCandidate@@YAPAU_object@@PAU1@0@Z:
  0000d	90		 npad	 1
  0000e	90		 npad	 1
  0000f	8b 54 24 08	 mov	 edx, DWORD PTR [esp+8]
  00013	8d 42 0c	 lea	 eax, DWORD PTR [edx+12]
  00016	8b 4a d8	 mov	 ecx, DWORD PTR [edx-40]
  00019	33 c8		 xor	 ecx, eax
  0001b	e8 00 00 00 00	 call	 @__security_check_cookie@4
  00020	8b 4a fc	 mov	 ecx, DWORD PTR [edx-4]
  00023	33 c8		 xor	 ecx, eax
  00025	e8 00 00 00 00	 call	 @__security_check_cookie@4
  0002a	b8 00 00 00 00	 mov	 eax, OFFSET __ehfuncinfo$?imeGetCandidate@@YAPAU_object@@PAU1@0@Z
  0002f	e9 00 00 00 00	 jmp	 ___CxxFrameHandler3
text$x	ENDS
?imeGetCandidate@@YAPAU_object@@PAU1@0@Z ENDP		; imeGetCandidate
; Function compile flags: /Ogtp
; File D:\_m2work\txoko-m2-work\txoko-client-src\source\UserInterface\PythonIMEModule.cpp
;	COMDAT ?imeGetCandidateSelection@@YAPAU_object@@PAU1@0@Z
_TEXT	SEGMENT
_poSelf$ = 8						; size = 4
_poArgs$ = 12						; size = 4
?imeGetCandidateSelection@@YAPAU_object@@PAU1@0@Z PROC	; imeGetCandidateSelection, COMDAT

; 93   : 	return Py_BuildValue("i", CPythonIME::Instance().GetCandidateSelection());

  00000	8b 0d 00 00 00
	00		 mov	 ecx, DWORD PTR ?ms_singleton@?$CSingleton@VCPythonIME@@@@0PAVCPythonIME@@A ; CSingleton<CPythonIME>::ms_singleton
  00006	8d 49 04	 lea	 ecx, DWORD PTR [ecx+4]
  00009	e8 00 00 00 00	 call	 ?GetCandidateSelection@CIME@@QAEHXZ ; CIME::GetCandidateSelection
  0000e	50		 push	 eax
  0000f	68 00 00 00 00	 push	 OFFSET ??_C@_01KBJDNOO@i@
  00014	ff 15 00 00 00
	00		 call	 DWORD PTR __imp__Py_BuildValue
  0001a	83 c4 08	 add	 esp, 8

; 94   : }

  0001d	c3		 ret	 0
?imeGetCandidateSelection@@YAPAU_object@@PAU1@0@Z ENDP	; imeGetCandidateSelection
_TEXT	ENDS
; Function compile flags: /Ogtp
; File D:\_m2work\txoko-m2-work\txoko-client-src\source\UserInterface\PythonIMEModule.cpp
; File C:\Program Files\Microsoft Visual Studio\2022\Community\VC\Tools\MSVC\14.44.35207\include\xstring
; File D:\_m2work\txoko-m2-work\txoko-client-src\source\UserInterface\PythonIMEModule.cpp
; File C:\Program Files\Microsoft Visual Studio\2022\Community\VC\Tools\MSVC\14.44.35207\include\xstring
; File D:\_m2work\txoko-m2-work\txoko-client-src\source\UserInterface\PythonIMEModule.cpp
; File C:\Program Files\Microsoft Visual Studio\2022\Community\VC\Tools\MSVC\14.44.35207\include\xstring
; File D:\_m2work\txoko-m2-work\txoko-client-src\source\UserInterface\PythonIMEModule.cpp
; File C:\Program Files\Microsoft Visual Studio\2022\Community\VC\Tools\MSVC\14.44.35207\include\xstring
; File C:\Program Files\Microsoft Visual Studio\2022\Community\VC\Tools\MSVC\14.44.35207\include\xmemory
; File C:\Program Files\Microsoft Visual Studio\2022\Community\VC\Tools\MSVC\14.44.35207\include\xstring
; File C:\Program Files\Microsoft Visual Studio\2022\Community\VC\Tools\MSVC\14.44.35207\include\xmemory
; File D:\_m2work\txoko-m2-work\txoko-client-src\source\UserInterface\PythonIMEModule.cpp
; File C:\Program Files\Microsoft Visual Studio\2022\Community\VC\Tools\MSVC\14.44.35207\include\xmemory
; File D:\_m2work\txoko-m2-work\txoko-client-src\source\UserInterface\PythonIMEModule.cpp
;	COMDAT ?imeGetReading@@YAPAU_object@@PAU1@0@Z
_TEXT	SEGMENT
_strText$ = -40						; size = 24
__$ArrayPad$ = -16					; size = 4
__$EHRec$ = -12						; size = 12
_poSelf$ = 8						; size = 4
_poArgs$ = 12						; size = 4
?imeGetReading@@YAPAU_object@@PAU1@0@Z PROC		; imeGetReading, COMDAT

; 97   : {	

  00000	55		 push	 ebp
  00001	8b ec		 mov	 ebp, esp
  00003	6a ff		 push	 -1
  00005	68 00 00 00 00	 push	 __ehhandler$?imeGetReading@@YAPAU_object@@PAU1@0@Z
  0000a	64 a1 00 00 00
	00		 mov	 eax, DWORD PTR fs:0
  00010	50		 push	 eax
  00011	83 ec 1c	 sub	 esp, 28			; 0000001cH
  00014	a1 00 00 00 00	 mov	 eax, DWORD PTR ___security_cookie
  00019	33 c5		 xor	 eax, ebp
  0001b	89 45 f0	 mov	 DWORD PTR __$ArrayPad$[ebp], eax
  0001e	56		 push	 esi
  0001f	50		 push	 eax
  00020	8d 45 f4	 lea	 eax, DWORD PTR __$EHRec$[ebp]
  00023	64 a3 00 00 00
	00		 mov	 DWORD PTR fs:0, eax
  00029	0f 57 c0	 xorps	 xmm0, xmm0
; File C:\Program Files\Microsoft Visual Studio\2022\Community\VC\Tools\MSVC\14.44.35207\include\xstring

; 860  :         _My_data._Mysize = 0;

  0002c	c7 45 e8 00 00
	00 00		 mov	 DWORD PTR _strText$[ebp+16], 0

; 493  :         _CONSTEXPR20 _Bxty() noexcept : _Buf() {} // user-provided, for fancy pointers

  00033	0f 11 45 d8	 movups	 XMMWORD PTR _strText$[ebp], xmm0

; 861  :         _My_data._Myres  = _Small_string_capacity;

  00037	c7 45 ec 0f 00
	00 00		 mov	 DWORD PTR _strText$[ebp+20], 15 ; 0000000fH

; 862  :         _My_data._Activate_SSO_buffer();
; 863  : 
; 864  :         // the _Traits::assign is last so the codegen doesn't think the char write can alias this
; 865  :         _Traits::assign(_My_data._Bx._Buf[0], _Elem());

  0003e	c6 45 d8 00	 mov	 BYTE PTR _strText$[ebp], 0
; File D:\_m2work\txoko-m2-work\txoko-client-src\source\UserInterface\PythonIMEModule.cpp

; 98   : 	std::string strText;

  00042	c7 45 fc 00 00
	00 00		 mov	 DWORD PTR __$EHRec$[ebp+8], 0

; 99   : 	CPythonIME::Instance().GetReading(strText);

  00049	8d 45 d8	 lea	 eax, DWORD PTR _strText$[ebp]
  0004c	8b 0d 00 00 00
	00		 mov	 ecx, DWORD PTR ?ms_singleton@?$CSingleton@VCPythonIME@@@@0PAVCPythonIME@@A ; CSingleton<CPythonIME>::ms_singleton
  00052	50		 push	 eax
  00053	8d 49 04	 lea	 ecx, DWORD PTR [ecx+4]
  00056	e8 00 00 00 00	 call	 ?GetReading@CIME@@QAEHAAV?$basic_string@DU?$char_traits@D@std@@V?$allocator@D@2@@std@@@Z ; CIME::GetReading
; File C:\Program Files\Microsoft Visual Studio\2022\Community\VC\Tools\MSVC\14.44.35207\include\xstring

; 453  :         return _Myres > _Small_string_capacity;

  0005b	83 7d ec 0f	 cmp	 DWORD PTR _strText$[ebp+20], 15 ; 0000000fH

; 444  :         const value_type* _Result = _Bx._Buf;

  0005f	8d 45 d8	 lea	 eax, DWORD PTR _strText$[ebp]

; 445  :         if (_Large_mode_engaged()) {

  00062	0f 47 45 d8	 cmova	 eax, DWORD PTR _strText$[ebp]
; File D:\_m2work\txoko-m2-work\txoko-client-src\source\UserInterface\PythonIMEModule.cpp

; 100  : 	return Py_BuildValue("s", strText.c_str());

  00066	50		 push	 eax
  00067	68 00 00 00 00	 push	 OFFSET ??_C@_01LKDEMHDF@s@
  0006c	ff 15 00 00 00
	00		 call	 DWORD PTR __imp__Py_BuildValue
; File C:\Program Files\Microsoft Visual Studio\2022\Community\VC\Tools\MSVC\14.44.35207\include\xstring

; 453  :         return _Myres > _Small_string_capacity;

  00072	8b 4d ec	 mov	 ecx, DWORD PTR _strText$[ebp+20]
; File D:\_m2work\txoko-m2-work\txoko-client-src\source\UserInterface\PythonIMEModule.cpp

; 100  : 	return Py_BuildValue("s", strText.c_str());

  00075	83 c4 08	 add	 esp, 8
  00078	8b f0		 mov	 esi, eax
; File C:\Program Files\Microsoft Visual Studio\2022\Community\VC\Tools\MSVC\14.44.35207\include\xstring

; 453  :         return _Myres > _Small_string_capacity;

  0007a	83 f9 0f	 cmp	 ecx, 15			; 0000000fH

; 3083 :         if (_My_data._Large_mode_engaged()) {

  0007d	76 28		 jbe	 SHORT $LN52@imeGetRead
; File C:\Program Files\Microsoft Visual Studio\2022\Community\VC\Tools\MSVC\14.44.35207\include\xmemory

; 985  :         _STD _Deallocate<_New_alignof<_Ty>>(_Ptr, sizeof(_Ty) * _Count);

  0007f	8b 55 d8	 mov	 edx, DWORD PTR _strText$[ebp]
; File C:\Program Files\Microsoft Visual Studio\2022\Community\VC\Tools\MSVC\14.44.35207\include\xstring

; 852  :         _Al.deallocate(_Old_ptr, _Capacity + 1); // +1 for null terminator

  00082	41		 inc	 ecx
; File C:\Program Files\Microsoft Visual Studio\2022\Community\VC\Tools\MSVC\14.44.35207\include\xmemory

; 985  :         _STD _Deallocate<_New_alignof<_Ty>>(_Ptr, sizeof(_Ty) * _Count);

  00083	8b c2		 mov	 eax, edx

; 284  :         if (_Bytes >= _Big_allocation_threshold) {

  00085	81 f9 00 10 00
	00		 cmp	 ecx, 4096		; 00001000H
  0008b	72 10		 jb	 SHORT $LN60@imeGetRead

; 205  :     const uintptr_t _Ptr_container   = _Ptr_user[-1];

  0008d	8b 50 fc	 mov	 edx, DWORD PTR [eax-4]
  00090	83 c1 23	 add	 ecx, 35			; 00000023H
  00093	2b c2		 sub	 eax, edx

; 219  :     _STL_VERIFY(_Back_shift >= _Min_back_shift && _Back_shift <= _Non_user_size, "invalid argument");

  00095	83 c0 fc	 add	 eax, -4			; fffffffcH
  00098	83 f8 1f	 cmp	 eax, 31			; 0000001fH
  0009b	77 26		 ja	 SHORT $LN70@imeGetRead
$LN60@imeGetRead:

; 289  :         ::operator delete(_Ptr, _Bytes);

  0009d	51		 push	 ecx
  0009e	52		 push	 edx
  0009f	e8 00 00 00 00	 call	 ??3@YAXPAXI@Z		; operator delete
  000a4	83 c4 08	 add	 esp, 8
$LN52@imeGetRead:
; File D:\_m2work\txoko-m2-work\txoko-client-src\source\UserInterface\PythonIMEModule.cpp

; 100  : 	return Py_BuildValue("s", strText.c_str());

  000a7	8b c6		 mov	 eax, esi

; 101  : }

  000a9	8b 4d f4	 mov	 ecx, DWORD PTR __$EHRec$[ebp]
  000ac	64 89 0d 00 00
	00 00		 mov	 DWORD PTR fs:0, ecx
  000b3	59		 pop	 ecx
  000b4	5e		 pop	 esi
  000b5	8b 4d f0	 mov	 ecx, DWORD PTR __$ArrayPad$[ebp]
  000b8	33 cd		 xor	 ecx, ebp
  000ba	e8 00 00 00 00	 call	 @__security_check_cookie@4
  000bf	8b e5		 mov	 esp, ebp
  000c1	5d		 pop	 ebp
  000c2	c3		 ret	 0
$LN70@imeGetRead:
; File C:\Program Files\Microsoft Visual Studio\2022\Community\VC\Tools\MSVC\14.44.35207\include\xmemory

; 219  :     _STL_VERIFY(_Back_shift >= _Min_back_shift && _Back_shift <= _Non_user_size, "invalid argument");

  000c3	6a 00		 push	 0
  000c5	6a 00		 push	 0
  000c7	6a 00		 push	 0
  000c9	6a 00		 push	 0
  000cb	6a 00		 push	 0
  000cd	e8 00 00 00 00	 call	 __invoke_watson
$LN68@imeGetRead:
  000d2	cc		 int	 3
_TEXT	ENDS
;	COMDAT text$x
text$x	SEGMENT
__unwindfunclet$?imeGetReading@@YAPAU_object@@PAU1@0@Z$0:
  00000	8d 4d d8	 lea	 ecx, DWORD PTR _strText$[ebp]
  00003	e9 00 00 00 00	 jmp	 ??1?$basic_string@DU?$char_traits@D@std@@V?$allocator@D@2@@std@@QAE@XZ ; std::basic_string<char,std::char_traits<char>,std::allocator<char> >::~basic_string<char,std::char_traits<char>,std::allocator<char> >
  00008	cc		 int	 3
  00009	cc		 int	 3
  0000a	cc		 int	 3
  0000b	cc		 int	 3
  0000c	cc		 int	 3
__ehhandler$?imeGetReading@@YAPAU_object@@PAU1@0@Z:
  0000d	90		 npad	 1
  0000e	90		 npad	 1
  0000f	8b 54 24 08	 mov	 edx, DWORD PTR [esp+8]
  00013	8d 42 0c	 lea	 eax, DWORD PTR [edx+12]
  00016	8b 4a dc	 mov	 ecx, DWORD PTR [edx-36]
  00019	33 c8		 xor	 ecx, eax
  0001b	e8 00 00 00 00	 call	 @__security_check_cookie@4
  00020	8b 4a fc	 mov	 ecx, DWORD PTR [edx-4]
  00023	33 c8		 xor	 ecx, eax
  00025	e8 00 00 00 00	 call	 @__security_check_cookie@4
  0002a	b8 00 00 00 00	 mov	 eax, OFFSET __ehfuncinfo$?imeGetReading@@YAPAU_object@@PAU1@0@Z
  0002f	e9 00 00 00 00	 jmp	 ___CxxFrameHandler3
text$x	ENDS
?imeGetReading@@YAPAU_object@@PAU1@0@Z ENDP		; imeGetReading
; Function compile flags: /Ogtp
; File D:\_m2work\txoko-m2-work\txoko-client-src\source\UserInterface\PythonIMEModule.cpp
;	COMDAT ?imeGetReadingError@@YAPAU_object@@PAU1@0@Z
_TEXT	SEGMENT
_poSelf$ = 8						; size = 4
_poArgs$ = 12						; size = 4
?imeGetReadingError@@YAPAU_object@@PAU1@0@Z PROC	; imeGetReadingError, COMDAT

; 105  : 	return Py_BuildValue("i", CPythonIME::Instance().GetReadingError());

  00000	8b 0d 00 00 00
	00		 mov	 ecx, DWORD PTR ?ms_singleton@?$CSingleton@VCPythonIME@@@@0PAVCPythonIME@@A ; CSingleton<CPythonIME>::ms_singleton
  00006	8d 49 04	 lea	 ecx, DWORD PTR [ecx+4]
  00009	e8 00 00 00 00	 call	 ?GetReadingError@CIME@@QAEHXZ ; CIME::GetReadingError
  0000e	50		 push	 eax
  0000f	68 00 00 00 00	 push	 OFFSET ??_C@_01KBJDNOO@i@
  00014	ff 15 00 00 00
	00		 call	 DWORD PTR __imp__Py_BuildValue
  0001a	83 c4 08	 add	 esp, 8

; 106  : }

  0001d	c3		 ret	 0
?imeGetReadingError@@YAPAU_object@@PAU1@0@Z ENDP	; imeGetReadingError
_TEXT	ENDS
; Function compile flags: /Ogtp
; File D:\_m2work\txoko-m2-work\txoko-client-src\source\UserInterface\PythonIMEModule.cpp
;	COMDAT ?imeEnableIME@@YAPAU_object@@PAU1@0@Z
_TEXT	SEGMENT
_poSelf$ = 8						; size = 4
_poArgs$ = 12						; size = 4
?imeEnableIME@@YAPAU_object@@PAU1@0@Z PROC		; imeEnableIME, COMDAT

; 110  : 	CPythonIME::Instance().EnableIME();

  00000	a1 00 00 00 00	 mov	 eax, DWORD PTR ?ms_singleton@?$CSingleton@VCPythonIME@@@@0PAVCPythonIME@@A ; CSingleton<CPythonIME>::ms_singleton
  00005	6a 01		 push	 1
  00007	8d 48 04	 lea	 ecx, DWORD PTR [eax+4]
  0000a	e8 00 00 00 00	 call	 ?EnableIME@CIME@@QAEX_N@Z ; CIME::EnableIME

; 111  : 	return Py_BuildNone();

  0000f	e9 00 00 00 00	 jmp	 ?Py_BuildNone@@YAPAU_object@@XZ ; Py_BuildNone
?imeEnableIME@@YAPAU_object@@PAU1@0@Z ENDP		; imeEnableIME
_TEXT	ENDS
; Function compile flags: /Ogtp
; File D:\_m2work\txoko-m2-work\txoko-client-src\source\UserInterface\PythonIMEModule.cpp
;	COMDAT ?imeDisableIME@@YAPAU_object@@PAU1@0@Z
_TEXT	SEGMENT
_poSelf$ = 8						; size = 4
_poArgs$ = 12						; size = 4
?imeDisableIME@@YAPAU_object@@PAU1@0@Z PROC		; imeDisableIME, COMDAT

; 116  : 	CPythonIME::Instance().DisableIME();

  00000	a1 00 00 00 00	 mov	 eax, DWORD PTR ?ms_singleton@?$CSingleton@VCPythonIME@@@@0PAVCPythonIME@@A ; CSingleton<CPythonIME>::ms_singleton
  00005	8d 48 04	 lea	 ecx, DWORD PTR [eax+4]
  00008	e8 00 00 00 00	 call	 ?DisableIME@CIME@@QAEXXZ ; CIME::DisableIME

; 117  : 	return Py_BuildNone();

  0000d	e9 00 00 00 00	 jmp	 ?Py_BuildNone@@YAPAU_object@@XZ ; Py_BuildNone
?imeDisableIME@@YAPAU_object@@PAU1@0@Z ENDP		; imeDisableIME
_TEXT	ENDS
; Function compile flags: /Ogtp
; File D:\_m2work\txoko-m2-work\txoko-client-src\source\UserInterface\PythonIMEModule.cpp
;	COMDAT ?imeSetInputMode@@YAPAU_object@@PAU1@0@Z
_TEXT	SEGMENT
_mode$ = -4						; size = 4
_poSelf$ = 8						; size = 4
_poArgs$ = 12						; size = 4
?imeSetInputMode@@YAPAU_object@@PAU1@0@Z PROC		; imeSetInputMode, COMDAT

; 121  : {	

  00000	55		 push	 ebp
  00001	8b ec		 mov	 ebp, esp
  00003	51		 push	 ecx

; 122  : 	int	mode;
; 123  : 	if (!PyTuple_GetInteger(poArgs, 0, &mode))

  00004	8d 45 fc	 lea	 eax, DWORD PTR _mode$[ebp]
  00007	50		 push	 eax
  00008	6a 00		 push	 0
  0000a	ff 75 0c	 push	 DWORD PTR _poArgs$[ebp]
  0000d	e8 00 00 00 00	 call	 ?PyTuple_GetInteger@@YA_NPAU_object@@HPAH@Z ; PyTuple_GetInteger
  00012	83 c4 0c	 add	 esp, 12			; 0000000cH
  00015	84 c0		 test	 al, al
  00017	75 0e		 jne	 SHORT $LN2@imeSetInpu

; 124  : 		return Py_BuildException();

  00019	6a 00		 push	 0
  0001b	e8 00 00 00 00	 call	 ?Py_BuildException@@YAPAU_object@@PBDZZ ; Py_BuildException
  00020	83 c4 04	 add	 esp, 4

; 128  : }

  00023	8b e5		 mov	 esp, ebp
  00025	5d		 pop	 ebp
  00026	c3		 ret	 0
$LN2@imeSetInpu:

; 125  : 
; 126  : 	CPythonIME::Instance().SetInputMode(mode);

  00027	8b 0d 00 00 00
	00		 mov	 ecx, DWORD PTR ?ms_singleton@?$CSingleton@VCPythonIME@@@@0PAVCPythonIME@@A ; CSingleton<CPythonIME>::ms_singleton
  0002d	ff 75 fc	 push	 DWORD PTR _mode$[ebp]
  00030	8d 49 04	 lea	 ecx, DWORD PTR [ecx+4]
  00033	e8 00 00 00 00	 call	 ?SetInputMode@CIME@@QAEXK@Z ; CIME::SetInputMode

; 127  : 	return Py_BuildNone();

  00038	e8 00 00 00 00	 call	 ?Py_BuildNone@@YAPAU_object@@XZ ; Py_BuildNone

; 128  : }

  0003d	8b e5		 mov	 esp, ebp
  0003f	5d		 pop	 ebp
  00040	c3		 ret	 0
?imeSetInputMode@@YAPAU_object@@PAU1@0@Z ENDP		; imeSetInputMode
_TEXT	ENDS
; Function compile flags: /Ogtp
; File D:\_m2work\txoko-m2-work\txoko-client-src\source\UserInterface\PythonIMEModule.cpp
;	COMDAT ?imeSetNumberMode@@YAPAU_object@@PAU1@0@Z
_TEXT	SEGMENT
_poSelf$ = 8						; size = 4
_poArgs$ = 12						; size = 4
?imeSetNumberMode@@YAPAU_object@@PAU1@0@Z PROC		; imeSetNumberMode, COMDAT

; 132  : 	CPythonIME::Instance().SetNumberMode();

  00000	a1 00 00 00 00	 mov	 eax, DWORD PTR ?ms_singleton@?$CSingleton@VCPythonIME@@@@0PAVCPythonIME@@A ; CSingleton<CPythonIME>::ms_singleton
  00005	8d 48 04	 lea	 ecx, DWORD PTR [eax+4]
  00008	e8 00 00 00 00	 call	 ?SetNumberMode@CIME@@QAEXXZ ; CIME::SetNumberMode

; 133  : 	return Py_BuildNone();

  0000d	e9 00 00 00 00	 jmp	 ?Py_BuildNone@@YAPAU_object@@XZ ; Py_BuildNone
?imeSetNumberMode@@YAPAU_object@@PAU1@0@Z ENDP		; imeSetNumberMode
_TEXT	ENDS
; Function compile flags: /Ogtp
; File D:\_m2work\txoko-m2-work\txoko-client-src\source\UserInterface\PythonIMEModule.cpp
;	COMDAT ?imeAddExceptKey@@YAPAU_object@@PAU1@0@Z
_TEXT	SEGMENT
_key$ = -4						; size = 4
_poSelf$ = 8						; size = 4
_poArgs$ = 12						; size = 4
?imeAddExceptKey@@YAPAU_object@@PAU1@0@Z PROC		; imeAddExceptKey, COMDAT

; 137  : {

  00000	55		 push	 ebp
  00001	8b ec		 mov	 ebp, esp
  00003	51		 push	 ecx

; 138  : 	int key;
; 139  : 	if (!PyTuple_GetInteger(poArgs, 0, &key))

  00004	8d 45 fc	 lea	 eax, DWORD PTR _key$[ebp]
  00007	50		 push	 eax
  00008	6a 00		 push	 0
  0000a	ff 75 0c	 push	 DWORD PTR _poArgs$[ebp]
  0000d	e8 00 00 00 00	 call	 ?PyTuple_GetInteger@@YA_NPAU_object@@HPAH@Z ; PyTuple_GetInteger
  00012	83 c4 0c	 add	 esp, 12			; 0000000cH
  00015	84 c0		 test	 al, al
  00017	75 0e		 jne	 SHORT $LN2@imeAddExce

; 140  : 		return Py_BuildException();

  00019	6a 00		 push	 0
  0001b	e8 00 00 00 00	 call	 ?Py_BuildException@@YAPAU_object@@PBDZZ ; Py_BuildException
  00020	83 c4 04	 add	 esp, 4

; 144  : }

  00023	8b e5		 mov	 esp, ebp
  00025	5d		 pop	 ebp
  00026	c3		 ret	 0
$LN2@imeAddExce:

; 141  : 
; 142  : 	CPythonIME::Instance().AddExceptKey(key);

  00027	8b 0d 00 00 00
	00		 mov	 ecx, DWORD PTR ?ms_singleton@?$CSingleton@VCPythonIME@@@@0PAVCPythonIME@@A ; CSingleton<CPythonIME>::ms_singleton
  0002d	ff 75 fc	 push	 DWORD PTR _key$[ebp]
  00030	8d 49 04	 lea	 ecx, DWORD PTR [ecx+4]
  00033	e8 00 00 00 00	 call	 ?AddExceptKey@CIME@@QAEX_W@Z ; CIME::AddExceptKey

; 143  : 	return Py_BuildNone();

  00038	e8 00 00 00 00	 call	 ?Py_BuildNone@@YAPAU_object@@XZ ; Py_BuildNone

; 144  : }

  0003d	8b e5		 mov	 esp, ebp
  0003f	5d		 pop	 ebp
  00040	c3		 ret	 0
?imeAddExceptKey@@YAPAU_object@@PAU1@0@Z ENDP		; imeAddExceptKey
_TEXT	ENDS
; Function compile flags: /Ogtp
; File D:\_m2work\txoko-m2-work\txoko-client-src\source\UserInterface\PythonIMEModule.cpp
;	COMDAT ?imeClearExceptKey@@YAPAU_object@@PAU1@0@Z
_TEXT	SEGMENT
_poSelf$ = 8						; size = 4
_poArgs$ = 12						; size = 4
?imeClearExceptKey@@YAPAU_object@@PAU1@0@Z PROC		; imeClearExceptKey, COMDAT

; 148  : 	CPythonIME::Instance().ClearExceptKey();

  00000	a1 00 00 00 00	 mov	 eax, DWORD PTR ?ms_singleton@?$CSingleton@VCPythonIME@@@@0PAVCPythonIME@@A ; CSingleton<CPythonIME>::ms_singleton
  00005	8d 48 04	 lea	 ecx, DWORD PTR [eax+4]
  00008	e8 00 00 00 00	 call	 ?ClearExceptKey@CIME@@QAEXXZ ; CIME::ClearExceptKey

; 149  : 	return Py_BuildNone();

  0000d	e9 00 00 00 00	 jmp	 ?Py_BuildNone@@YAPAU_object@@XZ ; Py_BuildNone
?imeClearExceptKey@@YAPAU_object@@PAU1@0@Z ENDP		; imeClearExceptKey
_TEXT	ENDS
; Function compile flags: /Ogtp
; File D:\_m2work\txoko-m2-work\txoko-client-src\source\UserInterface\PythonIMEModule.cpp
;	COMDAT ?imeSetStringMode@@YAPAU_object@@PAU1@0@Z
_TEXT	SEGMENT
_poSelf$ = 8						; size = 4
_poArgs$ = 12						; size = 4
?imeSetStringMode@@YAPAU_object@@PAU1@0@Z PROC		; imeSetStringMode, COMDAT

; 154  : 	CPythonIME::Instance().SetStringMode();

  00000	a1 00 00 00 00	 mov	 eax, DWORD PTR ?ms_singleton@?$CSingleton@VCPythonIME@@@@0PAVCPythonIME@@A ; CSingleton<CPythonIME>::ms_singleton
  00005	8d 48 04	 lea	 ecx, DWORD PTR [eax+4]
  00008	e8 00 00 00 00	 call	 ?SetStringMode@CIME@@QAEXXZ ; CIME::SetStringMode

; 155  : 	return Py_BuildNone();

  0000d	e9 00 00 00 00	 jmp	 ?Py_BuildNone@@YAPAU_object@@XZ ; Py_BuildNone
?imeSetStringMode@@YAPAU_object@@PAU1@0@Z ENDP		; imeSetStringMode
_TEXT	ENDS
; Function compile flags: /Ogtp
; File D:\_m2work\txoko-m2-work\txoko-client-src\source\UserInterface\PythonIMEModule.cpp
;	COMDAT ?imeGetInputMode@@YAPAU_object@@PAU1@0@Z
_TEXT	SEGMENT
_poSelf$ = 8						; size = 4
_poArgs$ = 12						; size = 4
?imeGetInputMode@@YAPAU_object@@PAU1@0@Z PROC		; imeGetInputMode, COMDAT

; 160  : 	return Py_BuildValue("i", CPythonIME::Instance().GetInputMode());

  00000	8b 0d 00 00 00
	00		 mov	 ecx, DWORD PTR ?ms_singleton@?$CSingleton@VCPythonIME@@@@0PAVCPythonIME@@A ; CSingleton<CPythonIME>::ms_singleton
  00006	8d 49 04	 lea	 ecx, DWORD PTR [ecx+4]
  00009	e8 00 00 00 00	 call	 ?GetInputMode@CIME@@QAEKXZ ; CIME::GetInputMode
  0000e	50		 push	 eax
  0000f	68 00 00 00 00	 push	 OFFSET ??_C@_01KBJDNOO@i@
  00014	ff 15 00 00 00
	00		 call	 DWORD PTR __imp__Py_BuildValue
  0001a	83 c4 08	 add	 esp, 8

; 161  : }

  0001d	c3		 ret	 0
?imeGetInputMode@@YAPAU_object@@PAU1@0@Z ENDP		; imeGetInputMode
_TEXT	ENDS
; Function compile flags: /Ogtp
; File D:\_m2work\txoko-m2-work\txoko-client-src\source\UserInterface\PythonIMEModule.cpp
;	COMDAT ?imeMoveLeft@@YAPAU_object@@PAU1@0@Z
_TEXT	SEGMENT
_poSelf$ = 8						; size = 4
_poArgs$ = 12						; size = 4
?imeMoveLeft@@YAPAU_object@@PAU1@0@Z PROC		; imeMoveLeft, COMDAT

; 165  : 	CPythonIME::Instance().MoveLeft();

  00000	8b 0d 00 00 00
	00		 mov	 ecx, DWORD PTR ?ms_singleton@?$CSingleton@VCPythonIME@@@@0PAVCPythonIME@@A ; CSingleton<CPythonIME>::ms_singleton
  00006	e8 00 00 00 00	 call	 ?MoveLeft@CPythonIME@@QAEXXZ ; CPythonIME::MoveLeft

; 166  : 
; 167  : 	return Py_BuildNone();

  0000b	e9 00 00 00 00	 jmp	 ?Py_BuildNone@@YAPAU_object@@XZ ; Py_BuildNone
?imeMoveLeft@@YAPAU_object@@PAU1@0@Z ENDP		; imeMoveLeft
_TEXT	ENDS
; Function compile flags: /Ogtp
; File D:\_m2work\txoko-m2-work\txoko-client-src\source\UserInterface\PythonIMEModule.cpp
;	COMDAT ?imeMoveRight@@YAPAU_object@@PAU1@0@Z
_TEXT	SEGMENT
_poSelf$ = 8						; size = 4
_poArgs$ = 12						; size = 4
?imeMoveRight@@YAPAU_object@@PAU1@0@Z PROC		; imeMoveRight, COMDAT

; 171  : 	CPythonIME::Instance().MoveRight();

  00000	8b 0d 00 00 00
	00		 mov	 ecx, DWORD PTR ?ms_singleton@?$CSingleton@VCPythonIME@@@@0PAVCPythonIME@@A ; CSingleton<CPythonIME>::ms_singleton
  00006	e8 00 00 00 00	 call	 ?MoveRight@CPythonIME@@QAEXXZ ; CPythonIME::MoveRight

; 172  : 
; 173  : 	return Py_BuildNone();

  0000b	e9 00 00 00 00	 jmp	 ?Py_BuildNone@@YAPAU_object@@XZ ; Py_BuildNone
?imeMoveRight@@YAPAU_object@@PAU1@0@Z ENDP		; imeMoveRight
_TEXT	ENDS
; Function compile flags: /Ogtp
; File D:\_m2work\txoko-m2-work\txoko-client-src\source\UserInterface\PythonIMEModule.cpp
;	COMDAT ?imeMoveHome@@YAPAU_object@@PAU1@0@Z
_TEXT	SEGMENT
_poSelf$ = 8						; size = 4
_poArgs$ = 12						; size = 4
?imeMoveHome@@YAPAU_object@@PAU1@0@Z PROC		; imeMoveHome, COMDAT

; 178  : 	CPythonIME::Instance().MoveHome();

  00000	e8 00 00 00 00	 call	 ?MoveHome@CPythonIME@@QAEXXZ ; CPythonIME::MoveHome

; 179  : 
; 180  : 	return Py_BuildNone();

  00005	e9 00 00 00 00	 jmp	 ?Py_BuildNone@@YAPAU_object@@XZ ; Py_BuildNone
?imeMoveHome@@YAPAU_object@@PAU1@0@Z ENDP		; imeMoveHome
_TEXT	ENDS
; Function compile flags: /Ogtp
; File D:\_m2work\txoko-m2-work\txoko-client-src\source\UserInterface\PythonIMEModule.cpp
;	COMDAT ?imeMoveEnd@@YAPAU_object@@PAU1@0@Z
_TEXT	SEGMENT
_poSelf$ = 8						; size = 4
_poArgs$ = 12						; size = 4
?imeMoveEnd@@YAPAU_object@@PAU1@0@Z PROC		; imeMoveEnd, COMDAT

; 184  : 	CPythonIME::Instance().MoveEnd();

  00000	e8 00 00 00 00	 call	 ?MoveEnd@CPythonIME@@QAEXXZ ; CPythonIME::MoveEnd

; 185  : 
; 186  : 	return Py_BuildNone();

  00005	e9 00 00 00 00	 jmp	 ?Py_BuildNone@@YAPAU_object@@XZ ; Py_BuildNone
?imeMoveEnd@@YAPAU_object@@PAU1@0@Z ENDP		; imeMoveEnd
_TEXT	ENDS
; Function compile flags: /Ogtp
; File D:\_m2work\txoko-m2-work\txoko-client-src\source\UserInterface\PythonIMEModule.cpp
;	COMDAT ?imeSetCursorPosition@@YAPAU_object@@PAU1@0@Z
_TEXT	SEGMENT
_iPosition$ = -4					; size = 4
_poSelf$ = 8						; size = 4
_poArgs$ = 12						; size = 4
?imeSetCursorPosition@@YAPAU_object@@PAU1@0@Z PROC	; imeSetCursorPosition, COMDAT

; 190  : {

  00000	55		 push	 ebp
  00001	8b ec		 mov	 ebp, esp
  00003	51		 push	 ecx

; 191  : 	int	iPosition;
; 192  : 	if (!PyTuple_GetInteger(poArgs, 0, &iPosition))

  00004	8d 45 fc	 lea	 eax, DWORD PTR _iPosition$[ebp]
  00007	50		 push	 eax
  00008	6a 00		 push	 0
  0000a	ff 75 0c	 push	 DWORD PTR _poArgs$[ebp]
  0000d	e8 00 00 00 00	 call	 ?PyTuple_GetInteger@@YA_NPAU_object@@HPAH@Z ; PyTuple_GetInteger
  00012	83 c4 0c	 add	 esp, 12			; 0000000cH
  00015	84 c0		 test	 al, al
  00017	75 0e		 jne	 SHORT $LN2@imeSetCurs

; 193  : 		return Py_BuildException();

  00019	6a 00		 push	 0
  0001b	e8 00 00 00 00	 call	 ?Py_BuildException@@YAPAU_object@@PBDZZ ; Py_BuildException
  00020	83 c4 04	 add	 esp, 4

; 198  : }

  00023	8b e5		 mov	 esp, ebp
  00025	5d		 pop	 ebp
  00026	c3		 ret	 0
$LN2@imeSetCurs:

; 194  : 
; 195  : 	CPythonIME::Instance().SetCursorPosition(iPosition);

  00027	ff 75 fc	 push	 DWORD PTR _iPosition$[ebp]
  0002a	8b 0d 00 00 00
	00		 mov	 ecx, DWORD PTR ?ms_singleton@?$CSingleton@VCPythonIME@@@@0PAVCPythonIME@@A ; CSingleton<CPythonIME>::ms_singleton
  00030	e8 00 00 00 00	 call	 ?SetCursorPosition@CPythonIME@@QAEXH@Z ; CPythonIME::SetCursorPosition

; 196  : 
; 197  : 	return Py_BuildNone();

  00035	e8 00 00 00 00	 call	 ?Py_BuildNone@@YAPAU_object@@XZ ; Py_BuildNone

; 198  : }

  0003a	8b e5		 mov	 esp, ebp
  0003c	5d		 pop	 ebp
  0003d	c3		 ret	 0
?imeSetCursorPosition@@YAPAU_object@@PAU1@0@Z ENDP	; imeSetCursorPosition
_TEXT	ENDS
; Function compile flags: /Ogtp
; File D:\_m2work\txoko-m2-work\txoko-client-src\source\UserInterface\PythonIMEModule.cpp
;	COMDAT ?imeDelete@@YAPAU_object@@PAU1@0@Z
_TEXT	SEGMENT
_poSelf$ = 8						; size = 4
_poArgs$ = 12						; size = 4
?imeDelete@@YAPAU_object@@PAU1@0@Z PROC			; imeDelete, COMDAT

; 202  : 	CPythonIME::Instance().Delete();

  00000	8b 0d 00 00 00
	00		 mov	 ecx, DWORD PTR ?ms_singleton@?$CSingleton@VCPythonIME@@@@0PAVCPythonIME@@A ; CSingleton<CPythonIME>::ms_singleton
  00006	e8 00 00 00 00	 call	 ?Delete@CPythonIME@@QAEXXZ ; CPythonIME::Delete

; 203  : 
; 204  : 	return Py_BuildNone();

  0000b	e9 00 00 00 00	 jmp	 ?Py_BuildNone@@YAPAU_object@@XZ ; Py_BuildNone
?imeDelete@@YAPAU_object@@PAU1@0@Z ENDP			; imeDelete
_TEXT	ENDS
; Function compile flags: /Ogtp
; File D:\_m2work\txoko-m2-work\txoko-client-src\source\UserInterface\PythonIMEModule.cpp
;	COMDAT ?imePasteTextFromClipBoard@@YAPAU_object@@PAU1@0@Z
_TEXT	SEGMENT
_poSelf$ = 8						; size = 4
_poArgs$ = 12						; size = 4
?imePasteTextFromClipBoard@@YAPAU_object@@PAU1@0@Z PROC	; imePasteTextFromClipBoard, COMDAT

; 209  : 	CPythonIME::Instance().PasteTextFromClipBoard();

  00000	a1 00 00 00 00	 mov	 eax, DWORD PTR ?ms_singleton@?$CSingleton@VCPythonIME@@@@0PAVCPythonIME@@A ; CSingleton<CPythonIME>::ms_singleton
  00005	8d 48 04	 lea	 ecx, DWORD PTR [eax+4]
  00008	e8 00 00 00 00	 call	 ?PasteTextFromClipBoard@CIME@@QAEXXZ ; CIME::PasteTextFromClipBoard

; 210  : 	return Py_BuildNone();

  0000d	e9 00 00 00 00	 jmp	 ?Py_BuildNone@@YAPAU_object@@XZ ; Py_BuildNone
?imePasteTextFromClipBoard@@YAPAU_object@@PAU1@0@Z ENDP	; imePasteTextFromClipBoard
_TEXT	ENDS
; Function compile flags: /Ogtp
; File D:\_m2work\txoko-m2-work\txoko-client-src\source\UserInterface\PythonIMEModule.cpp
;	COMDAT ?imeEnablePaste@@YAPAU_object@@PAU1@0@Z
_TEXT	SEGMENT
_iFlag$ = -4						; size = 4
_poSelf$ = 8						; size = 4
_poArgs$ = 12						; size = 4
?imeEnablePaste@@YAPAU_object@@PAU1@0@Z PROC		; imeEnablePaste, COMDAT

; 214  : {

  00000	55		 push	 ebp
  00001	8b ec		 mov	 ebp, esp
  00003	51		 push	 ecx

; 215  : 	int	iFlag;
; 216  : 	if (!PyTuple_GetInteger(poArgs, 0, &iFlag))

  00004	8d 45 fc	 lea	 eax, DWORD PTR _iFlag$[ebp]
  00007	50		 push	 eax
  00008	6a 00		 push	 0
  0000a	ff 75 0c	 push	 DWORD PTR _poArgs$[ebp]
  0000d	e8 00 00 00 00	 call	 ?PyTuple_GetInteger@@YA_NPAU_object@@HPAH@Z ; PyTuple_GetInteger
  00012	83 c4 0c	 add	 esp, 12			; 0000000cH
  00015	84 c0		 test	 al, al
  00017	75 0e		 jne	 SHORT $LN2@imeEnableP

; 217  : 		return Py_BuildException();

  00019	6a 00		 push	 0
  0001b	e8 00 00 00 00	 call	 ?Py_BuildException@@YAPAU_object@@PBDZZ ; Py_BuildException
  00020	83 c4 04	 add	 esp, 4

; 221  : }

  00023	8b e5		 mov	 esp, ebp
  00025	5d		 pop	 ebp
  00026	c3		 ret	 0
$LN2@imeEnableP:

; 218  : 
; 219  : 	CPythonIME::Instance().EnablePaste(iFlag ? true : false);

  00027	83 7d fc 00	 cmp	 DWORD PTR _iFlag$[ebp], 0
  0002b	8b 0d 00 00 00
	00		 mov	 ecx, DWORD PTR ?ms_singleton@?$CSingleton@VCPythonIME@@@@0PAVCPythonIME@@A ; CSingleton<CPythonIME>::ms_singleton
  00031	0f 95 c0	 setne	 al
  00034	0f b6 c0	 movzx	 eax, al
  00037	50		 push	 eax
  00038	8d 49 04	 lea	 ecx, DWORD PTR [ecx+4]
  0003b	e8 00 00 00 00	 call	 ?EnablePaste@CIME@@QAEX_N@Z ; CIME::EnablePaste

; 220  : 	return Py_BuildNone();

  00040	e8 00 00 00 00	 call	 ?Py_BuildNone@@YAPAU_object@@XZ ; Py_BuildNone

; 221  : }

  00045	8b e5		 mov	 esp, ebp
  00047	5d		 pop	 ebp
  00048	c3		 ret	 0
?imeEnablePaste@@YAPAU_object@@PAU1@0@Z ENDP		; imeEnablePaste
_TEXT	ENDS
; Function compile flags: /Ogtp
; File D:\_m2work\txoko-m2-work\txoko-client-src\source\UserInterface\PythonIMEModule.cpp
;	COMDAT ?imePasteString@@YAPAU_object@@PAU1@0@Z
_TEXT	SEGMENT
_szText$ = -4						; size = 4
_poSelf$ = 8						; size = 4
_poArgs$ = 12						; size = 4
?imePasteString@@YAPAU_object@@PAU1@0@Z PROC		; imePasteString, COMDAT

; 224  : {

  00000	55		 push	 ebp
  00001	8b ec		 mov	 ebp, esp
  00003	51		 push	 ecx

; 225  : 	char* szText;
; 226  : 	if (!PyTuple_GetString(poArgs, 0, &szText))

  00004	8d 45 fc	 lea	 eax, DWORD PTR _szText$[ebp]
  00007	50		 push	 eax
  00008	6a 00		 push	 0
  0000a	ff 75 0c	 push	 DWORD PTR _poArgs$[ebp]
  0000d	e8 00 00 00 00	 call	 ?PyTuple_GetString@@YA_NPAU_object@@HPAPAD@Z ; PyTuple_GetString
  00012	83 c4 0c	 add	 esp, 12			; 0000000cH
  00015	84 c0		 test	 al, al
  00017	75 0e		 jne	 SHORT $LN2@imePasteSt

; 227  : 		return Py_BuildException();

  00019	6a 00		 push	 0
  0001b	e8 00 00 00 00	 call	 ?Py_BuildException@@YAPAU_object@@PBDZZ ; Py_BuildException
  00020	83 c4 04	 add	 esp, 4

; 230  : }

  00023	8b e5		 mov	 esp, ebp
  00025	5d		 pop	 ebp
  00026	c3		 ret	 0
$LN2@imePasteSt:

; 228  : 	CPythonIME::Instance().PasteString(szText);

  00027	8b 0d 00 00 00
	00		 mov	 ecx, DWORD PTR ?ms_singleton@?$CSingleton@VCPythonIME@@@@0PAVCPythonIME@@A ; CSingleton<CPythonIME>::ms_singleton
  0002d	ff 75 fc	 push	 DWORD PTR _szText$[ebp]
  00030	8d 49 04	 lea	 ecx, DWORD PTR [ecx+4]
  00033	e8 00 00 00 00	 call	 ?PasteString@CIME@@QAEXPBD@Z ; CIME::PasteString

; 229  : 	return Py_BuildNone();

  00038	e8 00 00 00 00	 call	 ?Py_BuildNone@@YAPAU_object@@XZ ; Py_BuildNone

; 230  : }

  0003d	8b e5		 mov	 esp, ebp
  0003f	5d		 pop	 ebp
  00040	c3		 ret	 0
?imePasteString@@YAPAU_object@@PAU1@0@Z ENDP		; imePasteString
_TEXT	ENDS
; Function compile flags: /Ogtp
; File D:\_m2work\txoko-m2-work\txoko-client-src\source\UserInterface\PythonIMEModule.cpp
;	COMDAT ?imePasteBackspace@@YAPAU_object@@PAU1@0@Z
_TEXT	SEGMENT
_poSelf$ = 8						; size = 4
_poArgs$ = 12						; size = 4
?imePasteBackspace@@YAPAU_object@@PAU1@0@Z PROC		; imePasteBackspace, COMDAT

; 234  : 	CPythonIME::Instance().WMChar(NULL, WM_CHAR, 0x08, NULL);

  00000	a1 00 00 00 00	 mov	 eax, DWORD PTR ?ms_singleton@?$CSingleton@VCPythonIME@@@@0PAVCPythonIME@@A ; CSingleton<CPythonIME>::ms_singleton
  00005	6a 00		 push	 0
  00007	6a 08		 push	 8
  00009	68 02 01 00 00	 push	 258			; 00000102H
  0000e	6a 00		 push	 0
  00010	8d 48 04	 lea	 ecx, DWORD PTR [eax+4]
  00013	e8 00 00 00 00	 call	 ?WMChar@CIME@@QAEJPAUHWND__@@IIJ@Z ; CIME::WMChar

; 235  : 	return Py_BuildNone();

  00018	e9 00 00 00 00	 jmp	 ?Py_BuildNone@@YAPAU_object@@XZ ; Py_BuildNone
?imePasteBackspace@@YAPAU_object@@PAU1@0@Z ENDP		; imePasteBackspace
_TEXT	ENDS
; Function compile flags: /Ogtp
; File D:\_m2work\txoko-m2-work\txoko-client-src\source\UserInterface\PythonIMEModule.cpp
;	COMDAT ?imePasteReturn@@YAPAU_object@@PAU1@0@Z
_TEXT	SEGMENT
_poSelf$ = 8						; size = 4
_poArgs$ = 12						; size = 4
?imePasteReturn@@YAPAU_object@@PAU1@0@Z PROC		; imePasteReturn, COMDAT

; 240  : 	CPythonIME::Instance().WMChar(NULL, WM_CHAR, 0x0D, NULL);

  00000	a1 00 00 00 00	 mov	 eax, DWORD PTR ?ms_singleton@?$CSingleton@VCPythonIME@@@@0PAVCPythonIME@@A ; CSingleton<CPythonIME>::ms_singleton
  00005	6a 00		 push	 0
  00007	6a 0d		 push	 13			; 0000000dH
  00009	68 02 01 00 00	 push	 258			; 00000102H
  0000e	6a 00		 push	 0
  00010	8d 48 04	 lea	 ecx, DWORD PTR [eax+4]
  00013	e8 00 00 00 00	 call	 ?WMChar@CIME@@QAEJPAUHWND__@@IIJ@Z ; CIME::WMChar

; 241  : 	return Py_BuildNone();

  00018	e9 00 00 00 00	 jmp	 ?Py_BuildNone@@YAPAU_object@@XZ ; Py_BuildNone
?imePasteReturn@@YAPAU_object@@PAU1@0@Z ENDP		; imePasteReturn
_TEXT	ENDS
; Function compile flags: /Ogtp
; File D:\_m2work\txoko-m2-work\txoko-client-src\source\UserInterface\PythonIMEModule.cpp
;	COMDAT ?initime@@YAXXZ
_TEXT	SEGMENT
?initime@@YAXXZ PROC					; initime, COMDAT

; 246  : 	static PyMethodDef s_methods[] =
; 247  : 	{
; 248  : 		{ "Enable",					imeEnable,					METH_VARARGS },
; 249  : 		{ "Disable",				imeDisable,					METH_VARARGS },
; 250  : 
; 251  : 		{ "EnableCaptureInput",		imeEnableCaptureInput,		METH_VARARGS },
; 252  : 		{ "DisableCaptureInput",	imeDisableCaptureInput,		METH_VARARGS },
; 253  : 		{ "SetMax",					imeSetMax,					METH_VARARGS },
; 254  : 		{ "SetUserMax",				imeSetUserMax,				METH_VARARGS },
; 255  : 		{ "SetText",				imeSetText,					METH_VARARGS },
; 256  : 		{ "GetText",				imeGetText,					METH_VARARGS },
; 257  : 		{ "GetCodePage",			imeGetCodePage,				METH_VARARGS },
; 258  : 		{ "GetCandidateCount",		imeGetCandidateCount,		METH_VARARGS },
; 259  : 		{ "GetCandidate",			imeGetCandidate,			METH_VARARGS },
; 260  : 		{ "GetCandidateSelection",	imeGetCandidateSelection,	METH_VARARGS },
; 261  : 		{ "GetReading",				imeGetReading,				METH_VARARGS },
; 262  : 		{ "GetReadingError",		imeGetReadingError,			METH_VARARGS },
; 263  : 		{ "EnableIME",				imeEnableIME,				METH_VARARGS },
; 264  : 		{ "DisableIME",				imeDisableIME,				METH_VARARGS },
; 265  : 		{ "GetInputMode",			imeGetInputMode,			METH_VARARGS },
; 266  : 		{ "SetInputMode",			imeSetInputMode,			METH_VARARGS },
; 267  : 
; 268  : 		{ "SetNumberMode",			imeSetNumberMode,			METH_VARARGS },
; 269  : 		{ "SetStringMode",			imeSetStringMode,			METH_VARARGS },
; 270  : 		{ "AddExceptKey",			imeAddExceptKey,			METH_VARARGS },
; 271  : 		{ "ClearExceptKey",			imeClearExceptKey,			METH_VARARGS },
; 272  : 		
; 273  : 		{ "MoveLeft",				imeMoveLeft,				METH_VARARGS },
; 274  : 		{ "MoveRight",				imeMoveRight,				METH_VARARGS },
; 275  : 		{ "MoveHome",				imeMoveHome,				METH_VARARGS },
; 276  : 		{ "MoveEnd",				imeMoveEnd,					METH_VARARGS },
; 277  : 		{ "SetCursorPosition",		imeSetCursorPosition,		METH_VARARGS },
; 278  : 		{ "Delete",					imeDelete,					METH_VARARGS },
; 279  : 		{ "PasteString",			imePasteString,				METH_VARARGS },
; 280  : 		{ "PasteBackspace",			imePasteBackspace,			METH_VARARGS },
; 281  : 		{ "PasteReturn",			imePasteReturn,				METH_VARARGS },
; 282  : 		{ "PasteTextFromClipBoard",	imePasteTextFromClipBoard,	METH_VARARGS },
; 283  : 		{ "EnablePaste",			imeEnablePaste,				METH_VARARGS },
; 284  : 
; 285  : 		{ NULL,						NULL,						NULL		 },
; 286  : 	};	
; 287  : 
; 288  : 	Py_InitModule("ime", s_methods);

  00000	68 f5 03 00 00	 push	 1013			; 000003f5H
  00005	6a 00		 push	 0
  00007	6a 00		 push	 0
  00009	68 00 00 00 00	 push	 OFFSET ?s_methods@?1??initime@@YAXXZ@4PAUPyMethodDef@@A
  0000e	68 00 00 00 00	 push	 OFFSET ??_C@_03MABAFPPL@ime@
  00013	ff 15 00 00 00
	00		 call	 DWORD PTR __imp__Py_InitModule4
  00019	83 c4 14	 add	 esp, 20			; 00000014H

; 289  : }

  0001c	c3		 ret	 0
?initime@@YAXXZ ENDP					; initime
_TEXT	ENDS
END
