; Listing generated by Microsoft (R) Optimizing Compiler Version 19.44.35217.0 

	TITLE	d:\_m2work\txoko-m2-work\txoko-client-src\vs_files\userinterface\distribute\userinterface.obj
	.686P
	.XMM
	include listing.inc
	.model	flat

INCLUDELIB OLDNAMES

PUBLIC	??_C@_0N@CMMKLLC@UserDict?4pyc@			; `string'
PUBLIC	??_C@_0N@GCNFBOJN@copy_reg?4pyc@		; `string'
PUBLIC	??_C@_0P@KBODAEKE@__future__?4pyc@		; `string'
PUBLIC	??_C@_0L@HJCEJGHC@ntpath?4pyc@			; `string'
PUBLIC	??_C@_0O@COBIIGAD@linecache?4pyc@		; `string'
PUBLIC	??_C@_08FPFMJPEC@site?4pyc@			; `string'
PUBLIC	??_C@_06JCOFDJKA@os?4pyc@			; `string'
PUBLIC	??_C@_0L@NDKNFNNI@string?4pyc@			; `string'
PUBLIC	??_C@_08EFIONJOP@stat?4pyc@			; `string'
PUBLIC	??_C@_09EHIBBABK@types?4pyc@			; `string'
PUBLIC	??_C@_0O@PMKHJGGH@traceback?4pyc@		; `string'
PUBLIC	??_C@_01KICIPPFI@?2@				; `string'
PUBLIC	??_C@_04HOGMCHDB@lib?2@				; `string'
PUBLIC	??_C@_07GHKFPDHK@locale?1@			; `string'
PUBLIC	??_C@_0BB@FPBAACEA@metin2client?4dat@		; `string'
PUBLIC	??_C@_05FNNGFGLF@Index@				; `string'
PUBLIC	??_C@_02LFNMGJAP@en@				; `string'
PUBLIC	??_C@_04PMPMHNFI@FILE@				; `string'
PUBLIC	??_C@_0CA@PJKENNIH@FATAL?5ERROR?$CB?5File?5not?5exist?3?5?$CFs@ ; `string'
PUBLIC	??_C@_0ED@CBACJNDK@Pack?1Index?5has?5invalid?5syntax?4?5@ ; `string'
PUBLIC	??_C@_04EDDHFNCG@PACK@				; `string'
PUBLIC	??_C@_09ODEGJGJI@_texcache@			; `string'
PUBLIC	??_C@_0BG@FJMFFOHK@?$LO?K?$LI?$LC?3?5?F?Q?5?$LI?p?$LF?e?$MA?T?$LE?O?$LE?Y?4?6@ ; `string'
PUBLIC	??_C@_0O@GIEHGGHC@__DEBUG__?5?$DN?50@		; `string'
PUBLIC	??_C@_04NBFCGMPH@root@				; `string'
PUBLIC	??_C@_03MCGAAIEM@?9cs@				; `string'
PUBLIC	??_C@_0BI@JAFKHBD@RegisterDebugFlag?5Error@	; `string'
PUBLIC	??_C@_0BE@FPKDPBJI@__COMMAND_LINE__?5?$DN?5@	; `string'
PUBLIC	??_C@_04JFPGDMCL@?9ncs@				; `string'
PUBLIC	??_C@_0BN@KIGJPBEF@?9?9pause?9before?9create?9window@ ; `string'
PUBLIC	??_C@_0BK@DPMNHJLC@RegisterCommandLine?5Error@	; `string'
PUBLIC	??_C@_09LEIJOBCA@system?4py@			; `string'
PUBLIC	??_C@_05PDJBBECF@pause@				; `string'
PUBLIC	??_C@_0N@JIKFFHPP@newpatch?4exe@		; `string'
PUBLIC	??_C@_0O@BEEPKJML@RunMain?5Error@		; `string'
PUBLIC	??_C@_0DB@BGMLOPGB@Pack?5Initialization?5failed?4?5Che@ ; `string'
PUBLIC	??_C@_0BB@LLCBDFGP@patchupdater?4exe@		; `string'
PUBLIC	??_C@_0BA@OEEELOKH@Metin2GameMutex@		; `string'
PUBLIC	??_C@_0M@PFDHIIAP@eter?4python@			; `string'
PUBLIC	??_C@_0L@HBFAHJLE@?1timestamp@			; `string'
PUBLIC	??_C@_0CN@OHDPHKKH@FATAL?5ERROR?$CB?$CB?5Python?5Library?5fi@ ; `string'
PUBLIC	??_C@_0DG@JFMPGIL@METIN2?5BINARY?5TEST?5VERSION?5?$CFs?5?5@ ; `string'
PUBLIC	??_C@_0BJ@OOGCIICC@Tue?5Jan?512?513?326?355?52021@ ; `string'
PUBLIC	??_C@_08LJMAFCGB@?9?9locale@			; `string'
PUBLIC	??_C@_0DL@IHCMKBOK@METIN2?5BINARY?5DISTRIBUTE?5VERSIO@ ; `string'
PUBLIC	??_C@_0N@FPLLJIDE@?9?9hackshield@		; `string'
PUBLIC	??_C@_0BE@FJLABEAB@?9?9perforce?9revision@	; `string'
PUBLIC	??_C@_0L@IBAMLFBB@?$CFs?4version@		; `string'
PUBLIC	??_C@_0L@LCFODDFH@locale?4cfg@			; `string'
PUBLIC	??_C@_0L@IMHJDJJ@locale?4txt@			; `string'
PUBLIC	??_C@_04JIBCGPDH@r?$CFd?6@			; `string'
PUBLIC	??_C@_0BD@BMCCGKJE@?9?9force?9set?9locale@	; `string'
PUBLIC	??_C@_0BK@LJMCIPPN@service?$FL?$CFs?$FN?5code_page?$FL?$CFd?$FN@ ; `string'
PUBLIC	??_C@_0BC@PALKPJEA@Invalid?5arguments@		; `string'
PUBLIC	??_C@_08GKBDCAOF@APP_NAME@			; `string'
PUBLIC	?gs_szErrorString@@3PADA			; gs_szErrorString
PUBLIC	?__IS_TEST_SERVER_MODE__@@3_NA			; __IS_TEST_SERVER_MODE__
EXTRN	__imp__GrannySetLogCallback@4:PROC
EXTRN	__imp__timeGetDevCaps@8:PROC
EXTRN	?MINMAX@@YAHHHH@Z:PROC				; MINMAX
EXTRN	__imp__timeBeginPeriod@4:PROC
EXTRN	_WebBrowser_Startup:PROC
EXTRN	_WebBrowser_Cleanup:PROC
EXTRN	__imp__GlobalFree@4:PROC
EXTRN	__imp__GetModuleFileNameA@12:PROC
EXTRN	__imp__MessageBoxA@16:PROC
EXTRN	__imp__ReleaseMutex@4:PROC
EXTRN	?CommandLineToArgv@@YAPAPADPADPAH@Z:PROC	; CommandLineToArgv
EXTRN	?Clear@CPythonLauncher@@QAEXXZ:PROC		; CPythonLauncher::Clear
EXTRN	??1CEterPackManager@@UAE@XZ:PROC		; CEterPackManager::~CEterPackManager
EXTRN	??1CLZO@@UAE@XZ:PROC				; CLZO::~CLZO
EXTRN	__imp__CreateMutexA@12:PROC
EXTRN	?SetExceptionSender@@YAXPAVIPythonExceptionSender@@@Z:PROC ; SetExceptionSender
EXTRN	?Create@CPythonLauncher@@QAE_NPBD@Z:PROC	; CPythonLauncher::Create
EXTRN	__imp__timeEndPeriod@4:PROC
EXTRN	?SetDefaultCodePage@@YA_NK@Z:PROC		; SetDefaultCodePage
EXTRN	?Initialize@CMSApplication@@QAEXPAUHINSTANCE__@@@Z:PROC ; CMSApplication::Initialize
EXTRN	??0CPythonLauncher@@QAE@XZ:PROC			; CPythonLauncher::CPythonLauncher
EXTRN	??1CPythonLauncher@@UAE@XZ:PROC			; CPythonLauncher::~CPythonLauncher
EXTRN	??0CEterPackManager@@QAE@XZ:PROC		; CEterPackManager::CEterPackManager
EXTRN	??0CLZO@@QAE@XZ:PROC				; CLZO::CLZO
EXTRN	?OpenLogFile@@YAX_N@Z:PROC			; OpenLogFile
EXTRN	__imp__DeleteFileA@4:PROC
EXTRN	__imp__ilInit@0:PROC
EXTRN	?srandom@@YAXK@Z:PROC				; srandom
EXTRN	_srand:PROC
EXTRN	?SetLogLevel@@YAXI@Z:PROC			; SetLogLevel
EXTRN	?SplitLine@@YA_NPBD0PAV?$vector@V?$basic_string@DU?$char_traits@D@std@@V?$allocator@D@2@@std@@V?$allocator@V?$basic_string@DU?$char_traits@D@std@@V?$allocator@D@2@@std@@@2@@std@@@Z:PROC ; SplitLine
EXTRN	?base64_decode@@YAXPBDPAD@Z:PROC		; base64_decode
EXTRN	_system:PROC
EXTRN	?initgrpImage@@YAXXZ:PROC			; initgrpImage
EXTRN	?initgrpText@@YAXXZ:PROC			; initgrpText
EXTRN	?initwndMgr@@YAXXZ:PROC				; initwndMgr
EXTRN	?RunLine@CPythonLauncher@@QAE_NPBD@Z:PROC	; CPythonLauncher::RunLine
EXTRN	?SetPackMode@CSoundData@@SAXXZ:PROC		; CSoundData::SetPackMode
EXTRN	?RegisterRootPack@CEterPackManager@@QAEXPBD@Z:PROC ; CEterPackManager::RegisterRootPack
EXTRN	?initdbg@@YAXXZ:PROC				; initdbg
EXTRN	?initgrp@@YAXXZ:PROC				; initgrp
EXTRN	?LogBoxf@@YAXPBDZZ:PROC				; LogBoxf
EXTRN	?SetCacheMode@CTextFileLoader@@SAXXZ:PROC	; CTextFileLoader::SetCacheMode
EXTRN	?SetCacheMode@CEterPackManager@@QAEXXZ:PROC	; CEterPackManager::SetCacheMode
EXTRN	?SetSearchMode@CEterPackManager@@QAEX_N@Z:PROC	; CEterPackManager::SetSearchMode
EXTRN	__imp__LoadStringA@16:PROC
EXTRN	?Create@CMappedFile@@QAEHPBDPAPBXHH@Z:PROC	; CMappedFile::Create
EXTRN	__imp__lstrlenA@4:PROC
EXTRN	__imp__GetPrivateProfileStringA@24:PROC
EXTRN	__imp__GetCurrentDirectoryA@8:PROC
EXTRN	__imp__MoveFileA@8:PROC
EXTRN	__fltused:DWORD
?gs_szErrorString@@3PADA DB 0200H DUP (?)		; gs_szErrorString
?__IS_TEST_SERVER_MODE__@@3_NA DB 01H DUP (?)		; __IS_TEST_SERVER_MODE__
_BSS	ENDS
;	COMDAT ??_C@_08GKBDCAOF@APP_NAME@
CONST	SEGMENT
??_C@_08GKBDCAOF@APP_NAME@ DB 'APP_NAME', 00H		; `string'
CONST	ENDS
;	COMDAT ??_C@_0BC@PALKPJEA@Invalid?5arguments@
CONST	SEGMENT
??_C@_0BC@PALKPJEA@Invalid?5arguments@ DB 'Invalid arguments', 00H ; `string'
CONST	ENDS
;	COMDAT ??_C@_0BK@LJMCIPPN@service?$FL?$CFs?$FN?5code_page?$FL?$CFd?$FN@
CONST	SEGMENT
??_C@_0BK@LJMCIPPN@service?$FL?$CFs?$FN?5code_page?$FL?$CFd?$FN@ DB 'serv'
	DB	'ice[%s] code_page[%d]', 00H			; `string'
CONST	ENDS
;	COMDAT ??_C@_0BD@BMCCGKJE@?9?9force?9set?9locale@
CONST	SEGMENT
??_C@_0BD@BMCCGKJE@?9?9force?9set?9locale@ DB '--force-set-locale', 00H ; `string'
CONST	ENDS
;	COMDAT ??_C@_04JIBCGPDH@r?$CFd?6@
CONST	SEGMENT
??_C@_04JIBCGPDH@r?$CFd?6@ DB 'r%d', 0aH, 00H		; `string'
CONST	ENDS
;	COMDAT ??_C@_0L@IMHJDJJ@locale?4txt@
CONST	SEGMENT
??_C@_0L@IMHJDJJ@locale?4txt@ DB 'locale.txt', 00H	; `string'
CONST	ENDS
;	COMDAT ??_C@_0L@LCFODDFH@locale?4cfg@
CONST	SEGMENT
??_C@_0L@LCFODDFH@locale?4cfg@ DB 'locale.cfg', 00H	; `string'
CONST	ENDS
;	COMDAT ??_C@_0L@IBAMLFBB@?$CFs?4version@
CONST	SEGMENT
??_C@_0L@IBAMLFBB@?$CFs?4version@ DB '%s.version', 00H	; `string'
CONST	ENDS
;	COMDAT ??_C@_0BE@FJLABEAB@?9?9perforce?9revision@
CONST	SEGMENT
??_C@_0BE@FJLABEAB@?9?9perforce?9revision@ DB '--perforce-revision', 00H ; `string'
CONST	ENDS
;	COMDAT ??_C@_0N@FPLLJIDE@?9?9hackshield@
CONST	SEGMENT
??_C@_0N@FPLLJIDE@?9?9hackshield@ DB '--hackshield', 00H ; `string'
CONST	ENDS
;	COMDAT ??_C@_0DL@IHCMKBOK@METIN2?5BINARY?5DISTRIBUTE?5VERSIO@
CONST	SEGMENT
??_C@_0DL@IHCMKBOK@METIN2?5BINARY?5DISTRIBUTE?5VERSIO@ DB 'METIN2 BINARY '
	DB	'DISTRIBUTE VERSION %s ( MS C++ %d Compiled )', 00H ; `string'
CONST	ENDS
;	COMDAT ??_C@_08LJMAFCGB@?9?9locale@
CONST	SEGMENT
??_C@_08LJMAFCGB@?9?9locale@ DB '--locale', 00H		; `string'
CONST	ENDS
;	COMDAT ??_C@_0BJ@OOGCIICC@Tue?5Jan?512?513?326?355?52021@
CONST	SEGMENT
??_C@_0BJ@OOGCIICC@Tue?5Jan?512?513?326?355?52021@ DB 'Tue Jan 12 13:26:5'
	DB	'5 2021', 00H				; `string'
CONST	ENDS
;	COMDAT ??_C@_0DG@JFMPGIL@METIN2?5BINARY?5TEST?5VERSION?5?$CFs?5?5@
CONST	SEGMENT
??_C@_0DG@JFMPGIL@METIN2?5BINARY?5TEST?5VERSION?5?$CFs?5?5@ DB 'METIN2 BI'
	DB	'NARY TEST VERSION %s  ( MS C++ %d Compiled )', 00H ; `string'
CONST	ENDS
;	COMDAT ??_C@_0CN@OHDPHKKH@FATAL?5ERROR?$CB?$CB?5Python?5Library?5fi@
CONST	SEGMENT
??_C@_0CN@OHDPHKKH@FATAL?5ERROR?$CB?$CB?5Python?5Library?5fi@ DB 'FATAL E'
	DB	'RROR!! Python Library file not exist!', 00H	; `string'
CONST	ENDS
;	COMDAT ??_C@_0L@HBFAHJLE@?1timestamp@
CONST	SEGMENT
??_C@_0L@HBFAHJLE@?1timestamp@ DB '/timestamp', 00H	; `string'
CONST	ENDS
;	COMDAT ??_C@_0M@PFDHIIAP@eter?4python@
CONST	SEGMENT
??_C@_0M@PFDHIIAP@eter?4python@ DB 'eter.python', 00H	; `string'
CONST	ENDS
;	COMDAT ??_C@_0BA@OEEELOKH@Metin2GameMutex@
CONST	SEGMENT
??_C@_0BA@OEEELOKH@Metin2GameMutex@ DB 'Metin2GameMutex', 00H ; `string'
CONST	ENDS
;	COMDAT ??_C@_0BB@LLCBDFGP@patchupdater?4exe@
CONST	SEGMENT
??_C@_0BB@LLCBDFGP@patchupdater?4exe@ DB 'patchupdater.exe', 00H ; `string'
CONST	ENDS
;	COMDAT ??_C@_0DB@BGMLOPGB@Pack?5Initialization?5failed?4?5Che@
CONST	SEGMENT
??_C@_0DB@BGMLOPGB@Pack?5Initialization?5failed?4?5Che@ DB 'Pack Initiali'
	DB	'zation failed. Check log.txt file..', 00H	; `string'
CONST	ENDS
;	COMDAT ??_C@_0O@BEEPKJML@RunMain?5Error@
CONST	SEGMENT
??_C@_0O@BEEPKJML@RunMain?5Error@ DB 'RunMain Error', 00H ; `string'
CONST	ENDS
;	COMDAT ??_C@_0N@JIKFFHPP@newpatch?4exe@
CONST	SEGMENT
??_C@_0N@JIKFFHPP@newpatch?4exe@ DB 'newpatch.exe', 00H	; `string'
CONST	ENDS
;	COMDAT ??_C@_05PDJBBECF@pause@
CONST	SEGMENT
??_C@_05PDJBBECF@pause@ DB 'pause', 00H			; `string'
CONST	ENDS
;	COMDAT ??_C@_09LEIJOBCA@system?4py@
CONST	SEGMENT
??_C@_09LEIJOBCA@system?4py@ DB 'system.py', 00H	; `string'
CONST	ENDS
;	COMDAT ??_C@_0BK@DPMNHJLC@RegisterCommandLine?5Error@
CONST	SEGMENT
??_C@_0BK@DPMNHJLC@RegisterCommandLine?5Error@ DB 'RegisterCommandLine Er'
	DB	'ror', 00H					; `string'
CONST	ENDS
;	COMDAT ??_C@_0BN@KIGJPBEF@?9?9pause?9before?9create?9window@
CONST	SEGMENT
??_C@_0BN@KIGJPBEF@?9?9pause?9before?9create?9window@ DB '--pause-before-'
	DB	'create-window', 00H				; `string'
CONST	ENDS
;	COMDAT ??_C@_04JFPGDMCL@?9ncs@
CONST	SEGMENT
??_C@_04JFPGDMCL@?9ncs@ DB '-ncs', 00H			; `string'
CONST	ENDS
;	COMDAT ??_C@_0BE@FPKDPBJI@__COMMAND_LINE__?5?$DN?5@
CONST	SEGMENT
??_C@_0BE@FPKDPBJI@__COMMAND_LINE__?5?$DN?5@ DB '__COMMAND_LINE__ = ', 00H ; `string'
CONST	ENDS
;	COMDAT ??_C@_0BI@JAFKHBD@RegisterDebugFlag?5Error@
CONST	SEGMENT
??_C@_0BI@JAFKHBD@RegisterDebugFlag?5Error@ DB 'RegisterDebugFlag Error', 00H ; `string'
CONST	ENDS
;	COMDAT ??_C@_03MCGAAIEM@?9cs@
CONST	SEGMENT
??_C@_03MCGAAIEM@?9cs@ DB '-cs', 00H			; `string'
CONST	ENDS
;	COMDAT ??_C@_04NBFCGMPH@root@
CONST	SEGMENT
??_C@_04NBFCGMPH@root@ DB 'root', 00H			; `string'
CONST	ENDS
;	COMDAT ??_C@_0O@GIEHGGHC@__DEBUG__?5?$DN?50@
CONST	SEGMENT
??_C@_0O@GIEHGGHC@__DEBUG__?5?$DN?50@ DB '__DEBUG__ = 0', 00H ; `string'
CONST	ENDS
;	COMDAT ??_C@_0BG@FJMFFOHK@?$LO?K?$LI?$LC?3?5?F?Q?5?$LI?p?$LF?e?$MA?T?$LE?O?$LE?Y?4?6@
CONST	SEGMENT
??_C@_0BG@FJMFFOHK@?$LO?K?$LI?$LC?3?5?F?Q?5?$LI?p?$LF?e?$MA?T?$LE?O?$LE?Y?4?6@ DB 0beH
	DB	0cbH, 0b8H, 0b2H, ': ', 0c6H, 0d1H, ' ', 0b8H, 0f0H, 0b5H, 0e5H
	DB	0c0H, 0d4H, 0b4H, 0cfH, 0b4H, 0d9H, '.', 0aH, 00H ; `string'
CONST	ENDS
;	COMDAT ??_C@_09ODEGJGJI@_texcache@
CONST	SEGMENT
??_C@_09ODEGJGJI@_texcache@ DB '_texcache', 00H		; `string'
CONST	ENDS
;	COMDAT ??_C@_04EDDHFNCG@PACK@
CONST	SEGMENT
??_C@_04EDDHFNCG@PACK@ DB 'PACK', 00H			; `string'
CONST	ENDS
;	COMDAT ??_C@_0ED@CBACJNDK@Pack?1Index?5has?5invalid?5syntax?4?5@
CONST	SEGMENT
??_C@_0ED@CBACJNDK@Pack?1Index?5has?5invalid?5syntax?4?5@ DB 'Pack/Index '
	DB	'has invalid syntax. First line must be ''PACK'' or ''FILE''', 00H ; `string'
CONST	ENDS
;	COMDAT ??_C@_0CA@PJKENNIH@FATAL?5ERROR?$CB?5File?5not?5exist?3?5?$CFs@
CONST	SEGMENT
??_C@_0CA@PJKENNIH@FATAL?5ERROR?$CB?5File?5not?5exist?3?5?$CFs@ DB 'FATAL'
	DB	' ERROR! File not exist: %s', 00H		; `string'
CONST	ENDS
;	COMDAT ??_C@_04PMPMHNFI@FILE@
CONST	SEGMENT
??_C@_04PMPMHNFI@FILE@ DB 'FILE', 00H			; `string'
CONST	ENDS
;	COMDAT ??_C@_02LFNMGJAP@en@
CONST	SEGMENT
??_C@_02LFNMGJAP@en@ DB 'en', 00H			; `string'
CONST	ENDS
;	COMDAT ??_C@_05FNNGFGLF@Index@
CONST	SEGMENT
??_C@_05FNNGFGLF@Index@ DB 'Index', 00H			; `string'
CONST	ENDS
;	COMDAT ??_C@_0BB@FPBAACEA@metin2client?4dat@
CONST	SEGMENT
??_C@_0BB@FPBAACEA@metin2client?4dat@ DB 'metin2client.dat', 00H ; `string'
CONST	ENDS
;	COMDAT ??_C@_07GHKFPDHK@locale?1@
CONST	SEGMENT
??_C@_07GHKFPDHK@locale?1@ DB 'locale/', 00H		; `string'
CONST	ENDS
;	COMDAT ??_C@_04HOGMCHDB@lib?2@
CONST	SEGMENT
??_C@_04HOGMCHDB@lib?2@ DB 'lib\', 00H			; `string'
CONST	ENDS
;	COMDAT ??_C@_01KICIPPFI@?2@
CONST	SEGMENT
??_C@_01KICIPPFI@?2@ DB '\', 00H			; `string'
CONST	ENDS
;	COMDAT ??_C@_0O@PMKHJGGH@traceback?4pyc@
CONST	SEGMENT
??_C@_0O@PMKHJGGH@traceback?4pyc@ DB 'traceback.pyc', 00H ; `string'
CONST	ENDS
;	COMDAT ??_C@_09EHIBBABK@types?4pyc@
CONST	SEGMENT
??_C@_09EHIBBABK@types?4pyc@ DB 'types.pyc', 00H	; `string'
CONST	ENDS
;	COMDAT ??_C@_08EFIONJOP@stat?4pyc@
CONST	SEGMENT
??_C@_08EFIONJOP@stat?4pyc@ DB 'stat.pyc', 00H		; `string'
CONST	ENDS
;	COMDAT ??_C@_0L@NDKNFNNI@string?4pyc@
CONST	SEGMENT
??_C@_0L@NDKNFNNI@string?4pyc@ DB 'string.pyc', 00H	; `string'
CONST	ENDS
;	COMDAT ??_C@_06JCOFDJKA@os?4pyc@
CONST	SEGMENT
??_C@_06JCOFDJKA@os?4pyc@ DB 'os.pyc', 00H		; `string'
CONST	ENDS
;	COMDAT ??_C@_08FPFMJPEC@site?4pyc@
CONST	SEGMENT
??_C@_08FPFMJPEC@site?4pyc@ DB 'site.pyc', 00H		; `string'
CONST	ENDS
;	COMDAT ??_C@_0O@COBIIGAD@linecache?4pyc@
CONST	SEGMENT
??_C@_0O@COBIIGAD@linecache?4pyc@ DB 'linecache.pyc', 00H ; `string'
CONST	ENDS
;	COMDAT ??_C@_0L@HJCEJGHC@ntpath?4pyc@
CONST	SEGMENT
??_C@_0L@HJCEJGHC@ntpath?4pyc@ DB 'ntpath.pyc', 00H	; `string'
CONST	ENDS
;	COMDAT ??_C@_0P@KBODAEKE@__future__?4pyc@
CONST	SEGMENT
??_C@_0P@KBODAEKE@__future__?4pyc@ DB '__future__.pyc', 00H ; `string'
CONST	ENDS
;	COMDAT ??_C@_0N@GCNFBOJN@copy_reg?4pyc@
CONST	SEGMENT
??_C@_0N@GCNFBOJN@copy_reg?4pyc@ DB 'copy_reg.pyc', 00H	; `string'
CONST	ENDS
;	COMDAT ??_C@_0N@CMMKLLC@UserDict?4pyc@
CONST	SEGMENT
??_C@_0N@CMMKLLC@UserDict?4pyc@ DB 'UserDict.pyc', 00H	; `string'
?sc_apszPythonLibraryFilenames@@3PAPBDA DD FLAT:??_C@_0N@CMMKLLC@UserDict?4pyc@ ; sc_apszPythonLibraryFilenames
	DD	FLAT:??_C@_0P@KBODAEKE@__future__?4pyc@
	DD	FLAT:??_C@_0N@GCNFBOJN@copy_reg?4pyc@
	DD	FLAT:??_C@_0O@COBIIGAD@linecache?4pyc@
	DD	FLAT:??_C@_0L@HJCEJGHC@ntpath?4pyc@
	DD	FLAT:??_C@_06JCOFDJKA@os?4pyc@
	DD	FLAT:??_C@_08FPFMJPEC@site?4pyc@
	DD	FLAT:??_C@_08EFIONJOP@stat?4pyc@
	DD	FLAT:??_C@_0L@NDKNFNNI@string?4pyc@
	DD	FLAT:??_C@_0O@PMKHJGGH@traceback?4pyc@
	DD	FLAT:??_C@_09EHIBBABK@types?4pyc@
	DD	FLAT:??_C@_01EEMJAFIK@?6@
PUBLIC	??$swap@DU?$char_traits@D@std@@V?$allocator@D@2@@std@@YAXAAV?$basic_string@DU?$char_traits@D@std@@V?$allocator@D@2@@0@0@Z ; std::swap<char,std::char_traits<char>,std::allocator<char> >
PUBLIC	?swap@?$basic_string@DU?$char_traits@D@std@@V?$allocator@D@2@@std@@QAEXAAV12@@Z ; std::basic_string<char,std::char_traits<char>,std::allocator<char> >::swap
PUBLIC	?_Swap_data@?$basic_string@DU?$char_traits@D@std@@V?$allocator@D@2@@std@@QAEXAAV12@@Z ; std::basic_string<char,std::char_traits<char>,std::allocator<char> >::_Swap_data
PUBLIC	?_Swap_bx_large_with_small@?$basic_string@DU?$char_traits@D@std@@V?$allocator@D@2@@std@@SAXAAV?$_String_val@U?$_Simple_types@D@std@@@2@0@Z ; std::basic_string<char,std::char_traits<char>,std::allocator<char> >::_Swap_bx_large_with_small
PUBLIC	??$swap@PAD$0A@@std@@YAXAAPAD0@Z		; std::swap<char *,0>
PUBLIC	??$_Pocs@V?$allocator@D@std@@@std@@YAXAAV?$allocator@D@0@0@Z ; std::_Pocs<std::allocator<char> >
PUBLIC	??$_Reallocate_grow_by@V<lambda_1>@?1??insert@?$basic_string@DU?$char_traits@D@std@@V?$allocator@D@2@@std@@QAEAAV34@IQBDI@Z@IPBDI@?$basic_string@DU?$char_traits@D@std@@V?$allocator@D@2@@std@@AAEAAV01@IV<lambda_1>@?1??insert@01@QAEAAV01@IQBDI@Z@IPBDI@Z ; std::basic_string<char,std::char_traits<char>,std::allocator<char> >::_Reallocate_grow_by<`std::basic_string<char,std::char_traits<char>,std::allocator<char> >::insert'::`2'::<lambda_1>,unsigned int,char const *,unsigned int>
PUBLIC	??R<lambda_1>@?1??insert@?$basic_string@DU?$char_traits@D@std@@V?$allocator@D@2@@std@@QAEAAV23@IQBDI@Z@QBE@QAD0II0I@Z ; `std::basic_string<char,std::char_traits<char>,std::allocator<char> >::insert'::`2'::<lambda_1>::operator()
PUBLIC	?insert@?$basic_string@DU?$char_traits@D@std@@V?$allocator@D@2@@std@@QAEAAV12@IQBDI@Z ; std::basic_string<char,std::char_traits<char>,std::allocator<char> >::insert
PUBLIC	??$_Reallocate_grow_by@V<lambda_1>@?1??push_back@?$basic_string@DU?$char_traits@D@std@@V?$allocator@D@2@@std@@QAEXD@Z@D@?$basic_string@DU?$char_traits@D@std@@V?$allocator@D@2@@std@@AAEAAV01@IV<lambda_1>@?1??push_back@01@QAEXD@Z@D@Z ; std::basic_string<char,std::char_traits<char>,std::allocator<char> >::_Reallocate_grow_by<`std::basic_string<char,std::char_traits<char>,std::allocator<char> >::push_back'::`2'::<lambda_1>,char>
PUBLIC	??$addressof@$$CBV?$_Vector_val@U?$_Simple_types@V?$basic_string@DU?$char_traits@D@std@@V?$allocator@D@2@@std@@@std@@@std@@@std@@YAPBV?$_Vector_val@U?$_Simple_types@V?$basic_string@DU?$char_traits@D@std@@V?$allocator@D@2@@std@@@std@@@0@ABV10@@Z ; std::addressof<std::_Vector_val<std::_Simple_types<std::basic_string<char,std::char_traits<char>,std::allocator<char> > > > const >
PUBLIC	?insert@?$basic_string@DU?$char_traits@D@std@@V?$allocator@D@2@@std@@QAEAAV12@IABV12@@Z ; std::basic_string<char,std::char_traits<char>,std::allocator<char> >::insert
PUBLIC	??R<lambda_1>@?1??push_back@?$basic_string@DU?$char_traits@D@std@@V?$allocator@D@2@@std@@QAEXD@Z@QBE@QADQBDID@Z ; `std::basic_string<char,std::char_traits<char>,std::allocator<char> >::push_back'::`2'::<lambda_1>::operator()
PUBLIC	?push_back@?$basic_string@DU?$char_traits@D@std@@V?$allocator@D@2@@std@@QAEXD@Z ; std::basic_string<char,std::char_traits<char>,std::allocator<char> >::push_back
PUBLIC	?begin@?$vector@V?$basic_string@DU?$char_traits@D@std@@V?$allocator@D@2@@std@@V?$allocator@V?$basic_string@DU?$char_traits@D@std@@V?$allocator@D@2@@std@@@2@@std@@QBE?AV?$_Vector_const_iterator@V?$_Vector_val@U?$_Simple_types@V?$basic_string@DU?$char_traits@D@std@@V?$allocator@D@2@@std@@@std@@@std@@@2@XZ ; std::vector<std::basic_string<char,std::char_traits<char>,std::allocator<char> >,std::allocator<std::basic_string<char,std::char_traits<char>,std::allocator<char> > > >::begin
PUBLIC	?end@?$vector@V?$basic_string@DU?$char_traits@D@std@@V?$allocator@D@2@@std@@V?$allocator@V?$basic_string@DU?$char_traits@D@std@@V?$allocator@D@2@@std@@@2@@std@@QBE?AV?$_Vector_const_iterator@V?$_Vector_val@U?$_Simple_types@V?$basic_string@DU?$char_traits@D@std@@V?$allocator@D@2@@std@@@std@@@std@@@2@XZ ; std::vector<std::basic_string<char,std::char_traits<char>,std::allocator<char> >,std::allocator<std::basic_string<char,std::char_traits<char>,std::allocator<char> > > >::end
PUBLIC	??E?$_Vector_const_iterator@V?$_Vector_val@U?$_Simple_types@V?$basic_string@DU?$char_traits@D@std@@V?$allocator@D@2@@std@@@std@@@std@@@std@@QAE?AV01@H@Z ; std::_Vector_const_iterator<std::_Vector_val<std::_Simple_types<std::basic_string<char,std::char_traits<char>,std::allocator<char> > > > >::operator++
PUBLIC	??F?$_Vector_const_iterator@V?$_Vector_val@U?$_Simple_types@V?$basic_string@DU?$char_traits@D@std@@V?$allocator@D@2@@std@@@std@@@std@@@std@@QAEAAV01@XZ ; std::_Vector_const_iterator<std::_Vector_val<std::_Simple_types<std::basic_string<char,std::char_traits<char>,std::allocator<char> > > > >::operator--
PUBLIC	??Y?$basic_string@DU?$char_traits@D@std@@V?$allocator@D@2@@std@@QAEAAV01@D@Z ; std::basic_string<char,std::char_traits<char>,std::allocator<char> >::operator+=
PUBLIC	??$string_join@V?$vector@V?$basic_string@DU?$char_traits@D@std@@V?$allocator@D@2@@std@@V?$allocator@V?$basic_string@DU?$char_traits@D@std@@V?$allocator@D@2@@std@@@2@@std@@@@YAXABV?$basic_string@DU?$char_traits@D@std@@V?$allocator@D@2@@std@@ABV?$vector@V?$basic_string@DU?$char_traits@D@std@@V?$allocator@D@2@@std@@V?$allocator@V?$basic_string@DU?$char_traits@D@std@@V?$allocator@D@2@@std@@@2@@1@PAV01@@Z ; string_join<std::vector<std::basic_string<char,std::char_traits<char>,std::allocator<char> >,std::allocator<std::basic_string<char,std::char_traits<char>,std::allocator<char> > > > >
PUBLIC	??$?HDU?$char_traits@D@std@@V?$allocator@D@1@@std@@YA?AV?$basic_string@DU?$char_traits@D@std@@V?$allocator@D@2@@0@ABV10@$$QAV10@@Z ; std::operator+<char,std::char_traits<char>,std::allocator<char> >
PUBLIC	?Setup@@YAHPAD@Z				; Setup
PUBLIC	_WinMain@16
PUBLIC	?__IsLocaleVersion@@YA_NPAD@Z			; __IsLocaleVersion
PUBLIC	?__IsLocaleOption@@YA_NPAD@Z			; __IsLocaleOption
PUBLIC	?__PrintTimeStamp@@YAXXZ			; __PrintTimeStamp
PUBLIC	?__IsTimeStampOption@@YA_NPAD@Z			; __IsTimeStampOption
PUBLIC	?__ErrorPythonLibraryIsNotExist@@YAXXZ		; __ErrorPythonLibraryIsNotExist
PUBLIC	?Main@@YA_NPAUHINSTANCE__@@PAD@Z		; Main
PUBLIC	?RunMainScript@@YA_NAAVCPythonLauncher@@PBD@Z	; RunMainScript
PUBLIC	?PackInitialize@@YA_NPBD@Z			; PackInitialize
PUBLIC	?ApplicationStringTable_GetString@@YAABV?$basic_string@DU?$char_traits@D@std@@V?$allocator@D@2@@std@@KPBD@Z ; ApplicationStringTable_GetString
PUBLIC	?ApplicationStringTable_Initialize@@YAXPAUHINSTANCE__@@@Z ; ApplicationStringTable_Initialize
PUBLIC	??1ApplicationStringTable@@QAE@XZ		; ApplicationStringTable::~ApplicationStringTable
PUBLIC	??0ApplicationStringTable@@QAE@XZ		; ApplicationStringTable::ApplicationStringTable
PUBLIC	?CheckPythonLibraryFilenames@@YA_NXZ		; CheckPythonLibraryFilenames
PUBLIC	?METIN2_GET_VERSION@@YAHXZ			; METIN2_GET_VERSION
PUBLIC	?ApplicationStringTable_GetString@@YAABV?$basic_string@DU?$char_traits@D@std@@V?$allocator@D@2@@std@@K@Z ; ApplicationStringTable_GetString
PUBLIC	?ApplicationStringTable_GetStringz@@YAPBDKPBD@Z	; ApplicationStringTable_GetStringz
PUBLIC	__AVOID_FLOATING_POINT_LIBRARY_BUG
PUBLIC	___iob_func
PUBLIC	?gs_kAppStrTable@@3UApplicationStringTable@@A	; gs_kAppStrTable
__AVOID_FLOATING_POINT_LIBRARY_BUG DD 01H DUP (?)
___iob_func DD	03H DUP (?)
?gs_kAppStrTable@@3UApplicationStringTable@@A DB 0cH DUP (?) ; gs_kAppStrTable
_BSS	ENDS
;	COMDAT ?$TSS0@?1??Main@@YA_NPAUHINSTANCE__@@PAD@Z@4HA
_BSS	SEGMENT
?$TSS0@?1??Main@@YA_NPAUHINSTANCE__@@PAD@Z@4HA DD 01H DUP (?) ; `Main'::`2'::$TSS0
_BSS	ENDS
;	COMDAT ?lzo@?1??Main@@YA_NPAUHINSTANCE__@@PAD@Z@4VCLZO@@A
_BSS	SEGMENT
?lzo@?1??Main@@YA_NPAUHINSTANCE__@@PAD@Z@4VCLZO@@A DQ 01H DUP (?) ; `Main'::`2'::lzo
_BSS	ENDS
;	COMDAT ?$TSS1@?1??Main@@YA_NPAUHINSTANCE__@@PAD@Z@4HA
_BSS	SEGMENT
?$TSS1@?1??Main@@YA_NPAUHINSTANCE__@@PAD@Z@4HA DD 01H DUP (?) ; `Main'::`2'::$TSS1
_BSS	ENDS
;	COMDAT ?EterPackManager@?1??Main@@YA_NPAUHINSTANCE__@@PAD@Z@4VCEterPackManager@@A
_BSS	SEGMENT
?EterPackManager@?1??Main@@YA_NPAUHINSTANCE__@@PAD@Z@4VCEterPackManager@@A DB 014a8H DUP (?) ; `Main'::`2'::EterPackManager
_BSS	ENDS
;	COMDAT voltbl
voltbl	SEGMENT
_volmd	DB	05H
voltbl	ENDS
;	COMDAT xdata$x
xdata$x	SEGMENT
__ehfuncinfo$?CheckPythonLibraryFilenames@@YA_NXZ DD 019930522H
	DD	01H
	DD	FLAT:__unwindtable$?CheckPythonLibraryFilenames@@YA_NXZ
	DD	2 DUP(00H)
	DD	2 DUP(00H)
	DD	00H
	DD	01H
__unwindtable$?CheckPythonLibraryFilenames@@YA_NXZ DD 0ffffffffH
	DD	FLAT:__unwindfunclet$?CheckPythonLibraryFilenames@@YA_NXZ$0
xdata$x	ENDS
;	COMDAT xdata$x
xdata$x	SEGMENT
__ehfuncinfo$?PackInitialize@@YA_NPBD@Z DD 019930522H
	DD	08H
	DD	FLAT:__unwindtable$?PackInitialize@@YA_NPBD@Z
	DD	2 DUP(00H)
	DD	2 DUP(00H)
	DD	00H
	DD	01H
	ORG $+4
__unwindtable$?PackInitialize@@YA_NPBD@Z DD 0ffffffffH
	DD	FLAT:__unwindfunclet$?PackInitialize@@YA_NPBD@Z$0
	DD	00H
	DD	FLAT:__unwindfunclet$?PackInitialize@@YA_NPBD@Z$1
	DD	01H
	DD	FLAT:__unwindfunclet$?PackInitialize@@YA_NPBD@Z$2
	DD	02H
	DD	FLAT:__unwindfunclet$?PackInitialize@@YA_NPBD@Z$3
	DD	03H
	DD	FLAT:__unwindfunclet$?PackInitialize@@YA_NPBD@Z$4
	DD	04H
	DD	FLAT:__unwindfunclet$?PackInitialize@@YA_NPBD@Z$5
	DD	05H
	DD	FLAT:__unwindfunclet$?PackInitialize@@YA_NPBD@Z$8
	DD	06H
	DD	FLAT:__unwindfunclet$?PackInitialize@@YA_NPBD@Z$9
xdata$x	ENDS
;	COMDAT xdata$x
xdata$x	SEGMENT
__ehfuncinfo$?RunMainScript@@YA_NAAVCPythonLauncher@@PBD@Z DD 019930522H
	DD	07H
	DD	FLAT:__unwindtable$?RunMainScript@@YA_NAAVCPythonLauncher@@PBD@Z
	DD	2 DUP(00H)
	DD	2 DUP(00H)
	DD	00H
	DD	01H
__unwindtable$?RunMainScript@@YA_NAAVCPythonLauncher@@PBD@Z DD 0ffffffffH
	DD	FLAT:__unwindfunclet$?RunMainScript@@YA_NAAVCPythonLauncher@@PBD@Z$0
	DD	0ffffffffH
	DD	FLAT:__unwindfunclet$?RunMainScript@@YA_NAAVCPythonLauncher@@PBD@Z$1
	DD	01H
	DD	FLAT:__unwindfunclet$?RunMainScript@@YA_NAAVCPythonLauncher@@PBD@Z$2
	DD	02H
	DD	FLAT:__unwindfunclet$?RunMainScript@@YA_NAAVCPythonLauncher@@PBD@Z$3
	DD	03H
	DD	FLAT:__unwindfunclet$?RunMainScript@@YA_NAAVCPythonLauncher@@PBD@Z$4
	DD	03H
	DD	FLAT:__unwindfunclet$?RunMainScript@@YA_NAAVCPythonLauncher@@PBD@Z$5
	DD	0ffffffffH
	DD	FLAT:__unwindfunclet$?RunMainScript@@YA_NAAVCPythonLauncher@@PBD@Z$6
xdata$x	ENDS
;	COMDAT xdata$x
xdata$x	SEGMENT
__ehfuncinfo$?Main@@YA_NPAUHINSTANCE__@@PAD@Z DD 019930522H
	DD	05H
	DD	FLAT:__unwindtable$?Main@@YA_NPAUHINSTANCE__@@PAD@Z
	DD	2 DUP(00H)
	DD	2 DUP(00H)
	DD	00H
	DD	01H
__unwindtable$?Main@@YA_NPAUHINSTANCE__@@PAD@Z DD 0ffffffffH
	DD	FLAT:__unwindfunclet$?Main@@YA_NPAUHINSTANCE__@@PAD@Z$0
	DD	0ffffffffH
	DD	FLAT:__unwindfunclet$?Main@@YA_NPAUHINSTANCE__@@PAD@Z$1
	DD	0ffffffffH
	DD	FLAT:__unwindfunclet$?Main@@YA_NPAUHINSTANCE__@@PAD@Z$2
	DD	0ffffffffH
	DD	FLAT:__unwindfunclet$?Main@@YA_NPAUHINSTANCE__@@PAD@Z$3
	DD	03H
	DD	FLAT:__unwindfunclet$?Main@@YA_NPAUHINSTANCE__@@PAD@Z$4
xdata$x	ENDS
;	COMDAT xdata$x
xdata$x	SEGMENT
__ehfuncinfo$??$string_join@V?$vector@V?$basic_string@DU?$char_traits@D@std@@V?$allocator@D@2@@std@@V?$allocator@V?$basic_string@DU?$char_traits@D@std@@V?$allocator@D@2@@std@@@2@@std@@@@YAXABV?$basic_string@DU?$char_traits@D@std@@V?$allocator@D@2@@std@@ABV?$vector@V?$basic_string@DU?$char_traits@D@std@@V?$allocator@D@2@@std@@V?$allocator@V?$basic_string@DU?$char_traits@D@std@@V?$allocator@D@2@@std@@@2@@1@PAV01@@Z DD 019930522H
	DD	01H
	DD	FLAT:__unwindtable$??$string_join@V?$vector@V?$basic_string@DU?$char_traits@D@std@@V?$allocator@D@2@@std@@V?$allocator@V?$basic_string@DU?$char_traits@D@std@@V?$allocator@D@2@@std@@@2@@std@@@@YAXABV?$basic_string@DU?$char_traits@D@std@@V?$allocator@D@2@@std@@ABV?$vector@V?$basic_string@DU?$char_traits@D@std@@V?$allocator@D@2@@std@@V?$allocator@V?$basic_string@DU?$char_traits@D@std@@V?$allocator@D@2@@std@@@2@@1@PAV01@@Z
	DD	2 DUP(00H)
	DD	2 DUP(00H)
	DD	00H
	DD	01H
__unwindtable$??$string_join@V?$vector@V?$basic_string@DU?$char_traits@D@std@@V?$allocator@D@2@@std@@V?$allocator@V?$basic_string@DU?$char_traits@D@std@@V?$allocator@D@2@@std@@@2@@std@@@@YAXABV?$basic_string@DU?$char_traits@D@std@@V?$allocator@D@2@@std@@ABV?$vector@V?$basic_string@DU?$char_traits@D@std@@V?$allocator@D@2@@std@@V?$allocator@V?$basic_string@DU?$char_traits@D@std@@V?$allocator@D@2@@std@@@2@@1@PAV01@@Z DD 0ffffffffH
	DD	FLAT:__unwindfunclet$??$string_join@V?$vector@V?$basic_string@DU?$char_traits@D@std@@V?$allocator@D@2@@std@@V?$allocator@V?$basic_string@DU?$char_traits@D@std@@V?$allocator@D@2@@std@@@2@@std@@@@YAXABV?$basic_string@DU?$char_traits@D@std@@V?$allocator@D@2@@std@@ABV?$vector@V?$basic_string@DU?$char_traits@D@std@@V?$allocator@D@2@@std@@V?$allocator@V?$basic_string@DU?$char_traits@D@std@@V?$allocator@D@2@@std@@@2@@1@PAV01@@Z$0
?_AVOID_FLOATING_POINT_LIBRARY_BUG$initializer$@@3P6AXXZA DD FLAT:??__E_AVOID_FLOATING_POINT_LIBRARY_BUG@@YAXXZ ; _AVOID_FLOATING_POINT_LIBRARY_BUG$initializer$
?__iob_func$initializer$@@3P6AXXZA DD FLAT:??__E__iob_func@@YAXXZ ; __iob_func$initializer$
?gs_kAppStrTable$initializer$@@3P6AXXZA DD FLAT:??__Egs_kAppStrTable@@YAXXZ ; gs_kAppStrTable$initializer$
; Function compile flags: /Ogtp
; File D:\_m2work\txoko-m2-work\txoko-client-src\source\UserInterface\UserInterface.cpp
; File C:\Program Files\Microsoft Visual Studio\2022\Community\VC\Tools\MSVC\14.44.35207\include\xstring
; File D:\_m2work\txoko-m2-work\txoko-client-src\source\UserInterface\UserInterface.cpp
;	COMDAT ?ApplicationStringTable_GetStringz@@YAPBDKPBD@Z
_TEXT	SEGMENT
?ApplicationStringTable_GetStringz@@YAPBDKPBD@Z PROC	; ApplicationStringTable_GetStringz, COMDAT
; _dwID$ = ecx
; _szKey$ = edx

; 149  : {

  00000	51		 push	 ecx

; 150  : 	return ApplicationStringTable_GetString(dwID, szKey).c_str();

  00001	e8 00 00 00 00	 call	 ?ApplicationStringTable_GetString@@YAABV?$basic_string@DU?$char_traits@D@std@@V?$allocator@D@2@@std@@KPBD@Z ; ApplicationStringTable_GetString
; File C:\Program Files\Microsoft Visual Studio\2022\Community\VC\Tools\MSVC\14.44.35207\include\xstring

; 453  :         return _Myres > _Small_string_capacity;

  00006	83 78 14 0f	 cmp	 DWORD PTR [eax+20], 15	; 0000000fH

; 445  :         if (_Large_mode_engaged()) {

  0000a	76 02		 jbe	 SHORT $LN7@Applicatio
; File D:\_m2work\txoko-m2-work\txoko-client-src\source\UserInterface\UserInterface.cpp

; 150  : 	return ApplicationStringTable_GetString(dwID, szKey).c_str();

  0000c	8b 00		 mov	 eax, DWORD PTR [eax]
$LN7@Applicatio:

; 151  : }

  0000e	59		 pop	 ecx
  0000f	c3		 ret	 0
?ApplicationStringTable_GetStringz@@YAPBDKPBD@Z ENDP	; ApplicationStringTable_GetStringz
_TEXT	ENDS
; Function compile flags: /Ogtp
; File D:\_m2work\txoko-m2-work\txoko-client-src\source\UserInterface\UserInterface.cpp
; File C:\Program Files\Microsoft Visual Studio\2022\Community\VC\Tools\MSVC\14.44.35207\include\__msvc_string_view.hpp
; File D:\_m2work\txoko-m2-work\txoko-client-src\source\UserInterface\UserInterface.cpp
; File C:\Program Files\Microsoft Visual Studio\2022\Community\VC\Tools\MSVC\14.44.35207\include\__msvc_string_view.hpp
; File C:\Program Files\Microsoft Visual Studio\2022\Community\VC\Tools\MSVC\14.44.35207\include\xstring
; File D:\_m2work\txoko-m2-work\txoko-client-src\source\UserInterface\UserInterface.cpp
;	COMDAT ?ApplicationStringTable_GetString@@YAABV?$basic_string@DU?$char_traits@D@std@@V?$allocator@D@2@@std@@K@Z
_TEXT	SEGMENT
_dwID$ = -524						; size = 4
_szBuffer$ = -520					; size = 512
__$ArrayPad$ = -4					; size = 4
?ApplicationStringTable_GetString@@YAABV?$basic_string@DU?$char_traits@D@std@@V?$allocator@D@2@@std@@K@Z PROC ; ApplicationStringTable_GetString, COMDAT
; _dwID$dead$ = ecx

; 138  : {

  00000	55		 push	 ebp
  00001	8b ec		 mov	 ebp, esp
  00003	81 ec 14 02 00
	00		 sub	 esp, 532		; 00000214H
  00009	a1 00 00 00 00	 mov	 eax, DWORD PTR ___security_cookie
  0000e	33 c5		 xor	 eax, ebp
  00010	89 45 fc	 mov	 DWORD PTR __$ArrayPad$[ebp], eax
  00013	56		 push	 esi

; 139  : 	char szBuffer[512];
; 140  : 
; 141  : 	LoadString(gs_kAppStrTable.m_hInstance, dwID, szBuffer, sizeof(szBuffer)-1);

  00014	68 ff 01 00 00	 push	 511			; 000001ffH
  00019	8d 85 f8 fd ff
	ff		 lea	 eax, DWORD PTR _szBuffer$[ebp]
  0001f	c7 85 f4 fd ff
	ff 02 00 00 00	 mov	 DWORD PTR _dwID$[ebp], 2
  00029	50		 push	 eax
  0002a	6a 02		 push	 2
  0002c	ff 35 00 00 00
	00		 push	 DWORD PTR ?gs_kAppStrTable@@3UApplicationStringTable@@A
  00032	ff 15 00 00 00
	00		 call	 DWORD PTR __imp__LoadStringA@16

; 142  : 	std::string& rstLocale=gs_kAppStrTable.m_kMap_dwID_stLocale[dwID];

  00038	8d 85 f4 fd ff
	ff		 lea	 eax, DWORD PTR _dwID$[ebp]
  0003e	b9 04 00 00 00	 mov	 ecx, OFFSET ?gs_kAppStrTable@@3UApplicationStringTable@@A+4
  00043	50		 push	 eax
  00044	e8 00 00 00 00	 call	 ??A?$map@KV?$basic_string@DU?$char_traits@D@std@@V?$allocator@D@2@@std@@U?$less@K@2@V?$allocator@U?$pair@$$CBKV?$basic_string@DU?$char_traits@D@std@@V?$allocator@D@2@@std@@@std@@@2@@std@@QAEAAV?$basic_string@DU?$char_traits@D@std@@V?$allocator@D@2@@1@ABK@Z ; std::map<unsigned long,std::basic_string<char,std::char_traits<char>,std::allocator<char> >,std::less<unsigned long>,std::allocator<std::pair<unsigned long const ,std::basic_string<char,std::char_traits<char>,std::allocator<char> > > > >::operator[]
; File C:\Program Files\Microsoft Visual Studio\2022\Community\VC\Tools\MSVC\14.44.35207\include\__msvc_string_view.hpp

; 456  :             return __builtin_strlen(_First);

  00049	8d 8d f8 fd ff
	ff		 lea	 ecx, DWORD PTR _szBuffer$[ebp]
; File D:\_m2work\txoko-m2-work\txoko-client-src\source\UserInterface\UserInterface.cpp

; 142  : 	std::string& rstLocale=gs_kAppStrTable.m_kMap_dwID_stLocale[dwID];

  0004f	8b f0		 mov	 esi, eax
; File C:\Program Files\Microsoft Visual Studio\2022\Community\VC\Tools\MSVC\14.44.35207\include\__msvc_string_view.hpp

; 456  :             return __builtin_strlen(_First);

  00051	8d 51 01	 lea	 edx, DWORD PTR [ecx+1]
$LL10@Applicatio:
  00054	8a 01		 mov	 al, BYTE PTR [ecx]
  00056	41		 inc	 ecx
  00057	84 c0		 test	 al, al
  00059	75 f9		 jne	 SHORT $LL10@Applicatio
  0005b	2b ca		 sub	 ecx, edx
; File C:\Program Files\Microsoft Visual Studio\2022\Community\VC\Tools\MSVC\14.44.35207\include\xstring

; 1638 :         return assign(_Ptr, _Convert_size<size_type>(_Traits::length(_Ptr)));

  0005d	8d 85 f8 fd ff
	ff		 lea	 eax, DWORD PTR _szBuffer$[ebp]
  00063	51		 push	 ecx
  00064	50		 push	 eax
  00065	8b ce		 mov	 ecx, esi
  00067	e8 00 00 00 00	 call	 ?assign@?$basic_string@DU?$char_traits@D@std@@V?$allocator@D@2@@std@@QAEAAV12@QBDI@Z ; std::basic_string<char,std::char_traits<char>,std::allocator<char> >::assign
; File D:\_m2work\txoko-m2-work\txoko-client-src\source\UserInterface\UserInterface.cpp

; 146  : }

  0006c	8b 4d fc	 mov	 ecx, DWORD PTR __$ArrayPad$[ebp]
  0006f	8b c6		 mov	 eax, esi
  00071	33 cd		 xor	 ecx, ebp
  00073	5e		 pop	 esi
  00074	e8 00 00 00 00	 call	 @__security_check_cookie@4
  00079	8b e5		 mov	 esp, ebp
  0007b	5d		 pop	 ebp
  0007c	c3		 ret	 0
?ApplicationStringTable_GetString@@YAABV?$basic_string@DU?$char_traits@D@std@@V?$allocator@D@2@@std@@K@Z ENDP ; ApplicationStringTable_GetString
_TEXT	ENDS
; Function compile flags: /Ogtp
; File D:\_m2work\txoko-m2-work\txoko-client-src\source\UserInterface\Version.h
;	COMDAT ?METIN2_GET_VERSION@@YAHXZ
_TEXT	SEGMENT
?METIN2_GET_VERSION@@YAHXZ PROC				; METIN2_GET_VERSION, COMDAT

; 3    : int METIN2_GET_VERSION() { return 28249; }

  00000	b8 59 6e 00 00	 mov	 eax, 28249		; 00006e59H
  00005	c3		 ret	 0
?METIN2_GET_VERSION@@YAHXZ ENDP				; METIN2_GET_VERSION
_TEXT	ENDS
; Function compile flags: /Ogtp
; File D:\_m2work\txoko-m2-work\txoko-client-src\source\UserInterface\UserInterface.cpp
;	COMDAT ??__E_AVOID_FLOATING_POINT_LIBRARY_BUG@@YAXXZ
text$di	SEGMENT
??__E_AVOID_FLOATING_POINT_LIBRARY_BUG@@YAXXZ PROC	; `dynamic initializer for '_AVOID_FLOATING_POINT_LIBRARY_BUG'', COMDAT

; 25   : volatile int _AVOID_FLOATING_POINT_LIBRARY_BUG = _fltused;  

  00000	a1 00 00 00 00	 mov	 eax, DWORD PTR __fltused
  00005	a3 00 00 00 00	 mov	 DWORD PTR __AVOID_FLOATING_POINT_LIBRARY_BUG, eax
  0000a	c3		 ret	 0
??__E_AVOID_FLOATING_POINT_LIBRARY_BUG@@YAXXZ ENDP	; `dynamic initializer for '_AVOID_FLOATING_POINT_LIBRARY_BUG''
text$di	ENDS
; Function compile flags: /Ogtp
; File D:\_m2work\txoko-m2-work\txoko-client-src\source\UserInterface\UserInterface.cpp
;	COMDAT ??__E__iob_func@@YAXXZ
text$di	SEGMENT
??__E__iob_func@@YAXXZ PROC				; `dynamic initializer for '__iob_func'', COMDAT

; 27   : extern "C" { FILE __iob_func[3] = { *stdin,*stdout,*stderr }; }

  00000	6a 00		 push	 0
  00002	e8 00 00 00 00	 call	 ___acrt_iob_func
  00007	6a 01		 push	 1
  00009	8b 00		 mov	 eax, DWORD PTR [eax]
  0000b	a3 00 00 00 00	 mov	 DWORD PTR ___iob_func, eax
  00010	e8 00 00 00 00	 call	 ___acrt_iob_func
  00015	6a 02		 push	 2
  00017	8b 00		 mov	 eax, DWORD PTR [eax]
  00019	a3 04 00 00 00	 mov	 DWORD PTR ___iob_func+4, eax
  0001e	e8 00 00 00 00	 call	 ___acrt_iob_func
  00023	83 c4 0c	 add	 esp, 12			; 0000000cH
  00026	8b 00		 mov	 eax, DWORD PTR [eax]
  00028	a3 08 00 00 00	 mov	 DWORD PTR ___iob_func+8, eax
  0002d	c3		 ret	 0
??__E__iob_func@@YAXXZ ENDP				; `dynamic initializer for '__iob_func''
text$di	ENDS
; Function compile flags: /Ogtp
; File D:\_m2work\txoko-m2-work\txoko-client-src\source\UserInterface\UserInterface.cpp
; File C:\Program Files\Microsoft Visual Studio\2022\Community\VC\Tools\MSVC\14.44.35207\include\xstring
; File C:\Program Files\Microsoft Visual Studio\2022\Community\VC\Tools\MSVC\14.44.35207\include\__msvc_string_view.hpp
; File C:\Program Files\Microsoft Visual Studio\2022\Community\VC\Tools\MSVC\14.44.35207\include\xstring
; File C:\Program Files\Microsoft Visual Studio\2022\Community\VC\Tools\MSVC\14.44.35207\include\__msvc_string_view.hpp
; File D:\_m2work\txoko-m2-work\txoko-client-src\source\UserInterface\UserInterface.cpp
; File C:\Program Files\Microsoft Visual Studio\2022\Community\VC\Tools\MSVC\14.44.35207\include\__msvc_string_view.hpp
; File C:\Program Files\Microsoft Visual Studio\2022\Community\VC\Tools\MSVC\14.44.35207\include\xstring
; File D:\_m2work\txoko-m2-work\txoko-client-src\source\UserInterface\UserInterface.cpp
; File C:\Program Files\Microsoft Visual Studio\2022\Community\VC\Tools\MSVC\14.44.35207\include\xstring
; File D:\_m2work\txoko-m2-work\txoko-client-src\source\UserInterface\UserInterface.cpp
; File C:\Program Files\Microsoft Visual Studio\2022\Community\VC\Tools\MSVC\14.44.35207\include\xstring
; File D:\_m2work\txoko-m2-work\txoko-client-src\source\UserInterface\UserInterface.cpp
; File C:\Program Files\Microsoft Visual Studio\2022\Community\VC\Tools\MSVC\14.44.35207\include\xstring
; File C:\Program Files\Microsoft Visual Studio\2022\Community\VC\Tools\MSVC\14.44.35207\include\xmemory
; File C:\Program Files\Microsoft Visual Studio\2022\Community\VC\Tools\MSVC\14.44.35207\include\xstring
; File C:\Program Files\Microsoft Visual Studio\2022\Community\VC\Tools\MSVC\14.44.35207\include\xmemory
; File D:\_m2work\txoko-m2-work\txoko-client-src\source\UserInterface\UserInterface.cpp
; File C:\Program Files\Microsoft Visual Studio\2022\Community\VC\Tools\MSVC\14.44.35207\include\xstring
; File C:\Program Files\Microsoft Visual Studio\2022\Community\VC\Tools\MSVC\14.44.35207\include\xmemory
; File C:\Program Files\Microsoft Visual Studio\2022\Community\VC\Tools\MSVC\14.44.35207\include\xstring
; File C:\Program Files\Microsoft Visual Studio\2022\Community\VC\Tools\MSVC\14.44.35207\include\xmemory
; File D:\_m2work\txoko-m2-work\txoko-client-src\source\UserInterface\UserInterface.cpp
; File C:\Program Files\Microsoft Visual Studio\2022\Community\VC\Tools\MSVC\14.44.35207\include\xmemory
; File D:\_m2work\txoko-m2-work\txoko-client-src\source\UserInterface\UserInterface.cpp
;	COMDAT ?CheckPythonLibraryFilenames@@YA_NXZ
_TEXT	SEGMENT
_stFilename$2 = -40					; size = 24
__$ArrayPad$ = -16					; size = 4
__$EHRec$ = -12						; size = 12
?CheckPythonLibraryFilenames@@YA_NXZ PROC		; CheckPythonLibraryFilenames, COMDAT

; 81   : {

  00000	55		 push	 ebp
  00001	8b ec		 mov	 ebp, esp
  00003	6a ff		 push	 -1
  00005	68 00 00 00 00	 push	 __ehhandler$?CheckPythonLibraryFilenames@@YA_NXZ
  0000a	64 a1 00 00 00
	00		 mov	 eax, DWORD PTR fs:0
  00010	50		 push	 eax
  00011	83 ec 1c	 sub	 esp, 28			; 0000001cH
  00014	a1 00 00 00 00	 mov	 eax, DWORD PTR ___security_cookie
  00019	33 c5		 xor	 eax, ebp
  0001b	89 45 f0	 mov	 DWORD PTR __$ArrayPad$[ebp], eax
  0001e	56		 push	 esi
  0001f	57		 push	 edi
  00020	50		 push	 eax
  00021	8d 45 f4	 lea	 eax, DWORD PTR __$EHRec$[ebp]
  00024	64 a3 00 00 00
	00		 mov	 DWORD PTR fs:0, eax

; 82   : 	for (int i = 0; *sc_apszPythonLibraryFilenames[i] != '\n'; ++i)

  0002a	8b 15 00 00 00
	00		 mov	 edx, DWORD PTR ?sc_apszPythonLibraryFilenames@@3PAPBDA
  00030	33 ff		 xor	 edi, edi
  00032	80 3a 0a	 cmp	 BYTE PTR [edx], 10	; 0000000aH
  00035	0f 84 c4 00 00
	00		 je	 $LN3@CheckPytho
  0003b	0f 1f 44 00 00	 npad	 5
$LL4@CheckPytho:
  00040	0f 57 c0	 xorps	 xmm0, xmm0
; File C:\Program Files\Microsoft Visual Studio\2022\Community\VC\Tools\MSVC\14.44.35207\include\xstring

; 890  :             _My_data._Mysize = _Count;

  00043	c7 45 e8 04 00
	00 00		 mov	 DWORD PTR _stFilename$2[ebp+16], 4

; 493  :         _CONSTEXPR20 _Bxty() noexcept : _Buf() {} // user-provided, for fancy pointers

  0004a	0f 11 45 d8	 movups	 XMMWORD PTR _stFilename$2[ebp], xmm0

; 891  :             _My_data._Myres  = _Small_string_capacity;

  0004e	c7 45 ec 0f 00
	00 00		 mov	 DWORD PTR _stFilename$2[ebp+20], 15 ; 0000000fH
; File C:\Program Files\Microsoft Visual Studio\2022\Community\VC\Tools\MSVC\14.44.35207\include\__msvc_string_view.hpp

; 121  :         _CSTD memcpy(_First1, _First2, _Count * sizeof(_Elem));

  00055	c7 45 d8 6c 69
	62 5c		 mov	 DWORD PTR _stFilename$2[ebp], 1549953388 ; 5c62696cH
; File C:\Program Files\Microsoft Visual Studio\2022\Community\VC\Tools\MSVC\14.44.35207\include\xstring

; 898  :                 _Traits::assign(_My_data._Bx._Buf[_Count], _Elem());

  0005c	c6 45 dc 00	 mov	 BYTE PTR _stFilename$2[ebp+4], 0
; File C:\Program Files\Microsoft Visual Studio\2022\Community\VC\Tools\MSVC\14.44.35207\include\__msvc_string_view.hpp

; 456  :             return __builtin_strlen(_First);

  00060	8b c2		 mov	 eax, edx
; File D:\_m2work\txoko-m2-work\txoko-client-src\source\UserInterface\UserInterface.cpp

; 84   : 		std::string stFilename = "lib\\";

  00062	c7 45 fc 00 00
	00 00		 mov	 DWORD PTR __$EHRec$[ebp+8], 0
; File C:\Program Files\Microsoft Visual Studio\2022\Community\VC\Tools\MSVC\14.44.35207\include\__msvc_string_view.hpp

; 456  :             return __builtin_strlen(_First);

  00069	8d 70 01	 lea	 esi, DWORD PTR [eax+1]
  0006c	0f 1f 40 00	 npad	 4
$LL198@CheckPytho:
  00070	8a 08		 mov	 cl, BYTE PTR [eax]
  00072	40		 inc	 eax
  00073	84 c9		 test	 cl, cl
  00075	75 f9		 jne	 SHORT $LL198@CheckPytho
  00077	2b c6		 sub	 eax, esi
; File C:\Program Files\Microsoft Visual Studio\2022\Community\VC\Tools\MSVC\14.44.35207\include\xstring

; 1534 :         return append(_Ptr, _Convert_size<size_type>(_Traits::length(_Ptr)));

  00079	8d 4d d8	 lea	 ecx, DWORD PTR _stFilename$2[ebp]
  0007c	50		 push	 eax
  0007d	52		 push	 edx
  0007e	e8 00 00 00 00	 call	 ?append@?$basic_string@DU?$char_traits@D@std@@V?$allocator@D@2@@std@@QAEAAV12@QBDI@Z ; std::basic_string<char,std::char_traits<char>,std::allocator<char> >::append

; 453  :         return _Myres > _Small_string_capacity;

  00083	83 7d ec 0f	 cmp	 DWORD PTR _stFilename$2[ebp+20], 15 ; 0000000fH

; 444  :         const value_type* _Result = _Bx._Buf;

  00087	8d 45 d8	 lea	 eax, DWORD PTR _stFilename$2[ebp]
; File D:\_m2work\txoko-m2-work\txoko-client-src\source\UserInterface\UserInterface.cpp

; 87   : 		if (_access(stFilename.c_str(), 0) != 0)

  0008a	6a 00		 push	 0
; File C:\Program Files\Microsoft Visual Studio\2022\Community\VC\Tools\MSVC\14.44.35207\include\xstring

; 445  :         if (_Large_mode_engaged()) {

  0008c	0f 47 45 d8	 cmova	 eax, DWORD PTR _stFilename$2[ebp]
; File D:\_m2work\txoko-m2-work\txoko-client-src\source\UserInterface\UserInterface.cpp

; 87   : 		if (_access(stFilename.c_str(), 0) != 0)

  00090	50		 push	 eax
  00091	e8 00 00 00 00	 call	 __access
  00096	83 c4 08	 add	 esp, 8
  00099	85 c0		 test	 eax, eax
  0009b	75 7f		 jne	 SHORT $LN182@CheckPytho
; File C:\Program Files\Microsoft Visual Studio\2022\Community\VC\Tools\MSVC\14.44.35207\include\xstring

; 453  :         return _Myres > _Small_string_capacity;

  0009d	83 7d ec 0f	 cmp	 DWORD PTR _stFilename$2[ebp+20], 15 ; 0000000fH

; 444  :         const value_type* _Result = _Bx._Buf;

  000a1	8d 75 d8	 lea	 esi, DWORD PTR _stFilename$2[ebp]
  000a4	8d 4d d8	 lea	 ecx, DWORD PTR _stFilename$2[ebp]

; 445  :         if (_Large_mode_engaged()) {

  000a7	0f 47 75 d8	 cmova	 esi, DWORD PTR _stFilename$2[ebp]
  000ab	0f 47 4d d8	 cmova	 ecx, DWORD PTR _stFilename$2[ebp]
; File D:\_m2work\txoko-m2-work\txoko-client-src\source\UserInterface\UserInterface.cpp

; 92   : 		MoveFile(stFilename.c_str(), stFilename.c_str());

  000af	56		 push	 esi
  000b0	51		 push	 ecx
  000b1	ff 15 00 00 00
	00		 call	 DWORD PTR __imp__MoveFileA@8

; 93   : 	}

  000b7	c7 45 fc ff ff
	ff ff		 mov	 DWORD PTR __$EHRec$[ebp+8], -1
; File C:\Program Files\Microsoft Visual Studio\2022\Community\VC\Tools\MSVC\14.44.35207\include\xstring

; 453  :         return _Myres > _Small_string_capacity;

  000be	8b 4d ec	 mov	 ecx, DWORD PTR _stFilename$2[ebp+20]
  000c1	83 f9 0f	 cmp	 ecx, 15			; 0000000fH

; 3083 :         if (_My_data._Large_mode_engaged()) {

  000c4	76 28		 jbe	 SHORT $LN163@CheckPytho
; File C:\Program Files\Microsoft Visual Studio\2022\Community\VC\Tools\MSVC\14.44.35207\include\xmemory

; 985  :         _STD _Deallocate<_New_alignof<_Ty>>(_Ptr, sizeof(_Ty) * _Count);

  000c6	8b 55 d8	 mov	 edx, DWORD PTR _stFilename$2[ebp]
; File C:\Program Files\Microsoft Visual Studio\2022\Community\VC\Tools\MSVC\14.44.35207\include\xstring

; 852  :         _Al.deallocate(_Old_ptr, _Capacity + 1); // +1 for null terminator

  000c9	41		 inc	 ecx
; File C:\Program Files\Microsoft Visual Studio\2022\Community\VC\Tools\MSVC\14.44.35207\include\xmemory

; 985  :         _STD _Deallocate<_New_alignof<_Ty>>(_Ptr, sizeof(_Ty) * _Count);

  000ca	8b c2		 mov	 eax, edx

; 284  :         if (_Bytes >= _Big_allocation_threshold) {

  000cc	81 f9 00 10 00
	00		 cmp	 ecx, 4096		; 00001000H
  000d2	72 10		 jb	 SHORT $LN171@CheckPytho

; 205  :     const uintptr_t _Ptr_container   = _Ptr_user[-1];

  000d4	8b 50 fc	 mov	 edx, DWORD PTR [eax-4]
  000d7	83 c1 23	 add	 ecx, 35			; 00000023H
  000da	2b c2		 sub	 eax, edx

; 219  :     _STL_VERIFY(_Back_shift >= _Min_back_shift && _Back_shift <= _Non_user_size, "invalid argument");

  000dc	83 c0 fc	 add	 eax, -4			; fffffffcH
  000df	83 f8 1f	 cmp	 eax, 31			; 0000001fH
  000e2	77 6c		 ja	 SHORT $LN118@CheckPytho
$LN171@CheckPytho:

; 289  :         ::operator delete(_Ptr, _Bytes);

  000e4	51		 push	 ecx
  000e5	52		 push	 edx
  000e6	e8 00 00 00 00	 call	 ??3@YAXPAXI@Z		; operator delete
  000eb	83 c4 08	 add	 esp, 8
$LN163@CheckPytho:
; File D:\_m2work\txoko-m2-work\txoko-client-src\source\UserInterface\UserInterface.cpp

; 82   : 	for (int i = 0; *sc_apszPythonLibraryFilenames[i] != '\n'; ++i)

  000ee	8b 14 bd 04 00
	00 00		 mov	 edx, DWORD PTR ?sc_apszPythonLibraryFilenames@@3PAPBDA[edi*4+4]
  000f5	47		 inc	 edi
  000f6	80 3a 0a	 cmp	 BYTE PTR [edx], 10	; 0000000aH
  000f9	0f 85 41 ff ff
	ff		 jne	 $LL4@CheckPytho
$LN3@CheckPytho:

; 94   : 
; 95   : 	return true;

  000ff	b0 01		 mov	 al, 1
$LN1@CheckPytho:

; 96   : }

  00101	8b 4d f4	 mov	 ecx, DWORD PTR __$EHRec$[ebp]
  00104	64 89 0d 00 00
	00 00		 mov	 DWORD PTR fs:0, ecx
  0010b	59		 pop	 ecx
  0010c	5f		 pop	 edi
  0010d	5e		 pop	 esi
  0010e	8b 4d f0	 mov	 ecx, DWORD PTR __$ArrayPad$[ebp]
  00111	33 cd		 xor	 ecx, ebp
  00113	e8 00 00 00 00	 call	 @__security_check_cookie@4
  00118	8b e5		 mov	 esp, ebp
  0011a	5d		 pop	 ebp
  0011b	c3		 ret	 0
$LN182@CheckPytho:
; File C:\Program Files\Microsoft Visual Studio\2022\Community\VC\Tools\MSVC\14.44.35207\include\xstring

; 453  :         return _Myres > _Small_string_capacity;

  0011c	8b 4d ec	 mov	 ecx, DWORD PTR _stFilename$2[ebp+20]
  0011f	83 f9 0f	 cmp	 ecx, 15			; 0000000fH

; 3083 :         if (_My_data._Large_mode_engaged()) {

  00122	76 28		 jbe	 SHORT $LN111@CheckPytho
; File C:\Program Files\Microsoft Visual Studio\2022\Community\VC\Tools\MSVC\14.44.35207\include\xmemory

; 985  :         _STD _Deallocate<_New_alignof<_Ty>>(_Ptr, sizeof(_Ty) * _Count);

  00124	8b 55 d8	 mov	 edx, DWORD PTR _stFilename$2[ebp]
; File C:\Program Files\Microsoft Visual Studio\2022\Community\VC\Tools\MSVC\14.44.35207\include\xstring

; 852  :         _Al.deallocate(_Old_ptr, _Capacity + 1); // +1 for null terminator

  00127	41		 inc	 ecx
; File C:\Program Files\Microsoft Visual Studio\2022\Community\VC\Tools\MSVC\14.44.35207\include\xmemory

; 985  :         _STD _Deallocate<_New_alignof<_Ty>>(_Ptr, sizeof(_Ty) * _Count);

  00128	8b c2		 mov	 eax, edx

; 284  :         if (_Bytes >= _Big_allocation_threshold) {

  0012a	81 f9 00 10 00
	00		 cmp	 ecx, 4096		; 00001000H
  00130	72 10		 jb	 SHORT $LN119@CheckPytho

; 205  :     const uintptr_t _Ptr_container   = _Ptr_user[-1];

  00132	8b 50 fc	 mov	 edx, DWORD PTR [eax-4]
  00135	83 c1 23	 add	 ecx, 35			; 00000023H
  00138	2b c2		 sub	 eax, edx

; 219  :     _STL_VERIFY(_Back_shift >= _Min_back_shift && _Back_shift <= _Non_user_size, "invalid argument");

  0013a	83 c0 fc	 add	 eax, -4			; fffffffcH
  0013d	83 f8 1f	 cmp	 eax, 31			; 0000001fH
  00140	77 0e		 ja	 SHORT $LN118@CheckPytho
$LN119@CheckPytho:

; 289  :         ::operator delete(_Ptr, _Bytes);

  00142	51		 push	 ecx
  00143	52		 push	 edx
  00144	e8 00 00 00 00	 call	 ??3@YAXPAXI@Z		; operator delete
  00149	83 c4 08	 add	 esp, 8
$LN111@CheckPytho:
; File D:\_m2work\txoko-m2-work\txoko-client-src\source\UserInterface\UserInterface.cpp

; 89   : 			return false;

  0014c	32 c0		 xor	 al, al
  0014e	eb b1		 jmp	 SHORT $LN1@CheckPytho
$LN118@CheckPytho:
; File C:\Program Files\Microsoft Visual Studio\2022\Community\VC\Tools\MSVC\14.44.35207\include\xmemory

; 219  :     _STL_VERIFY(_Back_shift >= _Min_back_shift && _Back_shift <= _Non_user_size, "invalid argument");

  00150	6a 00		 push	 0
  00152	6a 00		 push	 0
  00154	6a 00		 push	 0
  00156	6a 00		 push	 0
  00158	6a 00		 push	 0
  0015a	e8 00 00 00 00	 call	 __invoke_watson
$LN200@CheckPytho:
  0015f	cc		 int	 3
_TEXT	ENDS
;	COMDAT text$x
text$x	SEGMENT
__unwindfunclet$?CheckPythonLibraryFilenames@@YA_NXZ$0:
  00000	8d 4d d8	 lea	 ecx, DWORD PTR _stFilename$2[ebp]
  00003	e9 00 00 00 00	 jmp	 ??1?$basic_string@DU?$char_traits@D@std@@V?$allocator@D@2@@std@@QAE@XZ ; std::basic_string<char,std::char_traits<char>,std::allocator<char> >::~basic_string<char,std::char_traits<char>,std::allocator<char> >
  00008	cc		 int	 3
  00009	cc		 int	 3
  0000a	cc		 int	 3
  0000b	cc		 int	 3
  0000c	cc		 int	 3
__ehhandler$?CheckPythonLibraryFilenames@@YA_NXZ:
  0000d	90		 npad	 1
  0000e	90		 npad	 1
  0000f	8b 54 24 08	 mov	 edx, DWORD PTR [esp+8]
  00013	8d 42 0c	 lea	 eax, DWORD PTR [edx+12]
  00016	8b 4a d8	 mov	 ecx, DWORD PTR [edx-40]
  00019	33 c8		 xor	 ecx, eax
  0001b	e8 00 00 00 00	 call	 @__security_check_cookie@4
  00020	8b 4a fc	 mov	 ecx, DWORD PTR [edx-4]
  00023	33 c8		 xor	 ecx, eax
  00025	e8 00 00 00 00	 call	 @__security_check_cookie@4
  0002a	b8 00 00 00 00	 mov	 eax, OFFSET __ehfuncinfo$?CheckPythonLibraryFilenames@@YA_NXZ
  0002f	e9 00 00 00 00	 jmp	 ___CxxFrameHandler3
text$x	ENDS
?CheckPythonLibraryFilenames@@YA_NXZ ENDP		; CheckPythonLibraryFilenames
; Function compile flags: /Ogtp
; File D:\_m2work\txoko-m2-work\txoko-client-src\source\UserInterface\UserInterface.cpp
; File C:\Program Files\Microsoft Visual Studio\2022\Community\VC\Tools\MSVC\14.44.35207\include\xtree
; File D:\_m2work\txoko-m2-work\txoko-client-src\source\UserInterface\UserInterface.cpp
; File C:\Program Files\Microsoft Visual Studio\2022\Community\VC\Tools\MSVC\14.44.35207\include\xtree
; File D:\_m2work\txoko-m2-work\txoko-client-src\source\UserInterface\UserInterface.cpp
;	COMDAT ??__Egs_kAppStrTable@@YAXXZ
text$di	SEGMENT
??__Egs_kAppStrTable@@YAXXZ PROC			; `dynamic initializer for 'gs_kAppStrTable'', COMDAT

; 102  : } gs_kAppStrTable;

  00000	55		 push	 ebp
  00001	8b ec		 mov	 ebp, esp
  00003	51		 push	 ecx
; File C:\Program Files\Microsoft Visual Studio\2022\Community\VC\Tools\MSVC\14.44.35207\include\xtree

; 345  :         const auto _Pnode = _Al.allocate(1);

  00004	6a 2c		 push	 44			; 0000002cH
  00006	e8 00 00 00 00	 call	 ??2@YAPAXI@Z		; operator new
; File D:\_m2work\txoko-m2-work\txoko-client-src\source\UserInterface\UserInterface.cpp

; 102  : } gs_kAppStrTable;

  0000b	68 00 00 00 00	 push	 OFFSET ??__Fgs_kAppStrTable@@YAXXZ ; `dynamic atexit destructor for 'gs_kAppStrTable''
; File C:\Program Files\Microsoft Visual Studio\2022\Community\VC\Tools\MSVC\14.44.35207\include\xtree

; 346  :         _Construct_in_place(_Pnode->_Left, _Pnode);

  00010	89 00		 mov	 DWORD PTR [eax], eax

; 347  :         _Construct_in_place(_Pnode->_Parent, _Pnode);

  00012	89 40 04	 mov	 DWORD PTR [eax+4], eax

; 348  :         _Construct_in_place(_Pnode->_Right, _Pnode);

  00015	89 40 08	 mov	 DWORD PTR [eax+8], eax

; 349  :         _Pnode->_Color = _Black;

  00018	66 c7 40 0c 01
	01		 mov	 WORD PTR [eax+12], 257	; 00000101H

; 1957 :         _Scary->_Myhead = _Node::_Buyheadnode(_Getal());

  0001e	a3 04 00 00 00	 mov	 DWORD PTR ?gs_kAppStrTable@@3UApplicationStringTable@@A+4, eax
; File D:\_m2work\txoko-m2-work\txoko-client-src\source\UserInterface\UserInterface.cpp

; 102  : } gs_kAppStrTable;

  00023	e8 00 00 00 00	 call	 _atexit
  00028	83 c4 08	 add	 esp, 8
  0002b	8b e5		 mov	 esp, ebp
  0002d	5d		 pop	 ebp
  0002e	c3		 ret	 0
??__Egs_kAppStrTable@@YAXXZ ENDP			; `dynamic initializer for 'gs_kAppStrTable''
text$di	ENDS
; Function compile flags: /Ogtp
; File C:\Program Files\Microsoft Visual Studio\2022\Community\VC\Tools\MSVC\14.44.35207\include\xtree
; File C:\Program Files\Microsoft Visual Studio\2022\Community\VC\Tools\MSVC\14.44.35207\include\xmemory
;	COMDAT ??__Fgs_kAppStrTable@@YAXXZ
text$yd	SEGMENT
??__Fgs_kAppStrTable@@YAXXZ PROC			; `dynamic atexit destructor for 'gs_kAppStrTable'', COMDAT
; File C:\Program Files\Microsoft Visual Studio\2022\Community\VC\Tools\MSVC\14.44.35207\include\xtree

; 777  :         _Erase_tree(_Al, _Myhead->_Parent);

  00000	a1 04 00 00 00	 mov	 eax, DWORD PTR ?gs_kAppStrTable@@3UApplicationStringTable@@A+4
  00005	b9 04 00 00 00	 mov	 ecx, OFFSET ?gs_kAppStrTable@@3UApplicationStringTable@@A+4
  0000a	ff 70 04	 push	 DWORD PTR [eax+4]
  0000d	68 04 00 00 00	 push	 OFFSET ?gs_kAppStrTable@@3UApplicationStringTable@@A+4
  00012	e8 00 00 00 00	 call	 ??$_Erase_tree@V?$allocator@U?$_Tree_node@U?$pair@$$CBKV?$basic_string@DU?$char_traits@D@std@@V?$allocator@D@2@@std@@@std@@PAX@std@@@std@@@?$_Tree_val@U?$_Tree_simple_types@U?$pair@$$CBKV?$basic_string@DU?$char_traits@D@std@@V?$allocator@D@2@@std@@@std@@@std@@@std@@QAEXAAV?$allocator@U?$_Tree_node@U?$pair@$$CBKV?$basic_string@DU?$char_traits@D@std@@V?$allocator@D@2@@std@@@std@@PAX@std@@@1@PAU?$_Tree_node@U?$pair@$$CBKV?$basic_string@DU?$char_traits@D@std@@V?$allocator@D@2@@std@@@std@@PAX@1@@Z ; std::_Tree_val<std::_Tree_simple_types<std::pair<unsigned long const ,std::basic_string<char,std::char_traits<char>,std::allocator<char> > > > >::_Erase_tree<std::allocator<std::_Tree_node<std::pair<unsigned long const ,std::basic_string<char,std::char_traits<char>,std::allocator<char> > >,void *> > >
; File C:\Program Files\Microsoft Visual Studio\2022\Community\VC\Tools\MSVC\14.44.35207\include\xmemory

; 289  :         ::operator delete(_Ptr, _Bytes);

  00017	6a 2c		 push	 44			; 0000002cH
  00019	ff 35 04 00 00
	00		 push	 DWORD PTR ?gs_kAppStrTable@@3UApplicationStringTable@@A+4
  0001f	e8 00 00 00 00	 call	 ??3@YAXPAXI@Z		; operator delete
  00024	83 c4 08	 add	 esp, 8
  00027	c3		 ret	 0
??__Fgs_kAppStrTable@@YAXXZ ENDP			; `dynamic atexit destructor for 'gs_kAppStrTable''
text$yd	ENDS
; Function compile flags: /Ogtp
; File C:\Program Files\Microsoft Visual Studio\2022\Community\VC\Tools\MSVC\14.44.35207\include\xtree
;	COMDAT ??0ApplicationStringTable@@QAE@XZ
_TEXT	SEGMENT
??0ApplicationStringTable@@QAE@XZ PROC			; ApplicationStringTable::ApplicationStringTable, COMDAT
; _this$dead$ = ecx
  00000	55		 push	 ebp
  00001	8b ec		 mov	 ebp, esp
  00003	51		 push	 ecx

; 345  :         const auto _Pnode = _Al.allocate(1);

  00004	6a 2c		 push	 44			; 0000002cH

; 450  :     _Tree_val() noexcept : _Myhead(), _Mysize(0) {}

  00006	c7 05 04 00 00
	00 00 00 00 00	 mov	 DWORD PTR ?gs_kAppStrTable@@3UApplicationStringTable@@A+4, 0
  00010	c7 05 08 00 00
	00 00 00 00 00	 mov	 DWORD PTR ?gs_kAppStrTable@@3UApplicationStringTable@@A+8, 0

; 345  :         const auto _Pnode = _Al.allocate(1);

  0001a	e8 00 00 00 00	 call	 ??2@YAPAXI@Z		; operator new
  0001f	83 c4 04	 add	 esp, 4

; 346  :         _Construct_in_place(_Pnode->_Left, _Pnode);

  00022	89 00		 mov	 DWORD PTR [eax], eax

; 347  :         _Construct_in_place(_Pnode->_Parent, _Pnode);

  00024	89 40 04	 mov	 DWORD PTR [eax+4], eax

; 348  :         _Construct_in_place(_Pnode->_Right, _Pnode);

  00027	89 40 08	 mov	 DWORD PTR [eax+8], eax

; 349  :         _Pnode->_Color = _Black;

  0002a	66 c7 40 0c 01
	01		 mov	 WORD PTR [eax+12], 257	; 00000101H

; 1957 :         _Scary->_Myhead = _Node::_Buyheadnode(_Getal());

  00030	a3 04 00 00 00	 mov	 DWORD PTR ?gs_kAppStrTable@@3UApplicationStringTable@@A+4, eax
  00035	b8 00 00 00 00	 mov	 eax, OFFSET ?gs_kAppStrTable@@3UApplicationStringTable@@A ; gs_kAppStrTable
  0003a	8b e5		 mov	 esp, ebp
  0003c	5d		 pop	 ebp
  0003d	c3		 ret	 0
??0ApplicationStringTable@@QAE@XZ ENDP			; ApplicationStringTable::ApplicationStringTable
_TEXT	ENDS
; Function compile flags: /Ogtp
; File C:\Program Files\Microsoft Visual Studio\2022\Community\VC\Tools\MSVC\14.44.35207\include\xtree
; File C:\Program Files\Microsoft Visual Studio\2022\Community\VC\Tools\MSVC\14.44.35207\include\xmemory
;	COMDAT ??1ApplicationStringTable@@QAE@XZ
_TEXT	SEGMENT
??1ApplicationStringTable@@QAE@XZ PROC			; ApplicationStringTable::~ApplicationStringTable, COMDAT
; _this$ = ecx
; File C:\Program Files\Microsoft Visual Studio\2022\Community\VC\Tools\MSVC\14.44.35207\include\xtree

; 777  :         _Erase_tree(_Al, _Myhead->_Parent);

  00000	8b 41 04	 mov	 eax, DWORD PTR [ecx+4]
  00003	56		 push	 esi
  00004	8d 71 04	 lea	 esi, DWORD PTR [ecx+4]
  00007	8b ce		 mov	 ecx, esi
  00009	ff 70 04	 push	 DWORD PTR [eax+4]
  0000c	56		 push	 esi
  0000d	e8 00 00 00 00	 call	 ??$_Erase_tree@V?$allocator@U?$_Tree_node@U?$pair@$$CBKV?$basic_string@DU?$char_traits@D@std@@V?$allocator@D@2@@std@@@std@@PAX@std@@@std@@@?$_Tree_val@U?$_Tree_simple_types@U?$pair@$$CBKV?$basic_string@DU?$char_traits@D@std@@V?$allocator@D@2@@std@@@std@@@std@@@std@@QAEXAAV?$allocator@U?$_Tree_node@U?$pair@$$CBKV?$basic_string@DU?$char_traits@D@std@@V?$allocator@D@2@@std@@@std@@PAX@std@@@1@PAU?$_Tree_node@U?$pair@$$CBKV?$basic_string@DU?$char_traits@D@std@@V?$allocator@D@2@@std@@@std@@PAX@1@@Z ; std::_Tree_val<std::_Tree_simple_types<std::pair<unsigned long const ,std::basic_string<char,std::char_traits<char>,std::allocator<char> > > > >::_Erase_tree<std::allocator<std::_Tree_node<std::pair<unsigned long const ,std::basic_string<char,std::char_traits<char>,std::allocator<char> > >,void *> > >
; File C:\Program Files\Microsoft Visual Studio\2022\Community\VC\Tools\MSVC\14.44.35207\include\xmemory

; 289  :         ::operator delete(_Ptr, _Bytes);

  00012	6a 2c		 push	 44			; 0000002cH
  00014	ff 36		 push	 DWORD PTR [esi]
  00016	e8 00 00 00 00	 call	 ??3@YAXPAXI@Z		; operator delete
  0001b	83 c4 08	 add	 esp, 8
  0001e	5e		 pop	 esi
  0001f	c3		 ret	 0
??1ApplicationStringTable@@QAE@XZ ENDP			; ApplicationStringTable::~ApplicationStringTable
_TEXT	ENDS
; Function compile flags: /Ogtp
; File D:\_m2work\txoko-m2-work\txoko-client-src\source\UserInterface\UserInterface.cpp
;	COMDAT ?ApplicationStringTable_Initialize@@YAXPAUHINSTANCE__@@@Z
_TEXT	SEGMENT
?ApplicationStringTable_Initialize@@YAXPAUHINSTANCE__@@@Z PROC ; ApplicationStringTable_Initialize, COMDAT
; _hInstance$ = ecx

; 106  : 	gs_kAppStrTable.m_hInstance=hInstance;

  00000	89 0d 00 00 00
	00		 mov	 DWORD PTR ?gs_kAppStrTable@@3UApplicationStringTable@@A, ecx

; 107  : }

  00006	c3		 ret	 0
?ApplicationStringTable_Initialize@@YAXPAUHINSTANCE__@@@Z ENDP ; ApplicationStringTable_Initialize
_TEXT	ENDS
; Function compile flags: /Ogtp
; File D:\_m2work\txoko-m2-work\txoko-client-src\source\UserInterface\UserInterface.cpp
; File C:\Program Files\Microsoft Visual Studio\2022\Community\VC\Tools\MSVC\14.44.35207\include\__msvc_string_view.hpp
; File D:\_m2work\txoko-m2-work\txoko-client-src\source\UserInterface\UserInterface.cpp
; File C:\Program Files\Microsoft Visual Studio\2022\Community\VC\Tools\MSVC\14.44.35207\include\__msvc_string_view.hpp
; File C:\Program Files\Microsoft Visual Studio\2022\Community\VC\Tools\MSVC\14.44.35207\include\xstring
; File D:\_m2work\txoko-m2-work\txoko-client-src\source\UserInterface\UserInterface.cpp
;	COMDAT ?ApplicationStringTable_GetString@@YAABV?$basic_string@DU?$char_traits@D@std@@V?$allocator@D@2@@std@@KPBD@Z
_TEXT	SEGMENT
_dwID$ = -1036						; size = 4
_szLocale$ = -1032					; size = 256
_szBuffer$ = -776					; size = 512
_szIniFileName$ = -264					; size = 256
__$ArrayPad$ = -4					; size = 4
?ApplicationStringTable_GetString@@YAABV?$basic_string@DU?$char_traits@D@std@@V?$allocator@D@2@@std@@KPBD@Z PROC ; ApplicationStringTable_GetString, COMDAT
; _dwID$ = ecx
; _szKey$ = edx

; 110  : {

  00000	55		 push	 ebp
  00001	8b ec		 mov	 ebp, esp
  00003	81 ec 0c 04 00
	00		 sub	 esp, 1036		; 0000040cH
  00009	a1 00 00 00 00	 mov	 eax, DWORD PTR ___security_cookie
  0000e	33 c5		 xor	 eax, ebp
  00010	89 45 fc	 mov	 DWORD PTR __$ArrayPad$[ebp], eax
  00013	53		 push	 ebx
  00014	56		 push	 esi
  00015	57		 push	 edi

; 111  : 	char szBuffer[512];
; 112  : 	char szIniFileName[256];
; 113  : 	char szLocale[256];
; 114  : 
; 115  : 	::GetCurrentDirectory(sizeof(szIniFileName), szIniFileName);

  00016	8d 85 f8 fe ff
	ff		 lea	 eax, DWORD PTR _szIniFileName$[ebp]
  0001c	89 8d f4 fb ff
	ff		 mov	 DWORD PTR _dwID$[ebp], ecx
  00022	50		 push	 eax
  00023	68 00 01 00 00	 push	 256			; 00000100H
  00028	8b f2		 mov	 esi, edx
  0002a	ff 15 00 00 00
	00		 call	 DWORD PTR __imp__GetCurrentDirectoryA@8

; 116  : 	if(szIniFileName[lstrlen(szIniFileName)-1] != '\\')

  00030	8d 85 f8 fe ff
	ff		 lea	 eax, DWORD PTR _szIniFileName$[ebp]
  00036	50		 push	 eax
  00037	ff 15 00 00 00
	00		 call	 DWORD PTR __imp__lstrlenA@4
  0003d	80 bc 05 f7 fe
	ff ff 5c	 cmp	 BYTE PTR _szIniFileName$[ebp+eax-1], 92 ; 0000005cH
  00045	74 1c		 je	 SHORT $LN2@Applicatio

; 117  : 		strcat(szIniFileName, "\\");

  00047	8d bd f8 fe ff
	ff		 lea	 edi, DWORD PTR _szIniFileName$[ebp]
  0004d	4f		 dec	 edi
  0004e	66 90		 npad	 2
$LL27@Applicatio:
  00050	8a 47 01	 mov	 al, BYTE PTR [edi+1]
  00053	8d 7f 01	 lea	 edi, DWORD PTR [edi+1]
  00056	84 c0		 test	 al, al
  00058	75 f6		 jne	 SHORT $LL27@Applicatio
  0005a	66 a1 00 00 00
	00		 mov	 ax, WORD PTR ??_C@_01KICIPPFI@?2@
  00060	66 89 07	 mov	 WORD PTR [edi], ax
$LN2@Applicatio:

; 118  : 	strcat(szIniFileName, "metin2client.dat");

  00063	8d 8d f8 fe ff
	ff		 lea	 ecx, DWORD PTR _szIniFileName$[ebp]
  00069	49		 dec	 ecx
  0006a	66 0f 1f 44 00
	00		 npad	 6
$LL28@Applicatio:
  00070	8a 41 01	 mov	 al, BYTE PTR [ecx+1]
  00073	8d 49 01	 lea	 ecx, DWORD PTR [ecx+1]
  00076	84 c0		 test	 al, al
  00078	75 f6		 jne	 SHORT $LL28@Applicatio
  0007a	a1 00 00 00 00	 mov	 eax, DWORD PTR ??_C@_0BB@FPBAACEA@metin2client?4dat@
  0007f	89 01		 mov	 DWORD PTR [ecx], eax
  00081	a1 04 00 00 00	 mov	 eax, DWORD PTR ??_C@_0BB@FPBAACEA@metin2client?4dat@+4
  00086	89 41 04	 mov	 DWORD PTR [ecx+4], eax
  00089	a1 08 00 00 00	 mov	 eax, DWORD PTR ??_C@_0BB@FPBAACEA@metin2client?4dat@+8
  0008e	89 41 08	 mov	 DWORD PTR [ecx+8], eax
  00091	a1 0c 00 00 00	 mov	 eax, DWORD PTR ??_C@_0BB@FPBAACEA@metin2client?4dat@+12
  00096	89 41 0c	 mov	 DWORD PTR [ecx+12], eax
  00099	a0 10 00 00 00	 mov	 al, BYTE PTR ??_C@_0BB@FPBAACEA@metin2client?4dat@+16
  0009e	88 41 10	 mov	 BYTE PTR [ecx+16], al

; 119  : 
; 120  : 	strcpy(szLocale, LocaleService_GetLocalePath());

  000a1	e8 00 00 00 00	 call	 ?LocaleService_GetLocalePath@@YAPBDXZ ; LocaleService_GetLocalePath
  000a6	8b d8		 mov	 ebx, eax
  000a8	8d bd f8 fb ff
	ff		 lea	 edi, DWORD PTR _szLocale$[ebp]
  000ae	8b d3		 mov	 edx, ebx
  000b0	2b fb		 sub	 edi, ebx
$LL8@Applicatio:
  000b2	8a 0a		 mov	 cl, BYTE PTR [edx]
  000b4	8d 52 01	 lea	 edx, DWORD PTR [edx+1]
  000b7	88 4c 17 ff	 mov	 BYTE PTR [edi+edx-1], cl
  000bb	84 c9		 test	 cl, cl
  000bd	75 f3		 jne	 SHORT $LL8@Applicatio

; 121  : 	if(strnicmp(szLocale, "locale/", strlen("locale/")) == 0)

  000bf	6a 07		 push	 7
  000c1	8d 85 f8 fb ff
	ff		 lea	 eax, DWORD PTR _szLocale$[ebp]
  000c7	68 00 00 00 00	 push	 OFFSET ??_C@_07GHKFPDHK@locale?1@
  000cc	50		 push	 eax
  000cd	e8 00 00 00 00	 call	 __strnicmp
  000d2	83 c4 0c	 add	 esp, 12			; 0000000cH
  000d5	85 c0		 test	 eax, eax
  000d7	75 18		 jne	 SHORT $LN3@Applicatio

; 122  : 		strcpy(szLocale, LocaleService_GetLocalePath() + strlen("locale/"));

  000d9	8d 4b 07	 lea	 ecx, DWORD PTR [ebx+7]
  000dc	8d 95 f8 fb ff
	ff		 lea	 edx, DWORD PTR _szLocale$[ebp]
  000e2	2b d1		 sub	 edx, ecx
$LL9@Applicatio:
  000e4	8a 01		 mov	 al, BYTE PTR [ecx]
  000e6	8d 49 01	 lea	 ecx, DWORD PTR [ecx+1]
  000e9	88 44 0a ff	 mov	 BYTE PTR [edx+ecx-1], al
  000ed	84 c0		 test	 al, al
  000ef	75 f3		 jne	 SHORT $LL9@Applicatio
$LN3@Applicatio:

; 123  : 	::GetPrivateProfileString(szLocale, szKey, NULL, szBuffer, sizeof(szBuffer)-1, szIniFileName);

  000f1	8b 3d 00 00 00
	00		 mov	 edi, DWORD PTR __imp__GetPrivateProfileStringA@24
  000f7	8d 85 f8 fe ff
	ff		 lea	 eax, DWORD PTR _szIniFileName$[ebp]
  000fd	50		 push	 eax
  000fe	68 ff 01 00 00	 push	 511			; 000001ffH
  00103	8d 85 f8 fc ff
	ff		 lea	 eax, DWORD PTR _szBuffer$[ebp]
  00109	50		 push	 eax
  0010a	6a 00		 push	 0
  0010c	56		 push	 esi
  0010d	8d 85 f8 fb ff
	ff		 lea	 eax, DWORD PTR _szLocale$[ebp]
  00113	50		 push	 eax
  00114	ff d7		 call	 edi

; 124  : 	if(szBuffer[0] == '\0')

  00116	80 bd f8 fc ff
	ff 00		 cmp	 BYTE PTR _szBuffer$[ebp], 0
  0011d	75 62		 jne	 SHORT $LN6@Applicatio

; 125  : 		LoadString(gs_kAppStrTable.m_hInstance, dwID, szBuffer, sizeof(szBuffer)-1);

  0011f	68 ff 01 00 00	 push	 511			; 000001ffH
  00124	8d 85 f8 fc ff
	ff		 lea	 eax, DWORD PTR _szBuffer$[ebp]
  0012a	50		 push	 eax
  0012b	ff b5 f4 fb ff
	ff		 push	 DWORD PTR _dwID$[ebp]
  00131	ff 35 00 00 00
	00		 push	 DWORD PTR ?gs_kAppStrTable@@3UApplicationStringTable@@A
  00137	ff 15 00 00 00
	00		 call	 DWORD PTR __imp__LoadStringA@16

; 126  : 	if(szBuffer[0] == '\0')

  0013d	80 bd f8 fc ff
	ff 00		 cmp	 BYTE PTR _szBuffer$[ebp], 0
  00144	75 3b		 jne	 SHORT $LN6@Applicatio

; 127  : 		::GetPrivateProfileString("en", szKey, NULL, szBuffer, sizeof(szBuffer)-1, szIniFileName);

  00146	8d 85 f8 fe ff
	ff		 lea	 eax, DWORD PTR _szIniFileName$[ebp]
  0014c	50		 push	 eax
  0014d	68 ff 01 00 00	 push	 511			; 000001ffH
  00152	8d 85 f8 fc ff
	ff		 lea	 eax, DWORD PTR _szBuffer$[ebp]
  00158	50		 push	 eax
  00159	6a 00		 push	 0
  0015b	56		 push	 esi
  0015c	68 00 00 00 00	 push	 OFFSET ??_C@_02LFNMGJAP@en@
  00161	ff d7		 call	 edi

; 128  : 	if(szBuffer[0] == '\0')

  00163	80 bd f8 fc ff
	ff 00		 cmp	 BYTE PTR _szBuffer$[ebp], 0
  0016a	75 15		 jne	 SHORT $LN6@Applicatio

; 129  : 		strcpy(szBuffer, szKey);

  0016c	8d 8d f8 fc ff
	ff		 lea	 ecx, DWORD PTR _szBuffer$[ebp]
  00172	2b ce		 sub	 ecx, esi
$LL10@Applicatio:
  00174	8a 06		 mov	 al, BYTE PTR [esi]
  00176	8d 76 01	 lea	 esi, DWORD PTR [esi+1]
  00179	88 44 31 ff	 mov	 BYTE PTR [ecx+esi-1], al
  0017d	84 c0		 test	 al, al
  0017f	75 f3		 jne	 SHORT $LL10@Applicatio
$LN6@Applicatio:

; 131  : 	std::string& rstLocale=gs_kAppStrTable.m_kMap_dwID_stLocale[dwID];

  00181	8d 85 f4 fb ff
	ff		 lea	 eax, DWORD PTR _dwID$[ebp]
  00187	b9 04 00 00 00	 mov	 ecx, OFFSET ?gs_kAppStrTable@@3UApplicationStringTable@@A+4
  0018c	50		 push	 eax
  0018d	e8 00 00 00 00	 call	 ??A?$map@KV?$basic_string@DU?$char_traits@D@std@@V?$allocator@D@2@@std@@U?$less@K@2@V?$allocator@U?$pair@$$CBKV?$basic_string@DU?$char_traits@D@std@@V?$allocator@D@2@@std@@@std@@@2@@std@@QAEAAV?$basic_string@DU?$char_traits@D@std@@V?$allocator@D@2@@1@ABK@Z ; std::map<unsigned long,std::basic_string<char,std::char_traits<char>,std::allocator<char> >,std::less<unsigned long>,std::allocator<std::pair<unsigned long const ,std::basic_string<char,std::char_traits<char>,std::allocator<char> > > > >::operator[]
; File C:\Program Files\Microsoft Visual Studio\2022\Community\VC\Tools\MSVC\14.44.35207\include\__msvc_string_view.hpp

; 456  :             return __builtin_strlen(_First);

  00192	8d 8d f8 fc ff
	ff		 lea	 ecx, DWORD PTR _szBuffer$[ebp]
; File D:\_m2work\txoko-m2-work\txoko-client-src\source\UserInterface\UserInterface.cpp

; 131  : 	std::string& rstLocale=gs_kAppStrTable.m_kMap_dwID_stLocale[dwID];

  00198	8b f0		 mov	 esi, eax
; File C:\Program Files\Microsoft Visual Studio\2022\Community\VC\Tools\MSVC\14.44.35207\include\__msvc_string_view.hpp

; 456  :             return __builtin_strlen(_First);

  0019a	8d 51 01	 lea	 edx, DWORD PTR [ecx+1]
  0019d	0f 1f 00	 npad	 3
$LL29@Applicatio:
  001a0	8a 01		 mov	 al, BYTE PTR [ecx]
  001a2	41		 inc	 ecx
  001a3	84 c0		 test	 al, al
  001a5	75 f9		 jne	 SHORT $LL29@Applicatio
  001a7	2b ca		 sub	 ecx, edx
; File C:\Program Files\Microsoft Visual Studio\2022\Community\VC\Tools\MSVC\14.44.35207\include\xstring

; 1638 :         return assign(_Ptr, _Convert_size<size_type>(_Traits::length(_Ptr)));

  001a9	8d 85 f8 fc ff
	ff		 lea	 eax, DWORD PTR _szBuffer$[ebp]
  001af	51		 push	 ecx
  001b0	50		 push	 eax
  001b1	8b ce		 mov	 ecx, esi
  001b3	e8 00 00 00 00	 call	 ?assign@?$basic_string@DU?$char_traits@D@std@@V?$allocator@D@2@@std@@QAEAAV12@QBDI@Z ; std::basic_string<char,std::char_traits<char>,std::allocator<char> >::assign
; File D:\_m2work\txoko-m2-work\txoko-client-src\source\UserInterface\UserInterface.cpp

; 135  : }

  001b8	8b 4d fc	 mov	 ecx, DWORD PTR __$ArrayPad$[ebp]
  001bb	8b c6		 mov	 eax, esi
  001bd	5f		 pop	 edi
  001be	5e		 pop	 esi
  001bf	33 cd		 xor	 ecx, ebp
  001c1	5b		 pop	 ebx
  001c2	e8 00 00 00 00	 call	 @__security_check_cookie@4
  001c7	8b e5		 mov	 esp, ebp
  001c9	5d		 pop	 ebp
  001ca	c3		 ret	 0
?ApplicationStringTable_GetString@@YAABV?$basic_string@DU?$char_traits@D@std@@V?$allocator@D@2@@std@@KPBD@Z ENDP ; ApplicationStringTable_GetString
_TEXT	ENDS
; Function compile flags: /Ogtp
; File D:\_m2work\txoko-m2-work\txoko-client-src\source\UserInterface\UserInterface.cpp
; File C:\Program Files\Microsoft Visual Studio\2022\Community\VC\Tools\MSVC\14.44.35207\include\xstring
; File D:\_m2work\txoko-m2-work\txoko-client-src\source\UserInterface\UserInterface.cpp
; File C:\Program Files\Microsoft Visual Studio\2022\Community\VC\Tools\MSVC\14.44.35207\include\xstring
; File D:\_m2work\txoko-m2-work\txoko-client-src\source\UserInterface\UserInterface.cpp
; File C:\Program Files\Microsoft Visual Studio\2022\Community\VC\Tools\MSVC\14.44.35207\include\xstring
; File D:\_m2work\txoko-m2-work\txoko-client-src\source\UserInterface\UserInterface.cpp
; File C:\Program Files\Microsoft Visual Studio\2022\Community\VC\Tools\MSVC\14.44.35207\include\xstring
; File D:\_m2work\txoko-m2-work\txoko-client-src\source\UserInterface\UserInterface.cpp
; File C:\Program Files\Microsoft Visual Studio\2022\Community\VC\Tools\MSVC\14.44.35207\include\xstring
; File D:\_m2work\txoko-m2-work\txoko-client-src\source\UserInterface\UserInterface.cpp
; File C:\Program Files\Microsoft Visual Studio\2022\Community\VC\Tools\MSVC\14.44.35207\include\xstring
; File D:\_m2work\txoko-m2-work\txoko-client-src\source\UserInterface\UserInterface.cpp
; File C:\Program Files\Microsoft Visual Studio\2022\Community\VC\Tools\MSVC\14.44.35207\include\xstring
; File D:\_m2work\txoko-m2-work\txoko-client-src\source\UserInterface\UserInterface.cpp
; File C:\Program Files\Microsoft Visual Studio\2022\Community\VC\Tools\MSVC\14.44.35207\include\xstring
; File D:\_m2work\txoko-m2-work\txoko-client-src\source\UserInterface\UserInterface.cpp
; File C:\Program Files\Microsoft Visual Studio\2022\Community\VC\Tools\MSVC\14.44.35207\include\xstring
; File D:\_m2work\txoko-m2-work\txoko-client-src\source\UserInterface\UserInterface.cpp
; File C:\Program Files\Microsoft Visual Studio\2022\Community\VC\Tools\MSVC\14.44.35207\include\xstring
; File D:\_m2work\txoko-m2-work\txoko-client-src\source\UserInterface\UserInterface.cpp
; File C:\Program Files\Microsoft Visual Studio\2022\Community\VC\Tools\MSVC\14.44.35207\include\xstring
; File D:\_m2work\txoko-m2-work\txoko-client-src\source\UserInterface\UserInterface.cpp
; File C:\Program Files\Microsoft Visual Studio\2022\Community\VC\Tools\MSVC\14.44.35207\include\xstring
; File D:\_m2work\txoko-m2-work\txoko-client-src\source\UserInterface\UserInterface.cpp
; File C:\Program Files\Microsoft Visual Studio\2022\Community\VC\Tools\MSVC\14.44.35207\include\xstring
; File D:\_m2work\txoko-m2-work\txoko-client-src\source\UserInterface\UserInterface.cpp
; File C:\Program Files\Microsoft Visual Studio\2022\Community\VC\Tools\MSVC\14.44.35207\include\xstring
; File D:\_m2work\txoko-m2-work\txoko-client-src\source\UserInterface\UserInterface.cpp
; File C:\Program Files\Microsoft Visual Studio\2022\Community\VC\Tools\MSVC\14.44.35207\include\xstring
; File D:\_m2work\txoko-m2-work\txoko-client-src\source\UserInterface\UserInterface.cpp
; File C:\Program Files\Microsoft Visual Studio\2022\Community\VC\Tools\MSVC\14.44.35207\include\xstring
; File D:\_m2work\txoko-m2-work\txoko-client-src\source\UserInterface\UserInterface.cpp
; File C:\Program Files\Microsoft Visual Studio\2022\Community\VC\Tools\MSVC\14.44.35207\include\xstring
; File C:\Program Files\Microsoft Visual Studio\2022\Community\VC\Tools\MSVC\14.44.35207\include\__msvc_string_view.hpp
; File C:\Program Files\Microsoft Visual Studio\2022\Community\VC\Tools\MSVC\14.44.35207\include\xstring
; File D:\_m2work\txoko-m2-work\txoko-client-src\source\UserInterface\UserInterface.cpp
; File C:\Program Files\Microsoft Visual Studio\2022\Community\VC\Tools\MSVC\14.44.35207\include\xstring
; File C:\Program Files\Microsoft Visual Studio\2022\Community\VC\Tools\MSVC\14.44.35207\include\__msvc_string_view.hpp
; File C:\Program Files\Microsoft Visual Studio\2022\Community\VC\Tools\MSVC\14.44.35207\include\xstring
; File C:\Program Files\Microsoft Visual Studio\2022\Community\VC\Tools\MSVC\14.44.35207\include\__msvc_string_view.hpp
; File C:\Program Files\Microsoft Visual Studio\2022\Community\VC\Tools\MSVC\14.44.35207\include\xstring
; File C:\Program Files\Microsoft Visual Studio\2022\Community\VC\Tools\MSVC\14.44.35207\include\__msvc_string_view.hpp
; File C:\Program Files\Microsoft Visual Studio\2022\Community\VC\Tools\MSVC\14.44.35207\include\xstring
; File C:\Program Files\Microsoft Visual Studio\2022\Community\VC\Tools\MSVC\14.44.35207\include\__msvc_string_view.hpp
; File C:\Program Files\Microsoft Visual Studio\2022\Community\VC\Tools\MSVC\14.44.35207\include\xstring
; File D:\_m2work\txoko-m2-work\txoko-client-src\source\UserInterface\UserInterface.cpp
; File C:\Program Files\Microsoft Visual Studio\2022\Community\VC\Tools\MSVC\14.44.35207\include\xstring
; File D:\_m2work\txoko-m2-work\txoko-client-src\source\UserInterface\UserInterface.cpp
; File C:\Program Files\Microsoft Visual Studio\2022\Community\VC\Tools\MSVC\14.44.35207\include\xstring
; File D:\_m2work\txoko-m2-work\txoko-client-src\source\UserInterface\UserInterface.cpp
; File C:\Program Files\Microsoft Visual Studio\2022\Community\VC\Tools\MSVC\14.44.35207\include\xstring
; File C:\Program Files\Microsoft Visual Studio\2022\Community\VC\Tools\MSVC\14.44.35207\include\xmemory
; File C:\Program Files\Microsoft Visual Studio\2022\Community\VC\Tools\MSVC\14.44.35207\include\xstring
; File C:\Program Files\Microsoft Visual Studio\2022\Community\VC\Tools\MSVC\14.44.35207\include\xmemory
; File C:\Program Files\Microsoft Visual Studio\2022\Community\VC\Tools\MSVC\14.44.35207\include\xstring
; File C:\Program Files\Microsoft Visual Studio\2022\Community\VC\Tools\MSVC\14.44.35207\include\xmemory
; File C:\Program Files\Microsoft Visual Studio\2022\Community\VC\Tools\MSVC\14.44.35207\include\xstring
; File C:\Program Files\Microsoft Visual Studio\2022\Community\VC\Tools\MSVC\14.44.35207\include\xmemory
; File D:\_m2work\txoko-m2-work\txoko-client-src\source\UserInterface\UserInterface.cpp
; File C:\Program Files\Microsoft Visual Studio\2022\Community\VC\Tools\MSVC\14.44.35207\include\xstring
; File D:\_m2work\txoko-m2-work\txoko-client-src\source\UserInterface\UserInterface.cpp
; File C:\Program Files\Microsoft Visual Studio\2022\Community\VC\Tools\MSVC\14.44.35207\include\xstring
; File D:\_m2work\txoko-m2-work\txoko-client-src\source\UserInterface\UserInterface.cpp
; File C:\Program Files\Microsoft Visual Studio\2022\Community\VC\Tools\MSVC\14.44.35207\include\xstring
; File D:\_m2work\txoko-m2-work\txoko-client-src\source\UserInterface\UserInterface.cpp
; File C:\Program Files\Microsoft Visual Studio\2022\Community\VC\Tools\MSVC\14.44.35207\include\xstring
; File C:\Program Files\Microsoft Visual Studio\2022\Community\VC\Tools\MSVC\14.44.35207\include\xmemory
; File D:\_m2work\txoko-m2-work\txoko-client-src\source\UserInterface\UserInterface.cpp
;	COMDAT ?PackInitialize@@YA_NPBD@Z
_TEXT	SEGMENT
_TextLoader$ = -516					; size = 16
_pvData$ = -500						; size = 4
__Ptr_shifted_after$1$ = -496				; size = 4
tv2546 = -492						; size = 4
$T2 = -492						; size = 1
$T3 = -492						; size = 1
$T4 = -492						; size = 1
$T5 = -485						; size = 1
_file$ = -484						; size = 324
_strTexCachePackName$ = -160				; size = 24
_stFileName$ = -136					; size = 24
_strPackName$ = -112					; size = 24
_stFolder$ = -88					; size = 24
$T6 = -64						; size = 24
$T7 = -40						; size = 24
$T8 = -40						; size = 24
$T9 = -40						; size = 24
__$ArrayPad$ = -16					; size = 4
__$EHRec$ = -12						; size = 12
?PackInitialize@@YA_NPBD@Z PROC				; PackInitialize, COMDAT
; _c_pszFolder$dead$ = ecx

; 163  : {

  00000	55		 push	 ebp
  00001	8b ec		 mov	 ebp, esp
  00003	6a ff		 push	 -1
  00005	68 00 00 00 00	 push	 __ehhandler$?PackInitialize@@YA_NPBD@Z
  0000a	64 a1 00 00 00
	00		 mov	 eax, DWORD PTR fs:0
  00010	50		 push	 eax
  00011	81 ec f8 01 00
	00		 sub	 esp, 504		; 000001f8H
  00017	a1 00 00 00 00	 mov	 eax, DWORD PTR ___security_cookie
  0001c	33 c5		 xor	 eax, ebp
  0001e	89 45 f0	 mov	 DWORD PTR __$ArrayPad$[ebp], eax
  00021	53		 push	 ebx
  00022	56		 push	 esi
  00023	57		 push	 edi
  00024	50		 push	 eax
  00025	8d 45 f4	 lea	 eax, DWORD PTR __$EHRec$[ebp]
  00028	64 a3 00 00 00
	00		 mov	 DWORD PTR fs:0, eax

; 164  : 	NANOBEGIN

  0002e	eb		 DB	 -21			; ffffffebH
  0002f	03		 DB	 3
  00030	d6		 DB	 -42			; ffffffd6H
  00031	d7		 DB	 -41			; ffffffd7H
  00032	01		 DB	 1
  00033	6a 00		 push	 0
  00035	68 00 00 00 00	 push	 OFFSET ??_C@_04IPANLPFO@pack@
  0003a	e8 00 00 00 00	 call	 __access
  0003f	83 c4 08	 add	 esp, 8
  00042	85 c0		 test	 eax, eax
  00044	74 07		 je	 SHORT $LN5@PackInitia

; 165  : 	if (_access(c_pszFolder, 0) != 0)
; 166  : 		return true;

  00046	b0 01		 mov	 al, 1
  00048	e9 56 05 00 00	 jmp	 $LN1@PackInitia
$LN5@PackInitia:
; File C:\Program Files\Microsoft Visual Studio\2022\Community\VC\Tools\MSVC\14.44.35207\include\xstring

; 769  :         _Construct<_Construct_strategy::_From_ptr>(_Ptr, _Convert_size<size_type>(_Traits::length(_Ptr)));

  0004d	6a 04		 push	 4
  0004f	0f 57 c0	 xorps	 xmm0, xmm0

; 517  :     size_type _Mysize = 0; // current length of string (size)

  00052	c7 45 b8 00 00
	00 00		 mov	 DWORD PTR _stFolder$[ebp+16], 0

; 769  :         _Construct<_Construct_strategy::_From_ptr>(_Ptr, _Convert_size<size_type>(_Traits::length(_Ptr)));

  00059	68 00 00 00 00	 push	 OFFSET ??_C@_04IPANLPFO@pack@
  0005e	8d 4d a8	 lea	 ecx, DWORD PTR _stFolder$[ebp]

; 518  :     size_type _Myres  = 0; // current storage reserved for string (capacity)

  00061	c7 45 bc 00 00
	00 00		 mov	 DWORD PTR _stFolder$[ebp+20], 0

; 493  :         _CONSTEXPR20 _Bxty() noexcept : _Buf() {} // user-provided, for fancy pointers

  00068	0f 11 45 a8	 movups	 XMMWORD PTR _stFolder$[ebp], xmm0

; 769  :         _Construct<_Construct_strategy::_From_ptr>(_Ptr, _Convert_size<size_type>(_Traits::length(_Ptr)));

  0006c	e8 00 00 00 00	 call	 ??$_Construct@$00PBD@?$basic_string@DU?$char_traits@D@std@@V?$allocator@D@2@@std@@AAEXQBDI@Z ; std::basic_string<char,std::char_traits<char>,std::allocator<char> >::_Construct<1,char const *>

; 1534 :         return append(_Ptr, _Convert_size<size_type>(_Traits::length(_Ptr)));

  00071	6a 01		 push	 1
  00073	68 00 00 00 00	 push	 OFFSET ??_C@_01KMDKNFGN@?1@
  00078	8d 4d a8	 lea	 ecx, DWORD PTR _stFolder$[ebp]
; File D:\_m2work\txoko-m2-work\txoko-client-src\source\UserInterface\UserInterface.cpp

; 168  : 	std::string stFolder(c_pszFolder);

  0007b	c7 45 fc 00 00
	00 00		 mov	 DWORD PTR __$EHRec$[ebp+8], 0
; File C:\Program Files\Microsoft Visual Studio\2022\Community\VC\Tools\MSVC\14.44.35207\include\xstring

; 1534 :         return append(_Ptr, _Convert_size<size_type>(_Traits::length(_Ptr)));

  00082	e8 00 00 00 00	 call	 ?append@?$basic_string@DU?$char_traits@D@std@@V?$allocator@D@2@@std@@QAEAAV12@QBDI@Z ; std::basic_string<char,std::char_traits<char>,std::allocator<char> >::append
; File D:\_m2work\txoko-m2-work\txoko-client-src\source\UserInterface\UserInterface.cpp

; 171  : 	std::string stFileName(stFolder);

  00087	8d 45 a8	 lea	 eax, DWORD PTR _stFolder$[ebp]
  0008a	50		 push	 eax
  0008b	8d 8d 78 ff ff
	ff		 lea	 ecx, DWORD PTR _stFileName$[ebp]
  00091	e8 00 00 00 00	 call	 ??0?$basic_string@DU?$char_traits@D@std@@V?$allocator@D@2@@std@@QAE@ABV01@@Z ; std::basic_string<char,std::char_traits<char>,std::allocator<char> >::basic_string<char,std::char_traits<char>,std::allocator<char> >
; File C:\Program Files\Microsoft Visual Studio\2022\Community\VC\Tools\MSVC\14.44.35207\include\xstring

; 1534 :         return append(_Ptr, _Convert_size<size_type>(_Traits::length(_Ptr)));

  00096	6a 05		 push	 5
  00098	68 00 00 00 00	 push	 OFFSET ??_C@_05FNNGFGLF@Index@
  0009d	8d 8d 78 ff ff
	ff		 lea	 ecx, DWORD PTR _stFileName$[ebp]
; File D:\_m2work\txoko-m2-work\txoko-client-src\source\UserInterface\UserInterface.cpp

; 171  : 	std::string stFileName(stFolder);

  000a3	c6 45 fc 01	 mov	 BYTE PTR __$EHRec$[ebp+8], 1
; File C:\Program Files\Microsoft Visual Studio\2022\Community\VC\Tools\MSVC\14.44.35207\include\xstring

; 1534 :         return append(_Ptr, _Convert_size<size_type>(_Traits::length(_Ptr)));

  000a7	e8 00 00 00 00	 call	 ?append@?$basic_string@DU?$char_traits@D@std@@V?$allocator@D@2@@std@@QAEAAV12@QBDI@Z ; std::basic_string<char,std::char_traits<char>,std::allocator<char> >::append
; File D:\_m2work\txoko-m2-work\txoko-client-src\source\UserInterface\UserInterface.cpp

; 174  : 	CMappedFile file;

  000ac	8d 8d 1c fe ff
	ff		 lea	 ecx, DWORD PTR _file$[ebp]
  000b2	e8 00 00 00 00	 call	 ??0CMappedFile@@QAE@XZ	; CMappedFile::CMappedFile

; 177  : 	if (!file.Create(stFileName.c_str(), &pvData, 0, 0))

  000b7	6a 00		 push	 0
  000b9	c6 45 fc 02	 mov	 BYTE PTR __$EHRec$[ebp+8], 2
  000bd	8d 8d 0c fe ff
	ff		 lea	 ecx, DWORD PTR _pvData$[ebp]
; File C:\Program Files\Microsoft Visual Studio\2022\Community\VC\Tools\MSVC\14.44.35207\include\xstring

; 453  :         return _Myres > _Small_string_capacity;

  000c3	83 7d 8c 0f	 cmp	 DWORD PTR _stFileName$[ebp+20], 15 ; 0000000fH

; 444  :         const value_type* _Result = _Bx._Buf;

  000c7	8d 85 78 ff ff
	ff		 lea	 eax, DWORD PTR _stFileName$[ebp]
; File D:\_m2work\txoko-m2-work\txoko-client-src\source\UserInterface\UserInterface.cpp

; 177  : 	if (!file.Create(stFileName.c_str(), &pvData, 0, 0))

  000cd	6a 00		 push	 0
; File C:\Program Files\Microsoft Visual Studio\2022\Community\VC\Tools\MSVC\14.44.35207\include\xstring

; 445  :         if (_Large_mode_engaged()) {

  000cf	0f 47 85 78 ff
	ff ff		 cmova	 eax, DWORD PTR _stFileName$[ebp]
; File D:\_m2work\txoko-m2-work\txoko-client-src\source\UserInterface\UserInterface.cpp

; 177  : 	if (!file.Create(stFileName.c_str(), &pvData, 0, 0))

  000d6	51		 push	 ecx
  000d7	50		 push	 eax
  000d8	8d 8d 1c fe ff
	ff		 lea	 ecx, DWORD PTR _file$[ebp]
  000de	e8 00 00 00 00	 call	 ?Create@CMappedFile@@QAEHPBDPAPBXHH@Z ; CMappedFile::Create
  000e3	85 c0		 test	 eax, eax
  000e5	75 47		 jne	 SHORT $LN6@PackInitia
; File C:\Program Files\Microsoft Visual Studio\2022\Community\VC\Tools\MSVC\14.44.35207\include\xstring

; 453  :         return _Myres > _Small_string_capacity;

  000e7	83 7d 8c 0f	 cmp	 DWORD PTR _stFileName$[ebp+20], 15 ; 0000000fH

; 444  :         const value_type* _Result = _Bx._Buf;

  000eb	8d 85 78 ff ff
	ff		 lea	 eax, DWORD PTR _stFileName$[ebp]

; 445  :         if (_Large_mode_engaged()) {

  000f1	0f 47 85 78 ff
	ff ff		 cmova	 eax, DWORD PTR _stFileName$[ebp]
; File D:\_m2work\txoko-m2-work\txoko-client-src\source\UserInterface\UserInterface.cpp

; 179  : 		LogBoxf("FATAL ERROR! File not exist: %s", stFileName.c_str());

  000f8	50		 push	 eax
  000f9	68 00 00 00 00	 push	 OFFSET ??_C@_0CA@PJKENNIH@FATAL?5ERROR?$CB?5File?5not?5exist?3?5?$CFs@
  000fe	e8 00 00 00 00	 call	 ?LogBoxf@@YAXPBDZZ	; LogBoxf
; File C:\Program Files\Microsoft Visual Studio\2022\Community\VC\Tools\MSVC\14.44.35207\include\xstring

; 453  :         return _Myres > _Small_string_capacity;

  00103	83 7d 8c 0f	 cmp	 DWORD PTR _stFileName$[ebp+20], 15 ; 0000000fH

; 444  :         const value_type* _Result = _Bx._Buf;

  00107	8d 85 78 ff ff
	ff		 lea	 eax, DWORD PTR _stFileName$[ebp]

; 445  :         if (_Large_mode_engaged()) {

  0010d	0f 47 85 78 ff
	ff ff		 cmova	 eax, DWORD PTR _stFileName$[ebp]
; File D:\_m2work\txoko-m2-work\txoko-client-src\source\UserInterface\UserInterface.cpp

; 180  : 		TraceError("FATAL ERROR! File not exist: %s", stFileName.c_str());

  00114	50		 push	 eax
  00115	68 00 00 00 00	 push	 OFFSET ??_C@_0CA@PJKENNIH@FATAL?5ERROR?$CB?5File?5not?5exist?3?5?$CFs@
  0011a	e8 00 00 00 00	 call	 ?TraceError@@YAXPBDZZ	; TraceError
  0011f	83 c4 10	 add	 esp, 16			; 00000010H
  00122	c6 85 1b fe ff
	ff 01		 mov	 BYTE PTR $T5[ebp], 1
  00129	e9 51 04 00 00	 jmp	 $LN19@PackInitia
$LN6@PackInitia:

; 181  : 		return true;
; 182  : 	}
; 183  : 
; 184  : 	CMemoryTextFileLoader TextLoader;

  0012e	8d 8d fc fd ff
	ff		 lea	 ecx, DWORD PTR _TextLoader$[ebp]
  00134	e8 00 00 00 00	 call	 ??0CMemoryTextFileLoader@@QAE@XZ ; CMemoryTextFileLoader::CMemoryTextFileLoader
  00139	c6 45 fc 03	 mov	 BYTE PTR __$EHRec$[ebp+8], 3

; 185  : 	TextLoader.Bind(file.Size(), pvData);

  0013d	8d 8d 1c fe ff
	ff		 lea	 ecx, DWORD PTR _file$[ebp]
  00143	8b b5 0c fe ff
	ff		 mov	 esi, DWORD PTR _pvData$[ebp]
  00149	e8 00 00 00 00	 call	 ?Size@CMappedFile@@QAEKXZ ; CMappedFile::Size
  0014e	56		 push	 esi
  0014f	50		 push	 eax
  00150	8d 8d fc fd ff
	ff		 lea	 ecx, DWORD PTR _TextLoader$[ebp]
  00156	e8 00 00 00 00	 call	 ?Bind@CMemoryTextFileLoader@@QAEXHPBX@Z ; CMemoryTextFileLoader::Bind

; 186  : 
; 187  : 	bool bPackFirst = TRUE;
; 188  : 
; 189  : 	const std::string& strPackType = TextLoader.GetLineString(0);

  0015b	6a 00		 push	 0
  0015d	8d 8d fc fd ff
	ff		 lea	 ecx, DWORD PTR _TextLoader$[ebp]
  00163	e8 00 00 00 00	 call	 ?GetLineString@CMemoryTextFileLoader@@QAEABV?$basic_string@DU?$char_traits@D@std@@V?$allocator@D@2@@std@@K@Z ; CMemoryTextFileLoader::GetLineString
  00168	8b f0		 mov	 esi, eax
; File C:\Program Files\Microsoft Visual Studio\2022\Community\VC\Tools\MSVC\14.44.35207\include\xstring

; 453  :         return _Myres > _Small_string_capacity;

  0016a	83 7e 14 0f	 cmp	 DWORD PTR [esi+20], 15	; 0000000fH

; 2912 :         return _Traits_compare<_Traits>(_Mypair._Myval2._Myptr(), _Mypair._Myval2._Mysize, _Ptr, _Traits::length(_Ptr));

  0016e	8b 7e 10	 mov	 edi, DWORD PTR [esi+16]

; 445  :         if (_Large_mode_engaged()) {

  00171	76 02		 jbe	 SHORT $LN687@PackInitia

; 446  :             _Result = _Unfancy(_Bx._Ptr);

  00173	8b 06		 mov	 eax, DWORD PTR [esi]
$LN687@PackInitia:

; 2912 :         return _Traits_compare<_Traits>(_Mypair._Myval2._Myptr(), _Mypair._Myval2._Mysize, _Ptr, _Traits::length(_Ptr));

  00175	6a 04		 push	 4
  00177	68 00 00 00 00	 push	 OFFSET ??_C@_04PMPMHNFI@FILE@
  0017c	57		 push	 edi
  0017d	50		 push	 eax
  0017e	e8 00 00 00 00	 call	 ??$_Traits_compare@U?$char_traits@D@std@@@std@@YAHQBDI0I@Z ; std::_Traits_compare<std::char_traits<char> >
  00183	83 c4 10	 add	 esp, 16			; 00000010H
; File D:\_m2work\txoko-m2-work\txoko-client-src\source\UserInterface\UserInterface.cpp

; 191  : 	if (strPackType.compare("FILE") && strPackType.compare("PACK"))

  00186	85 c0		 test	 eax, eax
  00188	74 36		 je	 SHORT $LN7@PackInitia
; File C:\Program Files\Microsoft Visual Studio\2022\Community\VC\Tools\MSVC\14.44.35207\include\xstring

; 453  :         return _Myres > _Small_string_capacity;

  0018a	83 7e 14 0f	 cmp	 DWORD PTR [esi+20], 15	; 0000000fH

; 445  :         if (_Large_mode_engaged()) {

  0018e	76 02		 jbe	 SHORT $LN550@PackInitia

; 446  :             _Result = _Unfancy(_Bx._Ptr);

  00190	8b 36		 mov	 esi, DWORD PTR [esi]
$LN550@PackInitia:

; 2912 :         return _Traits_compare<_Traits>(_Mypair._Myval2._Myptr(), _Mypair._Myval2._Mysize, _Ptr, _Traits::length(_Ptr));

  00192	6a 04		 push	 4
  00194	68 00 00 00 00	 push	 OFFSET ??_C@_04EDDHFNCG@PACK@
  00199	57		 push	 edi
  0019a	56		 push	 esi
  0019b	e8 00 00 00 00	 call	 ??$_Traits_compare@U?$char_traits@D@std@@@std@@YAHQBDI0I@Z ; std::_Traits_compare<std::char_traits<char> >
  001a0	83 c4 10	 add	 esp, 16			; 00000010H
; File D:\_m2work\txoko-m2-work\txoko-client-src\source\UserInterface\UserInterface.cpp

; 191  : 	if (strPackType.compare("FILE") && strPackType.compare("PACK"))

  001a3	85 c0		 test	 eax, eax
  001a5	74 19		 je	 SHORT $LN7@PackInitia

; 192  : 	{
; 193  : 		TraceError("Pack/Index has invalid syntax. First line must be 'PACK' or 'FILE'");

  001a7	68 00 00 00 00	 push	 OFFSET ??_C@_0ED@CBACJNDK@Pack?1Index?5has?5invalid?5syntax?4?5@
  001ac	e8 00 00 00 00	 call	 ?TraceError@@YAXPBDZZ	; TraceError
  001b1	83 c4 04	 add	 esp, 4
  001b4	c6 85 1b fe ff
	ff 00		 mov	 BYTE PTR $T5[ebp], 0
  001bb	e9 b4 03 00 00	 jmp	 $LN326@PackInitia
$LN7@PackInitia:

; 194  : 		return false;
; 195  : 	}
; 196  : 
; 197  : #ifdef _DISTRIBUTE
; 198  : 	Tracef(":  .\n");

  001c0	68 00 00 00 00	 push	 OFFSET ??_C@_0BG@FJMFFOHK@?$LO?K?$LI?$LC?3?5?F?Q?5?$LI?p?$LF?e?$MA?T?$LE?O?$LE?Y?4?6@
  001c5	e8 00 00 00 00	 call	 ?Tracef@@YAXPBDZZ	; Tracef
  001ca	83 c4 04	 add	 esp, 4

; 199  : 	
; 200  : 	//if (0 == strPackType.compare("FILE"))
; 201  : 	//{
; 202  : 	//	bPackFirst = FALSE;
; 203  : 	//	Tracef(":  .\n");
; 204  : 	//}
; 205  : 	//else
; 206  : 	//{
; 207  : 	//	Tracef(":  .\n");
; 208  : 	//}
; 209  : #else
; 210  : 	bPackFirst = FALSE;
; 211  : 	Tracef(":  .\n");
; 212  : #endif
; 213  : 
; 214  : 	CTextFileLoader::SetCacheMode();

  001cd	e8 00 00 00 00	 call	 ?SetCacheMode@CTextFileLoader@@SAXXZ ; CTextFileLoader::SetCacheMode

; 215  : #if defined(USE_RELATIVE_PATH)
; 216  : 	CEterPackManager::Instance().SetRelativePathMode();
; 217  : #endif
; 218  : 	CEterPackManager::Instance().SetCacheMode();

  001d2	8b 0d 00 00 00
	00		 mov	 ecx, DWORD PTR ?ms_singleton@?$CSingleton@VCEterPackManager@@@@0PAVCEterPackManager@@A ; CSingleton<CEterPackManager>::ms_singleton
  001d8	e8 00 00 00 00	 call	 ?SetCacheMode@CEterPackManager@@QAEXXZ ; CEterPackManager::SetCacheMode

; 219  : 	CEterPackManager::Instance().SetSearchMode(bPackFirst);

  001dd	8b 0d 00 00 00
	00		 mov	 ecx, DWORD PTR ?ms_singleton@?$CSingleton@VCEterPackManager@@@@0PAVCEterPackManager@@A ; CSingleton<CEterPackManager>::ms_singleton
  001e3	6a 01		 push	 1
  001e5	e8 00 00 00 00	 call	 ?SetSearchMode@CEterPackManager@@QAEX_N@Z ; CEterPackManager::SetSearchMode

; 220  : 
; 221  : 	CSoundData::SetPackMode(); // Miles   

  001ea	e8 00 00 00 00	 call	 ?SetPackMode@CSoundData@@SAXXZ ; CSoundData::SetPackMode
  001ef	0f 57 c0	 xorps	 xmm0, xmm0
; File C:\Program Files\Microsoft Visual Studio\2022\Community\VC\Tools\MSVC\14.44.35207\include\xstring

; 860  :         _My_data._Mysize = 0;

  001f2	c7 45 a0 00 00
	00 00		 mov	 DWORD PTR _strPackName$[ebp+16], 0

; 493  :         _CONSTEXPR20 _Bxty() noexcept : _Buf() {} // user-provided, for fancy pointers

  001f9	0f 11 45 90	 movups	 XMMWORD PTR _strPackName$[ebp], xmm0

; 861  :         _My_data._Myres  = _Small_string_capacity;

  001fd	c7 45 a4 0f 00
	00 00		 mov	 DWORD PTR _strPackName$[ebp+20], 15 ; 0000000fH

; 862  :         _My_data._Activate_SSO_buffer();
; 863  : 
; 864  :         // the _Traits::assign is last so the codegen doesn't think the char write can alias this
; 865  :         _Traits::assign(_My_data._Bx._Buf[0], _Elem());

  00204	c6 45 90 00	 mov	 BYTE PTR _strPackName$[ebp], 0

; 493  :         _CONSTEXPR20 _Bxty() noexcept : _Buf() {} // user-provided, for fancy pointers

  00208	0f 11 85 60 ff
	ff ff		 movups	 XMMWORD PTR _strTexCachePackName$[ebp], xmm0

; 860  :         _My_data._Mysize = 0;

  0020f	c7 85 70 ff ff
	ff 00 00 00 00	 mov	 DWORD PTR _strTexCachePackName$[ebp+16], 0

; 861  :         _My_data._Myres  = _Small_string_capacity;

  00219	c7 85 74 ff ff
	ff 0f 00 00 00	 mov	 DWORD PTR _strTexCachePackName$[ebp+20], 15 ; 0000000fH

; 862  :         _My_data._Activate_SSO_buffer();
; 863  : 
; 864  :         // the _Traits::assign is last so the codegen doesn't think the char write can alias this
; 865  :         _Traits::assign(_My_data._Bx._Buf[0], _Elem());

  00223	c6 85 60 ff ff
	ff 00		 mov	 BYTE PTR _strTexCachePackName$[ebp], 0
; File D:\_m2work\txoko-m2-work\txoko-client-src\source\UserInterface\UserInterface.cpp

; 224  : 	for (DWORD i = 1; i < TextLoader.GetLineCount() - 1; i += 2)

  0022a	8d 8d fc fd ff
	ff		 lea	 ecx, DWORD PTR _TextLoader$[ebp]
  00230	c6 45 fc 05	 mov	 BYTE PTR __$EHRec$[ebp+8], 5
  00234	bf 01 00 00 00	 mov	 edi, 1
  00239	e8 00 00 00 00	 call	 ?GetLineCount@CMemoryTextFileLoader@@QAEKXZ ; CMemoryTextFileLoader::GetLineCount
  0023e	48		 dec	 eax
  0023f	3b c7		 cmp	 eax, edi
  00241	0f 86 74 01 00
	00		 jbe	 $LN3@PackInitia
  00247	66 0f 1f 84 00
	00 00 00 00	 npad	 9
$LL4@PackInitia:

; 225  : 	{
; 226  : 		const std::string & c_rstFolder = TextLoader.GetLineString(i);

  00250	57		 push	 edi
  00251	8d 8d fc fd ff
	ff		 lea	 ecx, DWORD PTR _TextLoader$[ebp]
  00257	e8 00 00 00 00	 call	 ?GetLineString@CMemoryTextFileLoader@@QAEABV?$basic_string@DU?$char_traits@D@std@@V?$allocator@D@2@@std@@K@Z ; CMemoryTextFileLoader::GetLineString
  0025c	8b f0		 mov	 esi, eax

; 227  : 		const std::string & c_rstName = TextLoader.GetLineString(i + 1);

  0025e	8d 8d fc fd ff
	ff		 lea	 ecx, DWORD PTR _TextLoader$[ebp]
  00264	8d 47 01	 lea	 eax, DWORD PTR [edi+1]
  00267	50		 push	 eax
  00268	e8 00 00 00 00	 call	 ?GetLineString@CMemoryTextFileLoader@@QAEABV?$basic_string@DU?$char_traits@D@std@@V?$allocator@D@2@@std@@K@Z ; CMemoryTextFileLoader::GetLineString
; File C:\Program Files\Microsoft Visual Studio\2022\Community\VC\Tools\MSVC\14.44.35207\include\xstring

; 3151 :     if (_Left.max_size() - _Left_size < _Right_size) {

  0026d	b9 ff ff ff 7f	 mov	 ecx, 2147483647		; 7fffffffH
  00272	2b 4d b8	 sub	 ecx, DWORD PTR _stFolder$[ebp+16]
  00275	8b 50 10	 mov	 edx, DWORD PTR [eax+16]
  00278	3b ca		 cmp	 ecx, edx
  0027a	0f 82 3f 03 00
	00		 jb	 $LN616@PackInitia

; 453  :         return _Myres > _Small_string_capacity;

  00280	83 7d bc 0f	 cmp	 DWORD PTR _stFolder$[ebp+20], 15 ; 0000000fH

; 444  :         const value_type* _Result = _Bx._Buf;

  00284	8d 4d a8	 lea	 ecx, DWORD PTR _stFolder$[ebp]

; 445  :         if (_Large_mode_engaged()) {

  00287	0f 47 4d a8	 cmova	 ecx, DWORD PTR _stFolder$[ebp]

; 453  :         return _Myres > _Small_string_capacity;

  0028b	83 78 14 0f	 cmp	 DWORD PTR [eax+20], 15	; 0000000fH

; 445  :         if (_Large_mode_engaged()) {

  0028f	76 02		 jbe	 SHORT $LN349@PackInitia

; 446  :             _Result = _Unfancy(_Bx._Ptr);

  00291	8b 00		 mov	 eax, DWORD PTR [eax]
$LN349@PackInitia:

; 3155 :     return {_String_constructor_concat_tag{}, _Left, _Left.c_str(), _Left_size, _Right.c_str(), _Right_size};

  00293	52		 push	 edx
  00294	50		 push	 eax
  00295	ff 75 b8	 push	 DWORD PTR _stFolder$[ebp+16]
  00298	8d 45 a8	 lea	 eax, DWORD PTR _stFolder$[ebp]
  0029b	51		 push	 ecx
  0029c	50		 push	 eax
  0029d	ff b5 14 fe ff
	ff		 push	 DWORD PTR $T2[ebp]
  002a3	8d 4d d8	 lea	 ecx, DWORD PTR $T7[ebp]
  002a6	e8 00 00 00 00	 call	 ??0?$basic_string@DU?$char_traits@D@std@@V?$allocator@D@2@@std@@QAE@U_String_constructor_concat_tag@1@ABV01@QBDI2I@Z ; std::basic_string<char,std::char_traits<char>,std::allocator<char> >::basic_string<char,std::char_traits<char>,std::allocator<char> >

; 1246 :         _Tidy_deallocate();

  002ab	8d 4d 90	 lea	 ecx, DWORD PTR _strPackName$[ebp]
  002ae	e8 00 00 00 00	 call	 ?_Tidy_deallocate@?$basic_string@DU?$char_traits@D@std@@V?$allocator@D@2@@std@@AAEXXZ ; std::basic_string<char,std::char_traits<char>,std::allocator<char> >::_Tidy_deallocate

; 1286 :                 _CSTD memcpy(_My_data_mem, _Right_data_mem, _Memcpy_val_size);

  002b3	0f 10 45 d8	 movups	 xmm0, XMMWORD PTR $T7[ebp]

; 1383 :         _Tidy_deallocate();

  002b7	8d 4d d8	 lea	 ecx, DWORD PTR $T7[ebp]

; 1291 :                 _Traits::assign(_Right_data._Bx._Buf[0], _Elem());

  002ba	c6 45 d8 00	 mov	 BYTE PTR $T7[ebp], 0
  002be	0f 11 45 90	 movups	 XMMWORD PTR _strPackName$[ebp], xmm0
  002c2	f3 0f 7e 45 e8	 movq	 xmm0, QWORD PTR $T7[ebp+16]
  002c7	66 0f d6 45 a0	 movq	 QWORD PTR _strPackName$[ebp+16], xmm0
  002cc	c7 45 e8 00 00
	00 00		 mov	 DWORD PTR $T7[ebp+16], 0
  002d3	c7 45 ec 0f 00
	00 00		 mov	 DWORD PTR $T7[ebp+20], 15 ; 0000000fH

; 1383 :         _Tidy_deallocate();

  002da	e8 00 00 00 00	 call	 ?_Tidy_deallocate@?$basic_string@DU?$char_traits@D@std@@V?$allocator@D@2@@std@@AAEXXZ ; std::basic_string<char,std::char_traits<char>,std::allocator<char> >::_Tidy_deallocate

; 3188 :     if (_Left.max_size() - _Left_size < _Right_size) {

  002df	8b 4d a0	 mov	 ecx, DWORD PTR _strPackName$[ebp+16]
  002e2	b8 ff ff ff 7f	 mov	 eax, 2147483647		; 7fffffffH
  002e7	2b c1		 sub	 eax, ecx
  002e9	83 f8 09	 cmp	 eax, 9
  002ec	0f 82 cd 02 00
	00		 jb	 $LN616@PackInitia

; 453  :         return _Myres > _Small_string_capacity;

  002f2	83 7d a4 0f	 cmp	 DWORD PTR _strPackName$[ebp+20], 15 ; 0000000fH

; 444  :         const value_type* _Result = _Bx._Buf;

  002f6	8d 45 90	 lea	 eax, DWORD PTR _strPackName$[ebp]

; 3192 :     return {_String_constructor_concat_tag{}, _Left, _Left.c_str(), _Left_size, _Right, _Right_size};

  002f9	6a 09		 push	 9

; 445  :         if (_Large_mode_engaged()) {

  002fb	0f 47 45 90	 cmova	 eax, DWORD PTR _strPackName$[ebp]

; 3192 :     return {_String_constructor_concat_tag{}, _Left, _Left.c_str(), _Left_size, _Right, _Right_size};

  002ff	68 00 00 00 00	 push	 OFFSET ??_C@_09ODEGJGJI@_texcache@
  00304	51		 push	 ecx
  00305	50		 push	 eax
  00306	8d 45 90	 lea	 eax, DWORD PTR _strPackName$[ebp]
  00309	50		 push	 eax
  0030a	ff b5 14 fe ff
	ff		 push	 DWORD PTR $T3[ebp]
  00310	8d 4d d8	 lea	 ecx, DWORD PTR $T8[ebp]
  00313	e8 00 00 00 00	 call	 ??0?$basic_string@DU?$char_traits@D@std@@V?$allocator@D@2@@std@@QAE@U_String_constructor_concat_tag@1@ABV01@QBDI2I@Z ; std::basic_string<char,std::char_traits<char>,std::allocator<char> >::basic_string<char,std::char_traits<char>,std::allocator<char> >

; 1246 :         _Tidy_deallocate();

  00318	8d 8d 60 ff ff
	ff		 lea	 ecx, DWORD PTR _strTexCachePackName$[ebp]
  0031e	e8 00 00 00 00	 call	 ?_Tidy_deallocate@?$basic_string@DU?$char_traits@D@std@@V?$allocator@D@2@@std@@AAEXXZ ; std::basic_string<char,std::char_traits<char>,std::allocator<char> >::_Tidy_deallocate

; 1286 :                 _CSTD memcpy(_My_data_mem, _Right_data_mem, _Memcpy_val_size);

  00323	0f 10 45 d8	 movups	 xmm0, XMMWORD PTR $T8[ebp]

; 1383 :         _Tidy_deallocate();

  00327	8d 4d d8	 lea	 ecx, DWORD PTR $T8[ebp]

; 1291 :                 _Traits::assign(_Right_data._Bx._Buf[0], _Elem());

  0032a	c6 45 d8 00	 mov	 BYTE PTR $T8[ebp], 0
  0032e	0f 11 85 60 ff
	ff ff		 movups	 XMMWORD PTR _strTexCachePackName$[ebp], xmm0
  00335	f3 0f 7e 45 e8	 movq	 xmm0, QWORD PTR $T8[ebp+16]
  0033a	66 0f d6 85 70
	ff ff ff	 movq	 QWORD PTR _strTexCachePackName$[ebp+16], xmm0
  00342	c7 45 e8 00 00
	00 00		 mov	 DWORD PTR $T8[ebp+16], 0
  00349	c7 45 ec 0f 00
	00 00		 mov	 DWORD PTR $T8[ebp+20], 15 ; 0000000fH

; 1383 :         _Tidy_deallocate();

  00350	e8 00 00 00 00	 call	 ?_Tidy_deallocate@?$basic_string@DU?$char_traits@D@std@@V?$allocator@D@2@@std@@AAEXXZ ; std::basic_string<char,std::char_traits<char>,std::allocator<char> >::_Tidy_deallocate

; 453  :         return _Myres > _Small_string_capacity;

  00355	83 7e 14 0f	 cmp	 DWORD PTR [esi+20], 15	; 0000000fH

; 444  :         const value_type* _Result = _Bx._Buf;

  00359	8b ce		 mov	 ecx, esi

; 445  :         if (_Large_mode_engaged()) {

  0035b	76 02		 jbe	 SHORT $LN689@PackInitia

; 446  :             _Result = _Unfancy(_Bx._Ptr);

  0035d	8b 0e		 mov	 ecx, DWORD PTR [esi]
$LN689@PackInitia:

; 453  :         return _Myres > _Small_string_capacity;

  0035f	83 7d a4 0f	 cmp	 DWORD PTR _strPackName$[ebp+20], 15 ; 0000000fH

; 444  :         const value_type* _Result = _Bx._Buf;

  00363	8d 45 90	 lea	 eax, DWORD PTR _strPackName$[ebp]
; File D:\_m2work\txoko-m2-work\txoko-client-src\source\UserInterface\UserInterface.cpp

; 232  : 		CEterPackManager::Instance().RegisterPack(strPackName.c_str(), c_rstFolder.c_str());

  00366	6a 00		 push	 0
; File C:\Program Files\Microsoft Visual Studio\2022\Community\VC\Tools\MSVC\14.44.35207\include\xstring

; 445  :         if (_Large_mode_engaged()) {

  00368	0f 47 45 90	 cmova	 eax, DWORD PTR _strPackName$[ebp]
; File D:\_m2work\txoko-m2-work\txoko-client-src\source\UserInterface\UserInterface.cpp

; 232  : 		CEterPackManager::Instance().RegisterPack(strPackName.c_str(), c_rstFolder.c_str());

  0036c	51		 push	 ecx
  0036d	8b 0d 00 00 00
	00		 mov	 ecx, DWORD PTR ?ms_singleton@?$CSingleton@VCEterPackManager@@@@0PAVCEterPackManager@@A ; CSingleton<CEterPackManager>::ms_singleton
  00373	50		 push	 eax
  00374	e8 00 00 00 00	 call	 ?RegisterPack@CEterPackManager@@QAE_NPBD0PBE@Z ; CEterPackManager::RegisterPack
; File C:\Program Files\Microsoft Visual Studio\2022\Community\VC\Tools\MSVC\14.44.35207\include\xstring

; 453  :         return _Myres > _Small_string_capacity;

  00379	83 7e 14 0f	 cmp	 DWORD PTR [esi+20], 15	; 0000000fH

; 445  :         if (_Large_mode_engaged()) {

  0037d	76 02		 jbe	 SHORT $LN688@PackInitia

; 446  :             _Result = _Unfancy(_Bx._Ptr);

  0037f	8b 36		 mov	 esi, DWORD PTR [esi]
$LN688@PackInitia:

; 453  :         return _Myres > _Small_string_capacity;

  00381	83 bd 74 ff ff
	ff 0f		 cmp	 DWORD PTR _strTexCachePackName$[ebp+20], 15 ; 0000000fH

; 444  :         const value_type* _Result = _Bx._Buf;

  00388	8d 85 60 ff ff
	ff		 lea	 eax, DWORD PTR _strTexCachePackName$[ebp]
; File D:\_m2work\txoko-m2-work\txoko-client-src\source\UserInterface\UserInterface.cpp

; 233  : 		CEterPackManager::Instance().RegisterPack(strTexCachePackName.c_str(), c_rstFolder.c_str());

  0038e	8b 0d 00 00 00
	00		 mov	 ecx, DWORD PTR ?ms_singleton@?$CSingleton@VCEterPackManager@@@@0PAVCEterPackManager@@A ; CSingleton<CEterPackManager>::ms_singleton
; File C:\Program Files\Microsoft Visual Studio\2022\Community\VC\Tools\MSVC\14.44.35207\include\xstring

; 445  :         if (_Large_mode_engaged()) {

  00394	0f 47 85 60 ff
	ff ff		 cmova	 eax, DWORD PTR _strTexCachePackName$[ebp]
; File D:\_m2work\txoko-m2-work\txoko-client-src\source\UserInterface\UserInterface.cpp

; 233  : 		CEterPackManager::Instance().RegisterPack(strTexCachePackName.c_str(), c_rstFolder.c_str());

  0039b	6a 00		 push	 0
  0039d	56		 push	 esi
  0039e	50		 push	 eax
  0039f	e8 00 00 00 00	 call	 ?RegisterPack@CEterPackManager@@QAE_NPBD0PBE@Z ; CEterPackManager::RegisterPack
  003a4	8d 8d fc fd ff
	ff		 lea	 ecx, DWORD PTR _TextLoader$[ebp]
  003aa	83 c7 02	 add	 edi, 2
  003ad	e8 00 00 00 00	 call	 ?GetLineCount@CMemoryTextFileLoader@@QAEKXZ ; CMemoryTextFileLoader::GetLineCount
  003b2	48		 dec	 eax
  003b3	3b f8		 cmp	 edi, eax
  003b5	0f 82 95 fe ff
	ff		 jb	 $LL4@PackInitia
$LN3@PackInitia:

; 236  : 	CEterPackManager::Instance().RegisterRootPack((stFolder + std::string("root")).c_str());

  003bb	a1 00 00 00 00	 mov	 eax, DWORD PTR ?ms_singleton@?$CSingleton@VCEterPackManager@@@@0PAVCEterPackManager@@A ; CSingleton<CEterPackManager>::ms_singleton
  003c0	0f 57 c0	 xorps	 xmm0, xmm0
; File C:\Program Files\Microsoft Visual Studio\2022\Community\VC\Tools\MSVC\14.44.35207\include\xstring

; 493  :         _CONSTEXPR20 _Bxty() noexcept : _Buf() {} // user-provided, for fancy pointers

  003c3	0f 11 45 c0	 movups	 XMMWORD PTR $T6[ebp], xmm0
; File D:\_m2work\txoko-m2-work\txoko-client-src\source\UserInterface\UserInterface.cpp

; 236  : 	CEterPackManager::Instance().RegisterRootPack((stFolder + std::string("root")).c_str());

  003c7	89 85 14 fe ff
	ff		 mov	 DWORD PTR tv2546[ebp], eax
; File C:\Program Files\Microsoft Visual Studio\2022\Community\VC\Tools\MSVC\14.44.35207\include\xstring

; 890  :             _My_data._Mysize = _Count;

  003cd	c7 45 d0 04 00
	00 00		 mov	 DWORD PTR $T6[ebp+16], 4

; 891  :             _My_data._Myres  = _Small_string_capacity;

  003d4	c7 45 d4 0f 00
	00 00		 mov	 DWORD PTR $T6[ebp+20], 15 ; 0000000fH
; File C:\Program Files\Microsoft Visual Studio\2022\Community\VC\Tools\MSVC\14.44.35207\include\__msvc_string_view.hpp

; 121  :         _CSTD memcpy(_First1, _First2, _Count * sizeof(_Elem));

  003db	c7 45 c0 72 6f
	6f 74		 mov	 DWORD PTR $T6[ebp], 1953460082 ; 746f6f72H
; File C:\Program Files\Microsoft Visual Studio\2022\Community\VC\Tools\MSVC\14.44.35207\include\xstring

; 898  :                 _Traits::assign(_My_data._Bx._Buf[_Count], _Elem());

  003e2	c6 45 c4 00	 mov	 BYTE PTR $T6[ebp+4], 0
; File D:\_m2work\txoko-m2-work\txoko-client-src\source\UserInterface\UserInterface.cpp

; 236  : 	CEterPackManager::Instance().RegisterRootPack((stFolder + std::string("root")).c_str());

  003e6	c6 45 fc 06	 mov	 BYTE PTR __$EHRec$[ebp+8], 6
; File C:\Program Files\Microsoft Visual Studio\2022\Community\VC\Tools\MSVC\14.44.35207\include\xstring

; 444  :         const value_type* _Result = _Bx._Buf;

  003ea	8d 75 a8	 lea	 esi, DWORD PTR _stFolder$[ebp]

; 453  :         return _Myres > _Small_string_capacity;

  003ed	83 7d bc 0f	 cmp	 DWORD PTR _stFolder$[ebp+20], 15 ; 0000000fH

; 1738 :         const bool _Check_overlap = _Count <= _Mypair._Myval2._Myres - _Old_size && !_STD is_constant_evaluated();

  003f1	8d 4d c0	 lea	 ecx, DWORD PTR $T6[ebp]

; 1701 :         return insert(_Off, _Right._Mypair._Myval2._Myptr(), _Right._Mypair._Myval2._Mysize);

  003f4	8b 7d b8	 mov	 edi, DWORD PTR _stFolder$[ebp+16]

; 445  :         if (_Large_mode_engaged()) {

  003f7	0f 47 75 a8	 cmova	 esi, DWORD PTR _stFolder$[ebp]

; 1738 :         const bool _Check_overlap = _Count <= _Mypair._Myval2._Myres - _Old_size && !_STD is_constant_evaluated();

  003fb	83 ff 0b	 cmp	 edi, 11			; 0000000bH
  003fe	77 7d		 ja	 SHORT $LN160@PackInitia

; 1739 : #else // ^^^ _HAS_CXX20 / !_HAS_CXX20 vvv
; 1740 :         const bool _Check_overlap = _Count <= _Mypair._Myval2._Myres - _Old_size;
; 1741 : #endif // ^^^ !_HAS_CXX20 ^^^
; 1742 : 
; 1743 :         if (_Check_overlap) {
; 1744 :             _ASAN_STRING_MODIFY(*this, _Old_size, _Old_size + _Count);
; 1745 :             _Mypair._Myval2._Mysize = _Old_size + _Count;

  00400	8d 47 04	 lea	 eax, DWORD PTR [edi+4]
  00403	89 45 d0	 mov	 DWORD PTR $T6[ebp+16], eax
  00406	8d 04 37	 lea	 eax, DWORD PTR [edi+esi]

; 1746 :             _Elem* const _Old_ptr   = _Mypair._Myval2._Myptr();
; 1747 :             _Elem* const _Insert_at = _Old_ptr + _Off;
; 1748 :             // the range [_Ptr, _Ptr + _Ptr_shifted_after) is left alone by moving the suffix out,
; 1749 :             // while the range [_Ptr + _Ptr_shifted_after, _Ptr + _Count) shifts down by _Count
; 1750 :             size_type _Ptr_shifted_after;
; 1751 :             if (_Ptr + _Count <= _Insert_at || _Ptr > _Old_ptr + _Old_size) {

  00409	3b c1		 cmp	 eax, ecx
  0040b	76 26		 jbe	 SHORT $LN163@PackInitia
  0040d	8d 45 c4	 lea	 eax, DWORD PTR $T6[ebp+4]
  00410	3b f0		 cmp	 esi, eax
  00412	77 1f		 ja	 SHORT $LN163@PackInitia

; 1754 :             } else if (_Insert_at <= _Ptr) { // all of [_Ptr, _Ptr + _Count) shifts

  00414	8b c1		 mov	 eax, ecx
  00416	3b c6		 cmp	 eax, esi
  00418	77 0c		 ja	 SHORT $LN164@PackInitia

; 1755 :                 _Ptr_shifted_after = 0;

  0041a	c7 85 10 fe ff
	ff 00 00 00 00	 mov	 DWORD PTR __Ptr_shifted_after$1$[ebp], 0

; 1756 :             } else { // [_Ptr, _Ptr + _Count) contains _Insert_at, so only the part after _Insert_at shifts

  00424	eb 13		 jmp	 SHORT $LN165@PackInitia
$LN164@PackInitia:

; 1757 :                 _Ptr_shifted_after = static_cast<size_type>(_Insert_at - _Ptr);

  00426	8d 45 c0	 lea	 eax, DWORD PTR $T6[ebp]
  00429	2b c6		 sub	 eax, esi
  0042b	89 85 10 fe ff
	ff		 mov	 DWORD PTR __Ptr_shifted_after$1$[ebp], eax
  00431	eb 06		 jmp	 SHORT $LN165@PackInitia
$LN163@PackInitia:

; 1752 :                 // inserted content is before the shifted region, or does not alias
; 1753 :                 _Ptr_shifted_after = _Count; // none of _Ptr's data shifts

  00433	89 bd 10 fe ff
	ff		 mov	 DWORD PTR __Ptr_shifted_after$1$[ebp], edi
$LN165@PackInitia:
; File C:\Program Files\Microsoft Visual Studio\2022\Community\VC\Tools\MSVC\14.44.35207\include\__msvc_string_view.hpp

; 174  :         _CSTD memmove(_First1, _First2, _Count * sizeof(_Elem));

  00439	6a 05		 push	 5
  0043b	8d 4d c0	 lea	 ecx, DWORD PTR $T6[ebp]
; File C:\Program Files\Microsoft Visual Studio\2022\Community\VC\Tools\MSVC\14.44.35207\include\xstring

; 1760 :             _Traits::move(_Insert_at + _Count, _Insert_at, _Old_size - _Off + 1); // move suffix + null down

  0043e	8d 45 c0	 lea	 eax, DWORD PTR $T6[ebp]
  00441	03 c7		 add	 eax, edi
; File C:\Program Files\Microsoft Visual Studio\2022\Community\VC\Tools\MSVC\14.44.35207\include\__msvc_string_view.hpp

; 174  :         _CSTD memmove(_First1, _First2, _Count * sizeof(_Elem));

  00443	51		 push	 ecx
  00444	50		 push	 eax
  00445	e8 00 00 00 00	 call	 _memmove

; 121  :         _CSTD memcpy(_First1, _First2, _Count * sizeof(_Elem));

  0044a	ff b5 10 fe ff
	ff		 push	 DWORD PTR __Ptr_shifted_after$1$[ebp]
  00450	8d 45 c0	 lea	 eax, DWORD PTR $T6[ebp]
  00453	56		 push	 esi
  00454	50		 push	 eax
  00455	e8 00 00 00 00	 call	 _memcpy
; File C:\Program Files\Microsoft Visual Studio\2022\Community\VC\Tools\MSVC\14.44.35207\include\xstring

; 1762 :             _Traits::copy(

  0045a	8b 85 10 fe ff
	ff		 mov	 eax, DWORD PTR __Ptr_shifted_after$1$[ebp]
  00460	8b d7		 mov	 edx, edi
  00462	2b d0		 sub	 edx, eax
; File C:\Program Files\Microsoft Visual Studio\2022\Community\VC\Tools\MSVC\14.44.35207\include\__msvc_string_view.hpp

; 121  :         _CSTD memcpy(_First1, _First2, _Count * sizeof(_Elem));

  00464	52		 push	 edx
; File C:\Program Files\Microsoft Visual Studio\2022\Community\VC\Tools\MSVC\14.44.35207\include\xstring

; 1762 :             _Traits::copy(

  00465	8d 0c 38	 lea	 ecx, DWORD PTR [eax+edi]
  00468	03 ce		 add	 ecx, esi
  0046a	8d 44 05 c0	 lea	 eax, DWORD PTR $T6[ebp+eax]
; File C:\Program Files\Microsoft Visual Studio\2022\Community\VC\Tools\MSVC\14.44.35207\include\__msvc_string_view.hpp

; 121  :         _CSTD memcpy(_First1, _First2, _Count * sizeof(_Elem));

  0046e	51		 push	 ecx
  0046f	50		 push	 eax
  00470	e8 00 00 00 00	 call	 _memcpy
  00475	83 c4 24	 add	 esp, 36			; 00000024H
; File C:\Program Files\Microsoft Visual Studio\2022\Community\VC\Tools\MSVC\14.44.35207\include\xstring

; 1764 :             return *this;

  00478	8d 45 c0	 lea	 eax, DWORD PTR $T6[ebp]
  0047b	eb 10		 jmp	 SHORT $LN159@PackInitia
$LN160@PackInitia:

; 1765 :         }
; 1766 : 
; 1767 :         return _Reallocate_grow_by(

  0047d	57		 push	 edi
  0047e	56		 push	 esi
  0047f	6a 00		 push	 0
  00481	ff b5 14 fe ff
	ff		 push	 DWORD PTR $T4[ebp]
  00487	57		 push	 edi
  00488	e8 00 00 00 00	 call	 ??$_Reallocate_grow_by@V<lambda_1>@?1??insert@?$basic_string@DU?$char_traits@D@std@@V?$allocator@D@2@@std@@QAEAAV34@IQBDI@Z@IPBDI@?$basic_string@DU?$char_traits@D@std@@V?$allocator@D@2@@std@@AAEAAV01@IV<lambda_1>@?1??insert@01@QAEAAV01@IQBDI@Z@IPBDI@Z ; std::basic_string<char,std::char_traits<char>,std::allocator<char> >::_Reallocate_grow_by<`std::basic_string<char,std::char_traits<char>,std::allocator<char> >::insert'::`2'::<lambda_1>,unsigned int,char const *,unsigned int>
$LN159@PackInitia:

; 517  :     size_type _Mysize = 0; // current length of string (size)

  0048d	c7 45 e8 00 00
	00 00		 mov	 DWORD PTR $T9[ebp+16], 0
  00494	0f 57 c0	 xorps	 xmm0, xmm0

; 493  :         _CONSTEXPR20 _Bxty() noexcept : _Buf() {} // user-provided, for fancy pointers

  00497	0f 11 45 d8	 movups	 XMMWORD PTR $T9[ebp], xmm0

; 518  :     size_type _Myres  = 0; // current storage reserved for string (capacity)

  0049b	c7 45 ec 00 00
	00 00		 mov	 DWORD PTR $T9[ebp+20], 0

; 1286 :                 _CSTD memcpy(_My_data_mem, _Right_data_mem, _Memcpy_val_size);

  004a2	0f 10 00	 movups	 xmm0, XMMWORD PTR [eax]
  004a5	0f 11 45 d8	 movups	 XMMWORD PTR $T9[ebp], xmm0
  004a9	f3 0f 7e 40 10	 movq	 xmm0, QWORD PTR [eax+16]
  004ae	66 0f d6 45 e8	 movq	 QWORD PTR $T9[ebp+16], xmm0

; 3209 :     return _STD move(_Right.insert(0, _Left));

  004b3	c7 40 10 00 00
	00 00		 mov	 DWORD PTR [eax+16], 0
  004ba	c7 40 14 0f 00
	00 00		 mov	 DWORD PTR [eax+20], 15	; 0000000fH
  004c1	c6 00 00	 mov	 BYTE PTR [eax], 0
; File D:\_m2work\txoko-m2-work\txoko-client-src\source\UserInterface\UserInterface.cpp

; 236  : 	CEterPackManager::Instance().RegisterRootPack((stFolder + std::string("root")).c_str());

  004c4	8b 8d 14 fe ff
	ff		 mov	 ecx, DWORD PTR tv2546[ebp]
; File C:\Program Files\Microsoft Visual Studio\2022\Community\VC\Tools\MSVC\14.44.35207\include\xstring

; 444  :         const value_type* _Result = _Bx._Buf;

  004ca	8d 45 d8	 lea	 eax, DWORD PTR $T9[ebp]
; File D:\_m2work\txoko-m2-work\txoko-client-src\source\UserInterface\UserInterface.cpp

; 236  : 	CEterPackManager::Instance().RegisterRootPack((stFolder + std::string("root")).c_str());

  004cd	c6 45 fc 07	 mov	 BYTE PTR __$EHRec$[ebp+8], 7
; File C:\Program Files\Microsoft Visual Studio\2022\Community\VC\Tools\MSVC\14.44.35207\include\xstring

; 453  :         return _Myres > _Small_string_capacity;

  004d1	83 7d ec 0f	 cmp	 DWORD PTR $T9[ebp+20], 15 ; 0000000fH

; 445  :         if (_Large_mode_engaged()) {

  004d5	0f 47 45 d8	 cmova	 eax, DWORD PTR $T9[ebp]
; File D:\_m2work\txoko-m2-work\txoko-client-src\source\UserInterface\UserInterface.cpp

; 236  : 	CEterPackManager::Instance().RegisterRootPack((stFolder + std::string("root")).c_str());

  004d9	50		 push	 eax
  004da	e8 00 00 00 00	 call	 ?RegisterRootPack@CEterPackManager@@QAEXPBD@Z ; CEterPackManager::RegisterRootPack
; File C:\Program Files\Microsoft Visual Studio\2022\Community\VC\Tools\MSVC\14.44.35207\include\xstring

; 453  :         return _Myres > _Small_string_capacity;

  004df	8b 4d ec	 mov	 ecx, DWORD PTR $T9[ebp+20]
  004e2	83 f9 0f	 cmp	 ecx, 15			; 0000000fH

; 3083 :         if (_My_data._Large_mode_engaged()) {

  004e5	76 2c		 jbe	 SHORT $LN274@PackInitia
; File C:\Program Files\Microsoft Visual Studio\2022\Community\VC\Tools\MSVC\14.44.35207\include\xmemory

; 985  :         _STD _Deallocate<_New_alignof<_Ty>>(_Ptr, sizeof(_Ty) * _Count);

  004e7	8b 55 d8	 mov	 edx, DWORD PTR $T9[ebp]
; File C:\Program Files\Microsoft Visual Studio\2022\Community\VC\Tools\MSVC\14.44.35207\include\xstring

; 852  :         _Al.deallocate(_Old_ptr, _Capacity + 1); // +1 for null terminator

  004ea	41		 inc	 ecx
; File C:\Program Files\Microsoft Visual Studio\2022\Community\VC\Tools\MSVC\14.44.35207\include\xmemory

; 985  :         _STD _Deallocate<_New_alignof<_Ty>>(_Ptr, sizeof(_Ty) * _Count);

  004eb	8b c2		 mov	 eax, edx

; 284  :         if (_Bytes >= _Big_allocation_threshold) {

  004ed	81 f9 00 10 00
	00		 cmp	 ecx, 4096		; 00001000H
  004f3	72 14		 jb	 SHORT $LN282@PackInitia

; 205  :     const uintptr_t _Ptr_container   = _Ptr_user[-1];

  004f5	8b 50 fc	 mov	 edx, DWORD PTR [eax-4]
  004f8	83 c1 23	 add	 ecx, 35			; 00000023H
  004fb	2b c2		 sub	 eax, edx

; 219  :     _STL_VERIFY(_Back_shift >= _Min_back_shift && _Back_shift <= _Non_user_size, "invalid argument");

  004fd	83 c0 fc	 add	 eax, -4			; fffffffcH
  00500	83 f8 1f	 cmp	 eax, 31			; 0000001fH
  00503	0f 87 bb 00 00
	00		 ja	 $LN313@PackInitia
$LN282@PackInitia:

; 289  :         ::operator delete(_Ptr, _Bytes);

  00509	51		 push	 ecx
  0050a	52		 push	 edx
  0050b	e8 00 00 00 00	 call	 ??3@YAXPAXI@Z		; operator delete
  00510	83 c4 08	 add	 esp, 8
$LN274@PackInitia:
; File C:\Program Files\Microsoft Visual Studio\2022\Community\VC\Tools\MSVC\14.44.35207\include\xstring

; 453  :         return _Myres > _Small_string_capacity;

  00513	8b 4d d4	 mov	 ecx, DWORD PTR $T6[ebp+20]

; 3090 :         _My_data._Mysize = 0;

  00516	c7 45 e8 00 00
	00 00		 mov	 DWORD PTR $T9[ebp+16], 0

; 3091 :         _My_data._Myres  = _Small_string_capacity;

  0051d	c7 45 ec 0f 00
	00 00		 mov	 DWORD PTR $T9[ebp+20], 15 ; 0000000fH

; 3092 :         // the _Traits::assign is last so the codegen doesn't think the char write can alias this
; 3093 :         _Traits::assign(_My_data._Bx._Buf[0], _Elem());

  00524	c6 45 d8 00	 mov	 BYTE PTR $T9[ebp], 0

; 453  :         return _Myres > _Small_string_capacity;

  00528	83 f9 0f	 cmp	 ecx, 15			; 0000000fH

; 3083 :         if (_My_data._Large_mode_engaged()) {

  0052b	76 28		 jbe	 SHORT $LN306@PackInitia
; File C:\Program Files\Microsoft Visual Studio\2022\Community\VC\Tools\MSVC\14.44.35207\include\xmemory

; 985  :         _STD _Deallocate<_New_alignof<_Ty>>(_Ptr, sizeof(_Ty) * _Count);

  0052d	8b 55 c0	 mov	 edx, DWORD PTR $T6[ebp]
; File C:\Program Files\Microsoft Visual Studio\2022\Community\VC\Tools\MSVC\14.44.35207\include\xstring

; 852  :         _Al.deallocate(_Old_ptr, _Capacity + 1); // +1 for null terminator

  00530	41		 inc	 ecx
; File C:\Program Files\Microsoft Visual Studio\2022\Community\VC\Tools\MSVC\14.44.35207\include\xmemory

; 985  :         _STD _Deallocate<_New_alignof<_Ty>>(_Ptr, sizeof(_Ty) * _Count);

  00531	8b c2		 mov	 eax, edx

; 284  :         if (_Bytes >= _Big_allocation_threshold) {

  00533	81 f9 00 10 00
	00		 cmp	 ecx, 4096		; 00001000H
  00539	72 10		 jb	 SHORT $LN314@PackInitia

; 205  :     const uintptr_t _Ptr_container   = _Ptr_user[-1];

  0053b	8b 50 fc	 mov	 edx, DWORD PTR [eax-4]
  0053e	83 c1 23	 add	 ecx, 35			; 00000023H
  00541	2b c2		 sub	 eax, edx

; 219  :     _STL_VERIFY(_Back_shift >= _Min_back_shift && _Back_shift <= _Non_user_size, "invalid argument");

  00543	83 c0 fc	 add	 eax, -4			; fffffffcH
  00546	83 f8 1f	 cmp	 eax, 31			; 0000001fH
  00549	77 79		 ja	 SHORT $LN313@PackInitia
$LN314@PackInitia:

; 289  :         ::operator delete(_Ptr, _Bytes);

  0054b	51		 push	 ecx
  0054c	52		 push	 edx
  0054d	e8 00 00 00 00	 call	 ??3@YAXPAXI@Z		; operator delete
  00552	83 c4 08	 add	 esp, 8
$LN306@PackInitia:
; File D:\_m2work\txoko-m2-work\txoko-client-src\source\UserInterface\UserInterface.cpp

; 237  : 	NANOEND

  00555	eb		 DB	 -21			; ffffffebH
  00556	03		 DB	 3
  00557	d6		 DB	 -42			; ffffffd6H
  00558	d7		 DB	 -41			; ffffffd7H
  00559	00		 DB	 0
; File C:\Program Files\Microsoft Visual Studio\2022\Community\VC\Tools\MSVC\14.44.35207\include\xstring

; 1383 :         _Tidy_deallocate();

  0055a	8d 8d 60 ff ff
	ff		 lea	 ecx, DWORD PTR _strTexCachePackName$[ebp]
; File D:\_m2work\txoko-m2-work\txoko-client-src\source\UserInterface\UserInterface.cpp

; 237  : 	NANOEND

  00560	c6 85 1b fe ff
	ff 01		 mov	 BYTE PTR $T5[ebp], 1
; File C:\Program Files\Microsoft Visual Studio\2022\Community\VC\Tools\MSVC\14.44.35207\include\xstring

; 1383 :         _Tidy_deallocate();

  00567	e8 00 00 00 00	 call	 ?_Tidy_deallocate@?$basic_string@DU?$char_traits@D@std@@V?$allocator@D@2@@std@@AAEXXZ ; std::basic_string<char,std::char_traits<char>,std::allocator<char> >::_Tidy_deallocate
  0056c	8d 4d 90	 lea	 ecx, DWORD PTR _strPackName$[ebp]
  0056f	e8 00 00 00 00	 call	 ?_Tidy_deallocate@?$basic_string@DU?$char_traits@D@std@@V?$allocator@D@2@@std@@AAEXXZ ; std::basic_string<char,std::char_traits<char>,std::allocator<char> >::_Tidy_deallocate
$LN326@PackInitia:
; File D:\_m2work\txoko-m2-work\txoko-client-src\source\UserInterface\UserInterface.cpp

; 237  : 	NANOEND

  00574	8d 8d fc fd ff
	ff		 lea	 ecx, DWORD PTR _TextLoader$[ebp]
  0057a	e8 00 00 00 00	 call	 ??1CMemoryTextFileLoader@@UAE@XZ ; CMemoryTextFileLoader::~CMemoryTextFileLoader
$LN19@PackInitia:
  0057f	8d 8d 1c fe ff
	ff		 lea	 ecx, DWORD PTR _file$[ebp]
  00585	e8 00 00 00 00	 call	 ??1CMappedFile@@UAE@XZ	; CMappedFile::~CMappedFile
; File C:\Program Files\Microsoft Visual Studio\2022\Community\VC\Tools\MSVC\14.44.35207\include\xstring

; 1383 :         _Tidy_deallocate();

  0058a	8d 8d 78 ff ff
	ff		 lea	 ecx, DWORD PTR _stFileName$[ebp]
  00590	e8 00 00 00 00	 call	 ?_Tidy_deallocate@?$basic_string@DU?$char_traits@D@std@@V?$allocator@D@2@@std@@AAEXXZ ; std::basic_string<char,std::char_traits<char>,std::allocator<char> >::_Tidy_deallocate
  00595	8d 4d a8	 lea	 ecx, DWORD PTR _stFolder$[ebp]
  00598	e8 00 00 00 00	 call	 ?_Tidy_deallocate@?$basic_string@DU?$char_traits@D@std@@V?$allocator@D@2@@std@@AAEXXZ ; std::basic_string<char,std::char_traits<char>,std::allocator<char> >::_Tidy_deallocate
; File D:\_m2work\txoko-m2-work\txoko-client-src\source\UserInterface\UserInterface.cpp

; 237  : 	NANOEND

  0059d	8a 85 1b fe ff
	ff		 mov	 al, BYTE PTR $T5[ebp]
$LN1@PackInitia:

; 239  : }

  005a3	8b 4d f4	 mov	 ecx, DWORD PTR __$EHRec$[ebp]
  005a6	64 89 0d 00 00
	00 00		 mov	 DWORD PTR fs:0, ecx
  005ad	59		 pop	 ecx
  005ae	5f		 pop	 edi
  005af	5e		 pop	 esi
  005b0	5b		 pop	 ebx
  005b1	8b 4d f0	 mov	 ecx, DWORD PTR __$ArrayPad$[ebp]
  005b4	33 cd		 xor	 ecx, ebp
  005b6	e8 00 00 00 00	 call	 @__security_check_cookie@4
  005bb	8b e5		 mov	 esp, ebp
  005bd	5d		 pop	 ebp
  005be	c3		 ret	 0
$LN616@PackInitia:
; File C:\Program Files\Microsoft Visual Studio\2022\Community\VC\Tools\MSVC\14.44.35207\include\xstring

; 3152 :         _Xlen_string();

  005bf	e8 00 00 00 00	 call	 ?_Xlen_string@std@@YAXXZ ; std::_Xlen_string
$LN313@PackInitia:
; File C:\Program Files\Microsoft Visual Studio\2022\Community\VC\Tools\MSVC\14.44.35207\include\xmemory

; 219  :     _STL_VERIFY(_Back_shift >= _Min_back_shift && _Back_shift <= _Non_user_size, "invalid argument");

  005c4	6a 00		 push	 0
  005c6	6a 00		 push	 0
  005c8	6a 00		 push	 0
  005ca	6a 00		 push	 0
  005cc	6a 00		 push	 0
  005ce	e8 00 00 00 00	 call	 __invoke_watson
$LN691@PackInitia:
  005d3	cc		 int	 3
_TEXT	ENDS
;	COMDAT text$x
text$x	SEGMENT
__unwindfunclet$?PackInitialize@@YA_NPBD@Z$0:
  00000	8d 4d a8	 lea	 ecx, DWORD PTR _stFolder$[ebp]
  00003	e9 00 00 00 00	 jmp	 ??1?$basic_string@DU?$char_traits@D@std@@V?$allocator@D@2@@std@@QAE@XZ ; std::basic_string<char,std::char_traits<char>,std::allocator<char> >::~basic_string<char,std::char_traits<char>,std::allocator<char> >
__unwindfunclet$?PackInitialize@@YA_NPBD@Z$1:
  00008	8d 8d 78 ff ff
	ff		 lea	 ecx, DWORD PTR _stFileName$[ebp]
  0000e	e9 00 00 00 00	 jmp	 ??1?$basic_string@DU?$char_traits@D@std@@V?$allocator@D@2@@std@@QAE@XZ ; std::basic_string<char,std::char_traits<char>,std::allocator<char> >::~basic_string<char,std::char_traits<char>,std::allocator<char> >
__unwindfunclet$?PackInitialize@@YA_NPBD@Z$2:
  00013	8d 8d 1c fe ff
	ff		 lea	 ecx, DWORD PTR _file$[ebp]
  00019	e9 00 00 00 00	 jmp	 ??1CMappedFile@@UAE@XZ	; CMappedFile::~CMappedFile
__unwindfunclet$?PackInitialize@@YA_NPBD@Z$3:
  0001e	8d 8d fc fd ff
	ff		 lea	 ecx, DWORD PTR _TextLoader$[ebp]
  00024	e9 00 00 00 00	 jmp	 ??1CMemoryTextFileLoader@@UAE@XZ ; CMemoryTextFileLoader::~CMemoryTextFileLoader
__unwindfunclet$?PackInitialize@@YA_NPBD@Z$4:
  00029	8d 4d 90	 lea	 ecx, DWORD PTR _strPackName$[ebp]
  0002c	e9 00 00 00 00	 jmp	 ??1?$basic_string@DU?$char_traits@D@std@@V?$allocator@D@2@@std@@QAE@XZ ; std::basic_string<char,std::char_traits<char>,std::allocator<char> >::~basic_string<char,std::char_traits<char>,std::allocator<char> >
__unwindfunclet$?PackInitialize@@YA_NPBD@Z$5:
  00031	8d 8d 60 ff ff
	ff		 lea	 ecx, DWORD PTR _strTexCachePackName$[ebp]
  00037	e9 00 00 00 00	 jmp	 ??1?$basic_string@DU?$char_traits@D@std@@V?$allocator@D@2@@std@@QAE@XZ ; std::basic_string<char,std::char_traits<char>,std::allocator<char> >::~basic_string<char,std::char_traits<char>,std::allocator<char> >
__unwindfunclet$?PackInitialize@@YA_NPBD@Z$8:
  0003c	8d 4d c0	 lea	 ecx, DWORD PTR $T6[ebp]
  0003f	e9 00 00 00 00	 jmp	 ??1?$basic_string@DU?$char_traits@D@std@@V?$allocator@D@2@@std@@QAE@XZ ; std::basic_string<char,std::char_traits<char>,std::allocator<char> >::~basic_string<char,std::char_traits<char>,std::allocator<char> >
__unwindfunclet$?PackInitialize@@YA_NPBD@Z$9:
  00044	8d 4d d8	 lea	 ecx, DWORD PTR $T9[ebp]
  00047	e9 00 00 00 00	 jmp	 ??1?$basic_string@DU?$char_traits@D@std@@V?$allocator@D@2@@std@@QAE@XZ ; std::basic_string<char,std::char_traits<char>,std::allocator<char> >::~basic_string<char,std::char_traits<char>,std::allocator<char> >
  0004c	cc		 int	 3
  0004d	cc		 int	 3
  0004e	cc		 int	 3
  0004f	cc		 int	 3
  00050	cc		 int	 3
__ehhandler$?PackInitialize@@YA_NPBD@Z:
  00051	90		 npad	 1
  00052	90		 npad	 1
  00053	8b 54 24 08	 mov	 edx, DWORD PTR [esp+8]
  00057	8d 42 0c	 lea	 eax, DWORD PTR [edx+12]
  0005a	8b 8a f8 fd ff
	ff		 mov	 ecx, DWORD PTR [edx-520]
  00060	33 c8		 xor	 ecx, eax
  00062	e8 00 00 00 00	 call	 @__security_check_cookie@4
  00067	8b 4a fc	 mov	 ecx, DWORD PTR [edx-4]
  0006a	33 c8		 xor	 ecx, eax
  0006c	e8 00 00 00 00	 call	 @__security_check_cookie@4
  00071	b8 00 00 00 00	 mov	 eax, OFFSET __ehfuncinfo$?PackInitialize@@YA_NPBD@Z
  00076	e9 00 00 00 00	 jmp	 ___CxxFrameHandler3
text$x	ENDS
?PackInitialize@@YA_NPBD@Z ENDP				; PackInitialize
; Function compile flags: /Ogtp
; File D:\_m2work\txoko-m2-work\txoko-client-src\source\UserInterface\UserInterface.cpp
; File C:\Program Files\Microsoft Visual Studio\2022\Community\VC\Tools\MSVC\14.44.35207\include\xstring
; File D:\_m2work\txoko-m2-work\txoko-client-src\source\UserInterface\UserInterface.cpp
; File C:\Program Files\Microsoft Visual Studio\2022\Community\VC\Tools\MSVC\14.44.35207\include\__msvc_string_view.hpp
; File C:\Program Files\Microsoft Visual Studio\2022\Community\VC\Tools\MSVC\14.44.35207\include\xstring
; File D:\_m2work\txoko-m2-work\txoko-client-src\source\UserInterface\UserInterface.cpp
; File C:\Program Files\Microsoft Visual Studio\2022\Community\VC\Tools\MSVC\14.44.35207\include\xstring
; File C:\Program Files\Microsoft Visual Studio\2022\Community\VC\Tools\MSVC\14.44.35207\include\__msvc_string_view.hpp
; File C:\Program Files\Microsoft Visual Studio\2022\Community\VC\Tools\MSVC\14.44.35207\include\xstring
; File D:\_m2work\txoko-m2-work\txoko-client-src\source\UserInterface\UserInterface.cpp
; File C:\Program Files\Microsoft Visual Studio\2022\Community\VC\Tools\MSVC\14.44.35207\include\xstring
; File D:\_m2work\txoko-m2-work\txoko-client-src\source\UserInterface\UserInterface.cpp
; File C:\Program Files\Microsoft Visual Studio\2022\Community\VC\Tools\MSVC\14.44.35207\include\xstring
; File C:\Program Files\Microsoft Visual Studio\2022\Community\VC\Tools\MSVC\14.44.35207\include\xmemory
; File C:\Program Files\Microsoft Visual Studio\2022\Community\VC\Tools\MSVC\14.44.35207\include\xstring
; File C:\Program Files\Microsoft Visual Studio\2022\Community\VC\Tools\MSVC\14.44.35207\include\xmemory
; File D:\_m2work\txoko-m2-work\txoko-client-src\source\UserInterface\UserInterface.cpp
; File C:\Program Files\Microsoft Visual Studio\2022\Community\VC\Tools\MSVC\14.44.35207\include\xstring
; File C:\Program Files\Microsoft Visual Studio\2022\Community\VC\Tools\MSVC\14.44.35207\include\xmemory
; File C:\Program Files\Microsoft Visual Studio\2022\Community\VC\Tools\MSVC\14.44.35207\include\xstring
; File C:\Program Files\Microsoft Visual Studio\2022\Community\VC\Tools\MSVC\14.44.35207\include\xmemory
; File C:\Program Files\Microsoft Visual Studio\2022\Community\VC\Tools\MSVC\14.44.35207\include\xstring
; File D:\_m2work\txoko-m2-work\txoko-client-src\source\UserInterface\UserInterface.cpp
; File C:\Program Files\Microsoft Visual Studio\2022\Community\VC\Tools\MSVC\14.44.35207\include\xstring
; File C:\Program Files\Microsoft Visual Studio\2022\Community\VC\Tools\MSVC\14.44.35207\include\vector
; File D:\_m2work\txoko-m2-work\txoko-client-src\source\UserInterface\UserInterface.cpp
; File C:\Program Files\Microsoft Visual Studio\2022\Community\VC\Tools\MSVC\14.44.35207\include\vector
; File D:\_m2work\txoko-m2-work\txoko-client-src\source\UserInterface\UserInterface.cpp
; File C:\Program Files\Microsoft Visual Studio\2022\Community\VC\Tools\MSVC\14.44.35207\include\vector
; File D:\_m2work\txoko-m2-work\txoko-client-src\source\UserInterface\UserInterface.cpp
; File C:\Program Files\Microsoft Visual Studio\2022\Community\VC\Tools\MSVC\14.44.35207\include\vector
; File C:\Program Files\Microsoft Visual Studio\2022\Community\VC\Tools\MSVC\14.44.35207\include\xstring
; File D:\_m2work\txoko-m2-work\txoko-client-src\source\UserInterface\UserInterface.cpp
; File C:\Program Files\Microsoft Visual Studio\2022\Community\VC\Tools\MSVC\14.44.35207\include\__msvc_string_view.hpp
; File D:\_m2work\txoko-m2-work\txoko-client-src\source\UserInterface\UserInterface.cpp
; File C:\Program Files\Microsoft Visual Studio\2022\Community\VC\Tools\MSVC\14.44.35207\include\__msvc_string_view.hpp
; File C:\Program Files\Microsoft Visual Studio\2022\Community\VC\Tools\MSVC\14.44.35207\include\xstring
; File C:\Program Files\Microsoft Visual Studio\2022\Community\VC\Tools\MSVC\14.44.35207\include\vector
; File C:\Program Files\Microsoft Visual Studio\2022\Community\VC\Tools\MSVC\14.44.35207\include\xstring
; File C:\Program Files\Microsoft Visual Studio\2022\Community\VC\Tools\MSVC\14.44.35207\include\vector
; File C:\Program Files\Microsoft Visual Studio\2022\Community\VC\Tools\MSVC\14.44.35207\include\xstring
; File C:\Program Files\Microsoft Visual Studio\2022\Community\VC\Tools\MSVC\14.44.35207\include\__msvc_string_view.hpp
; File C:\Program Files\Microsoft Visual Studio\2022\Community\VC\Tools\MSVC\14.44.35207\include\xstring
; File C:\Program Files\Microsoft Visual Studio\2022\Community\VC\Tools\MSVC\14.44.35207\include\__msvc_string_view.hpp
; File C:\Program Files\Microsoft Visual Studio\2022\Community\VC\Tools\MSVC\14.44.35207\include\xstring
; File D:\_m2work\txoko-m2-work\txoko-client-src\source\UserInterface\UserInterface.cpp
; File C:\Program Files\Microsoft Visual Studio\2022\Community\VC\Tools\MSVC\14.44.35207\include\xstring
; File D:\_m2work\txoko-m2-work\txoko-client-src\source\UserInterface\UserInterface.cpp
; File C:\Program Files\Microsoft Visual Studio\2022\Community\VC\Tools\MSVC\14.44.35207\include\xstring
; File C:\Program Files\Microsoft Visual Studio\2022\Community\VC\Tools\MSVC\14.44.35207\include\__msvc_string_view.hpp
; File D:\_m2work\txoko-m2-work\txoko-client-src\source\UserInterface\UserInterface.cpp
; File C:\Program Files\Microsoft Visual Studio\2022\Community\VC\Tools\MSVC\14.44.35207\include\xstring
; File D:\_m2work\txoko-m2-work\txoko-client-src\source\UserInterface\UserInterface.cpp
; File C:\Program Files\Microsoft Visual Studio\2022\Community\VC\Tools\MSVC\14.44.35207\include\__msvc_string_view.hpp
; File C:\Program Files\Microsoft Visual Studio\2022\Community\VC\Tools\MSVC\14.44.35207\include\xstring
; File C:\Program Files\Microsoft Visual Studio\2022\Community\VC\Tools\MSVC\14.44.35207\include\__msvc_string_view.hpp
; File C:\Program Files\Microsoft Visual Studio\2022\Community\VC\Tools\MSVC\14.44.35207\include\xstring
; File C:\Program Files\Microsoft Visual Studio\2022\Community\VC\Tools\MSVC\14.44.35207\include\__msvc_string_view.hpp
; File C:\Program Files\Microsoft Visual Studio\2022\Community\VC\Tools\MSVC\14.44.35207\include\xstring
; File C:\Program Files\Microsoft Visual Studio\2022\Community\VC\Tools\MSVC\14.44.35207\include\xmemory
; File C:\Program Files\Microsoft Visual Studio\2022\Community\VC\Tools\MSVC\14.44.35207\include\xstring
; File C:\Program Files\Microsoft Visual Studio\2022\Community\VC\Tools\MSVC\14.44.35207\include\__msvc_string_view.hpp
; File C:\Program Files\Microsoft Visual Studio\2022\Community\VC\Tools\MSVC\14.44.35207\include\xstring
; File C:\Program Files\Microsoft Visual Studio\2022\Community\VC\Tools\MSVC\14.44.35207\include\xmemory
; File C:\Program Files\Microsoft Visual Studio\2022\Community\VC\Tools\MSVC\14.44.35207\include\xstring
; File C:\Program Files\Microsoft Visual Studio\2022\Community\VC\Tools\MSVC\14.44.35207\include\xmemory
; File C:\Program Files\Microsoft Visual Studio\2022\Community\VC\Tools\MSVC\14.44.35207\include\xstring
; File C:\Program Files\Microsoft Visual Studio\2022\Community\VC\Tools\MSVC\14.44.35207\include\xmemory
; File C:\Program Files\Microsoft Visual Studio\2022\Community\VC\Tools\MSVC\14.44.35207\include\xstring
; File C:\Program Files\Microsoft Visual Studio\2022\Community\VC\Tools\MSVC\14.44.35207\include\__msvc_string_view.hpp
; File C:\Program Files\Microsoft Visual Studio\2022\Community\VC\Tools\MSVC\14.44.35207\include\xstring
; File C:\Program Files\Microsoft Visual Studio\2022\Community\VC\Tools\MSVC\14.44.35207\include\__msvc_string_view.hpp
; File C:\Program Files\Microsoft Visual Studio\2022\Community\VC\Tools\MSVC\14.44.35207\include\xstring
; File C:\Program Files\Microsoft Visual Studio\2022\Community\VC\Tools\MSVC\14.44.35207\include\xmemory
; File C:\Program Files\Microsoft Visual Studio\2022\Community\VC\Tools\MSVC\14.44.35207\include\xstring
; File C:\Program Files\Microsoft Visual Studio\2022\Community\VC\Tools\MSVC\14.44.35207\include\__msvc_string_view.hpp
; File C:\Program Files\Microsoft Visual Studio\2022\Community\VC\Tools\MSVC\14.44.35207\include\xstring
; File D:\_m2work\txoko-m2-work\txoko-client-src\source\UserInterface\UserInterface.cpp
; File C:\Program Files\Microsoft Visual Studio\2022\Community\VC\Tools\MSVC\14.44.35207\include\xstring
; File D:\_m2work\txoko-m2-work\txoko-client-src\source\UserInterface\UserInterface.cpp
; File C:\Program Files\Microsoft Visual Studio\2022\Community\VC\Tools\MSVC\14.44.35207\include\xstring
; File D:\_m2work\txoko-m2-work\txoko-client-src\source\UserInterface\UserInterface.cpp
; File C:\Program Files\Microsoft Visual Studio\2022\Community\VC\Tools\MSVC\14.44.35207\include\vector
; File D:\_m2work\txoko-m2-work\txoko-client-src\source\UserInterface\UserInterface.cpp
; File C:\Program Files\Microsoft Visual Studio\2022\Community\VC\Tools\MSVC\14.44.35207\include\vector
; File C:\Program Files\Microsoft Visual Studio\2022\Community\VC\Tools\MSVC\14.44.35207\include\xmemory
; File C:\Program Files\Microsoft Visual Studio\2022\Community\VC\Tools\MSVC\14.44.35207\include\xstring
; File C:\Program Files\Microsoft Visual Studio\2022\Community\VC\Tools\MSVC\14.44.35207\include\xmemory
; File C:\Program Files\Microsoft Visual Studio\2022\Community\VC\Tools\MSVC\14.44.35207\include\vector
; File C:\Program Files\Microsoft Visual Studio\2022\Community\VC\Tools\MSVC\14.44.35207\include\xmemory
; File C:\Program Files\Microsoft Visual Studio\2022\Community\VC\Tools\MSVC\14.44.35207\include\vector
; File C:\Program Files\Microsoft Visual Studio\2022\Community\VC\Tools\MSVC\14.44.35207\include\xstring
; File C:\Program Files\Microsoft Visual Studio\2022\Community\VC\Tools\MSVC\14.44.35207\include\xmemory
; File C:\Program Files\Microsoft Visual Studio\2022\Community\VC\Tools\MSVC\14.44.35207\include\xstring
; File C:\Program Files\Microsoft Visual Studio\2022\Community\VC\Tools\MSVC\14.44.35207\include\xmemory
; File C:\Program Files\Microsoft Visual Studio\2022\Community\VC\Tools\MSVC\14.44.35207\include\xstring
; File C:\Program Files\Microsoft Visual Studio\2022\Community\VC\Tools\MSVC\14.44.35207\include\xmemory
; File C:\Program Files\Microsoft Visual Studio\2022\Community\VC\Tools\MSVC\14.44.35207\include\xstring
; File C:\Program Files\Microsoft Visual Studio\2022\Community\VC\Tools\MSVC\14.44.35207\include\xmemory
; File D:\_m2work\txoko-m2-work\txoko-client-src\source\UserInterface\UserInterface.cpp
; File C:\Program Files\Microsoft Visual Studio\2022\Community\VC\Tools\MSVC\14.44.35207\include\vector
; File C:\Program Files\Microsoft Visual Studio\2022\Community\VC\Tools\MSVC\14.44.35207\include\xmemory
; File C:\Program Files\Microsoft Visual Studio\2022\Community\VC\Tools\MSVC\14.44.35207\include\xstring
; File C:\Program Files\Microsoft Visual Studio\2022\Community\VC\Tools\MSVC\14.44.35207\include\xmemory
; File C:\Program Files\Microsoft Visual Studio\2022\Community\VC\Tools\MSVC\14.44.35207\include\vector
; File C:\Program Files\Microsoft Visual Studio\2022\Community\VC\Tools\MSVC\14.44.35207\include\xmemory
; File C:\Program Files\Microsoft Visual Studio\2022\Community\VC\Tools\MSVC\14.44.35207\include\vector
; File D:\_m2work\txoko-m2-work\txoko-client-src\source\UserInterface\UserInterface.cpp
; File C:\Program Files\Microsoft Visual Studio\2022\Community\VC\Tools\MSVC\14.44.35207\include\xstring
; File C:\Program Files\Microsoft Visual Studio\2022\Community\VC\Tools\MSVC\14.44.35207\include\xmemory
; File C:\Program Files\Microsoft Visual Studio\2022\Community\VC\Tools\MSVC\14.44.35207\include\xstring
; File C:\Program Files\Microsoft Visual Studio\2022\Community\VC\Tools\MSVC\14.44.35207\include\xmemory
; File D:\_m2work\txoko-m2-work\txoko-client-src\source\UserInterface\UserInterface.cpp
; File C:\Program Files\Microsoft Visual Studio\2022\Community\VC\Tools\MSVC\14.44.35207\include\xstring
; File C:\Program Files\Microsoft Visual Studio\2022\Community\VC\Tools\MSVC\14.44.35207\include\xmemory
; File C:\Program Files\Microsoft Visual Studio\2022\Community\VC\Tools\MSVC\14.44.35207\include\xstring
; File C:\Program Files\Microsoft Visual Studio\2022\Community\VC\Tools\MSVC\14.44.35207\include\xmemory
; File C:\Program Files\Microsoft Visual Studio\2022\Community\VC\Tools\MSVC\14.44.35207\include\vector
; File D:\_m2work\txoko-m2-work\txoko-client-src\source\UserInterface\UserInterface.cpp
; File C:\Program Files\Microsoft Visual Studio\2022\Community\VC\Tools\MSVC\14.44.35207\include\vector
; File D:\_m2work\txoko-m2-work\txoko-client-src\source\UserInterface\UserInterface.cpp
; File C:\Program Files\Microsoft Visual Studio\2022\Community\VC\Tools\MSVC\14.44.35207\include\vector
; File D:\_m2work\txoko-m2-work\txoko-client-src\source\UserInterface\UserInterface.cpp
; File C:\Program Files\Microsoft Visual Studio\2022\Community\VC\Tools\MSVC\14.44.35207\include\vector
; File D:\_m2work\txoko-m2-work\txoko-client-src\source\UserInterface\UserInterface.cpp
; File C:\Program Files\Microsoft Visual Studio\2022\Community\VC\Tools\MSVC\14.44.35207\include\vector
; File C:\Program Files\Microsoft Visual Studio\2022\Community\VC\Tools\MSVC\14.44.35207\include\xmemory
; File C:\Program Files\Microsoft Visual Studio\2022\Community\VC\Tools\MSVC\14.44.35207\include\xstring
; File C:\Program Files\Microsoft Visual Studio\2022\Community\VC\Tools\MSVC\14.44.35207\include\xmemory
; File C:\Program Files\Microsoft Visual Studio\2022\Community\VC\Tools\MSVC\14.44.35207\include\vector
; File C:\Program Files\Microsoft Visual Studio\2022\Community\VC\Tools\MSVC\14.44.35207\include\xmemory
; File D:\_m2work\txoko-m2-work\txoko-client-src\source\UserInterface\UserInterface.cpp
; File C:\Program Files\Microsoft Visual Studio\2022\Community\VC\Tools\MSVC\14.44.35207\include\vector
; File C:\Program Files\Microsoft Visual Studio\2022\Community\VC\Tools\MSVC\14.44.35207\include\xmemory
; File C:\Program Files\Microsoft Visual Studio\2022\Community\VC\Tools\MSVC\14.44.35207\include\xstring
; File C:\Program Files\Microsoft Visual Studio\2022\Community\VC\Tools\MSVC\14.44.35207\include\xmemory
; File C:\Program Files\Microsoft Visual Studio\2022\Community\VC\Tools\MSVC\14.44.35207\include\vector
; File C:\Program Files\Microsoft Visual Studio\2022\Community\VC\Tools\MSVC\14.44.35207\include\xmemory
; File D:\_m2work\txoko-m2-work\txoko-client-src\source\UserInterface\UserInterface.cpp
; File C:\Program Files\Microsoft Visual Studio\2022\Community\VC\Tools\MSVC\14.44.35207\include\xmemory
; File C:\Program Files\Microsoft Visual Studio\2022\Community\VC\Tools\MSVC\14.44.35207\include\xstring
; File C:\Program Files\Microsoft Visual Studio\2022\Community\VC\Tools\MSVC\14.44.35207\include\xmemory
; File D:\_m2work\txoko-m2-work\txoko-client-src\source\UserInterface\UserInterface.cpp
;	COMDAT ?RunMainScript@@YA_NAAVCPythonLauncher@@PBD@Z
_TEXT	SEGMENT
tv3799 = -380						; size = 4
_lpCmdLine$GSCopy$1$ = -376				; size = 4
_pyLauncher$GSCopy$1$ = -372				; size = 4
$T2 = -368						; size = 4
__Old_capacity$1$ = -364				; size = 4
$T3 = -364						; size = 4
_stVec$4 = -360						; size = 12
_stVec$5 = -360						; size = 12
$T6 = -348						; size = 24
$T7 = -348						; size = 24
_stRegisterCmdLine$8 = -324				; size = 24
_stRegisterDebugFlag$9 = -300				; size = 24
_stCmdLine$10 = -300					; size = 24
_buf$11 = -276						; size = 260
__$ArrayPad$ = -16					; size = 4
__$EHRec$ = -12						; size = 12
?RunMainScript@@YA_NAAVCPythonLauncher@@PBD@Z PROC	; RunMainScript, COMDAT
; _pyLauncher$ = ecx
; _lpCmdLine$ = edx

; 242  : {

  00000	55		 push	 ebp
  00001	8b ec		 mov	 ebp, esp
  00003	6a ff		 push	 -1
  00005	68 00 00 00 00	 push	 __ehhandler$?RunMainScript@@YA_NAAVCPythonLauncher@@PBD@Z
  0000a	64 a1 00 00 00
	00		 mov	 eax, DWORD PTR fs:0
  00010	50		 push	 eax
  00011	81 ec 70 01 00
	00		 sub	 esp, 368		; 00000170H
  00017	a1 00 00 00 00	 mov	 eax, DWORD PTR ___security_cookie
  0001c	33 c5		 xor	 eax, ebp
  0001e	89 45 f0	 mov	 DWORD PTR __$ArrayPad$[ebp], eax
  00021	53		 push	 ebx
  00022	56		 push	 esi
  00023	57		 push	 edi
  00024	50		 push	 eax
  00025	8d 45 f4	 lea	 eax, DWORD PTR __$EHRec$[ebp]
  00028	64 a3 00 00 00
	00		 mov	 DWORD PTR fs:0, eax
  0002e	89 95 88 fe ff
	ff		 mov	 DWORD PTR _lpCmdLine$GSCopy$1$[ebp], edx
  00034	89 8d 8c fe ff
	ff		 mov	 DWORD PTR _pyLauncher$GSCopy$1$[ebp], ecx

; 243  : 	initpack();

  0003a	e8 00 00 00 00	 call	 ?initpack@@YAXXZ	; initpack

; 244  : 	initdbg();

  0003f	e8 00 00 00 00	 call	 ?initdbg@@YAXXZ		; initdbg

; 245  : 	initime();

  00044	e8 00 00 00 00	 call	 ?initime@@YAXXZ		; initime

; 246  : 	initgrp();

  00049	e8 00 00 00 00	 call	 ?initgrp@@YAXXZ		; initgrp

; 247  : 	initgrpImage();

  0004e	e8 00 00 00 00	 call	 ?initgrpImage@@YAXXZ	; initgrpImage

; 248  : 	initgrpText();

  00053	e8 00 00 00 00	 call	 ?initgrpText@@YAXXZ	; initgrpText

; 249  : 	initwndMgr();

  00058	e8 00 00 00 00	 call	 ?initwndMgr@@YAXXZ	; initwndMgr

; 250  : 	/////////////////////////////////////////////
; 251  : 	initudp();
; 252  : 	initapp();

  0005d	e8 00 00 00 00	 call	 ?initapp@@YAXXZ		; initapp

; 253  : 	initsystem();

  00062	e8 00 00 00 00	 call	 ?initsystem@@YAXXZ	; initsystem

; 254  : 	initchr();

  00067	e8 00 00 00 00	 call	 ?initchr@@YAXXZ		; initchr

; 255  : 	initchrmgr();

  0006c	e8 00 00 00 00	 call	 ?initchrmgr@@YAXXZ	; initchrmgr

; 256  : 	initPlayer();

  00071	e8 00 00 00 00	 call	 ?initPlayer@@YAXXZ	; initPlayer

; 257  : 	initItem();

  00076	e8 00 00 00 00	 call	 ?initItem@@YAXXZ	; initItem

; 258  : 	initNonPlayer();

  0007b	e8 00 00 00 00	 call	 ?initNonPlayer@@YAXXZ	; initNonPlayer

; 259  : 	initTrade();

  00080	e8 00 00 00 00	 call	 ?initTrade@@YAXXZ	; initTrade

; 260  : 	initChat();

  00085	e8 00 00 00 00	 call	 ?initChat@@YAXXZ	; initChat

; 261  : 	initTextTail();

  0008a	e8 00 00 00 00	 call	 ?initTextTail@@YAXXZ	; initTextTail

; 262  : 	initnet();

  0008f	e8 00 00 00 00	 call	 ?initnet@@YAXXZ		; initnet

; 263  : 	initMiniMap();

  00094	e8 00 00 00 00	 call	 ?initMiniMap@@YAXXZ	; initMiniMap

; 264  : 	initProfiler();

  00099	e8 00 00 00 00	 call	 ?initProfiler@@YAXXZ	; initProfiler

; 265  : 	initEvent();

  0009e	e8 00 00 00 00	 call	 ?initEvent@@YAXXZ	; initEvent

; 266  : 	initeffect();

  000a3	e8 00 00 00 00	 call	 ?initeffect@@YAXXZ	; initeffect

; 267  : 	initfly();

  000a8	e8 00 00 00 00	 call	 ?initfly@@YAXXZ		; initfly

; 268  : 	initsnd();

  000ad	e8 00 00 00 00	 call	 ?initsnd@@YAXXZ		; initsnd

; 269  : 	initeventmgr();

  000b2	e8 00 00 00 00	 call	 ?initeventmgr@@YAXXZ	; initeventmgr

; 270  : 	initshop();

  000b7	e8 00 00 00 00	 call	 ?initshop@@YAXXZ	; initshop

; 271  : 	initskill();

  000bc	e8 00 00 00 00	 call	 ?initskill@@YAXXZ	; initskill

; 272  : 	initquest();

  000c1	e8 00 00 00 00	 call	 ?initquest@@YAXXZ	; initquest

; 273  : 	initBackground();

  000c6	e8 00 00 00 00	 call	 ?initBackground@@YAXXZ	; initBackground

; 274  : 	initMessenger();

  000cb	e8 00 00 00 00	 call	 ?initMessenger@@YAXXZ	; initMessenger

; 275  : 	initsafebox();

  000d0	e8 00 00 00 00	 call	 ?initsafebox@@YAXXZ	; initsafebox

; 276  : 	initguild();

  000d5	e8 00 00 00 00	 call	 ?initguild@@YAXXZ	; initguild

; 277  : 	initServerStateChecker();

  000da	e8 00 00 00 00	 call	 ?initServerStateChecker@@YAXXZ ; initServerStateChecker

; 278  : 
; 279  : 	NANOBEGIN

  000df	eb		 DB	 -21			; ffffffebH
  000e0	03		 DB	 3
  000e1	d6		 DB	 -42			; ffffffd6H
  000e2	d7		 DB	 -41			; ffffffd7H
  000e3	01		 DB	 1
  000e4	0f 57 c0	 xorps	 xmm0, xmm0
; File C:\Program Files\Microsoft Visual Studio\2022\Community\VC\Tools\MSVC\14.44.35207\include\xstring

; 861  :         _My_data._Myres  = _Small_string_capacity;

  000e7	b9 0f 00 00 00	 mov	 ecx, 15			; 0000000fH

; 493  :         _CONSTEXPR20 _Bxty() noexcept : _Buf() {} // user-provided, for fancy pointers

  000ec	0f 11 85 d4 fe
	ff ff		 movups	 XMMWORD PTR _stRegisterDebugFlag$9[ebp], xmm0

; 861  :         _My_data._Myres  = _Small_string_capacity;

  000f3	89 8d e8 fe ff
	ff		 mov	 DWORD PTR _stRegisterDebugFlag$9[ebp+20], ecx

; 862  :         _My_data._Activate_SSO_buffer();
; 863  : 
; 864  :         // the _Traits::assign is last so the codegen doesn't think the char write can alias this
; 865  :         _Traits::assign(_My_data._Bx._Buf[0], _Elem());

  000f9	c6 85 d4 fe ff
	ff 00		 mov	 BYTE PTR _stRegisterDebugFlag$9[ebp], 0
; File D:\_m2work\txoko-m2-work\txoko-client-src\source\UserInterface\UserInterface.cpp

; 291  : 		if (!pyLauncher.RunLine(stRegisterDebugFlag.c_str()))

  00100	8b 8d 8c fe ff
	ff		 mov	 ecx, DWORD PTR _pyLauncher$GSCopy$1$[ebp]
  00106	c7 45 fc 00 00
	00 00		 mov	 DWORD PTR __$EHRec$[ebp+8], 0
; File C:\Program Files\Microsoft Visual Studio\2022\Community\VC\Tools\MSVC\14.44.35207\include\__msvc_string_view.hpp

; 174  :         _CSTD memmove(_First1, _First2, _Count * sizeof(_Elem));

  0010d	a1 08 00 00 00	 mov	 eax, DWORD PTR ??_C@_0O@GIEHGGHC@__DEBUG__?5?$DN?50@+8
  00112	f3 0f 7e 05 00
	00 00 00	 movq	 xmm0, QWORD PTR ??_C@_0O@GIEHGGHC@__DEBUG__?5?$DN?50@
  0011a	89 85 dc fe ff
	ff		 mov	 DWORD PTR _stRegisterDebugFlag$9[ebp+8], eax
  00120	a0 0c 00 00 00	 mov	 al, BYTE PTR ??_C@_0O@GIEHGGHC@__DEBUG__?5?$DN?50@+12
  00125	88 85 e0 fe ff
	ff		 mov	 BYTE PTR _stRegisterDebugFlag$9[ebp+12], al
; File C:\Program Files\Microsoft Visual Studio\2022\Community\VC\Tools\MSVC\14.44.35207\include\xstring

; 444  :         const value_type* _Result = _Bx._Buf;

  0012b	8d 85 d4 fe ff
	ff		 lea	 eax, DWORD PTR _stRegisterDebugFlag$9[ebp]
; File D:\_m2work\txoko-m2-work\txoko-client-src\source\UserInterface\UserInterface.cpp

; 291  : 		if (!pyLauncher.RunLine(stRegisterDebugFlag.c_str()))

  00131	50		 push	 eax
; File C:\Program Files\Microsoft Visual Studio\2022\Community\VC\Tools\MSVC\14.44.35207\include\xstring

; 1621 :             _Mypair._Myval2._Mysize = _Count;

  00132	c7 85 e4 fe ff
	ff 0d 00 00 00	 mov	 DWORD PTR _stRegisterDebugFlag$9[ebp+16], 13 ; 0000000dH
; File C:\Program Files\Microsoft Visual Studio\2022\Community\VC\Tools\MSVC\14.44.35207\include\__msvc_string_view.hpp

; 174  :         _CSTD memmove(_First1, _First2, _Count * sizeof(_Elem));

  0013c	66 0f d6 85 d4
	fe ff ff	 movq	 QWORD PTR _stRegisterDebugFlag$9[ebp], xmm0
; File C:\Program Files\Microsoft Visual Studio\2022\Community\VC\Tools\MSVC\14.44.35207\include\xstring

; 1623 :             _Traits::assign(_Old_ptr[_Count], _Elem());

  00144	c6 85 e1 fe ff
	ff 00		 mov	 BYTE PTR _stRegisterDebugFlag$9[ebp+13], 0
; File D:\_m2work\txoko-m2-work\txoko-client-src\source\UserInterface\UserInterface.cpp

; 291  : 		if (!pyLauncher.RunLine(stRegisterDebugFlag.c_str()))

  0014b	e8 00 00 00 00	 call	 ?RunLine@CPythonLauncher@@QAE_NPBD@Z ; CPythonLauncher::RunLine
  00150	84 c0		 test	 al, al
  00152	75 52		 jne	 SHORT $LN2@RunMainScr

; 293  : 			TraceError("RegisterDebugFlag Error");

  00154	68 00 00 00 00	 push	 OFFSET ??_C@_0BI@JAFKHBD@RegisterDebugFlag?5Error@
  00159	e8 00 00 00 00	 call	 ?TraceError@@YAXPBDZZ	; TraceError
; File C:\Program Files\Microsoft Visual Studio\2022\Community\VC\Tools\MSVC\14.44.35207\include\xstring

; 453  :         return _Myres > _Small_string_capacity;

  0015e	8b 8d e8 fe ff
	ff		 mov	 ecx, DWORD PTR _stRegisterDebugFlag$9[ebp+20]
; File D:\_m2work\txoko-m2-work\txoko-client-src\source\UserInterface\UserInterface.cpp

; 293  : 			TraceError("RegisterDebugFlag Error");

  00164	83 c4 04	 add	 esp, 4
; File C:\Program Files\Microsoft Visual Studio\2022\Community\VC\Tools\MSVC\14.44.35207\include\xstring

; 453  :         return _Myres > _Small_string_capacity;

  00167	83 f9 0f	 cmp	 ecx, 15			; 0000000fH

; 3083 :         if (_My_data._Large_mode_engaged()) {

  0016a	0f 86 73 08 00
	00		 jbe	 $LN849@RunMainScr
; File C:\Program Files\Microsoft Visual Studio\2022\Community\VC\Tools\MSVC\14.44.35207\include\xmemory

; 985  :         _STD _Deallocate<_New_alignof<_Ty>>(_Ptr, sizeof(_Ty) * _Count);

  00170	8b 95 d4 fe ff
	ff		 mov	 edx, DWORD PTR _stRegisterDebugFlag$9[ebp]
; File C:\Program Files\Microsoft Visual Studio\2022\Community\VC\Tools\MSVC\14.44.35207\include\xstring

; 852  :         _Al.deallocate(_Old_ptr, _Capacity + 1); // +1 for null terminator

  00176	41		 inc	 ecx
; File C:\Program Files\Microsoft Visual Studio\2022\Community\VC\Tools\MSVC\14.44.35207\include\xmemory

; 985  :         _STD _Deallocate<_New_alignof<_Ty>>(_Ptr, sizeof(_Ty) * _Count);

  00177	8b c2		 mov	 eax, edx

; 284  :         if (_Bytes >= _Big_allocation_threshold) {

  00179	81 f9 00 10 00
	00		 cmp	 ecx, 4096		; 00001000H
  0017f	72 14		 jb	 SHORT $LN177@RunMainScr

; 205  :     const uintptr_t _Ptr_container   = _Ptr_user[-1];

  00181	8b 50 fc	 mov	 edx, DWORD PTR [eax-4]
  00184	83 c1 23	 add	 ecx, 35			; 00000023H
  00187	2b c2		 sub	 eax, edx

; 219  :     _STL_VERIFY(_Back_shift >= _Min_back_shift && _Back_shift <= _Non_user_size, "invalid argument");

  00189	83 c0 fc	 add	 eax, -4			; fffffffcH
  0018c	83 f8 1f	 cmp	 eax, 31			; 0000001fH
  0018f	0f 87 dd 08 00
	00		 ja	 $LN208@RunMainScr
$LN177@RunMainScr:

; 289  :         ::operator delete(_Ptr, _Bytes);

  00195	51		 push	 ecx
  00196	52		 push	 edx
; File D:\_m2work\txoko-m2-work\txoko-client-src\source\UserInterface\UserInterface.cpp

; 352  : 			return false;

  00197	e8 00 00 00 00	 call	 ??3@YAXPAXI@Z		; operator delete
  0019c	83 c4 08	 add	 esp, 8
  0019f	32 c0		 xor	 al, al
  001a1	e9 b0 08 00 00	 jmp	 $LN1@RunMainScr
$LN2@RunMainScr:

; 294  : 			return false;
; 295  : 		}
; 296  : 	}

  001a6	c7 45 fc ff ff
	ff ff		 mov	 DWORD PTR __$EHRec$[ebp+8], -1
; File C:\Program Files\Microsoft Visual Studio\2022\Community\VC\Tools\MSVC\14.44.35207\include\xstring

; 453  :         return _Myres > _Small_string_capacity;

  001ad	8b 8d e8 fe ff
	ff		 mov	 ecx, DWORD PTR _stRegisterDebugFlag$9[ebp+20]
  001b3	83 f9 0f	 cmp	 ecx, 15			; 0000000fH

; 3083 :         if (_My_data._Large_mode_engaged()) {

  001b6	76 2f		 jbe	 SHORT $LN201@RunMainScr
; File C:\Program Files\Microsoft Visual Studio\2022\Community\VC\Tools\MSVC\14.44.35207\include\xmemory

; 985  :         _STD _Deallocate<_New_alignof<_Ty>>(_Ptr, sizeof(_Ty) * _Count);

  001b8	8b 95 d4 fe ff
	ff		 mov	 edx, DWORD PTR _stRegisterDebugFlag$9[ebp]
; File C:\Program Files\Microsoft Visual Studio\2022\Community\VC\Tools\MSVC\14.44.35207\include\xstring

; 852  :         _Al.deallocate(_Old_ptr, _Capacity + 1); // +1 for null terminator

  001be	41		 inc	 ecx
; File C:\Program Files\Microsoft Visual Studio\2022\Community\VC\Tools\MSVC\14.44.35207\include\xmemory

; 985  :         _STD _Deallocate<_New_alignof<_Ty>>(_Ptr, sizeof(_Ty) * _Count);

  001bf	8b c2		 mov	 eax, edx

; 284  :         if (_Bytes >= _Big_allocation_threshold) {

  001c1	81 f9 00 10 00
	00		 cmp	 ecx, 4096		; 00001000H
  001c7	72 14		 jb	 SHORT $LN209@RunMainScr

; 205  :     const uintptr_t _Ptr_container   = _Ptr_user[-1];

  001c9	8b 50 fc	 mov	 edx, DWORD PTR [eax-4]
  001cc	83 c1 23	 add	 ecx, 35			; 00000023H
  001cf	2b c2		 sub	 eax, edx

; 219  :     _STL_VERIFY(_Back_shift >= _Min_back_shift && _Back_shift <= _Non_user_size, "invalid argument");

  001d1	83 c0 fc	 add	 eax, -4			; fffffffcH
  001d4	83 f8 1f	 cmp	 eax, 31			; 0000001fH
  001d7	0f 87 95 08 00
	00		 ja	 $LN208@RunMainScr
$LN209@RunMainScr:

; 289  :         ::operator delete(_Ptr, _Bytes);

  001dd	51		 push	 ecx
  001de	52		 push	 edx
  001df	e8 00 00 00 00	 call	 ??3@YAXPAXI@Z		; operator delete
  001e4	83 c4 08	 add	 esp, 8
$LN201@RunMainScr:
  001e7	0f 57 c0	 xorps	 xmm0, xmm0
; File C:\Program Files\Microsoft Visual Studio\2022\Community\VC\Tools\MSVC\14.44.35207\include\xstring

; 860  :         _My_data._Mysize = 0;

  001ea	c7 85 cc fe ff
	ff 00 00 00 00	 mov	 DWORD PTR _stRegisterCmdLine$8[ebp+16], 0

; 493  :         _CONSTEXPR20 _Bxty() noexcept : _Buf() {} // user-provided, for fancy pointers

  001f4	0f 11 85 bc fe
	ff ff		 movups	 XMMWORD PTR _stRegisterCmdLine$8[ebp], xmm0

; 861  :         _My_data._Myres  = _Small_string_capacity;

  001fb	c7 85 d0 fe ff
	ff 0f 00 00 00	 mov	 DWORD PTR _stRegisterCmdLine$8[ebp+20], 15 ; 0000000fH

; 862  :         _My_data._Activate_SSO_buffer();
; 863  : 
; 864  :         // the _Traits::assign is last so the codegen doesn't think the char write can alias this
; 865  :         _Traits::assign(_My_data._Bx._Buf[0], _Elem());

  00205	c6 85 bc fe ff
	ff 00		 mov	 BYTE PTR _stRegisterCmdLine$8[ebp], 0
; File D:\_m2work\txoko-m2-work\txoko-client-src\source\UserInterface\UserInterface.cpp

; 300  : 		std::string stRegisterCmdLine;

  0020c	c7 45 fc 01 00
	00 00		 mov	 DWORD PTR __$EHRec$[ebp+8], 1
; File C:\Program Files\Microsoft Visual Studio\2022\Community\VC\Tools\MSVC\14.44.35207\include\xstring

; 493  :         _CONSTEXPR20 _Bxty() noexcept : _Buf() {} // user-provided, for fancy pointers

  00213	0f 11 85 d4 fe
	ff ff		 movups	 XMMWORD PTR _stCmdLine$10[ebp], xmm0

; 860  :         _My_data._Mysize = 0;

  0021a	c7 85 e4 fe ff
	ff 00 00 00 00	 mov	 DWORD PTR _stCmdLine$10[ebp+16], 0

; 861  :         _My_data._Myres  = _Small_string_capacity;

  00224	c7 85 e8 fe ff
	ff 0f 00 00 00	 mov	 DWORD PTR _stCmdLine$10[ebp+20], 15 ; 0000000fH

; 862  :         _My_data._Activate_SSO_buffer();
; 863  : 
; 864  :         // the _Traits::assign is last so the codegen doesn't think the char write can alias this
; 865  :         _Traits::assign(_My_data._Bx._Buf[0], _Elem());

  0022e	c6 85 d4 fe ff
	ff 00		 mov	 BYTE PTR _stCmdLine$10[ebp], 0
; File C:\Program Files\Microsoft Visual Studio\2022\Community\VC\Tools\MSVC\14.44.35207\include\vector

; 400  :     _CONSTEXPR20 _Vector_val() noexcept : _Myfirst(), _Mylast(), _Myend() {}

  00235	c7 85 98 fe ff
	ff 00 00 00 00	 mov	 DWORD PTR _stVec$4[ebp], 0
  0023f	c7 85 9c fe ff
	ff 00 00 00 00	 mov	 DWORD PTR _stVec$4[ebp+4], 0
  00249	c7 85 a0 fe ff
	ff 00 00 00 00	 mov	 DWORD PTR _stVec$4[ebp+8], 0
; File D:\_m2work\txoko-m2-work\txoko-client-src\source\UserInterface\UserInterface.cpp

; 309  : 		SplitLine(lpCmdLine,seperator,&stVec);

  00253	8d 85 98 fe ff
	ff		 lea	 eax, DWORD PTR _stVec$4[ebp]
  00259	c6 45 fc 03	 mov	 BYTE PTR __$EHRec$[ebp+8], 3
  0025d	50		 push	 eax
  0025e	68 00 00 00 00	 push	 OFFSET ??_C@_01CLKCMJKC@?5@
  00263	ff b5 88 fe ff
	ff		 push	 DWORD PTR _lpCmdLine$GSCopy$1$[ebp]
  00269	e8 00 00 00 00	 call	 ?SplitLine@@YA_NPBD0PAV?$vector@V?$basic_string@DU?$char_traits@D@std@@V?$allocator@D@2@@std@@V?$allocator@V?$basic_string@DU?$char_traits@D@std@@V?$allocator@D@2@@std@@@2@@std@@@Z ; SplitLine
; File C:\Program Files\Microsoft Visual Studio\2022\Community\VC\Tools\MSVC\14.44.35207\include\vector

; 1915 :         return static_cast<size_type>(_My_data._Mylast - _My_data._Myfirst);

  0026e	8b bd 9c fe ff
	ff		 mov	 edi, DWORD PTR _stVec$4[ebp+4]
; File D:\_m2work\txoko-m2-work\txoko-client-src\source\UserInterface\UserInterface.cpp

; 309  : 		SplitLine(lpCmdLine,seperator,&stVec);

  00274	83 c4 0c	 add	 esp, 12			; 0000000cH
; File C:\Program Files\Microsoft Visual Studio\2022\Community\VC\Tools\MSVC\14.44.35207\include\vector

; 1915 :         return static_cast<size_type>(_My_data._Mylast - _My_data._Myfirst);

  00277	8b b5 98 fe ff
	ff		 mov	 esi, DWORD PTR _stVec$4[ebp]
  0027d	2b fe		 sub	 edi, esi
; File D:\_m2work\txoko-m2-work\txoko-client-src\source\UserInterface\UserInterface.cpp

; 310  : 		if (CmdSize == stVec.size() && stVec[0]==loginMark)

  0027f	8d 47 b8	 lea	 eax, DWORD PTR [edi-72]
  00282	83 f8 18	 cmp	 eax, 24			; 00000018H
  00285	0f 83 bc 00 00
	00		 jae	 $LN3@RunMainScr
  0028b	68 00 00 00 00	 push	 OFFSET ??_C@_03MCGAAIEM@?9cs@
  00290	56		 push	 esi
  00291	e8 00 00 00 00	 call	 ??$?8DU?$char_traits@D@std@@V?$allocator@D@1@@std@@YA_NABV?$basic_string@DU?$char_traits@D@std@@V?$allocator@D@2@@0@QBD@Z ; std::operator==<char,std::char_traits<char>,std::allocator<char> >
  00296	83 c4 08	 add	 esp, 8
  00299	84 c0		 test	 al, al
  0029b	0f 84 a6 00 00
	00		 je	 $LN3@RunMainScr
; File C:\Program Files\Microsoft Visual Studio\2022\Community\VC\Tools\MSVC\14.44.35207\include\vector

; 1934 :         return _My_data._Myfirst[_Pos];

  002a1	83 c6 30	 add	 esi, 48			; 00000030H
; File C:\Program Files\Microsoft Visual Studio\2022\Community\VC\Tools\MSVC\14.44.35207\include\xstring

; 453  :         return _Myres > _Small_string_capacity;

  002a4	83 7e 14 0f	 cmp	 DWORD PTR [esi+20], 15	; 0000000fH

; 445  :         if (_Large_mode_engaged()) {

  002a8	76 02		 jbe	 SHORT $LN728@RunMainScr

; 446  :             _Result = _Unfancy(_Bx._Ptr);

  002aa	8b 36		 mov	 esi, DWORD PTR [esi]
$LN728@RunMainScr:
; File D:\_m2work\txoko-m2-work\txoko-client-src\source\UserInterface\UserInterface.cpp

; 313  : 			base64_decode(stVec[2].c_str(),buf);

  002ac	8d 85 ec fe ff
	ff		 lea	 eax, DWORD PTR _buf$11[ebp]
  002b2	50		 push	 eax
  002b3	56		 push	 esi
  002b4	e8 00 00 00 00	 call	 ?base64_decode@@YAXPBDPAD@Z ; base64_decode
; File C:\Program Files\Microsoft Visual Studio\2022\Community\VC\Tools\MSVC\14.44.35207\include\__msvc_string_view.hpp

; 456  :             return __builtin_strlen(_First);

  002b9	8d 8d ec fe ff
	ff		 lea	 ecx, DWORD PTR _buf$11[ebp]
; File D:\_m2work\txoko-m2-work\txoko-client-src\source\UserInterface\UserInterface.cpp

; 313  : 			base64_decode(stVec[2].c_str(),buf);

  002bf	83 c4 08	 add	 esp, 8
; File C:\Program Files\Microsoft Visual Studio\2022\Community\VC\Tools\MSVC\14.44.35207\include\__msvc_string_view.hpp

; 456  :             return __builtin_strlen(_First);

  002c2	8d 51 01	 lea	 edx, DWORD PTR [ecx+1]
$LL1135@RunMainScr:
  002c5	8a 01		 mov	 al, BYTE PTR [ecx]
  002c7	41		 inc	 ecx
  002c8	84 c0		 test	 al, al
  002ca	75 f9		 jne	 SHORT $LL1135@RunMainScr
  002cc	2b ca		 sub	 ecx, edx
; File C:\Program Files\Microsoft Visual Studio\2022\Community\VC\Tools\MSVC\14.44.35207\include\xstring

; 1638 :         return assign(_Ptr, _Convert_size<size_type>(_Traits::length(_Ptr)));

  002ce	8d 85 ec fe ff
	ff		 lea	 eax, DWORD PTR _buf$11[ebp]
  002d4	51		 push	 ecx
; File C:\Program Files\Microsoft Visual Studio\2022\Community\VC\Tools\MSVC\14.44.35207\include\vector

; 1934 :         return _My_data._Myfirst[_Pos];

  002d5	8b 8d 98 fe ff
	ff		 mov	 ecx, DWORD PTR _stVec$4[ebp]
; File C:\Program Files\Microsoft Visual Studio\2022\Community\VC\Tools\MSVC\14.44.35207\include\xstring

; 1638 :         return assign(_Ptr, _Convert_size<size_type>(_Traits::length(_Ptr)));

  002db	50		 push	 eax
; File C:\Program Files\Microsoft Visual Studio\2022\Community\VC\Tools\MSVC\14.44.35207\include\vector

; 1934 :         return _My_data._Myfirst[_Pos];

  002dc	8d 49 30	 lea	 ecx, DWORD PTR [ecx+48]
; File C:\Program Files\Microsoft Visual Studio\2022\Community\VC\Tools\MSVC\14.44.35207\include\xstring

; 1638 :         return assign(_Ptr, _Convert_size<size_type>(_Traits::length(_Ptr)));

  002df	e8 00 00 00 00	 call	 ?assign@?$basic_string@DU?$char_traits@D@std@@V?$allocator@D@2@@std@@QAEAAV12@QBDI@Z ; std::basic_string<char,std::char_traits<char>,std::allocator<char> >::assign
; File C:\Program Files\Microsoft Visual Studio\2022\Community\VC\Tools\MSVC\14.44.35207\include\__msvc_string_view.hpp

; 121  :         _CSTD memcpy(_First1, _First2, _Count * sizeof(_Elem));

  002e4	a0 00 00 00 00	 mov	 al, BYTE PTR ??_C@_01CLKCMJKC@?5@
  002e9	0f 57 c0	 xorps	 xmm0, xmm0
; File C:\Program Files\Microsoft Visual Studio\2022\Community\VC\Tools\MSVC\14.44.35207\include\xstring

; 493  :         _CONSTEXPR20 _Bxty() noexcept : _Buf() {} // user-provided, for fancy pointers

  002ec	0f 11 85 a4 fe
	ff ff		 movups	 XMMWORD PTR $T6[ebp], xmm0

; 890  :             _My_data._Mysize = _Count;

  002f3	c7 85 b4 fe ff
	ff 01 00 00 00	 mov	 DWORD PTR $T6[ebp+16], 1

; 891  :             _My_data._Myres  = _Small_string_capacity;

  002fd	c7 85 b8 fe ff
	ff 0f 00 00 00	 mov	 DWORD PTR $T6[ebp+20], 15 ; 0000000fH
; File C:\Program Files\Microsoft Visual Studio\2022\Community\VC\Tools\MSVC\14.44.35207\include\__msvc_string_view.hpp

; 121  :         _CSTD memcpy(_First1, _First2, _Count * sizeof(_Elem));

  00307	88 85 a4 fe ff
	ff		 mov	 BYTE PTR $T6[ebp], al
; File C:\Program Files\Microsoft Visual Studio\2022\Community\VC\Tools\MSVC\14.44.35207\include\xstring

; 898  :                 _Traits::assign(_My_data._Bx._Buf[_Count], _Elem());

  0030d	c6 85 a5 fe ff
	ff 00		 mov	 BYTE PTR $T6[ebp+1], 0
; File D:\_m2work\txoko-m2-work\txoko-client-src\source\UserInterface\UserInterface.cpp

; 315  : 			string_join(seperator,stVec,&stCmdLine);

  00314	8d 85 d4 fe ff
	ff		 lea	 eax, DWORD PTR _stCmdLine$10[ebp]
  0031a	c6 45 fc 04	 mov	 BYTE PTR __$EHRec$[ebp+8], 4
  0031e	50		 push	 eax
  0031f	8d 95 98 fe ff
	ff		 lea	 edx, DWORD PTR _stVec$4[ebp]
  00325	8d 8d a4 fe ff
	ff		 lea	 ecx, DWORD PTR $T6[ebp]
  0032b	e8 00 00 00 00	 call	 ??$string_join@V?$vector@V?$basic_string@DU?$char_traits@D@std@@V?$allocator@D@2@@std@@V?$allocator@V?$basic_string@DU?$char_traits@D@std@@V?$allocator@D@2@@std@@@2@@std@@@@YAXABV?$basic_string@DU?$char_traits@D@std@@V?$allocator@D@2@@std@@ABV?$vector@V?$basic_string@DU?$char_traits@D@std@@V?$allocator@D@2@@std@@V?$allocator@V?$basic_string@DU?$char_traits@D@std@@V?$allocator@D@2@@std@@@2@@1@PAV01@@Z ; string_join<std::vector<std::basic_string<char,std::char_traits<char>,std::allocator<char> >,std::allocator<std::basic_string<char,std::char_traits<char>,std::allocator<char> > > > >
  00330	83 c4 04	 add	 esp, 4
  00333	c6 45 fc 03	 mov	 BYTE PTR __$EHRec$[ebp+8], 3
; File C:\Program Files\Microsoft Visual Studio\2022\Community\VC\Tools\MSVC\14.44.35207\include\xstring

; 1383 :         _Tidy_deallocate();

  00337	8d 8d a4 fe ff
	ff		 lea	 ecx, DWORD PTR $T6[ebp]
  0033d	e8 00 00 00 00	 call	 ?_Tidy_deallocate@?$basic_string@DU?$char_traits@D@std@@V?$allocator@D@2@@std@@AAEXXZ ; std::basic_string<char,std::char_traits<char>,std::allocator<char> >::_Tidy_deallocate
; File D:\_m2work\txoko-m2-work\txoko-client-src\source\UserInterface\UserInterface.cpp

; 316  : 		}

  00342	e9 cf 00 00 00	 jmp	 $LN6@RunMainScr
$LN3@RunMainScr:

; 317  : 		else if (CmdSize <= stVec.size() && stVec[0]==loginMark_NonEncode)

  00347	b8 ab aa aa 2a	 mov	 eax, 715827883		; 2aaaaaabH
  0034c	f7 ef		 imul	 edi
  0034e	c1 fa 02	 sar	 edx, 2
  00351	8b c2		 mov	 eax, edx
  00353	c1 e8 1f	 shr	 eax, 31			; 0000001fH
  00356	03 c2		 add	 eax, edx
  00358	83 f8 03	 cmp	 eax, 3
  0035b	0f 82 8d 00 00
	00		 jb	 $LN5@RunMainScr
  00361	68 00 00 00 00	 push	 OFFSET ??_C@_04JFPGDMCL@?9ncs@
  00366	56		 push	 esi
  00367	e8 00 00 00 00	 call	 ??$?8DU?$char_traits@D@std@@V?$allocator@D@1@@std@@YA_NABV?$basic_string@DU?$char_traits@D@std@@V?$allocator@D@2@@0@QBD@Z ; std::operator==<char,std::char_traits<char>,std::allocator<char> >
  0036c	83 c4 08	 add	 esp, 8
  0036f	84 c0		 test	 al, al
  00371	74 7b		 je	 SHORT $LN5@RunMainScr
; File C:\Program Files\Microsoft Visual Studio\2022\Community\VC\Tools\MSVC\14.44.35207\include\xstring

; 1638 :         return assign(_Ptr, _Convert_size<size_type>(_Traits::length(_Ptr)));

  00373	6a 03		 push	 3
  00375	68 00 00 00 00	 push	 OFFSET ??_C@_03MCGAAIEM@?9cs@
  0037a	8b ce		 mov	 ecx, esi
  0037c	e8 00 00 00 00	 call	 ?assign@?$basic_string@DU?$char_traits@D@std@@V?$allocator@D@2@@std@@QAEAAV12@QBDI@Z ; std::basic_string<char,std::char_traits<char>,std::allocator<char> >::assign
  00381	0f 57 c0	 xorps	 xmm0, xmm0

; 890  :             _My_data._Mysize = _Count;

  00384	c7 85 b4 fe ff
	ff 01 00 00 00	 mov	 DWORD PTR $T7[ebp+16], 1

; 493  :         _CONSTEXPR20 _Bxty() noexcept : _Buf() {} // user-provided, for fancy pointers

  0038e	0f 11 85 a4 fe
	ff ff		 movups	 XMMWORD PTR $T7[ebp], xmm0

; 891  :             _My_data._Myres  = _Small_string_capacity;

  00395	c7 85 b8 fe ff
	ff 0f 00 00 00	 mov	 DWORD PTR $T7[ebp+20], 15 ; 0000000fH
; File C:\Program Files\Microsoft Visual Studio\2022\Community\VC\Tools\MSVC\14.44.35207\include\__msvc_string_view.hpp

; 121  :         _CSTD memcpy(_First1, _First2, _Count * sizeof(_Elem));

  0039f	66 c7 85 a4 fe
	ff ff 20 00	 mov	 WORD PTR $T7[ebp], 32	; 00000020H
; File D:\_m2work\txoko-m2-work\txoko-client-src\source\UserInterface\UserInterface.cpp

; 320  : 			string_join(" ",stVec,&stCmdLine);

  003a8	8d 85 d4 fe ff
	ff		 lea	 eax, DWORD PTR _stCmdLine$10[ebp]
  003ae	c6 45 fc 05	 mov	 BYTE PTR __$EHRec$[ebp+8], 5
  003b2	50		 push	 eax
  003b3	8d 95 98 fe ff
	ff		 lea	 edx, DWORD PTR _stVec$4[ebp]
  003b9	8d 8d a4 fe ff
	ff		 lea	 ecx, DWORD PTR $T7[ebp]
  003bf	e8 00 00 00 00	 call	 ??$string_join@V?$vector@V?$basic_string@DU?$char_traits@D@std@@V?$allocator@D@2@@std@@V?$allocator@V?$basic_string@DU?$char_traits@D@std@@V?$allocator@D@2@@std@@@2@@std@@@@YAXABV?$basic_string@DU?$char_traits@D@std@@V?$allocator@D@2@@std@@ABV?$vector@V?$basic_string@DU?$char_traits@D@std@@V?$allocator@D@2@@std@@V?$allocator@V?$basic_string@DU?$char_traits@D@std@@V?$allocator@D@2@@std@@@2@@1@PAV01@@Z ; string_join<std::vector<std::basic_string<char,std::char_traits<char>,std::allocator<char> >,std::allocator<std::basic_string<char,std::char_traits<char>,std::allocator<char> > > > >
  003c4	c6 45 fc 03	 mov	 BYTE PTR __$EHRec$[ebp+8], 3
  003c8	83 c4 04	 add	 esp, 4
; File C:\Program Files\Microsoft Visual Studio\2022\Community\VC\Tools\MSVC\14.44.35207\include\xstring

; 453  :         return _Myres > _Small_string_capacity;

  003cb	8b 85 b8 fe ff
	ff		 mov	 eax, DWORD PTR $T7[ebp+20]
  003d1	83 f8 0f	 cmp	 eax, 15			; 0000000fH

; 3083 :         if (_My_data._Large_mode_engaged()) {

  003d4	76 40		 jbe	 SHORT $LN6@RunMainScr

; 3084 :             _ASAN_STRING_REMOVE(*this);
; 3085 :             auto& _Al = _Getal();
; 3086 :             _Deallocate_for_capacity(_Al, _My_data._Bx._Ptr, _My_data._Myres);

  003d6	50		 push	 eax
  003d7	ff b5 a4 fe ff
	ff		 push	 DWORD PTR $T7[ebp]
  003dd	8d 85 a4 fe ff
	ff		 lea	 eax, DWORD PTR $T7[ebp]
  003e3	50		 push	 eax
  003e4	e8 00 00 00 00	 call	 ?_Deallocate_for_capacity@?$basic_string@DU?$char_traits@D@std@@V?$allocator@D@2@@std@@CAXAAV?$allocator@D@2@QADI@Z ; std::basic_string<char,std::char_traits<char>,std::allocator<char> >::_Deallocate_for_capacity
  003e9	83 c4 0c	 add	 esp, 12			; 0000000cH
; File D:\_m2work\txoko-m2-work\txoko-client-src\source\UserInterface\UserInterface.cpp

; 321  : 		}

  003ec	eb 28		 jmp	 SHORT $LN6@RunMainScr
$LN5@RunMainScr:
; File C:\Program Files\Microsoft Visual Studio\2022\Community\VC\Tools\MSVC\14.44.35207\include\__msvc_string_view.hpp

; 456  :             return __builtin_strlen(_First);

  003ee	8b b5 88 fe ff
	ff		 mov	 esi, DWORD PTR _lpCmdLine$GSCopy$1$[ebp]
  003f4	8b ce		 mov	 ecx, esi
  003f6	8d 51 01	 lea	 edx, DWORD PTR [ecx+1]
  003f9	0f 1f 80 00 00
	00 00		 npad	 7
$LL1136@RunMainScr:
  00400	8a 01		 mov	 al, BYTE PTR [ecx]
  00402	41		 inc	 ecx
  00403	84 c0		 test	 al, al
  00405	75 f9		 jne	 SHORT $LL1136@RunMainScr
  00407	2b ca		 sub	 ecx, edx
; File C:\Program Files\Microsoft Visual Studio\2022\Community\VC\Tools\MSVC\14.44.35207\include\xstring

; 1638 :         return assign(_Ptr, _Convert_size<size_type>(_Traits::length(_Ptr)));

  00409	51		 push	 ecx
  0040a	56		 push	 esi
  0040b	8d 8d d4 fe ff
	ff		 lea	 ecx, DWORD PTR _stCmdLine$10[ebp]
  00411	e8 00 00 00 00	 call	 ?assign@?$basic_string@DU?$char_traits@D@std@@V?$allocator@D@2@@std@@QAEAAV12@QBDI@Z ; std::basic_string<char,std::char_traits<char>,std::allocator<char> >::assign
$LN6@RunMainScr:

; 1618 :         if (_Count <= _Mypair._Myval2._Myres) {

  00416	8b bd d0 fe ff
	ff		 mov	 edi, DWORD PTR _stRegisterCmdLine$8[ebp+20]
  0041c	83 ff 13	 cmp	 edi, 19			; 00000013H
  0041f	72 33		 jb	 SHORT $LN401@RunMainScr

; 453  :         return _Myres > _Small_string_capacity;

  00421	83 ff 0f	 cmp	 edi, 15			; 0000000fH

; 1621 :             _Mypair._Myval2._Mysize = _Count;

  00424	c7 85 cc fe ff
	ff 13 00 00 00	 mov	 DWORD PTR _stRegisterCmdLine$8[ebp+16], 19 ; 00000013H
; File C:\Program Files\Microsoft Visual Studio\2022\Community\VC\Tools\MSVC\14.44.35207\include\__msvc_string_view.hpp

; 174  :         _CSTD memmove(_First1, _First2, _Count * sizeof(_Elem));

  0042e	6a 13		 push	 19			; 00000013H
; File C:\Program Files\Microsoft Visual Studio\2022\Community\VC\Tools\MSVC\14.44.35207\include\xstring

; 435  :         value_type* _Result = _Bx._Buf;

  00430	8d b5 bc fe ff
	ff		 lea	 esi, DWORD PTR _stRegisterCmdLine$8[ebp]

; 436  :         if (_Large_mode_engaged()) {

  00436	0f 47 b5 bc fe
	ff ff		 cmova	 esi, DWORD PTR _stRegisterCmdLine$8[ebp]
; File C:\Program Files\Microsoft Visual Studio\2022\Community\VC\Tools\MSVC\14.44.35207\include\__msvc_string_view.hpp

; 174  :         _CSTD memmove(_First1, _First2, _Count * sizeof(_Elem));

  0043d	68 00 00 00 00	 push	 OFFSET ??_C@_0BE@FPKDPBJI@__COMMAND_LINE__?5?$DN?5@
  00442	56		 push	 esi
  00443	e8 00 00 00 00	 call	 _memmove
  00448	83 c4 0c	 add	 esp, 12			; 0000000cH
; File C:\Program Files\Microsoft Visual Studio\2022\Community\VC\Tools\MSVC\14.44.35207\include\xstring

; 1623 :             _Traits::assign(_Old_ptr[_Count], _Elem());

  0044b	c6 46 13 00	 mov	 BYTE PTR [esi+19], 0

; 1624 :             _ASAN_STRING_CREATE(*this);
; 1625 :             return *this;

  0044f	e9 b8 00 00 00	 jmp	 $LN403@RunMainScr
$LN401@RunMainScr:

; 3002 :         const size_type _Old_capacity = _Mypair._Myval2._Myres;

  00454	8b cf		 mov	 ecx, edi

; 2983 :         if (_Old > _Max - _Old / 2) { // similarly, geometric overflows

  00456	b8 ff ff ff 7f	 mov	 eax, 2147483647		; 7fffffffH

; 3002 :         const size_type _Old_capacity = _Mypair._Myval2._Myres;

  0045b	d1 e9		 shr	 ecx, 1

; 2983 :         if (_Old > _Max - _Old / 2) { // similarly, geometric overflows

  0045d	2b c1		 sub	 eax, ecx
  0045f	3b f8		 cmp	 edi, eax
  00461	76 07		 jbe	 SHORT $LN410@RunMainScr

; 2984 :             return _Max;

  00463	be ff ff ff 7f	 mov	 esi, 2147483647		; 7fffffffH
  00468	eb 0d		 jmp	 SHORT $LN1140@RunMainScr
$LN410@RunMainScr:

; 2985 :         }
; 2986 : 
; 2987 :         return (_STD max)(_Masked, _Old + _Old / 2);

  0046a	8d 04 0f	 lea	 eax, DWORD PTR [edi+ecx]
  0046d	be 1f 00 00 00	 mov	 esi, 31			; 0000001fH
  00472	3b c6		 cmp	 eax, esi
  00474	0f 47 f0	 cmova	 esi, eax
$LN1140@RunMainScr:

; 825  :         ++_Capacity; // Take null terminator into consideration

  00477	89 b5 94 fe ff
	ff		 mov	 DWORD PTR $T3[ebp], esi
  0047d	83 c6 01	 add	 esi, 1
; File C:\Program Files\Microsoft Visual Studio\2022\Community\VC\Tools\MSVC\14.44.35207\include\xmemory

; 227  :     if (_Bytes == 0) {

  00480	74 1a		 je	 SHORT $LN426@RunMainScr
$LN427@RunMainScr:

; 228  :         return nullptr;
; 229  :     }
; 230  : 
; 231  : #if _HAS_CXX20 // TRANSITION, GH-1532
; 232  :     if (_STD is_constant_evaluated()) {
; 233  :         return _Traits::_Allocate(_Bytes);
; 234  :     }
; 235  : #endif // _HAS_CXX20
; 236  : 
; 237  : #ifdef __cpp_aligned_new
; 238  :     if constexpr (_Align > __STDCPP_DEFAULT_NEW_ALIGNMENT__) {
; 239  :         size_t _Passed_align = _Align;
; 240  : #if defined(_M_IX86) || defined(_M_X64)
; 241  :         if (_Bytes >= _Big_allocation_threshold) {
; 242  :             // boost the alignment of big allocations to help autovectorization
; 243  :             _Passed_align = (_STD max)(_Align, _Big_allocation_alignment);
; 244  :         }
; 245  : #endif // defined(_M_IX86) || defined(_M_X64)
; 246  :         return _Traits::_Allocate_aligned(_Bytes, _Passed_align);
; 247  :     } else
; 248  : #endif // defined(__cpp_aligned_new)
; 249  :     {
; 250  : #if defined(_M_IX86) || defined(_M_X64)
; 251  :         if (_Bytes >= _Big_allocation_threshold) {

  00482	56		 push	 esi
  00483	81 fe 00 10 00
	00		 cmp	 esi, 4096		; 00001000H
  00489	72 07		 jb	 SHORT $LN429@RunMainScr

; 252  :             // boost the alignment of big allocations to help autovectorization
; 253  :             return _Allocate_manually_vector_aligned<_Traits>(_Bytes);

  0048b	e8 00 00 00 00	 call	 ??$_Allocate_manually_vector_aligned@U_Default_allocate_traits@std@@@std@@YAPAXI@Z ; std::_Allocate_manually_vector_aligned<std::_Default_allocate_traits>
  00490	eb 05		 jmp	 SHORT $LN1141@RunMainScr
$LN429@RunMainScr:

; 136  :         return ::operator new(_Bytes);

  00492	e8 00 00 00 00	 call	 ??2@YAPAXI@Z		; operator new
$LN1141@RunMainScr:
; File C:\Program Files\Microsoft Visual Studio\2022\Community\VC\Tools\MSVC\14.44.35207\include\xstring

; 3009 :         _Mypair._Myval2._Mysize = _New_size;

  00497	8b f0		 mov	 esi, eax
  00499	83 c4 04	 add	 esp, 4
$LN426@RunMainScr:

; 3010 :         _Mypair._Myval2._Myres  = _New_capacity;

  0049c	8b 85 94 fe ff
	ff		 mov	 eax, DWORD PTR $T3[ebp]
  004a2	89 85 d0 fe ff
	ff		 mov	 DWORD PTR _stRegisterCmdLine$8[ebp+20], eax
  004a8	c7 85 cc fe ff
	ff 13 00 00 00	 mov	 DWORD PTR _stRegisterCmdLine$8[ebp+16], 19 ; 00000013H
; File C:\Program Files\Microsoft Visual Studio\2022\Community\VC\Tools\MSVC\14.44.35207\include\__msvc_string_view.hpp

; 121  :         _CSTD memcpy(_First1, _First2, _Count * sizeof(_Elem));

  004b2	0f 10 05 00 00
	00 00		 movups	 xmm0, XMMWORD PTR ??_C@_0BE@FPKDPBJI@__COMMAND_LINE__?5?$DN?5@
  004b9	0f 11 06	 movups	 XMMWORD PTR [esi], xmm0
  004bc	66 a1 10 00 00
	00		 mov	 ax, WORD PTR ??_C@_0BE@FPKDPBJI@__COMMAND_LINE__?5?$DN?5@+16
  004c2	66 89 46 10	 mov	 WORD PTR [esi+16], ax
  004c6	a0 12 00 00 00	 mov	 al, BYTE PTR ??_C@_0BE@FPKDPBJI@__COMMAND_LINE__?5?$DN?5@+18
  004cb	88 46 12	 mov	 BYTE PTR [esi+18], al
; File C:\Program Files\Microsoft Visual Studio\2022\Community\VC\Tools\MSVC\14.44.35207\include\xstring

; 1632 :                 _Traits::assign(_New_ptr[_Count], _Elem());

  004ce	c6 46 13 00	 mov	 BYTE PTR [esi+19], 0

; 3012 :         if (_Old_capacity > _Small_string_capacity) {

  004d2	83 ff 0f	 cmp	 edi, 15			; 0000000fH
  004d5	76 2f		 jbe	 SHORT $LN402@RunMainScr
; File C:\Program Files\Microsoft Visual Studio\2022\Community\VC\Tools\MSVC\14.44.35207\include\xmemory

; 985  :         _STD _Deallocate<_New_alignof<_Ty>>(_Ptr, sizeof(_Ty) * _Count);

  004d7	8b 8d bc fe ff
	ff		 mov	 ecx, DWORD PTR _stRegisterCmdLine$8[ebp]
; File C:\Program Files\Microsoft Visual Studio\2022\Community\VC\Tools\MSVC\14.44.35207\include\xstring

; 852  :         _Al.deallocate(_Old_ptr, _Capacity + 1); // +1 for null terminator

  004dd	47		 inc	 edi
; File C:\Program Files\Microsoft Visual Studio\2022\Community\VC\Tools\MSVC\14.44.35207\include\xmemory

; 985  :         _STD _Deallocate<_New_alignof<_Ty>>(_Ptr, sizeof(_Ty) * _Count);

  004de	8b c1		 mov	 eax, ecx

; 284  :         if (_Bytes >= _Big_allocation_threshold) {

  004e0	81 ff 00 10 00
	00		 cmp	 edi, 4096		; 00001000H
  004e6	72 14		 jb	 SHORT $LN461@RunMainScr

; 205  :     const uintptr_t _Ptr_container   = _Ptr_user[-1];

  004e8	8b 48 fc	 mov	 ecx, DWORD PTR [eax-4]
  004eb	83 c7 23	 add	 edi, 35			; 00000023H
  004ee	2b c1		 sub	 eax, ecx

; 219  :     _STL_VERIFY(_Back_shift >= _Min_back_shift && _Back_shift <= _Non_user_size, "invalid argument");

  004f0	83 c0 fc	 add	 eax, -4			; fffffffcH
  004f3	83 f8 1f	 cmp	 eax, 31			; 0000001fH
  004f6	0f 87 8a 05 00
	00		 ja	 $LN549@RunMainScr
$LN461@RunMainScr:

; 289  :         ::operator delete(_Ptr, _Bytes);

  004fc	57		 push	 edi
  004fd	51		 push	 ecx
  004fe	e8 00 00 00 00	 call	 ??3@YAXPAXI@Z		; operator delete
  00503	83 c4 08	 add	 esp, 8
$LN402@RunMainScr:
; File C:\Program Files\Microsoft Visual Studio\2022\Community\VC\Tools\MSVC\14.44.35207\include\xstring

; 2292 :         const size_type _Old_size = _Mypair._Myval2._Mysize;

  00506	89 b5 bc fe ff
	ff		 mov	 DWORD PTR _stRegisterCmdLine$8[ebp], esi
$LN403@RunMainScr:
  0050c	8b 8d d0 fe ff
	ff		 mov	 ecx, DWORD PTR _stRegisterCmdLine$8[ebp+20]
  00512	8b bd cc fe ff
	ff		 mov	 edi, DWORD PTR _stRegisterCmdLine$8[ebp+16]
  00518	89 8d 94 fe ff
	ff		 mov	 DWORD PTR __Old_capacity$1$[ebp], ecx
  0051e	3b f9		 cmp	 edi, ecx

; 2293 :         if (_Old_size < _Mypair._Myval2._Myres) {

  00520	73 24		 jae	 SHORT $LN270@RunMainScr

; 2294 :             _ASAN_STRING_MODIFY(*this, _Old_size, _Old_size + 1);
; 2295 :             _Mypair._Myval2._Mysize = _Old_size + 1;

  00522	8d 47 01	 lea	 eax, DWORD PTR [edi+1]

; 453  :         return _Myres > _Small_string_capacity;

  00525	83 f9 0f	 cmp	 ecx, 15			; 0000000fH

; 2295 :             _Mypair._Myval2._Mysize = _Old_size + 1;

  00528	89 85 cc fe ff
	ff		 mov	 DWORD PTR _stRegisterCmdLine$8[ebp+16], eax

; 435  :         value_type* _Result = _Bx._Buf;

  0052e	8d 85 bc fe ff
	ff		 lea	 eax, DWORD PTR _stRegisterCmdLine$8[ebp]

; 436  :         if (_Large_mode_engaged()) {

  00534	0f 47 85 bc fe
	ff ff		 cmova	 eax, DWORD PTR _stRegisterCmdLine$8[ebp]

; 2297 :             _Traits::assign(_Ptr[_Old_size], _Ch);

  0053b	66 c7 04 38 22
	00		 mov	 WORD PTR [eax+edi], 34	; 00000022H

; 2298 :             _Traits::assign(_Ptr[_Old_size + 1], _Elem());
; 2299 :             return;

  00541	e9 ed 00 00 00	 jmp	 $LN282@RunMainScr
$LN270@RunMainScr:

; 3028 :         const size_type _Old_size = _My_data._Mysize;

  00546	ba ff ff ff 7f	 mov	 edx, 2147483647		; 7fffffffH
  0054b	8b c2		 mov	 eax, edx
  0054d	2b c7		 sub	 eax, edi

; 3029 :         if (max_size() - _Old_size < _Size_increase) {

  0054f	83 f8 01	 cmp	 eax, 1
  00552	0f 82 29 05 00
	00		 jb	 $LN1146@RunMainScr

; 3031 :         }
; 3032 : 
; 3033 :         const size_type _New_size     = _Old_size + _Size_increase;

  00558	8d 77 01	 lea	 esi, DWORD PTR [edi+1]

; 2978 :         const size_type _Masked = _Requested | _Alloc_mask;

  0055b	83 ce 0f	 or	 esi, 15			; 0000000fH
  0055e	3b f2		 cmp	 esi, edx

; 2979 :         if (_Masked > _Max) { // the mask overflows, settle for max_size()

  00560	76 04		 jbe	 SHORT $LN288@RunMainScr

; 2980 :             return _Max;

  00562	8b f2		 mov	 esi, edx
  00564	eb 18		 jmp	 SHORT $LN287@RunMainScr
$LN288@RunMainScr:

; 2981 :         }
; 2982 : 
; 2983 :         if (_Old > _Max - _Old / 2) { // similarly, geometric overflows

  00566	8b c1		 mov	 eax, ecx
  00568	d1 e8		 shr	 eax, 1
  0056a	2b d0		 sub	 edx, eax
  0056c	3b ca		 cmp	 ecx, edx
  0056e	76 07		 jbe	 SHORT $LN289@RunMainScr

; 2984 :             return _Max;

  00570	be ff ff ff 7f	 mov	 esi, 2147483647		; 7fffffffH
  00575	eb 07		 jmp	 SHORT $LN287@RunMainScr
$LN289@RunMainScr:

; 2985 :         }
; 2986 : 
; 2987 :         return (_STD max)(_Masked, _Old + _Old / 2);

  00577	03 c1		 add	 eax, ecx
  00579	3b f0		 cmp	 esi, eax
  0057b	0f 42 f0	 cmovb	 esi, eax
$LN287@RunMainScr:

; 825  :         ++_Capacity; // Take null terminator into consideration

  0057e	8d 46 01	 lea	 eax, DWORD PTR [esi+1]
; File C:\Program Files\Microsoft Visual Studio\2022\Community\VC\Tools\MSVC\14.44.35207\include\xmemory

; 227  :     if (_Bytes == 0) {

  00581	85 c0		 test	 eax, eax
  00583	74 1d		 je	 SHORT $LN1142@RunMainScr
$LN306@RunMainScr:

; 228  :         return nullptr;
; 229  :     }
; 230  : 
; 231  : #if _HAS_CXX20 // TRANSITION, GH-1532
; 232  :     if (_STD is_constant_evaluated()) {
; 233  :         return _Traits::_Allocate(_Bytes);
; 234  :     }
; 235  : #endif // _HAS_CXX20
; 236  : 
; 237  : #ifdef __cpp_aligned_new
; 238  :     if constexpr (_Align > __STDCPP_DEFAULT_NEW_ALIGNMENT__) {
; 239  :         size_t _Passed_align = _Align;
; 240  : #if defined(_M_IX86) || defined(_M_X64)
; 241  :         if (_Bytes >= _Big_allocation_threshold) {
; 242  :             // boost the alignment of big allocations to help autovectorization
; 243  :             _Passed_align = (_STD max)(_Align, _Big_allocation_alignment);
; 244  :         }
; 245  : #endif // defined(_M_IX86) || defined(_M_X64)
; 246  :         return _Traits::_Allocate_aligned(_Bytes, _Passed_align);
; 247  :     } else
; 248  : #endif // defined(__cpp_aligned_new)
; 249  :     {
; 250  : #if defined(_M_IX86) || defined(_M_X64)
; 251  :         if (_Bytes >= _Big_allocation_threshold) {

  00585	50		 push	 eax
  00586	3d 00 10 00 00	 cmp	 eax, 4096		; 00001000H
  0058b	72 07		 jb	 SHORT $LN308@RunMainScr

; 252  :             // boost the alignment of big allocations to help autovectorization
; 253  :             return _Allocate_manually_vector_aligned<_Traits>(_Bytes);

  0058d	e8 00 00 00 00	 call	 ??$_Allocate_manually_vector_aligned@U_Default_allocate_traits@std@@@std@@YAPAXI@Z ; std::_Allocate_manually_vector_aligned<std::_Default_allocate_traits>
  00592	eb 05		 jmp	 SHORT $LN1143@RunMainScr
$LN308@RunMainScr:

; 136  :         return ::operator new(_Bytes);

  00594	e8 00 00 00 00	 call	 ??2@YAPAXI@Z		; operator new
$LN1143@RunMainScr:
; File C:\Program Files\Microsoft Visual Studio\2022\Community\VC\Tools\MSVC\14.44.35207\include\xstring

; 3041 :         _My_data._Mysize      = _New_size;

  00599	8b 8d 94 fe ff
	ff		 mov	 ecx, DWORD PTR __Old_capacity$1$[ebp]
  0059f	83 c4 04	 add	 esp, 4
$LN1142@RunMainScr:

; 3042 :         _My_data._Myres       = _New_capacity;

  005a2	89 b5 d0 fe ff
	ff		 mov	 DWORD PTR _stRegisterCmdLine$8[ebp+20], esi
  005a8	8d 57 01	 lea	 edx, DWORD PTR [edi+1]
  005ab	89 85 90 fe ff
	ff		 mov	 DWORD PTR $T2[ebp], eax
  005b1	8d 34 38	 lea	 esi, DWORD PTR [eax+edi]
  005b4	89 95 cc fe ff
	ff		 mov	 DWORD PTR _stRegisterCmdLine$8[ebp+16], edx
  005ba	89 b5 84 fe ff
	ff		 mov	 DWORD PTR tv3799[ebp], esi

; 3043 :         _Elem* const _Raw_new = _Unfancy(_New_ptr);
; 3044 :         if (_Old_capacity > _Small_string_capacity) {

  005c0	57		 push	 edi
  005c1	83 f9 0f	 cmp	 ecx, 15			; 0000000fH
  005c4	76 4c		 jbe	 SHORT $LN281@RunMainScr

; 3045 :             const pointer _Old_ptr = _My_data._Bx._Ptr;

  005c6	8b b5 bc fe ff
	ff		 mov	 esi, DWORD PTR _stRegisterCmdLine$8[ebp]
; File C:\Program Files\Microsoft Visual Studio\2022\Community\VC\Tools\MSVC\14.44.35207\include\__msvc_string_view.hpp

; 121  :         _CSTD memcpy(_First1, _First2, _Count * sizeof(_Elem));

  005cc	56		 push	 esi
  005cd	50		 push	 eax
  005ce	e8 00 00 00 00	 call	 _memcpy
; File C:\Program Files\Microsoft Visual Studio\2022\Community\VC\Tools\MSVC\14.44.35207\include\xstring

; 2307 :                     _Traits::assign(_New_ptr[_Old_size], _Ch);

  005d3	8b 85 84 fe ff
	ff		 mov	 eax, DWORD PTR tv3799[ebp]
; File C:\Program Files\Microsoft Visual Studio\2022\Community\VC\Tools\MSVC\14.44.35207\include\__msvc_string_view.hpp

; 121  :         _CSTD memcpy(_First1, _First2, _Count * sizeof(_Elem));

  005d9	83 c4 0c	 add	 esp, 12			; 0000000cH
; File C:\Program Files\Microsoft Visual Studio\2022\Community\VC\Tools\MSVC\14.44.35207\include\xstring

; 852  :         _Al.deallocate(_Old_ptr, _Capacity + 1); // +1 for null terminator

  005dc	8b 8d 94 fe ff
	ff		 mov	 ecx, DWORD PTR __Old_capacity$1$[ebp]
  005e2	41		 inc	 ecx

; 2307 :                     _Traits::assign(_New_ptr[_Old_size], _Ch);

  005e3	66 c7 00 22 00	 mov	 WORD PTR [eax], 34	; 00000022H
; File C:\Program Files\Microsoft Visual Studio\2022\Community\VC\Tools\MSVC\14.44.35207\include\xmemory

; 284  :         if (_Bytes >= _Big_allocation_threshold) {

  005e8	81 f9 00 10 00
	00		 cmp	 ecx, 4096		; 00001000H
  005ee	72 16		 jb	 SHORT $LN340@RunMainScr

; 205  :     const uintptr_t _Ptr_container   = _Ptr_user[-1];

  005f0	8b 56 fc	 mov	 edx, DWORD PTR [esi-4]
  005f3	83 c1 23	 add	 ecx, 35			; 00000023H

; 206  : 
; 207  :     // If the following asserts, it likely means that we are performing
; 208  :     // an aligned delete on memory coming from an unaligned allocation.
; 209  :     _STL_ASSERT(_Ptr_user[-2] == _Big_allocation_sentinel, "invalid argument");
; 210  : 
; 211  :     // Extra paranoia on aligned allocation/deallocation; ensure _Ptr_container is
; 212  :     // in range [_Min_back_shift, _Non_user_size]
; 213  : #ifdef _DEBUG
; 214  :     constexpr uintptr_t _Min_back_shift = 2 * sizeof(void*);
; 215  : #else // ^^^ defined(_DEBUG) / !defined(_DEBUG) vvv
; 216  :     constexpr uintptr_t _Min_back_shift = sizeof(void*);
; 217  : #endif // ^^^ !defined(_DEBUG) ^^^
; 218  :     const uintptr_t _Back_shift = reinterpret_cast<uintptr_t>(_Ptr) - _Ptr_container;

  005f6	2b f2		 sub	 esi, edx

; 219  :     _STL_VERIFY(_Back_shift >= _Min_back_shift && _Back_shift <= _Non_user_size, "invalid argument");

  005f8	8d 46 fc	 lea	 eax, DWORD PTR [esi-4]
  005fb	83 f8 1f	 cmp	 eax, 31			; 0000001fH
  005fe	0f 87 82 04 00
	00		 ja	 $LN549@RunMainScr

; 220  :     _Ptr = reinterpret_cast<void*>(_Ptr_container);

  00604	8b f2		 mov	 esi, edx
$LN340@RunMainScr:

; 289  :         ::operator delete(_Ptr, _Bytes);

  00606	51		 push	 ecx
  00607	56		 push	 esi
  00608	e8 00 00 00 00	 call	 ??3@YAXPAXI@Z		; operator delete
  0060d	83 c4 08	 add	 esp, 8
; File C:\Program Files\Microsoft Visual Studio\2022\Community\VC\Tools\MSVC\14.44.35207\include\xstring

; 3049 :         } else {

  00610	eb 15		 jmp	 SHORT $LN1144@RunMainScr
$LN281@RunMainScr:
; File C:\Program Files\Microsoft Visual Studio\2022\Community\VC\Tools\MSVC\14.44.35207\include\__msvc_string_view.hpp

; 121  :         _CSTD memcpy(_First1, _First2, _Count * sizeof(_Elem));

  00612	8d 8d bc fe ff
	ff		 lea	 ecx, DWORD PTR _stRegisterCmdLine$8[ebp]
  00618	51		 push	 ecx
  00619	50		 push	 eax
  0061a	e8 00 00 00 00	 call	 _memcpy
  0061f	83 c4 0c	 add	 esp, 12			; 0000000cH
; File C:\Program Files\Microsoft Visual Studio\2022\Community\VC\Tools\MSVC\14.44.35207\include\xstring

; 2307 :                     _Traits::assign(_New_ptr[_Old_size], _Ch);

  00622	66 c7 06 22 00	 mov	 WORD PTR [esi], 34	; 00000022H
$LN1144@RunMainScr:

; 444  :         const value_type* _Result = _Bx._Buf;

  00627	8b 85 90 fe ff
	ff		 mov	 eax, DWORD PTR $T2[ebp]
  0062d	89 85 bc fe ff
	ff		 mov	 DWORD PTR _stRegisterCmdLine$8[ebp], eax
$LN282@RunMainScr:

; 453  :         return _Myres > _Small_string_capacity;

  00633	83 bd e8 fe ff
	ff 0f		 cmp	 DWORD PTR _stCmdLine$10[ebp+20], 15 ; 0000000fH

; 444  :         const value_type* _Result = _Bx._Buf;

  0063a	8d 85 d4 fe ff
	ff		 lea	 eax, DWORD PTR _stCmdLine$10[ebp]

; 1483 :         return append(_Right._Mypair._Myval2._Myptr(), _Right._Mypair._Myval2._Mysize);

  00640	ff b5 e4 fe ff
	ff		 push	 DWORD PTR _stCmdLine$10[ebp+16]

; 445  :         if (_Large_mode_engaged()) {

  00646	0f 47 85 d4 fe
	ff ff		 cmova	 eax, DWORD PTR _stCmdLine$10[ebp]

; 1483 :         return append(_Right._Mypair._Myval2._Myptr(), _Right._Mypair._Myval2._Mysize);

  0064d	8d 8d bc fe ff
	ff		 lea	 ecx, DWORD PTR _stRegisterCmdLine$8[ebp]
  00653	50		 push	 eax
  00654	e8 00 00 00 00	 call	 ?append@?$basic_string@DU?$char_traits@D@std@@V?$allocator@D@2@@std@@QAEAAV12@QBDI@Z ; std::basic_string<char,std::char_traits<char>,std::allocator<char> >::append
; File D:\_m2work\txoko-m2-work\txoko-client-src\source\UserInterface\UserInterface.cpp

; 328  : 		stRegisterCmdLine+='"';

  00659	6a 22		 push	 34			; 00000022H
  0065b	8d 8d bc fe ff
	ff		 lea	 ecx, DWORD PTR _stRegisterCmdLine$8[ebp]
  00661	e8 00 00 00 00	 call	 ??Y?$basic_string@DU?$char_traits@D@std@@V?$allocator@D@2@@std@@QAEAAV01@D@Z ; std::basic_string<char,std::char_traits<char>,std::allocator<char> >::operator+=
; File C:\Program Files\Microsoft Visual Studio\2022\Community\VC\Tools\MSVC\14.44.35207\include\xstring

; 453  :         return _Myres > _Small_string_capacity;

  00666	83 bd d0 fe ff
	ff 0f		 cmp	 DWORD PTR _stRegisterCmdLine$8[ebp+20], 15 ; 0000000fH

; 444  :         const value_type* _Result = _Bx._Buf;

  0066d	8d 85 bc fe ff
	ff		 lea	 eax, DWORD PTR _stRegisterCmdLine$8[ebp]
; File D:\_m2work\txoko-m2-work\txoko-client-src\source\UserInterface\UserInterface.cpp

; 331  : 		if (!pyLauncher.RunLine(c_szRegisterCmdLine))

  00673	8b bd 8c fe ff
	ff		 mov	 edi, DWORD PTR _pyLauncher$GSCopy$1$[ebp]
  00679	8b cf		 mov	 ecx, edi
; File C:\Program Files\Microsoft Visual Studio\2022\Community\VC\Tools\MSVC\14.44.35207\include\xstring

; 445  :         if (_Large_mode_engaged()) {

  0067b	0f 47 85 bc fe
	ff ff		 cmova	 eax, DWORD PTR _stRegisterCmdLine$8[ebp]
; File D:\_m2work\txoko-m2-work\txoko-client-src\source\UserInterface\UserInterface.cpp

; 331  : 		if (!pyLauncher.RunLine(c_szRegisterCmdLine))

  00682	50		 push	 eax
  00683	e8 00 00 00 00	 call	 ?RunLine@CPythonLauncher@@QAE_NPBD@Z ; CPythonLauncher::RunLine
  00688	84 c0		 test	 al, al
  0068a	0f 85 30 01 00
	00		 jne	 $LN7@RunMainScr

; 333  : 			TraceError("RegisterCommandLine Error");

  00690	68 00 00 00 00	 push	 OFFSET ??_C@_0BK@DPMNHJLC@RegisterCommandLine?5Error@
  00695	e8 00 00 00 00	 call	 ?TraceError@@YAXPBDZZ	; TraceError
; File C:\Program Files\Microsoft Visual Studio\2022\Community\VC\Tools\MSVC\14.44.35207\include\vector

; 2090 :         if (_Myfirst) { // destroy and deallocate old array

  0069a	8b b5 98 fe ff
	ff		 mov	 esi, DWORD PTR _stVec$4[ebp]
; File D:\_m2work\txoko-m2-work\txoko-client-src\source\UserInterface\UserInterface.cpp

; 333  : 			TraceError("RegisterCommandLine Error");

  006a0	83 c4 04	 add	 esp, 4
; File C:\Program Files\Microsoft Visual Studio\2022\Community\VC\Tools\MSVC\14.44.35207\include\vector

; 2090 :         if (_Myfirst) { // destroy and deallocate old array

  006a3	85 f6		 test	 esi, esi
  006a5	74 7b		 je	 SHORT $LN572@RunMainScr

; 2091 :             _STD _Destroy_range(_Myfirst, _Mylast, _Al);

  006a7	8b bd 9c fe ff
	ff		 mov	 edi, DWORD PTR _stVec$4[ebp+4]
  006ad	3b f7		 cmp	 esi, edi
; File C:\Program Files\Microsoft Visual Studio\2022\Community\VC\Tools\MSVC\14.44.35207\include\xmemory

; 1102 :         for (; _First != _Last; ++_First) {

  006af	74 14		 je	 SHORT $LN577@RunMainScr
$LL578@RunMainScr:
; File C:\Program Files\Microsoft Visual Studio\2022\Community\VC\Tools\MSVC\14.44.35207\include\xstring

; 1383 :         _Tidy_deallocate();

  006b1	8b ce		 mov	 ecx, esi
  006b3	e8 00 00 00 00	 call	 ?_Tidy_deallocate@?$basic_string@DU?$char_traits@D@std@@V?$allocator@D@2@@std@@AAEXXZ ; std::basic_string<char,std::char_traits<char>,std::allocator<char> >::_Tidy_deallocate
; File C:\Program Files\Microsoft Visual Studio\2022\Community\VC\Tools\MSVC\14.44.35207\include\xmemory

; 1102 :         for (; _First != _Last; ++_First) {

  006b8	83 c6 18	 add	 esi, 24			; 00000018H
  006bb	3b f7		 cmp	 esi, edi
  006bd	75 f2		 jne	 SHORT $LL578@RunMainScr
  006bf	8b b5 98 fe ff
	ff		 mov	 esi, DWORD PTR _stVec$4[ebp]
$LN577@RunMainScr:
; File C:\Program Files\Microsoft Visual Studio\2022\Community\VC\Tools\MSVC\14.44.35207\include\vector

; 2093 :             _Al.deallocate(_Myfirst, static_cast<size_type>(_Myend - _Myfirst));

  006c5	8b 85 a0 fe ff
	ff		 mov	 eax, DWORD PTR _stVec$4[ebp+8]
  006cb	2b c6		 sub	 eax, esi
  006cd	c1 f8 03	 sar	 eax, 3
  006d0	69 c0 ab aa aa
	aa		 imul	 eax, eax, -1431655765
; File C:\Program Files\Microsoft Visual Studio\2022\Community\VC\Tools\MSVC\14.44.35207\include\xmemory

; 985  :         _STD _Deallocate<_New_alignof<_Ty>>(_Ptr, sizeof(_Ty) * _Count);

  006d6	8d 0c 40	 lea	 ecx, DWORD PTR [eax+eax*2]
  006d9	8b c6		 mov	 eax, esi
  006db	c1 e1 03	 shl	 ecx, 3

; 284  :         if (_Bytes >= _Big_allocation_threshold) {

  006de	81 f9 00 10 00
	00		 cmp	 ecx, 4096		; 00001000H
  006e4	72 14		 jb	 SHORT $LN606@RunMainScr

; 205  :     const uintptr_t _Ptr_container   = _Ptr_user[-1];

  006e6	8b 70 fc	 mov	 esi, DWORD PTR [eax-4]
  006e9	83 c1 23	 add	 ecx, 35			; 00000023H
  006ec	2b c6		 sub	 eax, esi

; 219  :     _STL_VERIFY(_Back_shift >= _Min_back_shift && _Back_shift <= _Non_user_size, "invalid argument");

  006ee	83 c0 fc	 add	 eax, -4			; fffffffcH
  006f1	83 f8 1f	 cmp	 eax, 31			; 0000001fH
  006f4	0f 87 8c 03 00
	00		 ja	 $LN549@RunMainScr
$LN606@RunMainScr:

; 289  :         ::operator delete(_Ptr, _Bytes);

  006fa	51		 push	 ecx
  006fb	56		 push	 esi
  006fc	e8 00 00 00 00	 call	 ??3@YAXPAXI@Z		; operator delete
  00701	83 c4 08	 add	 esp, 8
; File C:\Program Files\Microsoft Visual Studio\2022\Community\VC\Tools\MSVC\14.44.35207\include\vector

; 2095 :             _Myfirst = nullptr;

  00704	c7 85 98 fe ff
	ff 00 00 00 00	 mov	 DWORD PTR _stVec$4[ebp], 0

; 2096 :             _Mylast  = nullptr;

  0070e	c7 85 9c fe ff
	ff 00 00 00 00	 mov	 DWORD PTR _stVec$4[ebp+4], 0

; 2097 :             _Myend   = nullptr;

  00718	c7 85 a0 fe ff
	ff 00 00 00 00	 mov	 DWORD PTR _stVec$4[ebp+8], 0
$LN572@RunMainScr:
; File C:\Program Files\Microsoft Visual Studio\2022\Community\VC\Tools\MSVC\14.44.35207\include\xstring

; 453  :         return _Myres > _Small_string_capacity;

  00722	8b 8d e8 fe ff
	ff		 mov	 ecx, DWORD PTR _stCmdLine$10[ebp+20]
  00728	83 f9 0f	 cmp	 ecx, 15			; 0000000fH

; 3083 :         if (_My_data._Large_mode_engaged()) {

  0072b	76 2f		 jbe	 SHORT $LN629@RunMainScr
; File C:\Program Files\Microsoft Visual Studio\2022\Community\VC\Tools\MSVC\14.44.35207\include\xmemory

; 985  :         _STD _Deallocate<_New_alignof<_Ty>>(_Ptr, sizeof(_Ty) * _Count);

  0072d	8b 95 d4 fe ff
	ff		 mov	 edx, DWORD PTR _stCmdLine$10[ebp]
; File C:\Program Files\Microsoft Visual Studio\2022\Community\VC\Tools\MSVC\14.44.35207\include\xstring

; 852  :         _Al.deallocate(_Old_ptr, _Capacity + 1); // +1 for null terminator

  00733	41		 inc	 ecx
; File C:\Program Files\Microsoft Visual Studio\2022\Community\VC\Tools\MSVC\14.44.35207\include\xmemory

; 985  :         _STD _Deallocate<_New_alignof<_Ty>>(_Ptr, sizeof(_Ty) * _Count);

  00734	8b c2		 mov	 eax, edx

; 284  :         if (_Bytes >= _Big_allocation_threshold) {

  00736	81 f9 00 10 00
	00		 cmp	 ecx, 4096		; 00001000H
  0073c	72 14		 jb	 SHORT $LN637@RunMainScr

; 205  :     const uintptr_t _Ptr_container   = _Ptr_user[-1];

  0073e	8b 50 fc	 mov	 edx, DWORD PTR [eax-4]
  00741	83 c1 23	 add	 ecx, 35			; 00000023H
  00744	2b c2		 sub	 eax, edx

; 219  :     _STL_VERIFY(_Back_shift >= _Min_back_shift && _Back_shift <= _Non_user_size, "invalid argument");

  00746	83 c0 fc	 add	 eax, -4			; fffffffcH
  00749	83 f8 1f	 cmp	 eax, 31			; 0000001fH
  0074c	0f 87 34 03 00
	00		 ja	 $LN549@RunMainScr
$LN637@RunMainScr:

; 289  :         ::operator delete(_Ptr, _Bytes);

  00752	51		 push	 ecx
  00753	52		 push	 edx
  00754	e8 00 00 00 00	 call	 ??3@YAXPAXI@Z		; operator delete
  00759	83 c4 08	 add	 esp, 8
$LN629@RunMainScr:
; File C:\Program Files\Microsoft Visual Studio\2022\Community\VC\Tools\MSVC\14.44.35207\include\xstring

; 453  :         return _Myres > _Small_string_capacity;

  0075c	8b 8d d0 fe ff
	ff		 mov	 ecx, DWORD PTR _stRegisterCmdLine$8[ebp+20]

; 3090 :         _My_data._Mysize = 0;

  00762	c7 85 e4 fe ff
	ff 00 00 00 00	 mov	 DWORD PTR _stCmdLine$10[ebp+16], 0

; 3091 :         _My_data._Myres  = _Small_string_capacity;

  0076c	c7 85 e8 fe ff
	ff 0f 00 00 00	 mov	 DWORD PTR _stCmdLine$10[ebp+20], 15 ; 0000000fH

; 3092 :         // the _Traits::assign is last so the codegen doesn't think the char write can alias this
; 3093 :         _Traits::assign(_My_data._Bx._Buf[0], _Elem());

  00776	c6 85 d4 fe ff
	ff 00		 mov	 BYTE PTR _stCmdLine$10[ebp], 0

; 453  :         return _Myres > _Small_string_capacity;

  0077d	83 f9 0f	 cmp	 ecx, 15			; 0000000fH

; 3083 :         if (_My_data._Large_mode_engaged()) {

  00780	0f 86 5d 02 00
	00		 jbe	 $LN849@RunMainScr
; File C:\Program Files\Microsoft Visual Studio\2022\Community\VC\Tools\MSVC\14.44.35207\include\xmemory

; 985  :         _STD _Deallocate<_New_alignof<_Ty>>(_Ptr, sizeof(_Ty) * _Count);

  00786	8b 95 bc fe ff
	ff		 mov	 edx, DWORD PTR _stRegisterCmdLine$8[ebp]
; File C:\Program Files\Microsoft Visual Studio\2022\Community\VC\Tools\MSVC\14.44.35207\include\xstring

; 852  :         _Al.deallocate(_Old_ptr, _Capacity + 1); // +1 for null terminator

  0078c	41		 inc	 ecx
; File C:\Program Files\Microsoft Visual Studio\2022\Community\VC\Tools\MSVC\14.44.35207\include\xmemory

; 985  :         _STD _Deallocate<_New_alignof<_Ty>>(_Ptr, sizeof(_Ty) * _Count);

  0078d	8b c2		 mov	 eax, edx

; 284  :         if (_Bytes >= _Big_allocation_threshold) {

  0078f	81 f9 00 10 00
	00		 cmp	 ecx, 4096		; 00001000H
  00795	0f 82 fa f9 ff
	ff		 jb	 $LN177@RunMainScr

; 205  :     const uintptr_t _Ptr_container   = _Ptr_user[-1];

  0079b	8b 50 fc	 mov	 edx, DWORD PTR [eax-4]
  0079e	83 c1 23	 add	 ecx, 35			; 00000023H
  007a1	2b c2		 sub	 eax, edx

; 219  :     _STL_VERIFY(_Back_shift >= _Min_back_shift && _Back_shift <= _Non_user_size, "invalid argument");

  007a3	83 c0 fc	 add	 eax, -4			; fffffffcH
  007a6	83 f8 1f	 cmp	 eax, 31			; 0000001fH
  007a9	0f 87 d7 02 00
	00		 ja	 $LN549@RunMainScr

; 289  :         ::operator delete(_Ptr, _Bytes);

  007af	51		 push	 ecx
  007b0	52		 push	 edx
; File D:\_m2work\txoko-m2-work\txoko-client-src\source\UserInterface\UserInterface.cpp

; 352  : 			return false;

  007b1	e8 00 00 00 00	 call	 ??3@YAXPAXI@Z		; operator delete
  007b6	83 c4 08	 add	 esp, 8
  007b9	32 c0		 xor	 al, al
  007bb	e9 96 02 00 00	 jmp	 $LN1@RunMainScr
$LN7@RunMainScr:

; 336  : 	}

  007c0	c6 45 fc 02	 mov	 BYTE PTR __$EHRec$[ebp+8], 2
; File C:\Program Files\Microsoft Visual Studio\2022\Community\VC\Tools\MSVC\14.44.35207\include\vector

; 2090 :         if (_Myfirst) { // destroy and deallocate old array

  007c4	8b b5 98 fe ff
	ff		 mov	 esi, DWORD PTR _stVec$4[ebp]
  007ca	85 f6		 test	 esi, esi
  007cc	0f 84 85 00 00
	00		 je	 $LN679@RunMainScr

; 2091 :             _STD _Destroy_range(_Myfirst, _Mylast, _Al);

  007d2	8b bd 9c fe ff
	ff		 mov	 edi, DWORD PTR _stVec$4[ebp+4]
  007d8	3b f7		 cmp	 esi, edi
; File C:\Program Files\Microsoft Visual Studio\2022\Community\VC\Tools\MSVC\14.44.35207\include\xmemory

; 1102 :         for (; _First != _Last; ++_First) {

  007da	74 18		 je	 SHORT $LN684@RunMainScr
  007dc	0f 1f 40 00	 npad	 4
$LL685@RunMainScr:
; File C:\Program Files\Microsoft Visual Studio\2022\Community\VC\Tools\MSVC\14.44.35207\include\xstring

; 1383 :         _Tidy_deallocate();

  007e0	8b ce		 mov	 ecx, esi
  007e2	e8 00 00 00 00	 call	 ?_Tidy_deallocate@?$basic_string@DU?$char_traits@D@std@@V?$allocator@D@2@@std@@AAEXXZ ; std::basic_string<char,std::char_traits<char>,std::allocator<char> >::_Tidy_deallocate
; File C:\Program Files\Microsoft Visual Studio\2022\Community\VC\Tools\MSVC\14.44.35207\include\xmemory

; 1102 :         for (; _First != _Last; ++_First) {

  007e7	83 c6 18	 add	 esi, 24			; 00000018H
  007ea	3b f7		 cmp	 esi, edi
  007ec	75 f2		 jne	 SHORT $LL685@RunMainScr
  007ee	8b b5 98 fe ff
	ff		 mov	 esi, DWORD PTR _stVec$4[ebp]
$LN684@RunMainScr:
; File C:\Program Files\Microsoft Visual Studio\2022\Community\VC\Tools\MSVC\14.44.35207\include\vector

; 2093 :             _Al.deallocate(_Myfirst, static_cast<size_type>(_Myend - _Myfirst));

  007f4	8b 85 a0 fe ff
	ff		 mov	 eax, DWORD PTR _stVec$4[ebp+8]
  007fa	2b c6		 sub	 eax, esi
  007fc	c1 f8 03	 sar	 eax, 3
  007ff	69 c0 ab aa aa
	aa		 imul	 eax, eax, -1431655765
; File C:\Program Files\Microsoft Visual Studio\2022\Community\VC\Tools\MSVC\14.44.35207\include\xmemory

; 985  :         _STD _Deallocate<_New_alignof<_Ty>>(_Ptr, sizeof(_Ty) * _Count);

  00805	8d 0c 40	 lea	 ecx, DWORD PTR [eax+eax*2]
  00808	8b c6		 mov	 eax, esi
  0080a	c1 e1 03	 shl	 ecx, 3

; 284  :         if (_Bytes >= _Big_allocation_threshold) {

  0080d	81 f9 00 10 00
	00		 cmp	 ecx, 4096		; 00001000H
  00813	72 14		 jb	 SHORT $LN713@RunMainScr

; 205  :     const uintptr_t _Ptr_container   = _Ptr_user[-1];

  00815	8b 70 fc	 mov	 esi, DWORD PTR [eax-4]
  00818	83 c1 23	 add	 ecx, 35			; 00000023H
  0081b	2b c6		 sub	 eax, esi

; 219  :     _STL_VERIFY(_Back_shift >= _Min_back_shift && _Back_shift <= _Non_user_size, "invalid argument");

  0081d	83 c0 fc	 add	 eax, -4			; fffffffcH
  00820	83 f8 1f	 cmp	 eax, 31			; 0000001fH
  00823	0f 87 5d 02 00
	00		 ja	 $LN549@RunMainScr
$LN713@RunMainScr:

; 289  :         ::operator delete(_Ptr, _Bytes);

  00829	51		 push	 ecx
  0082a	56		 push	 esi
  0082b	e8 00 00 00 00	 call	 ??3@YAXPAXI@Z		; operator delete
  00830	8b bd 8c fe ff
	ff		 mov	 edi, DWORD PTR _pyLauncher$GSCopy$1$[ebp]
  00836	83 c4 08	 add	 esp, 8
; File C:\Program Files\Microsoft Visual Studio\2022\Community\VC\Tools\MSVC\14.44.35207\include\vector

; 2095 :             _Myfirst = nullptr;

  00839	c7 85 98 fe ff
	ff 00 00 00 00	 mov	 DWORD PTR _stVec$4[ebp], 0

; 2096 :             _Mylast  = nullptr;

  00843	c7 85 9c fe ff
	ff 00 00 00 00	 mov	 DWORD PTR _stVec$4[ebp+4], 0

; 2097 :             _Myend   = nullptr;

  0084d	c7 85 a0 fe ff
	ff 00 00 00 00	 mov	 DWORD PTR _stVec$4[ebp+8], 0
$LN679@RunMainScr:
; File D:\_m2work\txoko-m2-work\txoko-client-src\source\UserInterface\UserInterface.cpp

; 336  : 	}

  00857	c6 45 fc 01	 mov	 BYTE PTR __$EHRec$[ebp+8], 1
; File C:\Program Files\Microsoft Visual Studio\2022\Community\VC\Tools\MSVC\14.44.35207\include\xstring

; 453  :         return _Myres > _Small_string_capacity;

  0085b	8b 8d e8 fe ff
	ff		 mov	 ecx, DWORD PTR _stCmdLine$10[ebp+20]
  00861	83 f9 0f	 cmp	 ecx, 15			; 0000000fH

; 3083 :         if (_My_data._Large_mode_engaged()) {

  00864	76 2f		 jbe	 SHORT $LN510@RunMainScr
; File C:\Program Files\Microsoft Visual Studio\2022\Community\VC\Tools\MSVC\14.44.35207\include\xmemory

; 985  :         _STD _Deallocate<_New_alignof<_Ty>>(_Ptr, sizeof(_Ty) * _Count);

  00866	8b 95 d4 fe ff
	ff		 mov	 edx, DWORD PTR _stCmdLine$10[ebp]
; File C:\Program Files\Microsoft Visual Studio\2022\Community\VC\Tools\MSVC\14.44.35207\include\xstring

; 852  :         _Al.deallocate(_Old_ptr, _Capacity + 1); // +1 for null terminator

  0086c	41		 inc	 ecx
; File C:\Program Files\Microsoft Visual Studio\2022\Community\VC\Tools\MSVC\14.44.35207\include\xmemory

; 985  :         _STD _Deallocate<_New_alignof<_Ty>>(_Ptr, sizeof(_Ty) * _Count);

  0086d	8b c2		 mov	 eax, edx

; 284  :         if (_Bytes >= _Big_allocation_threshold) {

  0086f	81 f9 00 10 00
	00		 cmp	 ecx, 4096		; 00001000H
  00875	72 14		 jb	 SHORT $LN518@RunMainScr

; 205  :     const uintptr_t _Ptr_container   = _Ptr_user[-1];

  00877	8b 50 fc	 mov	 edx, DWORD PTR [eax-4]
  0087a	83 c1 23	 add	 ecx, 35			; 00000023H
  0087d	2b c2		 sub	 eax, edx

; 219  :     _STL_VERIFY(_Back_shift >= _Min_back_shift && _Back_shift <= _Non_user_size, "invalid argument");

  0087f	83 c0 fc	 add	 eax, -4			; fffffffcH
  00882	83 f8 1f	 cmp	 eax, 31			; 0000001fH
  00885	0f 87 fb 01 00
	00		 ja	 $LN549@RunMainScr
$LN518@RunMainScr:

; 289  :         ::operator delete(_Ptr, _Bytes);

  0088b	51		 push	 ecx
  0088c	52		 push	 edx
  0088d	e8 00 00 00 00	 call	 ??3@YAXPAXI@Z		; operator delete
  00892	83 c4 08	 add	 esp, 8
$LN510@RunMainScr:
; File D:\_m2work\txoko-m2-work\txoko-client-src\source\UserInterface\UserInterface.cpp

; 336  : 	}

  00895	c7 45 fc ff ff
	ff ff		 mov	 DWORD PTR __$EHRec$[ebp+8], -1
; File C:\Program Files\Microsoft Visual Studio\2022\Community\VC\Tools\MSVC\14.44.35207\include\xstring

; 453  :         return _Myres > _Small_string_capacity;

  0089c	8b 8d d0 fe ff
	ff		 mov	 ecx, DWORD PTR _stRegisterCmdLine$8[ebp+20]

; 3090 :         _My_data._Mysize = 0;

  008a2	c7 85 e4 fe ff
	ff 00 00 00 00	 mov	 DWORD PTR _stCmdLine$10[ebp+16], 0

; 3091 :         _My_data._Myres  = _Small_string_capacity;

  008ac	c7 85 e8 fe ff
	ff 0f 00 00 00	 mov	 DWORD PTR _stCmdLine$10[ebp+20], 15 ; 0000000fH

; 3092 :         // the _Traits::assign is last so the codegen doesn't think the char write can alias this
; 3093 :         _Traits::assign(_My_data._Bx._Buf[0], _Elem());

  008b6	c6 85 d4 fe ff
	ff 00		 mov	 BYTE PTR _stCmdLine$10[ebp], 0

; 453  :         return _Myres > _Small_string_capacity;

  008bd	83 f9 0f	 cmp	 ecx, 15			; 0000000fH

; 3083 :         if (_My_data._Large_mode_engaged()) {

  008c0	76 2f		 jbe	 SHORT $LN542@RunMainScr
; File C:\Program Files\Microsoft Visual Studio\2022\Community\VC\Tools\MSVC\14.44.35207\include\xmemory

; 985  :         _STD _Deallocate<_New_alignof<_Ty>>(_Ptr, sizeof(_Ty) * _Count);

  008c2	8b 95 bc fe ff
	ff		 mov	 edx, DWORD PTR _stRegisterCmdLine$8[ebp]
; File C:\Program Files\Microsoft Visual Studio\2022\Community\VC\Tools\MSVC\14.44.35207\include\xstring

; 852  :         _Al.deallocate(_Old_ptr, _Capacity + 1); // +1 for null terminator

  008c8	41		 inc	 ecx
; File C:\Program Files\Microsoft Visual Studio\2022\Community\VC\Tools\MSVC\14.44.35207\include\xmemory

; 985  :         _STD _Deallocate<_New_alignof<_Ty>>(_Ptr, sizeof(_Ty) * _Count);

  008c9	8b c2		 mov	 eax, edx

; 284  :         if (_Bytes >= _Big_allocation_threshold) {

  008cb	81 f9 00 10 00
	00		 cmp	 ecx, 4096		; 00001000H
  008d1	72 14		 jb	 SHORT $LN550@RunMainScr

; 205  :     const uintptr_t _Ptr_container   = _Ptr_user[-1];

  008d3	8b 50 fc	 mov	 edx, DWORD PTR [eax-4]
  008d6	83 c1 23	 add	 ecx, 35			; 00000023H
  008d9	2b c2		 sub	 eax, edx

; 219  :     _STL_VERIFY(_Back_shift >= _Min_back_shift && _Back_shift <= _Non_user_size, "invalid argument");

  008db	83 c0 fc	 add	 eax, -4			; fffffffcH
  008de	83 f8 1f	 cmp	 eax, 31			; 0000001fH
  008e1	0f 87 9f 01 00
	00		 ja	 $LN549@RunMainScr
$LN550@RunMainScr:

; 289  :         ::operator delete(_Ptr, _Bytes);

  008e7	51		 push	 ecx
  008e8	52		 push	 edx
  008e9	e8 00 00 00 00	 call	 ??3@YAXPAXI@Z		; operator delete
  008ee	83 c4 08	 add	 esp, 8
$LN542@RunMainScr:
; File C:\Program Files\Microsoft Visual Studio\2022\Community\VC\Tools\MSVC\14.44.35207\include\vector

; 400  :     _CONSTEXPR20 _Vector_val() noexcept : _Myfirst(), _Mylast(), _Myend() {}

  008f1	c7 85 98 fe ff
	ff 00 00 00 00	 mov	 DWORD PTR _stVec$5[ebp], 0
  008fb	c7 85 9c fe ff
	ff 00 00 00 00	 mov	 DWORD PTR _stVec$5[ebp+4], 0
  00905	c7 85 a0 fe ff
	ff 00 00 00 00	 mov	 DWORD PTR _stVec$5[ebp+8], 0
; File D:\_m2work\txoko-m2-work\txoko-client-src\source\UserInterface\UserInterface.cpp

; 339  : 		SplitLine(lpCmdLine," " ,&stVec);

  0090f	8d 85 98 fe ff
	ff		 lea	 eax, DWORD PTR _stVec$5[ebp]
  00915	c7 45 fc 06 00
	00 00		 mov	 DWORD PTR __$EHRec$[ebp+8], 6
  0091c	50		 push	 eax
  0091d	68 00 00 00 00	 push	 OFFSET ??_C@_01CLKCMJKC@?5@
  00922	ff b5 88 fe ff
	ff		 push	 DWORD PTR _lpCmdLine$GSCopy$1$[ebp]
  00928	e8 00 00 00 00	 call	 ?SplitLine@@YA_NPBD0PAV?$vector@V?$basic_string@DU?$char_traits@D@std@@V?$allocator@D@2@@std@@V?$allocator@V?$basic_string@DU?$char_traits@D@std@@V?$allocator@D@2@@std@@@2@@std@@@Z ; SplitLine
; File C:\Program Files\Microsoft Visual Studio\2022\Community\VC\Tools\MSVC\14.44.35207\include\vector

; 1915 :         return static_cast<size_type>(_My_data._Mylast - _My_data._Myfirst);

  0092d	8b 85 9c fe ff
	ff		 mov	 eax, DWORD PTR _stVec$5[ebp+4]
; File D:\_m2work\txoko-m2-work\txoko-client-src\source\UserInterface\UserInterface.cpp

; 339  : 		SplitLine(lpCmdLine," " ,&stVec);

  00933	83 c4 0c	 add	 esp, 12			; 0000000cH
; File C:\Program Files\Microsoft Visual Studio\2022\Community\VC\Tools\MSVC\14.44.35207\include\vector

; 1915 :         return static_cast<size_type>(_My_data._Mylast - _My_data._Myfirst);

  00936	8b 8d 98 fe ff
	ff		 mov	 ecx, DWORD PTR _stVec$5[ebp]
  0093c	2b c1		 sub	 eax, ecx
; File D:\_m2work\txoko-m2-work\txoko-client-src\source\UserInterface\UserInterface.cpp

; 341  : 		if (stVec.size() != 0 && "--pause-before-create-window" == stVec[0])

  0093e	74 1f		 je	 SHORT $LN8@RunMainScr
  00940	68 00 00 00 00	 push	 OFFSET ??_C@_0BN@KIGJPBEF@?9?9pause?9before?9create?9window@
  00945	51		 push	 ecx
  00946	e8 00 00 00 00	 call	 ??$?8DU?$char_traits@D@std@@V?$allocator@D@1@@std@@YA_NABV?$basic_string@DU?$char_traits@D@std@@V?$allocator@D@2@@0@QBD@Z ; std::operator==<char,std::char_traits<char>,std::allocator<char> >
  0094b	83 c4 08	 add	 esp, 8
  0094e	84 c0		 test	 al, al
  00950	74 0d		 je	 SHORT $LN8@RunMainScr

; 342  : 		{
; 343  : #ifdef XTRAP_CLIENT_ENABLE
; 344  : 			if (!XTrap_CheckInit())
; 345  : 				return false;
; 346  : #endif
; 347  : 			system("pause");

  00952	68 00 00 00 00	 push	 OFFSET ??_C@_05PDJBBECF@pause@
  00957	e8 00 00 00 00	 call	 _system
  0095c	83 c4 04	 add	 esp, 4
$LN8@RunMainScr:

; 348  : 		}
; 349  : 		if (!pyLauncher.RunFile("system.py"))

  0095f	68 00 00 00 00	 push	 OFFSET ??_C@_09LEIJOBCA@system?4py@
  00964	8b cf		 mov	 ecx, edi
  00966	e8 00 00 00 00	 call	 ?RunFile@CPythonLauncher@@QAE_NPBD@Z ; CPythonLauncher::RunFile
  0096b	84 c0		 test	 al, al
  0096d	75 78		 jne	 SHORT $LN9@RunMainScr

; 351  : 			TraceError("RunMain Error");

  0096f	68 00 00 00 00	 push	 OFFSET ??_C@_0O@BEEPKJML@RunMain?5Error@
  00974	e8 00 00 00 00	 call	 ?TraceError@@YAXPBDZZ	; TraceError
; File C:\Program Files\Microsoft Visual Studio\2022\Community\VC\Tools\MSVC\14.44.35207\include\vector

; 2090 :         if (_Myfirst) { // destroy and deallocate old array

  00979	8b b5 98 fe ff
	ff		 mov	 esi, DWORD PTR _stVec$5[ebp]
; File D:\_m2work\txoko-m2-work\txoko-client-src\source\UserInterface\UserInterface.cpp

; 351  : 			TraceError("RunMain Error");

  0097f	83 c4 04	 add	 esp, 4
; File C:\Program Files\Microsoft Visual Studio\2022\Community\VC\Tools\MSVC\14.44.35207\include\vector

; 2090 :         if (_Myfirst) { // destroy and deallocate old array

  00982	85 f6		 test	 esi, esi
  00984	74 5d		 je	 SHORT $LN849@RunMainScr

; 2091 :             _STD _Destroy_range(_Myfirst, _Mylast, _Al);

  00986	8b bd 9c fe ff
	ff		 mov	 edi, DWORD PTR _stVec$5[ebp+4]
  0098c	3b f7		 cmp	 esi, edi
; File C:\Program Files\Microsoft Visual Studio\2022\Community\VC\Tools\MSVC\14.44.35207\include\xmemory

; 1102 :         for (; _First != _Last; ++_First) {

  0098e	74 14		 je	 SHORT $LN828@RunMainScr
$LL829@RunMainScr:
; File C:\Program Files\Microsoft Visual Studio\2022\Community\VC\Tools\MSVC\14.44.35207\include\xstring

; 1383 :         _Tidy_deallocate();

  00990	8b ce		 mov	 ecx, esi
  00992	e8 00 00 00 00	 call	 ?_Tidy_deallocate@?$basic_string@DU?$char_traits@D@std@@V?$allocator@D@2@@std@@AAEXXZ ; std::basic_string<char,std::char_traits<char>,std::allocator<char> >::_Tidy_deallocate
; File C:\Program Files\Microsoft Visual Studio\2022\Community\VC\Tools\MSVC\14.44.35207\include\xmemory

; 1102 :         for (; _First != _Last; ++_First) {

  00997	83 c6 18	 add	 esi, 24			; 00000018H
  0099a	3b f7		 cmp	 esi, edi
  0099c	75 f2		 jne	 SHORT $LL829@RunMainScr
  0099e	8b b5 98 fe ff
	ff		 mov	 esi, DWORD PTR _stVec$5[ebp]
$LN828@RunMainScr:
; File C:\Program Files\Microsoft Visual Studio\2022\Community\VC\Tools\MSVC\14.44.35207\include\vector

; 2093 :             _Al.deallocate(_Myfirst, static_cast<size_type>(_Myend - _Myfirst));

  009a4	8b 85 a0 fe ff
	ff		 mov	 eax, DWORD PTR _stVec$5[ebp+8]
  009aa	2b c6		 sub	 eax, esi
  009ac	c1 f8 03	 sar	 eax, 3
  009af	69 c0 ab aa aa
	aa		 imul	 eax, eax, -1431655765
; File C:\Program Files\Microsoft Visual Studio\2022\Community\VC\Tools\MSVC\14.44.35207\include\xmemory

; 985  :         _STD _Deallocate<_New_alignof<_Ty>>(_Ptr, sizeof(_Ty) * _Count);

  009b5	8d 0c 40	 lea	 ecx, DWORD PTR [eax+eax*2]
  009b8	8b c6		 mov	 eax, esi
  009ba	c1 e1 03	 shl	 ecx, 3

; 284  :         if (_Bytes >= _Big_allocation_threshold) {

  009bd	81 f9 00 10 00
	00		 cmp	 ecx, 4096		; 00001000H
  009c3	72 14		 jb	 SHORT $LN857@RunMainScr

; 205  :     const uintptr_t _Ptr_container   = _Ptr_user[-1];

  009c5	8b 70 fc	 mov	 esi, DWORD PTR [eax-4]
  009c8	83 c1 23	 add	 ecx, 35			; 00000023H
  009cb	2b c6		 sub	 eax, esi

; 219  :     _STL_VERIFY(_Back_shift >= _Min_back_shift && _Back_shift <= _Non_user_size, "invalid argument");

  009cd	83 c0 fc	 add	 eax, -4			; fffffffcH
  009d0	83 f8 1f	 cmp	 eax, 31			; 0000001fH
  009d3	0f 87 bc 00 00
	00		 ja	 $LN899@RunMainScr
$LN857@RunMainScr:

; 289  :         ::operator delete(_Ptr, _Bytes);

  009d9	51		 push	 ecx
  009da	56		 push	 esi
; File D:\_m2work\txoko-m2-work\txoko-client-src\source\UserInterface\UserInterface.cpp

; 352  : 			return false;

  009db	e8 00 00 00 00	 call	 ??3@YAXPAXI@Z		; operator delete
  009e0	83 c4 08	 add	 esp, 8
$LN849@RunMainScr:
  009e3	32 c0		 xor	 al, al
  009e5	eb 6f		 jmp	 SHORT $LN1@RunMainScr
$LN9@RunMainScr:
; File C:\Program Files\Microsoft Visual Studio\2022\Community\VC\Tools\MSVC\14.44.35207\include\vector

; 2090 :         if (_Myfirst) { // destroy and deallocate old array

  009e7	8b b5 98 fe ff
	ff		 mov	 esi, DWORD PTR _stVec$5[ebp]
  009ed	85 f6		 test	 esi, esi
  009ef	74 5e		 je	 SHORT $LN892@RunMainScr

; 2091 :             _STD _Destroy_range(_Myfirst, _Mylast, _Al);

  009f1	8b bd 9c fe ff
	ff		 mov	 edi, DWORD PTR _stVec$5[ebp+4]
  009f7	3b f7		 cmp	 esi, edi
; File C:\Program Files\Microsoft Visual Studio\2022\Community\VC\Tools\MSVC\14.44.35207\include\xmemory

; 1102 :         for (; _First != _Last; ++_First) {

  009f9	74 19		 je	 SHORT $LN871@RunMainScr
  009fb	0f 1f 44 00 00	 npad	 5
$LL872@RunMainScr:
; File C:\Program Files\Microsoft Visual Studio\2022\Community\VC\Tools\MSVC\14.44.35207\include\xstring

; 1383 :         _Tidy_deallocate();

  00a00	8b ce		 mov	 ecx, esi
  00a02	e8 00 00 00 00	 call	 ?_Tidy_deallocate@?$basic_string@DU?$char_traits@D@std@@V?$allocator@D@2@@std@@AAEXXZ ; std::basic_string<char,std::char_traits<char>,std::allocator<char> >::_Tidy_deallocate
; File C:\Program Files\Microsoft Visual Studio\2022\Community\VC\Tools\MSVC\14.44.35207\include\xmemory

; 1102 :         for (; _First != _Last; ++_First) {

  00a07	83 c6 18	 add	 esi, 24			; 00000018H
  00a0a	3b f7		 cmp	 esi, edi
  00a0c	75 f2		 jne	 SHORT $LL872@RunMainScr
  00a0e	8b b5 98 fe ff
	ff		 mov	 esi, DWORD PTR _stVec$5[ebp]
$LN871@RunMainScr:
; File C:\Program Files\Microsoft Visual Studio\2022\Community\VC\Tools\MSVC\14.44.35207\include\vector

; 2093 :             _Al.deallocate(_Myfirst, static_cast<size_type>(_Myend - _Myfirst));

  00a14	8b 85 a0 fe ff
	ff		 mov	 eax, DWORD PTR _stVec$5[ebp+8]
  00a1a	2b c6		 sub	 eax, esi
  00a1c	c1 f8 03	 sar	 eax, 3
  00a1f	69 c0 ab aa aa
	aa		 imul	 eax, eax, -1431655765
; File C:\Program Files\Microsoft Visual Studio\2022\Community\VC\Tools\MSVC\14.44.35207\include\xmemory

; 985  :         _STD _Deallocate<_New_alignof<_Ty>>(_Ptr, sizeof(_Ty) * _Count);

  00a25	8d 0c 40	 lea	 ecx, DWORD PTR [eax+eax*2]
  00a28	8b c6		 mov	 eax, esi
  00a2a	c1 e1 03	 shl	 ecx, 3

; 284  :         if (_Bytes >= _Big_allocation_threshold) {

  00a2d	81 f9 00 10 00
	00		 cmp	 ecx, 4096		; 00001000H
  00a33	72 10		 jb	 SHORT $LN900@RunMainScr

; 205  :     const uintptr_t _Ptr_container   = _Ptr_user[-1];

  00a35	8b 70 fc	 mov	 esi, DWORD PTR [eax-4]
  00a38	83 c1 23	 add	 ecx, 35			; 00000023H
  00a3b	2b c6		 sub	 eax, esi

; 219  :     _STL_VERIFY(_Back_shift >= _Min_back_shift && _Back_shift <= _Non_user_size, "invalid argument");

  00a3d	83 c0 fc	 add	 eax, -4			; fffffffcH
  00a40	83 f8 1f	 cmp	 eax, 31			; 0000001fH
  00a43	77 50		 ja	 SHORT $LN899@RunMainScr
$LN900@RunMainScr:

; 289  :         ::operator delete(_Ptr, _Bytes);

  00a45	51		 push	 ecx
  00a46	56		 push	 esi
  00a47	e8 00 00 00 00	 call	 ??3@YAXPAXI@Z		; operator delete
  00a4c	83 c4 08	 add	 esp, 8
$LN892@RunMainScr:
; File D:\_m2work\txoko-m2-work\txoko-client-src\source\UserInterface\UserInterface.cpp

; 356  : 	NANOEND

  00a4f	eb		 DB	 -21			; ffffffebH
  00a50	03		 DB	 3
  00a51	d6		 DB	 -42			; ffffffd6H
  00a52	d7		 DB	 -41			; ffffffd7H
  00a53	00		 DB	 0
  00a54	b0 01		 mov	 al, 1
$LN1@RunMainScr:

; 358  : }

  00a56	8b 4d f4	 mov	 ecx, DWORD PTR __$EHRec$[ebp]
  00a59	64 89 0d 00 00
	00 00		 mov	 DWORD PTR fs:0, ecx
  00a60	59		 pop	 ecx
  00a61	5f		 pop	 edi
  00a62	5e		 pop	 esi
  00a63	5b		 pop	 ebx
  00a64	8b 4d f0	 mov	 ecx, DWORD PTR __$ArrayPad$[ebp]
  00a67	33 cd		 xor	 ecx, ebp
  00a69	e8 00 00 00 00	 call	 @__security_check_cookie@4
  00a6e	8b e5		 mov	 esp, ebp
  00a70	5d		 pop	 ebp
  00a71	c3		 ret	 0
$LN208@RunMainScr:
; File C:\Program Files\Microsoft Visual Studio\2022\Community\VC\Tools\MSVC\14.44.35207\include\xmemory

; 219  :     _STL_VERIFY(_Back_shift >= _Min_back_shift && _Back_shift <= _Non_user_size, "invalid argument");

  00a72	6a 00		 push	 0
  00a74	6a 00		 push	 0
  00a76	6a 00		 push	 0
  00a78	6a 00		 push	 0
  00a7a	6a 00		 push	 0
  00a7c	e8 00 00 00 00	 call	 __invoke_watson
$LN1146@RunMainScr:
; File C:\Program Files\Microsoft Visual Studio\2022\Community\VC\Tools\MSVC\14.44.35207\include\xstring

; 3030 :             _Xlen_string(); // result too long

  00a81	e8 00 00 00 00	 call	 ?_Xlen_string@std@@YAXXZ ; std::_Xlen_string
$LN549@RunMainScr:
; File C:\Program Files\Microsoft Visual Studio\2022\Community\VC\Tools\MSVC\14.44.35207\include\xmemory

; 219  :     _STL_VERIFY(_Back_shift >= _Min_back_shift && _Back_shift <= _Non_user_size, "invalid argument");

  00a86	6a 00		 push	 0
  00a88	6a 00		 push	 0
  00a8a	6a 00		 push	 0
  00a8c	6a 00		 push	 0
  00a8e	6a 00		 push	 0
  00a90	e8 00 00 00 00	 call	 __invoke_watson
$LN899@RunMainScr:
  00a95	6a 00		 push	 0
  00a97	6a 00		 push	 0
  00a99	6a 00		 push	 0
  00a9b	6a 00		 push	 0
  00a9d	6a 00		 push	 0
  00a9f	e8 00 00 00 00	 call	 __invoke_watson
$LN1138@RunMainScr:
  00aa4	cc		 int	 3
_TEXT	ENDS
;	COMDAT text$x
text$x	SEGMENT
__unwindfunclet$?RunMainScript@@YA_NAAVCPythonLauncher@@PBD@Z$0:
  00000	8d 8d d4 fe ff
	ff		 lea	 ecx, DWORD PTR _stRegisterDebugFlag$9[ebp]
  00006	e9 00 00 00 00	 jmp	 ??1?$basic_string@DU?$char_traits@D@std@@V?$allocator@D@2@@std@@QAE@XZ ; std::basic_string<char,std::char_traits<char>,std::allocator<char> >::~basic_string<char,std::char_traits<char>,std::allocator<char> >
__unwindfunclet$?RunMainScript@@YA_NAAVCPythonLauncher@@PBD@Z$1:
  0000b	8d 8d bc fe ff
	ff		 lea	 ecx, DWORD PTR _stRegisterCmdLine$8[ebp]
  00011	e9 00 00 00 00	 jmp	 ??1?$basic_string@DU?$char_traits@D@std@@V?$allocator@D@2@@std@@QAE@XZ ; std::basic_string<char,std::char_traits<char>,std::allocator<char> >::~basic_string<char,std::char_traits<char>,std::allocator<char> >
__unwindfunclet$?RunMainScript@@YA_NAAVCPythonLauncher@@PBD@Z$2:
  00016	8d 8d d4 fe ff
	ff		 lea	 ecx, DWORD PTR _stCmdLine$10[ebp]
  0001c	e9 00 00 00 00	 jmp	 ??1?$basic_string@DU?$char_traits@D@std@@V?$allocator@D@2@@std@@QAE@XZ ; std::basic_string<char,std::char_traits<char>,std::allocator<char> >::~basic_string<char,std::char_traits<char>,std::allocator<char> >
__unwindfunclet$?RunMainScript@@YA_NAAVCPythonLauncher@@PBD@Z$3:
  00021	8d 8d 98 fe ff
	ff		 lea	 ecx, DWORD PTR _stVec$4[ebp]
  00027	e9 00 00 00 00	 jmp	 ??1?$vector@V?$basic_string@DU?$char_traits@D@std@@V?$allocator@D@2@@std@@V?$allocator@V?$basic_string@DU?$char_traits@D@std@@V?$allocator@D@2@@std@@@2@@std@@QAE@XZ ; std::vector<std::basic_string<char,std::char_traits<char>,std::allocator<char> >,std::allocator<std::basic_string<char,std::char_traits<char>,std::allocator<char> > > >::~vector<std::basic_string<char,std::char_traits<char>,std::allocator<char> >,std::allocator<std::basic_string<char,std::char_traits<char>,std::allocator<char> > > >
__unwindfunclet$?RunMainScript@@YA_NAAVCPythonLauncher@@PBD@Z$4:
  0002c	8d 8d a4 fe ff
	ff		 lea	 ecx, DWORD PTR $T6[ebp]
  00032	e9 00 00 00 00	 jmp	 ??1?$basic_string@DU?$char_traits@D@std@@V?$allocator@D@2@@std@@QAE@XZ ; std::basic_string<char,std::char_traits<char>,std::allocator<char> >::~basic_string<char,std::char_traits<char>,std::allocator<char> >
__unwindfunclet$?RunMainScript@@YA_NAAVCPythonLauncher@@PBD@Z$5:
  00037	8d 8d a4 fe ff
	ff		 lea	 ecx, DWORD PTR $T7[ebp]
  0003d	e9 00 00 00 00	 jmp	 ??1?$basic_string@DU?$char_traits@D@std@@V?$allocator@D@2@@std@@QAE@XZ ; std::basic_string<char,std::char_traits<char>,std::allocator<char> >::~basic_string<char,std::char_traits<char>,std::allocator<char> >
__unwindfunclet$?RunMainScript@@YA_NAAVCPythonLauncher@@PBD@Z$6:
  00042	8d 8d 98 fe ff
	ff		 lea	 ecx, DWORD PTR _stVec$5[ebp]
  00048	e9 00 00 00 00	 jmp	 ??1?$vector@V?$basic_string@DU?$char_traits@D@std@@V?$allocator@D@2@@std@@V?$allocator@V?$basic_string@DU?$char_traits@D@std@@V?$allocator@D@2@@std@@@2@@std@@QAE@XZ ; std::vector<std::basic_string<char,std::char_traits<char>,std::allocator<char> >,std::allocator<std::basic_string<char,std::char_traits<char>,std::allocator<char> > > >::~vector<std::basic_string<char,std::char_traits<char>,std::allocator<char> >,std::allocator<std::basic_string<char,std::char_traits<char>,std::allocator<char> > > >
  0004d	cc		 int	 3
  0004e	cc		 int	 3
  0004f	cc		 int	 3
  00050	cc		 int	 3
  00051	cc		 int	 3
__ehhandler$?RunMainScript@@YA_NAAVCPythonLauncher@@PBD@Z:
  00052	90		 npad	 1
  00053	90		 npad	 1
  00054	8b 54 24 08	 mov	 edx, DWORD PTR [esp+8]
  00058	8d 42 0c	 lea	 eax, DWORD PTR [edx+12]
  0005b	8b 8a 80 fe ff
	ff		 mov	 ecx, DWORD PTR [edx-384]
  00061	33 c8		 xor	 ecx, eax
  00063	e8 00 00 00 00	 call	 @__security_check_cookie@4
  00068	8b 4a fc	 mov	 ecx, DWORD PTR [edx-4]
  0006b	33 c8		 xor	 ecx, eax
  0006d	e8 00 00 00 00	 call	 @__security_check_cookie@4
  00072	b8 00 00 00 00	 mov	 eax, OFFSET __ehfuncinfo$?RunMainScript@@YA_NAAVCPythonLauncher@@PBD@Z
  00077	e9 00 00 00 00	 jmp	 ___CxxFrameHandler3
text$x	ENDS
?RunMainScript@@YA_NAAVCPythonLauncher@@PBD@Z ENDP	; RunMainScript
; Function compile flags: /Ogtp
; File D:\_m2work\txoko-m2-work\txoko-client-src\source\UserInterface\UserInterface.cpp
; File C:\Program Files (x86)\Windows Kits\10\Include\10.0.26100.0\ucrt\time.h
; File D:\_m2work\txoko-m2-work\txoko-client-src\source\UserInterface\UserInterface.cpp
;	COMDAT ?Main@@YA_NPAUHINSTANCE__@@PAD@Z
_TEXT	SEGMENT
$T2 = -68						; size = 4
_pyLauncher$3 = -64					; size = 12
_pyExceptionSender$4 = -52				; size = 36
__$ArrayPad$ = -16					; size = 4
__$EHRec$ = -12						; size = 12
?Main@@YA_NPAUHINSTANCE__@@PAD@Z PROC			; Main, COMDAT
; _hInstance$ = ecx
; _lpCmdLine$ = edx

; 361  : {

  00000	55		 push	 ebp
  00001	8b ec		 mov	 ebp, esp
  00003	6a ff		 push	 -1
  00005	68 00 00 00 00	 push	 __ehhandler$?Main@@YA_NPAUHINSTANCE__@@PAD@Z
  0000a	64 a1 00 00 00
	00		 mov	 eax, DWORD PTR fs:0
  00010	50		 push	 eax
  00011	83 ec 38	 sub	 esp, 56			; 00000038H
  00014	a1 00 00 00 00	 mov	 eax, DWORD PTR ___security_cookie
  00019	33 c5		 xor	 eax, ebp
  0001b	89 45 f0	 mov	 DWORD PTR __$ArrayPad$[ebp], eax
  0001e	53		 push	 ebx
  0001f	56		 push	 esi
  00020	57		 push	 edi
  00021	50		 push	 eax
  00022	8d 45 f4	 lea	 eax, DWORD PTR __$EHRec$[ebp]
  00025	64 a3 00 00 00
	00		 mov	 DWORD PTR fs:0, eax
  0002b	8b fa		 mov	 edi, edx
  0002d	8b d9		 mov	 ebx, ecx
; File C:\Program Files (x86)\Windows Kits\10\Include\10.0.26100.0\ucrt\time.h

; 428  :             return _time32(_Time);

  0002f	6a 00		 push	 0
  00031	e8 00 00 00 00	 call	 __time32
  00036	83 c4 04	 add	 esp, 4
  00039	8b f0		 mov	 esi, eax
; File D:\_m2work\txoko-m2-work\txoko-client-src\source\UserInterface\UserInterface.cpp

; 367  : 	DWORD dwRandSeed=time(NULL)+DWORD(GetCurrentProcess());

  0003b	ff 15 00 00 00
	00		 call	 DWORD PTR __imp__GetCurrentProcess@0
  00041	03 c6		 add	 eax, esi

; 368  : 	srandom(dwRandSeed);

  00043	50		 push	 eax
  00044	e8 00 00 00 00	 call	 ?srandom@@YAXK@Z	; srandom

; 369  : 	srand(random());

  00049	e8 00 00 00 00	 call	 ?random@@YAKXZ		; random
  0004e	50		 push	 eax
  0004f	e8 00 00 00 00	 call	 _srand

; 370  : 
; 371  : 	SetLogLevel(1);

  00054	6a 01		 push	 1
  00056	e8 00 00 00 00	 call	 ?SetLogLevel@@YAXI@Z	; SetLogLevel

; 372  : 
; 373  : #ifdef LOCALE_SERVICE_VIETNAM_MILD
; 374  : 	extern BOOL USE_VIETNAM_CONVERT_WEAPON_VNUM;
; 375  : 	USE_VIETNAM_CONVERT_WEAPON_VNUM = true;
; 376  : #endif
; 377  : 
; 378  : 	if (_access("perf_game_update.txt", 0)==0)

  0005b	6a 00		 push	 0
  0005d	68 00 00 00 00	 push	 OFFSET ??_C@_0BF@NHIIGIH@perf_game_update?4txt@
  00062	e8 00 00 00 00	 call	 __access
  00067	83 c4 14	 add	 esp, 20			; 00000014H
  0006a	85 c0		 test	 eax, eax
  0006c	75 0b		 jne	 SHORT $LN4@Main

; 379  : 	{
; 380  : 		DeleteFile("perf_game_update.txt");

  0006e	68 00 00 00 00	 push	 OFFSET ??_C@_0BF@NHIIGIH@perf_game_update?4txt@
  00073	ff 15 00 00 00
	00		 call	 DWORD PTR __imp__DeleteFileA@4
$LN4@Main:

; 381  : 	}
; 382  : 
; 383  : 	if (_access("newpatch.exe", 0)==0)

  00079	6a 00		 push	 0
  0007b	68 00 00 00 00	 push	 OFFSET ??_C@_0N@JIKFFHPP@newpatch?4exe@
  00080	e8 00 00 00 00	 call	 __access
  00085	83 c4 08	 add	 esp, 8
  00088	85 c0		 test	 eax, eax
  0008a	75 14		 jne	 SHORT $LN5@Main

; 384  : 	{		
; 385  : 		system("patchupdater.exe");

  0008c	68 00 00 00 00	 push	 OFFSET ??_C@_0BB@LLCBDFGP@patchupdater?4exe@
  00091	e8 00 00 00 00	 call	 _system
  00096	83 c4 04	 add	 esp, 4
$LN23@Main:

; 441  : }

  00099	32 c0		 xor	 al, al
  0009b	e9 33 01 00 00	 jmp	 $LN1@Main
$LN5@Main:

; 386  : 		return false;
; 387  : 	}
; 388  : #ifndef __VTUNE__
; 389  : 	ilInit();

  000a0	ff 15 00 00 00
	00		 call	 DWORD PTR __imp__ilInit@0

; 390  : #endif
; 391  : 	if (!Setup(lpCmdLine))

  000a6	e8 00 00 00 00	 call	 ?Setup@@YAHPAD@Z	; Setup
  000ab	85 c0		 test	 eax, eax
  000ad	74 ea		 je	 SHORT $LN23@Main

; 392  : 		return false;
; 393  : 
; 394  : #ifdef _DEBUG
; 395  : 	OpenConsoleWindow();
; 396  : 	OpenLogFile(true); // true == uses syserr.txt and log.txt
; 397  : #else
; 398  : 	OpenLogFile(false); // false == uses syserr.txt only

  000af	6a 00		 push	 0
  000b1	e8 00 00 00 00	 call	 ?OpenLogFile@@YAX_N@Z	; OpenLogFile

; 399  : #endif
; 400  : 
; 401  : 	static CLZO				lzo;

  000b6	64 a1 00 00 00
	00		 mov	 eax, DWORD PTR fs:__tls_array
  000bc	83 c4 04	 add	 esp, 4
  000bf	8b 30		 mov	 esi, DWORD PTR [eax]
  000c1	a1 00 00 00 00	 mov	 eax, DWORD PTR ?$TSS0@?1??Main@@YA_NPAUHINSTANCE__@@PAD@Z@4HA
  000c6	3b 86 00 00 00
	00		 cmp	 eax, DWORD PTR __Init_thread_epoch[esi]
  000cc	0f 8f 1d 01 00
	00		 jg	 $LN25@Main
$LN2@Main:

; 402  : 	static CEterPackManager	EterPackManager;

  000d2	a1 00 00 00 00	 mov	 eax, DWORD PTR ?$TSS1@?1??Main@@YA_NPAUHINSTANCE__@@PAD@Z@4HA
  000d7	3b 86 00 00 00
	00		 cmp	 eax, DWORD PTR __Init_thread_epoch[esi]
  000dd	0f 8f 5a 01 00
	00		 jg	 $LN26@Main
$LN3@Main:

; 403  : 
; 404  : 	if (!PackInitialize("pack"))

  000e3	e8 00 00 00 00	 call	 ?PackInitialize@@YA_NPBD@Z ; PackInitialize
  000e8	84 c0		 test	 al, al
  000ea	75 18		 jne	 SHORT $LN7@Main

; 405  : 	{
; 406  : 		LogBox("Pack Initialization failed. Check log.txt file..");

  000ec	6a 00		 push	 0
  000ee	6a 00		 push	 0
  000f0	68 00 00 00 00	 push	 OFFSET ??_C@_0DB@BGMLOPGB@Pack?5Initialization?5failed?4?5Che@
  000f5	e8 00 00 00 00	 call	 ?LogBox@@YAXPBD0PAUHWND__@@@Z ; LogBox
  000fa	83 c4 0c	 add	 esp, 12			; 0000000cH

; 407  : 		return false;

  000fd	32 c0		 xor	 al, al
  000ff	e9 cf 00 00 00	 jmp	 $LN1@Main
$LN7@Main:

; 408  : 	}
; 409  : 
; 410  : 	if(LocaleService_LoadGlobal(hInstance))

  00104	e8 00 00 00 00	 call	 ?LocaleService_LoadGlobal@@YA_NPAUHINSTANCE__@@@Z ; LocaleService_LoadGlobal
  00109	84 c0		 test	 al, al
  0010b	74 0e		 je	 SHORT $LN8@Main

; 411  : 		SetDefaultCodePage(LocaleService_GetCodePage());

  0010d	e8 00 00 00 00	 call	 ?LocaleService_GetCodePage@@YAIXZ ; LocaleService_GetCodePage
  00112	50		 push	 eax
  00113	e8 00 00 00 00	 call	 ?SetDefaultCodePage@@YA_NK@Z ; SetDefaultCodePage
  00118	83 c4 04	 add	 esp, 4
$LN8@Main:

; 412  : 
; 413  : 	CPythonApplication * app = new CPythonApplication;

  0011b	68 e8 fe 01 00	 push	 130792			; 0001fee8H
  00120	e8 00 00 00 00	 call	 ??2@YAPAXI@Z		; operator new
  00125	83 c4 04	 add	 esp, 4
  00128	89 45 bc	 mov	 DWORD PTR $T2[ebp], eax
  0012b	8b c8		 mov	 ecx, eax
  0012d	c7 45 fc 02 00
	00 00		 mov	 DWORD PTR __$EHRec$[ebp+8], 2
  00134	e8 00 00 00 00	 call	 ??0CPythonApplication@@QAE@XZ ; CPythonApplication::CPythonApplication
  00139	8b f0		 mov	 esi, eax
  0013b	c7 45 fc ff ff
	ff ff		 mov	 DWORD PTR __$EHRec$[ebp+8], -1

; 414  : 
; 415  : 	app->Initialize(hInstance);

  00142	53		 push	 ebx
  00143	8b ce		 mov	 ecx, esi
  00145	e8 00 00 00 00	 call	 ?Initialize@CMSApplication@@QAEXPAUHINSTANCE__@@@Z ; CMSApplication::Initialize

; 416  : 
; 417  : 	bool ret=false;
; 418  : 	{
; 419  : 		CPythonLauncher pyLauncher;

  0014a	8d 4d c0	 lea	 ecx, DWORD PTR _pyLauncher$3[ebp]
  0014d	32 db		 xor	 bl, bl
  0014f	e8 00 00 00 00	 call	 ??0CPythonLauncher@@QAE@XZ ; CPythonLauncher::CPythonLauncher

; 420  : 		CPythonExceptionSender pyExceptionSender;

  00154	8d 4d cc	 lea	 ecx, DWORD PTR _pyExceptionSender$4[ebp]
  00157	c7 45 fc 03 00
	00 00		 mov	 DWORD PTR __$EHRec$[ebp+8], 3
  0015e	e8 00 00 00 00	 call	 ??0CPythonExceptionSender@@QAE@XZ ; CPythonExceptionSender::CPythonExceptionSender

; 421  : 		SetExceptionSender(&pyExceptionSender);

  00163	8d 45 cc	 lea	 eax, DWORD PTR _pyExceptionSender$4[ebp]
  00166	c6 45 fc 04	 mov	 BYTE PTR __$EHRec$[ebp+8], 4
  0016a	50		 push	 eax
  0016b	e8 00 00 00 00	 call	 ?SetExceptionSender@@YAXPAVIPythonExceptionSender@@@Z ; SetExceptionSender
  00170	83 c4 04	 add	 esp, 4

; 422  : 
; 423  : 		if (pyLauncher.Create())

  00173	8d 4d c0	 lea	 ecx, DWORD PTR _pyLauncher$3[ebp]
  00176	68 00 00 00 00	 push	 OFFSET ??_C@_0M@PFDHIIAP@eter?4python@
  0017b	e8 00 00 00 00	 call	 ?Create@CPythonLauncher@@QAE_NPBD@Z ; CPythonLauncher::Create
  00180	84 c0		 test	 al, al
  00182	74 0c		 je	 SHORT $LN9@Main

; 424  : 		{
; 425  : 			ret=RunMainScript(pyLauncher, lpCmdLine);	//    .

  00184	8b d7		 mov	 edx, edi
  00186	8d 4d c0	 lea	 ecx, DWORD PTR _pyLauncher$3[ebp]
  00189	e8 00 00 00 00	 call	 ?RunMainScript@@YA_NAAVCPythonLauncher@@PBD@Z ; RunMainScript
  0018e	8a d8		 mov	 bl, al
$LN9@Main:

; 426  : 		}
; 427  : 
; 428  : 		//ProcessScanner_ReleaseQuitEvent();
; 429  : 		
; 430  : 		// .
; 431  : 		app->Clear();

  00190	8b ce		 mov	 ecx, esi
  00192	e8 00 00 00 00	 call	 ?Clear@CPythonApplication@@QAEXXZ ; CPythonApplication::Clear

; 432  : 
; 433  : 		timeEndPeriod(1);

  00197	6a 01		 push	 1
  00199	ff 15 00 00 00
	00		 call	 DWORD PTR __imp__timeEndPeriod@4

; 434  : 		pyLauncher.Clear();

  0019f	8d 4d c0	 lea	 ecx, DWORD PTR _pyLauncher$3[ebp]
  001a2	e8 00 00 00 00	 call	 ?Clear@CPythonLauncher@@QAEXXZ ; CPythonLauncher::Clear

; 435  : 	}

  001a7	8d 4d cc	 lea	 ecx, DWORD PTR _pyExceptionSender$4[ebp]
  001aa	e8 00 00 00 00	 call	 ??1CPythonExceptionSender@@UAE@XZ ; CPythonExceptionSender::~CPythonExceptionSender
  001af	8d 4d c0	 lea	 ecx, DWORD PTR _pyLauncher$3[ebp]
  001b2	c7 45 fc ff ff
	ff ff		 mov	 DWORD PTR __$EHRec$[ebp+8], -1
  001b9	e8 00 00 00 00	 call	 ??1CPythonLauncher@@UAE@XZ ; CPythonLauncher::~CPythonLauncher

; 436  : 
; 437  : 	app->Destroy();

  001be	8b ce		 mov	 ecx, esi
  001c0	e8 00 00 00 00	 call	 ?Destroy@CPythonApplication@@QAEXXZ ; CPythonApplication::Destroy

; 438  : 	delete app;

  001c5	85 f6		 test	 esi, esi
  001c7	74 08		 je	 SHORT $LN13@Main
  001c9	8b 06		 mov	 eax, DWORD PTR [esi]
  001cb	8b ce		 mov	 ecx, esi
  001cd	6a 01		 push	 1
  001cf	ff 10		 call	 DWORD PTR [eax]
$LN13@Main:

; 439  : 	
; 440  : 	return ret;

  001d1	8a c3		 mov	 al, bl
$LN1@Main:

; 441  : }

  001d3	8b 4d f4	 mov	 ecx, DWORD PTR __$EHRec$[ebp]
  001d6	64 89 0d 00 00
	00 00		 mov	 DWORD PTR fs:0, ecx
  001dd	59		 pop	 ecx
  001de	5f		 pop	 edi
  001df	5e		 pop	 esi
  001e0	5b		 pop	 ebx
  001e1	8b 4d f0	 mov	 ecx, DWORD PTR __$ArrayPad$[ebp]
  001e4	33 cd		 xor	 ecx, ebp
  001e6	e8 00 00 00 00	 call	 @__security_check_cookie@4
  001eb	8b e5		 mov	 esp, ebp
  001ed	5d		 pop	 ebp
  001ee	c3		 ret	 0
$LN25@Main:

; 399  : #endif
; 400  : 
; 401  : 	static CLZO				lzo;

  001ef	68 00 00 00 00	 push	 OFFSET ?$TSS0@?1??Main@@YA_NPAUHINSTANCE__@@PAD@Z@4HA
  001f4	e8 00 00 00 00	 call	 __Init_thread_header
  001f9	83 c4 04	 add	 esp, 4
  001fc	83 3d 00 00 00
	00 ff		 cmp	 DWORD PTR ?$TSS0@?1??Main@@YA_NPAUHINSTANCE__@@PAD@Z@4HA, -1
  00203	0f 85 c9 fe ff
	ff		 jne	 $LN2@Main
  00209	b9 00 00 00 00	 mov	 ecx, OFFSET ?lzo@?1??Main@@YA_NPAUHINSTANCE__@@PAD@Z@4VCLZO@@A
  0020e	c7 45 fc 00 00
	00 00		 mov	 DWORD PTR __$EHRec$[ebp+8], 0
  00215	e8 00 00 00 00	 call	 ??0CLZO@@QAE@XZ		; CLZO::CLZO
  0021a	68 00 00 00 00	 push	 OFFSET ??__Flzo@?1??Main@@YA_NPAUHINSTANCE__@@PAD@Z@YAXXZ ; `Main'::`2'::`dynamic atexit destructor for 'lzo''
  0021f	e8 00 00 00 00	 call	 _atexit
  00224	68 00 00 00 00	 push	 OFFSET ?$TSS0@?1??Main@@YA_NPAUHINSTANCE__@@PAD@Z@4HA
  00229	c7 45 fc ff ff
	ff ff		 mov	 DWORD PTR __$EHRec$[ebp+8], -1
  00230	e8 00 00 00 00	 call	 __Init_thread_footer
  00235	83 c4 08	 add	 esp, 8
  00238	e9 95 fe ff ff	 jmp	 $LN2@Main
$LN26@Main:

; 402  : 	static CEterPackManager	EterPackManager;

  0023d	68 00 00 00 00	 push	 OFFSET ?$TSS1@?1??Main@@YA_NPAUHINSTANCE__@@PAD@Z@4HA
  00242	e8 00 00 00 00	 call	 __Init_thread_header
  00247	83 c4 04	 add	 esp, 4
  0024a	83 3d 00 00 00
	00 ff		 cmp	 DWORD PTR ?$TSS1@?1??Main@@YA_NPAUHINSTANCE__@@PAD@Z@4HA, -1
  00251	0f 85 8c fe ff
	ff		 jne	 $LN3@Main
  00257	b9 00 00 00 00	 mov	 ecx, OFFSET ?EterPackManager@?1??Main@@YA_NPAUHINSTANCE__@@PAD@Z@4VCEterPackManager@@A
  0025c	c7 45 fc 01 00
	00 00		 mov	 DWORD PTR __$EHRec$[ebp+8], 1
  00263	e8 00 00 00 00	 call	 ??0CEterPackManager@@QAE@XZ ; CEterPackManager::CEterPackManager
  00268	68 00 00 00 00	 push	 OFFSET ??__FEterPackManager@?1??Main@@YA_NPAUHINSTANCE__@@PAD@Z@YAXXZ ; `Main'::`2'::`dynamic atexit destructor for 'EterPackManager''
  0026d	e8 00 00 00 00	 call	 _atexit
  00272	68 00 00 00 00	 push	 OFFSET ?$TSS1@?1??Main@@YA_NPAUHINSTANCE__@@PAD@Z@4HA
  00277	c7 45 fc ff ff
	ff ff		 mov	 DWORD PTR __$EHRec$[ebp+8], -1
  0027e	e8 00 00 00 00	 call	 __Init_thread_footer
  00283	83 c4 08	 add	 esp, 8
  00286	e9 58 fe ff ff	 jmp	 $LN3@Main
_TEXT	ENDS
;	COMDAT text$x
text$x	SEGMENT
__unwindfunclet$?Main@@YA_NPAUHINSTANCE__@@PAD@Z$2:
  00000	68 e8 fe 01 00	 push	 130792			; 0001fee8H
  00005	8b 45 bc	 mov	 eax, DWORD PTR $T2[ebp]
  00008	50		 push	 eax
  00009	e8 00 00 00 00	 call	 ??3@YAXPAXI@Z		; operator delete
  0000e	83 c4 08	 add	 esp, 8
  00011	c3		 ret	 0
__unwindfunclet$?Main@@YA_NPAUHINSTANCE__@@PAD@Z$3:
  00012	8d 4d c0	 lea	 ecx, DWORD PTR _pyLauncher$3[ebp]
  00015	e9 00 00 00 00	 jmp	 ??1CPythonLauncher@@UAE@XZ ; CPythonLauncher::~CPythonLauncher
__unwindfunclet$?Main@@YA_NPAUHINSTANCE__@@PAD@Z$4:
  0001a	8d 4d cc	 lea	 ecx, DWORD PTR _pyExceptionSender$4[ebp]
  0001d	e9 00 00 00 00	 jmp	 ??1CPythonExceptionSender@@UAE@XZ ; CPythonExceptionSender::~CPythonExceptionSender
__unwindfunclet$?Main@@YA_NPAUHINSTANCE__@@PAD@Z$0:
  00022	68 00 00 00 00	 push	 OFFSET ?$TSS0@?1??Main@@YA_NPAUHINSTANCE__@@PAD@Z@4HA
  00027	e8 00 00 00 00	 call	 __Init_thread_abort
  0002c	59		 pop	 ecx
  0002d	c3		 ret	 0
__unwindfunclet$?Main@@YA_NPAUHINSTANCE__@@PAD@Z$1:
  0002e	68 00 00 00 00	 push	 OFFSET ?$TSS1@?1??Main@@YA_NPAUHINSTANCE__@@PAD@Z@4HA
  00033	e8 00 00 00 00	 call	 __Init_thread_abort
  00038	59		 pop	 ecx
  00039	c3		 ret	 0
  0003a	cc		 int	 3
  0003b	cc		 int	 3
  0003c	cc		 int	 3
  0003d	cc		 int	 3
  0003e	cc		 int	 3
__ehhandler$?Main@@YA_NPAUHINSTANCE__@@PAD@Z:
  0003f	90		 npad	 1
  00040	90		 npad	 1
  00041	8b 54 24 08	 mov	 edx, DWORD PTR [esp+8]
  00045	8d 42 0c	 lea	 eax, DWORD PTR [edx+12]
  00048	8b 4a b8	 mov	 ecx, DWORD PTR [edx-72]
  0004b	33 c8		 xor	 ecx, eax
  0004d	e8 00 00 00 00	 call	 @__security_check_cookie@4
  00052	8b 4a fc	 mov	 ecx, DWORD PTR [edx-4]
  00055	33 c8		 xor	 ecx, eax
  00057	e8 00 00 00 00	 call	 @__security_check_cookie@4
  0005c	b8 00 00 00 00	 mov	 eax, OFFSET __ehfuncinfo$?Main@@YA_NPAUHINSTANCE__@@PAD@Z
  00061	e9 00 00 00 00	 jmp	 ___CxxFrameHandler3
text$x	ENDS
?Main@@YA_NPAUHINSTANCE__@@PAD@Z ENDP			; Main
; Function compile flags: /Ogtp
;	COMDAT ??__FEterPackManager@?1??Main@@YA_NPAUHINSTANCE__@@PAD@Z@YAXXZ
text$yd	SEGMENT
??__FEterPackManager@?1??Main@@YA_NPAUHINSTANCE__@@PAD@Z@YAXXZ PROC ; `Main'::`2'::`dynamic atexit destructor for 'EterPackManager'', COMDAT
  00000	b9 00 00 00 00	 mov	 ecx, OFFSET ?EterPackManager@?1??Main@@YA_NPAUHINSTANCE__@@PAD@Z@4VCEterPackManager@@A
  00005	e9 00 00 00 00	 jmp	 ??1CEterPackManager@@UAE@XZ ; CEterPackManager::~CEterPackManager
??__FEterPackManager@?1??Main@@YA_NPAUHINSTANCE__@@PAD@Z@YAXXZ ENDP ; `Main'::`2'::`dynamic atexit destructor for 'EterPackManager''
text$yd	ENDS
; Function compile flags: /Ogtp
;	COMDAT ??__Flzo@?1??Main@@YA_NPAUHINSTANCE__@@PAD@Z@YAXXZ
text$yd	SEGMENT
??__Flzo@?1??Main@@YA_NPAUHINSTANCE__@@PAD@Z@YAXXZ PROC	; `Main'::`2'::`dynamic atexit destructor for 'lzo'', COMDAT
  00000	b9 00 00 00 00	 mov	 ecx, OFFSET ?lzo@?1??Main@@YA_NPAUHINSTANCE__@@PAD@Z@4VCLZO@@A
  00005	e9 00 00 00 00	 jmp	 ??1CLZO@@UAE@XZ		; CLZO::~CLZO
??__Flzo@?1??Main@@YA_NPAUHINSTANCE__@@PAD@Z@YAXXZ ENDP	; `Main'::`2'::`dynamic atexit destructor for 'lzo''
text$yd	ENDS
; Function compile flags: /Ogtp
; File D:\_m2work\txoko-m2-work\txoko-client-src\source\UserInterface\UserInterface.cpp
;	COMDAT ?__ErrorPythonLibraryIsNotExist@@YAXXZ
_TEXT	SEGMENT
?__ErrorPythonLibraryIsNotExist@@YAXXZ PROC		; __ErrorPythonLibraryIsNotExist, COMDAT

; 465  : 	LogBoxf("FATAL ERROR!! Python Library file not exist!");

  00000	68 00 00 00 00	 push	 OFFSET ??_C@_0CN@OHDPHKKH@FATAL?5ERROR?$CB?$CB?5Python?5Library?5fi@
  00005	e8 00 00 00 00	 call	 ?LogBoxf@@YAXPBDZZ	; LogBoxf
  0000a	59		 pop	 ecx

; 466  : }

  0000b	c3		 ret	 0
?__ErrorPythonLibraryIsNotExist@@YAXXZ ENDP		; __ErrorPythonLibraryIsNotExist
_TEXT	ENDS
; Function compile flags: /Ogtp
; File D:\_m2work\txoko-m2-work\txoko-client-src\source\UserInterface\UserInterface.cpp
;	COMDAT ?__IsTimeStampOption@@YA_NPAD@Z
_TEXT	SEGMENT
?__IsTimeStampOption@@YA_NPAD@Z PROC			; __IsTimeStampOption, COMDAT
; _lpCmdLine$ = ecx

; 470  : 	const char* TIMESTAMP = "/timestamp";
; 471  : 	return (strncmp(lpCmdLine, TIMESTAMP, strlen(TIMESTAMP))==0);

  00000	6a 0a		 push	 10			; 0000000aH
  00002	68 00 00 00 00	 push	 OFFSET ??_C@_0L@HBFAHJLE@?1timestamp@
  00007	51		 push	 ecx
  00008	e8 00 00 00 00	 call	 _strncmp
  0000d	83 c4 0c	 add	 esp, 12			; 0000000cH
  00010	85 c0		 test	 eax, eax
  00012	0f 94 c0	 sete	 al

; 472  : }

  00015	c3		 ret	 0
?__IsTimeStampOption@@YA_NPAD@Z ENDP			; __IsTimeStampOption
_TEXT	ENDS
; Function compile flags: /Ogtp
; File D:\_m2work\txoko-m2-work\txoko-client-src\source\UserInterface\UserInterface.cpp
;	COMDAT ?__PrintTimeStamp@@YAXXZ
_TEXT	SEGMENT
?__PrintTimeStamp@@YAXXZ PROC				; __PrintTimeStamp, COMDAT

; 476  : #ifdef	_DEBUG
; 477  : 	if (__IS_TEST_SERVER_MODE__)
; 478  : 		LogBoxf("METIN2 BINARY TEST DEBUG VERSION %s  ( MS C++ %d Compiled )", __TIMESTAMP__, _MSC_VER);
; 479  : 	else
; 480  : 		LogBoxf("METIN2 BINARY DEBUG VERSION %s ( MS C++ %d Compiled )", __TIMESTAMP__, _MSC_VER);
; 481  : 	
; 482  : #else
; 483  : 	if (__IS_TEST_SERVER_MODE__)

  00000	80 3d 00 00 00
	00 00		 cmp	 BYTE PTR ?__IS_TEST_SERVER_MODE__@@3_NA, 0 ; __IS_TEST_SERVER_MODE__
  00007	b9 00 00 00 00	 mov	 ecx, OFFSET ??_C@_0DL@IHCMKBOK@METIN2?5BINARY?5DISTRIBUTE?5VERSIO@

; 484  : 		LogBoxf("METIN2 BINARY TEST VERSION %s  ( MS C++ %d Compiled )", __TIMESTAMP__, _MSC_VER);
; 485  : 	else
; 486  : 		LogBoxf("METIN2 BINARY DISTRIBUTE VERSION %s ( MS C++ %d Compiled )", __TIMESTAMP__, _MSC_VER);			
; 487  : #endif			
; 488  : }

  0000c	68 98 07 00 00	 push	 1944			; 00000798H
  00011	b8 00 00 00 00	 mov	 eax, OFFSET ??_C@_0DG@JFMPGIL@METIN2?5BINARY?5TEST?5VERSION?5?$CFs?5?5@
  00016	0f 44 c1	 cmove	 eax, ecx
  00019	68 00 00 00 00	 push	 OFFSET ??_C@_0BJ@OOGCIICC@Tue?5Jan?512?513?326?355?52021@
  0001e	50		 push	 eax
  0001f	e8 00 00 00 00	 call	 ?LogBoxf@@YAXPBDZZ	; LogBoxf
  00024	83 c4 0c	 add	 esp, 12			; 0000000cH
  00027	c3		 ret	 0
?__PrintTimeStamp@@YAXXZ ENDP				; __PrintTimeStamp
_TEXT	ENDS
; Function compile flags: /Ogtp
; File D:\_m2work\txoko-m2-work\txoko-client-src\source\UserInterface\UserInterface.cpp
;	COMDAT ?__IsLocaleOption@@YA_NPAD@Z
_TEXT	SEGMENT
?__IsLocaleOption@@YA_NPAD@Z PROC			; __IsLocaleOption, COMDAT
; _lpCmdLine$ = ecx

; 492  : 	return (strcmp(lpCmdLine, "--locale") == 0);

  00000	b8 00 00 00 00	 mov	 eax, OFFSET ??_C@_08LJMAFCGB@?9?9locale@
$LL3@IsLocaleOp:
  00005	8a 11		 mov	 dl, BYTE PTR [ecx]
  00007	3a 10		 cmp	 dl, BYTE PTR [eax]
  00009	75 1e		 jne	 SHORT $LN4@IsLocaleOp
  0000b	84 d2		 test	 dl, dl
  0000d	74 12		 je	 SHORT $LN5@IsLocaleOp
  0000f	8a 51 01	 mov	 dl, BYTE PTR [ecx+1]
  00012	3a 50 01	 cmp	 dl, BYTE PTR [eax+1]
  00015	75 12		 jne	 SHORT $LN4@IsLocaleOp
  00017	83 c1 02	 add	 ecx, 2
  0001a	83 c0 02	 add	 eax, 2
  0001d	84 d2		 test	 dl, dl
  0001f	75 e4		 jne	 SHORT $LL3@IsLocaleOp
$LN5@IsLocaleOp:
  00021	33 c0		 xor	 eax, eax
  00023	85 c0		 test	 eax, eax
  00025	0f 94 c0	 sete	 al

; 493  : }

  00028	c3		 ret	 0
$LN4@IsLocaleOp:

; 492  : 	return (strcmp(lpCmdLine, "--locale") == 0);

  00029	1b c0		 sbb	 eax, eax
  0002b	83 c8 01	 or	 eax, 1
  0002e	85 c0		 test	 eax, eax
  00030	0f 94 c0	 sete	 al

; 493  : }

  00033	c3		 ret	 0
?__IsLocaleOption@@YA_NPAD@Z ENDP			; __IsLocaleOption
_TEXT	ENDS
; Function compile flags: /Ogtp
; File D:\_m2work\txoko-m2-work\txoko-client-src\source\UserInterface\UserInterface.cpp
;	COMDAT ?__IsLocaleVersion@@YA_NPAD@Z
_TEXT	SEGMENT
?__IsLocaleVersion@@YA_NPAD@Z PROC			; __IsLocaleVersion, COMDAT
; _lpCmdLine$ = ecx

; 497  : 	return (strcmp(lpCmdLine, "--perforce-revision") == 0);

  00000	b8 00 00 00 00	 mov	 eax, OFFSET ??_C@_0BE@FJLABEAB@?9?9perforce?9revision@
$LL3@IsLocaleVe:
  00005	8a 11		 mov	 dl, BYTE PTR [ecx]
  00007	3a 10		 cmp	 dl, BYTE PTR [eax]
  00009	75 1e		 jne	 SHORT $LN4@IsLocaleVe
  0000b	84 d2		 test	 dl, dl
  0000d	74 12		 je	 SHORT $LN5@IsLocaleVe
  0000f	8a 51 01	 mov	 dl, BYTE PTR [ecx+1]
  00012	3a 50 01	 cmp	 dl, BYTE PTR [eax+1]
  00015	75 12		 jne	 SHORT $LN4@IsLocaleVe
  00017	83 c1 02	 add	 ecx, 2
  0001a	83 c0 02	 add	 eax, 2
  0001d	84 d2		 test	 dl, dl
  0001f	75 e4		 jne	 SHORT $LL3@IsLocaleVe
$LN5@IsLocaleVe:
  00021	33 c0		 xor	 eax, eax
  00023	85 c0		 test	 eax, eax
  00025	0f 94 c0	 sete	 al

; 498  : }

  00028	c3		 ret	 0
$LN4@IsLocaleVe:

; 497  : 	return (strcmp(lpCmdLine, "--perforce-revision") == 0);

  00029	1b c0		 sbb	 eax, eax
  0002b	83 c8 01	 or	 eax, 1
  0002e	85 c0		 test	 eax, eax
  00030	0f 94 c0	 sete	 al

; 498  : }

  00033	c3		 ret	 0
?__IsLocaleVersion@@YA_NPAD@Z ENDP			; __IsLocaleVersion
_TEXT	ENDS
; Function compile flags: /Ogtp
; File D:\_m2work\txoko-m2-work\txoko-client-src\source\UserInterface\UserInterface.cpp
; File C:\Program Files (x86)\Windows Kits\10\Include\10.0.26100.0\ucrt\string.h
; File D:\_m2work\txoko-m2-work\txoko-client-src\source\UserInterface\UserInterface.cpp
; File C:\Program Files (x86)\Windows Kits\10\Include\10.0.26100.0\ucrt\string.h
; File D:\_m2work\txoko-m2-work\txoko-client-src\source\UserInterface\UserInterface.cpp
;	COMDAT _WinMain@16
_TEXT	SEGMENT
_hInstance$GSCopy$1$ = -548				; size = 4
_lpCmdLine$GSCopy$1$ = -544				; size = 4
tv309 = -540						; size = 4
_szArgv$1$ = -536					; size = 4
_nArgc$ = -532						; size = 4
_bQuit$1$ = -525					; size = 1
_szVersionPath$1 = -524					; size = 260
_szModuleName$2 = -264					; size = 260
__$ArrayPad$ = -4					; size = 4
_hInstance$ = 8						; size = 4
_hPrevInstance$ = 12					; size = 4
_lpCmdLine$ = 16					; size = 4
_nCmdShow$ = 20						; size = 4
_WinMain@16 PROC					; COMDAT

; 515  : {

  00000	55		 push	 ebp
  00001	8b ec		 mov	 ebp, esp
  00003	81 ec 24 02 00
	00		 sub	 esp, 548		; 00000224H
  00009	a1 00 00 00 00	 mov	 eax, DWORD PTR ___security_cookie
  0000e	33 c5		 xor	 eax, ebp
  00010	89 45 fc	 mov	 DWORD PTR __$ArrayPad$[ebp], eax
  00013	53		 push	 ebx
  00014	8b 5d 10	 mov	 ebx, DWORD PTR _lpCmdLine$[ebp]
  00017	56		 push	 esi
  00018	8b 75 08	 mov	 esi, DWORD PTR _hInstance$[ebp]
; File C:\Program Files (x86)\Windows Kits\10\Include\10.0.26100.0\ucrt\string.h

; 520  :         return const_cast<char*>(strstr(static_cast<char const*>(_String), _SubString));

  0001b	68 00 00 00 00	 push	 OFFSET ??_C@_0N@FPLLJIDE@?9?9hackshield@
  00020	53		 push	 ebx
; File D:\_m2work\txoko-m2-work\txoko-client-src\source\UserInterface\UserInterface.cpp

; 515  : {

  00021	89 b5 dc fd ff
	ff		 mov	 DWORD PTR _hInstance$GSCopy$1$[ebp], esi
  00027	89 9d e0 fd ff
	ff		 mov	 DWORD PTR _lpCmdLine$GSCopy$1$[ebp], ebx
; File C:\Program Files (x86)\Windows Kits\10\Include\10.0.26100.0\ucrt\string.h

; 520  :         return const_cast<char*>(strstr(static_cast<char const*>(_String), _SubString));

  0002d	e8 00 00 00 00	 call	 _strstr
  00032	83 c4 08	 add	 esp, 8
; File D:\_m2work\txoko-m2-work\txoko-client-src\source\UserInterface\UserInterface.cpp

; 516  : 	if (strstr(lpCmdLine, "--hackshield") != 0)

  00035	85 c0		 test	 eax, eax
  00037	0f 85 43 02 00
	00		 jne	 $LN39@WinMain

; 517  : 		return 0;
; 518  : 
; 519  : #ifdef _DEBUG
; 520  : 	_CrtSetDbgFlag( _CRTDBG_ALLOC_MEM_DF | _CRTDBG_CHECK_CRT_DF | _CRTDBG_LEAK_CHECK_DF );
; 521  : 	//_CrtSetBreakAlloc( 110247 ); 
; 522  : #endif
; 523  : 
; 524  : 	ApplicationStringTable_Initialize(hInstance);

  0003d	57		 push	 edi
  0003e	8b ce		 mov	 ecx, esi
  00040	e8 00 00 00 00	 call	 ?ApplicationStringTable_Initialize@@YAXPAUHINSTANCE__@@@Z ; ApplicationStringTable_Initialize

; 525  : 
; 526  : 	LocaleService_LoadConfig("locale.cfg");

  00045	e8 00 00 00 00	 call	 ?LocaleService_LoadConfig@@YAXPBD@Z ; LocaleService_LoadConfig

; 527  : 	SetDefaultCodePage(LocaleService_GetCodePage());	

  0004a	e8 00 00 00 00	 call	 ?LocaleService_GetCodePage@@YAIXZ ; LocaleService_GetCodePage
  0004f	50		 push	 eax
  00050	e8 00 00 00 00	 call	 ?SetDefaultCodePage@@YA_NK@Z ; SetDefaultCodePage

; 528  : 
; 529  : #ifdef XTRAP_CLIENT_ENABLE
; 530  : 	if (!XTrap_Init())
; 531  : 		return 0;
; 532  : #endif
; 533  : 
; 534  : #ifdef USE_AHNLAB_HACKSHIELD
; 535  : 	if (!HackShield_Init())
; 536  : 		return 0;
; 537  : #endif
; 538  : 
; 539  : #ifdef USE_NPROTECT_GAMEGUARD
; 540  : 	if (!GameGuard_Init())
; 541  : 		return 0;
; 542  : #endif
; 543  : 
; 544  : #if defined(CHECK_LATEST_DATA_FILES)
; 545  : 	if (!CheckLatestFiles())
; 546  : 		return 0;
; 547  : #endif
; 548  : 
; 549  : 	bool bQuit = false;
; 550  : 	bool bAuthKeyChecked = false;	//OpenID      .
; 551  : 	int nArgc = 0;
; 552  : 	PCHAR* szArgv = CommandLineToArgv( lpCmdLine, &nArgc );

  00055	8d 85 ec fd ff
	ff		 lea	 eax, DWORD PTR _nArgc$[ebp]
  0005b	c6 85 f3 fd ff
	ff 00		 mov	 BYTE PTR _bQuit$1$[ebp], 0
  00062	50		 push	 eax
  00063	53		 push	 ebx
  00064	c7 85 ec fd ff
	ff 00 00 00 00	 mov	 DWORD PTR _nArgc$[ebp], 0
  0006e	e8 00 00 00 00	 call	 ?CommandLineToArgv@@YAPAPADPADPAH@Z ; CommandLineToArgv

; 553  : 
; 554  : 	for( int i=0; i < nArgc; i++ ) {

  00073	33 ff		 xor	 edi, edi
  00075	89 85 e8 fd ff
	ff		 mov	 DWORD PTR _szArgv$1$[ebp], eax
  0007b	83 c4 0c	 add	 esp, 12			; 0000000cH
  0007e	39 bd ec fd ff
	ff		 cmp	 DWORD PTR _nArgc$[ebp], edi
  00084	0f 8e 8f 01 00
	00		 jle	 $LN32@WinMain

; 517  : 		return 0;
; 518  : 
; 519  : #ifdef _DEBUG
; 520  : 	_CrtSetDbgFlag( _CRTDBG_ALLOC_MEM_DF | _CRTDBG_CHECK_CRT_DF | _CRTDBG_LEAK_CHECK_DF );
; 521  : 	//_CrtSetBreakAlloc( 110247 ); 
; 522  : #endif
; 523  : 
; 524  : 	ApplicationStringTable_Initialize(hInstance);

  0008a	8d 58 08	 lea	 ebx, DWORD PTR [eax+8]
  0008d	0f 1f 00	 npad	 3
$LL4@WinMain:

; 555  : 		if(szArgv[i] == 0)

  00090	8b 34 b8	 mov	 esi, DWORD PTR [eax+edi*4]
  00093	8d 04 b8	 lea	 eax, DWORD PTR [eax+edi*4]
  00096	89 85 e4 fd ff
	ff		 mov	 DWORD PTR tv309[ebp], eax
  0009c	85 f6		 test	 esi, esi
  0009e	0f 84 2f 01 00
	00		 je	 $LN42@WinMain

; 556  : 			continue;
; 557  : 		if (__IsLocaleVersion(szArgv[i])) // #0000829: [M2EU]       

  000a4	8b ce		 mov	 ecx, esi
  000a6	e8 00 00 00 00	 call	 ?__IsLocaleVersion@@YA_NPAD@Z ; __IsLocaleVersion
  000ab	84 c0		 test	 al, al
  000ad	74 6d		 je	 SHORT $LN7@WinMain

; 558  : 		{
; 559  : 			char szModuleName[MAX_PATH];
; 560  : 			char szVersionPath[MAX_PATH];
; 561  : 			GetModuleFileName(NULL, szModuleName, sizeof(szModuleName));

  000af	68 04 01 00 00	 push	 260			; 00000104H
  000b4	8d 85 f8 fe ff
	ff		 lea	 eax, DWORD PTR _szModuleName$2[ebp]
  000ba	50		 push	 eax
  000bb	6a 00		 push	 0
  000bd	ff 15 00 00 00
	00		 call	 DWORD PTR __imp__GetModuleFileNameA@12

; 562  : 			sprintf(szVersionPath, "%s.version", szModuleName);

  000c3	8d 85 f8 fe ff
	ff		 lea	 eax, DWORD PTR _szModuleName$2[ebp]
  000c9	50		 push	 eax
  000ca	8d 85 f4 fd ff
	ff		 lea	 eax, DWORD PTR _szVersionPath$1[ebp]
